   1              		.file	"core.c"
   2              		.section	.rodata.str1.8,"aMS",@progbits,1
   3              		.align 8
   4              	.LC0:
   5 0000 62756649 		.string	"bufInitialise(): Cannot allocate memory for buffer"
   5      6E697469 
   5      616C6973 
   5      6528293A 
   5      2043616E 
   6              		.section	.text.unlikely,"ax",@progbits
   7              	.LCOLDB1:
   8              		.text
   9              	.LHOTB1:
  10              		.p2align 4,,15
  11              		.globl	bufInitialise
  13              	bufInitialise:
  14              	.LFB47:
  15              		.cfi_startproc
  16 0000 4155     		pushq	%r13
  17              		.cfi_def_cfa_offset 16
  18              		.cfi_offset 13, -16
  19 0002 4154     		pushq	%r12
  20              		.cfi_def_cfa_offset 24
  21              		.cfi_offset 12, -24
  22 0004 4989CD   		movq	%rcx, %r13
  23 0007 55       		pushq	%rbp
  24              		.cfi_def_cfa_offset 32
  25              		.cfi_offset 6, -32
  26 0008 53       		pushq	%rbx
  27              		.cfi_def_cfa_offset 40
  28              		.cfi_offset 3, -40
  29 0009 4889FB   		movq	%rdi, %rbx
  30 000c 4989F4   		movq	%rsi, %r12
  31 000f 89D5     		movl	%edx, %ebp
  32 0011 4883EC08 		subq	$8, %rsp
  33              		.cfi_def_cfa_offset 48
  34 0015 885718   		movb	%dl, 24(%rdi)
  35 0018 4889F7   		movq	%rsi, %rdi
  36 001b E8000000 		call	malloc@PLT
  36      00
  37 0020 4885C0   		testq	%rax, %rax
  38 0023 488903   		movq	%rax, (%rbx)
  39 0026 7438     		je	.L8
  40 0028 4A8D1420 		leaq	(%rax,%r12), %rdx
  41 002c 4839D0   		cmpq	%rdx, %rax
  42 002f 730F     		jnb	.L5
  43 0031 4829C2   		subq	%rax, %rdx
  44 0034 400FB6F5 		movzbl	%bpl, %esi
  45 0038 4889C7   		movq	%rax, %rdi
  46 003b E8000000 		call	memset@PLT
  46      00
  47              	.L5:
  48 0040 4C896310 		movq	%r12, 16(%rbx)
  49 0044 48C74308 		movq	$0, 8(%rbx)
  49      00000000 
  50 004c 31C0     		xorl	%eax, %eax
  51              	.L3:
  52 004e 4883C408 		addq	$8, %rsp
  53              		.cfi_remember_state
  54              		.cfi_def_cfa_offset 40
  55 0052 5B       		popq	%rbx
  56              		.cfi_def_cfa_offset 32
  57 0053 5D       		popq	%rbp
  58              		.cfi_def_cfa_offset 24
  59 0054 415C     		popq	%r12
  60              		.cfi_def_cfa_offset 16
  61 0056 415D     		popq	%r13
  62              		.cfi_def_cfa_offset 8
  63 0058 C3       		ret
  64 0059 0F1F8000 		.p2align 4,,10
  64      000000
  65              		.p2align 3
  66              	.L8:
  67              		.cfi_restore_state
  68 0060 488D3500 		leaq	.LC0(%rip), %rsi
  68      000000
  69 0067 4C89EF   		movq	%r13, %rdi
  70 006a E8000000 		call	errPrefix@PLT
  70      00
  71 006f B8010000 		movl	$1, %eax
  71      00
  72 0074 EBD8     		jmp	.L3
  73              		.cfi_endproc
  74              	.LFE47:
  76              		.section	.text.unlikely
  77              	.LCOLDE1:
  78              		.text
  79              	.LHOTE1:
  80              		.section	.text.unlikely
  81              	.LCOLDB2:
  82              		.text
  83              	.LHOTB2:
  84 0076 662E0F1F 		.p2align 4,,15
  84      84000000 
  84      0000
  85              		.globl	bufDestroy
  87              	bufDestroy:
  88              	.LFB48:
  89              		.cfi_startproc
  90 0080 53       		pushq	%rbx
  91              		.cfi_def_cfa_offset 16
  92              		.cfi_offset 3, -16
  93 0081 4889FB   		movq	%rdi, %rbx
  94 0084 488B3F   		movq	(%rdi), %rdi
  95 0087 E8000000 		call	free@PLT
  95      00
  96 008c 48C70300 		movq	$0, (%rbx)
  96      000000
  97 0093 48C74310 		movq	$0, 16(%rbx)
  97      00000000 
  98 009b 48C74308 		movq	$0, 8(%rbx)
  98      00000000 
  99 00a3 C6431800 		movb	$0, 24(%rbx)
 100 00a7 5B       		popq	%rbx
 101              		.cfi_def_cfa_offset 8
 102 00a8 C3       		ret
 103              		.cfi_endproc
 104              	.LFE48:
 106              		.section	.text.unlikely
 107              	.LCOLDE2:
 108              		.text
 109              	.LHOTE2:
 110              		.section	.rodata.str1.8
 111 0033 00000000 		.align 8
 111      00
 112              	.LC3:
 113 0038 62756644 		.string	"bufDeepCopy(): Cannot allocate memory for buffer"
 113      65657043 
 113      6F707928 
 113      293A2043 
 113      616E6E6F 
 114              		.section	.text.unlikely
 115              	.LCOLDB4:
 116              		.text
 117              	.LHOTB4:
 118 00a9 0F1F8000 		.p2align 4,,15
 118      000000
 119              		.globl	bufDeepCopy
 121              	bufDeepCopy:
 122              	.LFB49:
 123              		.cfi_startproc
 124 00b0 4154     		pushq	%r12
 125              		.cfi_def_cfa_offset 16
 126              		.cfi_offset 12, -16
 127 00b2 55       		pushq	%rbp
 128              		.cfi_def_cfa_offset 24
 129              		.cfi_offset 6, -24
 130 00b3 4989D4   		movq	%rdx, %r12
 131 00b6 53       		pushq	%rbx
 132              		.cfi_def_cfa_offset 32
 133              		.cfi_offset 3, -32
 134 00b7 4889FB   		movq	%rdi, %rbx
 135 00ba 4889F5   		movq	%rsi, %rbp
 136 00bd 4883EC10 		subq	$16, %rsp
 137              		.cfi_def_cfa_offset 48
 138 00c1 488B3F   		movq	(%rdi), %rdi
 139 00c4 4885FF   		testq	%rdi, %rdi
 140 00c7 0F846B03 		je	.L15
 140      0000
 141 00cd 488B4610 		movq	16(%rsi), %rax
 142 00d1 48394310 		cmpq	%rax, 16(%rbx)
 143 00d5 0F824503 		jb	.L83
 143      0000
 144              	.L14:
 145 00db 488B5508 		movq	8(%rbp), %rdx
 146 00df 48895308 		movq	%rdx, 8(%rbx)
 147 00e3 0FB64518 		movzbl	24(%rbp), %eax
 148 00e7 884318   		movb	%al, 24(%rbx)
 149 00ea 488B7500 		movq	0(%rbp), %rsi
 150 00ee E8000000 		call	memcpy@PLT
 150      00
 151 00f3 4C8B13   		movq	(%rbx), %r10
 152 00f6 488B6B08 		movq	8(%rbx), %rbp
 153 00fa 4C89D7   		movq	%r10, %rdi
 154 00fd 48037B10 		addq	16(%rbx), %rdi
 155 0101 498D142A 		leaq	(%r10,%rbp), %rdx
 156 0105 4839FA   		cmpq	%rdi, %rdx
 157 0108 0F83DC02 		jnb	.L26
 157      0000
 158 010e 488D7201 		leaq	1(%rdx), %rsi
 159 0112 4989F9   		movq	%rdi, %r9
 160 0115 488D4B18 		leaq	24(%rbx), %rcx
 161 0119 4929F1   		subq	%rsi, %r9
 162 011c 4889F0   		movq	%rsi, %rax
 163 011f 4D8D5C29 		leaq	1(%r9,%rbp), %r11
 163      01
 164 0124 4D8D4101 		leaq	1(%r9), %r8
 165 0128 4D01D3   		addq	%r10, %r11
 166 012b 4939CB   		cmpq	%rcx, %r11
 167 012e 488D4B19 		leaq	25(%rbx), %rcx
 168 0132 410F96C3 		setbe	%r11b
 169 0136 4839CA   		cmpq	%rcx, %rdx
 170 0139 0F93C1   		setnb	%cl
 171 013c 4108CB   		orb	%cl, %r11b
 172 013f 0F84B702 		je	.L27
 172      0000
 173 0145 4983F816 		cmpq	$22, %r8
 174 0149 0F86AD02 		jbe	.L27
 174      0000
 175 014f 4889D6   		movq	%rdx, %rsi
 176 0152 48F7DE   		negq	%rsi
 177 0155 83E60F   		andl	$15, %esi
 178 0158 4C39C6   		cmpq	%r8, %rsi
 179 015b 4889F1   		movq	%rsi, %rcx
 180 015e 490F47C8 		cmova	%r8, %rcx
 181 0162 4885C9   		testq	%rcx, %rcx
 182 0165 0F84A502 		je	.L29
 182      0000
 183 016b 0FB67318 		movzbl	24(%rbx), %esi
 184 016f 4883F901 		cmpq	$1, %rcx
 185 0173 408832   		movb	%sil, (%rdx)
 186 0176 0F840E01 		je	.L19
 186      0000
 187 017c 0FB67318 		movzbl	24(%rbx), %esi
 188 0180 4883F902 		cmpq	$2, %rcx
 189 0184 488D4202 		leaq	2(%rdx), %rax
 190 0188 40887201 		movb	%sil, 1(%rdx)
 191 018c 0F84F800 		je	.L19
 191      0000
 192 0192 0FB67318 		movzbl	24(%rbx), %esi
 193 0196 4883F903 		cmpq	$3, %rcx
 194 019a 488D4203 		leaq	3(%rdx), %rax
 195 019e 40887202 		movb	%sil, 2(%rdx)
 196 01a2 0F84E200 		je	.L19
 196      0000
 197 01a8 0FB67318 		movzbl	24(%rbx), %esi
 198 01ac 4883F904 		cmpq	$4, %rcx
 199 01b0 488D4204 		leaq	4(%rdx), %rax
 200 01b4 40887203 		movb	%sil, 3(%rdx)
 201 01b8 0F84CC00 		je	.L19
 201      0000
 202 01be 0FB67318 		movzbl	24(%rbx), %esi
 203 01c2 4883F905 		cmpq	$5, %rcx
 204 01c6 488D4205 		leaq	5(%rdx), %rax
 205 01ca 40887204 		movb	%sil, 4(%rdx)
 206 01ce 0F84B600 		je	.L19
 206      0000
 207 01d4 0FB67318 		movzbl	24(%rbx), %esi
 208 01d8 4883F906 		cmpq	$6, %rcx
 209 01dc 488D4206 		leaq	6(%rdx), %rax
 210 01e0 40887205 		movb	%sil, 5(%rdx)
 211 01e4 0F84A000 		je	.L19
 211      0000
 212 01ea 0FB67318 		movzbl	24(%rbx), %esi
 213 01ee 4883F907 		cmpq	$7, %rcx
 214 01f2 488D4207 		leaq	7(%rdx), %rax
 215 01f6 40887206 		movb	%sil, 6(%rdx)
 216 01fa 0F848A00 		je	.L19
 216      0000
 217 0200 0FB67318 		movzbl	24(%rbx), %esi
 218 0204 4883F908 		cmpq	$8, %rcx
 219 0208 488D4208 		leaq	8(%rdx), %rax
 220 020c 40887207 		movb	%sil, 7(%rdx)
 221 0210 7478     		je	.L19
 222 0212 0FB67318 		movzbl	24(%rbx), %esi
 223 0216 4883F909 		cmpq	$9, %rcx
 224 021a 488D4209 		leaq	9(%rdx), %rax
 225 021e 40887208 		movb	%sil, 8(%rdx)
 226 0222 7466     		je	.L19
 227 0224 0FB67318 		movzbl	24(%rbx), %esi
 228 0228 4883F90A 		cmpq	$10, %rcx
 229 022c 488D420A 		leaq	10(%rdx), %rax
 230 0230 40887209 		movb	%sil, 9(%rdx)
 231 0234 7454     		je	.L19
 232 0236 0FB67318 		movzbl	24(%rbx), %esi
 233 023a 4883F90B 		cmpq	$11, %rcx
 234 023e 488D420B 		leaq	11(%rdx), %rax
 235 0242 4088720A 		movb	%sil, 10(%rdx)
 236 0246 7442     		je	.L19
 237 0248 0FB67318 		movzbl	24(%rbx), %esi
 238 024c 4883F90C 		cmpq	$12, %rcx
 239 0250 488D420C 		leaq	12(%rdx), %rax
 240 0254 4088720B 		movb	%sil, 11(%rdx)
 241 0258 7430     		je	.L19
 242 025a 0FB67318 		movzbl	24(%rbx), %esi
 243 025e 4883F90D 		cmpq	$13, %rcx
 244 0262 488D420D 		leaq	13(%rdx), %rax
 245 0266 4088720C 		movb	%sil, 12(%rdx)
 246 026a 741E     		je	.L19
 247 026c 0FB67318 		movzbl	24(%rbx), %esi
 248 0270 4883F90F 		cmpq	$15, %rcx
 249 0274 488D420E 		leaq	14(%rdx), %rax
 250 0278 4088720D 		movb	%sil, 13(%rdx)
 251 027c 750C     		jne	.L19
 252 027e 0FB67318 		movzbl	24(%rbx), %esi
 253 0282 488D420F 		leaq	15(%rdx), %rax
 254 0286 4088720E 		movb	%sil, 14(%rdx)
 255              	.L19:
 256 028a 4929C8   		subq	%rcx, %r8
 257 028d 4C89CA   		movq	%r9, %rdx
 258 0290 498D70F0 		leaq	-16(%r8), %rsi
 259 0294 4829CA   		subq	%rcx, %rdx
 260 0297 48C1EE04 		shrq	$4, %rsi
 261 029b 4883C601 		addq	$1, %rsi
 262 029f 4989F3   		movq	%rsi, %r11
 263 02a2 49C1E304 		salq	$4, %r11
 264 02a6 4883FA0E 		cmpq	$14, %rdx
 265 02aa 7640     		jbe	.L21
 266 02ac 0FB65318 		movzbl	24(%rbx), %edx
 267 02b0 4801E9   		addq	%rbp, %rcx
 268 02b3 4C01D1   		addq	%r10, %rcx
 269 02b6 8954240C 		movl	%edx, 12(%rsp)
 270 02ba 31D2     		xorl	%edx, %edx
 271 02bc 660F6E44 		movd	12(%rsp), %xmm0
 271      240C
 272 02c2 660F60C0 		punpcklbw	%xmm0, %xmm0
 273 02c6 660F61C0 		punpcklwd	%xmm0, %xmm0
 274 02ca 660F70C0 		pshufd	$0, %xmm0, %xmm0
 274      00
 275              	.L22:
 276 02cf 4883C201 		addq	$1, %rdx
 277 02d3 4883C110 		addq	$16, %rcx
 278 02d7 0F2941F0 		movaps	%xmm0, -16(%rcx)
 279 02db 4839D6   		cmpq	%rdx, %rsi
 280 02de 77EF     		ja	.L22
 281 02e0 4C01D8   		addq	%r11, %rax
 282 02e3 4D39D8   		cmpq	%r11, %r8
 283 02e6 0F84FE00 		je	.L26
 283      0000
 284              	.L21:
 285 02ec 0FB65318 		movzbl	24(%rbx), %edx
 286 02f0 8810     		movb	%dl, (%rax)
 287 02f2 488D5001 		leaq	1(%rax), %rdx
 288 02f6 4839D7   		cmpq	%rdx, %rdi
 289 02f9 0F86EB00 		jbe	.L26
 289      0000
 290 02ff 0FB65318 		movzbl	24(%rbx), %edx
 291 0303 885001   		movb	%dl, 1(%rax)
 292 0306 488D5002 		leaq	2(%rax), %rdx
 293 030a 4839D7   		cmpq	%rdx, %rdi
 294 030d 0F86D700 		jbe	.L26
 294      0000
 295 0313 0FB65318 		movzbl	24(%rbx), %edx
 296 0317 885002   		movb	%dl, 2(%rax)
 297 031a 488D5003 		leaq	3(%rax), %rdx
 298 031e 4839D7   		cmpq	%rdx, %rdi
 299 0321 0F86C300 		jbe	.L26
 299      0000
 300 0327 0FB65318 		movzbl	24(%rbx), %edx
 301 032b 885003   		movb	%dl, 3(%rax)
 302 032e 488D5004 		leaq	4(%rax), %rdx
 303 0332 4839D7   		cmpq	%rdx, %rdi
 304 0335 0F86AF00 		jbe	.L26
 304      0000
 305 033b 0FB65318 		movzbl	24(%rbx), %edx
 306 033f 885004   		movb	%dl, 4(%rax)
 307 0342 488D5005 		leaq	5(%rax), %rdx
 308 0346 4839D7   		cmpq	%rdx, %rdi
 309 0349 0F869B00 		jbe	.L26
 309      0000
 310 034f 0FB65318 		movzbl	24(%rbx), %edx
 311 0353 885005   		movb	%dl, 5(%rax)
 312 0356 488D5006 		leaq	6(%rax), %rdx
 313 035a 4839D7   		cmpq	%rdx, %rdi
 314 035d 0F868700 		jbe	.L26
 314      0000
 315 0363 0FB65318 		movzbl	24(%rbx), %edx
 316 0367 885006   		movb	%dl, 6(%rax)
 317 036a 488D5007 		leaq	7(%rax), %rdx
 318 036e 4839D7   		cmpq	%rdx, %rdi
 319 0371 7677     		jbe	.L26
 320 0373 0FB65318 		movzbl	24(%rbx), %edx
 321 0377 885007   		movb	%dl, 7(%rax)
 322 037a 488D5008 		leaq	8(%rax), %rdx
 323 037e 4839D7   		cmpq	%rdx, %rdi
 324 0381 7667     		jbe	.L26
 325 0383 0FB65318 		movzbl	24(%rbx), %edx
 326 0387 885008   		movb	%dl, 8(%rax)
 327 038a 488D5009 		leaq	9(%rax), %rdx
 328 038e 4839D7   		cmpq	%rdx, %rdi
 329 0391 7657     		jbe	.L26
 330 0393 0FB65318 		movzbl	24(%rbx), %edx
 331 0397 885009   		movb	%dl, 9(%rax)
 332 039a 488D500A 		leaq	10(%rax), %rdx
 333 039e 4839D7   		cmpq	%rdx, %rdi
 334 03a1 7647     		jbe	.L26
 335 03a3 0FB65318 		movzbl	24(%rbx), %edx
 336 03a7 88500A   		movb	%dl, 10(%rax)
 337 03aa 488D500B 		leaq	11(%rax), %rdx
 338 03ae 4839D7   		cmpq	%rdx, %rdi
 339 03b1 7637     		jbe	.L26
 340 03b3 0FB65318 		movzbl	24(%rbx), %edx
 341 03b7 88500B   		movb	%dl, 11(%rax)
 342 03ba 488D500C 		leaq	12(%rax), %rdx
 343 03be 4839D7   		cmpq	%rdx, %rdi
 344 03c1 7627     		jbe	.L26
 345 03c3 0FB65318 		movzbl	24(%rbx), %edx
 346 03c7 88500C   		movb	%dl, 12(%rax)
 347 03ca 488D500D 		leaq	13(%rax), %rdx
 348 03ce 4839D7   		cmpq	%rdx, %rdi
 349 03d1 7617     		jbe	.L26
 350 03d3 0FB65318 		movzbl	24(%rbx), %edx
 351 03d7 88500D   		movb	%dl, 13(%rax)
 352 03da 488D500E 		leaq	14(%rax), %rdx
 353 03de 4839D7   		cmpq	%rdx, %rdi
 354 03e1 7607     		jbe	.L26
 355 03e3 0FB65318 		movzbl	24(%rbx), %edx
 356 03e7 88500E   		movb	%dl, 14(%rax)
 357              	.L26:
 358 03ea 31C0     		xorl	%eax, %eax
 359              	.L16:
 360 03ec 4883C410 		addq	$16, %rsp
 361              		.cfi_remember_state
 362              		.cfi_def_cfa_offset 32
 363 03f0 5B       		popq	%rbx
 364              		.cfi_def_cfa_offset 24
 365 03f1 5D       		popq	%rbp
 366              		.cfi_def_cfa_offset 16
 367 03f2 415C     		popq	%r12
 368              		.cfi_def_cfa_offset 8
 369 03f4 C3       		ret
 370              		.p2align 4,,10
 371 03f5 0F1F00   		.p2align 3
 372              	.L84:
 373              		.cfi_restore_state
 374 03f8 4883C601 		addq	$1, %rsi
 375              	.L27:
 376 03fc 0FB64318 		movzbl	24(%rbx), %eax
 377 0400 4839F7   		cmpq	%rsi, %rdi
 378 0403 8846FF   		movb	%al, -1(%rsi)
 379 0406 75F0     		jne	.L84
 380 0408 EBE0     		jmp	.L26
 381 040a 660F1F44 		.p2align 4,,10
 381      0000
 382              		.p2align 3
 383              	.L29:
 384 0410 4889D0   		movq	%rdx, %rax
 385 0413 E972FEFF 		jmp	.L19
 385      FF
 386 0418 0F1F8400 		.p2align 4,,10
 386      00000000 
 387              		.p2align 3
 388              	.L83:
 389 0420 4889DF   		movq	%rbx, %rdi
 390 0423 E8000000 		call	bufDestroy@PLT
 390      00
 391 0428 488B3B   		movq	(%rbx), %rdi
 392 042b 4885FF   		testq	%rdi, %rdi
 393 042e 0F85A7FC 		jne	.L14
 393      FFFF
 394              		.p2align 4,,10
 395 0434 0F1F4000 		.p2align 3
 396              	.L15:
 397 0438 488B7D10 		movq	16(%rbp), %rdi
 398 043c 48897B10 		movq	%rdi, 16(%rbx)
 399 0440 E8000000 		call	malloc@PLT
 399      00
 400 0445 4885C0   		testq	%rax, %rax
 401 0448 488903   		movq	%rax, (%rbx)
 402 044b 7408     		je	.L13
 403 044d 4889C7   		movq	%rax, %rdi
 404 0450 E986FCFF 		jmp	.L14
 404      FF
 405              	.L13:
 406 0455 488D3500 		leaq	.LC3(%rip), %rsi
 406      000000
 407 045c 4C89E7   		movq	%r12, %rdi
 408 045f E8000000 		call	errPrefix@PLT
 408      00
 409 0464 B8010000 		movl	$1, %eax
 409      00
 410 0469 EB81     		jmp	.L16
 411              		.cfi_endproc
 412              	.LFE49:
 414              		.section	.text.unlikely
 415              	.LCOLDE4:
 416              		.text
 417              	.LHOTE4:
 418              		.section	.text.unlikely
 419              	.LCOLDB5:
 420              		.text
 421              	.LHOTB5:
 422 046b 0F1F4400 		.p2align 4,,15
 422      00
 423              		.globl	bufSwap
 425              	bufSwap:
 426              	.LFB50:
 427              		.cfi_startproc
 428 0470 4C8B0E   		movq	(%rsi), %r9
 429 0473 4C8B07   		movq	(%rdi), %r8
 430 0476 488B4F08 		movq	8(%rdi), %rcx
 431 047a 488B5710 		movq	16(%rdi), %rdx
 432 047e 0FB64718 		movzbl	24(%rdi), %eax
 433 0482 4C890F   		movq	%r9, (%rdi)
 434 0485 4C8B4E08 		movq	8(%rsi), %r9
 435 0489 4C894F08 		movq	%r9, 8(%rdi)
 436 048d 4C8B4E10 		movq	16(%rsi), %r9
 437 0491 4C894F10 		movq	%r9, 16(%rdi)
 438 0495 440FB64E 		movzbl	24(%rsi), %r9d
 438      18
 439 049a 44884F18 		movb	%r9b, 24(%rdi)
 440 049e 4C8906   		movq	%r8, (%rsi)
 441 04a1 48894E08 		movq	%rcx, 8(%rsi)
 442 04a5 48895610 		movq	%rdx, 16(%rsi)
 443 04a9 884618   		movb	%al, 24(%rsi)
 444 04ac C3       		ret
 445              		.cfi_endproc
 446              	.LFE50:
 448              		.section	.text.unlikely
 449              	.LCOLDE5:
 450              		.text
 451              	.LHOTE5:
 452              		.section	.text.unlikely
 453              	.LCOLDB6:
 454              		.text
 455              	.LHOTB6:
 456 04ad 0F1F00   		.p2align 4,,15
 457              		.globl	bufZeroLength
 459              	bufZeroLength:
 460              	.LFB51:
 461              		.cfi_startproc
 462 04b0 31C0     		xorl	%eax, %eax
 463 04b2 48837F10 		cmpq	$0, 16(%rdi)
 463      00
 464 04b7 48C74708 		movq	$0, 8(%rdi)
 464      00000000 
 465 04bf 741B     		je	.L86
 466              		.p2align 4,,10
 467 04c1 0F1F8000 		.p2align 3
 467      000000
 468              	.L90:
 469 04c8 0FB64F18 		movzbl	24(%rdi), %ecx
 470 04cc 488B17   		movq	(%rdi), %rdx
 471 04cf 880C02   		movb	%cl, (%rdx,%rax)
 472 04d2 4883C001 		addq	$1, %rax
 473 04d6 48394710 		cmpq	%rax, 16(%rdi)
 474 04da 77EC     		ja	.L90
 475              	.L86:
 476 04dc F3C3     		rep ret
 477              		.cfi_endproc
 478              	.LFE51:
 480              		.section	.text.unlikely
 481              	.LCOLDE6:
 482              		.text
 483              	.LHOTE6:
 484              		.section	.rodata.str1.8
 485 0069 00000000 		.align 8
 485      000000
 486              	.LC7:
 487 0070 43616E6E 		.string	"Cannot reallocate memory for buffer"
 487      6F742072 
 487      65616C6C 
 487      6F636174 
 487      65206D65 
 488              		.section	.rodata.str1.1,"aMS",@progbits,1
 489              	.LC8:
 490 0000 62756641 		.string	"bufAppendByte()"
 490      7070656E 
 490      64427974 
 490      65282900 
 491              		.section	.text.unlikely
 492              	.LCOLDB9:
 493              		.text
 494              	.LHOTB9:
 495 04de 6690     		.p2align 4,,15
 496              		.globl	bufAppendByte
 498              	bufAppendByte:
 499              	.LFB53:
 500              		.cfi_startproc
 501 04e0 4156     		pushq	%r14
 502              		.cfi_def_cfa_offset 16
 503              		.cfi_offset 14, -16
 504 04e2 4155     		pushq	%r13
 505              		.cfi_def_cfa_offset 24
 506              		.cfi_offset 13, -24
 507 04e4 4189F5   		movl	%esi, %r13d
 508 04e7 4154     		pushq	%r12
 509              		.cfi_def_cfa_offset 32
 510              		.cfi_offset 12, -32
 511 04e9 55       		pushq	%rbp
 512              		.cfi_def_cfa_offset 40
 513              		.cfi_offset 6, -40
 514 04ea 4889FD   		movq	%rdi, %rbp
 515 04ed 53       		pushq	%rbx
 516              		.cfi_def_cfa_offset 48
 517              		.cfi_offset 3, -48
 518 04ee 4883EC10 		subq	$16, %rsp
 519              		.cfi_def_cfa_offset 64
 520 04f2 4C8B7708 		movq	8(%rdi), %r14
 521 04f6 488B5F10 		movq	16(%rdi), %rbx
 522 04fa 4D8D6601 		leaq	1(%r14), %r12
 523 04fe 4939DC   		cmpq	%rbx, %r12
 524 0501 771D     		ja	.L95
 525 0503 488B07   		movq	(%rdi), %rax
 526              	.L94:
 527 0506 46882C30 		movb	%r13b, (%rax,%r14)
 528 050a 48834508 		addq	$1, 8(%rbp)
 528      01
 529 050f 31C0     		xorl	%eax, %eax
 530              	.L97:
 531 0511 4883C410 		addq	$16, %rsp
 532              		.cfi_remember_state
 533              		.cfi_def_cfa_offset 48
 534 0515 5B       		popq	%rbx
 535              		.cfi_def_cfa_offset 40
 536 0516 5D       		popq	%rbp
 537              		.cfi_def_cfa_offset 32
 538 0517 415C     		popq	%r12
 539              		.cfi_def_cfa_offset 24
 540 0519 415D     		popq	%r13
 541              		.cfi_def_cfa_offset 16
 542 051b 415E     		popq	%r14
 543              		.cfi_def_cfa_offset 8
 544 051d C3       		ret
 545 051e 6690     		.p2align 4,,10
 546              		.p2align 3
 547              	.L95:
 548              		.cfi_restore_state
 549 0520 4801DB   		addq	%rbx, %rbx
 550 0523 4939DC   		cmpq	%rbx, %r12
 551 0526 77F8     		ja	.L95
 552 0528 488B7D00 		movq	0(%rbp), %rdi
 553 052c 4889DE   		movq	%rbx, %rsi
 554 052f 48895424 		movq	%rdx, 8(%rsp)
 554      08
 555 0534 E8000000 		call	realloc@PLT
 555      00
 556 0539 4885C0   		testq	%rax, %rax
 557 053c 488B5424 		movq	8(%rsp), %rdx
 557      08
 558 0541 0F841B03 		je	.L164
 558      0000
 559 0547 4A8D1420 		leaq	(%rax,%r12), %rdx
 560 054b 48895D10 		movq	%rbx, 16(%rbp)
 561 054f 4801C3   		addq	%rax, %rbx
 562 0552 48894500 		movq	%rax, 0(%rbp)
 563 0556 4839DA   		cmpq	%rbx, %rdx
 564 0559 0F83DE02 		jnb	.L162
 564      0000
 565 055f 488D4A01 		leaq	1(%rdx), %rcx
 566 0563 4889DE   		movq	%rbx, %rsi
 567 0566 4C8D5518 		leaq	24(%rbp), %r10
 568 056a 4829CE   		subq	%rcx, %rsi
 569 056d 4989C8   		movq	%rcx, %r8
 570 0570 498D7C36 		leaq	2(%r14,%rsi), %rdi
 570      02
 571 0575 4C8D4E01 		leaq	1(%rsi), %r9
 572 0579 4801C7   		addq	%rax, %rdi
 573 057c 4939FA   		cmpq	%rdi, %r10
 574 057f 488D7D19 		leaq	25(%rbp), %rdi
 575 0583 410F93C2 		setnb	%r10b
 576 0587 4839FA   		cmpq	%rdi, %rdx
 577 058a 400F93C7 		setnb	%dil
 578 058e 4108FA   		orb	%dil, %r10b
 579 0591 0F84BD02 		je	.L107
 579      0000
 580 0597 4983F916 		cmpq	$22, %r9
 581 059b 0F86B302 		jbe	.L107
 581      0000
 582 05a1 4889D1   		movq	%rdx, %rcx
 583 05a4 48F7D9   		negq	%rcx
 584 05a7 83E10F   		andl	$15, %ecx
 585 05aa 4C39C9   		cmpq	%r9, %rcx
 586 05ad 490F47C9 		cmova	%r9, %rcx
 587 05b1 4885C9   		testq	%rcx, %rcx
 588 05b4 0F842201 		je	.L100
 588      0000
 589 05ba 0FB67D18 		movzbl	24(%rbp), %edi
 590 05be 4883F901 		cmpq	$1, %rcx
 591 05c2 40883A   		movb	%dil, (%rdx)
 592 05c5 0F840E01 		je	.L101
 592      0000
 593 05cb 0FB67D18 		movzbl	24(%rbp), %edi
 594 05cf 4883F902 		cmpq	$2, %rcx
 595 05d3 4C8D4202 		leaq	2(%rdx), %r8
 596 05d7 40887A01 		movb	%dil, 1(%rdx)
 597 05db 0F84F800 		je	.L101
 597      0000
 598 05e1 0FB67D18 		movzbl	24(%rbp), %edi
 599 05e5 4883F903 		cmpq	$3, %rcx
 600 05e9 4C8D4203 		leaq	3(%rdx), %r8
 601 05ed 40887A02 		movb	%dil, 2(%rdx)
 602 05f1 0F84E200 		je	.L101
 602      0000
 603 05f7 0FB67D18 		movzbl	24(%rbp), %edi
 604 05fb 4883F904 		cmpq	$4, %rcx
 605 05ff 4C8D4204 		leaq	4(%rdx), %r8
 606 0603 40887A03 		movb	%dil, 3(%rdx)
 607 0607 0F84CC00 		je	.L101
 607      0000
 608 060d 0FB67D18 		movzbl	24(%rbp), %edi
 609 0611 4883F905 		cmpq	$5, %rcx
 610 0615 4C8D4205 		leaq	5(%rdx), %r8
 611 0619 40887A04 		movb	%dil, 4(%rdx)
 612 061d 0F84B600 		je	.L101
 612      0000
 613 0623 0FB67D18 		movzbl	24(%rbp), %edi
 614 0627 4883F906 		cmpq	$6, %rcx
 615 062b 4C8D4206 		leaq	6(%rdx), %r8
 616 062f 40887A05 		movb	%dil, 5(%rdx)
 617 0633 0F84A000 		je	.L101
 617      0000
 618 0639 0FB67D18 		movzbl	24(%rbp), %edi
 619 063d 4883F907 		cmpq	$7, %rcx
 620 0641 4C8D4207 		leaq	7(%rdx), %r8
 621 0645 40887A06 		movb	%dil, 6(%rdx)
 622 0649 0F848A00 		je	.L101
 622      0000
 623 064f 0FB67D18 		movzbl	24(%rbp), %edi
 624 0653 4883F908 		cmpq	$8, %rcx
 625 0657 4C8D4208 		leaq	8(%rdx), %r8
 626 065b 40887A07 		movb	%dil, 7(%rdx)
 627 065f 7478     		je	.L101
 628 0661 0FB67D18 		movzbl	24(%rbp), %edi
 629 0665 4883F909 		cmpq	$9, %rcx
 630 0669 4C8D4209 		leaq	9(%rdx), %r8
 631 066d 40887A08 		movb	%dil, 8(%rdx)
 632 0671 7466     		je	.L101
 633 0673 0FB67D18 		movzbl	24(%rbp), %edi
 634 0677 4883F90A 		cmpq	$10, %rcx
 635 067b 4C8D420A 		leaq	10(%rdx), %r8
 636 067f 40887A09 		movb	%dil, 9(%rdx)
 637 0683 7454     		je	.L101
 638 0685 0FB67D18 		movzbl	24(%rbp), %edi
 639 0689 4883F90B 		cmpq	$11, %rcx
 640 068d 4C8D420B 		leaq	11(%rdx), %r8
 641 0691 40887A0A 		movb	%dil, 10(%rdx)
 642 0695 7442     		je	.L101
 643 0697 0FB67D18 		movzbl	24(%rbp), %edi
 644 069b 4883F90C 		cmpq	$12, %rcx
 645 069f 4C8D420C 		leaq	12(%rdx), %r8
 646 06a3 40887A0B 		movb	%dil, 11(%rdx)
 647 06a7 7430     		je	.L101
 648 06a9 0FB67D18 		movzbl	24(%rbp), %edi
 649 06ad 4883F90D 		cmpq	$13, %rcx
 650 06b1 4C8D420D 		leaq	13(%rdx), %r8
 651 06b5 40887A0C 		movb	%dil, 12(%rdx)
 652 06b9 741E     		je	.L101
 653 06bb 0FB67D18 		movzbl	24(%rbp), %edi
 654 06bf 4883F90F 		cmpq	$15, %rcx
 655 06c3 4C8D420E 		leaq	14(%rdx), %r8
 656 06c7 40887A0D 		movb	%dil, 13(%rdx)
 657 06cb 750C     		jne	.L101
 658 06cd 0FB67D18 		movzbl	24(%rbp), %edi
 659 06d1 4C8D420F 		leaq	15(%rdx), %r8
 660 06d5 40887A0E 		movb	%dil, 14(%rdx)
 661              	.L101:
 662 06d9 4C89C2   		movq	%r8, %rdx
 663              	.L100:
 664 06dc 4929C9   		subq	%rcx, %r9
 665 06df 4829CE   		subq	%rcx, %rsi
 666 06e2 498D79F0 		leaq	-16(%r9), %rdi
 667 06e6 48C1EF04 		shrq	$4, %rdi
 668 06ea 4883C701 		addq	$1, %rdi
 669 06ee 4989F8   		movq	%rdi, %r8
 670 06f1 49C1E004 		salq	$4, %r8
 671 06f5 4883FE0E 		cmpq	$14, %rsi
 672 06f9 7640     		jbe	.L102
 673 06fb 0FB67518 		movzbl	24(%rbp), %esi
 674 06ff 4901CC   		addq	%rcx, %r12
 675 0702 31C9     		xorl	%ecx, %ecx
 676 0704 4C01E0   		addq	%r12, %rax
 677 0707 89742408 		movl	%esi, 8(%rsp)
 678 070b 660F6E44 		movd	8(%rsp), %xmm0
 678      2408
 679 0711 660F60C0 		punpcklbw	%xmm0, %xmm0
 680 0715 660F61C0 		punpcklwd	%xmm0, %xmm0
 681 0719 660F70C0 		pshufd	$0, %xmm0, %xmm0
 681      00
 682              	.L103:
 683 071e 4883C101 		addq	$1, %rcx
 684 0722 4883C010 		addq	$16, %rax
 685 0726 0F2940F0 		movaps	%xmm0, -16(%rax)
 686 072a 4839CF   		cmpq	%rcx, %rdi
 687 072d 77EF     		ja	.L103
 688 072f 4C01C2   		addq	%r8, %rdx
 689 0732 4D39C1   		cmpq	%r8, %r9
 690 0735 0F84FE00 		je	.L108
 690      0000
 691              	.L102:
 692 073b 0FB64518 		movzbl	24(%rbp), %eax
 693 073f 8802     		movb	%al, (%rdx)
 694 0741 488D4201 		leaq	1(%rdx), %rax
 695 0745 4839C3   		cmpq	%rax, %rbx
 696 0748 0F86EB00 		jbe	.L108
 696      0000
 697 074e 0FB64518 		movzbl	24(%rbp), %eax
 698 0752 884201   		movb	%al, 1(%rdx)
 699 0755 488D4202 		leaq	2(%rdx), %rax
 700 0759 4839C3   		cmpq	%rax, %rbx
 701 075c 0F86D700 		jbe	.L108
 701      0000
 702 0762 0FB64518 		movzbl	24(%rbp), %eax
 703 0766 884202   		movb	%al, 2(%rdx)
 704 0769 488D4203 		leaq	3(%rdx), %rax
 705 076d 4839C3   		cmpq	%rax, %rbx
 706 0770 0F86C300 		jbe	.L108
 706      0000
 707 0776 0FB64518 		movzbl	24(%rbp), %eax
 708 077a 884203   		movb	%al, 3(%rdx)
 709 077d 488D4204 		leaq	4(%rdx), %rax
 710 0781 4839C3   		cmpq	%rax, %rbx
 711 0784 0F86AF00 		jbe	.L108
 711      0000
 712 078a 0FB64518 		movzbl	24(%rbp), %eax
 713 078e 884204   		movb	%al, 4(%rdx)
 714 0791 488D4205 		leaq	5(%rdx), %rax
 715 0795 4839C3   		cmpq	%rax, %rbx
 716 0798 0F869B00 		jbe	.L108
 716      0000
 717 079e 0FB64518 		movzbl	24(%rbp), %eax
 718 07a2 884205   		movb	%al, 5(%rdx)
 719 07a5 488D4206 		leaq	6(%rdx), %rax
 720 07a9 4839C3   		cmpq	%rax, %rbx
 721 07ac 0F868700 		jbe	.L108
 721      0000
 722 07b2 0FB64518 		movzbl	24(%rbp), %eax
 723 07b6 884206   		movb	%al, 6(%rdx)
 724 07b9 488D4207 		leaq	7(%rdx), %rax
 725 07bd 4839C3   		cmpq	%rax, %rbx
 726 07c0 7677     		jbe	.L108
 727 07c2 0FB64518 		movzbl	24(%rbp), %eax
 728 07c6 884207   		movb	%al, 7(%rdx)
 729 07c9 488D4208 		leaq	8(%rdx), %rax
 730 07cd 4839C3   		cmpq	%rax, %rbx
 731 07d0 7667     		jbe	.L108
 732 07d2 0FB64518 		movzbl	24(%rbp), %eax
 733 07d6 884208   		movb	%al, 8(%rdx)
 734 07d9 488D4209 		leaq	9(%rdx), %rax
 735 07dd 4839C3   		cmpq	%rax, %rbx
 736 07e0 7657     		jbe	.L108
 737 07e2 0FB64518 		movzbl	24(%rbp), %eax
 738 07e6 884209   		movb	%al, 9(%rdx)
 739 07e9 488D420A 		leaq	10(%rdx), %rax
 740 07ed 4839C3   		cmpq	%rax, %rbx
 741 07f0 7647     		jbe	.L108
 742 07f2 0FB64518 		movzbl	24(%rbp), %eax
 743 07f6 88420A   		movb	%al, 10(%rdx)
 744 07f9 488D420B 		leaq	11(%rdx), %rax
 745 07fd 4839C3   		cmpq	%rax, %rbx
 746 0800 7637     		jbe	.L108
 747 0802 0FB64518 		movzbl	24(%rbp), %eax
 748 0806 88420B   		movb	%al, 11(%rdx)
 749 0809 488D420C 		leaq	12(%rdx), %rax
 750 080d 4839C3   		cmpq	%rax, %rbx
 751 0810 7627     		jbe	.L108
 752 0812 0FB64518 		movzbl	24(%rbp), %eax
 753 0816 88420C   		movb	%al, 12(%rdx)
 754 0819 488D420D 		leaq	13(%rdx), %rax
 755 081d 4839C3   		cmpq	%rax, %rbx
 756 0820 7617     		jbe	.L108
 757 0822 0FB64518 		movzbl	24(%rbp), %eax
 758 0826 88420D   		movb	%al, 13(%rdx)
 759 0829 488D420E 		leaq	14(%rdx), %rax
 760 082d 4839C3   		cmpq	%rax, %rbx
 761 0830 7607     		jbe	.L108
 762 0832 0FB64518 		movzbl	24(%rbp), %eax
 763 0836 88420E   		movb	%al, 14(%rdx)
 764              	.L108:
 765 0839 488B4500 		movq	0(%rbp), %rax
 766              	.L162:
 767 083d 4C8B7508 		movq	8(%rbp), %r14
 768 0841 E9C0FCFF 		jmp	.L94
 768      FF
 769 0846 662E0F1F 		.p2align 4,,10
 769      84000000 
 769      0000
 770              		.p2align 3
 771              	.L165:
 772 0850 4883C101 		addq	$1, %rcx
 773              	.L107:
 774 0854 0FB64518 		movzbl	24(%rbp), %eax
 775 0858 4839CB   		cmpq	%rcx, %rbx
 776 085b 8841FF   		movb	%al, -1(%rcx)
 777 085e 75F0     		jne	.L165
 778 0860 EBD7     		jmp	.L108
 779              	.L164:
 780 0862 488D3500 		leaq	.LC7(%rip), %rsi
 780      000000
 781 0869 4889D7   		movq	%rdx, %rdi
 782 086c E8000000 		call	errPrefix@PLT
 782      00
 783 0871 488B5424 		movq	8(%rsp), %rdx
 783      08
 784 0876 488D3500 		leaq	.LC8(%rip), %rsi
 784      000000
 785 087d 4889D7   		movq	%rdx, %rdi
 786 0880 E8000000 		call	errPrefix@PLT
 786      00
 787 0885 B8010000 		movl	$1, %eax
 787      00
 788 088a E982FCFF 		jmp	.L97
 788      FF
 789              		.cfi_endproc
 790              	.LFE53:
 792              		.section	.text.unlikely
 793              	.LCOLDE9:
 794              		.text
 795              	.LHOTE9:
 796              		.section	.rodata.str1.1
 797              	.LC10:
 798 0010 62756641 		.string	"bufAppendWordLE()"
 798      7070656E 
 798      64576F72 
 798      644C4528 
 798      2900
 799              		.section	.text.unlikely
 800              	.LCOLDB11:
 801              		.text
 802              	.LHOTB11:
 803 088f 90       		.p2align 4,,15
 804              		.globl	bufAppendWordLE
 806              	bufAppendWordLE:
 807              	.LFB54:
 808              		.cfi_startproc
 809 0890 4156     		pushq	%r14
 810              		.cfi_def_cfa_offset 16
 811              		.cfi_offset 14, -16
 812 0892 4155     		pushq	%r13
 813              		.cfi_def_cfa_offset 24
 814              		.cfi_offset 13, -24
 815 0894 4189F5   		movl	%esi, %r13d
 816 0897 4154     		pushq	%r12
 817              		.cfi_def_cfa_offset 32
 818              		.cfi_offset 12, -32
 819 0899 55       		pushq	%rbp
 820              		.cfi_def_cfa_offset 40
 821              		.cfi_offset 6, -40
 822 089a 4889FD   		movq	%rdi, %rbp
 823 089d 53       		pushq	%rbx
 824              		.cfi_def_cfa_offset 48
 825              		.cfi_offset 3, -48
 826 089e 4883EC20 		subq	$32, %rsp
 827              		.cfi_def_cfa_offset 80
 828 08a2 4C8B7708 		movq	8(%rdi), %r14
 829 08a6 488B5F10 		movq	16(%rdi), %rbx
 830 08aa 64488B04 		movq	%fs:40, %rax
 830      25280000 
 830      00
 831 08b3 48894424 		movq	%rax, 24(%rsp)
 831      18
 832 08b8 31C0     		xorl	%eax, %eax
 833 08ba 4D8D6602 		leaq	2(%r14), %r12
 834 08be 4939DC   		cmpq	%rbx, %r12
 835 08c1 7745     		ja	.L169
 836 08c3 488B07   		movq	(%rdi), %rax
 837              	.L168:
 838 08c6 46882C30 		movb	%r13b, (%rax,%r14)
 839 08ca 488B5508 		movq	8(%rbp), %rdx
 840 08ce 4489E8   		movl	%r13d, %eax
 841 08d1 488B4D00 		movq	0(%rbp), %rcx
 842 08d5 0FB6C4   		movzbl	%ah, %eax
 843 08d8 88441101 		movb	%al, 1(%rcx,%rdx)
 844 08dc 48834508 		addq	$2, 8(%rbp)
 844      02
 845 08e1 31C0     		xorl	%eax, %eax
 846              	.L171:
 847 08e3 488B7424 		movq	24(%rsp), %rsi
 847      18
 848 08e8 64483334 		xorq	%fs:40, %rsi
 848      25280000 
 848      00
 849 08f1 0F857803 		jne	.L239
 849      0000
 850 08f7 4883C420 		addq	$32, %rsp
 851              		.cfi_remember_state
 852              		.cfi_def_cfa_offset 48
 853 08fb 5B       		popq	%rbx
 854              		.cfi_def_cfa_offset 40
 855 08fc 5D       		popq	%rbp
 856              		.cfi_def_cfa_offset 32
 857 08fd 415C     		popq	%r12
 858              		.cfi_def_cfa_offset 24
 859 08ff 415D     		popq	%r13
 860              		.cfi_def_cfa_offset 16
 861 0901 415E     		popq	%r14
 862              		.cfi_def_cfa_offset 8
 863 0903 C3       		ret
 864              		.p2align 4,,10
 865 0904 0F1F4000 		.p2align 3
 866              	.L169:
 867              		.cfi_restore_state
 868 0908 4801DB   		addq	%rbx, %rbx
 869 090b 4939DC   		cmpq	%rbx, %r12
 870 090e 77F8     		ja	.L169
 871 0910 488B7D00 		movq	0(%rbp), %rdi
 872 0914 4889DE   		movq	%rbx, %rsi
 873 0917 48895424 		movq	%rdx, 8(%rsp)
 873      08
 874 091c E8000000 		call	realloc@PLT
 874      00
 875 0921 4885C0   		testq	%rax, %rax
 876 0924 488B5424 		movq	8(%rsp), %rdx
 876      08
 877 0929 0F841303 		je	.L240
 877      0000
 878 092f 4A8D1420 		leaq	(%rax,%r12), %rdx
 879 0933 48895D10 		movq	%rbx, 16(%rbp)
 880 0937 4801C3   		addq	%rax, %rbx
 881 093a 48894500 		movq	%rax, 0(%rbp)
 882 093e 4839DA   		cmpq	%rbx, %rdx
 883 0941 0F83DE02 		jnb	.L237
 883      0000
 884 0947 488D4A01 		leaq	1(%rdx), %rcx
 885 094b 4889DE   		movq	%rbx, %rsi
 886 094e 4C8D5518 		leaq	24(%rbp), %r10
 887 0952 4829CE   		subq	%rcx, %rsi
 888 0955 4989C8   		movq	%rcx, %r8
 889 0958 498D7C36 		leaq	3(%r14,%rsi), %rdi
 889      03
 890 095d 4C8D4E01 		leaq	1(%rsi), %r9
 891 0961 4801C7   		addq	%rax, %rdi
 892 0964 4939FA   		cmpq	%rdi, %r10
 893 0967 488D7D19 		leaq	25(%rbp), %rdi
 894 096b 410F93C2 		setnb	%r10b
 895 096f 4839FA   		cmpq	%rdi, %rdx
 896 0972 400F93C7 		setnb	%dil
 897 0976 4108FA   		orb	%dil, %r10b
 898 0979 0F84B502 		je	.L181
 898      0000
 899 097f 4983F916 		cmpq	$22, %r9
 900 0983 0F86AB02 		jbe	.L181
 900      0000
 901 0989 4889D1   		movq	%rdx, %rcx
 902 098c 48F7D9   		negq	%rcx
 903 098f 83E10F   		andl	$15, %ecx
 904 0992 4C39C9   		cmpq	%r9, %rcx
 905 0995 490F47C9 		cmova	%r9, %rcx
 906 0999 4885C9   		testq	%rcx, %rcx
 907 099c 0F842201 		je	.L174
 907      0000
 908 09a2 0FB67D18 		movzbl	24(%rbp), %edi
 909 09a6 4883F901 		cmpq	$1, %rcx
 910 09aa 40883A   		movb	%dil, (%rdx)
 911 09ad 0F840E01 		je	.L175
 911      0000
 912 09b3 0FB67D18 		movzbl	24(%rbp), %edi
 913 09b7 4883F902 		cmpq	$2, %rcx
 914 09bb 4C8D4202 		leaq	2(%rdx), %r8
 915 09bf 40887A01 		movb	%dil, 1(%rdx)
 916 09c3 0F84F800 		je	.L175
 916      0000
 917 09c9 0FB67D18 		movzbl	24(%rbp), %edi
 918 09cd 4883F903 		cmpq	$3, %rcx
 919 09d1 4C8D4203 		leaq	3(%rdx), %r8
 920 09d5 40887A02 		movb	%dil, 2(%rdx)
 921 09d9 0F84E200 		je	.L175
 921      0000
 922 09df 0FB67D18 		movzbl	24(%rbp), %edi
 923 09e3 4883F904 		cmpq	$4, %rcx
 924 09e7 4C8D4204 		leaq	4(%rdx), %r8
 925 09eb 40887A03 		movb	%dil, 3(%rdx)
 926 09ef 0F84CC00 		je	.L175
 926      0000
 927 09f5 0FB67D18 		movzbl	24(%rbp), %edi
 928 09f9 4883F905 		cmpq	$5, %rcx
 929 09fd 4C8D4205 		leaq	5(%rdx), %r8
 930 0a01 40887A04 		movb	%dil, 4(%rdx)
 931 0a05 0F84B600 		je	.L175
 931      0000
 932 0a0b 0FB67D18 		movzbl	24(%rbp), %edi
 933 0a0f 4883F906 		cmpq	$6, %rcx
 934 0a13 4C8D4206 		leaq	6(%rdx), %r8
 935 0a17 40887A05 		movb	%dil, 5(%rdx)
 936 0a1b 0F84A000 		je	.L175
 936      0000
 937 0a21 0FB67D18 		movzbl	24(%rbp), %edi
 938 0a25 4883F907 		cmpq	$7, %rcx
 939 0a29 4C8D4207 		leaq	7(%rdx), %r8
 940 0a2d 40887A06 		movb	%dil, 6(%rdx)
 941 0a31 0F848A00 		je	.L175
 941      0000
 942 0a37 0FB67D18 		movzbl	24(%rbp), %edi
 943 0a3b 4883F908 		cmpq	$8, %rcx
 944 0a3f 4C8D4208 		leaq	8(%rdx), %r8
 945 0a43 40887A07 		movb	%dil, 7(%rdx)
 946 0a47 7478     		je	.L175
 947 0a49 0FB67D18 		movzbl	24(%rbp), %edi
 948 0a4d 4883F909 		cmpq	$9, %rcx
 949 0a51 4C8D4209 		leaq	9(%rdx), %r8
 950 0a55 40887A08 		movb	%dil, 8(%rdx)
 951 0a59 7466     		je	.L175
 952 0a5b 0FB67D18 		movzbl	24(%rbp), %edi
 953 0a5f 4883F90A 		cmpq	$10, %rcx
 954 0a63 4C8D420A 		leaq	10(%rdx), %r8
 955 0a67 40887A09 		movb	%dil, 9(%rdx)
 956 0a6b 7454     		je	.L175
 957 0a6d 0FB67D18 		movzbl	24(%rbp), %edi
 958 0a71 4883F90B 		cmpq	$11, %rcx
 959 0a75 4C8D420B 		leaq	11(%rdx), %r8
 960 0a79 40887A0A 		movb	%dil, 10(%rdx)
 961 0a7d 7442     		je	.L175
 962 0a7f 0FB67D18 		movzbl	24(%rbp), %edi
 963 0a83 4883F90C 		cmpq	$12, %rcx
 964 0a87 4C8D420C 		leaq	12(%rdx), %r8
 965 0a8b 40887A0B 		movb	%dil, 11(%rdx)
 966 0a8f 7430     		je	.L175
 967 0a91 0FB67D18 		movzbl	24(%rbp), %edi
 968 0a95 4883F90D 		cmpq	$13, %rcx
 969 0a99 4C8D420D 		leaq	13(%rdx), %r8
 970 0a9d 40887A0C 		movb	%dil, 12(%rdx)
 971 0aa1 741E     		je	.L175
 972 0aa3 0FB67D18 		movzbl	24(%rbp), %edi
 973 0aa7 4883F90F 		cmpq	$15, %rcx
 974 0aab 4C8D420E 		leaq	14(%rdx), %r8
 975 0aaf 40887A0D 		movb	%dil, 13(%rdx)
 976 0ab3 750C     		jne	.L175
 977 0ab5 0FB67D18 		movzbl	24(%rbp), %edi
 978 0ab9 4C8D420F 		leaq	15(%rdx), %r8
 979 0abd 40887A0E 		movb	%dil, 14(%rdx)
 980              	.L175:
 981 0ac1 4C89C2   		movq	%r8, %rdx
 982              	.L174:
 983 0ac4 4929C9   		subq	%rcx, %r9
 984 0ac7 4829CE   		subq	%rcx, %rsi
 985 0aca 498D79F0 		leaq	-16(%r9), %rdi
 986 0ace 48C1EF04 		shrq	$4, %rdi
 987 0ad2 4883C701 		addq	$1, %rdi
 988 0ad6 4989F8   		movq	%rdi, %r8
 989 0ad9 49C1E004 		salq	$4, %r8
 990 0add 4883FE0E 		cmpq	$14, %rsi
 991 0ae1 7640     		jbe	.L176
 992 0ae3 0FB67518 		movzbl	24(%rbp), %esi
 993 0ae7 4901CC   		addq	%rcx, %r12
 994 0aea 31C9     		xorl	%ecx, %ecx
 995 0aec 4C01E0   		addq	%r12, %rax
 996 0aef 89742408 		movl	%esi, 8(%rsp)
 997 0af3 660F6E44 		movd	8(%rsp), %xmm0
 997      2408
 998 0af9 660F60C0 		punpcklbw	%xmm0, %xmm0
 999 0afd 660F61C0 		punpcklwd	%xmm0, %xmm0
 1000 0b01 660F70C0 		pshufd	$0, %xmm0, %xmm0
 1000      00
 1001              	.L177:
 1002 0b06 4883C101 		addq	$1, %rcx
 1003 0b0a 4883C010 		addq	$16, %rax
 1004 0b0e 0F2940F0 		movaps	%xmm0, -16(%rax)
 1005 0b12 4839CF   		cmpq	%rcx, %rdi
 1006 0b15 77EF     		ja	.L177
 1007 0b17 4C01C2   		addq	%r8, %rdx
 1008 0b1a 4D39C1   		cmpq	%r8, %r9
 1009 0b1d 0F84FE00 		je	.L182
 1009      0000
 1010              	.L176:
 1011 0b23 0FB64518 		movzbl	24(%rbp), %eax
 1012 0b27 8802     		movb	%al, (%rdx)
 1013 0b29 488D4201 		leaq	1(%rdx), %rax
 1014 0b2d 4839C3   		cmpq	%rax, %rbx
 1015 0b30 0F86EB00 		jbe	.L182
 1015      0000
 1016 0b36 0FB64518 		movzbl	24(%rbp), %eax
 1017 0b3a 884201   		movb	%al, 1(%rdx)
 1018 0b3d 488D4202 		leaq	2(%rdx), %rax
 1019 0b41 4839C3   		cmpq	%rax, %rbx
 1020 0b44 0F86D700 		jbe	.L182
 1020      0000
 1021 0b4a 0FB64518 		movzbl	24(%rbp), %eax
 1022 0b4e 884202   		movb	%al, 2(%rdx)
 1023 0b51 488D4203 		leaq	3(%rdx), %rax
 1024 0b55 4839C3   		cmpq	%rax, %rbx
 1025 0b58 0F86C300 		jbe	.L182
 1025      0000
 1026 0b5e 0FB64518 		movzbl	24(%rbp), %eax
 1027 0b62 884203   		movb	%al, 3(%rdx)
 1028 0b65 488D4204 		leaq	4(%rdx), %rax
 1029 0b69 4839C3   		cmpq	%rax, %rbx
 1030 0b6c 0F86AF00 		jbe	.L182
 1030      0000
 1031 0b72 0FB64518 		movzbl	24(%rbp), %eax
 1032 0b76 884204   		movb	%al, 4(%rdx)
 1033 0b79 488D4205 		leaq	5(%rdx), %rax
 1034 0b7d 4839C3   		cmpq	%rax, %rbx
 1035 0b80 0F869B00 		jbe	.L182
 1035      0000
 1036 0b86 0FB64518 		movzbl	24(%rbp), %eax
 1037 0b8a 884205   		movb	%al, 5(%rdx)
 1038 0b8d 488D4206 		leaq	6(%rdx), %rax
 1039 0b91 4839C3   		cmpq	%rax, %rbx
 1040 0b94 0F868700 		jbe	.L182
 1040      0000
 1041 0b9a 0FB64518 		movzbl	24(%rbp), %eax
 1042 0b9e 884206   		movb	%al, 6(%rdx)
 1043 0ba1 488D4207 		leaq	7(%rdx), %rax
 1044 0ba5 4839C3   		cmpq	%rax, %rbx
 1045 0ba8 7677     		jbe	.L182
 1046 0baa 0FB64518 		movzbl	24(%rbp), %eax
 1047 0bae 884207   		movb	%al, 7(%rdx)
 1048 0bb1 488D4208 		leaq	8(%rdx), %rax
 1049 0bb5 4839C3   		cmpq	%rax, %rbx
 1050 0bb8 7667     		jbe	.L182
 1051 0bba 0FB64518 		movzbl	24(%rbp), %eax
 1052 0bbe 884208   		movb	%al, 8(%rdx)
 1053 0bc1 488D4209 		leaq	9(%rdx), %rax
 1054 0bc5 4839C3   		cmpq	%rax, %rbx
 1055 0bc8 7657     		jbe	.L182
 1056 0bca 0FB64518 		movzbl	24(%rbp), %eax
 1057 0bce 884209   		movb	%al, 9(%rdx)
 1058 0bd1 488D420A 		leaq	10(%rdx), %rax
 1059 0bd5 4839C3   		cmpq	%rax, %rbx
 1060 0bd8 7647     		jbe	.L182
 1061 0bda 0FB64518 		movzbl	24(%rbp), %eax
 1062 0bde 88420A   		movb	%al, 10(%rdx)
 1063 0be1 488D420B 		leaq	11(%rdx), %rax
 1064 0be5 4839C3   		cmpq	%rax, %rbx
 1065 0be8 7637     		jbe	.L182
 1066 0bea 0FB64518 		movzbl	24(%rbp), %eax
 1067 0bee 88420B   		movb	%al, 11(%rdx)
 1068 0bf1 488D420C 		leaq	12(%rdx), %rax
 1069 0bf5 4839C3   		cmpq	%rax, %rbx
 1070 0bf8 7627     		jbe	.L182
 1071 0bfa 0FB64518 		movzbl	24(%rbp), %eax
 1072 0bfe 88420C   		movb	%al, 12(%rdx)
 1073 0c01 488D420D 		leaq	13(%rdx), %rax
 1074 0c05 4839C3   		cmpq	%rax, %rbx
 1075 0c08 7617     		jbe	.L182
 1076 0c0a 0FB64518 		movzbl	24(%rbp), %eax
 1077 0c0e 88420D   		movb	%al, 13(%rdx)
 1078 0c11 488D420E 		leaq	14(%rdx), %rax
 1079 0c15 4839C3   		cmpq	%rax, %rbx
 1080 0c18 7607     		jbe	.L182
 1081 0c1a 0FB64518 		movzbl	24(%rbp), %eax
 1082 0c1e 88420E   		movb	%al, 14(%rdx)
 1083              	.L182:
 1084 0c21 488B4500 		movq	0(%rbp), %rax
 1085              	.L237:
 1086 0c25 4C8B7508 		movq	8(%rbp), %r14
 1087 0c29 E998FCFF 		jmp	.L168
 1087      FF
 1088 0c2e 6690     		.p2align 4,,10
 1089              		.p2align 3
 1090              	.L241:
 1091 0c30 4883C101 		addq	$1, %rcx
 1092              	.L181:
 1093 0c34 0FB64518 		movzbl	24(%rbp), %eax
 1094 0c38 4839CB   		cmpq	%rcx, %rbx
 1095 0c3b 8841FF   		movb	%al, -1(%rcx)
 1096 0c3e 75F0     		jne	.L241
 1097 0c40 EBDF     		jmp	.L182
 1098              	.L240:
 1099 0c42 488D3500 		leaq	.LC7(%rip), %rsi
 1099      000000
 1100 0c49 4889D7   		movq	%rdx, %rdi
 1101 0c4c E8000000 		call	errPrefix@PLT
 1101      00
 1102 0c51 488B5424 		movq	8(%rsp), %rdx
 1102      08
 1103 0c56 488D3500 		leaq	.LC10(%rip), %rsi
 1103      000000
 1104 0c5d 4889D7   		movq	%rdx, %rdi
 1105 0c60 E8000000 		call	errPrefix@PLT
 1105      00
 1106 0c65 B8010000 		movl	$1, %eax
 1106      00
 1107 0c6a E974FCFF 		jmp	.L171
 1107      FF
 1108              	.L239:
 1109 0c6f E8000000 		call	__stack_chk_fail@PLT
 1109      00
 1110              		.cfi_endproc
 1111              	.LFE54:
 1113              		.section	.text.unlikely
 1114              	.LCOLDE11:
 1115              		.text
 1116              	.LHOTE11:
 1117              		.section	.rodata.str1.1
 1118              	.LC12:
 1119 0022 62756641 		.string	"bufAppendWordBE()"
 1119      7070656E 
 1119      64576F72 
 1119      64424528 
 1119      2900
 1120              		.section	.text.unlikely
 1121              	.LCOLDB13:
 1122              		.text
 1123              	.LHOTB13:
 1124 0c74 6690662E 		.p2align 4,,15
 1124      0F1F8400 
 1124      00000000 
 1125              		.globl	bufAppendWordBE
 1127              	bufAppendWordBE:
 1128              	.LFB55:
 1129              		.cfi_startproc
 1130 0c80 4156     		pushq	%r14
 1131              		.cfi_def_cfa_offset 16
 1132              		.cfi_offset 14, -16
 1133 0c82 4155     		pushq	%r13
 1134              		.cfi_def_cfa_offset 24
 1135              		.cfi_offset 13, -24
 1136 0c84 4189F5   		movl	%esi, %r13d
 1137 0c87 4154     		pushq	%r12
 1138              		.cfi_def_cfa_offset 32
 1139              		.cfi_offset 12, -32
 1140 0c89 55       		pushq	%rbp
 1141              		.cfi_def_cfa_offset 40
 1142              		.cfi_offset 6, -40
 1143 0c8a 4889FD   		movq	%rdi, %rbp
 1144 0c8d 53       		pushq	%rbx
 1145              		.cfi_def_cfa_offset 48
 1146              		.cfi_offset 3, -48
 1147 0c8e 4883EC20 		subq	$32, %rsp
 1148              		.cfi_def_cfa_offset 80
 1149 0c92 4C8B7708 		movq	8(%rdi), %r14
 1150 0c96 488B5F10 		movq	16(%rdi), %rbx
 1151 0c9a 64488B04 		movq	%fs:40, %rax
 1151      25280000 
 1151      00
 1152 0ca3 48894424 		movq	%rax, 24(%rsp)
 1152      18
 1153 0ca8 31C0     		xorl	%eax, %eax
 1154 0caa 4D8D6602 		leaq	2(%r14), %r12
 1155 0cae 4939DC   		cmpq	%rbx, %r12
 1156 0cb1 7745     		ja	.L245
 1157 0cb3 488B07   		movq	(%rdi), %rax
 1158              	.L244:
 1159 0cb6 4489E9   		movl	%r13d, %ecx
 1160 0cb9 0FB6D5   		movzbl	%ch, %edx
 1161 0cbc 42881430 		movb	%dl, (%rax,%r14)
 1162 0cc0 488B4508 		movq	8(%rbp), %rax
 1163 0cc4 488B5500 		movq	0(%rbp), %rdx
 1164 0cc8 44886C02 		movb	%r13b, 1(%rdx,%rax)
 1164      01
 1165 0ccd 48834508 		addq	$2, 8(%rbp)
 1165      02
 1166 0cd2 31C0     		xorl	%eax, %eax
 1167              	.L247:
 1168 0cd4 488B7424 		movq	24(%rsp), %rsi
 1168      18
 1169 0cd9 64483334 		xorq	%fs:40, %rsi
 1169      25280000 
 1169      00
 1170 0ce2 0F857703 		jne	.L315
 1170      0000
 1171 0ce8 4883C420 		addq	$32, %rsp
 1172              		.cfi_remember_state
 1173              		.cfi_def_cfa_offset 48
 1174 0cec 5B       		popq	%rbx
 1175              		.cfi_def_cfa_offset 40
 1176 0ced 5D       		popq	%rbp
 1177              		.cfi_def_cfa_offset 32
 1178 0cee 415C     		popq	%r12
 1179              		.cfi_def_cfa_offset 24
 1180 0cf0 415D     		popq	%r13
 1181              		.cfi_def_cfa_offset 16
 1182 0cf2 415E     		popq	%r14
 1183              		.cfi_def_cfa_offset 8
 1184 0cf4 C3       		ret
 1185              		.p2align 4,,10
 1186 0cf5 0F1F00   		.p2align 3
 1187              	.L245:
 1188              		.cfi_restore_state
 1189 0cf8 4801DB   		addq	%rbx, %rbx
 1190 0cfb 4939DC   		cmpq	%rbx, %r12
 1191 0cfe 77F8     		ja	.L245
 1192 0d00 488B7D00 		movq	0(%rbp), %rdi
 1193 0d04 4889DE   		movq	%rbx, %rsi
 1194 0d07 48895424 		movq	%rdx, 8(%rsp)
 1194      08
 1195 0d0c E8000000 		call	realloc@PLT
 1195      00
 1196 0d11 4885C0   		testq	%rax, %rax
 1197 0d14 488B5424 		movq	8(%rsp), %rdx
 1197      08
 1198 0d19 0F841303 		je	.L316
 1198      0000
 1199 0d1f 4A8D1420 		leaq	(%rax,%r12), %rdx
 1200 0d23 48895D10 		movq	%rbx, 16(%rbp)
 1201 0d27 4801C3   		addq	%rax, %rbx
 1202 0d2a 48894500 		movq	%rax, 0(%rbp)
 1203 0d2e 4839DA   		cmpq	%rbx, %rdx
 1204 0d31 0F83DE02 		jnb	.L313
 1204      0000
 1205 0d37 488D4A01 		leaq	1(%rdx), %rcx
 1206 0d3b 4889DE   		movq	%rbx, %rsi
 1207 0d3e 4C8D5518 		leaq	24(%rbp), %r10
 1208 0d42 4829CE   		subq	%rcx, %rsi
 1209 0d45 4989C8   		movq	%rcx, %r8
 1210 0d48 498D7C36 		leaq	3(%r14,%rsi), %rdi
 1210      03
 1211 0d4d 4C8D4E01 		leaq	1(%rsi), %r9
 1212 0d51 4801C7   		addq	%rax, %rdi
 1213 0d54 4939FA   		cmpq	%rdi, %r10
 1214 0d57 488D7D19 		leaq	25(%rbp), %rdi
 1215 0d5b 410F93C2 		setnb	%r10b
 1216 0d5f 4839FA   		cmpq	%rdi, %rdx
 1217 0d62 400F93C7 		setnb	%dil
 1218 0d66 4108FA   		orb	%dil, %r10b
 1219 0d69 0F84B502 		je	.L257
 1219      0000
 1220 0d6f 4983F916 		cmpq	$22, %r9
 1221 0d73 0F86AB02 		jbe	.L257
 1221      0000
 1222 0d79 4889D1   		movq	%rdx, %rcx
 1223 0d7c 48F7D9   		negq	%rcx
 1224 0d7f 83E10F   		andl	$15, %ecx
 1225 0d82 4C39C9   		cmpq	%r9, %rcx
 1226 0d85 490F47C9 		cmova	%r9, %rcx
 1227 0d89 4885C9   		testq	%rcx, %rcx
 1228 0d8c 0F842201 		je	.L250
 1228      0000
 1229 0d92 0FB67D18 		movzbl	24(%rbp), %edi
 1230 0d96 4883F901 		cmpq	$1, %rcx
 1231 0d9a 40883A   		movb	%dil, (%rdx)
 1232 0d9d 0F840E01 		je	.L251
 1232      0000
 1233 0da3 0FB67D18 		movzbl	24(%rbp), %edi
 1234 0da7 4883F902 		cmpq	$2, %rcx
 1235 0dab 4C8D4202 		leaq	2(%rdx), %r8
 1236 0daf 40887A01 		movb	%dil, 1(%rdx)
 1237 0db3 0F84F800 		je	.L251
 1237      0000
 1238 0db9 0FB67D18 		movzbl	24(%rbp), %edi
 1239 0dbd 4883F903 		cmpq	$3, %rcx
 1240 0dc1 4C8D4203 		leaq	3(%rdx), %r8
 1241 0dc5 40887A02 		movb	%dil, 2(%rdx)
 1242 0dc9 0F84E200 		je	.L251
 1242      0000
 1243 0dcf 0FB67D18 		movzbl	24(%rbp), %edi
 1244 0dd3 4883F904 		cmpq	$4, %rcx
 1245 0dd7 4C8D4204 		leaq	4(%rdx), %r8
 1246 0ddb 40887A03 		movb	%dil, 3(%rdx)
 1247 0ddf 0F84CC00 		je	.L251
 1247      0000
 1248 0de5 0FB67D18 		movzbl	24(%rbp), %edi
 1249 0de9 4883F905 		cmpq	$5, %rcx
 1250 0ded 4C8D4205 		leaq	5(%rdx), %r8
 1251 0df1 40887A04 		movb	%dil, 4(%rdx)
 1252 0df5 0F84B600 		je	.L251
 1252      0000
 1253 0dfb 0FB67D18 		movzbl	24(%rbp), %edi
 1254 0dff 4883F906 		cmpq	$6, %rcx
 1255 0e03 4C8D4206 		leaq	6(%rdx), %r8
 1256 0e07 40887A05 		movb	%dil, 5(%rdx)
 1257 0e0b 0F84A000 		je	.L251
 1257      0000
 1258 0e11 0FB67D18 		movzbl	24(%rbp), %edi
 1259 0e15 4883F907 		cmpq	$7, %rcx
 1260 0e19 4C8D4207 		leaq	7(%rdx), %r8
 1261 0e1d 40887A06 		movb	%dil, 6(%rdx)
 1262 0e21 0F848A00 		je	.L251
 1262      0000
 1263 0e27 0FB67D18 		movzbl	24(%rbp), %edi
 1264 0e2b 4883F908 		cmpq	$8, %rcx
 1265 0e2f 4C8D4208 		leaq	8(%rdx), %r8
 1266 0e33 40887A07 		movb	%dil, 7(%rdx)
 1267 0e37 7478     		je	.L251
 1268 0e39 0FB67D18 		movzbl	24(%rbp), %edi
 1269 0e3d 4883F909 		cmpq	$9, %rcx
 1270 0e41 4C8D4209 		leaq	9(%rdx), %r8
 1271 0e45 40887A08 		movb	%dil, 8(%rdx)
 1272 0e49 7466     		je	.L251
 1273 0e4b 0FB67D18 		movzbl	24(%rbp), %edi
 1274 0e4f 4883F90A 		cmpq	$10, %rcx
 1275 0e53 4C8D420A 		leaq	10(%rdx), %r8
 1276 0e57 40887A09 		movb	%dil, 9(%rdx)
 1277 0e5b 7454     		je	.L251
 1278 0e5d 0FB67D18 		movzbl	24(%rbp), %edi
 1279 0e61 4883F90B 		cmpq	$11, %rcx
 1280 0e65 4C8D420B 		leaq	11(%rdx), %r8
 1281 0e69 40887A0A 		movb	%dil, 10(%rdx)
 1282 0e6d 7442     		je	.L251
 1283 0e6f 0FB67D18 		movzbl	24(%rbp), %edi
 1284 0e73 4883F90C 		cmpq	$12, %rcx
 1285 0e77 4C8D420C 		leaq	12(%rdx), %r8
 1286 0e7b 40887A0B 		movb	%dil, 11(%rdx)
 1287 0e7f 7430     		je	.L251
 1288 0e81 0FB67D18 		movzbl	24(%rbp), %edi
 1289 0e85 4883F90D 		cmpq	$13, %rcx
 1290 0e89 4C8D420D 		leaq	13(%rdx), %r8
 1291 0e8d 40887A0C 		movb	%dil, 12(%rdx)
 1292 0e91 741E     		je	.L251
 1293 0e93 0FB67D18 		movzbl	24(%rbp), %edi
 1294 0e97 4883F90F 		cmpq	$15, %rcx
 1295 0e9b 4C8D420E 		leaq	14(%rdx), %r8
 1296 0e9f 40887A0D 		movb	%dil, 13(%rdx)
 1297 0ea3 750C     		jne	.L251
 1298 0ea5 0FB67D18 		movzbl	24(%rbp), %edi
 1299 0ea9 4C8D420F 		leaq	15(%rdx), %r8
 1300 0ead 40887A0E 		movb	%dil, 14(%rdx)
 1301              	.L251:
 1302 0eb1 4C89C2   		movq	%r8, %rdx
 1303              	.L250:
 1304 0eb4 4929C9   		subq	%rcx, %r9
 1305 0eb7 4829CE   		subq	%rcx, %rsi
 1306 0eba 498D79F0 		leaq	-16(%r9), %rdi
 1307 0ebe 48C1EF04 		shrq	$4, %rdi
 1308 0ec2 4883C701 		addq	$1, %rdi
 1309 0ec6 4989F8   		movq	%rdi, %r8
 1310 0ec9 49C1E004 		salq	$4, %r8
 1311 0ecd 4883FE0E 		cmpq	$14, %rsi
 1312 0ed1 7640     		jbe	.L252
 1313 0ed3 0FB67518 		movzbl	24(%rbp), %esi
 1314 0ed7 4901CC   		addq	%rcx, %r12
 1315 0eda 31C9     		xorl	%ecx, %ecx
 1316 0edc 4C01E0   		addq	%r12, %rax
 1317 0edf 89742408 		movl	%esi, 8(%rsp)
 1318 0ee3 660F6E44 		movd	8(%rsp), %xmm0
 1318      2408
 1319 0ee9 660F60C0 		punpcklbw	%xmm0, %xmm0
 1320 0eed 660F61C0 		punpcklwd	%xmm0, %xmm0
 1321 0ef1 660F70C0 		pshufd	$0, %xmm0, %xmm0
 1321      00
 1322              	.L253:
 1323 0ef6 4883C101 		addq	$1, %rcx
 1324 0efa 4883C010 		addq	$16, %rax
 1325 0efe 0F2940F0 		movaps	%xmm0, -16(%rax)
 1326 0f02 4839CF   		cmpq	%rcx, %rdi
 1327 0f05 77EF     		ja	.L253
 1328 0f07 4C01C2   		addq	%r8, %rdx
 1329 0f0a 4D39C1   		cmpq	%r8, %r9
 1330 0f0d 0F84FE00 		je	.L258
 1330      0000
 1331              	.L252:
 1332 0f13 0FB64518 		movzbl	24(%rbp), %eax
 1333 0f17 8802     		movb	%al, (%rdx)
 1334 0f19 488D4201 		leaq	1(%rdx), %rax
 1335 0f1d 4839C3   		cmpq	%rax, %rbx
 1336 0f20 0F86EB00 		jbe	.L258
 1336      0000
 1337 0f26 0FB64518 		movzbl	24(%rbp), %eax
 1338 0f2a 884201   		movb	%al, 1(%rdx)
 1339 0f2d 488D4202 		leaq	2(%rdx), %rax
 1340 0f31 4839C3   		cmpq	%rax, %rbx
 1341 0f34 0F86D700 		jbe	.L258
 1341      0000
 1342 0f3a 0FB64518 		movzbl	24(%rbp), %eax
 1343 0f3e 884202   		movb	%al, 2(%rdx)
 1344 0f41 488D4203 		leaq	3(%rdx), %rax
 1345 0f45 4839C3   		cmpq	%rax, %rbx
 1346 0f48 0F86C300 		jbe	.L258
 1346      0000
 1347 0f4e 0FB64518 		movzbl	24(%rbp), %eax
 1348 0f52 884203   		movb	%al, 3(%rdx)
 1349 0f55 488D4204 		leaq	4(%rdx), %rax
 1350 0f59 4839C3   		cmpq	%rax, %rbx
 1351 0f5c 0F86AF00 		jbe	.L258
 1351      0000
 1352 0f62 0FB64518 		movzbl	24(%rbp), %eax
 1353 0f66 884204   		movb	%al, 4(%rdx)
 1354 0f69 488D4205 		leaq	5(%rdx), %rax
 1355 0f6d 4839C3   		cmpq	%rax, %rbx
 1356 0f70 0F869B00 		jbe	.L258
 1356      0000
 1357 0f76 0FB64518 		movzbl	24(%rbp), %eax
 1358 0f7a 884205   		movb	%al, 5(%rdx)
 1359 0f7d 488D4206 		leaq	6(%rdx), %rax
 1360 0f81 4839C3   		cmpq	%rax, %rbx
 1361 0f84 0F868700 		jbe	.L258
 1361      0000
 1362 0f8a 0FB64518 		movzbl	24(%rbp), %eax
 1363 0f8e 884206   		movb	%al, 6(%rdx)
 1364 0f91 488D4207 		leaq	7(%rdx), %rax
 1365 0f95 4839C3   		cmpq	%rax, %rbx
 1366 0f98 7677     		jbe	.L258
 1367 0f9a 0FB64518 		movzbl	24(%rbp), %eax
 1368 0f9e 884207   		movb	%al, 7(%rdx)
 1369 0fa1 488D4208 		leaq	8(%rdx), %rax
 1370 0fa5 4839C3   		cmpq	%rax, %rbx
 1371 0fa8 7667     		jbe	.L258
 1372 0faa 0FB64518 		movzbl	24(%rbp), %eax
 1373 0fae 884208   		movb	%al, 8(%rdx)
 1374 0fb1 488D4209 		leaq	9(%rdx), %rax
 1375 0fb5 4839C3   		cmpq	%rax, %rbx
 1376 0fb8 7657     		jbe	.L258
 1377 0fba 0FB64518 		movzbl	24(%rbp), %eax
 1378 0fbe 884209   		movb	%al, 9(%rdx)
 1379 0fc1 488D420A 		leaq	10(%rdx), %rax
 1380 0fc5 4839C3   		cmpq	%rax, %rbx
 1381 0fc8 7647     		jbe	.L258
 1382 0fca 0FB64518 		movzbl	24(%rbp), %eax
 1383 0fce 88420A   		movb	%al, 10(%rdx)
 1384 0fd1 488D420B 		leaq	11(%rdx), %rax
 1385 0fd5 4839C3   		cmpq	%rax, %rbx
 1386 0fd8 7637     		jbe	.L258
 1387 0fda 0FB64518 		movzbl	24(%rbp), %eax
 1388 0fde 88420B   		movb	%al, 11(%rdx)
 1389 0fe1 488D420C 		leaq	12(%rdx), %rax
 1390 0fe5 4839C3   		cmpq	%rax, %rbx
 1391 0fe8 7627     		jbe	.L258
 1392 0fea 0FB64518 		movzbl	24(%rbp), %eax
 1393 0fee 88420C   		movb	%al, 12(%rdx)
 1394 0ff1 488D420D 		leaq	13(%rdx), %rax
 1395 0ff5 4839C3   		cmpq	%rax, %rbx
 1396 0ff8 7617     		jbe	.L258
 1397 0ffa 0FB64518 		movzbl	24(%rbp), %eax
 1398 0ffe 88420D   		movb	%al, 13(%rdx)
 1399 1001 488D420E 		leaq	14(%rdx), %rax
 1400 1005 4839C3   		cmpq	%rax, %rbx
 1401 1008 7607     		jbe	.L258
 1402 100a 0FB64518 		movzbl	24(%rbp), %eax
 1403 100e 88420E   		movb	%al, 14(%rdx)
 1404              	.L258:
 1405 1011 488B4500 		movq	0(%rbp), %rax
 1406              	.L313:
 1407 1015 4C8B7508 		movq	8(%rbp), %r14
 1408 1019 E998FCFF 		jmp	.L244
 1408      FF
 1409 101e 6690     		.p2align 4,,10
 1410              		.p2align 3
 1411              	.L317:
 1412 1020 4883C101 		addq	$1, %rcx
 1413              	.L257:
 1414 1024 0FB64518 		movzbl	24(%rbp), %eax
 1415 1028 4839CB   		cmpq	%rcx, %rbx
 1416 102b 8841FF   		movb	%al, -1(%rcx)
 1417 102e 75F0     		jne	.L317
 1418 1030 EBDF     		jmp	.L258
 1419              	.L316:
 1420 1032 488D3500 		leaq	.LC7(%rip), %rsi
 1420      000000
 1421 1039 4889D7   		movq	%rdx, %rdi
 1422 103c E8000000 		call	errPrefix@PLT
 1422      00
 1423 1041 488B5424 		movq	8(%rsp), %rdx
 1423      08
 1424 1046 488D3500 		leaq	.LC12(%rip), %rsi
 1424      000000
 1425 104d 4889D7   		movq	%rdx, %rdi
 1426 1050 E8000000 		call	errPrefix@PLT
 1426      00
 1427 1055 B8010000 		movl	$1, %eax
 1427      00
 1428 105a E975FCFF 		jmp	.L247
 1428      FF
 1429              	.L315:
 1430 105f E8000000 		call	__stack_chk_fail@PLT
 1430      00
 1431              		.cfi_endproc
 1432              	.LFE55:
 1434              		.section	.text.unlikely
 1435              	.LCOLDE13:
 1436              		.text
 1437              	.LHOTE13:
 1438              		.section	.rodata.str1.1
 1439              	.LC14:
 1440 0034 62756641 		.string	"bufAppendLongLE()"
 1440      7070656E 
 1440      644C6F6E 
 1440      674C4528 
 1440      2900
 1441              		.section	.text.unlikely
 1442              	.LCOLDB15:
 1443              		.text
 1444              	.LHOTB15:
 1445 1064 6690662E 		.p2align 4,,15
 1445      0F1F8400 
 1445      00000000 
 1446              		.globl	bufAppendLongLE
 1448              	bufAppendLongLE:
 1449              	.LFB56:
 1450              		.cfi_startproc
 1451 1070 4156     		pushq	%r14
 1452              		.cfi_def_cfa_offset 16
 1453              		.cfi_offset 14, -16
 1454 1072 4155     		pushq	%r13
 1455              		.cfi_def_cfa_offset 24
 1456              		.cfi_offset 13, -24
 1457 1074 4154     		pushq	%r12
 1458              		.cfi_def_cfa_offset 32
 1459              		.cfi_offset 12, -32
 1460 1076 55       		pushq	%rbp
 1461              		.cfi_def_cfa_offset 40
 1462              		.cfi_offset 6, -40
 1463 1077 4189F4   		movl	%esi, %r12d
 1464 107a 53       		pushq	%rbx
 1465              		.cfi_def_cfa_offset 48
 1466              		.cfi_offset 3, -48
 1467 107b 4889FB   		movq	%rdi, %rbx
 1468 107e 4883EC20 		subq	$32, %rsp
 1469              		.cfi_def_cfa_offset 80
 1470 1082 4C8B7708 		movq	8(%rdi), %r14
 1471 1086 488B6F10 		movq	16(%rdi), %rbp
 1472 108a 64488B04 		movq	%fs:40, %rax
 1472      25280000 
 1472      00
 1473 1093 48894424 		movq	%rax, 24(%rsp)
 1473      18
 1474 1098 31C0     		xorl	%eax, %eax
 1475 109a 4D8D6E04 		leaq	4(%r14), %r13
 1476 109e 4939ED   		cmpq	%rbp, %r13
 1477 10a1 7765     		ja	.L321
 1478 10a3 488B07   		movq	(%rdi), %rax
 1479              	.L320:
 1480 10a6 46882430 		movb	%r12b, (%rax,%r14)
 1481 10aa 488B4308 		movq	8(%rbx), %rax
 1482 10ae 4489E1   		movl	%r12d, %ecx
 1483 10b1 488B13   		movq	(%rbx), %rdx
 1484 10b4 0FB6CD   		movzbl	%ch, %ecx
 1485 10b7 884C0201 		movb	%cl, 1(%rdx,%rax)
 1486 10bb 488B4308 		movq	8(%rbx), %rax
 1487 10bf 4489E1   		movl	%r12d, %ecx
 1488 10c2 488B13   		movq	(%rbx), %rdx
 1489 10c5 C1E910   		shrl	$16, %ecx
 1490 10c8 41C1EC18 		shrl	$24, %r12d
 1491 10cc 884C0202 		movb	%cl, 2(%rdx,%rax)
 1492 10d0 488B4308 		movq	8(%rbx), %rax
 1493 10d4 488B13   		movq	(%rbx), %rdx
 1494 10d7 44886402 		movb	%r12b, 3(%rdx,%rax)
 1494      03
 1495 10dc 48834308 		addq	$4, 8(%rbx)
 1495      04
 1496 10e1 31C0     		xorl	%eax, %eax
 1497              	.L323:
 1498 10e3 488B7424 		movq	24(%rsp), %rsi
 1498      18
 1499 10e8 64483334 		xorq	%fs:40, %rsi
 1499      25280000 
 1499      00
 1500 10f1 0F857803 		jne	.L391
 1500      0000
 1501 10f7 4883C420 		addq	$32, %rsp
 1502              		.cfi_remember_state
 1503              		.cfi_def_cfa_offset 48
 1504 10fb 5B       		popq	%rbx
 1505              		.cfi_def_cfa_offset 40
 1506 10fc 5D       		popq	%rbp
 1507              		.cfi_def_cfa_offset 32
 1508 10fd 415C     		popq	%r12
 1509              		.cfi_def_cfa_offset 24
 1510 10ff 415D     		popq	%r13
 1511              		.cfi_def_cfa_offset 16
 1512 1101 415E     		popq	%r14
 1513              		.cfi_def_cfa_offset 8
 1514 1103 C3       		ret
 1515              		.p2align 4,,10
 1516 1104 0F1F4000 		.p2align 3
 1517              	.L321:
 1518              		.cfi_restore_state
 1519 1108 4801ED   		addq	%rbp, %rbp
 1520 110b 4939ED   		cmpq	%rbp, %r13
 1521 110e 77F8     		ja	.L321
 1522 1110 488B3B   		movq	(%rbx), %rdi
 1523 1113 4889EE   		movq	%rbp, %rsi
 1524 1116 48895424 		movq	%rdx, 8(%rsp)
 1524      08
 1525 111b E8000000 		call	realloc@PLT
 1525      00
 1526 1120 4885C0   		testq	%rax, %rax
 1527 1123 488B5424 		movq	8(%rsp), %rdx
 1527      08
 1528 1128 0F841403 		je	.L392
 1528      0000
 1529 112e 4A8D1428 		leaq	(%rax,%r13), %rdx
 1530 1132 48896B10 		movq	%rbp, 16(%rbx)
 1531 1136 4801C5   		addq	%rax, %rbp
 1532 1139 488903   		movq	%rax, (%rbx)
 1533 113c 4839EA   		cmpq	%rbp, %rdx
 1534 113f 0F83DD02 		jnb	.L389
 1534      0000
 1535 1145 488D4A01 		leaq	1(%rdx), %rcx
 1536 1149 4889EE   		movq	%rbp, %rsi
 1537 114c 4C8D5318 		leaq	24(%rbx), %r10
 1538 1150 4829CE   		subq	%rcx, %rsi
 1539 1153 4989C8   		movq	%rcx, %r8
 1540 1156 498D7C36 		leaq	5(%r14,%rsi), %rdi
 1540      05
 1541 115b 4C8D4E01 		leaq	1(%rsi), %r9
 1542 115f 4801C7   		addq	%rax, %rdi
 1543 1162 4939FA   		cmpq	%rdi, %r10
 1544 1165 488D7B19 		leaq	25(%rbx), %rdi
 1545 1169 410F93C2 		setnb	%r10b
 1546 116d 4839FA   		cmpq	%rdi, %rdx
 1547 1170 400F93C7 		setnb	%dil
 1548 1174 4108FA   		orb	%dil, %r10b
 1549 1177 0F84B702 		je	.L333
 1549      0000
 1550 117d 4983F916 		cmpq	$22, %r9
 1551 1181 0F86AD02 		jbe	.L333
 1551      0000
 1552 1187 4889D1   		movq	%rdx, %rcx
 1553 118a 48F7D9   		negq	%rcx
 1554 118d 83E10F   		andl	$15, %ecx
 1555 1190 4C39C9   		cmpq	%r9, %rcx
 1556 1193 490F47C9 		cmova	%r9, %rcx
 1557 1197 4885C9   		testq	%rcx, %rcx
 1558 119a 0F842201 		je	.L326
 1558      0000
 1559 11a0 0FB67B18 		movzbl	24(%rbx), %edi
 1560 11a4 4883F901 		cmpq	$1, %rcx
 1561 11a8 40883A   		movb	%dil, (%rdx)
 1562 11ab 0F840E01 		je	.L327
 1562      0000
 1563 11b1 0FB67B18 		movzbl	24(%rbx), %edi
 1564 11b5 4883F902 		cmpq	$2, %rcx
 1565 11b9 4C8D4202 		leaq	2(%rdx), %r8
 1566 11bd 40887A01 		movb	%dil, 1(%rdx)
 1567 11c1 0F84F800 		je	.L327
 1567      0000
 1568 11c7 0FB67B18 		movzbl	24(%rbx), %edi
 1569 11cb 4883F903 		cmpq	$3, %rcx
 1570 11cf 4C8D4203 		leaq	3(%rdx), %r8
 1571 11d3 40887A02 		movb	%dil, 2(%rdx)
 1572 11d7 0F84E200 		je	.L327
 1572      0000
 1573 11dd 0FB67B18 		movzbl	24(%rbx), %edi
 1574 11e1 4883F904 		cmpq	$4, %rcx
 1575 11e5 4C8D4204 		leaq	4(%rdx), %r8
 1576 11e9 40887A03 		movb	%dil, 3(%rdx)
 1577 11ed 0F84CC00 		je	.L327
 1577      0000
 1578 11f3 0FB67B18 		movzbl	24(%rbx), %edi
 1579 11f7 4883F905 		cmpq	$5, %rcx
 1580 11fb 4C8D4205 		leaq	5(%rdx), %r8
 1581 11ff 40887A04 		movb	%dil, 4(%rdx)
 1582 1203 0F84B600 		je	.L327
 1582      0000
 1583 1209 0FB67B18 		movzbl	24(%rbx), %edi
 1584 120d 4883F906 		cmpq	$6, %rcx
 1585 1211 4C8D4206 		leaq	6(%rdx), %r8
 1586 1215 40887A05 		movb	%dil, 5(%rdx)
 1587 1219 0F84A000 		je	.L327
 1587      0000
 1588 121f 0FB67B18 		movzbl	24(%rbx), %edi
 1589 1223 4883F907 		cmpq	$7, %rcx
 1590 1227 4C8D4207 		leaq	7(%rdx), %r8
 1591 122b 40887A06 		movb	%dil, 6(%rdx)
 1592 122f 0F848A00 		je	.L327
 1592      0000
 1593 1235 0FB67B18 		movzbl	24(%rbx), %edi
 1594 1239 4883F908 		cmpq	$8, %rcx
 1595 123d 4C8D4208 		leaq	8(%rdx), %r8
 1596 1241 40887A07 		movb	%dil, 7(%rdx)
 1597 1245 7478     		je	.L327
 1598 1247 0FB67B18 		movzbl	24(%rbx), %edi
 1599 124b 4883F909 		cmpq	$9, %rcx
 1600 124f 4C8D4209 		leaq	9(%rdx), %r8
 1601 1253 40887A08 		movb	%dil, 8(%rdx)
 1602 1257 7466     		je	.L327
 1603 1259 0FB67B18 		movzbl	24(%rbx), %edi
 1604 125d 4883F90A 		cmpq	$10, %rcx
 1605 1261 4C8D420A 		leaq	10(%rdx), %r8
 1606 1265 40887A09 		movb	%dil, 9(%rdx)
 1607 1269 7454     		je	.L327
 1608 126b 0FB67B18 		movzbl	24(%rbx), %edi
 1609 126f 4883F90B 		cmpq	$11, %rcx
 1610 1273 4C8D420B 		leaq	11(%rdx), %r8
 1611 1277 40887A0A 		movb	%dil, 10(%rdx)
 1612 127b 7442     		je	.L327
 1613 127d 0FB67B18 		movzbl	24(%rbx), %edi
 1614 1281 4883F90C 		cmpq	$12, %rcx
 1615 1285 4C8D420C 		leaq	12(%rdx), %r8
 1616 1289 40887A0B 		movb	%dil, 11(%rdx)
 1617 128d 7430     		je	.L327
 1618 128f 0FB67B18 		movzbl	24(%rbx), %edi
 1619 1293 4883F90D 		cmpq	$13, %rcx
 1620 1297 4C8D420D 		leaq	13(%rdx), %r8
 1621 129b 40887A0C 		movb	%dil, 12(%rdx)
 1622 129f 741E     		je	.L327
 1623 12a1 0FB67B18 		movzbl	24(%rbx), %edi
 1624 12a5 4883F90F 		cmpq	$15, %rcx
 1625 12a9 4C8D420E 		leaq	14(%rdx), %r8
 1626 12ad 40887A0D 		movb	%dil, 13(%rdx)
 1627 12b1 750C     		jne	.L327
 1628 12b3 0FB67B18 		movzbl	24(%rbx), %edi
 1629 12b7 4C8D420F 		leaq	15(%rdx), %r8
 1630 12bb 40887A0E 		movb	%dil, 14(%rdx)
 1631              	.L327:
 1632 12bf 4C89C2   		movq	%r8, %rdx
 1633              	.L326:
 1634 12c2 4929C9   		subq	%rcx, %r9
 1635 12c5 4829CE   		subq	%rcx, %rsi
 1636 12c8 498D79F0 		leaq	-16(%r9), %rdi
 1637 12cc 48C1EF04 		shrq	$4, %rdi
 1638 12d0 4883C701 		addq	$1, %rdi
 1639 12d4 4989F8   		movq	%rdi, %r8
 1640 12d7 49C1E004 		salq	$4, %r8
 1641 12db 4883FE0E 		cmpq	$14, %rsi
 1642 12df 7640     		jbe	.L328
 1643 12e1 0FB67318 		movzbl	24(%rbx), %esi
 1644 12e5 4901CD   		addq	%rcx, %r13
 1645 12e8 31C9     		xorl	%ecx, %ecx
 1646 12ea 4C01E8   		addq	%r13, %rax
 1647 12ed 89742408 		movl	%esi, 8(%rsp)
 1648 12f1 660F6E44 		movd	8(%rsp), %xmm0
 1648      2408
 1649 12f7 660F60C0 		punpcklbw	%xmm0, %xmm0
 1650 12fb 660F61C0 		punpcklwd	%xmm0, %xmm0
 1651 12ff 660F70C0 		pshufd	$0, %xmm0, %xmm0
 1651      00
 1652              	.L329:
 1653 1304 4883C101 		addq	$1, %rcx
 1654 1308 4883C010 		addq	$16, %rax
 1655 130c 0F2940F0 		movaps	%xmm0, -16(%rax)
 1656 1310 4839CF   		cmpq	%rcx, %rdi
 1657 1313 77EF     		ja	.L329
 1658 1315 4C01C2   		addq	%r8, %rdx
 1659 1318 4D39C1   		cmpq	%r8, %r9
 1660 131b 0F84FE00 		je	.L334
 1660      0000
 1661              	.L328:
 1662 1321 0FB64318 		movzbl	24(%rbx), %eax
 1663 1325 8802     		movb	%al, (%rdx)
 1664 1327 488D4201 		leaq	1(%rdx), %rax
 1665 132b 4839C5   		cmpq	%rax, %rbp
 1666 132e 0F86EB00 		jbe	.L334
 1666      0000
 1667 1334 0FB64318 		movzbl	24(%rbx), %eax
 1668 1338 884201   		movb	%al, 1(%rdx)
 1669 133b 488D4202 		leaq	2(%rdx), %rax
 1670 133f 4839C5   		cmpq	%rax, %rbp
 1671 1342 0F86D700 		jbe	.L334
 1671      0000
 1672 1348 0FB64318 		movzbl	24(%rbx), %eax
 1673 134c 884202   		movb	%al, 2(%rdx)
 1674 134f 488D4203 		leaq	3(%rdx), %rax
 1675 1353 4839C5   		cmpq	%rax, %rbp
 1676 1356 0F86C300 		jbe	.L334
 1676      0000
 1677 135c 0FB64318 		movzbl	24(%rbx), %eax
 1678 1360 884203   		movb	%al, 3(%rdx)
 1679 1363 488D4204 		leaq	4(%rdx), %rax
 1680 1367 4839C5   		cmpq	%rax, %rbp
 1681 136a 0F86AF00 		jbe	.L334
 1681      0000
 1682 1370 0FB64318 		movzbl	24(%rbx), %eax
 1683 1374 884204   		movb	%al, 4(%rdx)
 1684 1377 488D4205 		leaq	5(%rdx), %rax
 1685 137b 4839C5   		cmpq	%rax, %rbp
 1686 137e 0F869B00 		jbe	.L334
 1686      0000
 1687 1384 0FB64318 		movzbl	24(%rbx), %eax
 1688 1388 884205   		movb	%al, 5(%rdx)
 1689 138b 488D4206 		leaq	6(%rdx), %rax
 1690 138f 4839C5   		cmpq	%rax, %rbp
 1691 1392 0F868700 		jbe	.L334
 1691      0000
 1692 1398 0FB64318 		movzbl	24(%rbx), %eax
 1693 139c 884206   		movb	%al, 6(%rdx)
 1694 139f 488D4207 		leaq	7(%rdx), %rax
 1695 13a3 4839C5   		cmpq	%rax, %rbp
 1696 13a6 7677     		jbe	.L334
 1697 13a8 0FB64318 		movzbl	24(%rbx), %eax
 1698 13ac 884207   		movb	%al, 7(%rdx)
 1699 13af 488D4208 		leaq	8(%rdx), %rax
 1700 13b3 4839C5   		cmpq	%rax, %rbp
 1701 13b6 7667     		jbe	.L334
 1702 13b8 0FB64318 		movzbl	24(%rbx), %eax
 1703 13bc 884208   		movb	%al, 8(%rdx)
 1704 13bf 488D4209 		leaq	9(%rdx), %rax
 1705 13c3 4839C5   		cmpq	%rax, %rbp
 1706 13c6 7657     		jbe	.L334
 1707 13c8 0FB64318 		movzbl	24(%rbx), %eax
 1708 13cc 884209   		movb	%al, 9(%rdx)
 1709 13cf 488D420A 		leaq	10(%rdx), %rax
 1710 13d3 4839C5   		cmpq	%rax, %rbp
 1711 13d6 7647     		jbe	.L334
 1712 13d8 0FB64318 		movzbl	24(%rbx), %eax
 1713 13dc 88420A   		movb	%al, 10(%rdx)
 1714 13df 488D420B 		leaq	11(%rdx), %rax
 1715 13e3 4839C5   		cmpq	%rax, %rbp
 1716 13e6 7637     		jbe	.L334
 1717 13e8 0FB64318 		movzbl	24(%rbx), %eax
 1718 13ec 88420B   		movb	%al, 11(%rdx)
 1719 13ef 488D420C 		leaq	12(%rdx), %rax
 1720 13f3 4839C5   		cmpq	%rax, %rbp
 1721 13f6 7627     		jbe	.L334
 1722 13f8 0FB64318 		movzbl	24(%rbx), %eax
 1723 13fc 88420C   		movb	%al, 12(%rdx)
 1724 13ff 488D420D 		leaq	13(%rdx), %rax
 1725 1403 4839C5   		cmpq	%rax, %rbp
 1726 1406 7617     		jbe	.L334
 1727 1408 0FB64318 		movzbl	24(%rbx), %eax
 1728 140c 88420D   		movb	%al, 13(%rdx)
 1729 140f 488D420E 		leaq	14(%rdx), %rax
 1730 1413 4839C5   		cmpq	%rax, %rbp
 1731 1416 7607     		jbe	.L334
 1732 1418 0FB64318 		movzbl	24(%rbx), %eax
 1733 141c 88420E   		movb	%al, 14(%rdx)
 1734              	.L334:
 1735 141f 488B03   		movq	(%rbx), %rax
 1736              	.L389:
 1737 1422 4C8B7308 		movq	8(%rbx), %r14
 1738 1426 E97BFCFF 		jmp	.L320
 1738      FF
 1739 142b 0F1F4400 		.p2align 4,,10
 1739      00
 1740              		.p2align 3
 1741              	.L393:
 1742 1430 4883C101 		addq	$1, %rcx
 1743              	.L333:
 1744 1434 0FB64318 		movzbl	24(%rbx), %eax
 1745 1438 4839CD   		cmpq	%rcx, %rbp
 1746 143b 8841FF   		movb	%al, -1(%rcx)
 1747 143e 75F0     		jne	.L393
 1748 1440 EBDD     		jmp	.L334
 1749              	.L392:
 1750 1442 488D3500 		leaq	.LC7(%rip), %rsi
 1750      000000
 1751 1449 4889D7   		movq	%rdx, %rdi
 1752 144c E8000000 		call	errPrefix@PLT
 1752      00
 1753 1451 488B5424 		movq	8(%rsp), %rdx
 1753      08
 1754 1456 488D3500 		leaq	.LC14(%rip), %rsi
 1754      000000
 1755 145d 4889D7   		movq	%rdx, %rdi
 1756 1460 E8000000 		call	errPrefix@PLT
 1756      00
 1757 1465 B8010000 		movl	$1, %eax
 1757      00
 1758 146a E974FCFF 		jmp	.L323
 1758      FF
 1759              	.L391:
 1760 146f E8000000 		call	__stack_chk_fail@PLT
 1760      00
 1761              		.cfi_endproc
 1762              	.LFE56:
 1764              		.section	.text.unlikely
 1765              	.LCOLDE15:
 1766              		.text
 1767              	.LHOTE15:
 1768              		.section	.rodata.str1.1
 1769              	.LC16:
 1770 0046 62756641 		.string	"bufAppendLongBE()"
 1770      7070656E 
 1770      644C6F6E 
 1770      67424528 
 1770      2900
 1771              		.section	.text.unlikely
 1772              	.LCOLDB17:
 1773              		.text
 1774              	.LHOTB17:
 1775 1474 6690662E 		.p2align 4,,15
 1775      0F1F8400 
 1775      00000000 
 1776              		.globl	bufAppendLongBE
 1778              	bufAppendLongBE:
 1779              	.LFB57:
 1780              		.cfi_startproc
 1781 1480 4156     		pushq	%r14
 1782              		.cfi_def_cfa_offset 16
 1783              		.cfi_offset 14, -16
 1784 1482 4155     		pushq	%r13
 1785              		.cfi_def_cfa_offset 24
 1786              		.cfi_offset 13, -24
 1787 1484 4189F5   		movl	%esi, %r13d
 1788 1487 4154     		pushq	%r12
 1789              		.cfi_def_cfa_offset 32
 1790              		.cfi_offset 12, -32
 1791 1489 55       		pushq	%rbp
 1792              		.cfi_def_cfa_offset 40
 1793              		.cfi_offset 6, -40
 1794 148a 53       		pushq	%rbx
 1795              		.cfi_def_cfa_offset 48
 1796              		.cfi_offset 3, -48
 1797 148b 4889FB   		movq	%rdi, %rbx
 1798 148e 4883EC20 		subq	$32, %rsp
 1799              		.cfi_def_cfa_offset 80
 1800 1492 4C8B7708 		movq	8(%rdi), %r14
 1801 1496 488B6F10 		movq	16(%rdi), %rbp
 1802 149a 64488B04 		movq	%fs:40, %rax
 1802      25280000 
 1802      00
 1803 14a3 48894424 		movq	%rax, 24(%rsp)
 1803      18
 1804 14a8 31C0     		xorl	%eax, %eax
 1805 14aa 4D8D6604 		leaq	4(%r14), %r12
 1806 14ae 4939EC   		cmpq	%rbp, %r12
 1807 14b1 776D     		ja	.L397
 1808 14b3 488B07   		movq	(%rdi), %rax
 1809              	.L396:
 1810 14b6 4489EA   		movl	%r13d, %edx
 1811 14b9 4489E9   		movl	%r13d, %ecx
 1812 14bc C1EA18   		shrl	$24, %edx
 1813 14bf C1E910   		shrl	$16, %ecx
 1814 14c2 42881430 		movb	%dl, (%rax,%r14)
 1815 14c6 488B4308 		movq	8(%rbx), %rax
 1816 14ca 488B13   		movq	(%rbx), %rdx
 1817 14cd 884C0201 		movb	%cl, 1(%rdx,%rax)
 1818 14d1 488B4308 		movq	8(%rbx), %rax
 1819 14d5 4489E9   		movl	%r13d, %ecx
 1820 14d8 488B13   		movq	(%rbx), %rdx
 1821 14db 0FB6CD   		movzbl	%ch, %ecx
 1822 14de 884C0202 		movb	%cl, 2(%rdx,%rax)
 1823 14e2 488B4308 		movq	8(%rbx), %rax
 1824 14e6 488B13   		movq	(%rbx), %rdx
 1825 14e9 44886C02 		movb	%r13b, 3(%rdx,%rax)
 1825      03
 1826 14ee 48834308 		addq	$4, 8(%rbx)
 1826      04
 1827 14f3 31C0     		xorl	%eax, %eax
 1828              	.L399:
 1829 14f5 488B7424 		movq	24(%rsp), %rsi
 1829      18
 1830 14fa 64483334 		xorq	%fs:40, %rsi
 1830      25280000 
 1830      00
 1831 1503 0F857E03 		jne	.L467
 1831      0000
 1832 1509 4883C420 		addq	$32, %rsp
 1833              		.cfi_remember_state
 1834              		.cfi_def_cfa_offset 48
 1835 150d 5B       		popq	%rbx
 1836              		.cfi_def_cfa_offset 40
 1837 150e 5D       		popq	%rbp
 1838              		.cfi_def_cfa_offset 32
 1839 150f 415C     		popq	%r12
 1840              		.cfi_def_cfa_offset 24
 1841 1511 415D     		popq	%r13
 1842              		.cfi_def_cfa_offset 16
 1843 1513 415E     		popq	%r14
 1844              		.cfi_def_cfa_offset 8
 1845 1515 C3       		ret
 1846 1516 662E0F1F 		.p2align 4,,10
 1846      84000000 
 1846      0000
 1847              		.p2align 3
 1848              	.L397:
 1849              		.cfi_restore_state
 1850 1520 4801ED   		addq	%rbp, %rbp
 1851 1523 4939EC   		cmpq	%rbp, %r12
 1852 1526 77F8     		ja	.L397
 1853 1528 488B3B   		movq	(%rbx), %rdi
 1854 152b 4889EE   		movq	%rbp, %rsi
 1855 152e 48895424 		movq	%rdx, 8(%rsp)
 1855      08
 1856 1533 E8000000 		call	realloc@PLT
 1856      00
 1857 1538 4885C0   		testq	%rax, %rax
 1858 153b 488B5424 		movq	8(%rsp), %rdx
 1858      08
 1859 1540 0F841403 		je	.L468
 1859      0000
 1860 1546 4A8D1420 		leaq	(%rax,%r12), %rdx
 1861 154a 48896B10 		movq	%rbp, 16(%rbx)
 1862 154e 4801C5   		addq	%rax, %rbp
 1863 1551 488903   		movq	%rax, (%rbx)
 1864 1554 4839EA   		cmpq	%rbp, %rdx
 1865 1557 0F83DD02 		jnb	.L465
 1865      0000
 1866 155d 488D4A01 		leaq	1(%rdx), %rcx
 1867 1561 4889EE   		movq	%rbp, %rsi
 1868 1564 4C8D5318 		leaq	24(%rbx), %r10
 1869 1568 4829CE   		subq	%rcx, %rsi
 1870 156b 4989C8   		movq	%rcx, %r8
 1871 156e 498D7C36 		leaq	5(%r14,%rsi), %rdi
 1871      05
 1872 1573 4C8D4E01 		leaq	1(%rsi), %r9
 1873 1577 4801C7   		addq	%rax, %rdi
 1874 157a 4939FA   		cmpq	%rdi, %r10
 1875 157d 488D7B19 		leaq	25(%rbx), %rdi
 1876 1581 410F93C2 		setnb	%r10b
 1877 1585 4839FA   		cmpq	%rdi, %rdx
 1878 1588 400F93C7 		setnb	%dil
 1879 158c 4108FA   		orb	%dil, %r10b
 1880 158f 0F84B702 		je	.L409
 1880      0000
 1881 1595 4983F916 		cmpq	$22, %r9
 1882 1599 0F86AD02 		jbe	.L409
 1882      0000
 1883 159f 4889D1   		movq	%rdx, %rcx
 1884 15a2 48F7D9   		negq	%rcx
 1885 15a5 83E10F   		andl	$15, %ecx
 1886 15a8 4C39C9   		cmpq	%r9, %rcx
 1887 15ab 490F47C9 		cmova	%r9, %rcx
 1888 15af 4885C9   		testq	%rcx, %rcx
 1889 15b2 0F842201 		je	.L402
 1889      0000
 1890 15b8 0FB67B18 		movzbl	24(%rbx), %edi
 1891 15bc 4883F901 		cmpq	$1, %rcx
 1892 15c0 40883A   		movb	%dil, (%rdx)
 1893 15c3 0F840E01 		je	.L403
 1893      0000
 1894 15c9 0FB67B18 		movzbl	24(%rbx), %edi
 1895 15cd 4883F902 		cmpq	$2, %rcx
 1896 15d1 4C8D4202 		leaq	2(%rdx), %r8
 1897 15d5 40887A01 		movb	%dil, 1(%rdx)
 1898 15d9 0F84F800 		je	.L403
 1898      0000
 1899 15df 0FB67B18 		movzbl	24(%rbx), %edi
 1900 15e3 4883F903 		cmpq	$3, %rcx
 1901 15e7 4C8D4203 		leaq	3(%rdx), %r8
 1902 15eb 40887A02 		movb	%dil, 2(%rdx)
 1903 15ef 0F84E200 		je	.L403
 1903      0000
 1904 15f5 0FB67B18 		movzbl	24(%rbx), %edi
 1905 15f9 4883F904 		cmpq	$4, %rcx
 1906 15fd 4C8D4204 		leaq	4(%rdx), %r8
 1907 1601 40887A03 		movb	%dil, 3(%rdx)
 1908 1605 0F84CC00 		je	.L403
 1908      0000
 1909 160b 0FB67B18 		movzbl	24(%rbx), %edi
 1910 160f 4883F905 		cmpq	$5, %rcx
 1911 1613 4C8D4205 		leaq	5(%rdx), %r8
 1912 1617 40887A04 		movb	%dil, 4(%rdx)
 1913 161b 0F84B600 		je	.L403
 1913      0000
 1914 1621 0FB67B18 		movzbl	24(%rbx), %edi
 1915 1625 4883F906 		cmpq	$6, %rcx
 1916 1629 4C8D4206 		leaq	6(%rdx), %r8
 1917 162d 40887A05 		movb	%dil, 5(%rdx)
 1918 1631 0F84A000 		je	.L403
 1918      0000
 1919 1637 0FB67B18 		movzbl	24(%rbx), %edi
 1920 163b 4883F907 		cmpq	$7, %rcx
 1921 163f 4C8D4207 		leaq	7(%rdx), %r8
 1922 1643 40887A06 		movb	%dil, 6(%rdx)
 1923 1647 0F848A00 		je	.L403
 1923      0000
 1924 164d 0FB67B18 		movzbl	24(%rbx), %edi
 1925 1651 4883F908 		cmpq	$8, %rcx
 1926 1655 4C8D4208 		leaq	8(%rdx), %r8
 1927 1659 40887A07 		movb	%dil, 7(%rdx)
 1928 165d 7478     		je	.L403
 1929 165f 0FB67B18 		movzbl	24(%rbx), %edi
 1930 1663 4883F909 		cmpq	$9, %rcx
 1931 1667 4C8D4209 		leaq	9(%rdx), %r8
 1932 166b 40887A08 		movb	%dil, 8(%rdx)
 1933 166f 7466     		je	.L403
 1934 1671 0FB67B18 		movzbl	24(%rbx), %edi
 1935 1675 4883F90A 		cmpq	$10, %rcx
 1936 1679 4C8D420A 		leaq	10(%rdx), %r8
 1937 167d 40887A09 		movb	%dil, 9(%rdx)
 1938 1681 7454     		je	.L403
 1939 1683 0FB67B18 		movzbl	24(%rbx), %edi
 1940 1687 4883F90B 		cmpq	$11, %rcx
 1941 168b 4C8D420B 		leaq	11(%rdx), %r8
 1942 168f 40887A0A 		movb	%dil, 10(%rdx)
 1943 1693 7442     		je	.L403
 1944 1695 0FB67B18 		movzbl	24(%rbx), %edi
 1945 1699 4883F90C 		cmpq	$12, %rcx
 1946 169d 4C8D420C 		leaq	12(%rdx), %r8
 1947 16a1 40887A0B 		movb	%dil, 11(%rdx)
 1948 16a5 7430     		je	.L403
 1949 16a7 0FB67B18 		movzbl	24(%rbx), %edi
 1950 16ab 4883F90D 		cmpq	$13, %rcx
 1951 16af 4C8D420D 		leaq	13(%rdx), %r8
 1952 16b3 40887A0C 		movb	%dil, 12(%rdx)
 1953 16b7 741E     		je	.L403
 1954 16b9 0FB67B18 		movzbl	24(%rbx), %edi
 1955 16bd 4883F90F 		cmpq	$15, %rcx
 1956 16c1 4C8D420E 		leaq	14(%rdx), %r8
 1957 16c5 40887A0D 		movb	%dil, 13(%rdx)
 1958 16c9 750C     		jne	.L403
 1959 16cb 0FB67B18 		movzbl	24(%rbx), %edi
 1960 16cf 4C8D420F 		leaq	15(%rdx), %r8
 1961 16d3 40887A0E 		movb	%dil, 14(%rdx)
 1962              	.L403:
 1963 16d7 4C89C2   		movq	%r8, %rdx
 1964              	.L402:
 1965 16da 4929C9   		subq	%rcx, %r9
 1966 16dd 4829CE   		subq	%rcx, %rsi
 1967 16e0 498D79F0 		leaq	-16(%r9), %rdi
 1968 16e4 48C1EF04 		shrq	$4, %rdi
 1969 16e8 4883C701 		addq	$1, %rdi
 1970 16ec 4989F8   		movq	%rdi, %r8
 1971 16ef 49C1E004 		salq	$4, %r8
 1972 16f3 4883FE0E 		cmpq	$14, %rsi
 1973 16f7 7640     		jbe	.L404
 1974 16f9 0FB67318 		movzbl	24(%rbx), %esi
 1975 16fd 4901CC   		addq	%rcx, %r12
 1976 1700 31C9     		xorl	%ecx, %ecx
 1977 1702 4C01E0   		addq	%r12, %rax
 1978 1705 89742408 		movl	%esi, 8(%rsp)
 1979 1709 660F6E44 		movd	8(%rsp), %xmm0
 1979      2408
 1980 170f 660F60C0 		punpcklbw	%xmm0, %xmm0
 1981 1713 660F61C0 		punpcklwd	%xmm0, %xmm0
 1982 1717 660F70C0 		pshufd	$0, %xmm0, %xmm0
 1982      00
 1983              	.L405:
 1984 171c 4883C101 		addq	$1, %rcx
 1985 1720 4883C010 		addq	$16, %rax
 1986 1724 0F2940F0 		movaps	%xmm0, -16(%rax)
 1987 1728 4839CF   		cmpq	%rcx, %rdi
 1988 172b 77EF     		ja	.L405
 1989 172d 4C01C2   		addq	%r8, %rdx
 1990 1730 4D39C1   		cmpq	%r8, %r9
 1991 1733 0F84FE00 		je	.L410
 1991      0000
 1992              	.L404:
 1993 1739 0FB64318 		movzbl	24(%rbx), %eax
 1994 173d 8802     		movb	%al, (%rdx)
 1995 173f 488D4201 		leaq	1(%rdx), %rax
 1996 1743 4839C5   		cmpq	%rax, %rbp
 1997 1746 0F86EB00 		jbe	.L410
 1997      0000
 1998 174c 0FB64318 		movzbl	24(%rbx), %eax
 1999 1750 884201   		movb	%al, 1(%rdx)
 2000 1753 488D4202 		leaq	2(%rdx), %rax
 2001 1757 4839C5   		cmpq	%rax, %rbp
 2002 175a 0F86D700 		jbe	.L410
 2002      0000
 2003 1760 0FB64318 		movzbl	24(%rbx), %eax
 2004 1764 884202   		movb	%al, 2(%rdx)
 2005 1767 488D4203 		leaq	3(%rdx), %rax
 2006 176b 4839C5   		cmpq	%rax, %rbp
 2007 176e 0F86C300 		jbe	.L410
 2007      0000
 2008 1774 0FB64318 		movzbl	24(%rbx), %eax
 2009 1778 884203   		movb	%al, 3(%rdx)
 2010 177b 488D4204 		leaq	4(%rdx), %rax
 2011 177f 4839C5   		cmpq	%rax, %rbp
 2012 1782 0F86AF00 		jbe	.L410
 2012      0000
 2013 1788 0FB64318 		movzbl	24(%rbx), %eax
 2014 178c 884204   		movb	%al, 4(%rdx)
 2015 178f 488D4205 		leaq	5(%rdx), %rax
 2016 1793 4839C5   		cmpq	%rax, %rbp
 2017 1796 0F869B00 		jbe	.L410
 2017      0000
 2018 179c 0FB64318 		movzbl	24(%rbx), %eax
 2019 17a0 884205   		movb	%al, 5(%rdx)
 2020 17a3 488D4206 		leaq	6(%rdx), %rax
 2021 17a7 4839C5   		cmpq	%rax, %rbp
 2022 17aa 0F868700 		jbe	.L410
 2022      0000
 2023 17b0 0FB64318 		movzbl	24(%rbx), %eax
 2024 17b4 884206   		movb	%al, 6(%rdx)
 2025 17b7 488D4207 		leaq	7(%rdx), %rax
 2026 17bb 4839C5   		cmpq	%rax, %rbp
 2027 17be 7677     		jbe	.L410
 2028 17c0 0FB64318 		movzbl	24(%rbx), %eax
 2029 17c4 884207   		movb	%al, 7(%rdx)
 2030 17c7 488D4208 		leaq	8(%rdx), %rax
 2031 17cb 4839C5   		cmpq	%rax, %rbp
 2032 17ce 7667     		jbe	.L410
 2033 17d0 0FB64318 		movzbl	24(%rbx), %eax
 2034 17d4 884208   		movb	%al, 8(%rdx)
 2035 17d7 488D4209 		leaq	9(%rdx), %rax
 2036 17db 4839C5   		cmpq	%rax, %rbp
 2037 17de 7657     		jbe	.L410
 2038 17e0 0FB64318 		movzbl	24(%rbx), %eax
 2039 17e4 884209   		movb	%al, 9(%rdx)
 2040 17e7 488D420A 		leaq	10(%rdx), %rax
 2041 17eb 4839C5   		cmpq	%rax, %rbp
 2042 17ee 7647     		jbe	.L410
 2043 17f0 0FB64318 		movzbl	24(%rbx), %eax
 2044 17f4 88420A   		movb	%al, 10(%rdx)
 2045 17f7 488D420B 		leaq	11(%rdx), %rax
 2046 17fb 4839C5   		cmpq	%rax, %rbp
 2047 17fe 7637     		jbe	.L410
 2048 1800 0FB64318 		movzbl	24(%rbx), %eax
 2049 1804 88420B   		movb	%al, 11(%rdx)
 2050 1807 488D420C 		leaq	12(%rdx), %rax
 2051 180b 4839C5   		cmpq	%rax, %rbp
 2052 180e 7627     		jbe	.L410
 2053 1810 0FB64318 		movzbl	24(%rbx), %eax
 2054 1814 88420C   		movb	%al, 12(%rdx)
 2055 1817 488D420D 		leaq	13(%rdx), %rax
 2056 181b 4839C5   		cmpq	%rax, %rbp
 2057 181e 7617     		jbe	.L410
 2058 1820 0FB64318 		movzbl	24(%rbx), %eax
 2059 1824 88420D   		movb	%al, 13(%rdx)
 2060 1827 488D420E 		leaq	14(%rdx), %rax
 2061 182b 4839C5   		cmpq	%rax, %rbp
 2062 182e 7607     		jbe	.L410
 2063 1830 0FB64318 		movzbl	24(%rbx), %eax
 2064 1834 88420E   		movb	%al, 14(%rdx)
 2065              	.L410:
 2066 1837 488B03   		movq	(%rbx), %rax
 2067              	.L465:
 2068 183a 4C8B7308 		movq	8(%rbx), %r14
 2069 183e E973FCFF 		jmp	.L396
 2069      FF
 2070              		.p2align 4,,10
 2071 1843 0F1F4400 		.p2align 3
 2071      00
 2072              	.L469:
 2073 1848 4883C101 		addq	$1, %rcx
 2074              	.L409:
 2075 184c 0FB64318 		movzbl	24(%rbx), %eax
 2076 1850 4839CD   		cmpq	%rcx, %rbp
 2077 1853 8841FF   		movb	%al, -1(%rcx)
 2078 1856 75F0     		jne	.L469
 2079 1858 EBDD     		jmp	.L410
 2080              	.L468:
 2081 185a 488D3500 		leaq	.LC7(%rip), %rsi
 2081      000000
 2082 1861 4889D7   		movq	%rdx, %rdi
 2083 1864 E8000000 		call	errPrefix@PLT
 2083      00
 2084 1869 488B5424 		movq	8(%rsp), %rdx
 2084      08
 2085 186e 488D3500 		leaq	.LC16(%rip), %rsi
 2085      000000
 2086 1875 4889D7   		movq	%rdx, %rdi
 2087 1878 E8000000 		call	errPrefix@PLT
 2087      00
 2088 187d B8010000 		movl	$1, %eax
 2088      00
 2089 1882 E96EFCFF 		jmp	.L399
 2089      FF
 2090              	.L467:
 2091 1887 E8000000 		call	__stack_chk_fail@PLT
 2091      00
 2092              		.cfi_endproc
 2093              	.LFE57:
 2095              		.section	.text.unlikely
 2096              	.LCOLDE17:
 2097              		.text
 2098              	.LHOTE17:
 2099              		.section	.rodata.str1.1
 2100              	.LC18:
 2101 0058 62756641 		.string	"bufAppendConst()"
 2101      7070656E 
 2101      64436F6E 
 2101      73742829 
 2101      00
 2102              		.section	.text.unlikely
 2103              	.LCOLDB19:
 2104              		.text
 2105              	.LHOTB19:
 2106 188c 0F1F4000 		.p2align 4,,15
 2107              		.globl	bufAppendConst
 2109              	bufAppendConst:
 2110              	.LFB58:
 2111              		.cfi_startproc
 2112 1890 4157     		pushq	%r15
 2113              		.cfi_def_cfa_offset 16
 2114              		.cfi_offset 15, -16
 2115 1892 4156     		pushq	%r14
 2116              		.cfi_def_cfa_offset 24
 2117              		.cfi_offset 14, -24
 2118 1894 4155     		pushq	%r13
 2119              		.cfi_def_cfa_offset 32
 2120              		.cfi_offset 13, -32
 2121 1896 4154     		pushq	%r12
 2122              		.cfi_def_cfa_offset 40
 2123              		.cfi_offset 12, -40
 2124 1898 4189F5   		movl	%esi, %r13d
 2125 189b 55       		pushq	%rbp
 2126              		.cfi_def_cfa_offset 48
 2127              		.cfi_offset 6, -48
 2128 189c 53       		pushq	%rbx
 2129              		.cfi_def_cfa_offset 56
 2130              		.cfi_offset 3, -56
 2131 189d 4889FD   		movq	%rdi, %rbp
 2132 18a0 4883EC18 		subq	$24, %rsp
 2133              		.cfi_def_cfa_offset 80
 2134 18a4 4C8B7708 		movq	8(%rdi), %r14
 2135 18a8 488B5F10 		movq	16(%rdi), %rbx
 2136 18ac 4D8D2416 		leaq	(%r14,%rdx), %r12
 2137 18b0 4939DC   		cmpq	%rbx, %r12
 2138 18b3 772B     		ja	.L539
 2139 18b5 488B3F   		movq	(%rdi), %rdi
 2140              	.L472:
 2141              	.L475:
 2142 18b8 410FB6F5 		movzbl	%r13b, %esi
 2143 18bc 4C01F7   		addq	%r14, %rdi
 2144 18bf E8000000 		call	memset@PLT
 2144      00
 2145 18c4 4C896508 		movq	%r12, 8(%rbp)
 2146 18c8 4883C418 		addq	$24, %rsp
 2147              		.cfi_remember_state
 2148              		.cfi_def_cfa_offset 56
 2149 18cc 31C0     		xorl	%eax, %eax
 2150 18ce 5B       		popq	%rbx
 2151              		.cfi_def_cfa_offset 48
 2152 18cf 5D       		popq	%rbp
 2153              		.cfi_def_cfa_offset 40
 2154 18d0 415C     		popq	%r12
 2155              		.cfi_def_cfa_offset 32
 2156 18d2 415D     		popq	%r13
 2157              		.cfi_def_cfa_offset 24
 2158 18d4 415E     		popq	%r14
 2159              		.cfi_def_cfa_offset 16
 2160 18d6 415F     		popq	%r15
 2161              		.cfi_def_cfa_offset 8
 2162 18d8 C3       		ret
 2163 18d9 0F1F8000 		.p2align 4,,10
 2163      000000
 2164              		.p2align 3
 2165              	.L539:
 2166              		.cfi_restore_state
 2167 18e0 4989CF   		movq	%rcx, %r15
 2168              		.p2align 4,,10
 2169 18e3 0F1F4400 		.p2align 3
 2169      00
 2170              	.L473:
 2171 18e8 4801DB   		addq	%rbx, %rbx
 2172 18eb 4939DC   		cmpq	%rbx, %r12
 2173 18ee 77F8     		ja	.L473
 2174 18f0 488B7D00 		movq	0(%rbp), %rdi
 2175 18f4 4889DE   		movq	%rbx, %rsi
 2176 18f7 48895424 		movq	%rdx, 8(%rsp)
 2176      08
 2177 18fc E8000000 		call	realloc@PLT
 2177      00
 2178 1901 4885C0   		testq	%rax, %rax
 2179 1904 488B5424 		movq	8(%rsp), %rdx
 2179      08
 2180 1909 0F841B03 		je	.L542
 2180      0000
 2181 190f 4A8D0C20 		leaq	(%rax,%r12), %rcx
 2182 1913 48895D10 		movq	%rbx, 16(%rbp)
 2183 1917 4801C3   		addq	%rax, %rbx
 2184 191a 48894500 		movq	%rax, 0(%rbp)
 2185 191e 4839D9   		cmpq	%rbx, %rcx
 2186 1921 0F833503 		jnb	.L543
 2186      0000
 2187 1927 488D7101 		leaq	1(%rcx), %rsi
 2188 192b 4989DA   		movq	%rbx, %r10
 2189 192e 498D7C16 		leaq	1(%r14,%rdx), %rdi
 2189      01
 2190 1933 4C8D5D18 		leaq	24(%rbp), %r11
 2191 1937 4929F2   		subq	%rsi, %r10
 2192 193a 4989F0   		movq	%rsi, %r8
 2193 193d 4C01D7   		addq	%r10, %rdi
 2194 1940 4D8D4A01 		leaq	1(%r10), %r9
 2195 1944 4801C7   		addq	%rax, %rdi
 2196 1947 4939FB   		cmpq	%rdi, %r11
 2197 194a 488D7D19 		leaq	25(%rbp), %rdi
 2198 194e 410F93C3 		setnb	%r11b
 2199 1952 4839F9   		cmpq	%rdi, %rcx
 2200 1955 400F93C7 		setnb	%dil
 2201 1959 4108FB   		orb	%dil, %r11b
 2202 195c 0F84BA02 		je	.L485
 2202      0000
 2203 1962 4983F916 		cmpq	$22, %r9
 2204 1966 0F86B002 		jbe	.L485
 2204      0000
 2205 196c 4889CF   		movq	%rcx, %rdi
 2206 196f 48F7DF   		negq	%rdi
 2207 1972 83E70F   		andl	$15, %edi
 2208 1975 4C39CF   		cmpq	%r9, %rdi
 2209 1978 490F47F9 		cmova	%r9, %rdi
 2210 197c 4885FF   		testq	%rdi, %rdi
 2211 197f 0F842201 		je	.L478
 2211      0000
 2212 1985 0FB67518 		movzbl	24(%rbp), %esi
 2213 1989 4883FF01 		cmpq	$1, %rdi
 2214 198d 408831   		movb	%sil, (%rcx)
 2215 1990 0F840E01 		je	.L479
 2215      0000
 2216 1996 0FB67518 		movzbl	24(%rbp), %esi
 2217 199a 4883FF02 		cmpq	$2, %rdi
 2218 199e 4C8D4102 		leaq	2(%rcx), %r8
 2219 19a2 40887101 		movb	%sil, 1(%rcx)
 2220 19a6 0F84F800 		je	.L479
 2220      0000
 2221 19ac 0FB67518 		movzbl	24(%rbp), %esi
 2222 19b0 4883FF03 		cmpq	$3, %rdi
 2223 19b4 4C8D4103 		leaq	3(%rcx), %r8
 2224 19b8 40887102 		movb	%sil, 2(%rcx)
 2225 19bc 0F84E200 		je	.L479
 2225      0000
 2226 19c2 0FB67518 		movzbl	24(%rbp), %esi
 2227 19c6 4883FF04 		cmpq	$4, %rdi
 2228 19ca 4C8D4104 		leaq	4(%rcx), %r8
 2229 19ce 40887103 		movb	%sil, 3(%rcx)
 2230 19d2 0F84CC00 		je	.L479
 2230      0000
 2231 19d8 0FB67518 		movzbl	24(%rbp), %esi
 2232 19dc 4883FF05 		cmpq	$5, %rdi
 2233 19e0 4C8D4105 		leaq	5(%rcx), %r8
 2234 19e4 40887104 		movb	%sil, 4(%rcx)
 2235 19e8 0F84B600 		je	.L479
 2235      0000
 2236 19ee 0FB67518 		movzbl	24(%rbp), %esi
 2237 19f2 4883FF06 		cmpq	$6, %rdi
 2238 19f6 4C8D4106 		leaq	6(%rcx), %r8
 2239 19fa 40887105 		movb	%sil, 5(%rcx)
 2240 19fe 0F84A000 		je	.L479
 2240      0000
 2241 1a04 0FB67518 		movzbl	24(%rbp), %esi
 2242 1a08 4883FF07 		cmpq	$7, %rdi
 2243 1a0c 4C8D4107 		leaq	7(%rcx), %r8
 2244 1a10 40887106 		movb	%sil, 6(%rcx)
 2245 1a14 0F848A00 		je	.L479
 2245      0000
 2246 1a1a 0FB67518 		movzbl	24(%rbp), %esi
 2247 1a1e 4883FF08 		cmpq	$8, %rdi
 2248 1a22 4C8D4108 		leaq	8(%rcx), %r8
 2249 1a26 40887107 		movb	%sil, 7(%rcx)
 2250 1a2a 7478     		je	.L479
 2251 1a2c 0FB67518 		movzbl	24(%rbp), %esi
 2252 1a30 4883FF09 		cmpq	$9, %rdi
 2253 1a34 4C8D4109 		leaq	9(%rcx), %r8
 2254 1a38 40887108 		movb	%sil, 8(%rcx)
 2255 1a3c 7466     		je	.L479
 2256 1a3e 0FB67518 		movzbl	24(%rbp), %esi
 2257 1a42 4883FF0A 		cmpq	$10, %rdi
 2258 1a46 4C8D410A 		leaq	10(%rcx), %r8
 2259 1a4a 40887109 		movb	%sil, 9(%rcx)
 2260 1a4e 7454     		je	.L479
 2261 1a50 0FB67518 		movzbl	24(%rbp), %esi
 2262 1a54 4883FF0B 		cmpq	$11, %rdi
 2263 1a58 4C8D410B 		leaq	11(%rcx), %r8
 2264 1a5c 4088710A 		movb	%sil, 10(%rcx)
 2265 1a60 7442     		je	.L479
 2266 1a62 0FB67518 		movzbl	24(%rbp), %esi
 2267 1a66 4883FF0C 		cmpq	$12, %rdi
 2268 1a6a 4C8D410C 		leaq	12(%rcx), %r8
 2269 1a6e 4088710B 		movb	%sil, 11(%rcx)
 2270 1a72 7430     		je	.L479
 2271 1a74 0FB67518 		movzbl	24(%rbp), %esi
 2272 1a78 4883FF0D 		cmpq	$13, %rdi
 2273 1a7c 4C8D410D 		leaq	13(%rcx), %r8
 2274 1a80 4088710C 		movb	%sil, 12(%rcx)
 2275 1a84 741E     		je	.L479
 2276 1a86 0FB67518 		movzbl	24(%rbp), %esi
 2277 1a8a 4883FF0F 		cmpq	$15, %rdi
 2278 1a8e 4C8D410E 		leaq	14(%rcx), %r8
 2279 1a92 4088710D 		movb	%sil, 13(%rcx)
 2280 1a96 750C     		jne	.L479
 2281 1a98 0FB67518 		movzbl	24(%rbp), %esi
 2282 1a9c 4C8D410F 		leaq	15(%rcx), %r8
 2283 1aa0 4088710E 		movb	%sil, 14(%rcx)
 2284              	.L479:
 2285 1aa4 4C89C1   		movq	%r8, %rcx
 2286              	.L478:
 2287 1aa7 4929F9   		subq	%rdi, %r9
 2288 1aaa 4929FA   		subq	%rdi, %r10
 2289 1aad 4D8D41F0 		leaq	-16(%r9), %r8
 2290 1ab1 49C1E804 		shrq	$4, %r8
 2291 1ab5 4983C001 		addq	$1, %r8
 2292 1ab9 4D89C3   		movq	%r8, %r11
 2293 1abc 49C1E304 		salq	$4, %r11
 2294 1ac0 4983FA0E 		cmpq	$14, %r10
 2295 1ac4 7640     		jbe	.L480
 2296 1ac6 0FB67518 		movzbl	24(%rbp), %esi
 2297 1aca 4C01E7   		addq	%r12, %rdi
 2298 1acd 4801F8   		addq	%rdi, %rax
 2299 1ad0 89742408 		movl	%esi, 8(%rsp)
 2300 1ad4 31F6     		xorl	%esi, %esi
 2301 1ad6 660F6E44 		movd	8(%rsp), %xmm0
 2301      2408
 2302 1adc 660F60C0 		punpcklbw	%xmm0, %xmm0
 2303 1ae0 660F61C0 		punpcklwd	%xmm0, %xmm0
 2304 1ae4 660F70C0 		pshufd	$0, %xmm0, %xmm0
 2304      00
 2305              	.L481:
 2306 1ae9 4883C601 		addq	$1, %rsi
 2307 1aed 4883C010 		addq	$16, %rax
 2308 1af1 0F2940F0 		movaps	%xmm0, -16(%rax)
 2309 1af5 4939F0   		cmpq	%rsi, %r8
 2310 1af8 77EF     		ja	.L481
 2311 1afa 4C01D9   		addq	%r11, %rcx
 2312 1afd 4D39D9   		cmpq	%r11, %r9
 2313 1b00 0F84FE00 		je	.L486
 2313      0000
 2314              	.L480:
 2315 1b06 0FB64518 		movzbl	24(%rbp), %eax
 2316 1b0a 8801     		movb	%al, (%rcx)
 2317 1b0c 488D4101 		leaq	1(%rcx), %rax
 2318 1b10 4839C3   		cmpq	%rax, %rbx
 2319 1b13 0F86EB00 		jbe	.L486
 2319      0000
 2320 1b19 0FB64518 		movzbl	24(%rbp), %eax
 2321 1b1d 884101   		movb	%al, 1(%rcx)
 2322 1b20 488D4102 		leaq	2(%rcx), %rax
 2323 1b24 4839C3   		cmpq	%rax, %rbx
 2324 1b27 0F86D700 		jbe	.L486
 2324      0000
 2325 1b2d 0FB64518 		movzbl	24(%rbp), %eax
 2326 1b31 884102   		movb	%al, 2(%rcx)
 2327 1b34 488D4103 		leaq	3(%rcx), %rax
 2328 1b38 4839C3   		cmpq	%rax, %rbx
 2329 1b3b 0F86C300 		jbe	.L486
 2329      0000
 2330 1b41 0FB64518 		movzbl	24(%rbp), %eax
 2331 1b45 884103   		movb	%al, 3(%rcx)
 2332 1b48 488D4104 		leaq	4(%rcx), %rax
 2333 1b4c 4839C3   		cmpq	%rax, %rbx
 2334 1b4f 0F86AF00 		jbe	.L486
 2334      0000
 2335 1b55 0FB64518 		movzbl	24(%rbp), %eax
 2336 1b59 884104   		movb	%al, 4(%rcx)
 2337 1b5c 488D4105 		leaq	5(%rcx), %rax
 2338 1b60 4839C3   		cmpq	%rax, %rbx
 2339 1b63 0F869B00 		jbe	.L486
 2339      0000
 2340 1b69 0FB64518 		movzbl	24(%rbp), %eax
 2341 1b6d 884105   		movb	%al, 5(%rcx)
 2342 1b70 488D4106 		leaq	6(%rcx), %rax
 2343 1b74 4839C3   		cmpq	%rax, %rbx
 2344 1b77 0F868700 		jbe	.L486
 2344      0000
 2345 1b7d 0FB64518 		movzbl	24(%rbp), %eax
 2346 1b81 884106   		movb	%al, 6(%rcx)
 2347 1b84 488D4107 		leaq	7(%rcx), %rax
 2348 1b88 4839C3   		cmpq	%rax, %rbx
 2349 1b8b 7677     		jbe	.L486
 2350 1b8d 0FB64518 		movzbl	24(%rbp), %eax
 2351 1b91 884107   		movb	%al, 7(%rcx)
 2352 1b94 488D4108 		leaq	8(%rcx), %rax
 2353 1b98 4839C3   		cmpq	%rax, %rbx
 2354 1b9b 7667     		jbe	.L486
 2355 1b9d 0FB64518 		movzbl	24(%rbp), %eax
 2356 1ba1 884108   		movb	%al, 8(%rcx)
 2357 1ba4 488D4109 		leaq	9(%rcx), %rax
 2358 1ba8 4839C3   		cmpq	%rax, %rbx
 2359 1bab 7657     		jbe	.L486
 2360 1bad 0FB64518 		movzbl	24(%rbp), %eax
 2361 1bb1 884109   		movb	%al, 9(%rcx)
 2362 1bb4 488D410A 		leaq	10(%rcx), %rax
 2363 1bb8 4839C3   		cmpq	%rax, %rbx
 2364 1bbb 7647     		jbe	.L486
 2365 1bbd 0FB64518 		movzbl	24(%rbp), %eax
 2366 1bc1 88410A   		movb	%al, 10(%rcx)
 2367 1bc4 488D410B 		leaq	11(%rcx), %rax
 2368 1bc8 4839C3   		cmpq	%rax, %rbx
 2369 1bcb 7637     		jbe	.L486
 2370 1bcd 0FB64518 		movzbl	24(%rbp), %eax
 2371 1bd1 88410B   		movb	%al, 11(%rcx)
 2372 1bd4 488D410C 		leaq	12(%rcx), %rax
 2373 1bd8 4839C3   		cmpq	%rax, %rbx
 2374 1bdb 7627     		jbe	.L486
 2375 1bdd 0FB64518 		movzbl	24(%rbp), %eax
 2376 1be1 88410C   		movb	%al, 12(%rcx)
 2377 1be4 488D410D 		leaq	13(%rcx), %rax
 2378 1be8 4839C3   		cmpq	%rax, %rbx
 2379 1beb 7617     		jbe	.L486
 2380 1bed 0FB64518 		movzbl	24(%rbp), %eax
 2381 1bf1 88410D   		movb	%al, 13(%rcx)
 2382 1bf4 488D410E 		leaq	14(%rcx), %rax
 2383 1bf8 4839C3   		cmpq	%rax, %rbx
 2384 1bfb 7607     		jbe	.L486
 2385 1bfd 0FB64518 		movzbl	24(%rbp), %eax
 2386 1c01 88410E   		movb	%al, 14(%rcx)
 2387              	.L486:
 2388 1c04 488B7D00 		movq	0(%rbp), %rdi
 2389 1c08 4C8B7508 		movq	8(%rbp), %r14
 2390 1c0c E9A7FCFF 		jmp	.L472
 2390      FF
 2391              		.p2align 4,,10
 2392 1c11 0F1F8000 		.p2align 3
 2392      000000
 2393              	.L544:
 2394 1c18 4883C601 		addq	$1, %rsi
 2395              	.L485:
 2396 1c1c 0FB64518 		movzbl	24(%rbp), %eax
 2397 1c20 4839F3   		cmpq	%rsi, %rbx
 2398 1c23 8846FF   		movb	%al, -1(%rsi)
 2399 1c26 75F0     		jne	.L544
 2400 1c28 EBDA     		jmp	.L486
 2401              	.L542:
 2402 1c2a 488D3500 		leaq	.LC7(%rip), %rsi
 2402      000000
 2403 1c31 4C89FF   		movq	%r15, %rdi
 2404 1c34 E8000000 		call	errPrefix@PLT
 2404      00
 2405 1c39 488D3500 		leaq	.LC18(%rip), %rsi
 2405      000000
 2406 1c40 4C89FF   		movq	%r15, %rdi
 2407 1c43 E8000000 		call	errPrefix@PLT
 2407      00
 2408 1c48 4883C418 		addq	$24, %rsp
 2409              		.cfi_remember_state
 2410              		.cfi_def_cfa_offset 56
 2411 1c4c B8010000 		movl	$1, %eax
 2411      00
 2412 1c51 5B       		popq	%rbx
 2413              		.cfi_def_cfa_offset 48
 2414 1c52 5D       		popq	%rbp
 2415              		.cfi_def_cfa_offset 40
 2416 1c53 415C     		popq	%r12
 2417              		.cfi_def_cfa_offset 32
 2418 1c55 415D     		popq	%r13
 2419              		.cfi_def_cfa_offset 24
 2420 1c57 415E     		popq	%r14
 2421              		.cfi_def_cfa_offset 16
 2422 1c59 415F     		popq	%r15
 2423              		.cfi_def_cfa_offset 8
 2424 1c5b C3       		ret
 2425              	.L543:
 2426              		.cfi_restore_state
 2427 1c5c 4C8B7508 		movq	8(%rbp), %r14
 2428 1c60 4889C7   		movq	%rax, %rdi
 2429 1c63 E950FCFF 		jmp	.L472
 2429      FF
 2430              		.cfi_endproc
 2431              	.LFE58:
 2433              		.section	.text.unlikely
 2434              	.LCOLDE19:
 2435              		.text
 2436              	.LHOTE19:
 2437              		.section	.rodata.str1.1
 2438              	.LC20:
 2439 0069 62756641 		.string	"bufAppendBlock()"
 2439      7070656E 
 2439      64426C6F 
 2439      636B2829 
 2439      00
 2440              		.section	.text.unlikely
 2441              	.LCOLDB21:
 2442              		.text
 2443              	.LHOTB21:
 2444 1c68 0F1F8400 		.p2align 4,,15
 2444      00000000 
 2445              		.globl	bufAppendBlock
 2447              	bufAppendBlock:
 2448              	.LFB59:
 2449              		.cfi_startproc
 2450 1c70 4157     		pushq	%r15
 2451              		.cfi_def_cfa_offset 16
 2452              		.cfi_offset 15, -16
 2453 1c72 4156     		pushq	%r14
 2454              		.cfi_def_cfa_offset 24
 2455              		.cfi_offset 14, -24
 2456 1c74 4155     		pushq	%r13
 2457              		.cfi_def_cfa_offset 32
 2458              		.cfi_offset 13, -32
 2459 1c76 4154     		pushq	%r12
 2460              		.cfi_def_cfa_offset 40
 2461              		.cfi_offset 12, -40
 2462 1c78 4989F5   		movq	%rsi, %r13
 2463 1c7b 55       		pushq	%rbp
 2464              		.cfi_def_cfa_offset 48
 2465              		.cfi_offset 6, -48
 2466 1c7c 53       		pushq	%rbx
 2467              		.cfi_def_cfa_offset 56
 2468              		.cfi_offset 3, -56
 2469 1c7d 4889FD   		movq	%rdi, %rbp
 2470 1c80 4883EC18 		subq	$24, %rsp
 2471              		.cfi_def_cfa_offset 80
 2472 1c84 4C8B7708 		movq	8(%rdi), %r14
 2473 1c88 488B5F10 		movq	16(%rdi), %rbx
 2474 1c8c 4D8D2416 		leaq	(%r14,%rdx), %r12
 2475 1c90 4939DC   		cmpq	%rbx, %r12
 2476 1c93 772B     		ja	.L614
 2477 1c95 488B3F   		movq	(%rdi), %rdi
 2478              	.L547:
 2479              	.L550:
 2480 1c98 4C01F7   		addq	%r14, %rdi
 2481 1c9b 4C89EE   		movq	%r13, %rsi
 2482 1c9e E8000000 		call	memcpy@PLT
 2482      00
 2483 1ca3 4C896508 		movq	%r12, 8(%rbp)
 2484 1ca7 4883C418 		addq	$24, %rsp
 2485              		.cfi_remember_state
 2486              		.cfi_def_cfa_offset 56
 2487 1cab 31C0     		xorl	%eax, %eax
 2488 1cad 5B       		popq	%rbx
 2489              		.cfi_def_cfa_offset 48
 2490 1cae 5D       		popq	%rbp
 2491              		.cfi_def_cfa_offset 40
 2492 1caf 415C     		popq	%r12
 2493              		.cfi_def_cfa_offset 32
 2494 1cb1 415D     		popq	%r13
 2495              		.cfi_def_cfa_offset 24
 2496 1cb3 415E     		popq	%r14
 2497              		.cfi_def_cfa_offset 16
 2498 1cb5 415F     		popq	%r15
 2499              		.cfi_def_cfa_offset 8
 2500 1cb7 C3       		ret
 2501 1cb8 0F1F8400 		.p2align 4,,10
 2501      00000000 
 2502              		.p2align 3
 2503              	.L614:
 2504              		.cfi_restore_state
 2505 1cc0 4989CF   		movq	%rcx, %r15
 2506              		.p2align 4,,10
 2507 1cc3 0F1F4400 		.p2align 3
 2507      00
 2508              	.L548:
 2509 1cc8 4801DB   		addq	%rbx, %rbx
 2510 1ccb 4939DC   		cmpq	%rbx, %r12
 2511 1cce 77F8     		ja	.L548
 2512 1cd0 488B7D00 		movq	0(%rbp), %rdi
 2513 1cd4 4889DE   		movq	%rbx, %rsi
 2514 1cd7 48895424 		movq	%rdx, 8(%rsp)
 2514      08
 2515 1cdc E8000000 		call	realloc@PLT
 2515      00
 2516 1ce1 4885C0   		testq	%rax, %rax
 2517 1ce4 488B5424 		movq	8(%rsp), %rdx
 2517      08
 2518 1ce9 0F842303 		je	.L617
 2518      0000
 2519 1cef 4A8D0C20 		leaq	(%rax,%r12), %rcx
 2520 1cf3 48895D10 		movq	%rbx, 16(%rbp)
 2521 1cf7 4801C3   		addq	%rax, %rbx
 2522 1cfa 48894500 		movq	%rax, 0(%rbp)
 2523 1cfe 4839D9   		cmpq	%rbx, %rcx
 2524 1d01 0F833D03 		jnb	.L618
 2524      0000
 2525 1d07 488D7101 		leaq	1(%rcx), %rsi
 2526 1d0b 4989DA   		movq	%rbx, %r10
 2527 1d0e 4D8D4416 		leaq	1(%r14,%rdx), %r8
 2527      01
 2528 1d13 4C8D5D18 		leaq	24(%rbp), %r11
 2529 1d17 4929F2   		subq	%rsi, %r10
 2530 1d1a 4889F7   		movq	%rsi, %rdi
 2531 1d1d 4D01D0   		addq	%r10, %r8
 2532 1d20 4D8D4A01 		leaq	1(%r10), %r9
 2533 1d24 4901C0   		addq	%rax, %r8
 2534 1d27 4D39C3   		cmpq	%r8, %r11
 2535 1d2a 4C8D4519 		leaq	25(%rbp), %r8
 2536 1d2e 410F93C3 		setnb	%r11b
 2537 1d32 4C39C1   		cmpq	%r8, %rcx
 2538 1d35 410F93C0 		setnb	%r8b
 2539 1d39 4508C3   		orb	%r8b, %r11b
 2540 1d3c 0F84C202 		je	.L560
 2540      0000
 2541 1d42 4983F916 		cmpq	$22, %r9
 2542 1d46 0F86B802 		jbe	.L560
 2542      0000
 2543 1d4c 4889CE   		movq	%rcx, %rsi
 2544 1d4f 48F7DE   		negq	%rsi
 2545 1d52 83E60F   		andl	$15, %esi
 2546 1d55 4C39CE   		cmpq	%r9, %rsi
 2547 1d58 490F47F1 		cmova	%r9, %rsi
 2548 1d5c 4885F6   		testq	%rsi, %rsi
 2549 1d5f 0F843101 		je	.L553
 2549      0000
 2550 1d65 440FB645 		movzbl	24(%rbp), %r8d
 2550      18
 2551 1d6a 4883FE01 		cmpq	$1, %rsi
 2552 1d6e 448801   		movb	%r8b, (%rcx)
 2553 1d71 0F841C01 		je	.L554
 2553      0000
 2554 1d77 440FB645 		movzbl	24(%rbp), %r8d
 2554      18
 2555 1d7c 4883FE02 		cmpq	$2, %rsi
 2556 1d80 488D7902 		leaq	2(%rcx), %rdi
 2557 1d84 44884101 		movb	%r8b, 1(%rcx)
 2558 1d88 0F840501 		je	.L554
 2558      0000
 2559 1d8e 440FB645 		movzbl	24(%rbp), %r8d
 2559      18
 2560 1d93 4883FE03 		cmpq	$3, %rsi
 2561 1d97 488D7903 		leaq	3(%rcx), %rdi
 2562 1d9b 44884102 		movb	%r8b, 2(%rcx)
 2563 1d9f 0F84EE00 		je	.L554
 2563      0000
 2564 1da5 440FB645 		movzbl	24(%rbp), %r8d
 2564      18
 2565 1daa 4883FE04 		cmpq	$4, %rsi
 2566 1dae 488D7904 		leaq	4(%rcx), %rdi
 2567 1db2 44884103 		movb	%r8b, 3(%rcx)
 2568 1db6 0F84D700 		je	.L554
 2568      0000
 2569 1dbc 440FB645 		movzbl	24(%rbp), %r8d
 2569      18
 2570 1dc1 4883FE05 		cmpq	$5, %rsi
 2571 1dc5 488D7905 		leaq	5(%rcx), %rdi
 2572 1dc9 44884104 		movb	%r8b, 4(%rcx)
 2573 1dcd 0F84C000 		je	.L554
 2573      0000
 2574 1dd3 440FB645 		movzbl	24(%rbp), %r8d
 2574      18
 2575 1dd8 4883FE06 		cmpq	$6, %rsi
 2576 1ddc 488D7906 		leaq	6(%rcx), %rdi
 2577 1de0 44884105 		movb	%r8b, 5(%rcx)
 2578 1de4 0F84A900 		je	.L554
 2578      0000
 2579 1dea 440FB645 		movzbl	24(%rbp), %r8d
 2579      18
 2580 1def 4883FE07 		cmpq	$7, %rsi
 2581 1df3 488D7907 		leaq	7(%rcx), %rdi
 2582 1df7 44884106 		movb	%r8b, 6(%rcx)
 2583 1dfb 0F849200 		je	.L554
 2583      0000
 2584 1e01 440FB645 		movzbl	24(%rbp), %r8d
 2584      18
 2585 1e06 4883FE08 		cmpq	$8, %rsi
 2586 1e0a 488D7908 		leaq	8(%rcx), %rdi
 2587 1e0e 44884107 		movb	%r8b, 7(%rcx)
 2588 1e12 747F     		je	.L554
 2589 1e14 440FB645 		movzbl	24(%rbp), %r8d
 2589      18
 2590 1e19 4883FE09 		cmpq	$9, %rsi
 2591 1e1d 488D7909 		leaq	9(%rcx), %rdi
 2592 1e21 44884108 		movb	%r8b, 8(%rcx)
 2593 1e25 746C     		je	.L554
 2594 1e27 440FB645 		movzbl	24(%rbp), %r8d
 2594      18
 2595 1e2c 4883FE0A 		cmpq	$10, %rsi
 2596 1e30 488D790A 		leaq	10(%rcx), %rdi
 2597 1e34 44884109 		movb	%r8b, 9(%rcx)
 2598 1e38 7459     		je	.L554
 2599 1e3a 440FB645 		movzbl	24(%rbp), %r8d
 2599      18
 2600 1e3f 4883FE0B 		cmpq	$11, %rsi
 2601 1e43 488D790B 		leaq	11(%rcx), %rdi
 2602 1e47 4488410A 		movb	%r8b, 10(%rcx)
 2603 1e4b 7446     		je	.L554
 2604 1e4d 440FB645 		movzbl	24(%rbp), %r8d
 2604      18
 2605 1e52 4883FE0C 		cmpq	$12, %rsi
 2606 1e56 488D790C 		leaq	12(%rcx), %rdi
 2607 1e5a 4488410B 		movb	%r8b, 11(%rcx)
 2608 1e5e 7433     		je	.L554
 2609 1e60 440FB645 		movzbl	24(%rbp), %r8d
 2609      18
 2610 1e65 4883FE0D 		cmpq	$13, %rsi
 2611 1e69 488D790D 		leaq	13(%rcx), %rdi
 2612 1e6d 4488410C 		movb	%r8b, 12(%rcx)
 2613 1e71 7420     		je	.L554
 2614 1e73 440FB645 		movzbl	24(%rbp), %r8d
 2614      18
 2615 1e78 4883FE0F 		cmpq	$15, %rsi
 2616 1e7c 488D790E 		leaq	14(%rcx), %rdi
 2617 1e80 4488410D 		movb	%r8b, 13(%rcx)
 2618 1e84 750D     		jne	.L554
 2619 1e86 440FB645 		movzbl	24(%rbp), %r8d
 2619      18
 2620 1e8b 488D790F 		leaq	15(%rcx), %rdi
 2621 1e8f 4488410E 		movb	%r8b, 14(%rcx)
 2622              	.L554:
 2623 1e93 4889F9   		movq	%rdi, %rcx
 2624              	.L553:
 2625 1e96 4929F1   		subq	%rsi, %r9
 2626 1e99 4929F2   		subq	%rsi, %r10
 2627 1e9c 4D8D41F0 		leaq	-16(%r9), %r8
 2628 1ea0 49C1E804 		shrq	$4, %r8
 2629 1ea4 4983C001 		addq	$1, %r8
 2630 1ea8 4D89C3   		movq	%r8, %r11
 2631 1eab 49C1E304 		salq	$4, %r11
 2632 1eaf 4983FA0E 		cmpq	$14, %r10
 2633 1eb3 7640     		jbe	.L555
 2634 1eb5 0FB67D18 		movzbl	24(%rbp), %edi
 2635 1eb9 4C01E6   		addq	%r12, %rsi
 2636 1ebc 4801F0   		addq	%rsi, %rax
 2637 1ebf 31F6     		xorl	%esi, %esi
 2638 1ec1 897C2408 		movl	%edi, 8(%rsp)
 2639 1ec5 660F6E44 		movd	8(%rsp), %xmm0
 2639      2408
 2640 1ecb 660F60C0 		punpcklbw	%xmm0, %xmm0
 2641 1ecf 660F61C0 		punpcklwd	%xmm0, %xmm0
 2642 1ed3 660F70C0 		pshufd	$0, %xmm0, %xmm0
 2642      00
 2643              	.L556:
 2644 1ed8 4883C601 		addq	$1, %rsi
 2645 1edc 4883C010 		addq	$16, %rax
 2646 1ee0 0F2940F0 		movaps	%xmm0, -16(%rax)
 2647 1ee4 4939F0   		cmpq	%rsi, %r8
 2648 1ee7 77EF     		ja	.L556
 2649 1ee9 4C01D9   		addq	%r11, %rcx
 2650 1eec 4D39D9   		cmpq	%r11, %r9
 2651 1eef 0F84FE00 		je	.L561
 2651      0000
 2652              	.L555:
 2653 1ef5 0FB64518 		movzbl	24(%rbp), %eax
 2654 1ef9 8801     		movb	%al, (%rcx)
 2655 1efb 488D4101 		leaq	1(%rcx), %rax
 2656 1eff 4839C3   		cmpq	%rax, %rbx
 2657 1f02 0F86EB00 		jbe	.L561
 2657      0000
 2658 1f08 0FB64518 		movzbl	24(%rbp), %eax
 2659 1f0c 884101   		movb	%al, 1(%rcx)
 2660 1f0f 488D4102 		leaq	2(%rcx), %rax
 2661 1f13 4839C3   		cmpq	%rax, %rbx
 2662 1f16 0F86D700 		jbe	.L561
 2662      0000
 2663 1f1c 0FB64518 		movzbl	24(%rbp), %eax
 2664 1f20 884102   		movb	%al, 2(%rcx)
 2665 1f23 488D4103 		leaq	3(%rcx), %rax
 2666 1f27 4839C3   		cmpq	%rax, %rbx
 2667 1f2a 0F86C300 		jbe	.L561
 2667      0000
 2668 1f30 0FB64518 		movzbl	24(%rbp), %eax
 2669 1f34 884103   		movb	%al, 3(%rcx)
 2670 1f37 488D4104 		leaq	4(%rcx), %rax
 2671 1f3b 4839C3   		cmpq	%rax, %rbx
 2672 1f3e 0F86AF00 		jbe	.L561
 2672      0000
 2673 1f44 0FB64518 		movzbl	24(%rbp), %eax
 2674 1f48 884104   		movb	%al, 4(%rcx)
 2675 1f4b 488D4105 		leaq	5(%rcx), %rax
 2676 1f4f 4839C3   		cmpq	%rax, %rbx
 2677 1f52 0F869B00 		jbe	.L561
 2677      0000
 2678 1f58 0FB64518 		movzbl	24(%rbp), %eax
 2679 1f5c 884105   		movb	%al, 5(%rcx)
 2680 1f5f 488D4106 		leaq	6(%rcx), %rax
 2681 1f63 4839C3   		cmpq	%rax, %rbx
 2682 1f66 0F868700 		jbe	.L561
 2682      0000
 2683 1f6c 0FB64518 		movzbl	24(%rbp), %eax
 2684 1f70 884106   		movb	%al, 6(%rcx)
 2685 1f73 488D4107 		leaq	7(%rcx), %rax
 2686 1f77 4839C3   		cmpq	%rax, %rbx
 2687 1f7a 7677     		jbe	.L561
 2688 1f7c 0FB64518 		movzbl	24(%rbp), %eax
 2689 1f80 884107   		movb	%al, 7(%rcx)
 2690 1f83 488D4108 		leaq	8(%rcx), %rax
 2691 1f87 4839C3   		cmpq	%rax, %rbx
 2692 1f8a 7667     		jbe	.L561
 2693 1f8c 0FB64518 		movzbl	24(%rbp), %eax
 2694 1f90 884108   		movb	%al, 8(%rcx)
 2695 1f93 488D4109 		leaq	9(%rcx), %rax
 2696 1f97 4839C3   		cmpq	%rax, %rbx
 2697 1f9a 7657     		jbe	.L561
 2698 1f9c 0FB64518 		movzbl	24(%rbp), %eax
 2699 1fa0 884109   		movb	%al, 9(%rcx)
 2700 1fa3 488D410A 		leaq	10(%rcx), %rax
 2701 1fa7 4839C3   		cmpq	%rax, %rbx
 2702 1faa 7647     		jbe	.L561
 2703 1fac 0FB64518 		movzbl	24(%rbp), %eax
 2704 1fb0 88410A   		movb	%al, 10(%rcx)
 2705 1fb3 488D410B 		leaq	11(%rcx), %rax
 2706 1fb7 4839C3   		cmpq	%rax, %rbx
 2707 1fba 7637     		jbe	.L561
 2708 1fbc 0FB64518 		movzbl	24(%rbp), %eax
 2709 1fc0 88410B   		movb	%al, 11(%rcx)
 2710 1fc3 488D410C 		leaq	12(%rcx), %rax
 2711 1fc7 4839C3   		cmpq	%rax, %rbx
 2712 1fca 7627     		jbe	.L561
 2713 1fcc 0FB64518 		movzbl	24(%rbp), %eax
 2714 1fd0 88410C   		movb	%al, 12(%rcx)
 2715 1fd3 488D410D 		leaq	13(%rcx), %rax
 2716 1fd7 4839C3   		cmpq	%rax, %rbx
 2717 1fda 7617     		jbe	.L561
 2718 1fdc 0FB64518 		movzbl	24(%rbp), %eax
 2719 1fe0 88410D   		movb	%al, 13(%rcx)
 2720 1fe3 488D410E 		leaq	14(%rcx), %rax
 2721 1fe7 4839C3   		cmpq	%rax, %rbx
 2722 1fea 7607     		jbe	.L561
 2723 1fec 0FB64518 		movzbl	24(%rbp), %eax
 2724 1ff0 88410E   		movb	%al, 14(%rcx)
 2725              	.L561:
 2726 1ff3 488B7D00 		movq	0(%rbp), %rdi
 2727 1ff7 4C8B7508 		movq	8(%rbp), %r14
 2728 1ffb E998FCFF 		jmp	.L547
 2728      FF
 2729              		.p2align 4,,10
 2730              		.p2align 3
 2731              	.L619:
 2732 2000 4883C601 		addq	$1, %rsi
 2733              	.L560:
 2734 2004 0FB64518 		movzbl	24(%rbp), %eax
 2735 2008 4839F3   		cmpq	%rsi, %rbx
 2736 200b 8846FF   		movb	%al, -1(%rsi)
 2737 200e 75F0     		jne	.L619
 2738 2010 EBE1     		jmp	.L561
 2739              	.L617:
 2740 2012 488D3500 		leaq	.LC7(%rip), %rsi
 2740      000000
 2741 2019 4C89FF   		movq	%r15, %rdi
 2742 201c E8000000 		call	errPrefix@PLT
 2742      00
 2743 2021 488D3500 		leaq	.LC20(%rip), %rsi
 2743      000000
 2744 2028 4C89FF   		movq	%r15, %rdi
 2745 202b E8000000 		call	errPrefix@PLT
 2745      00
 2746 2030 4883C418 		addq	$24, %rsp
 2747              		.cfi_remember_state
 2748              		.cfi_def_cfa_offset 56
 2749 2034 B8010000 		movl	$1, %eax
 2749      00
 2750 2039 5B       		popq	%rbx
 2751              		.cfi_def_cfa_offset 48
 2752 203a 5D       		popq	%rbp
 2753              		.cfi_def_cfa_offset 40
 2754 203b 415C     		popq	%r12
 2755              		.cfi_def_cfa_offset 32
 2756 203d 415D     		popq	%r13
 2757              		.cfi_def_cfa_offset 24
 2758 203f 415E     		popq	%r14
 2759              		.cfi_def_cfa_offset 16
 2760 2041 415F     		popq	%r15
 2761              		.cfi_def_cfa_offset 8
 2762 2043 C3       		ret
 2763              	.L618:
 2764              		.cfi_restore_state
 2765 2044 4C8B7508 		movq	8(%rbp), %r14
 2766 2048 4889C7   		movq	%rax, %rdi
 2767 204b E948FCFF 		jmp	.L547
 2767      FF
 2768              		.cfi_endproc
 2769              	.LFE59:
 2771              		.section	.text.unlikely
 2772              	.LCOLDE21:
 2773              		.text
 2774              	.LHOTE21:
 2775              		.section	.rodata.str1.1
 2776              	.LC22:
 2777 007a 6D617962 		.string	"maybeReallocate()"
 2777      65526561 
 2777      6C6C6F63 
 2777      61746528 
 2777      2900
 2778              	.LC23:
 2779 008c 62756657 		.string	"bufWriteByte()"
 2779      72697465 
 2779      42797465 
 2779      282900
 2780              		.section	.text.unlikely
 2781              	.LCOLDB24:
 2782              		.text
 2783              	.LHOTB24:
 2784              		.p2align 4,,15
 2785              		.globl	bufWriteByte
 2787              	bufWriteByte:
 2788              	.LFB61:
 2789              		.cfi_startproc
 2790 2050 4156     		pushq	%r14
 2791              		.cfi_def_cfa_offset 16
 2792              		.cfi_offset 14, -16
 2793 2052 4155     		pushq	%r13
 2794              		.cfi_def_cfa_offset 24
 2795              		.cfi_offset 13, -24
 2796 2054 4989CE   		movq	%rcx, %r14
 2797 2057 4154     		pushq	%r12
 2798              		.cfi_def_cfa_offset 32
 2799              		.cfi_offset 12, -32
 2800 2059 55       		pushq	%rbp
 2801              		.cfi_def_cfa_offset 40
 2802              		.cfi_offset 6, -40
 2803 205a 4989F4   		movq	%rsi, %r12
 2804 205d 53       		pushq	%rbx
 2805              		.cfi_def_cfa_offset 48
 2806              		.cfi_offset 3, -48
 2807 205e 4C8D6E01 		leaq	1(%rsi), %r13
 2808 2062 4889FB   		movq	%rdi, %rbx
 2809 2065 4883EC10 		subq	$16, %rsp
 2810              		.cfi_def_cfa_offset 64
 2811 2069 4C8B5708 		movq	8(%rdi), %r10
 2812 206d 4C39D6   		cmpq	%r10, %rsi
 2813 2070 732E     		jnb	.L827
 2814 2072 4D39D5   		cmpq	%r10, %r13
 2815 2075 0F86150A 		jbe	.L650
 2815      0000
 2816 207b 488B6F10 		movq	16(%rdi), %rbp
 2817 207f 4939ED   		cmpq	%rbp, %r13
 2818 2082 0F879806 		ja	.L653
 2818      0000
 2819              	.L664:
 2820 2088 488B33   		movq	(%rbx), %rsi
 2821              	.L652:
 2822 208b 4C896B08 		movq	%r13, 8(%rbx)
 2823 208f 4C01E6   		addq	%r12, %rsi
 2824 2092 E91D0300 		jmp	.L649
 2824      00
 2825 2097 660F1F84 		.p2align 4,,10
 2825      00000000 
 2825      00
 2826              		.p2align 3
 2827              	.L827:
 2828 20a0 488B6F10 		movq	16(%rdi), %rbp
 2829 20a4 4939ED   		cmpq	%rbp, %r13
 2830 20a7 0F871B03 		ja	.L624
 2830      0000
 2831 20ad 488B07   		movq	(%rdi), %rax
 2832              	.L623:
 2833 20b0 4A8D3410 		leaq	(%rax,%r10), %rsi
 2834 20b4 4E8D0420 		leaq	(%rax,%r12), %r8
 2835 20b8 4C39C6   		cmpq	%r8, %rsi
 2836 20bb 0F834F0A 		jnb	.L666
 2836      0000
 2837 20c1 4C8D4E01 		leaq	1(%rsi), %r9
 2838 20c5 4D89C6   		movq	%r8, %r14
 2839 20c8 488D6B18 		leaq	24(%rbx), %rbp
 2840 20cc 4D29CE   		subq	%r9, %r14
 2841 20cf 4C89C9   		movq	%r9, %rcx
 2842 20d2 4B8D7C32 		leaq	1(%r10,%r14), %rdi
 2842      01
 2843 20d7 4D8D5E01 		leaq	1(%r14), %r11
 2844 20db 4801C7   		addq	%rax, %rdi
 2845 20de 4839FD   		cmpq	%rdi, %rbp
 2846 20e1 488D7B19 		leaq	25(%rbx), %rdi
 2847 20e5 400F93C5 		setnb	%bpl
 2848 20e9 4839FE   		cmpq	%rdi, %rsi
 2849 20ec 400F93C7 		setnb	%dil
 2850 20f0 4008FD   		orb	%dil, %bpl
 2851 20f3 0F840B06 		je	.L647
 2851      0000
 2852 20f9 4983FB16 		cmpq	$22, %r11
 2853 20fd 0F860106 		jbe	.L647
 2853      0000
 2854 2103 4889F7   		movq	%rsi, %rdi
 2855 2106 48F7DF   		negq	%rdi
 2856 2109 83E70F   		andl	$15, %edi
 2857 210c 4C39DF   		cmpq	%r11, %rdi
 2858 210f 490F47FB 		cmova	%r11, %rdi
 2859 2113 4885FF   		testq	%rdi, %rdi
 2860 2116 0F84C409 		je	.L667
 2860      0000
 2861 211c 440FB64B 		movzbl	24(%rbx), %r9d
 2861      18
 2862 2121 4883FF01 		cmpq	$1, %rdi
 2863 2125 44880E   		movb	%r9b, (%rsi)
 2864 2128 0F841C01 		je	.L640
 2864      0000
 2865 212e 440FB64B 		movzbl	24(%rbx), %r9d
 2865      18
 2866 2133 4883FF02 		cmpq	$2, %rdi
 2867 2137 488D4E02 		leaq	2(%rsi), %rcx
 2868 213b 44884E01 		movb	%r9b, 1(%rsi)
 2869 213f 0F840501 		je	.L640
 2869      0000
 2870 2145 440FB64B 		movzbl	24(%rbx), %r9d
 2870      18
 2871 214a 4883FF03 		cmpq	$3, %rdi
 2872 214e 488D4E03 		leaq	3(%rsi), %rcx
 2873 2152 44884E02 		movb	%r9b, 2(%rsi)
 2874 2156 0F84EE00 		je	.L640
 2874      0000
 2875 215c 440FB64B 		movzbl	24(%rbx), %r9d
 2875      18
 2876 2161 4883FF04 		cmpq	$4, %rdi
 2877 2165 488D4E04 		leaq	4(%rsi), %rcx
 2878 2169 44884E03 		movb	%r9b, 3(%rsi)
 2879 216d 0F84D700 		je	.L640
 2879      0000
 2880 2173 440FB64B 		movzbl	24(%rbx), %r9d
 2880      18
 2881 2178 4883FF05 		cmpq	$5, %rdi
 2882 217c 488D4E05 		leaq	5(%rsi), %rcx
 2883 2180 44884E04 		movb	%r9b, 4(%rsi)
 2884 2184 0F84C000 		je	.L640
 2884      0000
 2885 218a 440FB64B 		movzbl	24(%rbx), %r9d
 2885      18
 2886 218f 4883FF06 		cmpq	$6, %rdi
 2887 2193 488D4E06 		leaq	6(%rsi), %rcx
 2888 2197 44884E05 		movb	%r9b, 5(%rsi)
 2889 219b 0F84A900 		je	.L640
 2889      0000
 2890 21a1 440FB64B 		movzbl	24(%rbx), %r9d
 2890      18
 2891 21a6 4883FF07 		cmpq	$7, %rdi
 2892 21aa 488D4E07 		leaq	7(%rsi), %rcx
 2893 21ae 44884E06 		movb	%r9b, 6(%rsi)
 2894 21b2 0F849200 		je	.L640
 2894      0000
 2895 21b8 440FB64B 		movzbl	24(%rbx), %r9d
 2895      18
 2896 21bd 4883FF08 		cmpq	$8, %rdi
 2897 21c1 488D4E08 		leaq	8(%rsi), %rcx
 2898 21c5 44884E07 		movb	%r9b, 7(%rsi)
 2899 21c9 747F     		je	.L640
 2900 21cb 440FB64B 		movzbl	24(%rbx), %r9d
 2900      18
 2901 21d0 4883FF09 		cmpq	$9, %rdi
 2902 21d4 488D4E09 		leaq	9(%rsi), %rcx
 2903 21d8 44884E08 		movb	%r9b, 8(%rsi)
 2904 21dc 746C     		je	.L640
 2905 21de 440FB64B 		movzbl	24(%rbx), %r9d
 2905      18
 2906 21e3 4883FF0A 		cmpq	$10, %rdi
 2907 21e7 488D4E0A 		leaq	10(%rsi), %rcx
 2908 21eb 44884E09 		movb	%r9b, 9(%rsi)
 2909 21ef 7459     		je	.L640
 2910 21f1 440FB64B 		movzbl	24(%rbx), %r9d
 2910      18
 2911 21f6 4883FF0B 		cmpq	$11, %rdi
 2912 21fa 488D4E0B 		leaq	11(%rsi), %rcx
 2913 21fe 44884E0A 		movb	%r9b, 10(%rsi)
 2914 2202 7446     		je	.L640
 2915 2204 440FB64B 		movzbl	24(%rbx), %r9d
 2915      18
 2916 2209 4883FF0C 		cmpq	$12, %rdi
 2917 220d 488D4E0C 		leaq	12(%rsi), %rcx
 2918 2211 44884E0B 		movb	%r9b, 11(%rsi)
 2919 2215 7433     		je	.L640
 2920 2217 440FB64B 		movzbl	24(%rbx), %r9d
 2920      18
 2921 221c 4883FF0D 		cmpq	$13, %rdi
 2922 2220 488D4E0D 		leaq	13(%rsi), %rcx
 2923 2224 44884E0C 		movb	%r9b, 12(%rsi)
 2924 2228 7420     		je	.L640
 2925 222a 440FB64B 		movzbl	24(%rbx), %r9d
 2925      18
 2926 222f 4883FF0F 		cmpq	$15, %rdi
 2927 2233 488D4E0E 		leaq	14(%rsi), %rcx
 2928 2237 44884E0D 		movb	%r9b, 13(%rsi)
 2929 223b 750D     		jne	.L640
 2930 223d 440FB64B 		movzbl	24(%rbx), %r9d
 2930      18
 2931 2242 488D4E0F 		leaq	15(%rsi), %rcx
 2932 2246 44884E0E 		movb	%r9b, 14(%rsi)
 2933              	.L640:
 2934 224a 4929FB   		subq	%rdi, %r11
 2935 224d 4929FE   		subq	%rdi, %r14
 2936 2250 4D89D9   		movq	%r11, %r9
 2937 2253 4D8D5BF0 		leaq	-16(%r11), %r11
 2938 2257 49C1EB04 		shrq	$4, %r11
 2939 225b 4983C301 		addq	$1, %r11
 2940 225f 4C89DD   		movq	%r11, %rbp
 2941 2262 48C1E504 		salq	$4, %rbp
 2942 2266 4983FE0E 		cmpq	$14, %r14
 2943 226a 7640     		jbe	.L642
 2944 226c 0FB67318 		movzbl	24(%rbx), %esi
 2945 2270 4C01D7   		addq	%r10, %rdi
 2946 2273 4801C7   		addq	%rax, %rdi
 2947 2276 31C0     		xorl	%eax, %eax
 2948 2278 8974240C 		movl	%esi, 12(%rsp)
 2949 227c 660F6E44 		movd	12(%rsp), %xmm0
 2949      240C
 2950 2282 660F60C0 		punpcklbw	%xmm0, %xmm0
 2951 2286 660F61C0 		punpcklwd	%xmm0, %xmm0
 2952 228a 660F70C0 		pshufd	$0, %xmm0, %xmm0
 2952      00
 2953              	.L643:
 2954 228f 4883C001 		addq	$1, %rax
 2955 2293 4883C710 		addq	$16, %rdi
 2956 2297 0F2947F0 		movaps	%xmm0, -16(%rdi)
 2957 229b 4939C3   		cmpq	%rax, %r11
 2958 229e 77EF     		ja	.L643
 2959 22a0 4801E9   		addq	%rbp, %rcx
 2960 22a3 4939E9   		cmpq	%rbp, %r9
 2961 22a6 0F84FE00 		je	.L648
 2961      0000
 2962              	.L642:
 2963 22ac 0FB64318 		movzbl	24(%rbx), %eax
 2964 22b0 8801     		movb	%al, (%rcx)
 2965 22b2 488D4101 		leaq	1(%rcx), %rax
 2966 22b6 4939C0   		cmpq	%rax, %r8
 2967 22b9 0F86EB00 		jbe	.L648
 2967      0000
 2968 22bf 0FB64318 		movzbl	24(%rbx), %eax
 2969 22c3 884101   		movb	%al, 1(%rcx)
 2970 22c6 488D4102 		leaq	2(%rcx), %rax
 2971 22ca 4939C0   		cmpq	%rax, %r8
 2972 22cd 0F86D700 		jbe	.L648
 2972      0000
 2973 22d3 0FB64318 		movzbl	24(%rbx), %eax
 2974 22d7 884102   		movb	%al, 2(%rcx)
 2975 22da 488D4103 		leaq	3(%rcx), %rax
 2976 22de 4939C0   		cmpq	%rax, %r8
 2977 22e1 0F86C300 		jbe	.L648
 2977      0000
 2978 22e7 0FB64318 		movzbl	24(%rbx), %eax
 2979 22eb 884103   		movb	%al, 3(%rcx)
 2980 22ee 488D4104 		leaq	4(%rcx), %rax
 2981 22f2 4939C0   		cmpq	%rax, %r8
 2982 22f5 0F86AF00 		jbe	.L648
 2982      0000
 2983 22fb 0FB64318 		movzbl	24(%rbx), %eax
 2984 22ff 884104   		movb	%al, 4(%rcx)
 2985 2302 488D4105 		leaq	5(%rcx), %rax
 2986 2306 4939C0   		cmpq	%rax, %r8
 2987 2309 0F869B00 		jbe	.L648
 2987      0000
 2988 230f 0FB64318 		movzbl	24(%rbx), %eax
 2989 2313 884105   		movb	%al, 5(%rcx)
 2990 2316 488D4106 		leaq	6(%rcx), %rax
 2991 231a 4939C0   		cmpq	%rax, %r8
 2992 231d 0F868700 		jbe	.L648
 2992      0000
 2993 2323 0FB64318 		movzbl	24(%rbx), %eax
 2994 2327 884106   		movb	%al, 6(%rcx)
 2995 232a 488D4107 		leaq	7(%rcx), %rax
 2996 232e 4939C0   		cmpq	%rax, %r8
 2997 2331 7677     		jbe	.L648
 2998 2333 0FB64318 		movzbl	24(%rbx), %eax
 2999 2337 884107   		movb	%al, 7(%rcx)
 3000 233a 488D4108 		leaq	8(%rcx), %rax
 3001 233e 4939C0   		cmpq	%rax, %r8
 3002 2341 7667     		jbe	.L648
 3003 2343 0FB64318 		movzbl	24(%rbx), %eax
 3004 2347 884108   		movb	%al, 8(%rcx)
 3005 234a 488D4109 		leaq	9(%rcx), %rax
 3006 234e 4939C0   		cmpq	%rax, %r8
 3007 2351 7657     		jbe	.L648
 3008 2353 0FB64318 		movzbl	24(%rbx), %eax
 3009 2357 884109   		movb	%al, 9(%rcx)
 3010 235a 488D410A 		leaq	10(%rcx), %rax
 3011 235e 4939C0   		cmpq	%rax, %r8
 3012 2361 7647     		jbe	.L648
 3013 2363 0FB64318 		movzbl	24(%rbx), %eax
 3014 2367 88410A   		movb	%al, 10(%rcx)
 3015 236a 488D410B 		leaq	11(%rcx), %rax
 3016 236e 4939C0   		cmpq	%rax, %r8
 3017 2371 7637     		jbe	.L648
 3018 2373 0FB64318 		movzbl	24(%rbx), %eax
 3019 2377 88410B   		movb	%al, 11(%rcx)
 3020 237a 488D410C 		leaq	12(%rcx), %rax
 3021 237e 4939C0   		cmpq	%rax, %r8
 3022 2381 7627     		jbe	.L648
 3023 2383 0FB64318 		movzbl	24(%rbx), %eax
 3024 2387 88410C   		movb	%al, 12(%rcx)
 3025 238a 488D410D 		leaq	13(%rcx), %rax
 3026 238e 4939C0   		cmpq	%rax, %r8
 3027 2391 7617     		jbe	.L648
 3028 2393 0FB64318 		movzbl	24(%rbx), %eax
 3029 2397 88410D   		movb	%al, 13(%rcx)
 3030 239a 488D410E 		leaq	14(%rcx), %rax
 3031 239e 4939C0   		cmpq	%rax, %r8
 3032 23a1 7607     		jbe	.L648
 3033 23a3 0FB64318 		movzbl	24(%rbx), %eax
 3034 23a7 88410E   		movb	%al, 14(%rcx)
 3035              	.L648:
 3036 23aa 4C89E6   		movq	%r12, %rsi
 3037 23ad 480333   		addq	(%rbx), %rsi
 3038              	.L638:
 3039 23b0 4C896B08 		movq	%r13, 8(%rbx)
 3040              	.L649:
 3041              	.L626:
 3042 23b4 8816     		movb	%dl, (%rsi)
 3043 23b6 4883C410 		addq	$16, %rsp
 3044              		.cfi_remember_state
 3045              		.cfi_def_cfa_offset 48
 3046 23ba 31C0     		xorl	%eax, %eax
 3047 23bc 5B       		popq	%rbx
 3048              		.cfi_def_cfa_offset 40
 3049 23bd 5D       		popq	%rbp
 3050              		.cfi_def_cfa_offset 32
 3051 23be 415C     		popq	%r12
 3052              		.cfi_def_cfa_offset 24
 3053 23c0 415D     		popq	%r13
 3054              		.cfi_def_cfa_offset 16
 3055 23c2 415E     		popq	%r14
 3056              		.cfi_def_cfa_offset 8
 3057 23c4 C3       		ret
 3058              		.p2align 4,,10
 3059 23c5 0F1F00   		.p2align 3
 3060              	.L624:
 3061              		.cfi_restore_state
 3062 23c8 4801ED   		addq	%rbp, %rbp
 3063 23cb 4939ED   		cmpq	%rbp, %r13
 3064 23ce 77F8     		ja	.L624
 3065 23d0 488B3B   		movq	(%rbx), %rdi
 3066 23d3 4889EE   		movq	%rbp, %rsi
 3067 23d6 8954240C 		movl	%edx, 12(%rsp)
 3068 23da E8000000 		call	realloc@PLT
 3068      00
 3069 23df 4885C0   		testq	%rax, %rax
 3070 23e2 8B54240C 		movl	12(%rsp), %edx
 3071 23e6 0F84AC06 		je	.L654
 3071      0000
 3072 23ec 4A8D3428 		leaq	(%rax,%r13), %rsi
 3073 23f0 48896B10 		movq	%rbp, 16(%rbx)
 3074 23f4 4801C5   		addq	%rax, %rbp
 3075 23f7 488903   		movq	%rax, (%rbx)
 3076 23fa 4839EE   		cmpq	%rbp, %rsi
 3077 23fd 0F83ED02 		jnb	.L823
 3077      0000
 3078 2403 4C8D4601 		leaq	1(%rsi), %r8
 3079 2407 4889EF   		movq	%rbp, %rdi
 3080 240a 4C8D5B18 		leaq	24(%rbx), %r11
 3081 240e 4C29C7   		subq	%r8, %rdi
 3082 2411 4C89C1   		movq	%r8, %rcx
 3083 2414 4E8D5427 		leaq	2(%rdi,%r12), %r10
 3083      02
 3084 2419 4C8D4F01 		leaq	1(%rdi), %r9
 3085 241d 4901C2   		addq	%rax, %r10
 3086 2420 4D39DA   		cmpq	%r11, %r10
 3087 2423 4C8D5319 		leaq	25(%rbx), %r10
 3088 2427 410F96C3 		setbe	%r11b
 3089 242b 4C39D6   		cmpq	%r10, %rsi
 3090 242e 410F93C2 		setnb	%r10b
 3091 2432 4508D3   		orb	%r10b, %r11b
 3092 2435 0F843906 		je	.L636
 3092      0000
 3093 243b 4983F916 		cmpq	$22, %r9
 3094 243f 0F862F06 		jbe	.L636
 3094      0000
 3095 2445 4989F0   		movq	%rsi, %r8
 3096 2448 49F7D8   		negq	%r8
 3097 244b 4183E00F 		andl	$15, %r8d
 3098 244f 4D39C8   		cmpq	%r9, %r8
 3099 2452 4D0F47C1 		cmova	%r9, %r8
 3100 2456 4D85C0   		testq	%r8, %r8
 3101 2459 0F84C106 		je	.L665
 3101      0000
 3102 245f 440FB653 		movzbl	24(%rbx), %r10d
 3102      18
 3103 2464 4983F801 		cmpq	$1, %r8
 3104 2468 448816   		movb	%r10b, (%rsi)
 3105 246b 0F841C01 		je	.L629
 3105      0000
 3106 2471 440FB653 		movzbl	24(%rbx), %r10d
 3106      18
 3107 2476 4983F802 		cmpq	$2, %r8
 3108 247a 488D4E02 		leaq	2(%rsi), %rcx
 3109 247e 44885601 		movb	%r10b, 1(%rsi)
 3110 2482 0F840501 		je	.L629
 3110      0000
 3111 2488 440FB653 		movzbl	24(%rbx), %r10d
 3111      18
 3112 248d 4983F803 		cmpq	$3, %r8
 3113 2491 488D4E03 		leaq	3(%rsi), %rcx
 3114 2495 44885602 		movb	%r10b, 2(%rsi)
 3115 2499 0F84EE00 		je	.L629
 3115      0000
 3116 249f 440FB653 		movzbl	24(%rbx), %r10d
 3116      18
 3117 24a4 4983F804 		cmpq	$4, %r8
 3118 24a8 488D4E04 		leaq	4(%rsi), %rcx
 3119 24ac 44885603 		movb	%r10b, 3(%rsi)
 3120 24b0 0F84D700 		je	.L629
 3120      0000
 3121 24b6 440FB653 		movzbl	24(%rbx), %r10d
 3121      18
 3122 24bb 4983F805 		cmpq	$5, %r8
 3123 24bf 488D4E05 		leaq	5(%rsi), %rcx
 3124 24c3 44885604 		movb	%r10b, 4(%rsi)
 3125 24c7 0F84C000 		je	.L629
 3125      0000
 3126 24cd 440FB653 		movzbl	24(%rbx), %r10d
 3126      18
 3127 24d2 4983F806 		cmpq	$6, %r8
 3128 24d6 488D4E06 		leaq	6(%rsi), %rcx
 3129 24da 44885605 		movb	%r10b, 5(%rsi)
 3130 24de 0F84A900 		je	.L629
 3130      0000
 3131 24e4 440FB653 		movzbl	24(%rbx), %r10d
 3131      18
 3132 24e9 4983F807 		cmpq	$7, %r8
 3133 24ed 488D4E07 		leaq	7(%rsi), %rcx
 3134 24f1 44885606 		movb	%r10b, 6(%rsi)
 3135 24f5 0F849200 		je	.L629
 3135      0000
 3136 24fb 440FB653 		movzbl	24(%rbx), %r10d
 3136      18
 3137 2500 4983F808 		cmpq	$8, %r8
 3138 2504 488D4E08 		leaq	8(%rsi), %rcx
 3139 2508 44885607 		movb	%r10b, 7(%rsi)
 3140 250c 747F     		je	.L629
 3141 250e 440FB653 		movzbl	24(%rbx), %r10d
 3141      18
 3142 2513 4983F809 		cmpq	$9, %r8
 3143 2517 488D4E09 		leaq	9(%rsi), %rcx
 3144 251b 44885608 		movb	%r10b, 8(%rsi)
 3145 251f 746C     		je	.L629
 3146 2521 440FB653 		movzbl	24(%rbx), %r10d
 3146      18
 3147 2526 4983F80A 		cmpq	$10, %r8
 3148 252a 488D4E0A 		leaq	10(%rsi), %rcx
 3149 252e 44885609 		movb	%r10b, 9(%rsi)
 3150 2532 7459     		je	.L629
 3151 2534 440FB653 		movzbl	24(%rbx), %r10d
 3151      18
 3152 2539 4983F80B 		cmpq	$11, %r8
 3153 253d 488D4E0B 		leaq	11(%rsi), %rcx
 3154 2541 4488560A 		movb	%r10b, 10(%rsi)
 3155 2545 7446     		je	.L629
 3156 2547 440FB653 		movzbl	24(%rbx), %r10d
 3156      18
 3157 254c 4983F80C 		cmpq	$12, %r8
 3158 2550 488D4E0C 		leaq	12(%rsi), %rcx
 3159 2554 4488560B 		movb	%r10b, 11(%rsi)
 3160 2558 7433     		je	.L629
 3161 255a 440FB653 		movzbl	24(%rbx), %r10d
 3161      18
 3162 255f 4983F80D 		cmpq	$13, %r8
 3163 2563 488D4E0D 		leaq	13(%rsi), %rcx
 3164 2567 4488560C 		movb	%r10b, 12(%rsi)
 3165 256b 7420     		je	.L629
 3166 256d 440FB653 		movzbl	24(%rbx), %r10d
 3166      18
 3167 2572 4983F80F 		cmpq	$15, %r8
 3168 2576 488D4E0E 		leaq	14(%rsi), %rcx
 3169 257a 4488560D 		movb	%r10b, 13(%rsi)
 3170 257e 750D     		jne	.L629
 3171 2580 440FB653 		movzbl	24(%rbx), %r10d
 3171      18
 3172 2585 488D4E0F 		leaq	15(%rsi), %rcx
 3173 2589 4488560E 		movb	%r10b, 14(%rsi)
 3174              	.L629:
 3175 258d 4C89CE   		movq	%r9, %rsi
 3176 2590 4C29C7   		subq	%r8, %rdi
 3177 2593 4C29C6   		subq	%r8, %rsi
 3178 2596 4C8D4EF0 		leaq	-16(%rsi), %r9
 3179 259a 49C1E904 		shrq	$4, %r9
 3180 259e 4983C101 		addq	$1, %r9
 3181 25a2 4D89CA   		movq	%r9, %r10
 3182 25a5 49C1E204 		salq	$4, %r10
 3183 25a9 4883FF0E 		cmpq	$14, %rdi
 3184 25ad 7640     		jbe	.L631
 3185 25af 0FB67B18 		movzbl	24(%rbx), %edi
 3186 25b3 4D01E8   		addq	%r13, %r8
 3187 25b6 4C01C0   		addq	%r8, %rax
 3188 25b9 897C240C 		movl	%edi, 12(%rsp)
 3189 25bd 31FF     		xorl	%edi, %edi
 3190 25bf 660F6E44 		movd	12(%rsp), %xmm0
 3190      240C
 3191 25c5 660F60C0 		punpcklbw	%xmm0, %xmm0
 3192 25c9 660F61C0 		punpcklwd	%xmm0, %xmm0
 3193 25cd 660F70C0 		pshufd	$0, %xmm0, %xmm0
 3193      00
 3194              	.L632:
 3195 25d2 4883C701 		addq	$1, %rdi
 3196 25d6 4883C010 		addq	$16, %rax
 3197 25da 0F2940F0 		movaps	%xmm0, -16(%rax)
 3198 25de 4C39CF   		cmpq	%r9, %rdi
 3199 25e1 72EF     		jb	.L632
 3200 25e3 4C01D1   		addq	%r10, %rcx
 3201 25e6 4C39D6   		cmpq	%r10, %rsi
 3202 25e9 0F84FE00 		je	.L637
 3202      0000
 3203              	.L631:
 3204 25ef 0FB64318 		movzbl	24(%rbx), %eax
 3205 25f3 8801     		movb	%al, (%rcx)
 3206 25f5 488D4101 		leaq	1(%rcx), %rax
 3207 25f9 4839C5   		cmpq	%rax, %rbp
 3208 25fc 0F86EB00 		jbe	.L637
 3208      0000
 3209 2602 0FB64318 		movzbl	24(%rbx), %eax
 3210 2606 884101   		movb	%al, 1(%rcx)
 3211 2609 488D4102 		leaq	2(%rcx), %rax
 3212 260d 4839C5   		cmpq	%rax, %rbp
 3213 2610 0F86D700 		jbe	.L637
 3213      0000
 3214 2616 0FB64318 		movzbl	24(%rbx), %eax
 3215 261a 884102   		movb	%al, 2(%rcx)
 3216 261d 488D4103 		leaq	3(%rcx), %rax
 3217 2621 4839C5   		cmpq	%rax, %rbp
 3218 2624 0F86C300 		jbe	.L637
 3218      0000
 3219 262a 0FB64318 		movzbl	24(%rbx), %eax
 3220 262e 884103   		movb	%al, 3(%rcx)
 3221 2631 488D4104 		leaq	4(%rcx), %rax
 3222 2635 4839C5   		cmpq	%rax, %rbp
 3223 2638 0F86AF00 		jbe	.L637
 3223      0000
 3224 263e 0FB64318 		movzbl	24(%rbx), %eax
 3225 2642 884104   		movb	%al, 4(%rcx)
 3226 2645 488D4105 		leaq	5(%rcx), %rax
 3227 2649 4839C5   		cmpq	%rax, %rbp
 3228 264c 0F869B00 		jbe	.L637
 3228      0000
 3229 2652 0FB64318 		movzbl	24(%rbx), %eax
 3230 2656 884105   		movb	%al, 5(%rcx)
 3231 2659 488D4106 		leaq	6(%rcx), %rax
 3232 265d 4839C5   		cmpq	%rax, %rbp
 3233 2660 0F868700 		jbe	.L637
 3233      0000
 3234 2666 0FB64318 		movzbl	24(%rbx), %eax
 3235 266a 884106   		movb	%al, 6(%rcx)
 3236 266d 488D4107 		leaq	7(%rcx), %rax
 3237 2671 4839C5   		cmpq	%rax, %rbp
 3238 2674 7677     		jbe	.L637
 3239 2676 0FB64318 		movzbl	24(%rbx), %eax
 3240 267a 884107   		movb	%al, 7(%rcx)
 3241 267d 488D4108 		leaq	8(%rcx), %rax
 3242 2681 4839C5   		cmpq	%rax, %rbp
 3243 2684 7667     		jbe	.L637
 3244 2686 0FB64318 		movzbl	24(%rbx), %eax
 3245 268a 884108   		movb	%al, 8(%rcx)
 3246 268d 488D4109 		leaq	9(%rcx), %rax
 3247 2691 4839C5   		cmpq	%rax, %rbp
 3248 2694 7657     		jbe	.L637
 3249 2696 0FB64318 		movzbl	24(%rbx), %eax
 3250 269a 884109   		movb	%al, 9(%rcx)
 3251 269d 488D410A 		leaq	10(%rcx), %rax
 3252 26a1 4839C5   		cmpq	%rax, %rbp
 3253 26a4 7647     		jbe	.L637
 3254 26a6 0FB64318 		movzbl	24(%rbx), %eax
 3255 26aa 88410A   		movb	%al, 10(%rcx)
 3256 26ad 488D410B 		leaq	11(%rcx), %rax
 3257 26b1 4839C5   		cmpq	%rax, %rbp
 3258 26b4 7637     		jbe	.L637
 3259 26b6 0FB64318 		movzbl	24(%rbx), %eax
 3260 26ba 88410B   		movb	%al, 11(%rcx)
 3261 26bd 488D410C 		leaq	12(%rcx), %rax
 3262 26c1 4839C5   		cmpq	%rax, %rbp
 3263 26c4 7627     		jbe	.L637
 3264 26c6 0FB64318 		movzbl	24(%rbx), %eax
 3265 26ca 88410C   		movb	%al, 12(%rcx)
 3266 26cd 488D410D 		leaq	13(%rcx), %rax
 3267 26d1 4839C5   		cmpq	%rax, %rbp
 3268 26d4 7617     		jbe	.L637
 3269 26d6 0FB64318 		movzbl	24(%rbx), %eax
 3270 26da 88410D   		movb	%al, 13(%rcx)
 3271 26dd 488D410E 		leaq	14(%rcx), %rax
 3272 26e1 4839C5   		cmpq	%rax, %rbp
 3273 26e4 7607     		jbe	.L637
 3274 26e6 0FB64318 		movzbl	24(%rbx), %eax
 3275 26ea 88410E   		movb	%al, 14(%rcx)
 3276              	.L637:
 3277 26ed 488B03   		movq	(%rbx), %rax
 3278              	.L823:
 3279 26f0 4C8B5308 		movq	8(%rbx), %r10
 3280 26f4 E9B7F9FF 		jmp	.L623
 3280      FF
 3281 26f9 0F1F8000 		.p2align 4,,10
 3281      000000
 3282              		.p2align 3
 3283              	.L828:
 3284 2700 4983C101 		addq	$1, %r9
 3285              	.L647:
 3286 2704 0FB64318 		movzbl	24(%rbx), %eax
 3287 2708 4D39C1   		cmpq	%r8, %r9
 3288 270b 418841FF 		movb	%al, -1(%r9)
 3289 270f 75EF     		jne	.L828
 3290 2711 E994FCFF 		jmp	.L648
 3290      FF
 3291 2716 662E0F1F 		.p2align 4,,10
 3291      84000000 
 3291      0000
 3292              		.p2align 3
 3293              	.L653:
 3294 2720 4801ED   		addq	%rbp, %rbp
 3295 2723 4939ED   		cmpq	%rbp, %r13
 3296 2726 77F8     		ja	.L653
 3297 2728 488B3B   		movq	(%rbx), %rdi
 3298 272b 4889EE   		movq	%rbp, %rsi
 3299 272e 8954240C 		movl	%edx, 12(%rsp)
 3300 2732 E8000000 		call	realloc@PLT
 3300      00
 3301 2737 4885C0   		testq	%rax, %rax
 3302 273a 0F845803 		je	.L654
 3302      0000
 3303 2740 4A8D0C28 		leaq	(%rax,%r13), %rcx
 3304 2744 48896B10 		movq	%rbp, 16(%rbx)
 3305 2748 4801C5   		addq	%rax, %rbp
 3306 274b 488903   		movq	%rax, (%rbx)
 3307 274e 8B54240C 		movl	12(%rsp), %edx
 3308 2752 4839E9   		cmpq	%rbp, %rcx
 3309 2755 0F83AA03 		jnb	.L668
 3309      0000
 3310 275b 488D7101 		leaq	1(%rcx), %rsi
 3311 275f 4989E9   		movq	%rbp, %r9
 3312 2762 4C8D5B18 		leaq	24(%rbx), %r11
 3313 2766 4929F1   		subq	%rsi, %r9
 3314 2769 4889F7   		movq	%rsi, %rdi
 3315 276c 4F8D5421 		leaq	2(%r9,%r12), %r10
 3315      02
 3316 2771 4D8D4101 		leaq	1(%r9), %r8
 3317 2775 4901C2   		addq	%rax, %r10
 3318 2778 4D39DA   		cmpq	%r11, %r10
 3319 277b 4C8D5319 		leaq	25(%rbx), %r10
 3320 277f 410F96C3 		setbe	%r11b
 3321 2783 4C39D1   		cmpq	%r10, %rcx
 3322 2786 410F93C2 		setnb	%r10b
 3323 278a 4508D3   		orb	%r10b, %r11b
 3324 278d 0F846103 		je	.L663
 3324      0000
 3325 2793 4983F816 		cmpq	$22, %r8
 3326 2797 0F865703 		jbe	.L663
 3326      0000
 3327 279d 4889CE   		movq	%rcx, %rsi
 3328 27a0 48F7DE   		negq	%rsi
 3329 27a3 83E60F   		andl	$15, %esi
 3330 27a6 4C39C6   		cmpq	%r8, %rsi
 3331 27a9 490F47F0 		cmova	%r8, %rsi
 3332 27ad 4885F6   		testq	%rsi, %rsi
 3333 27b0 0F843101 		je	.L656
 3333      0000
 3334 27b6 440FB653 		movzbl	24(%rbx), %r10d
 3334      18
 3335 27bb 4883FE01 		cmpq	$1, %rsi
 3336 27bf 448811   		movb	%r10b, (%rcx)
 3337 27c2 0F841C01 		je	.L657
 3337      0000
 3338 27c8 440FB653 		movzbl	24(%rbx), %r10d
 3338      18
 3339 27cd 4883FE02 		cmpq	$2, %rsi
 3340 27d1 488D7902 		leaq	2(%rcx), %rdi
 3341 27d5 44885101 		movb	%r10b, 1(%rcx)
 3342 27d9 0F840501 		je	.L657
 3342      0000
 3343 27df 440FB653 		movzbl	24(%rbx), %r10d
 3343      18
 3344 27e4 4883FE03 		cmpq	$3, %rsi
 3345 27e8 488D7903 		leaq	3(%rcx), %rdi
 3346 27ec 44885102 		movb	%r10b, 2(%rcx)
 3347 27f0 0F84EE00 		je	.L657
 3347      0000
 3348 27f6 440FB653 		movzbl	24(%rbx), %r10d
 3348      18
 3349 27fb 4883FE04 		cmpq	$4, %rsi
 3350 27ff 488D7904 		leaq	4(%rcx), %rdi
 3351 2803 44885103 		movb	%r10b, 3(%rcx)
 3352 2807 0F84D700 		je	.L657
 3352      0000
 3353 280d 440FB653 		movzbl	24(%rbx), %r10d
 3353      18
 3354 2812 4883FE05 		cmpq	$5, %rsi
 3355 2816 488D7905 		leaq	5(%rcx), %rdi
 3356 281a 44885104 		movb	%r10b, 4(%rcx)
 3357 281e 0F84C000 		je	.L657
 3357      0000
 3358 2824 440FB653 		movzbl	24(%rbx), %r10d
 3358      18
 3359 2829 4883FE06 		cmpq	$6, %rsi
 3360 282d 488D7906 		leaq	6(%rcx), %rdi
 3361 2831 44885105 		movb	%r10b, 5(%rcx)
 3362 2835 0F84A900 		je	.L657
 3362      0000
 3363 283b 440FB653 		movzbl	24(%rbx), %r10d
 3363      18
 3364 2840 4883FE07 		cmpq	$7, %rsi
 3365 2844 488D7907 		leaq	7(%rcx), %rdi
 3366 2848 44885106 		movb	%r10b, 6(%rcx)
 3367 284c 0F849200 		je	.L657
 3367      0000
 3368 2852 440FB653 		movzbl	24(%rbx), %r10d
 3368      18
 3369 2857 4883FE08 		cmpq	$8, %rsi
 3370 285b 488D7908 		leaq	8(%rcx), %rdi
 3371 285f 44885107 		movb	%r10b, 7(%rcx)
 3372 2863 747F     		je	.L657
 3373 2865 440FB653 		movzbl	24(%rbx), %r10d
 3373      18
 3374 286a 4883FE09 		cmpq	$9, %rsi
 3375 286e 488D7909 		leaq	9(%rcx), %rdi
 3376 2872 44885108 		movb	%r10b, 8(%rcx)
 3377 2876 746C     		je	.L657
 3378 2878 440FB653 		movzbl	24(%rbx), %r10d
 3378      18
 3379 287d 4883FE0A 		cmpq	$10, %rsi
 3380 2881 488D790A 		leaq	10(%rcx), %rdi
 3381 2885 44885109 		movb	%r10b, 9(%rcx)
 3382 2889 7459     		je	.L657
 3383 288b 440FB653 		movzbl	24(%rbx), %r10d
 3383      18
 3384 2890 4883FE0B 		cmpq	$11, %rsi
 3385 2894 488D790B 		leaq	11(%rcx), %rdi
 3386 2898 4488510A 		movb	%r10b, 10(%rcx)
 3387 289c 7446     		je	.L657
 3388 289e 440FB653 		movzbl	24(%rbx), %r10d
 3388      18
 3389 28a3 4883FE0C 		cmpq	$12, %rsi
 3390 28a7 488D790C 		leaq	12(%rcx), %rdi
 3391 28ab 4488510B 		movb	%r10b, 11(%rcx)
 3392 28af 7433     		je	.L657
 3393 28b1 440FB653 		movzbl	24(%rbx), %r10d
 3393      18
 3394 28b6 4883FE0D 		cmpq	$13, %rsi
 3395 28ba 488D790D 		leaq	13(%rcx), %rdi
 3396 28be 4488510C 		movb	%r10b, 12(%rcx)
 3397 28c2 7420     		je	.L657
 3398 28c4 440FB653 		movzbl	24(%rbx), %r10d
 3398      18
 3399 28c9 4883FE0F 		cmpq	$15, %rsi
 3400 28cd 488D790E 		leaq	14(%rcx), %rdi
 3401 28d1 4488510D 		movb	%r10b, 13(%rcx)
 3402 28d5 750D     		jne	.L657
 3403 28d7 440FB653 		movzbl	24(%rbx), %r10d
 3403      18
 3404 28dc 488D790F 		leaq	15(%rcx), %rdi
 3405 28e0 4488510E 		movb	%r10b, 14(%rcx)
 3406              	.L657:
 3407 28e4 4889F9   		movq	%rdi, %rcx
 3408              	.L656:
 3409 28e7 4929F0   		subq	%rsi, %r8
 3410 28ea 4929F1   		subq	%rsi, %r9
 3411 28ed 4D8D50F0 		leaq	-16(%r8), %r10
 3412 28f1 49C1EA04 		shrq	$4, %r10
 3413 28f5 4983C201 		addq	$1, %r10
 3414 28f9 4D89D3   		movq	%r10, %r11
 3415 28fc 49C1E304 		salq	$4, %r11
 3416 2900 4983F90E 		cmpq	$14, %r9
 3417 2904 7642     		jbe	.L658
 3418 2906 0FB67B18 		movzbl	24(%rbx), %edi
 3419 290a 897C240C 		movl	%edi, 12(%rsp)
 3420 290e 498D7C35 		leaq	0(%r13,%rsi), %rdi
 3420      00
 3421 2913 31F6     		xorl	%esi, %esi
 3422 2915 660F6E44 		movd	12(%rsp), %xmm0
 3422      240C
 3423 291b 4801F8   		addq	%rdi, %rax
 3424 291e 660F60C0 		punpcklbw	%xmm0, %xmm0
 3425 2922 660F61C0 		punpcklwd	%xmm0, %xmm0
 3426 2926 660F70C0 		pshufd	$0, %xmm0, %xmm0
 3426      00
 3427              	.L659:
 3428 292b 4883C601 		addq	$1, %rsi
 3429 292f 4883C010 		addq	$16, %rax
 3430 2933 0F2940F0 		movaps	%xmm0, -16(%rax)
 3431 2937 4C39D6   		cmpq	%r10, %rsi
 3432 293a 72EF     		jb	.L659
 3433 293c 4C01D9   		addq	%r11, %rcx
 3434 293f 4D39D8   		cmpq	%r11, %r8
 3435 2942 0F8440F7 		je	.L664
 3435      FFFF
 3436              	.L658:
 3437 2948 0FB64318 		movzbl	24(%rbx), %eax
 3438 294c 8801     		movb	%al, (%rcx)
 3439 294e 488D4101 		leaq	1(%rcx), %rax
 3440 2952 4839C5   		cmpq	%rax, %rbp
 3441 2955 0F862DF7 		jbe	.L664
 3441      FFFF
 3442 295b 0FB64318 		movzbl	24(%rbx), %eax
 3443 295f 884101   		movb	%al, 1(%rcx)
 3444 2962 488D4102 		leaq	2(%rcx), %rax
 3445 2966 4839C5   		cmpq	%rax, %rbp
 3446 2969 0F8619F7 		jbe	.L664
 3446      FFFF
 3447 296f 0FB64318 		movzbl	24(%rbx), %eax
 3448 2973 884102   		movb	%al, 2(%rcx)
 3449 2976 488D4103 		leaq	3(%rcx), %rax
 3450 297a 4839C5   		cmpq	%rax, %rbp
 3451 297d 0F8605F7 		jbe	.L664
 3451      FFFF
 3452 2983 0FB64318 		movzbl	24(%rbx), %eax
 3453 2987 884103   		movb	%al, 3(%rcx)
 3454 298a 488D4104 		leaq	4(%rcx), %rax
 3455 298e 4839C5   		cmpq	%rax, %rbp
 3456 2991 0F86F1F6 		jbe	.L664
 3456      FFFF
 3457 2997 0FB64318 		movzbl	24(%rbx), %eax
 3458 299b 884104   		movb	%al, 4(%rcx)
 3459 299e 488D4105 		leaq	5(%rcx), %rax
 3460 29a2 4839C5   		cmpq	%rax, %rbp
 3461 29a5 0F86DDF6 		jbe	.L664
 3461      FFFF
 3462 29ab 0FB64318 		movzbl	24(%rbx), %eax
 3463 29af 884105   		movb	%al, 5(%rcx)
 3464 29b2 488D4106 		leaq	6(%rcx), %rax
 3465 29b6 4839C5   		cmpq	%rax, %rbp
 3466 29b9 0F86C9F6 		jbe	.L664
 3466      FFFF
 3467 29bf 0FB64318 		movzbl	24(%rbx), %eax
 3468 29c3 884106   		movb	%al, 6(%rcx)
 3469 29c6 488D4107 		leaq	7(%rcx), %rax
 3470 29ca 4839C5   		cmpq	%rax, %rbp
 3471 29cd 0F86B5F6 		jbe	.L664
 3471      FFFF
 3472 29d3 0FB64318 		movzbl	24(%rbx), %eax
 3473 29d7 884107   		movb	%al, 7(%rcx)
 3474 29da 488D4108 		leaq	8(%rcx), %rax
 3475 29de 4839C5   		cmpq	%rax, %rbp
 3476 29e1 0F86A1F6 		jbe	.L664
 3476      FFFF
 3477 29e7 0FB64318 		movzbl	24(%rbx), %eax
 3478 29eb 884108   		movb	%al, 8(%rcx)
 3479 29ee 488D4109 		leaq	9(%rcx), %rax
 3480 29f2 4839C5   		cmpq	%rax, %rbp
 3481 29f5 0F868DF6 		jbe	.L664
 3481      FFFF
 3482 29fb 0FB64318 		movzbl	24(%rbx), %eax
 3483 29ff 884109   		movb	%al, 9(%rcx)
 3484 2a02 488D410A 		leaq	10(%rcx), %rax
 3485 2a06 4839C5   		cmpq	%rax, %rbp
 3486 2a09 0F8679F6 		jbe	.L664
 3486      FFFF
 3487 2a0f 0FB64318 		movzbl	24(%rbx), %eax
 3488 2a13 88410A   		movb	%al, 10(%rcx)
 3489 2a16 488D410B 		leaq	11(%rcx), %rax
 3490 2a1a 4839C5   		cmpq	%rax, %rbp
 3491 2a1d 0F8665F6 		jbe	.L664
 3491      FFFF
 3492 2a23 0FB64318 		movzbl	24(%rbx), %eax
 3493 2a27 88410B   		movb	%al, 11(%rcx)
 3494 2a2a 488D410C 		leaq	12(%rcx), %rax
 3495 2a2e 4839C5   		cmpq	%rax, %rbp
 3496 2a31 0F8651F6 		jbe	.L664
 3496      FFFF
 3497 2a37 0FB64318 		movzbl	24(%rbx), %eax
 3498 2a3b 88410C   		movb	%al, 12(%rcx)
 3499 2a3e 488D410D 		leaq	13(%rcx), %rax
 3500 2a42 4839C5   		cmpq	%rax, %rbp
 3501 2a45 0F863DF6 		jbe	.L664
 3501      FFFF
 3502 2a4b 0FB64318 		movzbl	24(%rbx), %eax
 3503 2a4f 88410D   		movb	%al, 13(%rcx)
 3504 2a52 488D410E 		leaq	14(%rcx), %rax
 3505 2a56 4839C5   		cmpq	%rax, %rbp
 3506 2a59 0F8629F6 		jbe	.L664
 3506      FFFF
 3507 2a5f 0FB64318 		movzbl	24(%rbx), %eax
 3508 2a63 88410E   		movb	%al, 14(%rcx)
 3509 2a66 E91DF6FF 		jmp	.L664
 3509      FF
 3510 2a6b 0F1F4400 		.p2align 4,,10
 3510      00
 3511              		.p2align 3
 3512              	.L829:
 3513 2a70 4983C001 		addq	$1, %r8
 3514              	.L636:
 3515 2a74 0FB64318 		movzbl	24(%rbx), %eax
 3516 2a78 4C39C5   		cmpq	%r8, %rbp
 3517 2a7b 418840FF 		movb	%al, -1(%r8)
 3518 2a7f 75EF     		jne	.L829
 3519 2a81 E967FCFF 		jmp	.L637
 3519      FF
 3520 2a86 662E0F1F 		.p2align 4,,10
 3520      84000000 
 3520      0000
 3521              		.p2align 3
 3522              	.L650:
 3523 2a90 480337   		addq	(%rdi), %rsi
 3524 2a93 E91CF9FF 		jmp	.L649
 3524      FF
 3525              	.L654:
 3526 2a98 488D3500 		leaq	.LC7(%rip), %rsi
 3526      000000
 3527 2a9f 4C89F7   		movq	%r14, %rdi
 3528 2aa2 E8000000 		call	errPrefix@PLT
 3528      00
 3529 2aa7 488D3500 		leaq	.LC22(%rip), %rsi
 3529      000000
 3530 2aae 4C89F7   		movq	%r14, %rdi
 3531 2ab1 E8000000 		call	errPrefix@PLT
 3531      00
 3532 2ab6 488D3500 		leaq	.LC23(%rip), %rsi
 3532      000000
 3533 2abd 4C89F7   		movq	%r14, %rdi
 3534 2ac0 E8000000 		call	errPrefix@PLT
 3534      00
 3535 2ac5 4883C410 		addq	$16, %rsp
 3536              		.cfi_remember_state
 3537              		.cfi_def_cfa_offset 48
 3538 2ac9 B8010000 		movl	$1, %eax
 3538      00
 3539 2ace 5B       		popq	%rbx
 3540              		.cfi_def_cfa_offset 40
 3541 2acf 5D       		popq	%rbp
 3542              		.cfi_def_cfa_offset 32
 3543 2ad0 415C     		popq	%r12
 3544              		.cfi_def_cfa_offset 24
 3545 2ad2 415D     		popq	%r13
 3546              		.cfi_def_cfa_offset 16
 3547 2ad4 415E     		popq	%r14
 3548              		.cfi_def_cfa_offset 8
 3549 2ad6 C3       		ret
 3550 2ad7 660F1F84 		.p2align 4,,10
 3550      00000000 
 3550      00
 3551              		.p2align 3
 3552              	.L667:
 3553              		.cfi_restore_state
 3554 2ae0 4889F1   		movq	%rsi, %rcx
 3555 2ae3 E962F7FF 		jmp	.L640
 3555      FF
 3556 2ae8 0F1F8400 		.p2align 4,,10
 3556      00000000 
 3557              		.p2align 3
 3558              	.L830:
 3559 2af0 4883C601 		addq	$1, %rsi
 3560              	.L663:
 3561 2af4 0FB64318 		movzbl	24(%rbx), %eax
 3562 2af8 4839F5   		cmpq	%rsi, %rbp
 3563 2afb 8846FF   		movb	%al, -1(%rsi)
 3564 2afe 75F0     		jne	.L830
 3565 2b00 E983F5FF 		jmp	.L664
 3565      FF
 3566              	.L668:
 3567 2b05 4889C6   		movq	%rax, %rsi
 3568 2b08 E97EF5FF 		jmp	.L652
 3568      FF
 3569 2b0d 0F1F00   		.p2align 4,,10
 3570              		.p2align 3
 3571              	.L666:
 3572 2b10 4C89C6   		movq	%r8, %rsi
 3573 2b13 E998F8FF 		jmp	.L638
 3573      FF
 3574 2b18 0F1F8400 		.p2align 4,,10
 3574      00000000 
 3575              		.p2align 3
 3576              	.L665:
 3577 2b20 4889F1   		movq	%rsi, %rcx
 3578 2b23 E965FAFF 		jmp	.L629
 3578      FF
 3579              		.cfi_endproc
 3580              	.LFE61:
 3582              		.section	.text.unlikely
 3583              	.LCOLDE24:
 3584              		.text
 3585              	.LHOTE24:
 3586              		.section	.rodata.str1.1
 3587              	.LC25:
 3588 009b 62756657 		.string	"bufWriteWordLE()"
 3588      72697465 
 3588      576F7264 
 3588      4C452829 
 3588      00
 3589              		.section	.text.unlikely
 3590              	.LCOLDB26:
 3591              		.text
 3592              	.LHOTB26:
 3593 2b28 0F1F8400 		.p2align 4,,15
 3593      00000000 
 3594              		.globl	bufWriteWordLE
 3596              	bufWriteWordLE:
 3597              	.LFB62:
 3598              		.cfi_startproc
 3599 2b30 4156     		pushq	%r14
 3600              		.cfi_def_cfa_offset 16
 3601              		.cfi_offset 14, -16
 3602 2b32 4155     		pushq	%r13
 3603              		.cfi_def_cfa_offset 24
 3604              		.cfi_offset 13, -24
 3605 2b34 4989CE   		movq	%rcx, %r14
 3606 2b37 4154     		pushq	%r12
 3607              		.cfi_def_cfa_offset 32
 3608              		.cfi_offset 12, -32
 3609 2b39 55       		pushq	%rbp
 3610              		.cfi_def_cfa_offset 40
 3611              		.cfi_offset 6, -40
 3612 2b3a 4989F4   		movq	%rsi, %r12
 3613 2b3d 53       		pushq	%rbx
 3614              		.cfi_def_cfa_offset 48
 3615              		.cfi_offset 3, -48
 3616 2b3e 4C8D6E02 		leaq	2(%rsi), %r13
 3617 2b42 4889FB   		movq	%rdi, %rbx
 3618 2b45 4883EC20 		subq	$32, %rsp
 3619              		.cfi_def_cfa_offset 80
 3620 2b49 4C8B4F08 		movq	8(%rdi), %r9
 3621 2b4d 64488B04 		movq	%fs:40, %rax
 3621      25280000 
 3621      00
 3622 2b56 48894424 		movq	%rax, 24(%rsp)
 3622      18
 3623 2b5b 31C0     		xorl	%eax, %eax
 3624 2b5d 4C39CE   		cmpq	%r9, %rsi
 3625 2b60 732E     		jnb	.L1039
 3626 2b62 4D39CD   		cmpq	%r9, %r13
 3627 2b65 0F86450A 		jbe	.L861
 3627      0000
 3628 2b6b 488B6F10 		movq	16(%rdi), %rbp
 3629 2b6f 4939ED   		cmpq	%rbp, %r13
 3630 2b72 0F87C806 		ja	.L864
 3630      0000
 3631              	.L875:
 3632 2b78 488B03   		movq	(%rbx), %rax
 3633              	.L863:
 3634 2b7b 4C896B08 		movq	%r13, 8(%rbx)
 3635 2b7f 4C01E0   		addq	%r12, %rax
 3636 2b82 E92B0300 		jmp	.L860
 3636      00
 3637 2b87 660F1F84 		.p2align 4,,10
 3637      00000000 
 3637      00
 3638              		.p2align 3
 3639              	.L1039:
 3640 2b90 488B6F10 		movq	16(%rdi), %rbp
 3641 2b94 4939ED   		cmpq	%rbp, %r13
 3642 2b97 0F874B03 		ja	.L835
 3642      0000
 3643 2b9d 4C8B17   		movq	(%rdi), %r10
 3644              	.L834:
 3645 2ba0 4B8D340A 		leaq	(%r10,%r9), %rsi
 3646 2ba4 4B8D0422 		leaq	(%r10,%r12), %rax
 3647 2ba8 4839C6   		cmpq	%rax, %rsi
 3648 2bab 0F83FD02 		jnb	.L849
 3648      0000
 3649 2bb1 4C8D4601 		leaq	1(%rsi), %r8
 3650 2bb5 4989C6   		movq	%rax, %r14
 3651 2bb8 488D6B18 		leaq	24(%rbx), %rbp
 3652 2bbc 4D29C6   		subq	%r8, %r14
 3653 2bbf 4C89C1   		movq	%r8, %rcx
 3654 2bc2 4B8D7C31 		leaq	1(%r9,%r14), %rdi
 3654      01
 3655 2bc7 4D8D5E01 		leaq	1(%r14), %r11
 3656 2bcb 4C01D7   		addq	%r10, %rdi
 3657 2bce 4839FD   		cmpq	%rdi, %rbp
 3658 2bd1 488D7B19 		leaq	25(%rbx), %rdi
 3659 2bd5 400F93C5 		setnb	%bpl
 3660 2bd9 4839FE   		cmpq	%rdi, %rsi
 3661 2bdc 400F93C7 		setnb	%dil
 3662 2be0 4008FD   		orb	%dil, %bpl
 3663 2be3 0F843B06 		je	.L858
 3663      0000
 3664 2be9 4983FB16 		cmpq	$22, %r11
 3665 2bed 0F863106 		jbe	.L858
 3665      0000
 3666 2bf3 4889F7   		movq	%rsi, %rdi
 3667 2bf6 48F7DF   		negq	%rdi
 3668 2bf9 83E70F   		andl	$15, %edi
 3669 2bfc 4C39DF   		cmpq	%r11, %rdi
 3670 2bff 490F47FB 		cmova	%r11, %rdi
 3671 2c03 4885FF   		testq	%rdi, %rdi
 3672 2c06 0F84EC09 		je	.L879
 3672      0000
 3673 2c0c 440FB643 		movzbl	24(%rbx), %r8d
 3673      18
 3674 2c11 4883FF01 		cmpq	$1, %rdi
 3675 2c15 448806   		movb	%r8b, (%rsi)
 3676 2c18 0F841C01 		je	.L851
 3676      0000
 3677 2c1e 440FB643 		movzbl	24(%rbx), %r8d
 3677      18
 3678 2c23 4883FF02 		cmpq	$2, %rdi
 3679 2c27 488D4E02 		leaq	2(%rsi), %rcx
 3680 2c2b 44884601 		movb	%r8b, 1(%rsi)
 3681 2c2f 0F840501 		je	.L851
 3681      0000
 3682 2c35 440FB643 		movzbl	24(%rbx), %r8d
 3682      18
 3683 2c3a 4883FF03 		cmpq	$3, %rdi
 3684 2c3e 488D4E03 		leaq	3(%rsi), %rcx
 3685 2c42 44884602 		movb	%r8b, 2(%rsi)
 3686 2c46 0F84EE00 		je	.L851
 3686      0000
 3687 2c4c 440FB643 		movzbl	24(%rbx), %r8d
 3687      18
 3688 2c51 4883FF04 		cmpq	$4, %rdi
 3689 2c55 488D4E04 		leaq	4(%rsi), %rcx
 3690 2c59 44884603 		movb	%r8b, 3(%rsi)
 3691 2c5d 0F84D700 		je	.L851
 3691      0000
 3692 2c63 440FB643 		movzbl	24(%rbx), %r8d
 3692      18
 3693 2c68 4883FF05 		cmpq	$5, %rdi
 3694 2c6c 488D4E05 		leaq	5(%rsi), %rcx
 3695 2c70 44884604 		movb	%r8b, 4(%rsi)
 3696 2c74 0F84C000 		je	.L851
 3696      0000
 3697 2c7a 440FB643 		movzbl	24(%rbx), %r8d
 3697      18
 3698 2c7f 4883FF06 		cmpq	$6, %rdi
 3699 2c83 488D4E06 		leaq	6(%rsi), %rcx
 3700 2c87 44884605 		movb	%r8b, 5(%rsi)
 3701 2c8b 0F84A900 		je	.L851
 3701      0000
 3702 2c91 440FB643 		movzbl	24(%rbx), %r8d
 3702      18
 3703 2c96 4883FF07 		cmpq	$7, %rdi
 3704 2c9a 488D4E07 		leaq	7(%rsi), %rcx
 3705 2c9e 44884606 		movb	%r8b, 6(%rsi)
 3706 2ca2 0F849200 		je	.L851
 3706      0000
 3707 2ca8 440FB643 		movzbl	24(%rbx), %r8d
 3707      18
 3708 2cad 4883FF08 		cmpq	$8, %rdi
 3709 2cb1 488D4E08 		leaq	8(%rsi), %rcx
 3710 2cb5 44884607 		movb	%r8b, 7(%rsi)
 3711 2cb9 747F     		je	.L851
 3712 2cbb 440FB643 		movzbl	24(%rbx), %r8d
 3712      18
 3713 2cc0 4883FF09 		cmpq	$9, %rdi
 3714 2cc4 488D4E09 		leaq	9(%rsi), %rcx
 3715 2cc8 44884608 		movb	%r8b, 8(%rsi)
 3716 2ccc 746C     		je	.L851
 3717 2cce 440FB643 		movzbl	24(%rbx), %r8d
 3717      18
 3718 2cd3 4883FF0A 		cmpq	$10, %rdi
 3719 2cd7 488D4E0A 		leaq	10(%rsi), %rcx
 3720 2cdb 44884609 		movb	%r8b, 9(%rsi)
 3721 2cdf 7459     		je	.L851
 3722 2ce1 440FB643 		movzbl	24(%rbx), %r8d
 3722      18
 3723 2ce6 4883FF0B 		cmpq	$11, %rdi
 3724 2cea 488D4E0B 		leaq	11(%rsi), %rcx
 3725 2cee 4488460A 		movb	%r8b, 10(%rsi)
 3726 2cf2 7446     		je	.L851
 3727 2cf4 440FB643 		movzbl	24(%rbx), %r8d
 3727      18
 3728 2cf9 4883FF0C 		cmpq	$12, %rdi
 3729 2cfd 488D4E0C 		leaq	12(%rsi), %rcx
 3730 2d01 4488460B 		movb	%r8b, 11(%rsi)
 3731 2d05 7433     		je	.L851
 3732 2d07 440FB643 		movzbl	24(%rbx), %r8d
 3732      18
 3733 2d0c 4883FF0D 		cmpq	$13, %rdi
 3734 2d10 488D4E0D 		leaq	13(%rsi), %rcx
 3735 2d14 4488460C 		movb	%r8b, 12(%rsi)
 3736 2d18 7420     		je	.L851
 3737 2d1a 440FB643 		movzbl	24(%rbx), %r8d
 3737      18
 3738 2d1f 4883FF0F 		cmpq	$15, %rdi
 3739 2d23 488D4E0E 		leaq	14(%rsi), %rcx
 3740 2d27 4488460D 		movb	%r8b, 13(%rsi)
 3741 2d2b 750D     		jne	.L851
 3742 2d2d 440FB643 		movzbl	24(%rbx), %r8d
 3742      18
 3743 2d32 488D4E0F 		leaq	15(%rsi), %rcx
 3744 2d36 4488460E 		movb	%r8b, 14(%rsi)
 3745              	.L851:
 3746 2d3a 4929FB   		subq	%rdi, %r11
 3747 2d3d 4929FE   		subq	%rdi, %r14
 3748 2d40 4D89D8   		movq	%r11, %r8
 3749 2d43 4D8D5BF0 		leaq	-16(%r11), %r11
 3750 2d47 49C1EB04 		shrq	$4, %r11
 3751 2d4b 4983C301 		addq	$1, %r11
 3752 2d4f 4C89DD   		movq	%r11, %rbp
 3753 2d52 48C1E504 		salq	$4, %rbp
 3754 2d56 4983FE0E 		cmpq	$14, %r14
 3755 2d5a 7640     		jbe	.L853
 3756 2d5c 0FB67318 		movzbl	24(%rbx), %esi
 3757 2d60 4C01CF   		addq	%r9, %rdi
 3758 2d63 4C01D7   		addq	%r10, %rdi
 3759 2d66 8974240C 		movl	%esi, 12(%rsp)
 3760 2d6a 31F6     		xorl	%esi, %esi
 3761 2d6c 660F6E44 		movd	12(%rsp), %xmm0
 3761      240C
 3762 2d72 660F60C0 		punpcklbw	%xmm0, %xmm0
 3763 2d76 660F61C0 		punpcklwd	%xmm0, %xmm0
 3764 2d7a 660F70C0 		pshufd	$0, %xmm0, %xmm0
 3764      00
 3765              	.L854:
 3766 2d7f 4883C601 		addq	$1, %rsi
 3767 2d83 4883C710 		addq	$16, %rdi
 3768 2d87 0F2947F0 		movaps	%xmm0, -16(%rdi)
 3769 2d8b 4939F3   		cmpq	%rsi, %r11
 3770 2d8e 77EF     		ja	.L854
 3771 2d90 4801E9   		addq	%rbp, %rcx
 3772 2d93 4939E8   		cmpq	%rbp, %r8
 3773 2d96 0F840C01 		je	.L859
 3773      0000
 3774              	.L853:
 3775 2d9c 0FB67318 		movzbl	24(%rbx), %esi
 3776 2da0 408831   		movb	%sil, (%rcx)
 3777 2da3 488D7101 		leaq	1(%rcx), %rsi
 3778 2da7 4839F0   		cmpq	%rsi, %rax
 3779 2daa 0F86F800 		jbe	.L859
 3779      0000
 3780 2db0 0FB67318 		movzbl	24(%rbx), %esi
 3781 2db4 40887101 		movb	%sil, 1(%rcx)
 3782 2db8 488D7102 		leaq	2(%rcx), %rsi
 3783 2dbc 4839F0   		cmpq	%rsi, %rax
 3784 2dbf 0F86E300 		jbe	.L859
 3784      0000
 3785 2dc5 0FB67318 		movzbl	24(%rbx), %esi
 3786 2dc9 40887102 		movb	%sil, 2(%rcx)
 3787 2dcd 488D7103 		leaq	3(%rcx), %rsi
 3788 2dd1 4839F0   		cmpq	%rsi, %rax
 3789 2dd4 0F86CE00 		jbe	.L859
 3789      0000
 3790 2dda 0FB67318 		movzbl	24(%rbx), %esi
 3791 2dde 40887103 		movb	%sil, 3(%rcx)
 3792 2de2 488D7104 		leaq	4(%rcx), %rsi
 3793 2de6 4839F0   		cmpq	%rsi, %rax
 3794 2de9 0F86B900 		jbe	.L859
 3794      0000
 3795 2def 0FB67318 		movzbl	24(%rbx), %esi
 3796 2df3 40887104 		movb	%sil, 4(%rcx)
 3797 2df7 488D7105 		leaq	5(%rcx), %rsi
 3798 2dfb 4839F0   		cmpq	%rsi, %rax
 3799 2dfe 0F86A400 		jbe	.L859
 3799      0000
 3800 2e04 0FB67318 		movzbl	24(%rbx), %esi
 3801 2e08 40887105 		movb	%sil, 5(%rcx)
 3802 2e0c 488D7106 		leaq	6(%rcx), %rsi
 3803 2e10 4839F0   		cmpq	%rsi, %rax
 3804 2e13 0F868F00 		jbe	.L859
 3804      0000
 3805 2e19 0FB67318 		movzbl	24(%rbx), %esi
 3806 2e1d 40887106 		movb	%sil, 6(%rcx)
 3807 2e21 488D7107 		leaq	7(%rcx), %rsi
 3808 2e25 4839F0   		cmpq	%rsi, %rax
 3809 2e28 767E     		jbe	.L859
 3810 2e2a 0FB67318 		movzbl	24(%rbx), %esi
 3811 2e2e 40887107 		movb	%sil, 7(%rcx)
 3812 2e32 488D7108 		leaq	8(%rcx), %rsi
 3813 2e36 4839F0   		cmpq	%rsi, %rax
 3814 2e39 766D     		jbe	.L859
 3815 2e3b 0FB67318 		movzbl	24(%rbx), %esi
 3816 2e3f 40887108 		movb	%sil, 8(%rcx)
 3817 2e43 488D7109 		leaq	9(%rcx), %rsi
 3818 2e47 4839F0   		cmpq	%rsi, %rax
 3819 2e4a 765C     		jbe	.L859
 3820 2e4c 0FB67318 		movzbl	24(%rbx), %esi
 3821 2e50 40887109 		movb	%sil, 9(%rcx)
 3822 2e54 488D710A 		leaq	10(%rcx), %rsi
 3823 2e58 4839F0   		cmpq	%rsi, %rax
 3824 2e5b 764B     		jbe	.L859
 3825 2e5d 0FB67318 		movzbl	24(%rbx), %esi
 3826 2e61 4088710A 		movb	%sil, 10(%rcx)
 3827 2e65 488D710B 		leaq	11(%rcx), %rsi
 3828 2e69 4839F0   		cmpq	%rsi, %rax
 3829 2e6c 763A     		jbe	.L859
 3830 2e6e 0FB67318 		movzbl	24(%rbx), %esi
 3831 2e72 4088710B 		movb	%sil, 11(%rcx)
 3832 2e76 488D710C 		leaq	12(%rcx), %rsi
 3833 2e7a 4839F0   		cmpq	%rsi, %rax
 3834 2e7d 7629     		jbe	.L859
 3835 2e7f 0FB67318 		movzbl	24(%rbx), %esi
 3836 2e83 4088710C 		movb	%sil, 12(%rcx)
 3837 2e87 488D710D 		leaq	13(%rcx), %rsi
 3838 2e8b 4839F0   		cmpq	%rsi, %rax
 3839 2e8e 7618     		jbe	.L859
 3840 2e90 0FB67318 		movzbl	24(%rbx), %esi
 3841 2e94 4088710D 		movb	%sil, 13(%rcx)
 3842 2e98 488D710E 		leaq	14(%rcx), %rsi
 3843 2e9c 4839F0   		cmpq	%rsi, %rax
 3844 2e9f 7607     		jbe	.L859
 3845 2ea1 0FB64318 		movzbl	24(%rbx), %eax
 3846 2ea5 88410E   		movb	%al, 14(%rcx)
 3847              	.L859:
 3848 2ea8 4C89E0   		movq	%r12, %rax
 3849 2eab 480303   		addq	(%rbx), %rax
 3850              	.L849:
 3851 2eae 4C896B08 		movq	%r13, 8(%rbx)
 3852              	.L860:
 3853 2eb2 8810     		movb	%dl, (%rax)
 3854 2eb4 488B03   		movq	(%rbx), %rax
 3855 2eb7 0FB6D6   		movzbl	%dh, %edx
 3856 2eba 42885420 		movb	%dl, 1(%rax,%r12)
 3856      01
 3857 2ebf 31C0     		xorl	%eax, %eax
 3858              	.L837:
 3859 2ec1 488B5424 		movq	24(%rsp), %rdx
 3859      18
 3860 2ec6 64483314 		xorq	%fs:40, %rdx
 3860      25280000 
 3860      00
 3861 2ecf 0F855707 		jne	.L1040
 3861      0000
 3862 2ed5 4883C420 		addq	$32, %rsp
 3863              		.cfi_remember_state
 3864              		.cfi_def_cfa_offset 48
 3865 2ed9 5B       		popq	%rbx
 3866              		.cfi_def_cfa_offset 40
 3867 2eda 5D       		popq	%rbp
 3868              		.cfi_def_cfa_offset 32
 3869 2edb 415C     		popq	%r12
 3870              		.cfi_def_cfa_offset 24
 3871 2edd 415D     		popq	%r13
 3872              		.cfi_def_cfa_offset 16
 3873 2edf 415E     		popq	%r14
 3874              		.cfi_def_cfa_offset 8
 3875 2ee1 C3       		ret
 3876              		.p2align 4,,10
 3877 2ee2 660F1F44 		.p2align 3
 3877      0000
 3878              	.L835:
 3879              		.cfi_restore_state
 3880 2ee8 4801ED   		addq	%rbp, %rbp
 3881 2eeb 4939ED   		cmpq	%rbp, %r13
 3882 2eee 77F8     		ja	.L835
 3883 2ef0 488B3B   		movq	(%rbx), %rdi
 3884 2ef3 4889EE   		movq	%rbp, %rsi
 3885 2ef6 8954240C 		movl	%edx, 12(%rsp)
 3886 2efa E8000000 		call	realloc@PLT
 3886      00
 3887 2eff 4885C0   		testq	%rax, %rax
 3888 2f02 8B54240C 		movl	12(%rsp), %edx
 3889 2f06 0F84AF06 		je	.L865
 3889      0000
 3890 2f0c 4A8D3428 		leaq	(%rax,%r13), %rsi
 3891 2f10 48896B10 		movq	%rbp, 16(%rbx)
 3892 2f14 4801C5   		addq	%rax, %rbp
 3893 2f17 488903   		movq	%rax, (%rbx)
 3894 2f1a 4839EE   		cmpq	%rbp, %rsi
 3895 2f1d 0F83FD06 		jnb	.L1041
 3895      0000
 3896 2f23 4C8D4601 		leaq	1(%rsi), %r8
 3897 2f27 4889EF   		movq	%rbp, %rdi
 3898 2f2a 4C8D5B18 		leaq	24(%rbx), %r11
 3899 2f2e 4C29C7   		subq	%r8, %rdi
 3900 2f31 4C89C1   		movq	%r8, %rcx
 3901 2f34 4E8D5427 		leaq	3(%rdi,%r12), %r10
 3901      03
 3902 2f39 4C8D4F01 		leaq	1(%rdi), %r9
 3903 2f3d 4901C2   		addq	%rax, %r10
 3904 2f40 4D39DA   		cmpq	%r11, %r10
 3905 2f43 4C8D5319 		leaq	25(%rbx), %r10
 3906 2f47 410F96C3 		setbe	%r11b
 3907 2f4b 4C39D6   		cmpq	%r10, %rsi
 3908 2f4e 410F93C2 		setnb	%r10b
 3909 2f52 4508D3   		orb	%r10b, %r11b
 3910 2f55 0F843906 		je	.L847
 3910      0000
 3911 2f5b 4983F916 		cmpq	$22, %r9
 3912 2f5f 0F862F06 		jbe	.L847
 3912      0000
 3913 2f65 4989F0   		movq	%rsi, %r8
 3914 2f68 49F7D8   		negq	%r8
 3915 2f6b 4183E00F 		andl	$15, %r8d
 3916 2f6f 4D39C8   		cmpq	%r9, %r8
 3917 2f72 4D0F47C1 		cmova	%r9, %r8
 3918 2f76 4D85C0   		testq	%r8, %r8
 3919 2f79 0F849906 		je	.L877
 3919      0000
 3920 2f7f 440FB653 		movzbl	24(%rbx), %r10d
 3920      18
 3921 2f84 4983F801 		cmpq	$1, %r8
 3922 2f88 448816   		movb	%r10b, (%rsi)
 3923 2f8b 0F841C01 		je	.L840
 3923      0000
 3924 2f91 440FB653 		movzbl	24(%rbx), %r10d
 3924      18
 3925 2f96 4983F802 		cmpq	$2, %r8
 3926 2f9a 488D4E02 		leaq	2(%rsi), %rcx
 3927 2f9e 44885601 		movb	%r10b, 1(%rsi)
 3928 2fa2 0F840501 		je	.L840
 3928      0000
 3929 2fa8 440FB653 		movzbl	24(%rbx), %r10d
 3929      18
 3930 2fad 4983F803 		cmpq	$3, %r8
 3931 2fb1 488D4E03 		leaq	3(%rsi), %rcx
 3932 2fb5 44885602 		movb	%r10b, 2(%rsi)
 3933 2fb9 0F84EE00 		je	.L840
 3933      0000
 3934 2fbf 440FB653 		movzbl	24(%rbx), %r10d
 3934      18
 3935 2fc4 4983F804 		cmpq	$4, %r8
 3936 2fc8 488D4E04 		leaq	4(%rsi), %rcx
 3937 2fcc 44885603 		movb	%r10b, 3(%rsi)
 3938 2fd0 0F84D700 		je	.L840
 3938      0000
 3939 2fd6 440FB653 		movzbl	24(%rbx), %r10d
 3939      18
 3940 2fdb 4983F805 		cmpq	$5, %r8
 3941 2fdf 488D4E05 		leaq	5(%rsi), %rcx
 3942 2fe3 44885604 		movb	%r10b, 4(%rsi)
 3943 2fe7 0F84C000 		je	.L840
 3943      0000
 3944 2fed 440FB653 		movzbl	24(%rbx), %r10d
 3944      18
 3945 2ff2 4983F806 		cmpq	$6, %r8
 3946 2ff6 488D4E06 		leaq	6(%rsi), %rcx
 3947 2ffa 44885605 		movb	%r10b, 5(%rsi)
 3948 2ffe 0F84A900 		je	.L840
 3948      0000
 3949 3004 440FB653 		movzbl	24(%rbx), %r10d
 3949      18
 3950 3009 4983F807 		cmpq	$7, %r8
 3951 300d 488D4E07 		leaq	7(%rsi), %rcx
 3952 3011 44885606 		movb	%r10b, 6(%rsi)
 3953 3015 0F849200 		je	.L840
 3953      0000
 3954 301b 440FB653 		movzbl	24(%rbx), %r10d
 3954      18
 3955 3020 4983F808 		cmpq	$8, %r8
 3956 3024 488D4E08 		leaq	8(%rsi), %rcx
 3957 3028 44885607 		movb	%r10b, 7(%rsi)
 3958 302c 747F     		je	.L840
 3959 302e 440FB653 		movzbl	24(%rbx), %r10d
 3959      18
 3960 3033 4983F809 		cmpq	$9, %r8
 3961 3037 488D4E09 		leaq	9(%rsi), %rcx
 3962 303b 44885608 		movb	%r10b, 8(%rsi)
 3963 303f 746C     		je	.L840
 3964 3041 440FB653 		movzbl	24(%rbx), %r10d
 3964      18
 3965 3046 4983F80A 		cmpq	$10, %r8
 3966 304a 488D4E0A 		leaq	10(%rsi), %rcx
 3967 304e 44885609 		movb	%r10b, 9(%rsi)
 3968 3052 7459     		je	.L840
 3969 3054 440FB653 		movzbl	24(%rbx), %r10d
 3969      18
 3970 3059 4983F80B 		cmpq	$11, %r8
 3971 305d 488D4E0B 		leaq	11(%rsi), %rcx
 3972 3061 4488560A 		movb	%r10b, 10(%rsi)
 3973 3065 7446     		je	.L840
 3974 3067 440FB653 		movzbl	24(%rbx), %r10d
 3974      18
 3975 306c 4983F80C 		cmpq	$12, %r8
 3976 3070 488D4E0C 		leaq	12(%rsi), %rcx
 3977 3074 4488560B 		movb	%r10b, 11(%rsi)
 3978 3078 7433     		je	.L840
 3979 307a 440FB653 		movzbl	24(%rbx), %r10d
 3979      18
 3980 307f 4983F80D 		cmpq	$13, %r8
 3981 3083 488D4E0D 		leaq	13(%rsi), %rcx
 3982 3087 4488560C 		movb	%r10b, 12(%rsi)
 3983 308b 7420     		je	.L840
 3984 308d 440FB653 		movzbl	24(%rbx), %r10d
 3984      18
 3985 3092 4983F80F 		cmpq	$15, %r8
 3986 3096 488D4E0E 		leaq	14(%rsi), %rcx
 3987 309a 4488560D 		movb	%r10b, 13(%rsi)
 3988 309e 750D     		jne	.L840
 3989 30a0 440FB653 		movzbl	24(%rbx), %r10d
 3989      18
 3990 30a5 488D4E0F 		leaq	15(%rsi), %rcx
 3991 30a9 4488560E 		movb	%r10b, 14(%rsi)
 3992              	.L840:
 3993 30ad 4C89CE   		movq	%r9, %rsi
 3994 30b0 4C29C7   		subq	%r8, %rdi
 3995 30b3 4C29C6   		subq	%r8, %rsi
 3996 30b6 4C8D4EF0 		leaq	-16(%rsi), %r9
 3997 30ba 49C1E904 		shrq	$4, %r9
 3998 30be 4983C101 		addq	$1, %r9
 3999 30c2 4D89CA   		movq	%r9, %r10
 4000 30c5 49C1E204 		salq	$4, %r10
 4001 30c9 4883FF0E 		cmpq	$14, %rdi
 4002 30cd 7640     		jbe	.L842
 4003 30cf 0FB67B18 		movzbl	24(%rbx), %edi
 4004 30d3 4D01E8   		addq	%r13, %r8
 4005 30d6 4C01C0   		addq	%r8, %rax
 4006 30d9 897C240C 		movl	%edi, 12(%rsp)
 4007 30dd 31FF     		xorl	%edi, %edi
 4008 30df 660F6E44 		movd	12(%rsp), %xmm0
 4008      240C
 4009 30e5 660F60C0 		punpcklbw	%xmm0, %xmm0
 4010 30e9 660F61C0 		punpcklwd	%xmm0, %xmm0
 4011 30ed 660F70C0 		pshufd	$0, %xmm0, %xmm0
 4011      00
 4012              	.L843:
 4013 30f2 4883C701 		addq	$1, %rdi
 4014 30f6 4883C010 		addq	$16, %rax
 4015 30fa 0F2940F0 		movaps	%xmm0, -16(%rax)
 4016 30fe 4C39CF   		cmpq	%r9, %rdi
 4017 3101 72EF     		jb	.L843
 4018 3103 4C01D1   		addq	%r10, %rcx
 4019 3106 4C39D6   		cmpq	%r10, %rsi
 4020 3109 0F84FE00 		je	.L848
 4020      0000
 4021              	.L842:
 4022 310f 0FB64318 		movzbl	24(%rbx), %eax
 4023 3113 8801     		movb	%al, (%rcx)
 4024 3115 488D4101 		leaq	1(%rcx), %rax
 4025 3119 4839C5   		cmpq	%rax, %rbp
 4026 311c 0F86EB00 		jbe	.L848
 4026      0000
 4027 3122 0FB64318 		movzbl	24(%rbx), %eax
 4028 3126 884101   		movb	%al, 1(%rcx)
 4029 3129 488D4102 		leaq	2(%rcx), %rax
 4030 312d 4839C5   		cmpq	%rax, %rbp
 4031 3130 0F86D700 		jbe	.L848
 4031      0000
 4032 3136 0FB64318 		movzbl	24(%rbx), %eax
 4033 313a 884102   		movb	%al, 2(%rcx)
 4034 313d 488D4103 		leaq	3(%rcx), %rax
 4035 3141 4839C5   		cmpq	%rax, %rbp
 4036 3144 0F86C300 		jbe	.L848
 4036      0000
 4037 314a 0FB64318 		movzbl	24(%rbx), %eax
 4038 314e 884103   		movb	%al, 3(%rcx)
 4039 3151 488D4104 		leaq	4(%rcx), %rax
 4040 3155 4839C5   		cmpq	%rax, %rbp
 4041 3158 0F86AF00 		jbe	.L848
 4041      0000
 4042 315e 0FB64318 		movzbl	24(%rbx), %eax
 4043 3162 884104   		movb	%al, 4(%rcx)
 4044 3165 488D4105 		leaq	5(%rcx), %rax
 4045 3169 4839C5   		cmpq	%rax, %rbp
 4046 316c 0F869B00 		jbe	.L848
 4046      0000
 4047 3172 0FB64318 		movzbl	24(%rbx), %eax
 4048 3176 884105   		movb	%al, 5(%rcx)
 4049 3179 488D4106 		leaq	6(%rcx), %rax
 4050 317d 4839C5   		cmpq	%rax, %rbp
 4051 3180 0F868700 		jbe	.L848
 4051      0000
 4052 3186 0FB64318 		movzbl	24(%rbx), %eax
 4053 318a 884106   		movb	%al, 6(%rcx)
 4054 318d 488D4107 		leaq	7(%rcx), %rax
 4055 3191 4839C5   		cmpq	%rax, %rbp
 4056 3194 7677     		jbe	.L848
 4057 3196 0FB64318 		movzbl	24(%rbx), %eax
 4058 319a 884107   		movb	%al, 7(%rcx)
 4059 319d 488D4108 		leaq	8(%rcx), %rax
 4060 31a1 4839C5   		cmpq	%rax, %rbp
 4061 31a4 7667     		jbe	.L848
 4062 31a6 0FB64318 		movzbl	24(%rbx), %eax
 4063 31aa 884108   		movb	%al, 8(%rcx)
 4064 31ad 488D4109 		leaq	9(%rcx), %rax
 4065 31b1 4839C5   		cmpq	%rax, %rbp
 4066 31b4 7657     		jbe	.L848
 4067 31b6 0FB64318 		movzbl	24(%rbx), %eax
 4068 31ba 884109   		movb	%al, 9(%rcx)
 4069 31bd 488D410A 		leaq	10(%rcx), %rax
 4070 31c1 4839C5   		cmpq	%rax, %rbp
 4071 31c4 7647     		jbe	.L848
 4072 31c6 0FB64318 		movzbl	24(%rbx), %eax
 4073 31ca 88410A   		movb	%al, 10(%rcx)
 4074 31cd 488D410B 		leaq	11(%rcx), %rax
 4075 31d1 4839C5   		cmpq	%rax, %rbp
 4076 31d4 7637     		jbe	.L848
 4077 31d6 0FB64318 		movzbl	24(%rbx), %eax
 4078 31da 88410B   		movb	%al, 11(%rcx)
 4079 31dd 488D410C 		leaq	12(%rcx), %rax
 4080 31e1 4839C5   		cmpq	%rax, %rbp
 4081 31e4 7627     		jbe	.L848
 4082 31e6 0FB64318 		movzbl	24(%rbx), %eax
 4083 31ea 88410C   		movb	%al, 12(%rcx)
 4084 31ed 488D410D 		leaq	13(%rcx), %rax
 4085 31f1 4839C5   		cmpq	%rax, %rbp
 4086 31f4 7617     		jbe	.L848
 4087 31f6 0FB64318 		movzbl	24(%rbx), %eax
 4088 31fa 88410D   		movb	%al, 13(%rcx)
 4089 31fd 488D410E 		leaq	14(%rcx), %rax
 4090 3201 4839C5   		cmpq	%rax, %rbp
 4091 3204 7607     		jbe	.L848
 4092 3206 0FB64318 		movzbl	24(%rbx), %eax
 4093 320a 88410E   		movb	%al, 14(%rcx)
 4094              	.L848:
 4095 320d 4C8B13   		movq	(%rbx), %r10
 4096 3210 4C8B4B08 		movq	8(%rbx), %r9
 4097 3214 E987F9FF 		jmp	.L834
 4097      FF
 4098 3219 0F1F8000 		.p2align 4,,10
 4098      000000
 4099              		.p2align 3
 4100              	.L1042:
 4101 3220 4983C001 		addq	$1, %r8
 4102              	.L858:
 4103 3224 0FB64B18 		movzbl	24(%rbx), %ecx
 4104 3228 4C39C0   		cmpq	%r8, %rax
 4105 322b 418848FF 		movb	%cl, -1(%r8)
 4106 322f 75EF     		jne	.L1042
 4107 3231 E972FCFF 		jmp	.L859
 4107      FF
 4108 3236 662E0F1F 		.p2align 4,,10
 4108      84000000 
 4108      0000
 4109              		.p2align 3
 4110              	.L864:
 4111 3240 4801ED   		addq	%rbp, %rbp
 4112 3243 4939ED   		cmpq	%rbp, %r13
 4113 3246 77F8     		ja	.L864
 4114 3248 488B3B   		movq	(%rbx), %rdi
 4115 324b 4889EE   		movq	%rbp, %rsi
 4116 324e 8954240C 		movl	%edx, 12(%rsp)
 4117 3252 E8000000 		call	realloc@PLT
 4117      00
 4118 3257 4885C0   		testq	%rax, %rax
 4119 325a 0F845B03 		je	.L865
 4119      0000
 4120 3260 4A8D0C28 		leaq	(%rax,%r13), %rcx
 4121 3264 48896B10 		movq	%rbp, 16(%rbx)
 4122 3268 4801C5   		addq	%rax, %rbp
 4123 326b 488903   		movq	%rax, (%rbx)
 4124 326e 8B54240C 		movl	12(%rsp), %edx
 4125 3272 4839E9   		cmpq	%rbp, %rcx
 4126 3275 0F8300F9 		jnb	.L863
 4126      FFFF
 4127 327b 488D7101 		leaq	1(%rcx), %rsi
 4128 327f 4989E8   		movq	%rbp, %r8
 4129 3282 4C8D5B18 		leaq	24(%rbx), %r11
 4130 3286 4929F0   		subq	%rsi, %r8
 4131 3289 4889F7   		movq	%rsi, %rdi
 4132 328c 4F8D5420 		leaq	3(%r8,%r12), %r10
 4132      03
 4133 3291 4D8D4801 		leaq	1(%r8), %r9
 4134 3295 4901C2   		addq	%rax, %r10
 4135 3298 4D39DA   		cmpq	%r11, %r10
 4136 329b 4C8D5319 		leaq	25(%rbx), %r10
 4137 329f 410F96C3 		setbe	%r11b
 4138 32a3 4C39D1   		cmpq	%r10, %rcx
 4139 32a6 410F93C2 		setnb	%r10b
 4140 32aa 4508D3   		orb	%r10b, %r11b
 4141 32ad 0F845103 		je	.L874
 4141      0000
 4142 32b3 4983F916 		cmpq	$22, %r9
 4143 32b7 0F864703 		jbe	.L874
 4143      0000
 4144 32bd 4889CE   		movq	%rcx, %rsi
 4145 32c0 48F7DE   		negq	%rsi
 4146 32c3 83E60F   		andl	$15, %esi
 4147 32c6 4C39CE   		cmpq	%r9, %rsi
 4148 32c9 490F47F1 		cmova	%r9, %rsi
 4149 32cd 4885F6   		testq	%rsi, %rsi
 4150 32d0 0F843101 		je	.L867
 4150      0000
 4151 32d6 440FB653 		movzbl	24(%rbx), %r10d
 4151      18
 4152 32db 4883FE01 		cmpq	$1, %rsi
 4153 32df 448811   		movb	%r10b, (%rcx)
 4154 32e2 0F841C01 		je	.L868
 4154      0000
 4155 32e8 440FB653 		movzbl	24(%rbx), %r10d
 4155      18
 4156 32ed 4883FE02 		cmpq	$2, %rsi
 4157 32f1 488D7902 		leaq	2(%rcx), %rdi
 4158 32f5 44885101 		movb	%r10b, 1(%rcx)
 4159 32f9 0F840501 		je	.L868
 4159      0000
 4160 32ff 440FB653 		movzbl	24(%rbx), %r10d
 4160      18
 4161 3304 4883FE03 		cmpq	$3, %rsi
 4162 3308 488D7903 		leaq	3(%rcx), %rdi
 4163 330c 44885102 		movb	%r10b, 2(%rcx)
 4164 3310 0F84EE00 		je	.L868
 4164      0000
 4165 3316 440FB653 		movzbl	24(%rbx), %r10d
 4165      18
 4166 331b 4883FE04 		cmpq	$4, %rsi
 4167 331f 488D7904 		leaq	4(%rcx), %rdi
 4168 3323 44885103 		movb	%r10b, 3(%rcx)
 4169 3327 0F84D700 		je	.L868
 4169      0000
 4170 332d 440FB653 		movzbl	24(%rbx), %r10d
 4170      18
 4171 3332 4883FE05 		cmpq	$5, %rsi
 4172 3336 488D7905 		leaq	5(%rcx), %rdi
 4173 333a 44885104 		movb	%r10b, 4(%rcx)
 4174 333e 0F84C000 		je	.L868
 4174      0000
 4175 3344 440FB653 		movzbl	24(%rbx), %r10d
 4175      18
 4176 3349 4883FE06 		cmpq	$6, %rsi
 4177 334d 488D7906 		leaq	6(%rcx), %rdi
 4178 3351 44885105 		movb	%r10b, 5(%rcx)
 4179 3355 0F84A900 		je	.L868
 4179      0000
 4180 335b 440FB653 		movzbl	24(%rbx), %r10d
 4180      18
 4181 3360 4883FE07 		cmpq	$7, %rsi
 4182 3364 488D7907 		leaq	7(%rcx), %rdi
 4183 3368 44885106 		movb	%r10b, 6(%rcx)
 4184 336c 0F849200 		je	.L868
 4184      0000
 4185 3372 440FB653 		movzbl	24(%rbx), %r10d
 4185      18
 4186 3377 4883FE08 		cmpq	$8, %rsi
 4187 337b 488D7908 		leaq	8(%rcx), %rdi
 4188 337f 44885107 		movb	%r10b, 7(%rcx)
 4189 3383 747F     		je	.L868
 4190 3385 440FB653 		movzbl	24(%rbx), %r10d
 4190      18
 4191 338a 4883FE09 		cmpq	$9, %rsi
 4192 338e 488D7909 		leaq	9(%rcx), %rdi
 4193 3392 44885108 		movb	%r10b, 8(%rcx)
 4194 3396 746C     		je	.L868
 4195 3398 440FB653 		movzbl	24(%rbx), %r10d
 4195      18
 4196 339d 4883FE0A 		cmpq	$10, %rsi
 4197 33a1 488D790A 		leaq	10(%rcx), %rdi
 4198 33a5 44885109 		movb	%r10b, 9(%rcx)
 4199 33a9 7459     		je	.L868
 4200 33ab 440FB653 		movzbl	24(%rbx), %r10d
 4200      18
 4201 33b0 4883FE0B 		cmpq	$11, %rsi
 4202 33b4 488D790B 		leaq	11(%rcx), %rdi
 4203 33b8 4488510A 		movb	%r10b, 10(%rcx)
 4204 33bc 7446     		je	.L868
 4205 33be 440FB653 		movzbl	24(%rbx), %r10d
 4205      18
 4206 33c3 4883FE0C 		cmpq	$12, %rsi
 4207 33c7 488D790C 		leaq	12(%rcx), %rdi
 4208 33cb 4488510B 		movb	%r10b, 11(%rcx)
 4209 33cf 7433     		je	.L868
 4210 33d1 440FB653 		movzbl	24(%rbx), %r10d
 4210      18
 4211 33d6 4883FE0D 		cmpq	$13, %rsi
 4212 33da 488D790D 		leaq	13(%rcx), %rdi
 4213 33de 4488510C 		movb	%r10b, 12(%rcx)
 4214 33e2 7420     		je	.L868
 4215 33e4 440FB653 		movzbl	24(%rbx), %r10d
 4215      18
 4216 33e9 4883FE0F 		cmpq	$15, %rsi
 4217 33ed 488D790E 		leaq	14(%rcx), %rdi
 4218 33f1 4488510D 		movb	%r10b, 13(%rcx)
 4219 33f5 750D     		jne	.L868
 4220 33f7 440FB653 		movzbl	24(%rbx), %r10d
 4220      18
 4221 33fc 488D790F 		leaq	15(%rcx), %rdi
 4222 3400 4488510E 		movb	%r10b, 14(%rcx)
 4223              	.L868:
 4224 3404 4889F9   		movq	%rdi, %rcx
 4225              	.L867:
 4226 3407 4C89CF   		movq	%r9, %rdi
 4227 340a 4929F0   		subq	%rsi, %r8
 4228 340d 4829F7   		subq	%rsi, %rdi
 4229 3410 4C8D4FF0 		leaq	-16(%rdi), %r9
 4230 3414 49C1E904 		shrq	$4, %r9
 4231 3418 4983C101 		addq	$1, %r9
 4232 341c 4D89CA   		movq	%r9, %r10
 4233 341f 49C1E204 		salq	$4, %r10
 4234 3423 4983F80E 		cmpq	$14, %r8
 4235 3427 7642     		jbe	.L869
 4236 3429 440FB643 		movzbl	24(%rbx), %r8d
 4236      18
 4237 342e 4C01EE   		addq	%r13, %rsi
 4238 3431 4801F0   		addq	%rsi, %rax
 4239 3434 31F6     		xorl	%esi, %esi
 4240 3436 44894424 		movl	%r8d, 12(%rsp)
 4240      0C
 4241 343b 660F6E44 		movd	12(%rsp), %xmm0
 4241      240C
 4242 3441 660F60C0 		punpcklbw	%xmm0, %xmm0
 4243 3445 660F61C0 		punpcklwd	%xmm0, %xmm0
 4244 3449 660F70C0 		pshufd	$0, %xmm0, %xmm0
 4244      00
 4245              	.L870:
 4246 344e 4883C601 		addq	$1, %rsi
 4247 3452 4883C010 		addq	$16, %rax
 4248 3456 0F2940F0 		movaps	%xmm0, -16(%rax)
 4249 345a 4C39CE   		cmpq	%r9, %rsi
 4250 345d 72EF     		jb	.L870
 4251 345f 4C01D1   		addq	%r10, %rcx
 4252 3462 4C39D7   		cmpq	%r10, %rdi
 4253 3465 0F840DF7 		je	.L875
 4253      FFFF
 4254              	.L869:
 4255 346b 0FB64318 		movzbl	24(%rbx), %eax
 4256 346f 8801     		movb	%al, (%rcx)
 4257 3471 488D4101 		leaq	1(%rcx), %rax
 4258 3475 4839C5   		cmpq	%rax, %rbp
 4259 3478 0F86FAF6 		jbe	.L875
 4259      FFFF
 4260 347e 0FB64318 		movzbl	24(%rbx), %eax
 4261 3482 884101   		movb	%al, 1(%rcx)
 4262 3485 488D4102 		leaq	2(%rcx), %rax
 4263 3489 4839C5   		cmpq	%rax, %rbp
 4264 348c 0F86E6F6 		jbe	.L875
 4264      FFFF
 4265 3492 0FB64318 		movzbl	24(%rbx), %eax
 4266 3496 884102   		movb	%al, 2(%rcx)
 4267 3499 488D4103 		leaq	3(%rcx), %rax
 4268 349d 4839C5   		cmpq	%rax, %rbp
 4269 34a0 0F86D2F6 		jbe	.L875
 4269      FFFF
 4270 34a6 0FB64318 		movzbl	24(%rbx), %eax
 4271 34aa 884103   		movb	%al, 3(%rcx)
 4272 34ad 488D4104 		leaq	4(%rcx), %rax
 4273 34b1 4839C5   		cmpq	%rax, %rbp
 4274 34b4 0F86BEF6 		jbe	.L875
 4274      FFFF
 4275 34ba 0FB64318 		movzbl	24(%rbx), %eax
 4276 34be 884104   		movb	%al, 4(%rcx)
 4277 34c1 488D4105 		leaq	5(%rcx), %rax
 4278 34c5 4839C5   		cmpq	%rax, %rbp
 4279 34c8 0F86AAF6 		jbe	.L875
 4279      FFFF
 4280 34ce 0FB64318 		movzbl	24(%rbx), %eax
 4281 34d2 884105   		movb	%al, 5(%rcx)
 4282 34d5 488D4106 		leaq	6(%rcx), %rax
 4283 34d9 4839C5   		cmpq	%rax, %rbp
 4284 34dc 0F8696F6 		jbe	.L875
 4284      FFFF
 4285 34e2 0FB64318 		movzbl	24(%rbx), %eax
 4286 34e6 884106   		movb	%al, 6(%rcx)
 4287 34e9 488D4107 		leaq	7(%rcx), %rax
 4288 34ed 4839C5   		cmpq	%rax, %rbp
 4289 34f0 0F8682F6 		jbe	.L875
 4289      FFFF
 4290 34f6 0FB64318 		movzbl	24(%rbx), %eax
 4291 34fa 884107   		movb	%al, 7(%rcx)
 4292 34fd 488D4108 		leaq	8(%rcx), %rax
 4293 3501 4839C5   		cmpq	%rax, %rbp
 4294 3504 0F866EF6 		jbe	.L875
 4294      FFFF
 4295 350a 0FB64318 		movzbl	24(%rbx), %eax
 4296 350e 884108   		movb	%al, 8(%rcx)
 4297 3511 488D4109 		leaq	9(%rcx), %rax
 4298 3515 4839C5   		cmpq	%rax, %rbp
 4299 3518 0F865AF6 		jbe	.L875
 4299      FFFF
 4300 351e 0FB64318 		movzbl	24(%rbx), %eax
 4301 3522 884109   		movb	%al, 9(%rcx)
 4302 3525 488D410A 		leaq	10(%rcx), %rax
 4303 3529 4839C5   		cmpq	%rax, %rbp
 4304 352c 0F8646F6 		jbe	.L875
 4304      FFFF
 4305 3532 0FB64318 		movzbl	24(%rbx), %eax
 4306 3536 88410A   		movb	%al, 10(%rcx)
 4307 3539 488D410B 		leaq	11(%rcx), %rax
 4308 353d 4839C5   		cmpq	%rax, %rbp
 4309 3540 0F8632F6 		jbe	.L875
 4309      FFFF
 4310 3546 0FB64318 		movzbl	24(%rbx), %eax
 4311 354a 88410B   		movb	%al, 11(%rcx)
 4312 354d 488D410C 		leaq	12(%rcx), %rax
 4313 3551 4839C5   		cmpq	%rax, %rbp
 4314 3554 0F861EF6 		jbe	.L875
 4314      FFFF
 4315 355a 0FB64318 		movzbl	24(%rbx), %eax
 4316 355e 88410C   		movb	%al, 12(%rcx)
 4317 3561 488D410D 		leaq	13(%rcx), %rax
 4318 3565 4839C5   		cmpq	%rax, %rbp
 4319 3568 0F860AF6 		jbe	.L875
 4319      FFFF
 4320 356e 0FB64318 		movzbl	24(%rbx), %eax
 4321 3572 88410D   		movb	%al, 13(%rcx)
 4322 3575 488D410E 		leaq	14(%rcx), %rax
 4323 3579 4839C5   		cmpq	%rax, %rbp
 4324 357c 0F86F6F5 		jbe	.L875
 4324      FFFF
 4325 3582 0FB64318 		movzbl	24(%rbx), %eax
 4326 3586 88410E   		movb	%al, 14(%rcx)
 4327 3589 E9EAF5FF 		jmp	.L875
 4327      FF
 4328 358e 6690     		.p2align 4,,10
 4329              		.p2align 3
 4330              	.L1043:
 4331 3590 4983C001 		addq	$1, %r8
 4332              	.L847:
 4333 3594 0FB64318 		movzbl	24(%rbx), %eax
 4334 3598 4C39C5   		cmpq	%r8, %rbp
 4335 359b 418840FF 		movb	%al, -1(%r8)
 4336 359f 75EF     		jne	.L1043
 4337 35a1 E967FCFF 		jmp	.L848
 4337      FF
 4338 35a6 662E0F1F 		.p2align 4,,10
 4338      84000000 
 4338      0000
 4339              		.p2align 3
 4340              	.L861:
 4341 35b0 4889F0   		movq	%rsi, %rax
 4342 35b3 480307   		addq	(%rdi), %rax
 4343 35b6 E9F7F8FF 		jmp	.L860
 4343      FF
 4344              	.L865:
 4345 35bb 488D3500 		leaq	.LC7(%rip), %rsi
 4345      000000
 4346 35c2 4C89F7   		movq	%r14, %rdi
 4347 35c5 E8000000 		call	errPrefix@PLT
 4347      00
 4348 35ca 488D3500 		leaq	.LC22(%rip), %rsi
 4348      000000
 4349 35d1 4C89F7   		movq	%r14, %rdi
 4350 35d4 E8000000 		call	errPrefix@PLT
 4350      00
 4351 35d9 488D3500 		leaq	.LC25(%rip), %rsi
 4351      000000
 4352 35e0 4C89F7   		movq	%r14, %rdi
 4353 35e3 E8000000 		call	errPrefix@PLT
 4353      00
 4354 35e8 B8010000 		movl	$1, %eax
 4354      00
 4355 35ed E9CFF8FF 		jmp	.L837
 4355      FF
 4356              		.p2align 4,,10
 4357 35f2 660F1F44 		.p2align 3
 4357      0000
 4358              	.L879:
 4359 35f8 4889F1   		movq	%rsi, %rcx
 4360 35fb E93AF7FF 		jmp	.L851
 4360      FF
 4361              		.p2align 4,,10
 4362              		.p2align 3
 4363              	.L1044:
 4364 3600 4883C601 		addq	$1, %rsi
 4365              	.L874:
 4366 3604 0FB64318 		movzbl	24(%rbx), %eax
 4367 3608 4839F5   		cmpq	%rsi, %rbp
 4368 360b 8846FF   		movb	%al, -1(%rsi)
 4369 360e 75F0     		jne	.L1044
 4370 3610 E963F5FF 		jmp	.L875
 4370      FF
 4371              		.p2align 4,,10
 4372 3615 0F1F00   		.p2align 3
 4373              	.L877:
 4374 3618 4889F1   		movq	%rsi, %rcx
 4375 361b E98DFAFF 		jmp	.L840
 4375      FF
 4376              	.L1041:
 4377 3620 4C8B4B08 		movq	8(%rbx), %r9
 4378 3624 4989C2   		movq	%rax, %r10
 4379 3627 E974F5FF 		jmp	.L834
 4379      FF
 4380              	.L1040:
 4381 362c E8000000 		call	__stack_chk_fail@PLT
 4381      00
 4382              		.cfi_endproc
 4383              	.LFE62:
 4385              		.section	.text.unlikely
 4386              	.LCOLDE26:
 4387              		.text
 4388              	.LHOTE26:
 4389              		.section	.rodata.str1.1
 4390              	.LC27:
 4391 00ac 62756657 		.string	"bufWriteWordBE()"
 4391      72697465 
 4391      576F7264 
 4391      42452829 
 4391      00
 4392              		.section	.text.unlikely
 4393              	.LCOLDB28:
 4394              		.text
 4395              	.LHOTB28:
 4396 3631 0F1F4400 		.p2align 4,,15
 4396      00662E0F 
 4396      1F840000 
 4396      000000
 4397              		.globl	bufWriteWordBE
 4399              	bufWriteWordBE:
 4400              	.LFB63:
 4401              		.cfi_startproc
 4402 3640 4156     		pushq	%r14
 4403              		.cfi_def_cfa_offset 16
 4404              		.cfi_offset 14, -16
 4405 3642 4155     		pushq	%r13
 4406              		.cfi_def_cfa_offset 24
 4407              		.cfi_offset 13, -24
 4408 3644 4989CE   		movq	%rcx, %r14
 4409 3647 4154     		pushq	%r12
 4410              		.cfi_def_cfa_offset 32
 4411              		.cfi_offset 12, -32
 4412 3649 55       		pushq	%rbp
 4413              		.cfi_def_cfa_offset 40
 4414              		.cfi_offset 6, -40
 4415 364a 4989F4   		movq	%rsi, %r12
 4416 364d 53       		pushq	%rbx
 4417              		.cfi_def_cfa_offset 48
 4418              		.cfi_offset 3, -48
 4419 364e 4C8D6E02 		leaq	2(%rsi), %r13
 4420 3652 4889FB   		movq	%rdi, %rbx
 4421 3655 4883EC20 		subq	$32, %rsp
 4422              		.cfi_def_cfa_offset 80
 4423 3659 4C8B4F08 		movq	8(%rdi), %r9
 4424 365d 64488B04 		movq	%fs:40, %rax
 4424      25280000 
 4424      00
 4425 3666 48894424 		movq	%rax, 24(%rsp)
 4425      18
 4426 366b 31C0     		xorl	%eax, %eax
 4427 366d 4C39CE   		cmpq	%r9, %rsi
 4428 3670 732E     		jnb	.L1253
 4429 3672 4D39CD   		cmpq	%r9, %r13
 4430 3675 0F86450A 		jbe	.L1075
 4430      0000
 4431 367b 488B6F10 		movq	16(%rdi), %rbp
 4432 367f 4939ED   		cmpq	%rbp, %r13
 4433 3682 0F87C806 		ja	.L1078
 4433      0000
 4434              	.L1089:
 4435 3688 488B03   		movq	(%rbx), %rax
 4436              	.L1077:
 4437 368b 4C896B08 		movq	%r13, 8(%rbx)
 4438 368f 4C01E0   		addq	%r12, %rax
 4439 3692 E92B0300 		jmp	.L1074
 4439      00
 4440 3697 660F1F84 		.p2align 4,,10
 4440      00000000 
 4440      00
 4441              		.p2align 3
 4442              	.L1253:
 4443 36a0 488B6F10 		movq	16(%rdi), %rbp
 4444 36a4 4939ED   		cmpq	%rbp, %r13
 4445 36a7 0F874B03 		ja	.L1049
 4445      0000
 4446 36ad 4C8B17   		movq	(%rdi), %r10
 4447              	.L1048:
 4448 36b0 4B8D340A 		leaq	(%r10,%r9), %rsi
 4449 36b4 4B8D0422 		leaq	(%r10,%r12), %rax
 4450 36b8 4839C6   		cmpq	%rax, %rsi
 4451 36bb 0F83FD02 		jnb	.L1063
 4451      0000
 4452 36c1 4C8D4601 		leaq	1(%rsi), %r8
 4453 36c5 4989C6   		movq	%rax, %r14
 4454 36c8 488D6B18 		leaq	24(%rbx), %rbp
 4455 36cc 4D29C6   		subq	%r8, %r14
 4456 36cf 4C89C1   		movq	%r8, %rcx
 4457 36d2 4B8D7C31 		leaq	1(%r9,%r14), %rdi
 4457      01
 4458 36d7 4D8D5E01 		leaq	1(%r14), %r11
 4459 36db 4C01D7   		addq	%r10, %rdi
 4460 36de 4839FD   		cmpq	%rdi, %rbp
 4461 36e1 488D7B19 		leaq	25(%rbx), %rdi
 4462 36e5 400F93C5 		setnb	%bpl
 4463 36e9 4839FE   		cmpq	%rdi, %rsi
 4464 36ec 400F93C7 		setnb	%dil
 4465 36f0 4008FD   		orb	%dil, %bpl
 4466 36f3 0F843B06 		je	.L1072
 4466      0000
 4467 36f9 4983FB16 		cmpq	$22, %r11
 4468 36fd 0F863106 		jbe	.L1072
 4468      0000
 4469 3703 4889F7   		movq	%rsi, %rdi
 4470 3706 48F7DF   		negq	%rdi
 4471 3709 83E70F   		andl	$15, %edi
 4472 370c 4C39DF   		cmpq	%r11, %rdi
 4473 370f 490F47FB 		cmova	%r11, %rdi
 4474 3713 4885FF   		testq	%rdi, %rdi
 4475 3716 0F84EC09 		je	.L1093
 4475      0000
 4476 371c 440FB643 		movzbl	24(%rbx), %r8d
 4476      18
 4477 3721 4883FF01 		cmpq	$1, %rdi
 4478 3725 448806   		movb	%r8b, (%rsi)
 4479 3728 0F841C01 		je	.L1065
 4479      0000
 4480 372e 440FB643 		movzbl	24(%rbx), %r8d
 4480      18
 4481 3733 4883FF02 		cmpq	$2, %rdi
 4482 3737 488D4E02 		leaq	2(%rsi), %rcx
 4483 373b 44884601 		movb	%r8b, 1(%rsi)
 4484 373f 0F840501 		je	.L1065
 4484      0000
 4485 3745 440FB643 		movzbl	24(%rbx), %r8d
 4485      18
 4486 374a 4883FF03 		cmpq	$3, %rdi
 4487 374e 488D4E03 		leaq	3(%rsi), %rcx
 4488 3752 44884602 		movb	%r8b, 2(%rsi)
 4489 3756 0F84EE00 		je	.L1065
 4489      0000
 4490 375c 440FB643 		movzbl	24(%rbx), %r8d
 4490      18
 4491 3761 4883FF04 		cmpq	$4, %rdi
 4492 3765 488D4E04 		leaq	4(%rsi), %rcx
 4493 3769 44884603 		movb	%r8b, 3(%rsi)
 4494 376d 0F84D700 		je	.L1065
 4494      0000
 4495 3773 440FB643 		movzbl	24(%rbx), %r8d
 4495      18
 4496 3778 4883FF05 		cmpq	$5, %rdi
 4497 377c 488D4E05 		leaq	5(%rsi), %rcx
 4498 3780 44884604 		movb	%r8b, 4(%rsi)
 4499 3784 0F84C000 		je	.L1065
 4499      0000
 4500 378a 440FB643 		movzbl	24(%rbx), %r8d
 4500      18
 4501 378f 4883FF06 		cmpq	$6, %rdi
 4502 3793 488D4E06 		leaq	6(%rsi), %rcx
 4503 3797 44884605 		movb	%r8b, 5(%rsi)
 4504 379b 0F84A900 		je	.L1065
 4504      0000
 4505 37a1 440FB643 		movzbl	24(%rbx), %r8d
 4505      18
 4506 37a6 4883FF07 		cmpq	$7, %rdi
 4507 37aa 488D4E07 		leaq	7(%rsi), %rcx
 4508 37ae 44884606 		movb	%r8b, 6(%rsi)
 4509 37b2 0F849200 		je	.L1065
 4509      0000
 4510 37b8 440FB643 		movzbl	24(%rbx), %r8d
 4510      18
 4511 37bd 4883FF08 		cmpq	$8, %rdi
 4512 37c1 488D4E08 		leaq	8(%rsi), %rcx
 4513 37c5 44884607 		movb	%r8b, 7(%rsi)
 4514 37c9 747F     		je	.L1065
 4515 37cb 440FB643 		movzbl	24(%rbx), %r8d
 4515      18
 4516 37d0 4883FF09 		cmpq	$9, %rdi
 4517 37d4 488D4E09 		leaq	9(%rsi), %rcx
 4518 37d8 44884608 		movb	%r8b, 8(%rsi)
 4519 37dc 746C     		je	.L1065
 4520 37de 440FB643 		movzbl	24(%rbx), %r8d
 4520      18
 4521 37e3 4883FF0A 		cmpq	$10, %rdi
 4522 37e7 488D4E0A 		leaq	10(%rsi), %rcx
 4523 37eb 44884609 		movb	%r8b, 9(%rsi)
 4524 37ef 7459     		je	.L1065
 4525 37f1 440FB643 		movzbl	24(%rbx), %r8d
 4525      18
 4526 37f6 4883FF0B 		cmpq	$11, %rdi
 4527 37fa 488D4E0B 		leaq	11(%rsi), %rcx
 4528 37fe 4488460A 		movb	%r8b, 10(%rsi)
 4529 3802 7446     		je	.L1065
 4530 3804 440FB643 		movzbl	24(%rbx), %r8d
 4530      18
 4531 3809 4883FF0C 		cmpq	$12, %rdi
 4532 380d 488D4E0C 		leaq	12(%rsi), %rcx
 4533 3811 4488460B 		movb	%r8b, 11(%rsi)
 4534 3815 7433     		je	.L1065
 4535 3817 440FB643 		movzbl	24(%rbx), %r8d
 4535      18
 4536 381c 4883FF0D 		cmpq	$13, %rdi
 4537 3820 488D4E0D 		leaq	13(%rsi), %rcx
 4538 3824 4488460C 		movb	%r8b, 12(%rsi)
 4539 3828 7420     		je	.L1065
 4540 382a 440FB643 		movzbl	24(%rbx), %r8d
 4540      18
 4541 382f 4883FF0F 		cmpq	$15, %rdi
 4542 3833 488D4E0E 		leaq	14(%rsi), %rcx
 4543 3837 4488460D 		movb	%r8b, 13(%rsi)
 4544 383b 750D     		jne	.L1065
 4545 383d 440FB643 		movzbl	24(%rbx), %r8d
 4545      18
 4546 3842 488D4E0F 		leaq	15(%rsi), %rcx
 4547 3846 4488460E 		movb	%r8b, 14(%rsi)
 4548              	.L1065:
 4549 384a 4929FB   		subq	%rdi, %r11
 4550 384d 4929FE   		subq	%rdi, %r14
 4551 3850 4D89D8   		movq	%r11, %r8
 4552 3853 4D8D5BF0 		leaq	-16(%r11), %r11
 4553 3857 49C1EB04 		shrq	$4, %r11
 4554 385b 4983C301 		addq	$1, %r11
 4555 385f 4C89DD   		movq	%r11, %rbp
 4556 3862 48C1E504 		salq	$4, %rbp
 4557 3866 4983FE0E 		cmpq	$14, %r14
 4558 386a 7640     		jbe	.L1067
 4559 386c 0FB67318 		movzbl	24(%rbx), %esi
 4560 3870 4C01CF   		addq	%r9, %rdi
 4561 3873 4C01D7   		addq	%r10, %rdi
 4562 3876 8974240C 		movl	%esi, 12(%rsp)
 4563 387a 31F6     		xorl	%esi, %esi
 4564 387c 660F6E44 		movd	12(%rsp), %xmm0
 4564      240C
 4565 3882 660F60C0 		punpcklbw	%xmm0, %xmm0
 4566 3886 660F61C0 		punpcklwd	%xmm0, %xmm0
 4567 388a 660F70C0 		pshufd	$0, %xmm0, %xmm0
 4567      00
 4568              	.L1068:
 4569 388f 4883C601 		addq	$1, %rsi
 4570 3893 4883C710 		addq	$16, %rdi
 4571 3897 0F2947F0 		movaps	%xmm0, -16(%rdi)
 4572 389b 4939F3   		cmpq	%rsi, %r11
 4573 389e 77EF     		ja	.L1068
 4574 38a0 4801E9   		addq	%rbp, %rcx
 4575 38a3 4939E8   		cmpq	%rbp, %r8
 4576 38a6 0F840C01 		je	.L1073
 4576      0000
 4577              	.L1067:
 4578 38ac 0FB67318 		movzbl	24(%rbx), %esi
 4579 38b0 408831   		movb	%sil, (%rcx)
 4580 38b3 488D7101 		leaq	1(%rcx), %rsi
 4581 38b7 4839F0   		cmpq	%rsi, %rax
 4582 38ba 0F86F800 		jbe	.L1073
 4582      0000
 4583 38c0 0FB67318 		movzbl	24(%rbx), %esi
 4584 38c4 40887101 		movb	%sil, 1(%rcx)
 4585 38c8 488D7102 		leaq	2(%rcx), %rsi
 4586 38cc 4839F0   		cmpq	%rsi, %rax
 4587 38cf 0F86E300 		jbe	.L1073
 4587      0000
 4588 38d5 0FB67318 		movzbl	24(%rbx), %esi
 4589 38d9 40887102 		movb	%sil, 2(%rcx)
 4590 38dd 488D7103 		leaq	3(%rcx), %rsi
 4591 38e1 4839F0   		cmpq	%rsi, %rax
 4592 38e4 0F86CE00 		jbe	.L1073
 4592      0000
 4593 38ea 0FB67318 		movzbl	24(%rbx), %esi
 4594 38ee 40887103 		movb	%sil, 3(%rcx)
 4595 38f2 488D7104 		leaq	4(%rcx), %rsi
 4596 38f6 4839F0   		cmpq	%rsi, %rax
 4597 38f9 0F86B900 		jbe	.L1073
 4597      0000
 4598 38ff 0FB67318 		movzbl	24(%rbx), %esi
 4599 3903 40887104 		movb	%sil, 4(%rcx)
 4600 3907 488D7105 		leaq	5(%rcx), %rsi
 4601 390b 4839F0   		cmpq	%rsi, %rax
 4602 390e 0F86A400 		jbe	.L1073
 4602      0000
 4603 3914 0FB67318 		movzbl	24(%rbx), %esi
 4604 3918 40887105 		movb	%sil, 5(%rcx)
 4605 391c 488D7106 		leaq	6(%rcx), %rsi
 4606 3920 4839F0   		cmpq	%rsi, %rax
 4607 3923 0F868F00 		jbe	.L1073
 4607      0000
 4608 3929 0FB67318 		movzbl	24(%rbx), %esi
 4609 392d 40887106 		movb	%sil, 6(%rcx)
 4610 3931 488D7107 		leaq	7(%rcx), %rsi
 4611 3935 4839F0   		cmpq	%rsi, %rax
 4612 3938 767E     		jbe	.L1073
 4613 393a 0FB67318 		movzbl	24(%rbx), %esi
 4614 393e 40887107 		movb	%sil, 7(%rcx)
 4615 3942 488D7108 		leaq	8(%rcx), %rsi
 4616 3946 4839F0   		cmpq	%rsi, %rax
 4617 3949 766D     		jbe	.L1073
 4618 394b 0FB67318 		movzbl	24(%rbx), %esi
 4619 394f 40887108 		movb	%sil, 8(%rcx)
 4620 3953 488D7109 		leaq	9(%rcx), %rsi
 4621 3957 4839F0   		cmpq	%rsi, %rax
 4622 395a 765C     		jbe	.L1073
 4623 395c 0FB67318 		movzbl	24(%rbx), %esi
 4624 3960 40887109 		movb	%sil, 9(%rcx)
 4625 3964 488D710A 		leaq	10(%rcx), %rsi
 4626 3968 4839F0   		cmpq	%rsi, %rax
 4627 396b 764B     		jbe	.L1073
 4628 396d 0FB67318 		movzbl	24(%rbx), %esi
 4629 3971 4088710A 		movb	%sil, 10(%rcx)
 4630 3975 488D710B 		leaq	11(%rcx), %rsi
 4631 3979 4839F0   		cmpq	%rsi, %rax
 4632 397c 763A     		jbe	.L1073
 4633 397e 0FB67318 		movzbl	24(%rbx), %esi
 4634 3982 4088710B 		movb	%sil, 11(%rcx)
 4635 3986 488D710C 		leaq	12(%rcx), %rsi
 4636 398a 4839F0   		cmpq	%rsi, %rax
 4637 398d 7629     		jbe	.L1073
 4638 398f 0FB67318 		movzbl	24(%rbx), %esi
 4639 3993 4088710C 		movb	%sil, 12(%rcx)
 4640 3997 488D710D 		leaq	13(%rcx), %rsi
 4641 399b 4839F0   		cmpq	%rsi, %rax
 4642 399e 7618     		jbe	.L1073
 4643 39a0 0FB67318 		movzbl	24(%rbx), %esi
 4644 39a4 4088710D 		movb	%sil, 13(%rcx)
 4645 39a8 488D710E 		leaq	14(%rcx), %rsi
 4646 39ac 4839F0   		cmpq	%rsi, %rax
 4647 39af 7607     		jbe	.L1073
 4648 39b1 0FB64318 		movzbl	24(%rbx), %eax
 4649 39b5 88410E   		movb	%al, 14(%rcx)
 4650              	.L1073:
 4651 39b8 4C89E0   		movq	%r12, %rax
 4652 39bb 480303   		addq	(%rbx), %rax
 4653              	.L1063:
 4654 39be 4C896B08 		movq	%r13, 8(%rbx)
 4655              	.L1074:
 4656 39c2 0FB6CE   		movzbl	%dh, %ecx
 4657 39c5 8808     		movb	%cl, (%rax)
 4658 39c7 488B03   		movq	(%rbx), %rax
 4659 39ca 42885420 		movb	%dl, 1(%rax,%r12)
 4659      01
 4660 39cf 31C0     		xorl	%eax, %eax
 4661              	.L1051:
 4662 39d1 488B5424 		movq	24(%rsp), %rdx
 4662      18
 4663 39d6 64483314 		xorq	%fs:40, %rdx
 4663      25280000 
 4663      00
 4664 39df 0F855707 		jne	.L1254
 4664      0000
 4665 39e5 4883C420 		addq	$32, %rsp
 4666              		.cfi_remember_state
 4667              		.cfi_def_cfa_offset 48
 4668 39e9 5B       		popq	%rbx
 4669              		.cfi_def_cfa_offset 40
 4670 39ea 5D       		popq	%rbp
 4671              		.cfi_def_cfa_offset 32
 4672 39eb 415C     		popq	%r12
 4673              		.cfi_def_cfa_offset 24
 4674 39ed 415D     		popq	%r13
 4675              		.cfi_def_cfa_offset 16
 4676 39ef 415E     		popq	%r14
 4677              		.cfi_def_cfa_offset 8
 4678 39f1 C3       		ret
 4679              		.p2align 4,,10
 4680 39f2 660F1F44 		.p2align 3
 4680      0000
 4681              	.L1049:
 4682              		.cfi_restore_state
 4683 39f8 4801ED   		addq	%rbp, %rbp
 4684 39fb 4939ED   		cmpq	%rbp, %r13
 4685 39fe 77F8     		ja	.L1049
 4686 3a00 488B3B   		movq	(%rbx), %rdi
 4687 3a03 4889EE   		movq	%rbp, %rsi
 4688 3a06 8954240C 		movl	%edx, 12(%rsp)
 4689 3a0a E8000000 		call	realloc@PLT
 4689      00
 4690 3a0f 4885C0   		testq	%rax, %rax
 4691 3a12 8B54240C 		movl	12(%rsp), %edx
 4692 3a16 0F84AF06 		je	.L1079
 4692      0000
 4693 3a1c 4A8D3428 		leaq	(%rax,%r13), %rsi
 4694 3a20 48896B10 		movq	%rbp, 16(%rbx)
 4695 3a24 4801C5   		addq	%rax, %rbp
 4696 3a27 488903   		movq	%rax, (%rbx)
 4697 3a2a 4839EE   		cmpq	%rbp, %rsi
 4698 3a2d 0F83FD06 		jnb	.L1255
 4698      0000
 4699 3a33 4C8D4601 		leaq	1(%rsi), %r8
 4700 3a37 4889EF   		movq	%rbp, %rdi
 4701 3a3a 4C8D5B18 		leaq	24(%rbx), %r11
 4702 3a3e 4C29C7   		subq	%r8, %rdi
 4703 3a41 4C89C1   		movq	%r8, %rcx
 4704 3a44 4E8D5427 		leaq	3(%rdi,%r12), %r10
 4704      03
 4705 3a49 4C8D4F01 		leaq	1(%rdi), %r9
 4706 3a4d 4901C2   		addq	%rax, %r10
 4707 3a50 4D39DA   		cmpq	%r11, %r10
 4708 3a53 4C8D5319 		leaq	25(%rbx), %r10
 4709 3a57 410F96C3 		setbe	%r11b
 4710 3a5b 4C39D6   		cmpq	%r10, %rsi
 4711 3a5e 410F93C2 		setnb	%r10b
 4712 3a62 4508D3   		orb	%r10b, %r11b
 4713 3a65 0F843906 		je	.L1061
 4713      0000
 4714 3a6b 4983F916 		cmpq	$22, %r9
 4715 3a6f 0F862F06 		jbe	.L1061
 4715      0000
 4716 3a75 4989F0   		movq	%rsi, %r8
 4717 3a78 49F7D8   		negq	%r8
 4718 3a7b 4183E00F 		andl	$15, %r8d
 4719 3a7f 4D39C8   		cmpq	%r9, %r8
 4720 3a82 4D0F47C1 		cmova	%r9, %r8
 4721 3a86 4D85C0   		testq	%r8, %r8
 4722 3a89 0F849906 		je	.L1091
 4722      0000
 4723 3a8f 440FB653 		movzbl	24(%rbx), %r10d
 4723      18
 4724 3a94 4983F801 		cmpq	$1, %r8
 4725 3a98 448816   		movb	%r10b, (%rsi)
 4726 3a9b 0F841C01 		je	.L1054
 4726      0000
 4727 3aa1 440FB653 		movzbl	24(%rbx), %r10d
 4727      18
 4728 3aa6 4983F802 		cmpq	$2, %r8
 4729 3aaa 488D4E02 		leaq	2(%rsi), %rcx
 4730 3aae 44885601 		movb	%r10b, 1(%rsi)
 4731 3ab2 0F840501 		je	.L1054
 4731      0000
 4732 3ab8 440FB653 		movzbl	24(%rbx), %r10d
 4732      18
 4733 3abd 4983F803 		cmpq	$3, %r8
 4734 3ac1 488D4E03 		leaq	3(%rsi), %rcx
 4735 3ac5 44885602 		movb	%r10b, 2(%rsi)
 4736 3ac9 0F84EE00 		je	.L1054
 4736      0000
 4737 3acf 440FB653 		movzbl	24(%rbx), %r10d
 4737      18
 4738 3ad4 4983F804 		cmpq	$4, %r8
 4739 3ad8 488D4E04 		leaq	4(%rsi), %rcx
 4740 3adc 44885603 		movb	%r10b, 3(%rsi)
 4741 3ae0 0F84D700 		je	.L1054
 4741      0000
 4742 3ae6 440FB653 		movzbl	24(%rbx), %r10d
 4742      18
 4743 3aeb 4983F805 		cmpq	$5, %r8
 4744 3aef 488D4E05 		leaq	5(%rsi), %rcx
 4745 3af3 44885604 		movb	%r10b, 4(%rsi)
 4746 3af7 0F84C000 		je	.L1054
 4746      0000
 4747 3afd 440FB653 		movzbl	24(%rbx), %r10d
 4747      18
 4748 3b02 4983F806 		cmpq	$6, %r8
 4749 3b06 488D4E06 		leaq	6(%rsi), %rcx
 4750 3b0a 44885605 		movb	%r10b, 5(%rsi)
 4751 3b0e 0F84A900 		je	.L1054
 4751      0000
 4752 3b14 440FB653 		movzbl	24(%rbx), %r10d
 4752      18
 4753 3b19 4983F807 		cmpq	$7, %r8
 4754 3b1d 488D4E07 		leaq	7(%rsi), %rcx
 4755 3b21 44885606 		movb	%r10b, 6(%rsi)
 4756 3b25 0F849200 		je	.L1054
 4756      0000
 4757 3b2b 440FB653 		movzbl	24(%rbx), %r10d
 4757      18
 4758 3b30 4983F808 		cmpq	$8, %r8
 4759 3b34 488D4E08 		leaq	8(%rsi), %rcx
 4760 3b38 44885607 		movb	%r10b, 7(%rsi)
 4761 3b3c 747F     		je	.L1054
 4762 3b3e 440FB653 		movzbl	24(%rbx), %r10d
 4762      18
 4763 3b43 4983F809 		cmpq	$9, %r8
 4764 3b47 488D4E09 		leaq	9(%rsi), %rcx
 4765 3b4b 44885608 		movb	%r10b, 8(%rsi)
 4766 3b4f 746C     		je	.L1054
 4767 3b51 440FB653 		movzbl	24(%rbx), %r10d
 4767      18
 4768 3b56 4983F80A 		cmpq	$10, %r8
 4769 3b5a 488D4E0A 		leaq	10(%rsi), %rcx
 4770 3b5e 44885609 		movb	%r10b, 9(%rsi)
 4771 3b62 7459     		je	.L1054
 4772 3b64 440FB653 		movzbl	24(%rbx), %r10d
 4772      18
 4773 3b69 4983F80B 		cmpq	$11, %r8
 4774 3b6d 488D4E0B 		leaq	11(%rsi), %rcx
 4775 3b71 4488560A 		movb	%r10b, 10(%rsi)
 4776 3b75 7446     		je	.L1054
 4777 3b77 440FB653 		movzbl	24(%rbx), %r10d
 4777      18
 4778 3b7c 4983F80C 		cmpq	$12, %r8
 4779 3b80 488D4E0C 		leaq	12(%rsi), %rcx
 4780 3b84 4488560B 		movb	%r10b, 11(%rsi)
 4781 3b88 7433     		je	.L1054
 4782 3b8a 440FB653 		movzbl	24(%rbx), %r10d
 4782      18
 4783 3b8f 4983F80D 		cmpq	$13, %r8
 4784 3b93 488D4E0D 		leaq	13(%rsi), %rcx
 4785 3b97 4488560C 		movb	%r10b, 12(%rsi)
 4786 3b9b 7420     		je	.L1054
 4787 3b9d 440FB653 		movzbl	24(%rbx), %r10d
 4787      18
 4788 3ba2 4983F80F 		cmpq	$15, %r8
 4789 3ba6 488D4E0E 		leaq	14(%rsi), %rcx
 4790 3baa 4488560D 		movb	%r10b, 13(%rsi)
 4791 3bae 750D     		jne	.L1054
 4792 3bb0 440FB653 		movzbl	24(%rbx), %r10d
 4792      18
 4793 3bb5 488D4E0F 		leaq	15(%rsi), %rcx
 4794 3bb9 4488560E 		movb	%r10b, 14(%rsi)
 4795              	.L1054:
 4796 3bbd 4C89CE   		movq	%r9, %rsi
 4797 3bc0 4C29C7   		subq	%r8, %rdi
 4798 3bc3 4C29C6   		subq	%r8, %rsi
 4799 3bc6 4C8D4EF0 		leaq	-16(%rsi), %r9
 4800 3bca 49C1E904 		shrq	$4, %r9
 4801 3bce 4983C101 		addq	$1, %r9
 4802 3bd2 4D89CA   		movq	%r9, %r10
 4803 3bd5 49C1E204 		salq	$4, %r10
 4804 3bd9 4883FF0E 		cmpq	$14, %rdi
 4805 3bdd 7640     		jbe	.L1056
 4806 3bdf 0FB67B18 		movzbl	24(%rbx), %edi
 4807 3be3 4D01E8   		addq	%r13, %r8
 4808 3be6 4C01C0   		addq	%r8, %rax
 4809 3be9 897C240C 		movl	%edi, 12(%rsp)
 4810 3bed 31FF     		xorl	%edi, %edi
 4811 3bef 660F6E44 		movd	12(%rsp), %xmm0
 4811      240C
 4812 3bf5 660F60C0 		punpcklbw	%xmm0, %xmm0
 4813 3bf9 660F61C0 		punpcklwd	%xmm0, %xmm0
 4814 3bfd 660F70C0 		pshufd	$0, %xmm0, %xmm0
 4814      00
 4815              	.L1057:
 4816 3c02 4883C701 		addq	$1, %rdi
 4817 3c06 4883C010 		addq	$16, %rax
 4818 3c0a 0F2940F0 		movaps	%xmm0, -16(%rax)
 4819 3c0e 4C39CF   		cmpq	%r9, %rdi
 4820 3c11 72EF     		jb	.L1057
 4821 3c13 4C01D1   		addq	%r10, %rcx
 4822 3c16 4C39D6   		cmpq	%r10, %rsi
 4823 3c19 0F84FE00 		je	.L1062
 4823      0000
 4824              	.L1056:
 4825 3c1f 0FB64318 		movzbl	24(%rbx), %eax
 4826 3c23 8801     		movb	%al, (%rcx)
 4827 3c25 488D4101 		leaq	1(%rcx), %rax
 4828 3c29 4839C5   		cmpq	%rax, %rbp
 4829 3c2c 0F86EB00 		jbe	.L1062
 4829      0000
 4830 3c32 0FB64318 		movzbl	24(%rbx), %eax
 4831 3c36 884101   		movb	%al, 1(%rcx)
 4832 3c39 488D4102 		leaq	2(%rcx), %rax
 4833 3c3d 4839C5   		cmpq	%rax, %rbp
 4834 3c40 0F86D700 		jbe	.L1062
 4834      0000
 4835 3c46 0FB64318 		movzbl	24(%rbx), %eax
 4836 3c4a 884102   		movb	%al, 2(%rcx)
 4837 3c4d 488D4103 		leaq	3(%rcx), %rax
 4838 3c51 4839C5   		cmpq	%rax, %rbp
 4839 3c54 0F86C300 		jbe	.L1062
 4839      0000
 4840 3c5a 0FB64318 		movzbl	24(%rbx), %eax
 4841 3c5e 884103   		movb	%al, 3(%rcx)
 4842 3c61 488D4104 		leaq	4(%rcx), %rax
 4843 3c65 4839C5   		cmpq	%rax, %rbp
 4844 3c68 0F86AF00 		jbe	.L1062
 4844      0000
 4845 3c6e 0FB64318 		movzbl	24(%rbx), %eax
 4846 3c72 884104   		movb	%al, 4(%rcx)
 4847 3c75 488D4105 		leaq	5(%rcx), %rax
 4848 3c79 4839C5   		cmpq	%rax, %rbp
 4849 3c7c 0F869B00 		jbe	.L1062
 4849      0000
 4850 3c82 0FB64318 		movzbl	24(%rbx), %eax
 4851 3c86 884105   		movb	%al, 5(%rcx)
 4852 3c89 488D4106 		leaq	6(%rcx), %rax
 4853 3c8d 4839C5   		cmpq	%rax, %rbp
 4854 3c90 0F868700 		jbe	.L1062
 4854      0000
 4855 3c96 0FB64318 		movzbl	24(%rbx), %eax
 4856 3c9a 884106   		movb	%al, 6(%rcx)
 4857 3c9d 488D4107 		leaq	7(%rcx), %rax
 4858 3ca1 4839C5   		cmpq	%rax, %rbp
 4859 3ca4 7677     		jbe	.L1062
 4860 3ca6 0FB64318 		movzbl	24(%rbx), %eax
 4861 3caa 884107   		movb	%al, 7(%rcx)
 4862 3cad 488D4108 		leaq	8(%rcx), %rax
 4863 3cb1 4839C5   		cmpq	%rax, %rbp
 4864 3cb4 7667     		jbe	.L1062
 4865 3cb6 0FB64318 		movzbl	24(%rbx), %eax
 4866 3cba 884108   		movb	%al, 8(%rcx)
 4867 3cbd 488D4109 		leaq	9(%rcx), %rax
 4868 3cc1 4839C5   		cmpq	%rax, %rbp
 4869 3cc4 7657     		jbe	.L1062
 4870 3cc6 0FB64318 		movzbl	24(%rbx), %eax
 4871 3cca 884109   		movb	%al, 9(%rcx)
 4872 3ccd 488D410A 		leaq	10(%rcx), %rax
 4873 3cd1 4839C5   		cmpq	%rax, %rbp
 4874 3cd4 7647     		jbe	.L1062
 4875 3cd6 0FB64318 		movzbl	24(%rbx), %eax
 4876 3cda 88410A   		movb	%al, 10(%rcx)
 4877 3cdd 488D410B 		leaq	11(%rcx), %rax
 4878 3ce1 4839C5   		cmpq	%rax, %rbp
 4879 3ce4 7637     		jbe	.L1062
 4880 3ce6 0FB64318 		movzbl	24(%rbx), %eax
 4881 3cea 88410B   		movb	%al, 11(%rcx)
 4882 3ced 488D410C 		leaq	12(%rcx), %rax
 4883 3cf1 4839C5   		cmpq	%rax, %rbp
 4884 3cf4 7627     		jbe	.L1062
 4885 3cf6 0FB64318 		movzbl	24(%rbx), %eax
 4886 3cfa 88410C   		movb	%al, 12(%rcx)
 4887 3cfd 488D410D 		leaq	13(%rcx), %rax
 4888 3d01 4839C5   		cmpq	%rax, %rbp
 4889 3d04 7617     		jbe	.L1062
 4890 3d06 0FB64318 		movzbl	24(%rbx), %eax
 4891 3d0a 88410D   		movb	%al, 13(%rcx)
 4892 3d0d 488D410E 		leaq	14(%rcx), %rax
 4893 3d11 4839C5   		cmpq	%rax, %rbp
 4894 3d14 7607     		jbe	.L1062
 4895 3d16 0FB64318 		movzbl	24(%rbx), %eax
 4896 3d1a 88410E   		movb	%al, 14(%rcx)
 4897              	.L1062:
 4898 3d1d 4C8B13   		movq	(%rbx), %r10
 4899 3d20 4C8B4B08 		movq	8(%rbx), %r9
 4900 3d24 E987F9FF 		jmp	.L1048
 4900      FF
 4901 3d29 0F1F8000 		.p2align 4,,10
 4901      000000
 4902              		.p2align 3
 4903              	.L1256:
 4904 3d30 4983C001 		addq	$1, %r8
 4905              	.L1072:
 4906 3d34 0FB64B18 		movzbl	24(%rbx), %ecx
 4907 3d38 4C39C0   		cmpq	%r8, %rax
 4908 3d3b 418848FF 		movb	%cl, -1(%r8)
 4909 3d3f 75EF     		jne	.L1256
 4910 3d41 E972FCFF 		jmp	.L1073
 4910      FF
 4911 3d46 662E0F1F 		.p2align 4,,10
 4911      84000000 
 4911      0000
 4912              		.p2align 3
 4913              	.L1078:
 4914 3d50 4801ED   		addq	%rbp, %rbp
 4915 3d53 4939ED   		cmpq	%rbp, %r13
 4916 3d56 77F8     		ja	.L1078
 4917 3d58 488B3B   		movq	(%rbx), %rdi
 4918 3d5b 4889EE   		movq	%rbp, %rsi
 4919 3d5e 8954240C 		movl	%edx, 12(%rsp)
 4920 3d62 E8000000 		call	realloc@PLT
 4920      00
 4921 3d67 4885C0   		testq	%rax, %rax
 4922 3d6a 0F845B03 		je	.L1079
 4922      0000
 4923 3d70 4A8D0C28 		leaq	(%rax,%r13), %rcx
 4924 3d74 48896B10 		movq	%rbp, 16(%rbx)
 4925 3d78 4801C5   		addq	%rax, %rbp
 4926 3d7b 488903   		movq	%rax, (%rbx)
 4927 3d7e 8B54240C 		movl	12(%rsp), %edx
 4928 3d82 4839E9   		cmpq	%rbp, %rcx
 4929 3d85 0F8300F9 		jnb	.L1077
 4929      FFFF
 4930 3d8b 488D7101 		leaq	1(%rcx), %rsi
 4931 3d8f 4989E8   		movq	%rbp, %r8
 4932 3d92 4C8D5B18 		leaq	24(%rbx), %r11
 4933 3d96 4929F0   		subq	%rsi, %r8
 4934 3d99 4889F7   		movq	%rsi, %rdi
 4935 3d9c 4F8D5420 		leaq	3(%r8,%r12), %r10
 4935      03
 4936 3da1 4D8D4801 		leaq	1(%r8), %r9
 4937 3da5 4901C2   		addq	%rax, %r10
 4938 3da8 4D39DA   		cmpq	%r11, %r10
 4939 3dab 4C8D5319 		leaq	25(%rbx), %r10
 4940 3daf 410F96C3 		setbe	%r11b
 4941 3db3 4C39D1   		cmpq	%r10, %rcx
 4942 3db6 410F93C2 		setnb	%r10b
 4943 3dba 4508D3   		orb	%r10b, %r11b
 4944 3dbd 0F845103 		je	.L1088
 4944      0000
 4945 3dc3 4983F916 		cmpq	$22, %r9
 4946 3dc7 0F864703 		jbe	.L1088
 4946      0000
 4947 3dcd 4889CE   		movq	%rcx, %rsi
 4948 3dd0 48F7DE   		negq	%rsi
 4949 3dd3 83E60F   		andl	$15, %esi
 4950 3dd6 4C39CE   		cmpq	%r9, %rsi
 4951 3dd9 490F47F1 		cmova	%r9, %rsi
 4952 3ddd 4885F6   		testq	%rsi, %rsi
 4953 3de0 0F843101 		je	.L1081
 4953      0000
 4954 3de6 440FB653 		movzbl	24(%rbx), %r10d
 4954      18
 4955 3deb 4883FE01 		cmpq	$1, %rsi
 4956 3def 448811   		movb	%r10b, (%rcx)
 4957 3df2 0F841C01 		je	.L1082
 4957      0000
 4958 3df8 440FB653 		movzbl	24(%rbx), %r10d
 4958      18
 4959 3dfd 4883FE02 		cmpq	$2, %rsi
 4960 3e01 488D7902 		leaq	2(%rcx), %rdi
 4961 3e05 44885101 		movb	%r10b, 1(%rcx)
 4962 3e09 0F840501 		je	.L1082
 4962      0000
 4963 3e0f 440FB653 		movzbl	24(%rbx), %r10d
 4963      18
 4964 3e14 4883FE03 		cmpq	$3, %rsi
 4965 3e18 488D7903 		leaq	3(%rcx), %rdi
 4966 3e1c 44885102 		movb	%r10b, 2(%rcx)
 4967 3e20 0F84EE00 		je	.L1082
 4967      0000
 4968 3e26 440FB653 		movzbl	24(%rbx), %r10d
 4968      18
 4969 3e2b 4883FE04 		cmpq	$4, %rsi
 4970 3e2f 488D7904 		leaq	4(%rcx), %rdi
 4971 3e33 44885103 		movb	%r10b, 3(%rcx)
 4972 3e37 0F84D700 		je	.L1082
 4972      0000
 4973 3e3d 440FB653 		movzbl	24(%rbx), %r10d
 4973      18
 4974 3e42 4883FE05 		cmpq	$5, %rsi
 4975 3e46 488D7905 		leaq	5(%rcx), %rdi
 4976 3e4a 44885104 		movb	%r10b, 4(%rcx)
 4977 3e4e 0F84C000 		je	.L1082
 4977      0000
 4978 3e54 440FB653 		movzbl	24(%rbx), %r10d
 4978      18
 4979 3e59 4883FE06 		cmpq	$6, %rsi
 4980 3e5d 488D7906 		leaq	6(%rcx), %rdi
 4981 3e61 44885105 		movb	%r10b, 5(%rcx)
 4982 3e65 0F84A900 		je	.L1082
 4982      0000
 4983 3e6b 440FB653 		movzbl	24(%rbx), %r10d
 4983      18
 4984 3e70 4883FE07 		cmpq	$7, %rsi
 4985 3e74 488D7907 		leaq	7(%rcx), %rdi
 4986 3e78 44885106 		movb	%r10b, 6(%rcx)
 4987 3e7c 0F849200 		je	.L1082
 4987      0000
 4988 3e82 440FB653 		movzbl	24(%rbx), %r10d
 4988      18
 4989 3e87 4883FE08 		cmpq	$8, %rsi
 4990 3e8b 488D7908 		leaq	8(%rcx), %rdi
 4991 3e8f 44885107 		movb	%r10b, 7(%rcx)
 4992 3e93 747F     		je	.L1082
 4993 3e95 440FB653 		movzbl	24(%rbx), %r10d
 4993      18
 4994 3e9a 4883FE09 		cmpq	$9, %rsi
 4995 3e9e 488D7909 		leaq	9(%rcx), %rdi
 4996 3ea2 44885108 		movb	%r10b, 8(%rcx)
 4997 3ea6 746C     		je	.L1082
 4998 3ea8 440FB653 		movzbl	24(%rbx), %r10d
 4998      18
 4999 3ead 4883FE0A 		cmpq	$10, %rsi
 5000 3eb1 488D790A 		leaq	10(%rcx), %rdi
 5001 3eb5 44885109 		movb	%r10b, 9(%rcx)
 5002 3eb9 7459     		je	.L1082
 5003 3ebb 440FB653 		movzbl	24(%rbx), %r10d
 5003      18
 5004 3ec0 4883FE0B 		cmpq	$11, %rsi
 5005 3ec4 488D790B 		leaq	11(%rcx), %rdi
 5006 3ec8 4488510A 		movb	%r10b, 10(%rcx)
 5007 3ecc 7446     		je	.L1082
 5008 3ece 440FB653 		movzbl	24(%rbx), %r10d
 5008      18
 5009 3ed3 4883FE0C 		cmpq	$12, %rsi
 5010 3ed7 488D790C 		leaq	12(%rcx), %rdi
 5011 3edb 4488510B 		movb	%r10b, 11(%rcx)
 5012 3edf 7433     		je	.L1082
 5013 3ee1 440FB653 		movzbl	24(%rbx), %r10d
 5013      18
 5014 3ee6 4883FE0D 		cmpq	$13, %rsi
 5015 3eea 488D790D 		leaq	13(%rcx), %rdi
 5016 3eee 4488510C 		movb	%r10b, 12(%rcx)
 5017 3ef2 7420     		je	.L1082
 5018 3ef4 440FB653 		movzbl	24(%rbx), %r10d
 5018      18
 5019 3ef9 4883FE0F 		cmpq	$15, %rsi
 5020 3efd 488D790E 		leaq	14(%rcx), %rdi
 5021 3f01 4488510D 		movb	%r10b, 13(%rcx)
 5022 3f05 750D     		jne	.L1082
 5023 3f07 440FB653 		movzbl	24(%rbx), %r10d
 5023      18
 5024 3f0c 488D790F 		leaq	15(%rcx), %rdi
 5025 3f10 4488510E 		movb	%r10b, 14(%rcx)
 5026              	.L1082:
 5027 3f14 4889F9   		movq	%rdi, %rcx
 5028              	.L1081:
 5029 3f17 4C89CF   		movq	%r9, %rdi
 5030 3f1a 4929F0   		subq	%rsi, %r8
 5031 3f1d 4829F7   		subq	%rsi, %rdi
 5032 3f20 4C8D4FF0 		leaq	-16(%rdi), %r9
 5033 3f24 49C1E904 		shrq	$4, %r9
 5034 3f28 4983C101 		addq	$1, %r9
 5035 3f2c 4D89CA   		movq	%r9, %r10
 5036 3f2f 49C1E204 		salq	$4, %r10
 5037 3f33 4983F80E 		cmpq	$14, %r8
 5038 3f37 7642     		jbe	.L1083
 5039 3f39 440FB643 		movzbl	24(%rbx), %r8d
 5039      18
 5040 3f3e 4C01EE   		addq	%r13, %rsi
 5041 3f41 4801F0   		addq	%rsi, %rax
 5042 3f44 31F6     		xorl	%esi, %esi
 5043 3f46 44894424 		movl	%r8d, 12(%rsp)
 5043      0C
 5044 3f4b 660F6E44 		movd	12(%rsp), %xmm0
 5044      240C
 5045 3f51 660F60C0 		punpcklbw	%xmm0, %xmm0
 5046 3f55 660F61C0 		punpcklwd	%xmm0, %xmm0
 5047 3f59 660F70C0 		pshufd	$0, %xmm0, %xmm0
 5047      00
 5048              	.L1084:
 5049 3f5e 4883C601 		addq	$1, %rsi
 5050 3f62 4883C010 		addq	$16, %rax
 5051 3f66 0F2940F0 		movaps	%xmm0, -16(%rax)
 5052 3f6a 4C39CE   		cmpq	%r9, %rsi
 5053 3f6d 72EF     		jb	.L1084
 5054 3f6f 4C01D1   		addq	%r10, %rcx
 5055 3f72 4C39D7   		cmpq	%r10, %rdi
 5056 3f75 0F840DF7 		je	.L1089
 5056      FFFF
 5057              	.L1083:
 5058 3f7b 0FB64318 		movzbl	24(%rbx), %eax
 5059 3f7f 8801     		movb	%al, (%rcx)
 5060 3f81 488D4101 		leaq	1(%rcx), %rax
 5061 3f85 4839C5   		cmpq	%rax, %rbp
 5062 3f88 0F86FAF6 		jbe	.L1089
 5062      FFFF
 5063 3f8e 0FB64318 		movzbl	24(%rbx), %eax
 5064 3f92 884101   		movb	%al, 1(%rcx)
 5065 3f95 488D4102 		leaq	2(%rcx), %rax
 5066 3f99 4839C5   		cmpq	%rax, %rbp
 5067 3f9c 0F86E6F6 		jbe	.L1089
 5067      FFFF
 5068 3fa2 0FB64318 		movzbl	24(%rbx), %eax
 5069 3fa6 884102   		movb	%al, 2(%rcx)
 5070 3fa9 488D4103 		leaq	3(%rcx), %rax
 5071 3fad 4839C5   		cmpq	%rax, %rbp
 5072 3fb0 0F86D2F6 		jbe	.L1089
 5072      FFFF
 5073 3fb6 0FB64318 		movzbl	24(%rbx), %eax
 5074 3fba 884103   		movb	%al, 3(%rcx)
 5075 3fbd 488D4104 		leaq	4(%rcx), %rax
 5076 3fc1 4839C5   		cmpq	%rax, %rbp
 5077 3fc4 0F86BEF6 		jbe	.L1089
 5077      FFFF
 5078 3fca 0FB64318 		movzbl	24(%rbx), %eax
 5079 3fce 884104   		movb	%al, 4(%rcx)
 5080 3fd1 488D4105 		leaq	5(%rcx), %rax
 5081 3fd5 4839C5   		cmpq	%rax, %rbp
 5082 3fd8 0F86AAF6 		jbe	.L1089
 5082      FFFF
 5083 3fde 0FB64318 		movzbl	24(%rbx), %eax
 5084 3fe2 884105   		movb	%al, 5(%rcx)
 5085 3fe5 488D4106 		leaq	6(%rcx), %rax
 5086 3fe9 4839C5   		cmpq	%rax, %rbp
 5087 3fec 0F8696F6 		jbe	.L1089
 5087      FFFF
 5088 3ff2 0FB64318 		movzbl	24(%rbx), %eax
 5089 3ff6 884106   		movb	%al, 6(%rcx)
 5090 3ff9 488D4107 		leaq	7(%rcx), %rax
 5091 3ffd 4839C5   		cmpq	%rax, %rbp
 5092 4000 0F8682F6 		jbe	.L1089
 5092      FFFF
 5093 4006 0FB64318 		movzbl	24(%rbx), %eax
 5094 400a 884107   		movb	%al, 7(%rcx)
 5095 400d 488D4108 		leaq	8(%rcx), %rax
 5096 4011 4839C5   		cmpq	%rax, %rbp
 5097 4014 0F866EF6 		jbe	.L1089
 5097      FFFF
 5098 401a 0FB64318 		movzbl	24(%rbx), %eax
 5099 401e 884108   		movb	%al, 8(%rcx)
 5100 4021 488D4109 		leaq	9(%rcx), %rax
 5101 4025 4839C5   		cmpq	%rax, %rbp
 5102 4028 0F865AF6 		jbe	.L1089
 5102      FFFF
 5103 402e 0FB64318 		movzbl	24(%rbx), %eax
 5104 4032 884109   		movb	%al, 9(%rcx)
 5105 4035 488D410A 		leaq	10(%rcx), %rax
 5106 4039 4839C5   		cmpq	%rax, %rbp
 5107 403c 0F8646F6 		jbe	.L1089
 5107      FFFF
 5108 4042 0FB64318 		movzbl	24(%rbx), %eax
 5109 4046 88410A   		movb	%al, 10(%rcx)
 5110 4049 488D410B 		leaq	11(%rcx), %rax
 5111 404d 4839C5   		cmpq	%rax, %rbp
 5112 4050 0F8632F6 		jbe	.L1089
 5112      FFFF
 5113 4056 0FB64318 		movzbl	24(%rbx), %eax
 5114 405a 88410B   		movb	%al, 11(%rcx)
 5115 405d 488D410C 		leaq	12(%rcx), %rax
 5116 4061 4839C5   		cmpq	%rax, %rbp
 5117 4064 0F861EF6 		jbe	.L1089
 5117      FFFF
 5118 406a 0FB64318 		movzbl	24(%rbx), %eax
 5119 406e 88410C   		movb	%al, 12(%rcx)
 5120 4071 488D410D 		leaq	13(%rcx), %rax
 5121 4075 4839C5   		cmpq	%rax, %rbp
 5122 4078 0F860AF6 		jbe	.L1089
 5122      FFFF
 5123 407e 0FB64318 		movzbl	24(%rbx), %eax
 5124 4082 88410D   		movb	%al, 13(%rcx)
 5125 4085 488D410E 		leaq	14(%rcx), %rax
 5126 4089 4839C5   		cmpq	%rax, %rbp
 5127 408c 0F86F6F5 		jbe	.L1089
 5127      FFFF
 5128 4092 0FB64318 		movzbl	24(%rbx), %eax
 5129 4096 88410E   		movb	%al, 14(%rcx)
 5130 4099 E9EAF5FF 		jmp	.L1089
 5130      FF
 5131 409e 6690     		.p2align 4,,10
 5132              		.p2align 3
 5133              	.L1257:
 5134 40a0 4983C001 		addq	$1, %r8
 5135              	.L1061:
 5136 40a4 0FB64318 		movzbl	24(%rbx), %eax
 5137 40a8 4C39C5   		cmpq	%r8, %rbp
 5138 40ab 418840FF 		movb	%al, -1(%r8)
 5139 40af 75EF     		jne	.L1257
 5140 40b1 E967FCFF 		jmp	.L1062
 5140      FF
 5141 40b6 662E0F1F 		.p2align 4,,10
 5141      84000000 
 5141      0000
 5142              		.p2align 3
 5143              	.L1075:
 5144 40c0 4889F0   		movq	%rsi, %rax
 5145 40c3 480307   		addq	(%rdi), %rax
 5146 40c6 E9F7F8FF 		jmp	.L1074
 5146      FF
 5147              	.L1079:
 5148 40cb 488D3500 		leaq	.LC7(%rip), %rsi
 5148      000000
 5149 40d2 4C89F7   		movq	%r14, %rdi
 5150 40d5 E8000000 		call	errPrefix@PLT
 5150      00
 5151 40da 488D3500 		leaq	.LC22(%rip), %rsi
 5151      000000
 5152 40e1 4C89F7   		movq	%r14, %rdi
 5153 40e4 E8000000 		call	errPrefix@PLT
 5153      00
 5154 40e9 488D3500 		leaq	.LC27(%rip), %rsi
 5154      000000
 5155 40f0 4C89F7   		movq	%r14, %rdi
 5156 40f3 E8000000 		call	errPrefix@PLT
 5156      00
 5157 40f8 B8010000 		movl	$1, %eax
 5157      00
 5158 40fd E9CFF8FF 		jmp	.L1051
 5158      FF
 5159              		.p2align 4,,10
 5160 4102 660F1F44 		.p2align 3
 5160      0000
 5161              	.L1093:
 5162 4108 4889F1   		movq	%rsi, %rcx
 5163 410b E93AF7FF 		jmp	.L1065
 5163      FF
 5164              		.p2align 4,,10
 5165              		.p2align 3
 5166              	.L1258:
 5167 4110 4883C601 		addq	$1, %rsi
 5168              	.L1088:
 5169 4114 0FB64318 		movzbl	24(%rbx), %eax
 5170 4118 4839F5   		cmpq	%rsi, %rbp
 5171 411b 8846FF   		movb	%al, -1(%rsi)
 5172 411e 75F0     		jne	.L1258
 5173 4120 E963F5FF 		jmp	.L1089
 5173      FF
 5174              		.p2align 4,,10
 5175 4125 0F1F00   		.p2align 3
 5176              	.L1091:
 5177 4128 4889F1   		movq	%rsi, %rcx
 5178 412b E98DFAFF 		jmp	.L1054
 5178      FF
 5179              	.L1255:
 5180 4130 4C8B4B08 		movq	8(%rbx), %r9
 5181 4134 4989C2   		movq	%rax, %r10
 5182 4137 E974F5FF 		jmp	.L1048
 5182      FF
 5183              	.L1254:
 5184 413c E8000000 		call	__stack_chk_fail@PLT
 5184      00
 5185              		.cfi_endproc
 5186              	.LFE63:
 5188              		.section	.text.unlikely
 5189              	.LCOLDE28:
 5190              		.text
 5191              	.LHOTE28:
 5192              		.section	.rodata.str1.1
 5193              	.LC29:
 5194 00bd 62756657 		.string	"bufWriteLongLE()"
 5194      72697465 
 5194      4C6F6E67 
 5194      4C452829 
 5194      00
 5195              		.section	.text.unlikely
 5196              	.LCOLDB30:
 5197              		.text
 5198              	.LHOTB30:
 5199 4141 0F1F4400 		.p2align 4,,15
 5199      00662E0F 
 5199      1F840000 
 5199      000000
 5200              		.globl	bufWriteLongLE
 5202              	bufWriteLongLE:
 5203              	.LFB64:
 5204              		.cfi_startproc
 5205 4150 4156     		pushq	%r14
 5206              		.cfi_def_cfa_offset 16
 5207              		.cfi_offset 14, -16
 5208 4152 4155     		pushq	%r13
 5209              		.cfi_def_cfa_offset 24
 5210              		.cfi_offset 13, -24
 5211 4154 4989CE   		movq	%rcx, %r14
 5212 4157 4154     		pushq	%r12
 5213              		.cfi_def_cfa_offset 32
 5214              		.cfi_offset 12, -32
 5215 4159 55       		pushq	%rbp
 5216              		.cfi_def_cfa_offset 40
 5217              		.cfi_offset 6, -40
 5218 415a 4989F4   		movq	%rsi, %r12
 5219 415d 53       		pushq	%rbx
 5220              		.cfi_def_cfa_offset 48
 5221              		.cfi_offset 3, -48
 5222 415e 4C8D6E04 		leaq	4(%rsi), %r13
 5223 4162 4889FB   		movq	%rdi, %rbx
 5224 4165 4883EC20 		subq	$32, %rsp
 5225              		.cfi_def_cfa_offset 80
 5226 4169 4C8B4F08 		movq	8(%rdi), %r9
 5227 416d 64488B04 		movq	%fs:40, %rax
 5227      25280000 
 5227      00
 5228 4176 48894424 		movq	%rax, 24(%rsp)
 5228      18
 5229 417b 31C0     		xorl	%eax, %eax
 5230 417d 4C39CE   		cmpq	%r9, %rsi
 5231 4180 732E     		jnb	.L1467
 5232 4182 4D39CD   		cmpq	%r9, %r13
 5233 4185 0F86550A 		jbe	.L1289
 5233      0000
 5234 418b 488B6F10 		movq	16(%rdi), %rbp
 5235 418f 4939ED   		cmpq	%rbp, %r13
 5236 4192 0F87D806 		ja	.L1292
 5236      0000
 5237              	.L1303:
 5238 4198 488B03   		movq	(%rbx), %rax
 5239              	.L1291:
 5240 419b 4C896B08 		movq	%r13, 8(%rbx)
 5241 419f 4C01E0   		addq	%r12, %rax
 5242 41a2 E92B0300 		jmp	.L1288
 5242      00
 5243 41a7 660F1F84 		.p2align 4,,10
 5243      00000000 
 5243      00
 5244              		.p2align 3
 5245              	.L1467:
 5246 41b0 488B6F10 		movq	16(%rdi), %rbp
 5247 41b4 4939ED   		cmpq	%rbp, %r13
 5248 41b7 0F876303 		ja	.L1263
 5248      0000
 5249 41bd 4C8B17   		movq	(%rdi), %r10
 5250              	.L1262:
 5251 41c0 4B8D340A 		leaq	(%r10,%r9), %rsi
 5252 41c4 4B8D0422 		leaq	(%r10,%r12), %rax
 5253 41c8 4839C6   		cmpq	%rax, %rsi
 5254 41cb 0F83FD02 		jnb	.L1277
 5254      0000
 5255 41d1 4C8D4601 		leaq	1(%rsi), %r8
 5256 41d5 4989C6   		movq	%rax, %r14
 5257 41d8 488D6B18 		leaq	24(%rbx), %rbp
 5258 41dc 4D29C6   		subq	%r8, %r14
 5259 41df 4C89C1   		movq	%r8, %rcx
 5260 41e2 4B8D7C31 		leaq	1(%r9,%r14), %rdi
 5260      01
 5261 41e7 4D8D5E01 		leaq	1(%r14), %r11
 5262 41eb 4C01D7   		addq	%r10, %rdi
 5263 41ee 4839FD   		cmpq	%rdi, %rbp
 5264 41f1 488D7B19 		leaq	25(%rbx), %rdi
 5265 41f5 400F93C5 		setnb	%bpl
 5266 41f9 4839FE   		cmpq	%rdi, %rsi
 5267 41fc 400F93C7 		setnb	%dil
 5268 4200 4008FD   		orb	%dil, %bpl
 5269 4203 0F845306 		je	.L1286
 5269      0000
 5270 4209 4983FB16 		cmpq	$22, %r11
 5271 420d 0F864906 		jbe	.L1286
 5271      0000
 5272 4213 4889F7   		movq	%rsi, %rdi
 5273 4216 48F7DF   		negq	%rdi
 5274 4219 83E70F   		andl	$15, %edi
 5275 421c 4C39DF   		cmpq	%r11, %rdi
 5276 421f 490F47FB 		cmova	%r11, %rdi
 5277 4223 4885FF   		testq	%rdi, %rdi
 5278 4226 0F84FC09 		je	.L1307
 5278      0000
 5279 422c 440FB643 		movzbl	24(%rbx), %r8d
 5279      18
 5280 4231 4883FF01 		cmpq	$1, %rdi
 5281 4235 448806   		movb	%r8b, (%rsi)
 5282 4238 0F841C01 		je	.L1279
 5282      0000
 5283 423e 440FB643 		movzbl	24(%rbx), %r8d
 5283      18
 5284 4243 4883FF02 		cmpq	$2, %rdi
 5285 4247 488D4E02 		leaq	2(%rsi), %rcx
 5286 424b 44884601 		movb	%r8b, 1(%rsi)
 5287 424f 0F840501 		je	.L1279
 5287      0000
 5288 4255 440FB643 		movzbl	24(%rbx), %r8d
 5288      18
 5289 425a 4883FF03 		cmpq	$3, %rdi
 5290 425e 488D4E03 		leaq	3(%rsi), %rcx
 5291 4262 44884602 		movb	%r8b, 2(%rsi)
 5292 4266 0F84EE00 		je	.L1279
 5292      0000
 5293 426c 440FB643 		movzbl	24(%rbx), %r8d
 5293      18
 5294 4271 4883FF04 		cmpq	$4, %rdi
 5295 4275 488D4E04 		leaq	4(%rsi), %rcx
 5296 4279 44884603 		movb	%r8b, 3(%rsi)
 5297 427d 0F84D700 		je	.L1279
 5297      0000
 5298 4283 440FB643 		movzbl	24(%rbx), %r8d
 5298      18
 5299 4288 4883FF05 		cmpq	$5, %rdi
 5300 428c 488D4E05 		leaq	5(%rsi), %rcx
 5301 4290 44884604 		movb	%r8b, 4(%rsi)
 5302 4294 0F84C000 		je	.L1279
 5302      0000
 5303 429a 440FB643 		movzbl	24(%rbx), %r8d
 5303      18
 5304 429f 4883FF06 		cmpq	$6, %rdi
 5305 42a3 488D4E06 		leaq	6(%rsi), %rcx
 5306 42a7 44884605 		movb	%r8b, 5(%rsi)
 5307 42ab 0F84A900 		je	.L1279
 5307      0000
 5308 42b1 440FB643 		movzbl	24(%rbx), %r8d
 5308      18
 5309 42b6 4883FF07 		cmpq	$7, %rdi
 5310 42ba 488D4E07 		leaq	7(%rsi), %rcx
 5311 42be 44884606 		movb	%r8b, 6(%rsi)
 5312 42c2 0F849200 		je	.L1279
 5312      0000
 5313 42c8 440FB643 		movzbl	24(%rbx), %r8d
 5313      18
 5314 42cd 4883FF08 		cmpq	$8, %rdi
 5315 42d1 488D4E08 		leaq	8(%rsi), %rcx
 5316 42d5 44884607 		movb	%r8b, 7(%rsi)
 5317 42d9 747F     		je	.L1279
 5318 42db 440FB643 		movzbl	24(%rbx), %r8d
 5318      18
 5319 42e0 4883FF09 		cmpq	$9, %rdi
 5320 42e4 488D4E09 		leaq	9(%rsi), %rcx
 5321 42e8 44884608 		movb	%r8b, 8(%rsi)
 5322 42ec 746C     		je	.L1279
 5323 42ee 440FB643 		movzbl	24(%rbx), %r8d
 5323      18
 5324 42f3 4883FF0A 		cmpq	$10, %rdi
 5325 42f7 488D4E0A 		leaq	10(%rsi), %rcx
 5326 42fb 44884609 		movb	%r8b, 9(%rsi)
 5327 42ff 7459     		je	.L1279
 5328 4301 440FB643 		movzbl	24(%rbx), %r8d
 5328      18
 5329 4306 4883FF0B 		cmpq	$11, %rdi
 5330 430a 488D4E0B 		leaq	11(%rsi), %rcx
 5331 430e 4488460A 		movb	%r8b, 10(%rsi)
 5332 4312 7446     		je	.L1279
 5333 4314 440FB643 		movzbl	24(%rbx), %r8d
 5333      18
 5334 4319 4883FF0C 		cmpq	$12, %rdi
 5335 431d 488D4E0C 		leaq	12(%rsi), %rcx
 5336 4321 4488460B 		movb	%r8b, 11(%rsi)
 5337 4325 7433     		je	.L1279
 5338 4327 440FB643 		movzbl	24(%rbx), %r8d
 5338      18
 5339 432c 4883FF0D 		cmpq	$13, %rdi
 5340 4330 488D4E0D 		leaq	13(%rsi), %rcx
 5341 4334 4488460C 		movb	%r8b, 12(%rsi)
 5342 4338 7420     		je	.L1279
 5343 433a 440FB643 		movzbl	24(%rbx), %r8d
 5343      18
 5344 433f 4883FF0F 		cmpq	$15, %rdi
 5345 4343 488D4E0E 		leaq	14(%rsi), %rcx
 5346 4347 4488460D 		movb	%r8b, 13(%rsi)
 5347 434b 750D     		jne	.L1279
 5348 434d 440FB643 		movzbl	24(%rbx), %r8d
 5348      18
 5349 4352 488D4E0F 		leaq	15(%rsi), %rcx
 5350 4356 4488460E 		movb	%r8b, 14(%rsi)
 5351              	.L1279:
 5352 435a 4929FB   		subq	%rdi, %r11
 5353 435d 4929FE   		subq	%rdi, %r14
 5354 4360 4D89D8   		movq	%r11, %r8
 5355 4363 4D8D5BF0 		leaq	-16(%r11), %r11
 5356 4367 49C1EB04 		shrq	$4, %r11
 5357 436b 4983C301 		addq	$1, %r11
 5358 436f 4C89DD   		movq	%r11, %rbp
 5359 4372 48C1E504 		salq	$4, %rbp
 5360 4376 4983FE0E 		cmpq	$14, %r14
 5361 437a 7640     		jbe	.L1281
 5362 437c 0FB67318 		movzbl	24(%rbx), %esi
 5363 4380 4C01CF   		addq	%r9, %rdi
 5364 4383 4C01D7   		addq	%r10, %rdi
 5365 4386 8974240C 		movl	%esi, 12(%rsp)
 5366 438a 31F6     		xorl	%esi, %esi
 5367 438c 660F6E44 		movd	12(%rsp), %xmm0
 5367      240C
 5368 4392 660F60C0 		punpcklbw	%xmm0, %xmm0
 5369 4396 660F61C0 		punpcklwd	%xmm0, %xmm0
 5370 439a 660F70C0 		pshufd	$0, %xmm0, %xmm0
 5370      00
 5371              	.L1282:
 5372 439f 4883C601 		addq	$1, %rsi
 5373 43a3 4883C710 		addq	$16, %rdi
 5374 43a7 0F2947F0 		movaps	%xmm0, -16(%rdi)
 5375 43ab 4939F3   		cmpq	%rsi, %r11
 5376 43ae 77EF     		ja	.L1282
 5377 43b0 4801E9   		addq	%rbp, %rcx
 5378 43b3 4939E8   		cmpq	%rbp, %r8
 5379 43b6 0F840C01 		je	.L1287
 5379      0000
 5380              	.L1281:
 5381 43bc 0FB67318 		movzbl	24(%rbx), %esi
 5382 43c0 408831   		movb	%sil, (%rcx)
 5383 43c3 488D7101 		leaq	1(%rcx), %rsi
 5384 43c7 4839F0   		cmpq	%rsi, %rax
 5385 43ca 0F86F800 		jbe	.L1287
 5385      0000
 5386 43d0 0FB67318 		movzbl	24(%rbx), %esi
 5387 43d4 40887101 		movb	%sil, 1(%rcx)
 5388 43d8 488D7102 		leaq	2(%rcx), %rsi
 5389 43dc 4839F0   		cmpq	%rsi, %rax
 5390 43df 0F86E300 		jbe	.L1287
 5390      0000
 5391 43e5 0FB67318 		movzbl	24(%rbx), %esi
 5392 43e9 40887102 		movb	%sil, 2(%rcx)
 5393 43ed 488D7103 		leaq	3(%rcx), %rsi
 5394 43f1 4839F0   		cmpq	%rsi, %rax
 5395 43f4 0F86CE00 		jbe	.L1287
 5395      0000
 5396 43fa 0FB67318 		movzbl	24(%rbx), %esi
 5397 43fe 40887103 		movb	%sil, 3(%rcx)
 5398 4402 488D7104 		leaq	4(%rcx), %rsi
 5399 4406 4839F0   		cmpq	%rsi, %rax
 5400 4409 0F86B900 		jbe	.L1287
 5400      0000
 5401 440f 0FB67318 		movzbl	24(%rbx), %esi
 5402 4413 40887104 		movb	%sil, 4(%rcx)
 5403 4417 488D7105 		leaq	5(%rcx), %rsi
 5404 441b 4839F0   		cmpq	%rsi, %rax
 5405 441e 0F86A400 		jbe	.L1287
 5405      0000
 5406 4424 0FB67318 		movzbl	24(%rbx), %esi
 5407 4428 40887105 		movb	%sil, 5(%rcx)
 5408 442c 488D7106 		leaq	6(%rcx), %rsi
 5409 4430 4839F0   		cmpq	%rsi, %rax
 5410 4433 0F868F00 		jbe	.L1287
 5410      0000
 5411 4439 0FB67318 		movzbl	24(%rbx), %esi
 5412 443d 40887106 		movb	%sil, 6(%rcx)
 5413 4441 488D7107 		leaq	7(%rcx), %rsi
 5414 4445 4839F0   		cmpq	%rsi, %rax
 5415 4448 767E     		jbe	.L1287
 5416 444a 0FB67318 		movzbl	24(%rbx), %esi
 5417 444e 40887107 		movb	%sil, 7(%rcx)
 5418 4452 488D7108 		leaq	8(%rcx), %rsi
 5419 4456 4839F0   		cmpq	%rsi, %rax
 5420 4459 766D     		jbe	.L1287
 5421 445b 0FB67318 		movzbl	24(%rbx), %esi
 5422 445f 40887108 		movb	%sil, 8(%rcx)
 5423 4463 488D7109 		leaq	9(%rcx), %rsi
 5424 4467 4839F0   		cmpq	%rsi, %rax
 5425 446a 765C     		jbe	.L1287
 5426 446c 0FB67318 		movzbl	24(%rbx), %esi
 5427 4470 40887109 		movb	%sil, 9(%rcx)
 5428 4474 488D710A 		leaq	10(%rcx), %rsi
 5429 4478 4839F0   		cmpq	%rsi, %rax
 5430 447b 764B     		jbe	.L1287
 5431 447d 0FB67318 		movzbl	24(%rbx), %esi
 5432 4481 4088710A 		movb	%sil, 10(%rcx)
 5433 4485 488D710B 		leaq	11(%rcx), %rsi
 5434 4489 4839F0   		cmpq	%rsi, %rax
 5435 448c 763A     		jbe	.L1287
 5436 448e 0FB67318 		movzbl	24(%rbx), %esi
 5437 4492 4088710B 		movb	%sil, 11(%rcx)
 5438 4496 488D710C 		leaq	12(%rcx), %rsi
 5439 449a 4839F0   		cmpq	%rsi, %rax
 5440 449d 7629     		jbe	.L1287
 5441 449f 0FB67318 		movzbl	24(%rbx), %esi
 5442 44a3 4088710C 		movb	%sil, 12(%rcx)
 5443 44a7 488D710D 		leaq	13(%rcx), %rsi
 5444 44ab 4839F0   		cmpq	%rsi, %rax
 5445 44ae 7618     		jbe	.L1287
 5446 44b0 0FB67318 		movzbl	24(%rbx), %esi
 5447 44b4 4088710D 		movb	%sil, 13(%rcx)
 5448 44b8 488D710E 		leaq	14(%rcx), %rsi
 5449 44bc 4839F0   		cmpq	%rsi, %rax
 5450 44bf 7607     		jbe	.L1287
 5451 44c1 0FB64318 		movzbl	24(%rbx), %eax
 5452 44c5 88410E   		movb	%al, 14(%rcx)
 5453              	.L1287:
 5454 44c8 4C89E0   		movq	%r12, %rax
 5455 44cb 480303   		addq	(%rbx), %rax
 5456              	.L1277:
 5457 44ce 4C896B08 		movq	%r13, 8(%rbx)
 5458              	.L1288:
 5459 44d2 8810     		movb	%dl, (%rax)
 5460 44d4 488B03   		movq	(%rbx), %rax
 5461 44d7 0FB6CE   		movzbl	%dh, %ecx
 5462 44da 42884C20 		movb	%cl, 1(%rax,%r12)
 5462      01
 5463 44df 488B03   		movq	(%rbx), %rax
 5464 44e2 89D1     		movl	%edx, %ecx
 5465 44e4 C1E910   		shrl	$16, %ecx
 5466 44e7 C1EA18   		shrl	$24, %edx
 5467 44ea 42884C20 		movb	%cl, 2(%rax,%r12)
 5467      02
 5468 44ef 488B03   		movq	(%rbx), %rax
 5469 44f2 42885420 		movb	%dl, 3(%rax,%r12)
 5469      03
 5470 44f7 31C0     		xorl	%eax, %eax
 5471              	.L1265:
 5472 44f9 488B5424 		movq	24(%rsp), %rdx
 5472      18
 5473 44fe 64483314 		xorq	%fs:40, %rdx
 5473      25280000 
 5473      00
 5474 4507 0F854F07 		jne	.L1468
 5474      0000
 5475 450d 4883C420 		addq	$32, %rsp
 5476              		.cfi_remember_state
 5477              		.cfi_def_cfa_offset 48
 5478 4511 5B       		popq	%rbx
 5479              		.cfi_def_cfa_offset 40
 5480 4512 5D       		popq	%rbp
 5481              		.cfi_def_cfa_offset 32
 5482 4513 415C     		popq	%r12
 5483              		.cfi_def_cfa_offset 24
 5484 4515 415D     		popq	%r13
 5485              		.cfi_def_cfa_offset 16
 5486 4517 415E     		popq	%r14
 5487              		.cfi_def_cfa_offset 8
 5488 4519 C3       		ret
 5489 451a 660F1F44 		.p2align 4,,10
 5489      0000
 5490              		.p2align 3
 5491              	.L1263:
 5492              		.cfi_restore_state
 5493 4520 4801ED   		addq	%rbp, %rbp
 5494 4523 4939ED   		cmpq	%rbp, %r13
 5495 4526 77F8     		ja	.L1263
 5496 4528 488B3B   		movq	(%rbx), %rdi
 5497 452b 4889EE   		movq	%rbp, %rsi
 5498 452e 8954240C 		movl	%edx, 12(%rsp)
 5499 4532 E8000000 		call	realloc@PLT
 5499      00
 5500 4537 4885C0   		testq	%rax, %rax
 5501 453a 8B54240C 		movl	12(%rsp), %edx
 5502 453e 0F84A706 		je	.L1293
 5502      0000
 5503 4544 4A8D3428 		leaq	(%rax,%r13), %rsi
 5504 4548 48896B10 		movq	%rbp, 16(%rbx)
 5505 454c 4801C5   		addq	%rax, %rbp
 5506 454f 488903   		movq	%rax, (%rbx)
 5507 4552 4839EE   		cmpq	%rbp, %rsi
 5508 4555 0F83F506 		jnb	.L1469
 5508      0000
 5509 455b 4C8D4601 		leaq	1(%rsi), %r8
 5510 455f 4889EF   		movq	%rbp, %rdi
 5511 4562 4C8D5B18 		leaq	24(%rbx), %r11
 5512 4566 4C29C7   		subq	%r8, %rdi
 5513 4569 4C89C1   		movq	%r8, %rcx
 5514 456c 4E8D5427 		leaq	5(%rdi,%r12), %r10
 5514      05
 5515 4571 4C8D4F01 		leaq	1(%rdi), %r9
 5516 4575 4901C2   		addq	%rax, %r10
 5517 4578 4D39DA   		cmpq	%r11, %r10
 5518 457b 4C8D5319 		leaq	25(%rbx), %r10
 5519 457f 410F96C3 		setbe	%r11b
 5520 4583 4C39D6   		cmpq	%r10, %rsi
 5521 4586 410F93C2 		setnb	%r10b
 5522 458a 4508D3   		orb	%r10b, %r11b
 5523 458d 0F843106 		je	.L1275
 5523      0000
 5524 4593 4983F916 		cmpq	$22, %r9
 5525 4597 0F862706 		jbe	.L1275
 5525      0000
 5526 459d 4989F0   		movq	%rsi, %r8
 5527 45a0 49F7D8   		negq	%r8
 5528 45a3 4183E00F 		andl	$15, %r8d
 5529 45a7 4D39C8   		cmpq	%r9, %r8
 5530 45aa 4D0F47C1 		cmova	%r9, %r8
 5531 45ae 4D85C0   		testq	%r8, %r8
 5532 45b1 0F849106 		je	.L1305
 5532      0000
 5533 45b7 440FB653 		movzbl	24(%rbx), %r10d
 5533      18
 5534 45bc 4983F801 		cmpq	$1, %r8
 5535 45c0 448816   		movb	%r10b, (%rsi)
 5536 45c3 0F841C01 		je	.L1268
 5536      0000
 5537 45c9 440FB653 		movzbl	24(%rbx), %r10d
 5537      18
 5538 45ce 4983F802 		cmpq	$2, %r8
 5539 45d2 488D4E02 		leaq	2(%rsi), %rcx
 5540 45d6 44885601 		movb	%r10b, 1(%rsi)
 5541 45da 0F840501 		je	.L1268
 5541      0000
 5542 45e0 440FB653 		movzbl	24(%rbx), %r10d
 5542      18
 5543 45e5 4983F803 		cmpq	$3, %r8
 5544 45e9 488D4E03 		leaq	3(%rsi), %rcx
 5545 45ed 44885602 		movb	%r10b, 2(%rsi)
 5546 45f1 0F84EE00 		je	.L1268
 5546      0000
 5547 45f7 440FB653 		movzbl	24(%rbx), %r10d
 5547      18
 5548 45fc 4983F804 		cmpq	$4, %r8
 5549 4600 488D4E04 		leaq	4(%rsi), %rcx
 5550 4604 44885603 		movb	%r10b, 3(%rsi)
 5551 4608 0F84D700 		je	.L1268
 5551      0000
 5552 460e 440FB653 		movzbl	24(%rbx), %r10d
 5552      18
 5553 4613 4983F805 		cmpq	$5, %r8
 5554 4617 488D4E05 		leaq	5(%rsi), %rcx
 5555 461b 44885604 		movb	%r10b, 4(%rsi)
 5556 461f 0F84C000 		je	.L1268
 5556      0000
 5557 4625 440FB653 		movzbl	24(%rbx), %r10d
 5557      18
 5558 462a 4983F806 		cmpq	$6, %r8
 5559 462e 488D4E06 		leaq	6(%rsi), %rcx
 5560 4632 44885605 		movb	%r10b, 5(%rsi)
 5561 4636 0F84A900 		je	.L1268
 5561      0000
 5562 463c 440FB653 		movzbl	24(%rbx), %r10d
 5562      18
 5563 4641 4983F807 		cmpq	$7, %r8
 5564 4645 488D4E07 		leaq	7(%rsi), %rcx
 5565 4649 44885606 		movb	%r10b, 6(%rsi)
 5566 464d 0F849200 		je	.L1268
 5566      0000
 5567 4653 440FB653 		movzbl	24(%rbx), %r10d
 5567      18
 5568 4658 4983F808 		cmpq	$8, %r8
 5569 465c 488D4E08 		leaq	8(%rsi), %rcx
 5570 4660 44885607 		movb	%r10b, 7(%rsi)
 5571 4664 747F     		je	.L1268
 5572 4666 440FB653 		movzbl	24(%rbx), %r10d
 5572      18
 5573 466b 4983F809 		cmpq	$9, %r8
 5574 466f 488D4E09 		leaq	9(%rsi), %rcx
 5575 4673 44885608 		movb	%r10b, 8(%rsi)
 5576 4677 746C     		je	.L1268
 5577 4679 440FB653 		movzbl	24(%rbx), %r10d
 5577      18
 5578 467e 4983F80A 		cmpq	$10, %r8
 5579 4682 488D4E0A 		leaq	10(%rsi), %rcx
 5580 4686 44885609 		movb	%r10b, 9(%rsi)
 5581 468a 7459     		je	.L1268
 5582 468c 440FB653 		movzbl	24(%rbx), %r10d
 5582      18
 5583 4691 4983F80B 		cmpq	$11, %r8
 5584 4695 488D4E0B 		leaq	11(%rsi), %rcx
 5585 4699 4488560A 		movb	%r10b, 10(%rsi)
 5586 469d 7446     		je	.L1268
 5587 469f 440FB653 		movzbl	24(%rbx), %r10d
 5587      18
 5588 46a4 4983F80C 		cmpq	$12, %r8
 5589 46a8 488D4E0C 		leaq	12(%rsi), %rcx
 5590 46ac 4488560B 		movb	%r10b, 11(%rsi)
 5591 46b0 7433     		je	.L1268
 5592 46b2 440FB653 		movzbl	24(%rbx), %r10d
 5592      18
 5593 46b7 4983F80D 		cmpq	$13, %r8
 5594 46bb 488D4E0D 		leaq	13(%rsi), %rcx
 5595 46bf 4488560C 		movb	%r10b, 12(%rsi)
 5596 46c3 7420     		je	.L1268
 5597 46c5 440FB653 		movzbl	24(%rbx), %r10d
 5597      18
 5598 46ca 4983F80F 		cmpq	$15, %r8
 5599 46ce 488D4E0E 		leaq	14(%rsi), %rcx
 5600 46d2 4488560D 		movb	%r10b, 13(%rsi)
 5601 46d6 750D     		jne	.L1268
 5602 46d8 440FB653 		movzbl	24(%rbx), %r10d
 5602      18
 5603 46dd 488D4E0F 		leaq	15(%rsi), %rcx
 5604 46e1 4488560E 		movb	%r10b, 14(%rsi)
 5605              	.L1268:
 5606 46e5 4C89CE   		movq	%r9, %rsi
 5607 46e8 4C29C7   		subq	%r8, %rdi
 5608 46eb 4C29C6   		subq	%r8, %rsi
 5609 46ee 4C8D4EF0 		leaq	-16(%rsi), %r9
 5610 46f2 49C1E904 		shrq	$4, %r9
 5611 46f6 4983C101 		addq	$1, %r9
 5612 46fa 4D89CA   		movq	%r9, %r10
 5613 46fd 49C1E204 		salq	$4, %r10
 5614 4701 4883FF0E 		cmpq	$14, %rdi
 5615 4705 7640     		jbe	.L1270
 5616 4707 0FB67B18 		movzbl	24(%rbx), %edi
 5617 470b 4D01E8   		addq	%r13, %r8
 5618 470e 4C01C0   		addq	%r8, %rax
 5619 4711 897C240C 		movl	%edi, 12(%rsp)
 5620 4715 31FF     		xorl	%edi, %edi
 5621 4717 660F6E44 		movd	12(%rsp), %xmm0
 5621      240C
 5622 471d 660F60C0 		punpcklbw	%xmm0, %xmm0
 5623 4721 660F61C0 		punpcklwd	%xmm0, %xmm0
 5624 4725 660F70C0 		pshufd	$0, %xmm0, %xmm0
 5624      00
 5625              	.L1271:
 5626 472a 4883C701 		addq	$1, %rdi
 5627 472e 4883C010 		addq	$16, %rax
 5628 4732 0F2940F0 		movaps	%xmm0, -16(%rax)
 5629 4736 4C39CF   		cmpq	%r9, %rdi
 5630 4739 72EF     		jb	.L1271
 5631 473b 4C01D1   		addq	%r10, %rcx
 5632 473e 4C39D6   		cmpq	%r10, %rsi
 5633 4741 0F84FE00 		je	.L1276
 5633      0000
 5634              	.L1270:
 5635 4747 0FB64318 		movzbl	24(%rbx), %eax
 5636 474b 8801     		movb	%al, (%rcx)
 5637 474d 488D4101 		leaq	1(%rcx), %rax
 5638 4751 4839C5   		cmpq	%rax, %rbp
 5639 4754 0F86EB00 		jbe	.L1276
 5639      0000
 5640 475a 0FB64318 		movzbl	24(%rbx), %eax
 5641 475e 884101   		movb	%al, 1(%rcx)
 5642 4761 488D4102 		leaq	2(%rcx), %rax
 5643 4765 4839C5   		cmpq	%rax, %rbp
 5644 4768 0F86D700 		jbe	.L1276
 5644      0000
 5645 476e 0FB64318 		movzbl	24(%rbx), %eax
 5646 4772 884102   		movb	%al, 2(%rcx)
 5647 4775 488D4103 		leaq	3(%rcx), %rax
 5648 4779 4839C5   		cmpq	%rax, %rbp
 5649 477c 0F86C300 		jbe	.L1276
 5649      0000
 5650 4782 0FB64318 		movzbl	24(%rbx), %eax
 5651 4786 884103   		movb	%al, 3(%rcx)
 5652 4789 488D4104 		leaq	4(%rcx), %rax
 5653 478d 4839C5   		cmpq	%rax, %rbp
 5654 4790 0F86AF00 		jbe	.L1276
 5654      0000
 5655 4796 0FB64318 		movzbl	24(%rbx), %eax
 5656 479a 884104   		movb	%al, 4(%rcx)
 5657 479d 488D4105 		leaq	5(%rcx), %rax
 5658 47a1 4839C5   		cmpq	%rax, %rbp
 5659 47a4 0F869B00 		jbe	.L1276
 5659      0000
 5660 47aa 0FB64318 		movzbl	24(%rbx), %eax
 5661 47ae 884105   		movb	%al, 5(%rcx)
 5662 47b1 488D4106 		leaq	6(%rcx), %rax
 5663 47b5 4839C5   		cmpq	%rax, %rbp
 5664 47b8 0F868700 		jbe	.L1276
 5664      0000
 5665 47be 0FB64318 		movzbl	24(%rbx), %eax
 5666 47c2 884106   		movb	%al, 6(%rcx)
 5667 47c5 488D4107 		leaq	7(%rcx), %rax
 5668 47c9 4839C5   		cmpq	%rax, %rbp
 5669 47cc 7677     		jbe	.L1276
 5670 47ce 0FB64318 		movzbl	24(%rbx), %eax
 5671 47d2 884107   		movb	%al, 7(%rcx)
 5672 47d5 488D4108 		leaq	8(%rcx), %rax
 5673 47d9 4839C5   		cmpq	%rax, %rbp
 5674 47dc 7667     		jbe	.L1276
 5675 47de 0FB64318 		movzbl	24(%rbx), %eax
 5676 47e2 884108   		movb	%al, 8(%rcx)
 5677 47e5 488D4109 		leaq	9(%rcx), %rax
 5678 47e9 4839C5   		cmpq	%rax, %rbp
 5679 47ec 7657     		jbe	.L1276
 5680 47ee 0FB64318 		movzbl	24(%rbx), %eax
 5681 47f2 884109   		movb	%al, 9(%rcx)
 5682 47f5 488D410A 		leaq	10(%rcx), %rax
 5683 47f9 4839C5   		cmpq	%rax, %rbp
 5684 47fc 7647     		jbe	.L1276
 5685 47fe 0FB64318 		movzbl	24(%rbx), %eax
 5686 4802 88410A   		movb	%al, 10(%rcx)
 5687 4805 488D410B 		leaq	11(%rcx), %rax
 5688 4809 4839C5   		cmpq	%rax, %rbp
 5689 480c 7637     		jbe	.L1276
 5690 480e 0FB64318 		movzbl	24(%rbx), %eax
 5691 4812 88410B   		movb	%al, 11(%rcx)
 5692 4815 488D410C 		leaq	12(%rcx), %rax
 5693 4819 4839C5   		cmpq	%rax, %rbp
 5694 481c 7627     		jbe	.L1276
 5695 481e 0FB64318 		movzbl	24(%rbx), %eax
 5696 4822 88410C   		movb	%al, 12(%rcx)
 5697 4825 488D410D 		leaq	13(%rcx), %rax
 5698 4829 4839C5   		cmpq	%rax, %rbp
 5699 482c 7617     		jbe	.L1276
 5700 482e 0FB64318 		movzbl	24(%rbx), %eax
 5701 4832 88410D   		movb	%al, 13(%rcx)
 5702 4835 488D410E 		leaq	14(%rcx), %rax
 5703 4839 4839C5   		cmpq	%rax, %rbp
 5704 483c 7607     		jbe	.L1276
 5705 483e 0FB64318 		movzbl	24(%rbx), %eax
 5706 4842 88410E   		movb	%al, 14(%rcx)
 5707              	.L1276:
 5708 4845 4C8B13   		movq	(%rbx), %r10
 5709 4848 4C8B4B08 		movq	8(%rbx), %r9
 5710 484c E96FF9FF 		jmp	.L1262
 5710      FF
 5711              		.p2align 4,,10
 5712 4851 0F1F8000 		.p2align 3
 5712      000000
 5713              	.L1470:
 5714 4858 4983C001 		addq	$1, %r8
 5715              	.L1286:
 5716 485c 0FB64B18 		movzbl	24(%rbx), %ecx
 5717 4860 4C39C0   		cmpq	%r8, %rax
 5718 4863 418848FF 		movb	%cl, -1(%r8)
 5719 4867 75EF     		jne	.L1470
 5720 4869 E95AFCFF 		jmp	.L1287
 5720      FF
 5721 486e 6690     		.p2align 4,,10
 5722              		.p2align 3
 5723              	.L1292:
 5724 4870 4801ED   		addq	%rbp, %rbp
 5725 4873 4939ED   		cmpq	%rbp, %r13
 5726 4876 77F8     		ja	.L1292
 5727 4878 488B3B   		movq	(%rbx), %rdi
 5728 487b 4889EE   		movq	%rbp, %rsi
 5729 487e 8954240C 		movl	%edx, 12(%rsp)
 5730 4882 E8000000 		call	realloc@PLT
 5730      00
 5731 4887 4885C0   		testq	%rax, %rax
 5732 488a 0F845B03 		je	.L1293
 5732      0000
 5733 4890 4A8D0C28 		leaq	(%rax,%r13), %rcx
 5734 4894 48896B10 		movq	%rbp, 16(%rbx)
 5735 4898 4801C5   		addq	%rax, %rbp
 5736 489b 488903   		movq	%rax, (%rbx)
 5737 489e 8B54240C 		movl	12(%rsp), %edx
 5738 48a2 4839E9   		cmpq	%rbp, %rcx
 5739 48a5 0F83F0F8 		jnb	.L1291
 5739      FFFF
 5740 48ab 488D7101 		leaq	1(%rcx), %rsi
 5741 48af 4989E8   		movq	%rbp, %r8
 5742 48b2 4C8D5B18 		leaq	24(%rbx), %r11
 5743 48b6 4929F0   		subq	%rsi, %r8
 5744 48b9 4889F7   		movq	%rsi, %rdi
 5745 48bc 4F8D5420 		leaq	5(%r8,%r12), %r10
 5745      05
 5746 48c1 4D8D4801 		leaq	1(%r8), %r9
 5747 48c5 4901C2   		addq	%rax, %r10
 5748 48c8 4D39DA   		cmpq	%r11, %r10
 5749 48cb 4C8D5319 		leaq	25(%rbx), %r10
 5750 48cf 410F96C3 		setbe	%r11b
 5751 48d3 4C39D1   		cmpq	%r10, %rcx
 5752 48d6 410F93C2 		setnb	%r10b
 5753 48da 4508D3   		orb	%r10b, %r11b
 5754 48dd 0F845103 		je	.L1302
 5754      0000
 5755 48e3 4983F916 		cmpq	$22, %r9
 5756 48e7 0F864703 		jbe	.L1302
 5756      0000
 5757 48ed 4889CE   		movq	%rcx, %rsi
 5758 48f0 48F7DE   		negq	%rsi
 5759 48f3 83E60F   		andl	$15, %esi
 5760 48f6 4C39CE   		cmpq	%r9, %rsi
 5761 48f9 490F47F1 		cmova	%r9, %rsi
 5762 48fd 4885F6   		testq	%rsi, %rsi
 5763 4900 0F843101 		je	.L1295
 5763      0000
 5764 4906 440FB653 		movzbl	24(%rbx), %r10d
 5764      18
 5765 490b 4883FE01 		cmpq	$1, %rsi
 5766 490f 448811   		movb	%r10b, (%rcx)
 5767 4912 0F841C01 		je	.L1296
 5767      0000
 5768 4918 440FB653 		movzbl	24(%rbx), %r10d
 5768      18
 5769 491d 4883FE02 		cmpq	$2, %rsi
 5770 4921 488D7902 		leaq	2(%rcx), %rdi
 5771 4925 44885101 		movb	%r10b, 1(%rcx)
 5772 4929 0F840501 		je	.L1296
 5772      0000
 5773 492f 440FB653 		movzbl	24(%rbx), %r10d
 5773      18
 5774 4934 4883FE03 		cmpq	$3, %rsi
 5775 4938 488D7903 		leaq	3(%rcx), %rdi
 5776 493c 44885102 		movb	%r10b, 2(%rcx)
 5777 4940 0F84EE00 		je	.L1296
 5777      0000
 5778 4946 440FB653 		movzbl	24(%rbx), %r10d
 5778      18
 5779 494b 4883FE04 		cmpq	$4, %rsi
 5780 494f 488D7904 		leaq	4(%rcx), %rdi
 5781 4953 44885103 		movb	%r10b, 3(%rcx)
 5782 4957 0F84D700 		je	.L1296
 5782      0000
 5783 495d 440FB653 		movzbl	24(%rbx), %r10d
 5783      18
 5784 4962 4883FE05 		cmpq	$5, %rsi
 5785 4966 488D7905 		leaq	5(%rcx), %rdi
 5786 496a 44885104 		movb	%r10b, 4(%rcx)
 5787 496e 0F84C000 		je	.L1296
 5787      0000
 5788 4974 440FB653 		movzbl	24(%rbx), %r10d
 5788      18
 5789 4979 4883FE06 		cmpq	$6, %rsi
 5790 497d 488D7906 		leaq	6(%rcx), %rdi
 5791 4981 44885105 		movb	%r10b, 5(%rcx)
 5792 4985 0F84A900 		je	.L1296
 5792      0000
 5793 498b 440FB653 		movzbl	24(%rbx), %r10d
 5793      18
 5794 4990 4883FE07 		cmpq	$7, %rsi
 5795 4994 488D7907 		leaq	7(%rcx), %rdi
 5796 4998 44885106 		movb	%r10b, 6(%rcx)
 5797 499c 0F849200 		je	.L1296
 5797      0000
 5798 49a2 440FB653 		movzbl	24(%rbx), %r10d
 5798      18
 5799 49a7 4883FE08 		cmpq	$8, %rsi
 5800 49ab 488D7908 		leaq	8(%rcx), %rdi
 5801 49af 44885107 		movb	%r10b, 7(%rcx)
 5802 49b3 747F     		je	.L1296
 5803 49b5 440FB653 		movzbl	24(%rbx), %r10d
 5803      18
 5804 49ba 4883FE09 		cmpq	$9, %rsi
 5805 49be 488D7909 		leaq	9(%rcx), %rdi
 5806 49c2 44885108 		movb	%r10b, 8(%rcx)
 5807 49c6 746C     		je	.L1296
 5808 49c8 440FB653 		movzbl	24(%rbx), %r10d
 5808      18
 5809 49cd 4883FE0A 		cmpq	$10, %rsi
 5810 49d1 488D790A 		leaq	10(%rcx), %rdi
 5811 49d5 44885109 		movb	%r10b, 9(%rcx)
 5812 49d9 7459     		je	.L1296
 5813 49db 440FB653 		movzbl	24(%rbx), %r10d
 5813      18
 5814 49e0 4883FE0B 		cmpq	$11, %rsi
 5815 49e4 488D790B 		leaq	11(%rcx), %rdi
 5816 49e8 4488510A 		movb	%r10b, 10(%rcx)
 5817 49ec 7446     		je	.L1296
 5818 49ee 440FB653 		movzbl	24(%rbx), %r10d
 5818      18
 5819 49f3 4883FE0C 		cmpq	$12, %rsi
 5820 49f7 488D790C 		leaq	12(%rcx), %rdi
 5821 49fb 4488510B 		movb	%r10b, 11(%rcx)
 5822 49ff 7433     		je	.L1296
 5823 4a01 440FB653 		movzbl	24(%rbx), %r10d
 5823      18
 5824 4a06 4883FE0D 		cmpq	$13, %rsi
 5825 4a0a 488D790D 		leaq	13(%rcx), %rdi
 5826 4a0e 4488510C 		movb	%r10b, 12(%rcx)
 5827 4a12 7420     		je	.L1296
 5828 4a14 440FB653 		movzbl	24(%rbx), %r10d
 5828      18
 5829 4a19 4883FE0F 		cmpq	$15, %rsi
 5830 4a1d 488D790E 		leaq	14(%rcx), %rdi
 5831 4a21 4488510D 		movb	%r10b, 13(%rcx)
 5832 4a25 750D     		jne	.L1296
 5833 4a27 440FB653 		movzbl	24(%rbx), %r10d
 5833      18
 5834 4a2c 488D790F 		leaq	15(%rcx), %rdi
 5835 4a30 4488510E 		movb	%r10b, 14(%rcx)
 5836              	.L1296:
 5837 4a34 4889F9   		movq	%rdi, %rcx
 5838              	.L1295:
 5839 4a37 4C89CF   		movq	%r9, %rdi
 5840 4a3a 4929F0   		subq	%rsi, %r8
 5841 4a3d 4829F7   		subq	%rsi, %rdi
 5842 4a40 4C8D4FF0 		leaq	-16(%rdi), %r9
 5843 4a44 49C1E904 		shrq	$4, %r9
 5844 4a48 4983C101 		addq	$1, %r9
 5845 4a4c 4D89CA   		movq	%r9, %r10
 5846 4a4f 49C1E204 		salq	$4, %r10
 5847 4a53 4983F80E 		cmpq	$14, %r8
 5848 4a57 7642     		jbe	.L1297
 5849 4a59 440FB643 		movzbl	24(%rbx), %r8d
 5849      18
 5850 4a5e 4C01EE   		addq	%r13, %rsi
 5851 4a61 4801F0   		addq	%rsi, %rax
 5852 4a64 31F6     		xorl	%esi, %esi
 5853 4a66 44894424 		movl	%r8d, 12(%rsp)
 5853      0C
 5854 4a6b 660F6E44 		movd	12(%rsp), %xmm0
 5854      240C
 5855 4a71 660F60C0 		punpcklbw	%xmm0, %xmm0
 5856 4a75 660F61C0 		punpcklwd	%xmm0, %xmm0
 5857 4a79 660F70C0 		pshufd	$0, %xmm0, %xmm0
 5857      00
 5858              	.L1298:
 5859 4a7e 4883C601 		addq	$1, %rsi
 5860 4a82 4883C010 		addq	$16, %rax
 5861 4a86 0F2940F0 		movaps	%xmm0, -16(%rax)
 5862 4a8a 4C39CE   		cmpq	%r9, %rsi
 5863 4a8d 72EF     		jb	.L1298
 5864 4a8f 4C01D1   		addq	%r10, %rcx
 5865 4a92 4C39D7   		cmpq	%r10, %rdi
 5866 4a95 0F84FDF6 		je	.L1303
 5866      FFFF
 5867              	.L1297:
 5868 4a9b 0FB64318 		movzbl	24(%rbx), %eax
 5869 4a9f 8801     		movb	%al, (%rcx)
 5870 4aa1 488D4101 		leaq	1(%rcx), %rax
 5871 4aa5 4839C5   		cmpq	%rax, %rbp
 5872 4aa8 0F86EAF6 		jbe	.L1303
 5872      FFFF
 5873 4aae 0FB64318 		movzbl	24(%rbx), %eax
 5874 4ab2 884101   		movb	%al, 1(%rcx)
 5875 4ab5 488D4102 		leaq	2(%rcx), %rax
 5876 4ab9 4839C5   		cmpq	%rax, %rbp
 5877 4abc 0F86D6F6 		jbe	.L1303
 5877      FFFF
 5878 4ac2 0FB64318 		movzbl	24(%rbx), %eax
 5879 4ac6 884102   		movb	%al, 2(%rcx)
 5880 4ac9 488D4103 		leaq	3(%rcx), %rax
 5881 4acd 4839C5   		cmpq	%rax, %rbp
 5882 4ad0 0F86C2F6 		jbe	.L1303
 5882      FFFF
 5883 4ad6 0FB64318 		movzbl	24(%rbx), %eax
 5884 4ada 884103   		movb	%al, 3(%rcx)
 5885 4add 488D4104 		leaq	4(%rcx), %rax
 5886 4ae1 4839C5   		cmpq	%rax, %rbp
 5887 4ae4 0F86AEF6 		jbe	.L1303
 5887      FFFF
 5888 4aea 0FB64318 		movzbl	24(%rbx), %eax
 5889 4aee 884104   		movb	%al, 4(%rcx)
 5890 4af1 488D4105 		leaq	5(%rcx), %rax
 5891 4af5 4839C5   		cmpq	%rax, %rbp
 5892 4af8 0F869AF6 		jbe	.L1303
 5892      FFFF
 5893 4afe 0FB64318 		movzbl	24(%rbx), %eax
 5894 4b02 884105   		movb	%al, 5(%rcx)
 5895 4b05 488D4106 		leaq	6(%rcx), %rax
 5896 4b09 4839C5   		cmpq	%rax, %rbp
 5897 4b0c 0F8686F6 		jbe	.L1303
 5897      FFFF
 5898 4b12 0FB64318 		movzbl	24(%rbx), %eax
 5899 4b16 884106   		movb	%al, 6(%rcx)
 5900 4b19 488D4107 		leaq	7(%rcx), %rax
 5901 4b1d 4839C5   		cmpq	%rax, %rbp
 5902 4b20 0F8672F6 		jbe	.L1303
 5902      FFFF
 5903 4b26 0FB64318 		movzbl	24(%rbx), %eax
 5904 4b2a 884107   		movb	%al, 7(%rcx)
 5905 4b2d 488D4108 		leaq	8(%rcx), %rax
 5906 4b31 4839C5   		cmpq	%rax, %rbp
 5907 4b34 0F865EF6 		jbe	.L1303
 5907      FFFF
 5908 4b3a 0FB64318 		movzbl	24(%rbx), %eax
 5909 4b3e 884108   		movb	%al, 8(%rcx)
 5910 4b41 488D4109 		leaq	9(%rcx), %rax
 5911 4b45 4839C5   		cmpq	%rax, %rbp
 5912 4b48 0F864AF6 		jbe	.L1303
 5912      FFFF
 5913 4b4e 0FB64318 		movzbl	24(%rbx), %eax
 5914 4b52 884109   		movb	%al, 9(%rcx)
 5915 4b55 488D410A 		leaq	10(%rcx), %rax
 5916 4b59 4839C5   		cmpq	%rax, %rbp
 5917 4b5c 0F8636F6 		jbe	.L1303
 5917      FFFF
 5918 4b62 0FB64318 		movzbl	24(%rbx), %eax
 5919 4b66 88410A   		movb	%al, 10(%rcx)
 5920 4b69 488D410B 		leaq	11(%rcx), %rax
 5921 4b6d 4839C5   		cmpq	%rax, %rbp
 5922 4b70 0F8622F6 		jbe	.L1303
 5922      FFFF
 5923 4b76 0FB64318 		movzbl	24(%rbx), %eax
 5924 4b7a 88410B   		movb	%al, 11(%rcx)
 5925 4b7d 488D410C 		leaq	12(%rcx), %rax
 5926 4b81 4839C5   		cmpq	%rax, %rbp
 5927 4b84 0F860EF6 		jbe	.L1303
 5927      FFFF
 5928 4b8a 0FB64318 		movzbl	24(%rbx), %eax
 5929 4b8e 88410C   		movb	%al, 12(%rcx)
 5930 4b91 488D410D 		leaq	13(%rcx), %rax
 5931 4b95 4839C5   		cmpq	%rax, %rbp
 5932 4b98 0F86FAF5 		jbe	.L1303
 5932      FFFF
 5933 4b9e 0FB64318 		movzbl	24(%rbx), %eax
 5934 4ba2 88410D   		movb	%al, 13(%rcx)
 5935 4ba5 488D410E 		leaq	14(%rcx), %rax
 5936 4ba9 4839C5   		cmpq	%rax, %rbp
 5937 4bac 0F86E6F5 		jbe	.L1303
 5937      FFFF
 5938 4bb2 0FB64318 		movzbl	24(%rbx), %eax
 5939 4bb6 88410E   		movb	%al, 14(%rcx)
 5940 4bb9 E9DAF5FF 		jmp	.L1303
 5940      FF
 5941 4bbe 6690     		.p2align 4,,10
 5942              		.p2align 3
 5943              	.L1471:
 5944 4bc0 4983C001 		addq	$1, %r8
 5945              	.L1275:
 5946 4bc4 0FB64318 		movzbl	24(%rbx), %eax
 5947 4bc8 4C39C5   		cmpq	%r8, %rbp
 5948 4bcb 418840FF 		movb	%al, -1(%r8)
 5949 4bcf 75EF     		jne	.L1471
 5950 4bd1 E96FFCFF 		jmp	.L1276
 5950      FF
 5951 4bd6 662E0F1F 		.p2align 4,,10
 5951      84000000 
 5951      0000
 5952              		.p2align 3
 5953              	.L1289:
 5954 4be0 4889F0   		movq	%rsi, %rax
 5955 4be3 480307   		addq	(%rdi), %rax
 5956 4be6 E9E7F8FF 		jmp	.L1288
 5956      FF
 5957              	.L1293:
 5958 4beb 488D3500 		leaq	.LC7(%rip), %rsi
 5958      000000
 5959 4bf2 4C89F7   		movq	%r14, %rdi
 5960 4bf5 E8000000 		call	errPrefix@PLT
 5960      00
 5961 4bfa 488D3500 		leaq	.LC22(%rip), %rsi
 5961      000000
 5962 4c01 4C89F7   		movq	%r14, %rdi
 5963 4c04 E8000000 		call	errPrefix@PLT
 5963      00
 5964 4c09 488D3500 		leaq	.LC29(%rip), %rsi
 5964      000000
 5965 4c10 4C89F7   		movq	%r14, %rdi
 5966 4c13 E8000000 		call	errPrefix@PLT
 5966      00
 5967 4c18 B8010000 		movl	$1, %eax
 5967      00
 5968 4c1d E9D7F8FF 		jmp	.L1265
 5968      FF
 5969              		.p2align 4,,10
 5970 4c22 660F1F44 		.p2align 3
 5970      0000
 5971              	.L1307:
 5972 4c28 4889F1   		movq	%rsi, %rcx
 5973 4c2b E92AF7FF 		jmp	.L1279
 5973      FF
 5974              		.p2align 4,,10
 5975              		.p2align 3
 5976              	.L1472:
 5977 4c30 4883C601 		addq	$1, %rsi
 5978              	.L1302:
 5979 4c34 0FB64318 		movzbl	24(%rbx), %eax
 5980 4c38 4839F5   		cmpq	%rsi, %rbp
 5981 4c3b 8846FF   		movb	%al, -1(%rsi)
 5982 4c3e 75F0     		jne	.L1472
 5983 4c40 E953F5FF 		jmp	.L1303
 5983      FF
 5984              		.p2align 4,,10
 5985 4c45 0F1F00   		.p2align 3
 5986              	.L1305:
 5987 4c48 4889F1   		movq	%rsi, %rcx
 5988 4c4b E995FAFF 		jmp	.L1268
 5988      FF
 5989              	.L1469:
 5990 4c50 4C8B4B08 		movq	8(%rbx), %r9
 5991 4c54 4989C2   		movq	%rax, %r10
 5992 4c57 E964F5FF 		jmp	.L1262
 5992      FF
 5993              	.L1468:
 5994 4c5c E8000000 		call	__stack_chk_fail@PLT
 5994      00
 5995              		.cfi_endproc
 5996              	.LFE64:
 5998              		.section	.text.unlikely
 5999              	.LCOLDE30:
 6000              		.text
 6001              	.LHOTE30:
 6002              		.section	.rodata.str1.1
 6003              	.LC31:
 6004 00ce 62756657 		.string	"bufWriteLongBE()"
 6004      72697465 
 6004      4C6F6E67 
 6004      42452829 
 6004      00
 6005              		.section	.text.unlikely
 6006              	.LCOLDB32:
 6007              		.text
 6008              	.LHOTB32:
 6009 4c61 0F1F4400 		.p2align 4,,15
 6009      00662E0F 
 6009      1F840000 
 6009      000000
 6010              		.globl	bufWriteLongBE
 6012              	bufWriteLongBE:
 6013              	.LFB65:
 6014              		.cfi_startproc
 6015 4c70 4156     		pushq	%r14
 6016              		.cfi_def_cfa_offset 16
 6017              		.cfi_offset 14, -16
 6018 4c72 4155     		pushq	%r13
 6019              		.cfi_def_cfa_offset 24
 6020              		.cfi_offset 13, -24
 6021 4c74 4989CE   		movq	%rcx, %r14
 6022 4c77 4154     		pushq	%r12
 6023              		.cfi_def_cfa_offset 32
 6024              		.cfi_offset 12, -32
 6025 4c79 55       		pushq	%rbp
 6026              		.cfi_def_cfa_offset 40
 6027              		.cfi_offset 6, -40
 6028 4c7a 4989F4   		movq	%rsi, %r12
 6029 4c7d 53       		pushq	%rbx
 6030              		.cfi_def_cfa_offset 48
 6031              		.cfi_offset 3, -48
 6032 4c7e 4C8D6E04 		leaq	4(%rsi), %r13
 6033 4c82 4889FB   		movq	%rdi, %rbx
 6034 4c85 4883EC20 		subq	$32, %rsp
 6035              		.cfi_def_cfa_offset 80
 6036 4c89 4C8B4F08 		movq	8(%rdi), %r9
 6037 4c8d 64488B04 		movq	%fs:40, %rax
 6037      25280000 
 6037      00
 6038 4c96 48894424 		movq	%rax, 24(%rsp)
 6038      18
 6039 4c9b 31C0     		xorl	%eax, %eax
 6040 4c9d 4C39CE   		cmpq	%r9, %rsi
 6041 4ca0 732E     		jnb	.L1681
 6042 4ca2 4D39CD   		cmpq	%r9, %r13
 6043 4ca5 0F86550A 		jbe	.L1503
 6043      0000
 6044 4cab 488B6F10 		movq	16(%rdi), %rbp
 6045 4caf 4939ED   		cmpq	%rbp, %r13
 6046 4cb2 0F87D806 		ja	.L1506
 6046      0000
 6047              	.L1517:
 6048 4cb8 488B03   		movq	(%rbx), %rax
 6049              	.L1505:
 6050 4cbb 4C896B08 		movq	%r13, 8(%rbx)
 6051 4cbf 4C01E0   		addq	%r12, %rax
 6052 4cc2 E92B0300 		jmp	.L1502
 6052      00
 6053 4cc7 660F1F84 		.p2align 4,,10
 6053      00000000 
 6053      00
 6054              		.p2align 3
 6055              	.L1681:
 6056 4cd0 488B6F10 		movq	16(%rdi), %rbp
 6057 4cd4 4939ED   		cmpq	%rbp, %r13
 6058 4cd7 0F876303 		ja	.L1477
 6058      0000
 6059 4cdd 4C8B17   		movq	(%rdi), %r10
 6060              	.L1476:
 6061 4ce0 4B8D340A 		leaq	(%r10,%r9), %rsi
 6062 4ce4 4B8D0422 		leaq	(%r10,%r12), %rax
 6063 4ce8 4839C6   		cmpq	%rax, %rsi
 6064 4ceb 0F83FD02 		jnb	.L1491
 6064      0000
 6065 4cf1 4C8D4601 		leaq	1(%rsi), %r8
 6066 4cf5 4989C6   		movq	%rax, %r14
 6067 4cf8 488D6B18 		leaq	24(%rbx), %rbp
 6068 4cfc 4D29C6   		subq	%r8, %r14
 6069 4cff 4C89C1   		movq	%r8, %rcx
 6070 4d02 4B8D7C31 		leaq	1(%r9,%r14), %rdi
 6070      01
 6071 4d07 4D8D5E01 		leaq	1(%r14), %r11
 6072 4d0b 4C01D7   		addq	%r10, %rdi
 6073 4d0e 4839FD   		cmpq	%rdi, %rbp
 6074 4d11 488D7B19 		leaq	25(%rbx), %rdi
 6075 4d15 400F93C5 		setnb	%bpl
 6076 4d19 4839FE   		cmpq	%rdi, %rsi
 6077 4d1c 400F93C7 		setnb	%dil
 6078 4d20 4008FD   		orb	%dil, %bpl
 6079 4d23 0F845306 		je	.L1500
 6079      0000
 6080 4d29 4983FB16 		cmpq	$22, %r11
 6081 4d2d 0F864906 		jbe	.L1500
 6081      0000
 6082 4d33 4889F7   		movq	%rsi, %rdi
 6083 4d36 48F7DF   		negq	%rdi
 6084 4d39 83E70F   		andl	$15, %edi
 6085 4d3c 4C39DF   		cmpq	%r11, %rdi
 6086 4d3f 490F47FB 		cmova	%r11, %rdi
 6087 4d43 4885FF   		testq	%rdi, %rdi
 6088 4d46 0F84FC09 		je	.L1521
 6088      0000
 6089 4d4c 440FB643 		movzbl	24(%rbx), %r8d
 6089      18
 6090 4d51 4883FF01 		cmpq	$1, %rdi
 6091 4d55 448806   		movb	%r8b, (%rsi)
 6092 4d58 0F841C01 		je	.L1493
 6092      0000
 6093 4d5e 440FB643 		movzbl	24(%rbx), %r8d
 6093      18
 6094 4d63 4883FF02 		cmpq	$2, %rdi
 6095 4d67 488D4E02 		leaq	2(%rsi), %rcx
 6096 4d6b 44884601 		movb	%r8b, 1(%rsi)
 6097 4d6f 0F840501 		je	.L1493
 6097      0000
 6098 4d75 440FB643 		movzbl	24(%rbx), %r8d
 6098      18
 6099 4d7a 4883FF03 		cmpq	$3, %rdi
 6100 4d7e 488D4E03 		leaq	3(%rsi), %rcx
 6101 4d82 44884602 		movb	%r8b, 2(%rsi)
 6102 4d86 0F84EE00 		je	.L1493
 6102      0000
 6103 4d8c 440FB643 		movzbl	24(%rbx), %r8d
 6103      18
 6104 4d91 4883FF04 		cmpq	$4, %rdi
 6105 4d95 488D4E04 		leaq	4(%rsi), %rcx
 6106 4d99 44884603 		movb	%r8b, 3(%rsi)
 6107 4d9d 0F84D700 		je	.L1493
 6107      0000
 6108 4da3 440FB643 		movzbl	24(%rbx), %r8d
 6108      18
 6109 4da8 4883FF05 		cmpq	$5, %rdi
 6110 4dac 488D4E05 		leaq	5(%rsi), %rcx
 6111 4db0 44884604 		movb	%r8b, 4(%rsi)
 6112 4db4 0F84C000 		je	.L1493
 6112      0000
 6113 4dba 440FB643 		movzbl	24(%rbx), %r8d
 6113      18
 6114 4dbf 4883FF06 		cmpq	$6, %rdi
 6115 4dc3 488D4E06 		leaq	6(%rsi), %rcx
 6116 4dc7 44884605 		movb	%r8b, 5(%rsi)
 6117 4dcb 0F84A900 		je	.L1493
 6117      0000
 6118 4dd1 440FB643 		movzbl	24(%rbx), %r8d
 6118      18
 6119 4dd6 4883FF07 		cmpq	$7, %rdi
 6120 4dda 488D4E07 		leaq	7(%rsi), %rcx
 6121 4dde 44884606 		movb	%r8b, 6(%rsi)
 6122 4de2 0F849200 		je	.L1493
 6122      0000
 6123 4de8 440FB643 		movzbl	24(%rbx), %r8d
 6123      18
 6124 4ded 4883FF08 		cmpq	$8, %rdi
 6125 4df1 488D4E08 		leaq	8(%rsi), %rcx
 6126 4df5 44884607 		movb	%r8b, 7(%rsi)
 6127 4df9 747F     		je	.L1493
 6128 4dfb 440FB643 		movzbl	24(%rbx), %r8d
 6128      18
 6129 4e00 4883FF09 		cmpq	$9, %rdi
 6130 4e04 488D4E09 		leaq	9(%rsi), %rcx
 6131 4e08 44884608 		movb	%r8b, 8(%rsi)
 6132 4e0c 746C     		je	.L1493
 6133 4e0e 440FB643 		movzbl	24(%rbx), %r8d
 6133      18
 6134 4e13 4883FF0A 		cmpq	$10, %rdi
 6135 4e17 488D4E0A 		leaq	10(%rsi), %rcx
 6136 4e1b 44884609 		movb	%r8b, 9(%rsi)
 6137 4e1f 7459     		je	.L1493
 6138 4e21 440FB643 		movzbl	24(%rbx), %r8d
 6138      18
 6139 4e26 4883FF0B 		cmpq	$11, %rdi
 6140 4e2a 488D4E0B 		leaq	11(%rsi), %rcx
 6141 4e2e 4488460A 		movb	%r8b, 10(%rsi)
 6142 4e32 7446     		je	.L1493
 6143 4e34 440FB643 		movzbl	24(%rbx), %r8d
 6143      18
 6144 4e39 4883FF0C 		cmpq	$12, %rdi
 6145 4e3d 488D4E0C 		leaq	12(%rsi), %rcx
 6146 4e41 4488460B 		movb	%r8b, 11(%rsi)
 6147 4e45 7433     		je	.L1493
 6148 4e47 440FB643 		movzbl	24(%rbx), %r8d
 6148      18
 6149 4e4c 4883FF0D 		cmpq	$13, %rdi
 6150 4e50 488D4E0D 		leaq	13(%rsi), %rcx
 6151 4e54 4488460C 		movb	%r8b, 12(%rsi)
 6152 4e58 7420     		je	.L1493
 6153 4e5a 440FB643 		movzbl	24(%rbx), %r8d
 6153      18
 6154 4e5f 4883FF0F 		cmpq	$15, %rdi
 6155 4e63 488D4E0E 		leaq	14(%rsi), %rcx
 6156 4e67 4488460D 		movb	%r8b, 13(%rsi)
 6157 4e6b 750D     		jne	.L1493
 6158 4e6d 440FB643 		movzbl	24(%rbx), %r8d
 6158      18
 6159 4e72 488D4E0F 		leaq	15(%rsi), %rcx
 6160 4e76 4488460E 		movb	%r8b, 14(%rsi)
 6161              	.L1493:
 6162 4e7a 4929FB   		subq	%rdi, %r11
 6163 4e7d 4929FE   		subq	%rdi, %r14
 6164 4e80 4D89D8   		movq	%r11, %r8
 6165 4e83 4D8D5BF0 		leaq	-16(%r11), %r11
 6166 4e87 49C1EB04 		shrq	$4, %r11
 6167 4e8b 4983C301 		addq	$1, %r11
 6168 4e8f 4C89DD   		movq	%r11, %rbp
 6169 4e92 48C1E504 		salq	$4, %rbp
 6170 4e96 4983FE0E 		cmpq	$14, %r14
 6171 4e9a 7640     		jbe	.L1495
 6172 4e9c 0FB67318 		movzbl	24(%rbx), %esi
 6173 4ea0 4C01CF   		addq	%r9, %rdi
 6174 4ea3 4C01D7   		addq	%r10, %rdi
 6175 4ea6 8974240C 		movl	%esi, 12(%rsp)
 6176 4eaa 31F6     		xorl	%esi, %esi
 6177 4eac 660F6E44 		movd	12(%rsp), %xmm0
 6177      240C
 6178 4eb2 660F60C0 		punpcklbw	%xmm0, %xmm0
 6179 4eb6 660F61C0 		punpcklwd	%xmm0, %xmm0
 6180 4eba 660F70C0 		pshufd	$0, %xmm0, %xmm0
 6180      00
 6181              	.L1496:
