   1              		.file	"i2c.c"
   2              		.section	.rodata.str1.1,"aMS",@progbits,1
   3              	.LC0:
   4 0000 64756D70 		.string	"dumpChunk()"
   4      4368756E 
   4      6B282900 
   5              		.section	.text.unlikely,"ax",@progbits
   6              	.LCOLDB1:
   7              		.text
   8              	.LHOTB1:
   9              		.p2align 4,,15
  11              	dumpChunk.part.0:
  12              	.LFB9:
  13              		.cfi_startproc
  14 0000 4157     		pushq	%r15
  15              		.cfi_def_cfa_offset 16
  16              		.cfi_offset 15, -16
  17 0002 4156     		pushq	%r14
  18              		.cfi_def_cfa_offset 24
  19              		.cfi_offset 14, -24
  20 0004 4589C7   		movl	%r8d, %r15d
  21 0007 4155     		pushq	%r13
  22              		.cfi_def_cfa_offset 32
  23              		.cfi_offset 13, -32
  24 0009 4154     		pushq	%r12
  25              		.cfi_def_cfa_offset 40
  26              		.cfi_offset 12, -40
  27 000b 4989F6   		movq	%rsi, %r14
  28 000e 55       		pushq	%rbp
  29              		.cfi_def_cfa_offset 48
  30              		.cfi_offset 6, -48
  31 000f 53       		pushq	%rbx
  32              		.cfi_def_cfa_offset 56
  33              		.cfi_offset 3, -56
  34 0010 4889FD   		movq	%rdi, %rbp
  35 0013 4989D5   		movq	%rdx, %r13
  36 0016 4D89CC   		movq	%r9, %r12
  37 0019 89CB     		movl	%ecx, %ebx
  38 001b 4883EC18 		subq	$24, %rsp
  39              		.cfi_def_cfa_offset 80
  40 001f 664181F8 		cmpw	$1023, %r8w
  40      FF03
  41 0025 771C     		ja	.L5
  42 0027 EB5F     		jmp	.L2
  43 0029 0F1F8000 		.p2align 4,,10
  43      000000
  44              		.p2align 3
  45              	.L3:
  46 0030 664181EF 		subw	$1023, %r15w
  46      FF03
  47 0036 6681C3FF 		addw	$1023, %bx
  47      03
  48 003b 664181FF 		cmpw	$1023, %r15w
  48      FF03
  49 0041 7645     		jbe	.L2
  50              	.L5:
  51 0043 0FB7CB   		movzwl	%bx, %ecx
  52 0046 4D89E1   		movq	%r12, %r9
  53 0049 41B8FF03 		movl	$1023, %r8d
  53      0000
  54 004f 4C89EA   		movq	%r13, %rdx
  55 0052 4C89F6   		movq	%r14, %rsi
  56 0055 4889EF   		movq	%rbp, %rdi
  57 0058 E8A3FFFF 		call	dumpChunk.part.0
  57      FF
  58 005d 85C0     		testl	%eax, %eax
  59 005f 74CF     		je	.L3
  60 0061 488D3500 		leaq	.LC0(%rip), %rsi
  60      000000
  61 0068 4C89E7   		movq	%r12, %rdi
  62 006b 890424   		movl	%eax, (%rsp)
  63 006e E8000000 		call	errPrefix@PLT
  63      00
  64 0073 8B0424   		movl	(%rsp), %eax
  65 0076 4883C418 		addq	$24, %rsp
  66              		.cfi_remember_state
  67              		.cfi_def_cfa_offset 56
  68 007a 5B       		popq	%rbx
  69              		.cfi_def_cfa_offset 48
  70 007b 5D       		popq	%rbp
  71              		.cfi_def_cfa_offset 40
  72 007c 415C     		popq	%r12
  73              		.cfi_def_cfa_offset 32
  74 007e 415D     		popq	%r13
  75              		.cfi_def_cfa_offset 24
  76 0080 415E     		popq	%r14
  77              		.cfi_def_cfa_offset 16
  78 0082 415F     		popq	%r15
  79              		.cfi_def_cfa_offset 8
  80 0084 C3       		ret
  81              		.p2align 4,,10
  82 0085 0F1F00   		.p2align 3
  83              	.L2:
  84              		.cfi_restore_state
  85 0088 410FB7F7 		movzwl	%r15w, %esi
  86 008c 4C89E2   		movq	%r12, %rdx
  87 008f 4889EF   		movq	%rbp, %rdi
  88 0092 E8000000 		call	bufAppendWordBE@PLT
  88      00
  89 0097 85C0     		testl	%eax, %eax
  90 0099 0F859100 		jne	.L7
  90      0000
  91 009f 0FB7F3   		movzwl	%bx, %esi
  92 00a2 4C89E2   		movq	%r12, %rdx
  93 00a5 4889EF   		movq	%rbp, %rdi
  94 00a8 E8000000 		call	bufAppendWordBE@PLT
  94      00
  95 00ad 85C0     		testl	%eax, %eax
  96 00af 757F     		jne	.L7
  97 00b1 0FB7DB   		movzwl	%bx, %ebx
  98 00b4 488B4508 		movq	8(%rbp), %rax
  99 00b8 450FB7C7 		movzwl	%r15w, %r8d
 100 00bc 4889DE   		movq	%rbx, %rsi
 101 00bf 490336   		addq	(%r14), %rsi
 102 00c2 4C89E1   		movq	%r12, %rcx
 103 00c5 4C89C2   		movq	%r8, %rdx
 104 00c8 4889EF   		movq	%rbp, %rdi
 105 00cb 4C894424 		movq	%r8, 8(%rsp)
 105      08
 106 00d0 48890424 		movq	%rax, (%rsp)
 107 00d4 E8000000 		call	bufAppendBlock@PLT
 107      00
 108 00d9 85C0     		testl	%eax, %eax
 109 00db 7553     		jne	.L7
 110 00dd 488B0C24 		movq	(%rsp), %rcx
 111 00e1 4C8B4424 		movq	8(%rsp), %r8
 111      08
 112 00e6 4829D9   		subq	%rbx, %rcx
 113 00e9 664585FF 		testw	%r15w, %r15w
 114 00ed 498D1418 		leaq	(%r8,%rbx), %rdx
 115 00f1 7423     		je	.L11
 116              		.p2align 4,,10
 117 00f3 0F1F4400 		.p2align 3
 117      00
 118              	.L12:
 119 00f8 498B4500 		movq	0(%r13), %rax
 120 00fc 803C1800 		cmpb	$0, (%rax,%rbx)
 121 0100 750B     		jne	.L9
 122 0102 4889D8   		movq	%rbx, %rax
 123 0105 48034500 		addq	0(%rbp), %rax
 124 0109 C6040800 		movb	$0, (%rax,%rcx)
 125              	.L9:
 126 010d 4883C301 		addq	$1, %rbx
 127 0111 4839DA   		cmpq	%rbx, %rdx
 128 0114 75E2     		jne	.L12
 129              	.L11:
 130 0116 4883C418 		addq	$24, %rsp
 131              		.cfi_remember_state
 132              		.cfi_def_cfa_offset 56
 133 011a 31C0     		xorl	%eax, %eax
 134 011c 5B       		popq	%rbx
 135              		.cfi_def_cfa_offset 48
 136 011d 5D       		popq	%rbp
 137              		.cfi_def_cfa_offset 40
 138 011e 415C     		popq	%r12
 139              		.cfi_def_cfa_offset 32
 140 0120 415D     		popq	%r13
 141              		.cfi_def_cfa_offset 24
 142 0122 415E     		popq	%r14
 143              		.cfi_def_cfa_offset 16
 144 0124 415F     		popq	%r15
 145              		.cfi_def_cfa_offset 8
 146 0126 C3       		ret
 147 0127 660F1F84 		.p2align 4,,10
 147      00000000 
 147      00
 148              		.p2align 3
 149              	.L7:
 150              		.cfi_restore_state
 151 0130 488D3500 		leaq	.LC0(%rip), %rsi
 151      000000
 152 0137 4C89E7   		movq	%r12, %rdi
 153 013a E8000000 		call	errPrefix@PLT
 153      00
 154 013f 4883C418 		addq	$24, %rsp
 155              		.cfi_def_cfa_offset 56
 156 0143 B8010000 		movl	$1, %eax
 156      00
 157 0148 5B       		popq	%rbx
 158              		.cfi_def_cfa_offset 48
 159 0149 5D       		popq	%rbp
 160              		.cfi_def_cfa_offset 40
 161 014a 415C     		popq	%r12
 162              		.cfi_def_cfa_offset 32
 163 014c 415D     		popq	%r13
 164              		.cfi_def_cfa_offset 24
 165 014e 415E     		popq	%r14
 166              		.cfi_def_cfa_offset 16
 167 0150 415F     		popq	%r15
 168              		.cfi_def_cfa_offset 8
 169 0152 C3       		ret
 170              		.cfi_endproc
 171              	.LFE9:
 173              		.section	.text.unlikely
 174              	.LCOLDE1:
 175              		.text
 176              	.LHOTE1:
 177              		.section	.text.unlikely
 178              	.LCOLDB2:
 179              		.text
 180              	.LHOTB2:
 181 0153 0F1F0066 		.p2align 4,,15
 181      2E0F1F84 
 181      00000000 
 181      00
 182              		.globl	i2cInitialise
 184              	i2cInitialise:
 185              	.LFB4:
 186              		.cfi_startproc
 187 0160 488B07   		movq	(%rdi), %rax
 188 0163 48C74708 		movq	$8, 8(%rdi)
 188      08000000 
 189 016b C600C2   		movb	$-62, (%rax)
 190 016e 488B07   		movq	(%rdi), %rax
 191 0171 40887001 		movb	%sil, 1(%rax)
 192 0175 488B07   		movq	(%rdi), %rax
 193 0178 66C1EE08 		shrw	$8, %si
 194 017c 40887002 		movb	%sil, 2(%rax)
 195 0180 488B07   		movq	(%rdi), %rax
 196 0183 885003   		movb	%dl, 3(%rax)
 197 0186 488B07   		movq	(%rdi), %rax
 198 0189 66C1EA08 		shrw	$8, %dx
 199 018d 885004   		movb	%dl, 4(%rax)
 200 0190 488B07   		movq	(%rdi), %rax
 201 0193 884805   		movb	%cl, 5(%rax)
 202 0196 488B07   		movq	(%rdi), %rax
 203 0199 66C1E908 		shrw	$8, %cx
 204 019d 884806   		movb	%cl, 6(%rax)
 205 01a0 488B07   		movq	(%rdi), %rax
 206 01a3 44884007 		movb	%r8b, 7(%rax)
 207 01a7 C3       		ret
 208              		.cfi_endproc
 209              	.LFE4:
 211              		.section	.text.unlikely
 212              	.LCOLDE2:
 213              		.text
 214              	.LHOTE2:
 215              		.section	.rodata.str1.8,"aMS",@progbits,1
 216              		.align 8
 217              	.LC3:
 218 0000 69326357 		.string	"i2cWritePromRecords(): the buffer was not initialised"
 218      72697465 
 218      50726F6D 
 218      5265636F 
 218      72647328 
 219              		.section	.rodata.str1.1
 220              	.LC4:
 221 000c 69326357 		.string	"i2cWritePromRecords()"
 221      72697465 
 221      50726F6D 
 221      5265636F 
 221      72647328 
 222              		.section	.text.unlikely
 223              	.LCOLDB5:
 224              		.text
 225              	.LHOTB5:
 226 01a8 0F1F8400 		.p2align 4,,15
 226      00000000 
 227              		.globl	i2cWritePromRecords
 229              	i2cWritePromRecords:
 230              	.LFB6:
 231              		.cfi_startproc
 232 01b0 4156     		pushq	%r14
 233              		.cfi_def_cfa_offset 16
 234              		.cfi_offset 14, -16
 235 01b2 4155     		pushq	%r13
 236              		.cfi_def_cfa_offset 24
 237              		.cfi_offset 13, -24
 238 01b4 4154     		pushq	%r12
 239              		.cfi_def_cfa_offset 32
 240              		.cfi_offset 12, -32
 241 01b6 55       		pushq	%rbp
 242              		.cfi_def_cfa_offset 40
 243              		.cfi_offset 6, -40
 244 01b7 4989CC   		movq	%rcx, %r12
 245 01ba 53       		pushq	%rbx
 246              		.cfi_def_cfa_offset 48
 247              		.cfi_offset 3, -48
 248 01bb 4883EC10 		subq	$16, %rsp
 249              		.cfi_def_cfa_offset 64
 250 01bf 48837F08 		cmpq	$8, 8(%rdi)
 250      08
 251 01c4 742A     		je	.L70
 252              	.L19:
 253 01c6 488D3500 		leaq	.LC3(%rip), %rsi
 253      000000
 254 01cd 4C89E7   		movq	%r12, %rdi
 255 01d0 E8000000 		call	errPrefix@PLT
 255      00
 256 01d5 B8020000 		movl	$2, %eax
 256      00
 257              	.L23:
 258 01da 4883C410 		addq	$16, %rsp
 259              		.cfi_remember_state
 260              		.cfi_def_cfa_offset 48
 261 01de 5B       		popq	%rbx
 262              		.cfi_def_cfa_offset 40
 263 01df 5D       		popq	%rbp
 264              		.cfi_def_cfa_offset 32
 265 01e0 415C     		popq	%r12
 266              		.cfi_def_cfa_offset 24
 267 01e2 415D     		popq	%r13
 268              		.cfi_def_cfa_offset 16
 269 01e4 415E     		popq	%r14
 270              		.cfi_def_cfa_offset 8
 271 01e6 C3       		ret
 272 01e7 660F1F84 		.p2align 4,,10
 272      00000000 
 272      00
 273              		.p2align 3
 274              	.L70:
 275              		.cfi_restore_state
 276 01f0 488B07   		movq	(%rdi), %rax
 277 01f3 4889FD   		movq	%rdi, %rbp
 278 01f6 8038C2   		cmpb	$-62, (%rax)
 279 01f9 75CB     		jne	.L19
 280 01fb 4989D5   		movq	%rdx, %r13
 281 01fe 488B12   		movq	(%rdx), %rdx
 282 0201 31C0     		xorl	%eax, %eax
 283 0203 31DB     		xorl	%ebx, %ebx
 284 0205 4989F6   		movq	%rsi, %r14
 285 0208 488B4E08 		movq	8(%rsi), %rcx
 286 020c 803A00   		cmpb	$0, (%rdx)
 287 020f 7520     		jne	.L21
 288 0211 31DB     		xorl	%ebx, %ebx
 289 0213 4885C9   		testq	%rcx, %rcx
 290 0216 750D     		jne	.L54
 291 0218 E9DD0000 		jmp	.L25
 291      00
 292 021d 0F1F00   		.p2align 4,,10
 293              		.p2align 3
 294              	.L71:
 295 0220 4839C8   		cmpq	%rcx, %rax
 296 0223 730C     		jnb	.L21
 297              	.L54:
 298 0225 83C301   		addl	$1, %ebx
 299 0228 0FB7C3   		movzwl	%bx, %eax
 300 022b 803C0200 		cmpb	$0, (%rdx,%rax)
 301 022f 74EF     		je	.L71
 302              	.L21:
 303 0231 4839C8   		cmpq	%rcx, %rax
 304 0234 0F84C000 		je	.L25
 304      0000
 305 023a 4189D9   		movl	%ebx, %r9d
 306 023d 0FB7C3   		movzwl	%bx, %eax
 307              		.p2align 4,,10
 308              		.p2align 3
 309              	.L26:
 310 0240 0FB63402 		movzbl	(%rdx,%rax), %esi
 311 0244 4084F6   		testb	%sil, %sil
 312 0247 7417     		je	.L27
 313              	.L72:
 314 0249 4839C8   		cmpq	%rcx, %rax
 315 024c 7312     		jnb	.L27
 316 024e 83C301   		addl	$1, %ebx
 317 0251 0FB7C3   		movzwl	%bx, %eax
 318 0254 0FB63402 		movzbl	(%rdx,%rax), %esi
 319 0258 4084F6   		testb	%sil, %sil
 320 025b 75EC     		jne	.L72
 321 025d 0F1F00   		.p2align 4,,10
 322              		.p2align 3
 323              	.L27:
 324 0260 4839C8   		cmpq	%rcx, %rax
 325 0263 0F849800 		je	.L73
 325      0000
 326 0269 488D79FC 		leaq	-4(%rcx), %rdi
 327 026d 4839F8   		cmpq	%rdi, %rax
 328 0270 0F83CE00 		jnb	.L30
 328      0000
 329 0276 4084F6   		testb	%sil, %sil
 330 0279 7555     		jne	.L31
 331 027b 807C0201 		cmpb	$0, 1(%rdx,%rax)
 331      00
 332 0280 755E     		jne	.L36
 333 0282 807C0202 		cmpb	$0, 2(%rdx,%rax)
 333      00
 334 0287 7557     		jne	.L36
 335 0289 807C0203 		cmpb	$0, 3(%rdx,%rax)
 335      00
 336 028e 7550     		jne	.L36
 337 0290 4189D8   		movl	%ebx, %r8d
 338 0293 664529C8 		subw	%r9w, %r8w
 339 0297 0F85BF00 		jne	.L74
 339      0000
 340              	.L33:
 341 029d 498B5508 		movq	8(%r13), %rdx
 342 02a1 83C304   		addl	$4, %ebx
 343 02a4 0FB7C3   		movzwl	%bx, %eax
 344 02a7 4839D0   		cmpq	%rdx, %rax
 345 02aa 731D     		jnb	.L41
 346 02ac 498B7500 		movq	0(%r13), %rsi
 347 02b0 EB11     		jmp	.L66
 348              		.p2align 4,,10
 349 02b2 660F1F44 		.p2align 3
 349      0000
 350              	.L75:
 351 02b8 83C301   		addl	$1, %ebx
 352 02bb 0FB7C3   		movzwl	%bx, %eax
 353 02be 4839D0   		cmpq	%rdx, %rax
 354 02c1 7306     		jnb	.L41
 355              	.L66:
 356 02c3 803C0600 		cmpb	$0, (%rsi,%rax)
 357 02c7 74EF     		je	.L75
 358              	.L41:
 359 02c9 4189D9   		movl	%ebx, %r9d
 360 02cc 0F1F4000 		.p2align 4,,10
 361              		.p2align 3
 362              	.L31:
 363 02d0 4839C8   		cmpq	%rcx, %rax
 364 02d3 7325     		jnb	.L25
 365 02d5 498B5500 		movq	0(%r13), %rdx
 366 02d9 E962FFFF 		jmp	.L26
 366      FF
 367 02de 6690     		.p2align 4,,10
 368              		.p2align 3
 369              	.L36:
 370 02e0 83C301   		addl	$1, %ebx
 371 02e3 0FB7C3   		movzwl	%bx, %eax
 372 02e6 803C0200 		cmpb	$0, (%rdx,%rax)
 373 02ea 75E4     		jne	.L31
 374 02ec 83C301   		addl	$1, %ebx
 375 02ef 0FB7C3   		movzwl	%bx, %eax
 376 02f2 803C0200 		cmpb	$0, (%rdx,%rax)
 377 02f6 74E8     		je	.L36
 378 02f8 EBD6     		jmp	.L31
 379              	.L25:
 380 02fa 31C0     		xorl	%eax, %eax
 381 02fc E9D9FEFF 		jmp	.L23
 381      FF
 382              	.L73:
 383 0301 664429CB 		subw	%r9w, %bx
 384 0305 410FB7C9 		movzwl	%r9w, %ecx
 385 0309 4D89E1   		movq	%r12, %r9
 386 030c 440FB7C3 		movzwl	%bx, %r8d
 387 0310 74E8     		je	.L25
 388              	.L68:
 389 0312 4C89EA   		movq	%r13, %rdx
 390 0315 4C89F6   		movq	%r14, %rsi
 391 0318 4889EF   		movq	%rbp, %rdi
 392 031b E8E0FCFF 		call	dumpChunk.part.0
 392      FF
 393 0320 85C0     		testl	%eax, %eax
 394 0322 0F84B2FE 		je	.L23
 394      FFFF
 395              	.L65:
 396 0328 488D3500 		leaq	.LC4(%rip), %rsi
 396      000000
 397 032f 4C89E7   		movq	%r12, %rdi
 398 0332 8944240C 		movl	%eax, 12(%rsp)
 399 0336 E8000000 		call	errPrefix@PLT
 399      00
 400 033b 8B44240C 		movl	12(%rsp), %eax
 401 033f E996FEFF 		jmp	.L23
 401      FF
 402              	.L30:
 403 0344 450FB745 		movzwl	8(%r13), %r8d
 403      08
 404 0349 664529C8 		subw	%r9w, %r8w
 405 034d 74AB     		je	.L25
 406 034f 410FB7C9 		movzwl	%r9w, %ecx
 407 0353 450FB7C0 		movzwl	%r8w, %r8d
 408 0357 4D89E1   		movq	%r12, %r9
 409 035a EBB6     		jmp	.L68
 410              	.L74:
 411 035c 410FB7C9 		movzwl	%r9w, %ecx
 412 0360 450FB7C0 		movzwl	%r8w, %r8d
 413 0364 4D89E1   		movq	%r12, %r9
 414 0367 4C89EA   		movq	%r13, %rdx
 415 036a 4C89F6   		movq	%r14, %rsi
 416 036d 4889EF   		movq	%rbp, %rdi
 417 0370 E88BFCFF 		call	dumpChunk.part.0
 417      FF
 418 0375 85C0     		testl	%eax, %eax
 419 0377 75AF     		jne	.L65
 420 0379 498B4E08 		movq	8(%r14), %rcx
 421 037d E91BFFFF 		jmp	.L33
 421      FF
 422              		.cfi_endproc
 423              	.LFE6:
 425              		.section	.text.unlikely
 426              	.LCOLDE5:
 427              		.text
 428              	.LHOTE5:
 429              		.section	.rodata.str1.8
 430 0036 0000     		.align 8
 431              	.LC6:
 432 0038 69326352 		.string	"i2cReadPromRecords(): the EEPROM records appear to be corrupt/uninitialised"
 432      65616450 
 432      726F6D52 
 432      65636F72 
 432      64732829 
 433 0084 00000000 		.align 8
 434              	.LC7:
 435 0088 69326352 		.string	"i2cReadPromRecords(): the destination buffer is not empty"
 435      65616450 
 435      726F6D52 
 435      65636F72 
 435      64732829 
 436              		.section	.rodata.str1.1
 437              	.LC8:
 438 0022 69326352 		.string	"i2cReadPromRecords()"
 438      65616450 
 438      726F6D52 
 438      65636F72 
 438      64732829 
 439              		.section	.text.unlikely
 440              	.LCOLDB9:
 441              		.text
 442              	.LHOTB9:
 443 0382 0F1F4000 		.p2align 4,,15
 443      662E0F1F 
 443      84000000 
 443      0000
 444              		.globl	i2cReadPromRecords
 446              	i2cReadPromRecords:
 447              	.LFB7:
 448              		.cfi_startproc
 449 0390 4157     		pushq	%r15
 450              		.cfi_def_cfa_offset 16
 451              		.cfi_offset 15, -16
 452 0392 4156     		pushq	%r14
 453              		.cfi_def_cfa_offset 24
 454              		.cfi_offset 14, -24
 455 0394 4155     		pushq	%r13
 456              		.cfi_def_cfa_offset 32
 457              		.cfi_offset 13, -32
 458 0396 4154     		pushq	%r12
 459              		.cfi_def_cfa_offset 40
 460              		.cfi_offset 12, -40
 461 0398 55       		pushq	%rbp
 462              		.cfi_def_cfa_offset 48
 463              		.cfi_offset 6, -48
 464 0399 53       		pushq	%rbx
 465              		.cfi_def_cfa_offset 56
 466              		.cfi_offset 3, -56
 467 039a 4889CB   		movq	%rcx, %rbx
 468 039d 4883EC18 		subq	$24, %rsp
 469              		.cfi_def_cfa_offset 80
 470 03a1 488B4208 		movq	8(%rdx), %rax
 471 03a5 4883F80C 		cmpq	$12, %rax
 472 03a9 7608     		jbe	.L77
 473 03ab 488B12   		movq	(%rdx), %rdx
 474 03ae 803AC2   		cmpb	$-62, (%rdx)
 475 03b1 742D     		je	.L78
 476              	.L77:
 477 03b3 488D3500 		leaq	.LC6(%rip), %rsi
 477      000000
 478 03ba 4889DF   		movq	%rbx, %rdi
 479 03bd E8000000 		call	errPrefix@PLT
 479      00
 480 03c2 B8020000 		movl	$2, %eax
 480      00
 481              	.L79:
 482 03c7 4883C418 		addq	$24, %rsp
 483              		.cfi_remember_state
 484              		.cfi_def_cfa_offset 56
 485 03cb 5B       		popq	%rbx
 486              		.cfi_def_cfa_offset 48
 487 03cc 5D       		popq	%rbp
 488              		.cfi_def_cfa_offset 40
 489 03cd 415C     		popq	%r12
 490              		.cfi_def_cfa_offset 32
 491 03cf 415D     		popq	%r13
 492              		.cfi_def_cfa_offset 24
 493 03d1 415E     		popq	%r14
 494              		.cfi_def_cfa_offset 16
 495 03d3 415F     		popq	%r15
 496              		.cfi_def_cfa_offset 8
 497 03d5 C3       		ret
 498 03d6 662E0F1F 		.p2align 4,,10
 498      84000000 
 498      0000
 499              		.p2align 3
 500              	.L78:
 501              		.cfi_restore_state
 502 03e0 48837F08 		cmpq	$0, 8(%rdi)
 502      00
 503 03e5 4989FE   		movq	%rdi, %r14
 504 03e8 0F85E200 		jne	.L80
 504      0000
 505 03ee 48837E08 		cmpq	$0, 8(%rsi)
 505      00
 506 03f3 4989F7   		movq	%rsi, %r15
 507 03f6 0F85D400 		jne	.L80
 507      0000
 508 03fc 4C8D6208 		leaq	8(%rdx), %r12
 509 0400 4801D0   		addq	%rdx, %rax
 510 0403 48894424 		movq	%rax, 8(%rsp)
 510      08
 511 0408 4C39E0   		cmpq	%r12, %rax
 512 040b 0F86D800 		jbe	.L83
 512      0000
 513 0411 440FB66A 		movzbl	8(%rdx), %r13d
 513      08
 514 0416 440FB64A 		movzbl	10(%rdx), %r9d
 514      0A
 515 041b 0FB64209 		movzbl	9(%rdx), %eax
 516 041f 0FB6520B 		movzbl	11(%rdx), %edx
 517 0423 41C1E108 		sall	$8, %r9d
 518 0427 41C1E508 		sall	$8, %r13d
 519 042b 4101D1   		addl	%edx, %r9d
 520 042e 664101C5 		addw	%ax, %r13w
 521 0432 795C     		jns	.L85
 522 0434 E9B00000 		jmp	.L83
 522      00
 523 0439 0F1F8000 		.p2align 4,,10
 523      000000
 524              		.p2align 3
 525              	.L86:
 526 0440 4989D8   		movq	%rbx, %r8
 527 0443 4C89E9   		movq	%r13, %rcx
 528 0446 BA010000 		movl	$1, %edx
 528      00
 529 044b 4889EE   		movq	%rbp, %rsi
 530 044e 4C89FF   		movq	%r15, %rdi
 531 0451 E8000000 		call	bufWriteConst@PLT
 531      00
 532 0456 85C0     		testl	%eax, %eax
 533 0458 755D     		jne	.L87
 534 045a 4D01EC   		addq	%r13, %r12
 535 045d 4C396424 		cmpq	%r12, 8(%rsp)
 535      08
 536 0462 0F868100 		jbe	.L83
 536      0000
 537 0468 450FB62C 		movzbl	(%r12), %r13d
 537      24
 538 046d 450FB64C 		movzbl	2(%r12), %r9d
 538      2402
 539 0473 410FB644 		movzbl	1(%r12), %eax
 539      2401
 540 0479 410FB654 		movzbl	3(%r12), %edx
 540      2403
 541 047f 41C1E108 		sall	$8, %r9d
 542 0483 41C1E508 		sall	$8, %r13d
 543 0487 4101D1   		addl	%edx, %r9d
 544 048a 664101C5 		addw	%ax, %r13w
 545 048e 7859     		js	.L83
 546              	.L85:
 547 0490 4983C404 		addq	$4, %r12
 548 0494 4181E5FF 		andl	$1023, %r13d
 548      030000
 549 049b 410FB7E9 		movzwl	%r9w, %ebp
 550 049f 4989D8   		movq	%rbx, %r8
 551 04a2 4C89E9   		movq	%r13, %rcx
 552 04a5 4C89E2   		movq	%r12, %rdx
 553 04a8 4889EE   		movq	%rbp, %rsi
 554 04ab 4C89F7   		movq	%r14, %rdi
 555 04ae E8000000 		call	bufWriteBlock@PLT
 555      00
 556 04b3 85C0     		testl	%eax, %eax
 557 04b5 7489     		je	.L86
 558              	.L87:
 559 04b7 488D3500 		leaq	.LC8(%rip), %rsi
 559      000000
 560 04be 4889DF   		movq	%rbx, %rdi
 561 04c1 E8000000 		call	errPrefix@PLT
 561      00
 562 04c6 B8010000 		movl	$1, %eax
 562      00
 563 04cb E9F7FEFF 		jmp	.L79
 563      FF
 564              		.p2align 4,,10
 565              		.p2align 3
 566              	.L80:
 567 04d0 488D3500 		leaq	.LC7(%rip), %rsi
 567      000000
 568 04d7 4889DF   		movq	%rbx, %rdi
 569 04da E8000000 		call	errPrefix@PLT
 569      00
 570 04df B8030000 		movl	$3, %eax
 570      00
 571 04e4 E9DEFEFF 		jmp	.L79
 571      FF
 572              	.L83:
 573 04e9 31C0     		xorl	%eax, %eax
 574 04eb E9D7FEFF 		jmp	.L79
 574      FF
 575              		.cfi_endproc
 576              	.LFE7:
 578              		.section	.text.unlikely
 579              	.LCOLDE9:
 580              		.text
 581              	.LHOTE9:
 582              		.section	.rodata.str1.8
 583 00c2 00000000 		.align 8
 583      0000
 584              	.LC10:
 585 00c8 69326346 		.string	"i2cFinalise(): the buffer was not initialised"
 585      696E616C 
 585      69736528 
 585      293A2074 
 585      68652062 
 586              		.section	.rodata.str1.1
 587              	.LC11:
 588 0037 69326346 		.string	"i2cFinalise()"
 588      696E616C 
 588      69736528 
 588      2900
 589              		.section	.text.unlikely
 590              	.LCOLDB12:
 591              		.text
 592              	.LHOTB12:
 593              		.p2align 4,,15
 594              		.globl	i2cFinalise
 596              	i2cFinalise:
 597              	.LFB8:
 598              		.cfi_startproc
 599 04f0 53       		pushq	%rbx
 600              		.cfi_def_cfa_offset 16
 601              		.cfi_offset 3, -16
 602 04f1 4889F3   		movq	%rsi, %rbx
 603 04f4 4883EC10 		subq	$16, %rsp
 604              		.cfi_def_cfa_offset 32
 605 04f8 64488B04 		movq	%fs:40, %rax
 605      25280000 
 605      00
 606 0501 48894424 		movq	%rax, 8(%rsp)
 606      08
 607 0506 31C0     		xorl	%eax, %eax
 608 0508 48837F08 		cmpq	$7, 8(%rdi)
 608      07
 609 050d C6042480 		movb	$-128, (%rsp)
 610 0511 C6442401 		movb	$1, 1(%rsp)
 610      01
 611 0516 C6442402 		movb	$-26, 2(%rsp)
 611      E6
 612 051b C6442403 		movb	$0, 3(%rsp)
 612      00
 613 0520 C6442404 		movb	$0, 4(%rsp)
 613      00
 614 0525 7608     		jbe	.L91
 615 0527 488B07   		movq	(%rdi), %rax
 616 052a 8038C2   		cmpb	$-62, (%rax)
 617 052d 7431     		je	.L92
 618              	.L91:
 619 052f 488D3500 		leaq	.LC10(%rip), %rsi
 619      000000
 620 0536 4889DF   		movq	%rbx, %rdi
 621 0539 E8000000 		call	errPrefix@PLT
 621      00
 622 053e B8020000 		movl	$2, %eax
 622      00
 623              	.L93:
 624 0543 488B4C24 		movq	8(%rsp), %rcx
 624      08
 625 0548 6448330C 		xorq	%fs:40, %rcx
 625      25280000 
 625      00
 626 0551 753B     		jne	.L98
 627 0553 4883C410 		addq	$16, %rsp
 628              		.cfi_remember_state
 629              		.cfi_def_cfa_offset 16
 630 0557 5B       		popq	%rbx
 631              		.cfi_def_cfa_offset 8
 632 0558 C3       		ret
 633 0559 0F1F8000 		.p2align 4,,10
 633      000000
 634              		.p2align 3
 635              	.L92:
 636              		.cfi_restore_state
 637 0560 BA050000 		movl	$5, %edx
 637      00
 638 0565 4889E6   		movq	%rsp, %rsi
 639 0568 4889D9   		movq	%rbx, %rcx
 640 056b E8000000 		call	bufAppendBlock@PLT
 640      00
 641 0570 89C2     		movl	%eax, %edx
 642 0572 31C0     		xorl	%eax, %eax
 643 0574 85D2     		testl	%edx, %edx
 644 0576 74CB     		je	.L93
 645 0578 488D3500 		leaq	.LC11(%rip), %rsi
 645      000000
 646 057f 4889DF   		movq	%rbx, %rdi
 647 0582 E8000000 		call	errPrefix@PLT
 647      00
 648 0587 B8010000 		movl	$1, %eax
 648      00
 649 058c EBB5     		jmp	.L93
 650              	.L98:
 651 058e E8000000 		call	__stack_chk_fail@PLT
 651      00
 652              		.cfi_endproc
 653              	.LFE8:
 655              		.section	.text.unlikely
 656              	.LCOLDE12:
 657              		.text
 658              	.LHOTE12:
 659              		.ident	"GCC: (Ubuntu 5.4.0-6ubuntu1~16.04.5) 5.4.0 20160609"
 660              		.section	.note.GNU-stack,"",@progbits