   1              		.file	"TestTimeConstraintMacro.cpp"
   2              		.text
   3              	.Ltext0:
   4              		.section	.rodata
   5              	.LC0:
   6 0000 44656661 		.string	"DefaultSuite"
   6      756C7453 
   6      75697465 
   6      00
   7              		.section	.text._ZN13UnitTestSuite12GetSuiteNameEv,"axG",@progbits,_ZN13UnitTestSuite12GetSuiteName
   8              		.weak	_ZN13UnitTestSuite12GetSuiteNameEv
  10              	_ZN13UnitTestSuite12GetSuiteNameEv:
  11              	.LFB0:
  12              		.file 1 "../TestSuite.h"
   1:../TestSuite.h **** #ifndef UNITTEST_TESTSUITE_H
   2:../TestSuite.h **** #define UNITTEST_TESTSUITE_H
   3:../TestSuite.h **** 
   4:../TestSuite.h **** namespace UnitTestSuite {
   5:../TestSuite.h **** 
   6:../TestSuite.h ****     inline char const* GetSuiteName ()
   7:../TestSuite.h ****     {
  13              		.loc 1 7 0
  14              		.cfi_startproc
  15 0000 55       		pushq	%rbp
  16              		.cfi_def_cfa_offset 16
  17              		.cfi_offset 6, -16
  18 0001 4889E5   		movq	%rsp, %rbp
  19              		.cfi_def_cfa_register 6
   8:../TestSuite.h ****         return "DefaultSuite";
  20              		.loc 1 8 0
  21 0004 B8000000 		movl	$.LC0, %eax
  21      00
   9:../TestSuite.h ****     }
  22              		.loc 1 9 0
  23 0009 5D       		popq	%rbp
  24              		.cfi_def_cfa 7, 8
  25 000a C3       		ret
  26              		.cfi_endproc
  27              	.LFE0:
  29              		.section	.text._ZN8UnitTest15MemoryOutStreamC1Ev,"axG",@progbits,_ZN8UnitTest15MemoryOutStreamC1Ev
  30              		.align 2
  31              		.weak	_ZN8UnitTest15MemoryOutStreamC1Ev
  33              	_ZN8UnitTest15MemoryOutStreamC1Ev:
  34              	.LFB1057:
  35              		.file 2 "../MemoryOutStream.h"
   1:../MemoryOutStream.h **** #ifndef UNITTEST_MEMORYOUTSTREAM_H
   2:../MemoryOutStream.h **** #define UNITTEST_MEMORYOUTSTREAM_H
   3:../MemoryOutStream.h **** 
   4:../MemoryOutStream.h **** #include "Config.h"
   5:../MemoryOutStream.h **** 
   6:../MemoryOutStream.h **** #ifndef UNITTEST_USE_CUSTOM_STREAMS
   7:../MemoryOutStream.h **** 
   8:../MemoryOutStream.h **** #include <sstream>
   9:../MemoryOutStream.h **** 
  10:../MemoryOutStream.h **** namespace UnitTest
  11:../MemoryOutStream.h **** {
  12:../MemoryOutStream.h **** 
  13:../MemoryOutStream.h **** class MemoryOutStream : public std::ostringstream
  14:../MemoryOutStream.h **** {
  15:../MemoryOutStream.h **** public:
  16:../MemoryOutStream.h ****     MemoryOutStream() {}
  36              		.loc 2 16 0
  37              		.cfi_startproc
  38              		.cfi_personality 0x3,__gxx_personality_v0
  39              		.cfi_lsda 0x3,.LLSDA1057
  40 0000 55       		pushq	%rbp
  41              		.cfi_def_cfa_offset 16
  42              		.cfi_offset 6, -16
  43 0001 4889E5   		movq	%rsp, %rbp
  44              		.cfi_def_cfa_register 6
  45 0004 53       		pushq	%rbx
  46 0005 4883EC18 		subq	$24, %rsp
  47              		.cfi_offset 3, -24
  48 0009 48897DE8 		movq	%rdi, -24(%rbp)
  49              	.LBB2:
  50              		.loc 2 16 0
  51 000d 488B45E8 		movq	-24(%rbp), %rax
  52 0011 48059000 		addq	$144, %rax
  52      0000
  53 0017 4889C7   		movq	%rax, %rdi
  54              	.LEHB0:
  55 001a E8000000 		call	_ZNSt9basic_iosIcSt11char_traitsIcEEC2Ev
  55      00
  56              	.LEHE0:
  57 001f B9000000 		movl	$_ZTTN8UnitTest15MemoryOutStreamE+8, %ecx
  57      00
  58 0024 488B45E8 		movq	-24(%rbp), %rax
  59 0028 BA100000 		movl	$16, %edx
  59      00
  60 002d 4889CE   		movq	%rcx, %rsi
  61 0030 4889C7   		movq	%rax, %rdi
  62              	.LEHB1:
  63 0033 E8000000 		call	_ZNSt7__cxx1119basic_ostringstreamIcSt11char_traitsIcESaIcEEC2ESt13_Ios_Openmode
  63      00
  64              	.LEHE1:
  65              		.loc 2 16 0 is_stmt 0 discriminator 9
  66 0038 BA000000 		movl	$_ZTVN8UnitTest15MemoryOutStreamE+24, %edx
  66      00
  67 003d 488B45E8 		movq	-24(%rbp), %rax
  68 0041 488910   		movq	%rdx, (%rax)
  69 0044 BA900000 		movl	$144, %edx
  69      00
  70 0049 488B45E8 		movq	-24(%rbp), %rax
  71 004d 4801D0   		addq	%rdx, %rax
  72 0050 BA000000 		movl	$_ZTVN8UnitTest15MemoryOutStreamE+64, %edx
  72      00
  73 0055 488910   		movq	%rdx, (%rax)
  74 0058 488B45E8 		movq	-24(%rbp), %rax
  75 005c 4883C070 		addq	$112, %rax
  76 0060 4889C7   		movq	%rax, %rdi
  77              	.LEHB2:
  78 0063 E8000000 		call	_ZNSt7__cxx1112basic_stringIcSt11char_traitsIcESaIcEEC1Ev
  78      00
  79              	.LEHE2:
  80              	.LBE2:
  81              		.loc 2 16 0
  82 0068 EB39     		jmp	.L9
  83              	.L7:
  84 006a 4889C3   		movq	%rax, %rbx
  85              	.LBB3:
  86 006d BA000000 		movl	$_ZTTN8UnitTest15MemoryOutStreamE+8, %edx
  86      00
  87 0072 488B45E8 		movq	-24(%rbp), %rax
  88 0076 4889D6   		movq	%rdx, %rsi
  89 0079 4889C7   		movq	%rax, %rdi
  90 007c E8000000 		call	_ZNSt7__cxx1119basic_ostringstreamIcSt11char_traitsIcESaIcEED2Ev
  90      00
  91 0081 EB03     		jmp	.L8
  92              	.L6:
  93 0083 4889C3   		movq	%rax, %rbx
  94              	.L8:
  95              		.loc 2 16 0 discriminator 28
  96 0086 488B45E8 		movq	-24(%rbp), %rax
  97 008a 48059000 		addq	$144, %rax
  97      0000
  98 0090 4889C7   		movq	%rax, %rdi
  99 0093 E8000000 		call	_ZNSt9basic_iosIcSt11char_traitsIcEED2Ev
  99      00
 100 0098 4889D8   		movq	%rbx, %rax
 101 009b 4889C7   		movq	%rax, %rdi
 102              	.LEHB3:
 103 009e E8000000 		call	_Unwind_Resume
 103      00
 104              	.LEHE3:
 105              	.L9:
 106              	.LBE3:
 107              		.loc 2 16 0
 108 00a3 4883C418 		addq	$24, %rsp
 109 00a7 5B       		popq	%rbx
 110 00a8 5D       		popq	%rbp
 111              		.cfi_def_cfa 7, 8
 112 00a9 C3       		ret
 113              		.cfi_endproc
 114              	.LFE1057:
 115              		.globl	__gxx_personality_v0
 116              		.section	.gcc_except_table._ZN8UnitTest15MemoryOutStreamC1Ev,"aG",@progbits,_ZN8UnitTest15MemoryOu
 117              	.LLSDA1057:
 118 0000 FF       		.byte	0xff
 119 0001 FF       		.byte	0xff
 120 0002 01       		.byte	0x1
 121 0003 12       		.uleb128 .LLSDACSE1057-.LLSDACSB1057
 122              	.LLSDACSB1057:
 123 0004 1A       		.uleb128 .LEHB0-.LFB1057
 124 0005 05       		.uleb128 .LEHE0-.LEHB0
 125 0006 00       		.uleb128 0
 126 0007 00       		.uleb128 0
 127 0008 33       		.uleb128 .LEHB1-.LFB1057
 128 0009 05       		.uleb128 .LEHE1-.LEHB1
 129 000a 8301     		.uleb128 .L6-.LFB1057
 130 000c 00       		.uleb128 0
 131 000d 63       		.uleb128 .LEHB2-.LFB1057
 132 000e 05       		.uleb128 .LEHE2-.LEHB2
 133 000f 6A       		.uleb128 .L7-.LFB1057
 134 0010 00       		.uleb128 0
 135 0011 9E01     		.uleb128 .LEHB3-.LFB1057
 136 0013 05       		.uleb128 .LEHE3-.LEHB3
 137 0014 00       		.uleb128 0
 138 0015 00       		.uleb128 0
 139              	.LLSDACSE1057:
 140              		.section	.text._ZN8UnitTest15MemoryOutStreamC1Ev,"axG",@progbits,_ZN8UnitTest15MemoryOutStreamC1Ev
 142              		.section	.text._ZN8UnitTest12TestReporterC2Ev,"axG",@progbits,_ZN8UnitTest12TestReporterC5Ev,comda
 143              		.align 2
 144              		.weak	_ZN8UnitTest12TestReporterC2Ev
 146              	_ZN8UnitTest12TestReporterC2Ev:
 147              	.LFB1071:
 148              		.file 3 "../TestReporter.h"
   1:../TestReporter.h **** #ifndef UNITTEST_TESTREPORTER_H
   2:../TestReporter.h **** #define UNITTEST_TESTREPORTER_H
   3:../TestReporter.h **** 
   4:../TestReporter.h **** namespace UnitTest {
   5:../TestReporter.h **** 
   6:../TestReporter.h **** class TestDetails;
   7:../TestReporter.h **** 
   8:../TestReporter.h **** class TestReporter
 149              		.loc 3 8 0 is_stmt 1
 150              		.cfi_startproc
 151 0000 55       		pushq	%rbp
 152              		.cfi_def_cfa_offset 16
 153              		.cfi_offset 6, -16
 154 0001 4889E5   		movq	%rsp, %rbp
 155              		.cfi_def_cfa_register 6
 156 0004 48897DF8 		movq	%rdi, -8(%rbp)
 157              	.LBB4:
 158              		.loc 3 8 0
 159 0008 BA000000 		movl	$_ZTVN8UnitTest12TestReporterE+16, %edx
 159      00
 160 000d 488B45F8 		movq	-8(%rbp), %rax
 161 0011 488910   		movq	%rdx, (%rax)
 162              	.LBE4:
 163 0014 90       		nop
 164 0015 5D       		popq	%rbp
 165              		.cfi_def_cfa 7, 8
 166 0016 C3       		ret
 167              		.cfi_endproc
 168              	.LFE1071:
 170              		.weak	_ZN8UnitTest12TestReporterC1Ev
 171              		.set	_ZN8UnitTest12TestReporterC1Ev,_ZN8UnitTest12TestReporterC2Ev
 172              		.section	.text._ZN17RecordingReporterC2Ev,"axG",@progbits,_ZN17RecordingReporterC5Ev,comdat
 173              		.align 2
 174              		.weak	_ZN17RecordingReporterC2Ev
 176              	_ZN17RecordingReporterC2Ev:
 177              	.LFB1073:
 178              		.file 4 "RecordingReporter.h"
   1:RecordingReporter.h **** #ifndef UNITTEST_RECORDINGREPORTER_H
   2:RecordingReporter.h **** #define UNITTEST_RECORDINGREPORTER_H
   3:RecordingReporter.h **** 
   4:RecordingReporter.h **** #include "../TestReporter.h"
   5:RecordingReporter.h **** #include <cstring>
   6:RecordingReporter.h **** 
   7:RecordingReporter.h **** #include "../TestDetails.h"
   8:RecordingReporter.h **** 
   9:RecordingReporter.h **** struct RecordingReporter : public UnitTest::TestReporter
  10:RecordingReporter.h **** {
  11:RecordingReporter.h **** private:
  12:RecordingReporter.h ****     enum { kMaxStringLength = 256 };
  13:RecordingReporter.h **** 
  14:RecordingReporter.h **** public:
  15:RecordingReporter.h ****     RecordingReporter()
 179              		.loc 4 15 0
 180              		.cfi_startproc
 181 0000 55       		pushq	%rbp
 182              		.cfi_def_cfa_offset 16
 183              		.cfi_offset 6, -16
 184 0001 4889E5   		movq	%rsp, %rbp
 185              		.cfi_def_cfa_register 6
 186 0004 4883EC10 		subq	$16, %rsp
 187 0008 48897DF8 		movq	%rdi, -8(%rbp)
 188              	.LBB5:
  16:RecordingReporter.h ****         : testRunCount(0)
  17:RecordingReporter.h ****         , testFailedCount(0)
  18:RecordingReporter.h ****         , lastFailedLine(0)
  19:RecordingReporter.h ****         , testFinishedCount(0)
  20:RecordingReporter.h ****         , lastFinishedTestTime(0)
  21:RecordingReporter.h ****         , summaryTotalTestCount(0)
  22:RecordingReporter.h ****         , summaryFailedTestCount(0)
  23:RecordingReporter.h ****         , summaryFailureCount(0)
  24:RecordingReporter.h ****         , summarySecondsElapsed(0)
 189              		.loc 4 24 0
 190 000c 488B45F8 		movq	-8(%rbp), %rax
 191 0010 4889C7   		movq	%rax, %rdi
 192 0013 E8000000 		call	_ZN8UnitTest12TestReporterC2Ev
 192      00
 193 0018 BA000000 		movl	$_ZTV17RecordingReporter+16, %edx
 193      00
 194 001d 488B45F8 		movq	-8(%rbp), %rax
 195 0021 488910   		movq	%rdx, (%rax)
 196 0024 488B45F8 		movq	-8(%rbp), %rax
 197 0028 C7400800 		movl	$0, 8(%rax)
 197      000000
 198 002f 488B45F8 		movq	-8(%rbp), %rax
 199 0033 C7800C02 		movl	$0, 524(%rax)
 199      00000000 
 199      0000
 200 003d 488B45F8 		movq	-8(%rbp), %rax
 201 0041 C7801003 		movl	$0, 784(%rax)
 201      00000000 
 201      0000
 202 004b 488B45F8 		movq	-8(%rbp), %rax
 203 004f C7801406 		movl	$0, 1556(%rax)
 203      00000000 
 203      0000
 204 0059 488B45F8 		movq	-8(%rbp), %rax
 205 005d 660FEFC0 		pxor	%xmm0, %xmm0
 206 0061 F30F1180 		movss	%xmm0, 2072(%rax)
 206      18080000 
 207 0069 488B45F8 		movq	-8(%rbp), %rax
 208 006d C7801C08 		movl	$0, 2076(%rax)
 208      00000000 
 208      0000
 209 0077 488B45F8 		movq	-8(%rbp), %rax
 210 007b C7802008 		movl	$0, 2080(%rax)
 210      00000000 
 210      0000
 211 0085 488B45F8 		movq	-8(%rbp), %rax
 212 0089 C7802408 		movl	$0, 2084(%rax)
 212      00000000 
 212      0000
 213 0093 488B45F8 		movq	-8(%rbp), %rax
 214 0097 660FEFC0 		pxor	%xmm0, %xmm0
 215 009b F30F1180 		movss	%xmm0, 2088(%rax)
 215      28080000 
  25:RecordingReporter.h ****     {
  26:RecordingReporter.h ****         lastStartedSuite[0] = '\0';
 216              		.loc 4 26 0
 217 00a3 488B45F8 		movq	-8(%rbp), %rax
 218 00a7 C6400C00 		movb	$0, 12(%rax)
  27:RecordingReporter.h ****         lastStartedTest[0] = '\0';
 219              		.loc 4 27 0
 220 00ab 488B45F8 		movq	-8(%rbp), %rax
 221 00af C6800C01 		movb	$0, 268(%rax)
 221      000000
  28:RecordingReporter.h ****         lastFailedFile[0] = '\0';
 222              		.loc 4 28 0
 223 00b6 488B45F8 		movq	-8(%rbp), %rax
 224 00ba C6801002 		movb	$0, 528(%rax)
 224      000000
  29:RecordingReporter.h ****         lastFailedSuite[0] = '\0';
 225              		.loc 4 29 0
 226 00c1 488B45F8 		movq	-8(%rbp), %rax
 227 00c5 C6801403 		movb	$0, 788(%rax)
 227      000000
  30:RecordingReporter.h ****         lastFailedTest[0] = '\0';
 228              		.loc 4 30 0
 229 00cc 488B45F8 		movq	-8(%rbp), %rax
 230 00d0 C6801404 		movb	$0, 1044(%rax)
 230      000000
  31:RecordingReporter.h ****         lastFailedMessage[0] = '\0';
 231              		.loc 4 31 0
 232 00d7 488B45F8 		movq	-8(%rbp), %rax
 233 00db C6801405 		movb	$0, 1300(%rax)
 233      000000
  32:RecordingReporter.h ****         lastFinishedSuite[0] = '\0';
 234              		.loc 4 32 0
 235 00e2 488B45F8 		movq	-8(%rbp), %rax
 236 00e6 C6801806 		movb	$0, 1560(%rax)
 236      000000
  33:RecordingReporter.h ****         lastFinishedTest[0] = '\0';
 237              		.loc 4 33 0
 238 00ed 488B45F8 		movq	-8(%rbp), %rax
 239 00f1 C6801807 		movb	$0, 1816(%rax)
 239      000000
 240              	.LBE5:
  34:RecordingReporter.h ****     }
 241              		.loc 4 34 0
 242 00f8 90       		nop
 243 00f9 C9       		leave
 244              		.cfi_def_cfa 7, 8
 245 00fa C3       		ret
 246              		.cfi_endproc
 247              	.LFE1073:
 249              		.weak	_ZN17RecordingReporterC1Ev
 250              		.set	_ZN17RecordingReporterC1Ev,_ZN17RecordingReporterC2Ev
 251              		.section	.text._ZN17RecordingReporter15ReportTestStartERKN8UnitTest11TestDetailsE,"axG",@progbits,
 252              		.align 2
 253              		.weak	_ZN17RecordingReporter15ReportTestStartERKN8UnitTest11TestDetailsE
 255              	_ZN17RecordingReporter15ReportTestStartERKN8UnitTest11TestDetailsE:
 256              	.LFB1075:
  35:RecordingReporter.h **** 
  36:RecordingReporter.h ****     virtual void ReportTestStart(UnitTest::TestDetails const& test)
 257              		.loc 4 36 0
 258              		.cfi_startproc
 259 0000 55       		pushq	%rbp
 260              		.cfi_def_cfa_offset 16
 261              		.cfi_offset 6, -16
 262 0001 4889E5   		movq	%rsp, %rbp
 263              		.cfi_def_cfa_register 6
 264 0004 4883EC10 		subq	$16, %rsp
 265 0008 48897DF8 		movq	%rdi, -8(%rbp)
 266 000c 488975F0 		movq	%rsi, -16(%rbp)
  37:RecordingReporter.h ****     {
  38:RecordingReporter.h **** 		using namespace std;
  39:RecordingReporter.h **** 
  40:RecordingReporter.h ****         ++testRunCount;
 267              		.loc 4 40 0
 268 0010 488B45F8 		movq	-8(%rbp), %rax
 269 0014 8B4008   		movl	8(%rax), %eax
 270 0017 8D5001   		leal	1(%rax), %edx
 271 001a 488B45F8 		movq	-8(%rbp), %rax
 272 001e 895008   		movl	%edx, 8(%rax)
  41:RecordingReporter.h ****         strcpy(lastStartedSuite, test.suiteName);
 273              		.loc 4 41 0
 274 0021 488B45F0 		movq	-16(%rbp), %rax
 275 0025 488B00   		movq	(%rax), %rax
 276 0028 488B55F8 		movq	-8(%rbp), %rdx
 277 002c 4883C20C 		addq	$12, %rdx
 278 0030 4889C6   		movq	%rax, %rsi
 279 0033 4889D7   		movq	%rdx, %rdi
 280 0036 E8000000 		call	strcpy
 280      00
  42:RecordingReporter.h ****         strcpy(lastStartedTest, test.testName);
 281              		.loc 4 42 0
 282 003b 488B45F0 		movq	-16(%rbp), %rax
 283 003f 488B4008 		movq	8(%rax), %rax
 284 0043 488B55F8 		movq	-8(%rbp), %rdx
 285 0047 4881C20C 		addq	$268, %rdx
 285      010000
 286 004e 4889C6   		movq	%rax, %rsi
 287 0051 4889D7   		movq	%rdx, %rdi
 288 0054 E8000000 		call	strcpy
 288      00
  43:RecordingReporter.h ****     }
 289              		.loc 4 43 0
 290 0059 90       		nop
 291 005a C9       		leave
 292              		.cfi_def_cfa 7, 8
 293 005b C3       		ret
 294              		.cfi_endproc
 295              	.LFE1075:
 297              		.section	.text._ZN17RecordingReporter13ReportFailureERKN8UnitTest11TestDetailsEPKc,"axG",@progbits
 298              		.align 2
 299              		.weak	_ZN17RecordingReporter13ReportFailureERKN8UnitTest11TestDetailsEPKc
 301              	_ZN17RecordingReporter13ReportFailureERKN8UnitTest11TestDetailsEPKc:
 302              	.LFB1076:
  44:RecordingReporter.h **** 
  45:RecordingReporter.h ****     virtual void ReportFailure(UnitTest::TestDetails const& test, char const* failure)
 303              		.loc 4 45 0
 304              		.cfi_startproc
 305 0000 55       		pushq	%rbp
 306              		.cfi_def_cfa_offset 16
 307              		.cfi_offset 6, -16
 308 0001 4889E5   		movq	%rsp, %rbp
 309              		.cfi_def_cfa_register 6
 310 0004 4883EC20 		subq	$32, %rsp
 311 0008 48897DF8 		movq	%rdi, -8(%rbp)
 312 000c 488975F0 		movq	%rsi, -16(%rbp)
 313 0010 488955E8 		movq	%rdx, -24(%rbp)
  46:RecordingReporter.h ****     {
  47:RecordingReporter.h **** 		using namespace std;
  48:RecordingReporter.h **** 
  49:RecordingReporter.h **** 		++testFailedCount;
 314              		.loc 4 49 0
 315 0014 488B45F8 		movq	-8(%rbp), %rax
 316 0018 8B800C02 		movl	524(%rax), %eax
 316      0000
 317 001e 8D5001   		leal	1(%rax), %edx
 318 0021 488B45F8 		movq	-8(%rbp), %rax
 319 0025 89900C02 		movl	%edx, 524(%rax)
 319      0000
  50:RecordingReporter.h ****         strcpy(lastFailedFile, test.filename);
 320              		.loc 4 50 0
 321 002b 488B45F0 		movq	-16(%rbp), %rax
 322 002f 488B4010 		movq	16(%rax), %rax
 323 0033 488B55F8 		movq	-8(%rbp), %rdx
 324 0037 4881C210 		addq	$528, %rdx
 324      020000
 325 003e 4889C6   		movq	%rax, %rsi
 326 0041 4889D7   		movq	%rdx, %rdi
 327 0044 E8000000 		call	strcpy
 327      00
  51:RecordingReporter.h ****         lastFailedLine = test.lineNumber;
 328              		.loc 4 51 0
 329 0049 488B45F0 		movq	-16(%rbp), %rax
 330 004d 8B5018   		movl	24(%rax), %edx
 331 0050 488B45F8 		movq	-8(%rbp), %rax
 332 0054 89901003 		movl	%edx, 784(%rax)
 332      0000
  52:RecordingReporter.h ****         strcpy(lastFailedSuite, test.suiteName);
 333              		.loc 4 52 0
 334 005a 488B45F0 		movq	-16(%rbp), %rax
 335 005e 488B00   		movq	(%rax), %rax
 336 0061 488B55F8 		movq	-8(%rbp), %rdx
 337 0065 4881C214 		addq	$788, %rdx
 337      030000
 338 006c 4889C6   		movq	%rax, %rsi
 339 006f 4889D7   		movq	%rdx, %rdi
 340 0072 E8000000 		call	strcpy
 340      00
  53:RecordingReporter.h ****         strcpy(lastFailedTest, test.testName);
 341              		.loc 4 53 0
 342 0077 488B45F0 		movq	-16(%rbp), %rax
 343 007b 488B4008 		movq	8(%rax), %rax
 344 007f 488B55F8 		movq	-8(%rbp), %rdx
 345 0083 4881C214 		addq	$1044, %rdx
 345      040000
 346 008a 4889C6   		movq	%rax, %rsi
 347 008d 4889D7   		movq	%rdx, %rdi
 348 0090 E8000000 		call	strcpy
 348      00
  54:RecordingReporter.h ****         strcpy(lastFailedMessage, failure);
 349              		.loc 4 54 0
 350 0095 488B45F8 		movq	-8(%rbp), %rax
 351 0099 488D9014 		leaq	1300(%rax), %rdx
 351      050000
 352 00a0 488B45E8 		movq	-24(%rbp), %rax
 353 00a4 4889C6   		movq	%rax, %rsi
 354 00a7 4889D7   		movq	%rdx, %rdi
 355 00aa E8000000 		call	strcpy
 355      00
  55:RecordingReporter.h ****     }
 356              		.loc 4 55 0
 357 00af 90       		nop
 358 00b0 C9       		leave
 359              		.cfi_def_cfa 7, 8
 360 00b1 C3       		ret
 361              		.cfi_endproc
 362              	.LFE1076:
 364              		.section	.text._ZN17RecordingReporter16ReportTestFinishERKN8UnitTest11TestDetailsEf,"axG",@progbit
 365              		.align 2
 366              		.weak	_ZN17RecordingReporter16ReportTestFinishERKN8UnitTest11TestDetailsEf
 368              	_ZN17RecordingReporter16ReportTestFinishERKN8UnitTest11TestDetailsEf:
 369              	.LFB1077:
  56:RecordingReporter.h **** 
  57:RecordingReporter.h ****     virtual void ReportTestFinish(UnitTest::TestDetails const& test, float testDuration)
 370              		.loc 4 57 0
 371              		.cfi_startproc
 372 0000 55       		pushq	%rbp
 373              		.cfi_def_cfa_offset 16
 374              		.cfi_offset 6, -16
 375 0001 4889E5   		movq	%rsp, %rbp
 376              		.cfi_def_cfa_register 6
 377 0004 4883EC20 		subq	$32, %rsp
 378 0008 48897DF8 		movq	%rdi, -8(%rbp)
 379 000c 488975F0 		movq	%rsi, -16(%rbp)
 380 0010 F30F1145 		movss	%xmm0, -20(%rbp)
 380      EC
  58:RecordingReporter.h ****     {
  59:RecordingReporter.h **** 		using namespace std;
  60:RecordingReporter.h **** 
  61:RecordingReporter.h **** 		++testFinishedCount;
 381              		.loc 4 61 0
 382 0015 488B45F8 		movq	-8(%rbp), %rax
 383 0019 8B801406 		movl	1556(%rax), %eax
 383      0000
 384 001f 8D5001   		leal	1(%rax), %edx
 385 0022 488B45F8 		movq	-8(%rbp), %rax
 386 0026 89901406 		movl	%edx, 1556(%rax)
 386      0000
  62:RecordingReporter.h ****         strcpy(lastFinishedSuite, test.suiteName);
 387              		.loc 4 62 0
 388 002c 488B45F0 		movq	-16(%rbp), %rax
 389 0030 488B00   		movq	(%rax), %rax
 390 0033 488B55F8 		movq	-8(%rbp), %rdx
 391 0037 4881C218 		addq	$1560, %rdx
 391      060000
 392 003e 4889C6   		movq	%rax, %rsi
 393 0041 4889D7   		movq	%rdx, %rdi
 394 0044 E8000000 		call	strcpy
 394      00
  63:RecordingReporter.h ****         strcpy(lastFinishedTest, test.testName);
 395              		.loc 4 63 0
 396 0049 488B45F0 		movq	-16(%rbp), %rax
 397 004d 488B4008 		movq	8(%rax), %rax
 398 0051 488B55F8 		movq	-8(%rbp), %rdx
 399 0055 4881C218 		addq	$1816, %rdx
 399      070000
 400 005c 4889C6   		movq	%rax, %rsi
 401 005f 4889D7   		movq	%rdx, %rdi
 402 0062 E8000000 		call	strcpy
 402      00
  64:RecordingReporter.h ****         lastFinishedTestTime = testDuration;
 403              		.loc 4 64 0
 404 0067 488B45F8 		movq	-8(%rbp), %rax
 405 006b F30F1045 		movss	-20(%rbp), %xmm0
 405      EC
 406 0070 F30F1180 		movss	%xmm0, 2072(%rax)
 406      18080000 
  65:RecordingReporter.h ****     }
 407              		.loc 4 65 0
 408 0078 90       		nop
 409 0079 C9       		leave
 410              		.cfi_def_cfa 7, 8
 411 007a C3       		ret
 412              		.cfi_endproc
 413              	.LFE1077:
 415              		.section	.text._ZN17RecordingReporter13ReportSummaryEiiif,"axG",@progbits,_ZN17RecordingReporter13
 416              		.align 2
 417              		.weak	_ZN17RecordingReporter13ReportSummaryEiiif
 419              	_ZN17RecordingReporter13ReportSummaryEiiif:
 420              	.LFB1078:
  66:RecordingReporter.h **** 
  67:RecordingReporter.h ****     virtual void ReportSummary(int totalTestCount, int failedTestCount, int failureCount, float sec
 421              		.loc 4 67 0
 422              		.cfi_startproc
 423 0000 55       		pushq	%rbp
 424              		.cfi_def_cfa_offset 16
 425              		.cfi_offset 6, -16
 426 0001 4889E5   		movq	%rsp, %rbp
 427              		.cfi_def_cfa_register 6
 428 0004 48897DF8 		movq	%rdi, -8(%rbp)
 429 0008 8975F4   		movl	%esi, -12(%rbp)
 430 000b 8955F0   		movl	%edx, -16(%rbp)
 431 000e 894DEC   		movl	%ecx, -20(%rbp)
 432 0011 F30F1145 		movss	%xmm0, -24(%rbp)
 432      E8
  68:RecordingReporter.h ****     {
  69:RecordingReporter.h ****         summaryTotalTestCount = totalTestCount;
 433              		.loc 4 69 0
 434 0016 488B45F8 		movq	-8(%rbp), %rax
 435 001a 8B55F4   		movl	-12(%rbp), %edx
 436 001d 89901C08 		movl	%edx, 2076(%rax)
 436      0000
  70:RecordingReporter.h ****         summaryFailedTestCount = failedTestCount;
 437              		.loc 4 70 0
 438 0023 488B45F8 		movq	-8(%rbp), %rax
 439 0027 8B55F0   		movl	-16(%rbp), %edx
 440 002a 89902008 		movl	%edx, 2080(%rax)
 440      0000
  71:RecordingReporter.h ****         summaryFailureCount = failureCount;
 441              		.loc 4 71 0
 442 0030 488B45F8 		movq	-8(%rbp), %rax
 443 0034 8B55EC   		movl	-20(%rbp), %edx
 444 0037 89902408 		movl	%edx, 2084(%rax)
 444      0000
  72:RecordingReporter.h ****         summarySecondsElapsed = secondsElapsed;
 445              		.loc 4 72 0
 446 003d 488B45F8 		movq	-8(%rbp), %rax
 447 0041 F30F1045 		movss	-24(%rbp), %xmm0
 447      E8
 448 0046 F30F1180 		movss	%xmm0, 2088(%rax)
 448      28080000 
  73:RecordingReporter.h ****     }
 449              		.loc 4 73 0
 450 004e 90       		nop
 451 004f 5D       		popq	%rbp
 452              		.cfi_def_cfa 7, 8
 453 0050 C3       		ret
 454              		.cfi_endproc
 455              	.LFE1078:
 457              		.section	.text._ZN17ScopedCurrentTestC2ERN8UnitTest11TestResultsEPKNS0_11TestDetailsE,"axG",@progb
 458              		.align 2
 459              		.weak	_ZN17ScopedCurrentTestC2ERN8UnitTest11TestResultsEPKNS0_11TestDetailsE
 461              	_ZN17ScopedCurrentTestC2ERN8UnitTest11TestResultsEPKNS0_11TestDetailsE:
 462              	.LFB1083:
 463              		.file 5 "ScopedCurrentTest.h"
   1:ScopedCurrentTest.h **** #ifndef UNITTEST_SCOPEDCURRENTTEST_H
   2:ScopedCurrentTest.h **** #define UNITTEST_SCOPEDCURRENTTEST_H
   3:ScopedCurrentTest.h **** 
   4:ScopedCurrentTest.h **** #include "../CurrentTest.h"
   5:ScopedCurrentTest.h **** #include <cstddef>
   6:ScopedCurrentTest.h **** 
   7:ScopedCurrentTest.h **** class ScopedCurrentTest
   8:ScopedCurrentTest.h **** {
   9:ScopedCurrentTest.h **** public:
  10:ScopedCurrentTest.h **** 	ScopedCurrentTest()
  11:ScopedCurrentTest.h **** 		: m_oldTestResults(UnitTest::CurrentTest::Results())
  12:ScopedCurrentTest.h **** 		, m_oldTestDetails(UnitTest::CurrentTest::Details())
  13:ScopedCurrentTest.h **** 	{
  14:ScopedCurrentTest.h **** 	}
  15:ScopedCurrentTest.h **** 
  16:ScopedCurrentTest.h **** 	explicit ScopedCurrentTest(UnitTest::TestResults& newResults, const UnitTest::TestDetails* newDeta
 464              		.loc 5 16 0
 465              		.cfi_startproc
 466 0000 55       		pushq	%rbp
 467              		.cfi_def_cfa_offset 16
 468              		.cfi_offset 6, -16
 469 0001 4889E5   		movq	%rsp, %rbp
 470              		.cfi_def_cfa_register 6
 471 0004 4883EC20 		subq	$32, %rsp
 472 0008 48897DF8 		movq	%rdi, -8(%rbp)
 473 000c 488975F0 		movq	%rsi, -16(%rbp)
 474 0010 488955E8 		movq	%rdx, -24(%rbp)
 475              	.LBB6:
  17:ScopedCurrentTest.h **** 		: m_oldTestResults(UnitTest::CurrentTest::Results())
 476              		.loc 5 17 0
 477 0014 E8000000 		call	_ZN8UnitTest11CurrentTest7ResultsEv
 477      00
 478 0019 488B10   		movq	(%rax), %rdx
  18:ScopedCurrentTest.h **** 		, m_oldTestDetails(UnitTest::CurrentTest::Details())
 479              		.loc 5 18 0
 480 001c 488B45F8 		movq	-8(%rbp), %rax
 481 0020 488910   		movq	%rdx, (%rax)
 482 0023 E8000000 		call	_ZN8UnitTest11CurrentTest7DetailsEv
 482      00
 483 0028 488B10   		movq	(%rax), %rdx
 484 002b 488B45F8 		movq	-8(%rbp), %rax
 485 002f 48895008 		movq	%rdx, 8(%rax)
  19:ScopedCurrentTest.h **** 	{
  20:ScopedCurrentTest.h **** 		UnitTest::CurrentTest::Results() = &newResults;
 486              		.loc 5 20 0
 487 0033 E8000000 		call	_ZN8UnitTest11CurrentTest7ResultsEv
 487      00
 488 0038 4889C2   		movq	%rax, %rdx
 489 003b 488B45F0 		movq	-16(%rbp), %rax
 490 003f 488902   		movq	%rax, (%rdx)
  21:ScopedCurrentTest.h **** 
  22:ScopedCurrentTest.h **** 		if (newDetails != NULL)
 491              		.loc 5 22 0
 492 0042 48837DE8 		cmpq	$0, -24(%rbp)
 492      00
 493 0047 740F     		je	.L18
  23:ScopedCurrentTest.h **** 			UnitTest::CurrentTest::Details() = newDetails;
 494              		.loc 5 23 0
 495 0049 E8000000 		call	_ZN8UnitTest11CurrentTest7DetailsEv
 495      00
 496 004e 4889C2   		movq	%rax, %rdx
 497 0051 488B45E8 		movq	-24(%rbp), %rax
 498 0055 488902   		movq	%rax, (%rdx)
 499              	.L18:
 500              	.LBE6:
  24:ScopedCurrentTest.h **** 	}
 501              		.loc 5 24 0
 502 0058 90       		nop
 503 0059 C9       		leave
 504              		.cfi_def_cfa 7, 8
 505 005a C3       		ret
 506              		.cfi_endproc
 507              	.LFE1083:
 509              		.weak	_ZN17ScopedCurrentTestC1ERN8UnitTest11TestResultsEPKNS0_11TestDetailsE
 510              		.set	_ZN17ScopedCurrentTestC1ERN8UnitTest11TestResultsEPKNS0_11TestDetailsE,_ZN17ScopedCurrentTest
 511              		.section	.text._ZN17ScopedCurrentTestD2Ev,"axG",@progbits,_ZN17ScopedCurrentTestD5Ev,comdat
 512              		.align 2
 513              		.weak	_ZN17ScopedCurrentTestD2Ev
 515              	_ZN17ScopedCurrentTestD2Ev:
 516              	.LFB1086:
  25:ScopedCurrentTest.h **** 
  26:ScopedCurrentTest.h **** 	~ScopedCurrentTest()
 517              		.loc 5 26 0
 518              		.cfi_startproc
 519 0000 55       		pushq	%rbp
 520              		.cfi_def_cfa_offset 16
 521              		.cfi_offset 6, -16
 522 0001 4889E5   		movq	%rsp, %rbp
 523              		.cfi_def_cfa_register 6
 524 0004 4883EC10 		subq	$16, %rsp
 525 0008 48897DF8 		movq	%rdi, -8(%rbp)
 526              	.LBB7:
  27:ScopedCurrentTest.h **** 	{
  28:ScopedCurrentTest.h **** 		UnitTest::CurrentTest::Results() = m_oldTestResults;
 527              		.loc 5 28 0
 528 000c E8000000 		call	_ZN8UnitTest11CurrentTest7ResultsEv
 528      00
 529 0011 4889C2   		movq	%rax, %rdx
 530 0014 488B45F8 		movq	-8(%rbp), %rax
 531 0018 488B00   		movq	(%rax), %rax
 532 001b 488902   		movq	%rax, (%rdx)
  29:ScopedCurrentTest.h **** 		UnitTest::CurrentTest::Details() = m_oldTestDetails;
 533              		.loc 5 29 0
 534 001e E8000000 		call	_ZN8UnitTest11CurrentTest7DetailsEv
 534      00
 535 0023 4889C2   		movq	%rax, %rdx
 536 0026 488B45F8 		movq	-8(%rbp), %rax
 537 002a 488B4008 		movq	8(%rax), %rax
 538 002e 488902   		movq	%rax, (%rdx)
 539              	.LBE7:
  30:ScopedCurrentTest.h **** 	}
 540              		.loc 5 30 0
 541 0031 90       		nop
 542 0032 C9       		leave
 543              		.cfi_def_cfa 7, 8
 544 0033 C3       		ret
 545              		.cfi_endproc
 546              	.LFE1086:
 548              		.weak	_ZN17ScopedCurrentTestD1Ev
 549              		.set	_ZN17ScopedCurrentTestD1Ev,_ZN17ScopedCurrentTestD2Ev
 550              		.section	.rodata
 551              	.LC2:
 552 000d 54657374 		.string	"TestTimeConstraintMacro.cpp"
 552      54696D65 
 552      436F6E73 
 552      74726169 
 552      6E744D61 
 553 0029 00000000 		.align 8
 553      000000
 554              	.LC3:
 555 0030 54696D65 		.string	"TimeConstraintMacroQualifiesNamespace"
 555      436F6E73 
 555      74726169 
 555      6E744D61 
 555      63726F51 
 556              		.text
 557              		.align 2
 559              	_ZN12_GLOBAL__N_141TestTimeConstraintMacroQualifiesNamespaceC2Ev:
 560              	.LFB1089:
 561              		.file 6 "TestTimeConstraintMacro.cpp"
   1:TestTimeConstraintMacro.cpp **** #include "../UnitTest++.h"
   2:TestTimeConstraintMacro.cpp **** #include "../TimeHelpers.h"
   3:TestTimeConstraintMacro.cpp **** 
   4:TestTimeConstraintMacro.cpp **** #include "RecordingReporter.h"
   5:TestTimeConstraintMacro.cpp **** #include "ScopedCurrentTest.h"
   6:TestTimeConstraintMacro.cpp **** 
   7:TestTimeConstraintMacro.cpp **** namespace {
   8:TestTimeConstraintMacro.cpp **** 
   9:TestTimeConstraintMacro.cpp **** TEST (TimeConstraintMacroQualifiesNamespace)
 562              		.loc 6 9 0
 563              		.cfi_startproc
 564 0000 55       		pushq	%rbp
 565              		.cfi_def_cfa_offset 16
 566              		.cfi_offset 6, -16
 567 0001 4889E5   		movq	%rsp, %rbp
 568              		.cfi_def_cfa_register 6
 569 0004 4883EC10 		subq	$16, %rsp
 570 0008 48897DF8 		movq	%rdi, -8(%rbp)
 571              	.LBB8:
 572              		.loc 6 9 0
 573 000c E8000000 		call	_ZN13UnitTestSuite12GetSuiteNameEv
 573      00
 574 0011 4889C2   		movq	%rax, %rdx
 575 0014 488B45F8 		movq	-8(%rbp), %rax
 576 0018 41B80900 		movl	$9, %r8d
 576      0000
 577 001e B9000000 		movl	$.LC2, %ecx
 577      00
 578 0023 BE000000 		movl	$.LC3, %esi
 578      00
 579 0028 4889C7   		movq	%rax, %rdi
 580 002b E8000000 		call	_ZN8UnitTest4TestC2EPKcS2_S2_i
 580      00
 581 0030 BA000000 		movl	$_ZTVN12_GLOBAL__N_141TestTimeConstraintMacroQualifiesNamespaceE+16, %edx
 581      00
 582 0035 488B45F8 		movq	-8(%rbp), %rax
 583 0039 488910   		movq	%rdx, (%rax)
 584              	.LBE8:
 585 003c 90       		nop
 586 003d C9       		leave
 587              		.cfi_def_cfa 7, 8
 588 003e C3       		ret
 589              		.cfi_endproc
 590              	.LFE1089:
 592              		.set	_ZN12_GLOBAL__N_141TestTimeConstraintMacroQualifiesNamespaceC1Ev,_ZN12_GLOBAL__N_141TestTimeC
 593              		.local	_ZN12_GLOBAL__N_149testTimeConstraintMacroQualifiesNamespaceInstanceE
 594              		.comm	_ZN12_GLOBAL__N_149testTimeConstraintMacroQualifiesNamespaceInstanceE,56,32
 595              		.local	_ZN12_GLOBAL__N_142adderTimeConstraintMacroQualifiesNamespaceE
 596              		.comm	_ZN12_GLOBAL__N_142adderTimeConstraintMacroQualifiesNamespaceE,1,1
 597 003f 90       		.align 2
 599              	_ZNK12_GLOBAL__N_141TestTimeConstraintMacroQualifiesNamespace7RunImplEv:
 600              	.LFB1091:
  10:TestTimeConstraintMacro.cpp **** {
 601              		.loc 6 10 0
 602              		.cfi_startproc
 603 0040 55       		pushq	%rbp
 604              		.cfi_def_cfa_offset 16
 605              		.cfi_offset 6, -16
 606 0041 4889E5   		movq	%rsp, %rbp
 607              		.cfi_def_cfa_register 6
 608 0044 4883EC60 		subq	$96, %rsp
 609 0048 48897DA8 		movq	%rdi, -88(%rbp)
 610              		.loc 6 10 0
 611 004c 64488B04 		movq	%fs:40, %rax
 611      25280000 
 611      00
 612 0055 488945F8 		movq	%rax, -8(%rbp)
 613 0059 31C0     		xorl	%eax, %eax
  11:TestTimeConstraintMacro.cpp ****     // If this compiles without a "using namespace UnitTest;", all is well.
  12:TestTimeConstraintMacro.cpp ****     UNITTEST_TIME_CONSTRAINT(1);
 614              		.loc 6 12 0
 615 005b 488B45A8 		movq	-88(%rbp), %rax
 616 005f 488D4808 		leaq	8(%rax), %rcx
 617 0063 488D45D0 		leaq	-48(%rbp), %rax
 618 0067 BA0C0000 		movl	$12, %edx
 618      00
 619 006c 4889CE   		movq	%rcx, %rsi
 620 006f 4889C7   		movq	%rax, %rdi
 621 0072 E8000000 		call	_ZN8UnitTest11TestDetailsC1ERKS0_i
 621      00
 622 0077 488D55D0 		leaq	-48(%rbp), %rdx
 623 007b 488D45B0 		leaq	-80(%rbp), %rax
 624 007f BE010000 		movl	$1, %esi
 624      00
 625 0084 4889C7   		movq	%rax, %rdi
 626 0087 E8000000 		call	_ZN8UnitTest14TimeConstraintC1EiRKNS_11TestDetailsE
 626      00
 627 008c 488D45B0 		leaq	-80(%rbp), %rax
 628 0090 4889C7   		movq	%rax, %rdi
 629 0093 E8000000 		call	_ZN8UnitTest14TimeConstraintD1Ev
 629      00
  13:TestTimeConstraintMacro.cpp **** }
 630              		.loc 6 13 0
 631 0098 90       		nop
 632 0099 488B45F8 		movq	-8(%rbp), %rax
 633 009d 64483304 		xorq	%fs:40, %rax
 633      25280000 
 633      00
 634 00a6 7405     		je	.L22
 635 00a8 E8000000 		call	__stack_chk_fail
 635      00
 636              	.L22:
 637 00ad C9       		leave
 638              		.cfi_def_cfa 7, 8
 639 00ae C3       		ret
 640              		.cfi_endproc
 641              	.LFE1091:
 643              		.section	.rodata
 644 0056 0000     		.align 8
 645              	.LC4:
 646 0058 54696D65 		.string	"TimeConstraintMacroUsesCorrectInfo"
 646      436F6E73 
 646      74726169 
 646      6E744D61 
 646      63726F55 
 647              		.text
 648 00af 90       		.align 2
 650              	_ZN12_GLOBAL__N_138TestTimeConstraintMacroUsesCorrectInfoC2Ev:
 651              	.LFB1093:
  14:TestTimeConstraintMacro.cpp **** 
  15:TestTimeConstraintMacro.cpp **** TEST (TimeConstraintMacroUsesCorrectInfo)
 652              		.loc 6 15 0
 653              		.cfi_startproc
 654 00b0 55       		pushq	%rbp
 655              		.cfi_def_cfa_offset 16
 656              		.cfi_offset 6, -16
 657 00b1 4889E5   		movq	%rsp, %rbp
 658              		.cfi_def_cfa_register 6
 659 00b4 4883EC10 		subq	$16, %rsp
 660 00b8 48897DF8 		movq	%rdi, -8(%rbp)
 661              	.LBB9:
 662              		.loc 6 15 0
 663 00bc E8000000 		call	_ZN13UnitTestSuite12GetSuiteNameEv
 663      00
 664 00c1 4889C2   		movq	%rax, %rdx
 665 00c4 488B45F8 		movq	-8(%rbp), %rax
 666 00c8 41B80F00 		movl	$15, %r8d
 666      0000
 667 00ce B9000000 		movl	$.LC2, %ecx
 667      00
 668 00d3 BE000000 		movl	$.LC4, %esi
 668      00
 669 00d8 4889C7   		movq	%rax, %rdi
 670 00db E8000000 		call	_ZN8UnitTest4TestC2EPKcS2_S2_i
 670      00
 671 00e0 BA000000 		movl	$_ZTVN12_GLOBAL__N_138TestTimeConstraintMacroUsesCorrectInfoE+16, %edx
 671      00
 672 00e5 488B45F8 		movq	-8(%rbp), %rax
 673 00e9 488910   		movq	%rdx, (%rax)
 674              	.LBE9:
 675 00ec 90       		nop
 676 00ed C9       		leave
 677              		.cfi_def_cfa 7, 8
 678 00ee C3       		ret
 679              		.cfi_endproc
 680              	.LFE1093:
 682              		.set	_ZN12_GLOBAL__N_138TestTimeConstraintMacroUsesCorrectInfoC1Ev,_ZN12_GLOBAL__N_138TestTimeCons
 683              		.local	_ZN12_GLOBAL__N_146testTimeConstraintMacroUsesCorrectInfoInstanceE
 684              		.comm	_ZN12_GLOBAL__N_146testTimeConstraintMacroUsesCorrectInfoInstanceE,56,32
 685              		.local	_ZN12_GLOBAL__N_139adderTimeConstraintMacroUsesCorrectInfoE
 686              		.comm	_ZN12_GLOBAL__N_139adderTimeConstraintMacroUsesCorrectInfoE,1,1
 687              		.section	.rodata
 688 007b 00000000 		.align 8
 688      00
 689              	.LC5:
 690 0080 73747273 		.string	"strstr(reporter.lastFailedFile, __FILE__)"
 690      74722872 
 690      65706F72 
 690      7465722E 
 690      6C617374 
 691 00aa 00000000 		.align 8
 691      0000
 692              	.LC6:
 693 00b0 73747273 		.string	"strstr(reporter.lastFailedTest, \"TimeConstraintMacroUsesCorrectInfo\")"
 693      74722872 
 693      65706F72 
 693      7465722E 
 693      6C617374 
 694 00f6 0000     		.align 8
 695              	.LC7:
 696 00f8 556E6861 		.string	"Unhandled exception in CHECK_EQUAL(1, reporter.testFailedCount)"
 696      6E646C65 
 696      64206578 
 696      63657074 
 696      696F6E20 
 697              		.align 8
 698              	.LC8:
 699 0138 556E6861 		.string	"Unhandled exception in CHECK(strstr(reporter.lastFailedFile, __FILE__))"
 699      6E646C65 
 699      64206578 
 699      63657074 
 699      696F6E20 
 700              		.align 8
 701              	.LC9:
 702 0180 556E6861 		.string	"Unhandled exception in CHECK_EQUAL(testLine, reporter.lastFailedLine)"
 702      6E646C65 
 702      64206578 
 702      63657074 
 702      696F6E20 
 703 01c6 0000     		.align 8
 704              	.LC10:
 705 01c8 556E6861 		.string	"Unhandled exception in CHECK(strstr(reporter.lastFailedTest, \"TimeConstraintMacroUsesCor
 705      6E646C65 
 705      64206578 
 705      63657074 
 705      696F6E20 
 706              		.text
 707 00ef 90       		.align 2
 709              	_ZNK12_GLOBAL__N_138TestTimeConstraintMacroUsesCorrectInfo7RunImplEv:
 710              	.LFB1095:
  16:TestTimeConstraintMacro.cpp **** {
 711              		.loc 6 16 0
 712              		.cfi_startproc
 713              		.cfi_personality 0x3,__gxx_personality_v0
 714              		.cfi_lsda 0x3,.LLSDA1095
 715 00f0 55       		pushq	%rbp
 716              		.cfi_def_cfa_offset 16
 717              		.cfi_offset 6, -16
 718 00f1 4889E5   		movq	%rsp, %rbp
 719              		.cfi_def_cfa_register 6
 720 00f4 53       		pushq	%rbx
 721 00f5 4881ECD8 		subq	$2264, %rsp
 721      080000
 722              		.cfi_offset 3, -24
 723 00fc 4889BD28 		movq	%rdi, -2264(%rbp)
 723      F7FFFF
 724              		.loc 6 16 0
 725 0103 64488B04 		movq	%fs:40, %rax
 725      25280000 
 725      00
 726 010c 488945E8 		movq	%rax, -24(%rbp)
 727 0110 31C0     		xorl	%eax, %eax
  17:TestTimeConstraintMacro.cpp ****     int testLine = 0;
 728              		.loc 6 17 0
 729 0112 C7853CF7 		movl	$0, -2244(%rbp)
 729      FFFF0000 
 729      0000
  18:TestTimeConstraintMacro.cpp ****     RecordingReporter reporter;
 730              		.loc 6 18 0
 731 011c 488D85B0 		leaq	-2128(%rbp), %rax
 731      F7FFFF
 732 0123 4889C7   		movq	%rax, %rdi
 733 0126 E8000000 		call	_ZN17RecordingReporterC1Ev
 733      00
 734              	.LBB10:
  19:TestTimeConstraintMacro.cpp ****     {
  20:TestTimeConstraintMacro.cpp ****         UnitTest::TestResults testResults(&reporter);
 735              		.loc 6 20 0
 736 012b 488D95B0 		leaq	-2128(%rbp), %rdx
 736      F7FFFF
 737 0132 488D8550 		leaq	-2224(%rbp), %rax
 737      F7FFFF
 738 0139 4889D6   		movq	%rdx, %rsi
 739 013c 4889C7   		movq	%rax, %rdi
 740              	.LEHB4:
 741 013f E8000000 		call	_ZN8UnitTest11TestResultsC1EPNS_12TestReporterE
 741      00
  21:TestTimeConstraintMacro.cpp **** 		ScopedCurrentTest scopedResults(testResults);
 742              		.loc 6 21 0
 743 0144 488D8D50 		leaq	-2224(%rbp), %rcx
 743      F7FFFF
 744 014b 488D8540 		leaq	-2240(%rbp), %rax
 744      F7FFFF
 745 0152 BA000000 		movl	$0, %edx
 745      00
 746 0157 4889CE   		movq	%rcx, %rsi
 747 015a 4889C7   		movq	%rax, %rdi
 748 015d E8000000 		call	_ZN17ScopedCurrentTestC1ERN8UnitTest11TestResultsEPKNS0_11TestDetailsE
 748      00
 749              	.LEHE4:
  22:TestTimeConstraintMacro.cpp **** 
  23:TestTimeConstraintMacro.cpp ****         UNITTEST_TIME_CONSTRAINT(10); testLine = __LINE__;
 750              		.loc 6 23 0
 751 0162 488B8528 		movq	-2264(%rbp), %rax
 751      F7FFFF
 752 0169 488D4808 		leaq	8(%rax), %rcx
 753 016d 488D8590 		leaq	-2160(%rbp), %rax
 753      F7FFFF
 754 0174 BA170000 		movl	$23, %edx
 754      00
 755 0179 4889CE   		movq	%rcx, %rsi
 756 017c 4889C7   		movq	%rax, %rdi
 757              	.LEHB5:
 758 017f E8000000 		call	_ZN8UnitTest11TestDetailsC1ERKS0_i
 758      00
 759              		.loc 6 23 0 is_stmt 0 discriminator 1
 760 0184 488D9590 		leaq	-2160(%rbp), %rdx
 760      F7FFFF
 761 018b 488D8570 		leaq	-2192(%rbp), %rax
 761      F7FFFF
 762 0192 BE0A0000 		movl	$10, %esi
 762      00
 763 0197 4889C7   		movq	%rax, %rdi
 764 019a E8000000 		call	_ZN8UnitTest14TimeConstraintC1EiRKNS_11TestDetailsE
 764      00
 765              	.LEHE5:
 766              		.loc 6 23 0 discriminator 3
 767 019f C7853CF7 		movl	$23, -2244(%rbp)
 767      FFFF1700 
 767      0000
  24:TestTimeConstraintMacro.cpp ****         UnitTest::TimeHelpers::SleepMs(20);
 768              		.loc 6 24 0 is_stmt 1 discriminator 3
 769 01a9 BF140000 		movl	$20, %edi
 769      00
 770              	.LEHB6:
 771 01ae E8000000 		call	_ZN8UnitTest11TimeHelpers7SleepMsEi
 771      00
 772              	.LEHE6:
  23:TestTimeConstraintMacro.cpp ****         UnitTest::TimeHelpers::SleepMs(20);
 773              		.loc 6 23 0
 774 01b3 488D8570 		leaq	-2192(%rbp), %rax
 774      F7FFFF
 775 01ba 4889C7   		movq	%rax, %rdi
 776              	.LEHB7:
 777 01bd E8000000 		call	_ZN8UnitTest14TimeConstraintD1Ev
 777      00
 778              	.LEHE7:
  21:TestTimeConstraintMacro.cpp **** 
 779              		.loc 6 21 0
 780 01c2 488D8540 		leaq	-2240(%rbp), %rax
 780      F7FFFF
 781 01c9 4889C7   		movq	%rax, %rdi
 782              	.LEHB8:
 783 01cc E8000000 		call	_ZN17ScopedCurrentTestD1Ev
 783      00
 784              	.LEHE8:
 785              	.LEHB9:
 786              	.LBE10:
  25:TestTimeConstraintMacro.cpp ****     }
  26:TestTimeConstraintMacro.cpp **** 
  27:TestTimeConstraintMacro.cpp **** 	using namespace std;
  28:TestTimeConstraintMacro.cpp **** 
  29:TestTimeConstraintMacro.cpp ****     CHECK_EQUAL(1, reporter.testFailedCount);
 787              		.loc 6 29 0
 788 01d1 E8000000 		call	_ZN8UnitTest11CurrentTest7DetailsEv
 788      00
 789 01d6 488B08   		movq	(%rax), %rcx
 790 01d9 488D8590 		leaq	-2160(%rbp), %rax
 790      F7FFFF
 791 01e0 BA1D0000 		movl	$29, %edx
 791      00
 792 01e5 4889CE   		movq	%rcx, %rsi
 793 01e8 4889C7   		movq	%rax, %rdi
 794 01eb E8000000 		call	_ZN8UnitTest11TestDetailsC1ERKS0_i
 794      00
 795              	.LEHE9:
 796              		.loc 6 29 0 is_stmt 0 discriminator 2
 797 01f0 C78570F7 		movl	$1, -2192(%rbp)
 797      FFFF0100 
 797      0000
 798              	.LEHB10:
 799 01fa E8000000 		call	_ZN8UnitTest11CurrentTest7ResultsEv
 799      00
 800 01ff 488B00   		movq	(%rax), %rax
 801 0202 488D9590 		leaq	-2160(%rbp), %rdx
 801      F7FFFF
 802 0209 488D8DB0 		leaq	-2128(%rbp), %rcx
 802      F7FFFF
 803 0210 488DB90C 		leaq	524(%rcx), %rdi
 803      020000
 804 0217 488DB570 		leaq	-2192(%rbp), %rsi
 804      F7FFFF
 805 021e 4889D1   		movq	%rdx, %rcx
 806 0221 4889FA   		movq	%rdi, %rdx
 807 0224 4889C7   		movq	%rax, %rdi
 808 0227 E8000000 		call	_ZN8UnitTest10CheckEqualIiiEEvRNS_11TestResultsERKT_RKT0_RKNS_11TestDetailsE
 808      00
 809              	.LEHE10:
 810              	.L32:
  30:TestTimeConstraintMacro.cpp ****     CHECK(strstr(reporter.lastFailedFile, __FILE__));
 811              		.loc 6 30 0 is_stmt 1
 812 022c 488D85B0 		leaq	-2128(%rbp), %rax
 812      F7FFFF
 813 0233 48051002 		addq	$528, %rax
 813      0000
 814 0239 BE000000 		movl	$.LC2, %esi
 814      00
 815 023e 4889C7   		movq	%rax, %rdi
 816 0241 E8000000 		call	strstr
 816      00
 817 0246 4889C7   		movq	%rax, %rdi
 818 0249 E8000000 		call	_ZN8UnitTest5CheckIPcEEbT_
 818      00
 819 024e 83F001   		xorl	$1, %eax
 820 0251 84C0     		testb	%al, %al
 821 0253 743E     		je	.L25
 822              	.LEHB11:
 823              		.loc 6 30 0 is_stmt 0 discriminator 1
 824 0255 E8000000 		call	_ZN8UnitTest11CurrentTest7DetailsEv
 824      00
 825 025a 488B08   		movq	(%rax), %rcx
 826 025d 488D8590 		leaq	-2160(%rbp), %rax
 826      F7FFFF
 827 0264 BA1E0000 		movl	$30, %edx
 827      00
 828 0269 4889CE   		movq	%rcx, %rsi
 829 026c 4889C7   		movq	%rax, %rdi
 830 026f E8000000 		call	_ZN8UnitTest11TestDetailsC1ERKS0_i
 830      00
 831              		.loc 6 30 0 discriminator 3
 832 0274 E8000000 		call	_ZN8UnitTest11CurrentTest7ResultsEv
 832      00
 833 0279 488B00   		movq	(%rax), %rax
 834 027c 488D8D90 		leaq	-2160(%rbp), %rcx
 834      F7FFFF
 835 0283 BA000000 		movl	$.LC5, %edx
 835      00
 836 0288 4889CE   		movq	%rcx, %rsi
 837 028b 4889C7   		movq	%rax, %rdi
 838 028e E8000000 		call	_ZN8UnitTest11TestResults13OnTestFailureERKNS_11TestDetailsEPKc
 838      00
 839              	.LEHE11:
 840              	.L25:
 841              	.LEHB12:
  31:TestTimeConstraintMacro.cpp ****     CHECK_EQUAL(testLine, reporter.lastFailedLine);
 842              		.loc 6 31 0 is_stmt 1
 843 0293 E8000000 		call	_ZN8UnitTest11CurrentTest7DetailsEv
 843      00
 844 0298 488B08   		movq	(%rax), %rcx
 845 029b 488D8590 		leaq	-2160(%rbp), %rax
 845      F7FFFF
 846 02a2 BA1F0000 		movl	$31, %edx
 846      00
 847 02a7 4889CE   		movq	%rcx, %rsi
 848 02aa 4889C7   		movq	%rax, %rdi
 849 02ad E8000000 		call	_ZN8UnitTest11TestDetailsC1ERKS0_i
 849      00
 850              		.loc 6 31 0 is_stmt 0 discriminator 2
 851 02b2 E8000000 		call	_ZN8UnitTest11CurrentTest7ResultsEv
 851      00
 852 02b7 488B00   		movq	(%rax), %rax
 853 02ba 488D9590 		leaq	-2160(%rbp), %rdx
 853      F7FFFF
 854 02c1 488D8DB0 		leaq	-2128(%rbp), %rcx
 854      F7FFFF
 855 02c8 488DB910 		leaq	784(%rcx), %rdi
 855      030000
 856 02cf 488DB53C 		leaq	-2244(%rbp), %rsi
 856      F7FFFF
 857 02d6 4889D1   		movq	%rdx, %rcx
 858 02d9 4889FA   		movq	%rdi, %rdx
 859 02dc 4889C7   		movq	%rax, %rdi
 860 02df E8000000 		call	_ZN8UnitTest10CheckEqualIiiEEvRNS_11TestResultsERKT_RKT0_RKNS_11TestDetailsE
 860      00
 861              	.LEHE12:
 862              	.L37:
  32:TestTimeConstraintMacro.cpp ****     CHECK(strstr(reporter.lastFailedTest, "TimeConstraintMacroUsesCorrectInfo"));
 863              		.loc 6 32 0 is_stmt 1
 864 02e4 488D85B0 		leaq	-2128(%rbp), %rax
 864      F7FFFF
 865 02eb 48051404 		addq	$1044, %rax
 865      0000
 866 02f1 BE000000 		movl	$.LC4, %esi
 866      00
 867 02f6 4889C7   		movq	%rax, %rdi
 868 02f9 E8000000 		call	strstr
 868      00
 869 02fe 4889C7   		movq	%rax, %rdi
 870 0301 E8000000 		call	_ZN8UnitTest5CheckIPcEEbT_
 870      00
 871 0306 83F001   		xorl	$1, %eax
 872 0309 84C0     		testb	%al, %al
 873 030b 743E     		je	.L26
 874              	.LEHB13:
 875              		.loc 6 32 0 is_stmt 0 discriminator 1
 876 030d E8000000 		call	_ZN8UnitTest11CurrentTest7DetailsEv
 876      00
 877 0312 488B08   		movq	(%rax), %rcx
 878 0315 488D8590 		leaq	-2160(%rbp), %rax
 878      F7FFFF
 879 031c BA200000 		movl	$32, %edx
 879      00
 880 0321 4889CE   		movq	%rcx, %rsi
 881 0324 4889C7   		movq	%rax, %rdi
 882 0327 E8000000 		call	_ZN8UnitTest11TestDetailsC1ERKS0_i
 882      00
 883              		.loc 6 32 0 discriminator 3
 884 032c E8000000 		call	_ZN8UnitTest11CurrentTest7ResultsEv
 884      00
 885 0331 488B00   		movq	(%rax), %rax
 886 0334 488D8D90 		leaq	-2160(%rbp), %rcx
 886      F7FFFF
 887 033b BA000000 		movl	$.LC6, %edx
 887      00
 888 0340 4889CE   		movq	%rcx, %rsi
 889 0343 4889C7   		movq	%rax, %rdi
 890 0346 E8000000 		call	_ZN8UnitTest11TestResults13OnTestFailureERKNS_11TestDetailsEPKc
 890      00
 891              	.LEHE13:
 892              	.L26:
  18:TestTimeConstraintMacro.cpp ****     {
 893              		.loc 6 18 0 is_stmt 1
 894 034b 488D85B0 		leaq	-2128(%rbp), %rax
 894      F7FFFF
 895 0352 4889C7   		movq	%rax, %rdi
 896              	.LEHB14:
 897 0355 E8000000 		call	_ZN17RecordingReporterD1Ev
 897      00
 898              	.LEHE14:
  33:TestTimeConstraintMacro.cpp **** }
 899              		.loc 6 33 0
 900 035a 90       		nop
 901 035b 488B45E8 		movq	-24(%rbp), %rax
 902 035f 64483304 		xorq	%fs:40, %rax
 902      25280000 
 902      00
 903 0368 0F84C201 		je	.L41
 903      0000
 904 036e E9B80100 		jmp	.L54
 904      00
 905              	.L43:
 906 0373 4889C3   		movq	%rax, %rbx
 907              	.LBB11:
  23:TestTimeConstraintMacro.cpp ****         UnitTest::TimeHelpers::SleepMs(20);
 908              		.loc 6 23 0
 909 0376 488D8570 		leaq	-2192(%rbp), %rax
 909      F7FFFF
 910 037d 4889C7   		movq	%rax, %rdi
 911 0380 E8000000 		call	_ZN8UnitTest14TimeConstraintD1Ev
 911      00
 912 0385 EB03     		jmp	.L28
 913              	.L42:
 914 0387 4889C3   		movq	%rax, %rbx
 915              	.L28:
  21:TestTimeConstraintMacro.cpp **** 
 916              		.loc 6 21 0
 917 038a 488D8540 		leaq	-2240(%rbp), %rax
 917      F7FFFF
 918 0391 4889C7   		movq	%rax, %rdi
 919 0394 E8000000 		call	_ZN17ScopedCurrentTestD1Ev
 919      00
 920 0399 E9730100 		jmp	.L29
 920      00
 921              	.L46:
 922 039e EB00     		jmp	.L31
 923              	.L45:
 924              	.L31:
 925              	.LBE11:
  29:TestTimeConstraintMacro.cpp ****     CHECK(strstr(reporter.lastFailedFile, __FILE__));
 926              		.loc 6 29 0
 927 03a0 4889C7   		movq	%rax, %rdi
 928 03a3 E8000000 		call	__cxa_begin_catch
 928      00
 929              	.LEHB15:
 930 03a8 E8000000 		call	_ZN8UnitTest11CurrentTest7DetailsEv
 930      00
 931 03ad 488B08   		movq	(%rax), %rcx
 932 03b0 488D8590 		leaq	-2160(%rbp), %rax
 932      F7FFFF
 933 03b7 BA1D0000 		movl	$29, %edx
 933      00
 934 03bc 4889CE   		movq	%rcx, %rsi
 935 03bf 4889C7   		movq	%rax, %rdi
 936 03c2 E8000000 		call	_ZN8UnitTest11TestDetailsC1ERKS0_i
 936      00
  29:TestTimeConstraintMacro.cpp ****     CHECK(strstr(reporter.lastFailedFile, __FILE__));
 937              		.loc 6 29 0 is_stmt 0 discriminator 10
 938 03c7 E8000000 		call	_ZN8UnitTest11CurrentTest7ResultsEv
 938      00
 939 03cc 488B00   		movq	(%rax), %rax
 940 03cf 488D8D90 		leaq	-2160(%rbp), %rcx
 940      F7FFFF
 941 03d6 BA000000 		movl	$.LC7, %edx
 941      00
 942 03db 4889CE   		movq	%rcx, %rsi
 943 03de 4889C7   		movq	%rax, %rdi
 944 03e1 E8000000 		call	_ZN8UnitTest11TestResults13OnTestFailureERKNS_11TestDetailsEPKc
 944      00
 945              	.LEHE15:
 946              	.LEHB16:
  29:TestTimeConstraintMacro.cpp ****     CHECK(strstr(reporter.lastFailedFile, __FILE__));
 947              		.loc 6 29 0 discriminator 14
 948 03e6 E8000000 		call	__cxa_end_catch
 948      00
 949              	.LEHE16:
  29:TestTimeConstraintMacro.cpp ****     CHECK(strstr(reporter.lastFailedFile, __FILE__));
 950              		.loc 6 29 0
 951 03eb E93CFEFF 		jmp	.L32
 951      FF
 952              	.L47:
 953 03f0 4889C3   		movq	%rax, %rbx
 954 03f3 E8000000 		call	__cxa_end_catch
 954      00
 955 03f8 E9140100 		jmp	.L29
 955      00
 956              	.L48:
  30:TestTimeConstraintMacro.cpp ****     CHECK_EQUAL(testLine, reporter.lastFailedLine);
 957              		.loc 6 30 0 is_stmt 1
 958 03fd 4889C7   		movq	%rax, %rdi
 959 0400 E8000000 		call	__cxa_begin_catch
 959      00
 960              	.LEHB17:
 961 0405 E8000000 		call	_ZN8UnitTest11CurrentTest7DetailsEv
 961      00
 962 040a 488B08   		movq	(%rax), %rcx
 963 040d 488D8590 		leaq	-2160(%rbp), %rax
 963      F7FFFF
 964 0414 BA1E0000 		movl	$30, %edx
 964      00
 965 0419 4889CE   		movq	%rcx, %rsi
 966 041c 4889C7   		movq	%rax, %rdi
 967 041f E8000000 		call	_ZN8UnitTest11TestDetailsC1ERKS0_i
 967      00
  30:TestTimeConstraintMacro.cpp ****     CHECK_EQUAL(testLine, reporter.lastFailedLine);
 968              		.loc 6 30 0 is_stmt 0 discriminator 11
 969 0424 E8000000 		call	_ZN8UnitTest11CurrentTest7ResultsEv
 969      00
 970 0429 488B00   		movq	(%rax), %rax
 971 042c 488D8D90 		leaq	-2160(%rbp), %rcx
 971      F7FFFF
 972 0433 BA000000 		movl	$.LC8, %edx
 972      00
 973 0438 4889CE   		movq	%rcx, %rsi
 974 043b 4889C7   		movq	%rax, %rdi
 975 043e E8000000 		call	_ZN8UnitTest11TestResults13OnTestFailureERKNS_11TestDetailsEPKc
 975      00
 976              	.LEHE17:
 977              	.LEHB18:
  30:TestTimeConstraintMacro.cpp ****     CHECK_EQUAL(testLine, reporter.lastFailedLine);
 978              		.loc 6 30 0 discriminator 15
 979 0443 E8000000 		call	__cxa_end_catch
 979      00
 980              	.LEHE18:
  30:TestTimeConstraintMacro.cpp ****     CHECK_EQUAL(testLine, reporter.lastFailedLine);
 981              		.loc 6 30 0
 982 0448 E946FEFF 		jmp	.L25
 982      FF
 983              	.L49:
 984 044d 4889C3   		movq	%rax, %rbx
 985 0450 E8000000 		call	__cxa_end_catch
 985      00
 986 0455 E9B70000 		jmp	.L29
 986      00
 987              	.L50:
  31:TestTimeConstraintMacro.cpp ****     CHECK(strstr(reporter.lastFailedTest, "TimeConstraintMacroUsesCorrectInfo"));
 988              		.loc 6 31 0 is_stmt 1
 989 045a 4889C7   		movq	%rax, %rdi
 990 045d E8000000 		call	__cxa_begin_catch
 990      00
 991              	.LEHB19:
 992 0462 E8000000 		call	_ZN8UnitTest11CurrentTest7DetailsEv
 992      00
 993 0467 488B08   		movq	(%rax), %rcx
 994 046a 488D8590 		leaq	-2160(%rbp), %rax
 994      F7FFFF
 995 0471 BA1F0000 		movl	$31, %edx
 995      00
 996 0476 4889CE   		movq	%rcx, %rsi
 997 0479 4889C7   		movq	%rax, %rdi
 998 047c E8000000 		call	_ZN8UnitTest11TestDetailsC1ERKS0_i
 998      00
  31:TestTimeConstraintMacro.cpp ****     CHECK(strstr(reporter.lastFailedTest, "TimeConstraintMacroUsesCorrectInfo"));
 999              		.loc 6 31 0 is_stmt 0 discriminator 10
 1000 0481 E8000000 		call	_ZN8UnitTest11CurrentTest7ResultsEv
 1000      00
 1001 0486 488B00   		movq	(%rax), %rax
 1002 0489 488D8D90 		leaq	-2160(%rbp), %rcx
 1002      F7FFFF
 1003 0490 BA000000 		movl	$.LC9, %edx
 1003      00
 1004 0495 4889CE   		movq	%rcx, %rsi
 1005 0498 4889C7   		movq	%rax, %rdi
 1006 049b E8000000 		call	_ZN8UnitTest11TestResults13OnTestFailureERKNS_11TestDetailsEPKc
 1006      00
 1007              	.LEHE19:
 1008              	.LEHB20:
  31:TestTimeConstraintMacro.cpp ****     CHECK(strstr(reporter.lastFailedTest, "TimeConstraintMacroUsesCorrectInfo"));
 1009              		.loc 6 31 0 discriminator 14
 1010 04a0 E8000000 		call	__cxa_end_catch
 1010      00
 1011              	.LEHE20:
  31:TestTimeConstraintMacro.cpp ****     CHECK(strstr(reporter.lastFailedTest, "TimeConstraintMacroUsesCorrectInfo"));
 1012              		.loc 6 31 0
 1013 04a5 E93AFEFF 		jmp	.L37
 1013      FF
 1014              	.L51:
 1015 04aa 4889C3   		movq	%rax, %rbx
 1016 04ad E8000000 		call	__cxa_end_catch
 1016      00
 1017 04b2 EB5D     		jmp	.L29
 1018              	.L52:
  32:TestTimeConstraintMacro.cpp **** }
 1019              		.loc 6 32 0 is_stmt 1
 1020 04b4 4889C7   		movq	%rax, %rdi
 1021 04b7 E8000000 		call	__cxa_begin_catch
 1021      00
 1022              	.LEHB21:
 1023 04bc E8000000 		call	_ZN8UnitTest11CurrentTest7DetailsEv
 1023      00
 1024 04c1 488B08   		movq	(%rax), %rcx
 1025 04c4 488D8590 		leaq	-2160(%rbp), %rax
 1025      F7FFFF
 1026 04cb BA200000 		movl	$32, %edx
 1026      00
 1027 04d0 4889CE   		movq	%rcx, %rsi
 1028 04d3 4889C7   		movq	%rax, %rdi
 1029 04d6 E8000000 		call	_ZN8UnitTest11TestDetailsC1ERKS0_i
 1029      00
  32:TestTimeConstraintMacro.cpp **** }
 1030              		.loc 6 32 0 is_stmt 0 discriminator 11
 1031 04db E8000000 		call	_ZN8UnitTest11CurrentTest7ResultsEv
 1031      00
 1032 04e0 488B00   		movq	(%rax), %rax
 1033 04e3 488D8D90 		leaq	-2160(%rbp), %rcx
 1033      F7FFFF
 1034 04ea BA000000 		movl	$.LC10, %edx
 1034      00
 1035 04ef 4889CE   		movq	%rcx, %rsi
 1036 04f2 4889C7   		movq	%rax, %rdi
 1037 04f5 E8000000 		call	_ZN8UnitTest11TestResults13OnTestFailureERKNS_11TestDetailsEPKc
 1037      00
 1038              	.LEHE21:
 1039              	.LEHB22:
  32:TestTimeConstraintMacro.cpp **** }
 1040              		.loc 6 32 0 discriminator 15
 1041 04fa E8000000 		call	__cxa_end_catch
 1041      00
 1042              	.LEHE22:
  32:TestTimeConstraintMacro.cpp **** }
 1043              		.loc 6 32 0
 1044 04ff E947FEFF 		jmp	.L26
 1044      FF
 1045              	.L53:
 1046 0504 4889C3   		movq	%rax, %rbx
 1047 0507 E8000000 		call	__cxa_end_catch
 1047      00
 1048 050c EB03     		jmp	.L29
 1049              	.L44:
 1050 050e 4889C3   		movq	%rax, %rbx
 1051              	.L29:
  18:TestTimeConstraintMacro.cpp ****     {
 1052              		.loc 6 18 0 is_stmt 1
 1053 0511 488D85B0 		leaq	-2128(%rbp), %rax
 1053      F7FFFF
 1054 0518 4889C7   		movq	%rax, %rdi
 1055 051b E8000000 		call	_ZN17RecordingReporterD1Ev
 1055      00
 1056 0520 4889D8   		movq	%rbx, %rax
 1057 0523 4889C7   		movq	%rax, %rdi
 1058              	.LEHB23:
 1059 0526 E8000000 		call	_Unwind_Resume
 1059      00
 1060              	.LEHE23:
 1061              	.L54:
 1062              		.loc 6 33 0
 1063 052b E8000000 		call	__stack_chk_fail
 1063      00
 1064              	.L41:
 1065 0530 4881C4D8 		addq	$2264, %rsp
 1065      080000
 1066 0537 5B       		popq	%rbx
 1067 0538 5D       		popq	%rbp
 1068              		.cfi_def_cfa 7, 8
 1069 0539 C3       		ret
 1070              		.cfi_endproc
 1071              	.LFE1095:
 1072              		.section	.gcc_except_table,"a",@progbits
 1073              		.align 4
 1074              	.LLSDA1095:
 1075 0000 FF       		.byte	0xff
 1076 0001 03       		.byte	0x3
 1077 0002 7D       		.uleb128 .LLSDATT1095-.LLSDATTD1095
 1078              	.LLSDATTD1095:
 1079 0003 01       		.byte	0x1
 1080 0004 75       		.uleb128 .LLSDACSE1095-.LLSDACSB1095
 1081              	.LLSDACSB1095:
 1082 0005 4F       		.uleb128 .LEHB4-.LFB1095
 1083 0006 23       		.uleb128 .LEHE4-.LEHB4
 1084 0007 9E08     		.uleb128 .L44-.LFB1095
 1085 0009 00       		.uleb128 0
 1086 000a 8F01     		.uleb128 .LEHB5-.LFB1095
 1087 000c 20       		.uleb128 .LEHE5-.LEHB5
 1088 000d 9705     		.uleb128 .L42-.LFB1095
 1089 000f 00       		.uleb128 0
 1090 0010 BE01     		.uleb128 .LEHB6-.LFB1095
 1091 0012 05       		.uleb128 .LEHE6-.LEHB6
 1092 0013 8305     		.uleb128 .L43-.LFB1095
 1093 0015 00       		.uleb128 0
 1094 0016 CD01     		.uleb128 .LEHB7-.LFB1095
 1095 0018 05       		.uleb128 .LEHE7-.LEHB7
 1096 0019 9705     		.uleb128 .L42-.LFB1095
 1097 001b 00       		.uleb128 0
 1098 001c DC01     		.uleb128 .LEHB8-.LFB1095
 1099 001e 05       		.uleb128 .LEHE8-.LEHB8
 1100 001f 9E08     		.uleb128 .L44-.LFB1095
 1101 0021 00       		.uleb128 0
 1102 0022 E101     		.uleb128 .LEHB9-.LFB1095
 1103 0024 1F       		.uleb128 .LEHE9-.LEHB9
 1104 0025 B005     		.uleb128 .L45-.LFB1095
 1105 0027 01       		.uleb128 0x1
 1106 0028 8A02     		.uleb128 .LEHB10-.LFB1095
 1107 002a 32       		.uleb128 .LEHE10-.LEHB10
 1108 002b AE05     		.uleb128 .L46-.LFB1095
 1109 002d 01       		.uleb128 0x1
 1110 002e E502     		.uleb128 .LEHB11-.LFB1095
 1111 0030 3E       		.uleb128 .LEHE11-.LEHB11
 1112 0031 8D06     		.uleb128 .L48-.LFB1095
 1113 0033 01       		.uleb128 0x1
 1114 0034 A303     		.uleb128 .LEHB12-.LFB1095
 1115 0036 51       		.uleb128 .LEHE12-.LEHB12
 1116 0037 EA06     		.uleb128 .L50-.LFB1095
 1117 0039 01       		.uleb128 0x1
 1118 003a 9D04     		.uleb128 .LEHB13-.LFB1095
 1119 003c 3E       		.uleb128 .LEHE13-.LEHB13
 1120 003d C407     		.uleb128 .L52-.LFB1095
 1121 003f 01       		.uleb128 0x1
 1122 0040 E504     		.uleb128 .LEHB14-.LFB1095
 1123 0042 05       		.uleb128 .LEHE14-.LEHB14
 1124 0043 00       		.uleb128 0
 1125 0044 00       		.uleb128 0
 1126 0045 B805     		.uleb128 .LEHB15-.LFB1095
 1127 0047 3E       		.uleb128 .LEHE15-.LEHB15
 1128 0048 8006     		.uleb128 .L47-.LFB1095
 1129 004a 00       		.uleb128 0
 1130 004b F605     		.uleb128 .LEHB16-.LFB1095
 1131 004d 05       		.uleb128 .LEHE16-.LEHB16
 1132 004e 9E08     		.uleb128 .L44-.LFB1095
 1133 0050 00       		.uleb128 0
 1134 0051 9506     		.uleb128 .LEHB17-.LFB1095
 1135 0053 3E       		.uleb128 .LEHE17-.LEHB17
 1136 0054 DD06     		.uleb128 .L49-.LFB1095
 1137 0056 00       		.uleb128 0
 1138 0057 D306     		.uleb128 .LEHB18-.LFB1095
 1139 0059 05       		.uleb128 .LEHE18-.LEHB18
 1140 005a 9E08     		.uleb128 .L44-.LFB1095
 1141 005c 00       		.uleb128 0
 1142 005d F206     		.uleb128 .LEHB19-.LFB1095
 1143 005f 3E       		.uleb128 .LEHE19-.LEHB19
 1144 0060 BA07     		.uleb128 .L51-.LFB1095
 1145 0062 00       		.uleb128 0
 1146 0063 B007     		.uleb128 .LEHB20-.LFB1095
 1147 0065 05       		.uleb128 .LEHE20-.LEHB20
 1148 0066 9E08     		.uleb128 .L44-.LFB1095
 1149 0068 00       		.uleb128 0
 1150 0069 CC07     		.uleb128 .LEHB21-.LFB1095
 1151 006b 3E       		.uleb128 .LEHE21-.LEHB21
 1152 006c 9408     		.uleb128 .L53-.LFB1095
 1153 006e 00       		.uleb128 0
 1154 006f 8A08     		.uleb128 .LEHB22-.LFB1095
 1155 0071 05       		.uleb128 .LEHE22-.LEHB22
 1156 0072 9E08     		.uleb128 .L44-.LFB1095
 1157 0074 00       		.uleb128 0
 1158 0075 B608     		.uleb128 .LEHB23-.LFB1095
 1159 0077 05       		.uleb128 .LEHE23-.LEHB23
 1160 0078 00       		.uleb128 0
 1161 0079 00       		.uleb128 0
 1162              	.LLSDACSE1095:
 1163 007a 01       		.byte	0x1
 1164 007b 00       		.byte	0
 1165              		.align 4
 1166 007c 00000000 		.long	0
 1167              	
 1168              	.LLSDATT1095:
 1169              		.text
 1171              		.section	.text._ZN8UnitTest15MemoryOutStreamD1Ev,"axG",@progbits,_ZN8UnitTest15MemoryOutStreamD1Ev
 1172              		.align 2
 1173              		.weak	_ZN8UnitTest15MemoryOutStreamD1Ev
 1175              	_ZN8UnitTest15MemoryOutStreamD1Ev:
 1176              	.LFB1126:
  13:../MemoryOutStream.h **** {
 1177              		.loc 2 13 0
 1178              		.cfi_startproc
 1179              		.cfi_personality 0x3,__gxx_personality_v0
 1180              		.cfi_lsda 0x3,.LLSDA1126
 1181 0000 55       		pushq	%rbp
 1182              		.cfi_def_cfa_offset 16
 1183              		.cfi_offset 6, -16
 1184 0001 4889E5   		movq	%rsp, %rbp
 1185              		.cfi_def_cfa_register 6
 1186 0004 53       		pushq	%rbx
 1187 0005 4883EC18 		subq	$24, %rsp
 1188              		.cfi_offset 3, -24
 1189 0009 48897DE8 		movq	%rdi, -24(%rbp)
 1190              	.LBB12:
  13:../MemoryOutStream.h **** {
 1191              		.loc 2 13 0
 1192 000d BA000000 		movl	$_ZTVN8UnitTest15MemoryOutStreamE+24, %edx
 1192      00
 1193 0012 488B45E8 		movq	-24(%rbp), %rax
 1194 0016 488910   		movq	%rdx, (%rax)
 1195 0019 BA900000 		movl	$144, %edx
 1195      00
 1196 001e 488B45E8 		movq	-24(%rbp), %rax
 1197 0022 4801D0   		addq	%rdx, %rax
 1198 0025 BA000000 		movl	$_ZTVN8UnitTest15MemoryOutStreamE+64, %edx
 1198      00
 1199 002a 488910   		movq	%rdx, (%rax)
 1200 002d 488B45E8 		movq	-24(%rbp), %rax
 1201 0031 4883C070 		addq	$112, %rax
 1202 0035 4889C7   		movq	%rax, %rdi
 1203              	.LEHB24:
 1204 0038 E8000000 		call	_ZNSt7__cxx1112basic_stringIcSt11char_traitsIcESaIcEED1Ev
 1204      00
 1205              	.LEHE24:
  13:../MemoryOutStream.h **** {
 1206              		.loc 2 13 0 is_stmt 0 discriminator 14
 1207 003d BA000000 		movl	$_ZTTN8UnitTest15MemoryOutStreamE+8, %edx
 1207      00
 1208 0042 488B45E8 		movq	-24(%rbp), %rax
 1209 0046 4889D6   		movq	%rdx, %rsi
 1210 0049 4889C7   		movq	%rax, %rdi
 1211              	.LEHB25:
 1212 004c E8000000 		call	_ZNSt7__cxx1119basic_ostringstreamIcSt11char_traitsIcESaIcEED2Ev
 1212      00
 1213              	.LEHE25:
  13:../MemoryOutStream.h **** {
 1214              		.loc 2 13 0 discriminator 20
 1215 0051 B8020000 		movl	$2, %eax
 1215      00
 1216 0056 85C0     		testl	%eax, %eax
 1217 0058 7412     		je	.L56
  13:../MemoryOutStream.h **** {
 1218              		.loc 2 13 0 discriminator 21
 1219 005a 488B45E8 		movq	-24(%rbp), %rax
 1220 005e 48059000 		addq	$144, %rax
 1220      0000
 1221 0064 4889C7   		movq	%rax, %rdi
 1222              	.LEHB26:
 1223 0067 E8000000 		call	_ZNSt9basic_iosIcSt11char_traitsIcEED2Ev
 1223      00
 1224              	.LEHE26:
 1225              	.L56:
 1226              	.LBE12:
  13:../MemoryOutStream.h **** {
 1227              		.loc 2 13 0 discriminator 22
 1228 006c B8000000 		movl	$0, %eax
 1228      00
 1229 0071 85C0     		testl	%eax, %eax
 1230 0073 7450     		je	.L55
  13:../MemoryOutStream.h **** {
 1231              		.loc 2 13 0 discriminator 25
 1232 0075 488B45E8 		movq	-24(%rbp), %rax
 1233 0079 4889C7   		movq	%rax, %rdi
 1234 007c E8000000 		call	_ZdlPv
 1234      00
 1235 0081 EB42     		jmp	.L55
 1236              	.L61:
 1237 0083 4889C3   		movq	%rax, %rbx
 1238              	.LBB13:
  13:../MemoryOutStream.h **** {
 1239              		.loc 2 13 0
 1240 0086 BA000000 		movl	$_ZTTN8UnitTest15MemoryOutStreamE+8, %edx
 1240      00
 1241 008b 488B45E8 		movq	-24(%rbp), %rax
 1242 008f 4889D6   		movq	%rdx, %rsi
 1243 0092 4889C7   		movq	%rax, %rdi
 1244 0095 E8000000 		call	_ZNSt7__cxx1119basic_ostringstreamIcSt11char_traitsIcESaIcEED2Ev
 1244      00
 1245 009a EB03     		jmp	.L59
 1246              	.L62:
 1247 009c 4889C3   		movq	%rax, %rbx
 1248              	.L59:
  13:../MemoryOutStream.h **** {
 1249              		.loc 2 13 0 discriminator 19
 1250 009f B8020000 		movl	$2, %eax
 1250      00
 1251 00a4 85C0     		testl	%eax, %eax
 1252 00a6 7412     		je	.L60
  13:../MemoryOutStream.h **** {
 1253              		.loc 2 13 0 discriminator 32
 1254 00a8 488B45E8 		movq	-24(%rbp), %rax
 1255 00ac 48059000 		addq	$144, %rax
 1255      0000
 1256 00b2 4889C7   		movq	%rax, %rdi
 1257 00b5 E8000000 		call	_ZNSt9basic_iosIcSt11char_traitsIcEED2Ev
 1257      00
 1258              	.L60:
 1259 00ba 4889D8   		movq	%rbx, %rax
 1260 00bd 4889C7   		movq	%rax, %rdi
 1261              	.LEHB27:
 1262 00c0 E8000000 		call	_Unwind_Resume
 1262      00
 1263              	.LEHE27:
 1264              	.L55:
 1265              	.LBE13:
  13:../MemoryOutStream.h **** {
 1266              		.loc 2 13 0
 1267 00c5 4883C418 		addq	$24, %rsp
 1268 00c9 5B       		popq	%rbx
 1269 00ca 5D       		popq	%rbp
 1270              		.cfi_def_cfa 7, 8
 1271 00cb C3       		ret
 1272              		.cfi_endproc
 1273              	.LFE1126:
 1274              		.section	.gcc_except_table
 1275              	.LLSDA1126:
 1276 0080 FF       		.byte	0xff
 1277 0081 FF       		.byte	0xff
 1278 0082 01       		.byte	0x1
 1279 0083 13       		.uleb128 .LLSDACSE1126-.LLSDACSB1126
 1280              	.LLSDACSB1126:
 1281 0084 38       		.uleb128 .LEHB24-.LFB1126
 1282 0085 05       		.uleb128 .LEHE24-.LEHB24
 1283 0086 8301     		.uleb128 .L61-.LFB1126
 1284 0088 00       		.uleb128 0
 1285 0089 4C       		.uleb128 .LEHB25-.LFB1126
 1286 008a 05       		.uleb128 .LEHE25-.LEHB25
 1287 008b 9C01     		.uleb128 .L62-.LFB1126
 1288 008d 00       		.uleb128 0
 1289 008e 67       		.uleb128 .LEHB26-.LFB1126
 1290 008f 05       		.uleb128 .LEHE26-.LEHB26
 1291 0090 00       		.uleb128 0
 1292 0091 00       		.uleb128 0
 1293 0092 C001     		.uleb128 .LEHB27-.LFB1126
 1294 0094 05       		.uleb128 .LEHE27-.LEHB27
 1295 0095 00       		.uleb128 0
 1296 0096 00       		.uleb128 0
 1297              	.LLSDACSE1126:
 1298              		.section	.text._ZN8UnitTest15MemoryOutStreamD1Ev,"axG",@progbits,_ZN8UnitTest15MemoryOutStreamD1Ev
 1300              		.set	.LTHUNK0,_ZN8UnitTest15MemoryOutStreamD1Ev
 1301              		.weak	_ZTv0_n24_N8UnitTest15MemoryOutStreamD1Ev
 1303              	_ZTv0_n24_N8UnitTest15MemoryOutStreamD1Ev:
 1304              	.LFB1195:
  13:../MemoryOutStream.h **** {
 1305              		.loc 2 13 0 is_stmt 1
 1306              		.cfi_startproc
 1307 00cc 4C8B17   		movq	(%rdi), %r10
 1308 00cf 49037AE8 		addq	-24(%r10), %rdi
 1309 00d3 E928FFFF 		jmp	.LTHUNK0
 1309      FF
 1310              		.cfi_endproc
 1311              	.LFE1195:
 1313              		.section	.text._ZN8UnitTest15MemoryOutStreamD0Ev,"axG",@progbits,_ZN8UnitTest15MemoryOutStreamD0Ev
 1314              		.align 2
 1315              		.weak	_ZN8UnitTest15MemoryOutStreamD0Ev
 1317              	_ZN8UnitTest15MemoryOutStreamD0Ev:
 1318              	.LFB1127:
  13:../MemoryOutStream.h **** {
 1319              		.loc 2 13 0
 1320              		.cfi_startproc
 1321 0000 55       		pushq	%rbp
 1322              		.cfi_def_cfa_offset 16
 1323              		.cfi_offset 6, -16
 1324 0001 4889E5   		movq	%rsp, %rbp
 1325              		.cfi_def_cfa_register 6
 1326 0004 4883EC10 		subq	$16, %rsp
 1327 0008 48897DF8 		movq	%rdi, -8(%rbp)
  13:../MemoryOutStream.h **** {
 1328              		.loc 2 13 0
 1329 000c 488B45F8 		movq	-8(%rbp), %rax
 1330 0010 4889C7   		movq	%rax, %rdi
 1331 0013 E8000000 		call	_ZN8UnitTest15MemoryOutStreamD1Ev
 1331      00
 1332 0018 488B45F8 		movq	-8(%rbp), %rax
 1333 001c 4889C7   		movq	%rax, %rdi
 1334 001f E8000000 		call	_ZdlPv
 1334      00
 1335 0024 C9       		leave
 1336              		.cfi_def_cfa 7, 8
 1337 0025 C3       		ret
 1338              		.cfi_endproc
 1339              	.LFE1127:
 1341              		.set	.LTHUNK1,_ZN8UnitTest15MemoryOutStreamD0Ev
 1342              		.weak	_ZTv0_n24_N8UnitTest15MemoryOutStreamD0Ev
 1344              	_ZTv0_n24_N8UnitTest15MemoryOutStreamD0Ev:
 1345              	.LFB1196:
  13:../MemoryOutStream.h **** {
 1346              		.loc 2 13 0
 1347              		.cfi_startproc
 1348 0026 4C8B17   		movq	(%rdi), %r10
 1349 0029 49037AE8 		addq	-24(%r10), %rdi
 1350 002d EBD1     		jmp	.LTHUNK1
 1351              		.cfi_endproc
 1352              	.LFE1196:
 1354              		.section	.rodata
 1355              	.LC11:
 1356 022c 45787065 		.string	"Expected "
 1356      63746564 
 1356      2000
 1357              	.LC12:
 1358 0236 20627574 		.string	" but was "
 1358      20776173 
 1358      2000
 1359              		.section	.text._ZN8UnitTest10CheckEqualIiiEEvRNS_11TestResultsERKT_RKT0_RKNS_11TestDetailsE,"axG",
 1360              		.weak	_ZN8UnitTest10CheckEqualIiiEEvRNS_11TestResultsERKT_RKT0_RKNS_11TestDetailsE
 1362              	_ZN8UnitTest10CheckEqualIiiEEvRNS_11TestResultsERKT_RKT0_RKNS_11TestDetailsE:
 1363              	.LFB1123:
 1364              		.file 7 "../Checks.h"
   1:../Checks.h   **** #ifndef UNITTEST_CHECKS_H
   2:../Checks.h   **** #define UNITTEST_CHECKS_H
   3:../Checks.h   **** 
   4:../Checks.h   **** #include "Config.h"
   5:../Checks.h   **** #include "TestResults.h"
   6:../Checks.h   **** #include "MemoryOutStream.h"
   7:../Checks.h   **** 
   8:../Checks.h   **** namespace UnitTest {
   9:../Checks.h   **** 
  10:../Checks.h   **** 
  11:../Checks.h   **** template< typename Value >
  12:../Checks.h   **** bool Check(Value const value)
  13:../Checks.h   **** {
  14:../Checks.h   ****     return !!value; // doing double negative to avoid silly VS warnings
  15:../Checks.h   **** }
  16:../Checks.h   **** 
  17:../Checks.h   **** 
  18:../Checks.h   **** template< typename Expected, typename Actual >
  19:../Checks.h   **** void CheckEqual(TestResults& results, Expected const& expected, Actual const& actual, TestDetails c
 1365              		.loc 7 19 0
 1366              		.cfi_startproc
 1367              		.cfi_personality 0x3,__gxx_personality_v0
 1368              		.cfi_lsda 0x3,.LLSDA1123
 1369 0000 55       		pushq	%rbp
 1370              		.cfi_def_cfa_offset 16
 1371              		.cfi_offset 6, -16
 1372 0001 4889E5   		movq	%rsp, %rbp
 1373              		.cfi_def_cfa_register 6
 1374 0004 4154     		pushq	%r12
 1375 0006 53       		pushq	%rbx
 1376 0007 4881ECC0 		subq	$448, %rsp
 1376      010000
 1377              		.cfi_offset 12, -24
 1378              		.cfi_offset 3, -32
 1379 000e 4889BD48 		movq	%rdi, -440(%rbp)
 1379      FEFFFF
 1380 0015 4889B540 		movq	%rsi, -448(%rbp)
 1380      FEFFFF
 1381 001c 48899538 		movq	%rdx, -456(%rbp)
 1381      FEFFFF
 1382 0023 48898D30 		movq	%rcx, -464(%rbp)
 1382      FEFFFF
 1383              		.loc 7 19 0
 1384 002a 64488B04 		movq	%fs:40, %rax
 1384      25280000 
 1384      00
 1385 0033 488945E8 		movq	%rax, -24(%rbp)
 1386 0037 31C0     		xorl	%eax, %eax
 1387              	.LBB14:
  20:../Checks.h   **** {
  21:../Checks.h   ****     if (!(expected == actual))
 1388              		.loc 7 21 0
 1389 0039 488B8540 		movq	-448(%rbp), %rax
 1389      FEFFFF
 1390 0040 8B10     		movl	(%rax), %edx
 1391 0042 488B8538 		movq	-456(%rbp), %rax
 1391      FEFFFF
 1392 0049 8B00     		movl	(%rax), %eax
 1393 004b 39C2     		cmpl	%eax, %edx
 1394 004d 0F84B100 		je	.L69
 1394      0000
 1395              	.LBB15:
  22:../Checks.h   ****     {
  23:../Checks.h   ****         UnitTest::MemoryOutStream stream;
 1396              		.loc 7 23 0
 1397 0053 488D8550 		leaq	-432(%rbp), %rax
 1397      FEFFFF
 1398 005a 4889C7   		movq	%rax, %rdi
 1399              	.LEHB28:
 1400 005d E8000000 		call	_ZN8UnitTest15MemoryOutStreamC1Ev
 1400      00
 1401              	.LEHE28:
  24:../Checks.h   ****         stream << "Expected " << expected << " but was " << actual;
 1402              		.loc 7 24 0
 1403 0062 488B8538 		movq	-456(%rbp), %rax
 1403      FEFFFF
 1404 0069 8B18     		movl	(%rax), %ebx
 1405 006b 488B8540 		movq	-448(%rbp), %rax
 1405      FEFFFF
 1406 0072 448B20   		movl	(%rax), %r12d
 1407 0075 488D8550 		leaq	-432(%rbp), %rax
 1407      FEFFFF
 1408 007c BE000000 		movl	$.LC11, %esi
 1408      00
 1409 0081 4889C7   		movq	%rax, %rdi
 1410              	.LEHB29:
 1411 0084 E8000000 		call	_ZStlsISt11char_traitsIcEERSt13basic_ostreamIcT_ES5_PKc
 1411      00
 1412 0089 4489E6   		movl	%r12d, %esi
 1413 008c 4889C7   		movq	%rax, %rdi
 1414 008f E8000000 		call	_ZNSolsEi
 1414      00
 1415              		.loc 7 24 0 is_stmt 0 discriminator 1
 1416 0094 BE000000 		movl	$.LC12, %esi
 1416      00
 1417 0099 4889C7   		movq	%rax, %rdi
 1418 009c E8000000 		call	_ZStlsISt11char_traitsIcEERSt13basic_ostreamIcT_ES5_PKc
 1418      00
 1419              		.loc 7 24 0 discriminator 2
 1420 00a1 89DE     		movl	%ebx, %esi
 1421 00a3 4889C7   		movq	%rax, %rdi
 1422 00a6 E8000000 		call	_ZNSolsEi
 1422      00
  25:../Checks.h   **** 
  26:../Checks.h   ****         results.OnTestFailure(details, stream.GetText());
 1423              		.loc 7 26 0 is_stmt 1
 1424 00ab 488D8550 		leaq	-432(%rbp), %rax
 1424      FEFFFF
 1425 00b2 4889C7   		movq	%rax, %rdi
 1426 00b5 E8000000 		call	_ZNK8UnitTest15MemoryOutStream7GetTextEv
 1426      00
 1427 00ba 4889C2   		movq	%rax, %rdx
 1428 00bd 488B8D30 		movq	-464(%rbp), %rcx
 1428      FEFFFF
 1429 00c4 488B8548 		movq	-440(%rbp), %rax
 1429      FEFFFF
 1430 00cb 4889CE   		movq	%rcx, %rsi
 1431 00ce 4889C7   		movq	%rax, %rdi
 1432 00d1 E8000000 		call	_ZN8UnitTest11TestResults13OnTestFailureERKNS_11TestDetailsEPKc
 1432      00
 1433              	.LEHE29:
  23:../Checks.h   ****         stream << "Expected " << expected << " but was " << actual;
 1434              		.loc 7 23 0
 1435 00d6 488D8550 		leaq	-432(%rbp), %rax
 1435      FEFFFF
 1436 00dd 4889C7   		movq	%rax, %rdi
 1437              	.LEHB30:
 1438 00e0 E8000000 		call	_ZN8UnitTest15MemoryOutStreamD1Ev
 1438      00
 1439              	.LEHE30:
 1440              	.LBE15:
 1441              	.LBE14:
  27:../Checks.h   ****     }
  28:../Checks.h   **** }
 1442              		.loc 7 28 0
 1443 00e5 EB1D     		jmp	.L69
 1444              	.L68:
 1445 00e7 4889C3   		movq	%rax, %rbx
 1446              	.LBB17:
 1447              	.LBB16:
  23:../Checks.h   ****         stream << "Expected " << expected << " but was " << actual;
 1448              		.loc 7 23 0
 1449 00ea 488D8550 		leaq	-432(%rbp), %rax
 1449      FEFFFF
 1450 00f1 4889C7   		movq	%rax, %rdi
 1451 00f4 E8000000 		call	_ZN8UnitTest15MemoryOutStreamD1Ev
 1451      00
 1452 00f9 4889D8   		movq	%rbx, %rax
 1453 00fc 4889C7   		movq	%rax, %rdi
 1454              	.LEHB31:
 1455 00ff E8000000 		call	_Unwind_Resume
 1455      00
 1456              	.LEHE31:
 1457              	.L69:
 1458              	.LBE16:
 1459              	.LBE17:
 1460              		.loc 7 28 0
 1461 0104 90       		nop
 1462 0105 488B45E8 		movq	-24(%rbp), %rax
 1463 0109 64483304 		xorq	%fs:40, %rax
 1463      25280000 
 1463      00
 1464 0112 7405     		je	.L67
 1465 0114 E8000000 		call	__stack_chk_fail
 1465      00
 1466              	.L67:
 1467 0119 4881C4C0 		addq	$448, %rsp
 1467      010000
 1468 0120 5B       		popq	%rbx
 1469 0121 415C     		popq	%r12
 1470 0123 5D       		popq	%rbp
 1471              		.cfi_def_cfa 7, 8
 1472 0124 C3       		ret
 1473              		.cfi_endproc
 1474              	.LFE1123:
 1475              		.section	.gcc_except_table
 1476              	.LLSDA1123:
 1477 0097 FF       		.byte	0xff
 1478 0098 FF       		.byte	0xff
 1479 0099 01       		.byte	0x1
 1480 009a 14       		.uleb128 .LLSDACSE1123-.LLSDACSB1123
 1481              	.LLSDACSB1123:
 1482 009b 5D       		.uleb128 .LEHB28-.LFB1123
 1483 009c 05       		.uleb128 .LEHE28-.LEHB28
 1484 009d 00       		.uleb128 0
 1485 009e 00       		.uleb128 0
 1486 009f 8401     		.uleb128 .LEHB29-.LFB1123
 1487 00a1 52       		.uleb128 .LEHE29-.LEHB29
 1488 00a2 E701     		.uleb128 .L68-.LFB1123
 1489 00a4 00       		.uleb128 0
 1490 00a5 E001     		.uleb128 .LEHB30-.LFB1123
 1491 00a7 05       		.uleb128 .LEHE30-.LEHB30
 1492 00a8 00       		.uleb128 0
 1493 00a9 00       		.uleb128 0
 1494 00aa FF01     		.uleb128 .LEHB31-.LFB1123
 1495 00ac 05       		.uleb128 .LEHE31-.LEHB31
 1496 00ad 00       		.uleb128 0
 1497 00ae 00       		.uleb128 0
 1498              	.LLSDACSE1123:
 1499              		.section	.text._ZN8UnitTest10CheckEqualIiiEEvRNS_11TestResultsERKT_RKT0_RKNS_11TestDetailsE,"axG",
 1501              		.section	.text._ZN8UnitTest5CheckIPcEEbT_,"axG",@progbits,_ZN8UnitTest5CheckIPcEEbT_,comdat
 1502              		.weak	_ZN8UnitTest5CheckIPcEEbT_
 1504              	_ZN8UnitTest5CheckIPcEEbT_:
 1505              	.LFB1128:
  12:../Checks.h   **** {
 1506              		.loc 7 12 0
 1507              		.cfi_startproc
 1508 0000 55       		pushq	%rbp
 1509              		.cfi_def_cfa_offset 16
 1510              		.cfi_offset 6, -16
 1511 0001 4889E5   		movq	%rsp, %rbp
 1512              		.cfi_def_cfa_register 6
 1513 0004 48897DF8 		movq	%rdi, -8(%rbp)
  14:../Checks.h   **** }
 1514              		.loc 7 14 0
 1515 0008 48837DF8 		cmpq	$0, -8(%rbp)
 1515      00
 1516 000d 0F95C0   		setne	%al
  15:../Checks.h   **** 
 1517              		.loc 7 15 0
 1518 0010 5D       		popq	%rbp
 1519              		.cfi_def_cfa 7, 8
 1520 0011 C3       		ret
 1521              		.cfi_endproc
 1522              	.LFE1128:
 1524              		.section	.rodata
 1525              		.align 8
 1528              	_ZTVN12_GLOBAL__N_138TestTimeConstraintMacroUsesCorrectInfoE:
 1529 0240 00000000 		.quad	0
 1529      00000000 
 1530 0248 00000000 		.quad	_ZTIN12_GLOBAL__N_138TestTimeConstraintMacroUsesCorrectInfoE
 1530      00000000 
 1531 0250 00000000 		.quad	_ZN12_GLOBAL__N_138TestTimeConstraintMacroUsesCorrectInfoD1Ev
 1531      00000000 
 1532 0258 00000000 		.quad	_ZN12_GLOBAL__N_138TestTimeConstraintMacroUsesCorrectInfoD0Ev
 1532      00000000 
 1533 0260 00000000 		.quad	_ZNK12_GLOBAL__N_138TestTimeConstraintMacroUsesCorrectInfo7RunImplEv
 1533      00000000 
 1534              		.text
 1535              		.align 2
 1537              	_ZN12_GLOBAL__N_138TestTimeConstraintMacroUsesCorrectInfoD2Ev:
 1538              	.LFB1182:
  15:TestTimeConstraintMacro.cpp **** {
 1539              		.loc 6 15 0
 1540              		.cfi_startproc
 1541 053a 55       		pushq	%rbp
 1542              		.cfi_def_cfa_offset 16
 1543              		.cfi_offset 6, -16
 1544 053b 4889E5   		movq	%rsp, %rbp
 1545              		.cfi_def_cfa_register 6
 1546 053e 4883EC10 		subq	$16, %rsp
 1547 0542 48897DF8 		movq	%rdi, -8(%rbp)
 1548              	.LBB18:
  15:TestTimeConstraintMacro.cpp **** {
 1549              		.loc 6 15 0
 1550 0546 BA000000 		movl	$_ZTVN12_GLOBAL__N_138TestTimeConstraintMacroUsesCorrectInfoE+16, %edx
 1550      00
 1551 054b 488B45F8 		movq	-8(%rbp), %rax
 1552 054f 488910   		movq	%rdx, (%rax)
 1553 0552 488B45F8 		movq	-8(%rbp), %rax
 1554 0556 4889C7   		movq	%rax, %rdi
 1555 0559 E8000000 		call	_ZN8UnitTest4TestD2Ev
 1555      00
 1556              	.LBE18:
 1557 055e B8000000 		movl	$0, %eax
 1557      00
 1558 0563 85C0     		testl	%eax, %eax
 1559 0565 740C     		je	.L72
  15:TestTimeConstraintMacro.cpp **** {
 1560              		.loc 6 15 0 is_stmt 0 discriminator 4
 1561 0567 488B45F8 		movq	-8(%rbp), %rax
 1562 056b 4889C7   		movq	%rax, %rdi
 1563 056e E8000000 		call	_ZdlPv
 1563      00
 1564              	.L72:
  15:TestTimeConstraintMacro.cpp **** {
 1565              		.loc 6 15 0
 1566 0573 C9       		leave
 1567              		.cfi_def_cfa 7, 8
 1568 0574 C3       		ret
 1569              		.cfi_endproc
 1570              	.LFE1182:
 1572              		.set	_ZN12_GLOBAL__N_138TestTimeConstraintMacroUsesCorrectInfoD1Ev,_ZN12_GLOBAL__N_138TestTimeCons
 1573 0575 90       		.align 2
 1575              	_ZN12_GLOBAL__N_138TestTimeConstraintMacroUsesCorrectInfoD0Ev:
 1576              	.LFB1184:
  15:TestTimeConstraintMacro.cpp **** {
 1577              		.loc 6 15 0 is_stmt 1
 1578              		.cfi_startproc
 1579 0576 55       		pushq	%rbp
 1580              		.cfi_def_cfa_offset 16
 1581              		.cfi_offset 6, -16
 1582 0577 4889E5   		movq	%rsp, %rbp
 1583              		.cfi_def_cfa_register 6
 1584 057a 4883EC10 		subq	$16, %rsp
 1585 057e 48897DF8 		movq	%rdi, -8(%rbp)
  15:TestTimeConstraintMacro.cpp **** {
 1586              		.loc 6 15 0
 1587 0582 488B45F8 		movq	-8(%rbp), %rax
 1588 0586 4889C7   		movq	%rax, %rdi
 1589 0589 E8ACFFFF 		call	_ZN12_GLOBAL__N_138TestTimeConstraintMacroUsesCorrectInfoD1Ev
 1589      FF
 1590 058e 488B45F8 		movq	-8(%rbp), %rax
 1591 0592 4889C7   		movq	%rax, %rdi
 1592 0595 E8000000 		call	_ZdlPv
 1592      00
 1593 059a C9       		leave
 1594              		.cfi_def_cfa 7, 8
 1595 059b C3       		ret
 1596              		.cfi_endproc
 1597              	.LFE1184:
 1599              		.section	.rodata
 1600              		.align 8
 1603              	_ZTVN12_GLOBAL__N_141TestTimeConstraintMacroQualifiesNamespaceE:
 1604 0268 00000000 		.quad	0
 1604      00000000 
 1605 0270 00000000 		.quad	_ZTIN12_GLOBAL__N_141TestTimeConstraintMacroQualifiesNamespaceE
 1605      00000000 
 1606 0278 00000000 		.quad	_ZN12_GLOBAL__N_141TestTimeConstraintMacroQualifiesNamespaceD1Ev
 1606      00000000 
 1607 0280 00000000 		.quad	_ZN12_GLOBAL__N_141TestTimeConstraintMacroQualifiesNamespaceD0Ev
 1607      00000000 
 1608 0288 00000000 		.quad	_ZNK12_GLOBAL__N_141TestTimeConstraintMacroQualifiesNamespace7RunImplEv
 1608      00000000 
 1609              		.text
 1610              		.align 2
 1612              	_ZN12_GLOBAL__N_141TestTimeConstraintMacroQualifiesNamespaceD2Ev:
 1613              	.LFB1186:
   9:TestTimeConstraintMacro.cpp **** {
 1614              		.loc 6 9 0
 1615              		.cfi_startproc
 1616 059c 55       		pushq	%rbp
 1617              		.cfi_def_cfa_offset 16
 1618              		.cfi_offset 6, -16
 1619 059d 4889E5   		movq	%rsp, %rbp
 1620              		.cfi_def_cfa_register 6
 1621 05a0 4883EC10 		subq	$16, %rsp
 1622 05a4 48897DF8 		movq	%rdi, -8(%rbp)
 1623              	.LBB19:
   9:TestTimeConstraintMacro.cpp **** {
 1624              		.loc 6 9 0
 1625 05a8 BA000000 		movl	$_ZTVN12_GLOBAL__N_141TestTimeConstraintMacroQualifiesNamespaceE+16, %edx
 1625      00
 1626 05ad 488B45F8 		movq	-8(%rbp), %rax
 1627 05b1 488910   		movq	%rdx, (%rax)
 1628 05b4 488B45F8 		movq	-8(%rbp), %rax
 1629 05b8 4889C7   		movq	%rax, %rdi
 1630 05bb E8000000 		call	_ZN8UnitTest4TestD2Ev
 1630      00
 1631              	.LBE19:
 1632 05c0 B8000000 		movl	$0, %eax
 1632      00
 1633 05c5 85C0     		testl	%eax, %eax
 1634 05c7 740C     		je	.L75
   9:TestTimeConstraintMacro.cpp **** {
 1635              		.loc 6 9 0 is_stmt 0 discriminator 4
 1636 05c9 488B45F8 		movq	-8(%rbp), %rax
 1637 05cd 4889C7   		movq	%rax, %rdi
 1638 05d0 E8000000 		call	_ZdlPv
 1638      00
 1639              	.L75:
   9:TestTimeConstraintMacro.cpp **** {
 1640              		.loc 6 9 0
 1641 05d5 C9       		leave
 1642              		.cfi_def_cfa 7, 8
 1643 05d6 C3       		ret
 1644              		.cfi_endproc
 1645              	.LFE1186:
 1647              		.set	_ZN12_GLOBAL__N_141TestTimeConstraintMacroQualifiesNamespaceD1Ev,_ZN12_GLOBAL__N_141TestTimeC
 1648 05d7 90       		.align 2
 1650              	_ZN12_GLOBAL__N_141TestTimeConstraintMacroQualifiesNamespaceD0Ev:
 1651              	.LFB1188:
   9:TestTimeConstraintMacro.cpp **** {
 1652              		.loc 6 9 0 is_stmt 1
 1653              		.cfi_startproc
 1654 05d8 55       		pushq	%rbp
 1655              		.cfi_def_cfa_offset 16
 1656              		.cfi_offset 6, -16
 1657 05d9 4889E5   		movq	%rsp, %rbp
 1658              		.cfi_def_cfa_register 6
 1659 05dc 4883EC10 		subq	$16, %rsp
 1660 05e0 48897DF8 		movq	%rdi, -8(%rbp)
   9:TestTimeConstraintMacro.cpp **** {
 1661              		.loc 6 9 0
 1662 05e4 488B45F8 		movq	-8(%rbp), %rax
 1663 05e8 4889C7   		movq	%rax, %rdi
 1664 05eb E8ACFFFF 		call	_ZN12_GLOBAL__N_141TestTimeConstraintMacroQualifiesNamespaceD1Ev
 1664      FF
 1665 05f0 488B45F8 		movq	-8(%rbp), %rax
 1666 05f4 4889C7   		movq	%rax, %rdi
 1667 05f7 E8000000 		call	_ZdlPv
 1667      00
 1668 05fc C9       		leave
 1669              		.cfi_def_cfa 7, 8
 1670 05fd C3       		ret
 1671              		.cfi_endproc
 1672              	.LFE1188:
 1674              		.weak	_ZTV17RecordingReporter
 1675              		.section	.rodata._ZTV17RecordingReporter,"aG",@progbits,_ZTV17RecordingReporter,comdat
 1676              		.align 8
 1679              	_ZTV17RecordingReporter:
 1680 0000 00000000 		.quad	0
 1680      00000000 
 1681 0008 00000000 		.quad	_ZTI17RecordingReporter
 1681      00000000 
 1682 0010 00000000 		.quad	_ZN17RecordingReporterD1Ev
 1682      00000000 
 1683 0018 00000000 		.quad	_ZN17RecordingReporterD0Ev
 1683      00000000 
 1684 0020 00000000 		.quad	_ZN17RecordingReporter15ReportTestStartERKN8UnitTest11TestDetailsE
 1684      00000000 
 1685 0028 00000000 		.quad	_ZN17RecordingReporter13ReportFailureERKN8UnitTest11TestDetailsEPKc
 1685      00000000 
 1686 0030 00000000 		.quad	_ZN17RecordingReporter16ReportTestFinishERKN8UnitTest11TestDetailsEf
 1686      00000000 
 1687 0038 00000000 		.quad	_ZN17RecordingReporter13ReportSummaryEiiif
 1687      00000000 
 1688              		.section	.text._ZN17RecordingReporterD2Ev,"axG",@progbits,_ZN17RecordingReporterD5Ev,comdat
 1689              		.align 2
 1690              		.weak	_ZN17RecordingReporterD2Ev
 1692              	_ZN17RecordingReporterD2Ev:
 1693              	.LFB1190:
   9:RecordingReporter.h **** {
 1694              		.loc 4 9 0
 1695              		.cfi_startproc
 1696 0000 55       		pushq	%rbp
 1697              		.cfi_def_cfa_offset 16
 1698              		.cfi_offset 6, -16
 1699 0001 4889E5   		movq	%rsp, %rbp
 1700              		.cfi_def_cfa_register 6
 1701 0004 4883EC10 		subq	$16, %rsp
 1702 0008 48897DF8 		movq	%rdi, -8(%rbp)
 1703              	.LBB20:
   9:RecordingReporter.h **** {
 1704              		.loc 4 9 0
 1705 000c BA000000 		movl	$_ZTV17RecordingReporter+16, %edx
 1705      00
 1706 0011 488B45F8 		movq	-8(%rbp), %rax
 1707 0015 488910   		movq	%rdx, (%rax)
 1708 0018 488B45F8 		movq	-8(%rbp), %rax
 1709 001c 4889C7   		movq	%rax, %rdi
 1710 001f E8000000 		call	_ZN8UnitTest12TestReporterD2Ev
 1710      00
 1711              	.LBE20:
 1712 0024 B8000000 		movl	$0, %eax
 1712      00
 1713 0029 85C0     		testl	%eax, %eax
 1714 002b 740C     		je	.L78
   9:RecordingReporter.h **** {
 1715              		.loc 4 9 0 is_stmt 0 discriminator 4
 1716 002d 488B45F8 		movq	-8(%rbp), %rax
 1717 0031 4889C7   		movq	%rax, %rdi
 1718 0034 E8000000 		call	_ZdlPv
 1718      00
 1719              	.L78:
   9:RecordingReporter.h **** {
 1720              		.loc 4 9 0
 1721 0039 C9       		leave
 1722              		.cfi_def_cfa 7, 8
 1723 003a C3       		ret
 1724              		.cfi_endproc
 1725              	.LFE1190:
 1727              		.weak	_ZN17RecordingReporterD1Ev
 1728              		.set	_ZN17RecordingReporterD1Ev,_ZN17RecordingReporterD2Ev
 1729              		.section	.text._ZN17RecordingReporterD0Ev,"axG",@progbits,_ZN17RecordingReporterD5Ev,comdat
 1730              		.align 2
 1731              		.weak	_ZN17RecordingReporterD0Ev
 1733              	_ZN17RecordingReporterD0Ev:
 1734              	.LFB1192:
   9:RecordingReporter.h **** {
 1735              		.loc 4 9 0 is_stmt 1
 1736              		.cfi_startproc
 1737 0000 55       		pushq	%rbp
 1738              		.cfi_def_cfa_offset 16
 1739              		.cfi_offset 6, -16
 1740 0001 4889E5   		movq	%rsp, %rbp
 1741              		.cfi_def_cfa_register 6
 1742 0004 4883EC10 		subq	$16, %rsp
 1743 0008 48897DF8 		movq	%rdi, -8(%rbp)
   9:RecordingReporter.h **** {
 1744              		.loc 4 9 0
 1745 000c 488B45F8 		movq	-8(%rbp), %rax
 1746 0010 4889C7   		movq	%rax, %rdi
 1747 0013 E8000000 		call	_ZN17RecordingReporterD1Ev
 1747      00
 1748 0018 488B45F8 		movq	-8(%rbp), %rax
 1749 001c 4889C7   		movq	%rax, %rdi
 1750 001f E8000000 		call	_ZdlPv
 1750      00
 1751 0024 C9       		leave
 1752              		.cfi_def_cfa 7, 8
 1753 0025 C3       		ret
 1754              		.cfi_endproc
 1755              	.LFE1192:
 1757              		.weak	_ZTVN8UnitTest15MemoryOutStreamE
 1758              		.section	.rodata._ZTVN8UnitTest15MemoryOutStreamE,"aG",@progbits,_ZTVN8UnitTest15MemoryOutStreamE,
 1759              		.align 8
 1762              	_ZTVN8UnitTest15MemoryOutStreamE:
 1763 0000 90000000 		.quad	144
 1763      00000000 
 1764 0008 00000000 		.quad	0
 1764      00000000 
 1765 0010 00000000 		.quad	_ZTIN8UnitTest15MemoryOutStreamE
 1765      00000000 
 1766 0018 00000000 		.quad	_ZN8UnitTest15MemoryOutStreamD1Ev
 1766      00000000 
 1767 0020 00000000 		.quad	_ZN8UnitTest15MemoryOutStreamD0Ev
 1767      00000000 
 1768 0028 70FFFFFF 		.quad	-144
 1768      FFFFFFFF 
 1769 0030 70FFFFFF 		.quad	-144
 1769      FFFFFFFF 
 1770 0038 00000000 		.quad	_ZTIN8UnitTest15MemoryOutStreamE
 1770      00000000 
 1771 0040 00000000 		.quad	_ZTv0_n24_N8UnitTest15MemoryOutStreamD1Ev
 1771      00000000 
 1772 0048 00000000 		.quad	_ZTv0_n24_N8UnitTest15MemoryOutStreamD0Ev
 1772      00000000 
 1773              		.weak	_ZTTN8UnitTest15MemoryOutStreamE
 1774              		.section	.rodata._ZTTN8UnitTest15MemoryOutStreamE,"aG",@progbits,_ZTVN8UnitTest15MemoryOutStreamE,
 1775              		.align 8
 1778              	_ZTTN8UnitTest15MemoryOutStreamE:
 1779 0000 00000000 		.quad	_ZTVN8UnitTest15MemoryOutStreamE+24
 1779      00000000 
 1780 0008 00000000 		.quad	_ZTCN8UnitTest15MemoryOutStreamE0_NSt7__cxx1119basic_ostringstreamIcSt11char_traitsIcESaIcEE
 1780      00000000 
 1781 0010 00000000 		.quad	_ZTCN8UnitTest15MemoryOutStreamE0_So+24
 1781      00000000 
 1782 0018 00000000 		.quad	_ZTCN8UnitTest15MemoryOutStreamE0_So+64
 1782      00000000 
 1783 0020 00000000 		.quad	_ZTCN8UnitTest15MemoryOutStreamE0_NSt7__cxx1119basic_ostringstreamIcSt11char_traitsIcESaIcEE
 1783      00000000 
 1784 0028 00000000 		.quad	_ZTVN8UnitTest15MemoryOutStreamE+64
 1784      00000000 
 1785              		.hidden	_ZTCN8UnitTest15MemoryOutStreamE0_NSt7__cxx1119basic_ostringstreamIcSt11char_traitsIcESaIc
 1786              		.weak	_ZTCN8UnitTest15MemoryOutStreamE0_NSt7__cxx1119basic_ostringstreamIcSt11char_traitsIcESaIcEE
 1787              		.section	.rodata._ZTCN8UnitTest15MemoryOutStreamE0_NSt7__cxx1119basic_ostringstreamIcSt11char_trai
 1788              		.align 8
 1791              	_ZTCN8UnitTest15MemoryOutStreamE0_NSt7__cxx1119basic_ostringstreamIcSt11char_traitsIcESaIcEEE:
 1792 0000 90000000 		.quad	144
 1792      00000000 
 1793 0008 00000000 		.quad	0
 1793      00000000 
 1794 0010 00000000 		.quad	_ZTINSt7__cxx1119basic_ostringstreamIcSt11char_traitsIcESaIcEEE
 1794      00000000 
 1795 0018 00000000 		.quad	0
 1795      00000000 
 1796 0020 00000000 		.quad	0
 1796      00000000 
 1797 0028 70FFFFFF 		.quad	-144
 1797      FFFFFFFF 
 1798 0030 70FFFFFF 		.quad	-144
 1798      FFFFFFFF 
 1799 0038 00000000 		.quad	_ZTINSt7__cxx1119basic_ostringstreamIcSt11char_traitsIcESaIcEEE
 1799      00000000 
 1800 0040 00000000 		.quad	0
 1800      00000000 
 1801 0048 00000000 		.quad	0
 1801      00000000 
 1802              		.hidden	_ZTCN8UnitTest15MemoryOutStreamE0_So
 1803              		.weak	_ZTCN8UnitTest15MemoryOutStreamE0_So
 1804              		.section	.rodata._ZTCN8UnitTest15MemoryOutStreamE0_So,"aG",@progbits,_ZTVN8UnitTest15MemoryOutStre
 1805              		.align 8
 1808              	_ZTCN8UnitTest15MemoryOutStreamE0_So:
 1809 0000 90000000 		.quad	144
 1809      00000000 
 1810 0008 00000000 		.quad	0
 1810      00000000 
 1811 0010 00000000 		.quad	_ZTISo
 1811      00000000 
 1812 0018 00000000 		.quad	0
 1812      00000000 
 1813 0020 00000000 		.quad	0
 1813      00000000 
 1814 0028 70FFFFFF 		.quad	-144
 1814      FFFFFFFF 
 1815 0030 70FFFFFF 		.quad	-144
 1815      FFFFFFFF 
 1816 0038 00000000 		.quad	_ZTISo
 1816      00000000 
 1817 0040 00000000 		.quad	0
 1817      00000000 
 1818 0048 00000000 		.quad	0
 1818      00000000 
 1819              		.section	.rodata
 1820 0290 00000000 		.align 32
 1820      00000000 
 1820      00000000 
 1820      00000000 
 1823              	_ZTSN12_GLOBAL__N_138TestTimeConstraintMacroUsesCorrectInfoE:
 1824 02a0 2A4E3132 		.string	"*N12_GLOBAL__N_138TestTimeConstraintMacroUsesCorrectInfoE"
 1824      5F474C4F 
 1824      42414C5F 
 1824      5F4E5F31 
 1824      33385465 
 1825 02da 00000000 		.align 8
 1825      0000
 1828              	_ZTIN12_GLOBAL__N_138TestTimeConstraintMacroUsesCorrectInfoE:
 1829 02e0 00000000 		.quad	_ZTVN10__cxxabiv120__si_class_type_infoE+16
 1829      00000000 
 1830 02e8 00000000 		.quad	_ZTSN12_GLOBAL__N_138TestTimeConstraintMacroUsesCorrectInfoE
 1830      00000000 
 1831 02f0 00000000 		.quad	_ZTIN8UnitTest4TestE
 1831      00000000 
 1832 02f8 00000000 		.align 32
 1832      00000000 
 1835              	_ZTSN12_GLOBAL__N_141TestTimeConstraintMacroQualifiesNamespaceE:
 1836 0300 2A4E3132 		.string	"*N12_GLOBAL__N_141TestTimeConstraintMacroQualifiesNamespaceE"
 1836      5F474C4F 
 1836      42414C5F 
 1836      5F4E5F31 
 1836      34315465 
 1837 033d 000000   		.align 8
 1840              	_ZTIN12_GLOBAL__N_141TestTimeConstraintMacroQualifiesNamespaceE:
 1841 0340 00000000 		.quad	_ZTVN10__cxxabiv120__si_class_type_infoE+16
 1841      00000000 
 1842 0348 00000000 		.quad	_ZTSN12_GLOBAL__N_141TestTimeConstraintMacroQualifiesNamespaceE
 1842      00000000 
 1843 0350 00000000 		.quad	_ZTIN8UnitTest4TestE
 1843      00000000 
 1844              		.weak	_ZTI17RecordingReporter
 1845              		.section	.rodata._ZTI17RecordingReporter,"aG",@progbits,_ZTI17RecordingReporter,comdat
 1846              		.align 8
 1849              	_ZTI17RecordingReporter:
 1850 0000 00000000 		.quad	_ZTVN10__cxxabiv120__si_class_type_infoE+16
 1850      00000000 
 1851 0008 00000000 		.quad	_ZTS17RecordingReporter
 1851      00000000 
 1852 0010 00000000 		.quad	_ZTIN8UnitTest12TestReporterE
 1852      00000000 
 1853              		.weak	_ZTS17RecordingReporter
 1854              		.section	.rodata._ZTS17RecordingReporter,"aG",@progbits,_ZTS17RecordingReporter,comdat
 1855              		.align 16
 1858              	_ZTS17RecordingReporter:
 1859 0000 31375265 		.string	"17RecordingReporter"
 1859      636F7264 
 1859      696E6752 
 1859      65706F72 
 1859      74657200 
 1860              		.weak	_ZTIN8UnitTest15MemoryOutStreamE
 1861              		.section	.rodata._ZTIN8UnitTest15MemoryOutStreamE,"aG",@progbits,_ZTIN8UnitTest15MemoryOutStreamE,
 1862              		.align 8
 1865              	_ZTIN8UnitTest15MemoryOutStreamE:
 1866 0000 00000000 		.quad	_ZTVN10__cxxabiv120__si_class_type_infoE+16
 1866      00000000 
 1867 0008 00000000 		.quad	_ZTSN8UnitTest15MemoryOutStreamE
 1867      00000000 
 1868 0010 00000000 		.quad	_ZTINSt7__cxx1119basic_ostringstreamIcSt11char_traitsIcESaIcEEE
 1868      00000000 
 1869              		.weak	_ZTSN8UnitTest15MemoryOutStreamE
 1870              		.section	.rodata._ZTSN8UnitTest15MemoryOutStreamE,"aG",@progbits,_ZTSN8UnitTest15MemoryOutStreamE,
 1871              		.align 16
 1874              	_ZTSN8UnitTest15MemoryOutStreamE:
 1875 0000 4E38556E 		.string	"N8UnitTest15MemoryOutStreamE"
 1875      69745465 
 1875      73743135 
 1875      4D656D6F 
 1875      72794F75 
 1876              		.text
 1878              	_Z41__static_initialization_and_destruction_0ii:
 1879              	.LFB1193:
  34:TestTimeConstraintMacro.cpp **** 
  35:TestTimeConstraintMacro.cpp **** }
 1880              		.loc 6 35 0
 1881              		.cfi_startproc
 1882 05fe 55       		pushq	%rbp
 1883              		.cfi_def_cfa_offset 16
 1884              		.cfi_offset 6, -16
 1885 05ff 4889E5   		movq	%rsp, %rbp
 1886              		.cfi_def_cfa_register 6
 1887 0602 4883EC10 		subq	$16, %rsp
 1888 0606 897DFC   		movl	%edi, -4(%rbp)
 1889 0609 8975F8   		movl	%esi, -8(%rbp)
 1890              		.loc 6 35 0
 1891 060c 837DFC01 		cmpl	$1, -4(%rbp)
 1892 0610 7573     		jne	.L83
 1893              		.loc 6 35 0 is_stmt 0 discriminator 1
 1894 0612 817DF8FF 		cmpl	$65535, -8(%rbp)
 1894      FF0000
 1895 0619 756A     		jne	.L83
   9:TestTimeConstraintMacro.cpp **** {
 1896              		.loc 6 9 0 is_stmt 1
 1897 061b BF000000 		movl	$_ZN12_GLOBAL__N_149testTimeConstraintMacroQualifiesNamespaceInstanceE, %edi
 1897      00
 1898 0620 E8DBF9FF 		call	_ZN12_GLOBAL__N_141TestTimeConstraintMacroQualifiesNamespaceC1Ev
 1898      FF
 1899 0625 BA000000 		movl	$__dso_handle, %edx
 1899      00
 1900 062a BE000000 		movl	$_ZN12_GLOBAL__N_149testTimeConstraintMacroQualifiesNamespaceInstanceE, %esi
 1900      00
 1901 062f BF000000 		movl	$_ZN12_GLOBAL__N_141TestTimeConstraintMacroQualifiesNamespaceD1Ev, %edi
 1901      00
 1902 0634 E8000000 		call	__cxa_atexit
 1902      00
 1903 0639 E8000000 		call	_ZN8UnitTest4Test11GetTestListEv
 1903      00
 1904 063e BA000000 		movl	$_ZN12_GLOBAL__N_149testTimeConstraintMacroQualifiesNamespaceInstanceE, %edx
 1904      00
 1905 0643 4889C6   		movq	%rax, %rsi
 1906 0646 BF000000 		movl	$_ZN12_GLOBAL__N_142adderTimeConstraintMacroQualifiesNamespaceE, %edi
 1906      00
 1907 064b E8000000 		call	_ZN8UnitTest9ListAdderC1ERNS_8TestListEPNS_4TestE
 1907      00
  15:TestTimeConstraintMacro.cpp **** {
 1908              		.loc 6 15 0
 1909 0650 BF000000 		movl	$_ZN12_GLOBAL__N_146testTimeConstraintMacroUsesCorrectInfoInstanceE, %edi
 1909      00
 1910 0655 E856FAFF 		call	_ZN12_GLOBAL__N_138TestTimeConstraintMacroUsesCorrectInfoC1Ev
 1910      FF
 1911 065a BA000000 		movl	$__dso_handle, %edx
 1911      00
 1912 065f BE000000 		movl	$_ZN12_GLOBAL__N_146testTimeConstraintMacroUsesCorrectInfoInstanceE, %esi
 1912      00
 1913 0664 BF000000 		movl	$_ZN12_GLOBAL__N_138TestTimeConstraintMacroUsesCorrectInfoD1Ev, %edi
 1913      00
 1914 0669 E8000000 		call	__cxa_atexit
 1914      00
 1915 066e E8000000 		call	_ZN8UnitTest4Test11GetTestListEv
 1915      00
 1916 0673 BA000000 		movl	$_ZN12_GLOBAL__N_146testTimeConstraintMacroUsesCorrectInfoInstanceE, %edx
 1916      00
 1917 0678 4889C6   		movq	%rax, %rsi
 1918 067b BF000000 		movl	$_ZN12_GLOBAL__N_139adderTimeConstraintMacroUsesCorrectInfoE, %edi
 1918      00
 1919 0680 E8000000 		call	_ZN8UnitTest9ListAdderC1ERNS_8TestListEPNS_4TestE
 1919      00
 1920              	.L83:
 1921              		.loc 6 35 0
 1922 0685 90       		nop
 1923 0686 C9       		leave
 1924              		.cfi_def_cfa 7, 8
 1925 0687 C3       		ret
 1926              		.cfi_endproc
 1927              	.LFE1193:
 1930              	_GLOBAL__sub_I_TestTimeConstraintMacro.cpp:
 1931              	.LFB1194:
 1932              		.loc 6 35 0
 1933              		.cfi_startproc
 1934 0688 55       		pushq	%rbp
 1935              		.cfi_def_cfa_offset 16
 1936              		.cfi_offset 6, -16
 1937 0689 4889E5   		movq	%rsp, %rbp
 1938              		.cfi_def_cfa_register 6
 1939              		.loc 6 35 0
 1940 068c BEFFFF00 		movl	$65535, %esi
 1940      00
 1941 0691 BF010000 		movl	$1, %edi
 1941      00
 1942 0696 E863FFFF 		call	_Z41__static_initialization_and_destruction_0ii
 1942      FF
 1943 069b 5D       		popq	%rbp
 1944              		.cfi_def_cfa 7, 8
 1945 069c C3       		ret
 1946              		.cfi_endproc
 1947              	.LFE1194:
 1949              		.section	.init_array,"aw"
 1950              		.align 8
 1951 0000 00000000 		.quad	_GLOBAL__sub_I_TestTimeConstraintMacro.cpp
 1951      00000000 
 1952              		.text
 1953              	.Letext0:
 1954              		.file 8 "../TestDetails.h"
 1955              		.file 9 "../TestList.h"
 1956              		.file 10 "../TestResults.h"
 1957              		.file 11 "../PosixUtils/TimeHelpers.h"
 1958              		.file 12 "../TimeConstraint.h"
 1959              		.file 13 "/usr/include/x86_64-linux-gnu/c++/5/bits/c++config.h"
 1960              		.file 14 "/usr/include/c++/5/bits/basic_string.h"
 1961              		.file 15 "/usr/include/c++/5/bits/basic_string.tcc"
 1962              		.file 16 "/usr/include/c++/5/bits/stringfwd.h"
 1963              		.file 17 "/usr/include/c++/5/cwchar"
 1964              		.file 18 "/usr/include/c++/5/bits/char_traits.h"
 1965              		.file 19 "/usr/include/c++/5/clocale"
 1966              		.file 20 "/usr/include/c++/5/bits/allocator.h"
 1967              		.file 21 "/usr/include/c++/5/cwctype"
 1968              		.file 22 "/usr/include/c++/5/cstring"
 1969              		.file 23 "/usr/include/c++/5/debug/debug.h"
 1970              		.file 24 "/usr/include/c++/5/bits/predefined_ops.h"
 1971              		.file 25 "/usr/include/c++/5/ext/new_allocator.h"
 1972              		.file 26 "/usr/include/c++/5/ext/numeric_traits.h"
 1973              		.file 27 "/usr/include/c++/5/ext/alloc_traits.h"
 1974              		.file 28 "/usr/include/stdio.h"
 1975              		.file 29 "<built-in>"
 1976              		.file 30 "/usr/lib/gcc/x86_64-linux-gnu/5/include/stddef.h"
 1977              		.file 31 "/usr/include/wchar.h"
 1978              		.file 32 "/usr/include/time.h"
 1979              		.file 33 "/usr/include/locale.h"
 1980              		.file 34 "/usr/include/x86_64-linux-gnu/bits/types.h"
 1981              		.file 35 "/usr/include/x86_64-linux-gnu/bits/time.h"
 1982              		.file 36 "/usr/include/wctype.h"
 1983              		.file 37 "/usr/include/x86_64-linux-gnu/sys/time.h"
 1984              		.file 38 "/usr/include/string.h"
DEFINED SYMBOLS
                            *ABS*:0000000000000000 TestTimeConstraintMacro.cpp
     /tmp/ccR71PbA.s:10     .text._ZN13UnitTestSuite12GetSuiteNameEv:0000000000000000 _ZN13UnitTestSuite12GetSuiteNameEv
     /tmp/ccR71PbA.s:33     .text._ZN8UnitTest15MemoryOutStreamC1Ev:0000000000000000 _ZN8UnitTest15MemoryOutStreamC1Ev
     /tmp/ccR71PbA.s:1778   .rodata._ZTTN8UnitTest15MemoryOutStreamE:0000000000000000 _ZTTN8UnitTest15MemoryOutStreamE
     /tmp/ccR71PbA.s:1762   .rodata._ZTVN8UnitTest15MemoryOutStreamE:0000000000000000 _ZTVN8UnitTest15MemoryOutStreamE
     /tmp/ccR71PbA.s:146    .text._ZN8UnitTest12TestReporterC2Ev:0000000000000000 _ZN8UnitTest12TestReporterC2Ev
     /tmp/ccR71PbA.s:146    .text._ZN8UnitTest12TestReporterC2Ev:0000000000000000 _ZN8UnitTest12TestReporterC1Ev
     /tmp/ccR71PbA.s:176    .text._ZN17RecordingReporterC2Ev:0000000000000000 _ZN17RecordingReporterC2Ev
     /tmp/ccR71PbA.s:1679   .rodata._ZTV17RecordingReporter:0000000000000000 _ZTV17RecordingReporter
     /tmp/ccR71PbA.s:176    .text._ZN17RecordingReporterC2Ev:0000000000000000 _ZN17RecordingReporterC1Ev
     /tmp/ccR71PbA.s:255    .text._ZN17RecordingReporter15ReportTestStartERKN8UnitTest11TestDetailsE:0000000000000000 _ZN17RecordingReporter15ReportTestStartERKN8UnitTest11TestDetailsE
     /tmp/ccR71PbA.s:301    .text._ZN17RecordingReporter13ReportFailureERKN8UnitTest11TestDetailsEPKc:0000000000000000 _ZN17RecordingReporter13ReportFailureERKN8UnitTest11TestDetailsEPKc
     /tmp/ccR71PbA.s:368    .text._ZN17RecordingReporter16ReportTestFinishERKN8UnitTest11TestDetailsEf:0000000000000000 _ZN17RecordingReporter16ReportTestFinishERKN8UnitTest11TestDetailsEf
     /tmp/ccR71PbA.s:419    .text._ZN17RecordingReporter13ReportSummaryEiiif:0000000000000000 _ZN17RecordingReporter13ReportSummaryEiiif
     /tmp/ccR71PbA.s:461    .text._ZN17ScopedCurrentTestC2ERN8UnitTest11TestResultsEPKNS0_11TestDetailsE:0000000000000000 _ZN17ScopedCurrentTestC2ERN8UnitTest11TestResultsEPKNS0_11TestDetailsE
     /tmp/ccR71PbA.s:461    .text._ZN17ScopedCurrentTestC2ERN8UnitTest11TestResultsEPKNS0_11TestDetailsE:0000000000000000 _ZN17ScopedCurrentTestC1ERN8UnitTest11TestResultsEPKNS0_11TestDetailsE
     /tmp/ccR71PbA.s:515    .text._ZN17ScopedCurrentTestD2Ev:0000000000000000 _ZN17ScopedCurrentTestD2Ev
     /tmp/ccR71PbA.s:515    .text._ZN17ScopedCurrentTestD2Ev:0000000000000000 _ZN17ScopedCurrentTestD1Ev
     /tmp/ccR71PbA.s:559    .text:0000000000000000 _ZN12_GLOBAL__N_141TestTimeConstraintMacroQualifiesNamespaceC2Ev
     /tmp/ccR71PbA.s:1603   .rodata:0000000000000268 _ZTVN12_GLOBAL__N_141TestTimeConstraintMacroQualifiesNamespaceE
     /tmp/ccR71PbA.s:559    .text:0000000000000000 _ZN12_GLOBAL__N_141TestTimeConstraintMacroQualifiesNamespaceC1Ev
     /tmp/ccR71PbA.s:594    .bss:0000000000000000 _ZN12_GLOBAL__N_149testTimeConstraintMacroQualifiesNamespaceInstanceE
     /tmp/ccR71PbA.s:594    .bss:0000000000000038 _ZN12_GLOBAL__N_142adderTimeConstraintMacroQualifiesNamespaceE
     /tmp/ccR71PbA.s:599    .text:0000000000000040 _ZNK12_GLOBAL__N_141TestTimeConstraintMacroQualifiesNamespace7RunImplEv
     /tmp/ccR71PbA.s:650    .text:00000000000000b0 _ZN12_GLOBAL__N_138TestTimeConstraintMacroUsesCorrectInfoC2Ev
     /tmp/ccR71PbA.s:1528   .rodata:0000000000000240 _ZTVN12_GLOBAL__N_138TestTimeConstraintMacroUsesCorrectInfoE
     /tmp/ccR71PbA.s:650    .text:00000000000000b0 _ZN12_GLOBAL__N_138TestTimeConstraintMacroUsesCorrectInfoC1Ev
     /tmp/ccR71PbA.s:684    .bss:0000000000000040 _ZN12_GLOBAL__N_146testTimeConstraintMacroUsesCorrectInfoInstanceE
     /tmp/ccR71PbA.s:684    .bss:0000000000000078 _ZN12_GLOBAL__N_139adderTimeConstraintMacroUsesCorrectInfoE
     /tmp/ccR71PbA.s:709    .text:00000000000000f0 _ZNK12_GLOBAL__N_138TestTimeConstraintMacroUsesCorrectInfo7RunImplEv
     /tmp/ccR71PbA.s:1362   .text._ZN8UnitTest10CheckEqualIiiEEvRNS_11TestResultsERKT_RKT0_RKNS_11TestDetailsE:0000000000000000 _ZN8UnitTest10CheckEqualIiiEEvRNS_11TestResultsERKT_RKT0_RKNS_11TestDetailsE
     /tmp/ccR71PbA.s:1504   .text._ZN8UnitTest5CheckIPcEEbT_:0000000000000000 _ZN8UnitTest5CheckIPcEEbT_
     /tmp/ccR71PbA.s:1692   .text._ZN17RecordingReporterD2Ev:0000000000000000 _ZN17RecordingReporterD1Ev
     /tmp/ccR71PbA.s:1175   .text._ZN8UnitTest15MemoryOutStreamD1Ev:0000000000000000 _ZN8UnitTest15MemoryOutStreamD1Ev
     /tmp/ccR71PbA.s:1303   .text._ZN8UnitTest15MemoryOutStreamD1Ev:00000000000000cc _ZTv0_n24_N8UnitTest15MemoryOutStreamD1Ev
     /tmp/ccR71PbA.s:1317   .text._ZN8UnitTest15MemoryOutStreamD0Ev:0000000000000000 _ZN8UnitTest15MemoryOutStreamD0Ev
     /tmp/ccR71PbA.s:1344   .text._ZN8UnitTest15MemoryOutStreamD0Ev:0000000000000026 _ZTv0_n24_N8UnitTest15MemoryOutStreamD0Ev
     /tmp/ccR71PbA.s:1828   .rodata:00000000000002e0 _ZTIN12_GLOBAL__N_138TestTimeConstraintMacroUsesCorrectInfoE
     /tmp/ccR71PbA.s:1537   .text:000000000000053a _ZN12_GLOBAL__N_138TestTimeConstraintMacroUsesCorrectInfoD1Ev
     /tmp/ccR71PbA.s:1575   .text:0000000000000576 _ZN12_GLOBAL__N_138TestTimeConstraintMacroUsesCorrectInfoD0Ev
     /tmp/ccR71PbA.s:1537   .text:000000000000053a _ZN12_GLOBAL__N_138TestTimeConstraintMacroUsesCorrectInfoD2Ev
     /tmp/ccR71PbA.s:1840   .rodata:0000000000000340 _ZTIN12_GLOBAL__N_141TestTimeConstraintMacroQualifiesNamespaceE
     /tmp/ccR71PbA.s:1612   .text:000000000000059c _ZN12_GLOBAL__N_141TestTimeConstraintMacroQualifiesNamespaceD1Ev
     /tmp/ccR71PbA.s:1650   .text:00000000000005d8 _ZN12_GLOBAL__N_141TestTimeConstraintMacroQualifiesNamespaceD0Ev
     /tmp/ccR71PbA.s:1612   .text:000000000000059c _ZN12_GLOBAL__N_141TestTimeConstraintMacroQualifiesNamespaceD2Ev
     /tmp/ccR71PbA.s:1849   .rodata._ZTI17RecordingReporter:0000000000000000 _ZTI17RecordingReporter
     /tmp/ccR71PbA.s:1733   .text._ZN17RecordingReporterD0Ev:0000000000000000 _ZN17RecordingReporterD0Ev
     /tmp/ccR71PbA.s:1692   .text._ZN17RecordingReporterD2Ev:0000000000000000 _ZN17RecordingReporterD2Ev
     /tmp/ccR71PbA.s:1865   .rodata._ZTIN8UnitTest15MemoryOutStreamE:0000000000000000 _ZTIN8UnitTest15MemoryOutStreamE
     /tmp/ccR71PbA.s:1791   .rodata._ZTCN8UnitTest15MemoryOutStreamE0_NSt7__cxx1119basic_ostringstreamIcSt11char_traitsIcESaIcEEE:0000000000000000 _ZTCN8UnitTest15MemoryOutStreamE0_NSt7__cxx1119basic_ostringstreamIcSt11char_traitsIcESaIcEEE
     /tmp/ccR71PbA.s:1808   .rodata._ZTCN8UnitTest15MemoryOutStreamE0_So:0000000000000000 _ZTCN8UnitTest15MemoryOutStreamE0_So
     /tmp/ccR71PbA.s:1823   .rodata:00000000000002a0 _ZTSN12_GLOBAL__N_138TestTimeConstraintMacroUsesCorrectInfoE
     /tmp/ccR71PbA.s:1835   .rodata:0000000000000300 _ZTSN12_GLOBAL__N_141TestTimeConstraintMacroQualifiesNamespaceE
     /tmp/ccR71PbA.s:1858   .rodata._ZTS17RecordingReporter:0000000000000000 _ZTS17RecordingReporter
     /tmp/ccR71PbA.s:1874   .rodata._ZTSN8UnitTest15MemoryOutStreamE:0000000000000000 _ZTSN8UnitTest15MemoryOutStreamE
     /tmp/ccR71PbA.s:1878   .text:00000000000005fe _Z41__static_initialization_and_destruction_0ii
     /tmp/ccR71PbA.s:1930   .text:0000000000000688 _GLOBAL__sub_I_TestTimeConstraintMacro.cpp
                           .group:0000000000000000 _ZN8UnitTest12TestReporterC5Ev
                           .group:0000000000000000 _ZN17RecordingReporterC5Ev
                           .group:0000000000000000 _ZN17ScopedCurrentTestC5ERN8UnitTest11TestResultsEPKNS0_11TestDetailsE
                           .group:0000000000000000 _ZN17ScopedCurrentTestD5Ev
                           .group:0000000000000000 _ZN17RecordingReporterD5Ev

UNDEFINED SYMBOLS
__gxx_personality_v0
_ZNSt9basic_iosIcSt11char_traitsIcEEC2Ev
_ZNSt7__cxx1119basic_ostringstreamIcSt11char_traitsIcESaIcEEC2ESt13_Ios_Openmode
_ZNSt7__cxx1112basic_stringIcSt11char_traitsIcESaIcEEC1Ev
_ZNSt7__cxx1119basic_ostringstreamIcSt11char_traitsIcESaIcEED2Ev
_ZNSt9basic_iosIcSt11char_traitsIcEED2Ev
_Unwind_Resume
_ZTVN8UnitTest12TestReporterE
strcpy
_ZN8UnitTest11CurrentTest7ResultsEv
_ZN8UnitTest11CurrentTest7DetailsEv
_ZN8UnitTest4TestC2EPKcS2_S2_i
_ZN8UnitTest11TestDetailsC1ERKS0_i
_ZN8UnitTest14TimeConstraintC1EiRKNS_11TestDetailsE
_ZN8UnitTest14TimeConstraintD1Ev
__stack_chk_fail
_ZN8UnitTest11TestResultsC1EPNS_12TestReporterE
_ZN8UnitTest11TimeHelpers7SleepMsEi
strstr
_ZN8UnitTest11TestResults13OnTestFailureERKNS_11TestDetailsEPKc
__cxa_begin_catch
__cxa_end_catch
_ZNSt7__cxx1112basic_stringIcSt11char_traitsIcESaIcEED1Ev
_ZdlPv
_ZStlsISt11char_traitsIcEERSt13basic_ostreamIcT_ES5_PKc
_ZNSolsEi
_ZNK8UnitTest15MemoryOutStream7GetTextEv
_ZN8UnitTest4TestD2Ev
_ZN8UnitTest12TestReporterD2Ev
_ZTINSt7__cxx1119basic_ostringstreamIcSt11char_traitsIcESaIcEEE
_ZTISo
_ZTVN10__cxxabiv120__si_class_type_infoE
_ZTIN8UnitTest4TestE
_ZTIN8UnitTest12TestReporterE
__dso_handle
__cxa_atexit
_ZN8UnitTest4Test11GetTestListEv
_ZN8UnitTest9ListAdderC1ERNS_8TestListEPNS_4TestE
