   1              		.file	"TestMemoryOutStream.cpp"
   2              		.text
   3              	.Ltext0:
   4              		.section	.rodata
   5              	.LC0:
   6 0000 44656661 		.string	"DefaultSuite"
   6      756C7453 
   6      75697465 
   6      00
   7              		.section	.text._ZN13UnitTestSuite12GetSuiteNameEv,"axG",@progbits,_ZN13UnitTestSuite12GetSuiteName
   8              		.weak	_ZN13UnitTestSuite12GetSuiteNameEv
  10              	_ZN13UnitTestSuite12GetSuiteNameEv:
  11              	.LFB0:
  12              		.file 1 "../TestSuite.h"
   1:../TestSuite.h **** #ifndef UNITTEST_TESTSUITE_H
   2:../TestSuite.h **** #define UNITTEST_TESTSUITE_H
   3:../TestSuite.h **** 
   4:../TestSuite.h **** namespace UnitTestSuite {
   5:../TestSuite.h **** 
   6:../TestSuite.h ****     inline char const* GetSuiteName ()
   7:../TestSuite.h ****     {
  13              		.loc 1 7 0
  14              		.cfi_startproc
  15 0000 55       		pushq	%rbp
  16              		.cfi_def_cfa_offset 16
  17              		.cfi_offset 6, -16
  18 0001 4889E5   		movq	%rsp, %rbp
  19              		.cfi_def_cfa_register 6
   8:../TestSuite.h ****         return "DefaultSuite";
  20              		.loc 1 8 0
  21 0004 B8000000 		movl	$.LC0, %eax
  21      00
   9:../TestSuite.h ****     }
  22              		.loc 1 9 0
  23 0009 5D       		popq	%rbp
  24              		.cfi_def_cfa 7, 8
  25 000a C3       		ret
  26              		.cfi_endproc
  27              	.LFE0:
  29              		.section	.text._ZN8UnitTest15MemoryOutStreamC1Ev,"axG",@progbits,_ZN8UnitTest15MemoryOutStreamC1Ev
  30              		.align 2
  31              		.weak	_ZN8UnitTest15MemoryOutStreamC1Ev
  33              	_ZN8UnitTest15MemoryOutStreamC1Ev:
  34              	.LFB1057:
  35              		.file 2 "../MemoryOutStream.h"
   1:../MemoryOutStream.h **** #ifndef UNITTEST_MEMORYOUTSTREAM_H
   2:../MemoryOutStream.h **** #define UNITTEST_MEMORYOUTSTREAM_H
   3:../MemoryOutStream.h **** 
   4:../MemoryOutStream.h **** #include "Config.h"
   5:../MemoryOutStream.h **** 
   6:../MemoryOutStream.h **** #ifndef UNITTEST_USE_CUSTOM_STREAMS
   7:../MemoryOutStream.h **** 
   8:../MemoryOutStream.h **** #include <sstream>
   9:../MemoryOutStream.h **** 
  10:../MemoryOutStream.h **** namespace UnitTest
  11:../MemoryOutStream.h **** {
  12:../MemoryOutStream.h **** 
  13:../MemoryOutStream.h **** class MemoryOutStream : public std::ostringstream
  14:../MemoryOutStream.h **** {
  15:../MemoryOutStream.h **** public:
  16:../MemoryOutStream.h ****     MemoryOutStream() {}
  36              		.loc 2 16 0
  37              		.cfi_startproc
  38              		.cfi_personality 0x3,__gxx_personality_v0
  39              		.cfi_lsda 0x3,.LLSDA1057
  40 0000 55       		pushq	%rbp
  41              		.cfi_def_cfa_offset 16
  42              		.cfi_offset 6, -16
  43 0001 4889E5   		movq	%rsp, %rbp
  44              		.cfi_def_cfa_register 6
  45 0004 53       		pushq	%rbx
  46 0005 4883EC18 		subq	$24, %rsp
  47              		.cfi_offset 3, -24
  48 0009 48897DE8 		movq	%rdi, -24(%rbp)
  49              	.LBB2:
  50              		.loc 2 16 0
  51 000d 488B45E8 		movq	-24(%rbp), %rax
  52 0011 48059000 		addq	$144, %rax
  52      0000
  53 0017 4889C7   		movq	%rax, %rdi
  54              	.LEHB0:
  55 001a E8000000 		call	_ZNSt9basic_iosIcSt11char_traitsIcEEC2Ev
  55      00
  56              	.LEHE0:
  57 001f B9000000 		movl	$_ZTTN8UnitTest15MemoryOutStreamE+8, %ecx
  57      00
  58 0024 488B45E8 		movq	-24(%rbp), %rax
  59 0028 BA100000 		movl	$16, %edx
  59      00
  60 002d 4889CE   		movq	%rcx, %rsi
  61 0030 4889C7   		movq	%rax, %rdi
  62              	.LEHB1:
  63 0033 E8000000 		call	_ZNSt7__cxx1119basic_ostringstreamIcSt11char_traitsIcESaIcEEC2ESt13_Ios_Openmode
  63      00
  64              	.LEHE1:
  65              		.loc 2 16 0 is_stmt 0 discriminator 9
  66 0038 BA000000 		movl	$_ZTVN8UnitTest15MemoryOutStreamE+24, %edx
  66      00
  67 003d 488B45E8 		movq	-24(%rbp), %rax
  68 0041 488910   		movq	%rdx, (%rax)
  69 0044 BA900000 		movl	$144, %edx
  69      00
  70 0049 488B45E8 		movq	-24(%rbp), %rax
  71 004d 4801D0   		addq	%rdx, %rax
  72 0050 BA000000 		movl	$_ZTVN8UnitTest15MemoryOutStreamE+64, %edx
  72      00
  73 0055 488910   		movq	%rdx, (%rax)
  74 0058 488B45E8 		movq	-24(%rbp), %rax
  75 005c 4883C070 		addq	$112, %rax
  76 0060 4889C7   		movq	%rax, %rdi
  77              	.LEHB2:
  78 0063 E8000000 		call	_ZNSt7__cxx1112basic_stringIcSt11char_traitsIcESaIcEEC1Ev
  78      00
  79              	.LEHE2:
  80              	.LBE2:
  81              		.loc 2 16 0
  82 0068 EB39     		jmp	.L9
  83              	.L7:
  84 006a 4889C3   		movq	%rax, %rbx
  85              	.LBB3:
  86 006d BA000000 		movl	$_ZTTN8UnitTest15MemoryOutStreamE+8, %edx
  86      00
  87 0072 488B45E8 		movq	-24(%rbp), %rax
  88 0076 4889D6   		movq	%rdx, %rsi
  89 0079 4889C7   		movq	%rax, %rdi
  90 007c E8000000 		call	_ZNSt7__cxx1119basic_ostringstreamIcSt11char_traitsIcESaIcEED2Ev
  90      00
  91 0081 EB03     		jmp	.L8
  92              	.L6:
  93 0083 4889C3   		movq	%rax, %rbx
  94              	.L8:
  95              		.loc 2 16 0 discriminator 28
  96 0086 488B45E8 		movq	-24(%rbp), %rax
  97 008a 48059000 		addq	$144, %rax
  97      0000
  98 0090 4889C7   		movq	%rax, %rdi
  99 0093 E8000000 		call	_ZNSt9basic_iosIcSt11char_traitsIcEED2Ev
  99      00
 100 0098 4889D8   		movq	%rbx, %rax
 101 009b 4889C7   		movq	%rax, %rdi
 102              	.LEHB3:
 103 009e E8000000 		call	_Unwind_Resume
 103      00
 104              	.LEHE3:
 105              	.L9:
 106              	.LBE3:
 107              		.loc 2 16 0
 108 00a3 4883C418 		addq	$24, %rsp
 109 00a7 5B       		popq	%rbx
 110 00a8 5D       		popq	%rbp
 111              		.cfi_def_cfa 7, 8
 112 00a9 C3       		ret
 113              		.cfi_endproc
 114              	.LFE1057:
 115              		.globl	__gxx_personality_v0
 116              		.section	.gcc_except_table._ZN8UnitTest15MemoryOutStreamC1Ev,"aG",@progbits,_ZN8UnitTest15MemoryOu
 117              	.LLSDA1057:
 118 0000 FF       		.byte	0xff
 119 0001 FF       		.byte	0xff
 120 0002 01       		.byte	0x1
 121 0003 12       		.uleb128 .LLSDACSE1057-.LLSDACSB1057
 122              	.LLSDACSB1057:
 123 0004 1A       		.uleb128 .LEHB0-.LFB1057
 124 0005 05       		.uleb128 .LEHE0-.LEHB0
 125 0006 00       		.uleb128 0
 126 0007 00       		.uleb128 0
 127 0008 33       		.uleb128 .LEHB1-.LFB1057
 128 0009 05       		.uleb128 .LEHE1-.LEHB1
 129 000a 8301     		.uleb128 .L6-.LFB1057
 130 000c 00       		.uleb128 0
 131 000d 63       		.uleb128 .LEHB2-.LFB1057
 132 000e 05       		.uleb128 .LEHE2-.LEHB2
 133 000f 6A       		.uleb128 .L7-.LFB1057
 134 0010 00       		.uleb128 0
 135 0011 9E01     		.uleb128 .LEHB3-.LFB1057
 136 0013 05       		.uleb128 .LEHE3-.LEHB3
 137 0014 00       		.uleb128 0
 138 0015 00       		.uleb128 0
 139              	.LLSDACSE1057:
 140              		.section	.text._ZN8UnitTest15MemoryOutStreamC1Ev,"axG",@progbits,_ZN8UnitTest15MemoryOutStreamC1Ev
 142              		.section	.rodata
 143              	.LC1:
 144 000d 54657374 		.string	"TestMemoryOutStream.cpp"
 144      4D656D6F 
 144      72794F75 
 144      74537472 
 144      65616D2E 
 145              	.LC2:
 146 0025 44656661 		.string	"DefaultIsEmptyString"
 146      756C7449 
 146      73456D70 
 146      74795374 
 146      72696E67 
 147              		.text
 148              		.align 2
 150              	_ZN12_GLOBAL__N_124TestDefaultIsEmptyStringC2Ev:
 151              	.LFB1070:
 152              		.file 3 "TestMemoryOutStream.cpp"
   1:TestMemoryOutStream.cpp **** #include "../UnitTest++.h"
   2:TestMemoryOutStream.cpp **** 
   3:TestMemoryOutStream.cpp **** #include "../MemoryOutStream.h"
   4:TestMemoryOutStream.cpp **** #include <cstring>
   5:TestMemoryOutStream.cpp **** 
   6:TestMemoryOutStream.cpp **** using namespace UnitTest;
   7:TestMemoryOutStream.cpp **** using namespace std;
   8:TestMemoryOutStream.cpp **** 
   9:TestMemoryOutStream.cpp **** namespace {
  10:TestMemoryOutStream.cpp **** 
  11:TestMemoryOutStream.cpp **** TEST(DefaultIsEmptyString)
 153              		.loc 3 11 0 is_stmt 1
 154              		.cfi_startproc
 155 0000 55       		pushq	%rbp
 156              		.cfi_def_cfa_offset 16
 157              		.cfi_offset 6, -16
 158 0001 4889E5   		movq	%rsp, %rbp
 159              		.cfi_def_cfa_register 6
 160 0004 4883EC10 		subq	$16, %rsp
 161 0008 48897DF8 		movq	%rdi, -8(%rbp)
 162              	.LBB4:
 163              		.loc 3 11 0
 164 000c E8000000 		call	_ZN13UnitTestSuite12GetSuiteNameEv
 164      00
 165 0011 4889C2   		movq	%rax, %rdx
 166 0014 488B45F8 		movq	-8(%rbp), %rax
 167 0018 41B80B00 		movl	$11, %r8d
 167      0000
 168 001e B9000000 		movl	$.LC1, %ecx
 168      00
 169 0023 BE000000 		movl	$.LC2, %esi
 169      00
 170 0028 4889C7   		movq	%rax, %rdi
 171 002b E8000000 		call	_ZN8UnitTest4TestC2EPKcS2_S2_i
 171      00
 172 0030 BA000000 		movl	$_ZTVN12_GLOBAL__N_124TestDefaultIsEmptyStringE+16, %edx
 172      00
 173 0035 488B45F8 		movq	-8(%rbp), %rax
 174 0039 488910   		movq	%rdx, (%rax)
 175              	.LBE4:
 176 003c 90       		nop
 177 003d C9       		leave
 178              		.cfi_def_cfa 7, 8
 179 003e C3       		ret
 180              		.cfi_endproc
 181              	.LFE1070:
 183              		.set	_ZN12_GLOBAL__N_124TestDefaultIsEmptyStringC1Ev,_ZN12_GLOBAL__N_124TestDefaultIsEmptyStringC2
 184              		.local	_ZN12_GLOBAL__N_132testDefaultIsEmptyStringInstanceE
 185              		.comm	_ZN12_GLOBAL__N_132testDefaultIsEmptyStringInstanceE,56,32
 186              		.local	_ZN12_GLOBAL__N_125adderDefaultIsEmptyStringE
 187              		.comm	_ZN12_GLOBAL__N_125adderDefaultIsEmptyStringE,1,1
 188              		.section	.rodata
 189              	.LC3:
 190 003a 73747265 		.string	"stream.GetText() != 0"
 190      616D2E47 
 190      65745465 
 190      78742829 
 190      20213D20 
 191              	.LC4:
 192 0050 00       		.string	""
 193 0051 00000000 		.align 8
 193      000000
 194              	.LC5:
 195 0058 556E6861 		.string	"Unhandled exception in CHECK(stream.GetText() != 0)"
 195      6E646C65 
 195      64206578 
 195      63657074 
 195      696F6E20 
 196 008c 00000000 		.align 8
 197              	.LC6:
 198 0090 556E6861 		.string	"Unhandled exception in CHECK_EQUAL(\"\", stream.GetText())"
 198      6E646C65 
 198      64206578 
 198      63657074 
 198      696F6E20 
 199              		.text
 200 003f 90       		.align 2
 202              	_ZNK12_GLOBAL__N_124TestDefaultIsEmptyString7RunImplEv:
 203              	.LFB1072:
  12:TestMemoryOutStream.cpp **** {
 204              		.loc 3 12 0
 205              		.cfi_startproc
 206              		.cfi_personality 0x3,__gxx_personality_v0
 207              		.cfi_lsda 0x3,.LLSDA1072
 208 0040 55       		pushq	%rbp
 209              		.cfi_def_cfa_offset 16
 210              		.cfi_offset 6, -16
 211 0041 4889E5   		movq	%rsp, %rbp
 212              		.cfi_def_cfa_register 6
 213 0044 53       		pushq	%rbx
 214 0045 4881ECD8 		subq	$472, %rsp
 214      010000
 215              		.cfi_offset 3, -24
 216 004c 4889BD28 		movq	%rdi, -472(%rbp)
 216      FEFFFF
 217              		.loc 3 12 0
 218 0053 64488B04 		movq	%fs:40, %rax
 218      25280000 
 218      00
 219 005c 488945E8 		movq	%rax, -24(%rbp)
 220 0060 31C0     		xorl	%eax, %eax
  13:TestMemoryOutStream.cpp ****     MemoryOutStream const stream;
 221              		.loc 3 13 0
 222 0062 488D8550 		leaq	-432(%rbp), %rax
 222      FEFFFF
 223 0069 4889C7   		movq	%rax, %rdi
 224              	.LEHB4:
 225 006c E8000000 		call	_ZN8UnitTest15MemoryOutStreamC1Ev
 225      00
 226              	.LEHE4:
  14:TestMemoryOutStream.cpp ****     CHECK(stream.GetText() != 0);
 227              		.loc 3 14 0
 228 0071 488D8550 		leaq	-432(%rbp), %rax
 228      FEFFFF
 229 0078 4889C7   		movq	%rax, %rdi
 230              	.LEHB5:
 231 007b E8000000 		call	_ZNK8UnitTest15MemoryOutStream7GetTextEv
 231      00
 232 0080 4885C0   		testq	%rax, %rax
 233 0083 0F95C0   		setne	%al
 234 0086 0FB6C0   		movzbl	%al, %eax
 235 0089 89C7     		movl	%eax, %edi
 236 008b E8000000 		call	_ZN8UnitTest5CheckIbEEbT_
 236      00
 237 0090 83F001   		xorl	$1, %eax
 238 0093 84C0     		testb	%al, %al
 239 0095 743E     		je	.L12
 240              		.loc 3 14 0 is_stmt 0 discriminator 2
 241 0097 E8000000 		call	_ZN8UnitTest11CurrentTest7DetailsEv
 241      00
 242 009c 488B08   		movq	(%rax), %rcx
 243 009f 488D8530 		leaq	-464(%rbp), %rax
 243      FEFFFF
 244 00a6 BA0E0000 		movl	$14, %edx
 244      00
 245 00ab 4889CE   		movq	%rcx, %rsi
 246 00ae 4889C7   		movq	%rax, %rdi
 247 00b1 E8000000 		call	_ZN8UnitTest11TestDetailsC1ERKS0_i
 247      00
 248              		.loc 3 14 0 discriminator 4
 249 00b6 E8000000 		call	_ZN8UnitTest11CurrentTest7ResultsEv
 249      00
 250 00bb 488B00   		movq	(%rax), %rax
 251 00be 488D8D30 		leaq	-464(%rbp), %rcx
 251      FEFFFF
 252 00c5 BA000000 		movl	$.LC3, %edx
 252      00
 253 00ca 4889CE   		movq	%rcx, %rsi
 254 00cd 4889C7   		movq	%rax, %rdi
 255 00d0 E8000000 		call	_ZN8UnitTest11TestResults13OnTestFailureERKNS_11TestDetailsEPKc
 255      00
 256              	.LEHE5:
 257              	.L12:
 258              	.LEHB6:
  15:TestMemoryOutStream.cpp ****     CHECK_EQUAL("", stream.GetText());
 259              		.loc 3 15 0 is_stmt 1
 260 00d5 E8000000 		call	_ZN8UnitTest11CurrentTest7DetailsEv
 260      00
 261 00da 488B08   		movq	(%rax), %rcx
 262 00dd 488D8530 		leaq	-464(%rbp), %rax
 262      FEFFFF
 263 00e4 BA0F0000 		movl	$15, %edx
 263      00
 264 00e9 4889CE   		movq	%rcx, %rsi
 265 00ec 4889C7   		movq	%rax, %rdi
 266 00ef E8000000 		call	_ZN8UnitTest11TestDetailsC1ERKS0_i
 266      00
 267              		.loc 3 15 0 is_stmt 0 discriminator 2
 268 00f4 488D8550 		leaq	-432(%rbp), %rax
 268      FEFFFF
 269 00fb 4889C7   		movq	%rax, %rdi
 270 00fe E8000000 		call	_ZNK8UnitTest15MemoryOutStream7GetTextEv
 270      00
 271 0103 4889C3   		movq	%rax, %rbx
 272 0106 E8000000 		call	_ZN8UnitTest11CurrentTest7ResultsEv
 272      00
 273              		.loc 3 15 0 discriminator 4
 274 010b 488B00   		movq	(%rax), %rax
 275 010e 488D9530 		leaq	-464(%rbp), %rdx
 275      FEFFFF
 276 0115 4889D1   		movq	%rdx, %rcx
 277 0118 4889DA   		movq	%rbx, %rdx
 278 011b BE000000 		movl	$.LC4, %esi
 278      00
 279 0120 4889C7   		movq	%rax, %rdi
 280 0123 E8000000 		call	_ZN8UnitTest10CheckEqualERNS_11TestResultsEPKcS3_RKNS_11TestDetailsE
 280      00
 281              	.LEHE6:
 282              	.L17:
  13:TestMemoryOutStream.cpp ****     MemoryOutStream const stream;
 283              		.loc 3 13 0 is_stmt 1
 284 0128 488D8550 		leaq	-432(%rbp), %rax
 284      FEFFFF
 285 012f 4889C7   		movq	%rax, %rdi
 286              	.LEHB7:
 287 0132 E8000000 		call	_ZN8UnitTest15MemoryOutStreamD1Ev
 287      00
 288              	.LEHE7:
  16:TestMemoryOutStream.cpp **** }
 289              		.loc 3 16 0
 290 0137 90       		nop
 291 0138 488B45E8 		movq	-24(%rbp), %rax
 292 013c 64483304 		xorq	%fs:40, %rax
 292      25280000 
 292      00
 293 0145 0F84DB00 		je	.L19
 293      0000
 294 014b E9D10000 		jmp	.L25
 294      00
 295              	.L20:
  14:TestMemoryOutStream.cpp ****     CHECK(stream.GetText() != 0);
 296              		.loc 3 14 0
 297 0150 4889C7   		movq	%rax, %rdi
 298 0153 E8000000 		call	__cxa_begin_catch
 298      00
 299              	.LEHB8:
 300 0158 E8000000 		call	_ZN8UnitTest11CurrentTest7DetailsEv
 300      00
 301 015d 488B08   		movq	(%rax), %rcx
 302 0160 488D8530 		leaq	-464(%rbp), %rax
 302      FEFFFF
 303 0167 BA0E0000 		movl	$14, %edx
 303      00
 304 016c 4889CE   		movq	%rcx, %rsi
 305 016f 4889C7   		movq	%rax, %rdi
 306 0172 E8000000 		call	_ZN8UnitTest11TestDetailsC1ERKS0_i
 306      00
  14:TestMemoryOutStream.cpp ****     CHECK(stream.GetText() != 0);
 307              		.loc 3 14 0 is_stmt 0 discriminator 12
 308 0177 E8000000 		call	_ZN8UnitTest11CurrentTest7ResultsEv
 308      00
 309 017c 488B00   		movq	(%rax), %rax
 310 017f 488D8D30 		leaq	-464(%rbp), %rcx
 310      FEFFFF
 311 0186 BA000000 		movl	$.LC5, %edx
 311      00
 312 018b 4889CE   		movq	%rcx, %rsi
 313 018e 4889C7   		movq	%rax, %rdi
 314 0191 E8000000 		call	_ZN8UnitTest11TestResults13OnTestFailureERKNS_11TestDetailsEPKc
 314      00
 315              	.LEHE8:
 316              	.LEHB9:
  14:TestMemoryOutStream.cpp ****     CHECK(stream.GetText() != 0);
 317              		.loc 3 14 0 discriminator 16
 318 0196 E8000000 		call	__cxa_end_catch
 318      00
 319              	.LEHE9:
  14:TestMemoryOutStream.cpp ****     CHECK(stream.GetText() != 0);
 320              		.loc 3 14 0
 321 019b E935FFFF 		jmp	.L12
 321      FF
 322              	.L22:
 323 01a0 4889C3   		movq	%rax, %rbx
 324 01a3 E8000000 		call	__cxa_end_catch
 324      00
 325 01a8 EB5D     		jmp	.L15
 326              	.L23:
  15:TestMemoryOutStream.cpp ****     CHECK_EQUAL("", stream.GetText());
 327              		.loc 3 15 0 is_stmt 1
 328 01aa 4889C7   		movq	%rax, %rdi
 329 01ad E8000000 		call	__cxa_begin_catch
 329      00
 330              	.LEHB10:
 331 01b2 E8000000 		call	_ZN8UnitTest11CurrentTest7DetailsEv
 331      00
 332 01b7 488B08   		movq	(%rax), %rcx
 333 01ba 488D8530 		leaq	-464(%rbp), %rax
 333      FEFFFF
 334 01c1 BA0F0000 		movl	$15, %edx
 334      00
 335 01c6 4889CE   		movq	%rcx, %rsi
 336 01c9 4889C7   		movq	%rax, %rdi
 337 01cc E8000000 		call	_ZN8UnitTest11TestDetailsC1ERKS0_i
 337      00
  15:TestMemoryOutStream.cpp ****     CHECK_EQUAL("", stream.GetText());
 338              		.loc 3 15 0 is_stmt 0 discriminator 12
 339 01d1 E8000000 		call	_ZN8UnitTest11CurrentTest7ResultsEv
 339      00
 340 01d6 488B00   		movq	(%rax), %rax
 341 01d9 488D8D30 		leaq	-464(%rbp), %rcx
 341      FEFFFF
 342 01e0 BA000000 		movl	$.LC6, %edx
 342      00
 343 01e5 4889CE   		movq	%rcx, %rsi
 344 01e8 4889C7   		movq	%rax, %rdi
 345 01eb E8000000 		call	_ZN8UnitTest11TestResults13OnTestFailureERKNS_11TestDetailsEPKc
 345      00
 346              	.LEHE10:
 347              	.LEHB11:
  15:TestMemoryOutStream.cpp ****     CHECK_EQUAL("", stream.GetText());
 348              		.loc 3 15 0 discriminator 16
 349 01f0 E8000000 		call	__cxa_end_catch
 349      00
 350              	.LEHE11:
  15:TestMemoryOutStream.cpp ****     CHECK_EQUAL("", stream.GetText());
 351              		.loc 3 15 0
 352 01f5 E92EFFFF 		jmp	.L17
 352      FF
 353              	.L24:
 354 01fa 4889C3   		movq	%rax, %rbx
 355 01fd E8000000 		call	__cxa_end_catch
 355      00
 356 0202 EB03     		jmp	.L15
 357              	.L21:
 358 0204 4889C3   		movq	%rax, %rbx
 359              	.L15:
  13:TestMemoryOutStream.cpp ****     CHECK(stream.GetText() != 0);
 360              		.loc 3 13 0 is_stmt 1
 361 0207 488D8550 		leaq	-432(%rbp), %rax
 361      FEFFFF
 362 020e 4889C7   		movq	%rax, %rdi
 363 0211 E8000000 		call	_ZN8UnitTest15MemoryOutStreamD1Ev
 363      00
 364 0216 4889D8   		movq	%rbx, %rax
 365 0219 4889C7   		movq	%rax, %rdi
 366              	.LEHB12:
 367 021c E8000000 		call	_Unwind_Resume
 367      00
 368              	.LEHE12:
 369              	.L25:
 370              		.loc 3 16 0
 371 0221 E8000000 		call	__stack_chk_fail
 371      00
 372              	.L19:
 373 0226 4881C4D8 		addq	$472, %rsp
 373      010000
 374 022d 5B       		popq	%rbx
 375 022e 5D       		popq	%rbp
 376              		.cfi_def_cfa 7, 8
 377 022f C3       		ret
 378              		.cfi_endproc
 379              	.LFE1072:
 380              		.section	.gcc_except_table,"a",@progbits
 381              		.align 4
 382              	.LLSDA1072:
 383 0000 FF       		.byte	0xff
 384 0001 03       		.byte	0x3
 385 0002 39       		.uleb128 .LLSDATT1072-.LLSDATTD1072
 386              	.LLSDATTD1072:
 387 0003 01       		.byte	0x1
 388 0004 31       		.uleb128 .LLSDACSE1072-.LLSDACSB1072
 389              	.LLSDACSB1072:
 390 0005 2C       		.uleb128 .LEHB4-.LFB1072
 391 0006 05       		.uleb128 .LEHE4-.LEHB4
 392 0007 00       		.uleb128 0
 393 0008 00       		.uleb128 0
 394 0009 3B       		.uleb128 .LEHB5-.LFB1072
 395 000a 5A       		.uleb128 .LEHE5-.LEHB5
 396 000b 9002     		.uleb128 .L20-.LFB1072
 397 000d 01       		.uleb128 0x1
 398 000e 9501     		.uleb128 .LEHB6-.LFB1072
 399 0010 53       		.uleb128 .LEHE6-.LEHB6
 400 0011 EA02     		.uleb128 .L23-.LFB1072
 401 0013 01       		.uleb128 0x1
 402 0014 F201     		.uleb128 .LEHB7-.LFB1072
 403 0016 05       		.uleb128 .LEHE7-.LEHB7
 404 0017 00       		.uleb128 0
 405 0018 00       		.uleb128 0
 406 0019 9802     		.uleb128 .LEHB8-.LFB1072
 407 001b 3E       		.uleb128 .LEHE8-.LEHB8
 408 001c E002     		.uleb128 .L22-.LFB1072
 409 001e 00       		.uleb128 0
 410 001f D602     		.uleb128 .LEHB9-.LFB1072
 411 0021 05       		.uleb128 .LEHE9-.LEHB9
 412 0022 C403     		.uleb128 .L21-.LFB1072
 413 0024 00       		.uleb128 0
 414 0025 F202     		.uleb128 .LEHB10-.LFB1072
 415 0027 3E       		.uleb128 .LEHE10-.LEHB10
 416 0028 BA03     		.uleb128 .L24-.LFB1072
 417 002a 00       		.uleb128 0
 418 002b B003     		.uleb128 .LEHB11-.LFB1072
 419 002d 05       		.uleb128 .LEHE11-.LEHB11
 420 002e C403     		.uleb128 .L21-.LFB1072
 421 0030 00       		.uleb128 0
 422 0031 DC03     		.uleb128 .LEHB12-.LFB1072
 423 0033 05       		.uleb128 .LEHE12-.LEHB12
 424 0034 00       		.uleb128 0
 425 0035 00       		.uleb128 0
 426              	.LLSDACSE1072:
 427 0036 01       		.byte	0x1
 428 0037 00       		.byte	0
 429              		.align 4
 430 0038 00000000 		.long	0
 431              	
 432              	.LLSDATT1072:
 433              		.text
 435              		.section	.rodata
 436              	.LC7:
 437 00c9 53747265 		.string	"StreamingTextCopiesCharacters"
 437      616D696E 
 437      67546578 
 437      74436F70 
 437      69657343 
 438              		.text
 439              		.align 2
 441              	_ZN12_GLOBAL__N_133TestStreamingTextCopiesCharactersC2Ev:
 442              	.LFB1074:
  17:TestMemoryOutStream.cpp **** 
  18:TestMemoryOutStream.cpp **** TEST(StreamingTextCopiesCharacters)
 443              		.loc 3 18 0
 444              		.cfi_startproc
 445 0230 55       		pushq	%rbp
 446              		.cfi_def_cfa_offset 16
 447              		.cfi_offset 6, -16
 448 0231 4889E5   		movq	%rsp, %rbp
 449              		.cfi_def_cfa_register 6
 450 0234 4883EC10 		subq	$16, %rsp
 451 0238 48897DF8 		movq	%rdi, -8(%rbp)
 452              	.LBB5:
 453              		.loc 3 18 0
 454 023c E8000000 		call	_ZN13UnitTestSuite12GetSuiteNameEv
 454      00
 455 0241 4889C2   		movq	%rax, %rdx
 456 0244 488B45F8 		movq	-8(%rbp), %rax
 457 0248 41B81200 		movl	$18, %r8d
 457      0000
 458 024e B9000000 		movl	$.LC1, %ecx
 458      00
 459 0253 BE000000 		movl	$.LC7, %esi
 459      00
 460 0258 4889C7   		movq	%rax, %rdi
 461 025b E8000000 		call	_ZN8UnitTest4TestC2EPKcS2_S2_i
 461      00
 462 0260 BA000000 		movl	$_ZTVN12_GLOBAL__N_133TestStreamingTextCopiesCharactersE+16, %edx
 462      00
 463 0265 488B45F8 		movq	-8(%rbp), %rax
 464 0269 488910   		movq	%rdx, (%rax)
 465              	.LBE5:
 466 026c 90       		nop
 467 026d C9       		leave
 468              		.cfi_def_cfa 7, 8
 469 026e C3       		ret
 470              		.cfi_endproc
 471              	.LFE1074:
 473              		.set	_ZN12_GLOBAL__N_133TestStreamingTextCopiesCharactersC1Ev,_ZN12_GLOBAL__N_133TestStreamingText
 474              		.local	_ZN12_GLOBAL__N_141testStreamingTextCopiesCharactersInstanceE
 475              		.comm	_ZN12_GLOBAL__N_141testStreamingTextCopiesCharactersInstanceE,56,32
 476              		.local	_ZN12_GLOBAL__N_134adderStreamingTextCopiesCharactersE
 477              		.comm	_ZN12_GLOBAL__N_134adderStreamingTextCopiesCharactersE,1,1
 478              		.section	.rodata
 479              	.LC8:
 480 00e7 4C616C61 		.string	"Lalala"
 480      6C6100
 481 00ee 0000     		.align 8
 482              	.LC9:
 483 00f0 556E6861 		.string	"Unhandled exception in CHECK_EQUAL(\"Lalala\", stream.GetText())"
 483      6E646C65 
 483      64206578 
 483      63657074 
 483      696F6E20 
 484              		.text
 485 026f 90       		.align 2
 487              	_ZNK12_GLOBAL__N_133TestStreamingTextCopiesCharacters7RunImplEv:
 488              	.LFB1076:
  19:TestMemoryOutStream.cpp **** {
 489              		.loc 3 19 0
 490              		.cfi_startproc
 491              		.cfi_personality 0x3,__gxx_personality_v0
 492              		.cfi_lsda 0x3,.LLSDA1076
 493 0270 55       		pushq	%rbp
 494              		.cfi_def_cfa_offset 16
 495              		.cfi_offset 6, -16
 496 0271 4889E5   		movq	%rsp, %rbp
 497              		.cfi_def_cfa_register 6
 498 0274 53       		pushq	%rbx
 499 0275 4881ECD8 		subq	$472, %rsp
 499      010000
 500              		.cfi_offset 3, -24
 501 027c 4889BD28 		movq	%rdi, -472(%rbp)
 501      FEFFFF
 502              		.loc 3 19 0
 503 0283 64488B04 		movq	%fs:40, %rax
 503      25280000 
 503      00
 504 028c 488945E8 		movq	%rax, -24(%rbp)
 505 0290 31C0     		xorl	%eax, %eax
  20:TestMemoryOutStream.cpp ****     MemoryOutStream stream;
 506              		.loc 3 20 0
 507 0292 488D8550 		leaq	-432(%rbp), %rax
 507      FEFFFF
 508 0299 4889C7   		movq	%rax, %rdi
 509              	.LEHB13:
 510 029c E8000000 		call	_ZN8UnitTest15MemoryOutStreamC1Ev
 510      00
 511              	.LEHE13:
  21:TestMemoryOutStream.cpp ****     stream << "Lalala";
 512              		.loc 3 21 0
 513 02a1 488D8550 		leaq	-432(%rbp), %rax
 513      FEFFFF
 514 02a8 BE000000 		movl	$.LC8, %esi
 514      00
 515 02ad 4889C7   		movq	%rax, %rdi
 516              	.LEHB14:
 517 02b0 E8000000 		call	_ZStlsISt11char_traitsIcEERSt13basic_ostreamIcT_ES5_PKc
 517      00
 518              	.LEHE14:
 519              	.LEHB15:
  22:TestMemoryOutStream.cpp ****     CHECK_EQUAL("Lalala", stream.GetText());
 520              		.loc 3 22 0
 521 02b5 E8000000 		call	_ZN8UnitTest11CurrentTest7DetailsEv
 521      00
 522 02ba 488B08   		movq	(%rax), %rcx
 523 02bd 488D8530 		leaq	-464(%rbp), %rax
 523      FEFFFF
 524 02c4 BA160000 		movl	$22, %edx
 524      00
 525 02c9 4889CE   		movq	%rcx, %rsi
 526 02cc 4889C7   		movq	%rax, %rdi
 527 02cf E8000000 		call	_ZN8UnitTest11TestDetailsC1ERKS0_i
 527      00
 528              		.loc 3 22 0 is_stmt 0 discriminator 2
 529 02d4 488D8550 		leaq	-432(%rbp), %rax
 529      FEFFFF
 530 02db 4889C7   		movq	%rax, %rdi
 531 02de E8000000 		call	_ZNK8UnitTest15MemoryOutStream7GetTextEv
 531      00
 532 02e3 4889C3   		movq	%rax, %rbx
 533 02e6 E8000000 		call	_ZN8UnitTest11CurrentTest7ResultsEv
 533      00
 534              		.loc 3 22 0 discriminator 4
 535 02eb 488B00   		movq	(%rax), %rax
 536 02ee 488D9530 		leaq	-464(%rbp), %rdx
 536      FEFFFF
 537 02f5 4889D1   		movq	%rdx, %rcx
 538 02f8 4889DA   		movq	%rbx, %rdx
 539 02fb BE000000 		movl	$.LC8, %esi
 539      00
 540 0300 4889C7   		movq	%rax, %rdi
 541 0303 E8000000 		call	_ZN8UnitTest10CheckEqualERNS_11TestResultsEPKcS3_RKNS_11TestDetailsE
 541      00
 542              	.LEHE15:
 543              	.L29:
  20:TestMemoryOutStream.cpp ****     MemoryOutStream stream;
 544              		.loc 3 20 0 is_stmt 1
 545 0308 488D8550 		leaq	-432(%rbp), %rax
 545      FEFFFF
 546 030f 4889C7   		movq	%rax, %rdi
 547              	.LEHB16:
 548 0312 E8000000 		call	_ZN8UnitTest15MemoryOutStreamD1Ev
 548      00
 549              	.LEHE16:
  23:TestMemoryOutStream.cpp **** }
 550              		.loc 3 23 0
 551 0317 90       		nop
 552 0318 488B45E8 		movq	-24(%rbp), %rax
 553 031c 64483304 		xorq	%fs:40, %rax
 553      25280000 
 553      00
 554 0325 747B     		je	.L32
 555 0327 EB74     		jmp	.L36
 556              	.L34:
  22:TestMemoryOutStream.cpp ****     CHECK_EQUAL("Lalala", stream.GetText());
 557              		.loc 3 22 0
 558 0329 4889C7   		movq	%rax, %rdi
 559 032c E8000000 		call	__cxa_begin_catch
 559      00
 560              	.LEHB17:
 561 0331 E8000000 		call	_ZN8UnitTest11CurrentTest7DetailsEv
 561      00
 562 0336 488B08   		movq	(%rax), %rcx
 563 0339 488D8530 		leaq	-464(%rbp), %rax
 563      FEFFFF
 564 0340 BA160000 		movl	$22, %edx
 564      00
 565 0345 4889CE   		movq	%rcx, %rsi
 566 0348 4889C7   		movq	%rax, %rdi
 567 034b E8000000 		call	_ZN8UnitTest11TestDetailsC1ERKS0_i
 567      00
  22:TestMemoryOutStream.cpp ****     CHECK_EQUAL("Lalala", stream.GetText());
 568              		.loc 3 22 0 is_stmt 0 discriminator 12
 569 0350 E8000000 		call	_ZN8UnitTest11CurrentTest7ResultsEv
 569      00
 570 0355 488B00   		movq	(%rax), %rax
 571 0358 488D8D30 		leaq	-464(%rbp), %rcx
 571      FEFFFF
 572 035f BA000000 		movl	$.LC9, %edx
 572      00
 573 0364 4889CE   		movq	%rcx, %rsi
 574 0367 4889C7   		movq	%rax, %rdi
 575 036a E8000000 		call	_ZN8UnitTest11TestResults13OnTestFailureERKNS_11TestDetailsEPKc
 575      00
 576              	.LEHE17:
 577              	.LEHB18:
  22:TestMemoryOutStream.cpp ****     CHECK_EQUAL("Lalala", stream.GetText());
 578              		.loc 3 22 0 discriminator 16
 579 036f E8000000 		call	__cxa_end_catch
 579      00
 580              	.LEHE18:
  22:TestMemoryOutStream.cpp ****     CHECK_EQUAL("Lalala", stream.GetText());
 581              		.loc 3 22 0
 582 0374 EB92     		jmp	.L29
 583              	.L35:
 584 0376 4889C3   		movq	%rax, %rbx
 585 0379 E8000000 		call	__cxa_end_catch
 585      00
 586 037e EB03     		jmp	.L31
 587              	.L33:
 588 0380 4889C3   		movq	%rax, %rbx
 589              	.L31:
  20:TestMemoryOutStream.cpp ****     stream << "Lalala";
 590              		.loc 3 20 0 is_stmt 1
 591 0383 488D8550 		leaq	-432(%rbp), %rax
 591      FEFFFF
 592 038a 4889C7   		movq	%rax, %rdi
 593 038d E8000000 		call	_ZN8UnitTest15MemoryOutStreamD1Ev
 593      00
 594 0392 4889D8   		movq	%rbx, %rax
 595 0395 4889C7   		movq	%rax, %rdi
 596              	.LEHB19:
 597 0398 E8000000 		call	_Unwind_Resume
 597      00
 598              	.LEHE19:
 599              	.L36:
 600              		.loc 3 23 0
 601 039d E8000000 		call	__stack_chk_fail
 601      00
 602              	.L32:
 603 03a2 4881C4D8 		addq	$472, %rsp
 603      010000
 604 03a9 5B       		popq	%rbx
 605 03aa 5D       		popq	%rbp
 606              		.cfi_def_cfa 7, 8
 607 03ab C3       		ret
 608              		.cfi_endproc
 609              	.LFE1076:
 610              		.section	.gcc_except_table
 611              		.align 4
 612              	.LLSDA1076:
 613 003c FF       		.byte	0xff
 614 003d 03       		.byte	0x3
 615 003e 2D       		.uleb128 .LLSDATT1076-.LLSDATTD1076
 616              	.LLSDATTD1076:
 617 003f 01       		.byte	0x1
 618 0040 24       		.uleb128 .LLSDACSE1076-.LLSDACSB1076
 619              	.LLSDACSB1076:
 620 0041 2C       		.uleb128 .LEHB13-.LFB1076
 621 0042 05       		.uleb128 .LEHE13-.LEHB13
 622 0043 00       		.uleb128 0
 623 0044 00       		.uleb128 0
 624 0045 40       		.uleb128 .LEHB14-.LFB1076
 625 0046 05       		.uleb128 .LEHE14-.LEHB14
 626 0047 9002     		.uleb128 .L33-.LFB1076
 627 0049 00       		.uleb128 0
 628 004a 45       		.uleb128 .LEHB15-.LFB1076
 629 004b 53       		.uleb128 .LEHE15-.LEHB15
 630 004c B901     		.uleb128 .L34-.LFB1076
 631 004e 01       		.uleb128 0x1
 632 004f A201     		.uleb128 .LEHB16-.LFB1076
 633 0051 05       		.uleb128 .LEHE16-.LEHB16
 634 0052 00       		.uleb128 0
 635 0053 00       		.uleb128 0
 636 0054 C101     		.uleb128 .LEHB17-.LFB1076
 637 0056 3E       		.uleb128 .LEHE17-.LEHB17
 638 0057 8602     		.uleb128 .L35-.LFB1076
 639 0059 00       		.uleb128 0
 640 005a FF01     		.uleb128 .LEHB18-.LFB1076
 641 005c 05       		.uleb128 .LEHE18-.LEHB18
 642 005d 9002     		.uleb128 .L33-.LFB1076
 643 005f 00       		.uleb128 0
 644 0060 A802     		.uleb128 .LEHB19-.LFB1076
 645 0062 05       		.uleb128 .LEHE19-.LEHB19
 646 0063 00       		.uleb128 0
 647 0064 00       		.uleb128 0
 648              	.LLSDACSE1076:
 649 0065 01       		.byte	0x1
 650 0066 00       		.byte	0
 651 0067 00       		.align 4
 652 0068 00000000 		.long	0
 653              	
 654              	.LLSDATT1076:
 655              		.text
 657              		.section	.rodata
 658 012f 00       		.align 8
 659              	.LC10:
 660 0130 53747265 		.string	"StreamingMultipleTimesConcatenatesResult"
 660      616D696E 
 660      674D756C 
 660      7469706C 
 660      6554696D 
 661              		.text
 662              		.align 2
 664              	_ZN12_GLOBAL__N_144TestStreamingMultipleTimesConcatenatesResultC2Ev:
 665              	.LFB1078:
  24:TestMemoryOutStream.cpp **** 
  25:TestMemoryOutStream.cpp **** TEST(StreamingMultipleTimesConcatenatesResult)
 666              		.loc 3 25 0
 667              		.cfi_startproc
 668 03ac 55       		pushq	%rbp
 669              		.cfi_def_cfa_offset 16
 670              		.cfi_offset 6, -16
 671 03ad 4889E5   		movq	%rsp, %rbp
 672              		.cfi_def_cfa_register 6
 673 03b0 4883EC10 		subq	$16, %rsp
 674 03b4 48897DF8 		movq	%rdi, -8(%rbp)
 675              	.LBB6:
 676              		.loc 3 25 0
 677 03b8 E8000000 		call	_ZN13UnitTestSuite12GetSuiteNameEv
 677      00
 678 03bd 4889C2   		movq	%rax, %rdx
 679 03c0 488B45F8 		movq	-8(%rbp), %rax
 680 03c4 41B81900 		movl	$25, %r8d
 680      0000
 681 03ca B9000000 		movl	$.LC1, %ecx
 681      00
 682 03cf BE000000 		movl	$.LC10, %esi
 682      00
 683 03d4 4889C7   		movq	%rax, %rdi
 684 03d7 E8000000 		call	_ZN8UnitTest4TestC2EPKcS2_S2_i
 684      00
 685 03dc BA000000 		movl	$_ZTVN12_GLOBAL__N_144TestStreamingMultipleTimesConcatenatesResultE+16, %edx
 685      00
 686 03e1 488B45F8 		movq	-8(%rbp), %rax
 687 03e5 488910   		movq	%rdx, (%rax)
 688              	.LBE6:
 689 03e8 90       		nop
 690 03e9 C9       		leave
 691              		.cfi_def_cfa 7, 8
 692 03ea C3       		ret
 693              		.cfi_endproc
 694              	.LFE1078:
 696              		.set	_ZN12_GLOBAL__N_144TestStreamingMultipleTimesConcatenatesResultC1Ev,_ZN12_GLOBAL__N_144TestSt
 697              		.local	_ZN12_GLOBAL__N_152testStreamingMultipleTimesConcatenatesResultInstanceE
 698              		.comm	_ZN12_GLOBAL__N_152testStreamingMultipleTimesConcatenatesResultInstanceE,56,32
 699              		.local	_ZN12_GLOBAL__N_145adderStreamingMultipleTimesConcatenatesResultE
 700              		.comm	_ZN12_GLOBAL__N_145adderStreamingMultipleTimesConcatenatesResultE,1,1
 701              		.section	.rodata
 702              	.LC11:
 703 0159 426F726B 		.string	"Bork"
 703      00
 704              	.LC12:
 705 015e 466F6F00 		.string	"Foo"
 706              	.LC13:
 707 0162 42617200 		.string	"Bar"
 708              	.LC14:
 709 0166 426F726B 		.string	"BorkFooBar"
 709      466F6F42 
 709      617200
 710 0171 00000000 		.align 8
 710      000000
 711              	.LC15:
 712 0178 556E6861 		.string	"Unhandled exception in CHECK_EQUAL(\"BorkFooBar\", stream.GetText())"
 712      6E646C65 
 712      64206578 
 712      63657074 
 712      696F6E20 
 713              		.text
 714 03eb 90       		.align 2
 716              	_ZNK12_GLOBAL__N_144TestStreamingMultipleTimesConcatenatesResult7RunImplEv:
 717              	.LFB1080:
  26:TestMemoryOutStream.cpp **** {
 718              		.loc 3 26 0
 719              		.cfi_startproc
 720              		.cfi_personality 0x3,__gxx_personality_v0
 721              		.cfi_lsda 0x3,.LLSDA1080
 722 03ec 55       		pushq	%rbp
 723              		.cfi_def_cfa_offset 16
 724              		.cfi_offset 6, -16
 725 03ed 4889E5   		movq	%rsp, %rbp
 726              		.cfi_def_cfa_register 6
 727 03f0 53       		pushq	%rbx
 728 03f1 4881ECD8 		subq	$472, %rsp
 728      010000
 729              		.cfi_offset 3, -24
 730 03f8 4889BD28 		movq	%rdi, -472(%rbp)
 730      FEFFFF
 731              		.loc 3 26 0
 732 03ff 64488B04 		movq	%fs:40, %rax
 732      25280000 
 732      00
 733 0408 488945E8 		movq	%rax, -24(%rbp)
 734 040c 31C0     		xorl	%eax, %eax
  27:TestMemoryOutStream.cpp ****     MemoryOutStream stream;
 735              		.loc 3 27 0
 736 040e 488D8550 		leaq	-432(%rbp), %rax
 736      FEFFFF
 737 0415 4889C7   		movq	%rax, %rdi
 738              	.LEHB20:
 739 0418 E8000000 		call	_ZN8UnitTest15MemoryOutStreamC1Ev
 739      00
 740              	.LEHE20:
  28:TestMemoryOutStream.cpp ****     stream << "Bork" << "Foo" << "Bar";
 741              		.loc 3 28 0
 742 041d 488D8550 		leaq	-432(%rbp), %rax
 742      FEFFFF
 743 0424 BE000000 		movl	$.LC11, %esi
 743      00
 744 0429 4889C7   		movq	%rax, %rdi
 745              	.LEHB21:
 746 042c E8000000 		call	_ZStlsISt11char_traitsIcEERSt13basic_ostreamIcT_ES5_PKc
 746      00
 747 0431 BE000000 		movl	$.LC12, %esi
 747      00
 748 0436 4889C7   		movq	%rax, %rdi
 749 0439 E8000000 		call	_ZStlsISt11char_traitsIcEERSt13basic_ostreamIcT_ES5_PKc
 749      00
 750              		.loc 3 28 0 is_stmt 0 discriminator 1
 751 043e BE000000 		movl	$.LC13, %esi
 751      00
 752 0443 4889C7   		movq	%rax, %rdi
 753 0446 E8000000 		call	_ZStlsISt11char_traitsIcEERSt13basic_ostreamIcT_ES5_PKc
 753      00
 754              	.LEHE21:
 755              	.LEHB22:
  29:TestMemoryOutStream.cpp ****     CHECK_EQUAL("BorkFooBar", stream.GetText());
 756              		.loc 3 29 0 is_stmt 1
 757 044b E8000000 		call	_ZN8UnitTest11CurrentTest7DetailsEv
 757      00
 758 0450 488B08   		movq	(%rax), %rcx
 759 0453 488D8530 		leaq	-464(%rbp), %rax
 759      FEFFFF
 760 045a BA1D0000 		movl	$29, %edx
 760      00
 761 045f 4889CE   		movq	%rcx, %rsi
 762 0462 4889C7   		movq	%rax, %rdi
 763 0465 E8000000 		call	_ZN8UnitTest11TestDetailsC1ERKS0_i
 763      00
 764              		.loc 3 29 0 is_stmt 0 discriminator 2
 765 046a 488D8550 		leaq	-432(%rbp), %rax
 765      FEFFFF
 766 0471 4889C7   		movq	%rax, %rdi
 767 0474 E8000000 		call	_ZNK8UnitTest15MemoryOutStream7GetTextEv
 767      00
 768 0479 4889C3   		movq	%rax, %rbx
 769 047c E8000000 		call	_ZN8UnitTest11CurrentTest7ResultsEv
 769      00
 770              		.loc 3 29 0 discriminator 4
 771 0481 488B00   		movq	(%rax), %rax
 772 0484 488D9530 		leaq	-464(%rbp), %rdx
 772      FEFFFF
 773 048b 4889D1   		movq	%rdx, %rcx
 774 048e 4889DA   		movq	%rbx, %rdx
 775 0491 BE000000 		movl	$.LC14, %esi
 775      00
 776 0496 4889C7   		movq	%rax, %rdi
 777 0499 E8000000 		call	_ZN8UnitTest10CheckEqualERNS_11TestResultsEPKcS3_RKNS_11TestDetailsE
 777      00
 778              	.LEHE22:
 779              	.L40:
  27:TestMemoryOutStream.cpp ****     MemoryOutStream stream;
 780              		.loc 3 27 0 is_stmt 1
 781 049e 488D8550 		leaq	-432(%rbp), %rax
 781      FEFFFF
 782 04a5 4889C7   		movq	%rax, %rdi
 783              	.LEHB23:
 784 04a8 E8000000 		call	_ZN8UnitTest15MemoryOutStreamD1Ev
 784      00
 785              	.LEHE23:
  30:TestMemoryOutStream.cpp **** }
 786              		.loc 3 30 0
 787 04ad 90       		nop
 788 04ae 488B45E8 		movq	-24(%rbp), %rax
 789 04b2 64483304 		xorq	%fs:40, %rax
 789      25280000 
 789      00
 790 04bb 747B     		je	.L43
 791 04bd EB74     		jmp	.L47
 792              	.L45:
  29:TestMemoryOutStream.cpp ****     CHECK_EQUAL("BorkFooBar", stream.GetText());
 793              		.loc 3 29 0
 794 04bf 4889C7   		movq	%rax, %rdi
 795 04c2 E8000000 		call	__cxa_begin_catch
 795      00
 796              	.LEHB24:
 797 04c7 E8000000 		call	_ZN8UnitTest11CurrentTest7DetailsEv
 797      00
 798 04cc 488B08   		movq	(%rax), %rcx
 799 04cf 488D8530 		leaq	-464(%rbp), %rax
 799      FEFFFF
 800 04d6 BA1D0000 		movl	$29, %edx
 800      00
 801 04db 4889CE   		movq	%rcx, %rsi
 802 04de 4889C7   		movq	%rax, %rdi
 803 04e1 E8000000 		call	_ZN8UnitTest11TestDetailsC1ERKS0_i
 803      00
  29:TestMemoryOutStream.cpp ****     CHECK_EQUAL("BorkFooBar", stream.GetText());
 804              		.loc 3 29 0 is_stmt 0 discriminator 12
 805 04e6 E8000000 		call	_ZN8UnitTest11CurrentTest7ResultsEv
 805      00
 806 04eb 488B00   		movq	(%rax), %rax
 807 04ee 488D8D30 		leaq	-464(%rbp), %rcx
 807      FEFFFF
 808 04f5 BA000000 		movl	$.LC15, %edx
 808      00
 809 04fa 4889CE   		movq	%rcx, %rsi
 810 04fd 4889C7   		movq	%rax, %rdi
 811 0500 E8000000 		call	_ZN8UnitTest11TestResults13OnTestFailureERKNS_11TestDetailsEPKc
 811      00
 812              	.LEHE24:
 813              	.LEHB25:
  29:TestMemoryOutStream.cpp ****     CHECK_EQUAL("BorkFooBar", stream.GetText());
 814              		.loc 3 29 0 discriminator 16
 815 0505 E8000000 		call	__cxa_end_catch
 815      00
 816              	.LEHE25:
  29:TestMemoryOutStream.cpp ****     CHECK_EQUAL("BorkFooBar", stream.GetText());
 817              		.loc 3 29 0
 818 050a EB92     		jmp	.L40
 819              	.L46:
 820 050c 4889C3   		movq	%rax, %rbx
 821 050f E8000000 		call	__cxa_end_catch
 821      00
 822 0514 EB03     		jmp	.L42
 823              	.L44:
 824 0516 4889C3   		movq	%rax, %rbx
 825              	.L42:
  27:TestMemoryOutStream.cpp ****     stream << "Bork" << "Foo" << "Bar";
 826              		.loc 3 27 0 is_stmt 1
 827 0519 488D8550 		leaq	-432(%rbp), %rax
 827      FEFFFF
 828 0520 4889C7   		movq	%rax, %rdi
 829 0523 E8000000 		call	_ZN8UnitTest15MemoryOutStreamD1Ev
 829      00
 830 0528 4889D8   		movq	%rbx, %rax
 831 052b 4889C7   		movq	%rax, %rdi
 832              	.LEHB26:
 833 052e E8000000 		call	_Unwind_Resume
 833      00
 834              	.LEHE26:
 835              	.L47:
 836              		.loc 3 30 0
 837 0533 E8000000 		call	__stack_chk_fail
 837      00
 838              	.L43:
 839 0538 4881C4D8 		addq	$472, %rsp
 839      010000
 840 053f 5B       		popq	%rbx
 841 0540 5D       		popq	%rbp
 842              		.cfi_def_cfa 7, 8
 843 0541 C3       		ret
 844              		.cfi_endproc
 845              	.LFE1080:
 846              		.section	.gcc_except_table
 847              		.align 4
 848              	.LLSDA1080:
 849 006c FF       		.byte	0xff
 850 006d 03       		.byte	0x3
 851 006e 2D       		.uleb128 .LLSDATT1080-.LLSDATTD1080
 852              	.LLSDATTD1080:
 853 006f 01       		.byte	0x1
 854 0070 24       		.uleb128 .LLSDACSE1080-.LLSDACSB1080
 855              	.LLSDACSB1080:
 856 0071 2C       		.uleb128 .LEHB20-.LFB1080
 857 0072 05       		.uleb128 .LEHE20-.LEHB20
 858 0073 00       		.uleb128 0
 859 0074 00       		.uleb128 0
 860 0075 40       		.uleb128 .LEHB21-.LFB1080
 861 0076 1F       		.uleb128 .LEHE21-.LEHB21
 862 0077 AA02     		.uleb128 .L44-.LFB1080
 863 0079 00       		.uleb128 0
 864 007a 5F       		.uleb128 .LEHB22-.LFB1080
 865 007b 53       		.uleb128 .LEHE22-.LEHB22
 866 007c D301     		.uleb128 .L45-.LFB1080
 867 007e 01       		.uleb128 0x1
 868 007f BC01     		.uleb128 .LEHB23-.LFB1080
 869 0081 05       		.uleb128 .LEHE23-.LEHB23
 870 0082 00       		.uleb128 0
 871 0083 00       		.uleb128 0
 872 0084 DB01     		.uleb128 .LEHB24-.LFB1080
 873 0086 3E       		.uleb128 .LEHE24-.LEHB24
 874 0087 A002     		.uleb128 .L46-.LFB1080
 875 0089 00       		.uleb128 0
 876 008a 9902     		.uleb128 .LEHB25-.LFB1080
 877 008c 05       		.uleb128 .LEHE25-.LEHB25
 878 008d AA02     		.uleb128 .L44-.LFB1080
 879 008f 00       		.uleb128 0
 880 0090 C202     		.uleb128 .LEHB26-.LFB1080
 881 0092 05       		.uleb128 .LEHE26-.LEHB26
 882 0093 00       		.uleb128 0
 883 0094 00       		.uleb128 0
 884              	.LLSDACSE1080:
 885 0095 01       		.byte	0x1
 886 0096 00       		.byte	0
 887 0097 00       		.align 4
 888 0098 00000000 		.long	0
 889              	
 890              	.LLSDATT1080:
 891              		.text
 893              		.section	.rodata
 894 01bb 00000000 		.align 8
 894      00
 895              	.LC16:
 896 01c0 53747265 		.string	"StreamingIntWritesCorrectCharacters"
 896      616D696E 
 896      67496E74 
 896      57726974 
 896      6573436F 
 897              		.text
 898              		.align 2
 900              	_ZN12_GLOBAL__N_139TestStreamingIntWritesCorrectCharactersC2Ev:
 901              	.LFB1082:
  31:TestMemoryOutStream.cpp **** 
  32:TestMemoryOutStream.cpp **** TEST(StreamingIntWritesCorrectCharacters)
 902              		.loc 3 32 0
 903              		.cfi_startproc
 904 0542 55       		pushq	%rbp
 905              		.cfi_def_cfa_offset 16
 906              		.cfi_offset 6, -16
 907 0543 4889E5   		movq	%rsp, %rbp
 908              		.cfi_def_cfa_register 6
 909 0546 4883EC10 		subq	$16, %rsp
 910 054a 48897DF8 		movq	%rdi, -8(%rbp)
 911              	.LBB7:
 912              		.loc 3 32 0
 913 054e E8000000 		call	_ZN13UnitTestSuite12GetSuiteNameEv
 913      00
 914 0553 4889C2   		movq	%rax, %rdx
 915 0556 488B45F8 		movq	-8(%rbp), %rax
 916 055a 41B82000 		movl	$32, %r8d
 916      0000
 917 0560 B9000000 		movl	$.LC1, %ecx
 917      00
 918 0565 BE000000 		movl	$.LC16, %esi
 918      00
 919 056a 4889C7   		movq	%rax, %rdi
 920 056d E8000000 		call	_ZN8UnitTest4TestC2EPKcS2_S2_i
 920      00
 921 0572 BA000000 		movl	$_ZTVN12_GLOBAL__N_139TestStreamingIntWritesCorrectCharactersE+16, %edx
 921      00
 922 0577 488B45F8 		movq	-8(%rbp), %rax
 923 057b 488910   		movq	%rdx, (%rax)
 924              	.LBE7:
 925 057e 90       		nop
 926 057f C9       		leave
 927              		.cfi_def_cfa 7, 8
 928 0580 C3       		ret
 929              		.cfi_endproc
 930              	.LFE1082:
 932              		.set	_ZN12_GLOBAL__N_139TestStreamingIntWritesCorrectCharactersC1Ev,_ZN12_GLOBAL__N_139TestStreami
 933              		.local	_ZN12_GLOBAL__N_147testStreamingIntWritesCorrectCharactersInstanceE
 934              		.comm	_ZN12_GLOBAL__N_147testStreamingIntWritesCorrectCharactersInstanceE,56,32
 935              		.local	_ZN12_GLOBAL__N_140adderStreamingIntWritesCorrectCharactersE
 936              		.comm	_ZN12_GLOBAL__N_140adderStreamingIntWritesCorrectCharactersE,1,1
 937              		.section	.rodata
 938              	.LC17:
 939 01e4 31323300 		.string	"123"
 940              		.align 8
 941              	.LC18:
 942 01e8 556E6861 		.string	"Unhandled exception in CHECK_EQUAL(\"123\", stream.GetText())"
 942      6E646C65 
 942      64206578 
 942      63657074 
 942      696F6E20 
 943              		.text
 944 0581 90       		.align 2
 946              	_ZNK12_GLOBAL__N_139TestStreamingIntWritesCorrectCharacters7RunImplEv:
 947              	.LFB1084:
  33:TestMemoryOutStream.cpp **** {
 948              		.loc 3 33 0
 949              		.cfi_startproc
 950              		.cfi_personality 0x3,__gxx_personality_v0
 951              		.cfi_lsda 0x3,.LLSDA1084
 952 0582 55       		pushq	%rbp
 953              		.cfi_def_cfa_offset 16
 954              		.cfi_offset 6, -16
 955 0583 4889E5   		movq	%rsp, %rbp
 956              		.cfi_def_cfa_register 6
 957 0586 53       		pushq	%rbx
 958 0587 4881ECD8 		subq	$472, %rsp
 958      010000
 959              		.cfi_offset 3, -24
 960 058e 4889BD28 		movq	%rdi, -472(%rbp)
 960      FEFFFF
 961              		.loc 3 33 0
 962 0595 64488B04 		movq	%fs:40, %rax
 962      25280000 
 962      00
 963 059e 488945E8 		movq	%rax, -24(%rbp)
 964 05a2 31C0     		xorl	%eax, %eax
  34:TestMemoryOutStream.cpp ****     MemoryOutStream stream;
 965              		.loc 3 34 0
 966 05a4 488D8550 		leaq	-432(%rbp), %rax
 966      FEFFFF
 967 05ab 4889C7   		movq	%rax, %rdi
 968              	.LEHB27:
 969 05ae E8000000 		call	_ZN8UnitTest15MemoryOutStreamC1Ev
 969      00
 970              	.LEHE27:
  35:TestMemoryOutStream.cpp ****     stream << (int)123;
 971              		.loc 3 35 0
 972 05b3 488D8550 		leaq	-432(%rbp), %rax
 972      FEFFFF
 973 05ba BE7B0000 		movl	$123, %esi
 973      00
 974 05bf 4889C7   		movq	%rax, %rdi
 975              	.LEHB28:
 976 05c2 E8000000 		call	_ZNSolsEi
 976      00
 977              	.LEHE28:
 978              	.LEHB29:
  36:TestMemoryOutStream.cpp ****     CHECK_EQUAL("123", stream.GetText());
 979              		.loc 3 36 0
 980 05c7 E8000000 		call	_ZN8UnitTest11CurrentTest7DetailsEv
 980      00
 981 05cc 488B08   		movq	(%rax), %rcx
 982 05cf 488D8530 		leaq	-464(%rbp), %rax
 982      FEFFFF
 983 05d6 BA240000 		movl	$36, %edx
 983      00
 984 05db 4889CE   		movq	%rcx, %rsi
 985 05de 4889C7   		movq	%rax, %rdi
 986 05e1 E8000000 		call	_ZN8UnitTest11TestDetailsC1ERKS0_i
 986      00
 987              		.loc 3 36 0 is_stmt 0 discriminator 2
 988 05e6 488D8550 		leaq	-432(%rbp), %rax
 988      FEFFFF
 989 05ed 4889C7   		movq	%rax, %rdi
 990 05f0 E8000000 		call	_ZNK8UnitTest15MemoryOutStream7GetTextEv
 990      00
 991 05f5 4889C3   		movq	%rax, %rbx
 992 05f8 E8000000 		call	_ZN8UnitTest11CurrentTest7ResultsEv
 992      00
 993              		.loc 3 36 0 discriminator 4
 994 05fd 488B00   		movq	(%rax), %rax
 995 0600 488D9530 		leaq	-464(%rbp), %rdx
 995      FEFFFF
 996 0607 4889D1   		movq	%rdx, %rcx
 997 060a 4889DA   		movq	%rbx, %rdx
 998 060d BE000000 		movl	$.LC17, %esi
 998      00
 999 0612 4889C7   		movq	%rax, %rdi
 1000 0615 E8000000 		call	_ZN8UnitTest10CheckEqualERNS_11TestResultsEPKcS3_RKNS_11TestDetailsE
 1000      00
 1001              	.LEHE29:
 1002              	.L51:
  34:TestMemoryOutStream.cpp ****     MemoryOutStream stream;
 1003              		.loc 3 34 0 is_stmt 1
 1004 061a 488D8550 		leaq	-432(%rbp), %rax
 1004      FEFFFF
 1005 0621 4889C7   		movq	%rax, %rdi
 1006              	.LEHB30:
 1007 0624 E8000000 		call	_ZN8UnitTest15MemoryOutStreamD1Ev
 1007      00
 1008              	.LEHE30:
  37:TestMemoryOutStream.cpp **** }
 1009              		.loc 3 37 0
 1010 0629 90       		nop
 1011 062a 488B45E8 		movq	-24(%rbp), %rax
 1012 062e 64483304 		xorq	%fs:40, %rax
 1012      25280000 
 1012      00
 1013 0637 747B     		je	.L54
 1014 0639 EB74     		jmp	.L58
 1015              	.L56:
  36:TestMemoryOutStream.cpp ****     CHECK_EQUAL("123", stream.GetText());
 1016              		.loc 3 36 0
 1017 063b 4889C7   		movq	%rax, %rdi
 1018 063e E8000000 		call	__cxa_begin_catch
 1018      00
 1019              	.LEHB31:
 1020 0643 E8000000 		call	_ZN8UnitTest11CurrentTest7DetailsEv
 1020      00
 1021 0648 488B08   		movq	(%rax), %rcx
 1022 064b 488D8530 		leaq	-464(%rbp), %rax
 1022      FEFFFF
 1023 0652 BA240000 		movl	$36, %edx
 1023      00
 1024 0657 4889CE   		movq	%rcx, %rsi
 1025 065a 4889C7   		movq	%rax, %rdi
 1026 065d E8000000 		call	_ZN8UnitTest11TestDetailsC1ERKS0_i
 1026      00
  36:TestMemoryOutStream.cpp ****     CHECK_EQUAL("123", stream.GetText());
 1027              		.loc 3 36 0 is_stmt 0 discriminator 12
 1028 0662 E8000000 		call	_ZN8UnitTest11CurrentTest7ResultsEv
 1028      00
 1029 0667 488B00   		movq	(%rax), %rax
 1030 066a 488D8D30 		leaq	-464(%rbp), %rcx
 1030      FEFFFF
 1031 0671 BA000000 		movl	$.LC18, %edx
 1031      00
 1032 0676 4889CE   		movq	%rcx, %rsi
 1033 0679 4889C7   		movq	%rax, %rdi
 1034 067c E8000000 		call	_ZN8UnitTest11TestResults13OnTestFailureERKNS_11TestDetailsEPKc
 1034      00
 1035              	.LEHE31:
 1036              	.LEHB32:
  36:TestMemoryOutStream.cpp ****     CHECK_EQUAL("123", stream.GetText());
 1037              		.loc 3 36 0 discriminator 16
 1038 0681 E8000000 		call	__cxa_end_catch
 1038      00
 1039              	.LEHE32:
  36:TestMemoryOutStream.cpp ****     CHECK_EQUAL("123", stream.GetText());
 1040              		.loc 3 36 0
 1041 0686 EB92     		jmp	.L51
 1042              	.L57:
 1043 0688 4889C3   		movq	%rax, %rbx
 1044 068b E8000000 		call	__cxa_end_catch
 1044      00
 1045 0690 EB03     		jmp	.L53
 1046              	.L55:
 1047 0692 4889C3   		movq	%rax, %rbx
 1048              	.L53:
  34:TestMemoryOutStream.cpp ****     stream << (int)123;
 1049              		.loc 3 34 0 is_stmt 1
 1050 0695 488D8550 		leaq	-432(%rbp), %rax
 1050      FEFFFF
 1051 069c 4889C7   		movq	%rax, %rdi
 1052 069f E8000000 		call	_ZN8UnitTest15MemoryOutStreamD1Ev
 1052      00
 1053 06a4 4889D8   		movq	%rbx, %rax
 1054 06a7 4889C7   		movq	%rax, %rdi
 1055              	.LEHB33:
 1056 06aa E8000000 		call	_Unwind_Resume
 1056      00
 1057              	.LEHE33:
 1058              	.L58:
 1059              		.loc 3 37 0
 1060 06af E8000000 		call	__stack_chk_fail
 1060      00
 1061              	.L54:
 1062 06b4 4881C4D8 		addq	$472, %rsp
 1062      010000
 1063 06bb 5B       		popq	%rbx
 1064 06bc 5D       		popq	%rbp
 1065              		.cfi_def_cfa 7, 8
 1066 06bd C3       		ret
 1067              		.cfi_endproc
 1068              	.LFE1084:
 1069              		.section	.gcc_except_table
 1070              		.align 4
 1071              	.LLSDA1084:
 1072 009c FF       		.byte	0xff
 1073 009d 03       		.byte	0x3
 1074 009e 2D       		.uleb128 .LLSDATT1084-.LLSDATTD1084
 1075              	.LLSDATTD1084:
 1076 009f 01       		.byte	0x1
 1077 00a0 24       		.uleb128 .LLSDACSE1084-.LLSDACSB1084
 1078              	.LLSDACSB1084:
 1079 00a1 2C       		.uleb128 .LEHB27-.LFB1084
 1080 00a2 05       		.uleb128 .LEHE27-.LEHB27
 1081 00a3 00       		.uleb128 0
 1082 00a4 00       		.uleb128 0
 1083 00a5 40       		.uleb128 .LEHB28-.LFB1084
 1084 00a6 05       		.uleb128 .LEHE28-.LEHB28
 1085 00a7 9002     		.uleb128 .L55-.LFB1084
 1086 00a9 00       		.uleb128 0
 1087 00aa 45       		.uleb128 .LEHB29-.LFB1084
 1088 00ab 53       		.uleb128 .LEHE29-.LEHB29
 1089 00ac B901     		.uleb128 .L56-.LFB1084
 1090 00ae 01       		.uleb128 0x1
 1091 00af A201     		.uleb128 .LEHB30-.LFB1084
 1092 00b1 05       		.uleb128 .LEHE30-.LEHB30
 1093 00b2 00       		.uleb128 0
 1094 00b3 00       		.uleb128 0
 1095 00b4 C101     		.uleb128 .LEHB31-.LFB1084
 1096 00b6 3E       		.uleb128 .LEHE31-.LEHB31
 1097 00b7 8602     		.uleb128 .L57-.LFB1084
 1098 00b9 00       		.uleb128 0
 1099 00ba FF01     		.uleb128 .LEHB32-.LFB1084
 1100 00bc 05       		.uleb128 .LEHE32-.LEHB32
 1101 00bd 9002     		.uleb128 .L55-.LFB1084
 1102 00bf 00       		.uleb128 0
 1103 00c0 A802     		.uleb128 .LEHB33-.LFB1084
 1104 00c2 05       		.uleb128 .LEHE33-.LEHB33
 1105 00c3 00       		.uleb128 0
 1106 00c4 00       		.uleb128 0
 1107              	.LLSDACSE1084:
 1108 00c5 01       		.byte	0x1
 1109 00c6 00       		.byte	0
 1110 00c7 00       		.align 4
 1111 00c8 00000000 		.long	0
 1112              	
 1113              	.LLSDATT1084:
 1114              		.text
 1116              		.section	.rodata
 1117 0224 00000000 		.align 8
 1118              	.LC19:
 1119 0228 53747265 		.string	"StreamingUnsignedIntWritesCorrectCharacters"
 1119      616D696E 
 1119      67556E73 
 1119      69676E65 
 1119      64496E74 
 1120              		.text
 1121              		.align 2
 1123              	_ZN12_GLOBAL__N_147TestStreamingUnsignedIntWritesCorrectCharactersC2Ev:
 1124              	.LFB1086:
  38:TestMemoryOutStream.cpp **** 
  39:TestMemoryOutStream.cpp **** TEST(StreamingUnsignedIntWritesCorrectCharacters)
 1125              		.loc 3 39 0
 1126              		.cfi_startproc
 1127 06be 55       		pushq	%rbp
 1128              		.cfi_def_cfa_offset 16
 1129              		.cfi_offset 6, -16
 1130 06bf 4889E5   		movq	%rsp, %rbp
 1131              		.cfi_def_cfa_register 6
 1132 06c2 4883EC10 		subq	$16, %rsp
 1133 06c6 48897DF8 		movq	%rdi, -8(%rbp)
 1134              	.LBB8:
 1135              		.loc 3 39 0
 1136 06ca E8000000 		call	_ZN13UnitTestSuite12GetSuiteNameEv
 1136      00
 1137 06cf 4889C2   		movq	%rax, %rdx
 1138 06d2 488B45F8 		movq	-8(%rbp), %rax
 1139 06d6 41B82700 		movl	$39, %r8d
 1139      0000
 1140 06dc B9000000 		movl	$.LC1, %ecx
 1140      00
 1141 06e1 BE000000 		movl	$.LC19, %esi
 1141      00
 1142 06e6 4889C7   		movq	%rax, %rdi
 1143 06e9 E8000000 		call	_ZN8UnitTest4TestC2EPKcS2_S2_i
 1143      00
 1144 06ee BA000000 		movl	$_ZTVN12_GLOBAL__N_147TestStreamingUnsignedIntWritesCorrectCharactersE+16, %edx
 1144      00
 1145 06f3 488B45F8 		movq	-8(%rbp), %rax
 1146 06f7 488910   		movq	%rdx, (%rax)
 1147              	.LBE8:
 1148 06fa 90       		nop
 1149 06fb C9       		leave
 1150              		.cfi_def_cfa 7, 8
 1151 06fc C3       		ret
 1152              		.cfi_endproc
 1153              	.LFE1086:
 1155              		.set	_ZN12_GLOBAL__N_147TestStreamingUnsignedIntWritesCorrectCharactersC1Ev,_ZN12_GLOBAL__N_147Tes
 1156              		.local	_ZN12_GLOBAL__N_155testStreamingUnsignedIntWritesCorrectCharactersInstanceE
 1157              		.comm	_ZN12_GLOBAL__N_155testStreamingUnsignedIntWritesCorrectCharactersInstanceE,56,32
 1158              		.local	_ZN12_GLOBAL__N_148adderStreamingUnsignedIntWritesCorrectCharactersE
 1159              		.comm	_ZN12_GLOBAL__N_148adderStreamingUnsignedIntWritesCorrectCharactersE,1,1
 1160 06fd 90       		.align 2
 1162              	_ZNK12_GLOBAL__N_147TestStreamingUnsignedIntWritesCorrectCharacters7RunImplEv:
 1163              	.LFB1088:
  40:TestMemoryOutStream.cpp **** {
 1164              		.loc 3 40 0
 1165              		.cfi_startproc
 1166              		.cfi_personality 0x3,__gxx_personality_v0
 1167              		.cfi_lsda 0x3,.LLSDA1088
 1168 06fe 55       		pushq	%rbp
 1169              		.cfi_def_cfa_offset 16
 1170              		.cfi_offset 6, -16
 1171 06ff 4889E5   		movq	%rsp, %rbp
 1172              		.cfi_def_cfa_register 6
 1173 0702 53       		pushq	%rbx
 1174 0703 4881ECD8 		subq	$472, %rsp
 1174      010000
 1175              		.cfi_offset 3, -24
 1176 070a 4889BD28 		movq	%rdi, -472(%rbp)
 1176      FEFFFF
 1177              		.loc 3 40 0
 1178 0711 64488B04 		movq	%fs:40, %rax
 1178      25280000 
 1178      00
 1179 071a 488945E8 		movq	%rax, -24(%rbp)
 1180 071e 31C0     		xorl	%eax, %eax
  41:TestMemoryOutStream.cpp ****     MemoryOutStream stream;
 1181              		.loc 3 41 0
 1182 0720 488D8550 		leaq	-432(%rbp), %rax
 1182      FEFFFF
 1183 0727 4889C7   		movq	%rax, %rdi
 1184              	.LEHB34:
 1185 072a E8000000 		call	_ZN8UnitTest15MemoryOutStreamC1Ev
 1185      00
 1186              	.LEHE34:
  42:TestMemoryOutStream.cpp ****     stream << (unsigned int)123;
 1187              		.loc 3 42 0
 1188 072f 488D8550 		leaq	-432(%rbp), %rax
 1188      FEFFFF
 1189 0736 BE7B0000 		movl	$123, %esi
 1189      00
 1190 073b 4889C7   		movq	%rax, %rdi
 1191              	.LEHB35:
 1192 073e E8000000 		call	_ZNSolsEj
 1192      00
 1193              	.LEHE35:
 1194              	.LEHB36:
  43:TestMemoryOutStream.cpp ****     CHECK_EQUAL("123", stream.GetText());
 1195              		.loc 3 43 0
 1196 0743 E8000000 		call	_ZN8UnitTest11CurrentTest7DetailsEv
 1196      00
 1197 0748 488B08   		movq	(%rax), %rcx
 1198 074b 488D8530 		leaq	-464(%rbp), %rax
 1198      FEFFFF
 1199 0752 BA2B0000 		movl	$43, %edx
 1199      00
 1200 0757 4889CE   		movq	%rcx, %rsi
 1201 075a 4889C7   		movq	%rax, %rdi
 1202 075d E8000000 		call	_ZN8UnitTest11TestDetailsC1ERKS0_i
 1202      00
 1203              		.loc 3 43 0 is_stmt 0 discriminator 2
 1204 0762 488D8550 		leaq	-432(%rbp), %rax
 1204      FEFFFF
 1205 0769 4889C7   		movq	%rax, %rdi
 1206 076c E8000000 		call	_ZNK8UnitTest15MemoryOutStream7GetTextEv
 1206      00
 1207 0771 4889C3   		movq	%rax, %rbx
 1208 0774 E8000000 		call	_ZN8UnitTest11CurrentTest7ResultsEv
 1208      00
 1209              		.loc 3 43 0 discriminator 4
 1210 0779 488B00   		movq	(%rax), %rax
 1211 077c 488D9530 		leaq	-464(%rbp), %rdx
 1211      FEFFFF
 1212 0783 4889D1   		movq	%rdx, %rcx
 1213 0786 4889DA   		movq	%rbx, %rdx
 1214 0789 BE000000 		movl	$.LC17, %esi
 1214      00
 1215 078e 4889C7   		movq	%rax, %rdi
 1216 0791 E8000000 		call	_ZN8UnitTest10CheckEqualERNS_11TestResultsEPKcS3_RKNS_11TestDetailsE
 1216      00
 1217              	.LEHE36:
 1218              	.L62:
  41:TestMemoryOutStream.cpp ****     MemoryOutStream stream;
 1219              		.loc 3 41 0 is_stmt 1
 1220 0796 488D8550 		leaq	-432(%rbp), %rax
 1220      FEFFFF
 1221 079d 4889C7   		movq	%rax, %rdi
 1222              	.LEHB37:
 1223 07a0 E8000000 		call	_ZN8UnitTest15MemoryOutStreamD1Ev
 1223      00
 1224              	.LEHE37:
  44:TestMemoryOutStream.cpp **** }
 1225              		.loc 3 44 0
 1226 07a5 90       		nop
 1227 07a6 488B45E8 		movq	-24(%rbp), %rax
 1228 07aa 64483304 		xorq	%fs:40, %rax
 1228      25280000 
 1228      00
 1229 07b3 747B     		je	.L65
 1230 07b5 EB74     		jmp	.L69
 1231              	.L67:
  43:TestMemoryOutStream.cpp ****     CHECK_EQUAL("123", stream.GetText());
 1232              		.loc 3 43 0
 1233 07b7 4889C7   		movq	%rax, %rdi
 1234 07ba E8000000 		call	__cxa_begin_catch
 1234      00
 1235              	.LEHB38:
 1236 07bf E8000000 		call	_ZN8UnitTest11CurrentTest7DetailsEv
 1236      00
 1237 07c4 488B08   		movq	(%rax), %rcx
 1238 07c7 488D8530 		leaq	-464(%rbp), %rax
 1238      FEFFFF
 1239 07ce BA2B0000 		movl	$43, %edx
 1239      00
 1240 07d3 4889CE   		movq	%rcx, %rsi
 1241 07d6 4889C7   		movq	%rax, %rdi
 1242 07d9 E8000000 		call	_ZN8UnitTest11TestDetailsC1ERKS0_i
 1242      00
  43:TestMemoryOutStream.cpp ****     CHECK_EQUAL("123", stream.GetText());
 1243              		.loc 3 43 0 is_stmt 0 discriminator 12
 1244 07de E8000000 		call	_ZN8UnitTest11CurrentTest7ResultsEv
 1244      00
 1245 07e3 488B00   		movq	(%rax), %rax
 1246 07e6 488D8D30 		leaq	-464(%rbp), %rcx
 1246      FEFFFF
 1247 07ed BA000000 		movl	$.LC18, %edx
 1247      00
 1248 07f2 4889CE   		movq	%rcx, %rsi
 1249 07f5 4889C7   		movq	%rax, %rdi
 1250 07f8 E8000000 		call	_ZN8UnitTest11TestResults13OnTestFailureERKNS_11TestDetailsEPKc
 1250      00
 1251              	.LEHE38:
 1252              	.LEHB39:
  43:TestMemoryOutStream.cpp ****     CHECK_EQUAL("123", stream.GetText());
 1253              		.loc 3 43 0 discriminator 16
 1254 07fd E8000000 		call	__cxa_end_catch
 1254      00
 1255              	.LEHE39:
  43:TestMemoryOutStream.cpp ****     CHECK_EQUAL("123", stream.GetText());
 1256              		.loc 3 43 0
 1257 0802 EB92     		jmp	.L62
 1258              	.L68:
 1259 0804 4889C3   		movq	%rax, %rbx
 1260 0807 E8000000 		call	__cxa_end_catch
 1260      00
 1261 080c EB03     		jmp	.L64
 1262              	.L66:
 1263 080e 4889C3   		movq	%rax, %rbx
 1264              	.L64:
  41:TestMemoryOutStream.cpp ****     stream << (unsigned int)123;
 1265              		.loc 3 41 0 is_stmt 1
 1266 0811 488D8550 		leaq	-432(%rbp), %rax
 1266      FEFFFF
 1267 0818 4889C7   		movq	%rax, %rdi
 1268 081b E8000000 		call	_ZN8UnitTest15MemoryOutStreamD1Ev
 1268      00
 1269 0820 4889D8   		movq	%rbx, %rax
 1270 0823 4889C7   		movq	%rax, %rdi
 1271              	.LEHB40:
 1272 0826 E8000000 		call	_Unwind_Resume
 1272      00
 1273              	.LEHE40:
 1274              	.L69:
 1275              		.loc 3 44 0
 1276 082b E8000000 		call	__stack_chk_fail
 1276      00
 1277              	.L65:
 1278 0830 4881C4D8 		addq	$472, %rsp
 1278      010000
 1279 0837 5B       		popq	%rbx
 1280 0838 5D       		popq	%rbp
 1281              		.cfi_def_cfa 7, 8
 1282 0839 C3       		ret
 1283              		.cfi_endproc
 1284              	.LFE1088:
 1285              		.section	.gcc_except_table
 1286              		.align 4
 1287              	.LLSDA1088:
 1288 00cc FF       		.byte	0xff
 1289 00cd 03       		.byte	0x3
 1290 00ce 2D       		.uleb128 .LLSDATT1088-.LLSDATTD1088
 1291              	.LLSDATTD1088:
 1292 00cf 01       		.byte	0x1
 1293 00d0 24       		.uleb128 .LLSDACSE1088-.LLSDACSB1088
 1294              	.LLSDACSB1088:
 1295 00d1 2C       		.uleb128 .LEHB34-.LFB1088
 1296 00d2 05       		.uleb128 .LEHE34-.LEHB34
 1297 00d3 00       		.uleb128 0
 1298 00d4 00       		.uleb128 0
 1299 00d5 40       		.uleb128 .LEHB35-.LFB1088
 1300 00d6 05       		.uleb128 .LEHE35-.LEHB35
 1301 00d7 9002     		.uleb128 .L66-.LFB1088
 1302 00d9 00       		.uleb128 0
 1303 00da 45       		.uleb128 .LEHB36-.LFB1088
 1304 00db 53       		.uleb128 .LEHE36-.LEHB36
 1305 00dc B901     		.uleb128 .L67-.LFB1088
 1306 00de 01       		.uleb128 0x1
 1307 00df A201     		.uleb128 .LEHB37-.LFB1088
 1308 00e1 05       		.uleb128 .LEHE37-.LEHB37
 1309 00e2 00       		.uleb128 0
 1310 00e3 00       		.uleb128 0
 1311 00e4 C101     		.uleb128 .LEHB38-.LFB1088
 1312 00e6 3E       		.uleb128 .LEHE38-.LEHB38
 1313 00e7 8602     		.uleb128 .L68-.LFB1088
 1314 00e9 00       		.uleb128 0
 1315 00ea FF01     		.uleb128 .LEHB39-.LFB1088
 1316 00ec 05       		.uleb128 .LEHE39-.LEHB39
 1317 00ed 9002     		.uleb128 .L66-.LFB1088
 1318 00ef 00       		.uleb128 0
 1319 00f0 A802     		.uleb128 .LEHB40-.LFB1088
 1320 00f2 05       		.uleb128 .LEHE40-.LEHB40
 1321 00f3 00       		.uleb128 0
 1322 00f4 00       		.uleb128 0
 1323              	.LLSDACSE1088:
 1324 00f5 01       		.byte	0x1
 1325 00f6 00       		.byte	0
 1326 00f7 00       		.align 4
 1327 00f8 00000000 		.long	0
 1328              	
 1329              	.LLSDATT1088:
 1330              		.text
 1332              		.section	.rodata
 1333 0254 00000000 		.align 8
 1334              	.LC20:
 1335 0258 53747265 		.string	"StreamingLongWritesCorrectCharacters"
 1335      616D696E 
 1335      674C6F6E 
 1335      67577269 
 1335      74657343 
 1336              		.text
 1337              		.align 2
 1339              	_ZN12_GLOBAL__N_140TestStreamingLongWritesCorrectCharactersC2Ev:
 1340              	.LFB1090:
  45:TestMemoryOutStream.cpp **** 
  46:TestMemoryOutStream.cpp **** TEST(StreamingLongWritesCorrectCharacters)
 1341              		.loc 3 46 0
 1342              		.cfi_startproc
 1343 083a 55       		pushq	%rbp
 1344              		.cfi_def_cfa_offset 16
 1345              		.cfi_offset 6, -16
 1346 083b 4889E5   		movq	%rsp, %rbp
 1347              		.cfi_def_cfa_register 6
 1348 083e 4883EC10 		subq	$16, %rsp
 1349 0842 48897DF8 		movq	%rdi, -8(%rbp)
 1350              	.LBB9:
 1351              		.loc 3 46 0
 1352 0846 E8000000 		call	_ZN13UnitTestSuite12GetSuiteNameEv
 1352      00
 1353 084b 4889C2   		movq	%rax, %rdx
 1354 084e 488B45F8 		movq	-8(%rbp), %rax
 1355 0852 41B82E00 		movl	$46, %r8d
 1355      0000
 1356 0858 B9000000 		movl	$.LC1, %ecx
 1356      00
 1357 085d BE000000 		movl	$.LC20, %esi
 1357      00
 1358 0862 4889C7   		movq	%rax, %rdi
 1359 0865 E8000000 		call	_ZN8UnitTest4TestC2EPKcS2_S2_i
 1359      00
 1360 086a BA000000 		movl	$_ZTVN12_GLOBAL__N_140TestStreamingLongWritesCorrectCharactersE+16, %edx
 1360      00
 1361 086f 488B45F8 		movq	-8(%rbp), %rax
 1362 0873 488910   		movq	%rdx, (%rax)
 1363              	.LBE9:
 1364 0876 90       		nop
 1365 0877 C9       		leave
 1366              		.cfi_def_cfa 7, 8
 1367 0878 C3       		ret
 1368              		.cfi_endproc
 1369              	.LFE1090:
 1371              		.set	_ZN12_GLOBAL__N_140TestStreamingLongWritesCorrectCharactersC1Ev,_ZN12_GLOBAL__N_140TestStream
 1372              		.local	_ZN12_GLOBAL__N_148testStreamingLongWritesCorrectCharactersInstanceE
 1373              		.comm	_ZN12_GLOBAL__N_148testStreamingLongWritesCorrectCharactersInstanceE,56,32
 1374              		.local	_ZN12_GLOBAL__N_141adderStreamingLongWritesCorrectCharactersE
 1375              		.comm	_ZN12_GLOBAL__N_141adderStreamingLongWritesCorrectCharactersE,1,1
 1376              		.section	.rodata
 1377              	.LC21:
 1378 027d 2D313233 		.string	"-123"
 1378      00
 1379 0282 00000000 		.align 8
 1379      0000
 1380              	.LC22:
 1381 0288 556E6861 		.string	"Unhandled exception in CHECK_EQUAL(\"-123\", stream.GetText())"
 1381      6E646C65 
 1381      64206578 
 1381      63657074 
 1381      696F6E20 
 1382              		.text
 1383 0879 90       		.align 2
 1385              	_ZNK12_GLOBAL__N_140TestStreamingLongWritesCorrectCharacters7RunImplEv:
 1386              	.LFB1092:
  47:TestMemoryOutStream.cpp **** {
 1387              		.loc 3 47 0
 1388              		.cfi_startproc
 1389              		.cfi_personality 0x3,__gxx_personality_v0
 1390              		.cfi_lsda 0x3,.LLSDA1092
 1391 087a 55       		pushq	%rbp
 1392              		.cfi_def_cfa_offset 16
 1393              		.cfi_offset 6, -16
 1394 087b 4889E5   		movq	%rsp, %rbp
 1395              		.cfi_def_cfa_register 6
 1396 087e 53       		pushq	%rbx
 1397 087f 4881ECD8 		subq	$472, %rsp
 1397      010000
 1398              		.cfi_offset 3, -24
 1399 0886 4889BD28 		movq	%rdi, -472(%rbp)
 1399      FEFFFF
 1400              		.loc 3 47 0
 1401 088d 64488B04 		movq	%fs:40, %rax
 1401      25280000 
 1401      00
 1402 0896 488945E8 		movq	%rax, -24(%rbp)
 1403 089a 31C0     		xorl	%eax, %eax
  48:TestMemoryOutStream.cpp ****     MemoryOutStream stream;
 1404              		.loc 3 48 0
 1405 089c 488D8550 		leaq	-432(%rbp), %rax
 1405      FEFFFF
 1406 08a3 4889C7   		movq	%rax, %rdi
 1407              	.LEHB41:
 1408 08a6 E8000000 		call	_ZN8UnitTest15MemoryOutStreamC1Ev
 1408      00
 1409              	.LEHE41:
  49:TestMemoryOutStream.cpp ****     stream << (long)(-123);
 1410              		.loc 3 49 0
 1411 08ab 488D8550 		leaq	-432(%rbp), %rax
 1411      FEFFFF
 1412 08b2 48C7C685 		movq	$-123, %rsi
 1412      FFFFFF
 1413 08b9 4889C7   		movq	%rax, %rdi
 1414              	.LEHB42:
 1415 08bc E8000000 		call	_ZNSolsEl
 1415      00
 1416              	.LEHE42:
 1417              	.LEHB43:
  50:TestMemoryOutStream.cpp ****     CHECK_EQUAL("-123", stream.GetText());
 1418              		.loc 3 50 0
 1419 08c1 E8000000 		call	_ZN8UnitTest11CurrentTest7DetailsEv
 1419      00
 1420 08c6 488B08   		movq	(%rax), %rcx
 1421 08c9 488D8530 		leaq	-464(%rbp), %rax
 1421      FEFFFF
 1422 08d0 BA320000 		movl	$50, %edx
 1422      00
 1423 08d5 4889CE   		movq	%rcx, %rsi
 1424 08d8 4889C7   		movq	%rax, %rdi
 1425 08db E8000000 		call	_ZN8UnitTest11TestDetailsC1ERKS0_i
 1425      00
 1426              		.loc 3 50 0 is_stmt 0 discriminator 2
 1427 08e0 488D8550 		leaq	-432(%rbp), %rax
 1427      FEFFFF
 1428 08e7 4889C7   		movq	%rax, %rdi
 1429 08ea E8000000 		call	_ZNK8UnitTest15MemoryOutStream7GetTextEv
 1429      00
 1430 08ef 4889C3   		movq	%rax, %rbx
 1431 08f2 E8000000 		call	_ZN8UnitTest11CurrentTest7ResultsEv
 1431      00
 1432              		.loc 3 50 0 discriminator 4
 1433 08f7 488B00   		movq	(%rax), %rax
 1434 08fa 488D9530 		leaq	-464(%rbp), %rdx
 1434      FEFFFF
 1435 0901 4889D1   		movq	%rdx, %rcx
 1436 0904 4889DA   		movq	%rbx, %rdx
 1437 0907 BE000000 		movl	$.LC21, %esi
 1437      00
 1438 090c 4889C7   		movq	%rax, %rdi
 1439 090f E8000000 		call	_ZN8UnitTest10CheckEqualERNS_11TestResultsEPKcS3_RKNS_11TestDetailsE
 1439      00
 1440              	.LEHE43:
 1441              	.L73:
  48:TestMemoryOutStream.cpp ****     MemoryOutStream stream;
 1442              		.loc 3 48 0 is_stmt 1
 1443 0914 488D8550 		leaq	-432(%rbp), %rax
 1443      FEFFFF
 1444 091b 4889C7   		movq	%rax, %rdi
 1445              	.LEHB44:
 1446 091e E8000000 		call	_ZN8UnitTest15MemoryOutStreamD1Ev
 1446      00
 1447              	.LEHE44:
  51:TestMemoryOutStream.cpp **** }
 1448              		.loc 3 51 0
 1449 0923 90       		nop
 1450 0924 488B45E8 		movq	-24(%rbp), %rax
 1451 0928 64483304 		xorq	%fs:40, %rax
 1451      25280000 
 1451      00
 1452 0931 747B     		je	.L76
 1453 0933 EB74     		jmp	.L80
 1454              	.L78:
  50:TestMemoryOutStream.cpp ****     CHECK_EQUAL("-123", stream.GetText());
 1455              		.loc 3 50 0
 1456 0935 4889C7   		movq	%rax, %rdi
 1457 0938 E8000000 		call	__cxa_begin_catch
 1457      00
 1458              	.LEHB45:
 1459 093d E8000000 		call	_ZN8UnitTest11CurrentTest7DetailsEv
 1459      00
 1460 0942 488B08   		movq	(%rax), %rcx
 1461 0945 488D8530 		leaq	-464(%rbp), %rax
 1461      FEFFFF
 1462 094c BA320000 		movl	$50, %edx
 1462      00
 1463 0951 4889CE   		movq	%rcx, %rsi
 1464 0954 4889C7   		movq	%rax, %rdi
 1465 0957 E8000000 		call	_ZN8UnitTest11TestDetailsC1ERKS0_i
 1465      00
  50:TestMemoryOutStream.cpp ****     CHECK_EQUAL("-123", stream.GetText());
 1466              		.loc 3 50 0 is_stmt 0 discriminator 12
 1467 095c E8000000 		call	_ZN8UnitTest11CurrentTest7ResultsEv
 1467      00
 1468 0961 488B00   		movq	(%rax), %rax
 1469 0964 488D8D30 		leaq	-464(%rbp), %rcx
 1469      FEFFFF
 1470 096b BA000000 		movl	$.LC22, %edx
 1470      00
 1471 0970 4889CE   		movq	%rcx, %rsi
 1472 0973 4889C7   		movq	%rax, %rdi
 1473 0976 E8000000 		call	_ZN8UnitTest11TestResults13OnTestFailureERKNS_11TestDetailsEPKc
 1473      00
 1474              	.LEHE45:
 1475              	.LEHB46:
  50:TestMemoryOutStream.cpp ****     CHECK_EQUAL("-123", stream.GetText());
 1476              		.loc 3 50 0 discriminator 16
 1477 097b E8000000 		call	__cxa_end_catch
 1477      00
 1478              	.LEHE46:
  50:TestMemoryOutStream.cpp ****     CHECK_EQUAL("-123", stream.GetText());
 1479              		.loc 3 50 0
 1480 0980 EB92     		jmp	.L73
 1481              	.L79:
 1482 0982 4889C3   		movq	%rax, %rbx
 1483 0985 E8000000 		call	__cxa_end_catch
 1483      00
 1484 098a EB03     		jmp	.L75
 1485              	.L77:
 1486 098c 4889C3   		movq	%rax, %rbx
 1487              	.L75:
  48:TestMemoryOutStream.cpp ****     stream << (long)(-123);
 1488              		.loc 3 48 0 is_stmt 1
 1489 098f 488D8550 		leaq	-432(%rbp), %rax
 1489      FEFFFF
 1490 0996 4889C7   		movq	%rax, %rdi
 1491 0999 E8000000 		call	_ZN8UnitTest15MemoryOutStreamD1Ev
 1491      00
 1492 099e 4889D8   		movq	%rbx, %rax
 1493 09a1 4889C7   		movq	%rax, %rdi
 1494              	.LEHB47:
 1495 09a4 E8000000 		call	_Unwind_Resume
 1495      00
 1496              	.LEHE47:
 1497              	.L80:
 1498              		.loc 3 51 0
 1499 09a9 E8000000 		call	__stack_chk_fail
 1499      00
 1500              	.L76:
 1501 09ae 4881C4D8 		addq	$472, %rsp
 1501      010000
 1502 09b5 5B       		popq	%rbx
 1503 09b6 5D       		popq	%rbp
 1504              		.cfi_def_cfa 7, 8
 1505 09b7 C3       		ret
 1506              		.cfi_endproc
 1507              	.LFE1092:
 1508              		.section	.gcc_except_table
 1509              		.align 4
 1510              	.LLSDA1092:
 1511 00fc FF       		.byte	0xff
 1512 00fd 03       		.byte	0x3
 1513 00fe 2D       		.uleb128 .LLSDATT1092-.LLSDATTD1092
 1514              	.LLSDATTD1092:
 1515 00ff 01       		.byte	0x1
 1516 0100 24       		.uleb128 .LLSDACSE1092-.LLSDACSB1092
 1517              	.LLSDACSB1092:
 1518 0101 2C       		.uleb128 .LEHB41-.LFB1092
 1519 0102 05       		.uleb128 .LEHE41-.LEHB41
 1520 0103 00       		.uleb128 0
 1521 0104 00       		.uleb128 0
 1522 0105 42       		.uleb128 .LEHB42-.LFB1092
 1523 0106 05       		.uleb128 .LEHE42-.LEHB42
 1524 0107 9202     		.uleb128 .L77-.LFB1092
 1525 0109 00       		.uleb128 0
 1526 010a 47       		.uleb128 .LEHB43-.LFB1092
 1527 010b 53       		.uleb128 .LEHE43-.LEHB43
 1528 010c BB01     		.uleb128 .L78-.LFB1092
 1529 010e 01       		.uleb128 0x1
 1530 010f A401     		.uleb128 .LEHB44-.LFB1092
 1531 0111 05       		.uleb128 .LEHE44-.LEHB44
 1532 0112 00       		.uleb128 0
 1533 0113 00       		.uleb128 0
 1534 0114 C301     		.uleb128 .LEHB45-.LFB1092
 1535 0116 3E       		.uleb128 .LEHE45-.LEHB45
 1536 0117 8802     		.uleb128 .L79-.LFB1092
 1537 0119 00       		.uleb128 0
 1538 011a 8102     		.uleb128 .LEHB46-.LFB1092
 1539 011c 05       		.uleb128 .LEHE46-.LEHB46
 1540 011d 9202     		.uleb128 .L77-.LFB1092
 1541 011f 00       		.uleb128 0
 1542 0120 AA02     		.uleb128 .LEHB47-.LFB1092
 1543 0122 05       		.uleb128 .LEHE47-.LEHB47
 1544 0123 00       		.uleb128 0
 1545 0124 00       		.uleb128 0
 1546              	.LLSDACSE1092:
 1547 0125 01       		.byte	0x1
 1548 0126 00       		.byte	0
 1549 0127 00       		.align 4
 1550 0128 00000000 		.long	0
 1551              	
 1552              	.LLSDATT1092:
 1553              		.text
 1555              		.section	.rodata
 1556 02c5 000000   		.align 8
 1557              	.LC23:
 1558 02c8 53747265 		.string	"StreamingUnsignedLongWritesCorrectCharacters"
 1558      616D696E 
 1558      67556E73 
 1558      69676E65 
 1558      644C6F6E 
 1559              		.text
 1560              		.align 2
 1562              	_ZN12_GLOBAL__N_148TestStreamingUnsignedLongWritesCorrectCharactersC2Ev:
 1563              	.LFB1094:
  52:TestMemoryOutStream.cpp **** 
  53:TestMemoryOutStream.cpp **** TEST(StreamingUnsignedLongWritesCorrectCharacters)
 1564              		.loc 3 53 0
 1565              		.cfi_startproc
 1566 09b8 55       		pushq	%rbp
 1567              		.cfi_def_cfa_offset 16
 1568              		.cfi_offset 6, -16
 1569 09b9 4889E5   		movq	%rsp, %rbp
 1570              		.cfi_def_cfa_register 6
 1571 09bc 4883EC10 		subq	$16, %rsp
 1572 09c0 48897DF8 		movq	%rdi, -8(%rbp)
 1573              	.LBB10:
 1574              		.loc 3 53 0
 1575 09c4 E8000000 		call	_ZN13UnitTestSuite12GetSuiteNameEv
 1575      00
 1576 09c9 4889C2   		movq	%rax, %rdx
 1577 09cc 488B45F8 		movq	-8(%rbp), %rax
 1578 09d0 41B83500 		movl	$53, %r8d
 1578      0000
 1579 09d6 B9000000 		movl	$.LC1, %ecx
 1579      00
 1580 09db BE000000 		movl	$.LC23, %esi
 1580      00
 1581 09e0 4889C7   		movq	%rax, %rdi
 1582 09e3 E8000000 		call	_ZN8UnitTest4TestC2EPKcS2_S2_i
 1582      00
 1583 09e8 BA000000 		movl	$_ZTVN12_GLOBAL__N_148TestStreamingUnsignedLongWritesCorrectCharactersE+16, %edx
 1583      00
 1584 09ed 488B45F8 		movq	-8(%rbp), %rax
 1585 09f1 488910   		movq	%rdx, (%rax)
 1586              	.LBE10:
 1587 09f4 90       		nop
 1588 09f5 C9       		leave
 1589              		.cfi_def_cfa 7, 8
 1590 09f6 C3       		ret
 1591              		.cfi_endproc
 1592              	.LFE1094:
 1594              		.set	_ZN12_GLOBAL__N_148TestStreamingUnsignedLongWritesCorrectCharactersC1Ev,_ZN12_GLOBAL__N_148Te
 1595              		.local	_ZN12_GLOBAL__N_156testStreamingUnsignedLongWritesCorrectCharactersInstanceE
 1596              		.comm	_ZN12_GLOBAL__N_156testStreamingUnsignedLongWritesCorrectCharactersInstanceE,56,32
 1597              		.local	_ZN12_GLOBAL__N_149adderStreamingUnsignedLongWritesCorrectCharactersE
 1598              		.comm	_ZN12_GLOBAL__N_149adderStreamingUnsignedLongWritesCorrectCharactersE,1,1
 1599 09f7 90       		.align 2
 1601              	_ZNK12_GLOBAL__N_148TestStreamingUnsignedLongWritesCorrectCharacters7RunImplEv:
 1602              	.LFB1096:
  54:TestMemoryOutStream.cpp **** {
 1603              		.loc 3 54 0
 1604              		.cfi_startproc
 1605              		.cfi_personality 0x3,__gxx_personality_v0
 1606              		.cfi_lsda 0x3,.LLSDA1096
 1607 09f8 55       		pushq	%rbp
 1608              		.cfi_def_cfa_offset 16
 1609              		.cfi_offset 6, -16
 1610 09f9 4889E5   		movq	%rsp, %rbp
 1611              		.cfi_def_cfa_register 6
 1612 09fc 53       		pushq	%rbx
 1613 09fd 4881ECD8 		subq	$472, %rsp
 1613      010000
 1614              		.cfi_offset 3, -24
 1615 0a04 4889BD28 		movq	%rdi, -472(%rbp)
 1615      FEFFFF
 1616              		.loc 3 54 0
 1617 0a0b 64488B04 		movq	%fs:40, %rax
 1617      25280000 
 1617      00
 1618 0a14 488945E8 		movq	%rax, -24(%rbp)
 1619 0a18 31C0     		xorl	%eax, %eax
  55:TestMemoryOutStream.cpp ****     MemoryOutStream stream;
 1620              		.loc 3 55 0
 1621 0a1a 488D8550 		leaq	-432(%rbp), %rax
 1621      FEFFFF
 1622 0a21 4889C7   		movq	%rax, %rdi
 1623              	.LEHB48:
 1624 0a24 E8000000 		call	_ZN8UnitTest15MemoryOutStreamC1Ev
 1624      00
 1625              	.LEHE48:
  56:TestMemoryOutStream.cpp ****     stream << (unsigned long)123;
 1626              		.loc 3 56 0
 1627 0a29 488D8550 		leaq	-432(%rbp), %rax
 1627      FEFFFF
 1628 0a30 BE7B0000 		movl	$123, %esi
 1628      00
 1629 0a35 4889C7   		movq	%rax, %rdi
 1630              	.LEHB49:
 1631 0a38 E8000000 		call	_ZNSolsEm
 1631      00
 1632              	.LEHE49:
 1633              	.LEHB50:
  57:TestMemoryOutStream.cpp ****     CHECK_EQUAL("123", stream.GetText());
 1634              		.loc 3 57 0
 1635 0a3d E8000000 		call	_ZN8UnitTest11CurrentTest7DetailsEv
 1635      00
 1636 0a42 488B08   		movq	(%rax), %rcx
 1637 0a45 488D8530 		leaq	-464(%rbp), %rax
 1637      FEFFFF
 1638 0a4c BA390000 		movl	$57, %edx
 1638      00
 1639 0a51 4889CE   		movq	%rcx, %rsi
 1640 0a54 4889C7   		movq	%rax, %rdi
 1641 0a57 E8000000 		call	_ZN8UnitTest11TestDetailsC1ERKS0_i
 1641      00
 1642              		.loc 3 57 0 is_stmt 0 discriminator 2
 1643 0a5c 488D8550 		leaq	-432(%rbp), %rax
 1643      FEFFFF
 1644 0a63 4889C7   		movq	%rax, %rdi
 1645 0a66 E8000000 		call	_ZNK8UnitTest15MemoryOutStream7GetTextEv
 1645      00
 1646 0a6b 4889C3   		movq	%rax, %rbx
 1647 0a6e E8000000 		call	_ZN8UnitTest11CurrentTest7ResultsEv
 1647      00
 1648              		.loc 3 57 0 discriminator 4
 1649 0a73 488B00   		movq	(%rax), %rax
 1650 0a76 488D9530 		leaq	-464(%rbp), %rdx
 1650      FEFFFF
 1651 0a7d 4889D1   		movq	%rdx, %rcx
 1652 0a80 4889DA   		movq	%rbx, %rdx
 1653 0a83 BE000000 		movl	$.LC17, %esi
 1653      00
 1654 0a88 4889C7   		movq	%rax, %rdi
 1655 0a8b E8000000 		call	_ZN8UnitTest10CheckEqualERNS_11TestResultsEPKcS3_RKNS_11TestDetailsE
 1655      00
 1656              	.LEHE50:
 1657              	.L84:
  55:TestMemoryOutStream.cpp ****     MemoryOutStream stream;
 1658              		.loc 3 55 0 is_stmt 1
 1659 0a90 488D8550 		leaq	-432(%rbp), %rax
 1659      FEFFFF
 1660 0a97 4889C7   		movq	%rax, %rdi
 1661              	.LEHB51:
 1662 0a9a E8000000 		call	_ZN8UnitTest15MemoryOutStreamD1Ev
 1662      00
 1663              	.LEHE51:
  58:TestMemoryOutStream.cpp **** }
 1664              		.loc 3 58 0
 1665 0a9f 90       		nop
 1666 0aa0 488B45E8 		movq	-24(%rbp), %rax
 1667 0aa4 64483304 		xorq	%fs:40, %rax
 1667      25280000 
 1667      00
 1668 0aad 747B     		je	.L87
 1669 0aaf EB74     		jmp	.L91
 1670              	.L89:
  57:TestMemoryOutStream.cpp ****     CHECK_EQUAL("123", stream.GetText());
 1671              		.loc 3 57 0
 1672 0ab1 4889C7   		movq	%rax, %rdi
 1673 0ab4 E8000000 		call	__cxa_begin_catch
 1673      00
 1674              	.LEHB52:
 1675 0ab9 E8000000 		call	_ZN8UnitTest11CurrentTest7DetailsEv
 1675      00
 1676 0abe 488B08   		movq	(%rax), %rcx
 1677 0ac1 488D8530 		leaq	-464(%rbp), %rax
 1677      FEFFFF
 1678 0ac8 BA390000 		movl	$57, %edx
 1678      00
 1679 0acd 4889CE   		movq	%rcx, %rsi
 1680 0ad0 4889C7   		movq	%rax, %rdi
 1681 0ad3 E8000000 		call	_ZN8UnitTest11TestDetailsC1ERKS0_i
 1681      00
  57:TestMemoryOutStream.cpp ****     CHECK_EQUAL("123", stream.GetText());
 1682              		.loc 3 57 0 is_stmt 0 discriminator 12
 1683 0ad8 E8000000 		call	_ZN8UnitTest11CurrentTest7ResultsEv
 1683      00
 1684 0add 488B00   		movq	(%rax), %rax
 1685 0ae0 488D8D30 		leaq	-464(%rbp), %rcx
 1685      FEFFFF
 1686 0ae7 BA000000 		movl	$.LC18, %edx
 1686      00
 1687 0aec 4889CE   		movq	%rcx, %rsi
 1688 0aef 4889C7   		movq	%rax, %rdi
 1689 0af2 E8000000 		call	_ZN8UnitTest11TestResults13OnTestFailureERKNS_11TestDetailsEPKc
 1689      00
 1690              	.LEHE52:
 1691              	.LEHB53:
  57:TestMemoryOutStream.cpp ****     CHECK_EQUAL("123", stream.GetText());
 1692              		.loc 3 57 0 discriminator 16
 1693 0af7 E8000000 		call	__cxa_end_catch
 1693      00
 1694              	.LEHE53:
  57:TestMemoryOutStream.cpp ****     CHECK_EQUAL("123", stream.GetText());
 1695              		.loc 3 57 0
 1696 0afc EB92     		jmp	.L84
 1697              	.L90:
 1698 0afe 4889C3   		movq	%rax, %rbx
 1699 0b01 E8000000 		call	__cxa_end_catch
 1699      00
 1700 0b06 EB03     		jmp	.L86
 1701              	.L88:
 1702 0b08 4889C3   		movq	%rax, %rbx
 1703              	.L86:
  55:TestMemoryOutStream.cpp ****     stream << (unsigned long)123;
 1704              		.loc 3 55 0 is_stmt 1
 1705 0b0b 488D8550 		leaq	-432(%rbp), %rax
 1705      FEFFFF
 1706 0b12 4889C7   		movq	%rax, %rdi
 1707 0b15 E8000000 		call	_ZN8UnitTest15MemoryOutStreamD1Ev
 1707      00
 1708 0b1a 4889D8   		movq	%rbx, %rax
 1709 0b1d 4889C7   		movq	%rax, %rdi
 1710              	.LEHB54:
 1711 0b20 E8000000 		call	_Unwind_Resume
 1711      00
 1712              	.LEHE54:
 1713              	.L91:
 1714              		.loc 3 58 0
 1715 0b25 E8000000 		call	__stack_chk_fail
 1715      00
 1716              	.L87:
 1717 0b2a 4881C4D8 		addq	$472, %rsp
 1717      010000
 1718 0b31 5B       		popq	%rbx
 1719 0b32 5D       		popq	%rbp
 1720              		.cfi_def_cfa 7, 8
 1721 0b33 C3       		ret
 1722              		.cfi_endproc
 1723              	.LFE1096:
 1724              		.section	.gcc_except_table
 1725              		.align 4
 1726              	.LLSDA1096:
 1727 012c FF       		.byte	0xff
 1728 012d 03       		.byte	0x3
 1729 012e 2D       		.uleb128 .LLSDATT1096-.LLSDATTD1096
 1730              	.LLSDATTD1096:
 1731 012f 01       		.byte	0x1
 1732 0130 24       		.uleb128 .LLSDACSE1096-.LLSDACSB1096
 1733              	.LLSDACSB1096:
 1734 0131 2C       		.uleb128 .LEHB48-.LFB1096
 1735 0132 05       		.uleb128 .LEHE48-.LEHB48
 1736 0133 00       		.uleb128 0
 1737 0134 00       		.uleb128 0
 1738 0135 40       		.uleb128 .LEHB49-.LFB1096
 1739 0136 05       		.uleb128 .LEHE49-.LEHB49
 1740 0137 9002     		.uleb128 .L88-.LFB1096
 1741 0139 00       		.uleb128 0
 1742 013a 45       		.uleb128 .LEHB50-.LFB1096
 1743 013b 53       		.uleb128 .LEHE50-.LEHB50
 1744 013c B901     		.uleb128 .L89-.LFB1096
 1745 013e 01       		.uleb128 0x1
 1746 013f A201     		.uleb128 .LEHB51-.LFB1096
 1747 0141 05       		.uleb128 .LEHE51-.LEHB51
 1748 0142 00       		.uleb128 0
 1749 0143 00       		.uleb128 0
 1750 0144 C101     		.uleb128 .LEHB52-.LFB1096
 1751 0146 3E       		.uleb128 .LEHE52-.LEHB52
 1752 0147 8602     		.uleb128 .L90-.LFB1096
 1753 0149 00       		.uleb128 0
 1754 014a FF01     		.uleb128 .LEHB53-.LFB1096
 1755 014c 05       		.uleb128 .LEHE53-.LEHB53
 1756 014d 9002     		.uleb128 .L88-.LFB1096
 1757 014f 00       		.uleb128 0
 1758 0150 A802     		.uleb128 .LEHB54-.LFB1096
 1759 0152 05       		.uleb128 .LEHE54-.LEHB54
 1760 0153 00       		.uleb128 0
 1761 0154 00       		.uleb128 0
 1762              	.LLSDACSE1096:
 1763 0155 01       		.byte	0x1
 1764 0156 00       		.byte	0
 1765 0157 00       		.align 4
 1766 0158 00000000 		.long	0
 1767              	
 1768              	.LLSDATT1096:
 1769              		.text
 1771              		.section	.rodata
 1772 02f5 000000   		.align 8
 1773              	.LC24:
 1774 02f8 53747265 		.string	"StreamingFloatWritesCorrectCharacters"
 1774      616D696E 
 1774      67466C6F 
 1774      61745772 
 1774      69746573 
 1775              		.text
 1776              		.align 2
 1778              	_ZN12_GLOBAL__N_141TestStreamingFloatWritesCorrectCharactersC2Ev:
 1779              	.LFB1098:
  59:TestMemoryOutStream.cpp **** 
  60:TestMemoryOutStream.cpp **** TEST(StreamingFloatWritesCorrectCharacters)
 1780              		.loc 3 60 0
 1781              		.cfi_startproc
 1782 0b34 55       		pushq	%rbp
 1783              		.cfi_def_cfa_offset 16
 1784              		.cfi_offset 6, -16
 1785 0b35 4889E5   		movq	%rsp, %rbp
 1786              		.cfi_def_cfa_register 6
 1787 0b38 4883EC10 		subq	$16, %rsp
 1788 0b3c 48897DF8 		movq	%rdi, -8(%rbp)
 1789              	.LBB11:
 1790              		.loc 3 60 0
 1791 0b40 E8000000 		call	_ZN13UnitTestSuite12GetSuiteNameEv
 1791      00
 1792 0b45 4889C2   		movq	%rax, %rdx
 1793 0b48 488B45F8 		movq	-8(%rbp), %rax
 1794 0b4c 41B83C00 		movl	$60, %r8d
 1794      0000
 1795 0b52 B9000000 		movl	$.LC1, %ecx
 1795      00
 1796 0b57 BE000000 		movl	$.LC24, %esi
 1796      00
 1797 0b5c 4889C7   		movq	%rax, %rdi
 1798 0b5f E8000000 		call	_ZN8UnitTest4TestC2EPKcS2_S2_i
 1798      00
 1799 0b64 BA000000 		movl	$_ZTVN12_GLOBAL__N_141TestStreamingFloatWritesCorrectCharactersE+16, %edx
 1799      00
 1800 0b69 488B45F8 		movq	-8(%rbp), %rax
 1801 0b6d 488910   		movq	%rdx, (%rax)
 1802              	.LBE11:
 1803 0b70 90       		nop
 1804 0b71 C9       		leave
 1805              		.cfi_def_cfa 7, 8
 1806 0b72 C3       		ret
 1807              		.cfi_endproc
 1808              	.LFE1098:
 1810              		.set	_ZN12_GLOBAL__N_141TestStreamingFloatWritesCorrectCharactersC1Ev,_ZN12_GLOBAL__N_141TestStrea
 1811              		.local	_ZN12_GLOBAL__N_149testStreamingFloatWritesCorrectCharactersInstanceE
 1812              		.comm	_ZN12_GLOBAL__N_149testStreamingFloatWritesCorrectCharactersInstanceE,56,32
 1813              		.local	_ZN12_GLOBAL__N_142adderStreamingFloatWritesCorrectCharactersE
 1814              		.comm	_ZN12_GLOBAL__N_142adderStreamingFloatWritesCorrectCharactersE,1,1
 1815              		.section	.rodata
 1816              	.LC26:
 1817 031e 332E3134 		.string	"3.1415"
 1817      313500
 1818 0325 000000   		.align 8
 1819              	.LC27:
 1820 0328 73747273 		.string	"strstr(stream.GetText(), \"3.1415\")"
 1820      74722873 
 1820      74726561 
 1820      6D2E4765 
 1820      74546578 
 1821 034b 00000000 		.align 8
 1821      00
 1822              	.LC28:
 1823 0350 556E6861 		.string	"Unhandled exception in CHECK(strstr(stream.GetText(), \"3.1415\"))"
 1823      6E646C65 
 1823      64206578 
 1823      63657074 
 1823      696F6E20 
 1824              		.text
 1825 0b73 90       		.align 2
 1827              	_ZNK12_GLOBAL__N_141TestStreamingFloatWritesCorrectCharacters7RunImplEv:
 1828              	.LFB1100:
  61:TestMemoryOutStream.cpp **** {
 1829              		.loc 3 61 0
 1830              		.cfi_startproc
 1831              		.cfi_personality 0x3,__gxx_personality_v0
 1832              		.cfi_lsda 0x3,.LLSDA1100
 1833 0b74 55       		pushq	%rbp
 1834              		.cfi_def_cfa_offset 16
 1835              		.cfi_offset 6, -16
 1836 0b75 4889E5   		movq	%rsp, %rbp
 1837              		.cfi_def_cfa_register 6
 1838 0b78 53       		pushq	%rbx
 1839 0b79 4881ECD8 		subq	$472, %rsp
 1839      010000
 1840              		.cfi_offset 3, -24
 1841 0b80 4889BD28 		movq	%rdi, -472(%rbp)
 1841      FEFFFF
 1842              		.loc 3 61 0
 1843 0b87 64488B04 		movq	%fs:40, %rax
 1843      25280000 
 1843      00
 1844 0b90 488945E8 		movq	%rax, -24(%rbp)
 1845 0b94 31C0     		xorl	%eax, %eax
  62:TestMemoryOutStream.cpp ****     MemoryOutStream stream;
 1846              		.loc 3 62 0
 1847 0b96 488D8550 		leaq	-432(%rbp), %rax
 1847      FEFFFF
 1848 0b9d 4889C7   		movq	%rax, %rdi
 1849              	.LEHB55:
 1850 0ba0 E8000000 		call	_ZN8UnitTest15MemoryOutStreamC1Ev
 1850      00
 1851              	.LEHE55:
  63:TestMemoryOutStream.cpp ****     stream << 3.1415f;
 1852              		.loc 3 63 0
 1853 0ba5 488D8550 		leaq	-432(%rbp), %rax
 1853      FEFFFF
 1854 0bac F30F1005 		movss	.LC25(%rip), %xmm0
 1854      00000000 
 1855 0bb4 4889C7   		movq	%rax, %rdi
 1856              	.LEHB56:
 1857 0bb7 E8000000 		call	_ZNSolsEf
 1857      00
 1858              	.LEHE56:
  64:TestMemoryOutStream.cpp **** 	CHECK(strstr(stream.GetText(), "3.1415"));
 1859              		.loc 3 64 0
 1860 0bbc 488D8550 		leaq	-432(%rbp), %rax
 1860      FEFFFF
 1861 0bc3 4889C7   		movq	%rax, %rdi
 1862              	.LEHB57:
 1863 0bc6 E8000000 		call	_ZNK8UnitTest15MemoryOutStream7GetTextEv
 1863      00
 1864 0bcb BE000000 		movl	$.LC26, %esi
 1864      00
 1865 0bd0 4889C7   		movq	%rax, %rdi
 1866 0bd3 E8000000 		call	strstr
 1866      00
 1867 0bd8 4889C7   		movq	%rax, %rdi
 1868 0bdb E8000000 		call	_ZN8UnitTest5CheckIPKcEEbT_
 1868      00
 1869 0be0 83F001   		xorl	$1, %eax
 1870 0be3 84C0     		testb	%al, %al
 1871 0be5 743E     		je	.L94
 1872              		.loc 3 64 0 is_stmt 0 discriminator 2
 1873 0be7 E8000000 		call	_ZN8UnitTest11CurrentTest7DetailsEv
 1873      00
 1874 0bec 488B08   		movq	(%rax), %rcx
 1875 0bef 488D8530 		leaq	-464(%rbp), %rax
 1875      FEFFFF
 1876 0bf6 BA400000 		movl	$64, %edx
 1876      00
 1877 0bfb 4889CE   		movq	%rcx, %rsi
 1878 0bfe 4889C7   		movq	%rax, %rdi
 1879 0c01 E8000000 		call	_ZN8UnitTest11TestDetailsC1ERKS0_i
 1879      00
 1880              		.loc 3 64 0 discriminator 4
 1881 0c06 E8000000 		call	_ZN8UnitTest11CurrentTest7ResultsEv
 1881      00
 1882 0c0b 488B00   		movq	(%rax), %rax
 1883 0c0e 488D8D30 		leaq	-464(%rbp), %rcx
 1883      FEFFFF
 1884 0c15 BA000000 		movl	$.LC27, %edx
 1884      00
 1885 0c1a 4889CE   		movq	%rcx, %rsi
 1886 0c1d 4889C7   		movq	%rax, %rdi
 1887 0c20 E8000000 		call	_ZN8UnitTest11TestResults13OnTestFailureERKNS_11TestDetailsEPKc
 1887      00
 1888              	.LEHE57:
 1889              	.L94:
  62:TestMemoryOutStream.cpp ****     MemoryOutStream stream;
 1890              		.loc 3 62 0 is_stmt 1
 1891 0c25 488D8550 		leaq	-432(%rbp), %rax
 1891      FEFFFF
 1892 0c2c 4889C7   		movq	%rax, %rdi
 1893              	.LEHB58:
 1894 0c2f E8000000 		call	_ZN8UnitTest15MemoryOutStreamD1Ev
 1894      00
 1895              	.LEHE58:
  65:TestMemoryOutStream.cpp **** }
 1896              		.loc 3 65 0
 1897 0c34 90       		nop
 1898 0c35 488B45E8 		movq	-24(%rbp), %rax
 1899 0c39 64483304 		xorq	%fs:40, %rax
 1899      25280000 
 1899      00
 1900 0c42 747B     		je	.L98
 1901 0c44 EB74     		jmp	.L102
 1902              	.L100:
  64:TestMemoryOutStream.cpp **** 	CHECK(strstr(stream.GetText(), "3.1415"));
 1903              		.loc 3 64 0
 1904 0c46 4889C7   		movq	%rax, %rdi
 1905 0c49 E8000000 		call	__cxa_begin_catch
 1905      00
 1906              	.LEHB59:
 1907 0c4e E8000000 		call	_ZN8UnitTest11CurrentTest7DetailsEv
 1907      00
 1908 0c53 488B08   		movq	(%rax), %rcx
 1909 0c56 488D8530 		leaq	-464(%rbp), %rax
 1909      FEFFFF
 1910 0c5d BA400000 		movl	$64, %edx
 1910      00
 1911 0c62 4889CE   		movq	%rcx, %rsi
 1912 0c65 4889C7   		movq	%rax, %rdi
 1913 0c68 E8000000 		call	_ZN8UnitTest11TestDetailsC1ERKS0_i
 1913      00
  64:TestMemoryOutStream.cpp **** 	CHECK(strstr(stream.GetText(), "3.1415"));
 1914              		.loc 3 64 0 is_stmt 0 discriminator 12
 1915 0c6d E8000000 		call	_ZN8UnitTest11CurrentTest7ResultsEv
 1915      00
 1916 0c72 488B00   		movq	(%rax), %rax
 1917 0c75 488D8D30 		leaq	-464(%rbp), %rcx
 1917      FEFFFF
 1918 0c7c BA000000 		movl	$.LC28, %edx
 1918      00
 1919 0c81 4889CE   		movq	%rcx, %rsi
 1920 0c84 4889C7   		movq	%rax, %rdi
 1921 0c87 E8000000 		call	_ZN8UnitTest11TestResults13OnTestFailureERKNS_11TestDetailsEPKc
 1921      00
 1922              	.LEHE59:
 1923              	.LEHB60:
  64:TestMemoryOutStream.cpp **** 	CHECK(strstr(stream.GetText(), "3.1415"));
 1924              		.loc 3 64 0 discriminator 16
 1925 0c8c E8000000 		call	__cxa_end_catch
 1925      00
 1926              	.LEHE60:
  64:TestMemoryOutStream.cpp **** 	CHECK(strstr(stream.GetText(), "3.1415"));
 1927              		.loc 3 64 0
 1928 0c91 EB92     		jmp	.L94
 1929              	.L101:
 1930 0c93 4889C3   		movq	%rax, %rbx
 1931 0c96 E8000000 		call	__cxa_end_catch
 1931      00
 1932 0c9b EB03     		jmp	.L97
 1933              	.L99:
 1934 0c9d 4889C3   		movq	%rax, %rbx
 1935              	.L97:
  62:TestMemoryOutStream.cpp ****     stream << 3.1415f;
 1936              		.loc 3 62 0 is_stmt 1
 1937 0ca0 488D8550 		leaq	-432(%rbp), %rax
 1937      FEFFFF
 1938 0ca7 4889C7   		movq	%rax, %rdi
 1939 0caa E8000000 		call	_ZN8UnitTest15MemoryOutStreamD1Ev
 1939      00
 1940 0caf 4889D8   		movq	%rbx, %rax
 1941 0cb2 4889C7   		movq	%rax, %rdi
 1942              	.LEHB61:
 1943 0cb5 E8000000 		call	_Unwind_Resume
 1943      00
 1944              	.LEHE61:
 1945              	.L102:
 1946              		.loc 3 65 0
 1947 0cba E8000000 		call	__stack_chk_fail
 1947      00
 1948              	.L98:
 1949 0cbf 4881C4D8 		addq	$472, %rsp
 1949      010000
 1950 0cc6 5B       		popq	%rbx
 1951 0cc7 5D       		popq	%rbp
 1952              		.cfi_def_cfa 7, 8
 1953 0cc8 C3       		ret
 1954              		.cfi_endproc
 1955              	.LFE1100:
 1956              		.section	.gcc_except_table
 1957              		.align 4
 1958              	.LLSDA1100:
 1959 015c FF       		.byte	0xff
 1960 015d 03       		.byte	0x3
 1961 015e 2D       		.uleb128 .LLSDATT1100-.LLSDATTD1100
 1962              	.LLSDATTD1100:
 1963 015f 01       		.byte	0x1
 1964 0160 24       		.uleb128 .LLSDACSE1100-.LLSDACSB1100
 1965              	.LLSDACSB1100:
 1966 0161 2C       		.uleb128 .LEHB55-.LFB1100
 1967 0162 05       		.uleb128 .LEHE55-.LEHB55
 1968 0163 00       		.uleb128 0
 1969 0164 00       		.uleb128 0
 1970 0165 43       		.uleb128 .LEHB56-.LFB1100
 1971 0166 05       		.uleb128 .LEHE56-.LEHB56
 1972 0167 A902     		.uleb128 .L99-.LFB1100
 1973 0169 00       		.uleb128 0
 1974 016a 52       		.uleb128 .LEHB57-.LFB1100
 1975 016b 5F       		.uleb128 .LEHE57-.LEHB57
 1976 016c D201     		.uleb128 .L100-.LFB1100
 1977 016e 01       		.uleb128 0x1
 1978 016f BB01     		.uleb128 .LEHB58-.LFB1100
 1979 0171 05       		.uleb128 .LEHE58-.LEHB58
 1980 0172 00       		.uleb128 0
 1981 0173 00       		.uleb128 0
 1982 0174 DA01     		.uleb128 .LEHB59-.LFB1100
 1983 0176 3E       		.uleb128 .LEHE59-.LEHB59
 1984 0177 9F02     		.uleb128 .L101-.LFB1100
 1985 0179 00       		.uleb128 0
 1986 017a 9802     		.uleb128 .LEHB60-.LFB1100
 1987 017c 05       		.uleb128 .LEHE60-.LEHB60
 1988 017d A902     		.uleb128 .L99-.LFB1100
 1989 017f 00       		.uleb128 0
 1990 0180 C102     		.uleb128 .LEHB61-.LFB1100
 1991 0182 05       		.uleb128 .LEHE61-.LEHB61
 1992 0183 00       		.uleb128 0
 1993 0184 00       		.uleb128 0
 1994              	.LLSDACSE1100:
 1995 0185 01       		.byte	0x1
 1996 0186 00       		.byte	0
 1997 0187 00       		.align 4
 1998 0188 00000000 		.long	0
 1999              	
 2000              	.LLSDATT1100:
 2001              		.text
 2003              		.section	.rodata
 2004 0391 00000000 		.align 8
 2004      000000
 2005              	.LC29:
 2006 0398 53747265 		.string	"StreamingDoubleWritesCorrectCharacters"
 2006      616D696E 
 2006      67446F75 
 2006      626C6557 
 2006      72697465 
 2007              		.text
 2008 0cc9 90       		.align 2
 2010              	_ZN12_GLOBAL__N_142TestStreamingDoubleWritesCorrectCharactersC2Ev:
 2011              	.LFB1102:
  66:TestMemoryOutStream.cpp **** 
  67:TestMemoryOutStream.cpp **** TEST(StreamingDoubleWritesCorrectCharacters)
 2012              		.loc 3 67 0
 2013              		.cfi_startproc
 2014 0cca 55       		pushq	%rbp
 2015              		.cfi_def_cfa_offset 16
 2016              		.cfi_offset 6, -16
 2017 0ccb 4889E5   		movq	%rsp, %rbp
 2018              		.cfi_def_cfa_register 6
 2019 0cce 4883EC10 		subq	$16, %rsp
 2020 0cd2 48897DF8 		movq	%rdi, -8(%rbp)
 2021              	.LBB12:
 2022              		.loc 3 67 0
 2023 0cd6 E8000000 		call	_ZN13UnitTestSuite12GetSuiteNameEv
 2023      00
 2024 0cdb 4889C2   		movq	%rax, %rdx
 2025 0cde 488B45F8 		movq	-8(%rbp), %rax
 2026 0ce2 41B84300 		movl	$67, %r8d
 2026      0000
 2027 0ce8 B9000000 		movl	$.LC1, %ecx
 2027      00
 2028 0ced BE000000 		movl	$.LC29, %esi
 2028      00
 2029 0cf2 4889C7   		movq	%rax, %rdi
 2030 0cf5 E8000000 		call	_ZN8UnitTest4TestC2EPKcS2_S2_i
 2030      00
 2031 0cfa BA000000 		movl	$_ZTVN12_GLOBAL__N_142TestStreamingDoubleWritesCorrectCharactersE+16, %edx
 2031      00
 2032 0cff 488B45F8 		movq	-8(%rbp), %rax
 2033 0d03 488910   		movq	%rdx, (%rax)
 2034              	.LBE12:
 2035 0d06 90       		nop
 2036 0d07 C9       		leave
 2037              		.cfi_def_cfa 7, 8
 2038 0d08 C3       		ret
 2039              		.cfi_endproc
 2040              	.LFE1102:
 2042              		.set	_ZN12_GLOBAL__N_142TestStreamingDoubleWritesCorrectCharactersC1Ev,_ZN12_GLOBAL__N_142TestStre
 2043              		.local	_ZN12_GLOBAL__N_150testStreamingDoubleWritesCorrectCharactersInstanceE
 2044              		.comm	_ZN12_GLOBAL__N_150testStreamingDoubleWritesCorrectCharactersInstanceE,56,32
 2045              		.local	_ZN12_GLOBAL__N_143adderStreamingDoubleWritesCorrectCharactersE
 2046              		.comm	_ZN12_GLOBAL__N_143adderStreamingDoubleWritesCorrectCharactersE,1,1
 2047 0d09 90       		.align 2
 2049              	_ZNK12_GLOBAL__N_142TestStreamingDoubleWritesCorrectCharacters7RunImplEv:
 2050              	.LFB1104:
  68:TestMemoryOutStream.cpp **** {
 2051              		.loc 3 68 0
 2052              		.cfi_startproc
 2053              		.cfi_personality 0x3,__gxx_personality_v0
 2054              		.cfi_lsda 0x3,.LLSDA1104
 2055 0d0a 55       		pushq	%rbp
 2056              		.cfi_def_cfa_offset 16
 2057              		.cfi_offset 6, -16
 2058 0d0b 4889E5   		movq	%rsp, %rbp
 2059              		.cfi_def_cfa_register 6
 2060 0d0e 53       		pushq	%rbx
 2061 0d0f 4881ECD8 		subq	$472, %rsp
 2061      010000
 2062              		.cfi_offset 3, -24
 2063 0d16 4889BD28 		movq	%rdi, -472(%rbp)
 2063      FEFFFF
 2064              		.loc 3 68 0
 2065 0d1d 64488B04 		movq	%fs:40, %rax
 2065      25280000 
 2065      00
 2066 0d26 488945E8 		movq	%rax, -24(%rbp)
 2067 0d2a 31C0     		xorl	%eax, %eax
  69:TestMemoryOutStream.cpp **** 	MemoryOutStream stream;
 2068              		.loc 3 69 0
 2069 0d2c 488D8550 		leaq	-432(%rbp), %rax
 2069      FEFFFF
 2070 0d33 4889C7   		movq	%rax, %rdi
 2071              	.LEHB62:
 2072 0d36 E8000000 		call	_ZN8UnitTest15MemoryOutStreamC1Ev
 2072      00
 2073              	.LEHE62:
  70:TestMemoryOutStream.cpp **** 	stream << 3.1415;
 2074              		.loc 3 70 0
 2075 0d3b 48BA6F12 		movabsq	$4614256447914709615, %rdx
 2075      83C0CA21 
 2075      0940
 2076 0d45 488D8550 		leaq	-432(%rbp), %rax
 2076      FEFFFF
 2077 0d4c 48899520 		movq	%rdx, -480(%rbp)
 2077      FEFFFF
 2078 0d53 F20F1085 		movsd	-480(%rbp), %xmm0
 2078      20FEFFFF 
 2079 0d5b 4889C7   		movq	%rax, %rdi
 2080              	.LEHB63:
 2081 0d5e E8000000 		call	_ZNSolsEd
 2081      00
 2082              	.LEHE63:
  71:TestMemoryOutStream.cpp **** 	CHECK(strstr(stream.GetText(), "3.1415"));
 2083              		.loc 3 71 0
 2084 0d63 488D8550 		leaq	-432(%rbp), %rax
 2084      FEFFFF
 2085 0d6a 4889C7   		movq	%rax, %rdi
 2086              	.LEHB64:
 2087 0d6d E8000000 		call	_ZNK8UnitTest15MemoryOutStream7GetTextEv
 2087      00
 2088 0d72 BE000000 		movl	$.LC26, %esi
 2088      00
 2089 0d77 4889C7   		movq	%rax, %rdi
 2090 0d7a E8000000 		call	strstr
 2090      00
 2091 0d7f 4889C7   		movq	%rax, %rdi
 2092 0d82 E8000000 		call	_ZN8UnitTest5CheckIPKcEEbT_
 2092      00
 2093 0d87 83F001   		xorl	$1, %eax
 2094 0d8a 84C0     		testb	%al, %al
 2095 0d8c 743E     		je	.L105
 2096              		.loc 3 71 0 is_stmt 0 discriminator 2
 2097 0d8e E8000000 		call	_ZN8UnitTest11CurrentTest7DetailsEv
 2097      00
 2098 0d93 488B08   		movq	(%rax), %rcx
 2099 0d96 488D8530 		leaq	-464(%rbp), %rax
 2099      FEFFFF
 2100 0d9d BA470000 		movl	$71, %edx
 2100      00
 2101 0da2 4889CE   		movq	%rcx, %rsi
 2102 0da5 4889C7   		movq	%rax, %rdi
 2103 0da8 E8000000 		call	_ZN8UnitTest11TestDetailsC1ERKS0_i
 2103      00
 2104              		.loc 3 71 0 discriminator 4
 2105 0dad E8000000 		call	_ZN8UnitTest11CurrentTest7ResultsEv
 2105      00
 2106 0db2 488B00   		movq	(%rax), %rax
 2107 0db5 488D8D30 		leaq	-464(%rbp), %rcx
 2107      FEFFFF
 2108 0dbc BA000000 		movl	$.LC27, %edx
 2108      00
 2109 0dc1 4889CE   		movq	%rcx, %rsi
 2110 0dc4 4889C7   		movq	%rax, %rdi
 2111 0dc7 E8000000 		call	_ZN8UnitTest11TestResults13OnTestFailureERKNS_11TestDetailsEPKc
 2111      00
 2112              	.LEHE64:
 2113              	.L105:
  69:TestMemoryOutStream.cpp **** 	MemoryOutStream stream;
 2114              		.loc 3 69 0 is_stmt 1
 2115 0dcc 488D8550 		leaq	-432(%rbp), %rax
 2115      FEFFFF
 2116 0dd3 4889C7   		movq	%rax, %rdi
 2117              	.LEHB65:
 2118 0dd6 E8000000 		call	_ZN8UnitTest15MemoryOutStreamD1Ev
 2118      00
 2119              	.LEHE65:
  72:TestMemoryOutStream.cpp **** }
 2120              		.loc 3 72 0
 2121 0ddb 90       		nop
 2122 0ddc 488B45E8 		movq	-24(%rbp), %rax
 2123 0de0 64483304 		xorq	%fs:40, %rax
 2123      25280000 
 2123      00
 2124 0de9 747B     		je	.L109
 2125 0deb EB74     		jmp	.L113
 2126              	.L111:
  71:TestMemoryOutStream.cpp **** 	CHECK(strstr(stream.GetText(), "3.1415"));
 2127              		.loc 3 71 0
 2128 0ded 4889C7   		movq	%rax, %rdi
 2129 0df0 E8000000 		call	__cxa_begin_catch
 2129      00
 2130              	.LEHB66:
 2131 0df5 E8000000 		call	_ZN8UnitTest11CurrentTest7DetailsEv
 2131      00
 2132 0dfa 488B08   		movq	(%rax), %rcx
 2133 0dfd 488D8530 		leaq	-464(%rbp), %rax
 2133      FEFFFF
 2134 0e04 BA470000 		movl	$71, %edx
 2134      00
 2135 0e09 4889CE   		movq	%rcx, %rsi
 2136 0e0c 4889C7   		movq	%rax, %rdi
 2137 0e0f E8000000 		call	_ZN8UnitTest11TestDetailsC1ERKS0_i
 2137      00
  71:TestMemoryOutStream.cpp **** 	CHECK(strstr(stream.GetText(), "3.1415"));
 2138              		.loc 3 71 0 is_stmt 0 discriminator 12
 2139 0e14 E8000000 		call	_ZN8UnitTest11CurrentTest7ResultsEv
 2139      00
 2140 0e19 488B00   		movq	(%rax), %rax
 2141 0e1c 488D8D30 		leaq	-464(%rbp), %rcx
 2141      FEFFFF
 2142 0e23 BA000000 		movl	$.LC28, %edx
 2142      00
 2143 0e28 4889CE   		movq	%rcx, %rsi
 2144 0e2b 4889C7   		movq	%rax, %rdi
 2145 0e2e E8000000 		call	_ZN8UnitTest11TestResults13OnTestFailureERKNS_11TestDetailsEPKc
 2145      00
 2146              	.LEHE66:
 2147              	.LEHB67:
  71:TestMemoryOutStream.cpp **** 	CHECK(strstr(stream.GetText(), "3.1415"));
 2148              		.loc 3 71 0 discriminator 16
 2149 0e33 E8000000 		call	__cxa_end_catch
 2149      00
 2150              	.LEHE67:
  71:TestMemoryOutStream.cpp **** 	CHECK(strstr(stream.GetText(), "3.1415"));
 2151              		.loc 3 71 0
 2152 0e38 EB92     		jmp	.L105
 2153              	.L112:
 2154 0e3a 4889C3   		movq	%rax, %rbx
 2155 0e3d E8000000 		call	__cxa_end_catch
 2155      00
 2156 0e42 EB03     		jmp	.L108
 2157              	.L110:
 2158 0e44 4889C3   		movq	%rax, %rbx
 2159              	.L108:
  69:TestMemoryOutStream.cpp **** 	stream << 3.1415;
 2160              		.loc 3 69 0 is_stmt 1
 2161 0e47 488D8550 		leaq	-432(%rbp), %rax
 2161      FEFFFF
 2162 0e4e 4889C7   		movq	%rax, %rdi
 2163 0e51 E8000000 		call	_ZN8UnitTest15MemoryOutStreamD1Ev
 2163      00
 2164 0e56 4889D8   		movq	%rbx, %rax
 2165 0e59 4889C7   		movq	%rax, %rdi
 2166              	.LEHB68:
 2167 0e5c E8000000 		call	_Unwind_Resume
 2167      00
 2168              	.LEHE68:
 2169              	.L113:
 2170              		.loc 3 72 0
 2171 0e61 E8000000 		call	__stack_chk_fail
 2171      00
 2172              	.L109:
 2173 0e66 4881C4D8 		addq	$472, %rsp
 2173      010000
 2174 0e6d 5B       		popq	%rbx
 2175 0e6e 5D       		popq	%rbp
 2176              		.cfi_def_cfa 7, 8
 2177 0e6f C3       		ret
 2178              		.cfi_endproc
 2179              	.LFE1104:
 2180              		.section	.gcc_except_table
 2181              		.align 4
 2182              	.LLSDA1104:
 2183 018c FF       		.byte	0xff
 2184 018d 03       		.byte	0x3
 2185 018e 2D       		.uleb128 .LLSDATT1104-.LLSDATTD1104
 2186              	.LLSDATTD1104:
 2187 018f 01       		.byte	0x1
 2188 0190 24       		.uleb128 .LLSDACSE1104-.LLSDACSB1104
 2189              	.LLSDACSB1104:
 2190 0191 2C       		.uleb128 .LEHB62-.LFB1104
 2191 0192 05       		.uleb128 .LEHE62-.LEHB62
 2192 0193 00       		.uleb128 0
 2193 0194 00       		.uleb128 0
 2194 0195 54       		.uleb128 .LEHB63-.LFB1104
 2195 0196 05       		.uleb128 .LEHE63-.LEHB63
 2196 0197 BA02     		.uleb128 .L110-.LFB1104
 2197 0199 00       		.uleb128 0
 2198 019a 63       		.uleb128 .LEHB64-.LFB1104
 2199 019b 5F       		.uleb128 .LEHE64-.LEHB64
 2200 019c E301     		.uleb128 .L111-.LFB1104
 2201 019e 01       		.uleb128 0x1
 2202 019f CC01     		.uleb128 .LEHB65-.LFB1104
 2203 01a1 05       		.uleb128 .LEHE65-.LEHB65
 2204 01a2 00       		.uleb128 0
 2205 01a3 00       		.uleb128 0
 2206 01a4 EB01     		.uleb128 .LEHB66-.LFB1104
 2207 01a6 3E       		.uleb128 .LEHE66-.LEHB66
 2208 01a7 B002     		.uleb128 .L112-.LFB1104
 2209 01a9 00       		.uleb128 0
 2210 01aa A902     		.uleb128 .LEHB67-.LFB1104
 2211 01ac 05       		.uleb128 .LEHE67-.LEHB67
 2212 01ad BA02     		.uleb128 .L110-.LFB1104
 2213 01af 00       		.uleb128 0
 2214 01b0 D202     		.uleb128 .LEHB68-.LFB1104
 2215 01b2 05       		.uleb128 .LEHE68-.LEHB68
 2216 01b3 00       		.uleb128 0
 2217 01b4 00       		.uleb128 0
 2218              	.LLSDACSE1104:
 2219 01b5 01       		.byte	0x1
 2220 01b6 00       		.byte	0
 2221 01b7 00       		.align 4
 2222 01b8 00000000 		.long	0
 2223              	
 2224              	.LLSDATT1104:
 2225              		.text
 2227              		.section	.rodata
 2228 03bf 00       		.align 8
 2229              	.LC31:
 2230 03c0 53747265 		.string	"StreamingPointerWritesCorrectCharacters"
 2230      616D696E 
 2230      67506F69 
 2230      6E746572 
 2230      57726974 
 2231              		.text
 2232              		.align 2
 2234              	_ZN12_GLOBAL__N_143TestStreamingPointerWritesCorrectCharactersC2Ev:
 2235              	.LFB1106:
  73:TestMemoryOutStream.cpp **** 
  74:TestMemoryOutStream.cpp **** TEST(StreamingPointerWritesCorrectCharacters)
 2236              		.loc 3 74 0
 2237              		.cfi_startproc
 2238 0e70 55       		pushq	%rbp
 2239              		.cfi_def_cfa_offset 16
 2240              		.cfi_offset 6, -16
 2241 0e71 4889E5   		movq	%rsp, %rbp
 2242              		.cfi_def_cfa_register 6
 2243 0e74 4883EC10 		subq	$16, %rsp
 2244 0e78 48897DF8 		movq	%rdi, -8(%rbp)
 2245              	.LBB13:
 2246              		.loc 3 74 0
 2247 0e7c E8000000 		call	_ZN13UnitTestSuite12GetSuiteNameEv
 2247      00
 2248 0e81 4889C2   		movq	%rax, %rdx
 2249 0e84 488B45F8 		movq	-8(%rbp), %rax
 2250 0e88 41B84A00 		movl	$74, %r8d
 2250      0000
 2251 0e8e B9000000 		movl	$.LC1, %ecx
 2251      00
 2252 0e93 BE000000 		movl	$.LC31, %esi
 2252      00
 2253 0e98 4889C7   		movq	%rax, %rdi
 2254 0e9b E8000000 		call	_ZN8UnitTest4TestC2EPKcS2_S2_i
 2254      00
 2255 0ea0 BA000000 		movl	$_ZTVN12_GLOBAL__N_143TestStreamingPointerWritesCorrectCharactersE+16, %edx
 2255      00
 2256 0ea5 488B45F8 		movq	-8(%rbp), %rax
 2257 0ea9 488910   		movq	%rdx, (%rax)
 2258              	.LBE13:
 2259 0eac 90       		nop
 2260 0ead C9       		leave
 2261              		.cfi_def_cfa 7, 8
 2262 0eae C3       		ret
 2263              		.cfi_endproc
 2264              	.LFE1106:
 2266              		.set	_ZN12_GLOBAL__N_143TestStreamingPointerWritesCorrectCharactersC1Ev,_ZN12_GLOBAL__N_143TestStr
 2267              		.local	_ZN12_GLOBAL__N_151testStreamingPointerWritesCorrectCharactersInstanceE
 2268              		.comm	_ZN12_GLOBAL__N_151testStreamingPointerWritesCorrectCharactersInstanceE,56,32
 2269              		.local	_ZN12_GLOBAL__N_144adderStreamingPointerWritesCorrectCharactersE
 2270              		.comm	_ZN12_GLOBAL__N_144adderStreamingPointerWritesCorrectCharactersE,1,1
 2271              		.section	.rodata
 2272              	.LC32:
 2273 03e8 31323334 		.string	"1234"
 2273      00
 2274 03ed 000000   		.align 8
 2275              	.LC33:
 2276 03f0 73747273 		.string	"strstr(stream.GetText(), \"1234\")"
 2276      74722873 
 2276      74726561 
 2276      6D2E4765 
 2276      74546578 
 2277 0411 00000000 		.align 8
 2277      000000
 2278              	.LC34:
 2279 0418 556E6861 		.string	"Unhandled exception in CHECK(strstr(stream.GetText(), \"1234\"))"
 2279      6E646C65 
 2279      64206578 
 2279      63657074 
 2279      696F6E20 
 2280              		.text
 2281 0eaf 90       		.align 2
 2283              	_ZNK12_GLOBAL__N_143TestStreamingPointerWritesCorrectCharacters7RunImplEv:
 2284              	.LFB1108:
  75:TestMemoryOutStream.cpp **** {
 2285              		.loc 3 75 0
 2286              		.cfi_startproc
 2287              		.cfi_personality 0x3,__gxx_personality_v0
 2288              		.cfi_lsda 0x3,.LLSDA1108
 2289 0eb0 55       		pushq	%rbp
 2290              		.cfi_def_cfa_offset 16
 2291              		.cfi_offset 6, -16
 2292 0eb1 4889E5   		movq	%rsp, %rbp
 2293              		.cfi_def_cfa_register 6
 2294 0eb4 53       		pushq	%rbx
 2295 0eb5 4881ECE8 		subq	$488, %rsp
 2295      010000
 2296              		.cfi_offset 3, -24
 2297 0ebc 4889BD18 		movq	%rdi, -488(%rbp)
 2297      FEFFFF
 2298              		.loc 3 75 0
 2299 0ec3 64488B04 		movq	%fs:40, %rax
 2299      25280000 
 2299      00
 2300 0ecc 488945E8 		movq	%rax, -24(%rbp)
 2301 0ed0 31C0     		xorl	%eax, %eax
  76:TestMemoryOutStream.cpp ****     MemoryOutStream stream;
 2302              		.loc 3 76 0
 2303 0ed2 488D8550 		leaq	-432(%rbp), %rax
 2303      FEFFFF
 2304 0ed9 4889C7   		movq	%rax, %rdi
 2305              	.LEHB69:
 2306 0edc E8000000 		call	_ZN8UnitTest15MemoryOutStreamC1Ev
 2306      00
 2307              	.LEHE69:
  77:TestMemoryOutStream.cpp ****     int* p = (int*)0x1234;
 2308              		.loc 3 77 0
 2309 0ee1 48C78528 		movq	$4660, -472(%rbp)
 2309      FEFFFF34 
 2309      120000
  78:TestMemoryOutStream.cpp ****     stream << p;
 2310              		.loc 3 78 0
 2311 0eec 488B9528 		movq	-472(%rbp), %rdx
 2311      FEFFFF
 2312 0ef3 488D8550 		leaq	-432(%rbp), %rax
 2312      FEFFFF
 2313 0efa 4889D6   		movq	%rdx, %rsi
 2314 0efd 4889C7   		movq	%rax, %rdi
 2315              	.LEHB70:
 2316 0f00 E8000000 		call	_ZNSolsEPKv
 2316      00
 2317              	.LEHE70:
  79:TestMemoryOutStream.cpp ****     CHECK(strstr(stream.GetText(), "1234"));
 2318              		.loc 3 79 0
 2319 0f05 488D8550 		leaq	-432(%rbp), %rax
 2319      FEFFFF
 2320 0f0c 4889C7   		movq	%rax, %rdi
 2321              	.LEHB71:
 2322 0f0f E8000000 		call	_ZNK8UnitTest15MemoryOutStream7GetTextEv
 2322      00
 2323 0f14 BE000000 		movl	$.LC32, %esi
 2323      00
 2324 0f19 4889C7   		movq	%rax, %rdi
 2325 0f1c E8000000 		call	strstr
 2325      00
 2326 0f21 4889C7   		movq	%rax, %rdi
 2327 0f24 E8000000 		call	_ZN8UnitTest5CheckIPKcEEbT_
 2327      00
 2328 0f29 83F001   		xorl	$1, %eax
 2329 0f2c 84C0     		testb	%al, %al
 2330 0f2e 743E     		je	.L116
 2331              		.loc 3 79 0 is_stmt 0 discriminator 2
 2332 0f30 E8000000 		call	_ZN8UnitTest11CurrentTest7DetailsEv
 2332      00
 2333 0f35 488B08   		movq	(%rax), %rcx
 2334 0f38 488D8530 		leaq	-464(%rbp), %rax
 2334      FEFFFF
 2335 0f3f BA4F0000 		movl	$79, %edx
 2335      00
 2336 0f44 4889CE   		movq	%rcx, %rsi
 2337 0f47 4889C7   		movq	%rax, %rdi
 2338 0f4a E8000000 		call	_ZN8UnitTest11TestDetailsC1ERKS0_i
 2338      00
 2339              		.loc 3 79 0 discriminator 4
 2340 0f4f E8000000 		call	_ZN8UnitTest11CurrentTest7ResultsEv
 2340      00
 2341 0f54 488B00   		movq	(%rax), %rax
 2342 0f57 488D8D30 		leaq	-464(%rbp), %rcx
 2342      FEFFFF
 2343 0f5e BA000000 		movl	$.LC33, %edx
 2343      00
 2344 0f63 4889CE   		movq	%rcx, %rsi
 2345 0f66 4889C7   		movq	%rax, %rdi
 2346 0f69 E8000000 		call	_ZN8UnitTest11TestResults13OnTestFailureERKNS_11TestDetailsEPKc
 2346      00
 2347              	.LEHE71:
 2348              	.L116:
  76:TestMemoryOutStream.cpp ****     int* p = (int*)0x1234;
 2349              		.loc 3 76 0 is_stmt 1
 2350 0f6e 488D8550 		leaq	-432(%rbp), %rax
 2350      FEFFFF
 2351 0f75 4889C7   		movq	%rax, %rdi
 2352              	.LEHB72:
 2353 0f78 E8000000 		call	_ZN8UnitTest15MemoryOutStreamD1Ev
 2353      00
 2354              	.LEHE72:
  80:TestMemoryOutStream.cpp **** }
 2355              		.loc 3 80 0
 2356 0f7d 90       		nop
 2357 0f7e 488B45E8 		movq	-24(%rbp), %rax
 2358 0f82 64483304 		xorq	%fs:40, %rax
 2358      25280000 
 2358      00
 2359 0f8b 747B     		je	.L120
 2360 0f8d EB74     		jmp	.L124
 2361              	.L122:
  79:TestMemoryOutStream.cpp ****     CHECK(strstr(stream.GetText(), "1234"));
 2362              		.loc 3 79 0
 2363 0f8f 4889C7   		movq	%rax, %rdi
 2364 0f92 E8000000 		call	__cxa_begin_catch
 2364      00
 2365              	.LEHB73:
 2366 0f97 E8000000 		call	_ZN8UnitTest11CurrentTest7DetailsEv
 2366      00
 2367 0f9c 488B08   		movq	(%rax), %rcx
 2368 0f9f 488D8530 		leaq	-464(%rbp), %rax
 2368      FEFFFF
 2369 0fa6 BA4F0000 		movl	$79, %edx
 2369      00
 2370 0fab 4889CE   		movq	%rcx, %rsi
 2371 0fae 4889C7   		movq	%rax, %rdi
 2372 0fb1 E8000000 		call	_ZN8UnitTest11TestDetailsC1ERKS0_i
 2372      00
  79:TestMemoryOutStream.cpp ****     CHECK(strstr(stream.GetText(), "1234"));
 2373              		.loc 3 79 0 is_stmt 0 discriminator 12
 2374 0fb6 E8000000 		call	_ZN8UnitTest11CurrentTest7ResultsEv
 2374      00
 2375 0fbb 488B00   		movq	(%rax), %rax
 2376 0fbe 488D8D30 		leaq	-464(%rbp), %rcx
 2376      FEFFFF
 2377 0fc5 BA000000 		movl	$.LC34, %edx
 2377      00
 2378 0fca 4889CE   		movq	%rcx, %rsi
 2379 0fcd 4889C7   		movq	%rax, %rdi
 2380 0fd0 E8000000 		call	_ZN8UnitTest11TestResults13OnTestFailureERKNS_11TestDetailsEPKc
 2380      00
 2381              	.LEHE73:
 2382              	.LEHB74:
  79:TestMemoryOutStream.cpp ****     CHECK(strstr(stream.GetText(), "1234"));
 2383              		.loc 3 79 0 discriminator 16
 2384 0fd5 E8000000 		call	__cxa_end_catch
 2384      00
 2385              	.LEHE74:
  79:TestMemoryOutStream.cpp ****     CHECK(strstr(stream.GetText(), "1234"));
 2386              		.loc 3 79 0
 2387 0fda EB92     		jmp	.L116
 2388              	.L123:
 2389 0fdc 4889C3   		movq	%rax, %rbx
 2390 0fdf E8000000 		call	__cxa_end_catch
 2390      00
 2391 0fe4 EB03     		jmp	.L119
 2392              	.L121:
 2393 0fe6 4889C3   		movq	%rax, %rbx
 2394              	.L119:
  76:TestMemoryOutStream.cpp ****     int* p = (int*)0x1234;
 2395              		.loc 3 76 0 is_stmt 1
 2396 0fe9 488D8550 		leaq	-432(%rbp), %rax
 2396      FEFFFF
 2397 0ff0 4889C7   		movq	%rax, %rdi
 2398 0ff3 E8000000 		call	_ZN8UnitTest15MemoryOutStreamD1Ev
 2398      00
 2399 0ff8 4889D8   		movq	%rbx, %rax
 2400 0ffb 4889C7   		movq	%rax, %rdi
 2401              	.LEHB75:
 2402 0ffe E8000000 		call	_Unwind_Resume
 2402      00
 2403              	.LEHE75:
 2404              	.L124:
 2405              		.loc 3 80 0
 2406 1003 E8000000 		call	__stack_chk_fail
 2406      00
 2407              	.L120:
 2408 1008 4881C4E8 		addq	$488, %rsp
 2408      010000
 2409 100f 5B       		popq	%rbx
 2410 1010 5D       		popq	%rbp
 2411              		.cfi_def_cfa 7, 8
 2412 1011 C3       		ret
 2413              		.cfi_endproc
 2414              	.LFE1108:
 2415              		.section	.gcc_except_table
 2416              		.align 4
 2417              	.LLSDA1108:
 2418 01bc FF       		.byte	0xff
 2419 01bd 03       		.byte	0x3
 2420 01be 2D       		.uleb128 .LLSDATT1108-.LLSDATTD1108
 2421              	.LLSDATTD1108:
 2422 01bf 01       		.byte	0x1
 2423 01c0 24       		.uleb128 .LLSDACSE1108-.LLSDACSB1108
 2424              	.LLSDACSB1108:
 2425 01c1 2C       		.uleb128 .LEHB69-.LFB1108
 2426 01c2 05       		.uleb128 .LEHE69-.LEHB69
 2427 01c3 00       		.uleb128 0
 2428 01c4 00       		.uleb128 0
 2429 01c5 50       		.uleb128 .LEHB70-.LFB1108
 2430 01c6 05       		.uleb128 .LEHE70-.LEHB70
 2431 01c7 B602     		.uleb128 .L121-.LFB1108
 2432 01c9 00       		.uleb128 0
 2433 01ca 5F       		.uleb128 .LEHB71-.LFB1108
 2434 01cb 5F       		.uleb128 .LEHE71-.LEHB71
 2435 01cc DF01     		.uleb128 .L122-.LFB1108
 2436 01ce 01       		.uleb128 0x1
 2437 01cf C801     		.uleb128 .LEHB72-.LFB1108
 2438 01d1 05       		.uleb128 .LEHE72-.LEHB72
 2439 01d2 00       		.uleb128 0
 2440 01d3 00       		.uleb128 0
 2441 01d4 E701     		.uleb128 .LEHB73-.LFB1108
 2442 01d6 3E       		.uleb128 .LEHE73-.LEHB73
 2443 01d7 AC02     		.uleb128 .L123-.LFB1108
 2444 01d9 00       		.uleb128 0
 2445 01da A502     		.uleb128 .LEHB74-.LFB1108
 2446 01dc 05       		.uleb128 .LEHE74-.LEHB74
 2447 01dd B602     		.uleb128 .L121-.LFB1108
 2448 01df 00       		.uleb128 0
 2449 01e0 CE02     		.uleb128 .LEHB75-.LFB1108
 2450 01e2 05       		.uleb128 .LEHE75-.LEHB75
 2451 01e3 00       		.uleb128 0
 2452 01e4 00       		.uleb128 0
 2453              	.LLSDACSE1108:
 2454 01e5 01       		.byte	0x1
 2455 01e6 00       		.byte	0
 2456 01e7 00       		.align 4
 2457 01e8 00000000 		.long	0
 2458              	
 2459              	.LLSDATT1108:
 2460              		.text
 2462              		.section	.rodata
 2463 0457 00       		.align 8
 2464              	.LC35:
 2465 0458 53747265 		.string	"StreamingSizeTWritesCorrectCharacters"
 2465      616D696E 
 2465      6753697A 
 2465      65545772 
 2465      69746573 
 2466              		.text
 2467              		.align 2
 2469              	_ZN12_GLOBAL__N_141TestStreamingSizeTWritesCorrectCharactersC2Ev:
 2470              	.LFB1110:
  81:TestMemoryOutStream.cpp **** 
  82:TestMemoryOutStream.cpp **** TEST(StreamingSizeTWritesCorrectCharacters)
 2471              		.loc 3 82 0
 2472              		.cfi_startproc
 2473 1012 55       		pushq	%rbp
 2474              		.cfi_def_cfa_offset 16
 2475              		.cfi_offset 6, -16
 2476 1013 4889E5   		movq	%rsp, %rbp
 2477              		.cfi_def_cfa_register 6
 2478 1016 4883EC10 		subq	$16, %rsp
 2479 101a 48897DF8 		movq	%rdi, -8(%rbp)
 2480              	.LBB14:
 2481              		.loc 3 82 0
 2482 101e E8000000 		call	_ZN13UnitTestSuite12GetSuiteNameEv
 2482      00
 2483 1023 4889C2   		movq	%rax, %rdx
 2484 1026 488B45F8 		movq	-8(%rbp), %rax
 2485 102a 41B85200 		movl	$82, %r8d
 2485      0000
 2486 1030 B9000000 		movl	$.LC1, %ecx
 2486      00
 2487 1035 BE000000 		movl	$.LC35, %esi
 2487      00
 2488 103a 4889C7   		movq	%rax, %rdi
 2489 103d E8000000 		call	_ZN8UnitTest4TestC2EPKcS2_S2_i
 2489      00
 2490 1042 BA000000 		movl	$_ZTVN12_GLOBAL__N_141TestStreamingSizeTWritesCorrectCharactersE+16, %edx
 2490      00
 2491 1047 488B45F8 		movq	-8(%rbp), %rax
 2492 104b 488910   		movq	%rdx, (%rax)
 2493              	.LBE14:
 2494 104e 90       		nop
 2495 104f C9       		leave
 2496              		.cfi_def_cfa 7, 8
 2497 1050 C3       		ret
 2498              		.cfi_endproc
 2499              	.LFE1110:
 2501              		.set	_ZN12_GLOBAL__N_141TestStreamingSizeTWritesCorrectCharactersC1Ev,_ZN12_GLOBAL__N_141TestStrea
 2502              		.local	_ZN12_GLOBAL__N_149testStreamingSizeTWritesCorrectCharactersInstanceE
 2503              		.comm	_ZN12_GLOBAL__N_149testStreamingSizeTWritesCorrectCharactersInstanceE,56,32
 2504              		.local	_ZN12_GLOBAL__N_142adderStreamingSizeTWritesCorrectCharactersE
 2505              		.comm	_ZN12_GLOBAL__N_142adderStreamingSizeTWritesCorrectCharactersE,1,1
 2506              		.section	.rodata
 2507              	.LC36:
 2508 047e 35333132 		.string	"53124"
 2508      3400
 2509 0484 00000000 		.align 8
 2510              	.LC37:
 2511 0488 556E6861 		.string	"Unhandled exception in CHECK_EQUAL(\"53124\", stream.GetText())"
 2511      6E646C65 
 2511      64206578 
 2511      63657074 
 2511      696F6E20 
 2512              		.text
 2513 1051 90       		.align 2
 2515              	_ZNK12_GLOBAL__N_141TestStreamingSizeTWritesCorrectCharacters7RunImplEv:
 2516              	.LFB1112:
  83:TestMemoryOutStream.cpp **** {
 2517              		.loc 3 83 0
 2518              		.cfi_startproc
 2519              		.cfi_personality 0x3,__gxx_personality_v0
 2520              		.cfi_lsda 0x3,.LLSDA1112
 2521 1052 55       		pushq	%rbp
 2522              		.cfi_def_cfa_offset 16
 2523              		.cfi_offset 6, -16
 2524 1053 4889E5   		movq	%rsp, %rbp
 2525              		.cfi_def_cfa_register 6
 2526 1056 53       		pushq	%rbx
 2527 1057 4881ECE8 		subq	$488, %rsp
 2527      010000
 2528              		.cfi_offset 3, -24
 2529 105e 4889BD18 		movq	%rdi, -488(%rbp)
 2529      FEFFFF
 2530              		.loc 3 83 0
 2531 1065 64488B04 		movq	%fs:40, %rax
 2531      25280000 
 2531      00
 2532 106e 488945E8 		movq	%rax, -24(%rbp)
 2533 1072 31C0     		xorl	%eax, %eax
  84:TestMemoryOutStream.cpp ****     MemoryOutStream stream;
 2534              		.loc 3 84 0
 2535 1074 488D8550 		leaq	-432(%rbp), %rax
 2535      FEFFFF
 2536 107b 4889C7   		movq	%rax, %rdi
 2537              	.LEHB76:
 2538 107e E8000000 		call	_ZN8UnitTest15MemoryOutStreamC1Ev
 2538      00
 2539              	.LEHE76:
  85:TestMemoryOutStream.cpp ****     size_t const s = 53124;
 2540              		.loc 3 85 0
 2541 1083 48C78528 		movq	$53124, -472(%rbp)
 2541      FEFFFF84 
 2541      CF0000
  86:TestMemoryOutStream.cpp ****     stream << s;
 2542              		.loc 3 86 0
 2543 108e 488D8550 		leaq	-432(%rbp), %rax
 2543      FEFFFF
 2544 1095 BE84CF00 		movl	$53124, %esi
 2544      00
 2545 109a 4889C7   		movq	%rax, %rdi
 2546              	.LEHB77:
 2547 109d E8000000 		call	_ZNSolsEm
 2547      00
 2548              	.LEHE77:
 2549              	.LEHB78:
  87:TestMemoryOutStream.cpp ****     CHECK_EQUAL("53124", stream.GetText());
 2550              		.loc 3 87 0
 2551 10a2 E8000000 		call	_ZN8UnitTest11CurrentTest7DetailsEv
 2551      00
 2552 10a7 488B08   		movq	(%rax), %rcx
 2553 10aa 488D8530 		leaq	-464(%rbp), %rax
 2553      FEFFFF
 2554 10b1 BA570000 		movl	$87, %edx
 2554      00
 2555 10b6 4889CE   		movq	%rcx, %rsi
 2556 10b9 4889C7   		movq	%rax, %rdi
 2557 10bc E8000000 		call	_ZN8UnitTest11TestDetailsC1ERKS0_i
 2557      00
 2558              		.loc 3 87 0 is_stmt 0 discriminator 2
 2559 10c1 488D8550 		leaq	-432(%rbp), %rax
 2559      FEFFFF
 2560 10c8 4889C7   		movq	%rax, %rdi
 2561 10cb E8000000 		call	_ZNK8UnitTest15MemoryOutStream7GetTextEv
 2561      00
 2562 10d0 4889C3   		movq	%rax, %rbx
 2563 10d3 E8000000 		call	_ZN8UnitTest11CurrentTest7ResultsEv
 2563      00
 2564              		.loc 3 87 0 discriminator 4
 2565 10d8 488B00   		movq	(%rax), %rax
 2566 10db 488D9530 		leaq	-464(%rbp), %rdx
 2566      FEFFFF
 2567 10e2 4889D1   		movq	%rdx, %rcx
 2568 10e5 4889DA   		movq	%rbx, %rdx
 2569 10e8 BE000000 		movl	$.LC36, %esi
 2569      00
 2570 10ed 4889C7   		movq	%rax, %rdi
 2571 10f0 E8000000 		call	_ZN8UnitTest10CheckEqualERNS_11TestResultsEPKcS3_RKNS_11TestDetailsE
 2571      00
 2572              	.LEHE78:
 2573              	.L128:
  84:TestMemoryOutStream.cpp ****     size_t const s = 53124;
 2574              		.loc 3 84 0 is_stmt 1
 2575 10f5 488D8550 		leaq	-432(%rbp), %rax
 2575      FEFFFF
 2576 10fc 4889C7   		movq	%rax, %rdi
 2577              	.LEHB79:
 2578 10ff E8000000 		call	_ZN8UnitTest15MemoryOutStreamD1Ev
 2578      00
 2579              	.LEHE79:
  88:TestMemoryOutStream.cpp **** }
 2580              		.loc 3 88 0
 2581 1104 90       		nop
 2582 1105 488B45E8 		movq	-24(%rbp), %rax
 2583 1109 64483304 		xorq	%fs:40, %rax
 2583      25280000 
 2583      00
 2584 1112 747B     		je	.L131
 2585 1114 EB74     		jmp	.L135
 2586              	.L133:
  87:TestMemoryOutStream.cpp ****     CHECK_EQUAL("53124", stream.GetText());
 2587              		.loc 3 87 0
 2588 1116 4889C7   		movq	%rax, %rdi
 2589 1119 E8000000 		call	__cxa_begin_catch
 2589      00
 2590              	.LEHB80:
 2591 111e E8000000 		call	_ZN8UnitTest11CurrentTest7DetailsEv
 2591      00
 2592 1123 488B08   		movq	(%rax), %rcx
 2593 1126 488D8530 		leaq	-464(%rbp), %rax
 2593      FEFFFF
 2594 112d BA570000 		movl	$87, %edx
 2594      00
 2595 1132 4889CE   		movq	%rcx, %rsi
 2596 1135 4889C7   		movq	%rax, %rdi
 2597 1138 E8000000 		call	_ZN8UnitTest11TestDetailsC1ERKS0_i
 2597      00
  87:TestMemoryOutStream.cpp ****     CHECK_EQUAL("53124", stream.GetText());
 2598              		.loc 3 87 0 is_stmt 0 discriminator 12
 2599 113d E8000000 		call	_ZN8UnitTest11CurrentTest7ResultsEv
 2599      00
 2600 1142 488B00   		movq	(%rax), %rax
 2601 1145 488D8D30 		leaq	-464(%rbp), %rcx
 2601      FEFFFF
 2602 114c BA000000 		movl	$.LC37, %edx
 2602      00
 2603 1151 4889CE   		movq	%rcx, %rsi
 2604 1154 4889C7   		movq	%rax, %rdi
 2605 1157 E8000000 		call	_ZN8UnitTest11TestResults13OnTestFailureERKNS_11TestDetailsEPKc
 2605      00
 2606              	.LEHE80:
 2607              	.LEHB81:
  87:TestMemoryOutStream.cpp ****     CHECK_EQUAL("53124", stream.GetText());
 2608              		.loc 3 87 0 discriminator 16
 2609 115c E8000000 		call	__cxa_end_catch
 2609      00
 2610              	.LEHE81:
  87:TestMemoryOutStream.cpp ****     CHECK_EQUAL("53124", stream.GetText());
 2611              		.loc 3 87 0
 2612 1161 EB92     		jmp	.L128
 2613              	.L134:
 2614 1163 4889C3   		movq	%rax, %rbx
 2615 1166 E8000000 		call	__cxa_end_catch
 2615      00
 2616 116b EB03     		jmp	.L130
 2617              	.L132:
 2618 116d 4889C3   		movq	%rax, %rbx
 2619              	.L130:
  84:TestMemoryOutStream.cpp ****     size_t const s = 53124;
 2620              		.loc 3 84 0 is_stmt 1
 2621 1170 488D8550 		leaq	-432(%rbp), %rax
 2621      FEFFFF
 2622 1177 4889C7   		movq	%rax, %rdi
 2623 117a E8000000 		call	_ZN8UnitTest15MemoryOutStreamD1Ev
 2623      00
 2624 117f 4889D8   		movq	%rbx, %rax
 2625 1182 4889C7   		movq	%rax, %rdi
 2626              	.LEHB82:
 2627 1185 E8000000 		call	_Unwind_Resume
 2627      00
 2628              	.LEHE82:
 2629              	.L135:
 2630              		.loc 3 88 0
 2631 118a E8000000 		call	__stack_chk_fail
 2631      00
 2632              	.L131:
 2633 118f 4881C4E8 		addq	$488, %rsp
 2633      010000
 2634 1196 5B       		popq	%rbx
 2635 1197 5D       		popq	%rbp
 2636              		.cfi_def_cfa 7, 8
 2637 1198 C3       		ret
 2638              		.cfi_endproc
 2639              	.LFE1112:
 2640              		.section	.gcc_except_table
 2641              		.align 4
 2642              	.LLSDA1112:
 2643 01ec FF       		.byte	0xff
 2644 01ed 03       		.byte	0x3
 2645 01ee 2D       		.uleb128 .LLSDATT1112-.LLSDATTD1112
 2646              	.LLSDATTD1112:
 2647 01ef 01       		.byte	0x1
 2648 01f0 24       		.uleb128 .LLSDACSE1112-.LLSDACSB1112
 2649              	.LLSDACSB1112:
 2650 01f1 2C       		.uleb128 .LEHB76-.LFB1112
 2651 01f2 05       		.uleb128 .LEHE76-.LEHB76
 2652 01f3 00       		.uleb128 0
 2653 01f4 00       		.uleb128 0
 2654 01f5 4B       		.uleb128 .LEHB77-.LFB1112
 2655 01f6 05       		.uleb128 .LEHE77-.LEHB77
 2656 01f7 9B02     		.uleb128 .L132-.LFB1112
 2657 01f9 00       		.uleb128 0
 2658 01fa 50       		.uleb128 .LEHB78-.LFB1112
 2659 01fb 53       		.uleb128 .LEHE78-.LEHB78
 2660 01fc C401     		.uleb128 .L133-.LFB1112
 2661 01fe 01       		.uleb128 0x1
 2662 01ff AD01     		.uleb128 .LEHB79-.LFB1112
 2663 0201 05       		.uleb128 .LEHE79-.LEHB79
 2664 0202 00       		.uleb128 0
 2665 0203 00       		.uleb128 0
 2666 0204 CC01     		.uleb128 .LEHB80-.LFB1112
 2667 0206 3E       		.uleb128 .LEHE80-.LEHB80
 2668 0207 9102     		.uleb128 .L134-.LFB1112
 2669 0209 00       		.uleb128 0
 2670 020a 8A02     		.uleb128 .LEHB81-.LFB1112
 2671 020c 05       		.uleb128 .LEHE81-.LEHB81
 2672 020d 9B02     		.uleb128 .L132-.LFB1112
 2673 020f 00       		.uleb128 0
 2674 0210 B302     		.uleb128 .LEHB82-.LFB1112
 2675 0212 05       		.uleb128 .LEHE82-.LEHB82
 2676 0213 00       		.uleb128 0
 2677 0214 00       		.uleb128 0
 2678              	.LLSDACSE1112:
 2679 0215 01       		.byte	0x1
 2680 0216 00       		.byte	0
 2681 0217 00       		.align 4
 2682 0218 00000000 		.long	0
 2683              	
 2684              	.LLSDATT1112:
 2685              		.text
 2687              		.section	.text._ZN8UnitTest5CheckIbEEbT_,"axG",@progbits,_ZN8UnitTest5CheckIbEEbT_,comdat
 2688              		.weak	_ZN8UnitTest5CheckIbEEbT_
 2690              	_ZN8UnitTest5CheckIbEEbT_:
 2691              	.LFB1140:
 2692              		.file 4 "../Checks.h"
   1:../Checks.h   **** #ifndef UNITTEST_CHECKS_H
   2:../Checks.h   **** #define UNITTEST_CHECKS_H
   3:../Checks.h   **** 
   4:../Checks.h   **** #include "Config.h"
   5:../Checks.h   **** #include "TestResults.h"
   6:../Checks.h   **** #include "MemoryOutStream.h"
   7:../Checks.h   **** 
   8:../Checks.h   **** namespace UnitTest {
   9:../Checks.h   **** 
  10:../Checks.h   **** 
  11:../Checks.h   **** template< typename Value >
  12:../Checks.h   **** bool Check(Value const value)
 2693              		.loc 4 12 0
 2694              		.cfi_startproc
 2695 0000 55       		pushq	%rbp
 2696              		.cfi_def_cfa_offset 16
 2697              		.cfi_offset 6, -16
 2698 0001 4889E5   		movq	%rsp, %rbp
 2699              		.cfi_def_cfa_register 6
 2700 0004 89F8     		movl	%edi, %eax
 2701 0006 8845FC   		movb	%al, -4(%rbp)
  13:../Checks.h   **** {
  14:../Checks.h   ****     return !!value; // doing double negative to avoid silly VS warnings
 2702              		.loc 4 14 0
 2703 0009 0FB645FC 		movzbl	-4(%rbp), %eax
  15:../Checks.h   **** }
 2704              		.loc 4 15 0
 2705 000d 5D       		popq	%rbp
 2706              		.cfi_def_cfa 7, 8
 2707 000e C3       		ret
 2708              		.cfi_endproc
 2709              	.LFE1140:
 2711              		.section	.text._ZN8UnitTest5CheckIPKcEEbT_,"axG",@progbits,_ZN8UnitTest5CheckIPKcEEbT_,comdat
 2712              		.weak	_ZN8UnitTest5CheckIPKcEEbT_
 2714              	_ZN8UnitTest5CheckIPKcEEbT_:
 2715              	.LFB1146:
  12:../Checks.h   **** {
 2716              		.loc 4 12 0
 2717              		.cfi_startproc
 2718 0000 55       		pushq	%rbp
 2719              		.cfi_def_cfa_offset 16
 2720              		.cfi_offset 6, -16
 2721 0001 4889E5   		movq	%rsp, %rbp
 2722              		.cfi_def_cfa_register 6
 2723 0004 48897DF8 		movq	%rdi, -8(%rbp)
  14:../Checks.h   **** }
 2724              		.loc 4 14 0
 2725 0008 48837DF8 		cmpq	$0, -8(%rbp)
 2725      00
 2726 000d 0F95C0   		setne	%al
 2727              		.loc 4 15 0
 2728 0010 5D       		popq	%rbp
 2729              		.cfi_def_cfa 7, 8
 2730 0011 C3       		ret
 2731              		.cfi_endproc
 2732              	.LFE1146:
 2734              		.section	.rodata
 2735 04c6 0000     		.align 8
 2738              	_ZTVN12_GLOBAL__N_141TestStreamingSizeTWritesCorrectCharactersE:
 2739 04c8 00000000 		.quad	0
 2739      00000000 
 2740 04d0 00000000 		.quad	_ZTIN12_GLOBAL__N_141TestStreamingSizeTWritesCorrectCharactersE
 2740      00000000 
 2741 04d8 00000000 		.quad	_ZN12_GLOBAL__N_141TestStreamingSizeTWritesCorrectCharactersD1Ev
 2741      00000000 
 2742 04e0 00000000 		.quad	_ZN12_GLOBAL__N_141TestStreamingSizeTWritesCorrectCharactersD0Ev
 2742      00000000 
 2743 04e8 00000000 		.quad	_ZNK12_GLOBAL__N_141TestStreamingSizeTWritesCorrectCharacters7RunImplEv
 2743      00000000 
 2744              		.text
 2745 1199 90       		.align 2
 2747              	_ZN12_GLOBAL__N_141TestStreamingSizeTWritesCorrectCharactersD2Ev:
 2748              	.LFB1201:
  82:TestMemoryOutStream.cpp **** {
 2749              		.loc 3 82 0
 2750              		.cfi_startproc
 2751 119a 55       		pushq	%rbp
 2752              		.cfi_def_cfa_offset 16
 2753              		.cfi_offset 6, -16
 2754 119b 4889E5   		movq	%rsp, %rbp
 2755              		.cfi_def_cfa_register 6
 2756 119e 4883EC10 		subq	$16, %rsp
 2757 11a2 48897DF8 		movq	%rdi, -8(%rbp)
 2758              	.LBB15:
  82:TestMemoryOutStream.cpp **** {
 2759              		.loc 3 82 0
 2760 11a6 BA000000 		movl	$_ZTVN12_GLOBAL__N_141TestStreamingSizeTWritesCorrectCharactersE+16, %edx
 2760      00
 2761 11ab 488B45F8 		movq	-8(%rbp), %rax
 2762 11af 488910   		movq	%rdx, (%rax)
 2763 11b2 488B45F8 		movq	-8(%rbp), %rax
 2764 11b6 4889C7   		movq	%rax, %rdi
 2765 11b9 E8000000 		call	_ZN8UnitTest4TestD2Ev
 2765      00
 2766              	.LBE15:
 2767 11be B8000000 		movl	$0, %eax
 2767      00
 2768 11c3 85C0     		testl	%eax, %eax
 2769 11c5 740C     		je	.L140
  82:TestMemoryOutStream.cpp **** {
 2770              		.loc 3 82 0 is_stmt 0 discriminator 4
 2771 11c7 488B45F8 		movq	-8(%rbp), %rax
 2772 11cb 4889C7   		movq	%rax, %rdi
 2773 11ce E8000000 		call	_ZdlPv
 2773      00
 2774              	.L140:
  82:TestMemoryOutStream.cpp **** {
 2775              		.loc 3 82 0
 2776 11d3 C9       		leave
 2777              		.cfi_def_cfa 7, 8
 2778 11d4 C3       		ret
 2779              		.cfi_endproc
 2780              	.LFE1201:
 2782              		.set	_ZN12_GLOBAL__N_141TestStreamingSizeTWritesCorrectCharactersD1Ev,_ZN12_GLOBAL__N_141TestStrea
 2783 11d5 90       		.align 2
 2785              	_ZN12_GLOBAL__N_141TestStreamingSizeTWritesCorrectCharactersD0Ev:
 2786              	.LFB1203:
  82:TestMemoryOutStream.cpp **** {
 2787              		.loc 3 82 0 is_stmt 1
 2788              		.cfi_startproc
 2789 11d6 55       		pushq	%rbp
 2790              		.cfi_def_cfa_offset 16
 2791              		.cfi_offset 6, -16
 2792 11d7 4889E5   		movq	%rsp, %rbp
 2793              		.cfi_def_cfa_register 6
 2794 11da 4883EC10 		subq	$16, %rsp
 2795 11de 48897DF8 		movq	%rdi, -8(%rbp)
  82:TestMemoryOutStream.cpp **** {
 2796              		.loc 3 82 0
 2797 11e2 488B45F8 		movq	-8(%rbp), %rax
 2798 11e6 4889C7   		movq	%rax, %rdi
 2799 11e9 E8ACFFFF 		call	_ZN12_GLOBAL__N_141TestStreamingSizeTWritesCorrectCharactersD1Ev
 2799      FF
 2800 11ee 488B45F8 		movq	-8(%rbp), %rax
 2801 11f2 4889C7   		movq	%rax, %rdi
 2802 11f5 E8000000 		call	_ZdlPv
 2802      00
 2803 11fa C9       		leave
 2804              		.cfi_def_cfa 7, 8
 2805 11fb C3       		ret
 2806              		.cfi_endproc
 2807              	.LFE1203:
 2809              		.section	.rodata
 2810              		.align 8
 2813              	_ZTVN12_GLOBAL__N_143TestStreamingPointerWritesCorrectCharactersE:
 2814 04f0 00000000 		.quad	0
 2814      00000000 
 2815 04f8 00000000 		.quad	_ZTIN12_GLOBAL__N_143TestStreamingPointerWritesCorrectCharactersE
 2815      00000000 
 2816 0500 00000000 		.quad	_ZN12_GLOBAL__N_143TestStreamingPointerWritesCorrectCharactersD1Ev
 2816      00000000 
 2817 0508 00000000 		.quad	_ZN12_GLOBAL__N_143TestStreamingPointerWritesCorrectCharactersD0Ev
 2817      00000000 
 2818 0510 00000000 		.quad	_ZNK12_GLOBAL__N_143TestStreamingPointerWritesCorrectCharacters7RunImplEv
 2818      00000000 
 2819              		.text
 2820              		.align 2
 2822              	_ZN12_GLOBAL__N_143TestStreamingPointerWritesCorrectCharactersD2Ev:
 2823              	.LFB1205:
  74:TestMemoryOutStream.cpp **** {
 2824              		.loc 3 74 0
 2825              		.cfi_startproc
 2826 11fc 55       		pushq	%rbp
 2827              		.cfi_def_cfa_offset 16
 2828              		.cfi_offset 6, -16
 2829 11fd 4889E5   		movq	%rsp, %rbp
 2830              		.cfi_def_cfa_register 6
 2831 1200 4883EC10 		subq	$16, %rsp
 2832 1204 48897DF8 		movq	%rdi, -8(%rbp)
 2833              	.LBB16:
  74:TestMemoryOutStream.cpp **** {
 2834              		.loc 3 74 0
 2835 1208 BA000000 		movl	$_ZTVN12_GLOBAL__N_143TestStreamingPointerWritesCorrectCharactersE+16, %edx
 2835      00
 2836 120d 488B45F8 		movq	-8(%rbp), %rax
 2837 1211 488910   		movq	%rdx, (%rax)
 2838 1214 488B45F8 		movq	-8(%rbp), %rax
 2839 1218 4889C7   		movq	%rax, %rdi
 2840 121b E8000000 		call	_ZN8UnitTest4TestD2Ev
 2840      00
 2841              	.LBE16:
 2842 1220 B8000000 		movl	$0, %eax
 2842      00
 2843 1225 85C0     		testl	%eax, %eax
 2844 1227 740C     		je	.L143
  74:TestMemoryOutStream.cpp **** {
 2845              		.loc 3 74 0 is_stmt 0 discriminator 4
 2846 1229 488B45F8 		movq	-8(%rbp), %rax
 2847 122d 4889C7   		movq	%rax, %rdi
 2848 1230 E8000000 		call	_ZdlPv
 2848      00
 2849              	.L143:
  74:TestMemoryOutStream.cpp **** {
 2850              		.loc 3 74 0
 2851 1235 C9       		leave
 2852              		.cfi_def_cfa 7, 8
 2853 1236 C3       		ret
 2854              		.cfi_endproc
 2855              	.LFE1205:
 2857              		.set	_ZN12_GLOBAL__N_143TestStreamingPointerWritesCorrectCharactersD1Ev,_ZN12_GLOBAL__N_143TestStr
 2858 1237 90       		.align 2
 2860              	_ZN12_GLOBAL__N_143TestStreamingPointerWritesCorrectCharactersD0Ev:
 2861              	.LFB1207:
  74:TestMemoryOutStream.cpp **** {
 2862              		.loc 3 74 0 is_stmt 1
 2863              		.cfi_startproc
 2864 1238 55       		pushq	%rbp
 2865              		.cfi_def_cfa_offset 16
 2866              		.cfi_offset 6, -16
 2867 1239 4889E5   		movq	%rsp, %rbp
 2868              		.cfi_def_cfa_register 6
 2869 123c 4883EC10 		subq	$16, %rsp
 2870 1240 48897DF8 		movq	%rdi, -8(%rbp)
  74:TestMemoryOutStream.cpp **** {
 2871              		.loc 3 74 0
 2872 1244 488B45F8 		movq	-8(%rbp), %rax
 2873 1248 4889C7   		movq	%rax, %rdi
 2874 124b E8ACFFFF 		call	_ZN12_GLOBAL__N_143TestStreamingPointerWritesCorrectCharactersD1Ev
 2874      FF
 2875 1250 488B45F8 		movq	-8(%rbp), %rax
 2876 1254 4889C7   		movq	%rax, %rdi
 2877 1257 E8000000 		call	_ZdlPv
 2877      00
 2878 125c C9       		leave
 2879              		.cfi_def_cfa 7, 8
 2880 125d C3       		ret
 2881              		.cfi_endproc
 2882              	.LFE1207:
 2884              		.section	.rodata
 2885              		.align 8
 2888              	_ZTVN12_GLOBAL__N_142TestStreamingDoubleWritesCorrectCharactersE:
 2889 0518 00000000 		.quad	0
 2889      00000000 
 2890 0520 00000000 		.quad	_ZTIN12_GLOBAL__N_142TestStreamingDoubleWritesCorrectCharactersE
 2890      00000000 
 2891 0528 00000000 		.quad	_ZN12_GLOBAL__N_142TestStreamingDoubleWritesCorrectCharactersD1Ev
 2891      00000000 
 2892 0530 00000000 		.quad	_ZN12_GLOBAL__N_142TestStreamingDoubleWritesCorrectCharactersD0Ev
 2892      00000000 
 2893 0538 00000000 		.quad	_ZNK12_GLOBAL__N_142TestStreamingDoubleWritesCorrectCharacters7RunImplEv
 2893      00000000 
 2894              		.text
 2895              		.align 2
 2897              	_ZN12_GLOBAL__N_142TestStreamingDoubleWritesCorrectCharactersD2Ev:
 2898              	.LFB1209:
  67:TestMemoryOutStream.cpp **** {
 2899              		.loc 3 67 0
 2900              		.cfi_startproc
 2901 125e 55       		pushq	%rbp
 2902              		.cfi_def_cfa_offset 16
 2903              		.cfi_offset 6, -16
 2904 125f 4889E5   		movq	%rsp, %rbp
 2905              		.cfi_def_cfa_register 6
 2906 1262 4883EC10 		subq	$16, %rsp
 2907 1266 48897DF8 		movq	%rdi, -8(%rbp)
 2908              	.LBB17:
  67:TestMemoryOutStream.cpp **** {
 2909              		.loc 3 67 0
 2910 126a BA000000 		movl	$_ZTVN12_GLOBAL__N_142TestStreamingDoubleWritesCorrectCharactersE+16, %edx
 2910      00
 2911 126f 488B45F8 		movq	-8(%rbp), %rax
 2912 1273 488910   		movq	%rdx, (%rax)
 2913 1276 488B45F8 		movq	-8(%rbp), %rax
 2914 127a 4889C7   		movq	%rax, %rdi
 2915 127d E8000000 		call	_ZN8UnitTest4TestD2Ev
 2915      00
 2916              	.LBE17:
 2917 1282 B8000000 		movl	$0, %eax
 2917      00
 2918 1287 85C0     		testl	%eax, %eax
 2919 1289 740C     		je	.L146
  67:TestMemoryOutStream.cpp **** {
 2920              		.loc 3 67 0 is_stmt 0 discriminator 4
 2921 128b 488B45F8 		movq	-8(%rbp), %rax
 2922 128f 4889C7   		movq	%rax, %rdi
 2923 1292 E8000000 		call	_ZdlPv
 2923      00
 2924              	.L146:
  67:TestMemoryOutStream.cpp **** {
 2925              		.loc 3 67 0
 2926 1297 C9       		leave
 2927              		.cfi_def_cfa 7, 8
 2928 1298 C3       		ret
 2929              		.cfi_endproc
 2930              	.LFE1209:
 2932              		.set	_ZN12_GLOBAL__N_142TestStreamingDoubleWritesCorrectCharactersD1Ev,_ZN12_GLOBAL__N_142TestStre
 2933 1299 90       		.align 2
 2935              	_ZN12_GLOBAL__N_142TestStreamingDoubleWritesCorrectCharactersD0Ev:
 2936              	.LFB1211:
  67:TestMemoryOutStream.cpp **** {
 2937              		.loc 3 67 0 is_stmt 1
 2938              		.cfi_startproc
 2939 129a 55       		pushq	%rbp
 2940              		.cfi_def_cfa_offset 16
 2941              		.cfi_offset 6, -16
 2942 129b 4889E5   		movq	%rsp, %rbp
 2943              		.cfi_def_cfa_register 6
 2944 129e 4883EC10 		subq	$16, %rsp
 2945 12a2 48897DF8 		movq	%rdi, -8(%rbp)
  67:TestMemoryOutStream.cpp **** {
 2946              		.loc 3 67 0
 2947 12a6 488B45F8 		movq	-8(%rbp), %rax
 2948 12aa 4889C7   		movq	%rax, %rdi
 2949 12ad E8ACFFFF 		call	_ZN12_GLOBAL__N_142TestStreamingDoubleWritesCorrectCharactersD1Ev
 2949      FF
 2950 12b2 488B45F8 		movq	-8(%rbp), %rax
 2951 12b6 4889C7   		movq	%rax, %rdi
 2952 12b9 E8000000 		call	_ZdlPv
 2952      00
 2953 12be C9       		leave
 2954              		.cfi_def_cfa 7, 8
 2955 12bf C3       		ret
 2956              		.cfi_endproc
 2957              	.LFE1211:
 2959              		.section	.rodata
 2960              		.align 8
 2963              	_ZTVN12_GLOBAL__N_141TestStreamingFloatWritesCorrectCharactersE:
 2964 0540 00000000 		.quad	0
 2964      00000000 
 2965 0548 00000000 		.quad	_ZTIN12_GLOBAL__N_141TestStreamingFloatWritesCorrectCharactersE
 2965      00000000 
 2966 0550 00000000 		.quad	_ZN12_GLOBAL__N_141TestStreamingFloatWritesCorrectCharactersD1Ev
 2966      00000000 
 2967 0558 00000000 		.quad	_ZN12_GLOBAL__N_141TestStreamingFloatWritesCorrectCharactersD0Ev
 2967      00000000 
 2968 0560 00000000 		.quad	_ZNK12_GLOBAL__N_141TestStreamingFloatWritesCorrectCharacters7RunImplEv
 2968      00000000 
 2969              		.text
 2970              		.align 2
 2972              	_ZN12_GLOBAL__N_141TestStreamingFloatWritesCorrectCharactersD2Ev:
 2973              	.LFB1213:
  60:TestMemoryOutStream.cpp **** {
 2974              		.loc 3 60 0
 2975              		.cfi_startproc
 2976 12c0 55       		pushq	%rbp
 2977              		.cfi_def_cfa_offset 16
 2978              		.cfi_offset 6, -16
 2979 12c1 4889E5   		movq	%rsp, %rbp
 2980              		.cfi_def_cfa_register 6
 2981 12c4 4883EC10 		subq	$16, %rsp
 2982 12c8 48897DF8 		movq	%rdi, -8(%rbp)
 2983              	.LBB18:
  60:TestMemoryOutStream.cpp **** {
 2984              		.loc 3 60 0
 2985 12cc BA000000 		movl	$_ZTVN12_GLOBAL__N_141TestStreamingFloatWritesCorrectCharactersE+16, %edx
 2985      00
 2986 12d1 488B45F8 		movq	-8(%rbp), %rax
 2987 12d5 488910   		movq	%rdx, (%rax)
 2988 12d8 488B45F8 		movq	-8(%rbp), %rax
 2989 12dc 4889C7   		movq	%rax, %rdi
 2990 12df E8000000 		call	_ZN8UnitTest4TestD2Ev
 2990      00
 2991              	.LBE18:
 2992 12e4 B8000000 		movl	$0, %eax
 2992      00
 2993 12e9 85C0     		testl	%eax, %eax
 2994 12eb 740C     		je	.L149
  60:TestMemoryOutStream.cpp **** {
 2995              		.loc 3 60 0 is_stmt 0 discriminator 4
 2996 12ed 488B45F8 		movq	-8(%rbp), %rax
 2997 12f1 4889C7   		movq	%rax, %rdi
 2998 12f4 E8000000 		call	_ZdlPv
 2998      00
 2999              	.L149:
  60:TestMemoryOutStream.cpp **** {
 3000              		.loc 3 60 0
 3001 12f9 C9       		leave
 3002              		.cfi_def_cfa 7, 8
 3003 12fa C3       		ret
 3004              		.cfi_endproc
 3005              	.LFE1213:
 3007              		.set	_ZN12_GLOBAL__N_141TestStreamingFloatWritesCorrectCharactersD1Ev,_ZN12_GLOBAL__N_141TestStrea
 3008 12fb 90       		.align 2
 3010              	_ZN12_GLOBAL__N_141TestStreamingFloatWritesCorrectCharactersD0Ev:
 3011              	.LFB1215:
  60:TestMemoryOutStream.cpp **** {
 3012              		.loc 3 60 0 is_stmt 1
 3013              		.cfi_startproc
 3014 12fc 55       		pushq	%rbp
 3015              		.cfi_def_cfa_offset 16
 3016              		.cfi_offset 6, -16
 3017 12fd 4889E5   		movq	%rsp, %rbp
 3018              		.cfi_def_cfa_register 6
 3019 1300 4883EC10 		subq	$16, %rsp
 3020 1304 48897DF8 		movq	%rdi, -8(%rbp)
  60:TestMemoryOutStream.cpp **** {
 3021              		.loc 3 60 0
 3022 1308 488B45F8 		movq	-8(%rbp), %rax
 3023 130c 4889C7   		movq	%rax, %rdi
 3024 130f E8ACFFFF 		call	_ZN12_GLOBAL__N_141TestStreamingFloatWritesCorrectCharactersD1Ev
 3024      FF
 3025 1314 488B45F8 		movq	-8(%rbp), %rax
 3026 1318 4889C7   		movq	%rax, %rdi
 3027 131b E8000000 		call	_ZdlPv
 3027      00
 3028 1320 C9       		leave
 3029              		.cfi_def_cfa 7, 8
 3030 1321 C3       		ret
 3031              		.cfi_endproc
 3032              	.LFE1215:
 3034              		.section	.rodata
 3035              		.align 8
 3038              	_ZTVN12_GLOBAL__N_148TestStreamingUnsignedLongWritesCorrectCharactersE:
 3039 0568 00000000 		.quad	0
 3039      00000000 
 3040 0570 00000000 		.quad	_ZTIN12_GLOBAL__N_148TestStreamingUnsignedLongWritesCorrectCharactersE
 3040      00000000 
 3041 0578 00000000 		.quad	_ZN12_GLOBAL__N_148TestStreamingUnsignedLongWritesCorrectCharactersD1Ev
 3041      00000000 
 3042 0580 00000000 		.quad	_ZN12_GLOBAL__N_148TestStreamingUnsignedLongWritesCorrectCharactersD0Ev
 3042      00000000 
 3043 0588 00000000 		.quad	_ZNK12_GLOBAL__N_148TestStreamingUnsignedLongWritesCorrectCharacters7RunImplEv
 3043      00000000 
 3044              		.text
 3045              		.align 2
 3047              	_ZN12_GLOBAL__N_148TestStreamingUnsignedLongWritesCorrectCharactersD2Ev:
 3048              	.LFB1217:
  53:TestMemoryOutStream.cpp **** {
 3049              		.loc 3 53 0
 3050              		.cfi_startproc
 3051 1322 55       		pushq	%rbp
 3052              		.cfi_def_cfa_offset 16
 3053              		.cfi_offset 6, -16
 3054 1323 4889E5   		movq	%rsp, %rbp
 3055              		.cfi_def_cfa_register 6
 3056 1326 4883EC10 		subq	$16, %rsp
 3057 132a 48897DF8 		movq	%rdi, -8(%rbp)
 3058              	.LBB19:
  53:TestMemoryOutStream.cpp **** {
 3059              		.loc 3 53 0
 3060 132e BA000000 		movl	$_ZTVN12_GLOBAL__N_148TestStreamingUnsignedLongWritesCorrectCharactersE+16, %edx
 3060      00
 3061 1333 488B45F8 		movq	-8(%rbp), %rax
 3062 1337 488910   		movq	%rdx, (%rax)
 3063 133a 488B45F8 		movq	-8(%rbp), %rax
 3064 133e 4889C7   		movq	%rax, %rdi
 3065 1341 E8000000 		call	_ZN8UnitTest4TestD2Ev
 3065      00
 3066              	.LBE19:
 3067 1346 B8000000 		movl	$0, %eax
 3067      00
 3068 134b 85C0     		testl	%eax, %eax
 3069 134d 740C     		je	.L152
  53:TestMemoryOutStream.cpp **** {
 3070              		.loc 3 53 0 is_stmt 0 discriminator 4
 3071 134f 488B45F8 		movq	-8(%rbp), %rax
 3072 1353 4889C7   		movq	%rax, %rdi
 3073 1356 E8000000 		call	_ZdlPv
 3073      00
 3074              	.L152:
  53:TestMemoryOutStream.cpp **** {
 3075              		.loc 3 53 0
 3076 135b C9       		leave
 3077              		.cfi_def_cfa 7, 8
 3078 135c C3       		ret
 3079              		.cfi_endproc
 3080              	.LFE1217:
 3082              		.set	_ZN12_GLOBAL__N_148TestStreamingUnsignedLongWritesCorrectCharactersD1Ev,_ZN12_GLOBAL__N_148Te
 3083 135d 90       		.align 2
 3085              	_ZN12_GLOBAL__N_148TestStreamingUnsignedLongWritesCorrectCharactersD0Ev:
 3086              	.LFB1219:
  53:TestMemoryOutStream.cpp **** {
 3087              		.loc 3 53 0 is_stmt 1
 3088              		.cfi_startproc
 3089 135e 55       		pushq	%rbp
 3090              		.cfi_def_cfa_offset 16
 3091              		.cfi_offset 6, -16
 3092 135f 4889E5   		movq	%rsp, %rbp
 3093              		.cfi_def_cfa_register 6
 3094 1362 4883EC10 		subq	$16, %rsp
 3095 1366 48897DF8 		movq	%rdi, -8(%rbp)
  53:TestMemoryOutStream.cpp **** {
 3096              		.loc 3 53 0
 3097 136a 488B45F8 		movq	-8(%rbp), %rax
 3098 136e 4889C7   		movq	%rax, %rdi
 3099 1371 E8ACFFFF 		call	_ZN12_GLOBAL__N_148TestStreamingUnsignedLongWritesCorrectCharactersD1Ev
 3099      FF
 3100 1376 488B45F8 		movq	-8(%rbp), %rax
 3101 137a 4889C7   		movq	%rax, %rdi
 3102 137d E8000000 		call	_ZdlPv
 3102      00
 3103 1382 C9       		leave
 3104              		.cfi_def_cfa 7, 8
 3105 1383 C3       		ret
 3106              		.cfi_endproc
 3107              	.LFE1219:
 3109              		.section	.rodata
 3110              		.align 8
 3113              	_ZTVN12_GLOBAL__N_140TestStreamingLongWritesCorrectCharactersE:
 3114 0590 00000000 		.quad	0
 3114      00000000 
 3115 0598 00000000 		.quad	_ZTIN12_GLOBAL__N_140TestStreamingLongWritesCorrectCharactersE
 3115      00000000 
 3116 05a0 00000000 		.quad	_ZN12_GLOBAL__N_140TestStreamingLongWritesCorrectCharactersD1Ev
 3116      00000000 
 3117 05a8 00000000 		.quad	_ZN12_GLOBAL__N_140TestStreamingLongWritesCorrectCharactersD0Ev
 3117      00000000 
 3118 05b0 00000000 		.quad	_ZNK12_GLOBAL__N_140TestStreamingLongWritesCorrectCharacters7RunImplEv
 3118      00000000 
 3119              		.text
 3120              		.align 2
 3122              	_ZN12_GLOBAL__N_140TestStreamingLongWritesCorrectCharactersD2Ev:
 3123              	.LFB1221:
  46:TestMemoryOutStream.cpp **** {
 3124              		.loc 3 46 0
 3125              		.cfi_startproc
 3126 1384 55       		pushq	%rbp
 3127              		.cfi_def_cfa_offset 16
 3128              		.cfi_offset 6, -16
 3129 1385 4889E5   		movq	%rsp, %rbp
 3130              		.cfi_def_cfa_register 6
 3131 1388 4883EC10 		subq	$16, %rsp
 3132 138c 48897DF8 		movq	%rdi, -8(%rbp)
 3133              	.LBB20:
  46:TestMemoryOutStream.cpp **** {
 3134              		.loc 3 46 0
 3135 1390 BA000000 		movl	$_ZTVN12_GLOBAL__N_140TestStreamingLongWritesCorrectCharactersE+16, %edx
 3135      00
 3136 1395 488B45F8 		movq	-8(%rbp), %rax
 3137 1399 488910   		movq	%rdx, (%rax)
 3138 139c 488B45F8 		movq	-8(%rbp), %rax
 3139 13a0 4889C7   		movq	%rax, %rdi
 3140 13a3 E8000000 		call	_ZN8UnitTest4TestD2Ev
 3140      00
 3141              	.LBE20:
 3142 13a8 B8000000 		movl	$0, %eax
 3142      00
 3143 13ad 85C0     		testl	%eax, %eax
 3144 13af 740C     		je	.L155
  46:TestMemoryOutStream.cpp **** {
 3145              		.loc 3 46 0 is_stmt 0 discriminator 4
 3146 13b1 488B45F8 		movq	-8(%rbp), %rax
 3147 13b5 4889C7   		movq	%rax, %rdi
 3148 13b8 E8000000 		call	_ZdlPv
 3148      00
 3149              	.L155:
  46:TestMemoryOutStream.cpp **** {
 3150              		.loc 3 46 0
 3151 13bd C9       		leave
 3152              		.cfi_def_cfa 7, 8
 3153 13be C3       		ret
 3154              		.cfi_endproc
 3155              	.LFE1221:
 3157              		.set	_ZN12_GLOBAL__N_140TestStreamingLongWritesCorrectCharactersD1Ev,_ZN12_GLOBAL__N_140TestStream
 3158 13bf 90       		.align 2
 3160              	_ZN12_GLOBAL__N_140TestStreamingLongWritesCorrectCharactersD0Ev:
 3161              	.LFB1223:
  46:TestMemoryOutStream.cpp **** {
 3162              		.loc 3 46 0 is_stmt 1
 3163              		.cfi_startproc
 3164 13c0 55       		pushq	%rbp
 3165              		.cfi_def_cfa_offset 16
 3166              		.cfi_offset 6, -16
 3167 13c1 4889E5   		movq	%rsp, %rbp
 3168              		.cfi_def_cfa_register 6
 3169 13c4 4883EC10 		subq	$16, %rsp
 3170 13c8 48897DF8 		movq	%rdi, -8(%rbp)
  46:TestMemoryOutStream.cpp **** {
 3171              		.loc 3 46 0
 3172 13cc 488B45F8 		movq	-8(%rbp), %rax
 3173 13d0 4889C7   		movq	%rax, %rdi
 3174 13d3 E8ACFFFF 		call	_ZN12_GLOBAL__N_140TestStreamingLongWritesCorrectCharactersD1Ev
 3174      FF
 3175 13d8 488B45F8 		movq	-8(%rbp), %rax
 3176 13dc 4889C7   		movq	%rax, %rdi
 3177 13df E8000000 		call	_ZdlPv
 3177      00
 3178 13e4 C9       		leave
 3179              		.cfi_def_cfa 7, 8
 3180 13e5 C3       		ret
 3181              		.cfi_endproc
 3182              	.LFE1223:
 3184              		.section	.rodata
 3185              		.align 8
 3188              	_ZTVN12_GLOBAL__N_147TestStreamingUnsignedIntWritesCorrectCharactersE:
 3189 05b8 00000000 		.quad	0
 3189      00000000 
 3190 05c0 00000000 		.quad	_ZTIN12_GLOBAL__N_147TestStreamingUnsignedIntWritesCorrectCharactersE
 3190      00000000 
 3191 05c8 00000000 		.quad	_ZN12_GLOBAL__N_147TestStreamingUnsignedIntWritesCorrectCharactersD1Ev
 3191      00000000 
 3192 05d0 00000000 		.quad	_ZN12_GLOBAL__N_147TestStreamingUnsignedIntWritesCorrectCharactersD0Ev
 3192      00000000 
 3193 05d8 00000000 		.quad	_ZNK12_GLOBAL__N_147TestStreamingUnsignedIntWritesCorrectCharacters7RunImplEv
 3193      00000000 
 3194              		.text
 3195              		.align 2
 3197              	_ZN12_GLOBAL__N_147TestStreamingUnsignedIntWritesCorrectCharactersD2Ev:
 3198              	.LFB1225:
  39:TestMemoryOutStream.cpp **** {
 3199              		.loc 3 39 0
 3200              		.cfi_startproc
 3201 13e6 55       		pushq	%rbp
 3202              		.cfi_def_cfa_offset 16
 3203              		.cfi_offset 6, -16
 3204 13e7 4889E5   		movq	%rsp, %rbp
 3205              		.cfi_def_cfa_register 6
 3206 13ea 4883EC10 		subq	$16, %rsp
 3207 13ee 48897DF8 		movq	%rdi, -8(%rbp)
 3208              	.LBB21:
  39:TestMemoryOutStream.cpp **** {
 3209              		.loc 3 39 0
 3210 13f2 BA000000 		movl	$_ZTVN12_GLOBAL__N_147TestStreamingUnsignedIntWritesCorrectCharactersE+16, %edx
 3210      00
 3211 13f7 488B45F8 		movq	-8(%rbp), %rax
 3212 13fb 488910   		movq	%rdx, (%rax)
 3213 13fe 488B45F8 		movq	-8(%rbp), %rax
 3214 1402 4889C7   		movq	%rax, %rdi
 3215 1405 E8000000 		call	_ZN8UnitTest4TestD2Ev
 3215      00
 3216              	.LBE21:
 3217 140a B8000000 		movl	$0, %eax
 3217      00
 3218 140f 85C0     		testl	%eax, %eax
 3219 1411 740C     		je	.L158
  39:TestMemoryOutStream.cpp **** {
 3220              		.loc 3 39 0 is_stmt 0 discriminator 4
 3221 1413 488B45F8 		movq	-8(%rbp), %rax
 3222 1417 4889C7   		movq	%rax, %rdi
 3223 141a E8000000 		call	_ZdlPv
 3223      00
 3224              	.L158:
  39:TestMemoryOutStream.cpp **** {
 3225              		.loc 3 39 0
 3226 141f C9       		leave
 3227              		.cfi_def_cfa 7, 8
 3228 1420 C3       		ret
 3229              		.cfi_endproc
 3230              	.LFE1225:
 3232              		.set	_ZN12_GLOBAL__N_147TestStreamingUnsignedIntWritesCorrectCharactersD1Ev,_ZN12_GLOBAL__N_147Tes
 3233 1421 90       		.align 2
 3235              	_ZN12_GLOBAL__N_147TestStreamingUnsignedIntWritesCorrectCharactersD0Ev:
 3236              	.LFB1227:
  39:TestMemoryOutStream.cpp **** {
 3237              		.loc 3 39 0 is_stmt 1
 3238              		.cfi_startproc
 3239 1422 55       		pushq	%rbp
 3240              		.cfi_def_cfa_offset 16
 3241              		.cfi_offset 6, -16
 3242 1423 4889E5   		movq	%rsp, %rbp
 3243              		.cfi_def_cfa_register 6
 3244 1426 4883EC10 		subq	$16, %rsp
 3245 142a 48897DF8 		movq	%rdi, -8(%rbp)
  39:TestMemoryOutStream.cpp **** {
 3246              		.loc 3 39 0
 3247 142e 488B45F8 		movq	-8(%rbp), %rax
 3248 1432 4889C7   		movq	%rax, %rdi
 3249 1435 E8ACFFFF 		call	_ZN12_GLOBAL__N_147TestStreamingUnsignedIntWritesCorrectCharactersD1Ev
 3249      FF
 3250 143a 488B45F8 		movq	-8(%rbp), %rax
 3251 143e 4889C7   		movq	%rax, %rdi
 3252 1441 E8000000 		call	_ZdlPv
 3252      00
 3253 1446 C9       		leave
 3254              		.cfi_def_cfa 7, 8
 3255 1447 C3       		ret
 3256              		.cfi_endproc
 3257              	.LFE1227:
 3259              		.section	.rodata
 3260              		.align 8
 3263              	_ZTVN12_GLOBAL__N_139TestStreamingIntWritesCorrectCharactersE:
 3264 05e0 00000000 		.quad	0
 3264      00000000 
 3265 05e8 00000000 		.quad	_ZTIN12_GLOBAL__N_139TestStreamingIntWritesCorrectCharactersE
 3265      00000000 
 3266 05f0 00000000 		.quad	_ZN12_GLOBAL__N_139TestStreamingIntWritesCorrectCharactersD1Ev
 3266      00000000 
 3267 05f8 00000000 		.quad	_ZN12_GLOBAL__N_139TestStreamingIntWritesCorrectCharactersD0Ev
 3267      00000000 
 3268 0600 00000000 		.quad	_ZNK12_GLOBAL__N_139TestStreamingIntWritesCorrectCharacters7RunImplEv
 3268      00000000 
 3269              		.text
 3270              		.align 2
 3272              	_ZN12_GLOBAL__N_139TestStreamingIntWritesCorrectCharactersD2Ev:
 3273              	.LFB1229:
  32:TestMemoryOutStream.cpp **** {
 3274              		.loc 3 32 0
 3275              		.cfi_startproc
 3276 1448 55       		pushq	%rbp
 3277              		.cfi_def_cfa_offset 16
 3278              		.cfi_offset 6, -16
 3279 1449 4889E5   		movq	%rsp, %rbp
 3280              		.cfi_def_cfa_register 6
 3281 144c 4883EC10 		subq	$16, %rsp
 3282 1450 48897DF8 		movq	%rdi, -8(%rbp)
 3283              	.LBB22:
  32:TestMemoryOutStream.cpp **** {
 3284              		.loc 3 32 0
 3285 1454 BA000000 		movl	$_ZTVN12_GLOBAL__N_139TestStreamingIntWritesCorrectCharactersE+16, %edx
 3285      00
 3286 1459 488B45F8 		movq	-8(%rbp), %rax
 3287 145d 488910   		movq	%rdx, (%rax)
 3288 1460 488B45F8 		movq	-8(%rbp), %rax
 3289 1464 4889C7   		movq	%rax, %rdi
 3290 1467 E8000000 		call	_ZN8UnitTest4TestD2Ev
 3290      00
 3291              	.LBE22:
 3292 146c B8000000 		movl	$0, %eax
 3292      00
 3293 1471 85C0     		testl	%eax, %eax
 3294 1473 740C     		je	.L161
  32:TestMemoryOutStream.cpp **** {
 3295              		.loc 3 32 0 is_stmt 0 discriminator 4
 3296 1475 488B45F8 		movq	-8(%rbp), %rax
 3297 1479 4889C7   		movq	%rax, %rdi
 3298 147c E8000000 		call	_ZdlPv
 3298      00
 3299              	.L161:
  32:TestMemoryOutStream.cpp **** {
 3300              		.loc 3 32 0
 3301 1481 C9       		leave
 3302              		.cfi_def_cfa 7, 8
 3303 1482 C3       		ret
 3304              		.cfi_endproc
 3305              	.LFE1229:
 3307              		.set	_ZN12_GLOBAL__N_139TestStreamingIntWritesCorrectCharactersD1Ev,_ZN12_GLOBAL__N_139TestStreami
 3308 1483 90       		.align 2
 3310              	_ZN12_GLOBAL__N_139TestStreamingIntWritesCorrectCharactersD0Ev:
 3311              	.LFB1231:
  32:TestMemoryOutStream.cpp **** {
 3312              		.loc 3 32 0 is_stmt 1
 3313              		.cfi_startproc
 3314 1484 55       		pushq	%rbp
 3315              		.cfi_def_cfa_offset 16
 3316              		.cfi_offset 6, -16
 3317 1485 4889E5   		movq	%rsp, %rbp
 3318              		.cfi_def_cfa_register 6
 3319 1488 4883EC10 		subq	$16, %rsp
 3320 148c 48897DF8 		movq	%rdi, -8(%rbp)
  32:TestMemoryOutStream.cpp **** {
 3321              		.loc 3 32 0
 3322 1490 488B45F8 		movq	-8(%rbp), %rax
 3323 1494 4889C7   		movq	%rax, %rdi
 3324 1497 E8ACFFFF 		call	_ZN12_GLOBAL__N_139TestStreamingIntWritesCorrectCharactersD1Ev
 3324      FF
 3325 149c 488B45F8 		movq	-8(%rbp), %rax
 3326 14a0 4889C7   		movq	%rax, %rdi
 3327 14a3 E8000000 		call	_ZdlPv
 3327      00
 3328 14a8 C9       		leave
 3329              		.cfi_def_cfa 7, 8
 3330 14a9 C3       		ret
 3331              		.cfi_endproc
 3332              	.LFE1231:
 3334              		.section	.rodata
 3335              		.align 8
 3338              	_ZTVN12_GLOBAL__N_144TestStreamingMultipleTimesConcatenatesResultE:
 3339 0608 00000000 		.quad	0
 3339      00000000 
 3340 0610 00000000 		.quad	_ZTIN12_GLOBAL__N_144TestStreamingMultipleTimesConcatenatesResultE
 3340      00000000 
 3341 0618 00000000 		.quad	_ZN12_GLOBAL__N_144TestStreamingMultipleTimesConcatenatesResultD1Ev
 3341      00000000 
 3342 0620 00000000 		.quad	_ZN12_GLOBAL__N_144TestStreamingMultipleTimesConcatenatesResultD0Ev
 3342      00000000 
 3343 0628 00000000 		.quad	_ZNK12_GLOBAL__N_144TestStreamingMultipleTimesConcatenatesResult7RunImplEv
 3343      00000000 
 3344              		.text
 3345              		.align 2
 3347              	_ZN12_GLOBAL__N_144TestStreamingMultipleTimesConcatenatesResultD2Ev:
 3348              	.LFB1233:
  25:TestMemoryOutStream.cpp **** {
 3349              		.loc 3 25 0
 3350              		.cfi_startproc
 3351 14aa 55       		pushq	%rbp
 3352              		.cfi_def_cfa_offset 16
 3353              		.cfi_offset 6, -16
 3354 14ab 4889E5   		movq	%rsp, %rbp
 3355              		.cfi_def_cfa_register 6
 3356 14ae 4883EC10 		subq	$16, %rsp
 3357 14b2 48897DF8 		movq	%rdi, -8(%rbp)
 3358              	.LBB23:
  25:TestMemoryOutStream.cpp **** {
 3359              		.loc 3 25 0
 3360 14b6 BA000000 		movl	$_ZTVN12_GLOBAL__N_144TestStreamingMultipleTimesConcatenatesResultE+16, %edx
 3360      00
 3361 14bb 488B45F8 		movq	-8(%rbp), %rax
 3362 14bf 488910   		movq	%rdx, (%rax)
 3363 14c2 488B45F8 		movq	-8(%rbp), %rax
 3364 14c6 4889C7   		movq	%rax, %rdi
 3365 14c9 E8000000 		call	_ZN8UnitTest4TestD2Ev
 3365      00
 3366              	.LBE23:
 3367 14ce B8000000 		movl	$0, %eax
 3367      00
 3368 14d3 85C0     		testl	%eax, %eax
 3369 14d5 740C     		je	.L164
  25:TestMemoryOutStream.cpp **** {
 3370              		.loc 3 25 0 is_stmt 0 discriminator 4
 3371 14d7 488B45F8 		movq	-8(%rbp), %rax
 3372 14db 4889C7   		movq	%rax, %rdi
 3373 14de E8000000 		call	_ZdlPv
 3373      00
 3374              	.L164:
  25:TestMemoryOutStream.cpp **** {
 3375              		.loc 3 25 0
 3376 14e3 C9       		leave
 3377              		.cfi_def_cfa 7, 8
 3378 14e4 C3       		ret
 3379              		.cfi_endproc
 3380              	.LFE1233:
 3382              		.set	_ZN12_GLOBAL__N_144TestStreamingMultipleTimesConcatenatesResultD1Ev,_ZN12_GLOBAL__N_144TestSt
 3383 14e5 90       		.align 2
 3385              	_ZN12_GLOBAL__N_144TestStreamingMultipleTimesConcatenatesResultD0Ev:
 3386              	.LFB1235:
  25:TestMemoryOutStream.cpp **** {
 3387              		.loc 3 25 0 is_stmt 1
 3388              		.cfi_startproc
 3389 14e6 55       		pushq	%rbp
 3390              		.cfi_def_cfa_offset 16
 3391              		.cfi_offset 6, -16
 3392 14e7 4889E5   		movq	%rsp, %rbp
 3393              		.cfi_def_cfa_register 6
 3394 14ea 4883EC10 		subq	$16, %rsp
 3395 14ee 48897DF8 		movq	%rdi, -8(%rbp)
  25:TestMemoryOutStream.cpp **** {
 3396              		.loc 3 25 0
 3397 14f2 488B45F8 		movq	-8(%rbp), %rax
 3398 14f6 4889C7   		movq	%rax, %rdi
 3399 14f9 E8ACFFFF 		call	_ZN12_GLOBAL__N_144TestStreamingMultipleTimesConcatenatesResultD1Ev
 3399      FF
 3400 14fe 488B45F8 		movq	-8(%rbp), %rax
 3401 1502 4889C7   		movq	%rax, %rdi
 3402 1505 E8000000 		call	_ZdlPv
 3402      00
 3403 150a C9       		leave
 3404              		.cfi_def_cfa 7, 8
 3405 150b C3       		ret
 3406              		.cfi_endproc
 3407              	.LFE1235:
 3409              		.section	.rodata
 3410              		.align 8
 3413              	_ZTVN12_GLOBAL__N_133TestStreamingTextCopiesCharactersE:
 3414 0630 00000000 		.quad	0
 3414      00000000 
 3415 0638 00000000 		.quad	_ZTIN12_GLOBAL__N_133TestStreamingTextCopiesCharactersE
 3415      00000000 
 3416 0640 00000000 		.quad	_ZN12_GLOBAL__N_133TestStreamingTextCopiesCharactersD1Ev
 3416      00000000 
 3417 0648 00000000 		.quad	_ZN12_GLOBAL__N_133TestStreamingTextCopiesCharactersD0Ev
 3417      00000000 
 3418 0650 00000000 		.quad	_ZNK12_GLOBAL__N_133TestStreamingTextCopiesCharacters7RunImplEv
 3418      00000000 
 3419              		.text
 3420              		.align 2
 3422              	_ZN12_GLOBAL__N_133TestStreamingTextCopiesCharactersD2Ev:
 3423              	.LFB1237:
  18:TestMemoryOutStream.cpp **** {
 3424              		.loc 3 18 0
 3425              		.cfi_startproc
 3426 150c 55       		pushq	%rbp
 3427              		.cfi_def_cfa_offset 16
 3428              		.cfi_offset 6, -16
 3429 150d 4889E5   		movq	%rsp, %rbp
 3430              		.cfi_def_cfa_register 6
 3431 1510 4883EC10 		subq	$16, %rsp
 3432 1514 48897DF8 		movq	%rdi, -8(%rbp)
 3433              	.LBB24:
  18:TestMemoryOutStream.cpp **** {
 3434              		.loc 3 18 0
 3435 1518 BA000000 		movl	$_ZTVN12_GLOBAL__N_133TestStreamingTextCopiesCharactersE+16, %edx
 3435      00
 3436 151d 488B45F8 		movq	-8(%rbp), %rax
 3437 1521 488910   		movq	%rdx, (%rax)
 3438 1524 488B45F8 		movq	-8(%rbp), %rax
 3439 1528 4889C7   		movq	%rax, %rdi
 3440 152b E8000000 		call	_ZN8UnitTest4TestD2Ev
 3440      00
 3441              	.LBE24:
 3442 1530 B8000000 		movl	$0, %eax
 3442      00
 3443 1535 85C0     		testl	%eax, %eax
 3444 1537 740C     		je	.L167
  18:TestMemoryOutStream.cpp **** {
 3445              		.loc 3 18 0 is_stmt 0 discriminator 4
 3446 1539 488B45F8 		movq	-8(%rbp), %rax
 3447 153d 4889C7   		movq	%rax, %rdi
 3448 1540 E8000000 		call	_ZdlPv
 3448      00
 3449              	.L167:
  18:TestMemoryOutStream.cpp **** {
 3450              		.loc 3 18 0
 3451 1545 C9       		leave
 3452              		.cfi_def_cfa 7, 8
 3453 1546 C3       		ret
 3454              		.cfi_endproc
 3455              	.LFE1237:
 3457              		.set	_ZN12_GLOBAL__N_133TestStreamingTextCopiesCharactersD1Ev,_ZN12_GLOBAL__N_133TestStreamingText
 3458 1547 90       		.align 2
 3460              	_ZN12_GLOBAL__N_133TestStreamingTextCopiesCharactersD0Ev:
 3461              	.LFB1239:
  18:TestMemoryOutStream.cpp **** {
 3462              		.loc 3 18 0 is_stmt 1
 3463              		.cfi_startproc
 3464 1548 55       		pushq	%rbp
 3465              		.cfi_def_cfa_offset 16
 3466              		.cfi_offset 6, -16
 3467 1549 4889E5   		movq	%rsp, %rbp
 3468              		.cfi_def_cfa_register 6
 3469 154c 4883EC10 		subq	$16, %rsp
 3470 1550 48897DF8 		movq	%rdi, -8(%rbp)
  18:TestMemoryOutStream.cpp **** {
 3471              		.loc 3 18 0
 3472 1554 488B45F8 		movq	-8(%rbp), %rax
 3473 1558 4889C7   		movq	%rax, %rdi
 3474 155b E8ACFFFF 		call	_ZN12_GLOBAL__N_133TestStreamingTextCopiesCharactersD1Ev
 3474      FF
 3475 1560 488B45F8 		movq	-8(%rbp), %rax
 3476 1564 4889C7   		movq	%rax, %rdi
 3477 1567 E8000000 		call	_ZdlPv
 3477      00
 3478 156c C9       		leave
 3479              		.cfi_def_cfa 7, 8
 3480 156d C3       		ret
 3481              		.cfi_endproc
 3482              	.LFE1239:
 3484              		.section	.rodata
 3485              		.align 8
 3488              	_ZTVN12_GLOBAL__N_124TestDefaultIsEmptyStringE:
 3489 0658 00000000 		.quad	0
 3489      00000000 
 3490 0660 00000000 		.quad	_ZTIN12_GLOBAL__N_124TestDefaultIsEmptyStringE
 3490      00000000 
 3491 0668 00000000 		.quad	_ZN12_GLOBAL__N_124TestDefaultIsEmptyStringD1Ev
 3491      00000000 
 3492 0670 00000000 		.quad	_ZN12_GLOBAL__N_124TestDefaultIsEmptyStringD0Ev
 3492      00000000 
 3493 0678 00000000 		.quad	_ZNK12_GLOBAL__N_124TestDefaultIsEmptyString7RunImplEv
 3493      00000000 
 3494              		.text
 3495              		.align 2
 3497              	_ZN12_GLOBAL__N_124TestDefaultIsEmptyStringD2Ev:
 3498              	.LFB1241:
  11:TestMemoryOutStream.cpp **** {
 3499              		.loc 3 11 0
 3500              		.cfi_startproc
 3501 156e 55       		pushq	%rbp
 3502              		.cfi_def_cfa_offset 16
 3503              		.cfi_offset 6, -16
 3504 156f 4889E5   		movq	%rsp, %rbp
 3505              		.cfi_def_cfa_register 6
 3506 1572 4883EC10 		subq	$16, %rsp
 3507 1576 48897DF8 		movq	%rdi, -8(%rbp)
 3508              	.LBB25:
  11:TestMemoryOutStream.cpp **** {
 3509              		.loc 3 11 0
 3510 157a BA000000 		movl	$_ZTVN12_GLOBAL__N_124TestDefaultIsEmptyStringE+16, %edx
 3510      00
 3511 157f 488B45F8 		movq	-8(%rbp), %rax
 3512 1583 488910   		movq	%rdx, (%rax)
 3513 1586 488B45F8 		movq	-8(%rbp), %rax
 3514 158a 4889C7   		movq	%rax, %rdi
 3515 158d E8000000 		call	_ZN8UnitTest4TestD2Ev
 3515      00
 3516              	.LBE25:
 3517 1592 B8000000 		movl	$0, %eax
 3517      00
 3518 1597 85C0     		testl	%eax, %eax
 3519 1599 740C     		je	.L170
  11:TestMemoryOutStream.cpp **** {
 3520              		.loc 3 11 0 is_stmt 0 discriminator 4
 3521 159b 488B45F8 		movq	-8(%rbp), %rax
 3522 159f 4889C7   		movq	%rax, %rdi
 3523 15a2 E8000000 		call	_ZdlPv
 3523      00
 3524              	.L170:
  11:TestMemoryOutStream.cpp **** {
 3525              		.loc 3 11 0
 3526 15a7 C9       		leave
 3527              		.cfi_def_cfa 7, 8
 3528 15a8 C3       		ret
 3529              		.cfi_endproc
 3530              	.LFE1241:
 3532              		.set	_ZN12_GLOBAL__N_124TestDefaultIsEmptyStringD1Ev,_ZN12_GLOBAL__N_124TestDefaultIsEmptyStringD2
 3533 15a9 90       		.align 2
 3535              	_ZN12_GLOBAL__N_124TestDefaultIsEmptyStringD0Ev:
 3536              	.LFB1243:
  11:TestMemoryOutStream.cpp **** {
 3537              		.loc 3 11 0 is_stmt 1
 3538              		.cfi_startproc
 3539 15aa 55       		pushq	%rbp
 3540              		.cfi_def_cfa_offset 16
 3541              		.cfi_offset 6, -16
 3542 15ab 4889E5   		movq	%rsp, %rbp
 3543              		.cfi_def_cfa_register 6
 3544 15ae 4883EC10 		subq	$16, %rsp
 3545 15b2 48897DF8 		movq	%rdi, -8(%rbp)
  11:TestMemoryOutStream.cpp **** {
 3546              		.loc 3 11 0
 3547 15b6 488B45F8 		movq	-8(%rbp), %rax
 3548 15ba 4889C7   		movq	%rax, %rdi
 3549 15bd E8ACFFFF 		call	_ZN12_GLOBAL__N_124TestDefaultIsEmptyStringD1Ev
 3549      FF
 3550 15c2 488B45F8 		movq	-8(%rbp), %rax
 3551 15c6 4889C7   		movq	%rax, %rdi
 3552 15c9 E8000000 		call	_ZdlPv
 3552      00
 3553 15ce C9       		leave
 3554              		.cfi_def_cfa 7, 8
 3555 15cf C3       		ret
 3556              		.cfi_endproc
 3557              	.LFE1243:
 3559              		.weak	_ZTVN8UnitTest15MemoryOutStreamE
 3560              		.section	.rodata._ZTVN8UnitTest15MemoryOutStreamE,"aG",@progbits,_ZTVN8UnitTest15MemoryOutStreamE,
 3561              		.align 8
 3564              	_ZTVN8UnitTest15MemoryOutStreamE:
 3565 0000 90000000 		.quad	144
 3565      00000000 
 3566 0008 00000000 		.quad	0
 3566      00000000 
 3567 0010 00000000 		.quad	_ZTIN8UnitTest15MemoryOutStreamE
 3567      00000000 
 3568 0018 00000000 		.quad	_ZN8UnitTest15MemoryOutStreamD1Ev
 3568      00000000 
 3569 0020 00000000 		.quad	_ZN8UnitTest15MemoryOutStreamD0Ev
 3569      00000000 
 3570 0028 70FFFFFF 		.quad	-144
 3570      FFFFFFFF 
 3571 0030 70FFFFFF 		.quad	-144
 3571      FFFFFFFF 
 3572 0038 00000000 		.quad	_ZTIN8UnitTest15MemoryOutStreamE
 3572      00000000 
 3573 0040 00000000 		.quad	_ZTv0_n24_N8UnitTest15MemoryOutStreamD1Ev
 3573      00000000 
 3574 0048 00000000 		.quad	_ZTv0_n24_N8UnitTest15MemoryOutStreamD0Ev
 3574      00000000 
 3575              		.weak	_ZTTN8UnitTest15MemoryOutStreamE
 3576              		.section	.rodata._ZTTN8UnitTest15MemoryOutStreamE,"aG",@progbits,_ZTVN8UnitTest15MemoryOutStreamE,
 3577              		.align 8
 3580              	_ZTTN8UnitTest15MemoryOutStreamE:
 3581 0000 00000000 		.quad	_ZTVN8UnitTest15MemoryOutStreamE+24
 3581      00000000 
 3582 0008 00000000 		.quad	_ZTCN8UnitTest15MemoryOutStreamE0_NSt7__cxx1119basic_ostringstreamIcSt11char_traitsIcESaIcEE
 3582      00000000 
 3583 0010 00000000 		.quad	_ZTCN8UnitTest15MemoryOutStreamE0_So+24
 3583      00000000 
 3584 0018 00000000 		.quad	_ZTCN8UnitTest15MemoryOutStreamE0_So+64
 3584      00000000 
 3585 0020 00000000 		.quad	_ZTCN8UnitTest15MemoryOutStreamE0_NSt7__cxx1119basic_ostringstreamIcSt11char_traitsIcESaIcEE
 3585      00000000 
 3586 0028 00000000 		.quad	_ZTVN8UnitTest15MemoryOutStreamE+64
 3586      00000000 
 3587              		.hidden	_ZTCN8UnitTest15MemoryOutStreamE0_NSt7__cxx1119basic_ostringstreamIcSt11char_traitsIcESaIc
 3588              		.weak	_ZTCN8UnitTest15MemoryOutStreamE0_NSt7__cxx1119basic_ostringstreamIcSt11char_traitsIcESaIcEE
 3589              		.section	.rodata._ZTCN8UnitTest15MemoryOutStreamE0_NSt7__cxx1119basic_ostringstreamIcSt11char_trai
 3590              		.align 8
 3593              	_ZTCN8UnitTest15MemoryOutStreamE0_NSt7__cxx1119basic_ostringstreamIcSt11char_traitsIcESaIcEEE:
 3594 0000 90000000 		.quad	144
 3594      00000000 
 3595 0008 00000000 		.quad	0
 3595      00000000 
 3596 0010 00000000 		.quad	_ZTINSt7__cxx1119basic_ostringstreamIcSt11char_traitsIcESaIcEEE
 3596      00000000 
 3597 0018 00000000 		.quad	0
 3597      00000000 
 3598 0020 00000000 		.quad	0
 3598      00000000 
 3599 0028 70FFFFFF 		.quad	-144
 3599      FFFFFFFF 
 3600 0030 70FFFFFF 		.quad	-144
 3600      FFFFFFFF 
 3601 0038 00000000 		.quad	_ZTINSt7__cxx1119basic_ostringstreamIcSt11char_traitsIcESaIcEEE
 3601      00000000 
 3602 0040 00000000 		.quad	0
 3602      00000000 
 3603 0048 00000000 		.quad	0
 3603      00000000 
 3604              		.hidden	_ZTCN8UnitTest15MemoryOutStreamE0_So
 3605              		.weak	_ZTCN8UnitTest15MemoryOutStreamE0_So
 3606              		.section	.rodata._ZTCN8UnitTest15MemoryOutStreamE0_So,"aG",@progbits,_ZTVN8UnitTest15MemoryOutStre
 3607              		.align 8
 3610              	_ZTCN8UnitTest15MemoryOutStreamE0_So:
 3611 0000 90000000 		.quad	144
 3611      00000000 
 3612 0008 00000000 		.quad	0
 3612      00000000 
 3613 0010 00000000 		.quad	_ZTISo
 3613      00000000 
 3614 0018 00000000 		.quad	0
 3614      00000000 
 3615 0020 00000000 		.quad	0
 3615      00000000 
 3616 0028 70FFFFFF 		.quad	-144
 3616      FFFFFFFF 
 3617 0030 70FFFFFF 		.quad	-144
 3617      FFFFFFFF 
 3618 0038 00000000 		.quad	_ZTISo
 3618      00000000 
 3619 0040 00000000 		.quad	0
 3619      00000000 
 3620 0048 00000000 		.quad	0
 3620      00000000 
 3621              		.section	.text._ZN8UnitTest15MemoryOutStreamD1Ev,"axG",@progbits,_ZN8UnitTest15MemoryOutStreamD1Ev
 3622              		.align 2
 3623              		.weak	_ZN8UnitTest15MemoryOutStreamD1Ev
 3625              	_ZN8UnitTest15MemoryOutStreamD1Ev:
 3626              	.LFB1246:
  13:../MemoryOutStream.h **** {
 3627              		.loc 2 13 0
 3628              		.cfi_startproc
 3629              		.cfi_personality 0x3,__gxx_personality_v0
 3630              		.cfi_lsda 0x3,.LLSDA1246
 3631 0000 55       		pushq	%rbp
 3632              		.cfi_def_cfa_offset 16
 3633              		.cfi_offset 6, -16
 3634 0001 4889E5   		movq	%rsp, %rbp
 3635              		.cfi_def_cfa_register 6
 3636 0004 53       		pushq	%rbx
 3637 0005 4883EC18 		subq	$24, %rsp
 3638              		.cfi_offset 3, -24
 3639 0009 48897DE8 		movq	%rdi, -24(%rbp)
 3640              	.LBB26:
  13:../MemoryOutStream.h **** {
 3641              		.loc 2 13 0
 3642 000d BA000000 		movl	$_ZTVN8UnitTest15MemoryOutStreamE+24, %edx
 3642      00
 3643 0012 488B45E8 		movq	-24(%rbp), %rax
 3644 0016 488910   		movq	%rdx, (%rax)
 3645 0019 BA900000 		movl	$144, %edx
 3645      00
 3646 001e 488B45E8 		movq	-24(%rbp), %rax
 3647 0022 4801D0   		addq	%rdx, %rax
 3648 0025 BA000000 		movl	$_ZTVN8UnitTest15MemoryOutStreamE+64, %edx
 3648      00
 3649 002a 488910   		movq	%rdx, (%rax)
 3650 002d 488B45E8 		movq	-24(%rbp), %rax
 3651 0031 4883C070 		addq	$112, %rax
 3652 0035 4889C7   		movq	%rax, %rdi
 3653              	.LEHB83:
 3654 0038 E8000000 		call	_ZNSt7__cxx1112basic_stringIcSt11char_traitsIcESaIcEED1Ev
 3654      00
 3655              	.LEHE83:
  13:../MemoryOutStream.h **** {
 3656              		.loc 2 13 0 is_stmt 0 discriminator 14
 3657 003d BA000000 		movl	$_ZTTN8UnitTest15MemoryOutStreamE+8, %edx
 3657      00
 3658 0042 488B45E8 		movq	-24(%rbp), %rax
 3659 0046 4889D6   		movq	%rdx, %rsi
 3660 0049 4889C7   		movq	%rax, %rdi
 3661              	.LEHB84:
 3662 004c E8000000 		call	_ZNSt7__cxx1119basic_ostringstreamIcSt11char_traitsIcESaIcEED2Ev
 3662      00
 3663              	.LEHE84:
  13:../MemoryOutStream.h **** {
 3664              		.loc 2 13 0 discriminator 20
 3665 0051 B8020000 		movl	$2, %eax
 3665      00
 3666 0056 85C0     		testl	%eax, %eax
 3667 0058 7412     		je	.L174
  13:../MemoryOutStream.h **** {
 3668              		.loc 2 13 0 discriminator 21
 3669 005a 488B45E8 		movq	-24(%rbp), %rax
 3670 005e 48059000 		addq	$144, %rax
 3670      0000
 3671 0064 4889C7   		movq	%rax, %rdi
 3672              	.LEHB85:
 3673 0067 E8000000 		call	_ZNSt9basic_iosIcSt11char_traitsIcEED2Ev
 3673      00
 3674              	.LEHE85:
 3675              	.L174:
 3676              	.LBE26:
  13:../MemoryOutStream.h **** {
 3677              		.loc 2 13 0 discriminator 22
 3678 006c B8000000 		movl	$0, %eax
 3678      00
 3679 0071 85C0     		testl	%eax, %eax
 3680 0073 7450     		je	.L173
  13:../MemoryOutStream.h **** {
 3681              		.loc 2 13 0 discriminator 25
 3682 0075 488B45E8 		movq	-24(%rbp), %rax
 3683 0079 4889C7   		movq	%rax, %rdi
 3684 007c E8000000 		call	_ZdlPv
 3684      00
 3685 0081 EB42     		jmp	.L173
 3686              	.L179:
 3687 0083 4889C3   		movq	%rax, %rbx
 3688              	.LBB27:
  13:../MemoryOutStream.h **** {
 3689              		.loc 2 13 0
 3690 0086 BA000000 		movl	$_ZTTN8UnitTest15MemoryOutStreamE+8, %edx
 3690      00
 3691 008b 488B45E8 		movq	-24(%rbp), %rax
 3692 008f 4889D6   		movq	%rdx, %rsi
 3693 0092 4889C7   		movq	%rax, %rdi
 3694 0095 E8000000 		call	_ZNSt7__cxx1119basic_ostringstreamIcSt11char_traitsIcESaIcEED2Ev
 3694      00
 3695 009a EB03     		jmp	.L177
 3696              	.L180:
 3697 009c 4889C3   		movq	%rax, %rbx
 3698              	.L177:
  13:../MemoryOutStream.h **** {
 3699              		.loc 2 13 0 discriminator 19
 3700 009f B8020000 		movl	$2, %eax
 3700      00
 3701 00a4 85C0     		testl	%eax, %eax
 3702 00a6 7412     		je	.L178
  13:../MemoryOutStream.h **** {
 3703              		.loc 2 13 0 discriminator 32
 3704 00a8 488B45E8 		movq	-24(%rbp), %rax
 3705 00ac 48059000 		addq	$144, %rax
 3705      0000
 3706 00b2 4889C7   		movq	%rax, %rdi
 3707 00b5 E8000000 		call	_ZNSt9basic_iosIcSt11char_traitsIcEED2Ev
 3707      00
 3708              	.L178:
 3709 00ba 4889D8   		movq	%rbx, %rax
 3710 00bd 4889C7   		movq	%rax, %rdi
 3711              	.LEHB86:
 3712 00c0 E8000000 		call	_Unwind_Resume
 3712      00
 3713              	.LEHE86:
 3714              	.L173:
 3715              	.LBE27:
  13:../MemoryOutStream.h **** {
 3716              		.loc 2 13 0
 3717 00c5 4883C418 		addq	$24, %rsp
 3718 00c9 5B       		popq	%rbx
 3719 00ca 5D       		popq	%rbp
 3720              		.cfi_def_cfa 7, 8
 3721 00cb C3       		ret
 3722              		.cfi_endproc
 3723              	.LFE1246:
 3724              		.section	.gcc_except_table
 3725              	.LLSDA1246:
 3726 021c FF       		.byte	0xff
 3727 021d FF       		.byte	0xff
 3728 021e 01       		.byte	0x1
 3729 021f 13       		.uleb128 .LLSDACSE1246-.LLSDACSB1246
 3730              	.LLSDACSB1246:
 3731 0220 38       		.uleb128 .LEHB83-.LFB1246
 3732 0221 05       		.uleb128 .LEHE83-.LEHB83
 3733 0222 8301     		.uleb128 .L179-.LFB1246
 3734 0224 00       		.uleb128 0
 3735 0225 4C       		.uleb128 .LEHB84-.LFB1246
 3736 0226 05       		.uleb128 .LEHE84-.LEHB84
 3737 0227 9C01     		.uleb128 .L180-.LFB1246
 3738 0229 00       		.uleb128 0
 3739 022a 67       		.uleb128 .LEHB85-.LFB1246
 3740 022b 05       		.uleb128 .LEHE85-.LEHB85
 3741 022c 00       		.uleb128 0
 3742 022d 00       		.uleb128 0
 3743 022e C001     		.uleb128 .LEHB86-.LFB1246
 3744 0230 05       		.uleb128 .LEHE86-.LEHB86
 3745 0231 00       		.uleb128 0
 3746 0232 00       		.uleb128 0
 3747              	.LLSDACSE1246:
 3748              		.section	.text._ZN8UnitTest15MemoryOutStreamD1Ev,"axG",@progbits,_ZN8UnitTest15MemoryOutStreamD1Ev
 3750              		.set	.LTHUNK0,_ZN8UnitTest15MemoryOutStreamD1Ev
 3751              		.weak	_ZTv0_n24_N8UnitTest15MemoryOutStreamD1Ev
 3753              	_ZTv0_n24_N8UnitTest15MemoryOutStreamD1Ev:
 3754              	.LFB1250:
  13:../MemoryOutStream.h **** {
 3755              		.loc 2 13 0 is_stmt 1
 3756              		.cfi_startproc
 3757 00cc 4C8B17   		movq	(%rdi), %r10
 3758 00cf 49037AE8 		addq	-24(%r10), %rdi
 3759 00d3 E928FFFF 		jmp	.LTHUNK0
 3759      FF
 3760              		.cfi_endproc
 3761              	.LFE1250:
 3763              		.section	.text._ZN8UnitTest15MemoryOutStreamD0Ev,"axG",@progbits,_ZN8UnitTest15MemoryOutStreamD0Ev
 3764              		.align 2
 3765              		.weak	_ZN8UnitTest15MemoryOutStreamD0Ev
 3767              	_ZN8UnitTest15MemoryOutStreamD0Ev:
 3768              	.LFB1247:
  13:../MemoryOutStream.h **** {
 3769              		.loc 2 13 0
 3770              		.cfi_startproc
 3771 0000 55       		pushq	%rbp
 3772              		.cfi_def_cfa_offset 16
 3773              		.cfi_offset 6, -16
 3774 0001 4889E5   		movq	%rsp, %rbp
 3775              		.cfi_def_cfa_register 6
 3776 0004 4883EC10 		subq	$16, %rsp
 3777 0008 48897DF8 		movq	%rdi, -8(%rbp)
  13:../MemoryOutStream.h **** {
 3778              		.loc 2 13 0
 3779 000c 488B45F8 		movq	-8(%rbp), %rax
 3780 0010 4889C7   		movq	%rax, %rdi
 3781 0013 E8000000 		call	_ZN8UnitTest15MemoryOutStreamD1Ev
 3781      00
 3782 0018 488B45F8 		movq	-8(%rbp), %rax
 3783 001c 4889C7   		movq	%rax, %rdi
 3784 001f E8000000 		call	_ZdlPv
 3784      00
 3785 0024 C9       		leave
 3786              		.cfi_def_cfa 7, 8
 3787 0025 C3       		ret
 3788              		.cfi_endproc
 3789              	.LFE1247:
 3791              		.set	.LTHUNK1,_ZN8UnitTest15MemoryOutStreamD0Ev
 3792              		.weak	_ZTv0_n24_N8UnitTest15MemoryOutStreamD0Ev
 3794              	_ZTv0_n24_N8UnitTest15MemoryOutStreamD0Ev:
 3795              	.LFB1251:
  13:../MemoryOutStream.h **** {
 3796              		.loc 2 13 0
 3797              		.cfi_startproc
 3798 0026 4C8B17   		movq	(%rdi), %r10
 3799 0029 49037AE8 		addq	-24(%r10), %rdi
 3800 002d EBD1     		jmp	.LTHUNK1
 3801              		.cfi_endproc
 3802              	.LFE1251:
 3804              		.section	.rodata
 3805              		.align 32
 3808              	_ZTSN12_GLOBAL__N_141TestStreamingSizeTWritesCorrectCharactersE:
 3809 0680 2A4E3132 		.string	"*N12_GLOBAL__N_141TestStreamingSizeTWritesCorrectCharactersE"
 3809      5F474C4F 
 3809      42414C5F 
 3809      5F4E5F31 
 3809      34315465 
 3810 06bd 000000   		.align 8
 3813              	_ZTIN12_GLOBAL__N_141TestStreamingSizeTWritesCorrectCharactersE:
 3814 06c0 00000000 		.quad	_ZTVN10__cxxabiv120__si_class_type_infoE+16
 3814      00000000 
 3815 06c8 00000000 		.quad	_ZTSN12_GLOBAL__N_141TestStreamingSizeTWritesCorrectCharactersE
 3815      00000000 
 3816 06d0 00000000 		.quad	_ZTIN8UnitTest4TestE
 3816      00000000 
 3817 06d8 00000000 		.align 32
 3817      00000000 
 3820              	_ZTSN12_GLOBAL__N_143TestStreamingPointerWritesCorrectCharactersE:
 3821 06e0 2A4E3132 		.string	"*N12_GLOBAL__N_143TestStreamingPointerWritesCorrectCharactersE"
 3821      5F474C4F 
 3821      42414C5F 
 3821      5F4E5F31 
 3821      34335465 
 3822 071f 00       		.align 8
 3825              	_ZTIN12_GLOBAL__N_143TestStreamingPointerWritesCorrectCharactersE:
 3826 0720 00000000 		.quad	_ZTVN10__cxxabiv120__si_class_type_infoE+16
 3826      00000000 
 3827 0728 00000000 		.quad	_ZTSN12_GLOBAL__N_143TestStreamingPointerWritesCorrectCharactersE
 3827      00000000 
 3828 0730 00000000 		.quad	_ZTIN8UnitTest4TestE
 3828      00000000 
 3829 0738 00000000 		.align 32
 3829      00000000 
 3832              	_ZTSN12_GLOBAL__N_142TestStreamingDoubleWritesCorrectCharactersE:
 3833 0740 2A4E3132 		.string	"*N12_GLOBAL__N_142TestStreamingDoubleWritesCorrectCharactersE"
 3833      5F474C4F 
 3833      42414C5F 
 3833      5F4E5F31 
 3833      34325465 
 3834 077e 0000     		.align 8
 3837              	_ZTIN12_GLOBAL__N_142TestStreamingDoubleWritesCorrectCharactersE:
 3838 0780 00000000 		.quad	_ZTVN10__cxxabiv120__si_class_type_infoE+16
 3838      00000000 
 3839 0788 00000000 		.quad	_ZTSN12_GLOBAL__N_142TestStreamingDoubleWritesCorrectCharactersE
 3839      00000000 
 3840 0790 00000000 		.quad	_ZTIN8UnitTest4TestE
 3840      00000000 
 3841 0798 00000000 		.align 32
 3841      00000000 
 3844              	_ZTSN12_GLOBAL__N_141TestStreamingFloatWritesCorrectCharactersE:
 3845 07a0 2A4E3132 		.string	"*N12_GLOBAL__N_141TestStreamingFloatWritesCorrectCharactersE"
 3845      5F474C4F 
 3845      42414C5F 
 3845      5F4E5F31 
 3845      34315465 
 3846 07dd 000000   		.align 8
 3849              	_ZTIN12_GLOBAL__N_141TestStreamingFloatWritesCorrectCharactersE:
 3850 07e0 00000000 		.quad	_ZTVN10__cxxabiv120__si_class_type_infoE+16
 3850      00000000 
 3851 07e8 00000000 		.quad	_ZTSN12_GLOBAL__N_141TestStreamingFloatWritesCorrectCharactersE
 3851      00000000 
 3852 07f0 00000000 		.quad	_ZTIN8UnitTest4TestE
 3852      00000000 
 3853 07f8 00000000 		.align 32
 3853      00000000 
 3856              	_ZTSN12_GLOBAL__N_148TestStreamingUnsignedLongWritesCorrectCharactersE:
 3857 0800 2A4E3132 		.string	"*N12_GLOBAL__N_148TestStreamingUnsignedLongWritesCorrectCharactersE"
 3857      5F474C4F 
 3857      42414C5F 
 3857      5F4E5F31 
 3857      34385465 
 3858 0844 00000000 		.align 8
 3861              	_ZTIN12_GLOBAL__N_148TestStreamingUnsignedLongWritesCorrectCharactersE:
 3862 0848 00000000 		.quad	_ZTVN10__cxxabiv120__si_class_type_infoE+16
 3862      00000000 
 3863 0850 00000000 		.quad	_ZTSN12_GLOBAL__N_148TestStreamingUnsignedLongWritesCorrectCharactersE
 3863      00000000 
 3864 0858 00000000 		.quad	_ZTIN8UnitTest4TestE
 3864      00000000 
 3865              		.align 32
 3868              	_ZTSN12_GLOBAL__N_140TestStreamingLongWritesCorrectCharactersE:
 3869 0860 2A4E3132 		.string	"*N12_GLOBAL__N_140TestStreamingLongWritesCorrectCharactersE"
 3869      5F474C4F 
 3869      42414C5F 
 3869      5F4E5F31 
 3869      34305465 
 3870 089c 00000000 		.align 8
 3873              	_ZTIN12_GLOBAL__N_140TestStreamingLongWritesCorrectCharactersE:
 3874 08a0 00000000 		.quad	_ZTVN10__cxxabiv120__si_class_type_infoE+16
 3874      00000000 
 3875 08a8 00000000 		.quad	_ZTSN12_GLOBAL__N_140TestStreamingLongWritesCorrectCharactersE
 3875      00000000 
 3876 08b0 00000000 		.quad	_ZTIN8UnitTest4TestE
 3876      00000000 
 3877 08b8 00000000 		.align 32
 3877      00000000 
 3880              	_ZTSN12_GLOBAL__N_147TestStreamingUnsignedIntWritesCorrectCharactersE:
 3881 08c0 2A4E3132 		.string	"*N12_GLOBAL__N_147TestStreamingUnsignedIntWritesCorrectCharactersE"
 3881      5F474C4F 
 3881      42414C5F 
 3881      5F4E5F31 
 3881      34375465 
 3882 0903 00000000 		.align 8
 3882      00
 3885              	_ZTIN12_GLOBAL__N_147TestStreamingUnsignedIntWritesCorrectCharactersE:
 3886 0908 00000000 		.quad	_ZTVN10__cxxabiv120__si_class_type_infoE+16
 3886      00000000 
 3887 0910 00000000 		.quad	_ZTSN12_GLOBAL__N_147TestStreamingUnsignedIntWritesCorrectCharactersE
 3887      00000000 
 3888 0918 00000000 		.quad	_ZTIN8UnitTest4TestE
 3888      00000000 
 3889              		.align 32
 3892              	_ZTSN12_GLOBAL__N_139TestStreamingIntWritesCorrectCharactersE:
 3893 0920 2A4E3132 		.string	"*N12_GLOBAL__N_139TestStreamingIntWritesCorrectCharactersE"
 3893      5F474C4F 
 3893      42414C5F 
 3893      5F4E5F31 
 3893      33395465 
 3894 095b 00000000 		.align 8
 3894      00
 3897              	_ZTIN12_GLOBAL__N_139TestStreamingIntWritesCorrectCharactersE:
 3898 0960 00000000 		.quad	_ZTVN10__cxxabiv120__si_class_type_infoE+16
 3898      00000000 
 3899 0968 00000000 		.quad	_ZTSN12_GLOBAL__N_139TestStreamingIntWritesCorrectCharactersE
 3899      00000000 
 3900 0970 00000000 		.quad	_ZTIN8UnitTest4TestE
 3900      00000000 
 3901 0978 00000000 		.align 32
 3901      00000000 
 3904              	_ZTSN12_GLOBAL__N_144TestStreamingMultipleTimesConcatenatesResultE:
 3905 0980 2A4E3132 		.string	"*N12_GLOBAL__N_144TestStreamingMultipleTimesConcatenatesResultE"
 3905      5F474C4F 
 3905      42414C5F 
 3905      5F4E5F31 
 3905      34345465 
 3906              		.align 8
 3909              	_ZTIN12_GLOBAL__N_144TestStreamingMultipleTimesConcatenatesResultE:
 3910 09c0 00000000 		.quad	_ZTVN10__cxxabiv120__si_class_type_infoE+16
 3910      00000000 
 3911 09c8 00000000 		.quad	_ZTSN12_GLOBAL__N_144TestStreamingMultipleTimesConcatenatesResultE
 3911      00000000 
 3912 09d0 00000000 		.quad	_ZTIN8UnitTest4TestE
 3912      00000000 
 3913 09d8 00000000 		.align 32
 3913      00000000 
 3916              	_ZTSN12_GLOBAL__N_133TestStreamingTextCopiesCharactersE:
 3917 09e0 2A4E3132 		.string	"*N12_GLOBAL__N_133TestStreamingTextCopiesCharactersE"
 3917      5F474C4F 
 3917      42414C5F 
 3917      5F4E5F31 
 3917      33335465 
 3918 0a15 000000   		.align 8
 3921              	_ZTIN12_GLOBAL__N_133TestStreamingTextCopiesCharactersE:
 3922 0a18 00000000 		.quad	_ZTVN10__cxxabiv120__si_class_type_infoE+16
 3922      00000000 
 3923 0a20 00000000 		.quad	_ZTSN12_GLOBAL__N_133TestStreamingTextCopiesCharactersE
 3923      00000000 
 3924 0a28 00000000 		.quad	_ZTIN8UnitTest4TestE
 3924      00000000 
 3925 0a30 00000000 		.align 32
 3925      00000000 
 3925      00000000 
 3925      00000000 
 3928              	_ZTSN12_GLOBAL__N_124TestDefaultIsEmptyStringE:
 3929 0a40 2A4E3132 		.string	"*N12_GLOBAL__N_124TestDefaultIsEmptyStringE"
 3929      5F474C4F 
 3929      42414C5F 
 3929      5F4E5F31 
 3929      32345465 
 3930 0a6c 00000000 		.align 8
 3933              	_ZTIN12_GLOBAL__N_124TestDefaultIsEmptyStringE:
 3934 0a70 00000000 		.quad	_ZTVN10__cxxabiv120__si_class_type_infoE+16
 3934      00000000 
 3935 0a78 00000000 		.quad	_ZTSN12_GLOBAL__N_124TestDefaultIsEmptyStringE
 3935      00000000 
 3936 0a80 00000000 		.quad	_ZTIN8UnitTest4TestE
 3936      00000000 
 3937              		.weak	_ZTIN8UnitTest15MemoryOutStreamE
 3938              		.section	.rodata._ZTIN8UnitTest15MemoryOutStreamE,"aG",@progbits,_ZTIN8UnitTest15MemoryOutStreamE,
 3939              		.align 8
 3942              	_ZTIN8UnitTest15MemoryOutStreamE:
 3943 0000 00000000 		.quad	_ZTVN10__cxxabiv120__si_class_type_infoE+16
 3943      00000000 
 3944 0008 00000000 		.quad	_ZTSN8UnitTest15MemoryOutStreamE
 3944      00000000 
 3945 0010 00000000 		.quad	_ZTINSt7__cxx1119basic_ostringstreamIcSt11char_traitsIcESaIcEEE
 3945      00000000 
 3946              		.weak	_ZTSN8UnitTest15MemoryOutStreamE
 3947              		.section	.rodata._ZTSN8UnitTest15MemoryOutStreamE,"aG",@progbits,_ZTSN8UnitTest15MemoryOutStreamE,
 3948              		.align 16
 3951              	_ZTSN8UnitTest15MemoryOutStreamE:
 3952 0000 4E38556E 		.string	"N8UnitTest15MemoryOutStreamE"
 3952      69745465 
 3952      73743135 
 3952      4D656D6F 
 3952      72794F75 
 3953              		.text
 3955              	_Z41__static_initialization_and_destruction_0ii:
 3956              	.LFB1248:
  89:TestMemoryOutStream.cpp **** 
  90:TestMemoryOutStream.cpp **** #ifdef UNITTEST_USE_CUSTOM_STREAMS
  91:TestMemoryOutStream.cpp **** 
  92:TestMemoryOutStream.cpp **** TEST(StreamInitialCapacityIsCorrect)
  93:TestMemoryOutStream.cpp **** {
  94:TestMemoryOutStream.cpp ****     MemoryOutStream stream(MemoryOutStream::GROW_CHUNK_SIZE);
  95:TestMemoryOutStream.cpp ****     CHECK_EQUAL((int)MemoryOutStream::GROW_CHUNK_SIZE, stream.GetCapacity());
  96:TestMemoryOutStream.cpp **** }
  97:TestMemoryOutStream.cpp **** 
  98:TestMemoryOutStream.cpp **** TEST(StreamInitialCapacityIsMultipleOfGrowChunkSize)
  99:TestMemoryOutStream.cpp **** {
 100:TestMemoryOutStream.cpp ****     MemoryOutStream stream(MemoryOutStream::GROW_CHUNK_SIZE + 1);
 101:TestMemoryOutStream.cpp ****     CHECK_EQUAL((int)MemoryOutStream::GROW_CHUNK_SIZE * 2, stream.GetCapacity());
 102:TestMemoryOutStream.cpp **** }
 103:TestMemoryOutStream.cpp **** 
 104:TestMemoryOutStream.cpp **** 
 105:TestMemoryOutStream.cpp **** TEST(ExceedingCapacityGrowsBuffer)
 106:TestMemoryOutStream.cpp **** {
 107:TestMemoryOutStream.cpp ****     MemoryOutStream stream(MemoryOutStream::GROW_CHUNK_SIZE);
 108:TestMemoryOutStream.cpp ****     stream << "012345678901234567890123456789";
 109:TestMemoryOutStream.cpp ****     char const* const oldBuffer = stream.GetText();
 110:TestMemoryOutStream.cpp ****     stream << "0123456789";
 111:TestMemoryOutStream.cpp ****     CHECK(oldBuffer != stream.GetText());
 112:TestMemoryOutStream.cpp **** }
 113:TestMemoryOutStream.cpp **** 
 114:TestMemoryOutStream.cpp **** TEST(ExceedingCapacityGrowsBufferByGrowChunk)
 115:TestMemoryOutStream.cpp **** {
 116:TestMemoryOutStream.cpp ****     MemoryOutStream stream(MemoryOutStream::GROW_CHUNK_SIZE);
 117:TestMemoryOutStream.cpp ****     stream << "0123456789012345678901234567890123456789";
 118:TestMemoryOutStream.cpp ****     CHECK_EQUAL(MemoryOutStream::GROW_CHUNK_SIZE * 2, stream.GetCapacity());
 119:TestMemoryOutStream.cpp **** }
 120:TestMemoryOutStream.cpp **** 
 121:TestMemoryOutStream.cpp **** TEST(WritingStringLongerThanCapacityFitsInNewBuffer)
 122:TestMemoryOutStream.cpp **** {
 123:TestMemoryOutStream.cpp ****     MemoryOutStream stream(8);
 124:TestMemoryOutStream.cpp ****     stream << "0123456789ABCDEF";
 125:TestMemoryOutStream.cpp ****     CHECK_EQUAL("0123456789ABCDEF", stream.GetText());
 126:TestMemoryOutStream.cpp **** }
 127:TestMemoryOutStream.cpp **** 
 128:TestMemoryOutStream.cpp **** TEST(WritingIntLongerThanCapacityFitsInNewBuffer)
 129:TestMemoryOutStream.cpp **** {
 130:TestMemoryOutStream.cpp ****     MemoryOutStream stream(8);
 131:TestMemoryOutStream.cpp ****     stream << "aaaa" << 123456;;
 132:TestMemoryOutStream.cpp ****     CHECK_EQUAL("aaaa123456", stream.GetText());
 133:TestMemoryOutStream.cpp **** }
 134:TestMemoryOutStream.cpp **** 
 135:TestMemoryOutStream.cpp **** TEST(WritingFloatLongerThanCapacityFitsInNewBuffer)
 136:TestMemoryOutStream.cpp **** {
 137:TestMemoryOutStream.cpp ****     MemoryOutStream stream(8);
 138:TestMemoryOutStream.cpp ****     stream << "aaaa" << 123456.0f;;
 139:TestMemoryOutStream.cpp ****     CHECK_EQUAL("aaaa123456.000000f", stream.GetText());
 140:TestMemoryOutStream.cpp **** }
 141:TestMemoryOutStream.cpp **** 
 142:TestMemoryOutStream.cpp **** TEST(WritingSizeTLongerThanCapacityFitsInNewBuffer)
 143:TestMemoryOutStream.cpp **** {
 144:TestMemoryOutStream.cpp ****     MemoryOutStream stream(8);
 145:TestMemoryOutStream.cpp ****     stream << "aaaa" << size_t(32145);
 146:TestMemoryOutStream.cpp ****     CHECK_EQUAL("aaaa32145", stream.GetText());
 147:TestMemoryOutStream.cpp **** }
 148:TestMemoryOutStream.cpp **** 
 149:TestMemoryOutStream.cpp **** #endif
 150:TestMemoryOutStream.cpp **** 
 151:TestMemoryOutStream.cpp **** }
 3957              		.loc 3 151 0
 3958              		.cfi_startproc
 3959 15d0 55       		pushq	%rbp
 3960              		.cfi_def_cfa_offset 16
 3961              		.cfi_offset 6, -16
 3962 15d1 4889E5   		movq	%rsp, %rbp
 3963              		.cfi_def_cfa_register 6
 3964 15d4 4883EC10 		subq	$16, %rsp
 3965 15d8 897DFC   		movl	%edi, -4(%rbp)
 3966 15db 8975F8   		movl	%esi, -8(%rbp)
 3967              		.loc 3 151 0
 3968 15de 837DFC01 		cmpl	$1, -4(%rbp)
 3969 15e2 0F855402 		jne	.L184
 3969      0000
 3970              		.loc 3 151 0 is_stmt 0 discriminator 1
 3971 15e8 817DF8FF 		cmpl	$65535, -8(%rbp)
 3971      FF0000
 3972 15ef 0F854702 		jne	.L184
 3972      0000
  11:TestMemoryOutStream.cpp **** {
 3973              		.loc 3 11 0 is_stmt 1
 3974 15f5 BF000000 		movl	$_ZN12_GLOBAL__N_132testDefaultIsEmptyStringInstanceE, %edi
 3974      00
 3975 15fa E801EAFF 		call	_ZN12_GLOBAL__N_124TestDefaultIsEmptyStringC1Ev
 3975      FF
 3976 15ff BA000000 		movl	$__dso_handle, %edx
 3976      00
 3977 1604 BE000000 		movl	$_ZN12_GLOBAL__N_132testDefaultIsEmptyStringInstanceE, %esi
 3977      00
 3978 1609 BF000000 		movl	$_ZN12_GLOBAL__N_124TestDefaultIsEmptyStringD1Ev, %edi
 3978      00
 3979 160e E8000000 		call	__cxa_atexit
 3979      00
 3980 1613 E8000000 		call	_ZN8UnitTest4Test11GetTestListEv
 3980      00
 3981 1618 BA000000 		movl	$_ZN12_GLOBAL__N_132testDefaultIsEmptyStringInstanceE, %edx
 3981      00
 3982 161d 4889C6   		movq	%rax, %rsi
 3983 1620 BF000000 		movl	$_ZN12_GLOBAL__N_125adderDefaultIsEmptyStringE, %edi
 3983      00
 3984 1625 E8000000 		call	_ZN8UnitTest9ListAdderC1ERNS_8TestListEPNS_4TestE
 3984      00
  18:TestMemoryOutStream.cpp **** {
 3985              		.loc 3 18 0
 3986 162a BF000000 		movl	$_ZN12_GLOBAL__N_141testStreamingTextCopiesCharactersInstanceE, %edi
 3986      00
 3987 162f E8FCEBFF 		call	_ZN12_GLOBAL__N_133TestStreamingTextCopiesCharactersC1Ev
 3987      FF
 3988 1634 BA000000 		movl	$__dso_handle, %edx
 3988      00
 3989 1639 BE000000 		movl	$_ZN12_GLOBAL__N_141testStreamingTextCopiesCharactersInstanceE, %esi
 3989      00
 3990 163e BF000000 		movl	$_ZN12_GLOBAL__N_133TestStreamingTextCopiesCharactersD1Ev, %edi
 3990      00
 3991 1643 E8000000 		call	__cxa_atexit
 3991      00
 3992 1648 E8000000 		call	_ZN8UnitTest4Test11GetTestListEv
 3992      00
 3993 164d BA000000 		movl	$_ZN12_GLOBAL__N_141testStreamingTextCopiesCharactersInstanceE, %edx
 3993      00
 3994 1652 4889C6   		movq	%rax, %rsi
 3995 1655 BF000000 		movl	$_ZN12_GLOBAL__N_134adderStreamingTextCopiesCharactersE, %edi
 3995      00
 3996 165a E8000000 		call	_ZN8UnitTest9ListAdderC1ERNS_8TestListEPNS_4TestE
 3996      00
  25:TestMemoryOutStream.cpp **** {
 3997              		.loc 3 25 0
 3998 165f BF000000 		movl	$_ZN12_GLOBAL__N_152testStreamingMultipleTimesConcatenatesResultInstanceE, %edi
 3998      00
 3999 1664 E843EDFF 		call	_ZN12_GLOBAL__N_144TestStreamingMultipleTimesConcatenatesResultC1Ev
 3999      FF
 4000 1669 BA000000 		movl	$__dso_handle, %edx
 4000      00
 4001 166e BE000000 		movl	$_ZN12_GLOBAL__N_152testStreamingMultipleTimesConcatenatesResultInstanceE, %esi
 4001      00
 4002 1673 BF000000 		movl	$_ZN12_GLOBAL__N_144TestStreamingMultipleTimesConcatenatesResultD1Ev, %edi
 4002      00
 4003 1678 E8000000 		call	__cxa_atexit
 4003      00
 4004 167d E8000000 		call	_ZN8UnitTest4Test11GetTestListEv
 4004      00
 4005 1682 BA000000 		movl	$_ZN12_GLOBAL__N_152testStreamingMultipleTimesConcatenatesResultInstanceE, %edx
 4005      00
 4006 1687 4889C6   		movq	%rax, %rsi
 4007 168a BF000000 		movl	$_ZN12_GLOBAL__N_145adderStreamingMultipleTimesConcatenatesResultE, %edi
 4007      00
 4008 168f E8000000 		call	_ZN8UnitTest9ListAdderC1ERNS_8TestListEPNS_4TestE
 4008      00
  32:TestMemoryOutStream.cpp **** {
 4009              		.loc 3 32 0
 4010 1694 BF000000 		movl	$_ZN12_GLOBAL__N_147testStreamingIntWritesCorrectCharactersInstanceE, %edi
 4010      00
 4011 1699 E8A4EEFF 		call	_ZN12_GLOBAL__N_139TestStreamingIntWritesCorrectCharactersC1Ev
 4011      FF
 4012 169e BA000000 		movl	$__dso_handle, %edx
 4012      00
 4013 16a3 BE000000 		movl	$_ZN12_GLOBAL__N_147testStreamingIntWritesCorrectCharactersInstanceE, %esi
 4013      00
 4014 16a8 BF000000 		movl	$_ZN12_GLOBAL__N_139TestStreamingIntWritesCorrectCharactersD1Ev, %edi
 4014      00
 4015 16ad E8000000 		call	__cxa_atexit
 4015      00
 4016 16b2 E8000000 		call	_ZN8UnitTest4Test11GetTestListEv
 4016      00
 4017 16b7 BA000000 		movl	$_ZN12_GLOBAL__N_147testStreamingIntWritesCorrectCharactersInstanceE, %edx
 4017      00
 4018 16bc 4889C6   		movq	%rax, %rsi
 4019 16bf BF000000 		movl	$_ZN12_GLOBAL__N_140adderStreamingIntWritesCorrectCharactersE, %edi
 4019      00
 4020 16c4 E8000000 		call	_ZN8UnitTest9ListAdderC1ERNS_8TestListEPNS_4TestE
 4020      00
  39:TestMemoryOutStream.cpp **** {
 4021              		.loc 3 39 0
 4022 16c9 BF000000 		movl	$_ZN12_GLOBAL__N_155testStreamingUnsignedIntWritesCorrectCharactersInstanceE, %edi
 4022      00
 4023 16ce E8EBEFFF 		call	_ZN12_GLOBAL__N_147TestStreamingUnsignedIntWritesCorrectCharactersC1Ev
 4023      FF
 4024 16d3 BA000000 		movl	$__dso_handle, %edx
 4024      00
 4025 16d8 BE000000 		movl	$_ZN12_GLOBAL__N_155testStreamingUnsignedIntWritesCorrectCharactersInstanceE, %esi
 4025      00
 4026 16dd BF000000 		movl	$_ZN12_GLOBAL__N_147TestStreamingUnsignedIntWritesCorrectCharactersD1Ev, %edi
 4026      00
 4027 16e2 E8000000 		call	__cxa_atexit
 4027      00
 4028 16e7 E8000000 		call	_ZN8UnitTest4Test11GetTestListEv
 4028      00
 4029 16ec BA000000 		movl	$_ZN12_GLOBAL__N_155testStreamingUnsignedIntWritesCorrectCharactersInstanceE, %edx
 4029      00
 4030 16f1 4889C6   		movq	%rax, %rsi
 4031 16f4 BF000000 		movl	$_ZN12_GLOBAL__N_148adderStreamingUnsignedIntWritesCorrectCharactersE, %edi
 4031      00
 4032 16f9 E8000000 		call	_ZN8UnitTest9ListAdderC1ERNS_8TestListEPNS_4TestE
 4032      00
  46:TestMemoryOutStream.cpp **** {
 4033              		.loc 3 46 0
 4034 16fe BF000000 		movl	$_ZN12_GLOBAL__N_148testStreamingLongWritesCorrectCharactersInstanceE, %edi
 4034      00
 4035 1703 E832F1FF 		call	_ZN12_GLOBAL__N_140TestStreamingLongWritesCorrectCharactersC1Ev
 4035      FF
 4036 1708 BA000000 		movl	$__dso_handle, %edx
 4036      00
 4037 170d BE000000 		movl	$_ZN12_GLOBAL__N_148testStreamingLongWritesCorrectCharactersInstanceE, %esi
 4037      00
 4038 1712 BF000000 		movl	$_ZN12_GLOBAL__N_140TestStreamingLongWritesCorrectCharactersD1Ev, %edi
 4038      00
 4039 1717 E8000000 		call	__cxa_atexit
 4039      00
 4040 171c E8000000 		call	_ZN8UnitTest4Test11GetTestListEv
 4040      00
 4041 1721 BA000000 		movl	$_ZN12_GLOBAL__N_148testStreamingLongWritesCorrectCharactersInstanceE, %edx
 4041      00
 4042 1726 4889C6   		movq	%rax, %rsi
 4043 1729 BF000000 		movl	$_ZN12_GLOBAL__N_141adderStreamingLongWritesCorrectCharactersE, %edi
 4043      00
 4044 172e E8000000 		call	_ZN8UnitTest9ListAdderC1ERNS_8TestListEPNS_4TestE
 4044      00
  53:TestMemoryOutStream.cpp **** {
 4045              		.loc 3 53 0
 4046 1733 BF000000 		movl	$_ZN12_GLOBAL__N_156testStreamingUnsignedLongWritesCorrectCharactersInstanceE, %edi
 4046      00
 4047 1738 E87BF2FF 		call	_ZN12_GLOBAL__N_148TestStreamingUnsignedLongWritesCorrectCharactersC1Ev
 4047      FF
 4048 173d BA000000 		movl	$__dso_handle, %edx
 4048      00
 4049 1742 BE000000 		movl	$_ZN12_GLOBAL__N_156testStreamingUnsignedLongWritesCorrectCharactersInstanceE, %esi
 4049      00
 4050 1747 BF000000 		movl	$_ZN12_GLOBAL__N_148TestStreamingUnsignedLongWritesCorrectCharactersD1Ev, %edi
 4050      00
 4051 174c E8000000 		call	__cxa_atexit
 4051      00
 4052 1751 E8000000 		call	_ZN8UnitTest4Test11GetTestListEv
 4052      00
 4053 1756 BA000000 		movl	$_ZN12_GLOBAL__N_156testStreamingUnsignedLongWritesCorrectCharactersInstanceE, %edx
 4053      00
 4054 175b 4889C6   		movq	%rax, %rsi
 4055 175e BF000000 		movl	$_ZN12_GLOBAL__N_149adderStreamingUnsignedLongWritesCorrectCharactersE, %edi
 4055      00
 4056 1763 E8000000 		call	_ZN8UnitTest9ListAdderC1ERNS_8TestListEPNS_4TestE
 4056      00
  60:TestMemoryOutStream.cpp **** {
 4057              		.loc 3 60 0
 4058 1768 BF000000 		movl	$_ZN12_GLOBAL__N_149testStreamingFloatWritesCorrectCharactersInstanceE, %edi
 4058      00
 4059 176d E8C2F3FF 		call	_ZN12_GLOBAL__N_141TestStreamingFloatWritesCorrectCharactersC1Ev
 4059      FF
 4060 1772 BA000000 		movl	$__dso_handle, %edx
 4060      00
 4061 1777 BE000000 		movl	$_ZN12_GLOBAL__N_149testStreamingFloatWritesCorrectCharactersInstanceE, %esi
 4061      00
 4062 177c BF000000 		movl	$_ZN12_GLOBAL__N_141TestStreamingFloatWritesCorrectCharactersD1Ev, %edi
 4062      00
 4063 1781 E8000000 		call	__cxa_atexit
 4063      00
 4064 1786 E8000000 		call	_ZN8UnitTest4Test11GetTestListEv
 4064      00
 4065 178b BA000000 		movl	$_ZN12_GLOBAL__N_149testStreamingFloatWritesCorrectCharactersInstanceE, %edx
 4065      00
 4066 1790 4889C6   		movq	%rax, %rsi
 4067 1793 BF000000 		movl	$_ZN12_GLOBAL__N_142adderStreamingFloatWritesCorrectCharactersE, %edi
 4067      00
 4068 1798 E8000000 		call	_ZN8UnitTest9ListAdderC1ERNS_8TestListEPNS_4TestE
 4068      00
  67:TestMemoryOutStream.cpp **** {
 4069              		.loc 3 67 0
 4070 179d BF000000 		movl	$_ZN12_GLOBAL__N_150testStreamingDoubleWritesCorrectCharactersInstanceE, %edi
 4070      00
 4071 17a2 E823F5FF 		call	_ZN12_GLOBAL__N_142TestStreamingDoubleWritesCorrectCharactersC1Ev
 4071      FF
 4072 17a7 BA000000 		movl	$__dso_handle, %edx
 4072      00
 4073 17ac BE000000 		movl	$_ZN12_GLOBAL__N_150testStreamingDoubleWritesCorrectCharactersInstanceE, %esi
 4073      00
 4074 17b1 BF000000 		movl	$_ZN12_GLOBAL__N_142TestStreamingDoubleWritesCorrectCharactersD1Ev, %edi
 4074      00
 4075 17b6 E8000000 		call	__cxa_atexit
 4075      00
 4076 17bb E8000000 		call	_ZN8UnitTest4Test11GetTestListEv
 4076      00
 4077 17c0 BA000000 		movl	$_ZN12_GLOBAL__N_150testStreamingDoubleWritesCorrectCharactersInstanceE, %edx
 4077      00
 4078 17c5 4889C6   		movq	%rax, %rsi
 4079 17c8 BF000000 		movl	$_ZN12_GLOBAL__N_143adderStreamingDoubleWritesCorrectCharactersE, %edi
 4079      00
 4080 17cd E8000000 		call	_ZN8UnitTest9ListAdderC1ERNS_8TestListEPNS_4TestE
 4080      00
  74:TestMemoryOutStream.cpp **** {
 4081              		.loc 3 74 0
 4082 17d2 BF000000 		movl	$_ZN12_GLOBAL__N_151testStreamingPointerWritesCorrectCharactersInstanceE, %edi
 4082      00
 4083 17d7 E894F6FF 		call	_ZN12_GLOBAL__N_143TestStreamingPointerWritesCorrectCharactersC1Ev
 4083      FF
 4084 17dc BA000000 		movl	$__dso_handle, %edx
 4084      00
 4085 17e1 BE000000 		movl	$_ZN12_GLOBAL__N_151testStreamingPointerWritesCorrectCharactersInstanceE, %esi
 4085      00
 4086 17e6 BF000000 		movl	$_ZN12_GLOBAL__N_143TestStreamingPointerWritesCorrectCharactersD1Ev, %edi
 4086      00
 4087 17eb E8000000 		call	__cxa_atexit
 4087      00
 4088 17f0 E8000000 		call	_ZN8UnitTest4Test11GetTestListEv
 4088      00
 4089 17f5 BA000000 		movl	$_ZN12_GLOBAL__N_151testStreamingPointerWritesCorrectCharactersInstanceE, %edx
 4089      00
 4090 17fa 4889C6   		movq	%rax, %rsi
 4091 17fd BF000000 		movl	$_ZN12_GLOBAL__N_144adderStreamingPointerWritesCorrectCharactersE, %edi
 4091      00
 4092 1802 E8000000 		call	_ZN8UnitTest9ListAdderC1ERNS_8TestListEPNS_4TestE
 4092      00
  82:TestMemoryOutStream.cpp **** {
 4093              		.loc 3 82 0
 4094 1807 BF000000 		movl	$_ZN12_GLOBAL__N_149testStreamingSizeTWritesCorrectCharactersInstanceE, %edi
 4094      00
 4095 180c E801F8FF 		call	_ZN12_GLOBAL__N_141TestStreamingSizeTWritesCorrectCharactersC1Ev
 4095      FF
 4096 1811 BA000000 		movl	$__dso_handle, %edx
 4096      00
 4097 1816 BE000000 		movl	$_ZN12_GLOBAL__N_149testStreamingSizeTWritesCorrectCharactersInstanceE, %esi
 4097      00
 4098 181b BF000000 		movl	$_ZN12_GLOBAL__N_141TestStreamingSizeTWritesCorrectCharactersD1Ev, %edi
 4098      00
 4099 1820 E8000000 		call	__cxa_atexit
 4099      00
 4100 1825 E8000000 		call	_ZN8UnitTest4Test11GetTestListEv
 4100      00
 4101 182a BA000000 		movl	$_ZN12_GLOBAL__N_149testStreamingSizeTWritesCorrectCharactersInstanceE, %edx
 4101      00
 4102 182f 4889C6   		movq	%rax, %rsi
 4103 1832 BF000000 		movl	$_ZN12_GLOBAL__N_142adderStreamingSizeTWritesCorrectCharactersE, %edi
 4103      00
 4104 1837 E8000000 		call	_ZN8UnitTest9ListAdderC1ERNS_8TestListEPNS_4TestE
 4104      00
 4105              	.L184:
 4106              		.loc 3 151 0
 4107 183c 90       		nop
 4108 183d C9       		leave
 4109              		.cfi_def_cfa 7, 8
 4110 183e C3       		ret
 4111              		.cfi_endproc
 4112              	.LFE1248:
 4115              	_GLOBAL__sub_I_TestMemoryOutStream.cpp:
 4116              	.LFB1249:
 4117              		.loc 3 151 0
 4118              		.cfi_startproc
 4119 183f 55       		pushq	%rbp
 4120              		.cfi_def_cfa_offset 16
 4121              		.cfi_offset 6, -16
 4122 1840 4889E5   		movq	%rsp, %rbp
 4123              		.cfi_def_cfa_register 6
 4124              		.loc 3 151 0
 4125 1843 BEFFFF00 		movl	$65535, %esi
 4125      00
 4126 1848 BF010000 		movl	$1, %edi
 4126      00
 4127 184d E87EFDFF 		call	_Z41__static_initialization_and_destruction_0ii
 4127      FF
 4128 1852 5D       		popq	%rbp
 4129              		.cfi_def_cfa 7, 8
 4130 1853 C3       		ret
 4131              		.cfi_endproc
 4132              	.LFE1249:
 4134              		.section	.init_array,"aw"
 4135              		.align 8
 4136 0000 00000000 		.quad	_GLOBAL__sub_I_TestMemoryOutStream.cpp
 4136      00000000 
 4137              		.section	.rodata
 4138              		.align 4
 4139              	.LC25:
 4140 0a88 560E4940 		.long	1078529622
 4141              		.text
 4142              	.Letext0:
 4143              		.file 5 "../TestList.h"
 4144              		.file 6 "../TestDetails.h"
 4145              		.file 7 "/usr/include/x86_64-linux-gnu/c++/5/bits/c++config.h"
 4146              		.file 8 "/usr/include/c++/5/bits/basic_string.h"
 4147              		.file 9 "/usr/include/c++/5/bits/basic_string.tcc"
 4148              		.file 10 "/usr/include/c++/5/bits/stringfwd.h"
 4149              		.file 11 "/usr/include/c++/5/cwchar"
 4150              		.file 12 "/usr/include/c++/5/bits/char_traits.h"
 4151              		.file 13 "/usr/include/c++/5/clocale"
 4152              		.file 14 "/usr/include/c++/5/bits/allocator.h"
 4153              		.file 15 "/usr/include/c++/5/cwctype"
 4154              		.file 16 "/usr/include/c++/5/cstring"
 4155              		.file 17 "/usr/include/c++/5/debug/debug.h"
 4156              		.file 18 "/usr/include/c++/5/bits/predefined_ops.h"
 4157              		.file 19 "/usr/include/c++/5/ext/new_allocator.h"
 4158              		.file 20 "/usr/include/c++/5/ext/numeric_traits.h"
 4159              		.file 21 "/usr/include/c++/5/ext/alloc_traits.h"
 4160              		.file 22 "/usr/include/stdio.h"
 4161              		.file 23 "<built-in>"
 4162              		.file 24 "/usr/lib/gcc/x86_64-linux-gnu/5/include/stddef.h"
 4163              		.file 25 "/usr/include/wchar.h"
 4164              		.file 26 "/usr/include/time.h"
 4165              		.file 27 "/usr/include/locale.h"
 4166              		.file 28 "/usr/include/x86_64-linux-gnu/bits/types.h"
 4167              		.file 29 "/usr/include/wctype.h"
 4168              		.file 30 "/usr/include/x86_64-linux-gnu/sys/time.h"
 4169              		.file 31 "/usr/include/string.h"