   1              		.file	"TestChecks.cpp"
   2              		.text
   3              	.Ltext0:
   4              		.section	.rodata
   5              	.LC0:
   6 0000 44656661 		.string	"DefaultSuite"
   6      756C7453 
   6      75697465 
   6      00
   7              		.section	.text._ZN13UnitTestSuite12GetSuiteNameEv,"axG",@progbits,_ZN13UnitTestSuite12GetSuiteName
   8              		.weak	_ZN13UnitTestSuite12GetSuiteNameEv
  10              	_ZN13UnitTestSuite12GetSuiteNameEv:
  11              	.LFB0:
  12              		.file 1 "../TestSuite.h"
   1:../TestSuite.h **** #ifndef UNITTEST_TESTSUITE_H
   2:../TestSuite.h **** #define UNITTEST_TESTSUITE_H
   3:../TestSuite.h **** 
   4:../TestSuite.h **** namespace UnitTestSuite {
   5:../TestSuite.h **** 
   6:../TestSuite.h ****     inline char const* GetSuiteName ()
   7:../TestSuite.h ****     {
  13              		.loc 1 7 0
  14              		.cfi_startproc
  15 0000 55       		pushq	%rbp
  16              		.cfi_def_cfa_offset 16
  17              		.cfi_offset 6, -16
  18 0001 4889E5   		movq	%rsp, %rbp
  19              		.cfi_def_cfa_register 6
   8:../TestSuite.h ****         return "DefaultSuite";
  20              		.loc 1 8 0
  21 0004 B8000000 		movl	$.LC0, %eax
  21      00
   9:../TestSuite.h ****     }
  22              		.loc 1 9 0
  23 0009 5D       		popq	%rbp
  24              		.cfi_def_cfa 7, 8
  25 000a C3       		ret
  26              		.cfi_endproc
  27              	.LFE0:
  29              		.section	.text._ZN8UnitTest15MemoryOutStreamC1Ev,"axG",@progbits,_ZN8UnitTest15MemoryOutStreamC1Ev
  30              		.align 2
  31              		.weak	_ZN8UnitTest15MemoryOutStreamC1Ev
  33              	_ZN8UnitTest15MemoryOutStreamC1Ev:
  34              	.LFB1057:
  35              		.file 2 "../MemoryOutStream.h"
   1:../MemoryOutStream.h **** #ifndef UNITTEST_MEMORYOUTSTREAM_H
   2:../MemoryOutStream.h **** #define UNITTEST_MEMORYOUTSTREAM_H
   3:../MemoryOutStream.h **** 
   4:../MemoryOutStream.h **** #include "Config.h"
   5:../MemoryOutStream.h **** 
   6:../MemoryOutStream.h **** #ifndef UNITTEST_USE_CUSTOM_STREAMS
   7:../MemoryOutStream.h **** 
   8:../MemoryOutStream.h **** #include <sstream>
   9:../MemoryOutStream.h **** 
  10:../MemoryOutStream.h **** namespace UnitTest
  11:../MemoryOutStream.h **** {
  12:../MemoryOutStream.h **** 
  13:../MemoryOutStream.h **** class MemoryOutStream : public std::ostringstream
  14:../MemoryOutStream.h **** {
  15:../MemoryOutStream.h **** public:
  16:../MemoryOutStream.h ****     MemoryOutStream() {}
  36              		.loc 2 16 0
  37              		.cfi_startproc
  38              		.cfi_personality 0x3,__gxx_personality_v0
  39              		.cfi_lsda 0x3,.LLSDA1057
  40 0000 55       		pushq	%rbp
  41              		.cfi_def_cfa_offset 16
  42              		.cfi_offset 6, -16
  43 0001 4889E5   		movq	%rsp, %rbp
  44              		.cfi_def_cfa_register 6
  45 0004 53       		pushq	%rbx
  46 0005 4883EC18 		subq	$24, %rsp
  47              		.cfi_offset 3, -24
  48 0009 48897DE8 		movq	%rdi, -24(%rbp)
  49              	.LBB2:
  50              		.loc 2 16 0
  51 000d 488B45E8 		movq	-24(%rbp), %rax
  52 0011 48059000 		addq	$144, %rax
  52      0000
  53 0017 4889C7   		movq	%rax, %rdi
  54              	.LEHB0:
  55 001a E8000000 		call	_ZNSt9basic_iosIcSt11char_traitsIcEEC2Ev
  55      00
  56              	.LEHE0:
  57 001f B9000000 		movl	$_ZTTN8UnitTest15MemoryOutStreamE+8, %ecx
  57      00
  58 0024 488B45E8 		movq	-24(%rbp), %rax
  59 0028 BA100000 		movl	$16, %edx
  59      00
  60 002d 4889CE   		movq	%rcx, %rsi
  61 0030 4889C7   		movq	%rax, %rdi
  62              	.LEHB1:
  63 0033 E8000000 		call	_ZNSt7__cxx1119basic_ostringstreamIcSt11char_traitsIcESaIcEEC2ESt13_Ios_Openmode
  63      00
  64              	.LEHE1:
  65              		.loc 2 16 0 is_stmt 0 discriminator 9
  66 0038 BA000000 		movl	$_ZTVN8UnitTest15MemoryOutStreamE+24, %edx
  66      00
  67 003d 488B45E8 		movq	-24(%rbp), %rax
  68 0041 488910   		movq	%rdx, (%rax)
  69 0044 BA900000 		movl	$144, %edx
  69      00
  70 0049 488B45E8 		movq	-24(%rbp), %rax
  71 004d 4801D0   		addq	%rdx, %rax
  72 0050 BA000000 		movl	$_ZTVN8UnitTest15MemoryOutStreamE+64, %edx
  72      00
  73 0055 488910   		movq	%rdx, (%rax)
  74 0058 488B45E8 		movq	-24(%rbp), %rax
  75 005c 4883C070 		addq	$112, %rax
  76 0060 4889C7   		movq	%rax, %rdi
  77              	.LEHB2:
  78 0063 E8000000 		call	_ZNSt7__cxx1112basic_stringIcSt11char_traitsIcESaIcEEC1Ev
  78      00
  79              	.LEHE2:
  80              	.LBE2:
  81              		.loc 2 16 0
  82 0068 EB39     		jmp	.L9
  83              	.L7:
  84 006a 4889C3   		movq	%rax, %rbx
  85              	.LBB3:
  86 006d BA000000 		movl	$_ZTTN8UnitTest15MemoryOutStreamE+8, %edx
  86      00
  87 0072 488B45E8 		movq	-24(%rbp), %rax
  88 0076 4889D6   		movq	%rdx, %rsi
  89 0079 4889C7   		movq	%rax, %rdi
  90 007c E8000000 		call	_ZNSt7__cxx1119basic_ostringstreamIcSt11char_traitsIcESaIcEED2Ev
  90      00
  91 0081 EB03     		jmp	.L8
  92              	.L6:
  93 0083 4889C3   		movq	%rax, %rbx
  94              	.L8:
  95              		.loc 2 16 0 discriminator 28
  96 0086 488B45E8 		movq	-24(%rbp), %rax
  97 008a 48059000 		addq	$144, %rax
  97      0000
  98 0090 4889C7   		movq	%rax, %rdi
  99 0093 E8000000 		call	_ZNSt9basic_iosIcSt11char_traitsIcEED2Ev
  99      00
 100 0098 4889D8   		movq	%rbx, %rax
 101 009b 4889C7   		movq	%rax, %rdi
 102              	.LEHB3:
 103 009e E8000000 		call	_Unwind_Resume
 103      00
 104              	.LEHE3:
 105              	.L9:
 106              	.LBE3:
 107              		.loc 2 16 0
 108 00a3 4883C418 		addq	$24, %rsp
 109 00a7 5B       		popq	%rbx
 110 00a8 5D       		popq	%rbp
 111              		.cfi_def_cfa 7, 8
 112 00a9 C3       		ret
 113              		.cfi_endproc
 114              	.LFE1057:
 115              		.globl	__gxx_personality_v0
 116              		.section	.gcc_except_table._ZN8UnitTest15MemoryOutStreamC1Ev,"aG",@progbits,_ZN8UnitTest15MemoryOu
 117              	.LLSDA1057:
 118 0000 FF       		.byte	0xff
 119 0001 FF       		.byte	0xff
 120 0002 01       		.byte	0x1
 121 0003 12       		.uleb128 .LLSDACSE1057-.LLSDACSB1057
 122              	.LLSDACSB1057:
 123 0004 1A       		.uleb128 .LEHB0-.LFB1057
 124 0005 05       		.uleb128 .LEHE0-.LEHB0
 125 0006 00       		.uleb128 0
 126 0007 00       		.uleb128 0
 127 0008 33       		.uleb128 .LEHB1-.LFB1057
 128 0009 05       		.uleb128 .LEHE1-.LEHB1
 129 000a 8301     		.uleb128 .L6-.LFB1057
 130 000c 00       		.uleb128 0
 131 000d 63       		.uleb128 .LEHB2-.LFB1057
 132 000e 05       		.uleb128 .LEHE2-.LEHB2
 133 000f 6A       		.uleb128 .L7-.LFB1057
 134 0010 00       		.uleb128 0
 135 0011 9E01     		.uleb128 .LEHB3-.LFB1057
 136 0013 05       		.uleb128 .LEHE3-.LEHB3
 137 0014 00       		.uleb128 0
 138 0015 00       		.uleb128 0
 139              	.LLSDACSE1057:
 140              		.section	.text._ZN8UnitTest15MemoryOutStreamC1Ev,"axG",@progbits,_ZN8UnitTest15MemoryOutStreamC1Ev
 142              		.section	.text._ZN8UnitTest12TestReporterC2Ev,"axG",@progbits,_ZN8UnitTest12TestReporterC5Ev,comda
 143              		.align 2
 144              		.weak	_ZN8UnitTest12TestReporterC2Ev
 146              	_ZN8UnitTest12TestReporterC2Ev:
 147              	.LFB1071:
 148              		.file 3 "../TestReporter.h"
   1:../TestReporter.h **** #ifndef UNITTEST_TESTREPORTER_H
   2:../TestReporter.h **** #define UNITTEST_TESTREPORTER_H
   3:../TestReporter.h **** 
   4:../TestReporter.h **** namespace UnitTest {
   5:../TestReporter.h **** 
   6:../TestReporter.h **** class TestDetails;
   7:../TestReporter.h **** 
   8:../TestReporter.h **** class TestReporter
 149              		.loc 3 8 0 is_stmt 1
 150              		.cfi_startproc
 151 0000 55       		pushq	%rbp
 152              		.cfi_def_cfa_offset 16
 153              		.cfi_offset 6, -16
 154 0001 4889E5   		movq	%rsp, %rbp
 155              		.cfi_def_cfa_register 6
 156 0004 48897DF8 		movq	%rdi, -8(%rbp)
 157              	.LBB4:
 158              		.loc 3 8 0
 159 0008 BA000000 		movl	$_ZTVN8UnitTest12TestReporterE+16, %edx
 159      00
 160 000d 488B45F8 		movq	-8(%rbp), %rax
 161 0011 488910   		movq	%rdx, (%rax)
 162              	.LBE4:
 163 0014 90       		nop
 164 0015 5D       		popq	%rbp
 165              		.cfi_def_cfa 7, 8
 166 0016 C3       		ret
 167              		.cfi_endproc
 168              	.LFE1071:
 170              		.weak	_ZN8UnitTest12TestReporterC1Ev
 171              		.set	_ZN8UnitTest12TestReporterC1Ev,_ZN8UnitTest12TestReporterC2Ev
 172              		.section	.text._ZN17RecordingReporterC2Ev,"axG",@progbits,_ZN17RecordingReporterC5Ev,comdat
 173              		.align 2
 174              		.weak	_ZN17RecordingReporterC2Ev
 176              	_ZN17RecordingReporterC2Ev:
 177              	.LFB1073:
 178              		.file 4 "RecordingReporter.h"
   1:RecordingReporter.h **** #ifndef UNITTEST_RECORDINGREPORTER_H
   2:RecordingReporter.h **** #define UNITTEST_RECORDINGREPORTER_H
   3:RecordingReporter.h **** 
   4:RecordingReporter.h **** #include "../TestReporter.h"
   5:RecordingReporter.h **** #include <cstring>
   6:RecordingReporter.h **** 
   7:RecordingReporter.h **** #include "../TestDetails.h"
   8:RecordingReporter.h **** 
   9:RecordingReporter.h **** struct RecordingReporter : public UnitTest::TestReporter
  10:RecordingReporter.h **** {
  11:RecordingReporter.h **** private:
  12:RecordingReporter.h ****     enum { kMaxStringLength = 256 };
  13:RecordingReporter.h **** 
  14:RecordingReporter.h **** public:
  15:RecordingReporter.h ****     RecordingReporter()
 179              		.loc 4 15 0
 180              		.cfi_startproc
 181 0000 55       		pushq	%rbp
 182              		.cfi_def_cfa_offset 16
 183              		.cfi_offset 6, -16
 184 0001 4889E5   		movq	%rsp, %rbp
 185              		.cfi_def_cfa_register 6
 186 0004 4883EC10 		subq	$16, %rsp
 187 0008 48897DF8 		movq	%rdi, -8(%rbp)
 188              	.LBB5:
  16:RecordingReporter.h ****         : testRunCount(0)
  17:RecordingReporter.h ****         , testFailedCount(0)
  18:RecordingReporter.h ****         , lastFailedLine(0)
  19:RecordingReporter.h ****         , testFinishedCount(0)
  20:RecordingReporter.h ****         , lastFinishedTestTime(0)
  21:RecordingReporter.h ****         , summaryTotalTestCount(0)
  22:RecordingReporter.h ****         , summaryFailedTestCount(0)
  23:RecordingReporter.h ****         , summaryFailureCount(0)
  24:RecordingReporter.h ****         , summarySecondsElapsed(0)
 189              		.loc 4 24 0
 190 000c 488B45F8 		movq	-8(%rbp), %rax
 191 0010 4889C7   		movq	%rax, %rdi
 192 0013 E8000000 		call	_ZN8UnitTest12TestReporterC2Ev
 192      00
 193 0018 BA000000 		movl	$_ZTV17RecordingReporter+16, %edx
 193      00
 194 001d 488B45F8 		movq	-8(%rbp), %rax
 195 0021 488910   		movq	%rdx, (%rax)
 196 0024 488B45F8 		movq	-8(%rbp), %rax
 197 0028 C7400800 		movl	$0, 8(%rax)
 197      000000
 198 002f 488B45F8 		movq	-8(%rbp), %rax
 199 0033 C7800C02 		movl	$0, 524(%rax)
 199      00000000 
 199      0000
 200 003d 488B45F8 		movq	-8(%rbp), %rax
 201 0041 C7801003 		movl	$0, 784(%rax)
 201      00000000 
 201      0000
 202 004b 488B45F8 		movq	-8(%rbp), %rax
 203 004f C7801406 		movl	$0, 1556(%rax)
 203      00000000 
 203      0000
 204 0059 488B45F8 		movq	-8(%rbp), %rax
 205 005d 660FEFC0 		pxor	%xmm0, %xmm0
 206 0061 F30F1180 		movss	%xmm0, 2072(%rax)
 206      18080000 
 207 0069 488B45F8 		movq	-8(%rbp), %rax
 208 006d C7801C08 		movl	$0, 2076(%rax)
 208      00000000 
 208      0000
 209 0077 488B45F8 		movq	-8(%rbp), %rax
 210 007b C7802008 		movl	$0, 2080(%rax)
 210      00000000 
 210      0000
 211 0085 488B45F8 		movq	-8(%rbp), %rax
 212 0089 C7802408 		movl	$0, 2084(%rax)
 212      00000000 
 212      0000
 213 0093 488B45F8 		movq	-8(%rbp), %rax
 214 0097 660FEFC0 		pxor	%xmm0, %xmm0
 215 009b F30F1180 		movss	%xmm0, 2088(%rax)
 215      28080000 
  25:RecordingReporter.h ****     {
  26:RecordingReporter.h ****         lastStartedSuite[0] = '\0';
 216              		.loc 4 26 0
 217 00a3 488B45F8 		movq	-8(%rbp), %rax
 218 00a7 C6400C00 		movb	$0, 12(%rax)
  27:RecordingReporter.h ****         lastStartedTest[0] = '\0';
 219              		.loc 4 27 0
 220 00ab 488B45F8 		movq	-8(%rbp), %rax
 221 00af C6800C01 		movb	$0, 268(%rax)
 221      000000
  28:RecordingReporter.h ****         lastFailedFile[0] = '\0';
 222              		.loc 4 28 0
 223 00b6 488B45F8 		movq	-8(%rbp), %rax
 224 00ba C6801002 		movb	$0, 528(%rax)
 224      000000
  29:RecordingReporter.h ****         lastFailedSuite[0] = '\0';
 225              		.loc 4 29 0
 226 00c1 488B45F8 		movq	-8(%rbp), %rax
 227 00c5 C6801403 		movb	$0, 788(%rax)
 227      000000
  30:RecordingReporter.h ****         lastFailedTest[0] = '\0';
 228              		.loc 4 30 0
 229 00cc 488B45F8 		movq	-8(%rbp), %rax
 230 00d0 C6801404 		movb	$0, 1044(%rax)
 230      000000
  31:RecordingReporter.h ****         lastFailedMessage[0] = '\0';
 231              		.loc 4 31 0
 232 00d7 488B45F8 		movq	-8(%rbp), %rax
 233 00db C6801405 		movb	$0, 1300(%rax)
 233      000000
  32:RecordingReporter.h ****         lastFinishedSuite[0] = '\0';
 234              		.loc 4 32 0
 235 00e2 488B45F8 		movq	-8(%rbp), %rax
 236 00e6 C6801806 		movb	$0, 1560(%rax)
 236      000000
  33:RecordingReporter.h ****         lastFinishedTest[0] = '\0';
 237              		.loc 4 33 0
 238 00ed 488B45F8 		movq	-8(%rbp), %rax
 239 00f1 C6801807 		movb	$0, 1816(%rax)
 239      000000
 240              	.LBE5:
  34:RecordingReporter.h ****     }
 241              		.loc 4 34 0
 242 00f8 90       		nop
 243 00f9 C9       		leave
 244              		.cfi_def_cfa 7, 8
 245 00fa C3       		ret
 246              		.cfi_endproc
 247              	.LFE1073:
 249              		.weak	_ZN17RecordingReporterC1Ev
 250              		.set	_ZN17RecordingReporterC1Ev,_ZN17RecordingReporterC2Ev
 251              		.section	.text._ZN17RecordingReporter15ReportTestStartERKN8UnitTest11TestDetailsE,"axG",@progbits,
 252              		.align 2
 253              		.weak	_ZN17RecordingReporter15ReportTestStartERKN8UnitTest11TestDetailsE
 255              	_ZN17RecordingReporter15ReportTestStartERKN8UnitTest11TestDetailsE:
 256              	.LFB1075:
  35:RecordingReporter.h **** 
  36:RecordingReporter.h ****     virtual void ReportTestStart(UnitTest::TestDetails const& test)
 257              		.loc 4 36 0
 258              		.cfi_startproc
 259 0000 55       		pushq	%rbp
 260              		.cfi_def_cfa_offset 16
 261              		.cfi_offset 6, -16
 262 0001 4889E5   		movq	%rsp, %rbp
 263              		.cfi_def_cfa_register 6
 264 0004 4883EC10 		subq	$16, %rsp
 265 0008 48897DF8 		movq	%rdi, -8(%rbp)
 266 000c 488975F0 		movq	%rsi, -16(%rbp)
  37:RecordingReporter.h ****     {
  38:RecordingReporter.h **** 		using namespace std;
  39:RecordingReporter.h **** 
  40:RecordingReporter.h ****         ++testRunCount;
 267              		.loc 4 40 0
 268 0010 488B45F8 		movq	-8(%rbp), %rax
 269 0014 8B4008   		movl	8(%rax), %eax
 270 0017 8D5001   		leal	1(%rax), %edx
 271 001a 488B45F8 		movq	-8(%rbp), %rax
 272 001e 895008   		movl	%edx, 8(%rax)
  41:RecordingReporter.h ****         strcpy(lastStartedSuite, test.suiteName);
 273              		.loc 4 41 0
 274 0021 488B45F0 		movq	-16(%rbp), %rax
 275 0025 488B00   		movq	(%rax), %rax
 276 0028 488B55F8 		movq	-8(%rbp), %rdx
 277 002c 4883C20C 		addq	$12, %rdx
 278 0030 4889C6   		movq	%rax, %rsi
 279 0033 4889D7   		movq	%rdx, %rdi
 280 0036 E8000000 		call	strcpy
 280      00
  42:RecordingReporter.h ****         strcpy(lastStartedTest, test.testName);
 281              		.loc 4 42 0
 282 003b 488B45F0 		movq	-16(%rbp), %rax
 283 003f 488B4008 		movq	8(%rax), %rax
 284 0043 488B55F8 		movq	-8(%rbp), %rdx
 285 0047 4881C20C 		addq	$268, %rdx
 285      010000
 286 004e 4889C6   		movq	%rax, %rsi
 287 0051 4889D7   		movq	%rdx, %rdi
 288 0054 E8000000 		call	strcpy
 288      00
  43:RecordingReporter.h ****     }
 289              		.loc 4 43 0
 290 0059 90       		nop
 291 005a C9       		leave
 292              		.cfi_def_cfa 7, 8
 293 005b C3       		ret
 294              		.cfi_endproc
 295              	.LFE1075:
 297              		.section	.text._ZN17RecordingReporter13ReportFailureERKN8UnitTest11TestDetailsEPKc,"axG",@progbits
 298              		.align 2
 299              		.weak	_ZN17RecordingReporter13ReportFailureERKN8UnitTest11TestDetailsEPKc
 301              	_ZN17RecordingReporter13ReportFailureERKN8UnitTest11TestDetailsEPKc:
 302              	.LFB1076:
  44:RecordingReporter.h **** 
  45:RecordingReporter.h ****     virtual void ReportFailure(UnitTest::TestDetails const& test, char const* failure)
 303              		.loc 4 45 0
 304              		.cfi_startproc
 305 0000 55       		pushq	%rbp
 306              		.cfi_def_cfa_offset 16
 307              		.cfi_offset 6, -16
 308 0001 4889E5   		movq	%rsp, %rbp
 309              		.cfi_def_cfa_register 6
 310 0004 4883EC20 		subq	$32, %rsp
 311 0008 48897DF8 		movq	%rdi, -8(%rbp)
 312 000c 488975F0 		movq	%rsi, -16(%rbp)
 313 0010 488955E8 		movq	%rdx, -24(%rbp)
  46:RecordingReporter.h ****     {
  47:RecordingReporter.h **** 		using namespace std;
  48:RecordingReporter.h **** 
  49:RecordingReporter.h **** 		++testFailedCount;
 314              		.loc 4 49 0
 315 0014 488B45F8 		movq	-8(%rbp), %rax
 316 0018 8B800C02 		movl	524(%rax), %eax
 316      0000
 317 001e 8D5001   		leal	1(%rax), %edx
 318 0021 488B45F8 		movq	-8(%rbp), %rax
 319 0025 89900C02 		movl	%edx, 524(%rax)
 319      0000
  50:RecordingReporter.h ****         strcpy(lastFailedFile, test.filename);
 320              		.loc 4 50 0
 321 002b 488B45F0 		movq	-16(%rbp), %rax
 322 002f 488B4010 		movq	16(%rax), %rax
 323 0033 488B55F8 		movq	-8(%rbp), %rdx
 324 0037 4881C210 		addq	$528, %rdx
 324      020000
 325 003e 4889C6   		movq	%rax, %rsi
 326 0041 4889D7   		movq	%rdx, %rdi
 327 0044 E8000000 		call	strcpy
 327      00
  51:RecordingReporter.h ****         lastFailedLine = test.lineNumber;
 328              		.loc 4 51 0
 329 0049 488B45F0 		movq	-16(%rbp), %rax
 330 004d 8B5018   		movl	24(%rax), %edx
 331 0050 488B45F8 		movq	-8(%rbp), %rax
 332 0054 89901003 		movl	%edx, 784(%rax)
 332      0000
  52:RecordingReporter.h ****         strcpy(lastFailedSuite, test.suiteName);
 333              		.loc 4 52 0
 334 005a 488B45F0 		movq	-16(%rbp), %rax
 335 005e 488B00   		movq	(%rax), %rax
 336 0061 488B55F8 		movq	-8(%rbp), %rdx
 337 0065 4881C214 		addq	$788, %rdx
 337      030000
 338 006c 4889C6   		movq	%rax, %rsi
 339 006f 4889D7   		movq	%rdx, %rdi
 340 0072 E8000000 		call	strcpy
 340      00
  53:RecordingReporter.h ****         strcpy(lastFailedTest, test.testName);
 341              		.loc 4 53 0
 342 0077 488B45F0 		movq	-16(%rbp), %rax
 343 007b 488B4008 		movq	8(%rax), %rax
 344 007f 488B55F8 		movq	-8(%rbp), %rdx
 345 0083 4881C214 		addq	$1044, %rdx
 345      040000
 346 008a 4889C6   		movq	%rax, %rsi
 347 008d 4889D7   		movq	%rdx, %rdi
 348 0090 E8000000 		call	strcpy
 348      00
  54:RecordingReporter.h ****         strcpy(lastFailedMessage, failure);
 349              		.loc 4 54 0
 350 0095 488B45F8 		movq	-8(%rbp), %rax
 351 0099 488D9014 		leaq	1300(%rax), %rdx
 351      050000
 352 00a0 488B45E8 		movq	-24(%rbp), %rax
 353 00a4 4889C6   		movq	%rax, %rsi
 354 00a7 4889D7   		movq	%rdx, %rdi
 355 00aa E8000000 		call	strcpy
 355      00
  55:RecordingReporter.h ****     }
 356              		.loc 4 55 0
 357 00af 90       		nop
 358 00b0 C9       		leave
 359              		.cfi_def_cfa 7, 8
 360 00b1 C3       		ret
 361              		.cfi_endproc
 362              	.LFE1076:
 364              		.section	.text._ZN17RecordingReporter16ReportTestFinishERKN8UnitTest11TestDetailsEf,"axG",@progbit
 365              		.align 2
 366              		.weak	_ZN17RecordingReporter16ReportTestFinishERKN8UnitTest11TestDetailsEf
 368              	_ZN17RecordingReporter16ReportTestFinishERKN8UnitTest11TestDetailsEf:
 369              	.LFB1077:
  56:RecordingReporter.h **** 
  57:RecordingReporter.h ****     virtual void ReportTestFinish(UnitTest::TestDetails const& test, float testDuration)
 370              		.loc 4 57 0
 371              		.cfi_startproc
 372 0000 55       		pushq	%rbp
 373              		.cfi_def_cfa_offset 16
 374              		.cfi_offset 6, -16
 375 0001 4889E5   		movq	%rsp, %rbp
 376              		.cfi_def_cfa_register 6
 377 0004 4883EC20 		subq	$32, %rsp
 378 0008 48897DF8 		movq	%rdi, -8(%rbp)
 379 000c 488975F0 		movq	%rsi, -16(%rbp)
 380 0010 F30F1145 		movss	%xmm0, -20(%rbp)
 380      EC
  58:RecordingReporter.h ****     {
  59:RecordingReporter.h **** 		using namespace std;
  60:RecordingReporter.h **** 
  61:RecordingReporter.h **** 		++testFinishedCount;
 381              		.loc 4 61 0
 382 0015 488B45F8 		movq	-8(%rbp), %rax
 383 0019 8B801406 		movl	1556(%rax), %eax
 383      0000
 384 001f 8D5001   		leal	1(%rax), %edx
 385 0022 488B45F8 		movq	-8(%rbp), %rax
 386 0026 89901406 		movl	%edx, 1556(%rax)
 386      0000
  62:RecordingReporter.h ****         strcpy(lastFinishedSuite, test.suiteName);
 387              		.loc 4 62 0
 388 002c 488B45F0 		movq	-16(%rbp), %rax
 389 0030 488B00   		movq	(%rax), %rax
 390 0033 488B55F8 		movq	-8(%rbp), %rdx
 391 0037 4881C218 		addq	$1560, %rdx
 391      060000
 392 003e 4889C6   		movq	%rax, %rsi
 393 0041 4889D7   		movq	%rdx, %rdi
 394 0044 E8000000 		call	strcpy
 394      00
  63:RecordingReporter.h ****         strcpy(lastFinishedTest, test.testName);
 395              		.loc 4 63 0
 396 0049 488B45F0 		movq	-16(%rbp), %rax
 397 004d 488B4008 		movq	8(%rax), %rax
 398 0051 488B55F8 		movq	-8(%rbp), %rdx
 399 0055 4881C218 		addq	$1816, %rdx
 399      070000
 400 005c 4889C6   		movq	%rax, %rsi
 401 005f 4889D7   		movq	%rdx, %rdi
 402 0062 E8000000 		call	strcpy
 402      00
  64:RecordingReporter.h ****         lastFinishedTestTime = testDuration;
 403              		.loc 4 64 0
 404 0067 488B45F8 		movq	-8(%rbp), %rax
 405 006b F30F1045 		movss	-20(%rbp), %xmm0
 405      EC
 406 0070 F30F1180 		movss	%xmm0, 2072(%rax)
 406      18080000 
  65:RecordingReporter.h ****     }
 407              		.loc 4 65 0
 408 0078 90       		nop
 409 0079 C9       		leave
 410              		.cfi_def_cfa 7, 8
 411 007a C3       		ret
 412              		.cfi_endproc
 413              	.LFE1077:
 415              		.section	.text._ZN17RecordingReporter13ReportSummaryEiiif,"axG",@progbits,_ZN17RecordingReporter13
 416              		.align 2
 417              		.weak	_ZN17RecordingReporter13ReportSummaryEiiif
 419              	_ZN17RecordingReporter13ReportSummaryEiiif:
 420              	.LFB1078:
  66:RecordingReporter.h **** 
  67:RecordingReporter.h ****     virtual void ReportSummary(int totalTestCount, int failedTestCount, int failureCount, float sec
 421              		.loc 4 67 0
 422              		.cfi_startproc
 423 0000 55       		pushq	%rbp
 424              		.cfi_def_cfa_offset 16
 425              		.cfi_offset 6, -16
 426 0001 4889E5   		movq	%rsp, %rbp
 427              		.cfi_def_cfa_register 6
 428 0004 48897DF8 		movq	%rdi, -8(%rbp)
 429 0008 8975F4   		movl	%esi, -12(%rbp)
 430 000b 8955F0   		movl	%edx, -16(%rbp)
 431 000e 894DEC   		movl	%ecx, -20(%rbp)
 432 0011 F30F1145 		movss	%xmm0, -24(%rbp)
 432      E8
  68:RecordingReporter.h ****     {
  69:RecordingReporter.h ****         summaryTotalTestCount = totalTestCount;
 433              		.loc 4 69 0
 434 0016 488B45F8 		movq	-8(%rbp), %rax
 435 001a 8B55F4   		movl	-12(%rbp), %edx
 436 001d 89901C08 		movl	%edx, 2076(%rax)
 436      0000
  70:RecordingReporter.h ****         summaryFailedTestCount = failedTestCount;
 437              		.loc 4 70 0
 438 0023 488B45F8 		movq	-8(%rbp), %rax
 439 0027 8B55F0   		movl	-16(%rbp), %edx
 440 002a 89902008 		movl	%edx, 2080(%rax)
 440      0000
  71:RecordingReporter.h ****         summaryFailureCount = failureCount;
 441              		.loc 4 71 0
 442 0030 488B45F8 		movq	-8(%rbp), %rax
 443 0034 8B55EC   		movl	-20(%rbp), %edx
 444 0037 89902408 		movl	%edx, 2084(%rax)
 444      0000
  72:RecordingReporter.h ****         summarySecondsElapsed = secondsElapsed;
 445              		.loc 4 72 0
 446 003d 488B45F8 		movq	-8(%rbp), %rax
 447 0041 F30F1045 		movss	-24(%rbp), %xmm0
 447      E8
 448 0046 F30F1180 		movss	%xmm0, 2088(%rax)
 448      28080000 
  73:RecordingReporter.h ****     }
 449              		.loc 4 73 0
 450 004e 90       		nop
 451 004f 5D       		popq	%rbp
 452              		.cfi_def_cfa 7, 8
 453 0050 C3       		ret
 454              		.cfi_endproc
 455              	.LFE1078:
 457              		.section	.rodata
 458              	.LC2:
 459 000d 54657374 		.string	"TestChecks.cpp"
 459      43686563 
 459      6B732E63 
 459      707000
 460              	.LC3:
 461 001c 43686563 		.string	"CheckEqualWithUnsignedLong"
 461      6B457175 
 461      616C5769 
 461      7468556E 
 461      7369676E 
 462              		.text
 463              		.align 2
 465              	_ZN12_GLOBAL__N_130TestCheckEqualWithUnsignedLongC2Ev:
 466              	.LFB1080:
 467              		.file 5 "TestChecks.cpp"
   1:TestChecks.cpp **** #include "../UnitTest++.h"
   2:TestChecks.cpp **** #include "RecordingReporter.h"
   3:TestChecks.cpp **** 
   4:TestChecks.cpp **** using namespace UnitTest;
   5:TestChecks.cpp **** 
   6:TestChecks.cpp **** 
   7:TestChecks.cpp **** namespace {
   8:TestChecks.cpp **** 
   9:TestChecks.cpp **** 
  10:TestChecks.cpp **** TEST(CheckEqualWithUnsignedLong)
 468              		.loc 5 10 0
 469              		.cfi_startproc
 470 0000 55       		pushq	%rbp
 471              		.cfi_def_cfa_offset 16
 472              		.cfi_offset 6, -16
 473 0001 4889E5   		movq	%rsp, %rbp
 474              		.cfi_def_cfa_register 6
 475 0004 4883EC10 		subq	$16, %rsp
 476 0008 48897DF8 		movq	%rdi, -8(%rbp)
 477              	.LBB6:
 478              		.loc 5 10 0
 479 000c E8000000 		call	_ZN13UnitTestSuite12GetSuiteNameEv
 479      00
 480 0011 4889C2   		movq	%rax, %rdx
 481 0014 488B45F8 		movq	-8(%rbp), %rax
 482 0018 41B80A00 		movl	$10, %r8d
 482      0000
 483 001e B9000000 		movl	$.LC2, %ecx
 483      00
 484 0023 BE000000 		movl	$.LC3, %esi
 484      00
 485 0028 4889C7   		movq	%rax, %rdi
 486 002b E8000000 		call	_ZN8UnitTest4TestC2EPKcS2_S2_i
 486      00
 487 0030 BA000000 		movl	$_ZTVN12_GLOBAL__N_130TestCheckEqualWithUnsignedLongE+16, %edx
 487      00
 488 0035 488B45F8 		movq	-8(%rbp), %rax
 489 0039 488910   		movq	%rdx, (%rax)
 490              	.LBE6:
 491 003c 90       		nop
 492 003d C9       		leave
 493              		.cfi_def_cfa 7, 8
 494 003e C3       		ret
 495              		.cfi_endproc
 496              	.LFE1080:
 498              		.set	_ZN12_GLOBAL__N_130TestCheckEqualWithUnsignedLongC1Ev,_ZN12_GLOBAL__N_130TestCheckEqualWithUn
 499              		.local	_ZN12_GLOBAL__N_138testCheckEqualWithUnsignedLongInstanceE
 500              		.comm	_ZN12_GLOBAL__N_138testCheckEqualWithUnsignedLongInstanceE,56,32
 501              		.local	_ZN12_GLOBAL__N_131adderCheckEqualWithUnsignedLongE
 502              		.comm	_ZN12_GLOBAL__N_131adderCheckEqualWithUnsignedLongE,1,1
 503              		.section	.rodata
 504 0037 00       		.align 8
 505              	.LC4:
 506 0038 556E6861 		.string	"Unhandled exception in CHECK_EQUAL(something, something)"
 506      6E646C65 
 506      64206578 
 506      63657074 
 506      696F6E20 
 507              		.text
 508 003f 90       		.align 2
 510              	_ZNK12_GLOBAL__N_130TestCheckEqualWithUnsignedLong7RunImplEv:
 511              	.LFB1082:
  11:TestChecks.cpp **** {
 512              		.loc 5 11 0
 513              		.cfi_startproc
 514              		.cfi_personality 0x3,__gxx_personality_v0
 515              		.cfi_lsda 0x3,.LLSDA1082
 516 0040 55       		pushq	%rbp
 517              		.cfi_def_cfa_offset 16
 518              		.cfi_offset 6, -16
 519 0041 4889E5   		movq	%rsp, %rbp
 520              		.cfi_def_cfa_register 6
 521 0044 53       		pushq	%rbx
 522 0045 4883EC78 		subq	$120, %rsp
 523              		.cfi_offset 3, -24
 524 0049 48897D88 		movq	%rdi, -120(%rbp)
 525              		.loc 5 11 0
 526 004d 64488B04 		movq	%fs:40, %rax
 526      25280000 
 526      00
 527 0056 488945E8 		movq	%rax, -24(%rbp)
 528 005a 31C0     		xorl	%eax, %eax
  12:TestChecks.cpp ****     TestResults results;
 529              		.loc 5 12 0
 530 005c 488D45A0 		leaq	-96(%rbp), %rax
 531 0060 BE000000 		movl	$0, %esi
 531      00
 532 0065 4889C7   		movq	%rax, %rdi
 533              	.LEHB4:
 534 0068 E8000000 		call	_ZN8UnitTest11TestResultsC1EPNS_12TestReporterE
 534      00
 535              	.LEHE4:
  13:TestChecks.cpp ****     unsigned long something = 2;
 536              		.loc 5 13 0
 537 006d 48C74598 		movq	$2, -104(%rbp)
 537      02000000 
 538              	.LEHB5:
  14:TestChecks.cpp ****     CHECK_EQUAL(something, something);
 539              		.loc 5 14 0
 540 0075 E8000000 		call	_ZN8UnitTest11CurrentTest7DetailsEv
 540      00
 541 007a 488B08   		movq	(%rax), %rcx
 542 007d 488D45C0 		leaq	-64(%rbp), %rax
 543 0081 BA0E0000 		movl	$14, %edx
 543      00
 544 0086 4889CE   		movq	%rcx, %rsi
 545 0089 4889C7   		movq	%rax, %rdi
 546 008c E8000000 		call	_ZN8UnitTest11TestDetailsC1ERKS0_i
 546      00
 547              		.loc 5 14 0 is_stmt 0 discriminator 2
 548 0091 E8000000 		call	_ZN8UnitTest11CurrentTest7ResultsEv
 548      00
 549 0096 488B00   		movq	(%rax), %rax
 550 0099 488D4DC0 		leaq	-64(%rbp), %rcx
 551 009d 488D5598 		leaq	-104(%rbp), %rdx
 552 00a1 488D7598 		leaq	-104(%rbp), %rsi
 553 00a5 4889C7   		movq	%rax, %rdi
 554 00a8 E8000000 		call	_ZN8UnitTest10CheckEqualImmEEvRNS_11TestResultsERKT_RKT0_RKNS_11TestDetailsE
 554      00
 555              	.LEHE5:
  15:TestChecks.cpp **** }
 556              		.loc 5 15 0 is_stmt 1
 557 00ad EB5A     		jmp	.L17
 558              	.L22:
  14:TestChecks.cpp ****     CHECK_EQUAL(something, something);
 559              		.loc 5 14 0
 560 00af 4889C7   		movq	%rax, %rdi
 561 00b2 E8000000 		call	__cxa_begin_catch
 561      00
 562              	.LEHB6:
 563 00b7 E8000000 		call	_ZN8UnitTest11CurrentTest7DetailsEv
 563      00
 564 00bc 488B08   		movq	(%rax), %rcx
 565 00bf 488D45C0 		leaq	-64(%rbp), %rax
 566 00c3 BA0E0000 		movl	$14, %edx
 566      00
 567 00c8 4889CE   		movq	%rcx, %rsi
 568 00cb 4889C7   		movq	%rax, %rdi
 569 00ce E8000000 		call	_ZN8UnitTest11TestDetailsC1ERKS0_i
 569      00
  14:TestChecks.cpp ****     CHECK_EQUAL(something, something);
 570              		.loc 5 14 0 is_stmt 0 discriminator 10
 571 00d3 E8000000 		call	_ZN8UnitTest11CurrentTest7ResultsEv
 571      00
 572 00d8 488B00   		movq	(%rax), %rax
 573 00db 488D4DC0 		leaq	-64(%rbp), %rcx
 574 00df BA000000 		movl	$.LC4, %edx
 574      00
 575 00e4 4889CE   		movq	%rcx, %rsi
 576 00e7 4889C7   		movq	%rax, %rdi
 577 00ea E8000000 		call	_ZN8UnitTest11TestResults13OnTestFailureERKNS_11TestDetailsEPKc
 577      00
 578              	.LEHE6:
 579              	.LEHB7:
  14:TestChecks.cpp ****     CHECK_EQUAL(something, something);
 580              		.loc 5 14 0 discriminator 14
 581 00ef E8000000 		call	__cxa_end_catch
 581      00
 582              	.LEHE7:
 583              		.loc 5 15 0 is_stmt 1 discriminator 14
 584 00f4 EB13     		jmp	.L17
 585              	.L23:
 586 00f6 4889C3   		movq	%rax, %rbx
  14:TestChecks.cpp ****     CHECK_EQUAL(something, something);
 587              		.loc 5 14 0
 588 00f9 E8000000 		call	__cxa_end_catch
 588      00
 589 00fe 4889D8   		movq	%rbx, %rax
 590 0101 4889C7   		movq	%rax, %rdi
 591              	.LEHB8:
 592 0104 E8000000 		call	_Unwind_Resume
 592      00
 593              	.LEHE8:
 594              	.L17:
 595              		.loc 5 15 0
 596 0109 488B45E8 		movq	-24(%rbp), %rax
 597 010d 64483304 		xorq	%fs:40, %rax
 597      25280000 
 597      00
 598 0116 7405     		je	.L21
 599 0118 E8000000 		call	__stack_chk_fail
 599      00
 600              	.L21:
 601 011d 4883C478 		addq	$120, %rsp
 602 0121 5B       		popq	%rbx
 603 0122 5D       		popq	%rbp
 604              		.cfi_def_cfa 7, 8
 605 0123 C3       		ret
 606              		.cfi_endproc
 607              	.LFE1082:
 608              		.section	.gcc_except_table,"a",@progbits
 609              		.align 4
 610              	.LLSDA1082:
 611 0000 FF       		.byte	0xff
 612 0001 03       		.byte	0x3
 613 0002 21       		.uleb128 .LLSDATT1082-.LLSDATTD1082
 614              	.LLSDATTD1082:
 615 0003 01       		.byte	0x1
 616 0004 17       		.uleb128 .LLSDACSE1082-.LLSDACSB1082
 617              	.LLSDACSB1082:
 618 0005 28       		.uleb128 .LEHB4-.LFB1082
 619 0006 05       		.uleb128 .LEHE4-.LEHB4
 620 0007 00       		.uleb128 0
 621 0008 00       		.uleb128 0
 622 0009 35       		.uleb128 .LEHB5-.LFB1082
 623 000a 38       		.uleb128 .LEHE5-.LEHB5
 624 000b 6F       		.uleb128 .L22-.LFB1082
 625 000c 01       		.uleb128 0x1
 626 000d 77       		.uleb128 .LEHB6-.LFB1082
 627 000e 38       		.uleb128 .LEHE6-.LEHB6
 628 000f B601     		.uleb128 .L23-.LFB1082
 629 0011 00       		.uleb128 0
 630 0012 AF01     		.uleb128 .LEHB7-.LFB1082
 631 0014 05       		.uleb128 .LEHE7-.LEHB7
 632 0015 00       		.uleb128 0
 633 0016 00       		.uleb128 0
 634 0017 C401     		.uleb128 .LEHB8-.LFB1082
 635 0019 05       		.uleb128 .LEHE8-.LEHB8
 636 001a 00       		.uleb128 0
 637 001b 00       		.uleb128 0
 638              	.LLSDACSE1082:
 639 001c 01       		.byte	0x1
 640 001d 00       		.byte	0
 641 001e 0000     		.align 4
 642 0020 00000000 		.long	0
 643              	
 644              	.LLSDATT1082:
 645              		.text
 647              		.section	.rodata
 648 0071 00000000 		.align 8
 648      000000
 649              	.LC5:
 650 0078 43686563 		.string	"CheckEqualsWithStringsFailsOnDifferentStrings"
 650      6B457175 
 650      616C7357 
 650      69746853 
 650      7472696E 
 651              		.text
 652              		.align 2
 654              	_ZN12_GLOBAL__N_149TestCheckEqualsWithStringsFailsOnDifferentStringsC2Ev:
 655              	.LFB1084:
  16:TestChecks.cpp **** 
  17:TestChecks.cpp **** TEST(CheckEqualsWithStringsFailsOnDifferentStrings)
 656              		.loc 5 17 0
 657              		.cfi_startproc
 658 0124 55       		pushq	%rbp
 659              		.cfi_def_cfa_offset 16
 660              		.cfi_offset 6, -16
 661 0125 4889E5   		movq	%rsp, %rbp
 662              		.cfi_def_cfa_register 6
 663 0128 4883EC10 		subq	$16, %rsp
 664 012c 48897DF8 		movq	%rdi, -8(%rbp)
 665              	.LBB7:
 666              		.loc 5 17 0
 667 0130 E8000000 		call	_ZN13UnitTestSuite12GetSuiteNameEv
 667      00
 668 0135 4889C2   		movq	%rax, %rdx
 669 0138 488B45F8 		movq	-8(%rbp), %rax
 670 013c 41B81100 		movl	$17, %r8d
 670      0000
 671 0142 B9000000 		movl	$.LC2, %ecx
 671      00
 672 0147 BE000000 		movl	$.LC5, %esi
 672      00
 673 014c 4889C7   		movq	%rax, %rdi
 674 014f E8000000 		call	_ZN8UnitTest4TestC2EPKcS2_S2_i
 674      00
 675 0154 BA000000 		movl	$_ZTVN12_GLOBAL__N_149TestCheckEqualsWithStringsFailsOnDifferentStringsE+16, %edx
 675      00
 676 0159 488B45F8 		movq	-8(%rbp), %rax
 677 015d 488910   		movq	%rdx, (%rax)
 678              	.LBE7:
 679 0160 90       		nop
 680 0161 C9       		leave
 681              		.cfi_def_cfa 7, 8
 682 0162 C3       		ret
 683              		.cfi_endproc
 684              	.LFE1084:
 686              		.set	_ZN12_GLOBAL__N_149TestCheckEqualsWithStringsFailsOnDifferentStringsC1Ev,_ZN12_GLOBAL__N_149T
 687              		.local	_ZN12_GLOBAL__N_157testCheckEqualsWithStringsFailsOnDifferentStringsInstanceE
 688              		.comm	_ZN12_GLOBAL__N_157testCheckEqualsWithStringsFailsOnDifferentStringsInstanceE,56,32
 689              		.local	_ZN12_GLOBAL__N_150adderCheckEqualsWithStringsFailsOnDifferentStringsE
 690              		.comm	_ZN12_GLOBAL__N_150adderCheckEqualsWithStringsFailsOnDifferentStringsE,1,1
 691              		.section	.rodata
 692              	.LC6:
 693 00a6 00       		.string	""
 694 00a7 00       		.align 8
 695              	.LC7:
 696 00a8 556E6861 		.string	"Unhandled exception in CHECK_EQUAL(1, results.GetFailureCount())"
 696      6E646C65 
 696      64206578 
 696      63657074 
 696      696F6E20 
 697              		.text
 698 0163 90       		.align 2
 700              	_ZNK12_GLOBAL__N_149TestCheckEqualsWithStringsFailsOnDifferentStrings7RunImplEv:
 701              	.LFB1086:
  18:TestChecks.cpp **** {
 702              		.loc 5 18 0
 703              		.cfi_startproc
 704              		.cfi_personality 0x3,__gxx_personality_v0
 705              		.cfi_lsda 0x3,.LLSDA1086
 706 0164 55       		pushq	%rbp
 707              		.cfi_def_cfa_offset 16
 708              		.cfi_offset 6, -16
 709 0165 4889E5   		movq	%rsp, %rbp
 710              		.cfi_def_cfa_register 6
 711 0168 53       		pushq	%rbx
 712 0169 4881EC88 		subq	$136, %rsp
 712      000000
 713              		.cfi_offset 3, -24
 714 0170 4889BD78 		movq	%rdi, -136(%rbp)
 714      FFFFFF
 715              		.loc 5 18 0
 716 0177 64488B04 		movq	%fs:40, %rax
 716      25280000 
 716      00
 717 0180 488945E8 		movq	%rax, -24(%rbp)
 718 0184 31C0     		xorl	%eax, %eax
  19:TestChecks.cpp ****     char txt1[] = "Hello";
 719              		.loc 5 19 0
 720 0186 C745D048 		movl	$1819043144, -48(%rbp)
 720      656C6C
 721 018d 66C745D4 		movw	$111, -44(%rbp)
 721      6F00
  20:TestChecks.cpp ****     char txt2[] = "Hallo";
 722              		.loc 5 20 0
 723 0193 C745E048 		movl	$1819042120, -32(%rbp)
 723      616C6C
 724 019a 66C745E4 		movw	$111, -28(%rbp)
 724      6F00
  21:TestChecks.cpp ****     TestResults results;
 725              		.loc 5 21 0
 726 01a0 488D4590 		leaq	-112(%rbp), %rax
 727 01a4 BE000000 		movl	$0, %esi
 727      00
 728 01a9 4889C7   		movq	%rax, %rdi
 729              	.LEHB9:
 730 01ac E8000000 		call	_ZN8UnitTest11TestResultsC1EPNS_12TestReporterE
 730      00
  22:TestChecks.cpp ****     CheckEqual(results, txt1, txt2, TestDetails("", "", "", 0));
 731              		.loc 5 22 0
 732 01b1 488D45B0 		leaq	-80(%rbp), %rax
 733 01b5 41B80000 		movl	$0, %r8d
 733      0000
 734 01bb B9000000 		movl	$.LC6, %ecx
 734      00
 735 01c0 BA000000 		movl	$.LC6, %edx
 735      00
 736 01c5 BE000000 		movl	$.LC6, %esi
 736      00
 737 01ca 4889C7   		movq	%rax, %rdi
 738 01cd E8000000 		call	_ZN8UnitTest11TestDetailsC1EPKcS2_S2_i
 738      00
 739 01d2 488D4DB0 		leaq	-80(%rbp), %rcx
 740 01d6 488D55E0 		leaq	-32(%rbp), %rdx
 741 01da 488D75D0 		leaq	-48(%rbp), %rsi
 742 01de 488D4590 		leaq	-112(%rbp), %rax
 743 01e2 4889C7   		movq	%rax, %rdi
 744 01e5 E8000000 		call	_ZN8UnitTest10CheckEqualERNS_11TestResultsEPcS2_RKNS_11TestDetailsE
 744      00
 745              	.LEHE9:
 746              	.LEHB10:
  23:TestChecks.cpp ****     CHECK_EQUAL(1, results.GetFailureCount());
 747              		.loc 5 23 0
 748 01ea E8000000 		call	_ZN8UnitTest11CurrentTest7DetailsEv
 748      00
 749 01ef 488B08   		movq	(%rax), %rcx
 750 01f2 488D45B0 		leaq	-80(%rbp), %rax
 751 01f6 BA170000 		movl	$23, %edx
 751      00
 752 01fb 4889CE   		movq	%rcx, %rsi
 753 01fe 4889C7   		movq	%rax, %rdi
 754 0201 E8000000 		call	_ZN8UnitTest11TestDetailsC1ERKS0_i
 754      00
 755              		.loc 5 23 0 is_stmt 0 discriminator 2
 756 0206 488D4590 		leaq	-112(%rbp), %rax
 757 020a 4889C7   		movq	%rax, %rdi
 758 020d E8000000 		call	_ZNK8UnitTest11TestResults15GetFailureCountEv
 758      00
 759              	.LEHE10:
 760 0212 89458C   		movl	%eax, -116(%rbp)
 761 0215 C7458801 		movl	$1, -120(%rbp)
 761      000000
 762              	.LEHB11:
 763 021c E8000000 		call	_ZN8UnitTest11CurrentTest7ResultsEv
 763      00
 764              		.loc 5 23 0 discriminator 4
 765 0221 488B00   		movq	(%rax), %rax
 766 0224 488D4DB0 		leaq	-80(%rbp), %rcx
 767 0228 488D558C 		leaq	-116(%rbp), %rdx
 768 022c 488D7588 		leaq	-120(%rbp), %rsi
 769 0230 4889C7   		movq	%rax, %rdi
 770 0233 E8000000 		call	_ZN8UnitTest10CheckEqualIiiEEvRNS_11TestResultsERKT_RKT0_RKNS_11TestDetailsE
 770      00
 771              	.LEHE11:
  24:TestChecks.cpp **** }
 772              		.loc 5 24 0 is_stmt 1
 773 0238 EB5C     		jmp	.L25
 774              	.L32:
 775 023a EB00     		jmp	.L27
 776              	.L31:
 777              	.L27:
  23:TestChecks.cpp ****     CHECK_EQUAL(1, results.GetFailureCount());
 778              		.loc 5 23 0
 779 023c 4889C7   		movq	%rax, %rdi
 780 023f E8000000 		call	__cxa_begin_catch
 780      00
 781              	.LEHB12:
 782 0244 E8000000 		call	_ZN8UnitTest11CurrentTest7DetailsEv
 782      00
 783 0249 488B08   		movq	(%rax), %rcx
 784 024c 488D45B0 		leaq	-80(%rbp), %rax
 785 0250 BA170000 		movl	$23, %edx
 785      00
 786 0255 4889CE   		movq	%rcx, %rsi
 787 0258 4889C7   		movq	%rax, %rdi
 788 025b E8000000 		call	_ZN8UnitTest11TestDetailsC1ERKS0_i
 788      00
  23:TestChecks.cpp ****     CHECK_EQUAL(1, results.GetFailureCount());
 789              		.loc 5 23 0 is_stmt 0 discriminator 12
 790 0260 E8000000 		call	_ZN8UnitTest11CurrentTest7ResultsEv
 790      00
 791 0265 488B00   		movq	(%rax), %rax
 792 0268 488D4DB0 		leaq	-80(%rbp), %rcx
 793 026c BA000000 		movl	$.LC7, %edx
 793      00
 794 0271 4889CE   		movq	%rcx, %rsi
 795 0274 4889C7   		movq	%rax, %rdi
 796 0277 E8000000 		call	_ZN8UnitTest11TestResults13OnTestFailureERKNS_11TestDetailsEPKc
 796      00
 797              	.LEHE12:
 798              	.LEHB13:
  23:TestChecks.cpp ****     CHECK_EQUAL(1, results.GetFailureCount());
 799              		.loc 5 23 0 discriminator 16
 800 027c E8000000 		call	__cxa_end_catch
 800      00
 801              	.LEHE13:
 802              		.loc 5 24 0 is_stmt 1 discriminator 16
 803 0281 EB13     		jmp	.L25
 804              	.L33:
 805 0283 4889C3   		movq	%rax, %rbx
  23:TestChecks.cpp ****     CHECK_EQUAL(1, results.GetFailureCount());
 806              		.loc 5 23 0
 807 0286 E8000000 		call	__cxa_end_catch
 807      00
 808 028b 4889D8   		movq	%rbx, %rax
 809 028e 4889C7   		movq	%rax, %rdi
 810              	.LEHB14:
 811 0291 E8000000 		call	_Unwind_Resume
 811      00
 812              	.LEHE14:
 813              	.L25:
 814              		.loc 5 24 0
 815 0296 488B45E8 		movq	-24(%rbp), %rax
 816 029a 64483304 		xorq	%fs:40, %rax
 816      25280000 
 816      00
 817 02a3 7405     		je	.L30
 818 02a5 E8000000 		call	__stack_chk_fail
 818      00
 819              	.L30:
 820 02aa 4881C488 		addq	$136, %rsp
 820      000000
 821 02b1 5B       		popq	%rbx
 822 02b2 5D       		popq	%rbp
 823              		.cfi_def_cfa 7, 8
 824 02b3 C3       		ret
 825              		.cfi_endproc
 826              	.LFE1086:
 827              		.section	.gcc_except_table
 828              		.align 4
 829              	.LLSDA1086:
 830 0024 FF       		.byte	0xff
 831 0025 03       		.byte	0x3
 832 0026 2D       		.uleb128 .LLSDATT1086-.LLSDATTD1086
 833              	.LLSDATTD1086:
 834 0027 01       		.byte	0x1
 835 0028 20       		.uleb128 .LLSDACSE1086-.LLSDACSB1086
 836              	.LLSDACSB1086:
 837 0029 48       		.uleb128 .LEHB9-.LFB1086
 838 002a 3E       		.uleb128 .LEHE9-.LEHB9
 839 002b 00       		.uleb128 0
 840 002c 00       		.uleb128 0
 841 002d 8601     		.uleb128 .LEHB10-.LFB1086
 842 002f 28       		.uleb128 .LEHE10-.LEHB10
 843 0030 D801     		.uleb128 .L31-.LFB1086
 844 0032 01       		.uleb128 0x1
 845 0033 B801     		.uleb128 .LEHB11-.LFB1086
 846 0035 1C       		.uleb128 .LEHE11-.LEHB11
 847 0036 D601     		.uleb128 .L32-.LFB1086
 848 0038 03       		.uleb128 0x3
 849 0039 E001     		.uleb128 .LEHB12-.LFB1086
 850 003b 38       		.uleb128 .LEHE12-.LEHB12
 851 003c 9F02     		.uleb128 .L33-.LFB1086
 852 003e 00       		.uleb128 0
 853 003f 9802     		.uleb128 .LEHB13-.LFB1086
 854 0041 05       		.uleb128 .LEHE13-.LEHB13
 855 0042 00       		.uleb128 0
 856 0043 00       		.uleb128 0
 857 0044 AD02     		.uleb128 .LEHB14-.LFB1086
 858 0046 05       		.uleb128 .LEHE14-.LEHB14
 859 0047 00       		.uleb128 0
 860 0048 00       		.uleb128 0
 861              	.LLSDACSE1086:
 862 0049 01       		.byte	0x1
 863 004a 00       		.byte	0
 864 004b 00       		.byte	0
 865 004c 7D       		.byte	0x7d
 866 004d 000000   		.align 4
 867 0050 00000000 		.long	0
 868              	
 869              	.LLSDATT1086:
 870              		.text
 872              		.data
 875              	_ZN12_GLOBAL__N_14txt1E:
 876 0000 48656C6C 		.string	"Hello"
 876      6F00
 879              	_ZN12_GLOBAL__N_14txt2E:
 880 0006 48656C6C 		.string	"Hello"
 880      6F00
 881              		.section	.rodata
 882 00e9 00000000 		.align 8
 882      000000
 883              	.LC8:
 884 00f0 43686563 		.string	"CheckEqualsWithStringsWorksOnContentsNonConstNonConst"
 884      6B457175 
 884      616C7357 
 884      69746853 
 884      7472696E 
 885              		.text
 886              		.align 2
 888              	_ZN12_GLOBAL__N_157TestCheckEqualsWithStringsWorksOnContentsNonConstNonConstC2Ev:
 889              	.LFB1088:
  25:TestChecks.cpp **** 
  26:TestChecks.cpp **** char txt1[] = "Hello"; // non-const on purpose so no folding of duplicate data
  27:TestChecks.cpp **** char txt2[] = "Hello";
  28:TestChecks.cpp **** 
  29:TestChecks.cpp **** TEST(CheckEqualsWithStringsWorksOnContentsNonConstNonConst)
 890              		.loc 5 29 0
 891              		.cfi_startproc
 892 02b4 55       		pushq	%rbp
 893              		.cfi_def_cfa_offset 16
 894              		.cfi_offset 6, -16
 895 02b5 4889E5   		movq	%rsp, %rbp
 896              		.cfi_def_cfa_register 6
 897 02b8 4883EC10 		subq	$16, %rsp
 898 02bc 48897DF8 		movq	%rdi, -8(%rbp)
 899              	.LBB8:
 900              		.loc 5 29 0
 901 02c0 E8000000 		call	_ZN13UnitTestSuite12GetSuiteNameEv
 901      00
 902 02c5 4889C2   		movq	%rax, %rdx
 903 02c8 488B45F8 		movq	-8(%rbp), %rax
 904 02cc 41B81D00 		movl	$29, %r8d
 904      0000
 905 02d2 B9000000 		movl	$.LC2, %ecx
 905      00
 906 02d7 BE000000 		movl	$.LC8, %esi
 906      00
 907 02dc 4889C7   		movq	%rax, %rdi
 908 02df E8000000 		call	_ZN8UnitTest4TestC2EPKcS2_S2_i
 908      00
 909 02e4 BA000000 		movl	$_ZTVN12_GLOBAL__N_157TestCheckEqualsWithStringsWorksOnContentsNonConstNonConstE+16, %edx
 909      00
 910 02e9 488B45F8 		movq	-8(%rbp), %rax
 911 02ed 488910   		movq	%rdx, (%rax)
 912              	.LBE8:
 913 02f0 90       		nop
 914 02f1 C9       		leave
 915              		.cfi_def_cfa 7, 8
 916 02f2 C3       		ret
 917              		.cfi_endproc
 918              	.LFE1088:
 920              		.set	_ZN12_GLOBAL__N_157TestCheckEqualsWithStringsWorksOnContentsNonConstNonConstC1Ev,_ZN12_GLOBAL
 921              		.local	_ZN12_GLOBAL__N_165testCheckEqualsWithStringsWorksOnContentsNonConstNonConstInstanceE
 922              		.comm	_ZN12_GLOBAL__N_165testCheckEqualsWithStringsWorksOnContentsNonConstNonConstInstanceE,56,32
 923              		.local	_ZN12_GLOBAL__N_158adderCheckEqualsWithStringsWorksOnContentsNonConstNonConstE
 924              		.comm	_ZN12_GLOBAL__N_158adderCheckEqualsWithStringsWorksOnContentsNonConstNonConstE,1,1
 925              		.section	.rodata
 926 0126 0000     		.align 8
 927              	.LC9:
 928 0128 556E6861 		.string	"Unhandled exception in CHECK_EQUAL(0, results.GetFailureCount())"
 928      6E646C65 
 928      64206578 
 928      63657074 
 928      696F6E20 
 929              		.text
 930 02f3 90       		.align 2
 932              	_ZNK12_GLOBAL__N_157TestCheckEqualsWithStringsWorksOnContentsNonConstNonConst7RunImplEv:
 933              	.LFB1090:
  30:TestChecks.cpp **** {
 934              		.loc 5 30 0
 935              		.cfi_startproc
 936              		.cfi_personality 0x3,__gxx_personality_v0
 937              		.cfi_lsda 0x3,.LLSDA1090
 938 02f4 55       		pushq	%rbp
 939              		.cfi_def_cfa_offset 16
 940              		.cfi_offset 6, -16
 941 02f5 4889E5   		movq	%rsp, %rbp
 942              		.cfi_def_cfa_register 6
 943 02f8 53       		pushq	%rbx
 944 02f9 4881EC88 		subq	$136, %rsp
 944      000000
 945              		.cfi_offset 3, -24
 946 0300 4889BD78 		movq	%rdi, -136(%rbp)
 946      FFFFFF
 947              		.loc 5 30 0
 948 0307 64488B04 		movq	%fs:40, %rax
 948      25280000 
 948      00
 949 0310 488945E8 		movq	%rax, -24(%rbp)
 950 0314 31C0     		xorl	%eax, %eax
  31:TestChecks.cpp ****     char const* const p1 = txt1;
 951              		.loc 5 31 0
 952 0316 48C74590 		movq	$_ZN12_GLOBAL__N_14txt1E, -112(%rbp)
 952      00000000 
  32:TestChecks.cpp ****     char const* const p2 = txt2;
 953              		.loc 5 32 0
 954 031e 48C74598 		movq	$_ZN12_GLOBAL__N_14txt2E, -104(%rbp)
 954      00000000 
  33:TestChecks.cpp ****     TestResults results;
 955              		.loc 5 33 0
 956 0326 488D45A0 		leaq	-96(%rbp), %rax
 957 032a BE000000 		movl	$0, %esi
 957      00
 958 032f 4889C7   		movq	%rax, %rdi
 959              	.LEHB15:
 960 0332 E8000000 		call	_ZN8UnitTest11TestResultsC1EPNS_12TestReporterE
 960      00
  34:TestChecks.cpp ****     CheckEqual(results, p1, p2, TestDetails("", "", "", 0));
 961              		.loc 5 34 0
 962 0337 488D45C0 		leaq	-64(%rbp), %rax
 963 033b 41B80000 		movl	$0, %r8d
 963      0000
 964 0341 B9000000 		movl	$.LC6, %ecx
 964      00
 965 0346 BA000000 		movl	$.LC6, %edx
 965      00
 966 034b BE000000 		movl	$.LC6, %esi
 966      00
 967 0350 4889C7   		movq	%rax, %rdi
 968 0353 E8000000 		call	_ZN8UnitTest11TestDetailsC1EPKcS2_S2_i
 968      00
 969 0358 488D4DC0 		leaq	-64(%rbp), %rcx
 970 035c 488B5598 		movq	-104(%rbp), %rdx
 971 0360 488B7590 		movq	-112(%rbp), %rsi
 972 0364 488D45A0 		leaq	-96(%rbp), %rax
 973 0368 4889C7   		movq	%rax, %rdi
 974 036b E8000000 		call	_ZN8UnitTest10CheckEqualERNS_11TestResultsEPKcS3_RKNS_11TestDetailsE
 974      00
 975              	.LEHE15:
 976              	.LEHB16:
  35:TestChecks.cpp ****     CHECK_EQUAL(0, results.GetFailureCount());
 977              		.loc 5 35 0
 978 0370 E8000000 		call	_ZN8UnitTest11CurrentTest7DetailsEv
 978      00
 979 0375 488B08   		movq	(%rax), %rcx
 980 0378 488D45C0 		leaq	-64(%rbp), %rax
 981 037c BA230000 		movl	$35, %edx
 981      00
 982 0381 4889CE   		movq	%rcx, %rsi
 983 0384 4889C7   		movq	%rax, %rdi
 984 0387 E8000000 		call	_ZN8UnitTest11TestDetailsC1ERKS0_i
 984      00
 985              		.loc 5 35 0 is_stmt 0 discriminator 2
 986 038c 488D45A0 		leaq	-96(%rbp), %rax
 987 0390 4889C7   		movq	%rax, %rdi
 988 0393 E8000000 		call	_ZNK8UnitTest11TestResults15GetFailureCountEv
 988      00
 989              	.LEHE16:
 990 0398 89458C   		movl	%eax, -116(%rbp)
 991 039b C7458800 		movl	$0, -120(%rbp)
 991      000000
 992              	.LEHB17:
 993 03a2 E8000000 		call	_ZN8UnitTest11CurrentTest7ResultsEv
 993      00
 994              		.loc 5 35 0 discriminator 4
 995 03a7 488B00   		movq	(%rax), %rax
 996 03aa 488D4DC0 		leaq	-64(%rbp), %rcx
 997 03ae 488D558C 		leaq	-116(%rbp), %rdx
 998 03b2 488D7588 		leaq	-120(%rbp), %rsi
 999 03b6 4889C7   		movq	%rax, %rdi
 1000 03b9 E8000000 		call	_ZN8UnitTest10CheckEqualIiiEEvRNS_11TestResultsERKT_RKT0_RKNS_11TestDetailsE
 1000      00
 1001              	.LEHE17:
  36:TestChecks.cpp **** }
 1002              		.loc 5 36 0 is_stmt 1
 1003 03be EB5C     		jmp	.L35
 1004              	.L42:
 1005 03c0 EB00     		jmp	.L37
 1006              	.L41:
 1007              	.L37:
  35:TestChecks.cpp ****     CHECK_EQUAL(0, results.GetFailureCount());
 1008              		.loc 5 35 0
 1009 03c2 4889C7   		movq	%rax, %rdi
 1010 03c5 E8000000 		call	__cxa_begin_catch
 1010      00
 1011              	.LEHB18:
 1012 03ca E8000000 		call	_ZN8UnitTest11CurrentTest7DetailsEv
 1012      00
 1013 03cf 488B08   		movq	(%rax), %rcx
 1014 03d2 488D45C0 		leaq	-64(%rbp), %rax
 1015 03d6 BA230000 		movl	$35, %edx
 1015      00
 1016 03db 4889CE   		movq	%rcx, %rsi
 1017 03de 4889C7   		movq	%rax, %rdi
 1018 03e1 E8000000 		call	_ZN8UnitTest11TestDetailsC1ERKS0_i
 1018      00
  35:TestChecks.cpp ****     CHECK_EQUAL(0, results.GetFailureCount());
 1019              		.loc 5 35 0 is_stmt 0 discriminator 12
 1020 03e6 E8000000 		call	_ZN8UnitTest11CurrentTest7ResultsEv
 1020      00
 1021 03eb 488B00   		movq	(%rax), %rax
 1022 03ee 488D4DC0 		leaq	-64(%rbp), %rcx
 1023 03f2 BA000000 		movl	$.LC9, %edx
 1023      00
 1024 03f7 4889CE   		movq	%rcx, %rsi
 1025 03fa 4889C7   		movq	%rax, %rdi
 1026 03fd E8000000 		call	_ZN8UnitTest11TestResults13OnTestFailureERKNS_11TestDetailsEPKc
 1026      00
 1027              	.LEHE18:
 1028              	.LEHB19:
  35:TestChecks.cpp ****     CHECK_EQUAL(0, results.GetFailureCount());
 1029              		.loc 5 35 0 discriminator 16
 1030 0402 E8000000 		call	__cxa_end_catch
 1030      00
 1031              	.LEHE19:
 1032              		.loc 5 36 0 is_stmt 1 discriminator 16
 1033 0407 EB13     		jmp	.L35
 1034              	.L43:
 1035 0409 4889C3   		movq	%rax, %rbx
  35:TestChecks.cpp ****     CHECK_EQUAL(0, results.GetFailureCount());
 1036              		.loc 5 35 0
 1037 040c E8000000 		call	__cxa_end_catch
 1037      00
 1038 0411 4889D8   		movq	%rbx, %rax
 1039 0414 4889C7   		movq	%rax, %rdi
 1040              	.LEHB20:
 1041 0417 E8000000 		call	_Unwind_Resume
 1041      00
 1042              	.LEHE20:
 1043              	.L35:
 1044              		.loc 5 36 0
 1045 041c 488B45E8 		movq	-24(%rbp), %rax
 1046 0420 64483304 		xorq	%fs:40, %rax
 1046      25280000 
 1046      00
 1047 0429 7405     		je	.L40
 1048 042b E8000000 		call	__stack_chk_fail
 1048      00
 1049              	.L40:
 1050 0430 4881C488 		addq	$136, %rsp
 1050      000000
 1051 0437 5B       		popq	%rbx
 1052 0438 5D       		popq	%rbp
 1053              		.cfi_def_cfa 7, 8
 1054 0439 C3       		ret
 1055              		.cfi_endproc
 1056              	.LFE1090:
 1057              		.section	.gcc_except_table
 1058              		.align 4
 1059              	.LLSDA1090:
 1060 0054 FF       		.byte	0xff
 1061 0055 03       		.byte	0x3
 1062 0056 29       		.uleb128 .LLSDATT1090-.LLSDATTD1090
 1063              	.LLSDATTD1090:
 1064 0057 01       		.byte	0x1
 1065 0058 1F       		.uleb128 .LLSDACSE1090-.LLSDACSB1090
 1066              	.LLSDACSB1090:
 1067 0059 3E       		.uleb128 .LEHB15-.LFB1090
 1068 005a 3E       		.uleb128 .LEHE15-.LEHB15
 1069 005b 00       		.uleb128 0
 1070 005c 00       		.uleb128 0
 1071 005d 7C       		.uleb128 .LEHB16-.LFB1090
 1072 005e 28       		.uleb128 .LEHE16-.LEHB16
 1073 005f CE01     		.uleb128 .L41-.LFB1090
 1074 0061 01       		.uleb128 0x1
 1075 0062 AE01     		.uleb128 .LEHB17-.LFB1090
 1076 0064 1C       		.uleb128 .LEHE17-.LEHB17
 1077 0065 CC01     		.uleb128 .L42-.LFB1090
 1078 0067 03       		.uleb128 0x3
 1079 0068 D601     		.uleb128 .LEHB18-.LFB1090
 1080 006a 38       		.uleb128 .LEHE18-.LEHB18
 1081 006b 9502     		.uleb128 .L43-.LFB1090
 1082 006d 00       		.uleb128 0
 1083 006e 8E02     		.uleb128 .LEHB19-.LFB1090
 1084 0070 05       		.uleb128 .LEHE19-.LEHB19
 1085 0071 00       		.uleb128 0
 1086 0072 00       		.uleb128 0
 1087 0073 A302     		.uleb128 .LEHB20-.LFB1090
 1088 0075 05       		.uleb128 .LEHE20-.LEHB20
 1089 0076 00       		.uleb128 0
 1090 0077 00       		.uleb128 0
 1091              	.LLSDACSE1090:
 1092 0078 01       		.byte	0x1
 1093 0079 00       		.byte	0
 1094 007a 00       		.byte	0
 1095 007b 7D       		.byte	0x7d
 1096              		.align 4
 1097 007c 00000000 		.long	0
 1098              	
 1099              	.LLSDATT1090:
 1100              		.text
 1102              		.section	.rodata
 1103 0169 00000000 		.align 8
 1103      000000
 1104              	.LC10:
 1105 0170 43686563 		.string	"CheckEqualsWithStringsWorksOnContentsConstConst"
 1105      6B457175 
 1105      616C7357 
 1105      69746853 
 1105      7472696E 
 1106              		.text
 1107              		.align 2
 1109              	_ZN12_GLOBAL__N_151TestCheckEqualsWithStringsWorksOnContentsConstConstC2Ev:
 1110              	.LFB1092:
  37:TestChecks.cpp **** 
  38:TestChecks.cpp **** TEST(CheckEqualsWithStringsWorksOnContentsConstConst)
 1111              		.loc 5 38 0
 1112              		.cfi_startproc
 1113 043a 55       		pushq	%rbp
 1114              		.cfi_def_cfa_offset 16
 1115              		.cfi_offset 6, -16
 1116 043b 4889E5   		movq	%rsp, %rbp
 1117              		.cfi_def_cfa_register 6
 1118 043e 4883EC10 		subq	$16, %rsp
 1119 0442 48897DF8 		movq	%rdi, -8(%rbp)
 1120              	.LBB9:
 1121              		.loc 5 38 0
 1122 0446 E8000000 		call	_ZN13UnitTestSuite12GetSuiteNameEv
 1122      00
 1123 044b 4889C2   		movq	%rax, %rdx
 1124 044e 488B45F8 		movq	-8(%rbp), %rax
 1125 0452 41B82600 		movl	$38, %r8d
 1125      0000
 1126 0458 B9000000 		movl	$.LC2, %ecx
 1126      00
 1127 045d BE000000 		movl	$.LC10, %esi
 1127      00
 1128 0462 4889C7   		movq	%rax, %rdi
 1129 0465 E8000000 		call	_ZN8UnitTest4TestC2EPKcS2_S2_i
 1129      00
 1130 046a BA000000 		movl	$_ZTVN12_GLOBAL__N_151TestCheckEqualsWithStringsWorksOnContentsConstConstE+16, %edx
 1130      00
 1131 046f 488B45F8 		movq	-8(%rbp), %rax
 1132 0473 488910   		movq	%rdx, (%rax)
 1133              	.LBE9:
 1134 0476 90       		nop
 1135 0477 C9       		leave
 1136              		.cfi_def_cfa 7, 8
 1137 0478 C3       		ret
 1138              		.cfi_endproc
 1139              	.LFE1092:
 1141              		.set	_ZN12_GLOBAL__N_151TestCheckEqualsWithStringsWorksOnContentsConstConstC1Ev,_ZN12_GLOBAL__N_15
 1142              		.local	_ZN12_GLOBAL__N_159testCheckEqualsWithStringsWorksOnContentsConstConstInstanceE
 1143              		.comm	_ZN12_GLOBAL__N_159testCheckEqualsWithStringsWorksOnContentsConstConstInstanceE,56,32
 1144              		.local	_ZN12_GLOBAL__N_152adderCheckEqualsWithStringsWorksOnContentsConstConstE
 1145              		.comm	_ZN12_GLOBAL__N_152adderCheckEqualsWithStringsWorksOnContentsConstConstE,1,1
 1146 0479 90       		.align 2
 1148              	_ZNK12_GLOBAL__N_151TestCheckEqualsWithStringsWorksOnContentsConstConst7RunImplEv:
 1149              	.LFB1094:
  39:TestChecks.cpp **** {
 1150              		.loc 5 39 0
 1151              		.cfi_startproc
 1152              		.cfi_personality 0x3,__gxx_personality_v0
 1153              		.cfi_lsda 0x3,.LLSDA1094
 1154 047a 55       		pushq	%rbp
 1155              		.cfi_def_cfa_offset 16
 1156              		.cfi_offset 6, -16
 1157 047b 4889E5   		movq	%rsp, %rbp
 1158              		.cfi_def_cfa_register 6
 1159 047e 53       		pushq	%rbx
 1160 047f 4881EC88 		subq	$136, %rsp
 1160      000000
 1161              		.cfi_offset 3, -24
 1162 0486 4889BD78 		movq	%rdi, -136(%rbp)
 1162      FFFFFF
 1163              		.loc 5 39 0
 1164 048d 64488B04 		movq	%fs:40, %rax
 1164      25280000 
 1164      00
 1165 0496 488945E8 		movq	%rax, -24(%rbp)
 1166 049a 31C0     		xorl	%eax, %eax
  40:TestChecks.cpp ****     char* const p1 = txt1;
 1167              		.loc 5 40 0
 1168 049c 48C74590 		movq	$_ZN12_GLOBAL__N_14txt1E, -112(%rbp)
 1168      00000000 
  41:TestChecks.cpp ****     char* const p2 = txt2;
 1169              		.loc 5 41 0
 1170 04a4 48C74598 		movq	$_ZN12_GLOBAL__N_14txt2E, -104(%rbp)
 1170      00000000 
  42:TestChecks.cpp ****     TestResults results;
 1171              		.loc 5 42 0
 1172 04ac 488D45A0 		leaq	-96(%rbp), %rax
 1173 04b0 BE000000 		movl	$0, %esi
 1173      00
 1174 04b5 4889C7   		movq	%rax, %rdi
 1175              	.LEHB21:
 1176 04b8 E8000000 		call	_ZN8UnitTest11TestResultsC1EPNS_12TestReporterE
 1176      00
  43:TestChecks.cpp ****     CheckEqual(results, p1, p2, TestDetails("", "", "", 0));
 1177              		.loc 5 43 0
 1178 04bd 488D45C0 		leaq	-64(%rbp), %rax
 1179 04c1 41B80000 		movl	$0, %r8d
 1179      0000
 1180 04c7 B9000000 		movl	$.LC6, %ecx
 1180      00
 1181 04cc BA000000 		movl	$.LC6, %edx
 1181      00
 1182 04d1 BE000000 		movl	$.LC6, %esi
 1182      00
 1183 04d6 4889C7   		movq	%rax, %rdi
 1184 04d9 E8000000 		call	_ZN8UnitTest11TestDetailsC1EPKcS2_S2_i
 1184      00
 1185 04de 488D4DC0 		leaq	-64(%rbp), %rcx
 1186 04e2 488B5598 		movq	-104(%rbp), %rdx
 1187 04e6 488B7590 		movq	-112(%rbp), %rsi
 1188 04ea 488D45A0 		leaq	-96(%rbp), %rax
 1189 04ee 4889C7   		movq	%rax, %rdi
 1190 04f1 E8000000 		call	_ZN8UnitTest10CheckEqualERNS_11TestResultsEPcS2_RKNS_11TestDetailsE
 1190      00
 1191              	.LEHE21:
 1192              	.LEHB22:
  44:TestChecks.cpp ****     CHECK_EQUAL(0, results.GetFailureCount());
 1193              		.loc 5 44 0
 1194 04f6 E8000000 		call	_ZN8UnitTest11CurrentTest7DetailsEv
 1194      00
 1195 04fb 488B08   		movq	(%rax), %rcx
 1196 04fe 488D45C0 		leaq	-64(%rbp), %rax
 1197 0502 BA2C0000 		movl	$44, %edx
 1197      00
 1198 0507 4889CE   		movq	%rcx, %rsi
 1199 050a 4889C7   		movq	%rax, %rdi
 1200 050d E8000000 		call	_ZN8UnitTest11TestDetailsC1ERKS0_i
 1200      00
 1201              		.loc 5 44 0 is_stmt 0 discriminator 2
 1202 0512 488D45A0 		leaq	-96(%rbp), %rax
 1203 0516 4889C7   		movq	%rax, %rdi
 1204 0519 E8000000 		call	_ZNK8UnitTest11TestResults15GetFailureCountEv
 1204      00
 1205              	.LEHE22:
 1206 051e 89458C   		movl	%eax, -116(%rbp)
 1207 0521 C7458800 		movl	$0, -120(%rbp)
 1207      000000
 1208              	.LEHB23:
 1209 0528 E8000000 		call	_ZN8UnitTest11CurrentTest7ResultsEv
 1209      00
 1210              		.loc 5 44 0 discriminator 4
 1211 052d 488B00   		movq	(%rax), %rax
 1212 0530 488D4DC0 		leaq	-64(%rbp), %rcx
 1213 0534 488D558C 		leaq	-116(%rbp), %rdx
 1214 0538 488D7588 		leaq	-120(%rbp), %rsi
 1215 053c 4889C7   		movq	%rax, %rdi
 1216 053f E8000000 		call	_ZN8UnitTest10CheckEqualIiiEEvRNS_11TestResultsERKT_RKT0_RKNS_11TestDetailsE
 1216      00
 1217              	.LEHE23:
  45:TestChecks.cpp **** }
 1218              		.loc 5 45 0 is_stmt 1
 1219 0544 EB5C     		jmp	.L45
 1220              	.L52:
 1221 0546 EB00     		jmp	.L47
 1222              	.L51:
 1223              	.L47:
  44:TestChecks.cpp ****     CHECK_EQUAL(0, results.GetFailureCount());
 1224              		.loc 5 44 0
 1225 0548 4889C7   		movq	%rax, %rdi
 1226 054b E8000000 		call	__cxa_begin_catch
 1226      00
 1227              	.LEHB24:
 1228 0550 E8000000 		call	_ZN8UnitTest11CurrentTest7DetailsEv
 1228      00
 1229 0555 488B08   		movq	(%rax), %rcx
 1230 0558 488D45C0 		leaq	-64(%rbp), %rax
 1231 055c BA2C0000 		movl	$44, %edx
 1231      00
 1232 0561 4889CE   		movq	%rcx, %rsi
 1233 0564 4889C7   		movq	%rax, %rdi
 1234 0567 E8000000 		call	_ZN8UnitTest11TestDetailsC1ERKS0_i
 1234      00
  44:TestChecks.cpp ****     CHECK_EQUAL(0, results.GetFailureCount());
 1235              		.loc 5 44 0 is_stmt 0 discriminator 12
 1236 056c E8000000 		call	_ZN8UnitTest11CurrentTest7ResultsEv
 1236      00
 1237 0571 488B00   		movq	(%rax), %rax
 1238 0574 488D4DC0 		leaq	-64(%rbp), %rcx
 1239 0578 BA000000 		movl	$.LC9, %edx
 1239      00
 1240 057d 4889CE   		movq	%rcx, %rsi
 1241 0580 4889C7   		movq	%rax, %rdi
 1242 0583 E8000000 		call	_ZN8UnitTest11TestResults13OnTestFailureERKNS_11TestDetailsEPKc
 1242      00
 1243              	.LEHE24:
 1244              	.LEHB25:
  44:TestChecks.cpp ****     CHECK_EQUAL(0, results.GetFailureCount());
 1245              		.loc 5 44 0 discriminator 16
 1246 0588 E8000000 		call	__cxa_end_catch
 1246      00
 1247              	.LEHE25:
 1248              		.loc 5 45 0 is_stmt 1 discriminator 16
 1249 058d EB13     		jmp	.L45
 1250              	.L53:
 1251 058f 4889C3   		movq	%rax, %rbx
  44:TestChecks.cpp ****     CHECK_EQUAL(0, results.GetFailureCount());
 1252              		.loc 5 44 0
 1253 0592 E8000000 		call	__cxa_end_catch
 1253      00
 1254 0597 4889D8   		movq	%rbx, %rax
 1255 059a 4889C7   		movq	%rax, %rdi
 1256              	.LEHB26:
 1257 059d E8000000 		call	_Unwind_Resume
 1257      00
 1258              	.LEHE26:
 1259              	.L45:
 1260              		.loc 5 45 0
 1261 05a2 488B45E8 		movq	-24(%rbp), %rax
 1262 05a6 64483304 		xorq	%fs:40, %rax
 1262      25280000 
 1262      00
 1263 05af 7405     		je	.L50
 1264 05b1 E8000000 		call	__stack_chk_fail
 1264      00
 1265              	.L50:
 1266 05b6 4881C488 		addq	$136, %rsp
 1266      000000
 1267 05bd 5B       		popq	%rbx
 1268 05be 5D       		popq	%rbp
 1269              		.cfi_def_cfa 7, 8
 1270 05bf C3       		ret
 1271              		.cfi_endproc
 1272              	.LFE1094:
 1273              		.section	.gcc_except_table
 1274              		.align 4
 1275              	.LLSDA1094:
 1276 0080 FF       		.byte	0xff
 1277 0081 03       		.byte	0x3
 1278 0082 29       		.uleb128 .LLSDATT1094-.LLSDATTD1094
 1279              	.LLSDATTD1094:
 1280 0083 01       		.byte	0x1
 1281 0084 1F       		.uleb128 .LLSDACSE1094-.LLSDACSB1094
 1282              	.LLSDACSB1094:
 1283 0085 3E       		.uleb128 .LEHB21-.LFB1094
 1284 0086 3E       		.uleb128 .LEHE21-.LEHB21
 1285 0087 00       		.uleb128 0
 1286 0088 00       		.uleb128 0
 1287 0089 7C       		.uleb128 .LEHB22-.LFB1094
 1288 008a 28       		.uleb128 .LEHE22-.LEHB22
 1289 008b CE01     		.uleb128 .L51-.LFB1094
 1290 008d 01       		.uleb128 0x1
 1291 008e AE01     		.uleb128 .LEHB23-.LFB1094
 1292 0090 1C       		.uleb128 .LEHE23-.LEHB23
 1293 0091 CC01     		.uleb128 .L52-.LFB1094
 1294 0093 03       		.uleb128 0x3
 1295 0094 D601     		.uleb128 .LEHB24-.LFB1094
 1296 0096 38       		.uleb128 .LEHE24-.LEHB24
 1297 0097 9502     		.uleb128 .L53-.LFB1094
 1298 0099 00       		.uleb128 0
 1299 009a 8E02     		.uleb128 .LEHB25-.LFB1094
 1300 009c 05       		.uleb128 .LEHE25-.LEHB25
 1301 009d 00       		.uleb128 0
 1302 009e 00       		.uleb128 0
 1303 009f A302     		.uleb128 .LEHB26-.LFB1094
 1304 00a1 05       		.uleb128 .LEHE26-.LEHB26
 1305 00a2 00       		.uleb128 0
 1306 00a3 00       		.uleb128 0
 1307              	.LLSDACSE1094:
 1308 00a4 01       		.byte	0x1
 1309 00a5 00       		.byte	0
 1310 00a6 00       		.byte	0
 1311 00a7 7D       		.byte	0x7d
 1312              		.align 4
 1313 00a8 00000000 		.long	0
 1314              	
 1315              	.LLSDATT1094:
 1316              		.text
 1318              		.section	.rodata
 1319              		.align 8
 1320              	.LC11:
 1321 01a0 43686563 		.string	"CheckEqualsWithStringsWorksOnContentsNonConstConst"
 1321      6B457175 
 1321      616C7357 
 1321      69746853 
 1321      7472696E 
 1322              		.text
 1323              		.align 2
 1325              	_ZN12_GLOBAL__N_154TestCheckEqualsWithStringsWorksOnContentsNonConstConstC2Ev:
 1326              	.LFB1096:
  46:TestChecks.cpp **** 
  47:TestChecks.cpp **** TEST(CheckEqualsWithStringsWorksOnContentsNonConstConst)
 1327              		.loc 5 47 0
 1328              		.cfi_startproc
 1329 05c0 55       		pushq	%rbp
 1330              		.cfi_def_cfa_offset 16
 1331              		.cfi_offset 6, -16
 1332 05c1 4889E5   		movq	%rsp, %rbp
 1333              		.cfi_def_cfa_register 6
 1334 05c4 4883EC10 		subq	$16, %rsp
 1335 05c8 48897DF8 		movq	%rdi, -8(%rbp)
 1336              	.LBB10:
 1337              		.loc 5 47 0
 1338 05cc E8000000 		call	_ZN13UnitTestSuite12GetSuiteNameEv
 1338      00
 1339 05d1 4889C2   		movq	%rax, %rdx
 1340 05d4 488B45F8 		movq	-8(%rbp), %rax
 1341 05d8 41B82F00 		movl	$47, %r8d
 1341      0000
 1342 05de B9000000 		movl	$.LC2, %ecx
 1342      00
 1343 05e3 BE000000 		movl	$.LC11, %esi
 1343      00
 1344 05e8 4889C7   		movq	%rax, %rdi
 1345 05eb E8000000 		call	_ZN8UnitTest4TestC2EPKcS2_S2_i
 1345      00
 1346 05f0 BA000000 		movl	$_ZTVN12_GLOBAL__N_154TestCheckEqualsWithStringsWorksOnContentsNonConstConstE+16, %edx
 1346      00
 1347 05f5 488B45F8 		movq	-8(%rbp), %rax
 1348 05f9 488910   		movq	%rdx, (%rax)
 1349              	.LBE10:
 1350 05fc 90       		nop
 1351 05fd C9       		leave
 1352              		.cfi_def_cfa 7, 8
 1353 05fe C3       		ret
 1354              		.cfi_endproc
 1355              	.LFE1096:
 1357              		.set	_ZN12_GLOBAL__N_154TestCheckEqualsWithStringsWorksOnContentsNonConstConstC1Ev,_ZN12_GLOBAL__N
 1358              		.local	_ZN12_GLOBAL__N_162testCheckEqualsWithStringsWorksOnContentsNonConstConstInstanceE
 1359              		.comm	_ZN12_GLOBAL__N_162testCheckEqualsWithStringsWorksOnContentsNonConstConstInstanceE,56,32
 1360              		.local	_ZN12_GLOBAL__N_155adderCheckEqualsWithStringsWorksOnContentsNonConstConstE
 1361              		.comm	_ZN12_GLOBAL__N_155adderCheckEqualsWithStringsWorksOnContentsNonConstConstE,1,1
 1362 05ff 90       		.align 2
 1364              	_ZNK12_GLOBAL__N_154TestCheckEqualsWithStringsWorksOnContentsNonConstConst7RunImplEv:
 1365              	.LFB1098:
  48:TestChecks.cpp **** {
 1366              		.loc 5 48 0
 1367              		.cfi_startproc
 1368              		.cfi_personality 0x3,__gxx_personality_v0
 1369              		.cfi_lsda 0x3,.LLSDA1098
 1370 0600 55       		pushq	%rbp
 1371              		.cfi_def_cfa_offset 16
 1372              		.cfi_offset 6, -16
 1373 0601 4889E5   		movq	%rsp, %rbp
 1374              		.cfi_def_cfa_register 6
 1375 0604 53       		pushq	%rbx
 1376 0605 4881EC88 		subq	$136, %rsp
 1376      000000
 1377              		.cfi_offset 3, -24
 1378 060c 4889BD78 		movq	%rdi, -136(%rbp)
 1378      FFFFFF
 1379              		.loc 5 48 0
 1380 0613 64488B04 		movq	%fs:40, %rax
 1380      25280000 
 1380      00
 1381 061c 488945E8 		movq	%rax, -24(%rbp)
 1382 0620 31C0     		xorl	%eax, %eax
  49:TestChecks.cpp ****     char* const p1 = txt1;
 1383              		.loc 5 49 0
 1384 0622 48C74590 		movq	$_ZN12_GLOBAL__N_14txt1E, -112(%rbp)
 1384      00000000 
  50:TestChecks.cpp ****     char const* const p2 = txt2;
 1385              		.loc 5 50 0
 1386 062a 48C74598 		movq	$_ZN12_GLOBAL__N_14txt2E, -104(%rbp)
 1386      00000000 
  51:TestChecks.cpp ****     TestResults results;
 1387              		.loc 5 51 0
 1388 0632 488D45A0 		leaq	-96(%rbp), %rax
 1389 0636 BE000000 		movl	$0, %esi
 1389      00
 1390 063b 4889C7   		movq	%rax, %rdi
 1391              	.LEHB27:
 1392 063e E8000000 		call	_ZN8UnitTest11TestResultsC1EPNS_12TestReporterE
 1392      00
  52:TestChecks.cpp ****     CheckEqual(results, p1, p2, TestDetails("", "", "", 0));
 1393              		.loc 5 52 0
 1394 0643 488D45C0 		leaq	-64(%rbp), %rax
 1395 0647 41B80000 		movl	$0, %r8d
 1395      0000
 1396 064d B9000000 		movl	$.LC6, %ecx
 1396      00
 1397 0652 BA000000 		movl	$.LC6, %edx
 1397      00
 1398 0657 BE000000 		movl	$.LC6, %esi
 1398      00
 1399 065c 4889C7   		movq	%rax, %rdi
 1400 065f E8000000 		call	_ZN8UnitTest11TestDetailsC1EPKcS2_S2_i
 1400      00
 1401 0664 488D4DC0 		leaq	-64(%rbp), %rcx
 1402 0668 488B5598 		movq	-104(%rbp), %rdx
 1403 066c 488B7590 		movq	-112(%rbp), %rsi
 1404 0670 488D45A0 		leaq	-96(%rbp), %rax
 1405 0674 4889C7   		movq	%rax, %rdi
 1406 0677 E8000000 		call	_ZN8UnitTest10CheckEqualERNS_11TestResultsEPcPKcRKNS_11TestDetailsE
 1406      00
 1407              	.LEHE27:
 1408              	.LEHB28:
  53:TestChecks.cpp ****     CHECK_EQUAL(0, results.GetFailureCount());
 1409              		.loc 5 53 0
 1410 067c E8000000 		call	_ZN8UnitTest11CurrentTest7DetailsEv
 1410      00
 1411 0681 488B08   		movq	(%rax), %rcx
 1412 0684 488D45C0 		leaq	-64(%rbp), %rax
 1413 0688 BA350000 		movl	$53, %edx
 1413      00
 1414 068d 4889CE   		movq	%rcx, %rsi
 1415 0690 4889C7   		movq	%rax, %rdi
 1416 0693 E8000000 		call	_ZN8UnitTest11TestDetailsC1ERKS0_i
 1416      00
 1417              		.loc 5 53 0 is_stmt 0 discriminator 2
 1418 0698 488D45A0 		leaq	-96(%rbp), %rax
 1419 069c 4889C7   		movq	%rax, %rdi
 1420 069f E8000000 		call	_ZNK8UnitTest11TestResults15GetFailureCountEv
 1420      00
 1421              	.LEHE28:
 1422 06a4 89458C   		movl	%eax, -116(%rbp)
 1423 06a7 C7458800 		movl	$0, -120(%rbp)
 1423      000000
 1424              	.LEHB29:
 1425 06ae E8000000 		call	_ZN8UnitTest11CurrentTest7ResultsEv
 1425      00
 1426              		.loc 5 53 0 discriminator 4
 1427 06b3 488B00   		movq	(%rax), %rax
 1428 06b6 488D4DC0 		leaq	-64(%rbp), %rcx
 1429 06ba 488D558C 		leaq	-116(%rbp), %rdx
 1430 06be 488D7588 		leaq	-120(%rbp), %rsi
 1431 06c2 4889C7   		movq	%rax, %rdi
 1432 06c5 E8000000 		call	_ZN8UnitTest10CheckEqualIiiEEvRNS_11TestResultsERKT_RKT0_RKNS_11TestDetailsE
 1432      00
 1433              	.LEHE29:
  54:TestChecks.cpp **** }
 1434              		.loc 5 54 0 is_stmt 1
 1435 06ca EB5C     		jmp	.L55
 1436              	.L62:
 1437 06cc EB00     		jmp	.L57
 1438              	.L61:
 1439              	.L57:
  53:TestChecks.cpp ****     CHECK_EQUAL(0, results.GetFailureCount());
 1440              		.loc 5 53 0
 1441 06ce 4889C7   		movq	%rax, %rdi
 1442 06d1 E8000000 		call	__cxa_begin_catch
 1442      00
 1443              	.LEHB30:
 1444 06d6 E8000000 		call	_ZN8UnitTest11CurrentTest7DetailsEv
 1444      00
 1445 06db 488B08   		movq	(%rax), %rcx
 1446 06de 488D45C0 		leaq	-64(%rbp), %rax
 1447 06e2 BA350000 		movl	$53, %edx
 1447      00
 1448 06e7 4889CE   		movq	%rcx, %rsi
 1449 06ea 4889C7   		movq	%rax, %rdi
 1450 06ed E8000000 		call	_ZN8UnitTest11TestDetailsC1ERKS0_i
 1450      00
  53:TestChecks.cpp ****     CHECK_EQUAL(0, results.GetFailureCount());
 1451              		.loc 5 53 0 is_stmt 0 discriminator 12
 1452 06f2 E8000000 		call	_ZN8UnitTest11CurrentTest7ResultsEv
 1452      00
 1453 06f7 488B00   		movq	(%rax), %rax
 1454 06fa 488D4DC0 		leaq	-64(%rbp), %rcx
 1455 06fe BA000000 		movl	$.LC9, %edx
 1455      00
 1456 0703 4889CE   		movq	%rcx, %rsi
 1457 0706 4889C7   		movq	%rax, %rdi
 1458 0709 E8000000 		call	_ZN8UnitTest11TestResults13OnTestFailureERKNS_11TestDetailsEPKc
 1458      00
 1459              	.LEHE30:
 1460              	.LEHB31:
  53:TestChecks.cpp ****     CHECK_EQUAL(0, results.GetFailureCount());
 1461              		.loc 5 53 0 discriminator 16
 1462 070e E8000000 		call	__cxa_end_catch
 1462      00
 1463              	.LEHE31:
 1464              		.loc 5 54 0 is_stmt 1 discriminator 16
 1465 0713 EB13     		jmp	.L55
 1466              	.L63:
 1467 0715 4889C3   		movq	%rax, %rbx
  53:TestChecks.cpp ****     CHECK_EQUAL(0, results.GetFailureCount());
 1468              		.loc 5 53 0
 1469 0718 E8000000 		call	__cxa_end_catch
 1469      00
 1470 071d 4889D8   		movq	%rbx, %rax
 1471 0720 4889C7   		movq	%rax, %rdi
 1472              	.LEHB32:
 1473 0723 E8000000 		call	_Unwind_Resume
 1473      00
 1474              	.LEHE32:
 1475              	.L55:
 1476              		.loc 5 54 0
 1477 0728 488B45E8 		movq	-24(%rbp), %rax
 1478 072c 64483304 		xorq	%fs:40, %rax
 1478      25280000 
 1478      00
 1479 0735 7405     		je	.L60
 1480 0737 E8000000 		call	__stack_chk_fail
 1480      00
 1481              	.L60:
 1482 073c 4881C488 		addq	$136, %rsp
 1482      000000
 1483 0743 5B       		popq	%rbx
 1484 0744 5D       		popq	%rbp
 1485              		.cfi_def_cfa 7, 8
 1486 0745 C3       		ret
 1487              		.cfi_endproc
 1488              	.LFE1098:
 1489              		.section	.gcc_except_table
 1490              		.align 4
 1491              	.LLSDA1098:
 1492 00ac FF       		.byte	0xff
 1493 00ad 03       		.byte	0x3
 1494 00ae 29       		.uleb128 .LLSDATT1098-.LLSDATTD1098
 1495              	.LLSDATTD1098:
 1496 00af 01       		.byte	0x1
 1497 00b0 1F       		.uleb128 .LLSDACSE1098-.LLSDACSB1098
 1498              	.LLSDACSB1098:
 1499 00b1 3E       		.uleb128 .LEHB27-.LFB1098
 1500 00b2 3E       		.uleb128 .LEHE27-.LEHB27
 1501 00b3 00       		.uleb128 0
 1502 00b4 00       		.uleb128 0
 1503 00b5 7C       		.uleb128 .LEHB28-.LFB1098
 1504 00b6 28       		.uleb128 .LEHE28-.LEHB28
 1505 00b7 CE01     		.uleb128 .L61-.LFB1098
 1506 00b9 01       		.uleb128 0x1
 1507 00ba AE01     		.uleb128 .LEHB29-.LFB1098
 1508 00bc 1C       		.uleb128 .LEHE29-.LEHB29
 1509 00bd CC01     		.uleb128 .L62-.LFB1098
 1510 00bf 03       		.uleb128 0x3
 1511 00c0 D601     		.uleb128 .LEHB30-.LFB1098
 1512 00c2 38       		.uleb128 .LEHE30-.LEHB30
 1513 00c3 9502     		.uleb128 .L63-.LFB1098
 1514 00c5 00       		.uleb128 0
 1515 00c6 8E02     		.uleb128 .LEHB31-.LFB1098
 1516 00c8 05       		.uleb128 .LEHE31-.LEHB31
 1517 00c9 00       		.uleb128 0
 1518 00ca 00       		.uleb128 0
 1519 00cb A302     		.uleb128 .LEHB32-.LFB1098
 1520 00cd 05       		.uleb128 .LEHE32-.LEHB32
 1521 00ce 00       		.uleb128 0
 1522 00cf 00       		.uleb128 0
 1523              	.LLSDACSE1098:
 1524 00d0 01       		.byte	0x1
 1525 00d1 00       		.byte	0
 1526 00d2 00       		.byte	0
 1527 00d3 7D       		.byte	0x7d
 1528              		.align 4
 1529 00d4 00000000 		.long	0
 1530              	
 1531              	.LLSDATT1098:
 1532              		.text
 1534              		.section	.rodata
 1535 01d3 00000000 		.align 8
 1535      00
 1536              	.LC12:
 1537 01d8 43686563 		.string	"CheckEqualsWithStringsWorksOnContentsConstNonConst"
 1537      6B457175 
 1537      616C7357 
 1537      69746853 
 1537      7472696E 
 1538              		.text
 1539              		.align 2
 1541              	_ZN12_GLOBAL__N_154TestCheckEqualsWithStringsWorksOnContentsConstNonConstC2Ev:
 1542              	.LFB1100:
  55:TestChecks.cpp **** 
  56:TestChecks.cpp **** TEST(CheckEqualsWithStringsWorksOnContentsConstNonConst)
 1543              		.loc 5 56 0
 1544              		.cfi_startproc
 1545 0746 55       		pushq	%rbp
 1546              		.cfi_def_cfa_offset 16
 1547              		.cfi_offset 6, -16
 1548 0747 4889E5   		movq	%rsp, %rbp
 1549              		.cfi_def_cfa_register 6
 1550 074a 4883EC10 		subq	$16, %rsp
 1551 074e 48897DF8 		movq	%rdi, -8(%rbp)
 1552              	.LBB11:
 1553              		.loc 5 56 0
 1554 0752 E8000000 		call	_ZN13UnitTestSuite12GetSuiteNameEv
 1554      00
 1555 0757 4889C2   		movq	%rax, %rdx
 1556 075a 488B45F8 		movq	-8(%rbp), %rax
 1557 075e 41B83800 		movl	$56, %r8d
 1557      0000
 1558 0764 B9000000 		movl	$.LC2, %ecx
 1558      00
 1559 0769 BE000000 		movl	$.LC12, %esi
 1559      00
 1560 076e 4889C7   		movq	%rax, %rdi
 1561 0771 E8000000 		call	_ZN8UnitTest4TestC2EPKcS2_S2_i
 1561      00
 1562 0776 BA000000 		movl	$_ZTVN12_GLOBAL__N_154TestCheckEqualsWithStringsWorksOnContentsConstNonConstE+16, %edx
 1562      00
 1563 077b 488B45F8 		movq	-8(%rbp), %rax
 1564 077f 488910   		movq	%rdx, (%rax)
 1565              	.LBE11:
 1566 0782 90       		nop
 1567 0783 C9       		leave
 1568              		.cfi_def_cfa 7, 8
 1569 0784 C3       		ret
 1570              		.cfi_endproc
 1571              	.LFE1100:
 1573              		.set	_ZN12_GLOBAL__N_154TestCheckEqualsWithStringsWorksOnContentsConstNonConstC1Ev,_ZN12_GLOBAL__N
 1574              		.local	_ZN12_GLOBAL__N_162testCheckEqualsWithStringsWorksOnContentsConstNonConstInstanceE
 1575              		.comm	_ZN12_GLOBAL__N_162testCheckEqualsWithStringsWorksOnContentsConstNonConstInstanceE,56,32
 1576              		.local	_ZN12_GLOBAL__N_155adderCheckEqualsWithStringsWorksOnContentsConstNonConstE
 1577              		.comm	_ZN12_GLOBAL__N_155adderCheckEqualsWithStringsWorksOnContentsConstNonConstE,1,1
 1578 0785 90       		.align 2
 1580              	_ZNK12_GLOBAL__N_154TestCheckEqualsWithStringsWorksOnContentsConstNonConst7RunImplEv:
 1581              	.LFB1102:
  57:TestChecks.cpp **** {
 1582              		.loc 5 57 0
 1583              		.cfi_startproc
 1584              		.cfi_personality 0x3,__gxx_personality_v0
 1585              		.cfi_lsda 0x3,.LLSDA1102
 1586 0786 55       		pushq	%rbp
 1587              		.cfi_def_cfa_offset 16
 1588              		.cfi_offset 6, -16
 1589 0787 4889E5   		movq	%rsp, %rbp
 1590              		.cfi_def_cfa_register 6
 1591 078a 53       		pushq	%rbx
 1592 078b 4881EC88 		subq	$136, %rsp
 1592      000000
 1593              		.cfi_offset 3, -24
 1594 0792 4889BD78 		movq	%rdi, -136(%rbp)
 1594      FFFFFF
 1595              		.loc 5 57 0
 1596 0799 64488B04 		movq	%fs:40, %rax
 1596      25280000 
 1596      00
 1597 07a2 488945E8 		movq	%rax, -24(%rbp)
 1598 07a6 31C0     		xorl	%eax, %eax
  58:TestChecks.cpp ****     char const* const p1 = txt1;
 1599              		.loc 5 58 0
 1600 07a8 48C74590 		movq	$_ZN12_GLOBAL__N_14txt1E, -112(%rbp)
 1600      00000000 
  59:TestChecks.cpp ****     char* const p2 = txt2;
 1601              		.loc 5 59 0
 1602 07b0 48C74598 		movq	$_ZN12_GLOBAL__N_14txt2E, -104(%rbp)
 1602      00000000 
  60:TestChecks.cpp ****     TestResults results;
 1603              		.loc 5 60 0
 1604 07b8 488D45A0 		leaq	-96(%rbp), %rax
 1605 07bc BE000000 		movl	$0, %esi
 1605      00
 1606 07c1 4889C7   		movq	%rax, %rdi
 1607              	.LEHB33:
 1608 07c4 E8000000 		call	_ZN8UnitTest11TestResultsC1EPNS_12TestReporterE
 1608      00
  61:TestChecks.cpp ****     CheckEqual(results, p1, p2, TestDetails("", "", "", 0));
 1609              		.loc 5 61 0
 1610 07c9 488D45C0 		leaq	-64(%rbp), %rax
 1611 07cd 41B80000 		movl	$0, %r8d
 1611      0000
 1612 07d3 B9000000 		movl	$.LC6, %ecx
 1612      00
 1613 07d8 BA000000 		movl	$.LC6, %edx
 1613      00
 1614 07dd BE000000 		movl	$.LC6, %esi
 1614      00
 1615 07e2 4889C7   		movq	%rax, %rdi
 1616 07e5 E8000000 		call	_ZN8UnitTest11TestDetailsC1EPKcS2_S2_i
 1616      00
 1617 07ea 488D4DC0 		leaq	-64(%rbp), %rcx
 1618 07ee 488B5598 		movq	-104(%rbp), %rdx
 1619 07f2 488B7590 		movq	-112(%rbp), %rsi
 1620 07f6 488D45A0 		leaq	-96(%rbp), %rax
 1621 07fa 4889C7   		movq	%rax, %rdi
 1622 07fd E8000000 		call	_ZN8UnitTest10CheckEqualERNS_11TestResultsEPKcPcRKNS_11TestDetailsE
 1622      00
 1623              	.LEHE33:
 1624              	.LEHB34:
  62:TestChecks.cpp ****     CHECK_EQUAL(0, results.GetFailureCount());
 1625              		.loc 5 62 0
 1626 0802 E8000000 		call	_ZN8UnitTest11CurrentTest7DetailsEv
 1626      00
 1627 0807 488B08   		movq	(%rax), %rcx
 1628 080a 488D45C0 		leaq	-64(%rbp), %rax
 1629 080e BA3E0000 		movl	$62, %edx
 1629      00
 1630 0813 4889CE   		movq	%rcx, %rsi
 1631 0816 4889C7   		movq	%rax, %rdi
 1632 0819 E8000000 		call	_ZN8UnitTest11TestDetailsC1ERKS0_i
 1632      00
 1633              		.loc 5 62 0 is_stmt 0 discriminator 2
 1634 081e 488D45A0 		leaq	-96(%rbp), %rax
 1635 0822 4889C7   		movq	%rax, %rdi
 1636 0825 E8000000 		call	_ZNK8UnitTest11TestResults15GetFailureCountEv
 1636      00
 1637              	.LEHE34:
 1638 082a 89458C   		movl	%eax, -116(%rbp)
 1639 082d C7458800 		movl	$0, -120(%rbp)
 1639      000000
 1640              	.LEHB35:
 1641 0834 E8000000 		call	_ZN8UnitTest11CurrentTest7ResultsEv
 1641      00
 1642              		.loc 5 62 0 discriminator 4
 1643 0839 488B00   		movq	(%rax), %rax
 1644 083c 488D4DC0 		leaq	-64(%rbp), %rcx
 1645 0840 488D558C 		leaq	-116(%rbp), %rdx
 1646 0844 488D7588 		leaq	-120(%rbp), %rsi
 1647 0848 4889C7   		movq	%rax, %rdi
 1648 084b E8000000 		call	_ZN8UnitTest10CheckEqualIiiEEvRNS_11TestResultsERKT_RKT0_RKNS_11TestDetailsE
 1648      00
 1649              	.LEHE35:
  63:TestChecks.cpp **** }
 1650              		.loc 5 63 0 is_stmt 1
 1651 0850 EB5C     		jmp	.L65
 1652              	.L72:
 1653 0852 EB00     		jmp	.L67
 1654              	.L71:
 1655              	.L67:
  62:TestChecks.cpp ****     CHECK_EQUAL(0, results.GetFailureCount());
 1656              		.loc 5 62 0
 1657 0854 4889C7   		movq	%rax, %rdi
 1658 0857 E8000000 		call	__cxa_begin_catch
 1658      00
 1659              	.LEHB36:
 1660 085c E8000000 		call	_ZN8UnitTest11CurrentTest7DetailsEv
 1660      00
 1661 0861 488B08   		movq	(%rax), %rcx
 1662 0864 488D45C0 		leaq	-64(%rbp), %rax
 1663 0868 BA3E0000 		movl	$62, %edx
 1663      00
 1664 086d 4889CE   		movq	%rcx, %rsi
 1665 0870 4889C7   		movq	%rax, %rdi
 1666 0873 E8000000 		call	_ZN8UnitTest11TestDetailsC1ERKS0_i
 1666      00
  62:TestChecks.cpp ****     CHECK_EQUAL(0, results.GetFailureCount());
 1667              		.loc 5 62 0 is_stmt 0 discriminator 12
 1668 0878 E8000000 		call	_ZN8UnitTest11CurrentTest7ResultsEv
 1668      00
 1669 087d 488B00   		movq	(%rax), %rax
 1670 0880 488D4DC0 		leaq	-64(%rbp), %rcx
 1671 0884 BA000000 		movl	$.LC9, %edx
 1671      00
 1672 0889 4889CE   		movq	%rcx, %rsi
 1673 088c 4889C7   		movq	%rax, %rdi
 1674 088f E8000000 		call	_ZN8UnitTest11TestResults13OnTestFailureERKNS_11TestDetailsEPKc
 1674      00
 1675              	.LEHE36:
 1676              	.LEHB37:
  62:TestChecks.cpp ****     CHECK_EQUAL(0, results.GetFailureCount());
 1677              		.loc 5 62 0 discriminator 16
 1678 0894 E8000000 		call	__cxa_end_catch
 1678      00
 1679              	.LEHE37:
 1680              		.loc 5 63 0 is_stmt 1 discriminator 16
 1681 0899 EB13     		jmp	.L65
 1682              	.L73:
 1683 089b 4889C3   		movq	%rax, %rbx
  62:TestChecks.cpp ****     CHECK_EQUAL(0, results.GetFailureCount());
 1684              		.loc 5 62 0
 1685 089e E8000000 		call	__cxa_end_catch
 1685      00
 1686 08a3 4889D8   		movq	%rbx, %rax
 1687 08a6 4889C7   		movq	%rax, %rdi
 1688              	.LEHB38:
 1689 08a9 E8000000 		call	_Unwind_Resume
 1689      00
 1690              	.LEHE38:
 1691              	.L65:
 1692              		.loc 5 63 0
 1693 08ae 488B45E8 		movq	-24(%rbp), %rax
 1694 08b2 64483304 		xorq	%fs:40, %rax
 1694      25280000 
 1694      00
 1695 08bb 7405     		je	.L70
 1696 08bd E8000000 		call	__stack_chk_fail
 1696      00
 1697              	.L70:
 1698 08c2 4881C488 		addq	$136, %rsp
 1698      000000
 1699 08c9 5B       		popq	%rbx
 1700 08ca 5D       		popq	%rbp
 1701              		.cfi_def_cfa 7, 8
 1702 08cb C3       		ret
 1703              		.cfi_endproc
 1704              	.LFE1102:
 1705              		.section	.gcc_except_table
 1706              		.align 4
 1707              	.LLSDA1102:
 1708 00d8 FF       		.byte	0xff
 1709 00d9 03       		.byte	0x3
 1710 00da 29       		.uleb128 .LLSDATT1102-.LLSDATTD1102
 1711              	.LLSDATTD1102:
 1712 00db 01       		.byte	0x1
 1713 00dc 1F       		.uleb128 .LLSDACSE1102-.LLSDACSB1102
 1714              	.LLSDACSB1102:
 1715 00dd 3E       		.uleb128 .LEHB33-.LFB1102
 1716 00de 3E       		.uleb128 .LEHE33-.LEHB33
 1717 00df 00       		.uleb128 0
 1718 00e0 00       		.uleb128 0
 1719 00e1 7C       		.uleb128 .LEHB34-.LFB1102
 1720 00e2 28       		.uleb128 .LEHE34-.LEHB34
 1721 00e3 CE01     		.uleb128 .L71-.LFB1102
 1722 00e5 01       		.uleb128 0x1
 1723 00e6 AE01     		.uleb128 .LEHB35-.LFB1102
 1724 00e8 1C       		.uleb128 .LEHE35-.LEHB35
 1725 00e9 CC01     		.uleb128 .L72-.LFB1102
 1726 00eb 03       		.uleb128 0x3
 1727 00ec D601     		.uleb128 .LEHB36-.LFB1102
 1728 00ee 38       		.uleb128 .LEHE36-.LEHB36
 1729 00ef 9502     		.uleb128 .L73-.LFB1102
 1730 00f1 00       		.uleb128 0
 1731 00f2 8E02     		.uleb128 .LEHB37-.LFB1102
 1732 00f4 05       		.uleb128 .LEHE37-.LEHB37
 1733 00f5 00       		.uleb128 0
 1734 00f6 00       		.uleb128 0
 1735 00f7 A302     		.uleb128 .LEHB38-.LFB1102
 1736 00f9 05       		.uleb128 .LEHE38-.LEHB38
 1737 00fa 00       		.uleb128 0
 1738 00fb 00       		.uleb128 0
 1739              	.LLSDACSE1102:
 1740 00fc 01       		.byte	0x1
 1741 00fd 00       		.byte	0
 1742 00fe 00       		.byte	0
 1743 00ff 7D       		.byte	0x7d
 1744              		.align 4
 1745 0100 00000000 		.long	0
 1746              	
 1747              	.LLSDATT1102:
 1748              		.text
 1750              		.section	.rodata
 1751 020b 00000000 		.align 8
 1751      00
 1752              	.LC13:
 1753 0210 43686563 		.string	"CheckEqualsWithStringsWorksOnContentsWithALiteral"
 1753      6B457175 
 1753      616C7357 
 1753      69746853 
 1753      7472696E 
 1754              		.text
 1755              		.align 2
 1757              	_ZN12_GLOBAL__N_153TestCheckEqualsWithStringsWorksOnContentsWithALiteralC2Ev:
 1758              	.LFB1104:
  64:TestChecks.cpp **** 
  65:TestChecks.cpp **** TEST(CheckEqualsWithStringsWorksOnContentsWithALiteral)
 1759              		.loc 5 65 0
 1760              		.cfi_startproc
 1761 08cc 55       		pushq	%rbp
 1762              		.cfi_def_cfa_offset 16
 1763              		.cfi_offset 6, -16
 1764 08cd 4889E5   		movq	%rsp, %rbp
 1765              		.cfi_def_cfa_register 6
 1766 08d0 4883EC10 		subq	$16, %rsp
 1767 08d4 48897DF8 		movq	%rdi, -8(%rbp)
 1768              	.LBB12:
 1769              		.loc 5 65 0
 1770 08d8 E8000000 		call	_ZN13UnitTestSuite12GetSuiteNameEv
 1770      00
 1771 08dd 4889C2   		movq	%rax, %rdx
 1772 08e0 488B45F8 		movq	-8(%rbp), %rax
 1773 08e4 41B84100 		movl	$65, %r8d
 1773      0000
 1774 08ea B9000000 		movl	$.LC2, %ecx
 1774      00
 1775 08ef BE000000 		movl	$.LC13, %esi
 1775      00
 1776 08f4 4889C7   		movq	%rax, %rdi
 1777 08f7 E8000000 		call	_ZN8UnitTest4TestC2EPKcS2_S2_i
 1777      00
 1778 08fc BA000000 		movl	$_ZTVN12_GLOBAL__N_153TestCheckEqualsWithStringsWorksOnContentsWithALiteralE+16, %edx
 1778      00
 1779 0901 488B45F8 		movq	-8(%rbp), %rax
 1780 0905 488910   		movq	%rdx, (%rax)
 1781              	.LBE12:
 1782 0908 90       		nop
 1783 0909 C9       		leave
 1784              		.cfi_def_cfa 7, 8
 1785 090a C3       		ret
 1786              		.cfi_endproc
 1787              	.LFE1104:
 1789              		.set	_ZN12_GLOBAL__N_153TestCheckEqualsWithStringsWorksOnContentsWithALiteralC1Ev,_ZN12_GLOBAL__N_
 1790              		.local	_ZN12_GLOBAL__N_161testCheckEqualsWithStringsWorksOnContentsWithALiteralInstanceE
 1791              		.comm	_ZN12_GLOBAL__N_161testCheckEqualsWithStringsWorksOnContentsWithALiteralInstanceE,56,32
 1792              		.local	_ZN12_GLOBAL__N_154adderCheckEqualsWithStringsWorksOnContentsWithALiteralE
 1793              		.comm	_ZN12_GLOBAL__N_154adderCheckEqualsWithStringsWorksOnContentsWithALiteralE,1,1
 1794              		.section	.rodata
 1795              	.LC14:
 1796 0242 48656C6C 		.string	"Hello"
 1796      6F00
 1797              		.text
 1798 090b 90       		.align 2
 1800              	_ZNK12_GLOBAL__N_153TestCheckEqualsWithStringsWorksOnContentsWithALiteral7RunImplEv:
 1801              	.LFB1106:
  66:TestChecks.cpp **** {
 1802              		.loc 5 66 0
 1803              		.cfi_startproc
 1804              		.cfi_personality 0x3,__gxx_personality_v0
 1805              		.cfi_lsda 0x3,.LLSDA1106
 1806 090c 55       		pushq	%rbp
 1807              		.cfi_def_cfa_offset 16
 1808              		.cfi_offset 6, -16
 1809 090d 4889E5   		movq	%rsp, %rbp
 1810              		.cfi_def_cfa_register 6
 1811 0910 53       		pushq	%rbx
 1812 0911 4883EC78 		subq	$120, %rsp
 1813              		.cfi_offset 3, -24
 1814 0915 48897D88 		movq	%rdi, -120(%rbp)
 1815              		.loc 5 66 0
 1816 0919 64488B04 		movq	%fs:40, %rax
 1816      25280000 
 1816      00
 1817 0922 488945E8 		movq	%rax, -24(%rbp)
 1818 0926 31C0     		xorl	%eax, %eax
  67:TestChecks.cpp ****     char const* const p1 = txt1;
 1819              		.loc 5 67 0
 1820 0928 48C74598 		movq	$_ZN12_GLOBAL__N_14txt1E, -104(%rbp)
 1820      00000000 
  68:TestChecks.cpp ****     TestResults results;
 1821              		.loc 5 68 0
 1822 0930 488D45A0 		leaq	-96(%rbp), %rax
 1823 0934 BE000000 		movl	$0, %esi
 1823      00
 1824 0939 4889C7   		movq	%rax, %rdi
 1825              	.LEHB39:
 1826 093c E8000000 		call	_ZN8UnitTest11TestResultsC1EPNS_12TestReporterE
 1826      00
  69:TestChecks.cpp ****     CheckEqual(results, "Hello", p1, TestDetails("", "", "", 0));
 1827              		.loc 5 69 0
 1828 0941 488D45C0 		leaq	-64(%rbp), %rax
 1829 0945 41B80000 		movl	$0, %r8d
 1829      0000
 1830 094b B9000000 		movl	$.LC6, %ecx
 1830      00
 1831 0950 BA000000 		movl	$.LC6, %edx
 1831      00
 1832 0955 BE000000 		movl	$.LC6, %esi
 1832      00
 1833 095a 4889C7   		movq	%rax, %rdi
 1834 095d E8000000 		call	_ZN8UnitTest11TestDetailsC1EPKcS2_S2_i
 1834      00
 1835 0962 488D4DC0 		leaq	-64(%rbp), %rcx
 1836 0966 488B5598 		movq	-104(%rbp), %rdx
 1837 096a 488D45A0 		leaq	-96(%rbp), %rax
 1838 096e BE000000 		movl	$.LC14, %esi
 1838      00
 1839 0973 4889C7   		movq	%rax, %rdi
 1840 0976 E8000000 		call	_ZN8UnitTest10CheckEqualERNS_11TestResultsEPKcS3_RKNS_11TestDetailsE
 1840      00
 1841              	.LEHE39:
 1842              	.LEHB40:
  70:TestChecks.cpp ****     CHECK_EQUAL(0, results.GetFailureCount());
 1843              		.loc 5 70 0
 1844 097b E8000000 		call	_ZN8UnitTest11CurrentTest7DetailsEv
 1844      00
 1845 0980 488B08   		movq	(%rax), %rcx
 1846 0983 488D45C0 		leaq	-64(%rbp), %rax
 1847 0987 BA460000 		movl	$70, %edx
 1847      00
 1848 098c 4889CE   		movq	%rcx, %rsi
 1849 098f 4889C7   		movq	%rax, %rdi
 1850 0992 E8000000 		call	_ZN8UnitTest11TestDetailsC1ERKS0_i
 1850      00
 1851              		.loc 5 70 0 is_stmt 0 discriminator 2
 1852 0997 488D45A0 		leaq	-96(%rbp), %rax
 1853 099b 4889C7   		movq	%rax, %rdi
 1854 099e E8000000 		call	_ZNK8UnitTest11TestResults15GetFailureCountEv
 1854      00
 1855              	.LEHE40:
 1856 09a3 894594   		movl	%eax, -108(%rbp)
 1857 09a6 C7459000 		movl	$0, -112(%rbp)
 1857      000000
 1858              	.LEHB41:
 1859 09ad E8000000 		call	_ZN8UnitTest11CurrentTest7ResultsEv
 1859      00
 1860              		.loc 5 70 0 discriminator 4
 1861 09b2 488B00   		movq	(%rax), %rax
 1862 09b5 488D4DC0 		leaq	-64(%rbp), %rcx
 1863 09b9 488D5594 		leaq	-108(%rbp), %rdx
 1864 09bd 488D7590 		leaq	-112(%rbp), %rsi
 1865 09c1 4889C7   		movq	%rax, %rdi
 1866 09c4 E8000000 		call	_ZN8UnitTest10CheckEqualIiiEEvRNS_11TestResultsERKT_RKT0_RKNS_11TestDetailsE
 1866      00
 1867              	.LEHE41:
  71:TestChecks.cpp **** }
 1868              		.loc 5 71 0 is_stmt 1
 1869 09c9 EB5C     		jmp	.L75
 1870              	.L82:
 1871 09cb EB00     		jmp	.L77
 1872              	.L81:
 1873              	.L77:
  70:TestChecks.cpp ****     CHECK_EQUAL(0, results.GetFailureCount());
 1874              		.loc 5 70 0
 1875 09cd 4889C7   		movq	%rax, %rdi
 1876 09d0 E8000000 		call	__cxa_begin_catch
 1876      00
 1877              	.LEHB42:
 1878 09d5 E8000000 		call	_ZN8UnitTest11CurrentTest7DetailsEv
 1878      00
 1879 09da 488B08   		movq	(%rax), %rcx
 1880 09dd 488D45C0 		leaq	-64(%rbp), %rax
 1881 09e1 BA460000 		movl	$70, %edx
 1881      00
 1882 09e6 4889CE   		movq	%rcx, %rsi
 1883 09e9 4889C7   		movq	%rax, %rdi
 1884 09ec E8000000 		call	_ZN8UnitTest11TestDetailsC1ERKS0_i
 1884      00
  70:TestChecks.cpp ****     CHECK_EQUAL(0, results.GetFailureCount());
 1885              		.loc 5 70 0 is_stmt 0 discriminator 12
 1886 09f1 E8000000 		call	_ZN8UnitTest11CurrentTest7ResultsEv
 1886      00
 1887 09f6 488B00   		movq	(%rax), %rax
 1888 09f9 488D4DC0 		leaq	-64(%rbp), %rcx
 1889 09fd BA000000 		movl	$.LC9, %edx
 1889      00
 1890 0a02 4889CE   		movq	%rcx, %rsi
 1891 0a05 4889C7   		movq	%rax, %rdi
 1892 0a08 E8000000 		call	_ZN8UnitTest11TestResults13OnTestFailureERKNS_11TestDetailsEPKc
 1892      00
 1893              	.LEHE42:
 1894              	.LEHB43:
  70:TestChecks.cpp ****     CHECK_EQUAL(0, results.GetFailureCount());
 1895              		.loc 5 70 0 discriminator 16
 1896 0a0d E8000000 		call	__cxa_end_catch
 1896      00
 1897              	.LEHE43:
 1898              		.loc 5 71 0 is_stmt 1 discriminator 16
 1899 0a12 EB13     		jmp	.L75
 1900              	.L83:
 1901 0a14 4889C3   		movq	%rax, %rbx
  70:TestChecks.cpp ****     CHECK_EQUAL(0, results.GetFailureCount());
 1902              		.loc 5 70 0
 1903 0a17 E8000000 		call	__cxa_end_catch
 1903      00
 1904 0a1c 4889D8   		movq	%rbx, %rax
 1905 0a1f 4889C7   		movq	%rax, %rdi
 1906              	.LEHB44:
 1907 0a22 E8000000 		call	_Unwind_Resume
 1907      00
 1908              	.LEHE44:
 1909              	.L75:
 1910              		.loc 5 71 0
 1911 0a27 488B45E8 		movq	-24(%rbp), %rax
 1912 0a2b 64483304 		xorq	%fs:40, %rax
 1912      25280000 
 1912      00
 1913 0a34 7405     		je	.L80
 1914 0a36 E8000000 		call	__stack_chk_fail
 1914      00
 1915              	.L80:
 1916 0a3b 4883C478 		addq	$120, %rsp
 1917 0a3f 5B       		popq	%rbx
 1918 0a40 5D       		popq	%rbp
 1919              		.cfi_def_cfa 7, 8
 1920 0a41 C3       		ret
 1921              		.cfi_endproc
 1922              	.LFE1106:
 1923              		.section	.gcc_except_table
 1924              		.align 4
 1925              	.LLSDA1106:
 1926 0104 FF       		.byte	0xff
 1927 0105 03       		.byte	0x3
 1928 0106 29       		.uleb128 .LLSDATT1106-.LLSDATTD1106
 1929              	.LLSDATTD1106:
 1930 0107 01       		.byte	0x1
 1931 0108 1F       		.uleb128 .LLSDACSE1106-.LLSDACSB1106
 1932              	.LLSDACSB1106:
 1933 0109 30       		.uleb128 .LEHB39-.LFB1106
 1934 010a 3F       		.uleb128 .LEHE39-.LEHB39
 1935 010b 00       		.uleb128 0
 1936 010c 00       		.uleb128 0
 1937 010d 6F       		.uleb128 .LEHB40-.LFB1106
 1938 010e 28       		.uleb128 .LEHE40-.LEHB40
 1939 010f C101     		.uleb128 .L81-.LFB1106
 1940 0111 01       		.uleb128 0x1
 1941 0112 A101     		.uleb128 .LEHB41-.LFB1106
 1942 0114 1C       		.uleb128 .LEHE41-.LEHB41
 1943 0115 BF01     		.uleb128 .L82-.LFB1106
 1944 0117 03       		.uleb128 0x3
 1945 0118 C901     		.uleb128 .LEHB42-.LFB1106
 1946 011a 38       		.uleb128 .LEHE42-.LEHB42
 1947 011b 8802     		.uleb128 .L83-.LFB1106
 1948 011d 00       		.uleb128 0
 1949 011e 8102     		.uleb128 .LEHB43-.LFB1106
 1950 0120 05       		.uleb128 .LEHE43-.LEHB43
 1951 0121 00       		.uleb128 0
 1952 0122 00       		.uleb128 0
 1953 0123 9602     		.uleb128 .LEHB44-.LFB1106
 1954 0125 05       		.uleb128 .LEHE44-.LEHB44
 1955 0126 00       		.uleb128 0
 1956 0127 00       		.uleb128 0
 1957              	.LLSDACSE1106:
 1958 0128 01       		.byte	0x1
 1959 0129 00       		.byte	0
 1960 012a 00       		.byte	0
 1961 012b 7D       		.byte	0x7d
 1962              		.align 4
 1963 012c 00000000 		.long	0
 1964              	
 1965              	.LLSDATT1106:
 1966              		.text
 1968              		.section	.rodata
 1969              		.align 8
 1970              	.LC15:
 1971 0248 43686563 		.string	"CheckEqualFailureIncludesCheckExpectedAndActual"
 1971      6B457175 
 1971      616C4661 
 1971      696C7572 
 1971      65496E63 
 1972              		.text
 1973              		.align 2
 1975              	_ZN12_GLOBAL__N_151TestCheckEqualFailureIncludesCheckExpectedAndActualC2Ev:
 1976              	.LFB1108:
  72:TestChecks.cpp **** 
  73:TestChecks.cpp **** TEST(CheckEqualFailureIncludesCheckExpectedAndActual)
 1977              		.loc 5 73 0
 1978              		.cfi_startproc
 1979 0a42 55       		pushq	%rbp
 1980              		.cfi_def_cfa_offset 16
 1981              		.cfi_offset 6, -16
 1982 0a43 4889E5   		movq	%rsp, %rbp
 1983              		.cfi_def_cfa_register 6
 1984 0a46 4883EC10 		subq	$16, %rsp
 1985 0a4a 48897DF8 		movq	%rdi, -8(%rbp)
 1986              	.LBB13:
 1987              		.loc 5 73 0
 1988 0a4e E8000000 		call	_ZN13UnitTestSuite12GetSuiteNameEv
 1988      00
 1989 0a53 4889C2   		movq	%rax, %rdx
 1990 0a56 488B45F8 		movq	-8(%rbp), %rax
 1991 0a5a 41B84900 		movl	$73, %r8d
 1991      0000
 1992 0a60 B9000000 		movl	$.LC2, %ecx
 1992      00
 1993 0a65 BE000000 		movl	$.LC15, %esi
 1993      00
 1994 0a6a 4889C7   		movq	%rax, %rdi
 1995 0a6d E8000000 		call	_ZN8UnitTest4TestC2EPKcS2_S2_i
 1995      00
 1996 0a72 BA000000 		movl	$_ZTVN12_GLOBAL__N_151TestCheckEqualFailureIncludesCheckExpectedAndActualE+16, %edx
 1996      00
 1997 0a77 488B45F8 		movq	-8(%rbp), %rax
 1998 0a7b 488910   		movq	%rdx, (%rax)
 1999              	.LBE13:
 2000 0a7e 90       		nop
 2001 0a7f C9       		leave
 2002              		.cfi_def_cfa 7, 8
 2003 0a80 C3       		ret
 2004              		.cfi_endproc
 2005              	.LFE1108:
 2007              		.set	_ZN12_GLOBAL__N_151TestCheckEqualFailureIncludesCheckExpectedAndActualC1Ev,_ZN12_GLOBAL__N_15
 2008              		.local	_ZN12_GLOBAL__N_159testCheckEqualFailureIncludesCheckExpectedAndActualInstanceE
 2009              		.comm	_ZN12_GLOBAL__N_159testCheckEqualFailureIncludesCheckExpectedAndActualInstanceE,56,32
 2010              		.local	_ZN12_GLOBAL__N_152adderCheckEqualFailureIncludesCheckExpectedAndActualE
 2011              		.comm	_ZN12_GLOBAL__N_152adderCheckEqualFailureIncludesCheckExpectedAndActualE,1,1
 2012              		.section	.rodata
 2013              	.LC16:
 2014 0278 78706563 		.string	"xpected 1"
 2014      74656420 
 2014      3100
 2015 0282 00000000 		.align 8
 2015      0000
 2016              	.LC17:
 2017 0288 73747273 		.string	"strstr(reporter.lastFailedMessage, \"xpected 1\")"
 2017      74722872 
 2017      65706F72 
 2017      7465722E 
 2017      6C617374 
 2018              	.LC18:
 2019 02b8 77617320 		.string	"was 2"
 2019      3200
 2020 02be 0000     		.align 8
 2021              	.LC19:
 2022 02c0 73747273 		.string	"strstr(reporter.lastFailedMessage, \"was 2\")"
 2022      74722872 
 2022      65706F72 
 2022      7465722E 
 2022      6C617374 
 2023 02ec 00000000 		.align 8
 2024              	.LC20:
 2025 02f0 556E6861 		.string	"Unhandled exception in CHECK(strstr(reporter.lastFailedMessage, \"xpected 1\"))"
 2025      6E646C65 
 2025      64206578 
 2025      63657074 
 2025      696F6E20 
 2026 033e 0000     		.align 8
 2027              	.LC21:
 2028 0340 556E6861 		.string	"Unhandled exception in CHECK(strstr(reporter.lastFailedMessage, \"was 2\"))"
 2028      6E646C65 
 2028      64206578 
 2028      63657074 
 2028      696F6E20 
 2029              		.text
 2030 0a81 90       		.align 2
 2032              	_ZNK12_GLOBAL__N_151TestCheckEqualFailureIncludesCheckExpectedAndActual7RunImplEv:
 2033              	.LFB1110:
  74:TestChecks.cpp **** {
 2034              		.loc 5 74 0
 2035              		.cfi_startproc
 2036              		.cfi_personality 0x3,__gxx_personality_v0
 2037              		.cfi_lsda 0x3,.LLSDA1110
 2038 0a82 55       		pushq	%rbp
 2039              		.cfi_def_cfa_offset 16
 2040              		.cfi_offset 6, -16
 2041 0a83 4889E5   		movq	%rsp, %rbp
 2042              		.cfi_def_cfa_register 6
 2043 0a86 53       		pushq	%rbx
 2044 0a87 4881ECA8 		subq	$2216, %rsp
 2044      080000
 2045              		.cfi_offset 3, -24
 2046 0a8e 4889BD58 		movq	%rdi, -2216(%rbp)
 2046      F7FFFF
 2047              		.loc 5 74 0
 2048 0a95 64488B04 		movq	%fs:40, %rax
 2048      25280000 
 2048      00
 2049 0a9e 488945E8 		movq	%rax, -24(%rbp)
 2050 0aa2 31C0     		xorl	%eax, %eax
  75:TestChecks.cpp ****     RecordingReporter reporter;
 2051              		.loc 5 75 0
 2052 0aa4 488D85B0 		leaq	-2128(%rbp), %rax
 2052      F7FFFF
 2053 0aab 4889C7   		movq	%rax, %rdi
 2054 0aae E8000000 		call	_ZN17RecordingReporterC1Ev
 2054      00
  76:TestChecks.cpp ****     TestResults results(&reporter);
 2055              		.loc 5 76 0
 2056 0ab3 488D95B0 		leaq	-2128(%rbp), %rdx
 2056      F7FFFF
 2057 0aba 488D8570 		leaq	-2192(%rbp), %rax
 2057      F7FFFF
 2058 0ac1 4889D6   		movq	%rdx, %rsi
 2059 0ac4 4889C7   		movq	%rax, %rdi
 2060              	.LEHB45:
 2061 0ac7 E8000000 		call	_ZN8UnitTest11TestResultsC1EPNS_12TestReporterE
 2061      00
  77:TestChecks.cpp ****     const int something = 2;
 2062              		.loc 5 77 0
 2063 0acc C78568F7 		movl	$2, -2200(%rbp)
 2063      FFFF0200 
 2063      0000
  78:TestChecks.cpp ****     CheckEqual(results, 1, something, TestDetails("", "", "", 0));
 2064              		.loc 5 78 0
 2065 0ad6 488D8590 		leaq	-2160(%rbp), %rax
 2065      F7FFFF
 2066 0add 41B80000 		movl	$0, %r8d
 2066      0000
 2067 0ae3 B9000000 		movl	$.LC6, %ecx
 2067      00
 2068 0ae8 BA000000 		movl	$.LC6, %edx
 2068      00
 2069 0aed BE000000 		movl	$.LC6, %esi
 2069      00
 2070 0af2 4889C7   		movq	%rax, %rdi
 2071 0af5 E8000000 		call	_ZN8UnitTest11TestDetailsC1EPKcS2_S2_i
 2071      00
 2072              		.loc 5 78 0 is_stmt 0 discriminator 1
 2073 0afa C7856CF7 		movl	$1, -2196(%rbp)
 2073      FFFF0100 
 2073      0000
 2074 0b04 488D8D90 		leaq	-2160(%rbp), %rcx
 2074      F7FFFF
 2075 0b0b 488D9568 		leaq	-2200(%rbp), %rdx
 2075      F7FFFF
 2076 0b12 488DB56C 		leaq	-2196(%rbp), %rsi
 2076      F7FFFF
 2077 0b19 488D8570 		leaq	-2192(%rbp), %rax
 2077      F7FFFF
 2078 0b20 4889C7   		movq	%rax, %rdi
 2079 0b23 E8000000 		call	_ZN8UnitTest10CheckEqualIiiEEvRNS_11TestResultsERKT_RKT0_RKNS_11TestDetailsE
 2079      00
 2080              	.LEHE45:
  79:TestChecks.cpp **** 
  80:TestChecks.cpp **** 	using namespace std;
  81:TestChecks.cpp ****     CHECK(strstr(reporter.lastFailedMessage, "xpected 1"));
 2081              		.loc 5 81 0 is_stmt 1 discriminator 3
 2082 0b28 488D85B0 		leaq	-2128(%rbp), %rax
 2082      F7FFFF
 2083 0b2f 48051405 		addq	$1300, %rax
 2083      0000
 2084 0b35 BE000000 		movl	$.LC16, %esi
 2084      00
 2085 0b3a 4889C7   		movq	%rax, %rdi
 2086 0b3d E8000000 		call	strstr
 2086      00
 2087 0b42 4889C7   		movq	%rax, %rdi
 2088 0b45 E8000000 		call	_ZN8UnitTest5CheckIPcEEbT_
 2088      00
 2089 0b4a 83F001   		xorl	$1, %eax
 2090 0b4d 84C0     		testb	%al, %al
 2091 0b4f 743E     		je	.L86
 2092              	.LEHB46:
 2093              		.loc 5 81 0 is_stmt 0 discriminator 1
 2094 0b51 E8000000 		call	_ZN8UnitTest11CurrentTest7DetailsEv
 2094      00
 2095 0b56 488B08   		movq	(%rax), %rcx
 2096 0b59 488D8590 		leaq	-2160(%rbp), %rax
 2096      F7FFFF
 2097 0b60 BA510000 		movl	$81, %edx
 2097      00
 2098 0b65 4889CE   		movq	%rcx, %rsi
 2099 0b68 4889C7   		movq	%rax, %rdi
 2100 0b6b E8000000 		call	_ZN8UnitTest11TestDetailsC1ERKS0_i
 2100      00
 2101              		.loc 5 81 0 discriminator 3
 2102 0b70 E8000000 		call	_ZN8UnitTest11CurrentTest7ResultsEv
 2102      00
 2103 0b75 488B00   		movq	(%rax), %rax
 2104 0b78 488D8D90 		leaq	-2160(%rbp), %rcx
 2104      F7FFFF
 2105 0b7f BA000000 		movl	$.LC17, %edx
 2105      00
 2106 0b84 4889CE   		movq	%rcx, %rsi
 2107 0b87 4889C7   		movq	%rax, %rdi
 2108 0b8a E8000000 		call	_ZN8UnitTest11TestResults13OnTestFailureERKNS_11TestDetailsEPKc
 2108      00
 2109              	.LEHE46:
 2110              	.L86:
  82:TestChecks.cpp ****     CHECK(strstr(reporter.lastFailedMessage, "was 2"));
 2111              		.loc 5 82 0 is_stmt 1
 2112 0b8f 488D85B0 		leaq	-2128(%rbp), %rax
 2112      F7FFFF
 2113 0b96 48051405 		addq	$1300, %rax
 2113      0000
 2114 0b9c BE000000 		movl	$.LC18, %esi
 2114      00
 2115 0ba1 4889C7   		movq	%rax, %rdi
 2116 0ba4 E8000000 		call	strstr
 2116      00
 2117 0ba9 4889C7   		movq	%rax, %rdi
 2118 0bac E8000000 		call	_ZN8UnitTest5CheckIPcEEbT_
 2118      00
 2119 0bb1 83F001   		xorl	$1, %eax
 2120 0bb4 84C0     		testb	%al, %al
 2121 0bb6 743E     		je	.L87
 2122              	.LEHB47:
 2123              		.loc 5 82 0 is_stmt 0 discriminator 1
 2124 0bb8 E8000000 		call	_ZN8UnitTest11CurrentTest7DetailsEv
 2124      00
 2125 0bbd 488B08   		movq	(%rax), %rcx
 2126 0bc0 488D8590 		leaq	-2160(%rbp), %rax
 2126      F7FFFF
 2127 0bc7 BA520000 		movl	$82, %edx
 2127      00
 2128 0bcc 4889CE   		movq	%rcx, %rsi
 2129 0bcf 4889C7   		movq	%rax, %rdi
 2130 0bd2 E8000000 		call	_ZN8UnitTest11TestDetailsC1ERKS0_i
 2130      00
 2131              		.loc 5 82 0 discriminator 3
 2132 0bd7 E8000000 		call	_ZN8UnitTest11CurrentTest7ResultsEv
 2132      00
 2133 0bdc 488B00   		movq	(%rax), %rax
 2134 0bdf 488D8D90 		leaq	-2160(%rbp), %rcx
 2134      F7FFFF
 2135 0be6 BA000000 		movl	$.LC19, %edx
 2135      00
 2136 0beb 4889CE   		movq	%rcx, %rsi
 2137 0bee 4889C7   		movq	%rax, %rdi
 2138 0bf1 E8000000 		call	_ZN8UnitTest11TestResults13OnTestFailureERKNS_11TestDetailsEPKc
 2138      00
 2139              	.LEHE47:
 2140              	.L87:
  75:TestChecks.cpp ****     TestResults results(&reporter);
 2141              		.loc 5 75 0 is_stmt 1
 2142 0bf6 488D85B0 		leaq	-2128(%rbp), %rax
 2142      F7FFFF
 2143 0bfd 4889C7   		movq	%rax, %rdi
 2144              	.LEHB48:
 2145 0c00 E8000000 		call	_ZN17RecordingReporterD1Ev
 2145      00
 2146              	.LEHE48:
  83:TestChecks.cpp **** }
 2147              		.loc 5 83 0
 2148 0c05 90       		nop
 2149 0c06 488B45E8 		movq	-24(%rbp), %rax
 2150 0c0a 64483304 		xorq	%fs:40, %rax
 2150      25280000 
 2150      00
 2151 0c13 0F84DB00 		je	.L93
 2151      0000
 2152 0c19 E9D10000 		jmp	.L99
 2152      00
 2153              	.L95:
  81:TestChecks.cpp ****     CHECK(strstr(reporter.lastFailedMessage, "was 2"));
 2154              		.loc 5 81 0
 2155 0c1e 4889C7   		movq	%rax, %rdi
 2156 0c21 E8000000 		call	__cxa_begin_catch
 2156      00
 2157              	.LEHB49:
 2158 0c26 E8000000 		call	_ZN8UnitTest11CurrentTest7DetailsEv
 2158      00
 2159 0c2b 488B08   		movq	(%rax), %rcx
 2160 0c2e 488D8590 		leaq	-2160(%rbp), %rax
 2160      F7FFFF
 2161 0c35 BA510000 		movl	$81, %edx
 2161      00
 2162 0c3a 4889CE   		movq	%rcx, %rsi
 2163 0c3d 4889C7   		movq	%rax, %rdi
 2164 0c40 E8000000 		call	_ZN8UnitTest11TestDetailsC1ERKS0_i
 2164      00
  81:TestChecks.cpp ****     CHECK(strstr(reporter.lastFailedMessage, "was 2"));
 2165              		.loc 5 81 0 is_stmt 0 discriminator 11
 2166 0c45 E8000000 		call	_ZN8UnitTest11CurrentTest7ResultsEv
 2166      00
 2167 0c4a 488B00   		movq	(%rax), %rax
 2168 0c4d 488D8D90 		leaq	-2160(%rbp), %rcx
 2168      F7FFFF
 2169 0c54 BA000000 		movl	$.LC20, %edx
 2169      00
 2170 0c59 4889CE   		movq	%rcx, %rsi
 2171 0c5c 4889C7   		movq	%rax, %rdi
 2172 0c5f E8000000 		call	_ZN8UnitTest11TestResults13OnTestFailureERKNS_11TestDetailsEPKc
 2172      00
 2173              	.LEHE49:
 2174              	.LEHB50:
  81:TestChecks.cpp ****     CHECK(strstr(reporter.lastFailedMessage, "was 2"));
 2175              		.loc 5 81 0 discriminator 15
 2176 0c64 E8000000 		call	__cxa_end_catch
 2176      00
 2177              	.LEHE50:
  81:TestChecks.cpp ****     CHECK(strstr(reporter.lastFailedMessage, "was 2"));
 2178              		.loc 5 81 0
 2179 0c69 E921FFFF 		jmp	.L86
 2179      FF
 2180              	.L96:
 2181 0c6e 4889C3   		movq	%rax, %rbx
 2182 0c71 E8000000 		call	__cxa_end_catch
 2182      00
 2183 0c76 EB5D     		jmp	.L90
 2184              	.L97:
  82:TestChecks.cpp **** }
 2185              		.loc 5 82 0 is_stmt 1
 2186 0c78 4889C7   		movq	%rax, %rdi
 2187 0c7b E8000000 		call	__cxa_begin_catch
 2187      00
 2188              	.LEHB51:
 2189 0c80 E8000000 		call	_ZN8UnitTest11CurrentTest7DetailsEv
 2189      00
 2190 0c85 488B08   		movq	(%rax), %rcx
 2191 0c88 488D8590 		leaq	-2160(%rbp), %rax
 2191      F7FFFF
 2192 0c8f BA520000 		movl	$82, %edx
 2192      00
 2193 0c94 4889CE   		movq	%rcx, %rsi
 2194 0c97 4889C7   		movq	%rax, %rdi
 2195 0c9a E8000000 		call	_ZN8UnitTest11TestDetailsC1ERKS0_i
 2195      00
  82:TestChecks.cpp **** }
 2196              		.loc 5 82 0 is_stmt 0 discriminator 11
 2197 0c9f E8000000 		call	_ZN8UnitTest11CurrentTest7ResultsEv
 2197      00
 2198 0ca4 488B00   		movq	(%rax), %rax
 2199 0ca7 488D8D90 		leaq	-2160(%rbp), %rcx
 2199      F7FFFF
 2200 0cae BA000000 		movl	$.LC21, %edx
 2200      00
 2201 0cb3 4889CE   		movq	%rcx, %rsi
 2202 0cb6 4889C7   		movq	%rax, %rdi
 2203 0cb9 E8000000 		call	_ZN8UnitTest11TestResults13OnTestFailureERKNS_11TestDetailsEPKc
 2203      00
 2204              	.LEHE51:
 2205              	.LEHB52:
  82:TestChecks.cpp **** }
 2206              		.loc 5 82 0 discriminator 15
 2207 0cbe E8000000 		call	__cxa_end_catch
 2207      00
 2208              	.LEHE52:
  82:TestChecks.cpp **** }
 2209              		.loc 5 82 0
 2210 0cc3 E92EFFFF 		jmp	.L87
 2210      FF
 2211              	.L98:
 2212 0cc8 4889C3   		movq	%rax, %rbx
 2213 0ccb E8000000 		call	__cxa_end_catch
 2213      00
 2214 0cd0 EB03     		jmp	.L90
 2215              	.L94:
 2216 0cd2 4889C3   		movq	%rax, %rbx
 2217              	.L90:
  75:TestChecks.cpp ****     TestResults results(&reporter);
 2218              		.loc 5 75 0 is_stmt 1
 2219 0cd5 488D85B0 		leaq	-2128(%rbp), %rax
 2219      F7FFFF
 2220 0cdc 4889C7   		movq	%rax, %rdi
 2221 0cdf E8000000 		call	_ZN17RecordingReporterD1Ev
 2221      00
 2222 0ce4 4889D8   		movq	%rbx, %rax
 2223 0ce7 4889C7   		movq	%rax, %rdi
 2224              	.LEHB53:
 2225 0cea E8000000 		call	_Unwind_Resume
 2225      00
 2226              	.LEHE53:
 2227              	.L99:
 2228              		.loc 5 83 0
 2229 0cef E8000000 		call	__stack_chk_fail
 2229      00
 2230              	.L93:
 2231 0cf4 4881C4A8 		addq	$2216, %rsp
 2231      080000
 2232 0cfb 5B       		popq	%rbx
 2233 0cfc 5D       		popq	%rbp
 2234              		.cfi_def_cfa 7, 8
 2235 0cfd C3       		ret
 2236              		.cfi_endproc
 2237              	.LFE1110:
 2238              		.section	.gcc_except_table
 2239              		.align 4
 2240              	.LLSDA1110:
 2241 0130 FF       		.byte	0xff
 2242 0131 03       		.byte	0x3
 2243 0132 3D       		.uleb128 .LLSDATT1110-.LLSDATTD1110
 2244              	.LLSDATTD1110:
 2245 0133 01       		.byte	0x1
 2246 0134 33       		.uleb128 .LLSDACSE1110-.LLSDACSB1110
 2247              	.LLSDACSB1110:
 2248 0135 45       		.uleb128 .LEHB45-.LFB1110
 2249 0136 61       		.uleb128 .LEHE45-.LEHB45
 2250 0137 D004     		.uleb128 .L94-.LFB1110
 2251 0139 00       		.uleb128 0
 2252 013a CF01     		.uleb128 .LEHB46-.LFB1110
 2253 013c 3E       		.uleb128 .LEHE46-.LEHB46
 2254 013d 9C03     		.uleb128 .L95-.LFB1110
 2255 013f 01       		.uleb128 0x1
 2256 0140 B602     		.uleb128 .LEHB47-.LFB1110
 2257 0142 3E       		.uleb128 .LEHE47-.LEHB47
 2258 0143 F603     		.uleb128 .L97-.LFB1110
 2259 0145 01       		.uleb128 0x1
 2260 0146 FE02     		.uleb128 .LEHB48-.LFB1110
 2261 0148 05       		.uleb128 .LEHE48-.LEHB48
 2262 0149 00       		.uleb128 0
 2263 014a 00       		.uleb128 0
 2264 014b A403     		.uleb128 .LEHB49-.LFB1110
 2265 014d 3E       		.uleb128 .LEHE49-.LEHB49
 2266 014e EC03     		.uleb128 .L96-.LFB1110
 2267 0150 00       		.uleb128 0
 2268 0151 E203     		.uleb128 .LEHB50-.LFB1110
 2269 0153 05       		.uleb128 .LEHE50-.LEHB50
 2270 0154 D004     		.uleb128 .L94-.LFB1110
 2271 0156 00       		.uleb128 0
 2272 0157 FE03     		.uleb128 .LEHB51-.LFB1110
 2273 0159 3E       		.uleb128 .LEHE51-.LEHB51
 2274 015a C604     		.uleb128 .L98-.LFB1110
 2275 015c 00       		.uleb128 0
 2276 015d BC04     		.uleb128 .LEHB52-.LFB1110
 2277 015f 05       		.uleb128 .LEHE52-.LEHB52
 2278 0160 D004     		.uleb128 .L94-.LFB1110
 2279 0162 00       		.uleb128 0
 2280 0163 E804     		.uleb128 .LEHB53-.LFB1110
 2281 0165 05       		.uleb128 .LEHE53-.LEHB53
 2282 0166 00       		.uleb128 0
 2283 0167 00       		.uleb128 0
 2284              	.LLSDACSE1110:
 2285 0168 01       		.byte	0x1
 2286 0169 00       		.byte	0
 2287 016a 0000     		.align 4
 2288 016c 00000000 		.long	0
 2289              	
 2290              	.LLSDATT1110:
 2291              		.text
 2293              		.section	.rodata
 2294 038a 00000000 		.align 8
 2294      0000
 2295              	.LC22:
 2296 0390 43686563 		.string	"CheckEqualFailureIncludesDetails"
 2296      6B457175 
 2296      616C4661 
 2296      696C7572 
 2296      65496E63 
 2297              		.text
 2298              		.align 2
 2300              	_ZN12_GLOBAL__N_136TestCheckEqualFailureIncludesDetailsC2Ev:
 2301              	.LFB1112:
  84:TestChecks.cpp **** 
  85:TestChecks.cpp **** TEST(CheckEqualFailureIncludesDetails)
 2302              		.loc 5 85 0
 2303              		.cfi_startproc
 2304 0cfe 55       		pushq	%rbp
 2305              		.cfi_def_cfa_offset 16
 2306              		.cfi_offset 6, -16
 2307 0cff 4889E5   		movq	%rsp, %rbp
 2308              		.cfi_def_cfa_register 6
 2309 0d02 4883EC10 		subq	$16, %rsp
 2310 0d06 48897DF8 		movq	%rdi, -8(%rbp)
 2311              	.LBB14:
 2312              		.loc 5 85 0
 2313 0d0a E8000000 		call	_ZN13UnitTestSuite12GetSuiteNameEv
 2313      00
 2314 0d0f 4889C2   		movq	%rax, %rdx
 2315 0d12 488B45F8 		movq	-8(%rbp), %rax
 2316 0d16 41B85500 		movl	$85, %r8d
 2316      0000
 2317 0d1c B9000000 		movl	$.LC2, %ecx
 2317      00
 2318 0d21 BE000000 		movl	$.LC22, %esi
 2318      00
 2319 0d26 4889C7   		movq	%rax, %rdi
 2320 0d29 E8000000 		call	_ZN8UnitTest4TestC2EPKcS2_S2_i
 2320      00
 2321 0d2e BA000000 		movl	$_ZTVN12_GLOBAL__N_136TestCheckEqualFailureIncludesDetailsE+16, %edx
 2321      00
 2322 0d33 488B45F8 		movq	-8(%rbp), %rax
 2323 0d37 488910   		movq	%rdx, (%rax)
 2324              	.LBE14:
 2325 0d3a 90       		nop
 2326 0d3b C9       		leave
 2327              		.cfi_def_cfa 7, 8
 2328 0d3c C3       		ret
 2329              		.cfi_endproc
 2330              	.LFE1112:
 2332              		.set	_ZN12_GLOBAL__N_136TestCheckEqualFailureIncludesDetailsC1Ev,_ZN12_GLOBAL__N_136TestCheckEqual
 2333              		.local	_ZN12_GLOBAL__N_144testCheckEqualFailureIncludesDetailsInstanceE
 2334              		.comm	_ZN12_GLOBAL__N_144testCheckEqualFailureIncludesDetailsInstanceE,56,32
 2335              		.local	_ZN12_GLOBAL__N_137adderCheckEqualFailureIncludesDetailsE
 2336              		.comm	_ZN12_GLOBAL__N_137adderCheckEqualFailureIncludesDetailsE,1,1
 2337              		.section	.rodata
 2338              	.LC23:
 2339 03b1 66696C65 		.string	"file.h"
 2339      2E6800
 2340              	.LC24:
 2341 03b8 6D797375 		.string	"mysuite"
 2341      69746500 
 2342              	.LC25:
 2343 03c0 6D797465 		.string	"mytest"
 2343      737400
 2344 03c7 00       		.align 8
 2345              	.LC26:
 2346 03c8 556E6861 		.string	"Unhandled exception in CHECK_EQUAL(\"mytest\", reporter.lastFailedTest)"
 2346      6E646C65 
 2346      64206578 
 2346      63657074 
 2346      696F6E20 
 2347 040e 0000     		.align 8
 2348              	.LC27:
 2349 0410 556E6861 		.string	"Unhandled exception in CHECK_EQUAL(\"mysuite\", reporter.lastFailedSuite)"
 2349      6E646C65 
 2349      64206578 
 2349      63657074 
 2349      696F6E20 
 2350              		.align 8
 2351              	.LC28:
 2352 0458 556E6861 		.string	"Unhandled exception in CHECK_EQUAL(\"file.h\", reporter.lastFailedFile)"
 2352      6E646C65 
 2352      64206578 
 2352      63657074 
 2352      696F6E20 
 2353 049e 0000     		.align 8
 2354              	.LC29:
 2355 04a0 556E6861 		.string	"Unhandled exception in CHECK_EQUAL(101, reporter.lastFailedLine)"
 2355      6E646C65 
 2355      64206578 
 2355      63657074 
 2355      696F6E20 
 2356              		.text
 2357 0d3d 90       		.align 2
 2359              	_ZNK12_GLOBAL__N_136TestCheckEqualFailureIncludesDetails7RunImplEv:
 2360              	.LFB1114:
  86:TestChecks.cpp **** {
 2361              		.loc 5 86 0
 2362              		.cfi_startproc
 2363              		.cfi_personality 0x3,__gxx_personality_v0
 2364              		.cfi_lsda 0x3,.LLSDA1114
 2365 0d3e 55       		pushq	%rbp
 2366              		.cfi_def_cfa_offset 16
 2367              		.cfi_offset 6, -16
 2368 0d3f 4889E5   		movq	%rsp, %rbp
 2369              		.cfi_def_cfa_register 6
 2370 0d42 53       		pushq	%rbx
 2371 0d43 4881ECC8 		subq	$2248, %rsp
 2371      080000
 2372              		.cfi_offset 3, -24
 2373 0d4a 4889BD38 		movq	%rdi, -2248(%rbp)
 2373      F7FFFF
 2374              		.loc 5 86 0
 2375 0d51 64488B04 		movq	%fs:40, %rax
 2375      25280000 
 2375      00
 2376 0d5a 488945E8 		movq	%rax, -24(%rbp)
 2377 0d5e 31C0     		xorl	%eax, %eax
  87:TestChecks.cpp ****     RecordingReporter reporter;
 2378              		.loc 5 87 0
 2379 0d60 488D85B0 		leaq	-2128(%rbp), %rax
 2379      F7FFFF
 2380 0d67 4889C7   		movq	%rax, %rdi
 2381 0d6a E8000000 		call	_ZN17RecordingReporterC1Ev
 2381      00
  88:TestChecks.cpp ****     TestResults results(&reporter);
 2382              		.loc 5 88 0
 2383 0d6f 488D95B0 		leaq	-2128(%rbp), %rdx
 2383      F7FFFF
 2384 0d76 488D8550 		leaq	-2224(%rbp), %rax
 2384      F7FFFF
 2385 0d7d 4889D6   		movq	%rdx, %rsi
 2386 0d80 4889C7   		movq	%rax, %rdi
 2387              	.LEHB54:
 2388 0d83 E8000000 		call	_ZN8UnitTest11TestResultsC1EPNS_12TestReporterE
 2388      00
  89:TestChecks.cpp ****     TestDetails const details("mytest", "mysuite", "file.h", 101);
 2389              		.loc 5 89 0
 2390 0d88 488D8570 		leaq	-2192(%rbp), %rax
 2390      F7FFFF
 2391 0d8f 41B86500 		movl	$101, %r8d
 2391      0000
 2392 0d95 B9000000 		movl	$.LC23, %ecx
 2392      00
 2393 0d9a BA000000 		movl	$.LC24, %edx
 2393      00
 2394 0d9f BE000000 		movl	$.LC25, %esi
 2394      00
 2395 0da4 4889C7   		movq	%rax, %rdi
 2396 0da7 E8000000 		call	_ZN8UnitTest11TestDetailsC1EPKcS2_S2_i
 2396      00
  90:TestChecks.cpp **** 
  91:TestChecks.cpp ****     CheckEqual(results, 1, 2, details);
 2397              		.loc 5 91 0
 2398 0dac C78590F7 		movl	$2, -2160(%rbp)
 2398      FFFF0200 
 2398      0000
 2399 0db6 C7854CF7 		movl	$1, -2228(%rbp)
 2399      FFFF0100 
 2399      0000
 2400 0dc0 488D8D70 		leaq	-2192(%rbp), %rcx
 2400      F7FFFF
 2401 0dc7 488D9590 		leaq	-2160(%rbp), %rdx
 2401      F7FFFF
 2402 0dce 488DB54C 		leaq	-2228(%rbp), %rsi
 2402      F7FFFF
 2403 0dd5 488D8550 		leaq	-2224(%rbp), %rax
 2403      F7FFFF
 2404 0ddc 4889C7   		movq	%rax, %rdi
 2405 0ddf E8000000 		call	_ZN8UnitTest10CheckEqualIiiEEvRNS_11TestResultsERKT_RKT0_RKNS_11TestDetailsE
 2405      00
 2406              	.LEHE54:
 2407              	.LEHB55:
  92:TestChecks.cpp **** 
  93:TestChecks.cpp ****     CHECK_EQUAL("mytest", reporter.lastFailedTest);
 2408              		.loc 5 93 0 discriminator 2
 2409 0de4 E8000000 		call	_ZN8UnitTest11CurrentTest7DetailsEv
 2409      00
 2410 0de9 488B08   		movq	(%rax), %rcx
 2411 0dec 488D8590 		leaq	-2160(%rbp), %rax
 2411      F7FFFF
 2412 0df3 BA5D0000 		movl	$93, %edx
 2412      00
 2413 0df8 4889CE   		movq	%rcx, %rsi
 2414 0dfb 4889C7   		movq	%rax, %rdi
 2415 0dfe E8000000 		call	_ZN8UnitTest11TestDetailsC1ERKS0_i
 2415      00
 2416 0e03 E8000000 		call	_ZN8UnitTest11CurrentTest7ResultsEv
 2416      00
 2417 0e08 488B00   		movq	(%rax), %rax
 2418 0e0b 488D9590 		leaq	-2160(%rbp), %rdx
 2418      F7FFFF
 2419 0e12 488D8DB0 		leaq	-2128(%rbp), %rcx
 2419      F7FFFF
 2420 0e19 488DB114 		leaq	1044(%rcx), %rsi
 2420      040000
 2421 0e20 4889D1   		movq	%rdx, %rcx
 2422 0e23 4889F2   		movq	%rsi, %rdx
 2423 0e26 BE000000 		movl	$.LC25, %esi
 2423      00
 2424 0e2b 4889C7   		movq	%rax, %rdi
 2425 0e2e E8000000 		call	_ZN8UnitTest10CheckEqualERNS_11TestResultsEPKcPcRKNS_11TestDetailsE
 2425      00
 2426              	.LEHE55:
 2427              	.L103:
 2428              	.LEHB56:
  94:TestChecks.cpp ****     CHECK_EQUAL("mysuite", reporter.lastFailedSuite);
 2429              		.loc 5 94 0
 2430 0e33 E8000000 		call	_ZN8UnitTest11CurrentTest7DetailsEv
 2430      00
 2431 0e38 488B08   		movq	(%rax), %rcx
 2432 0e3b 488D8590 		leaq	-2160(%rbp), %rax
 2432      F7FFFF
 2433 0e42 BA5E0000 		movl	$94, %edx
 2433      00
 2434 0e47 4889CE   		movq	%rcx, %rsi
 2435 0e4a 4889C7   		movq	%rax, %rdi
 2436 0e4d E8000000 		call	_ZN8UnitTest11TestDetailsC1ERKS0_i
 2436      00
 2437              		.loc 5 94 0 is_stmt 0 discriminator 2
 2438 0e52 E8000000 		call	_ZN8UnitTest11CurrentTest7ResultsEv
 2438      00
 2439 0e57 488B00   		movq	(%rax), %rax
 2440 0e5a 488D9590 		leaq	-2160(%rbp), %rdx
 2440      F7FFFF
 2441 0e61 488D8DB0 		leaq	-2128(%rbp), %rcx
 2441      F7FFFF
 2442 0e68 488DB114 		leaq	788(%rcx), %rsi
 2442      030000
 2443 0e6f 4889D1   		movq	%rdx, %rcx
 2444 0e72 4889F2   		movq	%rsi, %rdx
 2445 0e75 BE000000 		movl	$.LC24, %esi
 2445      00
 2446 0e7a 4889C7   		movq	%rax, %rdi
 2447 0e7d E8000000 		call	_ZN8UnitTest10CheckEqualERNS_11TestResultsEPKcPcRKNS_11TestDetailsE
 2447      00
 2448              	.LEHE56:
 2449              	.L107:
 2450              	.LEHB57:
  95:TestChecks.cpp ****     CHECK_EQUAL("file.h", reporter.lastFailedFile);
 2451              		.loc 5 95 0 is_stmt 1
 2452 0e82 E8000000 		call	_ZN8UnitTest11CurrentTest7DetailsEv
 2452      00
 2453 0e87 488B08   		movq	(%rax), %rcx
 2454 0e8a 488D8590 		leaq	-2160(%rbp), %rax
 2454      F7FFFF
 2455 0e91 BA5F0000 		movl	$95, %edx
 2455      00
 2456 0e96 4889CE   		movq	%rcx, %rsi
 2457 0e99 4889C7   		movq	%rax, %rdi
 2458 0e9c E8000000 		call	_ZN8UnitTest11TestDetailsC1ERKS0_i
 2458      00
 2459              		.loc 5 95 0 is_stmt 0 discriminator 2
 2460 0ea1 E8000000 		call	_ZN8UnitTest11CurrentTest7ResultsEv
 2460      00
 2461 0ea6 488B00   		movq	(%rax), %rax
 2462 0ea9 488D9590 		leaq	-2160(%rbp), %rdx
 2462      F7FFFF
 2463 0eb0 488D8DB0 		leaq	-2128(%rbp), %rcx
 2463      F7FFFF
 2464 0eb7 488DB110 		leaq	528(%rcx), %rsi
 2464      020000
 2465 0ebe 4889D1   		movq	%rdx, %rcx
 2466 0ec1 4889F2   		movq	%rsi, %rdx
 2467 0ec4 BE000000 		movl	$.LC23, %esi
 2467      00
 2468 0ec9 4889C7   		movq	%rax, %rdi
 2469 0ecc E8000000 		call	_ZN8UnitTest10CheckEqualERNS_11TestResultsEPKcPcRKNS_11TestDetailsE
 2469      00
 2470              	.LEHE57:
 2471              	.L110:
 2472              	.LEHB58:
  96:TestChecks.cpp ****     CHECK_EQUAL(101, reporter.lastFailedLine);
 2473              		.loc 5 96 0 is_stmt 1
 2474 0ed1 E8000000 		call	_ZN8UnitTest11CurrentTest7DetailsEv
 2474      00
 2475 0ed6 488B08   		movq	(%rax), %rcx
 2476 0ed9 488D8590 		leaq	-2160(%rbp), %rax
 2476      F7FFFF
 2477 0ee0 BA600000 		movl	$96, %edx
 2477      00
 2478 0ee5 4889CE   		movq	%rcx, %rsi
 2479 0ee8 4889C7   		movq	%rax, %rdi
 2480 0eeb E8000000 		call	_ZN8UnitTest11TestDetailsC1ERKS0_i
 2480      00
 2481              	.LEHE58:
 2482              		.loc 5 96 0 is_stmt 0 discriminator 2
 2483 0ef0 C7854CF7 		movl	$101, -2228(%rbp)
 2483      FFFF6500 
 2483      0000
 2484              	.LEHB59:
 2485 0efa E8000000 		call	_ZN8UnitTest11CurrentTest7ResultsEv
 2485      00
 2486 0eff 488B00   		movq	(%rax), %rax
 2487 0f02 488D9590 		leaq	-2160(%rbp), %rdx
 2487      F7FFFF
 2488 0f09 488D8DB0 		leaq	-2128(%rbp), %rcx
 2488      F7FFFF
 2489 0f10 488DB910 		leaq	784(%rcx), %rdi
 2489      030000
 2490 0f17 488DB54C 		leaq	-2228(%rbp), %rsi
 2490      F7FFFF
 2491 0f1e 4889D1   		movq	%rdx, %rcx
 2492 0f21 4889FA   		movq	%rdi, %rdx
 2493 0f24 4889C7   		movq	%rax, %rdi
 2494 0f27 E8000000 		call	_ZN8UnitTest10CheckEqualIiiEEvRNS_11TestResultsERKT_RKT0_RKNS_11TestDetailsE
 2494      00
 2495              	.LEHE59:
 2496              	.L114:
  87:TestChecks.cpp ****     TestResults results(&reporter);
 2497              		.loc 5 87 0 is_stmt 1
 2498 0f2c 488D85B0 		leaq	-2128(%rbp), %rax
 2498      F7FFFF
 2499 0f33 4889C7   		movq	%rax, %rdi
 2500              	.LEHB60:
 2501 0f36 E8000000 		call	_ZN17RecordingReporterD1Ev
 2501      00
 2502              	.LEHE60:
  97:TestChecks.cpp **** }
 2503              		.loc 5 97 0
 2504 0f3b 90       		nop
 2505 0f3c 488B45E8 		movq	-24(%rbp), %rax
 2506 0f40 64483304 		xorq	%fs:40, %rax
 2506      25280000 
 2506      00
 2507 0f49 0F849701 		je	.L116
 2507      0000
 2508 0f4f E98D0100 		jmp	.L127
 2508      00
 2509              	.L118:
  93:TestChecks.cpp ****     CHECK_EQUAL("mysuite", reporter.lastFailedSuite);
 2510              		.loc 5 93 0
 2511 0f54 4889C7   		movq	%rax, %rdi
 2512 0f57 E8000000 		call	__cxa_begin_catch
 2512      00
 2513              	.LEHB61:
 2514 0f5c E8000000 		call	_ZN8UnitTest11CurrentTest7DetailsEv
 2514      00
 2515 0f61 488B08   		movq	(%rax), %rcx
 2516 0f64 488D8590 		leaq	-2160(%rbp), %rax
 2516      F7FFFF
 2517 0f6b BA5D0000 		movl	$93, %edx
 2517      00
 2518 0f70 4889CE   		movq	%rcx, %rsi
 2519 0f73 4889C7   		movq	%rax, %rdi
 2520 0f76 E8000000 		call	_ZN8UnitTest11TestDetailsC1ERKS0_i
 2520      00
  93:TestChecks.cpp ****     CHECK_EQUAL("mysuite", reporter.lastFailedSuite);
 2521              		.loc 5 93 0 is_stmt 0 discriminator 10
 2522 0f7b E8000000 		call	_ZN8UnitTest11CurrentTest7ResultsEv
 2522      00
 2523 0f80 488B00   		movq	(%rax), %rax
 2524 0f83 488D8D90 		leaq	-2160(%rbp), %rcx
 2524      F7FFFF
 2525 0f8a BA000000 		movl	$.LC26, %edx
 2525      00
 2526 0f8f 4889CE   		movq	%rcx, %rsi
 2527 0f92 4889C7   		movq	%rax, %rdi
 2528 0f95 E8000000 		call	_ZN8UnitTest11TestResults13OnTestFailureERKNS_11TestDetailsEPKc
 2528      00
 2529              	.LEHE61:
 2530              	.LEHB62:
  93:TestChecks.cpp ****     CHECK_EQUAL("mysuite", reporter.lastFailedSuite);
 2531              		.loc 5 93 0 discriminator 14
 2532 0f9a E8000000 		call	__cxa_end_catch
 2532      00
 2533              	.LEHE62:
  93:TestChecks.cpp ****     CHECK_EQUAL("mysuite", reporter.lastFailedSuite);
 2534              		.loc 5 93 0
 2535 0f9f E98FFEFF 		jmp	.L103
 2535      FF
 2536              	.L119:
 2537 0fa4 4889C3   		movq	%rax, %rbx
 2538 0fa7 E8000000 		call	__cxa_end_catch
 2538      00
 2539 0fac E9160100 		jmp	.L105
 2539      00
 2540              	.L120:
  94:TestChecks.cpp ****     CHECK_EQUAL("file.h", reporter.lastFailedFile);
 2541              		.loc 5 94 0 is_stmt 1
 2542 0fb1 4889C7   		movq	%rax, %rdi
 2543 0fb4 E8000000 		call	__cxa_begin_catch
 2543      00
 2544              	.LEHB63:
 2545 0fb9 E8000000 		call	_ZN8UnitTest11CurrentTest7DetailsEv
 2545      00
 2546 0fbe 488B08   		movq	(%rax), %rcx
 2547 0fc1 488D8590 		leaq	-2160(%rbp), %rax
 2547      F7FFFF
 2548 0fc8 BA5E0000 		movl	$94, %edx
 2548      00
 2549 0fcd 4889CE   		movq	%rcx, %rsi
 2550 0fd0 4889C7   		movq	%rax, %rdi
 2551 0fd3 E8000000 		call	_ZN8UnitTest11TestDetailsC1ERKS0_i
 2551      00
  94:TestChecks.cpp ****     CHECK_EQUAL("file.h", reporter.lastFailedFile);
 2552              		.loc 5 94 0 is_stmt 0 discriminator 10
 2553 0fd8 E8000000 		call	_ZN8UnitTest11CurrentTest7ResultsEv
 2553      00
 2554 0fdd 488B00   		movq	(%rax), %rax
 2555 0fe0 488D8D90 		leaq	-2160(%rbp), %rcx
 2555      F7FFFF
 2556 0fe7 BA000000 		movl	$.LC27, %edx
 2556      00
 2557 0fec 4889CE   		movq	%rcx, %rsi
 2558 0fef 4889C7   		movq	%rax, %rdi
 2559 0ff2 E8000000 		call	_ZN8UnitTest11TestResults13OnTestFailureERKNS_11TestDetailsEPKc
 2559      00
 2560              	.LEHE63:
 2561              	.LEHB64:
  94:TestChecks.cpp ****     CHECK_EQUAL("file.h", reporter.lastFailedFile);
 2562              		.loc 5 94 0 discriminator 14
 2563 0ff7 E8000000 		call	__cxa_end_catch
 2563      00
 2564              	.LEHE64:
  94:TestChecks.cpp ****     CHECK_EQUAL("file.h", reporter.lastFailedFile);
 2565              		.loc 5 94 0
 2566 0ffc E981FEFF 		jmp	.L107
 2566      FF
 2567              	.L121:
 2568 1001 4889C3   		movq	%rax, %rbx
 2569 1004 E8000000 		call	__cxa_end_catch
 2569      00
 2570 1009 E9B90000 		jmp	.L105
 2570      00
 2571              	.L122:
  95:TestChecks.cpp ****     CHECK_EQUAL(101, reporter.lastFailedLine);
 2572              		.loc 5 95 0 is_stmt 1
 2573 100e 4889C7   		movq	%rax, %rdi
 2574 1011 E8000000 		call	__cxa_begin_catch
 2574      00
 2575              	.LEHB65:
 2576 1016 E8000000 		call	_ZN8UnitTest11CurrentTest7DetailsEv
 2576      00
 2577 101b 488B08   		movq	(%rax), %rcx
 2578 101e 488D8590 		leaq	-2160(%rbp), %rax
 2578      F7FFFF
 2579 1025 BA5F0000 		movl	$95, %edx
 2579      00
 2580 102a 4889CE   		movq	%rcx, %rsi
 2581 102d 4889C7   		movq	%rax, %rdi
 2582 1030 E8000000 		call	_ZN8UnitTest11TestDetailsC1ERKS0_i
 2582      00
  95:TestChecks.cpp ****     CHECK_EQUAL(101, reporter.lastFailedLine);
 2583              		.loc 5 95 0 is_stmt 0 discriminator 10
 2584 1035 E8000000 		call	_ZN8UnitTest11CurrentTest7ResultsEv
 2584      00
 2585 103a 488B00   		movq	(%rax), %rax
 2586 103d 488D8D90 		leaq	-2160(%rbp), %rcx
 2586      F7FFFF
 2587 1044 BA000000 		movl	$.LC28, %edx
 2587      00
 2588 1049 4889CE   		movq	%rcx, %rsi
 2589 104c 4889C7   		movq	%rax, %rdi
 2590 104f E8000000 		call	_ZN8UnitTest11TestResults13OnTestFailureERKNS_11TestDetailsEPKc
 2590      00
 2591              	.LEHE65:
 2592              	.LEHB66:
  95:TestChecks.cpp ****     CHECK_EQUAL(101, reporter.lastFailedLine);
 2593              		.loc 5 95 0 discriminator 14
 2594 1054 E8000000 		call	__cxa_end_catch
 2594      00
 2595              	.LEHE66:
  95:TestChecks.cpp ****     CHECK_EQUAL(101, reporter.lastFailedLine);
 2596              		.loc 5 95 0
 2597 1059 E973FEFF 		jmp	.L110
 2597      FF
 2598              	.L123:
 2599 105e 4889C3   		movq	%rax, %rbx
 2600 1061 E8000000 		call	__cxa_end_catch
 2600      00
 2601 1066 EB5F     		jmp	.L105
 2602              	.L125:
 2603 1068 EB00     		jmp	.L113
 2604              	.L124:
 2605              	.L113:
  96:TestChecks.cpp **** }
 2606              		.loc 5 96 0 is_stmt 1
 2607 106a 4889C7   		movq	%rax, %rdi
 2608 106d E8000000 		call	__cxa_begin_catch
 2608      00
 2609              	.LEHB67:
 2610 1072 E8000000 		call	_ZN8UnitTest11CurrentTest7DetailsEv
 2610      00
 2611 1077 488B08   		movq	(%rax), %rcx
 2612 107a 488D8590 		leaq	-2160(%rbp), %rax
 2612      F7FFFF
 2613 1081 BA600000 		movl	$96, %edx
 2613      00
 2614 1086 4889CE   		movq	%rcx, %rsi
 2615 1089 4889C7   		movq	%rax, %rdi
 2616 108c E8000000 		call	_ZN8UnitTest11TestDetailsC1ERKS0_i
 2616      00
  96:TestChecks.cpp **** }
 2617              		.loc 5 96 0 is_stmt 0 discriminator 10
 2618 1091 E8000000 		call	_ZN8UnitTest11CurrentTest7ResultsEv
 2618      00
 2619 1096 488B00   		movq	(%rax), %rax
 2620 1099 488D8D90 		leaq	-2160(%rbp), %rcx
 2620      F7FFFF
 2621 10a0 BA000000 		movl	$.LC29, %edx
 2621      00
 2622 10a5 4889CE   		movq	%rcx, %rsi
 2623 10a8 4889C7   		movq	%rax, %rdi
 2624 10ab E8000000 		call	_ZN8UnitTest11TestResults13OnTestFailureERKNS_11TestDetailsEPKc
 2624      00
 2625              	.LEHE67:
 2626              	.LEHB68:
  96:TestChecks.cpp **** }
 2627              		.loc 5 96 0 discriminator 14
 2628 10b0 E8000000 		call	__cxa_end_catch
 2628      00
 2629              	.LEHE68:
  96:TestChecks.cpp **** }
 2630              		.loc 5 96 0
 2631 10b5 E972FEFF 		jmp	.L114
 2631      FF
 2632              	.L126:
 2633 10ba 4889C3   		movq	%rax, %rbx
 2634 10bd E8000000 		call	__cxa_end_catch
 2634      00
 2635 10c2 EB03     		jmp	.L105
 2636              	.L117:
 2637 10c4 4889C3   		movq	%rax, %rbx
 2638              	.L105:
  87:TestChecks.cpp ****     TestResults results(&reporter);
 2639              		.loc 5 87 0 is_stmt 1
 2640 10c7 488D85B0 		leaq	-2128(%rbp), %rax
 2640      F7FFFF
 2641 10ce 4889C7   		movq	%rax, %rdi
 2642 10d1 E8000000 		call	_ZN17RecordingReporterD1Ev
 2642      00
 2643 10d6 4889D8   		movq	%rbx, %rax
 2644 10d9 4889C7   		movq	%rax, %rdi
 2645              	.LEHB69:
 2646 10dc E8000000 		call	_Unwind_Resume
 2646      00
 2647              	.LEHE69:
 2648              	.L127:
 2649              		.loc 5 97 0
 2650 10e1 E8000000 		call	__stack_chk_fail
 2650      00
 2651              	.L116:
 2652 10e6 4881C4C8 		addq	$2248, %rsp
 2652      080000
 2653 10ed 5B       		popq	%rbx
 2654 10ee 5D       		popq	%rbp
 2655              		.cfi_def_cfa 7, 8
 2656 10ef C3       		ret
 2657              		.cfi_endproc
 2658              	.LFE1114:
 2659              		.section	.gcc_except_table
 2660              		.align 4
 2661              	.LLSDA1114:
 2662 0170 FF       		.byte	0xff
 2663 0171 03       		.byte	0x3
 2664 0172 65       		.uleb128 .LLSDATT1114-.LLSDATTD1114
 2665              	.LLSDATTD1114:
 2666 0173 01       		.byte	0x1
 2667 0174 5D       		.uleb128 .LLSDACSE1114-.LLSDACSB1114
 2668              	.LLSDACSB1114:
 2669 0175 45       		.uleb128 .LEHB54-.LFB1114
 2670 0176 61       		.uleb128 .LEHE54-.LEHB54
 2671 0177 8607     		.uleb128 .L117-.LFB1114
 2672 0179 00       		.uleb128 0
 2673 017a A601     		.uleb128 .LEHB55-.LFB1114
 2674 017c 4F       		.uleb128 .LEHE55-.LEHB55
 2675 017d 9604     		.uleb128 .L118-.LFB1114
 2676 017f 01       		.uleb128 0x1
 2677 0180 F501     		.uleb128 .LEHB56-.LFB1114
 2678 0182 4F       		.uleb128 .LEHE56-.LEHB56
 2679 0183 F304     		.uleb128 .L120-.LFB1114
 2680 0185 01       		.uleb128 0x1
 2681 0186 C402     		.uleb128 .LEHB57-.LFB1114
 2682 0188 4F       		.uleb128 .LEHE57-.LEHB57
 2683 0189 D005     		.uleb128 .L122-.LFB1114
 2684 018b 01       		.uleb128 0x1
 2685 018c 9303     		.uleb128 .LEHB58-.LFB1114
 2686 018e 1F       		.uleb128 .LEHE58-.LEHB58
 2687 018f AC06     		.uleb128 .L124-.LFB1114
 2688 0191 01       		.uleb128 0x1
 2689 0192 BC03     		.uleb128 .LEHB59-.LFB1114
 2690 0194 32       		.uleb128 .LEHE59-.LEHB59
 2691 0195 AA06     		.uleb128 .L125-.LFB1114
 2692 0197 01       		.uleb128 0x1
 2693 0198 F803     		.uleb128 .LEHB60-.LFB1114
 2694 019a 05       		.uleb128 .LEHE60-.LEHB60
 2695 019b 00       		.uleb128 0
 2696 019c 00       		.uleb128 0
 2697 019d 9E04     		.uleb128 .LEHB61-.LFB1114
 2698 019f 3E       		.uleb128 .LEHE61-.LEHB61
 2699 01a0 E604     		.uleb128 .L119-.LFB1114
 2700 01a2 00       		.uleb128 0
 2701 01a3 DC04     		.uleb128 .LEHB62-.LFB1114
 2702 01a5 05       		.uleb128 .LEHE62-.LEHB62
 2703 01a6 8607     		.uleb128 .L117-.LFB1114
 2704 01a8 00       		.uleb128 0
 2705 01a9 FB04     		.uleb128 .LEHB63-.LFB1114
 2706 01ab 3E       		.uleb128 .LEHE63-.LEHB63
 2707 01ac C305     		.uleb128 .L121-.LFB1114
 2708 01ae 00       		.uleb128 0
 2709 01af B905     		.uleb128 .LEHB64-.LFB1114
 2710 01b1 05       		.uleb128 .LEHE64-.LEHB64
 2711 01b2 8607     		.uleb128 .L117-.LFB1114
 2712 01b4 00       		.uleb128 0
 2713 01b5 D805     		.uleb128 .LEHB65-.LFB1114
 2714 01b7 3E       		.uleb128 .LEHE65-.LEHB65
 2715 01b8 A006     		.uleb128 .L123-.LFB1114
 2716 01ba 00       		.uleb128 0
 2717 01bb 9606     		.uleb128 .LEHB66-.LFB1114
 2718 01bd 05       		.uleb128 .LEHE66-.LEHB66
 2719 01be 8607     		.uleb128 .L117-.LFB1114
 2720 01c0 00       		.uleb128 0
 2721 01c1 B406     		.uleb128 .LEHB67-.LFB1114
 2722 01c3 3E       		.uleb128 .LEHE67-.LEHB67
 2723 01c4 FC06     		.uleb128 .L126-.LFB1114
 2724 01c6 00       		.uleb128 0
 2725 01c7 F206     		.uleb128 .LEHB68-.LFB1114
 2726 01c9 05       		.uleb128 .LEHE68-.LEHB68
 2727 01ca 8607     		.uleb128 .L117-.LFB1114
 2728 01cc 00       		.uleb128 0
 2729 01cd 9E07     		.uleb128 .LEHB69-.LFB1114
 2730 01cf 05       		.uleb128 .LEHE69-.LEHB69
 2731 01d0 00       		.uleb128 0
 2732 01d1 00       		.uleb128 0
 2733              	.LLSDACSE1114:
 2734 01d2 01       		.byte	0x1
 2735 01d3 00       		.byte	0
 2736              		.align 4
 2737 01d4 00000000 		.long	0
 2738              	
 2739              	.LLSDATT1114:
 2740              		.text
 2742              		.section	.rodata
 2743              	.LC30:
 2744 04e1 43686563 		.string	"CheckCloseTrue"
 2744      6B436C6F 
 2744      73655472 
 2744      756500
 2745              		.text
 2746              		.align 2
 2748              	_ZN12_GLOBAL__N_118TestCheckCloseTrueC2Ev:
 2749              	.LFB1116:
  98:TestChecks.cpp **** 
  99:TestChecks.cpp **** TEST(CheckCloseTrue)
 2750              		.loc 5 99 0
 2751              		.cfi_startproc
 2752 10f0 55       		pushq	%rbp
 2753              		.cfi_def_cfa_offset 16
 2754              		.cfi_offset 6, -16
 2755 10f1 4889E5   		movq	%rsp, %rbp
 2756              		.cfi_def_cfa_register 6
 2757 10f4 4883EC10 		subq	$16, %rsp
 2758 10f8 48897DF8 		movq	%rdi, -8(%rbp)
 2759              	.LBB15:
 2760              		.loc 5 99 0
 2761 10fc E8000000 		call	_ZN13UnitTestSuite12GetSuiteNameEv
 2761      00
 2762 1101 4889C2   		movq	%rax, %rdx
 2763 1104 488B45F8 		movq	-8(%rbp), %rax
 2764 1108 41B86300 		movl	$99, %r8d
 2764      0000
 2765 110e B9000000 		movl	$.LC2, %ecx
 2765      00
 2766 1113 BE000000 		movl	$.LC30, %esi
 2766      00
 2767 1118 4889C7   		movq	%rax, %rdi
 2768 111b E8000000 		call	_ZN8UnitTest4TestC2EPKcS2_S2_i
 2768      00
 2769 1120 BA000000 		movl	$_ZTVN12_GLOBAL__N_118TestCheckCloseTrueE+16, %edx
 2769      00
 2770 1125 488B45F8 		movq	-8(%rbp), %rax
 2771 1129 488910   		movq	%rdx, (%rax)
 2772              	.LBE15:
 2773 112c 90       		nop
 2774 112d C9       		leave
 2775              		.cfi_def_cfa 7, 8
 2776 112e C3       		ret
 2777              		.cfi_endproc
 2778              	.LFE1116:
 2780              		.set	_ZN12_GLOBAL__N_118TestCheckCloseTrueC1Ev,_ZN12_GLOBAL__N_118TestCheckCloseTrueC2Ev
 2781              		.local	_ZN12_GLOBAL__N_126testCheckCloseTrueInstanceE
 2782              		.comm	_ZN12_GLOBAL__N_126testCheckCloseTrueInstanceE,56,32
 2783              		.local	_ZN12_GLOBAL__N_119adderCheckCloseTrueE
 2784              		.comm	_ZN12_GLOBAL__N_119adderCheckCloseTrueE,1,1
 2785 112f 90       		.align 2
 2787              	_ZNK12_GLOBAL__N_118TestCheckCloseTrue7RunImplEv:
 2788              	.LFB1118:
 100:TestChecks.cpp **** {
 2789              		.loc 5 100 0
 2790              		.cfi_startproc
 2791              		.cfi_personality 0x3,__gxx_personality_v0
 2792              		.cfi_lsda 0x3,.LLSDA1118
 2793 1130 55       		pushq	%rbp
 2794              		.cfi_def_cfa_offset 16
 2795              		.cfi_offset 6, -16
 2796 1131 4889E5   		movq	%rsp, %rbp
 2797              		.cfi_def_cfa_register 6
 2798 1134 53       		pushq	%rbx
 2799 1135 4883EC78 		subq	$120, %rsp
 2800              		.cfi_offset 3, -24
 2801 1139 48897D88 		movq	%rdi, -120(%rbp)
 2802              		.loc 5 100 0
 2803 113d 64488B04 		movq	%fs:40, %rax
 2803      25280000 
 2803      00
 2804 1146 488945E8 		movq	%rax, -24(%rbp)
 2805 114a 31C0     		xorl	%eax, %eax
 101:TestChecks.cpp ****     TestResults results;
 2806              		.loc 5 101 0
 2807 114c 488D45A0 		leaq	-96(%rbp), %rax
 2808 1150 BE000000 		movl	$0, %esi
 2808      00
 2809 1155 4889C7   		movq	%rax, %rdi
 2810              	.LEHB70:
 2811 1158 E8000000 		call	_ZN8UnitTest11TestResultsC1EPNS_12TestReporterE
 2811      00
 102:TestChecks.cpp ****     CheckClose(results, 3.001f, 3.0f, 0.1f, TestDetails("", "", "", 0));
 2812              		.loc 5 102 0
 2813 115d 488D45C0 		leaq	-64(%rbp), %rax
 2814 1161 41B80000 		movl	$0, %r8d
 2814      0000
 2815 1167 B9000000 		movl	$.LC6, %ecx
 2815      00
 2816 116c BA000000 		movl	$.LC6, %edx
 2816      00
 2817 1171 BE000000 		movl	$.LC6, %esi
 2817      00
 2818 1176 4889C7   		movq	%rax, %rdi
 2819 1179 E8000000 		call	_ZN8UnitTest11TestDetailsC1EPKcS2_S2_i
 2819      00
 2820 117e F30F1005 		movss	.LC31(%rip), %xmm0
 2820      00000000 
 2821 1186 F30F1145 		movss	%xmm0, -100(%rbp)
 2821      9C
 2822 118b F30F1005 		movss	.LC32(%rip), %xmm0
 2822      00000000 
 2823 1193 F30F1145 		movss	%xmm0, -104(%rbp)
 2823      98
 2824 1198 F30F1005 		movss	.LC33(%rip), %xmm0
 2824      00000000 
 2825 11a0 F30F1145 		movss	%xmm0, -108(%rbp)
 2825      94
 2826 11a5 488D7DC0 		leaq	-64(%rbp), %rdi
 2827 11a9 488D4D9C 		leaq	-100(%rbp), %rcx
 2828 11ad 488D5598 		leaq	-104(%rbp), %rdx
 2829 11b1 488D7594 		leaq	-108(%rbp), %rsi
 2830 11b5 488D45A0 		leaq	-96(%rbp), %rax
 2831 11b9 4989F8   		movq	%rdi, %r8
 2832 11bc 4889C7   		movq	%rax, %rdi
 2833 11bf E8000000 		call	_ZN8UnitTest10CheckCloseIfffEEvRNS_11TestResultsERKT_RKT0_RKT1_RKNS_11TestDetailsE
 2833      00
 2834              	.LEHE70:
 2835              	.LEHB71:
 103:TestChecks.cpp ****     CHECK_EQUAL(0, results.GetFailureCount());
 2836              		.loc 5 103 0
 2837 11c4 E8000000 		call	_ZN8UnitTest11CurrentTest7DetailsEv
 2837      00
 2838 11c9 488B08   		movq	(%rax), %rcx
 2839 11cc 488D45C0 		leaq	-64(%rbp), %rax
 2840 11d0 BA670000 		movl	$103, %edx
 2840      00
 2841 11d5 4889CE   		movq	%rcx, %rsi
 2842 11d8 4889C7   		movq	%rax, %rdi
 2843 11db E8000000 		call	_ZN8UnitTest11TestDetailsC1ERKS0_i
 2843      00
 2844              		.loc 5 103 0 is_stmt 0 discriminator 2
 2845 11e0 488D45A0 		leaq	-96(%rbp), %rax
 2846 11e4 4889C7   		movq	%rax, %rdi
 2847 11e7 E8000000 		call	_ZNK8UnitTest11TestResults15GetFailureCountEv
 2847      00
 2848              	.LEHE71:
 2849 11ec 89459C   		movl	%eax, -100(%rbp)
 2850 11ef C7459800 		movl	$0, -104(%rbp)
 2850      000000
 2851              	.LEHB72:
 2852 11f6 E8000000 		call	_ZN8UnitTest11CurrentTest7ResultsEv
 2852      00
 2853              		.loc 5 103 0 discriminator 4
 2854 11fb 488B00   		movq	(%rax), %rax
 2855 11fe 488D4DC0 		leaq	-64(%rbp), %rcx
 2856 1202 488D559C 		leaq	-100(%rbp), %rdx
 2857 1206 488D7598 		leaq	-104(%rbp), %rsi
 2858 120a 4889C7   		movq	%rax, %rdi
 2859 120d E8000000 		call	_ZN8UnitTest10CheckEqualIiiEEvRNS_11TestResultsERKT_RKT0_RKNS_11TestDetailsE
 2859      00
 2860              	.LEHE72:
 104:TestChecks.cpp **** }
 2861              		.loc 5 104 0 is_stmt 1
 2862 1212 EB5C     		jmp	.L129
 2863              	.L136:
 2864 1214 EB00     		jmp	.L131
 2865              	.L135:
 2866              	.L131:
 103:TestChecks.cpp ****     CHECK_EQUAL(0, results.GetFailureCount());
 2867              		.loc 5 103 0
 2868 1216 4889C7   		movq	%rax, %rdi
 2869 1219 E8000000 		call	__cxa_begin_catch
 2869      00
 2870              	.LEHB73:
 2871 121e E8000000 		call	_ZN8UnitTest11CurrentTest7DetailsEv
 2871      00
 2872 1223 488B08   		movq	(%rax), %rcx
 2873 1226 488D45C0 		leaq	-64(%rbp), %rax
 2874 122a BA670000 		movl	$103, %edx
 2874      00
 2875 122f 4889CE   		movq	%rcx, %rsi
 2876 1232 4889C7   		movq	%rax, %rdi
 2877 1235 E8000000 		call	_ZN8UnitTest11TestDetailsC1ERKS0_i
 2877      00
 103:TestChecks.cpp ****     CHECK_EQUAL(0, results.GetFailureCount());
 2878              		.loc 5 103 0 is_stmt 0 discriminator 12
 2879 123a E8000000 		call	_ZN8UnitTest11CurrentTest7ResultsEv
 2879      00
 2880 123f 488B00   		movq	(%rax), %rax
 2881 1242 488D4DC0 		leaq	-64(%rbp), %rcx
 2882 1246 BA000000 		movl	$.LC9, %edx
 2882      00
 2883 124b 4889CE   		movq	%rcx, %rsi
 2884 124e 4889C7   		movq	%rax, %rdi
 2885 1251 E8000000 		call	_ZN8UnitTest11TestResults13OnTestFailureERKNS_11TestDetailsEPKc
 2885      00
 2886              	.LEHE73:
 2887              	.LEHB74:
 103:TestChecks.cpp ****     CHECK_EQUAL(0, results.GetFailureCount());
 2888              		.loc 5 103 0 discriminator 16
 2889 1256 E8000000 		call	__cxa_end_catch
 2889      00
 2890              	.LEHE74:
 2891              		.loc 5 104 0 is_stmt 1 discriminator 16
 2892 125b EB13     		jmp	.L129
 2893              	.L137:
 2894 125d 4889C3   		movq	%rax, %rbx
 103:TestChecks.cpp ****     CHECK_EQUAL(0, results.GetFailureCount());
 2895              		.loc 5 103 0
 2896 1260 E8000000 		call	__cxa_end_catch
 2896      00
 2897 1265 4889D8   		movq	%rbx, %rax
 2898 1268 4889C7   		movq	%rax, %rdi
 2899              	.LEHB75:
 2900 126b E8000000 		call	_Unwind_Resume
 2900      00
 2901              	.LEHE75:
 2902              	.L129:
 2903              		.loc 5 104 0
 2904 1270 488B45E8 		movq	-24(%rbp), %rax
 2905 1274 64483304 		xorq	%fs:40, %rax
 2905      25280000 
 2905      00
 2906 127d 7405     		je	.L134
 2907 127f E8000000 		call	__stack_chk_fail
 2907      00
 2908              	.L134:
 2909 1284 4883C478 		addq	$120, %rsp
 2910 1288 5B       		popq	%rbx
 2911 1289 5D       		popq	%rbp
 2912              		.cfi_def_cfa 7, 8
 2913 128a C3       		ret
 2914              		.cfi_endproc
 2915              	.LFE1118:
 2916              		.section	.gcc_except_table
 2917              		.align 4
 2918              	.LLSDA1118:
 2919 01d8 FF       		.byte	0xff
 2920 01d9 03       		.byte	0x3
 2921 01da 2D       		.uleb128 .LLSDATT1118-.LLSDATTD1118
 2922              	.LLSDATTD1118:
 2923 01db 01       		.byte	0x1
 2924 01dc 20       		.uleb128 .LLSDACSE1118-.LLSDACSB1118
 2925              	.LLSDACSB1118:
 2926 01dd 28       		.uleb128 .LEHB70-.LFB1118
 2927 01de 6C       		.uleb128 .LEHE70-.LEHB70
 2928 01df 00       		.uleb128 0
 2929 01e0 00       		.uleb128 0
 2930 01e1 9401     		.uleb128 .LEHB71-.LFB1118
 2931 01e3 28       		.uleb128 .LEHE71-.LEHB71
 2932 01e4 E601     		.uleb128 .L135-.LFB1118
 2933 01e6 01       		.uleb128 0x1
 2934 01e7 C601     		.uleb128 .LEHB72-.LFB1118
 2935 01e9 1C       		.uleb128 .LEHE72-.LEHB72
 2936 01ea E401     		.uleb128 .L136-.LFB1118
 2937 01ec 03       		.uleb128 0x3
 2938 01ed EE01     		.uleb128 .LEHB73-.LFB1118
 2939 01ef 38       		.uleb128 .LEHE73-.LEHB73
 2940 01f0 AD02     		.uleb128 .L137-.LFB1118
 2941 01f2 00       		.uleb128 0
 2942 01f3 A602     		.uleb128 .LEHB74-.LFB1118
 2943 01f5 05       		.uleb128 .LEHE74-.LEHB74
 2944 01f6 00       		.uleb128 0
 2945 01f7 00       		.uleb128 0
 2946 01f8 BB02     		.uleb128 .LEHB75-.LFB1118
 2947 01fa 05       		.uleb128 .LEHE75-.LEHB75
 2948 01fb 00       		.uleb128 0
 2949 01fc 00       		.uleb128 0
 2950              	.LLSDACSE1118:
 2951 01fd 01       		.byte	0x1
 2952 01fe 00       		.byte	0
 2953 01ff 00       		.byte	0
 2954 0200 7D       		.byte	0x7d
 2955 0201 000000   		.align 4
 2956 0204 00000000 		.long	0
 2957              	
 2958              	.LLSDATT1118:
 2959              		.text
 2961              		.section	.rodata
 2962              	.LC34:
 2963 04f0 43686563 		.string	"CheckCloseFalse"
 2963      6B436C6F 
 2963      73654661 
 2963      6C736500 
 2964              		.text
 2965 128b 90       		.align 2
 2967              	_ZN12_GLOBAL__N_119TestCheckCloseFalseC2Ev:
 2968              	.LFB1120:
 105:TestChecks.cpp **** 
 106:TestChecks.cpp **** TEST(CheckCloseFalse)
 2969              		.loc 5 106 0
 2970              		.cfi_startproc
 2971 128c 55       		pushq	%rbp
 2972              		.cfi_def_cfa_offset 16
 2973              		.cfi_offset 6, -16
 2974 128d 4889E5   		movq	%rsp, %rbp
 2975              		.cfi_def_cfa_register 6
 2976 1290 4883EC10 		subq	$16, %rsp
 2977 1294 48897DF8 		movq	%rdi, -8(%rbp)
 2978              	.LBB16:
 2979              		.loc 5 106 0
 2980 1298 E8000000 		call	_ZN13UnitTestSuite12GetSuiteNameEv
 2980      00
 2981 129d 4889C2   		movq	%rax, %rdx
 2982 12a0 488B45F8 		movq	-8(%rbp), %rax
 2983 12a4 41B86A00 		movl	$106, %r8d
 2983      0000
 2984 12aa B9000000 		movl	$.LC2, %ecx
 2984      00
 2985 12af BE000000 		movl	$.LC34, %esi
 2985      00
 2986 12b4 4889C7   		movq	%rax, %rdi
 2987 12b7 E8000000 		call	_ZN8UnitTest4TestC2EPKcS2_S2_i
 2987      00
 2988 12bc BA000000 		movl	$_ZTVN12_GLOBAL__N_119TestCheckCloseFalseE+16, %edx
 2988      00
 2989 12c1 488B45F8 		movq	-8(%rbp), %rax
 2990 12c5 488910   		movq	%rdx, (%rax)
 2991              	.LBE16:
 2992 12c8 90       		nop
 2993 12c9 C9       		leave
 2994              		.cfi_def_cfa 7, 8
 2995 12ca C3       		ret
 2996              		.cfi_endproc
 2997              	.LFE1120:
 2999              		.set	_ZN12_GLOBAL__N_119TestCheckCloseFalseC1Ev,_ZN12_GLOBAL__N_119TestCheckCloseFalseC2Ev
 3000              		.local	_ZN12_GLOBAL__N_127testCheckCloseFalseInstanceE
 3001              		.comm	_ZN12_GLOBAL__N_127testCheckCloseFalseInstanceE,56,32
 3002              		.local	_ZN12_GLOBAL__N_120adderCheckCloseFalseE
 3003              		.comm	_ZN12_GLOBAL__N_120adderCheckCloseFalseE,1,1
 3004 12cb 90       		.align 2
 3006              	_ZNK12_GLOBAL__N_119TestCheckCloseFalse7RunImplEv:
 3007              	.LFB1122:
 107:TestChecks.cpp **** {
 3008              		.loc 5 107 0
 3009              		.cfi_startproc
 3010              		.cfi_personality 0x3,__gxx_personality_v0
 3011              		.cfi_lsda 0x3,.LLSDA1122
 3012 12cc 55       		pushq	%rbp
 3013              		.cfi_def_cfa_offset 16
 3014              		.cfi_offset 6, -16
 3015 12cd 4889E5   		movq	%rsp, %rbp
 3016              		.cfi_def_cfa_register 6
 3017 12d0 53       		pushq	%rbx
 3018 12d1 4883EC78 		subq	$120, %rsp
 3019              		.cfi_offset 3, -24
 3020 12d5 48897D88 		movq	%rdi, -120(%rbp)
 3021              		.loc 5 107 0
 3022 12d9 64488B04 		movq	%fs:40, %rax
 3022      25280000 
 3022      00
 3023 12e2 488945E8 		movq	%rax, -24(%rbp)
 3024 12e6 31C0     		xorl	%eax, %eax
 108:TestChecks.cpp ****     TestResults results;
 3025              		.loc 5 108 0
 3026 12e8 488D45A0 		leaq	-96(%rbp), %rax
 3027 12ec BE000000 		movl	$0, %esi
 3027      00
 3028 12f1 4889C7   		movq	%rax, %rdi
 3029              	.LEHB76:
 3030 12f4 E8000000 		call	_ZN8UnitTest11TestResultsC1EPNS_12TestReporterE
 3030      00
 109:TestChecks.cpp ****     CheckClose(results, 3.12f, 3.0f, 0.1f, TestDetails("", "", "", 0));
 3031              		.loc 5 109 0
 3032 12f9 488D45C0 		leaq	-64(%rbp), %rax
 3033 12fd 41B80000 		movl	$0, %r8d
 3033      0000
 3034 1303 B9000000 		movl	$.LC6, %ecx
 3034      00
 3035 1308 BA000000 		movl	$.LC6, %edx
 3035      00
 3036 130d BE000000 		movl	$.LC6, %esi
 3036      00
 3037 1312 4889C7   		movq	%rax, %rdi
 3038 1315 E8000000 		call	_ZN8UnitTest11TestDetailsC1EPKcS2_S2_i
 3038      00
 3039 131a F30F1005 		movss	.LC31(%rip), %xmm0
 3039      00000000 
 3040 1322 F30F1145 		movss	%xmm0, -100(%rbp)
 3040      9C
 3041 1327 F30F1005 		movss	.LC32(%rip), %xmm0
 3041      00000000 
 3042 132f F30F1145 		movss	%xmm0, -104(%rbp)
 3042      98
 3043 1334 F30F1005 		movss	.LC35(%rip), %xmm0
 3043      00000000 
 3044 133c F30F1145 		movss	%xmm0, -108(%rbp)
 3044      94
 3045 1341 488D7DC0 		leaq	-64(%rbp), %rdi
 3046 1345 488D4D9C 		leaq	-100(%rbp), %rcx
 3047 1349 488D5598 		leaq	-104(%rbp), %rdx
 3048 134d 488D7594 		leaq	-108(%rbp), %rsi
 3049 1351 488D45A0 		leaq	-96(%rbp), %rax
 3050 1355 4989F8   		movq	%rdi, %r8
 3051 1358 4889C7   		movq	%rax, %rdi
 3052 135b E8000000 		call	_ZN8UnitTest10CheckCloseIfffEEvRNS_11TestResultsERKT_RKT0_RKT1_RKNS_11TestDetailsE
 3052      00
 3053              	.LEHE76:
 3054              	.LEHB77:
 110:TestChecks.cpp ****     CHECK_EQUAL(1, results.GetFailureCount());
 3055              		.loc 5 110 0
 3056 1360 E8000000 		call	_ZN8UnitTest11CurrentTest7DetailsEv
 3056      00
 3057 1365 488B08   		movq	(%rax), %rcx
 3058 1368 488D45C0 		leaq	-64(%rbp), %rax
 3059 136c BA6E0000 		movl	$110, %edx
 3059      00
 3060 1371 4889CE   		movq	%rcx, %rsi
 3061 1374 4889C7   		movq	%rax, %rdi
 3062 1377 E8000000 		call	_ZN8UnitTest11TestDetailsC1ERKS0_i
 3062      00
 3063              		.loc 5 110 0 is_stmt 0 discriminator 2
 3064 137c 488D45A0 		leaq	-96(%rbp), %rax
 3065 1380 4889C7   		movq	%rax, %rdi
 3066 1383 E8000000 		call	_ZNK8UnitTest11TestResults15GetFailureCountEv
 3066      00
 3067              	.LEHE77:
 3068 1388 89459C   		movl	%eax, -100(%rbp)
 3069 138b C7459801 		movl	$1, -104(%rbp)
 3069      000000
 3070              	.LEHB78:
 3071 1392 E8000000 		call	_ZN8UnitTest11CurrentTest7ResultsEv
 3071      00
 3072              		.loc 5 110 0 discriminator 4
 3073 1397 488B00   		movq	(%rax), %rax
 3074 139a 488D4DC0 		leaq	-64(%rbp), %rcx
 3075 139e 488D559C 		leaq	-100(%rbp), %rdx
 3076 13a2 488D7598 		leaq	-104(%rbp), %rsi
 3077 13a6 4889C7   		movq	%rax, %rdi
 3078 13a9 E8000000 		call	_ZN8UnitTest10CheckEqualIiiEEvRNS_11TestResultsERKT_RKT0_RKNS_11TestDetailsE
 3078      00
 3079              	.LEHE78:
 111:TestChecks.cpp **** }
 3080              		.loc 5 111 0 is_stmt 1
 3081 13ae EB5C     		jmp	.L139
 3082              	.L146:
 3083 13b0 EB00     		jmp	.L141
 3084              	.L145:
 3085              	.L141:
 110:TestChecks.cpp ****     CHECK_EQUAL(1, results.GetFailureCount());
 3086              		.loc 5 110 0
 3087 13b2 4889C7   		movq	%rax, %rdi
 3088 13b5 E8000000 		call	__cxa_begin_catch
 3088      00
 3089              	.LEHB79:
 3090 13ba E8000000 		call	_ZN8UnitTest11CurrentTest7DetailsEv
 3090      00
 3091 13bf 488B08   		movq	(%rax), %rcx
 3092 13c2 488D45C0 		leaq	-64(%rbp), %rax
 3093 13c6 BA6E0000 		movl	$110, %edx
 3093      00
 3094 13cb 4889CE   		movq	%rcx, %rsi
 3095 13ce 4889C7   		movq	%rax, %rdi
 3096 13d1 E8000000 		call	_ZN8UnitTest11TestDetailsC1ERKS0_i
 3096      00
 110:TestChecks.cpp ****     CHECK_EQUAL(1, results.GetFailureCount());
 3097              		.loc 5 110 0 is_stmt 0 discriminator 12
 3098 13d6 E8000000 		call	_ZN8UnitTest11CurrentTest7ResultsEv
 3098      00
 3099 13db 488B00   		movq	(%rax), %rax
 3100 13de 488D4DC0 		leaq	-64(%rbp), %rcx
 3101 13e2 BA000000 		movl	$.LC7, %edx
 3101      00
 3102 13e7 4889CE   		movq	%rcx, %rsi
 3103 13ea 4889C7   		movq	%rax, %rdi
 3104 13ed E8000000 		call	_ZN8UnitTest11TestResults13OnTestFailureERKNS_11TestDetailsEPKc
 3104      00
 3105              	.LEHE79:
 3106              	.LEHB80:
 110:TestChecks.cpp ****     CHECK_EQUAL(1, results.GetFailureCount());
 3107              		.loc 5 110 0 discriminator 16
 3108 13f2 E8000000 		call	__cxa_end_catch
 3108      00
 3109              	.LEHE80:
 3110              		.loc 5 111 0 is_stmt 1 discriminator 16
 3111 13f7 EB13     		jmp	.L139
 3112              	.L147:
 3113 13f9 4889C3   		movq	%rax, %rbx
 110:TestChecks.cpp ****     CHECK_EQUAL(1, results.GetFailureCount());
 3114              		.loc 5 110 0
 3115 13fc E8000000 		call	__cxa_end_catch
 3115      00
 3116 1401 4889D8   		movq	%rbx, %rax
 3117 1404 4889C7   		movq	%rax, %rdi
 3118              	.LEHB81:
 3119 1407 E8000000 		call	_Unwind_Resume
 3119      00
 3120              	.LEHE81:
 3121              	.L139:
 3122              		.loc 5 111 0
 3123 140c 488B45E8 		movq	-24(%rbp), %rax
 3124 1410 64483304 		xorq	%fs:40, %rax
 3124      25280000 
 3124      00
 3125 1419 7405     		je	.L144
 3126 141b E8000000 		call	__stack_chk_fail
 3126      00
 3127              	.L144:
 3128 1420 4883C478 		addq	$120, %rsp
 3129 1424 5B       		popq	%rbx
 3130 1425 5D       		popq	%rbp
 3131              		.cfi_def_cfa 7, 8
 3132 1426 C3       		ret
 3133              		.cfi_endproc
 3134              	.LFE1122:
 3135              		.section	.gcc_except_table
 3136              		.align 4
 3137              	.LLSDA1122:
 3138 0208 FF       		.byte	0xff
 3139 0209 03       		.byte	0x3
 3140 020a 2D       		.uleb128 .LLSDATT1122-.LLSDATTD1122
 3141              	.LLSDATTD1122:
 3142 020b 01       		.byte	0x1
 3143 020c 20       		.uleb128 .LLSDACSE1122-.LLSDACSB1122
 3144              	.LLSDACSB1122:
 3145 020d 28       		.uleb128 .LEHB76-.LFB1122
 3146 020e 6C       		.uleb128 .LEHE76-.LEHB76
 3147 020f 00       		.uleb128 0
 3148 0210 00       		.uleb128 0
 3149 0211 9401     		.uleb128 .LEHB77-.LFB1122
 3150 0213 28       		.uleb128 .LEHE77-.LEHB77
 3151 0214 E601     		.uleb128 .L145-.LFB1122
 3152 0216 01       		.uleb128 0x1
 3153 0217 C601     		.uleb128 .LEHB78-.LFB1122
 3154 0219 1C       		.uleb128 .LEHE78-.LEHB78
 3155 021a E401     		.uleb128 .L146-.LFB1122
 3156 021c 03       		.uleb128 0x3
 3157 021d EE01     		.uleb128 .LEHB79-.LFB1122
 3158 021f 38       		.uleb128 .LEHE79-.LEHB79
 3159 0220 AD02     		.uleb128 .L147-.LFB1122
 3160 0222 00       		.uleb128 0
 3161 0223 A602     		.uleb128 .LEHB80-.LFB1122
 3162 0225 05       		.uleb128 .LEHE80-.LEHB80
 3163 0226 00       		.uleb128 0
 3164 0227 00       		.uleb128 0
 3165 0228 BB02     		.uleb128 .LEHB81-.LFB1122
 3166 022a 05       		.uleb128 .LEHE81-.LEHB81
 3167 022b 00       		.uleb128 0
 3168 022c 00       		.uleb128 0
 3169              	.LLSDACSE1122:
 3170 022d 01       		.byte	0x1
 3171 022e 00       		.byte	0
 3172 022f 00       		.byte	0
 3173 0230 7D       		.byte	0x7d
 3174 0231 000000   		.align 4
 3175 0234 00000000 		.long	0
 3176              	
 3177              	.LLSDATT1122:
 3178              		.text
 3180              		.section	.rodata
 3181              		.align 8
 3182              	.LC36:
 3183 0500 43686563 		.string	"CheckCloseWithZeroEpsilonWorksForSameNumber"
 3183      6B436C6F 
 3183      73655769 
 3183      74685A65 
 3183      726F4570 
 3184              		.text
 3185 1427 90       		.align 2
 3187              	_ZN12_GLOBAL__N_147TestCheckCloseWithZeroEpsilonWorksForSameNumberC2Ev:
 3188              	.LFB1124:
 112:TestChecks.cpp **** 
 113:TestChecks.cpp **** TEST(CheckCloseWithZeroEpsilonWorksForSameNumber)
 3189              		.loc 5 113 0
 3190              		.cfi_startproc
 3191 1428 55       		pushq	%rbp
 3192              		.cfi_def_cfa_offset 16
 3193              		.cfi_offset 6, -16
 3194 1429 4889E5   		movq	%rsp, %rbp
 3195              		.cfi_def_cfa_register 6
 3196 142c 4883EC10 		subq	$16, %rsp
 3197 1430 48897DF8 		movq	%rdi, -8(%rbp)
 3198              	.LBB17:
 3199              		.loc 5 113 0
 3200 1434 E8000000 		call	_ZN13UnitTestSuite12GetSuiteNameEv
 3200      00
 3201 1439 4889C2   		movq	%rax, %rdx
 3202 143c 488B45F8 		movq	-8(%rbp), %rax
 3203 1440 41B87100 		movl	$113, %r8d
 3203      0000
 3204 1446 B9000000 		movl	$.LC2, %ecx
 3204      00
 3205 144b BE000000 		movl	$.LC36, %esi
 3205      00
 3206 1450 4889C7   		movq	%rax, %rdi
 3207 1453 E8000000 		call	_ZN8UnitTest4TestC2EPKcS2_S2_i
 3207      00
 3208 1458 BA000000 		movl	$_ZTVN12_GLOBAL__N_147TestCheckCloseWithZeroEpsilonWorksForSameNumberE+16, %edx
 3208      00
 3209 145d 488B45F8 		movq	-8(%rbp), %rax
 3210 1461 488910   		movq	%rdx, (%rax)
 3211              	.LBE17:
 3212 1464 90       		nop
 3213 1465 C9       		leave
 3214              		.cfi_def_cfa 7, 8
 3215 1466 C3       		ret
 3216              		.cfi_endproc
 3217              	.LFE1124:
 3219              		.set	_ZN12_GLOBAL__N_147TestCheckCloseWithZeroEpsilonWorksForSameNumberC1Ev,_ZN12_GLOBAL__N_147Tes
 3220              		.local	_ZN12_GLOBAL__N_155testCheckCloseWithZeroEpsilonWorksForSameNumberInstanceE
 3221              		.comm	_ZN12_GLOBAL__N_155testCheckCloseWithZeroEpsilonWorksForSameNumberInstanceE,56,32
 3222              		.local	_ZN12_GLOBAL__N_148adderCheckCloseWithZeroEpsilonWorksForSameNumberE
 3223              		.comm	_ZN12_GLOBAL__N_148adderCheckCloseWithZeroEpsilonWorksForSameNumberE,1,1
 3224 1467 90       		.align 2
 3226              	_ZNK12_GLOBAL__N_147TestCheckCloseWithZeroEpsilonWorksForSameNumber7RunImplEv:
 3227              	.LFB1126:
 114:TestChecks.cpp **** {
 3228              		.loc 5 114 0
 3229              		.cfi_startproc
 3230              		.cfi_personality 0x3,__gxx_personality_v0
 3231              		.cfi_lsda 0x3,.LLSDA1126
 3232 1468 55       		pushq	%rbp
 3233              		.cfi_def_cfa_offset 16
 3234              		.cfi_offset 6, -16
 3235 1469 4889E5   		movq	%rsp, %rbp
 3236              		.cfi_def_cfa_register 6
 3237 146c 53       		pushq	%rbx
 3238 146d 4883EC78 		subq	$120, %rsp
 3239              		.cfi_offset 3, -24
 3240 1471 48897D88 		movq	%rdi, -120(%rbp)
 3241              		.loc 5 114 0
 3242 1475 64488B04 		movq	%fs:40, %rax
 3242      25280000 
 3242      00
 3243 147e 488945E8 		movq	%rax, -24(%rbp)
 3244 1482 31C0     		xorl	%eax, %eax
 115:TestChecks.cpp ****     TestResults results;
 3245              		.loc 5 115 0
 3246 1484 488D45A0 		leaq	-96(%rbp), %rax
 3247 1488 BE000000 		movl	$0, %esi
 3247      00
 3248 148d 4889C7   		movq	%rax, %rdi
 3249              	.LEHB82:
 3250 1490 E8000000 		call	_ZN8UnitTest11TestResultsC1EPNS_12TestReporterE
 3250      00
 116:TestChecks.cpp ****     CheckClose(results, 0.1f, 0.1f, 0, TestDetails("", "", "", 0));
 3251              		.loc 5 116 0
 3252 1495 488D45C0 		leaq	-64(%rbp), %rax
 3253 1499 41B80000 		movl	$0, %r8d
 3253      0000
 3254 149f B9000000 		movl	$.LC6, %ecx
 3254      00
 3255 14a4 BA000000 		movl	$.LC6, %edx
 3255      00
 3256 14a9 BE000000 		movl	$.LC6, %esi
 3256      00
 3257 14ae 4889C7   		movq	%rax, %rdi
 3258 14b1 E8000000 		call	_ZN8UnitTest11TestDetailsC1EPKcS2_S2_i
 3258      00
 3259 14b6 C7459C00 		movl	$0, -100(%rbp)
 3259      000000
 3260 14bd F30F1005 		movss	.LC31(%rip), %xmm0
 3260      00000000 
 3261 14c5 F30F1145 		movss	%xmm0, -104(%rbp)
 3261      98
 3262 14ca F30F1005 		movss	.LC31(%rip), %xmm0
 3262      00000000 
 3263 14d2 F30F1145 		movss	%xmm0, -108(%rbp)
 3263      94
 3264 14d7 488D7DC0 		leaq	-64(%rbp), %rdi
 3265 14db 488D4D9C 		leaq	-100(%rbp), %rcx
 3266 14df 488D5598 		leaq	-104(%rbp), %rdx
 3267 14e3 488D7594 		leaq	-108(%rbp), %rsi
 3268 14e7 488D45A0 		leaq	-96(%rbp), %rax
 3269 14eb 4989F8   		movq	%rdi, %r8
 3270 14ee 4889C7   		movq	%rax, %rdi
 3271 14f1 E8000000 		call	_ZN8UnitTest10CheckCloseIffiEEvRNS_11TestResultsERKT_RKT0_RKT1_RKNS_11TestDetailsE
 3271      00
 3272              	.LEHE82:
 3273              	.LEHB83:
 117:TestChecks.cpp ****     CHECK_EQUAL(0, results.GetFailureCount());
 3274              		.loc 5 117 0
 3275 14f6 E8000000 		call	_ZN8UnitTest11CurrentTest7DetailsEv
 3275      00
 3276 14fb 488B08   		movq	(%rax), %rcx
 3277 14fe 488D45C0 		leaq	-64(%rbp), %rax
 3278 1502 BA750000 		movl	$117, %edx
 3278      00
 3279 1507 4889CE   		movq	%rcx, %rsi
 3280 150a 4889C7   		movq	%rax, %rdi
 3281 150d E8000000 		call	_ZN8UnitTest11TestDetailsC1ERKS0_i
 3281      00
 3282              		.loc 5 117 0 is_stmt 0 discriminator 2
 3283 1512 488D45A0 		leaq	-96(%rbp), %rax
 3284 1516 4889C7   		movq	%rax, %rdi
 3285 1519 E8000000 		call	_ZNK8UnitTest11TestResults15GetFailureCountEv
 3285      00
 3286              	.LEHE83:
 3287 151e 89459C   		movl	%eax, -100(%rbp)
 3288 1521 C7459800 		movl	$0, -104(%rbp)
 3288      000000
 3289              	.LEHB84:
 3290 1528 E8000000 		call	_ZN8UnitTest11CurrentTest7ResultsEv
 3290      00
 3291              		.loc 5 117 0 discriminator 4
 3292 152d 488B00   		movq	(%rax), %rax
 3293 1530 488D4DC0 		leaq	-64(%rbp), %rcx
 3294 1534 488D559C 		leaq	-100(%rbp), %rdx
 3295 1538 488D7598 		leaq	-104(%rbp), %rsi
 3296 153c 4889C7   		movq	%rax, %rdi
 3297 153f E8000000 		call	_ZN8UnitTest10CheckEqualIiiEEvRNS_11TestResultsERKT_RKT0_RKNS_11TestDetailsE
 3297      00
 3298              	.LEHE84:
 118:TestChecks.cpp **** }
 3299              		.loc 5 118 0 is_stmt 1
 3300 1544 EB5C     		jmp	.L149
 3301              	.L156:
 3302 1546 EB00     		jmp	.L151
 3303              	.L155:
 3304              	.L151:
 117:TestChecks.cpp ****     CHECK_EQUAL(0, results.GetFailureCount());
 3305              		.loc 5 117 0
 3306 1548 4889C7   		movq	%rax, %rdi
 3307 154b E8000000 		call	__cxa_begin_catch
 3307      00
 3308              	.LEHB85:
 3309 1550 E8000000 		call	_ZN8UnitTest11CurrentTest7DetailsEv
 3309      00
 3310 1555 488B08   		movq	(%rax), %rcx
 3311 1558 488D45C0 		leaq	-64(%rbp), %rax
 3312 155c BA750000 		movl	$117, %edx
 3312      00
 3313 1561 4889CE   		movq	%rcx, %rsi
 3314 1564 4889C7   		movq	%rax, %rdi
 3315 1567 E8000000 		call	_ZN8UnitTest11TestDetailsC1ERKS0_i
 3315      00
 117:TestChecks.cpp ****     CHECK_EQUAL(0, results.GetFailureCount());
 3316              		.loc 5 117 0 is_stmt 0 discriminator 12
 3317 156c E8000000 		call	_ZN8UnitTest11CurrentTest7ResultsEv
 3317      00
 3318 1571 488B00   		movq	(%rax), %rax
 3319 1574 488D4DC0 		leaq	-64(%rbp), %rcx
 3320 1578 BA000000 		movl	$.LC9, %edx
 3320      00
 3321 157d 4889CE   		movq	%rcx, %rsi
 3322 1580 4889C7   		movq	%rax, %rdi
 3323 1583 E8000000 		call	_ZN8UnitTest11TestResults13OnTestFailureERKNS_11TestDetailsEPKc
 3323      00
 3324              	.LEHE85:
 3325              	.LEHB86:
 117:TestChecks.cpp ****     CHECK_EQUAL(0, results.GetFailureCount());
 3326              		.loc 5 117 0 discriminator 16
 3327 1588 E8000000 		call	__cxa_end_catch
 3327      00
 3328              	.LEHE86:
 3329              		.loc 5 118 0 is_stmt 1 discriminator 16
 3330 158d EB13     		jmp	.L149
 3331              	.L157:
 3332 158f 4889C3   		movq	%rax, %rbx
 117:TestChecks.cpp ****     CHECK_EQUAL(0, results.GetFailureCount());
 3333              		.loc 5 117 0
 3334 1592 E8000000 		call	__cxa_end_catch
 3334      00
 3335 1597 4889D8   		movq	%rbx, %rax
 3336 159a 4889C7   		movq	%rax, %rdi
 3337              	.LEHB87:
 3338 159d E8000000 		call	_Unwind_Resume
 3338      00
 3339              	.LEHE87:
 3340              	.L149:
 3341              		.loc 5 118 0
 3342 15a2 488B45E8 		movq	-24(%rbp), %rax
 3343 15a6 64483304 		xorq	%fs:40, %rax
 3343      25280000 
 3343      00
 3344 15af 7405     		je	.L154
 3345 15b1 E8000000 		call	__stack_chk_fail
 3345      00
 3346              	.L154:
 3347 15b6 4883C478 		addq	$120, %rsp
 3348 15ba 5B       		popq	%rbx
 3349 15bb 5D       		popq	%rbp
 3350              		.cfi_def_cfa 7, 8
 3351 15bc C3       		ret
 3352              		.cfi_endproc
 3353              	.LFE1126:
 3354              		.section	.gcc_except_table
 3355              		.align 4
 3356              	.LLSDA1126:
 3357 0238 FF       		.byte	0xff
 3358 0239 03       		.byte	0x3
 3359 023a 2D       		.uleb128 .LLSDATT1126-.LLSDATTD1126
 3360              	.LLSDATTD1126:
 3361 023b 01       		.byte	0x1
 3362 023c 20       		.uleb128 .LLSDACSE1126-.LLSDACSB1126
 3363              	.LLSDACSB1126:
 3364 023d 28       		.uleb128 .LEHB82-.LFB1126
 3365 023e 66       		.uleb128 .LEHE82-.LEHB82
 3366 023f 00       		.uleb128 0
 3367 0240 00       		.uleb128 0
 3368 0241 8E01     		.uleb128 .LEHB83-.LFB1126
 3369 0243 28       		.uleb128 .LEHE83-.LEHB83
 3370 0244 E001     		.uleb128 .L155-.LFB1126
 3371 0246 01       		.uleb128 0x1
 3372 0247 C001     		.uleb128 .LEHB84-.LFB1126
 3373 0249 1C       		.uleb128 .LEHE84-.LEHB84
 3374 024a DE01     		.uleb128 .L156-.LFB1126
 3375 024c 03       		.uleb128 0x3
 3376 024d E801     		.uleb128 .LEHB85-.LFB1126
 3377 024f 38       		.uleb128 .LEHE85-.LEHB85
 3378 0250 A702     		.uleb128 .L157-.LFB1126
 3379 0252 00       		.uleb128 0
 3380 0253 A002     		.uleb128 .LEHB86-.LFB1126
 3381 0255 05       		.uleb128 .LEHE86-.LEHB86
 3382 0256 00       		.uleb128 0
 3383 0257 00       		.uleb128 0
 3384 0258 B502     		.uleb128 .LEHB87-.LFB1126
 3385 025a 05       		.uleb128 .LEHE87-.LEHB87
 3386 025b 00       		.uleb128 0
 3387 025c 00       		.uleb128 0
 3388              	.LLSDACSE1126:
 3389 025d 01       		.byte	0x1
 3390 025e 00       		.byte	0
 3391 025f 00       		.byte	0
 3392 0260 7D       		.byte	0x7d
 3393 0261 000000   		.align 4
 3394 0264 00000000 		.long	0
 3395              	
 3396              	.LLSDATT1126:
 3397              		.text
 3399              		.section	.rodata
 3400              	.LC37:
 3401 052c 43686563 		.string	"CheckCloseWithNaNFails"
 3401      6B436C6F 
 3401      73655769 
 3401      74684E61 
 3401      4E466169 
 3402              		.text
 3403 15bd 90       		.align 2
 3405              	_ZN12_GLOBAL__N_126TestCheckCloseWithNaNFailsC2Ev:
 3406              	.LFB1128:
 119:TestChecks.cpp **** 
 120:TestChecks.cpp **** TEST(CheckCloseWithNaNFails)
 3407              		.loc 5 120 0
 3408              		.cfi_startproc
 3409 15be 55       		pushq	%rbp
 3410              		.cfi_def_cfa_offset 16
 3411              		.cfi_offset 6, -16
 3412 15bf 4889E5   		movq	%rsp, %rbp
 3413              		.cfi_def_cfa_register 6
 3414 15c2 4883EC10 		subq	$16, %rsp
 3415 15c6 48897DF8 		movq	%rdi, -8(%rbp)
 3416              	.LBB18:
 3417              		.loc 5 120 0
 3418 15ca E8000000 		call	_ZN13UnitTestSuite12GetSuiteNameEv
 3418      00
 3419 15cf 4889C2   		movq	%rax, %rdx
 3420 15d2 488B45F8 		movq	-8(%rbp), %rax
 3421 15d6 41B87800 		movl	$120, %r8d
 3421      0000
 3422 15dc B9000000 		movl	$.LC2, %ecx
 3422      00
 3423 15e1 BE000000 		movl	$.LC37, %esi
 3423      00
 3424 15e6 4889C7   		movq	%rax, %rdi
 3425 15e9 E8000000 		call	_ZN8UnitTest4TestC2EPKcS2_S2_i
 3425      00
 3426 15ee BA000000 		movl	$_ZTVN12_GLOBAL__N_126TestCheckCloseWithNaNFailsE+16, %edx
 3426      00
 3427 15f3 488B45F8 		movq	-8(%rbp), %rax
 3428 15f7 488910   		movq	%rdx, (%rax)
 3429              	.LBE18:
 3430 15fa 90       		nop
 3431 15fb C9       		leave
 3432              		.cfi_def_cfa 7, 8
 3433 15fc C3       		ret
 3434              		.cfi_endproc
 3435              	.LFE1128:
 3437              		.set	_ZN12_GLOBAL__N_126TestCheckCloseWithNaNFailsC1Ev,_ZN12_GLOBAL__N_126TestCheckCloseWithNaNFai
 3438              		.local	_ZN12_GLOBAL__N_134testCheckCloseWithNaNFailsInstanceE
 3439              		.comm	_ZN12_GLOBAL__N_134testCheckCloseWithNaNFailsInstanceE,56,32
 3440              		.local	_ZN12_GLOBAL__N_127adderCheckCloseWithNaNFailsE
 3441              		.comm	_ZN12_GLOBAL__N_127adderCheckCloseWithNaNFailsE,1,1
 3442 15fd 90       		.align 2
 3444              	_ZNK12_GLOBAL__N_126TestCheckCloseWithNaNFails7RunImplEv:
 3445              	.LFB1130:
 121:TestChecks.cpp **** {
 3446              		.loc 5 121 0
 3447              		.cfi_startproc
 3448              		.cfi_personality 0x3,__gxx_personality_v0
 3449              		.cfi_lsda 0x3,.LLSDA1130
 3450 15fe 55       		pushq	%rbp
 3451              		.cfi_def_cfa_offset 16
 3452              		.cfi_offset 6, -16
 3453 15ff 4889E5   		movq	%rsp, %rbp
 3454              		.cfi_def_cfa_register 6
 3455 1602 53       		pushq	%rbx
 3456 1603 4883EC78 		subq	$120, %rsp
 3457              		.cfi_offset 3, -24
 3458 1607 48897D88 		movq	%rdi, -120(%rbp)
 3459              		.loc 5 121 0
 3460 160b 64488B04 		movq	%fs:40, %rax
 3460      25280000 
 3460      00
 3461 1614 488945E8 		movq	%rax, -24(%rbp)
 3462 1618 31C0     		xorl	%eax, %eax
 122:TestChecks.cpp ****     union
 123:TestChecks.cpp ****     {
 124:TestChecks.cpp ****         unsigned int bitpattern;
 125:TestChecks.cpp ****         float nan;
 126:TestChecks.cpp ****     };
 127:TestChecks.cpp ****     bitpattern = 0xFFFFFFFF;
 3463              		.loc 5 127 0
 3464 161a C74590FF 		movl	$-1, -112(%rbp)
 3464      FFFFFF
 128:TestChecks.cpp ****     TestResults results;
 3465              		.loc 5 128 0
 3466 1621 488D45A0 		leaq	-96(%rbp), %rax
 3467 1625 BE000000 		movl	$0, %esi
 3467      00
 3468 162a 4889C7   		movq	%rax, %rdi
 3469              	.LEHB88:
 3470 162d E8000000 		call	_ZN8UnitTest11TestResultsC1EPNS_12TestReporterE
 3470      00
 129:TestChecks.cpp ****     CheckClose(results, 3.0f, nan, 0.1f, TestDetails("", "", "", 0));
 3471              		.loc 5 129 0
 3472 1632 488D45C0 		leaq	-64(%rbp), %rax
 3473 1636 41B80000 		movl	$0, %r8d
 3473      0000
 3474 163c B9000000 		movl	$.LC6, %ecx
 3474      00
 3475 1641 BA000000 		movl	$.LC6, %edx
 3475      00
 3476 1646 BE000000 		movl	$.LC6, %esi
 3476      00
 3477 164b 4889C7   		movq	%rax, %rdi
 3478 164e E8000000 		call	_ZN8UnitTest11TestDetailsC1EPKcS2_S2_i
 3478      00
 3479 1653 F30F1005 		movss	.LC31(%rip), %xmm0
 3479      00000000 
 3480 165b F30F1145 		movss	%xmm0, -100(%rbp)
 3480      9C
 3481 1660 F30F1005 		movss	.LC32(%rip), %xmm0
 3481      00000000 
 3482 1668 F30F1145 		movss	%xmm0, -104(%rbp)
 3482      98
 3483 166d 488D7DC0 		leaq	-64(%rbp), %rdi
 3484 1671 488D4D9C 		leaq	-100(%rbp), %rcx
 3485 1675 488D5590 		leaq	-112(%rbp), %rdx
 3486 1679 488D7598 		leaq	-104(%rbp), %rsi
 3487 167d 488D45A0 		leaq	-96(%rbp), %rax
 3488 1681 4989F8   		movq	%rdi, %r8
 3489 1684 4889C7   		movq	%rax, %rdi
 3490 1687 E8000000 		call	_ZN8UnitTest10CheckCloseIfffEEvRNS_11TestResultsERKT_RKT0_RKT1_RKNS_11TestDetailsE
 3490      00
 3491              	.LEHE88:
 3492              	.LEHB89:
 130:TestChecks.cpp ****     CHECK_EQUAL(1, results.GetFailureCount());
 3493              		.loc 5 130 0
 3494 168c E8000000 		call	_ZN8UnitTest11CurrentTest7DetailsEv
 3494      00
 3495 1691 488B08   		movq	(%rax), %rcx
 3496 1694 488D45C0 		leaq	-64(%rbp), %rax
 3497 1698 BA820000 		movl	$130, %edx
 3497      00
 3498 169d 4889CE   		movq	%rcx, %rsi
 3499 16a0 4889C7   		movq	%rax, %rdi
 3500 16a3 E8000000 		call	_ZN8UnitTest11TestDetailsC1ERKS0_i
 3500      00
 3501              		.loc 5 130 0 is_stmt 0 discriminator 2
 3502 16a8 488D45A0 		leaq	-96(%rbp), %rax
 3503 16ac 4889C7   		movq	%rax, %rdi
 3504 16af E8000000 		call	_ZNK8UnitTest11TestResults15GetFailureCountEv
 3504      00
 3505              	.LEHE89:
 3506 16b4 89459C   		movl	%eax, -100(%rbp)
 3507 16b7 C7459801 		movl	$1, -104(%rbp)
 3507      000000
 3508              	.LEHB90:
 3509 16be E8000000 		call	_ZN8UnitTest11CurrentTest7ResultsEv
 3509      00
 3510              		.loc 5 130 0 discriminator 4
 3511 16c3 488B00   		movq	(%rax), %rax
 3512 16c6 488D4DC0 		leaq	-64(%rbp), %rcx
 3513 16ca 488D559C 		leaq	-100(%rbp), %rdx
 3514 16ce 488D7598 		leaq	-104(%rbp), %rsi
 3515 16d2 4889C7   		movq	%rax, %rdi
 3516 16d5 E8000000 		call	_ZN8UnitTest10CheckEqualIiiEEvRNS_11TestResultsERKT_RKT0_RKNS_11TestDetailsE
 3516      00
 3517              	.LEHE90:
 131:TestChecks.cpp **** }
 3518              		.loc 5 131 0 is_stmt 1
 3519 16da EB5C     		jmp	.L159
 3520              	.L166:
 3521 16dc EB00     		jmp	.L161
 3522              	.L165:
 3523              	.L161:
 130:TestChecks.cpp ****     CHECK_EQUAL(1, results.GetFailureCount());
 3524              		.loc 5 130 0
 3525 16de 4889C7   		movq	%rax, %rdi
 3526 16e1 E8000000 		call	__cxa_begin_catch
 3526      00
 3527              	.LEHB91:
 3528 16e6 E8000000 		call	_ZN8UnitTest11CurrentTest7DetailsEv
 3528      00
 3529 16eb 488B08   		movq	(%rax), %rcx
 3530 16ee 488D45C0 		leaq	-64(%rbp), %rax
 3531 16f2 BA820000 		movl	$130, %edx
 3531      00
 3532 16f7 4889CE   		movq	%rcx, %rsi
 3533 16fa 4889C7   		movq	%rax, %rdi
 3534 16fd E8000000 		call	_ZN8UnitTest11TestDetailsC1ERKS0_i
 3534      00
 130:TestChecks.cpp ****     CHECK_EQUAL(1, results.GetFailureCount());
 3535              		.loc 5 130 0 is_stmt 0 discriminator 12
 3536 1702 E8000000 		call	_ZN8UnitTest11CurrentTest7ResultsEv
 3536      00
 3537 1707 488B00   		movq	(%rax), %rax
 3538 170a 488D4DC0 		leaq	-64(%rbp), %rcx
 3539 170e BA000000 		movl	$.LC7, %edx
 3539      00
 3540 1713 4889CE   		movq	%rcx, %rsi
 3541 1716 4889C7   		movq	%rax, %rdi
 3542 1719 E8000000 		call	_ZN8UnitTest11TestResults13OnTestFailureERKNS_11TestDetailsEPKc
 3542      00
 3543              	.LEHE91:
 3544              	.LEHB92:
 130:TestChecks.cpp ****     CHECK_EQUAL(1, results.GetFailureCount());
 3545              		.loc 5 130 0 discriminator 16
 3546 171e E8000000 		call	__cxa_end_catch
 3546      00
 3547              	.LEHE92:
 3548              		.loc 5 131 0 is_stmt 1 discriminator 16
 3549 1723 EB13     		jmp	.L159
 3550              	.L167:
 3551 1725 4889C3   		movq	%rax, %rbx
 130:TestChecks.cpp ****     CHECK_EQUAL(1, results.GetFailureCount());
 3552              		.loc 5 130 0
 3553 1728 E8000000 		call	__cxa_end_catch
 3553      00
 3554 172d 4889D8   		movq	%rbx, %rax
 3555 1730 4889C7   		movq	%rax, %rdi
 3556              	.LEHB93:
 3557 1733 E8000000 		call	_Unwind_Resume
 3557      00
 3558              	.LEHE93:
 3559              	.L159:
 3560              		.loc 5 131 0
 3561 1738 488B45E8 		movq	-24(%rbp), %rax
 3562 173c 64483304 		xorq	%fs:40, %rax
 3562      25280000 
 3562      00
 3563 1745 7405     		je	.L164
 3564 1747 E8000000 		call	__stack_chk_fail
 3564      00
 3565              	.L164:
 3566 174c 4883C478 		addq	$120, %rsp
 3567 1750 5B       		popq	%rbx
 3568 1751 5D       		popq	%rbp
 3569              		.cfi_def_cfa 7, 8
 3570 1752 C3       		ret
 3571              		.cfi_endproc
 3572              	.LFE1130:
 3573              		.section	.gcc_except_table
 3574              		.align 4
 3575              	.LLSDA1130:
 3576 0268 FF       		.byte	0xff
 3577 0269 03       		.byte	0x3
 3578 026a 2D       		.uleb128 .LLSDATT1130-.LLSDATTD1130
 3579              	.LLSDATTD1130:
 3580 026b 01       		.byte	0x1
 3581 026c 20       		.uleb128 .LLSDACSE1130-.LLSDACSB1130
 3582              	.LLSDACSB1130:
 3583 026d 2F       		.uleb128 .LEHB88-.LFB1130
 3584 026e 5F       		.uleb128 .LEHE88-.LEHB88
 3585 026f 00       		.uleb128 0
 3586 0270 00       		.uleb128 0
 3587 0271 8E01     		.uleb128 .LEHB89-.LFB1130
 3588 0273 28       		.uleb128 .LEHE89-.LEHB89
 3589 0274 E001     		.uleb128 .L165-.LFB1130
 3590 0276 01       		.uleb128 0x1
 3591 0277 C001     		.uleb128 .LEHB90-.LFB1130
 3592 0279 1C       		.uleb128 .LEHE90-.LEHB90
 3593 027a DE01     		.uleb128 .L166-.LFB1130
 3594 027c 03       		.uleb128 0x3
 3595 027d E801     		.uleb128 .LEHB91-.LFB1130
 3596 027f 38       		.uleb128 .LEHE91-.LEHB91
 3597 0280 A702     		.uleb128 .L167-.LFB1130
 3598 0282 00       		.uleb128 0
 3599 0283 A002     		.uleb128 .LEHB92-.LFB1130
 3600 0285 05       		.uleb128 .LEHE92-.LEHB92
 3601 0286 00       		.uleb128 0
 3602 0287 00       		.uleb128 0
 3603 0288 B502     		.uleb128 .LEHB93-.LFB1130
 3604 028a 05       		.uleb128 .LEHE93-.LEHB93
 3605 028b 00       		.uleb128 0
 3606 028c 00       		.uleb128 0
 3607              	.LLSDACSE1130:
 3608 028d 01       		.byte	0x1
 3609 028e 00       		.byte	0
 3610 028f 00       		.byte	0
 3611 0290 7D       		.byte	0x7d
 3612 0291 000000   		.align 4
 3613 0294 00000000 		.long	0
 3614              	
 3615              	.LLSDATT1130:
 3616              		.text
 3618              		.section	.rodata
 3619 0543 00000000 		.align 8
 3619      00
 3620              	.LC38:
 3621 0548 43686563 		.string	"CheckCloseWithNaNAgainstItselfFails"
 3621      6B436C6F 
 3621      73655769 
 3621      74684E61 
 3621      4E416761 
 3622              		.text
 3623 1753 90       		.align 2
 3625              	_ZN12_GLOBAL__N_139TestCheckCloseWithNaNAgainstItselfFailsC2Ev:
 3626              	.LFB1132:
 132:TestChecks.cpp **** 
 133:TestChecks.cpp **** TEST(CheckCloseWithNaNAgainstItselfFails)
 3627              		.loc 5 133 0
 3628              		.cfi_startproc
 3629 1754 55       		pushq	%rbp
 3630              		.cfi_def_cfa_offset 16
 3631              		.cfi_offset 6, -16
 3632 1755 4889E5   		movq	%rsp, %rbp
 3633              		.cfi_def_cfa_register 6
 3634 1758 4883EC10 		subq	$16, %rsp
 3635 175c 48897DF8 		movq	%rdi, -8(%rbp)
 3636              	.LBB19:
 3637              		.loc 5 133 0
 3638 1760 E8000000 		call	_ZN13UnitTestSuite12GetSuiteNameEv
 3638      00
 3639 1765 4889C2   		movq	%rax, %rdx
 3640 1768 488B45F8 		movq	-8(%rbp), %rax
 3641 176c 41B88500 		movl	$133, %r8d
 3641      0000
 3642 1772 B9000000 		movl	$.LC2, %ecx
 3642      00
 3643 1777 BE000000 		movl	$.LC38, %esi
 3643      00
 3644 177c 4889C7   		movq	%rax, %rdi
 3645 177f E8000000 		call	_ZN8UnitTest4TestC2EPKcS2_S2_i
 3645      00
 3646 1784 BA000000 		movl	$_ZTVN12_GLOBAL__N_139TestCheckCloseWithNaNAgainstItselfFailsE+16, %edx
 3646      00
 3647 1789 488B45F8 		movq	-8(%rbp), %rax
 3648 178d 488910   		movq	%rdx, (%rax)
 3649              	.LBE19:
 3650 1790 90       		nop
 3651 1791 C9       		leave
 3652              		.cfi_def_cfa 7, 8
 3653 1792 C3       		ret
 3654              		.cfi_endproc
 3655              	.LFE1132:
 3657              		.set	_ZN12_GLOBAL__N_139TestCheckCloseWithNaNAgainstItselfFailsC1Ev,_ZN12_GLOBAL__N_139TestCheckCl
 3658              		.local	_ZN12_GLOBAL__N_147testCheckCloseWithNaNAgainstItselfFailsInstanceE
 3659              		.comm	_ZN12_GLOBAL__N_147testCheckCloseWithNaNAgainstItselfFailsInstanceE,56,32
 3660              		.local	_ZN12_GLOBAL__N_140adderCheckCloseWithNaNAgainstItselfFailsE
 3661              		.comm	_ZN12_GLOBAL__N_140adderCheckCloseWithNaNAgainstItselfFailsE,1,1
 3662 1793 90       		.align 2
 3664              	_ZNK12_GLOBAL__N_139TestCheckCloseWithNaNAgainstItselfFails7RunImplEv:
 3665              	.LFB1134:
 134:TestChecks.cpp **** {
 3666              		.loc 5 134 0
 3667              		.cfi_startproc
 3668              		.cfi_personality 0x3,__gxx_personality_v0
 3669              		.cfi_lsda 0x3,.LLSDA1134
 3670 1794 55       		pushq	%rbp
 3671              		.cfi_def_cfa_offset 16
 3672              		.cfi_offset 6, -16
 3673 1795 4889E5   		movq	%rsp, %rbp
 3674              		.cfi_def_cfa_register 6
 3675 1798 53       		pushq	%rbx
 3676 1799 4883EC78 		subq	$120, %rsp
 3677              		.cfi_offset 3, -24
 3678 179d 48897D88 		movq	%rdi, -120(%rbp)
 3679              		.loc 5 134 0
 3680 17a1 64488B04 		movq	%fs:40, %rax
 3680      25280000 
 3680      00
 3681 17aa 488945E8 		movq	%rax, -24(%rbp)
 3682 17ae 31C0     		xorl	%eax, %eax
 135:TestChecks.cpp ****     union
 136:TestChecks.cpp ****     {
 137:TestChecks.cpp ****         unsigned int bitpattern;
 138:TestChecks.cpp ****         float nan;
 139:TestChecks.cpp ****     };
 140:TestChecks.cpp ****     bitpattern = 0xFFFFFFFF;
 3683              		.loc 5 140 0
 3684 17b0 C74590FF 		movl	$-1, -112(%rbp)
 3684      FFFFFF
 141:TestChecks.cpp ****     TestResults results;
 3685              		.loc 5 141 0
 3686 17b7 488D45A0 		leaq	-96(%rbp), %rax
 3687 17bb BE000000 		movl	$0, %esi
 3687      00
 3688 17c0 4889C7   		movq	%rax, %rdi
 3689              	.LEHB94:
 3690 17c3 E8000000 		call	_ZN8UnitTest11TestResultsC1EPNS_12TestReporterE
 3690      00
 142:TestChecks.cpp ****     CheckClose(results, nan, nan, 0.1f, TestDetails("", "", "", 0));
 3691              		.loc 5 142 0
 3692 17c8 488D45C0 		leaq	-64(%rbp), %rax
 3693 17cc 41B80000 		movl	$0, %r8d
 3693      0000
 3694 17d2 B9000000 		movl	$.LC6, %ecx
 3694      00
 3695 17d7 BA000000 		movl	$.LC6, %edx
 3695      00
 3696 17dc BE000000 		movl	$.LC6, %esi
 3696      00
 3697 17e1 4889C7   		movq	%rax, %rdi
 3698 17e4 E8000000 		call	_ZN8UnitTest11TestDetailsC1EPKcS2_S2_i
 3698      00
 3699 17e9 F30F1005 		movss	.LC31(%rip), %xmm0
 3699      00000000 
 3700 17f1 F30F1145 		movss	%xmm0, -100(%rbp)
 3700      9C
 3701 17f6 488D7DC0 		leaq	-64(%rbp), %rdi
 3702 17fa 488D4D9C 		leaq	-100(%rbp), %rcx
 3703 17fe 488D5590 		leaq	-112(%rbp), %rdx
 3704 1802 488D7590 		leaq	-112(%rbp), %rsi
 3705 1806 488D45A0 		leaq	-96(%rbp), %rax
 3706 180a 4989F8   		movq	%rdi, %r8
 3707 180d 4889C7   		movq	%rax, %rdi
 3708 1810 E8000000 		call	_ZN8UnitTest10CheckCloseIfffEEvRNS_11TestResultsERKT_RKT0_RKT1_RKNS_11TestDetailsE
 3708      00
 3709              	.LEHE94:
 3710              	.LEHB95:
 143:TestChecks.cpp ****     CHECK_EQUAL(1, results.GetFailureCount());
 3711              		.loc 5 143 0
 3712 1815 E8000000 		call	_ZN8UnitTest11CurrentTest7DetailsEv
 3712      00
 3713 181a 488B08   		movq	(%rax), %rcx
 3714 181d 488D45C0 		leaq	-64(%rbp), %rax
 3715 1821 BA8F0000 		movl	$143, %edx
 3715      00
 3716 1826 4889CE   		movq	%rcx, %rsi
 3717 1829 4889C7   		movq	%rax, %rdi
 3718 182c E8000000 		call	_ZN8UnitTest11TestDetailsC1ERKS0_i
 3718      00
 3719              		.loc 5 143 0 is_stmt 0 discriminator 2
 3720 1831 488D45A0 		leaq	-96(%rbp), %rax
 3721 1835 4889C7   		movq	%rax, %rdi
 3722 1838 E8000000 		call	_ZNK8UnitTest11TestResults15GetFailureCountEv
 3722      00
 3723              	.LEHE95:
 3724 183d 89459C   		movl	%eax, -100(%rbp)
 3725 1840 C7459801 		movl	$1, -104(%rbp)
 3725      000000
 3726              	.LEHB96:
 3727 1847 E8000000 		call	_ZN8UnitTest11CurrentTest7ResultsEv
 3727      00
 3728              		.loc 5 143 0 discriminator 4
 3729 184c 488B00   		movq	(%rax), %rax
 3730 184f 488D4DC0 		leaq	-64(%rbp), %rcx
 3731 1853 488D559C 		leaq	-100(%rbp), %rdx
 3732 1857 488D7598 		leaq	-104(%rbp), %rsi
 3733 185b 4889C7   		movq	%rax, %rdi
 3734 185e E8000000 		call	_ZN8UnitTest10CheckEqualIiiEEvRNS_11TestResultsERKT_RKT0_RKNS_11TestDetailsE
 3734      00
 3735              	.LEHE96:
 144:TestChecks.cpp **** }
 3736              		.loc 5 144 0 is_stmt 1
 3737 1863 EB5C     		jmp	.L169
 3738              	.L176:
 3739 1865 EB00     		jmp	.L171
 3740              	.L175:
 3741              	.L171:
 143:TestChecks.cpp ****     CHECK_EQUAL(1, results.GetFailureCount());
 3742              		.loc 5 143 0
 3743 1867 4889C7   		movq	%rax, %rdi
 3744 186a E8000000 		call	__cxa_begin_catch
 3744      00
 3745              	.LEHB97:
 3746 186f E8000000 		call	_ZN8UnitTest11CurrentTest7DetailsEv
 3746      00
 3747 1874 488B08   		movq	(%rax), %rcx
 3748 1877 488D45C0 		leaq	-64(%rbp), %rax
 3749 187b BA8F0000 		movl	$143, %edx
 3749      00
 3750 1880 4889CE   		movq	%rcx, %rsi
 3751 1883 4889C7   		movq	%rax, %rdi
 3752 1886 E8000000 		call	_ZN8UnitTest11TestDetailsC1ERKS0_i
 3752      00
 143:TestChecks.cpp ****     CHECK_EQUAL(1, results.GetFailureCount());
 3753              		.loc 5 143 0 is_stmt 0 discriminator 12
 3754 188b E8000000 		call	_ZN8UnitTest11CurrentTest7ResultsEv
 3754      00
 3755 1890 488B00   		movq	(%rax), %rax
 3756 1893 488D4DC0 		leaq	-64(%rbp), %rcx
 3757 1897 BA000000 		movl	$.LC7, %edx
 3757      00
 3758 189c 4889CE   		movq	%rcx, %rsi
 3759 189f 4889C7   		movq	%rax, %rdi
 3760 18a2 E8000000 		call	_ZN8UnitTest11TestResults13OnTestFailureERKNS_11TestDetailsEPKc
 3760      00
 3761              	.LEHE97:
 3762              	.LEHB98:
 143:TestChecks.cpp ****     CHECK_EQUAL(1, results.GetFailureCount());
 3763              		.loc 5 143 0 discriminator 16
 3764 18a7 E8000000 		call	__cxa_end_catch
 3764      00
 3765              	.LEHE98:
 3766              		.loc 5 144 0 is_stmt 1 discriminator 16
 3767 18ac EB13     		jmp	.L169
 3768              	.L177:
 3769 18ae 4889C3   		movq	%rax, %rbx
 143:TestChecks.cpp ****     CHECK_EQUAL(1, results.GetFailureCount());
 3770              		.loc 5 143 0
 3771 18b1 E8000000 		call	__cxa_end_catch
 3771      00
 3772 18b6 4889D8   		movq	%rbx, %rax
 3773 18b9 4889C7   		movq	%rax, %rdi
 3774              	.LEHB99:
 3775 18bc E8000000 		call	_Unwind_Resume
 3775      00
 3776              	.LEHE99:
 3777              	.L169:
 3778              		.loc 5 144 0
 3779 18c1 488B45E8 		movq	-24(%rbp), %rax
 3780 18c5 64483304 		xorq	%fs:40, %rax
 3780      25280000 
 3780      00
 3781 18ce 7405     		je	.L174
 3782 18d0 E8000000 		call	__stack_chk_fail
 3782      00
 3783              	.L174:
 3784 18d5 4883C478 		addq	$120, %rsp
 3785 18d9 5B       		popq	%rbx
 3786 18da 5D       		popq	%rbp
 3787              		.cfi_def_cfa 7, 8
 3788 18db C3       		ret
 3789              		.cfi_endproc
 3790              	.LFE1134:
 3791              		.section	.gcc_except_table
 3792              		.align 4
 3793              	.LLSDA1134:
 3794 0298 FF       		.byte	0xff
 3795 0299 03       		.byte	0x3
 3796 029a 2D       		.uleb128 .LLSDATT1134-.LLSDATTD1134
 3797              	.LLSDATTD1134:
 3798 029b 01       		.byte	0x1
 3799 029c 20       		.uleb128 .LLSDACSE1134-.LLSDACSB1134
 3800              	.LLSDACSB1134:
 3801 029d 2F       		.uleb128 .LEHB94-.LFB1134
 3802 029e 52       		.uleb128 .LEHE94-.LEHB94
 3803 029f 00       		.uleb128 0
 3804 02a0 00       		.uleb128 0
 3805 02a1 8101     		.uleb128 .LEHB95-.LFB1134
 3806 02a3 28       		.uleb128 .LEHE95-.LEHB95
 3807 02a4 D301     		.uleb128 .L175-.LFB1134
 3808 02a6 01       		.uleb128 0x1
 3809 02a7 B301     		.uleb128 .LEHB96-.LFB1134
 3810 02a9 1C       		.uleb128 .LEHE96-.LEHB96
 3811 02aa D101     		.uleb128 .L176-.LFB1134
 3812 02ac 03       		.uleb128 0x3
 3813 02ad DB01     		.uleb128 .LEHB97-.LFB1134
 3814 02af 38       		.uleb128 .LEHE97-.LEHB97
 3815 02b0 9A02     		.uleb128 .L177-.LFB1134
 3816 02b2 00       		.uleb128 0
 3817 02b3 9302     		.uleb128 .LEHB98-.LFB1134
 3818 02b5 05       		.uleb128 .LEHE98-.LEHB98
 3819 02b6 00       		.uleb128 0
 3820 02b7 00       		.uleb128 0
 3821 02b8 A802     		.uleb128 .LEHB99-.LFB1134
 3822 02ba 05       		.uleb128 .LEHE99-.LEHB99
 3823 02bb 00       		.uleb128 0
 3824 02bc 00       		.uleb128 0
 3825              	.LLSDACSE1134:
 3826 02bd 01       		.byte	0x1
 3827 02be 00       		.byte	0
 3828 02bf 00       		.byte	0
 3829 02c0 7D       		.byte	0x7d
 3830 02c1 000000   		.align 4
 3831 02c4 00000000 		.long	0
 3832              	
 3833              	.LLSDATT1134:
 3834              		.text
 3836              		.section	.rodata
 3837 056c 00000000 		.align 8
 3838              	.LC39:
 3839 0570 43686563 		.string	"CheckCloseFailureIncludesCheckExpectedAndActual"
 3839      6B436C6F 
 3839      73654661 
 3839      696C7572 
 3839      65496E63 
 3840              		.text
 3841              		.align 2
 3843              	_ZN12_GLOBAL__N_151TestCheckCloseFailureIncludesCheckExpectedAndActualC2Ev:
 3844              	.LFB1136:
 145:TestChecks.cpp **** 
 146:TestChecks.cpp **** TEST(CheckCloseFailureIncludesCheckExpectedAndActual)
 3845              		.loc 5 146 0
 3846              		.cfi_startproc
 3847 18dc 55       		pushq	%rbp
 3848              		.cfi_def_cfa_offset 16
 3849              		.cfi_offset 6, -16
 3850 18dd 4889E5   		movq	%rsp, %rbp
 3851              		.cfi_def_cfa_register 6
 3852 18e0 4883EC10 		subq	$16, %rsp
 3853 18e4 48897DF8 		movq	%rdi, -8(%rbp)
 3854              	.LBB20:
 3855              		.loc 5 146 0
 3856 18e8 E8000000 		call	_ZN13UnitTestSuite12GetSuiteNameEv
 3856      00
 3857 18ed 4889C2   		movq	%rax, %rdx
 3858 18f0 488B45F8 		movq	-8(%rbp), %rax
 3859 18f4 41B89200 		movl	$146, %r8d
 3859      0000
 3860 18fa B9000000 		movl	$.LC2, %ecx
 3860      00
 3861 18ff BE000000 		movl	$.LC39, %esi
 3861      00
 3862 1904 4889C7   		movq	%rax, %rdi
 3863 1907 E8000000 		call	_ZN8UnitTest4TestC2EPKcS2_S2_i
 3863      00
 3864 190c BA000000 		movl	$_ZTVN12_GLOBAL__N_151TestCheckCloseFailureIncludesCheckExpectedAndActualE+16, %edx
 3864      00
 3865 1911 488B45F8 		movq	-8(%rbp), %rax
 3866 1915 488910   		movq	%rdx, (%rax)
 3867              	.LBE20:
 3868 1918 90       		nop
 3869 1919 C9       		leave
 3870              		.cfi_def_cfa 7, 8
 3871 191a C3       		ret
 3872              		.cfi_endproc
 3873              	.LFE1136:
 3875              		.set	_ZN12_GLOBAL__N_151TestCheckCloseFailureIncludesCheckExpectedAndActualC1Ev,_ZN12_GLOBAL__N_15
 3876              		.local	_ZN12_GLOBAL__N_159testCheckCloseFailureIncludesCheckExpectedAndActualInstanceE
 3877              		.comm	_ZN12_GLOBAL__N_159testCheckCloseFailureIncludesCheckExpectedAndActualInstanceE,56,32
 3878              		.local	_ZN12_GLOBAL__N_152adderCheckCloseFailureIncludesCheckExpectedAndActualE
 3879              		.comm	_ZN12_GLOBAL__N_152adderCheckCloseFailureIncludesCheckExpectedAndActualE,1,1
 3880              		.section	.rodata
 3881              	.LC43:
 3882 05a0 78706563 		.string	"xpected 0.9"
 3882      74656420 
 3882      302E3900 
 3883 05ac 00000000 		.align 8
 3884              	.LC44:
 3885 05b0 73747273 		.string	"strstr(reporter.lastFailedMessage, \"xpected 0.9\")"
 3885      74722872 
 3885      65706F72 
 3885      7465722E 
 3885      6C617374 
 3886              	.LC45:
 3887 05e2 77617320 		.string	"was 1.1"
 3887      312E3100 
 3888 05ea 00000000 		.align 8
 3888      0000
 3889              	.LC46:
 3890 05f0 73747273 		.string	"strstr(reporter.lastFailedMessage, \"was 1.1\")"
 3890      74722872 
 3890      65706F72 
 3890      7465722E 
 3890      6C617374 
 3891 061e 0000     		.align 8
 3892              	.LC47:
 3893 0620 556E6861 		.string	"Unhandled exception in CHECK(strstr(reporter.lastFailedMessage, \"xpected 0.9\"))"
 3893      6E646C65 
 3893      64206578 
 3893      63657074 
 3893      696F6E20 
 3894              		.align 8
 3895              	.LC48:
 3896 0670 556E6861 		.string	"Unhandled exception in CHECK(strstr(reporter.lastFailedMessage, \"was 1.1\"))"
 3896      6E646C65 
 3896      64206578 
 3896      63657074 
 3896      696F6E20 
 3897              		.text
 3898 191b 90       		.align 2
 3900              	_ZNK12_GLOBAL__N_151TestCheckCloseFailureIncludesCheckExpectedAndActual7RunImplEv:
 3901              	.LFB1138:
 147:TestChecks.cpp **** {
 3902              		.loc 5 147 0
 3903              		.cfi_startproc
 3904              		.cfi_personality 0x3,__gxx_personality_v0
 3905              		.cfi_lsda 0x3,.LLSDA1138
 3906 191c 55       		pushq	%rbp
 3907              		.cfi_def_cfa_offset 16
 3908              		.cfi_offset 6, -16
 3909 191d 4889E5   		movq	%rsp, %rbp
 3910              		.cfi_def_cfa_register 6
 3911 1920 53       		pushq	%rbx
 3912 1921 4881ECA8 		subq	$2216, %rsp
 3912      080000
 3913              		.cfi_offset 3, -24
 3914 1928 4889BD58 		movq	%rdi, -2216(%rbp)
 3914      F7FFFF
 3915              		.loc 5 147 0
 3916 192f 64488B04 		movq	%fs:40, %rax
 3916      25280000 
 3916      00
 3917 1938 488945E8 		movq	%rax, -24(%rbp)
 3918 193c 31C0     		xorl	%eax, %eax
 148:TestChecks.cpp ****     RecordingReporter reporter;
 3919              		.loc 5 148 0
 3920 193e 488D85B0 		leaq	-2128(%rbp), %rax
 3920      F7FFFF
 3921 1945 4889C7   		movq	%rax, %rdi
 3922 1948 E8000000 		call	_ZN17RecordingReporterC1Ev
 3922      00
 149:TestChecks.cpp ****     TestResults results(&reporter);
 3923              		.loc 5 149 0
 3924 194d 488D95B0 		leaq	-2128(%rbp), %rdx
 3924      F7FFFF
 3925 1954 488D8570 		leaq	-2192(%rbp), %rax
 3925      F7FFFF
 3926 195b 4889D6   		movq	%rdx, %rsi
 3927 195e 4889C7   		movq	%rax, %rdi
 3928              	.LEHB100:
 3929 1961 E8000000 		call	_ZN8UnitTest11TestResultsC1EPNS_12TestReporterE
 3929      00
 150:TestChecks.cpp ****     const float expected = 0.9f;
 3930              		.loc 5 150 0
 3931 1966 F30F1005 		movss	.LC40(%rip), %xmm0
 3931      00000000 
 3932 196e F30F1185 		movss	%xmm0, -2204(%rbp)
 3932      64F7FFFF 
 151:TestChecks.cpp ****     const float actual = 1.1f;
 3933              		.loc 5 151 0
 3934 1976 F30F1005 		movss	.LC41(%rip), %xmm0
 3934      00000000 
 3935 197e F30F1185 		movss	%xmm0, -2200(%rbp)
 3935      68F7FFFF 
 152:TestChecks.cpp ****     CheckClose(results, expected, actual, 0.01f, TestDetails("", "", "", 0));
 3936              		.loc 5 152 0
 3937 1986 488D8590 		leaq	-2160(%rbp), %rax
 3937      F7FFFF
 3938 198d 41B80000 		movl	$0, %r8d
 3938      0000
 3939 1993 B9000000 		movl	$.LC6, %ecx
 3939      00
 3940 1998 BA000000 		movl	$.LC6, %edx
 3940      00
 3941 199d BE000000 		movl	$.LC6, %esi
 3941      00
 3942 19a2 4889C7   		movq	%rax, %rdi
 3943 19a5 E8000000 		call	_ZN8UnitTest11TestDetailsC1EPKcS2_S2_i
 3943      00
 3944              		.loc 5 152 0 is_stmt 0 discriminator 1
 3945 19aa F30F1005 		movss	.LC42(%rip), %xmm0
 3945      00000000 
 3946 19b2 F30F1185 		movss	%xmm0, -2196(%rbp)
 3946      6CF7FFFF 
 3947 19ba 488DBD90 		leaq	-2160(%rbp), %rdi
 3947      F7FFFF
 3948 19c1 488D8D6C 		leaq	-2196(%rbp), %rcx
 3948      F7FFFF
 3949 19c8 488D9568 		leaq	-2200(%rbp), %rdx
 3949      F7FFFF
 3950 19cf 488DB564 		leaq	-2204(%rbp), %rsi
 3950      F7FFFF
 3951 19d6 488D8570 		leaq	-2192(%rbp), %rax
 3951      F7FFFF
 3952 19dd 4989F8   		movq	%rdi, %r8
 3953 19e0 4889C7   		movq	%rax, %rdi
 3954 19e3 E8000000 		call	_ZN8UnitTest10CheckCloseIfffEEvRNS_11TestResultsERKT_RKT0_RKT1_RKNS_11TestDetailsE
 3954      00
 3955              	.LEHE100:
 153:TestChecks.cpp **** 
 154:TestChecks.cpp **** 	using namespace std;
 155:TestChecks.cpp ****     CHECK(strstr(reporter.lastFailedMessage, "xpected 0.9"));
 3956              		.loc 5 155 0 is_stmt 1 discriminator 3
 3957 19e8 488D85B0 		leaq	-2128(%rbp), %rax
 3957      F7FFFF
 3958 19ef 48051405 		addq	$1300, %rax
 3958      0000
 3959 19f5 BE000000 		movl	$.LC43, %esi
 3959      00
 3960 19fa 4889C7   		movq	%rax, %rdi
 3961 19fd E8000000 		call	strstr
 3961      00
 3962 1a02 4889C7   		movq	%rax, %rdi
 3963 1a05 E8000000 		call	_ZN8UnitTest5CheckIPcEEbT_
 3963      00
 3964 1a0a 83F001   		xorl	$1, %eax
 3965 1a0d 84C0     		testb	%al, %al
 3966 1a0f 743E     		je	.L180
 3967              	.LEHB101:
 3968              		.loc 5 155 0 is_stmt 0 discriminator 1
 3969 1a11 E8000000 		call	_ZN8UnitTest11CurrentTest7DetailsEv
 3969      00
 3970 1a16 488B08   		movq	(%rax), %rcx
 3971 1a19 488D8590 		leaq	-2160(%rbp), %rax
 3971      F7FFFF
 3972 1a20 BA9B0000 		movl	$155, %edx
 3972      00
 3973 1a25 4889CE   		movq	%rcx, %rsi
 3974 1a28 4889C7   		movq	%rax, %rdi
 3975 1a2b E8000000 		call	_ZN8UnitTest11TestDetailsC1ERKS0_i
 3975      00
 3976              		.loc 5 155 0 discriminator 3
 3977 1a30 E8000000 		call	_ZN8UnitTest11CurrentTest7ResultsEv
 3977      00
 3978 1a35 488B00   		movq	(%rax), %rax
 3979 1a38 488D8D90 		leaq	-2160(%rbp), %rcx
 3979      F7FFFF
 3980 1a3f BA000000 		movl	$.LC44, %edx
 3980      00
 3981 1a44 4889CE   		movq	%rcx, %rsi
 3982 1a47 4889C7   		movq	%rax, %rdi
 3983 1a4a E8000000 		call	_ZN8UnitTest11TestResults13OnTestFailureERKNS_11TestDetailsEPKc
 3983      00
 3984              	.LEHE101:
 3985              	.L180:
 156:TestChecks.cpp ****     CHECK(strstr(reporter.lastFailedMessage, "was 1.1"));
 3986              		.loc 5 156 0 is_stmt 1
 3987 1a4f 488D85B0 		leaq	-2128(%rbp), %rax
 3987      F7FFFF
 3988 1a56 48051405 		addq	$1300, %rax
 3988      0000
 3989 1a5c BE000000 		movl	$.LC45, %esi
 3989      00
 3990 1a61 4889C7   		movq	%rax, %rdi
 3991 1a64 E8000000 		call	strstr
 3991      00
 3992 1a69 4889C7   		movq	%rax, %rdi
 3993 1a6c E8000000 		call	_ZN8UnitTest5CheckIPcEEbT_
 3993      00
 3994 1a71 83F001   		xorl	$1, %eax
 3995 1a74 84C0     		testb	%al, %al
 3996 1a76 743E     		je	.L181
 3997              	.LEHB102:
 3998              		.loc 5 156 0 is_stmt 0 discriminator 1
 3999 1a78 E8000000 		call	_ZN8UnitTest11CurrentTest7DetailsEv
 3999      00
 4000 1a7d 488B08   		movq	(%rax), %rcx
 4001 1a80 488D8590 		leaq	-2160(%rbp), %rax
 4001      F7FFFF
 4002 1a87 BA9C0000 		movl	$156, %edx
 4002      00
 4003 1a8c 4889CE   		movq	%rcx, %rsi
 4004 1a8f 4889C7   		movq	%rax, %rdi
 4005 1a92 E8000000 		call	_ZN8UnitTest11TestDetailsC1ERKS0_i
 4005      00
 4006              		.loc 5 156 0 discriminator 3
 4007 1a97 E8000000 		call	_ZN8UnitTest11CurrentTest7ResultsEv
 4007      00
 4008 1a9c 488B00   		movq	(%rax), %rax
 4009 1a9f 488D8D90 		leaq	-2160(%rbp), %rcx
 4009      F7FFFF
 4010 1aa6 BA000000 		movl	$.LC46, %edx
 4010      00
 4011 1aab 4889CE   		movq	%rcx, %rsi
 4012 1aae 4889C7   		movq	%rax, %rdi
 4013 1ab1 E8000000 		call	_ZN8UnitTest11TestResults13OnTestFailureERKNS_11TestDetailsEPKc
 4013      00
 4014              	.LEHE102:
 4015              	.L181:
 148:TestChecks.cpp ****     TestResults results(&reporter);
 4016              		.loc 5 148 0 is_stmt 1
 4017 1ab6 488D85B0 		leaq	-2128(%rbp), %rax
 4017      F7FFFF
 4018 1abd 4889C7   		movq	%rax, %rdi
 4019              	.LEHB103:
 4020 1ac0 E8000000 		call	_ZN17RecordingReporterD1Ev
 4020      00
 4021              	.LEHE103:
 157:TestChecks.cpp **** }
 4022              		.loc 5 157 0
 4023 1ac5 90       		nop
 4024 1ac6 488B45E8 		movq	-24(%rbp), %rax
 4025 1aca 64483304 		xorq	%fs:40, %rax
 4025      25280000 
 4025      00
 4026 1ad3 0F84DB00 		je	.L187
 4026      0000
 4027 1ad9 E9D10000 		jmp	.L193
 4027      00
 4028              	.L189:
 155:TestChecks.cpp ****     CHECK(strstr(reporter.lastFailedMessage, "was 1.1"));
 4029              		.loc 5 155 0
 4030 1ade 4889C7   		movq	%rax, %rdi
 4031 1ae1 E8000000 		call	__cxa_begin_catch
 4031      00
 4032              	.LEHB104:
 4033 1ae6 E8000000 		call	_ZN8UnitTest11CurrentTest7DetailsEv
 4033      00
 4034 1aeb 488B08   		movq	(%rax), %rcx
 4035 1aee 488D8590 		leaq	-2160(%rbp), %rax
 4035      F7FFFF
 4036 1af5 BA9B0000 		movl	$155, %edx
 4036      00
 4037 1afa 4889CE   		movq	%rcx, %rsi
 4038 1afd 4889C7   		movq	%rax, %rdi
 4039 1b00 E8000000 		call	_ZN8UnitTest11TestDetailsC1ERKS0_i
 4039      00
 155:TestChecks.cpp ****     CHECK(strstr(reporter.lastFailedMessage, "was 1.1"));
 4040              		.loc 5 155 0 is_stmt 0 discriminator 11
 4041 1b05 E8000000 		call	_ZN8UnitTest11CurrentTest7ResultsEv
 4041      00
 4042 1b0a 488B00   		movq	(%rax), %rax
 4043 1b0d 488D8D90 		leaq	-2160(%rbp), %rcx
 4043      F7FFFF
 4044 1b14 BA000000 		movl	$.LC47, %edx
 4044      00
 4045 1b19 4889CE   		movq	%rcx, %rsi
 4046 1b1c 4889C7   		movq	%rax, %rdi
 4047 1b1f E8000000 		call	_ZN8UnitTest11TestResults13OnTestFailureERKNS_11TestDetailsEPKc
 4047      00
 4048              	.LEHE104:
 4049              	.LEHB105:
 155:TestChecks.cpp ****     CHECK(strstr(reporter.lastFailedMessage, "was 1.1"));
 4050              		.loc 5 155 0 discriminator 15
 4051 1b24 E8000000 		call	__cxa_end_catch
 4051      00
 4052              	.LEHE105:
 155:TestChecks.cpp ****     CHECK(strstr(reporter.lastFailedMessage, "was 1.1"));
 4053              		.loc 5 155 0
 4054 1b29 E921FFFF 		jmp	.L180
 4054      FF
 4055              	.L190:
 4056 1b2e 4889C3   		movq	%rax, %rbx
 4057 1b31 E8000000 		call	__cxa_end_catch
 4057      00
 4058 1b36 EB5D     		jmp	.L184
 4059              	.L191:
 156:TestChecks.cpp **** }
 4060              		.loc 5 156 0 is_stmt 1
 4061 1b38 4889C7   		movq	%rax, %rdi
 4062 1b3b E8000000 		call	__cxa_begin_catch
 4062      00
 4063              	.LEHB106:
 4064 1b40 E8000000 		call	_ZN8UnitTest11CurrentTest7DetailsEv
 4064      00
 4065 1b45 488B08   		movq	(%rax), %rcx
 4066 1b48 488D8590 		leaq	-2160(%rbp), %rax
 4066      F7FFFF
 4067 1b4f BA9C0000 		movl	$156, %edx
 4067      00
 4068 1b54 4889CE   		movq	%rcx, %rsi
 4069 1b57 4889C7   		movq	%rax, %rdi
 4070 1b5a E8000000 		call	_ZN8UnitTest11TestDetailsC1ERKS0_i
 4070      00
 156:TestChecks.cpp **** }
 4071              		.loc 5 156 0 is_stmt 0 discriminator 11
 4072 1b5f E8000000 		call	_ZN8UnitTest11CurrentTest7ResultsEv
 4072      00
 4073 1b64 488B00   		movq	(%rax), %rax
 4074 1b67 488D8D90 		leaq	-2160(%rbp), %rcx
 4074      F7FFFF
 4075 1b6e BA000000 		movl	$.LC48, %edx
 4075      00
 4076 1b73 4889CE   		movq	%rcx, %rsi
 4077 1b76 4889C7   		movq	%rax, %rdi
 4078 1b79 E8000000 		call	_ZN8UnitTest11TestResults13OnTestFailureERKNS_11TestDetailsEPKc
 4078      00
 4079              	.LEHE106:
 4080              	.LEHB107:
 156:TestChecks.cpp **** }
 4081              		.loc 5 156 0 discriminator 15
 4082 1b7e E8000000 		call	__cxa_end_catch
 4082      00
 4083              	.LEHE107:
 156:TestChecks.cpp **** }
 4084              		.loc 5 156 0
 4085 1b83 E92EFFFF 		jmp	.L181
 4085      FF
 4086              	.L192:
 4087 1b88 4889C3   		movq	%rax, %rbx
 4088 1b8b E8000000 		call	__cxa_end_catch
 4088      00
 4089 1b90 EB03     		jmp	.L184
 4090              	.L188:
 4091 1b92 4889C3   		movq	%rax, %rbx
 4092              	.L184:
 148:TestChecks.cpp ****     TestResults results(&reporter);
 4093              		.loc 5 148 0 is_stmt 1
 4094 1b95 488D85B0 		leaq	-2128(%rbp), %rax
 4094      F7FFFF
 4095 1b9c 4889C7   		movq	%rax, %rdi
 4096 1b9f E8000000 		call	_ZN17RecordingReporterD1Ev
 4096      00
 4097 1ba4 4889D8   		movq	%rbx, %rax
 4098 1ba7 4889C7   		movq	%rax, %rdi
 4099              	.LEHB108:
 4100 1baa E8000000 		call	_Unwind_Resume
 4100      00
 4101              	.LEHE108:
 4102              	.L193:
 4103              		.loc 5 157 0
 4104 1baf E8000000 		call	__stack_chk_fail
 4104      00
 4105              	.L187:
 4106 1bb4 4881C4A8 		addq	$2216, %rsp
 4106      080000
 4107 1bbb 5B       		popq	%rbx
 4108 1bbc 5D       		popq	%rbp
 4109              		.cfi_def_cfa 7, 8
 4110 1bbd C3       		ret
 4111              		.cfi_endproc
 4112              	.LFE1138:
 4113              		.section	.gcc_except_table
 4114              		.align 4
 4115              	.LLSDA1138:
 4116 02c8 FF       		.byte	0xff
 4117 02c9 03       		.byte	0x3
 4118 02ca 3D       		.uleb128 .LLSDATT1138-.LLSDATTD1138
 4119              	.LLSDATTD1138:
 4120 02cb 01       		.byte	0x1
 4121 02cc 34       		.uleb128 .LLSDACSE1138-.LLSDACSB1138
 4122              	.LLSDACSB1138:
 4123 02cd 45       		.uleb128 .LEHB100-.LFB1138
 4124 02ce 8701     		.uleb128 .LEHE100-.LEHB100
 4125 02d0 F604     		.uleb128 .L188-.LFB1138
 4126 02d2 00       		.uleb128 0
 4127 02d3 F501     		.uleb128 .LEHB101-.LFB1138
 4128 02d5 3E       		.uleb128 .LEHE101-.LEHB101
 4129 02d6 C203     		.uleb128 .L189-.LFB1138
 4130 02d8 01       		.uleb128 0x1
 4131 02d9 DC02     		.uleb128 .LEHB102-.LFB1138
 4132 02db 3E       		.uleb128 .LEHE102-.LEHB102
 4133 02dc 9C04     		.uleb128 .L191-.LFB1138
 4134 02de 01       		.uleb128 0x1
 4135 02df A403     		.uleb128 .LEHB103-.LFB1138
 4136 02e1 05       		.uleb128 .LEHE103-.LEHB103
 4137 02e2 00       		.uleb128 0
 4138 02e3 00       		.uleb128 0
 4139 02e4 CA03     		.uleb128 .LEHB104-.LFB1138
 4140 02e6 3E       		.uleb128 .LEHE104-.LEHB104
 4141 02e7 9204     		.uleb128 .L190-.LFB1138
 4142 02e9 00       		.uleb128 0
 4143 02ea 8804     		.uleb128 .LEHB105-.LFB1138
 4144 02ec 05       		.uleb128 .LEHE105-.LEHB105
 4145 02ed F604     		.uleb128 .L188-.LFB1138
 4146 02ef 00       		.uleb128 0
 4147 02f0 A404     		.uleb128 .LEHB106-.LFB1138
 4148 02f2 3E       		.uleb128 .LEHE106-.LEHB106
 4149 02f3 EC04     		.uleb128 .L192-.LFB1138
 4150 02f5 00       		.uleb128 0
 4151 02f6 E204     		.uleb128 .LEHB107-.LFB1138
 4152 02f8 05       		.uleb128 .LEHE107-.LEHB107
 4153 02f9 F604     		.uleb128 .L188-.LFB1138
 4154 02fb 00       		.uleb128 0
 4155 02fc 8E05     		.uleb128 .LEHB108-.LFB1138
 4156 02fe 05       		.uleb128 .LEHE108-.LEHB108
 4157 02ff 00       		.uleb128 0
 4158 0300 00       		.uleb128 0
 4159              	.LLSDACSE1138:
 4160 0301 01       		.byte	0x1
 4161 0302 00       		.byte	0
 4162 0303 00       		.align 4
 4163 0304 00000000 		.long	0
 4164              	
 4165              	.LLSDATT1138:
 4166              		.text
 4168              		.section	.rodata
 4169 06bc 00000000 		.align 8
 4170              	.LC49:
 4171 06c0 43686563 		.string	"CheckCloseFailureIncludesTolerance"
 4171      6B436C6F 
 4171      73654661 
 4171      696C7572 
 4171      65496E63 
 4172              		.text
 4173              		.align 2
 4175              	_ZN12_GLOBAL__N_138TestCheckCloseFailureIncludesToleranceC2Ev:
 4176              	.LFB1140:
 158:TestChecks.cpp **** 
 159:TestChecks.cpp **** TEST(CheckCloseFailureIncludesTolerance)
 4177              		.loc 5 159 0
 4178              		.cfi_startproc
 4179 1bbe 55       		pushq	%rbp
 4180              		.cfi_def_cfa_offset 16
 4181              		.cfi_offset 6, -16
 4182 1bbf 4889E5   		movq	%rsp, %rbp
 4183              		.cfi_def_cfa_register 6
 4184 1bc2 4883EC10 		subq	$16, %rsp
 4185 1bc6 48897DF8 		movq	%rdi, -8(%rbp)
 4186              	.LBB21:
 4187              		.loc 5 159 0
 4188 1bca E8000000 		call	_ZN13UnitTestSuite12GetSuiteNameEv
 4188      00
 4189 1bcf 4889C2   		movq	%rax, %rdx
 4190 1bd2 488B45F8 		movq	-8(%rbp), %rax
 4191 1bd6 41B89F00 		movl	$159, %r8d
 4191      0000
 4192 1bdc B9000000 		movl	$.LC2, %ecx
 4192      00
 4193 1be1 BE000000 		movl	$.LC49, %esi
 4193      00
 4194 1be6 4889C7   		movq	%rax, %rdi
 4195 1be9 E8000000 		call	_ZN8UnitTest4TestC2EPKcS2_S2_i
 4195      00
 4196 1bee BA000000 		movl	$_ZTVN12_GLOBAL__N_138TestCheckCloseFailureIncludesToleranceE+16, %edx
 4196      00
 4197 1bf3 488B45F8 		movq	-8(%rbp), %rax
 4198 1bf7 488910   		movq	%rdx, (%rax)
 4199              	.LBE21:
 4200 1bfa 90       		nop
 4201 1bfb C9       		leave
 4202              		.cfi_def_cfa 7, 8
 4203 1bfc C3       		ret
 4204              		.cfi_endproc
 4205              	.LFE1140:
 4207              		.set	_ZN12_GLOBAL__N_138TestCheckCloseFailureIncludesToleranceC1Ev,_ZN12_GLOBAL__N_138TestCheckClo
 4208              		.local	_ZN12_GLOBAL__N_146testCheckCloseFailureIncludesToleranceInstanceE
 4209              		.comm	_ZN12_GLOBAL__N_146testCheckCloseFailureIncludesToleranceInstanceE,56,32
 4210              		.local	_ZN12_GLOBAL__N_139adderCheckCloseFailureIncludesToleranceE
 4211              		.comm	_ZN12_GLOBAL__N_139adderCheckCloseFailureIncludesToleranceE,1,1
 4212              		.section	.rodata
 4213              	.LC50:
 4214 06e3 302E3031 		.string	"0.01"
 4214      00
 4215              		.align 8
 4216              	.LC51:
 4217 06e8 73747273 		.string	"strstr(reporter.lastFailedMessage, \"0.01\")"
 4217      74722872 
 4217      65706F72 
 4217      7465722E 
 4217      6C617374 
 4218 0713 00000000 		.align 8
 4218      00
 4219              	.LC52:
 4220 0718 556E6861 		.string	"Unhandled exception in CHECK(strstr(reporter.lastFailedMessage, \"0.01\"))"
 4220      6E646C65 
 4220      64206578 
 4220      63657074 
 4220      696F6E20 
 4221              		.text
 4222 1bfd 90       		.align 2
 4224              	_ZNK12_GLOBAL__N_138TestCheckCloseFailureIncludesTolerance7RunImplEv:
 4225              	.LFB1142:
 160:TestChecks.cpp **** {
 4226              		.loc 5 160 0
 4227              		.cfi_startproc
 4228              		.cfi_personality 0x3,__gxx_personality_v0
 4229              		.cfi_lsda 0x3,.LLSDA1142
 4230 1bfe 55       		pushq	%rbp
 4231              		.cfi_def_cfa_offset 16
 4232              		.cfi_offset 6, -16
 4233 1bff 4889E5   		movq	%rsp, %rbp
 4234              		.cfi_def_cfa_register 6
 4235 1c02 53       		pushq	%rbx
 4236 1c03 4881ECA8 		subq	$2216, %rsp
 4236      080000
 4237              		.cfi_offset 3, -24
 4238 1c0a 4889BD58 		movq	%rdi, -2216(%rbp)
 4238      F7FFFF
 4239              		.loc 5 160 0
 4240 1c11 64488B04 		movq	%fs:40, %rax
 4240      25280000 
 4240      00
 4241 1c1a 488945E8 		movq	%rax, -24(%rbp)
 4242 1c1e 31C0     		xorl	%eax, %eax
 161:TestChecks.cpp ****     RecordingReporter reporter;
 4243              		.loc 5 161 0
 4244 1c20 488D85B0 		leaq	-2128(%rbp), %rax
 4244      F7FFFF
 4245 1c27 4889C7   		movq	%rax, %rdi
 4246 1c2a E8000000 		call	_ZN17RecordingReporterC1Ev
 4246      00
 162:TestChecks.cpp ****     TestResults results(&reporter);
 4247              		.loc 5 162 0
 4248 1c2f 488D95B0 		leaq	-2128(%rbp), %rdx
 4248      F7FFFF
 4249 1c36 488D8570 		leaq	-2192(%rbp), %rax
 4249      F7FFFF
 4250 1c3d 4889D6   		movq	%rdx, %rsi
 4251 1c40 4889C7   		movq	%rax, %rdi
 4252              	.LEHB109:
 4253 1c43 E8000000 		call	_ZN8UnitTest11TestResultsC1EPNS_12TestReporterE
 4253      00
 163:TestChecks.cpp ****     CheckClose(results, 2, 3, 0.01f, TestDetails("", "", "", 0));
 4254              		.loc 5 163 0
 4255 1c48 488D8590 		leaq	-2160(%rbp), %rax
 4255      F7FFFF
 4256 1c4f 41B80000 		movl	$0, %r8d
 4256      0000
 4257 1c55 B9000000 		movl	$.LC6, %ecx
 4257      00
 4258 1c5a BA000000 		movl	$.LC6, %edx
 4258      00
 4259 1c5f BE000000 		movl	$.LC6, %esi
 4259      00
 4260 1c64 4889C7   		movq	%rax, %rdi
 4261 1c67 E8000000 		call	_ZN8UnitTest11TestDetailsC1EPKcS2_S2_i
 4261      00
 4262              		.loc 5 163 0 is_stmt 0 discriminator 1
 4263 1c6c F30F1005 		movss	.LC42(%rip), %xmm0
 4263      00000000 
 4264 1c74 F30F1185 		movss	%xmm0, -2196(%rbp)
 4264      6CF7FFFF 
 4265 1c7c C78568F7 		movl	$3, -2200(%rbp)
 4265      FFFF0300 
 4265      0000
 4266 1c86 C78564F7 		movl	$2, -2204(%rbp)
 4266      FFFF0200 
 4266      0000
 4267 1c90 488DBD90 		leaq	-2160(%rbp), %rdi
 4267      F7FFFF
 4268 1c97 488D8D6C 		leaq	-2196(%rbp), %rcx
 4268      F7FFFF
 4269 1c9e 488D9568 		leaq	-2200(%rbp), %rdx
 4269      F7FFFF
 4270 1ca5 488DB564 		leaq	-2204(%rbp), %rsi
 4270      F7FFFF
 4271 1cac 488D8570 		leaq	-2192(%rbp), %rax
 4271      F7FFFF
 4272 1cb3 4989F8   		movq	%rdi, %r8
 4273 1cb6 4889C7   		movq	%rax, %rdi
 4274 1cb9 E8000000 		call	_ZN8UnitTest10CheckCloseIiifEEvRNS_11TestResultsERKT_RKT0_RKT1_RKNS_11TestDetailsE
 4274      00
 4275              	.LEHE109:
 164:TestChecks.cpp **** 
 165:TestChecks.cpp **** 	using namespace std;
 166:TestChecks.cpp ****     CHECK(strstr(reporter.lastFailedMessage, "0.01"));
 4276              		.loc 5 166 0 is_stmt 1 discriminator 3
 4277 1cbe 488D85B0 		leaq	-2128(%rbp), %rax
 4277      F7FFFF
 4278 1cc5 48051405 		addq	$1300, %rax
 4278      0000
 4279 1ccb BE000000 		movl	$.LC50, %esi
 4279      00
 4280 1cd0 4889C7   		movq	%rax, %rdi
 4281 1cd3 E8000000 		call	strstr
 4281      00
 4282 1cd8 4889C7   		movq	%rax, %rdi
 4283 1cdb E8000000 		call	_ZN8UnitTest5CheckIPcEEbT_
 4283      00
 4284 1ce0 83F001   		xorl	$1, %eax
 4285 1ce3 84C0     		testb	%al, %al
 4286 1ce5 743E     		je	.L196
 4287              	.LEHB110:
 4288              		.loc 5 166 0 is_stmt 0 discriminator 1
 4289 1ce7 E8000000 		call	_ZN8UnitTest11CurrentTest7DetailsEv
 4289      00
 4290 1cec 488B08   		movq	(%rax), %rcx
 4291 1cef 488D8590 		leaq	-2160(%rbp), %rax
 4291      F7FFFF
 4292 1cf6 BAA60000 		movl	$166, %edx
 4292      00
 4293 1cfb 4889CE   		movq	%rcx, %rsi
 4294 1cfe 4889C7   		movq	%rax, %rdi
 4295 1d01 E8000000 		call	_ZN8UnitTest11TestDetailsC1ERKS0_i
 4295      00
 4296              		.loc 5 166 0 discriminator 3
 4297 1d06 E8000000 		call	_ZN8UnitTest11CurrentTest7ResultsEv
 4297      00
 4298 1d0b 488B00   		movq	(%rax), %rax
 4299 1d0e 488D8D90 		leaq	-2160(%rbp), %rcx
 4299      F7FFFF
 4300 1d15 BA000000 		movl	$.LC51, %edx
 4300      00
 4301 1d1a 4889CE   		movq	%rcx, %rsi
 4302 1d1d 4889C7   		movq	%rax, %rdi
 4303 1d20 E8000000 		call	_ZN8UnitTest11TestResults13OnTestFailureERKNS_11TestDetailsEPKc
 4303      00
 4304              	.LEHE110:
 4305              	.L196:
 161:TestChecks.cpp ****     TestResults results(&reporter);
 4306              		.loc 5 161 0 is_stmt 1
 4307 1d25 488D85B0 		leaq	-2128(%rbp), %rax
 4307      F7FFFF
 4308 1d2c 4889C7   		movq	%rax, %rdi
 4309              	.LEHB111:
 4310 1d2f E8000000 		call	_ZN17RecordingReporterD1Ev
 4310      00
 4311              	.LEHE111:
 167:TestChecks.cpp **** }
 4312              		.loc 5 167 0
 4313 1d34 90       		nop
 4314 1d35 488B45E8 		movq	-24(%rbp), %rax
 4315 1d39 64483304 		xorq	%fs:40, %rax
 4315      25280000 
 4315      00
 4316 1d42 747B     		je	.L200
 4317 1d44 EB74     		jmp	.L204
 4318              	.L202:
 166:TestChecks.cpp **** }
 4319              		.loc 5 166 0
 4320 1d46 4889C7   		movq	%rax, %rdi
 4321 1d49 E8000000 		call	__cxa_begin_catch
 4321      00
 4322              	.LEHB112:
 4323 1d4e E8000000 		call	_ZN8UnitTest11CurrentTest7DetailsEv
 4323      00
 4324 1d53 488B08   		movq	(%rax), %rcx
 4325 1d56 488D8590 		leaq	-2160(%rbp), %rax
 4325      F7FFFF
 4326 1d5d BAA60000 		movl	$166, %edx
 4326      00
 4327 1d62 4889CE   		movq	%rcx, %rsi
 4328 1d65 4889C7   		movq	%rax, %rdi
 4329 1d68 E8000000 		call	_ZN8UnitTest11TestDetailsC1ERKS0_i
 4329      00
 166:TestChecks.cpp **** }
 4330              		.loc 5 166 0 is_stmt 0 discriminator 11
 4331 1d6d E8000000 		call	_ZN8UnitTest11CurrentTest7ResultsEv
 4331      00
 4332 1d72 488B00   		movq	(%rax), %rax
 4333 1d75 488D8D90 		leaq	-2160(%rbp), %rcx
 4333      F7FFFF
 4334 1d7c BA000000 		movl	$.LC52, %edx
 4334      00
 4335 1d81 4889CE   		movq	%rcx, %rsi
 4336 1d84 4889C7   		movq	%rax, %rdi
 4337 1d87 E8000000 		call	_ZN8UnitTest11TestResults13OnTestFailureERKNS_11TestDetailsEPKc
 4337      00
 4338              	.LEHE112:
 4339              	.LEHB113:
 166:TestChecks.cpp **** }
 4340              		.loc 5 166 0 discriminator 15
 4341 1d8c E8000000 		call	__cxa_end_catch
 4341      00
 4342              	.LEHE113:
 166:TestChecks.cpp **** }
 4343              		.loc 5 166 0
 4344 1d91 EB92     		jmp	.L196
 4345              	.L203:
 4346 1d93 4889C3   		movq	%rax, %rbx
 4347 1d96 E8000000 		call	__cxa_end_catch
 4347      00
 4348 1d9b EB03     		jmp	.L199
 4349              	.L201:
 4350 1d9d 4889C3   		movq	%rax, %rbx
 4351              	.L199:
 161:TestChecks.cpp ****     TestResults results(&reporter);
 4352              		.loc 5 161 0 is_stmt 1
 4353 1da0 488D85B0 		leaq	-2128(%rbp), %rax
 4353      F7FFFF
 4354 1da7 4889C7   		movq	%rax, %rdi
 4355 1daa E8000000 		call	_ZN17RecordingReporterD1Ev
 4355      00
 4356 1daf 4889D8   		movq	%rbx, %rax
 4357 1db2 4889C7   		movq	%rax, %rdi
 4358              	.LEHB114:
 4359 1db5 E8000000 		call	_Unwind_Resume
 4359      00
 4360              	.LEHE114:
 4361              	.L204:
 4362              		.loc 5 167 0
 4363 1dba E8000000 		call	__stack_chk_fail
 4363      00
 4364              	.L200:
 4365 1dbf 4881C4A8 		addq	$2216, %rsp
 4365      080000
 4366 1dc6 5B       		popq	%rbx
 4367 1dc7 5D       		popq	%rbp
 4368              		.cfi_def_cfa 7, 8
 4369 1dc8 C3       		ret
 4370              		.cfi_endproc
 4371              	.LFE1142:
 4372              		.section	.gcc_except_table
 4373              		.align 4
 4374              	.LLSDA1142:
 4375 0308 FF       		.byte	0xff
 4376 0309 03       		.byte	0x3
 4377 030a 29       		.uleb128 .LLSDATT1142-.LLSDATTD1142
 4378              	.LLSDATTD1142:
 4379 030b 01       		.byte	0x1
 4380 030c 21       		.uleb128 .LLSDACSE1142-.LLSDACSB1142
 4381              	.LLSDACSB1142:
 4382 030d 45       		.uleb128 .LEHB109-.LFB1142
 4383 030e 7B       		.uleb128 .LEHE109-.LEHB109
 4384 030f 9F03     		.uleb128 .L201-.LFB1142
 4385 0311 00       		.uleb128 0
 4386 0312 E901     		.uleb128 .LEHB110-.LFB1142
 4387 0314 3E       		.uleb128 .LEHE110-.LEHB110
 4388 0315 C802     		.uleb128 .L202-.LFB1142
 4389 0317 01       		.uleb128 0x1
 4390 0318 B102     		.uleb128 .LEHB111-.LFB1142
 4391 031a 05       		.uleb128 .LEHE111-.LEHB111
 4392 031b 00       		.uleb128 0
 4393 031c 00       		.uleb128 0
 4394 031d D002     		.uleb128 .LEHB112-.LFB1142
 4395 031f 3E       		.uleb128 .LEHE112-.LEHB112
 4396 0320 9503     		.uleb128 .L203-.LFB1142
 4397 0322 00       		.uleb128 0
 4398 0323 8E03     		.uleb128 .LEHB113-.LFB1142
 4399 0325 05       		.uleb128 .LEHE113-.LEHB113
 4400 0326 9F03     		.uleb128 .L201-.LFB1142
 4401 0328 00       		.uleb128 0
 4402 0329 B703     		.uleb128 .LEHB114-.LFB1142
 4403 032b 05       		.uleb128 .LEHE114-.LEHB114
 4404 032c 00       		.uleb128 0
 4405 032d 00       		.uleb128 0
 4406              	.LLSDACSE1142:
 4407 032e 01       		.byte	0x1
 4408 032f 00       		.byte	0
 4409              		.align 4
 4410 0330 00000000 		.long	0
 4411              	
 4412              	.LLSDATT1142:
 4413              		.text
 4415              		.section	.rodata
 4416 0761 00000000 		.align 8
 4416      000000
 4417              	.LC53:
 4418 0768 43686563 		.string	"CheckCloseFailureIncludesDetails"
 4418      6B436C6F 
 4418      73654661 
 4418      696C7572 
 4418      65496E63 
 4419              		.text
 4420 1dc9 90       		.align 2
 4422              	_ZN12_GLOBAL__N_136TestCheckCloseFailureIncludesDetailsC2Ev:
 4423              	.LFB1144:
 168:TestChecks.cpp **** 
 169:TestChecks.cpp **** TEST(CheckCloseFailureIncludesDetails)
 4424              		.loc 5 169 0
 4425              		.cfi_startproc
 4426 1dca 55       		pushq	%rbp
 4427              		.cfi_def_cfa_offset 16
 4428              		.cfi_offset 6, -16
 4429 1dcb 4889E5   		movq	%rsp, %rbp
 4430              		.cfi_def_cfa_register 6
 4431 1dce 4883EC10 		subq	$16, %rsp
 4432 1dd2 48897DF8 		movq	%rdi, -8(%rbp)
 4433              	.LBB22:
 4434              		.loc 5 169 0
 4435 1dd6 E8000000 		call	_ZN13UnitTestSuite12GetSuiteNameEv
 4435      00
 4436 1ddb 4889C2   		movq	%rax, %rdx
 4437 1dde 488B45F8 		movq	-8(%rbp), %rax
 4438 1de2 41B8A900 		movl	$169, %r8d
 4438      0000
 4439 1de8 B9000000 		movl	$.LC2, %ecx
 4439      00
 4440 1ded BE000000 		movl	$.LC53, %esi
 4440      00
 4441 1df2 4889C7   		movq	%rax, %rdi
 4442 1df5 E8000000 		call	_ZN8UnitTest4TestC2EPKcS2_S2_i
 4442      00
 4443 1dfa BA000000 		movl	$_ZTVN12_GLOBAL__N_136TestCheckCloseFailureIncludesDetailsE+16, %edx
 4443      00
 4444 1dff 488B45F8 		movq	-8(%rbp), %rax
 4445 1e03 488910   		movq	%rdx, (%rax)
 4446              	.LBE22:
 4447 1e06 90       		nop
 4448 1e07 C9       		leave
 4449              		.cfi_def_cfa 7, 8
 4450 1e08 C3       		ret
 4451              		.cfi_endproc
 4452              	.LFE1144:
 4454              		.set	_ZN12_GLOBAL__N_136TestCheckCloseFailureIncludesDetailsC1Ev,_ZN12_GLOBAL__N_136TestCheckClose
 4455              		.local	_ZN12_GLOBAL__N_144testCheckCloseFailureIncludesDetailsInstanceE
 4456              		.comm	_ZN12_GLOBAL__N_144testCheckCloseFailureIncludesDetailsInstanceE,56,32
 4457              		.local	_ZN12_GLOBAL__N_137adderCheckCloseFailureIncludesDetailsE
 4458              		.comm	_ZN12_GLOBAL__N_137adderCheckCloseFailureIncludesDetailsE,1,1
 4459              		.section	.rodata
 4460              	.LC54:
 4461 0789 68656164 		.string	"header.h"
 4461      65722E68 
 4461      00
 4462 0792 00000000 		.align 8
 4462      0000
 4463              	.LC55:
 4464 0798 556E6861 		.string	"Unhandled exception in CHECK_EQUAL(\"header.h\", reporter.lastFailedFile)"
 4464      6E646C65 
 4464      64206578 
 4464      63657074 
 4464      696F6E20 
 4465              		.align 8
 4466              	.LC56:
 4467 07e0 556E6861 		.string	"Unhandled exception in CHECK_EQUAL(10, reporter.lastFailedLine)"
 4467      6E646C65 
 4467      64206578 
 4467      63657074 
 4467      696F6E20 
 4468              		.text
 4469 1e09 90       		.align 2
 4471              	_ZNK12_GLOBAL__N_136TestCheckCloseFailureIncludesDetails7RunImplEv:
 4472              	.LFB1146:
 170:TestChecks.cpp **** {
 4473              		.loc 5 170 0
 4474              		.cfi_startproc
 4475              		.cfi_personality 0x3,__gxx_personality_v0
 4476              		.cfi_lsda 0x3,.LLSDA1146
 4477 1e0a 55       		pushq	%rbp
 4478              		.cfi_def_cfa_offset 16
 4479              		.cfi_offset 6, -16
 4480 1e0b 4889E5   		movq	%rsp, %rbp
 4481              		.cfi_def_cfa_register 6
 4482 1e0e 53       		pushq	%rbx
 4483 1e0f 4881ECC8 		subq	$2248, %rsp
 4483      080000
 4484              		.cfi_offset 3, -24
 4485 1e16 4889BD38 		movq	%rdi, -2248(%rbp)
 4485      F7FFFF
 4486              		.loc 5 170 0
 4487 1e1d 64488B04 		movq	%fs:40, %rax
 4487      25280000 
 4487      00
 4488 1e26 488945E8 		movq	%rax, -24(%rbp)
 4489 1e2a 31C0     		xorl	%eax, %eax
 171:TestChecks.cpp ****     RecordingReporter reporter;
 4490              		.loc 5 171 0
 4491 1e2c 488D85B0 		leaq	-2128(%rbp), %rax
 4491      F7FFFF
 4492 1e33 4889C7   		movq	%rax, %rdi
 4493 1e36 E8000000 		call	_ZN17RecordingReporterC1Ev
 4493      00
 172:TestChecks.cpp ****     TestResults results(&reporter);
 4494              		.loc 5 172 0
 4495 1e3b 488D95B0 		leaq	-2128(%rbp), %rdx
 4495      F7FFFF
 4496 1e42 488D8550 		leaq	-2224(%rbp), %rax
 4496      F7FFFF
 4497 1e49 4889D6   		movq	%rdx, %rsi
 4498 1e4c 4889C7   		movq	%rax, %rdi
 4499              	.LEHB115:
 4500 1e4f E8000000 		call	_ZN8UnitTest11TestResultsC1EPNS_12TestReporterE
 4500      00
 173:TestChecks.cpp ****     TestDetails const details("mytest", "mysuite", "header.h", 10);
 4501              		.loc 5 173 0
 4502 1e54 488D8570 		leaq	-2192(%rbp), %rax
 4502      F7FFFF
 4503 1e5b 41B80A00 		movl	$10, %r8d
 4503      0000
 4504 1e61 B9000000 		movl	$.LC54, %ecx
 4504      00
 4505 1e66 BA000000 		movl	$.LC24, %edx
 4505      00
 4506 1e6b BE000000 		movl	$.LC25, %esi
 4506      00
 4507 1e70 4889C7   		movq	%rax, %rdi
 4508 1e73 E8000000 		call	_ZN8UnitTest11TestDetailsC1EPKcS2_S2_i
 4508      00
 174:TestChecks.cpp **** 
 175:TestChecks.cpp ****     CheckClose(results, 2, 3, 0.01f, details);
 4509              		.loc 5 175 0
 4510 1e78 F30F1005 		movss	.LC42(%rip), %xmm0
 4510      00000000 
 4511 1e80 F30F1185 		movss	%xmm0, -2160(%rbp)
 4511      90F7FFFF 
 4512 1e88 C7854CF7 		movl	$3, -2228(%rbp)
 4512      FFFF0300 
 4512      0000
 4513 1e92 C78548F7 		movl	$2, -2232(%rbp)
 4513      FFFF0200 
 4513      0000
 4514 1e9c 488DBD70 		leaq	-2192(%rbp), %rdi
 4514      F7FFFF
 4515 1ea3 488D8D90 		leaq	-2160(%rbp), %rcx
 4515      F7FFFF
 4516 1eaa 488D954C 		leaq	-2228(%rbp), %rdx
 4516      F7FFFF
 4517 1eb1 488DB548 		leaq	-2232(%rbp), %rsi
 4517      F7FFFF
 4518 1eb8 488D8550 		leaq	-2224(%rbp), %rax
 4518      F7FFFF
 4519 1ebf 4989F8   		movq	%rdi, %r8
 4520 1ec2 4889C7   		movq	%rax, %rdi
 4521 1ec5 E8000000 		call	_ZN8UnitTest10CheckCloseIiifEEvRNS_11TestResultsERKT_RKT0_RKT1_RKNS_11TestDetailsE
 4521      00
 4522              	.LEHE115:
 4523              	.LEHB116:
 176:TestChecks.cpp **** 
 177:TestChecks.cpp ****     CHECK_EQUAL("mytest", reporter.lastFailedTest);
 4524              		.loc 5 177 0 discriminator 2
 4525 1eca E8000000 		call	_ZN8UnitTest11CurrentTest7DetailsEv
 4525      00
 4526 1ecf 488B08   		movq	(%rax), %rcx
 4527 1ed2 488D8590 		leaq	-2160(%rbp), %rax
 4527      F7FFFF
 4528 1ed9 BAB10000 		movl	$177, %edx
 4528      00
 4529 1ede 4889CE   		movq	%rcx, %rsi
 4530 1ee1 4889C7   		movq	%rax, %rdi
 4531 1ee4 E8000000 		call	_ZN8UnitTest11TestDetailsC1ERKS0_i
 4531      00
 4532 1ee9 E8000000 		call	_ZN8UnitTest11CurrentTest7ResultsEv
 4532      00
 4533 1eee 488B00   		movq	(%rax), %rax
 4534 1ef1 488D9590 		leaq	-2160(%rbp), %rdx
 4534      F7FFFF
 4535 1ef8 488D8DB0 		leaq	-2128(%rbp), %rcx
 4535      F7FFFF
 4536 1eff 488DB114 		leaq	1044(%rcx), %rsi
 4536      040000
 4537 1f06 4889D1   		movq	%rdx, %rcx
 4538 1f09 4889F2   		movq	%rsi, %rdx
 4539 1f0c BE000000 		movl	$.LC25, %esi
 4539      00
 4540 1f11 4889C7   		movq	%rax, %rdi
 4541 1f14 E8000000 		call	_ZN8UnitTest10CheckEqualERNS_11TestResultsEPKcPcRKNS_11TestDetailsE
 4541      00
 4542              	.LEHE116:
 4543              	.L208:
 4544              	.LEHB117:
 178:TestChecks.cpp ****     CHECK_EQUAL("mysuite", reporter.lastFailedSuite);
 4545              		.loc 5 178 0
 4546 1f19 E8000000 		call	_ZN8UnitTest11CurrentTest7DetailsEv
 4546      00
 4547 1f1e 488B08   		movq	(%rax), %rcx
 4548 1f21 488D8590 		leaq	-2160(%rbp), %rax
 4548      F7FFFF
 4549 1f28 BAB20000 		movl	$178, %edx
 4549      00
 4550 1f2d 4889CE   		movq	%rcx, %rsi
 4551 1f30 4889C7   		movq	%rax, %rdi
 4552 1f33 E8000000 		call	_ZN8UnitTest11TestDetailsC1ERKS0_i
 4552      00
 4553              		.loc 5 178 0 is_stmt 0 discriminator 2
 4554 1f38 E8000000 		call	_ZN8UnitTest11CurrentTest7ResultsEv
 4554      00
 4555 1f3d 488B00   		movq	(%rax), %rax
 4556 1f40 488D9590 		leaq	-2160(%rbp), %rdx
 4556      F7FFFF
 4557 1f47 488D8DB0 		leaq	-2128(%rbp), %rcx
 4557      F7FFFF
 4558 1f4e 488DB114 		leaq	788(%rcx), %rsi
 4558      030000
 4559 1f55 4889D1   		movq	%rdx, %rcx
 4560 1f58 4889F2   		movq	%rsi, %rdx
 4561 1f5b BE000000 		movl	$.LC24, %esi
 4561      00
 4562 1f60 4889C7   		movq	%rax, %rdi
 4563 1f63 E8000000 		call	_ZN8UnitTest10CheckEqualERNS_11TestResultsEPKcPcRKNS_11TestDetailsE
 4563      00
 4564              	.LEHE117:
 4565              	.L212:
 4566              	.LEHB118:
 179:TestChecks.cpp ****     CHECK_EQUAL("header.h", reporter.lastFailedFile);
 4567              		.loc 5 179 0 is_stmt 1
 4568 1f68 E8000000 		call	_ZN8UnitTest11CurrentTest7DetailsEv
 4568      00
 4569 1f6d 488B08   		movq	(%rax), %rcx
 4570 1f70 488D8590 		leaq	-2160(%rbp), %rax
 4570      F7FFFF
 4571 1f77 BAB30000 		movl	$179, %edx
 4571      00
 4572 1f7c 4889CE   		movq	%rcx, %rsi
 4573 1f7f 4889C7   		movq	%rax, %rdi
 4574 1f82 E8000000 		call	_ZN8UnitTest11TestDetailsC1ERKS0_i
 4574      00
 4575              		.loc 5 179 0 is_stmt 0 discriminator 2
 4576 1f87 E8000000 		call	_ZN8UnitTest11CurrentTest7ResultsEv
 4576      00
 4577 1f8c 488B00   		movq	(%rax), %rax
 4578 1f8f 488D9590 		leaq	-2160(%rbp), %rdx
 4578      F7FFFF
 4579 1f96 488D8DB0 		leaq	-2128(%rbp), %rcx
 4579      F7FFFF
 4580 1f9d 488DB110 		leaq	528(%rcx), %rsi
 4580      020000
 4581 1fa4 4889D1   		movq	%rdx, %rcx
 4582 1fa7 4889F2   		movq	%rsi, %rdx
 4583 1faa BE000000 		movl	$.LC54, %esi
 4583      00
 4584 1faf 4889C7   		movq	%rax, %rdi
 4585 1fb2 E8000000 		call	_ZN8UnitTest10CheckEqualERNS_11TestResultsEPKcPcRKNS_11TestDetailsE
 4585      00
 4586              	.LEHE118:
 4587              	.L215:
 4588              	.LEHB119:
 180:TestChecks.cpp ****     CHECK_EQUAL(10, reporter.lastFailedLine);
 4589              		.loc 5 180 0 is_stmt 1
 4590 1fb7 E8000000 		call	_ZN8UnitTest11CurrentTest7DetailsEv
 4590      00
 4591 1fbc 488B08   		movq	(%rax), %rcx
 4592 1fbf 488D8590 		leaq	-2160(%rbp), %rax
 4592      F7FFFF
 4593 1fc6 BAB40000 		movl	$180, %edx
 4593      00
 4594 1fcb 4889CE   		movq	%rcx, %rsi
 4595 1fce 4889C7   		movq	%rax, %rdi
 4596 1fd1 E8000000 		call	_ZN8UnitTest11TestDetailsC1ERKS0_i
 4596      00
 4597              	.LEHE119:
 4598              		.loc 5 180 0 is_stmt 0 discriminator 2
 4599 1fd6 C7854CF7 		movl	$10, -2228(%rbp)
 4599      FFFF0A00 
 4599      0000
 4600              	.LEHB120:
 4601 1fe0 E8000000 		call	_ZN8UnitTest11CurrentTest7ResultsEv
 4601      00
 4602 1fe5 488B00   		movq	(%rax), %rax
 4603 1fe8 488D9590 		leaq	-2160(%rbp), %rdx
 4603      F7FFFF
 4604 1fef 488D8DB0 		leaq	-2128(%rbp), %rcx
 4604      F7FFFF
 4605 1ff6 488DB910 		leaq	784(%rcx), %rdi
 4605      030000
 4606 1ffd 488DB54C 		leaq	-2228(%rbp), %rsi
 4606      F7FFFF
 4607 2004 4889D1   		movq	%rdx, %rcx
 4608 2007 4889FA   		movq	%rdi, %rdx
 4609 200a 4889C7   		movq	%rax, %rdi
 4610 200d E8000000 		call	_ZN8UnitTest10CheckEqualIiiEEvRNS_11TestResultsERKT_RKT0_RKNS_11TestDetailsE
 4610      00
 4611              	.LEHE120:
 4612              	.L219:
 171:TestChecks.cpp ****     TestResults results(&reporter);
 4613              		.loc 5 171 0 is_stmt 1
 4614 2012 488D85B0 		leaq	-2128(%rbp), %rax
 4614      F7FFFF
 4615 2019 4889C7   		movq	%rax, %rdi
 4616              	.LEHB121:
 4617 201c E8000000 		call	_ZN17RecordingReporterD1Ev
 4617      00
 4618              	.LEHE121:
 181:TestChecks.cpp **** }
 4619              		.loc 5 181 0
 4620 2021 90       		nop
 4621 2022 488B45E8 		movq	-24(%rbp), %rax
 4622 2026 64483304 		xorq	%fs:40, %rax
 4622      25280000 
 4622      00
 4623 202f 0F849701 		je	.L221
 4623      0000
 4624 2035 E98D0100 		jmp	.L232
 4624      00
 4625              	.L223:
 177:TestChecks.cpp ****     CHECK_EQUAL("mysuite", reporter.lastFailedSuite);
 4626              		.loc 5 177 0
 4627 203a 4889C7   		movq	%rax, %rdi
 4628 203d E8000000 		call	__cxa_begin_catch
 4628      00
 4629              	.LEHB122:
 4630 2042 E8000000 		call	_ZN8UnitTest11CurrentTest7DetailsEv
 4630      00
 4631 2047 488B08   		movq	(%rax), %rcx
 4632 204a 488D8590 		leaq	-2160(%rbp), %rax
 4632      F7FFFF
 4633 2051 BAB10000 		movl	$177, %edx
 4633      00
 4634 2056 4889CE   		movq	%rcx, %rsi
 4635 2059 4889C7   		movq	%rax, %rdi
 4636 205c E8000000 		call	_ZN8UnitTest11TestDetailsC1ERKS0_i
 4636      00
 177:TestChecks.cpp ****     CHECK_EQUAL("mysuite", reporter.lastFailedSuite);
 4637              		.loc 5 177 0 is_stmt 0 discriminator 10
 4638 2061 E8000000 		call	_ZN8UnitTest11CurrentTest7ResultsEv
 4638      00
 4639 2066 488B00   		movq	(%rax), %rax
 4640 2069 488D8D90 		leaq	-2160(%rbp), %rcx
 4640      F7FFFF
 4641 2070 BA000000 		movl	$.LC26, %edx
 4641      00
 4642 2075 4889CE   		movq	%rcx, %rsi
 4643 2078 4889C7   		movq	%rax, %rdi
 4644 207b E8000000 		call	_ZN8UnitTest11TestResults13OnTestFailureERKNS_11TestDetailsEPKc
 4644      00
 4645              	.LEHE122:
 4646              	.LEHB123:
 177:TestChecks.cpp ****     CHECK_EQUAL("mysuite", reporter.lastFailedSuite);
 4647              		.loc 5 177 0 discriminator 14
 4648 2080 E8000000 		call	__cxa_end_catch
 4648      00
 4649              	.LEHE123:
 177:TestChecks.cpp ****     CHECK_EQUAL("mysuite", reporter.lastFailedSuite);
 4650              		.loc 5 177 0
 4651 2085 E98FFEFF 		jmp	.L208
 4651      FF
 4652              	.L224:
 4653 208a 4889C3   		movq	%rax, %rbx
 4654 208d E8000000 		call	__cxa_end_catch
 4654      00
 4655 2092 E9160100 		jmp	.L210
 4655      00
 4656              	.L225:
 178:TestChecks.cpp ****     CHECK_EQUAL("header.h", reporter.lastFailedFile);
 4657              		.loc 5 178 0 is_stmt 1
 4658 2097 4889C7   		movq	%rax, %rdi
 4659 209a E8000000 		call	__cxa_begin_catch
 4659      00
 4660              	.LEHB124:
 4661 209f E8000000 		call	_ZN8UnitTest11CurrentTest7DetailsEv
 4661      00
 4662 20a4 488B08   		movq	(%rax), %rcx
 4663 20a7 488D8590 		leaq	-2160(%rbp), %rax
 4663      F7FFFF
 4664 20ae BAB20000 		movl	$178, %edx
 4664      00
 4665 20b3 4889CE   		movq	%rcx, %rsi
 4666 20b6 4889C7   		movq	%rax, %rdi
 4667 20b9 E8000000 		call	_ZN8UnitTest11TestDetailsC1ERKS0_i
 4667      00
 178:TestChecks.cpp ****     CHECK_EQUAL("header.h", reporter.lastFailedFile);
 4668              		.loc 5 178 0 is_stmt 0 discriminator 10
 4669 20be E8000000 		call	_ZN8UnitTest11CurrentTest7ResultsEv
 4669      00
 4670 20c3 488B00   		movq	(%rax), %rax
 4671 20c6 488D8D90 		leaq	-2160(%rbp), %rcx
 4671      F7FFFF
 4672 20cd BA000000 		movl	$.LC27, %edx
 4672      00
 4673 20d2 4889CE   		movq	%rcx, %rsi
 4674 20d5 4889C7   		movq	%rax, %rdi
 4675 20d8 E8000000 		call	_ZN8UnitTest11TestResults13OnTestFailureERKNS_11TestDetailsEPKc
 4675      00
 4676              	.LEHE124:
 4677              	.LEHB125:
 178:TestChecks.cpp ****     CHECK_EQUAL("header.h", reporter.lastFailedFile);
 4678              		.loc 5 178 0 discriminator 14
 4679 20dd E8000000 		call	__cxa_end_catch
 4679      00
 4680              	.LEHE125:
 178:TestChecks.cpp ****     CHECK_EQUAL("header.h", reporter.lastFailedFile);
 4681              		.loc 5 178 0
 4682 20e2 E981FEFF 		jmp	.L212
 4682      FF
 4683              	.L226:
 4684 20e7 4889C3   		movq	%rax, %rbx
 4685 20ea E8000000 		call	__cxa_end_catch
 4685      00
 4686 20ef E9B90000 		jmp	.L210
 4686      00
 4687              	.L227:
 179:TestChecks.cpp ****     CHECK_EQUAL(10, reporter.lastFailedLine);
 4688              		.loc 5 179 0 is_stmt 1
 4689 20f4 4889C7   		movq	%rax, %rdi
 4690 20f7 E8000000 		call	__cxa_begin_catch
 4690      00
 4691              	.LEHB126:
 4692 20fc E8000000 		call	_ZN8UnitTest11CurrentTest7DetailsEv
 4692      00
 4693 2101 488B08   		movq	(%rax), %rcx
 4694 2104 488D8590 		leaq	-2160(%rbp), %rax
 4694      F7FFFF
 4695 210b BAB30000 		movl	$179, %edx
 4695      00
 4696 2110 4889CE   		movq	%rcx, %rsi
 4697 2113 4889C7   		movq	%rax, %rdi
 4698 2116 E8000000 		call	_ZN8UnitTest11TestDetailsC1ERKS0_i
 4698      00
 179:TestChecks.cpp ****     CHECK_EQUAL(10, reporter.lastFailedLine);
 4699              		.loc 5 179 0 is_stmt 0 discriminator 10
 4700 211b E8000000 		call	_ZN8UnitTest11CurrentTest7ResultsEv
 4700      00
 4701 2120 488B00   		movq	(%rax), %rax
 4702 2123 488D8D90 		leaq	-2160(%rbp), %rcx
 4702      F7FFFF
 4703 212a BA000000 		movl	$.LC55, %edx
 4703      00
 4704 212f 4889CE   		movq	%rcx, %rsi
 4705 2132 4889C7   		movq	%rax, %rdi
 4706 2135 E8000000 		call	_ZN8UnitTest11TestResults13OnTestFailureERKNS_11TestDetailsEPKc
 4706      00
 4707              	.LEHE126:
 4708              	.LEHB127:
 179:TestChecks.cpp ****     CHECK_EQUAL(10, reporter.lastFailedLine);
 4709              		.loc 5 179 0 discriminator 14
 4710 213a E8000000 		call	__cxa_end_catch
 4710      00
 4711              	.LEHE127:
 179:TestChecks.cpp ****     CHECK_EQUAL(10, reporter.lastFailedLine);
 4712              		.loc 5 179 0
 4713 213f E973FEFF 		jmp	.L215
 4713      FF
 4714              	.L228:
 4715 2144 4889C3   		movq	%rax, %rbx
 4716 2147 E8000000 		call	__cxa_end_catch
 4716      00
 4717 214c EB5F     		jmp	.L210
 4718              	.L230:
 4719 214e EB00     		jmp	.L218
 4720              	.L229:
 4721              	.L218:
 180:TestChecks.cpp **** }
 4722              		.loc 5 180 0 is_stmt 1
 4723 2150 4889C7   		movq	%rax, %rdi
 4724 2153 E8000000 		call	__cxa_begin_catch
 4724      00
 4725              	.LEHB128:
 4726 2158 E8000000 		call	_ZN8UnitTest11CurrentTest7DetailsEv
 4726      00
 4727 215d 488B08   		movq	(%rax), %rcx
 4728 2160 488D8590 		leaq	-2160(%rbp), %rax
 4728      F7FFFF
 4729 2167 BAB40000 		movl	$180, %edx
 4729      00
 4730 216c 4889CE   		movq	%rcx, %rsi
 4731 216f 4889C7   		movq	%rax, %rdi
 4732 2172 E8000000 		call	_ZN8UnitTest11TestDetailsC1ERKS0_i
 4732      00
 180:TestChecks.cpp **** }
 4733              		.loc 5 180 0 is_stmt 0 discriminator 10
 4734 2177 E8000000 		call	_ZN8UnitTest11CurrentTest7ResultsEv
 4734      00
 4735 217c 488B00   		movq	(%rax), %rax
 4736 217f 488D8D90 		leaq	-2160(%rbp), %rcx
 4736      F7FFFF
 4737 2186 BA000000 		movl	$.LC56, %edx
 4737      00
 4738 218b 4889CE   		movq	%rcx, %rsi
 4739 218e 4889C7   		movq	%rax, %rdi
 4740 2191 E8000000 		call	_ZN8UnitTest11TestResults13OnTestFailureERKNS_11TestDetailsEPKc
 4740      00
 4741              	.LEHE128:
 4742              	.LEHB129:
 180:TestChecks.cpp **** }
 4743              		.loc 5 180 0 discriminator 14
 4744 2196 E8000000 		call	__cxa_end_catch
 4744      00
 4745              	.LEHE129:
 180:TestChecks.cpp **** }
 4746              		.loc 5 180 0
 4747 219b E972FEFF 		jmp	.L219
 4747      FF
 4748              	.L231:
 4749 21a0 4889C3   		movq	%rax, %rbx
 4750 21a3 E8000000 		call	__cxa_end_catch
 4750      00
 4751 21a8 EB03     		jmp	.L210
 4752              	.L222:
 4753 21aa 4889C3   		movq	%rax, %rbx
 4754              	.L210:
 171:TestChecks.cpp ****     TestResults results(&reporter);
 4755              		.loc 5 171 0 is_stmt 1
 4756 21ad 488D85B0 		leaq	-2128(%rbp), %rax
 4756      F7FFFF
 4757 21b4 4889C7   		movq	%rax, %rdi
 4758 21b7 E8000000 		call	_ZN17RecordingReporterD1Ev
 4758      00
 4759 21bc 4889D8   		movq	%rbx, %rax
 4760 21bf 4889C7   		movq	%rax, %rdi
 4761              	.LEHB130:
 4762 21c2 E8000000 		call	_Unwind_Resume
 4762      00
 4763              	.LEHE130:
 4764              	.L232:
 4765              		.loc 5 181 0
 4766 21c7 E8000000 		call	__stack_chk_fail
 4766      00
 4767              	.L221:
 4768 21cc 4881C4C8 		addq	$2248, %rsp
 4768      080000
 4769 21d3 5B       		popq	%rbx
 4770 21d4 5D       		popq	%rbp
 4771              		.cfi_def_cfa 7, 8
 4772 21d5 C3       		ret
 4773              		.cfi_endproc
 4774              	.LFE1146:
 4775              		.section	.gcc_except_table
 4776              		.align 4
 4777              	.LLSDA1146:
 4778 0334 FF       		.byte	0xff
 4779 0335 03       		.byte	0x3
 4780 0336 65       		.uleb128 .LLSDATT1146-.LLSDATTD1146
 4781              	.LLSDATTD1146:
 4782 0337 01       		.byte	0x1
 4783 0338 5D       		.uleb128 .LLSDACSE1146-.LLSDACSB1146
 4784              	.LLSDACSB1146:
 4785 0339 45       		.uleb128 .LEHB115-.LFB1146
 4786 033a 7B       		.uleb128 .LEHE115-.LEHB115
 4787 033b A007     		.uleb128 .L222-.LFB1146
 4788 033d 00       		.uleb128 0
 4789 033e C001     		.uleb128 .LEHB116-.LFB1146
 4790 0340 4F       		.uleb128 .LEHE116-.LEHB116
 4791 0341 B004     		.uleb128 .L223-.LFB1146
 4792 0343 01       		.uleb128 0x1
 4793 0344 8F02     		.uleb128 .LEHB117-.LFB1146
 4794 0346 4F       		.uleb128 .LEHE117-.LEHB117
 4795 0347 8D05     		.uleb128 .L225-.LFB1146
 4796 0349 01       		.uleb128 0x1
 4797 034a DE02     		.uleb128 .LEHB118-.LFB1146
 4798 034c 4F       		.uleb128 .LEHE118-.LEHB118
 4799 034d EA05     		.uleb128 .L227-.LFB1146
 4800 034f 01       		.uleb128 0x1
 4801 0350 AD03     		.uleb128 .LEHB119-.LFB1146
 4802 0352 1F       		.uleb128 .LEHE119-.LEHB119
 4803 0353 C606     		.uleb128 .L229-.LFB1146
 4804 0355 01       		.uleb128 0x1
 4805 0356 D603     		.uleb128 .LEHB120-.LFB1146
 4806 0358 32       		.uleb128 .LEHE120-.LEHB120
 4807 0359 C406     		.uleb128 .L230-.LFB1146
 4808 035b 01       		.uleb128 0x1
 4809 035c 9204     		.uleb128 .LEHB121-.LFB1146
 4810 035e 05       		.uleb128 .LEHE121-.LEHB121
 4811 035f 00       		.uleb128 0
 4812 0360 00       		.uleb128 0
 4813 0361 B804     		.uleb128 .LEHB122-.LFB1146
 4814 0363 3E       		.uleb128 .LEHE122-.LEHB122
 4815 0364 8005     		.uleb128 .L224-.LFB1146
 4816 0366 00       		.uleb128 0
 4817 0367 F604     		.uleb128 .LEHB123-.LFB1146
 4818 0369 05       		.uleb128 .LEHE123-.LEHB123
 4819 036a A007     		.uleb128 .L222-.LFB1146
 4820 036c 00       		.uleb128 0
 4821 036d 9505     		.uleb128 .LEHB124-.LFB1146
 4822 036f 3E       		.uleb128 .LEHE124-.LEHB124
 4823 0370 DD05     		.uleb128 .L226-.LFB1146
 4824 0372 00       		.uleb128 0
 4825 0373 D305     		.uleb128 .LEHB125-.LFB1146
 4826 0375 05       		.uleb128 .LEHE125-.LEHB125
 4827 0376 A007     		.uleb128 .L222-.LFB1146
 4828 0378 00       		.uleb128 0
 4829 0379 F205     		.uleb128 .LEHB126-.LFB1146
 4830 037b 3E       		.uleb128 .LEHE126-.LEHB126
 4831 037c BA06     		.uleb128 .L228-.LFB1146
 4832 037e 00       		.uleb128 0
 4833 037f B006     		.uleb128 .LEHB127-.LFB1146
 4834 0381 05       		.uleb128 .LEHE127-.LEHB127
 4835 0382 A007     		.uleb128 .L222-.LFB1146
 4836 0384 00       		.uleb128 0
 4837 0385 CE06     		.uleb128 .LEHB128-.LFB1146
 4838 0387 3E       		.uleb128 .LEHE128-.LEHB128
 4839 0388 9607     		.uleb128 .L231-.LFB1146
 4840 038a 00       		.uleb128 0
 4841 038b 8C07     		.uleb128 .LEHB129-.LFB1146
 4842 038d 05       		.uleb128 .LEHE129-.LEHB129
 4843 038e A007     		.uleb128 .L222-.LFB1146
 4844 0390 00       		.uleb128 0
 4845 0391 B807     		.uleb128 .LEHB130-.LFB1146
 4846 0393 05       		.uleb128 .LEHE130-.LEHB130
 4847 0394 00       		.uleb128 0
 4848 0395 00       		.uleb128 0
 4849              	.LLSDACSE1146:
 4850 0396 01       		.byte	0x1
 4851 0397 00       		.byte	0
 4852              		.align 4
 4853 0398 00000000 		.long	0
 4854              	
 4855              	.LLSDATT1146:
 4856              		.text
 4858              		.section	.rodata
 4859              	.LC57:
 4860 0820 43686563 		.string	"CheckArrayEqualTrue"
 4860      6B417272 
 4860      61794571 
 4860      75616C54 
 4860      72756500 
 4861              		.text
 4862              		.align 2
 4864              	_ZN12_GLOBAL__N_123TestCheckArrayEqualTrueC2Ev:
 4865              	.LFB1148:
 182:TestChecks.cpp **** 
 183:TestChecks.cpp **** 
 184:TestChecks.cpp **** TEST(CheckArrayEqualTrue)
 4866              		.loc 5 184 0
 4867              		.cfi_startproc
 4868 21d6 55       		pushq	%rbp
 4869              		.cfi_def_cfa_offset 16
 4870              		.cfi_offset 6, -16
 4871 21d7 4889E5   		movq	%rsp, %rbp
 4872              		.cfi_def_cfa_register 6
 4873 21da 4883EC10 		subq	$16, %rsp
 4874 21de 48897DF8 		movq	%rdi, -8(%rbp)
 4875              	.LBB23:
 4876              		.loc 5 184 0
 4877 21e2 E8000000 		call	_ZN13UnitTestSuite12GetSuiteNameEv
 4877      00
 4878 21e7 4889C2   		movq	%rax, %rdx
 4879 21ea 488B45F8 		movq	-8(%rbp), %rax
 4880 21ee 41B8B800 		movl	$184, %r8d
 4880      0000
 4881 21f4 B9000000 		movl	$.LC2, %ecx
 4881      00
 4882 21f9 BE000000 		movl	$.LC57, %esi
 4882      00
 4883 21fe 4889C7   		movq	%rax, %rdi
 4884 2201 E8000000 		call	_ZN8UnitTest4TestC2EPKcS2_S2_i
 4884      00
 4885 2206 BA000000 		movl	$_ZTVN12_GLOBAL__N_123TestCheckArrayEqualTrueE+16, %edx
 4885      00
 4886 220b 488B45F8 		movq	-8(%rbp), %rax
 4887 220f 488910   		movq	%rdx, (%rax)
 4888              	.LBE23:
 4889 2212 90       		nop
 4890 2213 C9       		leave
 4891              		.cfi_def_cfa 7, 8
 4892 2214 C3       		ret
 4893              		.cfi_endproc
 4894              	.LFE1148:
 4896              		.set	_ZN12_GLOBAL__N_123TestCheckArrayEqualTrueC1Ev,_ZN12_GLOBAL__N_123TestCheckArrayEqualTrueC2Ev
 4897              		.local	_ZN12_GLOBAL__N_131testCheckArrayEqualTrueInstanceE
 4898              		.comm	_ZN12_GLOBAL__N_131testCheckArrayEqualTrueInstanceE,56,32
 4899              		.local	_ZN12_GLOBAL__N_124adderCheckArrayEqualTrueE
 4900              		.comm	_ZN12_GLOBAL__N_124adderCheckArrayEqualTrueE,1,1
 4901 2215 90       		.align 2
 4903              	_ZNK12_GLOBAL__N_123TestCheckArrayEqualTrue7RunImplEv:
 4904              	.LFB1150:
 185:TestChecks.cpp **** {
 4905              		.loc 5 185 0
 4906              		.cfi_startproc
 4907              		.cfi_personality 0x3,__gxx_personality_v0
 4908              		.cfi_lsda 0x3,.LLSDA1150
 4909 2216 55       		pushq	%rbp
 4910              		.cfi_def_cfa_offset 16
 4911              		.cfi_offset 6, -16
 4912 2217 4889E5   		movq	%rsp, %rbp
 4913              		.cfi_def_cfa_register 6
 4914 221a 53       		pushq	%rbx
 4915 221b 4881EC88 		subq	$136, %rsp
 4915      000000
 4916              		.cfi_offset 3, -24
 4917 2222 4889BD78 		movq	%rdi, -136(%rbp)
 4917      FFFFFF
 4918              		.loc 5 185 0
 4919 2229 64488B04 		movq	%fs:40, %rax
 4919      25280000 
 4919      00
 4920 2232 488945E8 		movq	%rax, -24(%rbp)
 4921 2236 31C0     		xorl	%eax, %eax
 186:TestChecks.cpp ****     TestResults results;
 4922              		.loc 5 186 0
 4923 2238 488D4590 		leaq	-112(%rbp), %rax
 4924 223c BE000000 		movl	$0, %esi
 4924      00
 4925 2241 4889C7   		movq	%rax, %rdi
 4926              	.LEHB131:
 4927 2244 E8000000 		call	_ZN8UnitTest11TestResultsC1EPNS_12TestReporterE
 4927      00
 187:TestChecks.cpp **** 
 188:TestChecks.cpp ****     int const array[3] = { 1, 2, 3 };
 4928              		.loc 5 188 0
 4929 2249 C745D001 		movl	$1, -48(%rbp)
 4929      000000
 4930 2250 C745D402 		movl	$2, -44(%rbp)
 4930      000000
 4931 2257 C745D803 		movl	$3, -40(%rbp)
 4931      000000
 189:TestChecks.cpp ****     CheckArrayEqual(results, array, array, 3, TestDetails("", "", "", 0));
 4932              		.loc 5 189 0
 4933 225e 488D45B0 		leaq	-80(%rbp), %rax
 4934 2262 41B80000 		movl	$0, %r8d
 4934      0000
 4935 2268 B9000000 		movl	$.LC6, %ecx
 4935      00
 4936 226d BA000000 		movl	$.LC6, %edx
 4936      00
 4937 2272 BE000000 		movl	$.LC6, %esi
 4937      00
 4938 2277 4889C7   		movq	%rax, %rdi
 4939 227a E8000000 		call	_ZN8UnitTest11TestDetailsC1EPKcS2_S2_i
 4939      00
 4940 227f 488D4DB0 		leaq	-80(%rbp), %rcx
 4941 2283 488D55D0 		leaq	-48(%rbp), %rdx
 4942 2287 488D75D0 		leaq	-48(%rbp), %rsi
 4943 228b 488D4590 		leaq	-112(%rbp), %rax
 4944 228f 4989C8   		movq	%rcx, %r8
 4945 2292 B9030000 		movl	$3, %ecx
 4945      00
 4946 2297 4889C7   		movq	%rax, %rdi
 4947 229a E8000000 		call	_ZN8UnitTest15CheckArrayEqualIA3_iS1_EEvRNS_11TestResultsERKT_RKT0_iRKNS_11TestDetailsE
 4947      00
 4948              	.LEHE131:
 4949              	.LEHB132:
 190:TestChecks.cpp ****     CHECK_EQUAL(0, results.GetFailureCount());
 4950              		.loc 5 190 0
 4951 229f E8000000 		call	_ZN8UnitTest11CurrentTest7DetailsEv
 4951      00
 4952 22a4 488B08   		movq	(%rax), %rcx
 4953 22a7 488D45B0 		leaq	-80(%rbp), %rax
 4954 22ab BABE0000 		movl	$190, %edx
 4954      00
 4955 22b0 4889CE   		movq	%rcx, %rsi
 4956 22b3 4889C7   		movq	%rax, %rdi
 4957 22b6 E8000000 		call	_ZN8UnitTest11TestDetailsC1ERKS0_i
 4957      00
 4958              		.loc 5 190 0 is_stmt 0 discriminator 2
 4959 22bb 488D4590 		leaq	-112(%rbp), %rax
 4960 22bf 4889C7   		movq	%rax, %rdi
 4961 22c2 E8000000 		call	_ZNK8UnitTest11TestResults15GetFailureCountEv
 4961      00
 4962              	.LEHE132:
 4963 22c7 89458C   		movl	%eax, -116(%rbp)
 4964 22ca C7458800 		movl	$0, -120(%rbp)
 4964      000000
 4965              	.LEHB133:
 4966 22d1 E8000000 		call	_ZN8UnitTest11CurrentTest7ResultsEv
 4966      00
 4967              		.loc 5 190 0 discriminator 4
 4968 22d6 488B00   		movq	(%rax), %rax
 4969 22d9 488D4DB0 		leaq	-80(%rbp), %rcx
 4970 22dd 488D558C 		leaq	-116(%rbp), %rdx
 4971 22e1 488D7588 		leaq	-120(%rbp), %rsi
 4972 22e5 4889C7   		movq	%rax, %rdi
 4973 22e8 E8000000 		call	_ZN8UnitTest10CheckEqualIiiEEvRNS_11TestResultsERKT_RKT0_RKNS_11TestDetailsE
 4973      00
 4974              	.LEHE133:
 191:TestChecks.cpp **** }
 4975              		.loc 5 191 0 is_stmt 1
 4976 22ed EB5C     		jmp	.L234
 4977              	.L241:
 4978 22ef EB00     		jmp	.L236
 4979              	.L240:
 4980              	.L236:
 190:TestChecks.cpp ****     CHECK_EQUAL(0, results.GetFailureCount());
 4981              		.loc 5 190 0
 4982 22f1 4889C7   		movq	%rax, %rdi
 4983 22f4 E8000000 		call	__cxa_begin_catch
 4983      00
 4984              	.LEHB134:
 4985 22f9 E8000000 		call	_ZN8UnitTest11CurrentTest7DetailsEv
 4985      00
 4986 22fe 488B08   		movq	(%rax), %rcx
 4987 2301 488D45B0 		leaq	-80(%rbp), %rax
 4988 2305 BABE0000 		movl	$190, %edx
 4988      00
 4989 230a 4889CE   		movq	%rcx, %rsi
 4990 230d 4889C7   		movq	%rax, %rdi
 4991 2310 E8000000 		call	_ZN8UnitTest11TestDetailsC1ERKS0_i
 4991      00
 190:TestChecks.cpp ****     CHECK_EQUAL(0, results.GetFailureCount());
 4992              		.loc 5 190 0 is_stmt 0 discriminator 12
 4993 2315 E8000000 		call	_ZN8UnitTest11CurrentTest7ResultsEv
 4993      00
 4994 231a 488B00   		movq	(%rax), %rax
 4995 231d 488D4DB0 		leaq	-80(%rbp), %rcx
 4996 2321 BA000000 		movl	$.LC9, %edx
 4996      00
 4997 2326 4889CE   		movq	%rcx, %rsi
 4998 2329 4889C7   		movq	%rax, %rdi
 4999 232c E8000000 		call	_ZN8UnitTest11TestResults13OnTestFailureERKNS_11TestDetailsEPKc
 4999      00
 5000              	.LEHE134:
 5001              	.LEHB135:
 190:TestChecks.cpp ****     CHECK_EQUAL(0, results.GetFailureCount());
 5002              		.loc 5 190 0 discriminator 16
 5003 2331 E8000000 		call	__cxa_end_catch
 5003      00
 5004              	.LEHE135:
 5005              		.loc 5 191 0 is_stmt 1 discriminator 16
 5006 2336 EB13     		jmp	.L234
 5007              	.L242:
 5008 2338 4889C3   		movq	%rax, %rbx
 190:TestChecks.cpp ****     CHECK_EQUAL(0, results.GetFailureCount());
 5009              		.loc 5 190 0
 5010 233b E8000000 		call	__cxa_end_catch
 5010      00
 5011 2340 4889D8   		movq	%rbx, %rax
 5012 2343 4889C7   		movq	%rax, %rdi
 5013              	.LEHB136:
 5014 2346 E8000000 		call	_Unwind_Resume
 5014      00
 5015              	.LEHE136:
 5016              	.L234:
 5017              		.loc 5 191 0
 5018 234b 488B45E8 		movq	-24(%rbp), %rax
 5019 234f 64483304 		xorq	%fs:40, %rax
 5019      25280000 
 5019      00
 5020 2358 7405     		je	.L239
 5021 235a E8000000 		call	__stack_chk_fail
 5021      00
 5022              	.L239:
 5023 235f 4881C488 		addq	$136, %rsp
 5023      000000
 5024 2366 5B       		popq	%rbx
 5025 2367 5D       		popq	%rbp
 5026              		.cfi_def_cfa 7, 8
 5027 2368 C3       		ret
 5028              		.cfi_endproc
 5029              	.LFE1150:
 5030              		.section	.gcc_except_table
 5031              		.align 4
 5032              	.LLSDA1150:
 5033 039c FF       		.byte	0xff
 5034 039d 03       		.byte	0x3
 5035 039e 2D       		.uleb128 .LLSDATT1150-.LLSDATTD1150
 5036              	.LLSDATTD1150:
 5037 039f 01       		.byte	0x1
 5038 03a0 20       		.uleb128 .LLSDACSE1150-.LLSDACSB1150
 5039              	.LLSDACSB1150:
 5040 03a1 2E       		.uleb128 .LEHB131-.LFB1150
 5041 03a2 5B       		.uleb128 .LEHE131-.LEHB131
 5042 03a3 00       		.uleb128 0
 5043 03a4 00       		.uleb128 0
 5044 03a5 8901     		.uleb128 .LEHB132-.LFB1150
 5045 03a7 28       		.uleb128 .LEHE132-.LEHB132
 5046 03a8 DB01     		.uleb128 .L240-.LFB1150
 5047 03aa 01       		.uleb128 0x1
 5048 03ab BB01     		.uleb128 .LEHB133-.LFB1150
 5049 03ad 1C       		.uleb128 .LEHE133-.LEHB133
 5050 03ae D901     		.uleb128 .L241-.LFB1150
 5051 03b0 03       		.uleb128 0x3
 5052 03b1 E301     		.uleb128 .LEHB134-.LFB1150
 5053 03b3 38       		.uleb128 .LEHE134-.LEHB134
 5054 03b4 A202     		.uleb128 .L242-.LFB1150
 5055 03b6 00       		.uleb128 0
 5056 03b7 9B02     		.uleb128 .LEHB135-.LFB1150
 5057 03b9 05       		.uleb128 .LEHE135-.LEHB135
 5058 03ba 00       		.uleb128 0
 5059 03bb 00       		.uleb128 0
 5060 03bc B002     		.uleb128 .LEHB136-.LFB1150
 5061 03be 05       		.uleb128 .LEHE136-.LEHB136
 5062 03bf 00       		.uleb128 0
 5063 03c0 00       		.uleb128 0
 5064              	.LLSDACSE1150:
 5065 03c1 01       		.byte	0x1
 5066 03c2 00       		.byte	0
 5067 03c3 00       		.byte	0
 5068 03c4 7D       		.byte	0x7d
 5069 03c5 000000   		.align 4
 5070 03c8 00000000 		.long	0
 5071              	
 5072              	.LLSDATT1150:
 5073              		.text
 5075              		.section	.rodata
 5076              	.LC58:
 5077 0834 43686563 		.string	"CheckArrayEqualFalse"
 5077      6B417272 
 5077      61794571 
 5077      75616C46 
 5077      616C7365 
 5078              		.text
 5079 2369 90       		.align 2
 5081              	_ZN12_GLOBAL__N_124TestCheckArrayEqualFalseC2Ev:
 5082              	.LFB1152:
 192:TestChecks.cpp **** 
 193:TestChecks.cpp **** TEST(CheckArrayEqualFalse)
 5083              		.loc 5 193 0
 5084              		.cfi_startproc
 5085 236a 55       		pushq	%rbp
 5086              		.cfi_def_cfa_offset 16
 5087              		.cfi_offset 6, -16
 5088 236b 4889E5   		movq	%rsp, %rbp
 5089              		.cfi_def_cfa_register 6
 5090 236e 4883EC10 		subq	$16, %rsp
 5091 2372 48897DF8 		movq	%rdi, -8(%rbp)
 5092              	.LBB24:
 5093              		.loc 5 193 0
 5094 2376 E8000000 		call	_ZN13UnitTestSuite12GetSuiteNameEv
 5094      00
 5095 237b 4889C2   		movq	%rax, %rdx
 5096 237e 488B45F8 		movq	-8(%rbp), %rax
 5097 2382 41B8C100 		movl	$193, %r8d
 5097      0000
 5098 2388 B9000000 		movl	$.LC2, %ecx
 5098      00
 5099 238d BE000000 		movl	$.LC58, %esi
 5099      00
 5100 2392 4889C7   		movq	%rax, %rdi
 5101 2395 E8000000 		call	_ZN8UnitTest4TestC2EPKcS2_S2_i
 5101      00
 5102 239a BA000000 		movl	$_ZTVN12_GLOBAL__N_124TestCheckArrayEqualFalseE+16, %edx
 5102      00
 5103 239f 488B45F8 		movq	-8(%rbp), %rax
 5104 23a3 488910   		movq	%rdx, (%rax)
 5105              	.LBE24:
 5106 23a6 90       		nop
 5107 23a7 C9       		leave
 5108              		.cfi_def_cfa 7, 8
 5109 23a8 C3       		ret
 5110              		.cfi_endproc
 5111              	.LFE1152:
 5113              		.set	_ZN12_GLOBAL__N_124TestCheckArrayEqualFalseC1Ev,_ZN12_GLOBAL__N_124TestCheckArrayEqualFalseC2
 5114              		.local	_ZN12_GLOBAL__N_132testCheckArrayEqualFalseInstanceE
 5115              		.comm	_ZN12_GLOBAL__N_132testCheckArrayEqualFalseInstanceE,56,32
 5116              		.local	_ZN12_GLOBAL__N_125adderCheckArrayEqualFalseE
 5117              		.comm	_ZN12_GLOBAL__N_125adderCheckArrayEqualFalseE,1,1
 5118 23a9 90       		.align 2
 5120              	_ZNK12_GLOBAL__N_124TestCheckArrayEqualFalse7RunImplEv:
 5121              	.LFB1154:
 194:TestChecks.cpp **** {
 5122              		.loc 5 194 0
 5123              		.cfi_startproc
 5124              		.cfi_personality 0x3,__gxx_personality_v0
 5125              		.cfi_lsda 0x3,.LLSDA1154
 5126 23aa 55       		pushq	%rbp
 5127              		.cfi_def_cfa_offset 16
 5128              		.cfi_offset 6, -16
 5129 23ab 4889E5   		movq	%rsp, %rbp
 5130              		.cfi_def_cfa_register 6
 5131 23ae 53       		pushq	%rbx
 5132 23af 4881EC98 		subq	$152, %rsp
 5132      000000
 5133              		.cfi_offset 3, -24
 5134 23b6 4889BD68 		movq	%rdi, -152(%rbp)
 5134      FFFFFF
 5135              		.loc 5 194 0
 5136 23bd 64488B04 		movq	%fs:40, %rax
 5136      25280000 
 5136      00
 5137 23c6 488945E8 		movq	%rax, -24(%rbp)
 5138 23ca 31C0     		xorl	%eax, %eax
 195:TestChecks.cpp ****     TestResults results;
 5139              		.loc 5 195 0
 5140 23cc 488D4580 		leaq	-128(%rbp), %rax
 5141 23d0 BE000000 		movl	$0, %esi
 5141      00
 5142 23d5 4889C7   		movq	%rax, %rdi
 5143              	.LEHB137:
 5144 23d8 E8000000 		call	_ZN8UnitTest11TestResultsC1EPNS_12TestReporterE
 5144      00
 196:TestChecks.cpp **** 
 197:TestChecks.cpp ****     int const array1[3] = { 1, 2, 3 };
 5145              		.loc 5 197 0
 5146 23dd C745C001 		movl	$1, -64(%rbp)
 5146      000000
 5147 23e4 C745C402 		movl	$2, -60(%rbp)
 5147      000000
 5148 23eb C745C803 		movl	$3, -56(%rbp)
 5148      000000
 198:TestChecks.cpp ****     int const array2[3] = { 1, 2, 2 };
 5149              		.loc 5 198 0
 5150 23f2 C745D001 		movl	$1, -48(%rbp)
 5150      000000
 5151 23f9 C745D402 		movl	$2, -44(%rbp)
 5151      000000
 5152 2400 C745D802 		movl	$2, -40(%rbp)
 5152      000000
 199:TestChecks.cpp ****     CheckArrayEqual(results, array1, array2, 3, TestDetails("", "", "", 0));
 5153              		.loc 5 199 0
 5154 2407 488D45A0 		leaq	-96(%rbp), %rax
 5155 240b 41B80000 		movl	$0, %r8d
 5155      0000
 5156 2411 B9000000 		movl	$.LC6, %ecx
 5156      00
 5157 2416 BA000000 		movl	$.LC6, %edx
 5157      00
 5158 241b BE000000 		movl	$.LC6, %esi
 5158      00
 5159 2420 4889C7   		movq	%rax, %rdi
 5160 2423 E8000000 		call	_ZN8UnitTest11TestDetailsC1EPKcS2_S2_i
 5160      00
 5161 2428 488D4DA0 		leaq	-96(%rbp), %rcx
 5162 242c 488D55D0 		leaq	-48(%rbp), %rdx
 5163 2430 488D75C0 		leaq	-64(%rbp), %rsi
 5164 2434 488D4580 		leaq	-128(%rbp), %rax
 5165 2438 4989C8   		movq	%rcx, %r8
 5166 243b B9030000 		movl	$3, %ecx
 5166      00
 5167 2440 4889C7   		movq	%rax, %rdi
 5168 2443 E8000000 		call	_ZN8UnitTest15CheckArrayEqualIA3_iS1_EEvRNS_11TestResultsERKT_RKT0_iRKNS_11TestDetailsE
 5168      00
 5169              	.LEHE137:
 5170              	.LEHB138:
 200:TestChecks.cpp ****     CHECK_EQUAL(1, results.GetFailureCount());
 5171              		.loc 5 200 0
 5172 2448 E8000000 		call	_ZN8UnitTest11CurrentTest7DetailsEv
 5172      00
 5173 244d 488B08   		movq	(%rax), %rcx
 5174 2450 488D45A0 		leaq	-96(%rbp), %rax
 5175 2454 BAC80000 		movl	$200, %edx
 5175      00
 5176 2459 4889CE   		movq	%rcx, %rsi
 5177 245c 4889C7   		movq	%rax, %rdi
 5178 245f E8000000 		call	_ZN8UnitTest11TestDetailsC1ERKS0_i
 5178      00
 5179              		.loc 5 200 0 is_stmt 0 discriminator 2
 5180 2464 488D4580 		leaq	-128(%rbp), %rax
 5181 2468 4889C7   		movq	%rax, %rdi
 5182 246b E8000000 		call	_ZNK8UnitTest11TestResults15GetFailureCountEv
 5182      00
 5183              	.LEHE138:
 5184 2470 89857CFF 		movl	%eax, -132(%rbp)
 5184      FFFF
 5185 2476 C78578FF 		movl	$1, -136(%rbp)
 5185      FFFF0100 
 5185      0000
 5186              	.LEHB139:
 5187 2480 E8000000 		call	_ZN8UnitTest11CurrentTest7ResultsEv
 5187      00
 5188              		.loc 5 200 0 discriminator 4
 5189 2485 488B00   		movq	(%rax), %rax
 5190 2488 488D4DA0 		leaq	-96(%rbp), %rcx
 5191 248c 488D957C 		leaq	-132(%rbp), %rdx
 5191      FFFFFF
 5192 2493 488DB578 		leaq	-136(%rbp), %rsi
 5192      FFFFFF
 5193 249a 4889C7   		movq	%rax, %rdi
 5194 249d E8000000 		call	_ZN8UnitTest10CheckEqualIiiEEvRNS_11TestResultsERKT_RKT0_RKNS_11TestDetailsE
 5194      00
 5195              	.LEHE139:
 201:TestChecks.cpp **** }
 5196              		.loc 5 201 0 is_stmt 1
 5197 24a2 EB5C     		jmp	.L244
 5198              	.L251:
 5199 24a4 EB00     		jmp	.L246
 5200              	.L250:
 5201              	.L246:
 200:TestChecks.cpp ****     CHECK_EQUAL(1, results.GetFailureCount());
 5202              		.loc 5 200 0
 5203 24a6 4889C7   		movq	%rax, %rdi
 5204 24a9 E8000000 		call	__cxa_begin_catch
 5204      00
 5205              	.LEHB140:
 5206 24ae E8000000 		call	_ZN8UnitTest11CurrentTest7DetailsEv
 5206      00
 5207 24b3 488B08   		movq	(%rax), %rcx
 5208 24b6 488D45A0 		leaq	-96(%rbp), %rax
 5209 24ba BAC80000 		movl	$200, %edx
 5209      00
 5210 24bf 4889CE   		movq	%rcx, %rsi
 5211 24c2 4889C7   		movq	%rax, %rdi
 5212 24c5 E8000000 		call	_ZN8UnitTest11TestDetailsC1ERKS0_i
 5212      00
 200:TestChecks.cpp ****     CHECK_EQUAL(1, results.GetFailureCount());
 5213              		.loc 5 200 0 is_stmt 0 discriminator 12
 5214 24ca E8000000 		call	_ZN8UnitTest11CurrentTest7ResultsEv
 5214      00
 5215 24cf 488B00   		movq	(%rax), %rax
 5216 24d2 488D4DA0 		leaq	-96(%rbp), %rcx
 5217 24d6 BA000000 		movl	$.LC7, %edx
 5217      00
 5218 24db 4889CE   		movq	%rcx, %rsi
 5219 24de 4889C7   		movq	%rax, %rdi
 5220 24e1 E8000000 		call	_ZN8UnitTest11TestResults13OnTestFailureERKNS_11TestDetailsEPKc
 5220      00
 5221              	.LEHE140:
 5222              	.LEHB141:
 200:TestChecks.cpp ****     CHECK_EQUAL(1, results.GetFailureCount());
 5223              		.loc 5 200 0 discriminator 16
 5224 24e6 E8000000 		call	__cxa_end_catch
 5224      00
 5225              	.LEHE141:
 5226              		.loc 5 201 0 is_stmt 1 discriminator 16
 5227 24eb EB13     		jmp	.L244
 5228              	.L252:
 5229 24ed 4889C3   		movq	%rax, %rbx
 200:TestChecks.cpp ****     CHECK_EQUAL(1, results.GetFailureCount());
 5230              		.loc 5 200 0
 5231 24f0 E8000000 		call	__cxa_end_catch
 5231      00
 5232 24f5 4889D8   		movq	%rbx, %rax
 5233 24f8 4889C7   		movq	%rax, %rdi
 5234              	.LEHB142:
 5235 24fb E8000000 		call	_Unwind_Resume
 5235      00
 5236              	.LEHE142:
 5237              	.L244:
 5238              		.loc 5 201 0
 5239 2500 488B45E8 		movq	-24(%rbp), %rax
 5240 2504 64483304 		xorq	%fs:40, %rax
 5240      25280000 
 5240      00
 5241 250d 7405     		je	.L249
 5242 250f E8000000 		call	__stack_chk_fail
 5242      00
 5243              	.L249:
 5244 2514 4881C498 		addq	$152, %rsp
 5244      000000
 5245 251b 5B       		popq	%rbx
 5246 251c 5D       		popq	%rbp
 5247              		.cfi_def_cfa 7, 8
 5248 251d C3       		ret
 5249              		.cfi_endproc
 5250              	.LFE1154:
 5251              		.section	.gcc_except_table
 5252              		.align 4
 5253              	.LLSDA1154:
 5254 03cc FF       		.byte	0xff
 5255 03cd 03       		.byte	0x3
 5256 03ce 2D       		.uleb128 .LLSDATT1154-.LLSDATTD1154
 5257              	.LLSDATTD1154:
 5258 03cf 01       		.byte	0x1
 5259 03d0 20       		.uleb128 .LLSDACSE1154-.LLSDACSB1154
 5260              	.LLSDACSB1154:
 5261 03d1 2E       		.uleb128 .LEHB137-.LFB1154
 5262 03d2 70       		.uleb128 .LEHE137-.LEHB137
 5263 03d3 00       		.uleb128 0
 5264 03d4 00       		.uleb128 0
 5265 03d5 9E01     		.uleb128 .LEHB138-.LFB1154
 5266 03d7 28       		.uleb128 .LEHE138-.LEHB138
 5267 03d8 FC01     		.uleb128 .L250-.LFB1154
 5268 03da 01       		.uleb128 0x1
 5269 03db D601     		.uleb128 .LEHB139-.LFB1154
 5270 03dd 22       		.uleb128 .LEHE139-.LEHB139
 5271 03de FA01     		.uleb128 .L251-.LFB1154
 5272 03e0 03       		.uleb128 0x3
 5273 03e1 8402     		.uleb128 .LEHB140-.LFB1154
 5274 03e3 38       		.uleb128 .LEHE140-.LEHB140
 5275 03e4 C302     		.uleb128 .L252-.LFB1154
 5276 03e6 00       		.uleb128 0
 5277 03e7 BC02     		.uleb128 .LEHB141-.LFB1154
 5278 03e9 05       		.uleb128 .LEHE141-.LEHB141
 5279 03ea 00       		.uleb128 0
 5280 03eb 00       		.uleb128 0
 5281 03ec D102     		.uleb128 .LEHB142-.LFB1154
 5282 03ee 05       		.uleb128 .LEHE142-.LEHB142
 5283 03ef 00       		.uleb128 0
 5284 03f0 00       		.uleb128 0
 5285              	.LLSDACSE1154:
 5286 03f1 01       		.byte	0x1
 5287 03f2 00       		.byte	0
 5288 03f3 00       		.byte	0
 5289 03f4 7D       		.byte	0x7d
 5290 03f5 000000   		.align 4
 5291 03f8 00000000 		.long	0
 5292              	
 5293              	.LLSDATT1154:
 5294              		.text
 5296              		.section	.rodata
 5297              	.LC59:
 5298 0849 43686563 		.string	"CheckArrayCloseTrue"
 5298      6B417272 
 5298      6179436C 
 5298      6F736554 
 5298      72756500 
 5299              		.text
 5300              		.align 2
 5302              	_ZN12_GLOBAL__N_123TestCheckArrayCloseTrueC2Ev:
 5303              	.LFB1156:
 202:TestChecks.cpp **** 
 203:TestChecks.cpp **** TEST(CheckArrayCloseTrue)
 5304              		.loc 5 203 0
 5305              		.cfi_startproc
 5306 251e 55       		pushq	%rbp
 5307              		.cfi_def_cfa_offset 16
 5308              		.cfi_offset 6, -16
 5309 251f 4889E5   		movq	%rsp, %rbp
 5310              		.cfi_def_cfa_register 6
 5311 2522 4883EC10 		subq	$16, %rsp
 5312 2526 48897DF8 		movq	%rdi, -8(%rbp)
 5313              	.LBB25:
 5314              		.loc 5 203 0
 5315 252a E8000000 		call	_ZN13UnitTestSuite12GetSuiteNameEv
 5315      00
 5316 252f 4889C2   		movq	%rax, %rdx
 5317 2532 488B45F8 		movq	-8(%rbp), %rax
 5318 2536 41B8CB00 		movl	$203, %r8d
 5318      0000
 5319 253c B9000000 		movl	$.LC2, %ecx
 5319      00
 5320 2541 BE000000 		movl	$.LC59, %esi
 5320      00
 5321 2546 4889C7   		movq	%rax, %rdi
 5322 2549 E8000000 		call	_ZN8UnitTest4TestC2EPKcS2_S2_i
 5322      00
 5323 254e BA000000 		movl	$_ZTVN12_GLOBAL__N_123TestCheckArrayCloseTrueE+16, %edx
 5323      00
 5324 2553 488B45F8 		movq	-8(%rbp), %rax
 5325 2557 488910   		movq	%rdx, (%rax)
 5326              	.LBE25:
 5327 255a 90       		nop
 5328 255b C9       		leave
 5329              		.cfi_def_cfa 7, 8
 5330 255c C3       		ret
 5331              		.cfi_endproc
 5332              	.LFE1156:
 5334              		.set	_ZN12_GLOBAL__N_123TestCheckArrayCloseTrueC1Ev,_ZN12_GLOBAL__N_123TestCheckArrayCloseTrueC2Ev
 5335              		.local	_ZN12_GLOBAL__N_131testCheckArrayCloseTrueInstanceE
 5336              		.comm	_ZN12_GLOBAL__N_131testCheckArrayCloseTrueInstanceE,56,32
 5337              		.local	_ZN12_GLOBAL__N_124adderCheckArrayCloseTrueE
 5338              		.comm	_ZN12_GLOBAL__N_124adderCheckArrayCloseTrueE,1,1
 5339 255d 90       		.align 2
 5341              	_ZNK12_GLOBAL__N_123TestCheckArrayCloseTrue7RunImplEv:
 5342              	.LFB1158:
 204:TestChecks.cpp **** {
 5343              		.loc 5 204 0
 5344              		.cfi_startproc
 5345              		.cfi_personality 0x3,__gxx_personality_v0
 5346              		.cfi_lsda 0x3,.LLSDA1158
 5347 255e 55       		pushq	%rbp
 5348              		.cfi_def_cfa_offset 16
 5349              		.cfi_offset 6, -16
 5350 255f 4889E5   		movq	%rsp, %rbp
 5351              		.cfi_def_cfa_register 6
 5352 2562 53       		pushq	%rbx
 5353 2563 4881EC98 		subq	$152, %rsp
 5353      000000
 5354              		.cfi_offset 3, -24
 5355 256a 4889BD68 		movq	%rdi, -152(%rbp)
 5355      FFFFFF
 5356              		.loc 5 204 0
 5357 2571 64488B04 		movq	%fs:40, %rax
 5357      25280000 
 5357      00
 5358 257a 488945E8 		movq	%rax, -24(%rbp)
 5359 257e 31C0     		xorl	%eax, %eax
 205:TestChecks.cpp ****     TestResults results;
 5360              		.loc 5 205 0
 5361 2580 488D4580 		leaq	-128(%rbp), %rax
 5362 2584 BE000000 		movl	$0, %esi
 5362      00
 5363 2589 4889C7   		movq	%rax, %rdi
 5364              	.LEHB143:
 5365 258c E8000000 		call	_ZN8UnitTest11TestResultsC1EPNS_12TestReporterE
 5365      00
 206:TestChecks.cpp **** 
 207:TestChecks.cpp ****     float const array1[3] = { 1.0f, 1.5f, 2.0f };
 5366              		.loc 5 207 0
 5367 2591 F30F1005 		movss	.LC60(%rip), %xmm0
 5367      00000000 
 5368 2599 F30F1145 		movss	%xmm0, -64(%rbp)
 5368      C0
 5369 259e F30F1005 		movss	.LC61(%rip), %xmm0
 5369      00000000 
 5370 25a6 F30F1145 		movss	%xmm0, -60(%rbp)
 5370      C4
 5371 25ab F30F1005 		movss	.LC62(%rip), %xmm0
 5371      00000000 
 5372 25b3 F30F1145 		movss	%xmm0, -56(%rbp)
 5372      C8
 208:TestChecks.cpp ****     float const array2[3] = { 1.01f, 1.51f, 2.01f };
 5373              		.loc 5 208 0
 5374 25b8 F30F1005 		movss	.LC63(%rip), %xmm0
 5374      00000000 
 5375 25c0 F30F1145 		movss	%xmm0, -48(%rbp)
 5375      D0
 5376 25c5 F30F1005 		movss	.LC64(%rip), %xmm0
 5376      00000000 
 5377 25cd F30F1145 		movss	%xmm0, -44(%rbp)
 5377      D4
 5378 25d2 F30F1005 		movss	.LC65(%rip), %xmm0
 5378      00000000 
 5379 25da F30F1145 		movss	%xmm0, -40(%rbp)
 5379      D8
 209:TestChecks.cpp ****     CheckArrayClose(results, array1, array2, 3, 0.02f, TestDetails("", "", "", 0));
 5380              		.loc 5 209 0
 5381 25df 488D45A0 		leaq	-96(%rbp), %rax
 5382 25e3 41B80000 		movl	$0, %r8d
 5382      0000
 5383 25e9 B9000000 		movl	$.LC6, %ecx
 5383      00
 5384 25ee BA000000 		movl	$.LC6, %edx
 5384      00
 5385 25f3 BE000000 		movl	$.LC6, %esi
 5385      00
 5386 25f8 4889C7   		movq	%rax, %rdi
 5387 25fb E8000000 		call	_ZN8UnitTest11TestDetailsC1EPKcS2_S2_i
 5387      00
 5388 2600 F30F1005 		movss	.LC66(%rip), %xmm0
 5388      00000000 
 5389 2608 F30F1185 		movss	%xmm0, -132(%rbp)
 5389      7CFFFFFF 
 5390 2610 488D7DA0 		leaq	-96(%rbp), %rdi
 5391 2614 488D8D7C 		leaq	-132(%rbp), %rcx
 5391      FFFFFF
 5392 261b 488D55D0 		leaq	-48(%rbp), %rdx
 5393 261f 488D75C0 		leaq	-64(%rbp), %rsi
 5394 2623 488D4580 		leaq	-128(%rbp), %rax
 5395 2627 4989F9   		movq	%rdi, %r9
 5396 262a 4989C8   		movq	%rcx, %r8
 5397 262d B9030000 		movl	$3, %ecx
 5397      00
 5398 2632 4889C7   		movq	%rax, %rdi
 5399 2635 E8000000 		call	_ZN8UnitTest15CheckArrayCloseIA3_fS1_fEEvRNS_11TestResultsERKT_RKT0_iRKT1_RKNS_11TestDetailsE
 5399      00
 5400              	.LEHE143:
 5401              	.LEHB144:
 210:TestChecks.cpp ****     CHECK_EQUAL(0, results.GetFailureCount());
 5402              		.loc 5 210 0
 5403 263a E8000000 		call	_ZN8UnitTest11CurrentTest7DetailsEv
 5403      00
 5404 263f 488B08   		movq	(%rax), %rcx
 5405 2642 488D45A0 		leaq	-96(%rbp), %rax
 5406 2646 BAD20000 		movl	$210, %edx
 5406      00
 5407 264b 4889CE   		movq	%rcx, %rsi
 5408 264e 4889C7   		movq	%rax, %rdi
 5409 2651 E8000000 		call	_ZN8UnitTest11TestDetailsC1ERKS0_i
 5409      00
 5410              		.loc 5 210 0 is_stmt 0 discriminator 2
 5411 2656 488D4580 		leaq	-128(%rbp), %rax
 5412 265a 4889C7   		movq	%rax, %rdi
 5413 265d E8000000 		call	_ZNK8UnitTest11TestResults15GetFailureCountEv
 5413      00
 5414              	.LEHE144:
 5415 2662 89857CFF 		movl	%eax, -132(%rbp)
 5415      FFFF
 5416 2668 C78578FF 		movl	$0, -136(%rbp)
 5416      FFFF0000 
 5416      0000
 5417              	.LEHB145:
 5418 2672 E8000000 		call	_ZN8UnitTest11CurrentTest7ResultsEv
 5418      00
 5419              		.loc 5 210 0 discriminator 4
 5420 2677 488B00   		movq	(%rax), %rax
 5421 267a 488D4DA0 		leaq	-96(%rbp), %rcx
 5422 267e 488D957C 		leaq	-132(%rbp), %rdx
 5422      FFFFFF
 5423 2685 488DB578 		leaq	-136(%rbp), %rsi
 5423      FFFFFF
 5424 268c 4889C7   		movq	%rax, %rdi
 5425 268f E8000000 		call	_ZN8UnitTest10CheckEqualIiiEEvRNS_11TestResultsERKT_RKT0_RKNS_11TestDetailsE
 5425      00
 5426              	.LEHE145:
 211:TestChecks.cpp **** }
 5427              		.loc 5 211 0 is_stmt 1
 5428 2694 EB5C     		jmp	.L254
 5429              	.L261:
 5430 2696 EB00     		jmp	.L256
 5431              	.L260:
 5432              	.L256:
 210:TestChecks.cpp ****     CHECK_EQUAL(0, results.GetFailureCount());
 5433              		.loc 5 210 0
 5434 2698 4889C7   		movq	%rax, %rdi
 5435 269b E8000000 		call	__cxa_begin_catch
 5435      00
 5436              	.LEHB146:
 5437 26a0 E8000000 		call	_ZN8UnitTest11CurrentTest7DetailsEv
 5437      00
 5438 26a5 488B08   		movq	(%rax), %rcx
 5439 26a8 488D45A0 		leaq	-96(%rbp), %rax
 5440 26ac BAD20000 		movl	$210, %edx
 5440      00
 5441 26b1 4889CE   		movq	%rcx, %rsi
 5442 26b4 4889C7   		movq	%rax, %rdi
 5443 26b7 E8000000 		call	_ZN8UnitTest11TestDetailsC1ERKS0_i
 5443      00
 210:TestChecks.cpp ****     CHECK_EQUAL(0, results.GetFailureCount());
 5444              		.loc 5 210 0 is_stmt 0 discriminator 12
 5445 26bc E8000000 		call	_ZN8UnitTest11CurrentTest7ResultsEv
 5445      00
 5446 26c1 488B00   		movq	(%rax), %rax
 5447 26c4 488D4DA0 		leaq	-96(%rbp), %rcx
 5448 26c8 BA000000 		movl	$.LC9, %edx
 5448      00
 5449 26cd 4889CE   		movq	%rcx, %rsi
 5450 26d0 4889C7   		movq	%rax, %rdi
 5451 26d3 E8000000 		call	_ZN8UnitTest11TestResults13OnTestFailureERKNS_11TestDetailsEPKc
 5451      00
 5452              	.LEHE146:
 5453              	.LEHB147:
 210:TestChecks.cpp ****     CHECK_EQUAL(0, results.GetFailureCount());
 5454              		.loc 5 210 0 discriminator 16
 5455 26d8 E8000000 		call	__cxa_end_catch
 5455      00
 5456              	.LEHE147:
 5457              		.loc 5 211 0 is_stmt 1 discriminator 16
 5458 26dd EB13     		jmp	.L254
 5459              	.L262:
 5460 26df 4889C3   		movq	%rax, %rbx
 210:TestChecks.cpp ****     CHECK_EQUAL(0, results.GetFailureCount());
 5461              		.loc 5 210 0
 5462 26e2 E8000000 		call	__cxa_end_catch
 5462      00
 5463 26e7 4889D8   		movq	%rbx, %rax
 5464 26ea 4889C7   		movq	%rax, %rdi
 5465              	.LEHB148:
 5466 26ed E8000000 		call	_Unwind_Resume
 5466      00
 5467              	.LEHE148:
 5468              	.L254:
 5469              		.loc 5 211 0
 5470 26f2 488B45E8 		movq	-24(%rbp), %rax
 5471 26f6 64483304 		xorq	%fs:40, %rax
 5471      25280000 
 5471      00
 5472 26ff 7405     		je	.L259
 5473 2701 E8000000 		call	__stack_chk_fail
 5473      00
 5474              	.L259:
 5475 2706 4881C498 		addq	$152, %rsp
 5475      000000
 5476 270d 5B       		popq	%rbx
 5477 270e 5D       		popq	%rbp
 5478              		.cfi_def_cfa 7, 8
 5479 270f C3       		ret
 5480              		.cfi_endproc
 5481              	.LFE1158:
 5482              		.section	.gcc_except_table
 5483              		.align 4
 5484              	.LLSDA1158:
 5485 03fc FF       		.byte	0xff
 5486 03fd 03       		.byte	0x3
 5487 03fe 2D       		.uleb128 .LLSDATT1158-.LLSDATTD1158
 5488              	.LLSDATTD1158:
 5489 03ff 01       		.byte	0x1
 5490 0400 21       		.uleb128 .LLSDACSE1158-.LLSDACSB1158
 5491              	.LLSDACSB1158:
 5492 0401 2E       		.uleb128 .LEHB143-.LFB1158
 5493 0402 AE01     		.uleb128 .LEHE143-.LEHB143
 5494 0404 00       		.uleb128 0
 5495 0405 00       		.uleb128 0
 5496 0406 DC01     		.uleb128 .LEHB144-.LFB1158
 5497 0408 28       		.uleb128 .LEHE144-.LEHB144
 5498 0409 BA02     		.uleb128 .L260-.LFB1158
 5499 040b 01       		.uleb128 0x1
 5500 040c 9402     		.uleb128 .LEHB145-.LFB1158
 5501 040e 22       		.uleb128 .LEHE145-.LEHB145
 5502 040f B802     		.uleb128 .L261-.LFB1158
 5503 0411 03       		.uleb128 0x3
 5504 0412 C202     		.uleb128 .LEHB146-.LFB1158
 5505 0414 38       		.uleb128 .LEHE146-.LEHB146
 5506 0415 8103     		.uleb128 .L262-.LFB1158
 5507 0417 00       		.uleb128 0
 5508 0418 FA02     		.uleb128 .LEHB147-.LFB1158
 5509 041a 05       		.uleb128 .LEHE147-.LEHB147
 5510 041b 00       		.uleb128 0
 5511 041c 00       		.uleb128 0
 5512 041d 8F03     		.uleb128 .LEHB148-.LFB1158
 5513 041f 05       		.uleb128 .LEHE148-.LEHB148
 5514 0420 00       		.uleb128 0
 5515 0421 00       		.uleb128 0
 5516              	.LLSDACSE1158:
 5517 0422 01       		.byte	0x1
 5518 0423 00       		.byte	0
 5519 0424 00       		.byte	0
 5520 0425 7D       		.byte	0x7d
 5521 0426 0000     		.align 4
 5522 0428 00000000 		.long	0
 5523              	
 5524              	.LLSDATT1158:
 5525              		.text
 5527              		.section	.rodata
 5528              	.LC67:
 5529 085d 43686563 		.string	"CheckArrayCloseFalse"
 5529      6B417272 
 5529      6179436C 
 5529      6F736546 
 5529      616C7365 
 5530              		.text
 5531              		.align 2
 5533              	_ZN12_GLOBAL__N_124TestCheckArrayCloseFalseC2Ev:
 5534              	.LFB1160:
 212:TestChecks.cpp **** 
 213:TestChecks.cpp **** TEST(CheckArrayCloseFalse)
 5535              		.loc 5 213 0
 5536              		.cfi_startproc
 5537 2710 55       		pushq	%rbp
 5538              		.cfi_def_cfa_offset 16
 5539              		.cfi_offset 6, -16
 5540 2711 4889E5   		movq	%rsp, %rbp
 5541              		.cfi_def_cfa_register 6
 5542 2714 4883EC10 		subq	$16, %rsp
 5543 2718 48897DF8 		movq	%rdi, -8(%rbp)
 5544              	.LBB26:
 5545              		.loc 5 213 0
 5546 271c E8000000 		call	_ZN13UnitTestSuite12GetSuiteNameEv
 5546      00
 5547 2721 4889C2   		movq	%rax, %rdx
 5548 2724 488B45F8 		movq	-8(%rbp), %rax
 5549 2728 41B8D500 		movl	$213, %r8d
 5549      0000
 5550 272e B9000000 		movl	$.LC2, %ecx
 5550      00
 5551 2733 BE000000 		movl	$.LC67, %esi
 5551      00
 5552 2738 4889C7   		movq	%rax, %rdi
 5553 273b E8000000 		call	_ZN8UnitTest4TestC2EPKcS2_S2_i
 5553      00
 5554 2740 BA000000 		movl	$_ZTVN12_GLOBAL__N_124TestCheckArrayCloseFalseE+16, %edx
 5554      00
 5555 2745 488B45F8 		movq	-8(%rbp), %rax
 5556 2749 488910   		movq	%rdx, (%rax)
 5557              	.LBE26:
 5558 274c 90       		nop
 5559 274d C9       		leave
 5560              		.cfi_def_cfa 7, 8
 5561 274e C3       		ret
 5562              		.cfi_endproc
 5563              	.LFE1160:
 5565              		.set	_ZN12_GLOBAL__N_124TestCheckArrayCloseFalseC1Ev,_ZN12_GLOBAL__N_124TestCheckArrayCloseFalseC2
 5566              		.local	_ZN12_GLOBAL__N_132testCheckArrayCloseFalseInstanceE
 5567              		.comm	_ZN12_GLOBAL__N_132testCheckArrayCloseFalseInstanceE,56,32
 5568              		.local	_ZN12_GLOBAL__N_125adderCheckArrayCloseFalseE
 5569              		.comm	_ZN12_GLOBAL__N_125adderCheckArrayCloseFalseE,1,1
 5570 274f 90       		.align 2
 5572              	_ZNK12_GLOBAL__N_124TestCheckArrayCloseFalse7RunImplEv:
 5573              	.LFB1162:
 214:TestChecks.cpp **** {
 5574              		.loc 5 214 0
 5575              		.cfi_startproc
 5576              		.cfi_personality 0x3,__gxx_personality_v0
 5577              		.cfi_lsda 0x3,.LLSDA1162
 5578 2750 55       		pushq	%rbp
 5579              		.cfi_def_cfa_offset 16
 5580              		.cfi_offset 6, -16
 5581 2751 4889E5   		movq	%rsp, %rbp
 5582              		.cfi_def_cfa_register 6
 5583 2754 53       		pushq	%rbx
 5584 2755 4881EC98 		subq	$152, %rsp
 5584      000000
 5585              		.cfi_offset 3, -24
 5586 275c 4889BD68 		movq	%rdi, -152(%rbp)
 5586      FFFFFF
 5587              		.loc 5 214 0
 5588 2763 64488B04 		movq	%fs:40, %rax
 5588      25280000 
 5588      00
 5589 276c 488945E8 		movq	%rax, -24(%rbp)
 5590 2770 31C0     		xorl	%eax, %eax
 215:TestChecks.cpp ****     TestResults results;
 5591              		.loc 5 215 0
 5592 2772 488D4580 		leaq	-128(%rbp), %rax
 5593 2776 BE000000 		movl	$0, %esi
 5593      00
 5594 277b 4889C7   		movq	%rax, %rdi
 5595              	.LEHB149:
 5596 277e E8000000 		call	_ZN8UnitTest11TestResultsC1EPNS_12TestReporterE
 5596      00
 216:TestChecks.cpp **** 
 217:TestChecks.cpp ****     float const array1[3] = { 1.0f, 1.5f, 2.0f };
 5597              		.loc 5 217 0
 5598 2783 F30F1005 		movss	.LC60(%rip), %xmm0
 5598      00000000 
 5599 278b F30F1145 		movss	%xmm0, -64(%rbp)
 5599      C0
 5600 2790 F30F1005 		movss	.LC61(%rip), %xmm0
 5600      00000000 
 5601 2798 F30F1145 		movss	%xmm0, -60(%rbp)
 5601      C4
 5602 279d F30F1005 		movss	.LC62(%rip), %xmm0
 5602      00000000 
 5603 27a5 F30F1145 		movss	%xmm0, -56(%rbp)
 5603      C8
 218:TestChecks.cpp ****     float const array2[3] = { 1.01f, 1.51f, 2.01f };
 5604              		.loc 5 218 0
 5605 27aa F30F1005 		movss	.LC63(%rip), %xmm0
 5605      00000000 
 5606 27b2 F30F1145 		movss	%xmm0, -48(%rbp)
 5606      D0
 5607 27b7 F30F1005 		movss	.LC64(%rip), %xmm0
 5607      00000000 
 5608 27bf F30F1145 		movss	%xmm0, -44(%rbp)
 5608      D4
 5609 27c4 F30F1005 		movss	.LC65(%rip), %xmm0
 5609      00000000 
 5610 27cc F30F1145 		movss	%xmm0, -40(%rbp)
 5610      D8
 219:TestChecks.cpp ****     CheckArrayClose(results, array1, array2, 3, 0.001f, TestDetails("", "", "", 0));
 5611              		.loc 5 219 0
 5612 27d1 488D45A0 		leaq	-96(%rbp), %rax
 5613 27d5 41B80000 		movl	$0, %r8d
 5613      0000
 5614 27db B9000000 		movl	$.LC6, %ecx
 5614      00
 5615 27e0 BA000000 		movl	$.LC6, %edx
 5615      00
 5616 27e5 BE000000 		movl	$.LC6, %esi
 5616      00
 5617 27ea 4889C7   		movq	%rax, %rdi
 5618 27ed E8000000 		call	_ZN8UnitTest11TestDetailsC1EPKcS2_S2_i
 5618      00
 5619 27f2 F30F1005 		movss	.LC68(%rip), %xmm0
 5619      00000000 
 5620 27fa F30F1185 		movss	%xmm0, -132(%rbp)
 5620      7CFFFFFF 
 5621 2802 488D7DA0 		leaq	-96(%rbp), %rdi
 5622 2806 488D8D7C 		leaq	-132(%rbp), %rcx
 5622      FFFFFF
 5623 280d 488D55D0 		leaq	-48(%rbp), %rdx
 5624 2811 488D75C0 		leaq	-64(%rbp), %rsi
 5625 2815 488D4580 		leaq	-128(%rbp), %rax
 5626 2819 4989F9   		movq	%rdi, %r9
 5627 281c 4989C8   		movq	%rcx, %r8
 5628 281f B9030000 		movl	$3, %ecx
 5628      00
 5629 2824 4889C7   		movq	%rax, %rdi
 5630 2827 E8000000 		call	_ZN8UnitTest15CheckArrayCloseIA3_fS1_fEEvRNS_11TestResultsERKT_RKT0_iRKT1_RKNS_11TestDetailsE
 5630      00
 5631              	.LEHE149:
 5632              	.LEHB150:
 220:TestChecks.cpp ****     CHECK_EQUAL(1, results.GetFailureCount());
 5633              		.loc 5 220 0
 5634 282c E8000000 		call	_ZN8UnitTest11CurrentTest7DetailsEv
 5634      00
 5635 2831 488B08   		movq	(%rax), %rcx
 5636 2834 488D45A0 		leaq	-96(%rbp), %rax
 5637 2838 BADC0000 		movl	$220, %edx
 5637      00
 5638 283d 4889CE   		movq	%rcx, %rsi
 5639 2840 4889C7   		movq	%rax, %rdi
 5640 2843 E8000000 		call	_ZN8UnitTest11TestDetailsC1ERKS0_i
 5640      00
 5641              		.loc 5 220 0 is_stmt 0 discriminator 2
 5642 2848 488D4580 		leaq	-128(%rbp), %rax
 5643 284c 4889C7   		movq	%rax, %rdi
 5644 284f E8000000 		call	_ZNK8UnitTest11TestResults15GetFailureCountEv
 5644      00
 5645              	.LEHE150:
 5646 2854 89857CFF 		movl	%eax, -132(%rbp)
 5646      FFFF
 5647 285a C78578FF 		movl	$1, -136(%rbp)
 5647      FFFF0100 
 5647      0000
 5648              	.LEHB151:
 5649 2864 E8000000 		call	_ZN8UnitTest11CurrentTest7ResultsEv
 5649      00
 5650              		.loc 5 220 0 discriminator 4
 5651 2869 488B00   		movq	(%rax), %rax
 5652 286c 488D4DA0 		leaq	-96(%rbp), %rcx
 5653 2870 488D957C 		leaq	-132(%rbp), %rdx
 5653      FFFFFF
 5654 2877 488DB578 		leaq	-136(%rbp), %rsi
 5654      FFFFFF
 5655 287e 4889C7   		movq	%rax, %rdi
 5656 2881 E8000000 		call	_ZN8UnitTest10CheckEqualIiiEEvRNS_11TestResultsERKT_RKT0_RKNS_11TestDetailsE
 5656      00
 5657              	.LEHE151:
 221:TestChecks.cpp **** }
 5658              		.loc 5 221 0 is_stmt 1
 5659 2886 EB5C     		jmp	.L264
 5660              	.L271:
 5661 2888 EB00     		jmp	.L266
 5662              	.L270:
 5663              	.L266:
 220:TestChecks.cpp ****     CHECK_EQUAL(1, results.GetFailureCount());
 5664              		.loc 5 220 0
 5665 288a 4889C7   		movq	%rax, %rdi
 5666 288d E8000000 		call	__cxa_begin_catch
 5666      00
 5667              	.LEHB152:
 5668 2892 E8000000 		call	_ZN8UnitTest11CurrentTest7DetailsEv
 5668      00
 5669 2897 488B08   		movq	(%rax), %rcx
 5670 289a 488D45A0 		leaq	-96(%rbp), %rax
 5671 289e BADC0000 		movl	$220, %edx
 5671      00
 5672 28a3 4889CE   		movq	%rcx, %rsi
 5673 28a6 4889C7   		movq	%rax, %rdi
 5674 28a9 E8000000 		call	_ZN8UnitTest11TestDetailsC1ERKS0_i
 5674      00
 220:TestChecks.cpp ****     CHECK_EQUAL(1, results.GetFailureCount());
 5675              		.loc 5 220 0 is_stmt 0 discriminator 12
 5676 28ae E8000000 		call	_ZN8UnitTest11CurrentTest7ResultsEv
 5676      00
 5677 28b3 488B00   		movq	(%rax), %rax
 5678 28b6 488D4DA0 		leaq	-96(%rbp), %rcx
 5679 28ba BA000000 		movl	$.LC7, %edx
 5679      00
 5680 28bf 4889CE   		movq	%rcx, %rsi
 5681 28c2 4889C7   		movq	%rax, %rdi
 5682 28c5 E8000000 		call	_ZN8UnitTest11TestResults13OnTestFailureERKNS_11TestDetailsEPKc
 5682      00
 5683              	.LEHE152:
 5684              	.LEHB153:
 220:TestChecks.cpp ****     CHECK_EQUAL(1, results.GetFailureCount());
 5685              		.loc 5 220 0 discriminator 16
 5686 28ca E8000000 		call	__cxa_end_catch
 5686      00
 5687              	.LEHE153:
 5688              		.loc 5 221 0 is_stmt 1 discriminator 16
 5689 28cf EB13     		jmp	.L264
 5690              	.L272:
 5691 28d1 4889C3   		movq	%rax, %rbx
 220:TestChecks.cpp ****     CHECK_EQUAL(1, results.GetFailureCount());
 5692              		.loc 5 220 0
 5693 28d4 E8000000 		call	__cxa_end_catch
 5693      00
 5694 28d9 4889D8   		movq	%rbx, %rax
 5695 28dc 4889C7   		movq	%rax, %rdi
 5696              	.LEHB154:
 5697 28df E8000000 		call	_Unwind_Resume
 5697      00
 5698              	.LEHE154:
 5699              	.L264:
 5700              		.loc 5 221 0
 5701 28e4 488B45E8 		movq	-24(%rbp), %rax
 5702 28e8 64483304 		xorq	%fs:40, %rax
 5702      25280000 
 5702      00
 5703 28f1 7405     		je	.L269
 5704 28f3 E8000000 		call	__stack_chk_fail
 5704      00
 5705              	.L269:
 5706 28f8 4881C498 		addq	$152, %rsp
 5706      000000
 5707 28ff 5B       		popq	%rbx
 5708 2900 5D       		popq	%rbp
 5709              		.cfi_def_cfa 7, 8
 5710 2901 C3       		ret
 5711              		.cfi_endproc
 5712              	.LFE1162:
 5713              		.section	.gcc_except_table
 5714              		.align 4
 5715              	.LLSDA1162:
 5716 042c FF       		.byte	0xff
 5717 042d 03       		.byte	0x3
 5718 042e 2D       		.uleb128 .LLSDATT1162-.LLSDATTD1162
 5719              	.LLSDATTD1162:
 5720 042f 01       		.byte	0x1
 5721 0430 21       		.uleb128 .LLSDACSE1162-.LLSDACSB1162
 5722              	.LLSDACSB1162:
 5723 0431 2E       		.uleb128 .LEHB149-.LFB1162
 5724 0432 AE01     		.uleb128 .LEHE149-.LEHB149
 5725 0434 00       		.uleb128 0
 5726 0435 00       		.uleb128 0
 5727 0436 DC01     		.uleb128 .LEHB150-.LFB1162
 5728 0438 28       		.uleb128 .LEHE150-.LEHB150
 5729 0439 BA02     		.uleb128 .L270-.LFB1162
 5730 043b 01       		.uleb128 0x1
 5731 043c 9402     		.uleb128 .LEHB151-.LFB1162
 5732 043e 22       		.uleb128 .LEHE151-.LEHB151
 5733 043f B802     		.uleb128 .L271-.LFB1162
 5734 0441 03       		.uleb128 0x3
 5735 0442 C202     		.uleb128 .LEHB152-.LFB1162
 5736 0444 38       		.uleb128 .LEHE152-.LEHB152
 5737 0445 8103     		.uleb128 .L272-.LFB1162
 5738 0447 00       		.uleb128 0
 5739 0448 FA02     		.uleb128 .LEHB153-.LFB1162
 5740 044a 05       		.uleb128 .LEHE153-.LEHB153
 5741 044b 00       		.uleb128 0
 5742 044c 00       		.uleb128 0
 5743 044d 8F03     		.uleb128 .LEHB154-.LFB1162
 5744 044f 05       		.uleb128 .LEHE154-.LEHB154
 5745 0450 00       		.uleb128 0
 5746 0451 00       		.uleb128 0
 5747              	.LLSDACSE1162:
 5748 0452 01       		.byte	0x1
 5749 0453 00       		.byte	0
 5750 0454 00       		.byte	0
 5751 0455 7D       		.byte	0x7d
 5752 0456 0000     		.align 4
 5753 0458 00000000 		.long	0
 5754              	
 5755              	.LLSDATT1162:
 5756              		.text
 5758              		.section	.rodata
 5759 0872 00000000 		.align 8
 5759      0000
 5760              	.LC69:
 5761 0878 43686563 		.string	"CheckArrayCloseFailureIncludesDetails"
 5761      6B417272 
 5761      6179436C 
 5761      6F736546 
 5761      61696C75 
 5762              		.text
 5763              		.align 2
 5765              	_ZN12_GLOBAL__N_141TestCheckArrayCloseFailureIncludesDetailsC2Ev:
 5766              	.LFB1164:
 222:TestChecks.cpp **** 
 223:TestChecks.cpp **** TEST(CheckArrayCloseFailureIncludesDetails)
 5767              		.loc 5 223 0
 5768              		.cfi_startproc
 5769 2902 55       		pushq	%rbp
 5770              		.cfi_def_cfa_offset 16
 5771              		.cfi_offset 6, -16
 5772 2903 4889E5   		movq	%rsp, %rbp
 5773              		.cfi_def_cfa_register 6
 5774 2906 4883EC10 		subq	$16, %rsp
 5775 290a 48897DF8 		movq	%rdi, -8(%rbp)
 5776              	.LBB27:
 5777              		.loc 5 223 0
 5778 290e E8000000 		call	_ZN13UnitTestSuite12GetSuiteNameEv
 5778      00
 5779 2913 4889C2   		movq	%rax, %rdx
 5780 2916 488B45F8 		movq	-8(%rbp), %rax
 5781 291a 41B8DF00 		movl	$223, %r8d
 5781      0000
 5782 2920 B9000000 		movl	$.LC2, %ecx
 5782      00
 5783 2925 BE000000 		movl	$.LC69, %esi
 5783      00
 5784 292a 4889C7   		movq	%rax, %rdi
 5785 292d E8000000 		call	_ZN8UnitTest4TestC2EPKcS2_S2_i
 5785      00
 5786 2932 BA000000 		movl	$_ZTVN12_GLOBAL__N_141TestCheckArrayCloseFailureIncludesDetailsE+16, %edx
 5786      00
 5787 2937 488B45F8 		movq	-8(%rbp), %rax
 5788 293b 488910   		movq	%rdx, (%rax)
 5789              	.LBE27:
 5790 293e 90       		nop
 5791 293f C9       		leave
 5792              		.cfi_def_cfa 7, 8
 5793 2940 C3       		ret
 5794              		.cfi_endproc
 5795              	.LFE1164:
 5797              		.set	_ZN12_GLOBAL__N_141TestCheckArrayCloseFailureIncludesDetailsC1Ev,_ZN12_GLOBAL__N_141TestCheck
 5798              		.local	_ZN12_GLOBAL__N_149testCheckArrayCloseFailureIncludesDetailsInstanceE
 5799              		.comm	_ZN12_GLOBAL__N_149testCheckArrayCloseFailureIncludesDetailsInstanceE,56,32
 5800              		.local	_ZN12_GLOBAL__N_142adderCheckArrayCloseFailureIncludesDetailsE
 5801              		.comm	_ZN12_GLOBAL__N_142adderCheckArrayCloseFailureIncludesDetailsE,1,1
 5802              		.section	.rodata
 5803              	.LC70:
 5804 089e 66696C65 		.string	"file"
 5804      00
 5805              	.LC71:
 5806 08a3 61727261 		.string	"arrayCloseSuite"
 5806      79436C6F 
 5806      73655375 
 5806      69746500 
 5807              	.LC72:
 5808 08b3 61727261 		.string	"arrayCloseTest"
 5808      79436C6F 
 5808      73655465 
 5808      737400
 5809 08c2 00000000 		.align 8
 5809      0000
 5810              	.LC73:
 5811 08c8 556E6861 		.string	"Unhandled exception in CHECK_EQUAL(\"arrayCloseTest\", reporter.lastFailedTest)"
 5811      6E646C65 
 5811      64206578 
 5811      63657074 
 5811      696F6E20 
 5812 0916 0000     		.align 8
 5813              	.LC74:
 5814 0918 556E6861 		.string	"Unhandled exception in CHECK_EQUAL(\"arrayCloseSuite\", reporter.lastFailedSuite)"
 5814      6E646C65 
 5814      64206578 
 5814      63657074 
 5814      696F6E20 
 5815              		.align 8
 5816              	.LC75:
 5817 0968 556E6861 		.string	"Unhandled exception in CHECK_EQUAL(\"file\", reporter.lastFailedFile)"
 5817      6E646C65 
 5817      64206578 
 5817      63657074 
 5817      696F6E20 
 5818 09ac 00000000 		.align 8
 5819              	.LC76:
 5820 09b0 556E6861 		.string	"Unhandled exception in CHECK_EQUAL(1337, reporter.lastFailedLine)"
 5820      6E646C65 
 5820      64206578 
 5820      63657074 
 5820      696F6E20 
 5821              		.text
 5822 2941 90       		.align 2
 5824              	_ZNK12_GLOBAL__N_141TestCheckArrayCloseFailureIncludesDetails7RunImplEv:
 5825              	.LFB1166:
 224:TestChecks.cpp **** {
 5826              		.loc 5 224 0
 5827              		.cfi_startproc
 5828              		.cfi_personality 0x3,__gxx_personality_v0
 5829              		.cfi_lsda 0x3,.LLSDA1166
 5830 2942 55       		pushq	%rbp
 5831              		.cfi_def_cfa_offset 16
 5832              		.cfi_offset 6, -16
 5833 2943 4889E5   		movq	%rsp, %rbp
 5834              		.cfi_def_cfa_register 6
 5835 2946 53       		pushq	%rbx
 5836 2947 4881ECE8 		subq	$2280, %rsp
 5836      080000
 5837              		.cfi_offset 3, -24
 5838 294e 4889BD18 		movq	%rdi, -2280(%rbp)
 5838      F7FFFF
 5839              		.loc 5 224 0
 5840 2955 64488B04 		movq	%fs:40, %rax
 5840      25280000 
 5840      00
 5841 295e 488945E8 		movq	%rax, -24(%rbp)
 5842 2962 31C0     		xorl	%eax, %eax
 225:TestChecks.cpp ****     RecordingReporter reporter;
 5843              		.loc 5 225 0
 5844 2964 488D85B0 		leaq	-2128(%rbp), %rax
 5844      F7FFFF
 5845 296b 4889C7   		movq	%rax, %rdi
 5846 296e E8000000 		call	_ZN17RecordingReporterC1Ev
 5846      00
 226:TestChecks.cpp ****     TestResults results(&reporter);
 5847              		.loc 5 226 0
 5848 2973 488D95B0 		leaq	-2128(%rbp), %rdx
 5848      F7FFFF
 5849 297a 488D8530 		leaq	-2256(%rbp), %rax
 5849      F7FFFF
 5850 2981 4889D6   		movq	%rdx, %rsi
 5851 2984 4889C7   		movq	%rax, %rdi
 5852              	.LEHB155:
 5853 2987 E8000000 		call	_ZN8UnitTest11TestResultsC1EPNS_12TestReporterE
 5853      00
 227:TestChecks.cpp ****     TestDetails const details("arrayCloseTest", "arrayCloseSuite", "file", 1337);
 5854              		.loc 5 227 0
 5855 298c 488D8550 		leaq	-2224(%rbp), %rax
 5855      F7FFFF
 5856 2993 41B83905 		movl	$1337, %r8d
 5856      0000
 5857 2999 B9000000 		movl	$.LC70, %ecx
 5857      00
 5858 299e BA000000 		movl	$.LC71, %edx
 5858      00
 5859 29a3 BE000000 		movl	$.LC72, %esi
 5859      00
 5860 29a8 4889C7   		movq	%rax, %rdi
 5861 29ab E8000000 		call	_ZN8UnitTest11TestDetailsC1EPKcS2_S2_i
 5861      00
 228:TestChecks.cpp **** 
 229:TestChecks.cpp ****     float const array1[3] = { 1.0f, 1.5f, 2.0f };
 5862              		.loc 5 229 0
 5863 29b0 F30F1005 		movss	.LC60(%rip), %xmm0
 5863      00000000 
 5864 29b8 F30F1185 		movss	%xmm0, -2160(%rbp)
 5864      90F7FFFF 
 5865 29c0 F30F1005 		movss	.LC61(%rip), %xmm0
 5865      00000000 
 5866 29c8 F30F1185 		movss	%xmm0, -2156(%rbp)
 5866      94F7FFFF 
 5867 29d0 F30F1005 		movss	.LC62(%rip), %xmm0
 5867      00000000 
 5868 29d8 F30F1185 		movss	%xmm0, -2152(%rbp)
 5868      98F7FFFF 
 230:TestChecks.cpp ****     float const array2[3] = { 1.01f, 1.51f, 2.01f };
 5869              		.loc 5 230 0
 5870 29e0 F30F1005 		movss	.LC63(%rip), %xmm0
 5870      00000000 
 5871 29e8 F30F1185 		movss	%xmm0, -2144(%rbp)
 5871      A0F7FFFF 
 5872 29f0 F30F1005 		movss	.LC64(%rip), %xmm0
 5872      00000000 
 5873 29f8 F30F1185 		movss	%xmm0, -2140(%rbp)
 5873      A4F7FFFF 
 5874 2a00 F30F1005 		movss	.LC65(%rip), %xmm0
 5874      00000000 
 5875 2a08 F30F1185 		movss	%xmm0, -2136(%rbp)
 5875      A8F7FFFF 
 231:TestChecks.cpp ****     CheckArrayClose(results, array1, array2, 3, 0.001f, details);
 5876              		.loc 5 231 0
 5877 2a10 F30F1005 		movss	.LC68(%rip), %xmm0
 5877      00000000 
 5878 2a18 F30F1185 		movss	%xmm0, -2192(%rbp)
 5878      70F7FFFF 
 5879 2a20 488DBD50 		leaq	-2224(%rbp), %rdi
 5879      F7FFFF
 5880 2a27 488D8D70 		leaq	-2192(%rbp), %rcx
 5880      F7FFFF
 5881 2a2e 488D95A0 		leaq	-2144(%rbp), %rdx
 5881      F7FFFF
 5882 2a35 488DB590 		leaq	-2160(%rbp), %rsi
 5882      F7FFFF
 5883 2a3c 488D8530 		leaq	-2256(%rbp), %rax
 5883      F7FFFF
 5884 2a43 4989F9   		movq	%rdi, %r9
 5885 2a46 4989C8   		movq	%rcx, %r8
 5886 2a49 B9030000 		movl	$3, %ecx
 5886      00
 5887 2a4e 4889C7   		movq	%rax, %rdi
 5888 2a51 E8000000 		call	_ZN8UnitTest15CheckArrayCloseIA3_fS1_fEEvRNS_11TestResultsERKT_RKT0_iRKT1_RKNS_11TestDetailsE
 5888      00
 5889              	.LEHE155:
 5890              	.LEHB156:
 232:TestChecks.cpp **** 
 233:TestChecks.cpp ****     CHECK_EQUAL("arrayCloseTest", reporter.lastFailedTest);
 5891              		.loc 5 233 0 discriminator 2
 5892 2a56 E8000000 		call	_ZN8UnitTest11CurrentTest7DetailsEv
 5892      00
 5893 2a5b 488B08   		movq	(%rax), %rcx
 5894 2a5e 488D8570 		leaq	-2192(%rbp), %rax
 5894      F7FFFF
 5895 2a65 BAE90000 		movl	$233, %edx
 5895      00
 5896 2a6a 4889CE   		movq	%rcx, %rsi
 5897 2a6d 4889C7   		movq	%rax, %rdi
 5898 2a70 E8000000 		call	_ZN8UnitTest11TestDetailsC1ERKS0_i
 5898      00
 5899 2a75 E8000000 		call	_ZN8UnitTest11CurrentTest7ResultsEv
 5899      00
 5900 2a7a 488B00   		movq	(%rax), %rax
 5901 2a7d 488D9570 		leaq	-2192(%rbp), %rdx
 5901      F7FFFF
 5902 2a84 488D8DB0 		leaq	-2128(%rbp), %rcx
 5902      F7FFFF
 5903 2a8b 488DB114 		leaq	1044(%rcx), %rsi
 5903      040000
 5904 2a92 4889D1   		movq	%rdx, %rcx
 5905 2a95 4889F2   		movq	%rsi, %rdx
 5906 2a98 BE000000 		movl	$.LC72, %esi
 5906      00
 5907 2a9d 4889C7   		movq	%rax, %rdi
 5908 2aa0 E8000000 		call	_ZN8UnitTest10CheckEqualERNS_11TestResultsEPKcPcRKNS_11TestDetailsE
 5908      00
 5909              	.LEHE156:
 5910              	.L276:
 5911              	.LEHB157:
 234:TestChecks.cpp ****     CHECK_EQUAL("arrayCloseSuite", reporter.lastFailedSuite);
 5912              		.loc 5 234 0
 5913 2aa5 E8000000 		call	_ZN8UnitTest11CurrentTest7DetailsEv
 5913      00
 5914 2aaa 488B08   		movq	(%rax), %rcx
 5915 2aad 488D8570 		leaq	-2192(%rbp), %rax
 5915      F7FFFF
 5916 2ab4 BAEA0000 		movl	$234, %edx
 5916      00
 5917 2ab9 4889CE   		movq	%rcx, %rsi
 5918 2abc 4889C7   		movq	%rax, %rdi
 5919 2abf E8000000 		call	_ZN8UnitTest11TestDetailsC1ERKS0_i
 5919      00
 5920              		.loc 5 234 0 is_stmt 0 discriminator 2
 5921 2ac4 E8000000 		call	_ZN8UnitTest11CurrentTest7ResultsEv
 5921      00
 5922 2ac9 488B00   		movq	(%rax), %rax
 5923 2acc 488D9570 		leaq	-2192(%rbp), %rdx
 5923      F7FFFF
 5924 2ad3 488D8DB0 		leaq	-2128(%rbp), %rcx
 5924      F7FFFF
 5925 2ada 488DB114 		leaq	788(%rcx), %rsi
 5925      030000
 5926 2ae1 4889D1   		movq	%rdx, %rcx
 5927 2ae4 4889F2   		movq	%rsi, %rdx
 5928 2ae7 BE000000 		movl	$.LC71, %esi
 5928      00
 5929 2aec 4889C7   		movq	%rax, %rdi
 5930 2aef E8000000 		call	_ZN8UnitTest10CheckEqualERNS_11TestResultsEPKcPcRKNS_11TestDetailsE
 5930      00
 5931              	.LEHE157:
 5932              	.L280:
 5933              	.LEHB158:
 235:TestChecks.cpp ****     CHECK_EQUAL("file", reporter.lastFailedFile);
 5934              		.loc 5 235 0 is_stmt 1
 5935 2af4 E8000000 		call	_ZN8UnitTest11CurrentTest7DetailsEv
 5935      00
 5936 2af9 488B08   		movq	(%rax), %rcx
 5937 2afc 488D8570 		leaq	-2192(%rbp), %rax
 5937      F7FFFF
 5938 2b03 BAEB0000 		movl	$235, %edx
 5938      00
 5939 2b08 4889CE   		movq	%rcx, %rsi
 5940 2b0b 4889C7   		movq	%rax, %rdi
 5941 2b0e E8000000 		call	_ZN8UnitTest11TestDetailsC1ERKS0_i
 5941      00
 5942              		.loc 5 235 0 is_stmt 0 discriminator 2
 5943 2b13 E8000000 		call	_ZN8UnitTest11CurrentTest7ResultsEv
 5943      00
 5944 2b18 488B00   		movq	(%rax), %rax
 5945 2b1b 488D9570 		leaq	-2192(%rbp), %rdx
 5945      F7FFFF
 5946 2b22 488D8DB0 		leaq	-2128(%rbp), %rcx
 5946      F7FFFF
 5947 2b29 488DB110 		leaq	528(%rcx), %rsi
 5947      020000
 5948 2b30 4889D1   		movq	%rdx, %rcx
 5949 2b33 4889F2   		movq	%rsi, %rdx
 5950 2b36 BE000000 		movl	$.LC70, %esi
 5950      00
 5951 2b3b 4889C7   		movq	%rax, %rdi
 5952 2b3e E8000000 		call	_ZN8UnitTest10CheckEqualERNS_11TestResultsEPKcPcRKNS_11TestDetailsE
 5952      00
 5953              	.LEHE158:
 5954              	.L283:
 5955              	.LEHB159:
 236:TestChecks.cpp ****     CHECK_EQUAL(1337, reporter.lastFailedLine);
 5956              		.loc 5 236 0 is_stmt 1
 5957 2b43 E8000000 		call	_ZN8UnitTest11CurrentTest7DetailsEv
 5957      00
 5958 2b48 488B08   		movq	(%rax), %rcx
 5959 2b4b 488D8570 		leaq	-2192(%rbp), %rax
 5959      F7FFFF
 5960 2b52 BAEC0000 		movl	$236, %edx
 5960      00
 5961 2b57 4889CE   		movq	%rcx, %rsi
 5962 2b5a 4889C7   		movq	%rax, %rdi
 5963 2b5d E8000000 		call	_ZN8UnitTest11TestDetailsC1ERKS0_i
 5963      00
 5964              	.LEHE159:
 5965              		.loc 5 236 0 is_stmt 0 discriminator 2
 5966 2b62 C7852CF7 		movl	$1337, -2260(%rbp)
 5966      FFFF3905 
 5966      0000
 5967              	.LEHB160:
 5968 2b6c E8000000 		call	_ZN8UnitTest11CurrentTest7ResultsEv
 5968      00
 5969 2b71 488B00   		movq	(%rax), %rax
 5970 2b74 488D9570 		leaq	-2192(%rbp), %rdx
 5970      F7FFFF
 5971 2b7b 488D8DB0 		leaq	-2128(%rbp), %rcx
 5971      F7FFFF
 5972 2b82 488DB910 		leaq	784(%rcx), %rdi
 5972      030000
 5973 2b89 488DB52C 		leaq	-2260(%rbp), %rsi
 5973      F7FFFF
 5974 2b90 4889D1   		movq	%rdx, %rcx
 5975 2b93 4889FA   		movq	%rdi, %rdx
 5976 2b96 4889C7   		movq	%rax, %rdi
 5977 2b99 E8000000 		call	_ZN8UnitTest10CheckEqualIiiEEvRNS_11TestResultsERKT_RKT0_RKNS_11TestDetailsE
 5977      00
 5978              	.LEHE160:
 5979              	.L287:
 225:TestChecks.cpp ****     TestResults results(&reporter);
 5980              		.loc 5 225 0 is_stmt 1
 5981 2b9e 488D85B0 		leaq	-2128(%rbp), %rax
 5981      F7FFFF
 5982 2ba5 4889C7   		movq	%rax, %rdi
 5983              	.LEHB161:
 5984 2ba8 E8000000 		call	_ZN17RecordingReporterD1Ev
 5984      00
 5985              	.LEHE161:
 237:TestChecks.cpp **** }
 5986              		.loc 5 237 0
 5987 2bad 90       		nop
 5988 2bae 488B45E8 		movq	-24(%rbp), %rax
 5989 2bb2 64483304 		xorq	%fs:40, %rax
 5989      25280000 
 5989      00
 5990 2bbb 0F849701 		je	.L289
 5990      0000
 5991 2bc1 E98D0100 		jmp	.L300
 5991      00
 5992              	.L291:
 233:TestChecks.cpp ****     CHECK_EQUAL("arrayCloseSuite", reporter.lastFailedSuite);
 5993              		.loc 5 233 0
 5994 2bc6 4889C7   		movq	%rax, %rdi
 5995 2bc9 E8000000 		call	__cxa_begin_catch
 5995      00
 5996              	.LEHB162:
 5997 2bce E8000000 		call	_ZN8UnitTest11CurrentTest7DetailsEv
 5997      00
 5998 2bd3 488B08   		movq	(%rax), %rcx
 5999 2bd6 488D8570 		leaq	-2192(%rbp), %rax
 5999      F7FFFF
 6000 2bdd BAE90000 		movl	$233, %edx
 6000      00
 6001 2be2 4889CE   		movq	%rcx, %rsi
 6002 2be5 4889C7   		movq	%rax, %rdi
 6003 2be8 E8000000 		call	_ZN8UnitTest11TestDetailsC1ERKS0_i
 6003      00
 233:TestChecks.cpp ****     CHECK_EQUAL("arrayCloseSuite", reporter.lastFailedSuite);
 6004              		.loc 5 233 0 is_stmt 0 discriminator 10
 6005 2bed E8000000 		call	_ZN8UnitTest11CurrentTest7ResultsEv
 6005      00
 6006 2bf2 488B00   		movq	(%rax), %rax
 6007 2bf5 488D8D70 		leaq	-2192(%rbp), %rcx
 6007      F7FFFF
 6008 2bfc BA000000 		movl	$.LC73, %edx
 6008      00
 6009 2c01 4889CE   		movq	%rcx, %rsi
 6010 2c04 4889C7   		movq	%rax, %rdi
 6011 2c07 E8000000 		call	_ZN8UnitTest11TestResults13OnTestFailureERKNS_11TestDetailsEPKc
 6011      00
 6012              	.LEHE162:
 6013              	.LEHB163:
 233:TestChecks.cpp ****     CHECK_EQUAL("arrayCloseSuite", reporter.lastFailedSuite);
 6014              		.loc 5 233 0 discriminator 14
 6015 2c0c E8000000 		call	__cxa_end_catch
 6015      00
 6016              	.LEHE163:
 233:TestChecks.cpp ****     CHECK_EQUAL("arrayCloseSuite", reporter.lastFailedSuite);
 6017              		.loc 5 233 0
 6018 2c11 E98FFEFF 		jmp	.L276
 6018      FF
 6019              	.L292:
 6020 2c16 4889C3   		movq	%rax, %rbx
 6021 2c19 E8000000 		call	__cxa_end_catch
 6021      00
 6022 2c1e E9160100 		jmp	.L278
 6022      00
 6023              	.L293:
 234:TestChecks.cpp ****     CHECK_EQUAL("file", reporter.lastFailedFile);
 6024              		.loc 5 234 0 is_stmt 1
 6025 2c23 4889C7   		movq	%rax, %rdi
 6026 2c26 E8000000 		call	__cxa_begin_catch
 6026      00
 6027              	.LEHB164:
 6028 2c2b E8000000 		call	_ZN8UnitTest11CurrentTest7DetailsEv
 6028      00
 6029 2c30 488B08   		movq	(%rax), %rcx
 6030 2c33 488D8570 		leaq	-2192(%rbp), %rax
 6030      F7FFFF
 6031 2c3a BAEA0000 		movl	$234, %edx
 6031      00
 6032 2c3f 4889CE   		movq	%rcx, %rsi
 6033 2c42 4889C7   		movq	%rax, %rdi
 6034 2c45 E8000000 		call	_ZN8UnitTest11TestDetailsC1ERKS0_i
 6034      00
 234:TestChecks.cpp ****     CHECK_EQUAL("file", reporter.lastFailedFile);
 6035              		.loc 5 234 0 is_stmt 0 discriminator 10
 6036 2c4a E8000000 		call	_ZN8UnitTest11CurrentTest7ResultsEv
 6036      00
 6037 2c4f 488B00   		movq	(%rax), %rax
 6038 2c52 488D8D70 		leaq	-2192(%rbp), %rcx
 6038      F7FFFF
 6039 2c59 BA000000 		movl	$.LC74, %edx
 6039      00
 6040 2c5e 4889CE   		movq	%rcx, %rsi
 6041 2c61 4889C7   		movq	%rax, %rdi
 6042 2c64 E8000000 		call	_ZN8UnitTest11TestResults13OnTestFailureERKNS_11TestDetailsEPKc
 6042      00
 6043              	.LEHE164:
 6044              	.LEHB165:
 234:TestChecks.cpp ****     CHECK_EQUAL("file", reporter.lastFailedFile);
 6045              		.loc 5 234 0 discriminator 14
 6046 2c69 E8000000 		call	__cxa_end_catch
 6046      00
 6047              	.LEHE165:
 234:TestChecks.cpp ****     CHECK_EQUAL("file", reporter.lastFailedFile);
 6048              		.loc 5 234 0
 6049 2c6e E981FEFF 		jmp	.L280
 6049      FF
 6050              	.L294:
 6051 2c73 4889C3   		movq	%rax, %rbx
 6052 2c76 E8000000 		call	__cxa_end_catch
 6052      00
 6053 2c7b E9B90000 		jmp	.L278
 6053      00
 6054              	.L295:
 235:TestChecks.cpp ****     CHECK_EQUAL(1337, reporter.lastFailedLine);
 6055              		.loc 5 235 0 is_stmt 1
 6056 2c80 4889C7   		movq	%rax, %rdi
 6057 2c83 E8000000 		call	__cxa_begin_catch
 6057      00
 6058              	.LEHB166:
 6059 2c88 E8000000 		call	_ZN8UnitTest11CurrentTest7DetailsEv
 6059      00
 6060 2c8d 488B08   		movq	(%rax), %rcx
 6061 2c90 488D8570 		leaq	-2192(%rbp), %rax
 6061      F7FFFF
 6062 2c97 BAEB0000 		movl	$235, %edx
 6062      00
 6063 2c9c 4889CE   		movq	%rcx, %rsi
 6064 2c9f 4889C7   		movq	%rax, %rdi
 6065 2ca2 E8000000 		call	_ZN8UnitTest11TestDetailsC1ERKS0_i
 6065      00
 235:TestChecks.cpp ****     CHECK_EQUAL(1337, reporter.lastFailedLine);
 6066              		.loc 5 235 0 is_stmt 0 discriminator 10
 6067 2ca7 E8000000 		call	_ZN8UnitTest11CurrentTest7ResultsEv
 6067      00
 6068 2cac 488B00   		movq	(%rax), %rax
 6069 2caf 488D8D70 		leaq	-2192(%rbp), %rcx
 6069      F7FFFF
 6070 2cb6 BA000000 		movl	$.LC75, %edx
 6070      00
 6071 2cbb 4889CE   		movq	%rcx, %rsi
 6072 2cbe 4889C7   		movq	%rax, %rdi
 6073 2cc1 E8000000 		call	_ZN8UnitTest11TestResults13OnTestFailureERKNS_11TestDetailsEPKc
 6073      00
 6074              	.LEHE166:
 6075              	.LEHB167:
 235:TestChecks.cpp ****     CHECK_EQUAL(1337, reporter.lastFailedLine);
 6076              		.loc 5 235 0 discriminator 14
 6077 2cc6 E8000000 		call	__cxa_end_catch
 6077      00
 6078              	.LEHE167:
 235:TestChecks.cpp ****     CHECK_EQUAL(1337, reporter.lastFailedLine);
 6079              		.loc 5 235 0
 6080 2ccb E973FEFF 		jmp	.L283
 6080      FF
 6081              	.L296:
 6082 2cd0 4889C3   		movq	%rax, %rbx
 6083 2cd3 E8000000 		call	__cxa_end_catch
 6083      00
 6084 2cd8 EB5F     		jmp	.L278
 6085              	.L298:
 6086 2cda EB00     		jmp	.L286
 6087              	.L297:
 6088              	.L286:
 236:TestChecks.cpp **** }
 6089              		.loc 5 236 0 is_stmt 1
 6090 2cdc 4889C7   		movq	%rax, %rdi
 6091 2cdf E8000000 		call	__cxa_begin_catch
 6091      00
 6092              	.LEHB168:
 6093 2ce4 E8000000 		call	_ZN8UnitTest11CurrentTest7DetailsEv
 6093      00
 6094 2ce9 488B08   		movq	(%rax), %rcx
 6095 2cec 488D8570 		leaq	-2192(%rbp), %rax
 6095      F7FFFF
 6096 2cf3 BAEC0000 		movl	$236, %edx
 6096      00
 6097 2cf8 4889CE   		movq	%rcx, %rsi
 6098 2cfb 4889C7   		movq	%rax, %rdi
 6099 2cfe E8000000 		call	_ZN8UnitTest11TestDetailsC1ERKS0_i
 6099      00
 236:TestChecks.cpp **** }
 6100              		.loc 5 236 0 is_stmt 0 discriminator 10
 6101 2d03 E8000000 		call	_ZN8UnitTest11CurrentTest7ResultsEv
 6101      00
 6102 2d08 488B00   		movq	(%rax), %rax
 6103 2d0b 488D8D70 		leaq	-2192(%rbp), %rcx
 6103      F7FFFF
 6104 2d12 BA000000 		movl	$.LC76, %edx
 6104      00
 6105 2d17 4889CE   		movq	%rcx, %rsi
 6106 2d1a 4889C7   		movq	%rax, %rdi
 6107 2d1d E8000000 		call	_ZN8UnitTest11TestResults13OnTestFailureERKNS_11TestDetailsEPKc
 6107      00
 6108              	.LEHE168:
 6109              	.LEHB169:
 236:TestChecks.cpp **** }
 6110              		.loc 5 236 0 discriminator 14
 6111 2d22 E8000000 		call	__cxa_end_catch
 6111      00
 6112              	.LEHE169:
 236:TestChecks.cpp **** }
 6113              		.loc 5 236 0
 6114 2d27 E972FEFF 		jmp	.L287
 6114      FF
 6115              	.L299:
 6116 2d2c 4889C3   		movq	%rax, %rbx
 6117 2d2f E8000000 		call	__cxa_end_catch
 6117      00
 6118 2d34 EB03     		jmp	.L278
 6119              	.L290:
 6120 2d36 4889C3   		movq	%rax, %rbx
 6121              	.L278:
 225:TestChecks.cpp ****     TestResults results(&reporter);
 6122              		.loc 5 225 0 is_stmt 1
 6123 2d39 488D85B0 		leaq	-2128(%rbp), %rax
 6123      F7FFFF
 6124 2d40 4889C7   		movq	%rax, %rdi
 6125 2d43 E8000000 		call	_ZN17RecordingReporterD1Ev
 6125      00
 6126 2d48 4889D8   		movq	%rbx, %rax
 6127 2d4b 4889C7   		movq	%rax, %rdi
 6128              	.LEHB170:
 6129 2d4e E8000000 		call	_Unwind_Resume
 6129      00
 6130              	.LEHE170:
 6131              	.L300:
 6132              		.loc 5 237 0
 6133 2d53 E8000000 		call	__stack_chk_fail
 6133      00
 6134              	.L289:
 6135 2d58 4881C4E8 		addq	$2280, %rsp
 6135      080000
 6136 2d5f 5B       		popq	%rbx
 6137 2d60 5D       		popq	%rbp
 6138              		.cfi_def_cfa 7, 8
 6139 2d61 C3       		ret
 6140              		.cfi_endproc
 6141              	.LFE1166:
 6142              		.section	.gcc_except_table
 6143              		.align 4
 6144              	.LLSDA1166:
 6145 045c FF       		.byte	0xff
 6146 045d 03       		.byte	0x3
 6147 045e 69       		.uleb128 .LLSDATT1166-.LLSDATTD1166
 6148              	.LLSDATTD1166:
 6149 045f 01       		.byte	0x1
 6150 0460 5E       		.uleb128 .LLSDACSE1166-.LLSDACSB1166
 6151              	.LLSDACSB1166:
 6152 0461 45       		.uleb128 .LEHB155-.LFB1166
 6153 0462 CF01     		.uleb128 .LEHE155-.LEHB155
 6154 0464 F407     		.uleb128 .L290-.LFB1166
 6155 0466 00       		.uleb128 0
 6156 0467 9402     		.uleb128 .LEHB156-.LFB1166
 6157 0469 4F       		.uleb128 .LEHE156-.LEHB156
 6158 046a 8405     		.uleb128 .L291-.LFB1166
 6159 046c 01       		.uleb128 0x1
 6160 046d E302     		.uleb128 .LEHB157-.LFB1166
 6161 046f 4F       		.uleb128 .LEHE157-.LEHB157
 6162 0470 E105     		.uleb128 .L293-.LFB1166
 6163 0472 01       		.uleb128 0x1
 6164 0473 B203     		.uleb128 .LEHB158-.LFB1166
 6165 0475 4F       		.uleb128 .LEHE158-.LEHB158
 6166 0476 BE06     		.uleb128 .L295-.LFB1166
 6167 0478 01       		.uleb128 0x1
 6168 0479 8104     		.uleb128 .LEHB159-.LFB1166
 6169 047b 1F       		.uleb128 .LEHE159-.LEHB159
 6170 047c 9A07     		.uleb128 .L297-.LFB1166
 6171 047e 01       		.uleb128 0x1
 6172 047f AA04     		.uleb128 .LEHB160-.LFB1166
 6173 0481 32       		.uleb128 .LEHE160-.LEHB160
 6174 0482 9807     		.uleb128 .L298-.LFB1166
 6175 0484 01       		.uleb128 0x1
 6176 0485 E604     		.uleb128 .LEHB161-.LFB1166
 6177 0487 05       		.uleb128 .LEHE161-.LEHB161
 6178 0488 00       		.uleb128 0
 6179 0489 00       		.uleb128 0
 6180 048a 8C05     		.uleb128 .LEHB162-.LFB1166
 6181 048c 3E       		.uleb128 .LEHE162-.LEHB162
 6182 048d D405     		.uleb128 .L292-.LFB1166
 6183 048f 00       		.uleb128 0
 6184 0490 CA05     		.uleb128 .LEHB163-.LFB1166
 6185 0492 05       		.uleb128 .LEHE163-.LEHB163
 6186 0493 F407     		.uleb128 .L290-.LFB1166
 6187 0495 00       		.uleb128 0
 6188 0496 E905     		.uleb128 .LEHB164-.LFB1166
 6189 0498 3E       		.uleb128 .LEHE164-.LEHB164
 6190 0499 B106     		.uleb128 .L294-.LFB1166
 6191 049b 00       		.uleb128 0
 6192 049c A706     		.uleb128 .LEHB165-.LFB1166
 6193 049e 05       		.uleb128 .LEHE165-.LEHB165
 6194 049f F407     		.uleb128 .L290-.LFB1166
 6195 04a1 00       		.uleb128 0
 6196 04a2 C606     		.uleb128 .LEHB166-.LFB1166
 6197 04a4 3E       		.uleb128 .LEHE166-.LEHB166
 6198 04a5 8E07     		.uleb128 .L296-.LFB1166
 6199 04a7 00       		.uleb128 0
 6200 04a8 8407     		.uleb128 .LEHB167-.LFB1166
 6201 04aa 05       		.uleb128 .LEHE167-.LEHB167
 6202 04ab F407     		.uleb128 .L290-.LFB1166
 6203 04ad 00       		.uleb128 0
 6204 04ae A207     		.uleb128 .LEHB168-.LFB1166
 6205 04b0 3E       		.uleb128 .LEHE168-.LEHB168
 6206 04b1 EA07     		.uleb128 .L299-.LFB1166
 6207 04b3 00       		.uleb128 0
 6208 04b4 E007     		.uleb128 .LEHB169-.LFB1166
 6209 04b6 05       		.uleb128 .LEHE169-.LEHB169
 6210 04b7 F407     		.uleb128 .L290-.LFB1166
 6211 04b9 00       		.uleb128 0
 6212 04ba 8C08     		.uleb128 .LEHB170-.LFB1166
 6213 04bc 05       		.uleb128 .LEHE170-.LEHB170
 6214 04bd 00       		.uleb128 0
 6215 04be 00       		.uleb128 0
 6216              	.LLSDACSE1166:
 6217 04bf 01       		.byte	0x1
 6218 04c0 00       		.byte	0
 6219 04c1 000000   		.align 4
 6220 04c4 00000000 		.long	0
 6221              	
 6222              	.LLSDATT1166:
 6223              		.text
 6225              		.section	.rodata
 6226              	.LC77:
 6227 09f2 43686563 		.string	"CheckArray2DCloseTrue"
 6227      6B417272 
 6227      61793244 
 6227      436C6F73 
 6227      65547275 
 6228              		.text
 6229              		.align 2
 6231              	_ZN12_GLOBAL__N_125TestCheckArray2DCloseTrueC2Ev:
 6232              	.LFB1168:
 238:TestChecks.cpp **** 
 239:TestChecks.cpp **** 
 240:TestChecks.cpp **** TEST(CheckArray2DCloseTrue)
 6233              		.loc 5 240 0
 6234              		.cfi_startproc
 6235 2d62 55       		pushq	%rbp
 6236              		.cfi_def_cfa_offset 16
 6237              		.cfi_offset 6, -16
 6238 2d63 4889E5   		movq	%rsp, %rbp
 6239              		.cfi_def_cfa_register 6
 6240 2d66 4883EC10 		subq	$16, %rsp
 6241 2d6a 48897DF8 		movq	%rdi, -8(%rbp)
 6242              	.LBB28:
 6243              		.loc 5 240 0
 6244 2d6e E8000000 		call	_ZN13UnitTestSuite12GetSuiteNameEv
 6244      00
 6245 2d73 4889C2   		movq	%rax, %rdx
 6246 2d76 488B45F8 		movq	-8(%rbp), %rax
 6247 2d7a 41B8F000 		movl	$240, %r8d
 6247      0000
 6248 2d80 B9000000 		movl	$.LC2, %ecx
 6248      00
 6249 2d85 BE000000 		movl	$.LC77, %esi
 6249      00
 6250 2d8a 4889C7   		movq	%rax, %rdi
 6251 2d8d E8000000 		call	_ZN8UnitTest4TestC2EPKcS2_S2_i
 6251      00
 6252 2d92 BA000000 		movl	$_ZTVN12_GLOBAL__N_125TestCheckArray2DCloseTrueE+16, %edx
 6252      00
 6253 2d97 488B45F8 		movq	-8(%rbp), %rax
 6254 2d9b 488910   		movq	%rdx, (%rax)
 6255              	.LBE28:
 6256 2d9e 90       		nop
 6257 2d9f C9       		leave
 6258              		.cfi_def_cfa 7, 8
 6259 2da0 C3       		ret
 6260              		.cfi_endproc
 6261              	.LFE1168:
 6263              		.set	_ZN12_GLOBAL__N_125TestCheckArray2DCloseTrueC1Ev,_ZN12_GLOBAL__N_125TestCheckArray2DCloseTrue
 6264              		.local	_ZN12_GLOBAL__N_133testCheckArray2DCloseTrueInstanceE
 6265              		.comm	_ZN12_GLOBAL__N_133testCheckArray2DCloseTrueInstanceE,56,32
 6266              		.local	_ZN12_GLOBAL__N_126adderCheckArray2DCloseTrueE
 6267              		.comm	_ZN12_GLOBAL__N_126adderCheckArray2DCloseTrueE,1,1
 6268 2da1 90       		.align 2
 6270              	_ZNK12_GLOBAL__N_125TestCheckArray2DCloseTrue7RunImplEv:
 6271              	.LFB1170:
 241:TestChecks.cpp **** {
 6272              		.loc 5 241 0
 6273              		.cfi_startproc
 6274              		.cfi_personality 0x3,__gxx_personality_v0
 6275              		.cfi_lsda 0x3,.LLSDA1170
 6276 2da2 55       		pushq	%rbp
 6277              		.cfi_def_cfa_offset 16
 6278              		.cfi_offset 6, -16
 6279 2da3 4889E5   		movq	%rsp, %rbp
 6280              		.cfi_def_cfa_register 6
 6281 2da6 53       		pushq	%rbx
 6282 2da7 4881ECC8 		subq	$200, %rsp
 6282      000000
 6283              		.cfi_offset 3, -24
 6284 2dae 4889BD38 		movq	%rdi, -200(%rbp)
 6284      FFFFFF
 6285              		.loc 5 241 0
 6286 2db5 64488B04 		movq	%fs:40, %rax
 6286      25280000 
 6286      00
 6287 2dbe 488945E8 		movq	%rax, -24(%rbp)
 6288 2dc2 31C0     		xorl	%eax, %eax
 242:TestChecks.cpp ****     TestResults results;
 6289              		.loc 5 242 0
 6290 2dc4 488D8550 		leaq	-176(%rbp), %rax
 6290      FFFFFF
 6291 2dcb BE000000 		movl	$0, %esi
 6291      00
 6292 2dd0 4889C7   		movq	%rax, %rdi
 6293              	.LEHB171:
 6294 2dd3 E8000000 		call	_ZN8UnitTest11TestResultsC1EPNS_12TestReporterE
 6294      00
 243:TestChecks.cpp **** 
 244:TestChecks.cpp ****     float const array1[3][3] = { { 1.0f, 1.5f, 2.0f },
 245:TestChecks.cpp ****                                  { 2.0f, 2.5f, 3.0f },
 246:TestChecks.cpp ****                                  { 3.0f, 3.5f, 4.0f } };
 6295              		.loc 5 246 0
 6296 2dd8 F30F1005 		movss	.LC60(%rip), %xmm0
 6296      00000000 
 6297 2de0 F30F1145 		movss	%xmm0, -112(%rbp)
 6297      90
 6298 2de5 F30F1005 		movss	.LC61(%rip), %xmm0
 6298      00000000 
 6299 2ded F30F1145 		movss	%xmm0, -108(%rbp)
 6299      94
 6300 2df2 F30F1005 		movss	.LC62(%rip), %xmm0
 6300      00000000 
 6301 2dfa F30F1145 		movss	%xmm0, -104(%rbp)
 6301      98
 6302 2dff F30F1005 		movss	.LC62(%rip), %xmm0
 6302      00000000 
 6303 2e07 F30F1145 		movss	%xmm0, -100(%rbp)
 6303      9C
 6304 2e0c F30F1005 		movss	.LC78(%rip), %xmm0
 6304      00000000 
 6305 2e14 F30F1145 		movss	%xmm0, -96(%rbp)
 6305      A0
 6306 2e19 F30F1005 		movss	.LC32(%rip), %xmm0
 6306      00000000 
 6307 2e21 F30F1145 		movss	%xmm0, -92(%rbp)
 6307      A4
 6308 2e26 F30F1005 		movss	.LC32(%rip), %xmm0
 6308      00000000 
 6309 2e2e F30F1145 		movss	%xmm0, -88(%rbp)
 6309      A8
 6310 2e33 F30F1005 		movss	.LC79(%rip), %xmm0
 6310      00000000 
 6311 2e3b F30F1145 		movss	%xmm0, -84(%rbp)
 6311      AC
 6312 2e40 F30F1005 		movss	.LC80(%rip), %xmm0
 6312      00000000 
 6313 2e48 F30F1145 		movss	%xmm0, -80(%rbp)
 6313      B0
 247:TestChecks.cpp ****     float const array2[3][3] = { { 1.01f, 1.51f, 2.01f },
 248:TestChecks.cpp ****                                  { 2.01f, 2.51f, 3.01f },
 249:TestChecks.cpp ****                                  { 3.01f, 3.51f, 4.01f } };
 6314              		.loc 5 249 0
 6315 2e4d F30F1005 		movss	.LC63(%rip), %xmm0
 6315      00000000 
 6316 2e55 F30F1145 		movss	%xmm0, -64(%rbp)
 6316      C0
 6317 2e5a F30F1005 		movss	.LC64(%rip), %xmm0
 6317      00000000 
 6318 2e62 F30F1145 		movss	%xmm0, -60(%rbp)
 6318      C4
 6319 2e67 F30F1005 		movss	.LC65(%rip), %xmm0
 6319      00000000 
 6320 2e6f F30F1145 		movss	%xmm0, -56(%rbp)
 6320      C8
 6321 2e74 F30F1005 		movss	.LC65(%rip), %xmm0
 6321      00000000 
 6322 2e7c F30F1145 		movss	%xmm0, -52(%rbp)
 6322      CC
 6323 2e81 F30F1005 		movss	.LC81(%rip), %xmm0
 6323      00000000 
 6324 2e89 F30F1145 		movss	%xmm0, -48(%rbp)
 6324      D0
 6325 2e8e F30F1005 		movss	.LC82(%rip), %xmm0
 6325      00000000 
 6326 2e96 F30F1145 		movss	%xmm0, -44(%rbp)
 6326      D4
 6327 2e9b F30F1005 		movss	.LC82(%rip), %xmm0
 6327      00000000 
 6328 2ea3 F30F1145 		movss	%xmm0, -40(%rbp)
 6328      D8
 6329 2ea8 F30F1005 		movss	.LC83(%rip), %xmm0
 6329      00000000 
 6330 2eb0 F30F1145 		movss	%xmm0, -36(%rbp)
 6330      DC
 6331 2eb5 F30F1005 		movss	.LC84(%rip), %xmm0
 6331      00000000 
 6332 2ebd F30F1145 		movss	%xmm0, -32(%rbp)
 6332      E0
 250:TestChecks.cpp ****     CheckArray2DClose(results, array1, array2, 3, 3, 0.02f, TestDetails("", "", "", 0));
 6333              		.loc 5 250 0
 6334 2ec2 488D8570 		leaq	-144(%rbp), %rax
 6334      FFFFFF
 6335 2ec9 41B80000 		movl	$0, %r8d
 6335      0000
 6336 2ecf B9000000 		movl	$.LC6, %ecx
 6336      00
 6337 2ed4 BA000000 		movl	$.LC6, %edx
 6337      00
 6338 2ed9 BE000000 		movl	$.LC6, %esi
 6338      00
 6339 2ede 4889C7   		movq	%rax, %rdi
 6340 2ee1 E8000000 		call	_ZN8UnitTest11TestDetailsC1EPKcS2_S2_i
 6340      00
 6341 2ee6 F30F1005 		movss	.LC66(%rip), %xmm0
 6341      00000000 
 6342 2eee F30F1185 		movss	%xmm0, -180(%rbp)
 6342      4CFFFFFF 
 6343 2ef6 488DBD4C 		leaq	-180(%rbp), %rdi
 6343      FFFFFF
 6344 2efd 488D55C0 		leaq	-64(%rbp), %rdx
 6345 2f01 488D7590 		leaq	-112(%rbp), %rsi
 6346 2f05 488D8550 		leaq	-176(%rbp), %rax
 6346      FFFFFF
 6347 2f0c 4883EC08 		subq	$8, %rsp
 6348 2f10 488D8D70 		leaq	-144(%rbp), %rcx
 6348      FFFFFF
 6349 2f17 51       		pushq	%rcx
 6350 2f18 4989F9   		movq	%rdi, %r9
 6351 2f1b 41B80300 		movl	$3, %r8d
 6351      0000
 6352 2f21 B9030000 		movl	$3, %ecx
 6352      00
 6353 2f26 4889C7   		movq	%rax, %rdi
 6354 2f29 E8000000 		call	_ZN8UnitTest17CheckArray2DCloseIA3_A3_fS2_fEEvRNS_11TestResultsERKT_RKT0_iiRKT1_RKNS_11TestDe
 6354      00
 6355              	.LEHE171:
 6356 2f2e 4883C410 		addq	$16, %rsp
 6357              	.LEHB172:
 251:TestChecks.cpp ****     CHECK_EQUAL(0, results.GetFailureCount());
 6358              		.loc 5 251 0
 6359 2f32 E8000000 		call	_ZN8UnitTest11CurrentTest7DetailsEv
 6359      00
 6360 2f37 488B08   		movq	(%rax), %rcx
 6361 2f3a 488D8570 		leaq	-144(%rbp), %rax
 6361      FFFFFF
 6362 2f41 BAFB0000 		movl	$251, %edx
 6362      00
 6363 2f46 4889CE   		movq	%rcx, %rsi
 6364 2f49 4889C7   		movq	%rax, %rdi
 6365 2f4c E8000000 		call	_ZN8UnitTest11TestDetailsC1ERKS0_i
 6365      00
 6366              		.loc 5 251 0 is_stmt 0 discriminator 2
 6367 2f51 488D8550 		leaq	-176(%rbp), %rax
 6367      FFFFFF
 6368 2f58 4889C7   		movq	%rax, %rdi
 6369 2f5b E8000000 		call	_ZNK8UnitTest11TestResults15GetFailureCountEv
 6369      00
 6370              	.LEHE172:
 6371 2f60 89854CFF 		movl	%eax, -180(%rbp)
 6371      FFFF
 6372 2f66 C78548FF 		movl	$0, -184(%rbp)
 6372      FFFF0000 
 6372      0000
 6373              	.LEHB173:
 6374 2f70 E8000000 		call	_ZN8UnitTest11CurrentTest7ResultsEv
 6374      00
 6375              		.loc 5 251 0 discriminator 4
 6376 2f75 488B00   		movq	(%rax), %rax
 6377 2f78 488D8D70 		leaq	-144(%rbp), %rcx
 6377      FFFFFF
 6378 2f7f 488D954C 		leaq	-180(%rbp), %rdx
 6378      FFFFFF
 6379 2f86 488DB548 		leaq	-184(%rbp), %rsi
 6379      FFFFFF
 6380 2f8d 4889C7   		movq	%rax, %rdi
 6381 2f90 E8000000 		call	_ZN8UnitTest10CheckEqualIiiEEvRNS_11TestResultsERKT_RKT0_RKNS_11TestDetailsE
 6381      00
 6382              	.LEHE173:
 252:TestChecks.cpp **** }
 6383              		.loc 5 252 0 is_stmt 1
 6384 2f95 EB62     		jmp	.L302
 6385              	.L309:
 6386 2f97 EB00     		jmp	.L304
 6387              	.L308:
 6388              	.L304:
 251:TestChecks.cpp ****     CHECK_EQUAL(0, results.GetFailureCount());
 6389              		.loc 5 251 0
 6390 2f99 4889C7   		movq	%rax, %rdi
 6391 2f9c E8000000 		call	__cxa_begin_catch
 6391      00
 6392              	.LEHB174:
 6393 2fa1 E8000000 		call	_ZN8UnitTest11CurrentTest7DetailsEv
 6393      00
 6394 2fa6 488B08   		movq	(%rax), %rcx
 6395 2fa9 488D8570 		leaq	-144(%rbp), %rax
 6395      FFFFFF
 6396 2fb0 BAFB0000 		movl	$251, %edx
 6396      00
 6397 2fb5 4889CE   		movq	%rcx, %rsi
 6398 2fb8 4889C7   		movq	%rax, %rdi
 6399 2fbb E8000000 		call	_ZN8UnitTest11TestDetailsC1ERKS0_i
 6399      00
 251:TestChecks.cpp ****     CHECK_EQUAL(0, results.GetFailureCount());
 6400              		.loc 5 251 0 is_stmt 0 discriminator 12
 6401 2fc0 E8000000 		call	_ZN8UnitTest11CurrentTest7ResultsEv
 6401      00
 6402 2fc5 488B00   		movq	(%rax), %rax
 6403 2fc8 488D8D70 		leaq	-144(%rbp), %rcx
 6403      FFFFFF
 6404 2fcf BA000000 		movl	$.LC9, %edx
 6404      00
 6405 2fd4 4889CE   		movq	%rcx, %rsi
 6406 2fd7 4889C7   		movq	%rax, %rdi
 6407 2fda E8000000 		call	_ZN8UnitTest11TestResults13OnTestFailureERKNS_11TestDetailsEPKc
 6407      00
 6408              	.LEHE174:
 6409              	.LEHB175:
 251:TestChecks.cpp ****     CHECK_EQUAL(0, results.GetFailureCount());
 6410              		.loc 5 251 0 discriminator 16
 6411 2fdf E8000000 		call	__cxa_end_catch
 6411      00
 6412              	.LEHE175:
 6413              		.loc 5 252 0 is_stmt 1 discriminator 16
 6414 2fe4 EB13     		jmp	.L302
 6415              	.L310:
 6416 2fe6 4889C3   		movq	%rax, %rbx
 251:TestChecks.cpp ****     CHECK_EQUAL(0, results.GetFailureCount());
 6417              		.loc 5 251 0
 6418 2fe9 E8000000 		call	__cxa_end_catch
 6418      00
 6419 2fee 4889D8   		movq	%rbx, %rax
 6420 2ff1 4889C7   		movq	%rax, %rdi
 6421              	.LEHB176:
 6422 2ff4 E8000000 		call	_Unwind_Resume
 6422      00
 6423              	.LEHE176:
 6424              	.L302:
 6425              		.loc 5 252 0
 6426 2ff9 488B45E8 		movq	-24(%rbp), %rax
 6427 2ffd 64483304 		xorq	%fs:40, %rax
 6427      25280000 
 6427      00
 6428 3006 7405     		je	.L307
 6429 3008 E8000000 		call	__stack_chk_fail
 6429      00
 6430              	.L307:
 6431 300d 488B5DF8 		movq	-8(%rbp), %rbx
 6432 3011 C9       		leave
 6433              		.cfi_def_cfa 7, 8
 6434 3012 C3       		ret
 6435              		.cfi_endproc
 6436              	.LFE1170:
 6437              		.section	.gcc_except_table
 6438              		.align 4
 6439              	.LLSDA1170:
 6440 04c8 FF       		.byte	0xff
 6441 04c9 03       		.byte	0x3
 6442 04ca 2D       		.uleb128 .LLSDATT1170-.LLSDATTD1170
 6443              	.LLSDATTD1170:
 6444 04cb 01       		.byte	0x1
 6445 04cc 21       		.uleb128 .LLSDACSE1170-.LLSDACSB1170
 6446              	.LLSDACSB1170:
 6447 04cd 31       		.uleb128 .LEHB171-.LFB1170
 6448 04ce DB02     		.uleb128 .LEHE171-.LEHB171
 6449 04d0 00       		.uleb128 0
 6450 04d1 00       		.uleb128 0
 6451 04d2 9003     		.uleb128 .LEHB172-.LFB1170
 6452 04d4 2E       		.uleb128 .LEHE172-.LEHB172
 6453 04d5 F703     		.uleb128 .L308-.LFB1170
 6454 04d7 01       		.uleb128 0x1
 6455 04d8 CE03     		.uleb128 .LEHB173-.LFB1170
 6456 04da 25       		.uleb128 .LEHE173-.LEHB173
 6457 04db F503     		.uleb128 .L309-.LFB1170
 6458 04dd 03       		.uleb128 0x3
 6459 04de FF03     		.uleb128 .LEHB174-.LFB1170
 6460 04e0 3E       		.uleb128 .LEHE174-.LEHB174
 6461 04e1 C404     		.uleb128 .L310-.LFB1170
 6462 04e3 00       		.uleb128 0
 6463 04e4 BD04     		.uleb128 .LEHB175-.LFB1170
 6464 04e6 05       		.uleb128 .LEHE175-.LEHB175
 6465 04e7 00       		.uleb128 0
 6466 04e8 00       		.uleb128 0
 6467 04e9 D204     		.uleb128 .LEHB176-.LFB1170
 6468 04eb 05       		.uleb128 .LEHE176-.LEHB176
 6469 04ec 00       		.uleb128 0
 6470 04ed 00       		.uleb128 0
 6471              	.LLSDACSE1170:
 6472 04ee 01       		.byte	0x1
 6473 04ef 00       		.byte	0
 6474 04f0 00       		.byte	0
 6475 04f1 7D       		.byte	0x7d
 6476 04f2 0000     		.align 4
 6477 04f4 00000000 		.long	0
 6478              	
 6479              	.LLSDATT1170:
 6480              		.text
 6482              		.section	.rodata
 6483              	.LC85:
 6484 0a08 43686563 		.string	"CheckArray2DCloseFalse"
 6484      6B417272 
 6484      61793244 
 6484      436C6F73 
 6484      6546616C 
 6485              		.text
 6486 3013 90       		.align 2
 6488              	_ZN12_GLOBAL__N_126TestCheckArray2DCloseFalseC2Ev:
 6489              	.LFB1172:
 253:TestChecks.cpp **** 
 254:TestChecks.cpp **** TEST(CheckArray2DCloseFalse)
 6490              		.loc 5 254 0
 6491              		.cfi_startproc
 6492 3014 55       		pushq	%rbp
 6493              		.cfi_def_cfa_offset 16
 6494              		.cfi_offset 6, -16
 6495 3015 4889E5   		movq	%rsp, %rbp
 6496              		.cfi_def_cfa_register 6
 6497 3018 4883EC10 		subq	$16, %rsp
 6498 301c 48897DF8 		movq	%rdi, -8(%rbp)
 6499              	.LBB29:
 6500              		.loc 5 254 0
 6501 3020 E8000000 		call	_ZN13UnitTestSuite12GetSuiteNameEv
 6501      00
 6502 3025 4889C2   		movq	%rax, %rdx
 6503 3028 488B45F8 		movq	-8(%rbp), %rax
 6504 302c 41B8FE00 		movl	$254, %r8d
 6504      0000
 6505 3032 B9000000 		movl	$.LC2, %ecx
 6505      00
 6506 3037 BE000000 		movl	$.LC85, %esi
 6506      00
 6507 303c 4889C7   		movq	%rax, %rdi
 6508 303f E8000000 		call	_ZN8UnitTest4TestC2EPKcS2_S2_i
 6508      00
 6509 3044 BA000000 		movl	$_ZTVN12_GLOBAL__N_126TestCheckArray2DCloseFalseE+16, %edx
 6509      00
 6510 3049 488B45F8 		movq	-8(%rbp), %rax
 6511 304d 488910   		movq	%rdx, (%rax)
 6512              	.LBE29:
 6513 3050 90       		nop
 6514 3051 C9       		leave
 6515              		.cfi_def_cfa 7, 8
 6516 3052 C3       		ret
 6517              		.cfi_endproc
 6518              	.LFE1172:
 6520              		.set	_ZN12_GLOBAL__N_126TestCheckArray2DCloseFalseC1Ev,_ZN12_GLOBAL__N_126TestCheckArray2DCloseFal
 6521              		.local	_ZN12_GLOBAL__N_134testCheckArray2DCloseFalseInstanceE
 6522              		.comm	_ZN12_GLOBAL__N_134testCheckArray2DCloseFalseInstanceE,56,32
 6523              		.local	_ZN12_GLOBAL__N_127adderCheckArray2DCloseFalseE
 6524              		.comm	_ZN12_GLOBAL__N_127adderCheckArray2DCloseFalseE,1,1
 6525 3053 90       		.align 2
 6527              	_ZNK12_GLOBAL__N_126TestCheckArray2DCloseFalse7RunImplEv:
 6528              	.LFB1174:
 255:TestChecks.cpp **** {
 6529              		.loc 5 255 0
 6530              		.cfi_startproc
 6531              		.cfi_personality 0x3,__gxx_personality_v0
 6532              		.cfi_lsda 0x3,.LLSDA1174
 6533 3054 55       		pushq	%rbp
 6534              		.cfi_def_cfa_offset 16
 6535              		.cfi_offset 6, -16
 6536 3055 4889E5   		movq	%rsp, %rbp
 6537              		.cfi_def_cfa_register 6
 6538 3058 53       		pushq	%rbx
 6539 3059 4881ECC8 		subq	$200, %rsp
 6539      000000
 6540              		.cfi_offset 3, -24
 6541 3060 4889BD38 		movq	%rdi, -200(%rbp)
 6541      FFFFFF
 6542              		.loc 5 255 0
 6543 3067 64488B04 		movq	%fs:40, %rax
 6543      25280000 
 6543      00
 6544 3070 488945E8 		movq	%rax, -24(%rbp)
 6545 3074 31C0     		xorl	%eax, %eax
 256:TestChecks.cpp ****     TestResults results;
 6546              		.loc 5 256 0
 6547 3076 488D8550 		leaq	-176(%rbp), %rax
 6547      FFFFFF
 6548 307d BE000000 		movl	$0, %esi
 6548      00
 6549 3082 4889C7   		movq	%rax, %rdi
 6550              	.LEHB177:
 6551 3085 E8000000 		call	_ZN8UnitTest11TestResultsC1EPNS_12TestReporterE
 6551      00
 257:TestChecks.cpp **** 
 258:TestChecks.cpp ****     float const array1[3][3] = { { 1.0f, 1.5f, 2.0f },
 259:TestChecks.cpp ****                                  { 2.0f, 2.5f, 3.0f },
 260:TestChecks.cpp ****                                  { 3.0f, 3.5f, 4.0f } };
 6552              		.loc 5 260 0
 6553 308a F30F1005 		movss	.LC60(%rip), %xmm0
 6553      00000000 
 6554 3092 F30F1145 		movss	%xmm0, -112(%rbp)
 6554      90
 6555 3097 F30F1005 		movss	.LC61(%rip), %xmm0
 6555      00000000 
 6556 309f F30F1145 		movss	%xmm0, -108(%rbp)
 6556      94
 6557 30a4 F30F1005 		movss	.LC62(%rip), %xmm0
 6557      00000000 
 6558 30ac F30F1145 		movss	%xmm0, -104(%rbp)
 6558      98
 6559 30b1 F30F1005 		movss	.LC62(%rip), %xmm0
 6559      00000000 
 6560 30b9 F30F1145 		movss	%xmm0, -100(%rbp)
 6560      9C
 6561 30be F30F1005 		movss	.LC78(%rip), %xmm0
 6561      00000000 
 6562 30c6 F30F1145 		movss	%xmm0, -96(%rbp)
 6562      A0
 6563 30cb F30F1005 		movss	.LC32(%rip), %xmm0
 6563      00000000 
 6564 30d3 F30F1145 		movss	%xmm0, -92(%rbp)
 6564      A4
 6565 30d8 F30F1005 		movss	.LC32(%rip), %xmm0
 6565      00000000 
 6566 30e0 F30F1145 		movss	%xmm0, -88(%rbp)
 6566      A8
 6567 30e5 F30F1005 		movss	.LC79(%rip), %xmm0
 6567      00000000 
 6568 30ed F30F1145 		movss	%xmm0, -84(%rbp)
 6568      AC
 6569 30f2 F30F1005 		movss	.LC80(%rip), %xmm0
 6569      00000000 
 6570 30fa F30F1145 		movss	%xmm0, -80(%rbp)
 6570      B0
 261:TestChecks.cpp ****     float const array2[3][3] = { { 1.01f, 1.51f, 2.01f },
 262:TestChecks.cpp ****                                  { 2.01f, 2.51f, 3.01f },
 263:TestChecks.cpp ****                                  { 3.01f, 3.51f, 4.01f } };
 6571              		.loc 5 263 0
 6572 30ff F30F1005 		movss	.LC63(%rip), %xmm0
 6572      00000000 
 6573 3107 F30F1145 		movss	%xmm0, -64(%rbp)
 6573      C0
 6574 310c F30F1005 		movss	.LC64(%rip), %xmm0
 6574      00000000 
 6575 3114 F30F1145 		movss	%xmm0, -60(%rbp)
 6575      C4
 6576 3119 F30F1005 		movss	.LC65(%rip), %xmm0
 6576      00000000 
 6577 3121 F30F1145 		movss	%xmm0, -56(%rbp)
 6577      C8
 6578 3126 F30F1005 		movss	.LC65(%rip), %xmm0
 6578      00000000 
 6579 312e F30F1145 		movss	%xmm0, -52(%rbp)
 6579      CC
 6580 3133 F30F1005 		movss	.LC81(%rip), %xmm0
 6580      00000000 
 6581 313b F30F1145 		movss	%xmm0, -48(%rbp)
 6581      D0
 6582 3140 F30F1005 		movss	.LC82(%rip), %xmm0
 6582      00000000 
 6583 3148 F30F1145 		movss	%xmm0, -44(%rbp)
 6583      D4
 6584 314d F30F1005 		movss	.LC82(%rip), %xmm0
 6584      00000000 
 6585 3155 F30F1145 		movss	%xmm0, -40(%rbp)
 6585      D8
 6586 315a F30F1005 		movss	.LC83(%rip), %xmm0
 6586      00000000 
 6587 3162 F30F1145 		movss	%xmm0, -36(%rbp)
 6587      DC
 6588 3167 F30F1005 		movss	.LC84(%rip), %xmm0
 6588      00000000 
 6589 316f F30F1145 		movss	%xmm0, -32(%rbp)
 6589      E0
 264:TestChecks.cpp ****     CheckArray2DClose(results, array1, array2, 3, 3, 0.001f, TestDetails("", "", "", 0));
 6590              		.loc 5 264 0
 6591 3174 488D8570 		leaq	-144(%rbp), %rax
 6591      FFFFFF
 6592 317b 41B80000 		movl	$0, %r8d
 6592      0000
 6593 3181 B9000000 		movl	$.LC6, %ecx
 6593      00
 6594 3186 BA000000 		movl	$.LC6, %edx
 6594      00
 6595 318b BE000000 		movl	$.LC6, %esi
 6595      00
 6596 3190 4889C7   		movq	%rax, %rdi
 6597 3193 E8000000 		call	_ZN8UnitTest11TestDetailsC1EPKcS2_S2_i
 6597      00
 6598 3198 F30F1005 		movss	.LC68(%rip), %xmm0
 6598      00000000 
 6599 31a0 F30F1185 		movss	%xmm0, -180(%rbp)
 6599      4CFFFFFF 
 6600 31a8 488DBD4C 		leaq	-180(%rbp), %rdi
 6600      FFFFFF
 6601 31af 488D55C0 		leaq	-64(%rbp), %rdx
 6602 31b3 488D7590 		leaq	-112(%rbp), %rsi
 6603 31b7 488D8550 		leaq	-176(%rbp), %rax
 6603      FFFFFF
 6604 31be 4883EC08 		subq	$8, %rsp
 6605 31c2 488D8D70 		leaq	-144(%rbp), %rcx
 6605      FFFFFF
 6606 31c9 51       		pushq	%rcx
 6607 31ca 4989F9   		movq	%rdi, %r9
 6608 31cd 41B80300 		movl	$3, %r8d
 6608      0000
 6609 31d3 B9030000 		movl	$3, %ecx
 6609      00
 6610 31d8 4889C7   		movq	%rax, %rdi
 6611 31db E8000000 		call	_ZN8UnitTest17CheckArray2DCloseIA3_A3_fS2_fEEvRNS_11TestResultsERKT_RKT0_iiRKT1_RKNS_11TestDe
 6611      00
 6612              	.LEHE177:
 6613 31e0 4883C410 		addq	$16, %rsp
 6614              	.LEHB178:
 265:TestChecks.cpp ****     CHECK_EQUAL(1, results.GetFailureCount());
 6615              		.loc 5 265 0
 6616 31e4 E8000000 		call	_ZN8UnitTest11CurrentTest7DetailsEv
 6616      00
 6617 31e9 488B08   		movq	(%rax), %rcx
 6618 31ec 488D8570 		leaq	-144(%rbp), %rax
 6618      FFFFFF
 6619 31f3 BA090100 		movl	$265, %edx
 6619      00
 6620 31f8 4889CE   		movq	%rcx, %rsi
 6621 31fb 4889C7   		movq	%rax, %rdi
 6622 31fe E8000000 		call	_ZN8UnitTest11TestDetailsC1ERKS0_i
 6622      00
 6623              		.loc 5 265 0 is_stmt 0 discriminator 2
 6624 3203 488D8550 		leaq	-176(%rbp), %rax
 6624      FFFFFF
 6625 320a 4889C7   		movq	%rax, %rdi
 6626 320d E8000000 		call	_ZNK8UnitTest11TestResults15GetFailureCountEv
 6626      00
 6627              	.LEHE178:
 6628 3212 89854CFF 		movl	%eax, -180(%rbp)
 6628      FFFF
 6629 3218 C78548FF 		movl	$1, -184(%rbp)
 6629      FFFF0100 
 6629      0000
 6630              	.LEHB179:
 6631 3222 E8000000 		call	_ZN8UnitTest11CurrentTest7ResultsEv
 6631      00
 6632              		.loc 5 265 0 discriminator 4
 6633 3227 488B00   		movq	(%rax), %rax
 6634 322a 488D8D70 		leaq	-144(%rbp), %rcx
 6634      FFFFFF
 6635 3231 488D954C 		leaq	-180(%rbp), %rdx
 6635      FFFFFF
 6636 3238 488DB548 		leaq	-184(%rbp), %rsi
 6636      FFFFFF
 6637 323f 4889C7   		movq	%rax, %rdi
 6638 3242 E8000000 		call	_ZN8UnitTest10CheckEqualIiiEEvRNS_11TestResultsERKT_RKT0_RKNS_11TestDetailsE
 6638      00
 6639              	.LEHE179:
 266:TestChecks.cpp **** }
 6640              		.loc 5 266 0 is_stmt 1
 6641 3247 EB62     		jmp	.L312
 6642              	.L319:
 6643 3249 EB00     		jmp	.L314
 6644              	.L318:
 6645              	.L314:
 265:TestChecks.cpp ****     CHECK_EQUAL(1, results.GetFailureCount());
 6646              		.loc 5 265 0
 6647 324b 4889C7   		movq	%rax, %rdi
 6648 324e E8000000 		call	__cxa_begin_catch
 6648      00
 6649              	.LEHB180:
 6650 3253 E8000000 		call	_ZN8UnitTest11CurrentTest7DetailsEv
 6650      00
 6651 3258 488B08   		movq	(%rax), %rcx
 6652 325b 488D8570 		leaq	-144(%rbp), %rax
 6652      FFFFFF
 6653 3262 BA090100 		movl	$265, %edx
 6653      00
 6654 3267 4889CE   		movq	%rcx, %rsi
 6655 326a 4889C7   		movq	%rax, %rdi
 6656 326d E8000000 		call	_ZN8UnitTest11TestDetailsC1ERKS0_i
 6656      00
 265:TestChecks.cpp ****     CHECK_EQUAL(1, results.GetFailureCount());
 6657              		.loc 5 265 0 is_stmt 0 discriminator 12
 6658 3272 E8000000 		call	_ZN8UnitTest11CurrentTest7ResultsEv
 6658      00
 6659 3277 488B00   		movq	(%rax), %rax
 6660 327a 488D8D70 		leaq	-144(%rbp), %rcx
 6660      FFFFFF
 6661 3281 BA000000 		movl	$.LC7, %edx
 6661      00
 6662 3286 4889CE   		movq	%rcx, %rsi
 6663 3289 4889C7   		movq	%rax, %rdi
 6664 328c E8000000 		call	_ZN8UnitTest11TestResults13OnTestFailureERKNS_11TestDetailsEPKc
 6664      00
 6665              	.LEHE180:
 6666              	.LEHB181:
 265:TestChecks.cpp ****     CHECK_EQUAL(1, results.GetFailureCount());
 6667              		.loc 5 265 0 discriminator 16
 6668 3291 E8000000 		call	__cxa_end_catch
 6668      00
 6669              	.LEHE181:
 6670              		.loc 5 266 0 is_stmt 1 discriminator 16
 6671 3296 EB13     		jmp	.L312
 6672              	.L320:
 6673 3298 4889C3   		movq	%rax, %rbx
 265:TestChecks.cpp ****     CHECK_EQUAL(1, results.GetFailureCount());
 6674              		.loc 5 265 0
 6675 329b E8000000 		call	__cxa_end_catch
 6675      00
 6676 32a0 4889D8   		movq	%rbx, %rax
 6677 32a3 4889C7   		movq	%rax, %rdi
 6678              	.LEHB182:
 6679 32a6 E8000000 		call	_Unwind_Resume
 6679      00
 6680              	.LEHE182:
 6681              	.L312:
 6682              		.loc 5 266 0
 6683 32ab 488B45E8 		movq	-24(%rbp), %rax
 6684 32af 64483304 		xorq	%fs:40, %rax
 6684      25280000 
 6684      00
 6685 32b8 7405     		je	.L317
 6686 32ba E8000000 		call	__stack_chk_fail
 6686      00
 6687              	.L317:
 6688 32bf 488B5DF8 		movq	-8(%rbp), %rbx
 6689 32c3 C9       		leave
 6690              		.cfi_def_cfa 7, 8
 6691 32c4 C3       		ret
 6692              		.cfi_endproc
 6693              	.LFE1174:
 6694              		.section	.gcc_except_table
 6695              		.align 4
 6696              	.LLSDA1174:
 6697 04f8 FF       		.byte	0xff
 6698 04f9 03       		.byte	0x3
 6699 04fa 2D       		.uleb128 .LLSDATT1174-.LLSDATTD1174
 6700              	.LLSDATTD1174:
 6701 04fb 01       		.byte	0x1
 6702 04fc 21       		.uleb128 .LLSDACSE1174-.LLSDACSB1174
 6703              	.LLSDACSB1174:
 6704 04fd 31       		.uleb128 .LEHB177-.LFB1174
 6705 04fe DB02     		.uleb128 .LEHE177-.LEHB177
 6706 0500 00       		.uleb128 0
 6707 0501 00       		.uleb128 0
 6708 0502 9003     		.uleb128 .LEHB178-.LFB1174
 6709 0504 2E       		.uleb128 .LEHE178-.LEHB178
 6710 0505 F703     		.uleb128 .L318-.LFB1174
 6711 0507 01       		.uleb128 0x1
 6712 0508 CE03     		.uleb128 .LEHB179-.LFB1174
 6713 050a 25       		.uleb128 .LEHE179-.LEHB179
 6714 050b F503     		.uleb128 .L319-.LFB1174
 6715 050d 03       		.uleb128 0x3
 6716 050e FF03     		.uleb128 .LEHB180-.LFB1174
 6717 0510 3E       		.uleb128 .LEHE180-.LEHB180
 6718 0511 C404     		.uleb128 .L320-.LFB1174
 6719 0513 00       		.uleb128 0
 6720 0514 BD04     		.uleb128 .LEHB181-.LFB1174
 6721 0516 05       		.uleb128 .LEHE181-.LEHB181
 6722 0517 00       		.uleb128 0
 6723 0518 00       		.uleb128 0
 6724 0519 D204     		.uleb128 .LEHB182-.LFB1174
 6725 051b 05       		.uleb128 .LEHE182-.LEHB182
 6726 051c 00       		.uleb128 0
 6727 051d 00       		.uleb128 0
 6728              	.LLSDACSE1174:
 6729 051e 01       		.byte	0x1
 6730 051f 00       		.byte	0
 6731 0520 00       		.byte	0
 6732 0521 7D       		.byte	0x7d
 6733 0522 0000     		.align 4
 6734 0524 00000000 		.long	0
 6735              	
 6736              	.LLSDATT1174:
 6737              		.text
 6739              		.section	.rodata
 6740              	.LC86:
 6741 0a1f 43686563 		.string	"CheckCloseWithDoublesSucceeds"
 6741      6B436C6F 
 6741      73655769 
 6741      7468446F 
 6741      75626C65 
 6742              		.text
 6743 32c5 90       		.align 2
 6745              	_ZN12_GLOBAL__N_133TestCheckCloseWithDoublesSucceedsC2Ev:
 6746              	.LFB1176:
 267:TestChecks.cpp **** 
 268:TestChecks.cpp **** TEST(CheckCloseWithDoublesSucceeds)
 6747              		.loc 5 268 0
 6748              		.cfi_startproc
 6749 32c6 55       		pushq	%rbp
 6750              		.cfi_def_cfa_offset 16
 6751              		.cfi_offset 6, -16
 6752 32c7 4889E5   		movq	%rsp, %rbp
 6753              		.cfi_def_cfa_register 6
 6754 32ca 4883EC10 		subq	$16, %rsp
 6755 32ce 48897DF8 		movq	%rdi, -8(%rbp)
 6756              	.LBB30:
 6757              		.loc 5 268 0
 6758 32d2 E8000000 		call	_ZN13UnitTestSuite12GetSuiteNameEv
 6758      00
 6759 32d7 4889C2   		movq	%rax, %rdx
 6760 32da 488B45F8 		movq	-8(%rbp), %rax
 6761 32de 41B80C01 		movl	$268, %r8d
 6761      0000
 6762 32e4 B9000000 		movl	$.LC2, %ecx
 6762      00
 6763 32e9 BE000000 		movl	$.LC86, %esi
 6763      00
 6764 32ee 4889C7   		movq	%rax, %rdi
 6765 32f1 E8000000 		call	_ZN8UnitTest4TestC2EPKcS2_S2_i
 6765      00
 6766 32f6 BA000000 		movl	$_ZTVN12_GLOBAL__N_133TestCheckCloseWithDoublesSucceedsE+16, %edx
 6766      00
 6767 32fb 488B45F8 		movq	-8(%rbp), %rax
 6768 32ff 488910   		movq	%rdx, (%rax)
 6769              	.LBE30:
 6770 3302 90       		nop
 6771 3303 C9       		leave
 6772              		.cfi_def_cfa 7, 8
 6773 3304 C3       		ret
 6774              		.cfi_endproc
 6775              	.LFE1176:
 6777              		.set	_ZN12_GLOBAL__N_133TestCheckCloseWithDoublesSucceedsC1Ev,_ZN12_GLOBAL__N_133TestCheckCloseWit
 6778              		.local	_ZN12_GLOBAL__N_141testCheckCloseWithDoublesSucceedsInstanceE
 6779              		.comm	_ZN12_GLOBAL__N_141testCheckCloseWithDoublesSucceedsInstanceE,56,32
 6780              		.local	_ZN12_GLOBAL__N_134adderCheckCloseWithDoublesSucceedsE
 6781              		.comm	_ZN12_GLOBAL__N_134adderCheckCloseWithDoublesSucceedsE,1,1
 6782              		.section	.rodata
 6783 0a3d 000000   		.align 8
 6784              	.LC89:
 6785 0a40 556E6861 		.string	"Unhandled exception in CHECK_CLOSE(0.5, 0.5)"
 6785      6E646C65 
 6785      64206578 
 6785      63657074 
 6785      696F6E20 
 6786              		.text
 6787 3305 90       		.align 2
 6789              	_ZNK12_GLOBAL__N_133TestCheckCloseWithDoublesSucceeds7RunImplEv:
 6790              	.LFB1178:
 269:TestChecks.cpp **** {
 6791              		.loc 5 269 0
 6792              		.cfi_startproc
 6793              		.cfi_personality 0x3,__gxx_personality_v0
 6794              		.cfi_lsda 0x3,.LLSDA1178
 6795 3306 55       		pushq	%rbp
 6796              		.cfi_def_cfa_offset 16
 6797              		.cfi_offset 6, -16
 6798 3307 4889E5   		movq	%rsp, %rbp
 6799              		.cfi_def_cfa_register 6
 6800 330a 53       		pushq	%rbx
 6801 330b 4883EC68 		subq	$104, %rsp
 6802              		.cfi_offset 3, -24
 6803 330f 48897D98 		movq	%rdi, -104(%rbp)
 6804              		.loc 5 269 0
 6805 3313 64488B04 		movq	%fs:40, %rax
 6805      25280000 
 6805      00
 6806 331c 488945E8 		movq	%rax, -24(%rbp)
 6807 3320 31C0     		xorl	%eax, %eax
 6808              	.LEHB183:
 270:TestChecks.cpp ****     CHECK_CLOSE(0.5, 0.5, 0.0001);
 6809              		.loc 5 270 0
 6810 3322 E8000000 		call	_ZN8UnitTest11CurrentTest7DetailsEv
 6810      00
 6811 3327 488B08   		movq	(%rax), %rcx
 6812 332a 488D45C0 		leaq	-64(%rbp), %rax
 6813 332e BA0E0100 		movl	$270, %edx
 6813      00
 6814 3333 4889CE   		movq	%rcx, %rsi
 6815 3336 4889C7   		movq	%rax, %rdi
 6816 3339 E8000000 		call	_ZN8UnitTest11TestDetailsC1ERKS0_i
 6816      00
 6817              	.LEHE183:
 6818              		.loc 5 270 0 is_stmt 0 discriminator 2
 6819 333e F20F1005 		movsd	.LC87(%rip), %xmm0
 6819      00000000 
 6820 3346 F20F1145 		movsd	%xmm0, -72(%rbp)
 6820      B8
 6821 334b F20F1005 		movsd	.LC88(%rip), %xmm0
 6821      00000000 
 6822 3353 F20F1145 		movsd	%xmm0, -80(%rbp)
 6822      B0
 6823 3358 F20F1005 		movsd	.LC88(%rip), %xmm0
 6823      00000000 
 6824 3360 F20F1145 		movsd	%xmm0, -88(%rbp)
 6824      A8
 6825              	.LEHB184:
 6826 3365 E8000000 		call	_ZN8UnitTest11CurrentTest7ResultsEv
 6826      00
 6827 336a 488B00   		movq	(%rax), %rax
 6828 336d 488D7DC0 		leaq	-64(%rbp), %rdi
 6829 3371 488D4DB8 		leaq	-72(%rbp), %rcx
 6830 3375 488D55B0 		leaq	-80(%rbp), %rdx
 6831 3379 488D75A8 		leaq	-88(%rbp), %rsi
 6832 337d 4989F8   		movq	%rdi, %r8
 6833 3380 4889C7   		movq	%rax, %rdi
 6834 3383 E8000000 		call	_ZN8UnitTest10CheckCloseIdddEEvRNS_11TestResultsERKT_RKT0_RKT1_RKNS_11TestDetailsE
 6834      00
 6835              	.LEHE184:
 271:TestChecks.cpp **** }
 6836              		.loc 5 271 0 is_stmt 1
 6837 3388 EB5C     		jmp	.L322
 6838              	.L329:
 6839 338a EB00     		jmp	.L324
 6840              	.L328:
 6841              	.L324:
 270:TestChecks.cpp ****     CHECK_CLOSE(0.5, 0.5, 0.0001);
 6842              		.loc 5 270 0
 6843 338c 4889C7   		movq	%rax, %rdi
 6844 338f E8000000 		call	__cxa_begin_catch
 6844      00
 6845              	.LEHB185:
 6846 3394 E8000000 		call	_ZN8UnitTest11CurrentTest7DetailsEv
 6846      00
 6847 3399 488B08   		movq	(%rax), %rcx
 6848 339c 488D45C0 		leaq	-64(%rbp), %rax
 6849 33a0 BA0E0100 		movl	$270, %edx
 6849      00
 6850 33a5 4889CE   		movq	%rcx, %rsi
 6851 33a8 4889C7   		movq	%rax, %rdi
 6852 33ab E8000000 		call	_ZN8UnitTest11TestDetailsC1ERKS0_i
 6852      00
 270:TestChecks.cpp ****     CHECK_CLOSE(0.5, 0.5, 0.0001);
 6853              		.loc 5 270 0 is_stmt 0 discriminator 10
 6854 33b0 E8000000 		call	_ZN8UnitTest11CurrentTest7ResultsEv
 6854      00
 6855 33b5 488B00   		movq	(%rax), %rax
 6856 33b8 488D4DC0 		leaq	-64(%rbp), %rcx
 6857 33bc BA000000 		movl	$.LC89, %edx
 6857      00
 6858 33c1 4889CE   		movq	%rcx, %rsi
 6859 33c4 4889C7   		movq	%rax, %rdi
 6860 33c7 E8000000 		call	_ZN8UnitTest11TestResults13OnTestFailureERKNS_11TestDetailsEPKc
 6860      00
 6861              	.LEHE185:
 6862              	.LEHB186:
 270:TestChecks.cpp ****     CHECK_CLOSE(0.5, 0.5, 0.0001);
 6863              		.loc 5 270 0 discriminator 14
 6864 33cc E8000000 		call	__cxa_end_catch
 6864      00
 6865              	.LEHE186:
 6866              		.loc 5 271 0 is_stmt 1 discriminator 14
 6867 33d1 EB13     		jmp	.L322
 6868              	.L330:
 6869 33d3 4889C3   		movq	%rax, %rbx
 270:TestChecks.cpp ****     CHECK_CLOSE(0.5, 0.5, 0.0001);
 6870              		.loc 5 270 0
 6871 33d6 E8000000 		call	__cxa_end_catch
 6871      00
 6872 33db 4889D8   		movq	%rbx, %rax
 6873 33de 4889C7   		movq	%rax, %rdi
 6874              	.LEHB187:
 6875 33e1 E8000000 		call	_Unwind_Resume
 6875      00
 6876              	.LEHE187:
 6877              	.L322:
 6878              		.loc 5 271 0
 6879 33e6 488B45E8 		movq	-24(%rbp), %rax
 6880 33ea 64483304 		xorq	%fs:40, %rax
 6880      25280000 
 6880      00
 6881 33f3 7405     		je	.L327
 6882 33f5 E8000000 		call	__stack_chk_fail
 6882      00
 6883              	.L327:
 6884 33fa 4883C468 		addq	$104, %rsp
 6885 33fe 5B       		popq	%rbx
 6886 33ff 5D       		popq	%rbp
 6887              		.cfi_def_cfa 7, 8
 6888 3400 C3       		ret
 6889              		.cfi_endproc
 6890              	.LFE1178:
 6891              		.section	.gcc_except_table
 6892              		.align 4
 6893              	.LLSDA1178:
 6894 0528 FF       		.byte	0xff
 6895 0529 03       		.byte	0x3
 6896 052a 25       		.uleb128 .LLSDATT1178-.LLSDATTD1178
 6897              	.LLSDATTD1178:
 6898 052b 01       		.byte	0x1
 6899 052c 1A       		.uleb128 .LLSDACSE1178-.LLSDACSB1178
 6900              	.LLSDACSB1178:
 6901 052d 1C       		.uleb128 .LEHB183-.LFB1178
 6902 052e 1C       		.uleb128 .LEHE183-.LEHB183
 6903 052f 8601     		.uleb128 .L328-.LFB1178
 6904 0531 01       		.uleb128 0x1
 6905 0532 5F       		.uleb128 .LEHB184-.LFB1178
 6906 0533 23       		.uleb128 .LEHE184-.LEHB184
 6907 0534 8401     		.uleb128 .L329-.LFB1178
 6908 0536 03       		.uleb128 0x3
 6909 0537 8E01     		.uleb128 .LEHB185-.LFB1178
 6910 0539 38       		.uleb128 .LEHE185-.LEHB185
 6911 053a CD01     		.uleb128 .L330-.LFB1178
 6912 053c 00       		.uleb128 0
 6913 053d C601     		.uleb128 .LEHB186-.LFB1178
 6914 053f 05       		.uleb128 .LEHE186-.LEHB186
 6915 0540 00       		.uleb128 0
 6916 0541 00       		.uleb128 0
 6917 0542 DB01     		.uleb128 .LEHB187-.LFB1178
 6918 0544 05       		.uleb128 .LEHE187-.LEHB187
 6919 0545 00       		.uleb128 0
 6920 0546 00       		.uleb128 0
 6921              	.LLSDACSE1178:
 6922 0547 01       		.byte	0x1
 6923 0548 00       		.byte	0
 6924 0549 00       		.byte	0
 6925 054a 7D       		.byte	0x7d
 6926 054b 00       		.align 4
 6927 054c 00000000 		.long	0
 6928              	
 6929              	.LLSDATT1178:
 6930              		.text
 6932              		.section	.rodata
 6933 0a6d 000000   		.align 8
 6934              	.LC90:
 6935 0a70 43686563 		.string	"CheckArray2DCloseFailureIncludesDetails"
 6935      6B417272 
 6935      61793244 
 6935      436C6F73 
 6935      65466169 
 6936              		.text
 6937 3401 90       		.align 2
 6939              	_ZN12_GLOBAL__N_143TestCheckArray2DCloseFailureIncludesDetailsC2Ev:
 6940              	.LFB1180:
 272:TestChecks.cpp **** 
 273:TestChecks.cpp **** TEST(CheckArray2DCloseFailureIncludesDetails)
 6941              		.loc 5 273 0
 6942              		.cfi_startproc
 6943 3402 55       		pushq	%rbp
 6944              		.cfi_def_cfa_offset 16
 6945              		.cfi_offset 6, -16
 6946 3403 4889E5   		movq	%rsp, %rbp
 6947              		.cfi_def_cfa_register 6
 6948 3406 4883EC10 		subq	$16, %rsp
 6949 340a 48897DF8 		movq	%rdi, -8(%rbp)
 6950              	.LBB31:
 6951              		.loc 5 273 0
 6952 340e E8000000 		call	_ZN13UnitTestSuite12GetSuiteNameEv
 6952      00
 6953 3413 4889C2   		movq	%rax, %rdx
 6954 3416 488B45F8 		movq	-8(%rbp), %rax
 6955 341a 41B81101 		movl	$273, %r8d
 6955      0000
 6956 3420 B9000000 		movl	$.LC2, %ecx
 6956      00
 6957 3425 BE000000 		movl	$.LC90, %esi
 6957      00
 6958 342a 4889C7   		movq	%rax, %rdi
 6959 342d E8000000 		call	_ZN8UnitTest4TestC2EPKcS2_S2_i
 6959      00
 6960 3432 BA000000 		movl	$_ZTVN12_GLOBAL__N_143TestCheckArray2DCloseFailureIncludesDetailsE+16, %edx
 6960      00
 6961 3437 488B45F8 		movq	-8(%rbp), %rax
 6962 343b 488910   		movq	%rdx, (%rax)
 6963              	.LBE31:
 6964 343e 90       		nop
 6965 343f C9       		leave
 6966              		.cfi_def_cfa 7, 8
 6967 3440 C3       		ret
 6968              		.cfi_endproc
 6969              	.LFE1180:
 6971              		.set	_ZN12_GLOBAL__N_143TestCheckArray2DCloseFailureIncludesDetailsC1Ev,_ZN12_GLOBAL__N_143TestChe
 6972              		.local	_ZN12_GLOBAL__N_151testCheckArray2DCloseFailureIncludesDetailsInstanceE
 6973              		.comm	_ZN12_GLOBAL__N_151testCheckArray2DCloseFailureIncludesDetailsInstanceE,56,32
 6974              		.local	_ZN12_GLOBAL__N_144adderCheckArray2DCloseFailureIncludesDetailsE
 6975              		.comm	_ZN12_GLOBAL__N_144adderCheckArray2DCloseFailureIncludesDetailsE,1,1
 6976              		.section	.rodata
 6977              	.LC91:
 6978 0a98 61727261 		.string	"array2DCloseSuite"
 6978      79324443 
 6978      6C6F7365 
 6978      53756974 
 6978      6500
 6979              	.LC92:
 6980 0aaa 61727261 		.string	"array2DCloseTest"
 6980      79324443 
 6980      6C6F7365 
 6980      54657374 
 6980      00
 6981 0abb 00000000 		.align 8
 6981      00
 6982              	.LC93:
 6983 0ac0 556E6861 		.string	"Unhandled exception in CHECK_EQUAL(\"array2DCloseTest\", reporter.lastFailedTest)"
 6983      6E646C65 
 6983      64206578 
 6983      63657074 
 6983      696F6E20 
 6984              		.align 8
 6985              	.LC94:
 6986 0b10 556E6861 		.string	"Unhandled exception in CHECK_EQUAL(\"array2DCloseSuite\", reporter.lastFailedSuite)"
 6986      6E646C65 
 6986      64206578 
 6986      63657074 
 6986      696F6E20 
 6987 0b62 00000000 		.align 8
 6987      0000
 6988              	.LC95:
 6989 0b68 556E6861 		.string	"Unhandled exception in CHECK_EQUAL(1234, reporter.lastFailedLine)"
 6989      6E646C65 
 6989      64206578 
 6989      63657074 
 6989      696F6E20 
 6990              		.text
 6991 3441 90       		.align 2
 6993              	_ZNK12_GLOBAL__N_143TestCheckArray2DCloseFailureIncludesDetails7RunImplEv:
 6994              	.LFB1182:
 274:TestChecks.cpp **** {
 6995              		.loc 5 274 0
 6996              		.cfi_startproc
 6997              		.cfi_personality 0x3,__gxx_personality_v0
 6998              		.cfi_lsda 0x3,.LLSDA1182
 6999 3442 55       		pushq	%rbp
 7000              		.cfi_def_cfa_offset 16
 7001              		.cfi_offset 6, -16
 7002 3443 4889E5   		movq	%rsp, %rbp
 7003              		.cfi_def_cfa_register 6
 7004 3446 53       		pushq	%rbx
 7005 3447 4881EC28 		subq	$2344, %rsp
 7005      090000
 7006              		.cfi_offset 3, -24
 7007 344e 4889BDD8 		movq	%rdi, -2344(%rbp)
 7007      F6FFFF
 7008              		.loc 5 274 0
 7009 3455 64488B04 		movq	%fs:40, %rax
 7009      25280000 
 7009      00
 7010 345e 488945E8 		movq	%rax, -24(%rbp)
 7011 3462 31C0     		xorl	%eax, %eax
 275:TestChecks.cpp ****     RecordingReporter reporter;
 7012              		.loc 5 275 0
 7013 3464 488D85B0 		leaq	-2128(%rbp), %rax
 7013      F7FFFF
 7014 346b 4889C7   		movq	%rax, %rdi
 7015 346e E8000000 		call	_ZN17RecordingReporterC1Ev
 7015      00
 276:TestChecks.cpp ****     TestResults results(&reporter);
 7016              		.loc 5 276 0
 7017 3473 488D95B0 		leaq	-2128(%rbp), %rdx
 7017      F7FFFF
 7018 347a 488D85F0 		leaq	-2320(%rbp), %rax
 7018      F6FFFF
 7019 3481 4889D6   		movq	%rdx, %rsi
 7020 3484 4889C7   		movq	%rax, %rdi
 7021              	.LEHB188:
 7022 3487 E8000000 		call	_ZN8UnitTest11TestResultsC1EPNS_12TestReporterE
 7022      00
 277:TestChecks.cpp ****     TestDetails const details("array2DCloseTest", "array2DCloseSuite", "file", 1234);
 7023              		.loc 5 277 0
 7024 348c 488D8510 		leaq	-2288(%rbp), %rax
 7024      F7FFFF
 7025 3493 41B8D204 		movl	$1234, %r8d
 7025      0000
 7026 3499 B9000000 		movl	$.LC70, %ecx
 7026      00
 7027 349e BA000000 		movl	$.LC91, %edx
 7027      00
 7028 34a3 BE000000 		movl	$.LC92, %esi
 7028      00
 7029 34a8 4889C7   		movq	%rax, %rdi
 7030 34ab E8000000 		call	_ZN8UnitTest11TestDetailsC1EPKcS2_S2_i
 7030      00
 278:TestChecks.cpp **** 
 279:TestChecks.cpp ****     float const array1[3][3] = { { 1.0f, 1.5f, 2.0f },
 280:TestChecks.cpp ****                                  { 2.0f, 2.5f, 3.0f },
 281:TestChecks.cpp ****                                  { 3.0f, 3.5f, 4.0f } };
 7031              		.loc 5 281 0
 7032 34b0 F30F1005 		movss	.LC60(%rip), %xmm0
 7032      00000000 
 7033 34b8 F30F1185 		movss	%xmm0, -2224(%rbp)
 7033      50F7FFFF 
 7034 34c0 F30F1005 		movss	.LC61(%rip), %xmm0
 7034      00000000 
 7035 34c8 F30F1185 		movss	%xmm0, -2220(%rbp)
 7035      54F7FFFF 
 7036 34d0 F30F1005 		movss	.LC62(%rip), %xmm0
 7036      00000000 
 7037 34d8 F30F1185 		movss	%xmm0, -2216(%rbp)
 7037      58F7FFFF 
 7038 34e0 F30F1005 		movss	.LC62(%rip), %xmm0
 7038      00000000 
 7039 34e8 F30F1185 		movss	%xmm0, -2212(%rbp)
 7039      5CF7FFFF 
 7040 34f0 F30F1005 		movss	.LC78(%rip), %xmm0
 7040      00000000 
 7041 34f8 F30F1185 		movss	%xmm0, -2208(%rbp)
 7041      60F7FFFF 
 7042 3500 F30F1005 		movss	.LC32(%rip), %xmm0
 7042      00000000 
 7043 3508 F30F1185 		movss	%xmm0, -2204(%rbp)
 7043      64F7FFFF 
 7044 3510 F30F1005 		movss	.LC32(%rip), %xmm0
 7044      00000000 
 7045 3518 F30F1185 		movss	%xmm0, -2200(%rbp)
 7045      68F7FFFF 
 7046 3520 F30F1005 		movss	.LC79(%rip), %xmm0
 7046      00000000 
 7047 3528 F30F1185 		movss	%xmm0, -2196(%rbp)
 7047      6CF7FFFF 
 7048 3530 F30F1005 		movss	.LC80(%rip), %xmm0
 7048      00000000 
 7049 3538 F30F1185 		movss	%xmm0, -2192(%rbp)
 7049      70F7FFFF 
 282:TestChecks.cpp ****     float const array2[3][3] = { { 1.01f, 1.51f, 2.01f },
 283:TestChecks.cpp ****                                  { 2.01f, 2.51f, 3.01f },
 284:TestChecks.cpp ****                                  { 3.01f, 3.51f, 4.01f } };
 7050              		.loc 5 284 0
 7051 3540 F30F1005 		movss	.LC63(%rip), %xmm0
 7051      00000000 
 7052 3548 F30F1185 		movss	%xmm0, -2176(%rbp)
 7052      80F7FFFF 
 7053 3550 F30F1005 		movss	.LC64(%rip), %xmm0
 7053      00000000 
 7054 3558 F30F1185 		movss	%xmm0, -2172(%rbp)
 7054      84F7FFFF 
 7055 3560 F30F1005 		movss	.LC65(%rip), %xmm0
 7055      00000000 
 7056 3568 F30F1185 		movss	%xmm0, -2168(%rbp)
 7056      88F7FFFF 
 7057 3570 F30F1005 		movss	.LC65(%rip), %xmm0
 7057      00000000 
 7058 3578 F30F1185 		movss	%xmm0, -2164(%rbp)
 7058      8CF7FFFF 
 7059 3580 F30F1005 		movss	.LC81(%rip), %xmm0
 7059      00000000 
 7060 3588 F30F1185 		movss	%xmm0, -2160(%rbp)
 7060      90F7FFFF 
 7061 3590 F30F1005 		movss	.LC82(%rip), %xmm0
 7061      00000000 
 7062 3598 F30F1185 		movss	%xmm0, -2156(%rbp)
 7062      94F7FFFF 
 7063 35a0 F30F1005 		movss	.LC82(%rip), %xmm0
 7063      00000000 
 7064 35a8 F30F1185 		movss	%xmm0, -2152(%rbp)
 7064      98F7FFFF 
 7065 35b0 F30F1005 		movss	.LC83(%rip), %xmm0
 7065      00000000 
 7066 35b8 F30F1185 		movss	%xmm0, -2148(%rbp)
 7066      9CF7FFFF 
 7067 35c0 F30F1005 		movss	.LC84(%rip), %xmm0
 7067      00000000 
 7068 35c8 F30F1185 		movss	%xmm0, -2144(%rbp)
 7068      A0F7FFFF 
 285:TestChecks.cpp ****     CheckArray2DClose(results, array1, array2, 3, 3, 0.001f, details);
 7069              		.loc 5 285 0
 7070 35d0 F30F1005 		movss	.LC68(%rip), %xmm0
 7070      00000000 
 7071 35d8 F30F1185 		movss	%xmm0, -2256(%rbp)
 7071      30F7FFFF 
 7072 35e0 488DBD30 		leaq	-2256(%rbp), %rdi
 7072      F7FFFF
 7073 35e7 488D9580 		leaq	-2176(%rbp), %rdx
 7073      F7FFFF
 7074 35ee 488DB550 		leaq	-2224(%rbp), %rsi
 7074      F7FFFF
 7075 35f5 488D85F0 		leaq	-2320(%rbp), %rax
 7075      F6FFFF
 7076 35fc 4883EC08 		subq	$8, %rsp
 7077 3600 488D8D10 		leaq	-2288(%rbp), %rcx
 7077      F7FFFF
 7078 3607 51       		pushq	%rcx
 7079 3608 4989F9   		movq	%rdi, %r9
 7080 360b 41B80300 		movl	$3, %r8d
 7080      0000
 7081 3611 B9030000 		movl	$3, %ecx
 7081      00
 7082 3616 4889C7   		movq	%rax, %rdi
 7083              		.cfi_escape 0x2e,0x10
 7084 3619 E8000000 		call	_ZN8UnitTest17CheckArray2DCloseIA3_A3_fS2_fEEvRNS_11TestResultsERKT_RKT0_iiRKT1_RKNS_11TestDe
 7084      00
 7085              	.LEHE188:
 7086 361e 4883C410 		addq	$16, %rsp
 7087              	.LEHB189:
 7088              		.cfi_escape 0x2e,0
 286:TestChecks.cpp **** 
 287:TestChecks.cpp ****     CHECK_EQUAL("array2DCloseTest", reporter.lastFailedTest);
 7089              		.loc 5 287 0
 7090 3622 E8000000 		call	_ZN8UnitTest11CurrentTest7DetailsEv
 7090      00
 7091              		.loc 5 287 0 is_stmt 0 discriminator 2
 7092 3627 488B08   		movq	(%rax), %rcx
 7093 362a 488D8530 		leaq	-2256(%rbp), %rax
 7093      F7FFFF
 7094 3631 BA1F0100 		movl	$287, %edx
 7094      00
 7095 3636 4889CE   		movq	%rcx, %rsi
 7096 3639 4889C7   		movq	%rax, %rdi
 7097 363c E8000000 		call	_ZN8UnitTest11TestDetailsC1ERKS0_i
 7097      00
 7098 3641 E8000000 		call	_ZN8UnitTest11CurrentTest7ResultsEv
 7098      00
 7099 3646 488B00   		movq	(%rax), %rax
 7100 3649 488D9530 		leaq	-2256(%rbp), %rdx
 7100      F7FFFF
 7101 3650 488D8DB0 		leaq	-2128(%rbp), %rcx
 7101      F7FFFF
 7102 3657 488DB114 		leaq	1044(%rcx), %rsi
 7102      040000
 7103 365e 4889D1   		movq	%rdx, %rcx
 7104 3661 4889F2   		movq	%rsi, %rdx
 7105 3664 BE000000 		movl	$.LC92, %esi
 7105      00
 7106 3669 4889C7   		movq	%rax, %rdi
 7107 366c E8000000 		call	_ZN8UnitTest10CheckEqualERNS_11TestResultsEPKcPcRKNS_11TestDetailsE
 7107      00
 7108              	.LEHE189:
 7109              	.L334:
 7110              	.LEHB190:
 288:TestChecks.cpp ****     CHECK_EQUAL("array2DCloseSuite", reporter.lastFailedSuite);
 7111              		.loc 5 288 0 is_stmt 1
 7112 3671 E8000000 		call	_ZN8UnitTest11CurrentTest7DetailsEv
 7112      00
 7113 3676 488B08   		movq	(%rax), %rcx
 7114 3679 488D8530 		leaq	-2256(%rbp), %rax
 7114      F7FFFF
 7115 3680 BA200100 		movl	$288, %edx
 7115      00
 7116 3685 4889CE   		movq	%rcx, %rsi
 7117 3688 4889C7   		movq	%rax, %rdi
 7118 368b E8000000 		call	_ZN8UnitTest11TestDetailsC1ERKS0_i
 7118      00
 7119              		.loc 5 288 0 is_stmt 0 discriminator 2
 7120 3690 E8000000 		call	_ZN8UnitTest11CurrentTest7ResultsEv
 7120      00
 7121 3695 488B00   		movq	(%rax), %rax
 7122 3698 488D9530 		leaq	-2256(%rbp), %rdx
 7122      F7FFFF
 7123 369f 488D8DB0 		leaq	-2128(%rbp), %rcx
 7123      F7FFFF
 7124 36a6 488DB114 		leaq	788(%rcx), %rsi
 7124      030000
 7125 36ad 4889D1   		movq	%rdx, %rcx
 7126 36b0 4889F2   		movq	%rsi, %rdx
 7127 36b3 BE000000 		movl	$.LC91, %esi
 7127      00
 7128 36b8 4889C7   		movq	%rax, %rdi
 7129 36bb E8000000 		call	_ZN8UnitTest10CheckEqualERNS_11TestResultsEPKcPcRKNS_11TestDetailsE
 7129      00
 7130              	.LEHE190:
 7131              	.L338:
 7132              	.LEHB191:
 289:TestChecks.cpp ****     CHECK_EQUAL("file", reporter.lastFailedFile);
 7133              		.loc 5 289 0 is_stmt 1
 7134 36c0 E8000000 		call	_ZN8UnitTest11CurrentTest7DetailsEv
 7134      00
 7135 36c5 488B08   		movq	(%rax), %rcx
 7136 36c8 488D8530 		leaq	-2256(%rbp), %rax
 7136      F7FFFF
 7137 36cf BA210100 		movl	$289, %edx
 7137      00
 7138 36d4 4889CE   		movq	%rcx, %rsi
 7139 36d7 4889C7   		movq	%rax, %rdi
 7140 36da E8000000 		call	_ZN8UnitTest11TestDetailsC1ERKS0_i
 7140      00
 7141              		.loc 5 289 0 is_stmt 0 discriminator 2
 7142 36df E8000000 		call	_ZN8UnitTest11CurrentTest7ResultsEv
 7142      00
 7143 36e4 488B00   		movq	(%rax), %rax
 7144 36e7 488D9530 		leaq	-2256(%rbp), %rdx
 7144      F7FFFF
 7145 36ee 488D8DB0 		leaq	-2128(%rbp), %rcx
 7145      F7FFFF
 7146 36f5 488DB110 		leaq	528(%rcx), %rsi
 7146      020000
 7147 36fc 4889D1   		movq	%rdx, %rcx
 7148 36ff 4889F2   		movq	%rsi, %rdx
 7149 3702 BE000000 		movl	$.LC70, %esi
 7149      00
 7150 3707 4889C7   		movq	%rax, %rdi
 7151 370a E8000000 		call	_ZN8UnitTest10CheckEqualERNS_11TestResultsEPKcPcRKNS_11TestDetailsE
 7151      00
 7152              	.LEHE191:
 7153              	.L341:
 7154              	.LEHB192:
 290:TestChecks.cpp ****     CHECK_EQUAL(1234, reporter.lastFailedLine);
 7155              		.loc 5 290 0 is_stmt 1
 7156 370f E8000000 		call	_ZN8UnitTest11CurrentTest7DetailsEv
 7156      00
 7157 3714 488B08   		movq	(%rax), %rcx
 7158 3717 488D8530 		leaq	-2256(%rbp), %rax
 7158      F7FFFF
 7159 371e BA220100 		movl	$290, %edx
 7159      00
 7160 3723 4889CE   		movq	%rcx, %rsi
 7161 3726 4889C7   		movq	%rax, %rdi
 7162 3729 E8000000 		call	_ZN8UnitTest11TestDetailsC1ERKS0_i
 7162      00
 7163              	.LEHE192:
 7164              		.loc 5 290 0 is_stmt 0 discriminator 2
 7165 372e C785ECF6 		movl	$1234, -2324(%rbp)
 7165      FFFFD204 
 7165      0000
 7166              	.LEHB193:
 7167 3738 E8000000 		call	_ZN8UnitTest11CurrentTest7ResultsEv
 7167      00
 7168 373d 488B00   		movq	(%rax), %rax
 7169 3740 488D9530 		leaq	-2256(%rbp), %rdx
 7169      F7FFFF
 7170 3747 488D8DB0 		leaq	-2128(%rbp), %rcx
 7170      F7FFFF
 7171 374e 488DB910 		leaq	784(%rcx), %rdi
 7171      030000
 7172 3755 488DB5EC 		leaq	-2324(%rbp), %rsi
 7172      F6FFFF
 7173 375c 4889D1   		movq	%rdx, %rcx
 7174 375f 4889FA   		movq	%rdi, %rdx
 7175 3762 4889C7   		movq	%rax, %rdi
 7176 3765 E8000000 		call	_ZN8UnitTest10CheckEqualIiiEEvRNS_11TestResultsERKT_RKT0_RKNS_11TestDetailsE
 7176      00
 7177              	.LEHE193:
 7178              	.L345:
 275:TestChecks.cpp ****     TestResults results(&reporter);
 7179              		.loc 5 275 0 is_stmt 1
 7180 376a 488D85B0 		leaq	-2128(%rbp), %rax
 7180      F7FFFF
 7181 3771 4889C7   		movq	%rax, %rdi
 7182              	.LEHB194:
 7183 3774 E8000000 		call	_ZN17RecordingReporterD1Ev
 7183      00
 7184              	.LEHE194:
 291:TestChecks.cpp **** }
 7185              		.loc 5 291 0
 7186 3779 90       		nop
 7187 377a 488B45E8 		movq	-24(%rbp), %rax
 7188 377e 64483304 		xorq	%fs:40, %rax
 7188      25280000 
 7188      00
 7189 3787 0F849701 		je	.L347
 7189      0000
 7190 378d E98D0100 		jmp	.L358
 7190      00
 7191              	.L349:
 287:TestChecks.cpp ****     CHECK_EQUAL("array2DCloseSuite", reporter.lastFailedSuite);
 7192              		.loc 5 287 0
 7193 3792 4889C7   		movq	%rax, %rdi
 7194 3795 E8000000 		call	__cxa_begin_catch
 7194      00
 7195              	.LEHB195:
 7196 379a E8000000 		call	_ZN8UnitTest11CurrentTest7DetailsEv
 7196      00
 7197 379f 488B08   		movq	(%rax), %rcx
 7198 37a2 488D8530 		leaq	-2256(%rbp), %rax
 7198      F7FFFF
 7199 37a9 BA1F0100 		movl	$287, %edx
 7199      00
 7200 37ae 4889CE   		movq	%rcx, %rsi
 7201 37b1 4889C7   		movq	%rax, %rdi
 7202 37b4 E8000000 		call	_ZN8UnitTest11TestDetailsC1ERKS0_i
 7202      00
 287:TestChecks.cpp ****     CHECK_EQUAL("array2DCloseSuite", reporter.lastFailedSuite);
 7203              		.loc 5 287 0 is_stmt 0 discriminator 10
 7204 37b9 E8000000 		call	_ZN8UnitTest11CurrentTest7ResultsEv
 7204      00
 7205 37be 488B00   		movq	(%rax), %rax
 7206 37c1 488D8D30 		leaq	-2256(%rbp), %rcx
 7206      F7FFFF
 7207 37c8 BA000000 		movl	$.LC93, %edx
 7207      00
 7208 37cd 4889CE   		movq	%rcx, %rsi
 7209 37d0 4889C7   		movq	%rax, %rdi
 7210 37d3 E8000000 		call	_ZN8UnitTest11TestResults13OnTestFailureERKNS_11TestDetailsEPKc
 7210      00
 7211              	.LEHE195:
 7212              	.LEHB196:
 287:TestChecks.cpp ****     CHECK_EQUAL("array2DCloseSuite", reporter.lastFailedSuite);
 7213              		.loc 5 287 0 discriminator 14
 7214 37d8 E8000000 		call	__cxa_end_catch
 7214      00
 7215              	.LEHE196:
 287:TestChecks.cpp ****     CHECK_EQUAL("array2DCloseSuite", reporter.lastFailedSuite);
 7216              		.loc 5 287 0
 7217 37dd E98FFEFF 		jmp	.L334
 7217      FF
 7218              	.L350:
 7219 37e2 4889C3   		movq	%rax, %rbx
 7220 37e5 E8000000 		call	__cxa_end_catch
 7220      00
 7221 37ea E9160100 		jmp	.L336
 7221      00
 7222              	.L351:
 288:TestChecks.cpp ****     CHECK_EQUAL("file", reporter.lastFailedFile);
 7223              		.loc 5 288 0 is_stmt 1
 7224 37ef 4889C7   		movq	%rax, %rdi
 7225 37f2 E8000000 		call	__cxa_begin_catch
 7225      00
 7226              	.LEHB197:
 7227 37f7 E8000000 		call	_ZN8UnitTest11CurrentTest7DetailsEv
 7227      00
 7228 37fc 488B08   		movq	(%rax), %rcx
 7229 37ff 488D8530 		leaq	-2256(%rbp), %rax
 7229      F7FFFF
 7230 3806 BA200100 		movl	$288, %edx
 7230      00
 7231 380b 4889CE   		movq	%rcx, %rsi
 7232 380e 4889C7   		movq	%rax, %rdi
 7233 3811 E8000000 		call	_ZN8UnitTest11TestDetailsC1ERKS0_i
 7233      00
 288:TestChecks.cpp ****     CHECK_EQUAL("file", reporter.lastFailedFile);
 7234              		.loc 5 288 0 is_stmt 0 discriminator 10
 7235 3816 E8000000 		call	_ZN8UnitTest11CurrentTest7ResultsEv
 7235      00
 7236 381b 488B00   		movq	(%rax), %rax
 7237 381e 488D8D30 		leaq	-2256(%rbp), %rcx
 7237      F7FFFF
 7238 3825 BA000000 		movl	$.LC94, %edx
 7238      00
 7239 382a 4889CE   		movq	%rcx, %rsi
 7240 382d 4889C7   		movq	%rax, %rdi
 7241 3830 E8000000 		call	_ZN8UnitTest11TestResults13OnTestFailureERKNS_11TestDetailsEPKc
 7241      00
 7242              	.LEHE197:
 7243              	.LEHB198:
 288:TestChecks.cpp ****     CHECK_EQUAL("file", reporter.lastFailedFile);
 7244              		.loc 5 288 0 discriminator 14
 7245 3835 E8000000 		call	__cxa_end_catch
 7245      00
 7246              	.LEHE198:
 288:TestChecks.cpp ****     CHECK_EQUAL("file", reporter.lastFailedFile);
 7247              		.loc 5 288 0
 7248 383a E981FEFF 		jmp	.L338
 7248      FF
 7249              	.L352:
 7250 383f 4889C3   		movq	%rax, %rbx
 7251 3842 E8000000 		call	__cxa_end_catch
 7251      00
 7252 3847 E9B90000 		jmp	.L336
 7252      00
 7253              	.L353:
 289:TestChecks.cpp ****     CHECK_EQUAL(1234, reporter.lastFailedLine);
 7254              		.loc 5 289 0 is_stmt 1
 7255 384c 4889C7   		movq	%rax, %rdi
 7256 384f E8000000 		call	__cxa_begin_catch
 7256      00
 7257              	.LEHB199:
 7258 3854 E8000000 		call	_ZN8UnitTest11CurrentTest7DetailsEv
 7258      00
 7259 3859 488B08   		movq	(%rax), %rcx
 7260 385c 488D8530 		leaq	-2256(%rbp), %rax
 7260      F7FFFF
 7261 3863 BA210100 		movl	$289, %edx
 7261      00
 7262 3868 4889CE   		movq	%rcx, %rsi
 7263 386b 4889C7   		movq	%rax, %rdi
 7264 386e E8000000 		call	_ZN8UnitTest11TestDetailsC1ERKS0_i
 7264      00
 289:TestChecks.cpp ****     CHECK_EQUAL(1234, reporter.lastFailedLine);
 7265              		.loc 5 289 0 is_stmt 0 discriminator 10
 7266 3873 E8000000 		call	_ZN8UnitTest11CurrentTest7ResultsEv
 7266      00
 7267 3878 488B00   		movq	(%rax), %rax
 7268 387b 488D8D30 		leaq	-2256(%rbp), %rcx
 7268      F7FFFF
 7269 3882 BA000000 		movl	$.LC75, %edx
 7269      00
 7270 3887 4889CE   		movq	%rcx, %rsi
 7271 388a 4889C7   		movq	%rax, %rdi
 7272 388d E8000000 		call	_ZN8UnitTest11TestResults13OnTestFailureERKNS_11TestDetailsEPKc
 7272      00
 7273              	.LEHE199:
 7274              	.LEHB200:
 289:TestChecks.cpp ****     CHECK_EQUAL(1234, reporter.lastFailedLine);
 7275              		.loc 5 289 0 discriminator 14
 7276 3892 E8000000 		call	__cxa_end_catch
 7276      00
 7277              	.LEHE200:
 289:TestChecks.cpp ****     CHECK_EQUAL(1234, reporter.lastFailedLine);
 7278              		.loc 5 289 0
 7279 3897 E973FEFF 		jmp	.L341
 7279      FF
 7280              	.L354:
 7281 389c 4889C3   		movq	%rax, %rbx
 7282 389f E8000000 		call	__cxa_end_catch
 7282      00
 7283 38a4 EB5F     		jmp	.L336
 7284              	.L356:
 7285 38a6 EB00     		jmp	.L344
 7286              	.L355:
 7287              	.L344:
 290:TestChecks.cpp **** }
 7288              		.loc 5 290 0 is_stmt 1
 7289 38a8 4889C7   		movq	%rax, %rdi
 7290 38ab E8000000 		call	__cxa_begin_catch
 7290      00
 7291              	.LEHB201:
 7292 38b0 E8000000 		call	_ZN8UnitTest11CurrentTest7DetailsEv
 7292      00
 7293 38b5 488B08   		movq	(%rax), %rcx
 7294 38b8 488D8530 		leaq	-2256(%rbp), %rax
 7294      F7FFFF
 7295 38bf BA220100 		movl	$290, %edx
 7295      00
 7296 38c4 4889CE   		movq	%rcx, %rsi
 7297 38c7 4889C7   		movq	%rax, %rdi
 7298 38ca E8000000 		call	_ZN8UnitTest11TestDetailsC1ERKS0_i
 7298      00
 290:TestChecks.cpp **** }
 7299              		.loc 5 290 0 is_stmt 0 discriminator 10
 7300 38cf E8000000 		call	_ZN8UnitTest11CurrentTest7ResultsEv
 7300      00
 7301 38d4 488B00   		movq	(%rax), %rax
 7302 38d7 488D8D30 		leaq	-2256(%rbp), %rcx
 7302      F7FFFF
 7303 38de BA000000 		movl	$.LC95, %edx
 7303      00
 7304 38e3 4889CE   		movq	%rcx, %rsi
 7305 38e6 4889C7   		movq	%rax, %rdi
 7306 38e9 E8000000 		call	_ZN8UnitTest11TestResults13OnTestFailureERKNS_11TestDetailsEPKc
 7306      00
 7307              	.LEHE201:
 7308              	.LEHB202:
 290:TestChecks.cpp **** }
 7309              		.loc 5 290 0 discriminator 14
 7310 38ee E8000000 		call	__cxa_end_catch
 7310      00
 7311              	.LEHE202:
 290:TestChecks.cpp **** }
 7312              		.loc 5 290 0
 7313 38f3 E972FEFF 		jmp	.L345
 7313      FF
 7314              	.L357:
 7315 38f8 4889C3   		movq	%rax, %rbx
 7316 38fb E8000000 		call	__cxa_end_catch
 7316      00
 7317 3900 EB03     		jmp	.L336
 7318              	.L348:
 7319 3902 4889C3   		movq	%rax, %rbx
 7320              	.L336:
 275:TestChecks.cpp ****     TestResults results(&reporter);
 7321              		.loc 5 275 0 is_stmt 1
 7322 3905 488D85B0 		leaq	-2128(%rbp), %rax
 7322      F7FFFF
 7323 390c 4889C7   		movq	%rax, %rdi
 7324 390f E8000000 		call	_ZN17RecordingReporterD1Ev
 7324      00
 7325 3914 4889D8   		movq	%rbx, %rax
 7326 3917 4889C7   		movq	%rax, %rdi
 7327              	.LEHB203:
 7328 391a E8000000 		call	_Unwind_Resume
 7328      00
 7329              	.LEHE203:
 7330              	.L358:
 7331              		.loc 5 291 0
 7332 391f E8000000 		call	__stack_chk_fail
 7332      00
 7333              	.L347:
 7334 3924 488B5DF8 		movq	-8(%rbp), %rbx
 7335 3928 C9       		leave
 7336              		.cfi_def_cfa 7, 8
 7337 3929 C3       		ret
 7338              		.cfi_endproc
 7339              	.LFE1182:
 7340              		.section	.gcc_except_table
 7341              		.align 4
 7342              	.LLSDA1182:
 7343 0550 FF       		.byte	0xff
 7344 0551 03       		.byte	0x3
 7345 0552 69       		.uleb128 .LLSDATT1182-.LLSDATTD1182
 7346              	.LLSDATTD1182:
 7347 0553 01       		.byte	0x1
 7348 0554 5E       		.uleb128 .LLSDACSE1182-.LLSDACSB1182
 7349              	.LLSDACSB1182:
 7350 0555 45       		.uleb128 .LEHB188-.LFB1182
 7351 0556 9703     		.uleb128 .LEHE188-.LEHB188
 7352 0558 C009     		.uleb128 .L348-.LFB1182
 7353 055a 00       		.uleb128 0
 7354 055b E003     		.uleb128 .LEHB189-.LFB1182
 7355 055d 4F       		.uleb128 .LEHE189-.LEHB189
 7356 055e D006     		.uleb128 .L349-.LFB1182
 7357 0560 01       		.uleb128 0x1
 7358 0561 AF04     		.uleb128 .LEHB190-.LFB1182
 7359 0563 4F       		.uleb128 .LEHE190-.LEHB190
 7360 0564 AD07     		.uleb128 .L351-.LFB1182
 7361 0566 01       		.uleb128 0x1
 7362 0567 FE04     		.uleb128 .LEHB191-.LFB1182
 7363 0569 4F       		.uleb128 .LEHE191-.LEHB191
 7364 056a 8A08     		.uleb128 .L353-.LFB1182
 7365 056c 01       		.uleb128 0x1
 7366 056d CD05     		.uleb128 .LEHB192-.LFB1182
 7367 056f 1F       		.uleb128 .LEHE192-.LEHB192
 7368 0570 E608     		.uleb128 .L355-.LFB1182
 7369 0572 01       		.uleb128 0x1
 7370 0573 F605     		.uleb128 .LEHB193-.LFB1182
 7371 0575 32       		.uleb128 .LEHE193-.LEHB193
 7372 0576 E408     		.uleb128 .L356-.LFB1182
 7373 0578 01       		.uleb128 0x1
 7374 0579 B206     		.uleb128 .LEHB194-.LFB1182
 7375 057b 05       		.uleb128 .LEHE194-.LEHB194
 7376 057c 00       		.uleb128 0
 7377 057d 00       		.uleb128 0
 7378 057e D806     		.uleb128 .LEHB195-.LFB1182
 7379 0580 3E       		.uleb128 .LEHE195-.LEHB195
 7380 0581 A007     		.uleb128 .L350-.LFB1182
 7381 0583 00       		.uleb128 0
 7382 0584 9607     		.uleb128 .LEHB196-.LFB1182
 7383 0586 05       		.uleb128 .LEHE196-.LEHB196
 7384 0587 C009     		.uleb128 .L348-.LFB1182
 7385 0589 00       		.uleb128 0
 7386 058a B507     		.uleb128 .LEHB197-.LFB1182
 7387 058c 3E       		.uleb128 .LEHE197-.LEHB197
 7388 058d FD07     		.uleb128 .L352-.LFB1182
 7389 058f 00       		.uleb128 0
 7390 0590 F307     		.uleb128 .LEHB198-.LFB1182
 7391 0592 05       		.uleb128 .LEHE198-.LEHB198
 7392 0593 C009     		.uleb128 .L348-.LFB1182
 7393 0595 00       		.uleb128 0
 7394 0596 9208     		.uleb128 .LEHB199-.LFB1182
 7395 0598 3E       		.uleb128 .LEHE199-.LEHB199
 7396 0599 DA08     		.uleb128 .L354-.LFB1182
 7397 059b 00       		.uleb128 0
 7398 059c D008     		.uleb128 .LEHB200-.LFB1182
 7399 059e 05       		.uleb128 .LEHE200-.LEHB200
 7400 059f C009     		.uleb128 .L348-.LFB1182
 7401 05a1 00       		.uleb128 0
 7402 05a2 EE08     		.uleb128 .LEHB201-.LFB1182
 7403 05a4 3E       		.uleb128 .LEHE201-.LEHB201
 7404 05a5 B609     		.uleb128 .L357-.LFB1182
 7405 05a7 00       		.uleb128 0
 7406 05a8 AC09     		.uleb128 .LEHB202-.LFB1182
 7407 05aa 05       		.uleb128 .LEHE202-.LEHB202
 7408 05ab C009     		.uleb128 .L348-.LFB1182
 7409 05ad 00       		.uleb128 0
 7410 05ae D809     		.uleb128 .LEHB203-.LFB1182
 7411 05b0 05       		.uleb128 .LEHE203-.LEHB203
 7412 05b1 00       		.uleb128 0
 7413 05b2 00       		.uleb128 0
 7414              	.LLSDACSE1182:
 7415 05b3 01       		.byte	0x1
 7416 05b4 00       		.byte	0
 7417 05b5 000000   		.align 4
 7418 05b8 00000000 		.long	0
 7419              	
 7420              	.LLSDATT1182:
 7421              		.text
 7423              		.section	.text._ZN8UnitTest15MemoryOutStreamD1Ev,"axG",@progbits,_ZN8UnitTest15MemoryOutStreamD1Ev
 7424              		.align 2
 7425              		.weak	_ZN8UnitTest15MemoryOutStreamD1Ev
 7427              	_ZN8UnitTest15MemoryOutStreamD1Ev:
 7428              	.LFB1213:
  13:../MemoryOutStream.h **** {
 7429              		.loc 2 13 0
 7430              		.cfi_startproc
 7431              		.cfi_personality 0x3,__gxx_personality_v0
 7432              		.cfi_lsda 0x3,.LLSDA1213
 7433 0000 55       		pushq	%rbp
 7434              		.cfi_def_cfa_offset 16
 7435              		.cfi_offset 6, -16
 7436 0001 4889E5   		movq	%rsp, %rbp
 7437              		.cfi_def_cfa_register 6
 7438 0004 53       		pushq	%rbx
 7439 0005 4883EC18 		subq	$24, %rsp
 7440              		.cfi_offset 3, -24
 7441 0009 48897DE8 		movq	%rdi, -24(%rbp)
 7442              	.LBB32:
  13:../MemoryOutStream.h **** {
 7443              		.loc 2 13 0
 7444 000d BA000000 		movl	$_ZTVN8UnitTest15MemoryOutStreamE+24, %edx
 7444      00
 7445 0012 488B45E8 		movq	-24(%rbp), %rax
 7446 0016 488910   		movq	%rdx, (%rax)
 7447 0019 BA900000 		movl	$144, %edx
 7447      00
 7448 001e 488B45E8 		movq	-24(%rbp), %rax
 7449 0022 4801D0   		addq	%rdx, %rax
 7450 0025 BA000000 		movl	$_ZTVN8UnitTest15MemoryOutStreamE+64, %edx
 7450      00
 7451 002a 488910   		movq	%rdx, (%rax)
 7452 002d 488B45E8 		movq	-24(%rbp), %rax
 7453 0031 4883C070 		addq	$112, %rax
 7454 0035 4889C7   		movq	%rax, %rdi
 7455              	.LEHB204:
 7456 0038 E8000000 		call	_ZNSt7__cxx1112basic_stringIcSt11char_traitsIcESaIcEED1Ev
 7456      00
 7457              	.LEHE204:
  13:../MemoryOutStream.h **** {
 7458              		.loc 2 13 0 is_stmt 0 discriminator 14
 7459 003d BA000000 		movl	$_ZTTN8UnitTest15MemoryOutStreamE+8, %edx
 7459      00
 7460 0042 488B45E8 		movq	-24(%rbp), %rax
 7461 0046 4889D6   		movq	%rdx, %rsi
 7462 0049 4889C7   		movq	%rax, %rdi
 7463              	.LEHB205:
 7464 004c E8000000 		call	_ZNSt7__cxx1119basic_ostringstreamIcSt11char_traitsIcESaIcEED2Ev
 7464      00
 7465              	.LEHE205:
  13:../MemoryOutStream.h **** {
 7466              		.loc 2 13 0 discriminator 20
 7467 0051 B8020000 		movl	$2, %eax
 7467      00
 7468 0056 85C0     		testl	%eax, %eax
 7469 0058 7412     		je	.L360
  13:../MemoryOutStream.h **** {
 7470              		.loc 2 13 0 discriminator 21
 7471 005a 488B45E8 		movq	-24(%rbp), %rax
 7472 005e 48059000 		addq	$144, %rax
 7472      0000
 7473 0064 4889C7   		movq	%rax, %rdi
 7474              	.LEHB206:
 7475 0067 E8000000 		call	_ZNSt9basic_iosIcSt11char_traitsIcEED2Ev
 7475      00
 7476              	.LEHE206:
 7477              	.L360:
 7478              	.LBE32:
  13:../MemoryOutStream.h **** {
 7479              		.loc 2 13 0 discriminator 22
 7480 006c B8000000 		movl	$0, %eax
 7480      00
 7481 0071 85C0     		testl	%eax, %eax
 7482 0073 7450     		je	.L359
  13:../MemoryOutStream.h **** {
 7483              		.loc 2 13 0 discriminator 25
 7484 0075 488B45E8 		movq	-24(%rbp), %rax
 7485 0079 4889C7   		movq	%rax, %rdi
 7486 007c E8000000 		call	_ZdlPv
 7486      00
 7487 0081 EB42     		jmp	.L359
 7488              	.L365:
 7489 0083 4889C3   		movq	%rax, %rbx
 7490              	.LBB33:
  13:../MemoryOutStream.h **** {
 7491              		.loc 2 13 0
 7492 0086 BA000000 		movl	$_ZTTN8UnitTest15MemoryOutStreamE+8, %edx
 7492      00
 7493 008b 488B45E8 		movq	-24(%rbp), %rax
 7494 008f 4889D6   		movq	%rdx, %rsi
 7495 0092 4889C7   		movq	%rax, %rdi
 7496 0095 E8000000 		call	_ZNSt7__cxx1119basic_ostringstreamIcSt11char_traitsIcESaIcEED2Ev
 7496      00
 7497 009a EB03     		jmp	.L363
 7498              	.L366:
 7499 009c 4889C3   		movq	%rax, %rbx
 7500              	.L363:
  13:../MemoryOutStream.h **** {
 7501              		.loc 2 13 0 discriminator 19
 7502 009f B8020000 		movl	$2, %eax
 7502      00
 7503 00a4 85C0     		testl	%eax, %eax
 7504 00a6 7412     		je	.L364
  13:../MemoryOutStream.h **** {
 7505              		.loc 2 13 0 discriminator 32
 7506 00a8 488B45E8 		movq	-24(%rbp), %rax
 7507 00ac 48059000 		addq	$144, %rax
 7507      0000
 7508 00b2 4889C7   		movq	%rax, %rdi
 7509 00b5 E8000000 		call	_ZNSt9basic_iosIcSt11char_traitsIcEED2Ev
 7509      00
 7510              	.L364:
 7511 00ba 4889D8   		movq	%rbx, %rax
 7512 00bd 4889C7   		movq	%rax, %rdi
 7513              	.LEHB207:
 7514 00c0 E8000000 		call	_Unwind_Resume
 7514      00
 7515              	.LEHE207:
 7516              	.L359:
 7517              	.LBE33:
  13:../MemoryOutStream.h **** {
 7518              		.loc 2 13 0
 7519 00c5 4883C418 		addq	$24, %rsp
 7520 00c9 5B       		popq	%rbx
 7521 00ca 5D       		popq	%rbp
 7522              		.cfi_def_cfa 7, 8
 7523 00cb C3       		ret
 7524              		.cfi_endproc
 7525              	.LFE1213:
 7526              		.section	.gcc_except_table
 7527              	.LLSDA1213:
 7528 05bc FF       		.byte	0xff
 7529 05bd FF       		.byte	0xff
 7530 05be 01       		.byte	0x1
 7531 05bf 13       		.uleb128 .LLSDACSE1213-.LLSDACSB1213
 7532              	.LLSDACSB1213:
 7533 05c0 38       		.uleb128 .LEHB204-.LFB1213
 7534 05c1 05       		.uleb128 .LEHE204-.LEHB204
 7535 05c2 8301     		.uleb128 .L365-.LFB1213
 7536 05c4 00       		.uleb128 0
 7537 05c5 4C       		.uleb128 .LEHB205-.LFB1213
 7538 05c6 05       		.uleb128 .LEHE205-.LEHB205
 7539 05c7 9C01     		.uleb128 .L366-.LFB1213
 7540 05c9 00       		.uleb128 0
 7541 05ca 67       		.uleb128 .LEHB206-.LFB1213
 7542 05cb 05       		.uleb128 .LEHE206-.LEHB206
 7543 05cc 00       		.uleb128 0
 7544 05cd 00       		.uleb128 0
 7545 05ce C001     		.uleb128 .LEHB207-.LFB1213
 7546 05d0 05       		.uleb128 .LEHE207-.LEHB207
 7547 05d1 00       		.uleb128 0
 7548 05d2 00       		.uleb128 0
 7549              	.LLSDACSE1213:
 7550              		.section	.text._ZN8UnitTest15MemoryOutStreamD1Ev,"axG",@progbits,_ZN8UnitTest15MemoryOutStreamD1Ev
 7552              		.set	.LTHUNK0,_ZN8UnitTest15MemoryOutStreamD1Ev
 7553              		.weak	_ZTv0_n24_N8UnitTest15MemoryOutStreamD1Ev
 7555              	_ZTv0_n24_N8UnitTest15MemoryOutStreamD1Ev:
 7556              	.LFB1394:
  13:../MemoryOutStream.h **** {
 7557              		.loc 2 13 0 is_stmt 1
 7558              		.cfi_startproc
 7559 00cc 4C8B17   		movq	(%rdi), %r10
 7560 00cf 49037AE8 		addq	-24(%r10), %rdi
 7561 00d3 E928FFFF 		jmp	.LTHUNK0
 7561      FF
 7562              		.cfi_endproc
 7563              	.LFE1394:
 7565              		.section	.text._ZN8UnitTest15MemoryOutStreamD0Ev,"axG",@progbits,_ZN8UnitTest15MemoryOutStreamD0Ev
 7566              		.align 2
 7567              		.weak	_ZN8UnitTest15MemoryOutStreamD0Ev
 7569              	_ZN8UnitTest15MemoryOutStreamD0Ev:
 7570              	.LFB1214:
  13:../MemoryOutStream.h **** {
 7571              		.loc 2 13 0
 7572              		.cfi_startproc
 7573 0000 55       		pushq	%rbp
 7574              		.cfi_def_cfa_offset 16
 7575              		.cfi_offset 6, -16
 7576 0001 4889E5   		movq	%rsp, %rbp
 7577              		.cfi_def_cfa_register 6
 7578 0004 4883EC10 		subq	$16, %rsp
 7579 0008 48897DF8 		movq	%rdi, -8(%rbp)
  13:../MemoryOutStream.h **** {
 7580              		.loc 2 13 0
 7581 000c 488B45F8 		movq	-8(%rbp), %rax
 7582 0010 4889C7   		movq	%rax, %rdi
 7583 0013 E8000000 		call	_ZN8UnitTest15MemoryOutStreamD1Ev
 7583      00
 7584 0018 488B45F8 		movq	-8(%rbp), %rax
 7585 001c 4889C7   		movq	%rax, %rdi
 7586 001f E8000000 		call	_ZdlPv
 7586      00
 7587 0024 C9       		leave
 7588              		.cfi_def_cfa 7, 8
 7589 0025 C3       		ret
 7590              		.cfi_endproc
 7591              	.LFE1214:
 7593              		.set	.LTHUNK1,_ZN8UnitTest15MemoryOutStreamD0Ev
 7594              		.weak	_ZTv0_n24_N8UnitTest15MemoryOutStreamD0Ev
 7596              	_ZTv0_n24_N8UnitTest15MemoryOutStreamD0Ev:
 7597              	.LFB1395:
  13:../MemoryOutStream.h **** {
 7598              		.loc 2 13 0
 7599              		.cfi_startproc
 7600 0026 4C8B17   		movq	(%rdi), %r10
 7601 0029 49037AE8 		addq	-24(%r10), %rdi
 7602 002d EBD1     		jmp	.LTHUNK1
 7603              		.cfi_endproc
 7604              	.LFE1395:
 7606              		.section	.rodata
 7607              	.LC96:
 7608 0baa 45787065 		.string	"Expected "
 7608      63746564 
 7608      2000
 7609              	.LC97:
 7610 0bb4 20627574 		.string	" but was "
 7610      20776173 
 7610      2000
 7611              		.section	.text._ZN8UnitTest10CheckEqualImmEEvRNS_11TestResultsERKT_RKT0_RKNS_11TestDetailsE,"axG",
 7612              		.weak	_ZN8UnitTest10CheckEqualImmEEvRNS_11TestResultsERKT_RKT0_RKNS_11TestDetailsE
 7614              	_ZN8UnitTest10CheckEqualImmEEvRNS_11TestResultsERKT_RKT0_RKNS_11TestDetailsE:
 7615              	.LFB1210:
 7616              		.file 6 "../Checks.h"
   1:../Checks.h   **** #ifndef UNITTEST_CHECKS_H
   2:../Checks.h   **** #define UNITTEST_CHECKS_H
   3:../Checks.h   **** 
   4:../Checks.h   **** #include "Config.h"
   5:../Checks.h   **** #include "TestResults.h"
   6:../Checks.h   **** #include "MemoryOutStream.h"
   7:../Checks.h   **** 
   8:../Checks.h   **** namespace UnitTest {
   9:../Checks.h   **** 
  10:../Checks.h   **** 
  11:../Checks.h   **** template< typename Value >
  12:../Checks.h   **** bool Check(Value const value)
  13:../Checks.h   **** {
  14:../Checks.h   ****     return !!value; // doing double negative to avoid silly VS warnings
  15:../Checks.h   **** }
  16:../Checks.h   **** 
  17:../Checks.h   **** 
  18:../Checks.h   **** template< typename Expected, typename Actual >
  19:../Checks.h   **** void CheckEqual(TestResults& results, Expected const& expected, Actual const& actual, TestDetails c
 7617              		.loc 6 19 0
 7618              		.cfi_startproc
 7619              		.cfi_personality 0x3,__gxx_personality_v0
 7620              		.cfi_lsda 0x3,.LLSDA1210
 7621 0000 55       		pushq	%rbp
 7622              		.cfi_def_cfa_offset 16
 7623              		.cfi_offset 6, -16
 7624 0001 4889E5   		movq	%rsp, %rbp
 7625              		.cfi_def_cfa_register 6
 7626 0004 4154     		pushq	%r12
 7627 0006 53       		pushq	%rbx
 7628 0007 4881ECC0 		subq	$448, %rsp
 7628      010000
 7629              		.cfi_offset 12, -24
 7630              		.cfi_offset 3, -32
 7631 000e 4889BD48 		movq	%rdi, -440(%rbp)
 7631      FEFFFF
 7632 0015 4889B540 		movq	%rsi, -448(%rbp)
 7632      FEFFFF
 7633 001c 48899538 		movq	%rdx, -456(%rbp)
 7633      FEFFFF
 7634 0023 48898D30 		movq	%rcx, -464(%rbp)
 7634      FEFFFF
 7635              		.loc 6 19 0
 7636 002a 64488B04 		movq	%fs:40, %rax
 7636      25280000 
 7636      00
 7637 0033 488945E8 		movq	%rax, -24(%rbp)
 7638 0037 31C0     		xorl	%eax, %eax
 7639              	.LBB34:
  20:../Checks.h   **** {
  21:../Checks.h   ****     if (!(expected == actual))
 7640              		.loc 6 21 0
 7641 0039 488B8540 		movq	-448(%rbp), %rax
 7641      FEFFFF
 7642 0040 488B10   		movq	(%rax), %rdx
 7643 0043 488B8538 		movq	-456(%rbp), %rax
 7643      FEFFFF
 7644 004a 488B00   		movq	(%rax), %rax
 7645 004d 4839C2   		cmpq	%rax, %rdx
 7646 0050 0F84B300 		je	.L373
 7646      0000
 7647              	.LBB35:
  22:../Checks.h   ****     {
  23:../Checks.h   ****         UnitTest::MemoryOutStream stream;
 7648              		.loc 6 23 0
 7649 0056 488D8550 		leaq	-432(%rbp), %rax
 7649      FEFFFF
 7650 005d 4889C7   		movq	%rax, %rdi
 7651              	.LEHB208:
 7652 0060 E8000000 		call	_ZN8UnitTest15MemoryOutStreamC1Ev
 7652      00
 7653              	.LEHE208:
  24:../Checks.h   ****         stream << "Expected " << expected << " but was " << actual;
 7654              		.loc 6 24 0
 7655 0065 488B8538 		movq	-456(%rbp), %rax
 7655      FEFFFF
 7656 006c 488B18   		movq	(%rax), %rbx
 7657 006f 488B8540 		movq	-448(%rbp), %rax
 7657      FEFFFF
 7658 0076 4C8B20   		movq	(%rax), %r12
 7659 0079 488D8550 		leaq	-432(%rbp), %rax
 7659      FEFFFF
 7660 0080 BE000000 		movl	$.LC96, %esi
 7660      00
 7661 0085 4889C7   		movq	%rax, %rdi
 7662              	.LEHB209:
 7663 0088 E8000000 		call	_ZStlsISt11char_traitsIcEERSt13basic_ostreamIcT_ES5_PKc
 7663      00
 7664 008d 4C89E6   		movq	%r12, %rsi
 7665 0090 4889C7   		movq	%rax, %rdi
 7666 0093 E8000000 		call	_ZNSolsEm
 7666      00
 7667              		.loc 6 24 0 is_stmt 0 discriminator 1
 7668 0098 BE000000 		movl	$.LC97, %esi
 7668      00
 7669 009d 4889C7   		movq	%rax, %rdi
 7670 00a0 E8000000 		call	_ZStlsISt11char_traitsIcEERSt13basic_ostreamIcT_ES5_PKc
 7670      00
 7671              		.loc 6 24 0 discriminator 2
 7672 00a5 4889DE   		movq	%rbx, %rsi
 7673 00a8 4889C7   		movq	%rax, %rdi
 7674 00ab E8000000 		call	_ZNSolsEm
 7674      00
  25:../Checks.h   **** 
  26:../Checks.h   ****         results.OnTestFailure(details, stream.GetText());
 7675              		.loc 6 26 0 is_stmt 1
 7676 00b0 488D8550 		leaq	-432(%rbp), %rax
 7676      FEFFFF
 7677 00b7 4889C7   		movq	%rax, %rdi
 7678 00ba E8000000 		call	_ZNK8UnitTest15MemoryOutStream7GetTextEv
 7678      00
 7679 00bf 4889C2   		movq	%rax, %rdx
 7680 00c2 488B8D30 		movq	-464(%rbp), %rcx
 7680      FEFFFF
 7681 00c9 488B8548 		movq	-440(%rbp), %rax
 7681      FEFFFF
 7682 00d0 4889CE   		movq	%rcx, %rsi
 7683 00d3 4889C7   		movq	%rax, %rdi
 7684 00d6 E8000000 		call	_ZN8UnitTest11TestResults13OnTestFailureERKNS_11TestDetailsEPKc
 7684      00
 7685              	.LEHE209:
  23:../Checks.h   ****         stream << "Expected " << expected << " but was " << actual;
 7686              		.loc 6 23 0
 7687 00db 488D8550 		leaq	-432(%rbp), %rax
 7687      FEFFFF
 7688 00e2 4889C7   		movq	%rax, %rdi
 7689              	.LEHB210:
 7690 00e5 E8000000 		call	_ZN8UnitTest15MemoryOutStreamD1Ev
 7690      00
 7691              	.LEHE210:
 7692              	.LBE35:
 7693              	.LBE34:
  27:../Checks.h   ****     }
  28:../Checks.h   **** }
 7694              		.loc 6 28 0
 7695 00ea EB1D     		jmp	.L373
 7696              	.L372:
 7697 00ec 4889C3   		movq	%rax, %rbx
 7698              	.LBB37:
 7699              	.LBB36:
  23:../Checks.h   ****         stream << "Expected " << expected << " but was " << actual;
 7700              		.loc 6 23 0
 7701 00ef 488D8550 		leaq	-432(%rbp), %rax
 7701      FEFFFF
 7702 00f6 4889C7   		movq	%rax, %rdi
 7703 00f9 E8000000 		call	_ZN8UnitTest15MemoryOutStreamD1Ev
 7703      00
 7704 00fe 4889D8   		movq	%rbx, %rax
 7705 0101 4889C7   		movq	%rax, %rdi
 7706              	.LEHB211:
 7707 0104 E8000000 		call	_Unwind_Resume
 7707      00
 7708              	.LEHE211:
 7709              	.L373:
 7710              	.LBE36:
 7711              	.LBE37:
 7712              		.loc 6 28 0
 7713 0109 90       		nop
 7714 010a 488B45E8 		movq	-24(%rbp), %rax
 7715 010e 64483304 		xorq	%fs:40, %rax
 7715      25280000 
 7715      00
 7716 0117 7405     		je	.L371
 7717 0119 E8000000 		call	__stack_chk_fail
 7717      00
 7718              	.L371:
 7719 011e 4881C4C0 		addq	$448, %rsp
 7719      010000
 7720 0125 5B       		popq	%rbx
 7721 0126 415C     		popq	%r12
 7722 0128 5D       		popq	%rbp
 7723              		.cfi_def_cfa 7, 8
 7724 0129 C3       		ret
 7725              		.cfi_endproc
 7726              	.LFE1210:
 7727              		.section	.gcc_except_table
 7728              	.LLSDA1210:
 7729 05d3 FF       		.byte	0xff
 7730 05d4 FF       		.byte	0xff
 7731 05d5 01       		.byte	0x1
 7732 05d6 14       		.uleb128 .LLSDACSE1210-.LLSDACSB1210
 7733              	.LLSDACSB1210:
 7734 05d7 60       		.uleb128 .LEHB208-.LFB1210
 7735 05d8 05       		.uleb128 .LEHE208-.LEHB208
 7736 05d9 00       		.uleb128 0
 7737 05da 00       		.uleb128 0
 7738 05db 8801     		.uleb128 .LEHB209-.LFB1210
 7739 05dd 53       		.uleb128 .LEHE209-.LEHB209
 7740 05de EC01     		.uleb128 .L372-.LFB1210
 7741 05e0 00       		.uleb128 0
 7742 05e1 E501     		.uleb128 .LEHB210-.LFB1210
 7743 05e3 05       		.uleb128 .LEHE210-.LEHB210
 7744 05e4 00       		.uleb128 0
 7745 05e5 00       		.uleb128 0
 7746 05e6 8402     		.uleb128 .LEHB211-.LFB1210
 7747 05e8 05       		.uleb128 .LEHE211-.LEHB211
 7748 05e9 00       		.uleb128 0
 7749 05ea 00       		.uleb128 0
 7750              	.LLSDACSE1210:
 7751              		.section	.text._ZN8UnitTest10CheckEqualImmEEvRNS_11TestResultsERKT_RKT0_RKNS_11TestDetailsE,"axG",
 7753              		.section	.text._ZN8UnitTest10CheckEqualIiiEEvRNS_11TestResultsERKT_RKT0_RKNS_11TestDetailsE,"axG",
 7754              		.weak	_ZN8UnitTest10CheckEqualIiiEEvRNS_11TestResultsERKT_RKT0_RKNS_11TestDetailsE
 7756              	_ZN8UnitTest10CheckEqualIiiEEvRNS_11TestResultsERKT_RKT0_RKNS_11TestDetailsE:
 7757              	.LFB1215:
  19:../Checks.h   **** {
 7758              		.loc 6 19 0
 7759              		.cfi_startproc
 7760              		.cfi_personality 0x3,__gxx_personality_v0
 7761              		.cfi_lsda 0x3,.LLSDA1215
 7762 0000 55       		pushq	%rbp
 7763              		.cfi_def_cfa_offset 16
 7764              		.cfi_offset 6, -16
 7765 0001 4889E5   		movq	%rsp, %rbp
 7766              		.cfi_def_cfa_register 6
 7767 0004 4154     		pushq	%r12
 7768 0006 53       		pushq	%rbx
 7769 0007 4881ECC0 		subq	$448, %rsp
 7769      010000
 7770              		.cfi_offset 12, -24
 7771              		.cfi_offset 3, -32
 7772 000e 4889BD48 		movq	%rdi, -440(%rbp)
 7772      FEFFFF
 7773 0015 4889B540 		movq	%rsi, -448(%rbp)
 7773      FEFFFF
 7774 001c 48899538 		movq	%rdx, -456(%rbp)
 7774      FEFFFF
 7775 0023 48898D30 		movq	%rcx, -464(%rbp)
 7775      FEFFFF
  19:../Checks.h   **** {
 7776              		.loc 6 19 0
 7777 002a 64488B04 		movq	%fs:40, %rax
 7777      25280000 
 7777      00
 7778 0033 488945E8 		movq	%rax, -24(%rbp)
 7779 0037 31C0     		xorl	%eax, %eax
 7780              	.LBB38:
  21:../Checks.h   ****     {
 7781              		.loc 6 21 0
 7782 0039 488B8540 		movq	-448(%rbp), %rax
 7782      FEFFFF
 7783 0040 8B10     		movl	(%rax), %edx
 7784 0042 488B8538 		movq	-456(%rbp), %rax
 7784      FEFFFF
 7785 0049 8B00     		movl	(%rax), %eax
 7786 004b 39C2     		cmpl	%eax, %edx
 7787 004d 0F84B100 		je	.L379
 7787      0000
 7788              	.LBB39:
  23:../Checks.h   ****         stream << "Expected " << expected << " but was " << actual;
 7789              		.loc 6 23 0
 7790 0053 488D8550 		leaq	-432(%rbp), %rax
 7790      FEFFFF
 7791 005a 4889C7   		movq	%rax, %rdi
 7792              	.LEHB212:
 7793 005d E8000000 		call	_ZN8UnitTest15MemoryOutStreamC1Ev
 7793      00
 7794              	.LEHE212:
  24:../Checks.h   **** 
 7795              		.loc 6 24 0
 7796 0062 488B8538 		movq	-456(%rbp), %rax
 7796      FEFFFF
 7797 0069 8B18     		movl	(%rax), %ebx
 7798 006b 488B8540 		movq	-448(%rbp), %rax
 7798      FEFFFF
 7799 0072 448B20   		movl	(%rax), %r12d
 7800 0075 488D8550 		leaq	-432(%rbp), %rax
 7800      FEFFFF
 7801 007c BE000000 		movl	$.LC96, %esi
 7801      00
 7802 0081 4889C7   		movq	%rax, %rdi
 7803              	.LEHB213:
 7804 0084 E8000000 		call	_ZStlsISt11char_traitsIcEERSt13basic_ostreamIcT_ES5_PKc
 7804      00
 7805 0089 4489E6   		movl	%r12d, %esi
 7806 008c 4889C7   		movq	%rax, %rdi
 7807 008f E8000000 		call	_ZNSolsEi
 7807      00
  24:../Checks.h   **** 
 7808              		.loc 6 24 0 is_stmt 0 discriminator 1
 7809 0094 BE000000 		movl	$.LC97, %esi
 7809      00
 7810 0099 4889C7   		movq	%rax, %rdi
 7811 009c E8000000 		call	_ZStlsISt11char_traitsIcEERSt13basic_ostreamIcT_ES5_PKc
 7811      00
  24:../Checks.h   **** 
 7812              		.loc 6 24 0 discriminator 2
 7813 00a1 89DE     		movl	%ebx, %esi
 7814 00a3 4889C7   		movq	%rax, %rdi
 7815 00a6 E8000000 		call	_ZNSolsEi
 7815      00
  26:../Checks.h   ****     }
 7816              		.loc 6 26 0 is_stmt 1
 7817 00ab 488D8550 		leaq	-432(%rbp), %rax
 7817      FEFFFF
 7818 00b2 4889C7   		movq	%rax, %rdi
 7819 00b5 E8000000 		call	_ZNK8UnitTest15MemoryOutStream7GetTextEv
 7819      00
 7820 00ba 4889C2   		movq	%rax, %rdx
 7821 00bd 488B8D30 		movq	-464(%rbp), %rcx
 7821      FEFFFF
 7822 00c4 488B8548 		movq	-440(%rbp), %rax
 7822      FEFFFF
 7823 00cb 4889CE   		movq	%rcx, %rsi
 7824 00ce 4889C7   		movq	%rax, %rdi
 7825 00d1 E8000000 		call	_ZN8UnitTest11TestResults13OnTestFailureERKNS_11TestDetailsEPKc
 7825      00
 7826              	.LEHE213:
  23:../Checks.h   ****         stream << "Expected " << expected << " but was " << actual;
 7827              		.loc 6 23 0
 7828 00d6 488D8550 		leaq	-432(%rbp), %rax
 7828      FEFFFF
 7829 00dd 4889C7   		movq	%rax, %rdi
 7830              	.LEHB214:
 7831 00e0 E8000000 		call	_ZN8UnitTest15MemoryOutStreamD1Ev
 7831      00
 7832              	.LEHE214:
 7833              	.LBE39:
 7834              	.LBE38:
 7835              		.loc 6 28 0
 7836 00e5 EB1D     		jmp	.L379
 7837              	.L378:
 7838 00e7 4889C3   		movq	%rax, %rbx
 7839              	.LBB41:
 7840              	.LBB40:
  23:../Checks.h   ****         stream << "Expected " << expected << " but was " << actual;
 7841              		.loc 6 23 0
 7842 00ea 488D8550 		leaq	-432(%rbp), %rax
 7842      FEFFFF
 7843 00f1 4889C7   		movq	%rax, %rdi
 7844 00f4 E8000000 		call	_ZN8UnitTest15MemoryOutStreamD1Ev
 7844      00
 7845 00f9 4889D8   		movq	%rbx, %rax
 7846 00fc 4889C7   		movq	%rax, %rdi
 7847              	.LEHB215:
 7848 00ff E8000000 		call	_Unwind_Resume
 7848      00
 7849              	.LEHE215:
 7850              	.L379:
 7851              	.LBE40:
 7852              	.LBE41:
 7853              		.loc 6 28 0
 7854 0104 90       		nop
 7855 0105 488B45E8 		movq	-24(%rbp), %rax
 7856 0109 64483304 		xorq	%fs:40, %rax
 7856      25280000 
 7856      00
 7857 0112 7405     		je	.L377
 7858 0114 E8000000 		call	__stack_chk_fail
 7858      00
 7859              	.L377:
 7860 0119 4881C4C0 		addq	$448, %rsp
 7860      010000
 7861 0120 5B       		popq	%rbx
 7862 0121 415C     		popq	%r12
 7863 0123 5D       		popq	%rbp
 7864              		.cfi_def_cfa 7, 8
 7865 0124 C3       		ret
 7866              		.cfi_endproc
 7867              	.LFE1215:
 7868              		.section	.gcc_except_table
 7869              	.LLSDA1215:
 7870 05eb FF       		.byte	0xff
 7871 05ec FF       		.byte	0xff
 7872 05ed 01       		.byte	0x1
 7873 05ee 14       		.uleb128 .LLSDACSE1215-.LLSDACSB1215
 7874              	.LLSDACSB1215:
 7875 05ef 5D       		.uleb128 .LEHB212-.LFB1215
 7876 05f0 05       		.uleb128 .LEHE212-.LEHB212
 7877 05f1 00       		.uleb128 0
 7878 05f2 00       		.uleb128 0
 7879 05f3 8401     		.uleb128 .LEHB213-.LFB1215
 7880 05f5 52       		.uleb128 .LEHE213-.LEHB213
 7881 05f6 E701     		.uleb128 .L378-.LFB1215
 7882 05f8 00       		.uleb128 0
 7883 05f9 E001     		.uleb128 .LEHB214-.LFB1215
 7884 05fb 05       		.uleb128 .LEHE214-.LEHB214
 7885 05fc 00       		.uleb128 0
 7886 05fd 00       		.uleb128 0
 7887 05fe FF01     		.uleb128 .LEHB215-.LFB1215
 7888 0600 05       		.uleb128 .LEHE215-.LEHB215
 7889 0601 00       		.uleb128 0
 7890 0602 00       		.uleb128 0
 7891              	.LLSDACSE1215:
 7892              		.section	.text._ZN8UnitTest10CheckEqualIiiEEvRNS_11TestResultsERKT_RKT0_RKNS_11TestDetailsE,"axG",
 7894              		.section	.text._ZN8UnitTest5CheckIPcEEbT_,"axG",@progbits,_ZN8UnitTest5CheckIPcEEbT_,comdat
 7895              		.weak	_ZN8UnitTest5CheckIPcEEbT_
 7897              	_ZN8UnitTest5CheckIPcEEbT_:
 7898              	.LFB1216:
  12:../Checks.h   **** {
 7899              		.loc 6 12 0
 7900              		.cfi_startproc
 7901 0000 55       		pushq	%rbp
 7902              		.cfi_def_cfa_offset 16
 7903              		.cfi_offset 6, -16
 7904 0001 4889E5   		movq	%rsp, %rbp
 7905              		.cfi_def_cfa_register 6
 7906 0004 48897DF8 		movq	%rdi, -8(%rbp)
  14:../Checks.h   **** }
 7907              		.loc 6 14 0
 7908 0008 48837DF8 		cmpq	$0, -8(%rbp)
 7908      00
 7909 000d 0F95C0   		setne	%al
  15:../Checks.h   **** 
 7910              		.loc 6 15 0
 7911 0010 5D       		popq	%rbp
 7912              		.cfi_def_cfa 7, 8
 7913 0011 C3       		ret
 7914              		.cfi_endproc
 7915              	.LFE1216:
 7917              		.section	.rodata
 7918              	.LC98:
 7919 0bbe 202B2F2D 		.string	" +/- "
 7919      2000
 7920              		.section	.text._ZN8UnitTest10CheckCloseIfffEEvRNS_11TestResultsERKT_RKT0_RKT1_RKNS_11TestDetailsE,
 7921              		.weak	_ZN8UnitTest10CheckCloseIfffEEvRNS_11TestResultsERKT_RKT0_RKT1_RKNS_11TestDetailsE
 7923              	_ZN8UnitTest10CheckCloseIfffEEvRNS_11TestResultsERKT_RKT0_RKT1_RKNS_11TestDetailsE:
 7924              	.LFB1217:
  29:../Checks.h   **** 
  30:../Checks.h   **** void CheckEqual(TestResults& results, char const* expected, char const* actual, TestDetails const& 
  31:../Checks.h   **** 
  32:../Checks.h   **** void CheckEqual(TestResults& results, char* expected, char* actual, TestDetails const& details);
  33:../Checks.h   **** 
  34:../Checks.h   **** void CheckEqual(TestResults& results, char* expected, char const* actual, TestDetails const& detail
  35:../Checks.h   **** 
  36:../Checks.h   **** void CheckEqual(TestResults& results, char const* expected, char* actual, TestDetails const& detail
  37:../Checks.h   **** 
  38:../Checks.h   **** template< typename Expected, typename Actual, typename Tolerance >
  39:../Checks.h   **** bool AreClose(Expected const& expected, Actual const& actual, Tolerance const& tolerance)
  40:../Checks.h   **** {
  41:../Checks.h   ****     return (actual >= (expected - tolerance)) && (actual <= (expected + tolerance));
  42:../Checks.h   **** }
  43:../Checks.h   **** 
  44:../Checks.h   **** template< typename Expected, typename Actual, typename Tolerance >
  45:../Checks.h   **** void CheckClose(TestResults& results, Expected const& expected, Actual const& actual, Tolerance con
 7925              		.loc 6 45 0
 7926              		.cfi_startproc
 7927              		.cfi_personality 0x3,__gxx_personality_v0
 7928              		.cfi_lsda 0x3,.LLSDA1217
 7929 0000 55       		pushq	%rbp
 7930              		.cfi_def_cfa_offset 16
 7931              		.cfi_offset 6, -16
 7932 0001 4889E5   		movq	%rsp, %rbp
 7933              		.cfi_def_cfa_register 6
 7934 0004 4155     		pushq	%r13
 7935 0006 4154     		pushq	%r12
 7936 0008 53       		pushq	%rbx
 7937 0009 4881ECD8 		subq	$472, %rsp
 7937      010000
 7938              		.cfi_offset 13, -24
 7939              		.cfi_offset 12, -32
 7940              		.cfi_offset 3, -40
 7941 0010 4889BD38 		movq	%rdi, -456(%rbp)
 7941      FEFFFF
 7942 0017 4889B530 		movq	%rsi, -464(%rbp)
 7942      FEFFFF
 7943 001e 48899528 		movq	%rdx, -472(%rbp)
 7943      FEFFFF
 7944 0025 48898D20 		movq	%rcx, -480(%rbp)
 7944      FEFFFF
 7945 002c 4C898518 		movq	%r8, -488(%rbp)
 7945      FEFFFF
 7946              		.loc 6 45 0
 7947 0033 64488B04 		movq	%fs:40, %rax
 7947      25280000 
 7947      00
 7948 003c 488945D8 		movq	%rax, -40(%rbp)
 7949 0040 31C0     		xorl	%eax, %eax
 7950              	.LBB42:
  46:../Checks.h   ****                 TestDetails const& details)
  47:../Checks.h   **** {
  48:../Checks.h   ****     if (!AreClose(expected, actual, tolerance))
 7951              		.loc 6 48 0
 7952 0042 488B9520 		movq	-480(%rbp), %rdx
 7952      FEFFFF
 7953 0049 488B8D28 		movq	-472(%rbp), %rcx
 7953      FEFFFF
 7954 0050 488B8530 		movq	-464(%rbp), %rax
 7954      FEFFFF
 7955 0057 4889CE   		movq	%rcx, %rsi
 7956 005a 4889C7   		movq	%rax, %rdi
 7957 005d E8000000 		call	_ZN8UnitTest8AreCloseIfffEEbRKT_RKT0_RKT1_
 7957      00
 7958 0062 83F001   		xorl	$1, %eax
 7959 0065 84C0     		testb	%al, %al
 7960 0067 0F84F700 		je	.L387
 7960      0000
 7961              	.LBB43:
  49:../Checks.h   ****     { 
  50:../Checks.h   ****         UnitTest::MemoryOutStream stream;
 7962              		.loc 6 50 0
 7963 006d 488D8540 		leaq	-448(%rbp), %rax
 7963      FEFFFF
 7964 0074 4889C7   		movq	%rax, %rdi
 7965              	.LEHB216:
 7966 0077 E8000000 		call	_ZN8UnitTest15MemoryOutStreamC1Ev
 7966      00
 7967              	.LEHE216:
  51:../Checks.h   ****         stream << "Expected " << expected << " +/- " << tolerance << " but was " << actual;
 7968              		.loc 6 51 0
 7969 007c 488B8528 		movq	-472(%rbp), %rax
 7969      FEFFFF
 7970 0083 8B18     		movl	(%rax), %ebx
 7971 0085 488B8520 		movq	-480(%rbp), %rax
 7971      FEFFFF
 7972 008c 448B20   		movl	(%rax), %r12d
 7973 008f 488B8530 		movq	-464(%rbp), %rax
 7973      FEFFFF
 7974 0096 448B28   		movl	(%rax), %r13d
 7975 0099 488D8540 		leaq	-448(%rbp), %rax
 7975      FEFFFF
 7976 00a0 BE000000 		movl	$.LC96, %esi
 7976      00
 7977 00a5 4889C7   		movq	%rax, %rdi
 7978              	.LEHB217:
 7979 00a8 E8000000 		call	_ZStlsISt11char_traitsIcEERSt13basic_ostreamIcT_ES5_PKc
 7979      00
 7980 00ad 4489AD14 		movl	%r13d, -492(%rbp)
 7980      FEFFFF
 7981 00b4 F30F1085 		movss	-492(%rbp), %xmm0
 7981      14FEFFFF 
 7982 00bc 4889C7   		movq	%rax, %rdi
 7983 00bf E8000000 		call	_ZNSolsEf
 7983      00
 7984              		.loc 6 51 0 is_stmt 0 discriminator 1
 7985 00c4 BE000000 		movl	$.LC98, %esi
 7985      00
 7986 00c9 4889C7   		movq	%rax, %rdi
 7987 00cc E8000000 		call	_ZStlsISt11char_traitsIcEERSt13basic_ostreamIcT_ES5_PKc
 7987      00
 7988              		.loc 6 51 0 discriminator 2
 7989 00d1 4489A514 		movl	%r12d, -492(%rbp)
 7989      FEFFFF
 7990 00d8 F30F1085 		movss	-492(%rbp), %xmm0
 7990      14FEFFFF 
 7991 00e0 4889C7   		movq	%rax, %rdi
 7992 00e3 E8000000 		call	_ZNSolsEf
 7992      00
 7993              		.loc 6 51 0 discriminator 3
 7994 00e8 BE000000 		movl	$.LC97, %esi
 7994      00
 7995 00ed 4889C7   		movq	%rax, %rdi
 7996 00f0 E8000000 		call	_ZStlsISt11char_traitsIcEERSt13basic_ostreamIcT_ES5_PKc
 7996      00
 7997              		.loc 6 51 0 discriminator 4
 7998 00f5 899D14FE 		movl	%ebx, -492(%rbp)
 7998      FFFF
 7999 00fb F30F1085 		movss	-492(%rbp), %xmm0
 7999      14FEFFFF 
 8000 0103 4889C7   		movq	%rax, %rdi
 8001 0106 E8000000 		call	_ZNSolsEf
 8001      00
  52:../Checks.h   **** 
  53:../Checks.h   ****         results.OnTestFailure(details, stream.GetText());
 8002              		.loc 6 53 0 is_stmt 1
 8003 010b 488D8540 		leaq	-448(%rbp), %rax
 8003      FEFFFF
 8004 0112 4889C7   		movq	%rax, %rdi
 8005 0115 E8000000 		call	_ZNK8UnitTest15MemoryOutStream7GetTextEv
 8005      00
 8006 011a 4889C2   		movq	%rax, %rdx
 8007 011d 488B8D18 		movq	-488(%rbp), %rcx
 8007      FEFFFF
 8008 0124 488B8538 		movq	-456(%rbp), %rax
 8008      FEFFFF
 8009 012b 4889CE   		movq	%rcx, %rsi
 8010 012e 4889C7   		movq	%rax, %rdi
 8011 0131 E8000000 		call	_ZN8UnitTest11TestResults13OnTestFailureERKNS_11TestDetailsEPKc
 8011      00
 8012              	.LEHE217:
  50:../Checks.h   ****         stream << "Expected " << expected << " +/- " << tolerance << " but was " << actual;
 8013              		.loc 6 50 0
 8014 0136 488D8540 		leaq	-448(%rbp), %rax
 8014      FEFFFF
 8015 013d 4889C7   		movq	%rax, %rdi
 8016              	.LEHB218:
 8017 0140 E8000000 		call	_ZN8UnitTest15MemoryOutStreamD1Ev
 8017      00
 8018              	.LEHE218:
 8019              	.LBE43:
 8020              	.LBE42:
  54:../Checks.h   ****     }
  55:../Checks.h   **** }
 8021              		.loc 6 55 0
 8022 0145 EB1D     		jmp	.L387
 8023              	.L386:
 8024 0147 4889C3   		movq	%rax, %rbx
 8025              	.LBB45:
 8026              	.LBB44:
  50:../Checks.h   ****         stream << "Expected " << expected << " +/- " << tolerance << " but was " << actual;
 8027              		.loc 6 50 0
 8028 014a 488D8540 		leaq	-448(%rbp), %rax
 8028      FEFFFF
 8029 0151 4889C7   		movq	%rax, %rdi
 8030 0154 E8000000 		call	_ZN8UnitTest15MemoryOutStreamD1Ev
 8030      00
 8031 0159 4889D8   		movq	%rbx, %rax
 8032 015c 4889C7   		movq	%rax, %rdi
 8033              	.LEHB219:
 8034 015f E8000000 		call	_Unwind_Resume
 8034      00
 8035              	.LEHE219:
 8036              	.L387:
 8037              	.LBE44:
 8038              	.LBE45:
 8039              		.loc 6 55 0
 8040 0164 90       		nop
 8041 0165 488B45D8 		movq	-40(%rbp), %rax
 8042 0169 64483304 		xorq	%fs:40, %rax
 8042      25280000 
 8042      00
 8043 0172 7405     		je	.L385
 8044 0174 E8000000 		call	__stack_chk_fail
 8044      00
 8045              	.L385:
 8046 0179 4881C4D8 		addq	$472, %rsp
 8046      010000
 8047 0180 5B       		popq	%rbx
 8048 0181 415C     		popq	%r12
 8049 0183 415D     		popq	%r13
 8050 0185 5D       		popq	%rbp
 8051              		.cfi_def_cfa 7, 8
 8052 0186 C3       		ret
 8053              		.cfi_endproc
 8054              	.LFE1217:
 8055              		.section	.gcc_except_table
 8056              	.LLSDA1217:
 8057 0603 FF       		.byte	0xff
 8058 0604 FF       		.byte	0xff
 8059 0605 01       		.byte	0x1
 8060 0606 15       		.uleb128 .LLSDACSE1217-.LLSDACSB1217
 8061              	.LLSDACSB1217:
 8062 0607 77       		.uleb128 .LEHB216-.LFB1217
 8063 0608 05       		.uleb128 .LEHE216-.LEHB216
 8064 0609 00       		.uleb128 0
 8065 060a 00       		.uleb128 0
 8066 060b A801     		.uleb128 .LEHB217-.LFB1217
 8067 060d 8E01     		.uleb128 .LEHE217-.LEHB217
 8068 060f C702     		.uleb128 .L386-.LFB1217
 8069 0611 00       		.uleb128 0
 8070 0612 C002     		.uleb128 .LEHB218-.LFB1217
 8071 0614 05       		.uleb128 .LEHE218-.LEHB218
 8072 0615 00       		.uleb128 0
 8073 0616 00       		.uleb128 0
 8074 0617 DF02     		.uleb128 .LEHB219-.LFB1217
 8075 0619 05       		.uleb128 .LEHE219-.LEHB219
 8076 061a 00       		.uleb128 0
 8077 061b 00       		.uleb128 0
 8078              	.LLSDACSE1217:
 8079              		.section	.text._ZN8UnitTest10CheckCloseIfffEEvRNS_11TestResultsERKT_RKT0_RKT1_RKNS_11TestDetailsE,
 8081              		.section	.text._ZN8UnitTest10CheckCloseIffiEEvRNS_11TestResultsERKT_RKT0_RKT1_RKNS_11TestDetailsE,
 8082              		.weak	_ZN8UnitTest10CheckCloseIffiEEvRNS_11TestResultsERKT_RKT0_RKT1_RKNS_11TestDetailsE
 8084              	_ZN8UnitTest10CheckCloseIffiEEvRNS_11TestResultsERKT_RKT0_RKT1_RKNS_11TestDetailsE:
 8085              	.LFB1218:
  45:../Checks.h   ****                 TestDetails const& details)
 8086              		.loc 6 45 0
 8087              		.cfi_startproc
 8088              		.cfi_personality 0x3,__gxx_personality_v0
 8089              		.cfi_lsda 0x3,.LLSDA1218
 8090 0000 55       		pushq	%rbp
 8091              		.cfi_def_cfa_offset 16
 8092              		.cfi_offset 6, -16
 8093 0001 4889E5   		movq	%rsp, %rbp
 8094              		.cfi_def_cfa_register 6
 8095 0004 4155     		pushq	%r13
 8096 0006 4154     		pushq	%r12
 8097 0008 53       		pushq	%rbx
 8098 0009 4881ECD8 		subq	$472, %rsp
 8098      010000
 8099              		.cfi_offset 13, -24
 8100              		.cfi_offset 12, -32
 8101              		.cfi_offset 3, -40
 8102 0010 4889BD38 		movq	%rdi, -456(%rbp)
 8102      FEFFFF
 8103 0017 4889B530 		movq	%rsi, -464(%rbp)
 8103      FEFFFF
 8104 001e 48899528 		movq	%rdx, -472(%rbp)
 8104      FEFFFF
 8105 0025 48898D20 		movq	%rcx, -480(%rbp)
 8105      FEFFFF
 8106 002c 4C898518 		movq	%r8, -488(%rbp)
 8106      FEFFFF
  45:../Checks.h   ****                 TestDetails const& details)
 8107              		.loc 6 45 0
 8108 0033 64488B04 		movq	%fs:40, %rax
 8108      25280000 
 8108      00
 8109 003c 488945D8 		movq	%rax, -40(%rbp)
 8110 0040 31C0     		xorl	%eax, %eax
 8111              	.LBB46:
  48:../Checks.h   ****     { 
 8112              		.loc 6 48 0
 8113 0042 488B9520 		movq	-480(%rbp), %rdx
 8113      FEFFFF
 8114 0049 488B8D28 		movq	-472(%rbp), %rcx
 8114      FEFFFF
 8115 0050 488B8530 		movq	-464(%rbp), %rax
 8115      FEFFFF
 8116 0057 4889CE   		movq	%rcx, %rsi
 8117 005a 4889C7   		movq	%rax, %rdi
 8118 005d E8000000 		call	_ZN8UnitTest8AreCloseIffiEEbRKT_RKT0_RKT1_
 8118      00
 8119 0062 83F001   		xorl	$1, %eax
 8120 0065 84C0     		testb	%al, %al
 8121 0067 0F84EB00 		je	.L393
 8121      0000
 8122              	.LBB47:
  50:../Checks.h   ****         stream << "Expected " << expected << " +/- " << tolerance << " but was " << actual;
 8123              		.loc 6 50 0
 8124 006d 488D8540 		leaq	-448(%rbp), %rax
 8124      FEFFFF
 8125 0074 4889C7   		movq	%rax, %rdi
 8126              	.LEHB220:
 8127 0077 E8000000 		call	_ZN8UnitTest15MemoryOutStreamC1Ev
 8127      00
 8128              	.LEHE220:
  51:../Checks.h   **** 
 8129              		.loc 6 51 0
 8130 007c 488B8528 		movq	-472(%rbp), %rax
 8130      FEFFFF
 8131 0083 8B18     		movl	(%rax), %ebx
 8132 0085 488B8520 		movq	-480(%rbp), %rax
 8132      FEFFFF
 8133 008c 448B20   		movl	(%rax), %r12d
 8134 008f 488B8530 		movq	-464(%rbp), %rax
 8134      FEFFFF
 8135 0096 448B28   		movl	(%rax), %r13d
 8136 0099 488D8540 		leaq	-448(%rbp), %rax
 8136      FEFFFF
 8137 00a0 BE000000 		movl	$.LC96, %esi
 8137      00
 8138 00a5 4889C7   		movq	%rax, %rdi
 8139              	.LEHB221:
 8140 00a8 E8000000 		call	_ZStlsISt11char_traitsIcEERSt13basic_ostreamIcT_ES5_PKc
 8140      00
 8141 00ad 4489AD14 		movl	%r13d, -492(%rbp)
 8141      FEFFFF
 8142 00b4 F30F1085 		movss	-492(%rbp), %xmm0
 8142      14FEFFFF 
 8143 00bc 4889C7   		movq	%rax, %rdi
 8144 00bf E8000000 		call	_ZNSolsEf
 8144      00
  51:../Checks.h   **** 
 8145              		.loc 6 51 0 is_stmt 0 discriminator 1
 8146 00c4 BE000000 		movl	$.LC98, %esi
 8146      00
 8147 00c9 4889C7   		movq	%rax, %rdi
 8148 00cc E8000000 		call	_ZStlsISt11char_traitsIcEERSt13basic_ostreamIcT_ES5_PKc
 8148      00
  51:../Checks.h   **** 
 8149              		.loc 6 51 0 discriminator 2
 8150 00d1 4489E6   		movl	%r12d, %esi
 8151 00d4 4889C7   		movq	%rax, %rdi
 8152 00d7 E8000000 		call	_ZNSolsEi
 8152      00
  51:../Checks.h   **** 
 8153              		.loc 6 51 0 discriminator 3
 8154 00dc BE000000 		movl	$.LC97, %esi
 8154      00
 8155 00e1 4889C7   		movq	%rax, %rdi
 8156 00e4 E8000000 		call	_ZStlsISt11char_traitsIcEERSt13basic_ostreamIcT_ES5_PKc
 8156      00
  51:../Checks.h   **** 
 8157              		.loc 6 51 0 discriminator 4
 8158 00e9 899D14FE 		movl	%ebx, -492(%rbp)
 8158      FFFF
 8159 00ef F30F1085 		movss	-492(%rbp), %xmm0
 8159      14FEFFFF 
 8160 00f7 4889C7   		movq	%rax, %rdi
 8161 00fa E8000000 		call	_ZNSolsEf
 8161      00
  53:../Checks.h   ****     }
 8162              		.loc 6 53 0 is_stmt 1
 8163 00ff 488D8540 		leaq	-448(%rbp), %rax
 8163      FEFFFF
 8164 0106 4889C7   		movq	%rax, %rdi
 8165 0109 E8000000 		call	_ZNK8UnitTest15MemoryOutStream7GetTextEv
 8165      00
 8166 010e 4889C2   		movq	%rax, %rdx
 8167 0111 488B8D18 		movq	-488(%rbp), %rcx
 8167      FEFFFF
 8168 0118 488B8538 		movq	-456(%rbp), %rax
 8168      FEFFFF
 8169 011f 4889CE   		movq	%rcx, %rsi
 8170 0122 4889C7   		movq	%rax, %rdi
 8171 0125 E8000000 		call	_ZN8UnitTest11TestResults13OnTestFailureERKNS_11TestDetailsEPKc
 8171      00
 8172              	.LEHE221:
  50:../Checks.h   ****         stream << "Expected " << expected << " +/- " << tolerance << " but was " << actual;
 8173              		.loc 6 50 0
 8174 012a 488D8540 		leaq	-448(%rbp), %rax
 8174      FEFFFF
 8175 0131 4889C7   		movq	%rax, %rdi
 8176              	.LEHB222:
 8177 0134 E8000000 		call	_ZN8UnitTest15MemoryOutStreamD1Ev
 8177      00
 8178              	.LEHE222:
 8179              	.LBE47:
 8180              	.LBE46:
 8181              		.loc 6 55 0
 8182 0139 EB1D     		jmp	.L393
 8183              	.L392:
 8184 013b 4889C3   		movq	%rax, %rbx
 8185              	.LBB49:
 8186              	.LBB48:
  50:../Checks.h   ****         stream << "Expected " << expected << " +/- " << tolerance << " but was " << actual;
 8187              		.loc 6 50 0
 8188 013e 488D8540 		leaq	-448(%rbp), %rax
 8188      FEFFFF
 8189 0145 4889C7   		movq	%rax, %rdi
 8190 0148 E8000000 		call	_ZN8UnitTest15MemoryOutStreamD1Ev
 8190      00
 8191 014d 4889D8   		movq	%rbx, %rax
 8192 0150 4889C7   		movq	%rax, %rdi
 8193              	.LEHB223:
 8194 0153 E8000000 		call	_Unwind_Resume
 8194      00
 8195              	.LEHE223:
 8196              	.L393:
 8197              	.LBE48:
 8198              	.LBE49:
 8199              		.loc 6 55 0
 8200 0158 90       		nop
 8201 0159 488B45D8 		movq	-40(%rbp), %rax
 8202 015d 64483304 		xorq	%fs:40, %rax
 8202      25280000 
 8202      00
 8203 0166 7405     		je	.L391
 8204 0168 E8000000 		call	__stack_chk_fail
 8204      00
 8205              	.L391:
 8206 016d 4881C4D8 		addq	$472, %rsp
 8206      010000
 8207 0174 5B       		popq	%rbx
 8208 0175 415C     		popq	%r12
 8209 0177 415D     		popq	%r13
 8210 0179 5D       		popq	%rbp
 8211              		.cfi_def_cfa 7, 8
 8212 017a C3       		ret
 8213              		.cfi_endproc
 8214              	.LFE1218:
 8215              		.section	.gcc_except_table
 8216              	.LLSDA1218:
 8217 061c FF       		.byte	0xff
 8218 061d FF       		.byte	0xff
 8219 061e 01       		.byte	0x1
 8220 061f 15       		.uleb128 .LLSDACSE1218-.LLSDACSB1218
 8221              	.LLSDACSB1218:
 8222 0620 77       		.uleb128 .LEHB220-.LFB1218
 8223 0621 05       		.uleb128 .LEHE220-.LEHB220
 8224 0622 00       		.uleb128 0
 8225 0623 00       		.uleb128 0
 8226 0624 A801     		.uleb128 .LEHB221-.LFB1218
 8227 0626 8201     		.uleb128 .LEHE221-.LEHB221
 8228 0628 BB02     		.uleb128 .L392-.LFB1218
 8229 062a 00       		.uleb128 0
 8230 062b B402     		.uleb128 .LEHB222-.LFB1218
 8231 062d 05       		.uleb128 .LEHE222-.LEHB222
 8232 062e 00       		.uleb128 0
 8233 062f 00       		.uleb128 0
 8234 0630 D302     		.uleb128 .LEHB223-.LFB1218
 8235 0632 05       		.uleb128 .LEHE223-.LEHB223
 8236 0633 00       		.uleb128 0
 8237 0634 00       		.uleb128 0
 8238              	.LLSDACSE1218:
 8239              		.section	.text._ZN8UnitTest10CheckCloseIffiEEvRNS_11TestResultsERKT_RKT0_RKT1_RKNS_11TestDetailsE,
 8241              		.section	.text._ZN8UnitTest10CheckCloseIiifEEvRNS_11TestResultsERKT_RKT0_RKT1_RKNS_11TestDetailsE,
 8242              		.weak	_ZN8UnitTest10CheckCloseIiifEEvRNS_11TestResultsERKT_RKT0_RKT1_RKNS_11TestDetailsE
 8244              	_ZN8UnitTest10CheckCloseIiifEEvRNS_11TestResultsERKT_RKT0_RKT1_RKNS_11TestDetailsE:
 8245              	.LFB1219:
  45:../Checks.h   ****                 TestDetails const& details)
 8246              		.loc 6 45 0
 8247              		.cfi_startproc
 8248              		.cfi_personality 0x3,__gxx_personality_v0
 8249              		.cfi_lsda 0x3,.LLSDA1219
 8250 0000 55       		pushq	%rbp
 8251              		.cfi_def_cfa_offset 16
 8252              		.cfi_offset 6, -16
 8253 0001 4889E5   		movq	%rsp, %rbp
 8254              		.cfi_def_cfa_register 6
 8255 0004 4155     		pushq	%r13
 8256 0006 4154     		pushq	%r12
 8257 0008 53       		pushq	%rbx
 8258 0009 4881ECD8 		subq	$472, %rsp
 8258      010000
 8259              		.cfi_offset 13, -24
 8260              		.cfi_offset 12, -32
 8261              		.cfi_offset 3, -40
 8262 0010 4889BD38 		movq	%rdi, -456(%rbp)
 8262      FEFFFF
 8263 0017 4889B530 		movq	%rsi, -464(%rbp)
 8263      FEFFFF
 8264 001e 48899528 		movq	%rdx, -472(%rbp)
 8264      FEFFFF
 8265 0025 48898D20 		movq	%rcx, -480(%rbp)
 8265      FEFFFF
 8266 002c 4C898518 		movq	%r8, -488(%rbp)
 8266      FEFFFF
  45:../Checks.h   ****                 TestDetails const& details)
 8267              		.loc 6 45 0
 8268 0033 64488B04 		movq	%fs:40, %rax
 8268      25280000 
 8268      00
 8269 003c 488945D8 		movq	%rax, -40(%rbp)
 8270 0040 31C0     		xorl	%eax, %eax
 8271              	.LBB50:
  48:../Checks.h   ****     { 
 8272              		.loc 6 48 0
 8273 0042 488B9520 		movq	-480(%rbp), %rdx
 8273      FEFFFF
 8274 0049 488B8D28 		movq	-472(%rbp), %rcx
 8274      FEFFFF
 8275 0050 488B8530 		movq	-464(%rbp), %rax
 8275      FEFFFF
 8276 0057 4889CE   		movq	%rcx, %rsi
 8277 005a 4889C7   		movq	%rax, %rdi
 8278 005d E8000000 		call	_ZN8UnitTest8AreCloseIiifEEbRKT_RKT0_RKT1_
 8278      00
 8279 0062 83F001   		xorl	$1, %eax
 8280 0065 84C0     		testb	%al, %al
 8281 0067 0F84DF00 		je	.L399
 8281      0000
 8282              	.LBB51:
  50:../Checks.h   ****         stream << "Expected " << expected << " +/- " << tolerance << " but was " << actual;
 8283              		.loc 6 50 0
 8284 006d 488D8540 		leaq	-448(%rbp), %rax
 8284      FEFFFF
 8285 0074 4889C7   		movq	%rax, %rdi
 8286              	.LEHB224:
 8287 0077 E8000000 		call	_ZN8UnitTest15MemoryOutStreamC1Ev
 8287      00
 8288              	.LEHE224:
  51:../Checks.h   **** 
 8289              		.loc 6 51 0
 8290 007c 488B8528 		movq	-472(%rbp), %rax
 8290      FEFFFF
 8291 0083 8B18     		movl	(%rax), %ebx
 8292 0085 488B8520 		movq	-480(%rbp), %rax
 8292      FEFFFF
 8293 008c 448B20   		movl	(%rax), %r12d
 8294 008f 488B8530 		movq	-464(%rbp), %rax
 8294      FEFFFF
 8295 0096 448B28   		movl	(%rax), %r13d
 8296 0099 488D8540 		leaq	-448(%rbp), %rax
 8296      FEFFFF
 8297 00a0 BE000000 		movl	$.LC96, %esi
 8297      00
 8298 00a5 4889C7   		movq	%rax, %rdi
 8299              	.LEHB225:
 8300 00a8 E8000000 		call	_ZStlsISt11char_traitsIcEERSt13basic_ostreamIcT_ES5_PKc
 8300      00
 8301 00ad 4489EE   		movl	%r13d, %esi
 8302 00b0 4889C7   		movq	%rax, %rdi
 8303 00b3 E8000000 		call	_ZNSolsEi
 8303      00
  51:../Checks.h   **** 
 8304              		.loc 6 51 0 is_stmt 0 discriminator 1
 8305 00b8 BE000000 		movl	$.LC98, %esi
 8305      00
 8306 00bd 4889C7   		movq	%rax, %rdi
 8307 00c0 E8000000 		call	_ZStlsISt11char_traitsIcEERSt13basic_ostreamIcT_ES5_PKc
 8307      00
  51:../Checks.h   **** 
 8308              		.loc 6 51 0 discriminator 2
 8309 00c5 4489A514 		movl	%r12d, -492(%rbp)
 8309      FEFFFF
 8310 00cc F30F1085 		movss	-492(%rbp), %xmm0
 8310      14FEFFFF 
 8311 00d4 4889C7   		movq	%rax, %rdi
 8312 00d7 E8000000 		call	_ZNSolsEf
 8312      00
  51:../Checks.h   **** 
 8313              		.loc 6 51 0 discriminator 3
 8314 00dc BE000000 		movl	$.LC97, %esi
 8314      00
 8315 00e1 4889C7   		movq	%rax, %rdi
 8316 00e4 E8000000 		call	_ZStlsISt11char_traitsIcEERSt13basic_ostreamIcT_ES5_PKc
 8316      00
  51:../Checks.h   **** 
 8317              		.loc 6 51 0 discriminator 4
 8318 00e9 89DE     		movl	%ebx, %esi
 8319 00eb 4889C7   		movq	%rax, %rdi
 8320 00ee E8000000 		call	_ZNSolsEi
 8320      00
  53:../Checks.h   ****     }
 8321              		.loc 6 53 0 is_stmt 1
 8322 00f3 488D8540 		leaq	-448(%rbp), %rax
 8322      FEFFFF
 8323 00fa 4889C7   		movq	%rax, %rdi
 8324 00fd E8000000 		call	_ZNK8UnitTest15MemoryOutStream7GetTextEv
 8324      00
 8325 0102 4889C2   		movq	%rax, %rdx
 8326 0105 488B8D18 		movq	-488(%rbp), %rcx
 8326      FEFFFF
 8327 010c 488B8538 		movq	-456(%rbp), %rax
 8327      FEFFFF
 8328 0113 4889CE   		movq	%rcx, %rsi
 8329 0116 4889C7   		movq	%rax, %rdi
 8330 0119 E8000000 		call	_ZN8UnitTest11TestResults13OnTestFailureERKNS_11TestDetailsEPKc
 8330      00
 8331              	.LEHE225:
  50:../Checks.h   ****         stream << "Expected " << expected << " +/- " << tolerance << " but was " << actual;
 8332              		.loc 6 50 0
 8333 011e 488D8540 		leaq	-448(%rbp), %rax
 8333      FEFFFF
 8334 0125 4889C7   		movq	%rax, %rdi
 8335              	.LEHB226:
 8336 0128 E8000000 		call	_ZN8UnitTest15MemoryOutStreamD1Ev
 8336      00
 8337              	.LEHE226:
 8338              	.LBE51:
 8339              	.LBE50:
 8340              		.loc 6 55 0
 8341 012d EB1D     		jmp	.L399
 8342              	.L398:
 8343 012f 4889C3   		movq	%rax, %rbx
 8344              	.LBB53:
 8345              	.LBB52:
  50:../Checks.h   ****         stream << "Expected " << expected << " +/- " << tolerance << " but was " << actual;
 8346              		.loc 6 50 0
 8347 0132 488D8540 		leaq	-448(%rbp), %rax
 8347      FEFFFF
 8348 0139 4889C7   		movq	%rax, %rdi
 8349 013c E8000000 		call	_ZN8UnitTest15MemoryOutStreamD1Ev
 8349      00
 8350 0141 4889D8   		movq	%rbx, %rax
 8351 0144 4889C7   		movq	%rax, %rdi
 8352              	.LEHB227:
 8353 0147 E8000000 		call	_Unwind_Resume
 8353      00
 8354              	.LEHE227:
 8355              	.L399:
 8356              	.LBE52:
 8357              	.LBE53:
 8358              		.loc 6 55 0
 8359 014c 90       		nop
 8360 014d 488B45D8 		movq	-40(%rbp), %rax
 8361 0151 64483304 		xorq	%fs:40, %rax
 8361      25280000 
 8361      00
 8362 015a 7405     		je	.L397
 8363 015c E8000000 		call	__stack_chk_fail
 8363      00
 8364              	.L397:
 8365 0161 4881C4D8 		addq	$472, %rsp
 8365      010000
 8366 0168 5B       		popq	%rbx
 8367 0169 415C     		popq	%r12
 8368 016b 415D     		popq	%r13
 8369 016d 5D       		popq	%rbp
 8370              		.cfi_def_cfa 7, 8
 8371 016e C3       		ret
 8372              		.cfi_endproc
 8373              	.LFE1219:
 8374              		.section	.gcc_except_table
 8375              	.LLSDA1219:
 8376 0635 FF       		.byte	0xff
 8377 0636 FF       		.byte	0xff
 8378 0637 01       		.byte	0x1
 8379 0638 14       		.uleb128 .LLSDACSE1219-.LLSDACSB1219
 8380              	.LLSDACSB1219:
 8381 0639 77       		.uleb128 .LEHB224-.LFB1219
 8382 063a 05       		.uleb128 .LEHE224-.LEHB224
 8383 063b 00       		.uleb128 0
 8384 063c 00       		.uleb128 0
 8385 063d A801     		.uleb128 .LEHB225-.LFB1219
 8386 063f 76       		.uleb128 .LEHE225-.LEHB225
 8387 0640 AF02     		.uleb128 .L398-.LFB1219
 8388 0642 00       		.uleb128 0
 8389 0643 A802     		.uleb128 .LEHB226-.LFB1219
 8390 0645 05       		.uleb128 .LEHE226-.LEHB226
 8391 0646 00       		.uleb128 0
 8392 0647 00       		.uleb128 0
 8393 0648 C702     		.uleb128 .LEHB227-.LFB1219
 8394 064a 05       		.uleb128 .LEHE227-.LEHB227
 8395 064b 00       		.uleb128 0
 8396 064c 00       		.uleb128 0
 8397              	.LLSDACSE1219:
 8398              		.section	.text._ZN8UnitTest10CheckCloseIiifEEvRNS_11TestResultsERKT_RKT0_RKT1_RKNS_11TestDetailsE,
 8400              		.section	.rodata
 8401              	.LC99:
 8402 0bc4 45787065 		.string	"Expected [ "
 8402      63746564 
 8402      205B2000 
 8403              	.LC100:
 8404 0bd0 2000     		.string	" "
 8405              	.LC101:
 8406 0bd2 5D206275 		.string	"] but was [ "
 8406      74207761 
 8406      73205B20 
 8406      00
 8407              	.LC102:
 8408 0bdf 5D00     		.string	"]"
 8409              		.section	.text._ZN8UnitTest15CheckArrayEqualIA3_iS1_EEvRNS_11TestResultsERKT_RKT0_iRKNS_11TestDeta
 8410              		.weak	_ZN8UnitTest15CheckArrayEqualIA3_iS1_EEvRNS_11TestResultsERKT_RKT0_iRKNS_11TestDetailsE
 8412              	_ZN8UnitTest15CheckArrayEqualIA3_iS1_EEvRNS_11TestResultsERKT_RKT0_iRKNS_11TestDetailsE:
 8413              	.LFB1220:
  56:../Checks.h   **** 
  57:../Checks.h   **** 
  58:../Checks.h   **** template< typename Expected, typename Actual >
  59:../Checks.h   **** void CheckArrayEqual(TestResults& results, Expected const& expected, Actual const& actual,
 8414              		.loc 6 59 0
 8415              		.cfi_startproc
 8416              		.cfi_personality 0x3,__gxx_personality_v0
 8417              		.cfi_lsda 0x3,.LLSDA1220
 8418 0000 55       		pushq	%rbp
 8419              		.cfi_def_cfa_offset 16
 8420              		.cfi_offset 6, -16
 8421 0001 4889E5   		movq	%rsp, %rbp
 8422              		.cfi_def_cfa_register 6
 8423 0004 53       		pushq	%rbx
 8424 0005 4881ECE8 		subq	$488, %rsp
 8424      010000
 8425              		.cfi_offset 3, -24
 8426 000c 4889BD38 		movq	%rdi, -456(%rbp)
 8426      FEFFFF
 8427 0013 4889B530 		movq	%rsi, -464(%rbp)
 8427      FEFFFF
 8428 001a 48899528 		movq	%rdx, -472(%rbp)
 8428      FEFFFF
 8429 0021 898D24FE 		movl	%ecx, -476(%rbp)
 8429      FFFF
 8430 0027 4C898518 		movq	%r8, -488(%rbp)
 8430      FEFFFF
 8431              		.loc 6 59 0
 8432 002e 64488B04 		movq	%fs:40, %rax
 8432      25280000 
 8432      00
 8433 0037 488945E8 		movq	%rax, -24(%rbp)
 8434 003b 31C0     		xorl	%eax, %eax
  60:../Checks.h   ****                 int const count, TestDetails const& details)
  61:../Checks.h   **** {
  62:../Checks.h   ****     bool equal = true;
 8435              		.loc 6 62 0
 8436 003d C68543FE 		movb	$1, -445(%rbp)
 8436      FFFF01
 8437              	.LBB54:
  63:../Checks.h   ****     for (int i = 0; i < count; ++i)
 8438              		.loc 6 63 0
 8439 0044 C78544FE 		movl	$0, -444(%rbp)
 8439      FFFF0000 
 8439      0000
 8440              	.L402:
 8441              		.loc 6 63 0 is_stmt 0 discriminator 3
 8442 004e 8B8544FE 		movl	-444(%rbp), %eax
 8442      FFFF
 8443 0054 3B8524FE 		cmpl	-476(%rbp), %eax
 8443      FFFF
 8444 005a 7D4B     		jge	.L401
  64:../Checks.h   ****         equal &= (expected[i] == actual[i]);
 8445              		.loc 6 64 0 is_stmt 1 discriminator 2
 8446 005c 0FB68D43 		movzbl	-445(%rbp), %ecx
 8446      FEFFFF
 8447 0063 488B8530 		movq	-464(%rbp), %rax
 8447      FEFFFF
 8448 006a 8B9544FE 		movl	-444(%rbp), %edx
 8448      FFFF
 8449 0070 4863D2   		movslq	%edx, %rdx
 8450 0073 8B3490   		movl	(%rax,%rdx,4), %esi
 8451 0076 488B8528 		movq	-472(%rbp), %rax
 8451      FEFFFF
 8452 007d 8B9544FE 		movl	-444(%rbp), %edx
 8452      FFFF
 8453 0083 4863D2   		movslq	%edx, %rdx
 8454 0086 8B0490   		movl	(%rax,%rdx,4), %eax
 8455 0089 39C6     		cmpl	%eax, %esi
 8456 008b 0F94C0   		sete	%al
 8457 008e 0FB6C0   		movzbl	%al, %eax
 8458 0091 21C8     		andl	%ecx, %eax
 8459 0093 85C0     		testl	%eax, %eax
 8460 0095 0F95C0   		setne	%al
 8461 0098 888543FE 		movb	%al, -445(%rbp)
 8461      FFFF
  63:../Checks.h   ****     for (int i = 0; i < count; ++i)
 8462              		.loc 6 63 0 discriminator 2
 8463 009e 838544FE 		addl	$1, -444(%rbp)
 8463      FFFF01
 8464 00a5 EBA7     		jmp	.L402
 8465              	.L401:
 8466              	.LBE54:
 8467              	.LBB55:
  65:../Checks.h   **** 
  66:../Checks.h   ****     if (!equal)
 8468              		.loc 6 66 0
 8469 00a7 0FB68543 		movzbl	-445(%rbp), %eax
 8469      FEFFFF
 8470 00ae 83F001   		xorl	$1, %eax
 8471 00b1 84C0     		testb	%al, %al
 8472 00b3 0F844801 		je	.L411
 8472      0000
 8473              	.LBB56:
  67:../Checks.h   ****     {
  68:../Checks.h   ****         UnitTest::MemoryOutStream stream;
 8474              		.loc 6 68 0
 8475 00b9 488D8550 		leaq	-432(%rbp), %rax
 8475      FEFFFF
 8476 00c0 4889C7   		movq	%rax, %rdi
 8477              	.LEHB228:
 8478 00c3 E8000000 		call	_ZN8UnitTest15MemoryOutStreamC1Ev
 8478      00
 8479              	.LEHE228:
  69:../Checks.h   **** 
  70:../Checks.h   **** 		stream << "Expected [ ";
 8480              		.loc 6 70 0
 8481 00c8 488D8550 		leaq	-432(%rbp), %rax
 8481      FEFFFF
 8482 00cf BE000000 		movl	$.LC99, %esi
 8482      00
 8483 00d4 4889C7   		movq	%rax, %rdi
 8484              	.LEHB229:
 8485 00d7 E8000000 		call	_ZStlsISt11char_traitsIcEERSt13basic_ostreamIcT_ES5_PKc
 8485      00
 8486              	.LBB57:
  71:../Checks.h   **** 
  72:../Checks.h   **** 		for (int expectedIndex = 0; expectedIndex < count; ++expectedIndex)
 8487              		.loc 6 72 0
 8488 00dc C78548FE 		movl	$0, -440(%rbp)
 8488      FFFF0000 
 8488      0000
 8489              	.L405:
 8490              		.loc 6 72 0 is_stmt 0 discriminator 1
 8491 00e6 8B8548FE 		movl	-440(%rbp), %eax
 8491      FFFF
 8492 00ec 3B8524FE 		cmpl	-476(%rbp), %eax
 8492      FFFF
 8493 00f2 7D3A     		jge	.L404
  73:../Checks.h   ****             stream << expected[expectedIndex] << " ";
 8494              		.loc 6 73 0 is_stmt 1
 8495 00f4 488B8530 		movq	-464(%rbp), %rax
 8495      FEFFFF
 8496 00fb 8B9548FE 		movl	-440(%rbp), %edx
 8496      FFFF
 8497 0101 4863D2   		movslq	%edx, %rdx
 8498 0104 8B1490   		movl	(%rax,%rdx,4), %edx
 8499 0107 488D8550 		leaq	-432(%rbp), %rax
 8499      FEFFFF
 8500 010e 89D6     		movl	%edx, %esi
 8501 0110 4889C7   		movq	%rax, %rdi
 8502 0113 E8000000 		call	_ZNSolsEi
 8502      00
 8503 0118 BE000000 		movl	$.LC100, %esi
 8503      00
 8504 011d 4889C7   		movq	%rax, %rdi
 8505 0120 E8000000 		call	_ZStlsISt11char_traitsIcEERSt13basic_ostreamIcT_ES5_PKc
 8505      00
  72:../Checks.h   ****             stream << expected[expectedIndex] << " ";
 8506              		.loc 6 72 0 discriminator 2
 8507 0125 838548FE 		addl	$1, -440(%rbp)
 8507      FFFF01
 8508 012c EBB8     		jmp	.L405
 8509              	.L404:
 8510              	.LBE57:
  74:../Checks.h   **** 
  75:../Checks.h   **** 		stream << "] but was [ ";
 8511              		.loc 6 75 0
 8512 012e 488D8550 		leaq	-432(%rbp), %rax
 8512      FEFFFF
 8513 0135 BE000000 		movl	$.LC101, %esi
 8513      00
 8514 013a 4889C7   		movq	%rax, %rdi
 8515 013d E8000000 		call	_ZStlsISt11char_traitsIcEERSt13basic_ostreamIcT_ES5_PKc
 8515      00
 8516              	.LBB58:
  76:../Checks.h   **** 
  77:../Checks.h   **** 		for (int actualIndex = 0; actualIndex < count; ++actualIndex)
 8517              		.loc 6 77 0
 8518 0142 C7854CFE 		movl	$0, -436(%rbp)
 8518      FFFF0000 
 8518      0000
 8519              	.L407:
 8520              		.loc 6 77 0 is_stmt 0 discriminator 1
 8521 014c 8B854CFE 		movl	-436(%rbp), %eax
 8521      FFFF
 8522 0152 3B8524FE 		cmpl	-476(%rbp), %eax
 8522      FFFF
 8523 0158 7D3A     		jge	.L406
  78:../Checks.h   ****             stream << actual[actualIndex] << " ";
 8524              		.loc 6 78 0 is_stmt 1
 8525 015a 488B8528 		movq	-472(%rbp), %rax
 8525      FEFFFF
 8526 0161 8B954CFE 		movl	-436(%rbp), %edx
 8526      FFFF
 8527 0167 4863D2   		movslq	%edx, %rdx
 8528 016a 8B1490   		movl	(%rax,%rdx,4), %edx
 8529 016d 488D8550 		leaq	-432(%rbp), %rax
 8529      FEFFFF
 8530 0174 89D6     		movl	%edx, %esi
 8531 0176 4889C7   		movq	%rax, %rdi
 8532 0179 E8000000 		call	_ZNSolsEi
 8532      00
 8533 017e BE000000 		movl	$.LC100, %esi
 8533      00
 8534 0183 4889C7   		movq	%rax, %rdi
 8535 0186 E8000000 		call	_ZStlsISt11char_traitsIcEERSt13basic_ostreamIcT_ES5_PKc
 8535      00
  77:../Checks.h   ****             stream << actual[actualIndex] << " ";
 8536              		.loc 6 77 0 discriminator 2
 8537 018b 83854CFE 		addl	$1, -436(%rbp)
 8537      FFFF01
 8538 0192 EBB8     		jmp	.L407
 8539              	.L406:
 8540              	.LBE58:
  79:../Checks.h   **** 
  80:../Checks.h   **** 		stream << "]";
 8541              		.loc 6 80 0
 8542 0194 488D8550 		leaq	-432(%rbp), %rax
 8542      FEFFFF
 8543 019b BE000000 		movl	$.LC102, %esi
 8543      00
 8544 01a0 4889C7   		movq	%rax, %rdi
 8545 01a3 E8000000 		call	_ZStlsISt11char_traitsIcEERSt13basic_ostreamIcT_ES5_PKc
 8545      00
  81:../Checks.h   **** 
  82:../Checks.h   ****         results.OnTestFailure(details, stream.GetText());
 8546              		.loc 6 82 0
 8547 01a8 488D8550 		leaq	-432(%rbp), %rax
 8547      FEFFFF
 8548 01af 4889C7   		movq	%rax, %rdi
 8549 01b2 E8000000 		call	_ZNK8UnitTest15MemoryOutStream7GetTextEv
 8549      00
 8550 01b7 4889C2   		movq	%rax, %rdx
 8551 01ba 488B8D18 		movq	-488(%rbp), %rcx
 8551      FEFFFF
 8552 01c1 488B8538 		movq	-456(%rbp), %rax
 8552      FEFFFF
 8553 01c8 4889CE   		movq	%rcx, %rsi
 8554 01cb 4889C7   		movq	%rax, %rdi
 8555 01ce E8000000 		call	_ZN8UnitTest11TestResults13OnTestFailureERKNS_11TestDetailsEPKc
 8555      00
 8556              	.LEHE229:
  68:../Checks.h   **** 
 8557              		.loc 6 68 0
 8558 01d3 488D8550 		leaq	-432(%rbp), %rax
 8558      FEFFFF
 8559 01da 4889C7   		movq	%rax, %rdi
 8560              	.LEHB230:
 8561 01dd E8000000 		call	_ZN8UnitTest15MemoryOutStreamD1Ev
 8561      00
 8562              	.LEHE230:
 8563              	.LBE56:
 8564              	.LBE55:
  83:../Checks.h   ****     }
  84:../Checks.h   **** }
 8565              		.loc 6 84 0
 8566 01e2 EB1D     		jmp	.L411
 8567              	.L410:
 8568 01e4 4889C3   		movq	%rax, %rbx
 8569              	.LBB60:
 8570              	.LBB59:
  68:../Checks.h   **** 
 8571              		.loc 6 68 0
 8572 01e7 488D8550 		leaq	-432(%rbp), %rax
 8572      FEFFFF
 8573 01ee 4889C7   		movq	%rax, %rdi
 8574 01f1 E8000000 		call	_ZN8UnitTest15MemoryOutStreamD1Ev
 8574      00
 8575 01f6 4889D8   		movq	%rbx, %rax
 8576 01f9 4889C7   		movq	%rax, %rdi
 8577              	.LEHB231:
 8578 01fc E8000000 		call	_Unwind_Resume
 8578      00
 8579              	.LEHE231:
 8580              	.L411:
 8581              	.LBE59:
 8582              	.LBE60:
 8583              		.loc 6 84 0
 8584 0201 90       		nop
 8585 0202 488B45E8 		movq	-24(%rbp), %rax
 8586 0206 64483304 		xorq	%fs:40, %rax
 8586      25280000 
 8586      00
 8587 020f 7405     		je	.L409
 8588 0211 E8000000 		call	__stack_chk_fail
 8588      00
 8589              	.L409:
 8590 0216 4881C4E8 		addq	$488, %rsp
 8590      010000
 8591 021d 5B       		popq	%rbx
 8592 021e 5D       		popq	%rbp
 8593              		.cfi_def_cfa 7, 8
 8594 021f C3       		ret
 8595              		.cfi_endproc
 8596              	.LFE1220:
 8597              		.section	.gcc_except_table
 8598              	.LLSDA1220:
 8599 064d FF       		.byte	0xff
 8600 064e FF       		.byte	0xff
 8601 064f 01       		.byte	0x1
 8602 0650 16       		.uleb128 .LLSDACSE1220-.LLSDACSB1220
 8603              	.LLSDACSB1220:
 8604 0651 C301     		.uleb128 .LEHB228-.LFB1220
 8605 0653 05       		.uleb128 .LEHE228-.LEHB228
 8606 0654 00       		.uleb128 0
 8607 0655 00       		.uleb128 0
 8608 0656 D701     		.uleb128 .LEHB229-.LFB1220
 8609 0658 FC01     		.uleb128 .LEHE229-.LEHB229
 8610 065a E403     		.uleb128 .L410-.LFB1220
 8611 065c 00       		.uleb128 0
 8612 065d DD03     		.uleb128 .LEHB230-.LFB1220
 8613 065f 05       		.uleb128 .LEHE230-.LEHB230
 8614 0660 00       		.uleb128 0
 8615 0661 00       		.uleb128 0
 8616 0662 FC03     		.uleb128 .LEHB231-.LFB1220
 8617 0664 05       		.uleb128 .LEHE231-.LEHB231
 8618 0665 00       		.uleb128 0
 8619 0666 00       		.uleb128 0
 8620              	.LLSDACSE1220:
 8621              		.section	.text._ZN8UnitTest15CheckArrayEqualIA3_iS1_EEvRNS_11TestResultsERKT_RKT0_iRKNS_11TestDeta
 8623              		.section	.rodata
 8624              	.LC103:
 8625 0be1 5D202B2F 		.string	"] +/- "
 8625      2D2000
 8626              	.LC104:
 8627 0be8 20627574 		.string	" but was [ "
 8627      20776173 
 8627      205B2000 
 8628              		.section	.text._ZN8UnitTest15CheckArrayCloseIA3_fS1_fEEvRNS_11TestResultsERKT_RKT0_iRKT1_RKNS_11Te
 8629              		.weak	_ZN8UnitTest15CheckArrayCloseIA3_fS1_fEEvRNS_11TestResultsERKT_RKT0_iRKT1_RKNS_11TestDetails
 8631              	_ZN8UnitTest15CheckArrayCloseIA3_fS1_fEEvRNS_11TestResultsERKT_RKT0_iRKT1_RKNS_11TestDetailsE:
 8632              	.LFB1221:
  85:../Checks.h   **** 
  86:../Checks.h   **** template< typename Expected, typename Actual, typename Tolerance >
  87:../Checks.h   **** bool ArrayAreClose(Expected const& expected, Actual const& actual, int const count, Tolerance const
  88:../Checks.h   **** {
  89:../Checks.h   ****     bool equal = true;
  90:../Checks.h   ****     for (int i = 0; i < count; ++i)
  91:../Checks.h   ****         equal &= AreClose(expected[i], actual[i], tolerance);
  92:../Checks.h   ****     return equal;
  93:../Checks.h   **** }
  94:../Checks.h   **** 
  95:../Checks.h   **** template< typename Expected, typename Actual, typename Tolerance >
  96:../Checks.h   **** void CheckArrayClose(TestResults& results, Expected const& expected, Actual const& actual,
 8633              		.loc 6 96 0
 8634              		.cfi_startproc
 8635              		.cfi_personality 0x3,__gxx_personality_v0
 8636              		.cfi_lsda 0x3,.LLSDA1221
 8637 0000 55       		pushq	%rbp
 8638              		.cfi_def_cfa_offset 16
 8639              		.cfi_offset 6, -16
 8640 0001 4889E5   		movq	%rsp, %rbp
 8641              		.cfi_def_cfa_register 6
 8642 0004 53       		pushq	%rbx
 8643 0005 4881ECE8 		subq	$488, %rsp
 8643      010000
 8644              		.cfi_offset 3, -24
 8645 000c 4889BD38 		movq	%rdi, -456(%rbp)
 8645      FEFFFF
 8646 0013 4889B530 		movq	%rsi, -464(%rbp)
 8646      FEFFFF
 8647 001a 48899528 		movq	%rdx, -472(%rbp)
 8647      FEFFFF
 8648 0021 898D24FE 		movl	%ecx, -476(%rbp)
 8648      FFFF
 8649 0027 4C898518 		movq	%r8, -488(%rbp)
 8649      FEFFFF
 8650 002e 4C898D10 		movq	%r9, -496(%rbp)
 8650      FEFFFF
 8651              		.loc 6 96 0
 8652 0035 64488B04 		movq	%fs:40, %rax
 8652      25280000 
 8652      00
 8653 003e 488945E8 		movq	%rax, -24(%rbp)
 8654 0042 31C0     		xorl	%eax, %eax
  97:../Checks.h   ****                    int const count, Tolerance const& tolerance, TestDetails const& details)
  98:../Checks.h   **** {
  99:../Checks.h   ****     bool equal = ArrayAreClose(expected, actual, count, tolerance);
 8655              		.loc 6 99 0
 8656 0044 488B8D18 		movq	-488(%rbp), %rcx
 8656      FEFFFF
 8657 004b 8B9524FE 		movl	-476(%rbp), %edx
 8657      FFFF
 8658 0051 488BB528 		movq	-472(%rbp), %rsi
 8658      FEFFFF
 8659 0058 488B8530 		movq	-464(%rbp), %rax
 8659      FEFFFF
 8660 005f 4889C7   		movq	%rax, %rdi
 8661 0062 E8000000 		call	_ZN8UnitTest13ArrayAreCloseIA3_fS1_fEEbRKT_RKT0_iRKT1_
 8661      00
 8662 0067 888547FE 		movb	%al, -441(%rbp)
 8662      FFFF
 8663              	.LBB61:
 100:../Checks.h   **** 
 101:../Checks.h   ****     if (!equal)
 8664              		.loc 6 101 0
 8665 006d 0FB68547 		movzbl	-441(%rbp), %eax
 8665      FEFFFF
 8666 0074 83F001   		xorl	$1, %eax
 8667 0077 84C0     		testb	%al, %al
 8668 0079 0F848C01 		je	.L421
 8668      0000
 8669              	.LBB62:
 102:../Checks.h   ****     {
 103:../Checks.h   ****         UnitTest::MemoryOutStream stream;
 8670              		.loc 6 103 0
 8671 007f 488D8550 		leaq	-432(%rbp), %rax
 8671      FEFFFF
 8672 0086 4889C7   		movq	%rax, %rdi
 8673              	.LEHB232:
 8674 0089 E8000000 		call	_ZN8UnitTest15MemoryOutStreamC1Ev
 8674      00
 8675              	.LEHE232:
 104:../Checks.h   **** 
 105:../Checks.h   ****         stream << "Expected [ ";
 8676              		.loc 6 105 0
 8677 008e 488D8550 		leaq	-432(%rbp), %rax
 8677      FEFFFF
 8678 0095 BE000000 		movl	$.LC99, %esi
 8678      00
 8679 009a 4889C7   		movq	%rax, %rdi
 8680              	.LEHB233:
 8681 009d E8000000 		call	_ZStlsISt11char_traitsIcEERSt13basic_ostreamIcT_ES5_PKc
 8681      00
 8682              	.LBB63:
 106:../Checks.h   ****         for (int expectedIndex = 0; expectedIndex < count; ++expectedIndex)
 8683              		.loc 6 106 0
 8684 00a2 C78548FE 		movl	$0, -440(%rbp)
 8684      FFFF0000 
 8684      0000
 8685              	.L415:
 8686              		.loc 6 106 0 is_stmt 0 discriminator 1
 8687 00ac 8B8548FE 		movl	-440(%rbp), %eax
 8687      FFFF
 8688 00b2 3B8524FE 		cmpl	-476(%rbp), %eax
 8688      FFFF
 8689 00b8 7D46     		jge	.L414
 107:../Checks.h   ****             stream << expected[expectedIndex] << " ";
 8690              		.loc 6 107 0 is_stmt 1
 8691 00ba 488B8530 		movq	-464(%rbp), %rax
 8691      FEFFFF
 8692 00c1 8B9548FE 		movl	-440(%rbp), %edx
 8692      FFFF
 8693 00c7 4863D2   		movslq	%edx, %rdx
 8694 00ca 8B1490   		movl	(%rax,%rdx,4), %edx
 8695 00cd 488D8550 		leaq	-432(%rbp), %rax
 8695      FEFFFF
 8696 00d4 899520FE 		movl	%edx, -480(%rbp)
 8696      FFFF
 8697 00da F30F1085 		movss	-480(%rbp), %xmm0
 8697      20FEFFFF 
 8698 00e2 4889C7   		movq	%rax, %rdi
 8699 00e5 E8000000 		call	_ZNSolsEf
 8699      00
 8700 00ea BE000000 		movl	$.LC100, %esi
 8700      00
 8701 00ef 4889C7   		movq	%rax, %rdi
 8702 00f2 E8000000 		call	_ZStlsISt11char_traitsIcEERSt13basic_ostreamIcT_ES5_PKc
 8702      00
 106:../Checks.h   ****         for (int expectedIndex = 0; expectedIndex < count; ++expectedIndex)
 8703              		.loc 6 106 0 discriminator 2
 8704 00f7 838548FE 		addl	$1, -440(%rbp)
 8704      FFFF01
 8705 00fe EBAC     		jmp	.L415
 8706              	.L414:
 8707              	.LBE63:
 108:../Checks.h   ****         stream << "] +/- " << tolerance << " but was [ ";
 8708              		.loc 6 108 0
 8709 0100 488B8518 		movq	-488(%rbp), %rax
 8709      FEFFFF
 8710 0107 8B18     		movl	(%rax), %ebx
 8711 0109 488D8550 		leaq	-432(%rbp), %rax
 8711      FEFFFF
 8712 0110 BE000000 		movl	$.LC103, %esi
 8712      00
 8713 0115 4889C7   		movq	%rax, %rdi
 8714 0118 E8000000 		call	_ZStlsISt11char_traitsIcEERSt13basic_ostreamIcT_ES5_PKc
 8714      00
 8715 011d 899D20FE 		movl	%ebx, -480(%rbp)
 8715      FFFF
 8716 0123 F30F1085 		movss	-480(%rbp), %xmm0
 8716      20FEFFFF 
 8717 012b 4889C7   		movq	%rax, %rdi
 8718 012e E8000000 		call	_ZNSolsEf
 8718      00
 8719              		.loc 6 108 0 is_stmt 0 discriminator 1
 8720 0133 BE000000 		movl	$.LC104, %esi
 8720      00
 8721 0138 4889C7   		movq	%rax, %rdi
 8722 013b E8000000 		call	_ZStlsISt11char_traitsIcEERSt13basic_ostreamIcT_ES5_PKc
 8722      00
 8723              	.LBB64:
 109:../Checks.h   **** 
 110:../Checks.h   **** 		for (int actualIndex = 0; actualIndex < count; ++actualIndex)
 8724              		.loc 6 110 0 is_stmt 1
 8725 0140 C7854CFE 		movl	$0, -436(%rbp)
 8725      FFFF0000 
 8725      0000
 8726              	.L417:
 8727              		.loc 6 110 0 is_stmt 0 discriminator 1
 8728 014a 8B854CFE 		movl	-436(%rbp), %eax
 8728      FFFF
 8729 0150 3B8524FE 		cmpl	-476(%rbp), %eax
 8729      FFFF
 8730 0156 7D46     		jge	.L416
 111:../Checks.h   ****             stream << actual[actualIndex] << " ";
 8731              		.loc 6 111 0 is_stmt 1
 8732 0158 488B8528 		movq	-472(%rbp), %rax
 8732      FEFFFF
 8733 015f 8B954CFE 		movl	-436(%rbp), %edx
 8733      FFFF
 8734 0165 4863D2   		movslq	%edx, %rdx
 8735 0168 8B1490   		movl	(%rax,%rdx,4), %edx
 8736 016b 488D8550 		leaq	-432(%rbp), %rax
 8736      FEFFFF
 8737 0172 899520FE 		movl	%edx, -480(%rbp)
 8737      FFFF
 8738 0178 F30F1085 		movss	-480(%rbp), %xmm0
 8738      20FEFFFF 
 8739 0180 4889C7   		movq	%rax, %rdi
 8740 0183 E8000000 		call	_ZNSolsEf
 8740      00
 8741 0188 BE000000 		movl	$.LC100, %esi
 8741      00
 8742 018d 4889C7   		movq	%rax, %rdi
 8743 0190 E8000000 		call	_ZStlsISt11char_traitsIcEERSt13basic_ostreamIcT_ES5_PKc
 8743      00
 110:../Checks.h   ****             stream << actual[actualIndex] << " ";
 8744              		.loc 6 110 0 discriminator 2
 8745 0195 83854CFE 		addl	$1, -436(%rbp)
 8745      FFFF01
 8746 019c EBAC     		jmp	.L417
 8747              	.L416:
 8748              	.LBE64:
 112:../Checks.h   ****         stream << "]";
 8749              		.loc 6 112 0
 8750 019e 488D8550 		leaq	-432(%rbp), %rax
 8750      FEFFFF
 8751 01a5 BE000000 		movl	$.LC102, %esi
 8751      00
 8752 01aa 4889C7   		movq	%rax, %rdi
 8753 01ad E8000000 		call	_ZStlsISt11char_traitsIcEERSt13basic_ostreamIcT_ES5_PKc
 8753      00
 113:../Checks.h   **** 
 114:../Checks.h   ****         results.OnTestFailure(details, stream.GetText());
 8754              		.loc 6 114 0
 8755 01b2 488D8550 		leaq	-432(%rbp), %rax
 8755      FEFFFF
 8756 01b9 4889C7   		movq	%rax, %rdi
 8757 01bc E8000000 		call	_ZNK8UnitTest15MemoryOutStream7GetTextEv
 8757      00
 8758 01c1 4889C2   		movq	%rax, %rdx
 8759 01c4 488B8D10 		movq	-496(%rbp), %rcx
 8759      FEFFFF
 8760 01cb 488B8538 		movq	-456(%rbp), %rax
 8760      FEFFFF
 8761 01d2 4889CE   		movq	%rcx, %rsi
 8762 01d5 4889C7   		movq	%rax, %rdi
 8763 01d8 E8000000 		call	_ZN8UnitTest11TestResults13OnTestFailureERKNS_11TestDetailsEPKc
 8763      00
 8764              	.LEHE233:
 103:../Checks.h   **** 
 8765              		.loc 6 103 0
 8766 01dd 488D8550 		leaq	-432(%rbp), %rax
 8766      FEFFFF
 8767 01e4 4889C7   		movq	%rax, %rdi
 8768              	.LEHB234:
 8769 01e7 E8000000 		call	_ZN8UnitTest15MemoryOutStreamD1Ev
 8769      00
 8770              	.LEHE234:
 8771              	.LBE62:
 8772              	.LBE61:
 115:../Checks.h   ****     }
 116:../Checks.h   **** }
 8773              		.loc 6 116 0
 8774 01ec EB1D     		jmp	.L421
 8775              	.L420:
 8776 01ee 4889C3   		movq	%rax, %rbx
 8777              	.LBB66:
 8778              	.LBB65:
 103:../Checks.h   **** 
 8779              		.loc 6 103 0
 8780 01f1 488D8550 		leaq	-432(%rbp), %rax
 8780      FEFFFF
 8781 01f8 4889C7   		movq	%rax, %rdi
 8782 01fb E8000000 		call	_ZN8UnitTest15MemoryOutStreamD1Ev
 8782      00
 8783 0200 4889D8   		movq	%rbx, %rax
 8784 0203 4889C7   		movq	%rax, %rdi
 8785              	.LEHB235:
 8786 0206 E8000000 		call	_Unwind_Resume
 8786      00
 8787              	.LEHE235:
 8788              	.L421:
 8789              	.LBE65:
 8790              	.LBE66:
 8791              		.loc 6 116 0
 8792 020b 90       		nop
 8793 020c 488B45E8 		movq	-24(%rbp), %rax
 8794 0210 64483304 		xorq	%fs:40, %rax
 8794      25280000 
 8794      00
 8795 0219 7405     		je	.L419
 8796 021b E8000000 		call	__stack_chk_fail
 8796      00
 8797              	.L419:
 8798 0220 4881C4E8 		addq	$488, %rsp
 8798      010000
 8799 0227 5B       		popq	%rbx
 8800 0228 5D       		popq	%rbp
 8801              		.cfi_def_cfa 7, 8
 8802 0229 C3       		ret
 8803              		.cfi_endproc
 8804              	.LFE1221:
 8805              		.section	.gcc_except_table
 8806              	.LLSDA1221:
 8807 0667 FF       		.byte	0xff
 8808 0668 FF       		.byte	0xff
 8809 0669 01       		.byte	0x1
 8810 066a 16       		.uleb128 .LLSDACSE1221-.LLSDACSB1221
 8811              	.LLSDACSB1221:
 8812 066b 8901     		.uleb128 .LEHB232-.LFB1221
 8813 066d 05       		.uleb128 .LEHE232-.LEHB232
 8814 066e 00       		.uleb128 0
 8815 066f 00       		.uleb128 0
 8816 0670 9D01     		.uleb128 .LEHB233-.LFB1221
 8817 0672 C002     		.uleb128 .LEHE233-.LEHB233
 8818 0674 EE03     		.uleb128 .L420-.LFB1221
 8819 0676 00       		.uleb128 0
 8820 0677 E703     		.uleb128 .LEHB234-.LFB1221
 8821 0679 05       		.uleb128 .LEHE234-.LEHB234
 8822 067a 00       		.uleb128 0
 8823 067b 00       		.uleb128 0
 8824 067c 8604     		.uleb128 .LEHB235-.LFB1221
 8825 067e 05       		.uleb128 .LEHE235-.LEHB235
 8826 067f 00       		.uleb128 0
 8827 0680 00       		.uleb128 0
 8828              	.LLSDACSE1221:
 8829              		.section	.text._ZN8UnitTest15CheckArrayCloseIA3_fS1_fEEvRNS_11TestResultsERKT_RKT0_iRKT1_RKNS_11Te
 8831              		.section	.rodata
 8832              	.LC105:
 8833 0bf4 5B2000   		.string	"[ "
 8834              	.LC106:
 8835 0bf7 5D2000   		.string	"] "
 8836              		.section	.text._ZN8UnitTest17CheckArray2DCloseIA3_A3_fS2_fEEvRNS_11TestResultsERKT_RKT0_iiRKT1_RKN
 8837              		.weak	_ZN8UnitTest17CheckArray2DCloseIA3_A3_fS2_fEEvRNS_11TestResultsERKT_RKT0_iiRKT1_RKNS_11TestD
 8839              	_ZN8UnitTest17CheckArray2DCloseIA3_A3_fS2_fEEvRNS_11TestResultsERKT_RKT0_iiRKT1_RKNS_11TestDetailsE
 8840              	.LFB1222:
 117:../Checks.h   **** 
 118:../Checks.h   **** template< typename Expected, typename Actual, typename Tolerance >
 119:../Checks.h   **** void CheckArray2DClose(TestResults& results, Expected const& expected, Actual const& actual,
 8841              		.loc 6 119 0
 8842              		.cfi_startproc
 8843              		.cfi_personality 0x3,__gxx_personality_v0
 8844              		.cfi_lsda 0x3,.LLSDA1222
 8845 0000 55       		pushq	%rbp
 8846              		.cfi_def_cfa_offset 16
 8847              		.cfi_offset 6, -16
 8848 0001 4889E5   		movq	%rsp, %rbp
 8849              		.cfi_def_cfa_register 6
 8850 0004 53       		pushq	%rbx
 8851 0005 4881EC08 		subq	$520, %rsp
 8851      020000
 8852              		.cfi_offset 3, -24
 8853 000c 4889BD28 		movq	%rdi, -472(%rbp)
 8853      FEFFFF
 8854 0013 4889B520 		movq	%rsi, -480(%rbp)
 8854      FEFFFF
 8855 001a 48899518 		movq	%rdx, -488(%rbp)
 8855      FEFFFF
 8856 0021 898D14FE 		movl	%ecx, -492(%rbp)
 8856      FFFF
 8857 0027 44898510 		movl	%r8d, -496(%rbp)
 8857      FEFFFF
 8858 002e 4C898D08 		movq	%r9, -504(%rbp)
 8858      FEFFFF
 8859 0035 488B4510 		movq	16(%rbp), %rax
 8860 0039 48898500 		movq	%rax, -512(%rbp)
 8860      FEFFFF
 8861              		.loc 6 119 0
 8862 0040 64488B04 		movq	%fs:40, %rax
 8862      25280000 
 8862      00
 8863 0049 488945E8 		movq	%rax, -24(%rbp)
 8864 004d 31C0     		xorl	%eax, %eax
 120:../Checks.h   ****                    int const rows, int const columns, Tolerance const& tolerance, TestDetails const
 121:../Checks.h   **** {
 122:../Checks.h   ****     bool equal = true;
 8865              		.loc 6 122 0
 8866 004f C6853BFE 		movb	$1, -453(%rbp)
 8866      FFFF01
 8867              	.LBB67:
 123:../Checks.h   ****     for (int i = 0; i < rows; ++i)
 8868              		.loc 6 123 0
 8869 0056 C7853CFE 		movl	$0, -452(%rbp)
 8869      FFFF0000 
 8869      0000
 8870              	.L424:
 8871              		.loc 6 123 0 is_stmt 0 discriminator 3
 8872 0060 8B853CFE 		movl	-452(%rbp), %eax
 8872      FFFF
 8873 0066 3B8514FE 		cmpl	-492(%rbp), %eax
 8873      FFFF
 8874 006c 7D7C     		jge	.L423
 124:../Checks.h   ****         equal &= ArrayAreClose(expected[i], actual[i], columns, tolerance);
 8875              		.loc 6 124 0 is_stmt 1 discriminator 2
 8876 006e 8B853CFE 		movl	-452(%rbp), %eax
 8876      FFFF
 8877 0074 4863D0   		movslq	%eax, %rdx
 8878 0077 4889D0   		movq	%rdx, %rax
 8879 007a 4801C0   		addq	%rax, %rax
 8880 007d 4801D0   		addq	%rdx, %rax
 8881 0080 48C1E002 		salq	$2, %rax
 8882 0084 488B9518 		movq	-488(%rbp), %rdx
 8882      FEFFFF
 8883 008b 488D3410 		leaq	(%rax,%rdx), %rsi
 8884 008f 8B853CFE 		movl	-452(%rbp), %eax
 8884      FFFF
 8885 0095 4863D0   		movslq	%eax, %rdx
 8886 0098 4889D0   		movq	%rdx, %rax
 8887 009b 4801C0   		addq	%rax, %rax
 8888 009e 4801D0   		addq	%rdx, %rax
 8889 00a1 48C1E002 		salq	$2, %rax
 8890 00a5 488B9520 		movq	-480(%rbp), %rdx
 8890      FEFFFF
 8891 00ac 488D3C10 		leaq	(%rax,%rdx), %rdi
 8892 00b0 488B9508 		movq	-504(%rbp), %rdx
 8892      FEFFFF
 8893 00b7 8B8510FE 		movl	-496(%rbp), %eax
 8893      FFFF
 8894 00bd 4889D1   		movq	%rdx, %rcx
 8895 00c0 89C2     		movl	%eax, %edx
 8896 00c2 E8000000 		call	_ZN8UnitTest13ArrayAreCloseIA3_fS1_fEEbRKT_RKT0_iRKT1_
 8896      00
 8897 00c7 0FB6953B 		movzbl	-453(%rbp), %edx
 8897      FEFFFF
 8898 00ce 0FB6C0   		movzbl	%al, %eax
 8899 00d1 21D0     		andl	%edx, %eax
 8900 00d3 85C0     		testl	%eax, %eax
 8901 00d5 0F95C0   		setne	%al
 8902 00d8 88853BFE 		movb	%al, -453(%rbp)
 8902      FFFF
 123:../Checks.h   ****     for (int i = 0; i < rows; ++i)
 8903              		.loc 6 123 0 discriminator 2
 8904 00de 83853CFE 		addl	$1, -452(%rbp)
 8904      FFFF01
 8905 00e5 E976FFFF 		jmp	.L424
 8905      FF
 8906              	.L423:
 8907              	.LBE67:
 8908              	.LBB68:
 125:../Checks.h   **** 
 126:../Checks.h   ****     if (!equal)
 8909              		.loc 6 126 0
 8910 00ea 0FB6853B 		movzbl	-453(%rbp), %eax
 8910      FEFFFF
 8911 00f1 83F001   		xorl	$1, %eax
 8912 00f4 84C0     		testb	%al, %al
 8913 00f6 0F845602 		je	.L437
 8913      0000
 8914              	.LBB69:
 127:../Checks.h   ****     {
 128:../Checks.h   ****         UnitTest::MemoryOutStream stream;
 8915              		.loc 6 128 0
 8916 00fc 488D8550 		leaq	-432(%rbp), %rax
 8916      FEFFFF
 8917 0103 4889C7   		movq	%rax, %rdi
 8918              	.LEHB236:
 8919 0106 E8000000 		call	_ZN8UnitTest15MemoryOutStreamC1Ev
 8919      00
 8920              	.LEHE236:
 129:../Checks.h   **** 
 130:../Checks.h   ****         stream << "Expected [ ";    
 8921              		.loc 6 130 0
 8922 010b 488D8550 		leaq	-432(%rbp), %rax
 8922      FEFFFF
 8923 0112 BE000000 		movl	$.LC99, %esi
 8923      00
 8924 0117 4889C7   		movq	%rax, %rdi
 8925              	.LEHB237:
 8926 011a E8000000 		call	_ZStlsISt11char_traitsIcEERSt13basic_ostreamIcT_ES5_PKc
 8926      00
 8927              	.LBB70:
 131:../Checks.h   **** 
 132:../Checks.h   **** 		for (int expectedRow = 0; expectedRow < rows; ++expectedRow)
 8928              		.loc 6 132 0
 8929 011f C78540FE 		movl	$0, -448(%rbp)
 8929      FFFF0000 
 8929      0000
 8930              	.L429:
 8931              		.loc 6 132 0 is_stmt 0 discriminator 1
 8932 0129 8B8540FE 		movl	-448(%rbp), %eax
 8932      FFFF
 8933 012f 3B8514FE 		cmpl	-492(%rbp), %eax
 8933      FFFF
 8934 0135 0F8DA700 		jge	.L426
 8934      0000
 8935              	.LBB71:
 133:../Checks.h   ****         {
 134:../Checks.h   ****             stream << "[ ";
 8936              		.loc 6 134 0 is_stmt 1
 8937 013b 488D8550 		leaq	-432(%rbp), %rax
 8937      FEFFFF
 8938 0142 BE000000 		movl	$.LC105, %esi
 8938      00
 8939 0147 4889C7   		movq	%rax, %rdi
 8940 014a E8000000 		call	_ZStlsISt11char_traitsIcEERSt13basic_ostreamIcT_ES5_PKc
 8940      00
 8941              	.LBB72:
 135:../Checks.h   ****             for (int expectedColumn = 0; expectedColumn < columns; ++expectedColumn)
 8942              		.loc 6 135 0
 8943 014f C78544FE 		movl	$0, -444(%rbp)
 8943      FFFF0000 
 8943      0000
 8944              	.L428:
 8945              		.loc 6 135 0 is_stmt 0 discriminator 1
 8946 0159 8B8544FE 		movl	-444(%rbp), %eax
 8946      FFFF
 8947 015f 3B8510FE 		cmpl	-496(%rbp), %eax
 8947      FFFF
 8948 0165 7D5B     		jge	.L427
 136:../Checks.h   ****                 stream << expected[expectedRow][expectedColumn] << " ";
 8949              		.loc 6 136 0 is_stmt 1
 8950 0167 488B8D20 		movq	-480(%rbp), %rcx
 8950      FEFFFF
 8951 016e 8B8544FE 		movl	-444(%rbp), %eax
 8951      FFFF
 8952 0174 4863F0   		movslq	%eax, %rsi
 8953 0177 8B8540FE 		movl	-448(%rbp), %eax
 8953      FFFF
 8954 017d 4863D0   		movslq	%eax, %rdx
 8955 0180 4889D0   		movq	%rdx, %rax
 8956 0183 4801C0   		addq	%rax, %rax
 8957 0186 4801D0   		addq	%rdx, %rax
 8958 0189 4801F0   		addq	%rsi, %rax
 8959 018c 8B1481   		movl	(%rcx,%rax,4), %edx
 8960 018f 488D8550 		leaq	-432(%rbp), %rax
 8960      FEFFFF
 8961 0196 8995FCFD 		movl	%edx, -516(%rbp)
 8961      FFFF
 8962 019c F30F1085 		movss	-516(%rbp), %xmm0
 8962      FCFDFFFF 
 8963 01a4 4889C7   		movq	%rax, %rdi
 8964 01a7 E8000000 		call	_ZNSolsEf
 8964      00
 8965 01ac BE000000 		movl	$.LC100, %esi
 8965      00
 8966 01b1 4889C7   		movq	%rax, %rdi
 8967 01b4 E8000000 		call	_ZStlsISt11char_traitsIcEERSt13basic_ostreamIcT_ES5_PKc
 8967      00
 135:../Checks.h   ****             for (int expectedColumn = 0; expectedColumn < columns; ++expectedColumn)
 8968              		.loc 6 135 0 discriminator 2
 8969 01b9 838544FE 		addl	$1, -444(%rbp)
 8969      FFFF01
 8970 01c0 EB97     		jmp	.L428
 8971              	.L427:
 8972              	.LBE72:
 137:../Checks.h   ****             stream << "] ";
 8973              		.loc 6 137 0
 8974 01c2 488D8550 		leaq	-432(%rbp), %rax
 8974      FEFFFF
 8975 01c9 BE000000 		movl	$.LC106, %esi
 8975      00
 8976 01ce 4889C7   		movq	%rax, %rdi
 8977 01d1 E8000000 		call	_ZStlsISt11char_traitsIcEERSt13basic_ostreamIcT_ES5_PKc
 8977      00
 8978              	.LBE71:
 132:../Checks.h   ****         {
 8979              		.loc 6 132 0 discriminator 2
 8980 01d6 838540FE 		addl	$1, -448(%rbp)
 8980      FFFF01
 8981 01dd E947FFFF 		jmp	.L429
 8981      FF
 8982              	.L426:
 8983              	.LBE70:
 138:../Checks.h   ****         }
 139:../Checks.h   **** 
 140:../Checks.h   **** 		stream << "] +/- " << tolerance << " but was [ ";
 8984              		.loc 6 140 0
 8985 01e2 488B8508 		movq	-504(%rbp), %rax
 8985      FEFFFF
 8986 01e9 8B18     		movl	(%rax), %ebx
 8987 01eb 488D8550 		leaq	-432(%rbp), %rax
 8987      FEFFFF
 8988 01f2 BE000000 		movl	$.LC103, %esi
 8988      00
 8989 01f7 4889C7   		movq	%rax, %rdi
 8990 01fa E8000000 		call	_ZStlsISt11char_traitsIcEERSt13basic_ostreamIcT_ES5_PKc
 8990      00
 8991 01ff 899DFCFD 		movl	%ebx, -516(%rbp)
 8991      FFFF
 8992 0205 F30F1085 		movss	-516(%rbp), %xmm0
 8992      FCFDFFFF 
 8993 020d 4889C7   		movq	%rax, %rdi
 8994 0210 E8000000 		call	_ZNSolsEf
 8994      00
 8995              		.loc 6 140 0 is_stmt 0 discriminator 1
 8996 0215 BE000000 		movl	$.LC104, %esi
 8996      00
 8997 021a 4889C7   		movq	%rax, %rdi
 8998 021d E8000000 		call	_ZStlsISt11char_traitsIcEERSt13basic_ostreamIcT_ES5_PKc
 8998      00
 8999              	.LBB73:
 141:../Checks.h   **** 
 142:../Checks.h   **** 		for (int actualRow = 0; actualRow < rows; ++actualRow)
 9000              		.loc 6 142 0 is_stmt 1
 9001 0222 C78548FE 		movl	$0, -440(%rbp)
 9001      FFFF0000 
 9001      0000
 9002              	.L433:
 9003              		.loc 6 142 0 is_stmt 0 discriminator 1
 9004 022c 8B8548FE 		movl	-440(%rbp), %eax
 9004      FFFF
 9005 0232 3B8514FE 		cmpl	-492(%rbp), %eax
 9005      FFFF
 9006 0238 0F8DA700 		jge	.L430
 9006      0000
 9007              	.LBB74:
 143:../Checks.h   ****         {
 144:../Checks.h   ****             stream << "[ ";
 9008              		.loc 6 144 0 is_stmt 1
 9009 023e 488D8550 		leaq	-432(%rbp), %rax
 9009      FEFFFF
 9010 0245 BE000000 		movl	$.LC105, %esi
 9010      00
 9011 024a 4889C7   		movq	%rax, %rdi
 9012 024d E8000000 		call	_ZStlsISt11char_traitsIcEERSt13basic_ostreamIcT_ES5_PKc
 9012      00
 9013              	.LBB75:
 145:../Checks.h   ****             for (int actualColumn = 0; actualColumn < columns; ++actualColumn)
 9014              		.loc 6 145 0
 9015 0252 C7854CFE 		movl	$0, -436(%rbp)
 9015      FFFF0000 
 9015      0000
 9016              	.L432:
 9017              		.loc 6 145 0 is_stmt 0 discriminator 1
 9018 025c 8B854CFE 		movl	-436(%rbp), %eax
 9018      FFFF
 9019 0262 3B8510FE 		cmpl	-496(%rbp), %eax
 9019      FFFF
 9020 0268 7D5B     		jge	.L431
 146:../Checks.h   ****                 stream << actual[actualRow][actualColumn] << " ";
 9021              		.loc 6 146 0 is_stmt 1
 9022 026a 488B8D18 		movq	-488(%rbp), %rcx
 9022      FEFFFF
 9023 0271 8B854CFE 		movl	-436(%rbp), %eax
 9023      FFFF
 9024 0277 4863F0   		movslq	%eax, %rsi
 9025 027a 8B8548FE 		movl	-440(%rbp), %eax
 9025      FFFF
 9026 0280 4863D0   		movslq	%eax, %rdx
 9027 0283 4889D0   		movq	%rdx, %rax
 9028 0286 4801C0   		addq	%rax, %rax
 9029 0289 4801D0   		addq	%rdx, %rax
 9030 028c 4801F0   		addq	%rsi, %rax
 9031 028f 8B1481   		movl	(%rcx,%rax,4), %edx
 9032 0292 488D8550 		leaq	-432(%rbp), %rax
 9032      FEFFFF
 9033 0299 8995FCFD 		movl	%edx, -516(%rbp)
 9033      FFFF
 9034 029f F30F1085 		movss	-516(%rbp), %xmm0
 9034      FCFDFFFF 
 9035 02a7 4889C7   		movq	%rax, %rdi
 9036 02aa E8000000 		call	_ZNSolsEf
 9036      00
 9037 02af BE000000 		movl	$.LC100, %esi
 9037      00
 9038 02b4 4889C7   		movq	%rax, %rdi
 9039 02b7 E8000000 		call	_ZStlsISt11char_traitsIcEERSt13basic_ostreamIcT_ES5_PKc
 9039      00
 145:../Checks.h   ****             for (int actualColumn = 0; actualColumn < columns; ++actualColumn)
 9040              		.loc 6 145 0 discriminator 2
 9041 02bc 83854CFE 		addl	$1, -436(%rbp)
 9041      FFFF01
 9042 02c3 EB97     		jmp	.L432
 9043              	.L431:
 9044              	.LBE75:
 147:../Checks.h   ****             stream << "] ";
 9045              		.loc 6 147 0
 9046 02c5 488D8550 		leaq	-432(%rbp), %rax
 9046      FEFFFF
 9047 02cc BE000000 		movl	$.LC106, %esi
 9047      00
 9048 02d1 4889C7   		movq	%rax, %rdi
 9049 02d4 E8000000 		call	_ZStlsISt11char_traitsIcEERSt13basic_ostreamIcT_ES5_PKc
 9049      00
 9050              	.LBE74:
 142:../Checks.h   ****         {
 9051              		.loc 6 142 0 discriminator 2
 9052 02d9 838548FE 		addl	$1, -440(%rbp)
 9052      FFFF01
 9053 02e0 E947FFFF 		jmp	.L433
 9053      FF
 9054              	.L430:
 9055              	.LBE73:
 148:../Checks.h   ****         }
 149:../Checks.h   **** 
 150:../Checks.h   **** 		stream << "]";
 9056              		.loc 6 150 0
 9057 02e5 488D8550 		leaq	-432(%rbp), %rax
 9057      FEFFFF
 9058 02ec BE000000 		movl	$.LC102, %esi
 9058      00
 9059 02f1 4889C7   		movq	%rax, %rdi
 9060 02f4 E8000000 		call	_ZStlsISt11char_traitsIcEERSt13basic_ostreamIcT_ES5_PKc
 9060      00
 151:../Checks.h   **** 
 152:../Checks.h   ****         results.OnTestFailure(details, stream.GetText());
 9061              		.loc 6 152 0
 9062 02f9 488D8550 		leaq	-432(%rbp), %rax
 9062      FEFFFF
 9063 0300 4889C7   		movq	%rax, %rdi
 9064 0303 E8000000 		call	_ZNK8UnitTest15MemoryOutStream7GetTextEv
 9064      00
 9065 0308 4889C2   		movq	%rax, %rdx
 9066 030b 488B8D00 		movq	-512(%rbp), %rcx
 9066      FEFFFF
 9067 0312 488B8528 		movq	-472(%rbp), %rax
 9067      FEFFFF
 9068 0319 4889CE   		movq	%rcx, %rsi
 9069 031c 4889C7   		movq	%rax, %rdi
 9070 031f E8000000 		call	_ZN8UnitTest11TestResults13OnTestFailureERKNS_11TestDetailsEPKc
 9070      00
 9071              	.LEHE237:
 128:../Checks.h   **** 
 9072              		.loc 6 128 0
 9073 0324 488D8550 		leaq	-432(%rbp), %rax
 9073      FEFFFF
 9074 032b 4889C7   		movq	%rax, %rdi
 9075              	.LEHB238:
 9076 032e E8000000 		call	_ZN8UnitTest15MemoryOutStreamD1Ev
 9076      00
 9077              	.LEHE238:
 9078              	.LBE69:
 9079              	.LBE68:
 153:../Checks.h   ****     }
 154:../Checks.h   **** }
 9080              		.loc 6 154 0
 9081 0333 EB1D     		jmp	.L437
 9082              	.L436:
 9083 0335 4889C3   		movq	%rax, %rbx
 9084              	.LBB77:
 9085              	.LBB76:
 128:../Checks.h   **** 
 9086              		.loc 6 128 0
 9087 0338 488D8550 		leaq	-432(%rbp), %rax
 9087      FEFFFF
 9088 033f 4889C7   		movq	%rax, %rdi
 9089 0342 E8000000 		call	_ZN8UnitTest15MemoryOutStreamD1Ev
 9089      00
 9090 0347 4889D8   		movq	%rbx, %rax
 9091 034a 4889C7   		movq	%rax, %rdi
 9092              	.LEHB239:
 9093 034d E8000000 		call	_Unwind_Resume
 9093      00
 9094              	.LEHE239:
 9095              	.L437:
 9096              	.LBE76:
 9097              	.LBE77:
 9098              		.loc 6 154 0
 9099 0352 90       		nop
 9100 0353 488B45E8 		movq	-24(%rbp), %rax
 9101 0357 64483304 		xorq	%fs:40, %rax
 9101      25280000 
 9101      00
 9102 0360 7405     		je	.L435
 9103 0362 E8000000 		call	__stack_chk_fail
 9103      00
 9104              	.L435:
 9105 0367 4881C408 		addq	$520, %rsp
 9105      020000
 9106 036e 5B       		popq	%rbx
 9107 036f 5D       		popq	%rbp
 9108              		.cfi_def_cfa 7, 8
 9109 0370 C3       		ret
 9110              		.cfi_endproc
 9111              	.LFE1222:
 9112              		.section	.gcc_except_table
 9113              	.LLSDA1222:
 9114 0681 FF       		.byte	0xff
 9115 0682 FF       		.byte	0xff
 9116 0683 01       		.byte	0x1
 9117 0684 16       		.uleb128 .LLSDACSE1222-.LLSDACSB1222
 9118              	.LLSDACSB1222:
 9119 0685 8602     		.uleb128 .LEHB236-.LFB1222
 9120 0687 05       		.uleb128 .LEHE236-.LEHB236
 9121 0688 00       		.uleb128 0
 9122 0689 00       		.uleb128 0
 9123 068a 9A02     		.uleb128 .LEHB237-.LFB1222
 9124 068c 8A04     		.uleb128 .LEHE237-.LEHB237
 9125 068e B506     		.uleb128 .L436-.LFB1222
 9126 0690 00       		.uleb128 0
 9127 0691 AE06     		.uleb128 .LEHB238-.LFB1222
 9128 0693 05       		.uleb128 .LEHE238-.LEHB238
 9129 0694 00       		.uleb128 0
 9130 0695 00       		.uleb128 0
 9131 0696 CD06     		.uleb128 .LEHB239-.LFB1222
 9132 0698 05       		.uleb128 .LEHE239-.LEHB239
 9133 0699 00       		.uleb128 0
 9134 069a 00       		.uleb128 0
 9135              	.LLSDACSE1222:
 9136              		.section	.text._ZN8UnitTest17CheckArray2DCloseIA3_A3_fS2_fEEvRNS_11TestResultsERKT_RKT0_iiRKT1_RKN
 9138              		.section	.text._ZN8UnitTest10CheckCloseIdddEEvRNS_11TestResultsERKT_RKT0_RKT1_RKNS_11TestDetailsE,
 9139              		.weak	_ZN8UnitTest10CheckCloseIdddEEvRNS_11TestResultsERKT_RKT0_RKT1_RKNS_11TestDetailsE
 9141              	_ZN8UnitTest10CheckCloseIdddEEvRNS_11TestResultsERKT_RKT0_RKT1_RKNS_11TestDetailsE:
 9142              	.LFB1223:
  45:../Checks.h   ****                 TestDetails const& details)
 9143              		.loc 6 45 0
 9144              		.cfi_startproc
 9145              		.cfi_personality 0x3,__gxx_personality_v0
 9146              		.cfi_lsda 0x3,.LLSDA1223
 9147 0000 55       		pushq	%rbp
 9148              		.cfi_def_cfa_offset 16
 9149              		.cfi_offset 6, -16
 9150 0001 4889E5   		movq	%rsp, %rbp
 9151              		.cfi_def_cfa_register 6
 9152 0004 4155     		pushq	%r13
 9153 0006 4154     		pushq	%r12
 9154 0008 53       		pushq	%rbx
 9155 0009 4881ECD8 		subq	$472, %rsp
 9155      010000
 9156              		.cfi_offset 13, -24
 9157              		.cfi_offset 12, -32
 9158              		.cfi_offset 3, -40
 9159 0010 4889BD38 		movq	%rdi, -456(%rbp)
 9159      FEFFFF
 9160 0017 4889B530 		movq	%rsi, -464(%rbp)
 9160      FEFFFF
 9161 001e 48899528 		movq	%rdx, -472(%rbp)
 9161      FEFFFF
 9162 0025 48898D20 		movq	%rcx, -480(%rbp)
 9162      FEFFFF
 9163 002c 4C898518 		movq	%r8, -488(%rbp)
 9163      FEFFFF
  45:../Checks.h   ****                 TestDetails const& details)
 9164              		.loc 6 45 0
 9165 0033 64488B04 		movq	%fs:40, %rax
 9165      25280000 
 9165      00
 9166 003c 488945D8 		movq	%rax, -40(%rbp)
 9167 0040 31C0     		xorl	%eax, %eax
 9168              	.LBB78:
  48:../Checks.h   ****     { 
 9169              		.loc 6 48 0
 9170 0042 488B9520 		movq	-480(%rbp), %rdx
 9170      FEFFFF
 9171 0049 488B8D28 		movq	-472(%rbp), %rcx
 9171      FEFFFF
 9172 0050 488B8530 		movq	-464(%rbp), %rax
 9172      FEFFFF
 9173 0057 4889CE   		movq	%rcx, %rsi
 9174 005a 4889C7   		movq	%rax, %rdi
 9175 005d E8000000 		call	_ZN8UnitTest8AreCloseIdddEEbRKT_RKT0_RKT1_
 9175      00
 9176 0062 83F001   		xorl	$1, %eax
 9177 0065 84C0     		testb	%al, %al
 9178 0067 0F84F900 		je	.L443
 9178      0000
 9179              	.LBB79:
  50:../Checks.h   ****         stream << "Expected " << expected << " +/- " << tolerance << " but was " << actual;
 9180              		.loc 6 50 0
 9181 006d 488D8540 		leaq	-448(%rbp), %rax
 9181      FEFFFF
 9182 0074 4889C7   		movq	%rax, %rdi
 9183              	.LEHB240:
 9184 0077 E8000000 		call	_ZN8UnitTest15MemoryOutStreamC1Ev
 9184      00
 9185              	.LEHE240:
  51:../Checks.h   **** 
 9186              		.loc 6 51 0
 9187 007c 488B8528 		movq	-472(%rbp), %rax
 9187      FEFFFF
 9188 0083 488B18   		movq	(%rax), %rbx
 9189 0086 488B8520 		movq	-480(%rbp), %rax
 9189      FEFFFF
 9190 008d 4C8B20   		movq	(%rax), %r12
 9191 0090 488B8530 		movq	-464(%rbp), %rax
 9191      FEFFFF
 9192 0097 4C8B28   		movq	(%rax), %r13
 9193 009a 488D8540 		leaq	-448(%rbp), %rax
 9193      FEFFFF
 9194 00a1 BE000000 		movl	$.LC96, %esi
 9194      00
 9195 00a6 4889C7   		movq	%rax, %rdi
 9196              	.LEHB241:
 9197 00a9 E8000000 		call	_ZStlsISt11char_traitsIcEERSt13basic_ostreamIcT_ES5_PKc
 9197      00
 9198 00ae 4C89AD10 		movq	%r13, -496(%rbp)
 9198      FEFFFF
 9199 00b5 F20F1085 		movsd	-496(%rbp), %xmm0
 9199      10FEFFFF 
 9200 00bd 4889C7   		movq	%rax, %rdi
 9201 00c0 E8000000 		call	_ZNSolsEd
 9201      00
  51:../Checks.h   **** 
 9202              		.loc 6 51 0 is_stmt 0 discriminator 1
 9203 00c5 BE000000 		movl	$.LC98, %esi
 9203      00
 9204 00ca 4889C7   		movq	%rax, %rdi
 9205 00cd E8000000 		call	_ZStlsISt11char_traitsIcEERSt13basic_ostreamIcT_ES5_PKc
 9205      00
  51:../Checks.h   **** 
 9206              		.loc 6 51 0 discriminator 2
 9207 00d2 4C89A510 		movq	%r12, -496(%rbp)
 9207      FEFFFF
 9208 00d9 F20F1085 		movsd	-496(%rbp), %xmm0
 9208      10FEFFFF 
 9209 00e1 4889C7   		movq	%rax, %rdi
 9210 00e4 E8000000 		call	_ZNSolsEd
 9210      00
  51:../Checks.h   **** 
 9211              		.loc 6 51 0 discriminator 3
 9212 00e9 BE000000 		movl	$.LC97, %esi
 9212      00
 9213 00ee 4889C7   		movq	%rax, %rdi
 9214 00f1 E8000000 		call	_ZStlsISt11char_traitsIcEERSt13basic_ostreamIcT_ES5_PKc
 9214      00
  51:../Checks.h   **** 
 9215              		.loc 6 51 0 discriminator 4
 9216 00f6 48899D10 		movq	%rbx, -496(%rbp)
 9216      FEFFFF
 9217 00fd F20F1085 		movsd	-496(%rbp), %xmm0
 9217      10FEFFFF 
 9218 0105 4889C7   		movq	%rax, %rdi
 9219 0108 E8000000 		call	_ZNSolsEd
 9219      00
  53:../Checks.h   ****     }
 9220              		.loc 6 53 0 is_stmt 1
 9221 010d 488D8540 		leaq	-448(%rbp), %rax
 9221      FEFFFF
 9222 0114 4889C7   		movq	%rax, %rdi
 9223 0117 E8000000 		call	_ZNK8UnitTest15MemoryOutStream7GetTextEv
 9223      00
 9224 011c 4889C2   		movq	%rax, %rdx
 9225 011f 488B8D18 		movq	-488(%rbp), %rcx
 9225      FEFFFF
 9226 0126 488B8538 		movq	-456(%rbp), %rax
 9226      FEFFFF
 9227 012d 4889CE   		movq	%rcx, %rsi
 9228 0130 4889C7   		movq	%rax, %rdi
 9229 0133 E8000000 		call	_ZN8UnitTest11TestResults13OnTestFailureERKNS_11TestDetailsEPKc
 9229      00
 9230              	.LEHE241:
  50:../Checks.h   ****         stream << "Expected " << expected << " +/- " << tolerance << " but was " << actual;
 9231              		.loc 6 50 0
 9232 0138 488D8540 		leaq	-448(%rbp), %rax
 9232      FEFFFF
 9233 013f 4889C7   		movq	%rax, %rdi
 9234              	.LEHB242:
 9235 0142 E8000000 		call	_ZN8UnitTest15MemoryOutStreamD1Ev
 9235      00
 9236              	.LEHE242:
 9237              	.LBE79:
 9238              	.LBE78:
  55:../Checks.h   **** 
 9239              		.loc 6 55 0
 9240 0147 EB1D     		jmp	.L443
 9241              	.L442:
 9242 0149 4889C3   		movq	%rax, %rbx
 9243              	.LBB81:
 9244              	.LBB80:
  50:../Checks.h   ****         stream << "Expected " << expected << " +/- " << tolerance << " but was " << actual;
 9245              		.loc 6 50 0
 9246 014c 488D8540 		leaq	-448(%rbp), %rax
 9246      FEFFFF
 9247 0153 4889C7   		movq	%rax, %rdi
 9248 0156 E8000000 		call	_ZN8UnitTest15MemoryOutStreamD1Ev
 9248      00
 9249 015b 4889D8   		movq	%rbx, %rax
 9250 015e 4889C7   		movq	%rax, %rdi
 9251              	.LEHB243:
 9252 0161 E8000000 		call	_Unwind_Resume
 9252      00
 9253              	.LEHE243:
 9254              	.L443:
 9255              	.LBE80:
 9256              	.LBE81:
  55:../Checks.h   **** 
 9257              		.loc 6 55 0
 9258 0166 90       		nop
 9259 0167 488B45D8 		movq	-40(%rbp), %rax
 9260 016b 64483304 		xorq	%fs:40, %rax
 9260      25280000 
 9260      00
 9261 0174 7405     		je	.L441
 9262 0176 E8000000 		call	__stack_chk_fail
 9262      00
 9263              	.L441:
 9264 017b 4881C4D8 		addq	$472, %rsp
 9264      010000
 9265 0182 5B       		popq	%rbx
 9266 0183 415C     		popq	%r12
 9267 0185 415D     		popq	%r13
 9268 0187 5D       		popq	%rbp
 9269              		.cfi_def_cfa 7, 8
 9270 0188 C3       		ret
 9271              		.cfi_endproc
 9272              	.LFE1223:
 9273              		.section	.gcc_except_table
 9274              	.LLSDA1223:
 9275 069b FF       		.byte	0xff
 9276 069c FF       		.byte	0xff
 9277 069d 01       		.byte	0x1
 9278 069e 15       		.uleb128 .LLSDACSE1223-.LLSDACSB1223
 9279              	.LLSDACSB1223:
 9280 069f 77       		.uleb128 .LEHB240-.LFB1223
 9281 06a0 05       		.uleb128 .LEHE240-.LEHB240
 9282 06a1 00       		.uleb128 0
 9283 06a2 00       		.uleb128 0
 9284 06a3 A901     		.uleb128 .LEHB241-.LFB1223
 9285 06a5 8F01     		.uleb128 .LEHE241-.LEHB241
 9286 06a7 C902     		.uleb128 .L442-.LFB1223
 9287 06a9 00       		.uleb128 0
 9288 06aa C202     		.uleb128 .LEHB242-.LFB1223
 9289 06ac 05       		.uleb128 .LEHE242-.LEHB242
 9290 06ad 00       		.uleb128 0
 9291 06ae 00       		.uleb128 0
 9292 06af E102     		.uleb128 .LEHB243-.LFB1223
 9293 06b1 05       		.uleb128 .LEHE243-.LEHB243
 9294 06b2 00       		.uleb128 0
 9295 06b3 00       		.uleb128 0
 9296              	.LLSDACSE1223:
 9297              		.section	.text._ZN8UnitTest10CheckCloseIdddEEvRNS_11TestResultsERKT_RKT0_RKT1_RKNS_11TestDetailsE,
 9299              		.section	.text._ZN8UnitTest8AreCloseIfffEEbRKT_RKT0_RKT1_,"axG",@progbits,_ZN8UnitTest8AreCloseIff
 9300              		.weak	_ZN8UnitTest8AreCloseIfffEEbRKT_RKT0_RKT1_
 9302              	_ZN8UnitTest8AreCloseIfffEEbRKT_RKT0_RKT1_:
 9303              	.LFB1252:
  39:../Checks.h   **** {
 9304              		.loc 6 39 0
 9305              		.cfi_startproc
 9306 0000 55       		pushq	%rbp
 9307              		.cfi_def_cfa_offset 16
 9308              		.cfi_offset 6, -16
 9309 0001 4889E5   		movq	%rsp, %rbp
 9310              		.cfi_def_cfa_register 6
 9311 0004 48897DF8 		movq	%rdi, -8(%rbp)
 9312 0008 488975F0 		movq	%rsi, -16(%rbp)
 9313 000c 488955E8 		movq	%rdx, -24(%rbp)
  41:../Checks.h   **** }
 9314              		.loc 6 41 0
 9315 0010 488B45F0 		movq	-16(%rbp), %rax
 9316 0014 F30F1008 		movss	(%rax), %xmm1
 9317 0018 488B45F8 		movq	-8(%rbp), %rax
 9318 001c F30F1000 		movss	(%rax), %xmm0
 9319 0020 488B45E8 		movq	-24(%rbp), %rax
 9320 0024 F30F1010 		movss	(%rax), %xmm2
 9321 0028 F30F5CC2 		subss	%xmm2, %xmm0
 9322 002c 0F2EC8   		ucomiss	%xmm0, %xmm1
 9323 002f 7228     		jb	.L445
  41:../Checks.h   **** }
 9324              		.loc 6 41 0 is_stmt 0 discriminator 1
 9325 0031 488B45F0 		movq	-16(%rbp), %rax
 9326 0035 F30F1008 		movss	(%rax), %xmm1
 9327 0039 488B45F8 		movq	-8(%rbp), %rax
 9328 003d F30F1010 		movss	(%rax), %xmm2
 9329 0041 488B45E8 		movq	-24(%rbp), %rax
 9330 0045 F30F1000 		movss	(%rax), %xmm0
 9331 0049 F30F58C2 		addss	%xmm2, %xmm0
 9332 004d 0F2EC1   		ucomiss	%xmm1, %xmm0
 9333 0050 7207     		jb	.L445
  41:../Checks.h   **** }
 9334              		.loc 6 41 0 discriminator 3
 9335 0052 B8010000 		movl	$1, %eax
 9335      00
 9336 0057 EB05     		jmp	.L449
 9337              	.L445:
  41:../Checks.h   **** }
 9338              		.loc 6 41 0 discriminator 4
 9339 0059 B8000000 		movl	$0, %eax
 9339      00
 9340              	.L449:
  42:../Checks.h   **** 
 9341              		.loc 6 42 0 is_stmt 1 discriminator 7
 9342 005e 5D       		popq	%rbp
 9343              		.cfi_def_cfa 7, 8
 9344 005f C3       		ret
 9345              		.cfi_endproc
 9346              	.LFE1252:
 9348              		.section	.text._ZN8UnitTest8AreCloseIffiEEbRKT_RKT0_RKT1_,"axG",@progbits,_ZN8UnitTest8AreCloseIff
 9349              		.weak	_ZN8UnitTest8AreCloseIffiEEbRKT_RKT0_RKT1_
 9351              	_ZN8UnitTest8AreCloseIffiEEbRKT_RKT0_RKT1_:
 9352              	.LFB1254:
  39:../Checks.h   **** {
 9353              		.loc 6 39 0
 9354              		.cfi_startproc
 9355 0000 55       		pushq	%rbp
 9356              		.cfi_def_cfa_offset 16
 9357              		.cfi_offset 6, -16
 9358 0001 4889E5   		movq	%rsp, %rbp
 9359              		.cfi_def_cfa_register 6
 9360 0004 48897DF8 		movq	%rdi, -8(%rbp)
 9361 0008 488975F0 		movq	%rsi, -16(%rbp)
 9362 000c 488955E8 		movq	%rdx, -24(%rbp)
  41:../Checks.h   **** }
 9363              		.loc 6 41 0
 9364 0010 488B45F0 		movq	-16(%rbp), %rax
 9365 0014 F30F1008 		movss	(%rax), %xmm1
 9366 0018 488B45F8 		movq	-8(%rbp), %rax
 9367 001c F30F1010 		movss	(%rax), %xmm2
 9368 0020 488B45E8 		movq	-24(%rbp), %rax
 9369 0024 8B00     		movl	(%rax), %eax
 9370 0026 660FEFC0 		pxor	%xmm0, %xmm0
 9371 002a F30F2AC0 		cvtsi2ss	%eax, %xmm0
 9372 002e F30F5CD0 		subss	%xmm0, %xmm2
 9373 0032 0F28C2   		movaps	%xmm2, %xmm0
 9374 0035 0F2EC8   		ucomiss	%xmm0, %xmm1
 9375 0038 722E     		jb	.L453
  41:../Checks.h   **** }
 9376              		.loc 6 41 0 is_stmt 0 discriminator 1
 9377 003a 488B45F0 		movq	-16(%rbp), %rax
 9378 003e F30F1008 		movss	(%rax), %xmm1
 9379 0042 488B45F8 		movq	-8(%rbp), %rax
 9380 0046 F30F1010 		movss	(%rax), %xmm2
 9381 004a 488B45E8 		movq	-24(%rbp), %rax
 9382 004e 8B00     		movl	(%rax), %eax
 9383 0050 660FEFC0 		pxor	%xmm0, %xmm0
 9384 0054 F30F2AC0 		cvtsi2ss	%eax, %xmm0
 9385 0058 F30F58C2 		addss	%xmm2, %xmm0
 9386 005c 0F2EC1   		ucomiss	%xmm1, %xmm0
 9387 005f 7207     		jb	.L453
  41:../Checks.h   **** }
 9388              		.loc 6 41 0 discriminator 3
 9389 0061 B8010000 		movl	$1, %eax
 9389      00
 9390 0066 EB05     		jmp	.L457
 9391              	.L453:
  41:../Checks.h   **** }
 9392              		.loc 6 41 0 discriminator 4
 9393 0068 B8000000 		movl	$0, %eax
 9393      00
 9394              	.L457:
  42:../Checks.h   **** 
 9395              		.loc 6 42 0 is_stmt 1 discriminator 7
 9396 006d 5D       		popq	%rbp
 9397              		.cfi_def_cfa 7, 8
 9398 006e C3       		ret
 9399              		.cfi_endproc
 9400              	.LFE1254:
 9402              		.section	.text._ZN8UnitTest8AreCloseIiifEEbRKT_RKT0_RKT1_,"axG",@progbits,_ZN8UnitTest8AreCloseIii
 9403              		.weak	_ZN8UnitTest8AreCloseIiifEEbRKT_RKT0_RKT1_
 9405              	_ZN8UnitTest8AreCloseIiifEEbRKT_RKT0_RKT1_:
 9406              	.LFB1255:
  39:../Checks.h   **** {
 9407              		.loc 6 39 0
 9408              		.cfi_startproc
 9409 0000 55       		pushq	%rbp
 9410              		.cfi_def_cfa_offset 16
 9411              		.cfi_offset 6, -16
 9412 0001 4889E5   		movq	%rsp, %rbp
 9413              		.cfi_def_cfa_register 6
 9414 0004 48897DF8 		movq	%rdi, -8(%rbp)
 9415 0008 488975F0 		movq	%rsi, -16(%rbp)
 9416 000c 488955E8 		movq	%rdx, -24(%rbp)
  41:../Checks.h   **** }
 9417              		.loc 6 41 0
 9418 0010 488B45F0 		movq	-16(%rbp), %rax
 9419 0014 8B00     		movl	(%rax), %eax
 9420 0016 660FEFC0 		pxor	%xmm0, %xmm0
 9421 001a F30F2AC0 		cvtsi2ss	%eax, %xmm0
 9422 001e 488B45F8 		movq	-8(%rbp), %rax
 9423 0022 8B00     		movl	(%rax), %eax
 9424 0024 660FEFC9 		pxor	%xmm1, %xmm1
 9425 0028 F30F2AC8 		cvtsi2ss	%eax, %xmm1
 9426 002c 488B45E8 		movq	-24(%rbp), %rax
 9427 0030 F30F1010 		movss	(%rax), %xmm2
 9428 0034 F30F5CCA 		subss	%xmm2, %xmm1
 9429 0038 0F2EC1   		ucomiss	%xmm1, %xmm0
 9430 003b 7234     		jb	.L461
  41:../Checks.h   **** }
 9431              		.loc 6 41 0 is_stmt 0 discriminator 1
 9432 003d 488B45F0 		movq	-16(%rbp), %rax
 9433 0041 8B00     		movl	(%rax), %eax
 9434 0043 660FEFC9 		pxor	%xmm1, %xmm1
 9435 0047 F30F2AC8 		cvtsi2ss	%eax, %xmm1
 9436 004b 488B45F8 		movq	-8(%rbp), %rax
 9437 004f 8B00     		movl	(%rax), %eax
 9438 0051 660FEFC0 		pxor	%xmm0, %xmm0
 9439 0055 F30F2AC0 		cvtsi2ss	%eax, %xmm0
 9440 0059 488B45E8 		movq	-24(%rbp), %rax
 9441 005d F30F1010 		movss	(%rax), %xmm2
 9442 0061 F30F58C2 		addss	%xmm2, %xmm0
 9443 0065 0F2EC1   		ucomiss	%xmm1, %xmm0
 9444 0068 7207     		jb	.L461
  41:../Checks.h   **** }
 9445              		.loc 6 41 0 discriminator 3
 9446 006a B8010000 		movl	$1, %eax
 9446      00
 9447 006f EB05     		jmp	.L465
 9448              	.L461:
  41:../Checks.h   **** }
 9449              		.loc 6 41 0 discriminator 4
 9450 0071 B8000000 		movl	$0, %eax
 9450      00
 9451              	.L465:
  42:../Checks.h   **** 
 9452              		.loc 6 42 0 is_stmt 1 discriminator 7
 9453 0076 5D       		popq	%rbp
 9454              		.cfi_def_cfa 7, 8
 9455 0077 C3       		ret
 9456              		.cfi_endproc
 9457              	.LFE1255:
 9459              		.section	.text._ZN8UnitTest13ArrayAreCloseIA3_fS1_fEEbRKT_RKT0_iRKT1_,"axG",@progbits,_ZN8UnitTest
 9460              		.weak	_ZN8UnitTest13ArrayAreCloseIA3_fS1_fEEbRKT_RKT0_iRKT1_
 9462              	_ZN8UnitTest13ArrayAreCloseIA3_fS1_fEEbRKT_RKT0_iRKT1_:
 9463              	.LFB1256:
  87:../Checks.h   **** {
 9464              		.loc 6 87 0
 9465              		.cfi_startproc
 9466 0000 55       		pushq	%rbp
 9467              		.cfi_def_cfa_offset 16
 9468              		.cfi_offset 6, -16
 9469 0001 4889E5   		movq	%rsp, %rbp
 9470              		.cfi_def_cfa_register 6
 9471 0004 4883EC30 		subq	$48, %rsp
 9472 0008 48897DE8 		movq	%rdi, -24(%rbp)
 9473 000c 488975E0 		movq	%rsi, -32(%rbp)
 9474 0010 8955DC   		movl	%edx, -36(%rbp)
 9475 0013 48894DD0 		movq	%rcx, -48(%rbp)
  89:../Checks.h   ****     for (int i = 0; i < count; ++i)
 9476              		.loc 6 89 0
 9477 0017 C645FB01 		movb	$1, -5(%rbp)
 9478              	.LBB82:
  90:../Checks.h   ****         equal &= AreClose(expected[i], actual[i], tolerance);
 9479              		.loc 6 90 0
 9480 001b C745FC00 		movl	$0, -4(%rbp)
 9480      000000
 9481              	.L470:
  90:../Checks.h   ****         equal &= AreClose(expected[i], actual[i], tolerance);
 9482              		.loc 6 90 0 is_stmt 0 discriminator 3
 9483 0022 8B45FC   		movl	-4(%rbp), %eax
 9484 0025 3B45DC   		cmpl	-36(%rbp), %eax
 9485 0028 7D50     		jge	.L469
  91:../Checks.h   ****     return equal;
 9486              		.loc 6 91 0 is_stmt 1 discriminator 2
 9487 002a 8B45FC   		movl	-4(%rbp), %eax
 9488 002d 4898     		cltq
 9489 002f 488D1485 		leaq	0(,%rax,4), %rdx
 9489      00000000 
 9490 0037 488B45E0 		movq	-32(%rbp), %rax
 9491 003b 488D3402 		leaq	(%rdx,%rax), %rsi
 9492 003f 8B45FC   		movl	-4(%rbp), %eax
 9493 0042 4898     		cltq
 9494 0044 488D1485 		leaq	0(,%rax,4), %rdx
 9494      00000000 
 9495 004c 488B45E8 		movq	-24(%rbp), %rax
 9496 0050 488D0C02 		leaq	(%rdx,%rax), %rcx
 9497 0054 488B45D0 		movq	-48(%rbp), %rax
 9498 0058 4889C2   		movq	%rax, %rdx
 9499 005b 4889CF   		movq	%rcx, %rdi
 9500 005e E8000000 		call	_ZN8UnitTest8AreCloseIfffEEbRKT_RKT0_RKT1_
 9500      00
 9501 0063 0FB655FB 		movzbl	-5(%rbp), %edx
 9502 0067 0FB6C0   		movzbl	%al, %eax
 9503 006a 21D0     		andl	%edx, %eax
 9504 006c 85C0     		testl	%eax, %eax
 9505 006e 0F95C0   		setne	%al
 9506 0071 8845FB   		movb	%al, -5(%rbp)
  90:../Checks.h   ****         equal &= AreClose(expected[i], actual[i], tolerance);
 9507              		.loc 6 90 0 discriminator 2
 9508 0074 8345FC01 		addl	$1, -4(%rbp)
 9509 0078 EBA8     		jmp	.L470
 9510              	.L469:
 9511              	.LBE82:
  92:../Checks.h   **** }
 9512              		.loc 6 92 0
 9513 007a 0FB645FB 		movzbl	-5(%rbp), %eax
  93:../Checks.h   **** 
 9514              		.loc 6 93 0
 9515 007e C9       		leave
 9516              		.cfi_def_cfa 7, 8
 9517 007f C3       		ret
 9518              		.cfi_endproc
 9519              	.LFE1256:
 9521              		.section	.text._ZN8UnitTest8AreCloseIdddEEbRKT_RKT0_RKT1_,"axG",@progbits,_ZN8UnitTest8AreCloseIdd
 9522              		.weak	_ZN8UnitTest8AreCloseIdddEEbRKT_RKT0_RKT1_
 9524              	_ZN8UnitTest8AreCloseIdddEEbRKT_RKT0_RKT1_:
 9525              	.LFB1257:
  39:../Checks.h   **** {
 9526              		.loc 6 39 0
 9527              		.cfi_startproc
 9528 0000 55       		pushq	%rbp
 9529              		.cfi_def_cfa_offset 16
 9530              		.cfi_offset 6, -16
 9531 0001 4889E5   		movq	%rsp, %rbp
 9532              		.cfi_def_cfa_register 6
 9533 0004 48897DF8 		movq	%rdi, -8(%rbp)
 9534 0008 488975F0 		movq	%rsi, -16(%rbp)
 9535 000c 488955E8 		movq	%rdx, -24(%rbp)
  41:../Checks.h   **** }
 9536              		.loc 6 41 0
 9537 0010 488B45F0 		movq	-16(%rbp), %rax
 9538 0014 F20F1008 		movsd	(%rax), %xmm1
 9539 0018 488B45F8 		movq	-8(%rbp), %rax
 9540 001c F20F1000 		movsd	(%rax), %xmm0
 9541 0020 488B45E8 		movq	-24(%rbp), %rax
 9542 0024 F20F1010 		movsd	(%rax), %xmm2
 9543 0028 F20F5CC2 		subsd	%xmm2, %xmm0
 9544 002c 660F2EC8 		ucomisd	%xmm0, %xmm1
 9545 0030 7229     		jb	.L473
  41:../Checks.h   **** }
 9546              		.loc 6 41 0 is_stmt 0 discriminator 1
 9547 0032 488B45F0 		movq	-16(%rbp), %rax
 9548 0036 F20F1008 		movsd	(%rax), %xmm1
 9549 003a 488B45F8 		movq	-8(%rbp), %rax
 9550 003e F20F1010 		movsd	(%rax), %xmm2
 9551 0042 488B45E8 		movq	-24(%rbp), %rax
 9552 0046 F20F1000 		movsd	(%rax), %xmm0
 9553 004a F20F58C2 		addsd	%xmm2, %xmm0
 9554 004e 660F2EC1 		ucomisd	%xmm1, %xmm0
 9555 0052 7207     		jb	.L473
  41:../Checks.h   **** }
 9556              		.loc 6 41 0 discriminator 3
 9557 0054 B8010000 		movl	$1, %eax
 9557      00
 9558 0059 EB05     		jmp	.L477
 9559              	.L473:
  41:../Checks.h   **** }
 9560              		.loc 6 41 0 discriminator 4
 9561 005b B8000000 		movl	$0, %eax
 9561      00
 9562              	.L477:
  42:../Checks.h   **** 
 9563              		.loc 6 42 0 is_stmt 1 discriminator 7
 9564 0060 5D       		popq	%rbp
 9565              		.cfi_def_cfa 7, 8
 9566 0061 C3       		ret
 9567              		.cfi_endproc
 9568              	.LFE1257:
 9570              		.section	.rodata
 9571 0bfa 00000000 		.align 8
 9571      0000
 9574              	_ZTVN12_GLOBAL__N_143TestCheckArray2DCloseFailureIncludesDetailsE:
 9575 0c00 00000000 		.quad	0
 9575      00000000 
 9576 0c08 00000000 		.quad	_ZTIN12_GLOBAL__N_143TestCheckArray2DCloseFailureIncludesDetailsE
 9576      00000000 
 9577 0c10 00000000 		.quad	_ZN12_GLOBAL__N_143TestCheckArray2DCloseFailureIncludesDetailsD1Ev
 9577      00000000 
 9578 0c18 00000000 		.quad	_ZN12_GLOBAL__N_143TestCheckArray2DCloseFailureIncludesDetailsD0Ev
 9578      00000000 
 9579 0c20 00000000 		.quad	_ZNK12_GLOBAL__N_143TestCheckArray2DCloseFailureIncludesDetails7RunImplEv
 9579      00000000 
 9580              		.text
 9581              		.align 2
 9583              	_ZN12_GLOBAL__N_143TestCheckArray2DCloseFailureIncludesDetailsD2Ev:
 9584              	.LFB1285:
 273:TestChecks.cpp **** {
 9585              		.loc 5 273 0
 9586              		.cfi_startproc
 9587 392a 55       		pushq	%rbp
 9588              		.cfi_def_cfa_offset 16
 9589              		.cfi_offset 6, -16
 9590 392b 4889E5   		movq	%rsp, %rbp
 9591              		.cfi_def_cfa_register 6
 9592 392e 4883EC10 		subq	$16, %rsp
 9593 3932 48897DF8 		movq	%rdi, -8(%rbp)
 9594              	.LBB83:
 273:TestChecks.cpp **** {
 9595              		.loc 5 273 0
 9596 3936 BA000000 		movl	$_ZTVN12_GLOBAL__N_143TestCheckArray2DCloseFailureIncludesDetailsE+16, %edx
 9596      00
 9597 393b 488B45F8 		movq	-8(%rbp), %rax
 9598 393f 488910   		movq	%rdx, (%rax)
 9599 3942 488B45F8 		movq	-8(%rbp), %rax
 9600 3946 4889C7   		movq	%rax, %rdi
 9601 3949 E8000000 		call	_ZN8UnitTest4TestD2Ev
 9601      00
 9602              	.LBE83:
 9603 394e B8000000 		movl	$0, %eax
 9603      00
 9604 3953 85C0     		testl	%eax, %eax
 9605 3955 740C     		je	.L480
 273:TestChecks.cpp **** {
 9606              		.loc 5 273 0 is_stmt 0 discriminator 4
 9607 3957 488B45F8 		movq	-8(%rbp), %rax
 9608 395b 4889C7   		movq	%rax, %rdi
 9609 395e E8000000 		call	_ZdlPv
 9609      00
 9610              	.L480:
 273:TestChecks.cpp **** {
 9611              		.loc 5 273 0
 9612 3963 C9       		leave
 9613              		.cfi_def_cfa 7, 8
 9614 3964 C3       		ret
 9615              		.cfi_endproc
 9616              	.LFE1285:
 9618              		.set	_ZN12_GLOBAL__N_143TestCheckArray2DCloseFailureIncludesDetailsD1Ev,_ZN12_GLOBAL__N_143TestChe
 9619 3965 90       		.align 2
 9621              	_ZN12_GLOBAL__N_143TestCheckArray2DCloseFailureIncludesDetailsD0Ev:
 9622              	.LFB1287:
 273:TestChecks.cpp **** {
 9623              		.loc 5 273 0 is_stmt 1
 9624              		.cfi_startproc
 9625 3966 55       		pushq	%rbp
 9626              		.cfi_def_cfa_offset 16
 9627              		.cfi_offset 6, -16
 9628 3967 4889E5   		movq	%rsp, %rbp
 9629              		.cfi_def_cfa_register 6
 9630 396a 4883EC10 		subq	$16, %rsp
 9631 396e 48897DF8 		movq	%rdi, -8(%rbp)
 273:TestChecks.cpp **** {
 9632              		.loc 5 273 0
 9633 3972 488B45F8 		movq	-8(%rbp), %rax
 9634 3976 4889C7   		movq	%rax, %rdi
 9635 3979 E8ACFFFF 		call	_ZN12_GLOBAL__N_143TestCheckArray2DCloseFailureIncludesDetailsD1Ev
 9635      FF
 9636 397e 488B45F8 		movq	-8(%rbp), %rax
 9637 3982 4889C7   		movq	%rax, %rdi
 9638 3985 E8000000 		call	_ZdlPv
 9638      00
 9639 398a C9       		leave
 9640              		.cfi_def_cfa 7, 8
 9641 398b C3       		ret
 9642              		.cfi_endproc
 9643              	.LFE1287:
 9645              		.section	.rodata
 9646              		.align 8
 9649              	_ZTVN12_GLOBAL__N_133TestCheckCloseWithDoublesSucceedsE:
 9650 0c28 00000000 		.quad	0
 9650      00000000 
 9651 0c30 00000000 		.quad	_ZTIN12_GLOBAL__N_133TestCheckCloseWithDoublesSucceedsE
 9651      00000000 
 9652 0c38 00000000 		.quad	_ZN12_GLOBAL__N_133TestCheckCloseWithDoublesSucceedsD1Ev
 9652      00000000 
 9653 0c40 00000000 		.quad	_ZN12_GLOBAL__N_133TestCheckCloseWithDoublesSucceedsD0Ev
 9653      00000000 
 9654 0c48 00000000 		.quad	_ZNK12_GLOBAL__N_133TestCheckCloseWithDoublesSucceeds7RunImplEv
 9654      00000000 
 9655              		.text
 9656              		.align 2
 9658              	_ZN12_GLOBAL__N_133TestCheckCloseWithDoublesSucceedsD2Ev:
 9659              	.LFB1289:
 268:TestChecks.cpp **** {
 9660              		.loc 5 268 0
 9661              		.cfi_startproc
 9662 398c 55       		pushq	%rbp
 9663              		.cfi_def_cfa_offset 16
 9664              		.cfi_offset 6, -16
 9665 398d 4889E5   		movq	%rsp, %rbp
 9666              		.cfi_def_cfa_register 6
 9667 3990 4883EC10 		subq	$16, %rsp
 9668 3994 48897DF8 		movq	%rdi, -8(%rbp)
 9669              	.LBB84:
 268:TestChecks.cpp **** {
 9670              		.loc 5 268 0
 9671 3998 BA000000 		movl	$_ZTVN12_GLOBAL__N_133TestCheckCloseWithDoublesSucceedsE+16, %edx
 9671      00
 9672 399d 488B45F8 		movq	-8(%rbp), %rax
 9673 39a1 488910   		movq	%rdx, (%rax)
 9674 39a4 488B45F8 		movq	-8(%rbp), %rax
 9675 39a8 4889C7   		movq	%rax, %rdi
 9676 39ab E8000000 		call	_ZN8UnitTest4TestD2Ev
 9676      00
 9677              	.LBE84:
 9678 39b0 B8000000 		movl	$0, %eax
 9678      00
 9679 39b5 85C0     		testl	%eax, %eax
 9680 39b7 740C     		je	.L483
 268:TestChecks.cpp **** {
 9681              		.loc 5 268 0 is_stmt 0 discriminator 4
 9682 39b9 488B45F8 		movq	-8(%rbp), %rax
 9683 39bd 4889C7   		movq	%rax, %rdi
 9684 39c0 E8000000 		call	_ZdlPv
 9684      00
 9685              	.L483:
 268:TestChecks.cpp **** {
 9686              		.loc 5 268 0
 9687 39c5 C9       		leave
 9688              		.cfi_def_cfa 7, 8
 9689 39c6 C3       		ret
 9690              		.cfi_endproc
 9691              	.LFE1289:
 9693              		.set	_ZN12_GLOBAL__N_133TestCheckCloseWithDoublesSucceedsD1Ev,_ZN12_GLOBAL__N_133TestCheckCloseWit
 9694 39c7 90       		.align 2
 9696              	_ZN12_GLOBAL__N_133TestCheckCloseWithDoublesSucceedsD0Ev:
 9697              	.LFB1291:
 268:TestChecks.cpp **** {
 9698              		.loc 5 268 0 is_stmt 1
 9699              		.cfi_startproc
 9700 39c8 55       		pushq	%rbp
 9701              		.cfi_def_cfa_offset 16
 9702              		.cfi_offset 6, -16
 9703 39c9 4889E5   		movq	%rsp, %rbp
 9704              		.cfi_def_cfa_register 6
 9705 39cc 4883EC10 		subq	$16, %rsp
 9706 39d0 48897DF8 		movq	%rdi, -8(%rbp)
 268:TestChecks.cpp **** {
 9707              		.loc 5 268 0
 9708 39d4 488B45F8 		movq	-8(%rbp), %rax
 9709 39d8 4889C7   		movq	%rax, %rdi
 9710 39db E8ACFFFF 		call	_ZN12_GLOBAL__N_133TestCheckCloseWithDoublesSucceedsD1Ev
 9710      FF
 9711 39e0 488B45F8 		movq	-8(%rbp), %rax
 9712 39e4 4889C7   		movq	%rax, %rdi
 9713 39e7 E8000000 		call	_ZdlPv
 9713      00
 9714 39ec C9       		leave
 9715              		.cfi_def_cfa 7, 8
 9716 39ed C3       		ret
 9717              		.cfi_endproc
 9718              	.LFE1291:
 9720              		.section	.rodata
 9721              		.align 8
 9724              	_ZTVN12_GLOBAL__N_126TestCheckArray2DCloseFalseE:
 9725 0c50 00000000 		.quad	0
 9725      00000000 
 9726 0c58 00000000 		.quad	_ZTIN12_GLOBAL__N_126TestCheckArray2DCloseFalseE
 9726      00000000 
 9727 0c60 00000000 		.quad	_ZN12_GLOBAL__N_126TestCheckArray2DCloseFalseD1Ev
 9727      00000000 
 9728 0c68 00000000 		.quad	_ZN12_GLOBAL__N_126TestCheckArray2DCloseFalseD0Ev
 9728      00000000 
 9729 0c70 00000000 		.quad	_ZNK12_GLOBAL__N_126TestCheckArray2DCloseFalse7RunImplEv
 9729      00000000 
 9730              		.text
 9731              		.align 2
 9733              	_ZN12_GLOBAL__N_126TestCheckArray2DCloseFalseD2Ev:
 9734              	.LFB1293:
 254:TestChecks.cpp **** {
 9735              		.loc 5 254 0
 9736              		.cfi_startproc
 9737 39ee 55       		pushq	%rbp
 9738              		.cfi_def_cfa_offset 16
 9739              		.cfi_offset 6, -16
 9740 39ef 4889E5   		movq	%rsp, %rbp
 9741              		.cfi_def_cfa_register 6
 9742 39f2 4883EC10 		subq	$16, %rsp
 9743 39f6 48897DF8 		movq	%rdi, -8(%rbp)
 9744              	.LBB85:
 254:TestChecks.cpp **** {
 9745              		.loc 5 254 0
 9746 39fa BA000000 		movl	$_ZTVN12_GLOBAL__N_126TestCheckArray2DCloseFalseE+16, %edx
 9746      00
 9747 39ff 488B45F8 		movq	-8(%rbp), %rax
 9748 3a03 488910   		movq	%rdx, (%rax)
 9749 3a06 488B45F8 		movq	-8(%rbp), %rax
 9750 3a0a 4889C7   		movq	%rax, %rdi
 9751 3a0d E8000000 		call	_ZN8UnitTest4TestD2Ev
 9751      00
 9752              	.LBE85:
 9753 3a12 B8000000 		movl	$0, %eax
 9753      00
 9754 3a17 85C0     		testl	%eax, %eax
 9755 3a19 740C     		je	.L486
 254:TestChecks.cpp **** {
 9756              		.loc 5 254 0 is_stmt 0 discriminator 4
 9757 3a1b 488B45F8 		movq	-8(%rbp), %rax
 9758 3a1f 4889C7   		movq	%rax, %rdi
 9759 3a22 E8000000 		call	_ZdlPv
 9759      00
 9760              	.L486:
 254:TestChecks.cpp **** {
 9761              		.loc 5 254 0
 9762 3a27 C9       		leave
 9763              		.cfi_def_cfa 7, 8
 9764 3a28 C3       		ret
 9765              		.cfi_endproc
 9766              	.LFE1293:
 9768              		.set	_ZN12_GLOBAL__N_126TestCheckArray2DCloseFalseD1Ev,_ZN12_GLOBAL__N_126TestCheckArray2DCloseFal
 9769 3a29 90       		.align 2
 9771              	_ZN12_GLOBAL__N_126TestCheckArray2DCloseFalseD0Ev:
 9772              	.LFB1295:
 254:TestChecks.cpp **** {
 9773              		.loc 5 254 0 is_stmt 1
 9774              		.cfi_startproc
 9775 3a2a 55       		pushq	%rbp
 9776              		.cfi_def_cfa_offset 16
 9777              		.cfi_offset 6, -16
 9778 3a2b 4889E5   		movq	%rsp, %rbp
 9779              		.cfi_def_cfa_register 6
 9780 3a2e 4883EC10 		subq	$16, %rsp
 9781 3a32 48897DF8 		movq	%rdi, -8(%rbp)
 254:TestChecks.cpp **** {
 9782              		.loc 5 254 0
 9783 3a36 488B45F8 		movq	-8(%rbp), %rax
 9784 3a3a 4889C7   		movq	%rax, %rdi
 9785 3a3d E8ACFFFF 		call	_ZN12_GLOBAL__N_126TestCheckArray2DCloseFalseD1Ev
 9785      FF
 9786 3a42 488B45F8 		movq	-8(%rbp), %rax
 9787 3a46 4889C7   		movq	%rax, %rdi
 9788 3a49 E8000000 		call	_ZdlPv
 9788      00
 9789 3a4e C9       		leave
 9790              		.cfi_def_cfa 7, 8
 9791 3a4f C3       		ret
 9792              		.cfi_endproc
 9793              	.LFE1295:
 9795              		.section	.rodata
 9796              		.align 8
 9799              	_ZTVN12_GLOBAL__N_125TestCheckArray2DCloseTrueE:
 9800 0c78 00000000 		.quad	0
 9800      00000000 
 9801 0c80 00000000 		.quad	_ZTIN12_GLOBAL__N_125TestCheckArray2DCloseTrueE
 9801      00000000 
 9802 0c88 00000000 		.quad	_ZN12_GLOBAL__N_125TestCheckArray2DCloseTrueD1Ev
 9802      00000000 
 9803 0c90 00000000 		.quad	_ZN12_GLOBAL__N_125TestCheckArray2DCloseTrueD0Ev
 9803      00000000 
 9804 0c98 00000000 		.quad	_ZNK12_GLOBAL__N_125TestCheckArray2DCloseTrue7RunImplEv
 9804      00000000 
 9805              		.text
 9806              		.align 2
 9808              	_ZN12_GLOBAL__N_125TestCheckArray2DCloseTrueD2Ev:
 9809              	.LFB1297:
 240:TestChecks.cpp **** {
 9810              		.loc 5 240 0
 9811              		.cfi_startproc
 9812 3a50 55       		pushq	%rbp
 9813              		.cfi_def_cfa_offset 16
 9814              		.cfi_offset 6, -16
 9815 3a51 4889E5   		movq	%rsp, %rbp
 9816              		.cfi_def_cfa_register 6
 9817 3a54 4883EC10 		subq	$16, %rsp
 9818 3a58 48897DF8 		movq	%rdi, -8(%rbp)
 9819              	.LBB86:
 240:TestChecks.cpp **** {
 9820              		.loc 5 240 0
 9821 3a5c BA000000 		movl	$_ZTVN12_GLOBAL__N_125TestCheckArray2DCloseTrueE+16, %edx
 9821      00
 9822 3a61 488B45F8 		movq	-8(%rbp), %rax
 9823 3a65 488910   		movq	%rdx, (%rax)
 9824 3a68 488B45F8 		movq	-8(%rbp), %rax
 9825 3a6c 4889C7   		movq	%rax, %rdi
 9826 3a6f E8000000 		call	_ZN8UnitTest4TestD2Ev
 9826      00
 9827              	.LBE86:
 9828 3a74 B8000000 		movl	$0, %eax
 9828      00
 9829 3a79 85C0     		testl	%eax, %eax
 9830 3a7b 740C     		je	.L489
 240:TestChecks.cpp **** {
 9831              		.loc 5 240 0 is_stmt 0 discriminator 4
 9832 3a7d 488B45F8 		movq	-8(%rbp), %rax
 9833 3a81 4889C7   		movq	%rax, %rdi
 9834 3a84 E8000000 		call	_ZdlPv
 9834      00
 9835              	.L489:
 240:TestChecks.cpp **** {
 9836              		.loc 5 240 0
 9837 3a89 C9       		leave
 9838              		.cfi_def_cfa 7, 8
 9839 3a8a C3       		ret
 9840              		.cfi_endproc
 9841              	.LFE1297:
 9843              		.set	_ZN12_GLOBAL__N_125TestCheckArray2DCloseTrueD1Ev,_ZN12_GLOBAL__N_125TestCheckArray2DCloseTrue
 9844 3a8b 90       		.align 2
 9846              	_ZN12_GLOBAL__N_125TestCheckArray2DCloseTrueD0Ev:
 9847              	.LFB1299:
 240:TestChecks.cpp **** {
 9848              		.loc 5 240 0 is_stmt 1
 9849              		.cfi_startproc
 9850 3a8c 55       		pushq	%rbp
 9851              		.cfi_def_cfa_offset 16
 9852              		.cfi_offset 6, -16
 9853 3a8d 4889E5   		movq	%rsp, %rbp
 9854              		.cfi_def_cfa_register 6
 9855 3a90 4883EC10 		subq	$16, %rsp
 9856 3a94 48897DF8 		movq	%rdi, -8(%rbp)
 240:TestChecks.cpp **** {
 9857              		.loc 5 240 0
 9858 3a98 488B45F8 		movq	-8(%rbp), %rax
 9859 3a9c 4889C7   		movq	%rax, %rdi
 9860 3a9f E8ACFFFF 		call	_ZN12_GLOBAL__N_125TestCheckArray2DCloseTrueD1Ev
 9860      FF
 9861 3aa4 488B45F8 		movq	-8(%rbp), %rax
 9862 3aa8 4889C7   		movq	%rax, %rdi
 9863 3aab E8000000 		call	_ZdlPv
 9863      00
 9864 3ab0 C9       		leave
 9865              		.cfi_def_cfa 7, 8
 9866 3ab1 C3       		ret
 9867              		.cfi_endproc
 9868              	.LFE1299:
 9870              		.section	.rodata
 9871              		.align 8
 9874              	_ZTVN12_GLOBAL__N_141TestCheckArrayCloseFailureIncludesDetailsE:
 9875 0ca0 00000000 		.quad	0
 9875      00000000 
 9876 0ca8 00000000 		.quad	_ZTIN12_GLOBAL__N_141TestCheckArrayCloseFailureIncludesDetailsE
 9876      00000000 
 9877 0cb0 00000000 		.quad	_ZN12_GLOBAL__N_141TestCheckArrayCloseFailureIncludesDetailsD1Ev
 9877      00000000 
 9878 0cb8 00000000 		.quad	_ZN12_GLOBAL__N_141TestCheckArrayCloseFailureIncludesDetailsD0Ev
 9878      00000000 
 9879 0cc0 00000000 		.quad	_ZNK12_GLOBAL__N_141TestCheckArrayCloseFailureIncludesDetails7RunImplEv
 9879      00000000 
 9880              		.text
 9881              		.align 2
 9883              	_ZN12_GLOBAL__N_141TestCheckArrayCloseFailureIncludesDetailsD2Ev:
 9884              	.LFB1301:
 223:TestChecks.cpp **** {
 9885              		.loc 5 223 0
 9886              		.cfi_startproc
 9887 3ab2 55       		pushq	%rbp
 9888              		.cfi_def_cfa_offset 16
 9889              		.cfi_offset 6, -16
 9890 3ab3 4889E5   		movq	%rsp, %rbp
 9891              		.cfi_def_cfa_register 6
 9892 3ab6 4883EC10 		subq	$16, %rsp
 9893 3aba 48897DF8 		movq	%rdi, -8(%rbp)
 9894              	.LBB87:
 223:TestChecks.cpp **** {
 9895              		.loc 5 223 0
 9896 3abe BA000000 		movl	$_ZTVN12_GLOBAL__N_141TestCheckArrayCloseFailureIncludesDetailsE+16, %edx
 9896      00
 9897 3ac3 488B45F8 		movq	-8(%rbp), %rax
 9898 3ac7 488910   		movq	%rdx, (%rax)
 9899 3aca 488B45F8 		movq	-8(%rbp), %rax
 9900 3ace 4889C7   		movq	%rax, %rdi
 9901 3ad1 E8000000 		call	_ZN8UnitTest4TestD2Ev
 9901      00
 9902              	.LBE87:
 9903 3ad6 B8000000 		movl	$0, %eax
 9903      00
 9904 3adb 85C0     		testl	%eax, %eax
 9905 3add 740C     		je	.L492
 223:TestChecks.cpp **** {
 9906              		.loc 5 223 0 is_stmt 0 discriminator 4
 9907 3adf 488B45F8 		movq	-8(%rbp), %rax
 9908 3ae3 4889C7   		movq	%rax, %rdi
 9909 3ae6 E8000000 		call	_ZdlPv
 9909      00
 9910              	.L492:
 223:TestChecks.cpp **** {
 9911              		.loc 5 223 0
 9912 3aeb C9       		leave
 9913              		.cfi_def_cfa 7, 8
 9914 3aec C3       		ret
 9915              		.cfi_endproc
 9916              	.LFE1301:
 9918              		.set	_ZN12_GLOBAL__N_141TestCheckArrayCloseFailureIncludesDetailsD1Ev,_ZN12_GLOBAL__N_141TestCheck
 9919 3aed 90       		.align 2
 9921              	_ZN12_GLOBAL__N_141TestCheckArrayCloseFailureIncludesDetailsD0Ev:
 9922              	.LFB1303:
 223:TestChecks.cpp **** {
 9923              		.loc 5 223 0 is_stmt 1
 9924              		.cfi_startproc
 9925 3aee 55       		pushq	%rbp
 9926              		.cfi_def_cfa_offset 16
 9927              		.cfi_offset 6, -16
 9928 3aef 4889E5   		movq	%rsp, %rbp
 9929              		.cfi_def_cfa_register 6
 9930 3af2 4883EC10 		subq	$16, %rsp
 9931 3af6 48897DF8 		movq	%rdi, -8(%rbp)
 223:TestChecks.cpp **** {
 9932              		.loc 5 223 0
 9933 3afa 488B45F8 		movq	-8(%rbp), %rax
 9934 3afe 4889C7   		movq	%rax, %rdi
 9935 3b01 E8ACFFFF 		call	_ZN12_GLOBAL__N_141TestCheckArrayCloseFailureIncludesDetailsD1Ev
 9935      FF
 9936 3b06 488B45F8 		movq	-8(%rbp), %rax
 9937 3b0a 4889C7   		movq	%rax, %rdi
 9938 3b0d E8000000 		call	_ZdlPv
 9938      00
 9939 3b12 C9       		leave
 9940              		.cfi_def_cfa 7, 8
 9941 3b13 C3       		ret
 9942              		.cfi_endproc
 9943              	.LFE1303:
 9945              		.section	.rodata
 9946              		.align 8
 9949              	_ZTVN12_GLOBAL__N_124TestCheckArrayCloseFalseE:
 9950 0cc8 00000000 		.quad	0
 9950      00000000 
 9951 0cd0 00000000 		.quad	_ZTIN12_GLOBAL__N_124TestCheckArrayCloseFalseE
 9951      00000000 
 9952 0cd8 00000000 		.quad	_ZN12_GLOBAL__N_124TestCheckArrayCloseFalseD1Ev
 9952      00000000 
 9953 0ce0 00000000 		.quad	_ZN12_GLOBAL__N_124TestCheckArrayCloseFalseD0Ev
 9953      00000000 
 9954 0ce8 00000000 		.quad	_ZNK12_GLOBAL__N_124TestCheckArrayCloseFalse7RunImplEv
 9954      00000000 
 9955              		.text
 9956              		.align 2
 9958              	_ZN12_GLOBAL__N_124TestCheckArrayCloseFalseD2Ev:
 9959              	.LFB1305:
 213:TestChecks.cpp **** {
 9960              		.loc 5 213 0
 9961              		.cfi_startproc
 9962 3b14 55       		pushq	%rbp
 9963              		.cfi_def_cfa_offset 16
 9964              		.cfi_offset 6, -16
 9965 3b15 4889E5   		movq	%rsp, %rbp
 9966              		.cfi_def_cfa_register 6
 9967 3b18 4883EC10 		subq	$16, %rsp
 9968 3b1c 48897DF8 		movq	%rdi, -8(%rbp)
 9969              	.LBB88:
 213:TestChecks.cpp **** {
 9970              		.loc 5 213 0
 9971 3b20 BA000000 		movl	$_ZTVN12_GLOBAL__N_124TestCheckArrayCloseFalseE+16, %edx
 9971      00
 9972 3b25 488B45F8 		movq	-8(%rbp), %rax
 9973 3b29 488910   		movq	%rdx, (%rax)
 9974 3b2c 488B45F8 		movq	-8(%rbp), %rax
 9975 3b30 4889C7   		movq	%rax, %rdi
 9976 3b33 E8000000 		call	_ZN8UnitTest4TestD2Ev
 9976      00
 9977              	.LBE88:
 9978 3b38 B8000000 		movl	$0, %eax
 9978      00
 9979 3b3d 85C0     		testl	%eax, %eax
 9980 3b3f 740C     		je	.L495
 213:TestChecks.cpp **** {
 9981              		.loc 5 213 0 is_stmt 0 discriminator 4
 9982 3b41 488B45F8 		movq	-8(%rbp), %rax
 9983 3b45 4889C7   		movq	%rax, %rdi
 9984 3b48 E8000000 		call	_ZdlPv
 9984      00
 9985              	.L495:
 213:TestChecks.cpp **** {
 9986              		.loc 5 213 0
 9987 3b4d C9       		leave
 9988              		.cfi_def_cfa 7, 8
 9989 3b4e C3       		ret
 9990              		.cfi_endproc
 9991              	.LFE1305:
 9993              		.set	_ZN12_GLOBAL__N_124TestCheckArrayCloseFalseD1Ev,_ZN12_GLOBAL__N_124TestCheckArrayCloseFalseD2
 9994 3b4f 90       		.align 2
 9996              	_ZN12_GLOBAL__N_124TestCheckArrayCloseFalseD0Ev:
 9997              	.LFB1307:
 213:TestChecks.cpp **** {
 9998              		.loc 5 213 0 is_stmt 1
 9999              		.cfi_startproc
 10000 3b50 55       		pushq	%rbp
 10001              		.cfi_def_cfa_offset 16
 10002              		.cfi_offset 6, -16
 10003 3b51 4889E5   		movq	%rsp, %rbp
 10004              		.cfi_def_cfa_register 6
 10005 3b54 4883EC10 		subq	$16, %rsp
 10006 3b58 48897DF8 		movq	%rdi, -8(%rbp)
 213:TestChecks.cpp **** {
 10007              		.loc 5 213 0
 10008 3b5c 488B45F8 		movq	-8(%rbp), %rax
 10009 3b60 4889C7   		movq	%rax, %rdi
 10010 3b63 E8ACFFFF 		call	_ZN12_GLOBAL__N_124TestCheckArrayCloseFalseD1Ev
 10010      FF
 10011 3b68 488B45F8 		movq	-8(%rbp), %rax
 10012 3b6c 4889C7   		movq	%rax, %rdi
 10013 3b6f E8000000 		call	_ZdlPv
 10013      00
 10014 3b74 C9       		leave
 10015              		.cfi_def_cfa 7, 8
 10016 3b75 C3       		ret
 10017              		.cfi_endproc
 10018              	.LFE1307:
 10020              		.section	.rodata
 10021              		.align 8
 10024              	_ZTVN12_GLOBAL__N_123TestCheckArrayCloseTrueE:
 10025 0cf0 00000000 		.quad	0
 10025      00000000 
 10026 0cf8 00000000 		.quad	_ZTIN12_GLOBAL__N_123TestCheckArrayCloseTrueE
 10026      00000000 
 10027 0d00 00000000 		.quad	_ZN12_GLOBAL__N_123TestCheckArrayCloseTrueD1Ev
 10027      00000000 
 10028 0d08 00000000 		.quad	_ZN12_GLOBAL__N_123TestCheckArrayCloseTrueD0Ev
 10028      00000000 
 10029 0d10 00000000 		.quad	_ZNK12_GLOBAL__N_123TestCheckArrayCloseTrue7RunImplEv
 10029      00000000 
 10030              		.text
 10031              		.align 2
 10033              	_ZN12_GLOBAL__N_123TestCheckArrayCloseTrueD2Ev:
 10034              	.LFB1309:
 203:TestChecks.cpp **** {
 10035              		.loc 5 203 0
 10036              		.cfi_startproc
 10037 3b76 55       		pushq	%rbp
 10038              		.cfi_def_cfa_offset 16
 10039              		.cfi_offset 6, -16
 10040 3b77 4889E5   		movq	%rsp, %rbp
 10041              		.cfi_def_cfa_register 6
 10042 3b7a 4883EC10 		subq	$16, %rsp
 10043 3b7e 48897DF8 		movq	%rdi, -8(%rbp)
 10044              	.LBB89:
 203:TestChecks.cpp **** {
 10045              		.loc 5 203 0
 10046 3b82 BA000000 		movl	$_ZTVN12_GLOBAL__N_123TestCheckArrayCloseTrueE+16, %edx
 10046      00
 10047 3b87 488B45F8 		movq	-8(%rbp), %rax
 10048 3b8b 488910   		movq	%rdx, (%rax)
 10049 3b8e 488B45F8 		movq	-8(%rbp), %rax
 10050 3b92 4889C7   		movq	%rax, %rdi
 10051 3b95 E8000000 		call	_ZN8UnitTest4TestD2Ev
 10051      00
 10052              	.LBE89:
 10053 3b9a B8000000 		movl	$0, %eax
 10053      00
 10054 3b9f 85C0     		testl	%eax, %eax
 10055 3ba1 740C     		je	.L498
 203:TestChecks.cpp **** {
 10056              		.loc 5 203 0 is_stmt 0 discriminator 4
 10057 3ba3 488B45F8 		movq	-8(%rbp), %rax
 10058 3ba7 4889C7   		movq	%rax, %rdi
 10059 3baa E8000000 		call	_ZdlPv
 10059      00
 10060              	.L498:
 203:TestChecks.cpp **** {
 10061              		.loc 5 203 0
 10062 3baf C9       		leave
 10063              		.cfi_def_cfa 7, 8
 10064 3bb0 C3       		ret
 10065              		.cfi_endproc
 10066              	.LFE1309:
 10068              		.set	_ZN12_GLOBAL__N_123TestCheckArrayCloseTrueD1Ev,_ZN12_GLOBAL__N_123TestCheckArrayCloseTrueD2Ev
 10069 3bb1 90       		.align 2
 10071              	_ZN12_GLOBAL__N_123TestCheckArrayCloseTrueD0Ev:
 10072              	.LFB1311:
 203:TestChecks.cpp **** {
 10073              		.loc 5 203 0 is_stmt 1
 10074              		.cfi_startproc
 10075 3bb2 55       		pushq	%rbp
 10076              		.cfi_def_cfa_offset 16
 10077              		.cfi_offset 6, -16
 10078 3bb3 4889E5   		movq	%rsp, %rbp
 10079              		.cfi_def_cfa_register 6
 10080 3bb6 4883EC10 		subq	$16, %rsp
 10081 3bba 48897DF8 		movq	%rdi, -8(%rbp)
 203:TestChecks.cpp **** {
 10082              		.loc 5 203 0
 10083 3bbe 488B45F8 		movq	-8(%rbp), %rax
 10084 3bc2 4889C7   		movq	%rax, %rdi
 10085 3bc5 E8ACFFFF 		call	_ZN12_GLOBAL__N_123TestCheckArrayCloseTrueD1Ev
 10085      FF
 10086 3bca 488B45F8 		movq	-8(%rbp), %rax
 10087 3bce 4889C7   		movq	%rax, %rdi
 10088 3bd1 E8000000 		call	_ZdlPv
 10088      00
 10089 3bd6 C9       		leave
 10090              		.cfi_def_cfa 7, 8
 10091 3bd7 C3       		ret
 10092              		.cfi_endproc
 10093              	.LFE1311:
 10095              		.section	.rodata
 10096              		.align 8
 10099              	_ZTVN12_GLOBAL__N_124TestCheckArrayEqualFalseE:
 10100 0d18 00000000 		.quad	0
 10100      00000000 
 10101 0d20 00000000 		.quad	_ZTIN12_GLOBAL__N_124TestCheckArrayEqualFalseE
 10101      00000000 
 10102 0d28 00000000 		.quad	_ZN12_GLOBAL__N_124TestCheckArrayEqualFalseD1Ev
 10102      00000000 
 10103 0d30 00000000 		.quad	_ZN12_GLOBAL__N_124TestCheckArrayEqualFalseD0Ev
 10103      00000000 
 10104 0d38 00000000 		.quad	_ZNK12_GLOBAL__N_124TestCheckArrayEqualFalse7RunImplEv
 10104      00000000 
 10105              		.text
 10106              		.align 2
 10108              	_ZN12_GLOBAL__N_124TestCheckArrayEqualFalseD2Ev:
 10109              	.LFB1313:
 193:TestChecks.cpp **** {
 10110              		.loc 5 193 0
 10111              		.cfi_startproc
 10112 3bd8 55       		pushq	%rbp
 10113              		.cfi_def_cfa_offset 16
 10114              		.cfi_offset 6, -16
 10115 3bd9 4889E5   		movq	%rsp, %rbp
 10116              		.cfi_def_cfa_register 6
 10117 3bdc 4883EC10 		subq	$16, %rsp
 10118 3be0 48897DF8 		movq	%rdi, -8(%rbp)
 10119              	.LBB90:
 193:TestChecks.cpp **** {
 10120              		.loc 5 193 0
 10121 3be4 BA000000 		movl	$_ZTVN12_GLOBAL__N_124TestCheckArrayEqualFalseE+16, %edx
 10121      00
 10122 3be9 488B45F8 		movq	-8(%rbp), %rax
 10123 3bed 488910   		movq	%rdx, (%rax)
 10124 3bf0 488B45F8 		movq	-8(%rbp), %rax
 10125 3bf4 4889C7   		movq	%rax, %rdi
 10126 3bf7 E8000000 		call	_ZN8UnitTest4TestD2Ev
 10126      00
 10127              	.LBE90:
 10128 3bfc B8000000 		movl	$0, %eax
 10128      00
 10129 3c01 85C0     		testl	%eax, %eax
 10130 3c03 740C     		je	.L501
 193:TestChecks.cpp **** {
 10131              		.loc 5 193 0 is_stmt 0 discriminator 4
 10132 3c05 488B45F8 		movq	-8(%rbp), %rax
 10133 3c09 4889C7   		movq	%rax, %rdi
 10134 3c0c E8000000 		call	_ZdlPv
 10134      00
 10135              	.L501:
 193:TestChecks.cpp **** {
 10136              		.loc 5 193 0
 10137 3c11 C9       		leave
 10138              		.cfi_def_cfa 7, 8
 10139 3c12 C3       		ret
 10140              		.cfi_endproc
 10141              	.LFE1313:
 10143              		.set	_ZN12_GLOBAL__N_124TestCheckArrayEqualFalseD1Ev,_ZN12_GLOBAL__N_124TestCheckArrayEqualFalseD2
 10144 3c13 90       		.align 2
 10146              	_ZN12_GLOBAL__N_124TestCheckArrayEqualFalseD0Ev:
 10147              	.LFB1315:
 193:TestChecks.cpp **** {
 10148              		.loc 5 193 0 is_stmt 1
 10149              		.cfi_startproc
 10150 3c14 55       		pushq	%rbp
 10151              		.cfi_def_cfa_offset 16
 10152              		.cfi_offset 6, -16
 10153 3c15 4889E5   		movq	%rsp, %rbp
 10154              		.cfi_def_cfa_register 6
 10155 3c18 4883EC10 		subq	$16, %rsp
 10156 3c1c 48897DF8 		movq	%rdi, -8(%rbp)
 193:TestChecks.cpp **** {
 10157              		.loc 5 193 0
 10158 3c20 488B45F8 		movq	-8(%rbp), %rax
 10159 3c24 4889C7   		movq	%rax, %rdi
 10160 3c27 E8ACFFFF 		call	_ZN12_GLOBAL__N_124TestCheckArrayEqualFalseD1Ev
 10160      FF
 10161 3c2c 488B45F8 		movq	-8(%rbp), %rax
 10162 3c30 4889C7   		movq	%rax, %rdi
 10163 3c33 E8000000 		call	_ZdlPv
 10163      00
 10164 3c38 C9       		leave
 10165              		.cfi_def_cfa 7, 8
 10166 3c39 C3       		ret
 10167              		.cfi_endproc
 10168              	.LFE1315:
 10170              		.section	.rodata
 10171              		.align 8
 10174              	_ZTVN12_GLOBAL__N_123TestCheckArrayEqualTrueE:
 10175 0d40 00000000 		.quad	0
 10175      00000000 
 10176 0d48 00000000 		.quad	_ZTIN12_GLOBAL__N_123TestCheckArrayEqualTrueE
 10176      00000000 
 10177 0d50 00000000 		.quad	_ZN12_GLOBAL__N_123TestCheckArrayEqualTrueD1Ev
 10177      00000000 
 10178 0d58 00000000 		.quad	_ZN12_GLOBAL__N_123TestCheckArrayEqualTrueD0Ev
 10178      00000000 
 10179 0d60 00000000 		.quad	_ZNK12_GLOBAL__N_123TestCheckArrayEqualTrue7RunImplEv
 10179      00000000 
 10180              		.text
 10181              		.align 2
 10183              	_ZN12_GLOBAL__N_123TestCheckArrayEqualTrueD2Ev:
 10184              	.LFB1317:
 184:TestChecks.cpp **** {
 10185              		.loc 5 184 0
 10186              		.cfi_startproc
 10187 3c3a 55       		pushq	%rbp
 10188              		.cfi_def_cfa_offset 16
 10189              		.cfi_offset 6, -16
 10190 3c3b 4889E5   		movq	%rsp, %rbp
 10191              		.cfi_def_cfa_register 6
 10192 3c3e 4883EC10 		subq	$16, %rsp
 10193 3c42 48897DF8 		movq	%rdi, -8(%rbp)
 10194              	.LBB91:
 184:TestChecks.cpp **** {
 10195              		.loc 5 184 0
 10196 3c46 BA000000 		movl	$_ZTVN12_GLOBAL__N_123TestCheckArrayEqualTrueE+16, %edx
 10196      00
 10197 3c4b 488B45F8 		movq	-8(%rbp), %rax
 10198 3c4f 488910   		movq	%rdx, (%rax)
 10199 3c52 488B45F8 		movq	-8(%rbp), %rax
 10200 3c56 4889C7   		movq	%rax, %rdi
 10201 3c59 E8000000 		call	_ZN8UnitTest4TestD2Ev
 10201      00
 10202              	.LBE91:
 10203 3c5e B8000000 		movl	$0, %eax
 10203      00
 10204 3c63 85C0     		testl	%eax, %eax
 10205 3c65 740C     		je	.L504
 184:TestChecks.cpp **** {
 10206              		.loc 5 184 0 is_stmt 0 discriminator 4
 10207 3c67 488B45F8 		movq	-8(%rbp), %rax
 10208 3c6b 4889C7   		movq	%rax, %rdi
 10209 3c6e E8000000 		call	_ZdlPv
 10209      00
 10210              	.L504:
 184:TestChecks.cpp **** {
 10211              		.loc 5 184 0
 10212 3c73 C9       		leave
 10213              		.cfi_def_cfa 7, 8
 10214 3c74 C3       		ret
 10215              		.cfi_endproc
 10216              	.LFE1317:
 10218              		.set	_ZN12_GLOBAL__N_123TestCheckArrayEqualTrueD1Ev,_ZN12_GLOBAL__N_123TestCheckArrayEqualTrueD2Ev
 10219 3c75 90       		.align 2
 10221              	_ZN12_GLOBAL__N_123TestCheckArrayEqualTrueD0Ev:
 10222              	.LFB1319:
 184:TestChecks.cpp **** {
 10223              		.loc 5 184 0 is_stmt 1
 10224              		.cfi_startproc
 10225 3c76 55       		pushq	%rbp
 10226              		.cfi_def_cfa_offset 16
 10227              		.cfi_offset 6, -16
 10228 3c77 4889E5   		movq	%rsp, %rbp
 10229              		.cfi_def_cfa_register 6
 10230 3c7a 4883EC10 		subq	$16, %rsp
 10231 3c7e 48897DF8 		movq	%rdi, -8(%rbp)
 184:TestChecks.cpp **** {
 10232              		.loc 5 184 0
 10233 3c82 488B45F8 		movq	-8(%rbp), %rax
 10234 3c86 4889C7   		movq	%rax, %rdi
 10235 3c89 E8ACFFFF 		call	_ZN12_GLOBAL__N_123TestCheckArrayEqualTrueD1Ev
 10235      FF
 10236 3c8e 488B45F8 		movq	-8(%rbp), %rax
 10237 3c92 4889C7   		movq	%rax, %rdi
 10238 3c95 E8000000 		call	_ZdlPv
 10238      00
 10239 3c9a C9       		leave
 10240              		.cfi_def_cfa 7, 8
 10241 3c9b C3       		ret
 10242              		.cfi_endproc
 10243              	.LFE1319:
 10245              		.section	.rodata
 10246              		.align 8
 10249              	_ZTVN12_GLOBAL__N_136TestCheckCloseFailureIncludesDetailsE:
 10250 0d68 00000000 		.quad	0
 10250      00000000 
 10251 0d70 00000000 		.quad	_ZTIN12_GLOBAL__N_136TestCheckCloseFailureIncludesDetailsE
 10251      00000000 
 10252 0d78 00000000 		.quad	_ZN12_GLOBAL__N_136TestCheckCloseFailureIncludesDetailsD1Ev
 10252      00000000 
 10253 0d80 00000000 		.quad	_ZN12_GLOBAL__N_136TestCheckCloseFailureIncludesDetailsD0Ev
 10253      00000000 
 10254 0d88 00000000 		.quad	_ZNK12_GLOBAL__N_136TestCheckCloseFailureIncludesDetails7RunImplEv
 10254      00000000 
 10255              		.text
 10256              		.align 2
 10258              	_ZN12_GLOBAL__N_136TestCheckCloseFailureIncludesDetailsD2Ev:
 10259              	.LFB1321:
 169:TestChecks.cpp **** {
 10260              		.loc 5 169 0
 10261              		.cfi_startproc
 10262 3c9c 55       		pushq	%rbp
 10263              		.cfi_def_cfa_offset 16
 10264              		.cfi_offset 6, -16
 10265 3c9d 4889E5   		movq	%rsp, %rbp
 10266              		.cfi_def_cfa_register 6
 10267 3ca0 4883EC10 		subq	$16, %rsp
 10268 3ca4 48897DF8 		movq	%rdi, -8(%rbp)
 10269              	.LBB92:
 169:TestChecks.cpp **** {
 10270              		.loc 5 169 0
 10271 3ca8 BA000000 		movl	$_ZTVN12_GLOBAL__N_136TestCheckCloseFailureIncludesDetailsE+16, %edx
 10271      00
 10272 3cad 488B45F8 		movq	-8(%rbp), %rax
 10273 3cb1 488910   		movq	%rdx, (%rax)
 10274 3cb4 488B45F8 		movq	-8(%rbp), %rax
 10275 3cb8 4889C7   		movq	%rax, %rdi
 10276 3cbb E8000000 		call	_ZN8UnitTest4TestD2Ev
 10276      00
 10277              	.LBE92:
 10278 3cc0 B8000000 		movl	$0, %eax
 10278      00
 10279 3cc5 85C0     		testl	%eax, %eax
 10280 3cc7 740C     		je	.L507
 169:TestChecks.cpp **** {
 10281              		.loc 5 169 0 is_stmt 0 discriminator 4
 10282 3cc9 488B45F8 		movq	-8(%rbp), %rax
 10283 3ccd 4889C7   		movq	%rax, %rdi
 10284 3cd0 E8000000 		call	_ZdlPv
 10284      00
 10285              	.L507:
 169:TestChecks.cpp **** {
 10286              		.loc 5 169 0
 10287 3cd5 C9       		leave
 10288              		.cfi_def_cfa 7, 8
 10289 3cd6 C3       		ret
 10290              		.cfi_endproc
 10291              	.LFE1321:
 10293              		.set	_ZN12_GLOBAL__N_136TestCheckCloseFailureIncludesDetailsD1Ev,_ZN12_GLOBAL__N_136TestCheckClose
 10294 3cd7 90       		.align 2
 10296              	_ZN12_GLOBAL__N_136TestCheckCloseFailureIncludesDetailsD0Ev:
 10297              	.LFB1323:
 169:TestChecks.cpp **** {
 10298              		.loc 5 169 0 is_stmt 1
 10299              		.cfi_startproc
 10300 3cd8 55       		pushq	%rbp
 10301              		.cfi_def_cfa_offset 16
 10302              		.cfi_offset 6, -16
 10303 3cd9 4889E5   		movq	%rsp, %rbp
 10304              		.cfi_def_cfa_register 6
 10305 3cdc 4883EC10 		subq	$16, %rsp
 10306 3ce0 48897DF8 		movq	%rdi, -8(%rbp)
 169:TestChecks.cpp **** {
 10307              		.loc 5 169 0
 10308 3ce4 488B45F8 		movq	-8(%rbp), %rax
 10309 3ce8 4889C7   		movq	%rax, %rdi
 10310 3ceb E8ACFFFF 		call	_ZN12_GLOBAL__N_136TestCheckCloseFailureIncludesDetailsD1Ev
 10310      FF
 10311 3cf0 488B45F8 		movq	-8(%rbp), %rax
 10312 3cf4 4889C7   		movq	%rax, %rdi
 10313 3cf7 E8000000 		call	_ZdlPv
 10313      00
 10314 3cfc C9       		leave
 10315              		.cfi_def_cfa 7, 8
 10316 3cfd C3       		ret
 10317              		.cfi_endproc
 10318              	.LFE1323:
 10320              		.section	.rodata
 10321              		.align 8
 10324              	_ZTVN12_GLOBAL__N_138TestCheckCloseFailureIncludesToleranceE:
 10325 0d90 00000000 		.quad	0
 10325      00000000 
 10326 0d98 00000000 		.quad	_ZTIN12_GLOBAL__N_138TestCheckCloseFailureIncludesToleranceE
 10326      00000000 
 10327 0da0 00000000 		.quad	_ZN12_GLOBAL__N_138TestCheckCloseFailureIncludesToleranceD1Ev
 10327      00000000 
 10328 0da8 00000000 		.quad	_ZN12_GLOBAL__N_138TestCheckCloseFailureIncludesToleranceD0Ev
 10328      00000000 
 10329 0db0 00000000 		.quad	_ZNK12_GLOBAL__N_138TestCheckCloseFailureIncludesTolerance7RunImplEv
 10329      00000000 
 10330              		.text
 10331              		.align 2
 10333              	_ZN12_GLOBAL__N_138TestCheckCloseFailureIncludesToleranceD2Ev:
 10334              	.LFB1325:
 159:TestChecks.cpp **** {
 10335              		.loc 5 159 0
 10336              		.cfi_startproc
 10337 3cfe 55       		pushq	%rbp
 10338              		.cfi_def_cfa_offset 16
 10339              		.cfi_offset 6, -16
 10340 3cff 4889E5   		movq	%rsp, %rbp
 10341              		.cfi_def_cfa_register 6
 10342 3d02 4883EC10 		subq	$16, %rsp
 10343 3d06 48897DF8 		movq	%rdi, -8(%rbp)
 10344              	.LBB93:
 159:TestChecks.cpp **** {
 10345              		.loc 5 159 0
 10346 3d0a BA000000 		movl	$_ZTVN12_GLOBAL__N_138TestCheckCloseFailureIncludesToleranceE+16, %edx
 10346      00
 10347 3d0f 488B45F8 		movq	-8(%rbp), %rax
 10348 3d13 488910   		movq	%rdx, (%rax)
 10349 3d16 488B45F8 		movq	-8(%rbp), %rax
 10350 3d1a 4889C7   		movq	%rax, %rdi
 10351 3d1d E8000000 		call	_ZN8UnitTest4TestD2Ev
 10351      00
 10352              	.LBE93:
 10353 3d22 B8000000 		movl	$0, %eax
 10353      00
 10354 3d27 85C0     		testl	%eax, %eax
 10355 3d29 740C     		je	.L510
 159:TestChecks.cpp **** {
 10356              		.loc 5 159 0 is_stmt 0 discriminator 4
 10357 3d2b 488B45F8 		movq	-8(%rbp), %rax
 10358 3d2f 4889C7   		movq	%rax, %rdi
 10359 3d32 E8000000 		call	_ZdlPv
 10359      00
 10360              	.L510:
 159:TestChecks.cpp **** {
 10361              		.loc 5 159 0
 10362 3d37 C9       		leave
 10363              		.cfi_def_cfa 7, 8
 10364 3d38 C3       		ret
 10365              		.cfi_endproc
 10366              	.LFE1325:
 10368              		.set	_ZN12_GLOBAL__N_138TestCheckCloseFailureIncludesToleranceD1Ev,_ZN12_GLOBAL__N_138TestCheckClo
 10369 3d39 90       		.align 2
 10371              	_ZN12_GLOBAL__N_138TestCheckCloseFailureIncludesToleranceD0Ev:
 10372              	.LFB1327:
 159:TestChecks.cpp **** {
 10373              		.loc 5 159 0 is_stmt 1
 10374              		.cfi_startproc
 10375 3d3a 55       		pushq	%rbp
 10376              		.cfi_def_cfa_offset 16
 10377              		.cfi_offset 6, -16
 10378 3d3b 4889E5   		movq	%rsp, %rbp
 10379              		.cfi_def_cfa_register 6
 10380 3d3e 4883EC10 		subq	$16, %rsp
 10381 3d42 48897DF8 		movq	%rdi, -8(%rbp)
 159:TestChecks.cpp **** {
 10382              		.loc 5 159 0
 10383 3d46 488B45F8 		movq	-8(%rbp), %rax
 10384 3d4a 4889C7   		movq	%rax, %rdi
 10385 3d4d E8ACFFFF 		call	_ZN12_GLOBAL__N_138TestCheckCloseFailureIncludesToleranceD1Ev
 10385      FF
 10386 3d52 488B45F8 		movq	-8(%rbp), %rax
 10387 3d56 4889C7   		movq	%rax, %rdi
 10388 3d59 E8000000 		call	_ZdlPv
 10388      00
 10389 3d5e C9       		leave
 10390              		.cfi_def_cfa 7, 8
 10391 3d5f C3       		ret
 10392              		.cfi_endproc
 10393              	.LFE1327:
 10395              		.section	.rodata
 10396              		.align 8
 10399              	_ZTVN12_GLOBAL__N_151TestCheckCloseFailureIncludesCheckExpectedAndActualE:
 10400 0db8 00000000 		.quad	0
 10400      00000000 
 10401 0dc0 00000000 		.quad	_ZTIN12_GLOBAL__N_151TestCheckCloseFailureIncludesCheckExpectedAndActualE
 10401      00000000 
 10402 0dc8 00000000 		.quad	_ZN12_GLOBAL__N_151TestCheckCloseFailureIncludesCheckExpectedAndActualD1Ev
 10402      00000000 
 10403 0dd0 00000000 		.quad	_ZN12_GLOBAL__N_151TestCheckCloseFailureIncludesCheckExpectedAndActualD0Ev
 10403      00000000 
 10404 0dd8 00000000 		.quad	_ZNK12_GLOBAL__N_151TestCheckCloseFailureIncludesCheckExpectedAndActual7RunImplEv
 10404      00000000 
 10405              		.text
 10406              		.align 2
 10408              	_ZN12_GLOBAL__N_151TestCheckCloseFailureIncludesCheckExpectedAndActualD2Ev:
 10409              	.LFB1329:
 146:TestChecks.cpp **** {
 10410              		.loc 5 146 0
 10411              		.cfi_startproc
 10412 3d60 55       		pushq	%rbp
 10413              		.cfi_def_cfa_offset 16
 10414              		.cfi_offset 6, -16
 10415 3d61 4889E5   		movq	%rsp, %rbp
 10416              		.cfi_def_cfa_register 6
 10417 3d64 4883EC10 		subq	$16, %rsp
 10418 3d68 48897DF8 		movq	%rdi, -8(%rbp)
 10419              	.LBB94:
 146:TestChecks.cpp **** {
 10420              		.loc 5 146 0
 10421 3d6c BA000000 		movl	$_ZTVN12_GLOBAL__N_151TestCheckCloseFailureIncludesCheckExpectedAndActualE+16, %edx
 10421      00
 10422 3d71 488B45F8 		movq	-8(%rbp), %rax
 10423 3d75 488910   		movq	%rdx, (%rax)
 10424 3d78 488B45F8 		movq	-8(%rbp), %rax
 10425 3d7c 4889C7   		movq	%rax, %rdi
 10426 3d7f E8000000 		call	_ZN8UnitTest4TestD2Ev
 10426      00
 10427              	.LBE94:
 10428 3d84 B8000000 		movl	$0, %eax
 10428      00
 10429 3d89 85C0     		testl	%eax, %eax
 10430 3d8b 740C     		je	.L513
 146:TestChecks.cpp **** {
 10431              		.loc 5 146 0 is_stmt 0 discriminator 4
 10432 3d8d 488B45F8 		movq	-8(%rbp), %rax
 10433 3d91 4889C7   		movq	%rax, %rdi
 10434 3d94 E8000000 		call	_ZdlPv
 10434      00
 10435              	.L513:
 146:TestChecks.cpp **** {
 10436              		.loc 5 146 0
 10437 3d99 C9       		leave
 10438              		.cfi_def_cfa 7, 8
 10439 3d9a C3       		ret
 10440              		.cfi_endproc
 10441              	.LFE1329:
 10443              		.set	_ZN12_GLOBAL__N_151TestCheckCloseFailureIncludesCheckExpectedAndActualD1Ev,_ZN12_GLOBAL__N_15
 10444 3d9b 90       		.align 2
 10446              	_ZN12_GLOBAL__N_151TestCheckCloseFailureIncludesCheckExpectedAndActualD0Ev:
 10447              	.LFB1331:
 146:TestChecks.cpp **** {
 10448              		.loc 5 146 0 is_stmt 1
 10449              		.cfi_startproc
 10450 3d9c 55       		pushq	%rbp
 10451              		.cfi_def_cfa_offset 16
 10452              		.cfi_offset 6, -16
 10453 3d9d 4889E5   		movq	%rsp, %rbp
 10454              		.cfi_def_cfa_register 6
 10455 3da0 4883EC10 		subq	$16, %rsp
 10456 3da4 48897DF8 		movq	%rdi, -8(%rbp)
 146:TestChecks.cpp **** {
 10457              		.loc 5 146 0
 10458 3da8 488B45F8 		movq	-8(%rbp), %rax
 10459 3dac 4889C7   		movq	%rax, %rdi
 10460 3daf E8ACFFFF 		call	_ZN12_GLOBAL__N_151TestCheckCloseFailureIncludesCheckExpectedAndActualD1Ev
 10460      FF
 10461 3db4 488B45F8 		movq	-8(%rbp), %rax
 10462 3db8 4889C7   		movq	%rax, %rdi
 10463 3dbb E8000000 		call	_ZdlPv
 10463      00
 10464 3dc0 C9       		leave
 10465              		.cfi_def_cfa 7, 8
 10466 3dc1 C3       		ret
 10467              		.cfi_endproc
 10468              	.LFE1331:
 10470              		.section	.rodata
 10471              		.align 8
 10474              	_ZTVN12_GLOBAL__N_139TestCheckCloseWithNaNAgainstItselfFailsE:
 10475 0de0 00000000 		.quad	0
 10475      00000000 
 10476 0de8 00000000 		.quad	_ZTIN12_GLOBAL__N_139TestCheckCloseWithNaNAgainstItselfFailsE
 10476      00000000 
 10477 0df0 00000000 		.quad	_ZN12_GLOBAL__N_139TestCheckCloseWithNaNAgainstItselfFailsD1Ev
 10477      00000000 
 10478 0df8 00000000 		.quad	_ZN12_GLOBAL__N_139TestCheckCloseWithNaNAgainstItselfFailsD0Ev
 10478      00000000 
 10479 0e00 00000000 		.quad	_ZNK12_GLOBAL__N_139TestCheckCloseWithNaNAgainstItselfFails7RunImplEv
 10479      00000000 
 10480              		.text
 10481              		.align 2
 10483              	_ZN12_GLOBAL__N_139TestCheckCloseWithNaNAgainstItselfFailsD2Ev:
 10484              	.LFB1333:
 133:TestChecks.cpp **** {
 10485              		.loc 5 133 0
 10486              		.cfi_startproc
 10487 3dc2 55       		pushq	%rbp
 10488              		.cfi_def_cfa_offset 16
 10489              		.cfi_offset 6, -16
 10490 3dc3 4889E5   		movq	%rsp, %rbp
 10491              		.cfi_def_cfa_register 6
 10492 3dc6 4883EC10 		subq	$16, %rsp
 10493 3dca 48897DF8 		movq	%rdi, -8(%rbp)
 10494              	.LBB95:
 133:TestChecks.cpp **** {
 10495              		.loc 5 133 0
 10496 3dce BA000000 		movl	$_ZTVN12_GLOBAL__N_139TestCheckCloseWithNaNAgainstItselfFailsE+16, %edx
 10496      00
 10497 3dd3 488B45F8 		movq	-8(%rbp), %rax
 10498 3dd7 488910   		movq	%rdx, (%rax)
 10499 3dda 488B45F8 		movq	-8(%rbp), %rax
 10500 3dde 4889C7   		movq	%rax, %rdi
 10501 3de1 E8000000 		call	_ZN8UnitTest4TestD2Ev
 10501      00
 10502              	.LBE95:
 10503 3de6 B8000000 		movl	$0, %eax
 10503      00
 10504 3deb 85C0     		testl	%eax, %eax
 10505 3ded 740C     		je	.L516
 133:TestChecks.cpp **** {
 10506              		.loc 5 133 0 is_stmt 0 discriminator 4
 10507 3def 488B45F8 		movq	-8(%rbp), %rax
 10508 3df3 4889C7   		movq	%rax, %rdi
 10509 3df6 E8000000 		call	_ZdlPv
 10509      00
 10510              	.L516:
 133:TestChecks.cpp **** {
 10511              		.loc 5 133 0
 10512 3dfb C9       		leave
 10513              		.cfi_def_cfa 7, 8
 10514 3dfc C3       		ret
 10515              		.cfi_endproc
 10516              	.LFE1333:
 10518              		.set	_ZN12_GLOBAL__N_139TestCheckCloseWithNaNAgainstItselfFailsD1Ev,_ZN12_GLOBAL__N_139TestCheckCl
 10519 3dfd 90       		.align 2
 10521              	_ZN12_GLOBAL__N_139TestCheckCloseWithNaNAgainstItselfFailsD0Ev:
 10522              	.LFB1335:
 133:TestChecks.cpp **** {
 10523              		.loc 5 133 0 is_stmt 1
 10524              		.cfi_startproc
 10525 3dfe 55       		pushq	%rbp
 10526              		.cfi_def_cfa_offset 16
 10527              		.cfi_offset 6, -16
 10528 3dff 4889E5   		movq	%rsp, %rbp
 10529              		.cfi_def_cfa_register 6
 10530 3e02 4883EC10 		subq	$16, %rsp
 10531 3e06 48897DF8 		movq	%rdi, -8(%rbp)
 133:TestChecks.cpp **** {
 10532              		.loc 5 133 0
 10533 3e0a 488B45F8 		movq	-8(%rbp), %rax
 10534 3e0e 4889C7   		movq	%rax, %rdi
 10535 3e11 E8ACFFFF 		call	_ZN12_GLOBAL__N_139TestCheckCloseWithNaNAgainstItselfFailsD1Ev
 10535      FF
 10536 3e16 488B45F8 		movq	-8(%rbp), %rax
 10537 3e1a 4889C7   		movq	%rax, %rdi
 10538 3e1d E8000000 		call	_ZdlPv
 10538      00
 10539 3e22 C9       		leave
 10540              		.cfi_def_cfa 7, 8
 10541 3e23 C3       		ret
 10542              		.cfi_endproc
 10543              	.LFE1335:
 10545              		.section	.rodata
 10546              		.align 8
 10549              	_ZTVN12_GLOBAL__N_126TestCheckCloseWithNaNFailsE:
 10550 0e08 00000000 		.quad	0
 10550      00000000 
 10551 0e10 00000000 		.quad	_ZTIN12_GLOBAL__N_126TestCheckCloseWithNaNFailsE
 10551      00000000 
 10552 0e18 00000000 		.quad	_ZN12_GLOBAL__N_126TestCheckCloseWithNaNFailsD1Ev
 10552      00000000 
 10553 0e20 00000000 		.quad	_ZN12_GLOBAL__N_126TestCheckCloseWithNaNFailsD0Ev
 10553      00000000 
 10554 0e28 00000000 		.quad	_ZNK12_GLOBAL__N_126TestCheckCloseWithNaNFails7RunImplEv
 10554      00000000 
 10555              		.text
 10556              		.align 2
 10558              	_ZN12_GLOBAL__N_126TestCheckCloseWithNaNFailsD2Ev:
 10559              	.LFB1337:
 120:TestChecks.cpp **** {
 10560              		.loc 5 120 0
 10561              		.cfi_startproc
 10562 3e24 55       		pushq	%rbp
 10563              		.cfi_def_cfa_offset 16
 10564              		.cfi_offset 6, -16
 10565 3e25 4889E5   		movq	%rsp, %rbp
 10566              		.cfi_def_cfa_register 6
 10567 3e28 4883EC10 		subq	$16, %rsp
 10568 3e2c 48897DF8 		movq	%rdi, -8(%rbp)
 10569              	.LBB96:
 120:TestChecks.cpp **** {
 10570              		.loc 5 120 0
 10571 3e30 BA000000 		movl	$_ZTVN12_GLOBAL__N_126TestCheckCloseWithNaNFailsE+16, %edx
 10571      00
 10572 3e35 488B45F8 		movq	-8(%rbp), %rax
 10573 3e39 488910   		movq	%rdx, (%rax)
 10574 3e3c 488B45F8 		movq	-8(%rbp), %rax
 10575 3e40 4889C7   		movq	%rax, %rdi
 10576 3e43 E8000000 		call	_ZN8UnitTest4TestD2Ev
 10576      00
 10577              	.LBE96:
 10578 3e48 B8000000 		movl	$0, %eax
 10578      00
 10579 3e4d 85C0     		testl	%eax, %eax
 10580 3e4f 740C     		je	.L519
 120:TestChecks.cpp **** {
 10581              		.loc 5 120 0 is_stmt 0 discriminator 4
 10582 3e51 488B45F8 		movq	-8(%rbp), %rax
 10583 3e55 4889C7   		movq	%rax, %rdi
 10584 3e58 E8000000 		call	_ZdlPv
 10584      00
 10585              	.L519:
 120:TestChecks.cpp **** {
 10586              		.loc 5 120 0
 10587 3e5d C9       		leave
 10588              		.cfi_def_cfa 7, 8
 10589 3e5e C3       		ret
 10590              		.cfi_endproc
 10591              	.LFE1337:
 10593              		.set	_ZN12_GLOBAL__N_126TestCheckCloseWithNaNFailsD1Ev,_ZN12_GLOBAL__N_126TestCheckCloseWithNaNFai
 10594 3e5f 90       		.align 2
 10596              	_ZN12_GLOBAL__N_126TestCheckCloseWithNaNFailsD0Ev:
 10597              	.LFB1339:
 120:TestChecks.cpp **** {
 10598              		.loc 5 120 0 is_stmt 1
 10599              		.cfi_startproc
 10600 3e60 55       		pushq	%rbp
 10601              		.cfi_def_cfa_offset 16
 10602              		.cfi_offset 6, -16
 10603 3e61 4889E5   		movq	%rsp, %rbp
 10604              		.cfi_def_cfa_register 6
 10605 3e64 4883EC10 		subq	$16, %rsp
 10606 3e68 48897DF8 		movq	%rdi, -8(%rbp)
 120:TestChecks.cpp **** {
 10607              		.loc 5 120 0
 10608 3e6c 488B45F8 		movq	-8(%rbp), %rax
 10609 3e70 4889C7   		movq	%rax, %rdi
 10610 3e73 E8ACFFFF 		call	_ZN12_GLOBAL__N_126TestCheckCloseWithNaNFailsD1Ev
 10610      FF
 10611 3e78 488B45F8 		movq	-8(%rbp), %rax
 10612 3e7c 4889C7   		movq	%rax, %rdi
 10613 3e7f E8000000 		call	_ZdlPv
 10613      00
 10614 3e84 C9       		leave
 10615              		.cfi_def_cfa 7, 8
 10616 3e85 C3       		ret
 10617              		.cfi_endproc
 10618              	.LFE1339:
 10620              		.section	.rodata
 10621              		.align 8
 10624              	_ZTVN12_GLOBAL__N_147TestCheckCloseWithZeroEpsilonWorksForSameNumberE:
 10625 0e30 00000000 		.quad	0
 10625      00000000 
 10626 0e38 00000000 		.quad	_ZTIN12_GLOBAL__N_147TestCheckCloseWithZeroEpsilonWorksForSameNumberE
 10626      00000000 
 10627 0e40 00000000 		.quad	_ZN12_GLOBAL__N_147TestCheckCloseWithZeroEpsilonWorksForSameNumberD1Ev
 10627      00000000 
 10628 0e48 00000000 		.quad	_ZN12_GLOBAL__N_147TestCheckCloseWithZeroEpsilonWorksForSameNumberD0Ev
 10628      00000000 
 10629 0e50 00000000 		.quad	_ZNK12_GLOBAL__N_147TestCheckCloseWithZeroEpsilonWorksForSameNumber7RunImplEv
 10629      00000000 
 10630              		.text
 10631              		.align 2
 10633              	_ZN12_GLOBAL__N_147TestCheckCloseWithZeroEpsilonWorksForSameNumberD2Ev:
 10634              	.LFB1341:
 113:TestChecks.cpp **** {
 10635              		.loc 5 113 0
 10636              		.cfi_startproc
 10637 3e86 55       		pushq	%rbp
 10638              		.cfi_def_cfa_offset 16
 10639              		.cfi_offset 6, -16
 10640 3e87 4889E5   		movq	%rsp, %rbp
 10641              		.cfi_def_cfa_register 6
 10642 3e8a 4883EC10 		subq	$16, %rsp
 10643 3e8e 48897DF8 		movq	%rdi, -8(%rbp)
 10644              	.LBB97:
 113:TestChecks.cpp **** {
 10645              		.loc 5 113 0
 10646 3e92 BA000000 		movl	$_ZTVN12_GLOBAL__N_147TestCheckCloseWithZeroEpsilonWorksForSameNumberE+16, %edx
 10646      00
 10647 3e97 488B45F8 		movq	-8(%rbp), %rax
 10648 3e9b 488910   		movq	%rdx, (%rax)
 10649 3e9e 488B45F8 		movq	-8(%rbp), %rax
 10650 3ea2 4889C7   		movq	%rax, %rdi
 10651 3ea5 E8000000 		call	_ZN8UnitTest4TestD2Ev
 10651      00
 10652              	.LBE97:
 10653 3eaa B8000000 		movl	$0, %eax
 10653      00
 10654 3eaf 85C0     		testl	%eax, %eax
 10655 3eb1 740C     		je	.L522
 113:TestChecks.cpp **** {
 10656              		.loc 5 113 0 is_stmt 0 discriminator 4
 10657 3eb3 488B45F8 		movq	-8(%rbp), %rax
 10658 3eb7 4889C7   		movq	%rax, %rdi
 10659 3eba E8000000 		call	_ZdlPv
 10659      00
 10660              	.L522:
 113:TestChecks.cpp **** {
 10661              		.loc 5 113 0
 10662 3ebf C9       		leave
 10663              		.cfi_def_cfa 7, 8
 10664 3ec0 C3       		ret
 10665              		.cfi_endproc
 10666              	.LFE1341:
 10668              		.set	_ZN12_GLOBAL__N_147TestCheckCloseWithZeroEpsilonWorksForSameNumberD1Ev,_ZN12_GLOBAL__N_147Tes
 10669 3ec1 90       		.align 2
 10671              	_ZN12_GLOBAL__N_147TestCheckCloseWithZeroEpsilonWorksForSameNumberD0Ev:
 10672              	.LFB1343:
 113:TestChecks.cpp **** {
 10673              		.loc 5 113 0 is_stmt 1
 10674              		.cfi_startproc
 10675 3ec2 55       		pushq	%rbp
 10676              		.cfi_def_cfa_offset 16
 10677              		.cfi_offset 6, -16
 10678 3ec3 4889E5   		movq	%rsp, %rbp
 10679              		.cfi_def_cfa_register 6
 10680 3ec6 4883EC10 		subq	$16, %rsp
 10681 3eca 48897DF8 		movq	%rdi, -8(%rbp)
 113:TestChecks.cpp **** {
 10682              		.loc 5 113 0
 10683 3ece 488B45F8 		movq	-8(%rbp), %rax
 10684 3ed2 4889C7   		movq	%rax, %rdi
 10685 3ed5 E8ACFFFF 		call	_ZN12_GLOBAL__N_147TestCheckCloseWithZeroEpsilonWorksForSameNumberD1Ev
 10685      FF
 10686 3eda 488B45F8 		movq	-8(%rbp), %rax
 10687 3ede 4889C7   		movq	%rax, %rdi
 10688 3ee1 E8000000 		call	_ZdlPv
 10688      00
 10689 3ee6 C9       		leave
 10690              		.cfi_def_cfa 7, 8
 10691 3ee7 C3       		ret
 10692              		.cfi_endproc
 10693              	.LFE1343:
 10695              		.section	.rodata
 10696              		.align 8
 10699              	_ZTVN12_GLOBAL__N_119TestCheckCloseFalseE:
 10700 0e58 00000000 		.quad	0
 10700      00000000 
 10701 0e60 00000000 		.quad	_ZTIN12_GLOBAL__N_119TestCheckCloseFalseE
 10701      00000000 
 10702 0e68 00000000 		.quad	_ZN12_GLOBAL__N_119TestCheckCloseFalseD1Ev
 10702      00000000 
 10703 0e70 00000000 		.quad	_ZN12_GLOBAL__N_119TestCheckCloseFalseD0Ev
 10703      00000000 
 10704 0e78 00000000 		.quad	_ZNK12_GLOBAL__N_119TestCheckCloseFalse7RunImplEv
 10704      00000000 
 10705              		.text
 10706              		.align 2
 10708              	_ZN12_GLOBAL__N_119TestCheckCloseFalseD2Ev:
 10709              	.LFB1345:
 106:TestChecks.cpp **** {
 10710              		.loc 5 106 0
 10711              		.cfi_startproc
 10712 3ee8 55       		pushq	%rbp
 10713              		.cfi_def_cfa_offset 16
 10714              		.cfi_offset 6, -16
 10715 3ee9 4889E5   		movq	%rsp, %rbp
 10716              		.cfi_def_cfa_register 6
 10717 3eec 4883EC10 		subq	$16, %rsp
 10718 3ef0 48897DF8 		movq	%rdi, -8(%rbp)
 10719              	.LBB98:
 106:TestChecks.cpp **** {
 10720              		.loc 5 106 0
 10721 3ef4 BA000000 		movl	$_ZTVN12_GLOBAL__N_119TestCheckCloseFalseE+16, %edx
 10721      00
 10722 3ef9 488B45F8 		movq	-8(%rbp), %rax
 10723 3efd 488910   		movq	%rdx, (%rax)
 10724 3f00 488B45F8 		movq	-8(%rbp), %rax
 10725 3f04 4889C7   		movq	%rax, %rdi
 10726 3f07 E8000000 		call	_ZN8UnitTest4TestD2Ev
 10726      00
 10727              	.LBE98:
 10728 3f0c B8000000 		movl	$0, %eax
 10728      00
 10729 3f11 85C0     		testl	%eax, %eax
 10730 3f13 740C     		je	.L525
 106:TestChecks.cpp **** {
 10731              		.loc 5 106 0 is_stmt 0 discriminator 4
 10732 3f15 488B45F8 		movq	-8(%rbp), %rax
 10733 3f19 4889C7   		movq	%rax, %rdi
 10734 3f1c E8000000 		call	_ZdlPv
 10734      00
 10735              	.L525:
 106:TestChecks.cpp **** {
 10736              		.loc 5 106 0
 10737 3f21 C9       		leave
 10738              		.cfi_def_cfa 7, 8
 10739 3f22 C3       		ret
 10740              		.cfi_endproc
 10741              	.LFE1345:
 10743              		.set	_ZN12_GLOBAL__N_119TestCheckCloseFalseD1Ev,_ZN12_GLOBAL__N_119TestCheckCloseFalseD2Ev
 10744 3f23 90       		.align 2
 10746              	_ZN12_GLOBAL__N_119TestCheckCloseFalseD0Ev:
 10747              	.LFB1347:
 106:TestChecks.cpp **** {
 10748              		.loc 5 106 0 is_stmt 1
 10749              		.cfi_startproc
 10750 3f24 55       		pushq	%rbp
 10751              		.cfi_def_cfa_offset 16
 10752              		.cfi_offset 6, -16
 10753 3f25 4889E5   		movq	%rsp, %rbp
 10754              		.cfi_def_cfa_register 6
 10755 3f28 4883EC10 		subq	$16, %rsp
 10756 3f2c 48897DF8 		movq	%rdi, -8(%rbp)
 106:TestChecks.cpp **** {
 10757              		.loc 5 106 0
 10758 3f30 488B45F8 		movq	-8(%rbp), %rax
 10759 3f34 4889C7   		movq	%rax, %rdi
 10760 3f37 E8ACFFFF 		call	_ZN12_GLOBAL__N_119TestCheckCloseFalseD1Ev
 10760      FF
 10761 3f3c 488B45F8 		movq	-8(%rbp), %rax
 10762 3f40 4889C7   		movq	%rax, %rdi
 10763 3f43 E8000000 		call	_ZdlPv
 10763      00
 10764 3f48 C9       		leave
 10765              		.cfi_def_cfa 7, 8
 10766 3f49 C3       		ret
 10767              		.cfi_endproc
 10768              	.LFE1347:
 10770              		.section	.rodata
 10771              		.align 8
 10774              	_ZTVN12_GLOBAL__N_118TestCheckCloseTrueE:
 10775 0e80 00000000 		.quad	0
 10775      00000000 
 10776 0e88 00000000 		.quad	_ZTIN12_GLOBAL__N_118TestCheckCloseTrueE
 10776      00000000 
 10777 0e90 00000000 		.quad	_ZN12_GLOBAL__N_118TestCheckCloseTrueD1Ev
 10777      00000000 
 10778 0e98 00000000 		.quad	_ZN12_GLOBAL__N_118TestCheckCloseTrueD0Ev
 10778      00000000 
 10779 0ea0 00000000 		.quad	_ZNK12_GLOBAL__N_118TestCheckCloseTrue7RunImplEv
 10779      00000000 
 10780              		.text
 10781              		.align 2
 10783              	_ZN12_GLOBAL__N_118TestCheckCloseTrueD2Ev:
 10784              	.LFB1349:
  99:TestChecks.cpp **** {
 10785              		.loc 5 99 0
 10786              		.cfi_startproc
 10787 3f4a 55       		pushq	%rbp
 10788              		.cfi_def_cfa_offset 16
 10789              		.cfi_offset 6, -16
 10790 3f4b 4889E5   		movq	%rsp, %rbp
 10791              		.cfi_def_cfa_register 6
 10792 3f4e 4883EC10 		subq	$16, %rsp
 10793 3f52 48897DF8 		movq	%rdi, -8(%rbp)
 10794              	.LBB99:
  99:TestChecks.cpp **** {
 10795              		.loc 5 99 0
 10796 3f56 BA000000 		movl	$_ZTVN12_GLOBAL__N_118TestCheckCloseTrueE+16, %edx
 10796      00
 10797 3f5b 488B45F8 		movq	-8(%rbp), %rax
 10798 3f5f 488910   		movq	%rdx, (%rax)
 10799 3f62 488B45F8 		movq	-8(%rbp), %rax
 10800 3f66 4889C7   		movq	%rax, %rdi
 10801 3f69 E8000000 		call	_ZN8UnitTest4TestD2Ev
 10801      00
 10802              	.LBE99:
 10803 3f6e B8000000 		movl	$0, %eax
 10803      00
 10804 3f73 85C0     		testl	%eax, %eax
 10805 3f75 740C     		je	.L528
  99:TestChecks.cpp **** {
 10806              		.loc 5 99 0 is_stmt 0 discriminator 4
 10807 3f77 488B45F8 		movq	-8(%rbp), %rax
 10808 3f7b 4889C7   		movq	%rax, %rdi
 10809 3f7e E8000000 		call	_ZdlPv
 10809      00
 10810              	.L528:
  99:TestChecks.cpp **** {
 10811              		.loc 5 99 0
 10812 3f83 C9       		leave
 10813              		.cfi_def_cfa 7, 8
 10814 3f84 C3       		ret
 10815              		.cfi_endproc
 10816              	.LFE1349:
 10818              		.set	_ZN12_GLOBAL__N_118TestCheckCloseTrueD1Ev,_ZN12_GLOBAL__N_118TestCheckCloseTrueD2Ev
 10819 3f85 90       		.align 2
 10821              	_ZN12_GLOBAL__N_118TestCheckCloseTrueD0Ev:
 10822              	.LFB1351:
  99:TestChecks.cpp **** {
 10823              		.loc 5 99 0 is_stmt 1
 10824              		.cfi_startproc
 10825 3f86 55       		pushq	%rbp
 10826              		.cfi_def_cfa_offset 16
 10827              		.cfi_offset 6, -16
 10828 3f87 4889E5   		movq	%rsp, %rbp
 10829              		.cfi_def_cfa_register 6
 10830 3f8a 4883EC10 		subq	$16, %rsp
 10831 3f8e 48897DF8 		movq	%rdi, -8(%rbp)
  99:TestChecks.cpp **** {
 10832              		.loc 5 99 0
 10833 3f92 488B45F8 		movq	-8(%rbp), %rax
 10834 3f96 4889C7   		movq	%rax, %rdi
 10835 3f99 E8ACFFFF 		call	_ZN12_GLOBAL__N_118TestCheckCloseTrueD1Ev
 10835      FF
 10836 3f9e 488B45F8 		movq	-8(%rbp), %rax
 10837 3fa2 4889C7   		movq	%rax, %rdi
 10838 3fa5 E8000000 		call	_ZdlPv
 10838      00
 10839 3faa C9       		leave
 10840              		.cfi_def_cfa 7, 8
 10841 3fab C3       		ret
 10842              		.cfi_endproc
 10843              	.LFE1351:
 10845              		.section	.rodata
 10846              		.align 8
 10849              	_ZTVN12_GLOBAL__N_136TestCheckEqualFailureIncludesDetailsE:
 10850 0ea8 00000000 		.quad	0
 10850      00000000 
 10851 0eb0 00000000 		.quad	_ZTIN12_GLOBAL__N_136TestCheckEqualFailureIncludesDetailsE
 10851      00000000 
 10852 0eb8 00000000 		.quad	_ZN12_GLOBAL__N_136TestCheckEqualFailureIncludesDetailsD1Ev
 10852      00000000 
 10853 0ec0 00000000 		.quad	_ZN12_GLOBAL__N_136TestCheckEqualFailureIncludesDetailsD0Ev
 10853      00000000 
 10854 0ec8 00000000 		.quad	_ZNK12_GLOBAL__N_136TestCheckEqualFailureIncludesDetails7RunImplEv
 10854      00000000 
 10855              		.text
 10856              		.align 2
 10858              	_ZN12_GLOBAL__N_136TestCheckEqualFailureIncludesDetailsD2Ev:
 10859              	.LFB1353:
  85:TestChecks.cpp **** {
 10860              		.loc 5 85 0
 10861              		.cfi_startproc
 10862 3fac 55       		pushq	%rbp
 10863              		.cfi_def_cfa_offset 16
 10864              		.cfi_offset 6, -16
 10865 3fad 4889E5   		movq	%rsp, %rbp
 10866              		.cfi_def_cfa_register 6
 10867 3fb0 4883EC10 		subq	$16, %rsp
 10868 3fb4 48897DF8 		movq	%rdi, -8(%rbp)
 10869              	.LBB100:
  85:TestChecks.cpp **** {
 10870              		.loc 5 85 0
 10871 3fb8 BA000000 		movl	$_ZTVN12_GLOBAL__N_136TestCheckEqualFailureIncludesDetailsE+16, %edx
 10871      00
 10872 3fbd 488B45F8 		movq	-8(%rbp), %rax
 10873 3fc1 488910   		movq	%rdx, (%rax)
 10874 3fc4 488B45F8 		movq	-8(%rbp), %rax
 10875 3fc8 4889C7   		movq	%rax, %rdi
 10876 3fcb E8000000 		call	_ZN8UnitTest4TestD2Ev
 10876      00
 10877              	.LBE100:
 10878 3fd0 B8000000 		movl	$0, %eax
 10878      00
 10879 3fd5 85C0     		testl	%eax, %eax
 10880 3fd7 740C     		je	.L531
  85:TestChecks.cpp **** {
 10881              		.loc 5 85 0 is_stmt 0 discriminator 4
 10882 3fd9 488B45F8 		movq	-8(%rbp), %rax
 10883 3fdd 4889C7   		movq	%rax, %rdi
 10884 3fe0 E8000000 		call	_ZdlPv
 10884      00
 10885              	.L531:
  85:TestChecks.cpp **** {
 10886              		.loc 5 85 0
 10887 3fe5 C9       		leave
 10888              		.cfi_def_cfa 7, 8
 10889 3fe6 C3       		ret
 10890              		.cfi_endproc
 10891              	.LFE1353:
 10893              		.set	_ZN12_GLOBAL__N_136TestCheckEqualFailureIncludesDetailsD1Ev,_ZN12_GLOBAL__N_136TestCheckEqual
 10894 3fe7 90       		.align 2
 10896              	_ZN12_GLOBAL__N_136TestCheckEqualFailureIncludesDetailsD0Ev:
 10897              	.LFB1355:
  85:TestChecks.cpp **** {
 10898              		.loc 5 85 0 is_stmt 1
 10899              		.cfi_startproc
 10900 3fe8 55       		pushq	%rbp
 10901              		.cfi_def_cfa_offset 16
 10902              		.cfi_offset 6, -16
 10903 3fe9 4889E5   		movq	%rsp, %rbp
 10904              		.cfi_def_cfa_register 6
 10905 3fec 4883EC10 		subq	$16, %rsp
 10906 3ff0 48897DF8 		movq	%rdi, -8(%rbp)
  85:TestChecks.cpp **** {
 10907              		.loc 5 85 0
 10908 3ff4 488B45F8 		movq	-8(%rbp), %rax
 10909 3ff8 4889C7   		movq	%rax, %rdi
 10910 3ffb E8ACFFFF 		call	_ZN12_GLOBAL__N_136TestCheckEqualFailureIncludesDetailsD1Ev
 10910      FF
 10911 4000 488B45F8 		movq	-8(%rbp), %rax
 10912 4004 4889C7   		movq	%rax, %rdi
 10913 4007 E8000000 		call	_ZdlPv
 10913      00
 10914 400c C9       		leave
 10915              		.cfi_def_cfa 7, 8
 10916 400d C3       		ret
 10917              		.cfi_endproc
 10918              	.LFE1355:
 10920              		.section	.rodata
 10921              		.align 8
 10924              	_ZTVN12_GLOBAL__N_151TestCheckEqualFailureIncludesCheckExpectedAndActualE:
 10925 0ed0 00000000 		.quad	0
 10925      00000000 
 10926 0ed8 00000000 		.quad	_ZTIN12_GLOBAL__N_151TestCheckEqualFailureIncludesCheckExpectedAndActualE
 10926      00000000 
 10927 0ee0 00000000 		.quad	_ZN12_GLOBAL__N_151TestCheckEqualFailureIncludesCheckExpectedAndActualD1Ev
 10927      00000000 
 10928 0ee8 00000000 		.quad	_ZN12_GLOBAL__N_151TestCheckEqualFailureIncludesCheckExpectedAndActualD0Ev
 10928      00000000 
 10929 0ef0 00000000 		.quad	_ZNK12_GLOBAL__N_151TestCheckEqualFailureIncludesCheckExpectedAndActual7RunImplEv
 10929      00000000 
 10930              		.text
 10931              		.align 2
 10933              	_ZN12_GLOBAL__N_151TestCheckEqualFailureIncludesCheckExpectedAndActualD2Ev:
 10934              	.LFB1357:
  73:TestChecks.cpp **** {
 10935              		.loc 5 73 0
 10936              		.cfi_startproc
 10937 400e 55       		pushq	%rbp
 10938              		.cfi_def_cfa_offset 16
 10939              		.cfi_offset 6, -16
 10940 400f 4889E5   		movq	%rsp, %rbp
 10941              		.cfi_def_cfa_register 6
 10942 4012 4883EC10 		subq	$16, %rsp
 10943 4016 48897DF8 		movq	%rdi, -8(%rbp)
 10944              	.LBB101:
  73:TestChecks.cpp **** {
 10945              		.loc 5 73 0
 10946 401a BA000000 		movl	$_ZTVN12_GLOBAL__N_151TestCheckEqualFailureIncludesCheckExpectedAndActualE+16, %edx
 10946      00
 10947 401f 488B45F8 		movq	-8(%rbp), %rax
 10948 4023 488910   		movq	%rdx, (%rax)
 10949 4026 488B45F8 		movq	-8(%rbp), %rax
 10950 402a 4889C7   		movq	%rax, %rdi
 10951 402d E8000000 		call	_ZN8UnitTest4TestD2Ev
 10951      00
 10952              	.LBE101:
 10953 4032 B8000000 		movl	$0, %eax
 10953      00
 10954 4037 85C0     		testl	%eax, %eax
 10955 4039 740C     		je	.L534
  73:TestChecks.cpp **** {
 10956              		.loc 5 73 0 is_stmt 0 discriminator 4
 10957 403b 488B45F8 		movq	-8(%rbp), %rax
 10958 403f 4889C7   		movq	%rax, %rdi
 10959 4042 E8000000 		call	_ZdlPv
 10959      00
 10960              	.L534:
  73:TestChecks.cpp **** {
 10961              		.loc 5 73 0
 10962 4047 C9       		leave
 10963              		.cfi_def_cfa 7, 8
 10964 4048 C3       		ret
 10965              		.cfi_endproc
 10966              	.LFE1357:
 10968              		.set	_ZN12_GLOBAL__N_151TestCheckEqualFailureIncludesCheckExpectedAndActualD1Ev,_ZN12_GLOBAL__N_15
 10969 4049 90       		.align 2
 10971              	_ZN12_GLOBAL__N_151TestCheckEqualFailureIncludesCheckExpectedAndActualD0Ev:
 10972              	.LFB1359:
  73:TestChecks.cpp **** {
 10973              		.loc 5 73 0 is_stmt 1
 10974              		.cfi_startproc
 10975 404a 55       		pushq	%rbp
 10976              		.cfi_def_cfa_offset 16
 10977              		.cfi_offset 6, -16
 10978 404b 4889E5   		movq	%rsp, %rbp
 10979              		.cfi_def_cfa_register 6
 10980 404e 4883EC10 		subq	$16, %rsp
 10981 4052 48897DF8 		movq	%rdi, -8(%rbp)
  73:TestChecks.cpp **** {
 10982              		.loc 5 73 0
 10983 4056 488B45F8 		movq	-8(%rbp), %rax
 10984 405a 4889C7   		movq	%rax, %rdi
 10985 405d E8ACFFFF 		call	_ZN12_GLOBAL__N_151TestCheckEqualFailureIncludesCheckExpectedAndActualD1Ev
 10985      FF
 10986 4062 488B45F8 		movq	-8(%rbp), %rax
 10987 4066 4889C7   		movq	%rax, %rdi
 10988 4069 E8000000 		call	_ZdlPv
 10988      00
 10989 406e C9       		leave
 10990              		.cfi_def_cfa 7, 8
 10991 406f C3       		ret
 10992              		.cfi_endproc
 10993              	.LFE1359:
 10995              		.section	.rodata
 10996              		.align 8
 10999              	_ZTVN12_GLOBAL__N_153TestCheckEqualsWithStringsWorksOnContentsWithALiteralE:
 11000 0ef8 00000000 		.quad	0
 11000      00000000 
 11001 0f00 00000000 		.quad	_ZTIN12_GLOBAL__N_153TestCheckEqualsWithStringsWorksOnContentsWithALiteralE
 11001      00000000 
 11002 0f08 00000000 		.quad	_ZN12_GLOBAL__N_153TestCheckEqualsWithStringsWorksOnContentsWithALiteralD1Ev
 11002      00000000 
 11003 0f10 00000000 		.quad	_ZN12_GLOBAL__N_153TestCheckEqualsWithStringsWorksOnContentsWithALiteralD0Ev
 11003      00000000 
 11004 0f18 00000000 		.quad	_ZNK12_GLOBAL__N_153TestCheckEqualsWithStringsWorksOnContentsWithALiteral7RunImplEv
 11004      00000000 
 11005              		.text
 11006              		.align 2
 11008              	_ZN12_GLOBAL__N_153TestCheckEqualsWithStringsWorksOnContentsWithALiteralD2Ev:
 11009              	.LFB1361:
  65:TestChecks.cpp **** {
 11010              		.loc 5 65 0
 11011              		.cfi_startproc
 11012 4070 55       		pushq	%rbp
 11013              		.cfi_def_cfa_offset 16
 11014              		.cfi_offset 6, -16
 11015 4071 4889E5   		movq	%rsp, %rbp
 11016              		.cfi_def_cfa_register 6
 11017 4074 4883EC10 		subq	$16, %rsp
 11018 4078 48897DF8 		movq	%rdi, -8(%rbp)
 11019              	.LBB102:
  65:TestChecks.cpp **** {
 11020              		.loc 5 65 0
 11021 407c BA000000 		movl	$_ZTVN12_GLOBAL__N_153TestCheckEqualsWithStringsWorksOnContentsWithALiteralE+16, %edx
 11021      00
 11022 4081 488B45F8 		movq	-8(%rbp), %rax
 11023 4085 488910   		movq	%rdx, (%rax)
 11024 4088 488B45F8 		movq	-8(%rbp), %rax
 11025 408c 4889C7   		movq	%rax, %rdi
 11026 408f E8000000 		call	_ZN8UnitTest4TestD2Ev
 11026      00
 11027              	.LBE102:
 11028 4094 B8000000 		movl	$0, %eax
 11028      00
 11029 4099 85C0     		testl	%eax, %eax
 11030 409b 740C     		je	.L537
  65:TestChecks.cpp **** {
 11031              		.loc 5 65 0 is_stmt 0 discriminator 4
 11032 409d 488B45F8 		movq	-8(%rbp), %rax
 11033 40a1 4889C7   		movq	%rax, %rdi
 11034 40a4 E8000000 		call	_ZdlPv
 11034      00
 11035              	.L537:
  65:TestChecks.cpp **** {
 11036              		.loc 5 65 0
 11037 40a9 C9       		leave
 11038              		.cfi_def_cfa 7, 8
 11039 40aa C3       		ret
 11040              		.cfi_endproc
 11041              	.LFE1361:
 11043              		.set	_ZN12_GLOBAL__N_153TestCheckEqualsWithStringsWorksOnContentsWithALiteralD1Ev,_ZN12_GLOBAL__N_
 11044 40ab 90       		.align 2
 11046              	_ZN12_GLOBAL__N_153TestCheckEqualsWithStringsWorksOnContentsWithALiteralD0Ev:
 11047              	.LFB1363:
  65:TestChecks.cpp **** {
 11048              		.loc 5 65 0 is_stmt 1
 11049              		.cfi_startproc
 11050 40ac 55       		pushq	%rbp
 11051              		.cfi_def_cfa_offset 16
 11052              		.cfi_offset 6, -16
 11053 40ad 4889E5   		movq	%rsp, %rbp
 11054              		.cfi_def_cfa_register 6
 11055 40b0 4883EC10 		subq	$16, %rsp
 11056 40b4 48897DF8 		movq	%rdi, -8(%rbp)
  65:TestChecks.cpp **** {
 11057              		.loc 5 65 0
 11058 40b8 488B45F8 		movq	-8(%rbp), %rax
 11059 40bc 4889C7   		movq	%rax, %rdi
 11060 40bf E8ACFFFF 		call	_ZN12_GLOBAL__N_153TestCheckEqualsWithStringsWorksOnContentsWithALiteralD1Ev
 11060      FF
 11061 40c4 488B45F8 		movq	-8(%rbp), %rax
 11062 40c8 4889C7   		movq	%rax, %rdi
 11063 40cb E8000000 		call	_ZdlPv
 11063      00
 11064 40d0 C9       		leave
 11065              		.cfi_def_cfa 7, 8
 11066 40d1 C3       		ret
 11067              		.cfi_endproc
 11068              	.LFE1363:
 11070              		.section	.rodata
 11071              		.align 8
 11074              	_ZTVN12_GLOBAL__N_154TestCheckEqualsWithStringsWorksOnContentsConstNonConstE:
 11075 0f20 00000000 		.quad	0
 11075      00000000 
 11076 0f28 00000000 		.quad	_ZTIN12_GLOBAL__N_154TestCheckEqualsWithStringsWorksOnContentsConstNonConstE
 11076      00000000 
 11077 0f30 00000000 		.quad	_ZN12_GLOBAL__N_154TestCheckEqualsWithStringsWorksOnContentsConstNonConstD1Ev
 11077      00000000 
 11078 0f38 00000000 		.quad	_ZN12_GLOBAL__N_154TestCheckEqualsWithStringsWorksOnContentsConstNonConstD0Ev
 11078      00000000 
 11079 0f40 00000000 		.quad	_ZNK12_GLOBAL__N_154TestCheckEqualsWithStringsWorksOnContentsConstNonConst7RunImplEv
 11079      00000000 
 11080              		.text
 11081              		.align 2
 11083              	_ZN12_GLOBAL__N_154TestCheckEqualsWithStringsWorksOnContentsConstNonConstD2Ev:
 11084              	.LFB1365:
  56:TestChecks.cpp **** {
 11085              		.loc 5 56 0
 11086              		.cfi_startproc
 11087 40d2 55       		pushq	%rbp
 11088              		.cfi_def_cfa_offset 16
 11089              		.cfi_offset 6, -16
 11090 40d3 4889E5   		movq	%rsp, %rbp
 11091              		.cfi_def_cfa_register 6
 11092 40d6 4883EC10 		subq	$16, %rsp
 11093 40da 48897DF8 		movq	%rdi, -8(%rbp)
 11094              	.LBB103:
  56:TestChecks.cpp **** {
 11095              		.loc 5 56 0
 11096 40de BA000000 		movl	$_ZTVN12_GLOBAL__N_154TestCheckEqualsWithStringsWorksOnContentsConstNonConstE+16, %edx
 11096      00
 11097 40e3 488B45F8 		movq	-8(%rbp), %rax
 11098 40e7 488910   		movq	%rdx, (%rax)
 11099 40ea 488B45F8 		movq	-8(%rbp), %rax
 11100 40ee 4889C7   		movq	%rax, %rdi
 11101 40f1 E8000000 		call	_ZN8UnitTest4TestD2Ev
 11101      00
 11102              	.LBE103:
 11103 40f6 B8000000 		movl	$0, %eax
 11103      00
 11104 40fb 85C0     		testl	%eax, %eax
 11105 40fd 740C     		je	.L540
  56:TestChecks.cpp **** {
 11106              		.loc 5 56 0 is_stmt 0 discriminator 4
 11107 40ff 488B45F8 		movq	-8(%rbp), %rax
 11108 4103 4889C7   		movq	%rax, %rdi
 11109 4106 E8000000 		call	_ZdlPv
 11109      00
 11110              	.L540:
  56:TestChecks.cpp **** {
 11111              		.loc 5 56 0
 11112 410b C9       		leave
 11113              		.cfi_def_cfa 7, 8
 11114 410c C3       		ret
 11115              		.cfi_endproc
 11116              	.LFE1365:
 11118              		.set	_ZN12_GLOBAL__N_154TestCheckEqualsWithStringsWorksOnContentsConstNonConstD1Ev,_ZN12_GLOBAL__N
 11119 410d 90       		.align 2
 11121              	_ZN12_GLOBAL__N_154TestCheckEqualsWithStringsWorksOnContentsConstNonConstD0Ev:
 11122              	.LFB1367:
  56:TestChecks.cpp **** {
 11123              		.loc 5 56 0 is_stmt 1
 11124              		.cfi_startproc
 11125 410e 55       		pushq	%rbp
 11126              		.cfi_def_cfa_offset 16
 11127              		.cfi_offset 6, -16
 11128 410f 4889E5   		movq	%rsp, %rbp
 11129              		.cfi_def_cfa_register 6
 11130 4112 4883EC10 		subq	$16, %rsp
 11131 4116 48897DF8 		movq	%rdi, -8(%rbp)
  56:TestChecks.cpp **** {
 11132              		.loc 5 56 0
 11133 411a 488B45F8 		movq	-8(%rbp), %rax
 11134 411e 4889C7   		movq	%rax, %rdi
 11135 4121 E8ACFFFF 		call	_ZN12_GLOBAL__N_154TestCheckEqualsWithStringsWorksOnContentsConstNonConstD1Ev
 11135      FF
 11136 4126 488B45F8 		movq	-8(%rbp), %rax
 11137 412a 4889C7   		movq	%rax, %rdi
 11138 412d E8000000 		call	_ZdlPv
 11138      00
 11139 4132 C9       		leave
 11140              		.cfi_def_cfa 7, 8
 11141 4133 C3       		ret
 11142              		.cfi_endproc
 11143              	.LFE1367:
 11145              		.section	.rodata
 11146              		.align 8
 11149              	_ZTVN12_GLOBAL__N_154TestCheckEqualsWithStringsWorksOnContentsNonConstConstE:
 11150 0f48 00000000 		.quad	0
 11150      00000000 
 11151 0f50 00000000 		.quad	_ZTIN12_GLOBAL__N_154TestCheckEqualsWithStringsWorksOnContentsNonConstConstE
 11151      00000000 
 11152 0f58 00000000 		.quad	_ZN12_GLOBAL__N_154TestCheckEqualsWithStringsWorksOnContentsNonConstConstD1Ev
 11152      00000000 
 11153 0f60 00000000 		.quad	_ZN12_GLOBAL__N_154TestCheckEqualsWithStringsWorksOnContentsNonConstConstD0Ev
 11153      00000000 
 11154 0f68 00000000 		.quad	_ZNK12_GLOBAL__N_154TestCheckEqualsWithStringsWorksOnContentsNonConstConst7RunImplEv
 11154      00000000 
 11155              		.text
 11156              		.align 2
 11158              	_ZN12_GLOBAL__N_154TestCheckEqualsWithStringsWorksOnContentsNonConstConstD2Ev:
 11159              	.LFB1369:
  47:TestChecks.cpp **** {
 11160              		.loc 5 47 0
 11161              		.cfi_startproc
 11162 4134 55       		pushq	%rbp
 11163              		.cfi_def_cfa_offset 16
 11164              		.cfi_offset 6, -16
 11165 4135 4889E5   		movq	%rsp, %rbp
 11166              		.cfi_def_cfa_register 6
 11167 4138 4883EC10 		subq	$16, %rsp
 11168 413c 48897DF8 		movq	%rdi, -8(%rbp)
 11169              	.LBB104:
  47:TestChecks.cpp **** {
 11170              		.loc 5 47 0
 11171 4140 BA000000 		movl	$_ZTVN12_GLOBAL__N_154TestCheckEqualsWithStringsWorksOnContentsNonConstConstE+16, %edx
 11171      00
 11172 4145 488B45F8 		movq	-8(%rbp), %rax
 11173 4149 488910   		movq	%rdx, (%rax)
 11174 414c 488B45F8 		movq	-8(%rbp), %rax
 11175 4150 4889C7   		movq	%rax, %rdi
 11176 4153 E8000000 		call	_ZN8UnitTest4TestD2Ev
 11176      00
 11177              	.LBE104:
 11178 4158 B8000000 		movl	$0, %eax
 11178      00
 11179 415d 85C0     		testl	%eax, %eax
 11180 415f 740C     		je	.L543
  47:TestChecks.cpp **** {
 11181              		.loc 5 47 0 is_stmt 0 discriminator 4
 11182 4161 488B45F8 		movq	-8(%rbp), %rax
 11183 4165 4889C7   		movq	%rax, %rdi
 11184 4168 E8000000 		call	_ZdlPv
 11184      00
 11185              	.L543:
  47:TestChecks.cpp **** {
 11186              		.loc 5 47 0
 11187 416d C9       		leave
 11188              		.cfi_def_cfa 7, 8
 11189 416e C3       		ret
 11190              		.cfi_endproc
 11191              	.LFE1369:
 11193              		.set	_ZN12_GLOBAL__N_154TestCheckEqualsWithStringsWorksOnContentsNonConstConstD1Ev,_ZN12_GLOBAL__N
 11194 416f 90       		.align 2
 11196              	_ZN12_GLOBAL__N_154TestCheckEqualsWithStringsWorksOnContentsNonConstConstD0Ev:
 11197              	.LFB1371:
  47:TestChecks.cpp **** {
 11198              		.loc 5 47 0 is_stmt 1
 11199              		.cfi_startproc
 11200 4170 55       		pushq	%rbp
 11201              		.cfi_def_cfa_offset 16
 11202              		.cfi_offset 6, -16
 11203 4171 4889E5   		movq	%rsp, %rbp
 11204              		.cfi_def_cfa_register 6
 11205 4174 4883EC10 		subq	$16, %rsp
 11206 4178 48897DF8 		movq	%rdi, -8(%rbp)
  47:TestChecks.cpp **** {
 11207              		.loc 5 47 0
 11208 417c 488B45F8 		movq	-8(%rbp), %rax
 11209 4180 4889C7   		movq	%rax, %rdi
 11210 4183 E8ACFFFF 		call	_ZN12_GLOBAL__N_154TestCheckEqualsWithStringsWorksOnContentsNonConstConstD1Ev
 11210      FF
 11211 4188 488B45F8 		movq	-8(%rbp), %rax
 11212 418c 4889C7   		movq	%rax, %rdi
 11213 418f E8000000 		call	_ZdlPv
 11213      00
 11214 4194 C9       		leave
 11215              		.cfi_def_cfa 7, 8
 11216 4195 C3       		ret
 11217              		.cfi_endproc
 11218              	.LFE1371:
 11220              		.section	.rodata
 11221              		.align 8
 11224              	_ZTVN12_GLOBAL__N_151TestCheckEqualsWithStringsWorksOnContentsConstConstE:
 11225 0f70 00000000 		.quad	0
 11225      00000000 
 11226 0f78 00000000 		.quad	_ZTIN12_GLOBAL__N_151TestCheckEqualsWithStringsWorksOnContentsConstConstE
 11226      00000000 
 11227 0f80 00000000 		.quad	_ZN12_GLOBAL__N_151TestCheckEqualsWithStringsWorksOnContentsConstConstD1Ev
 11227      00000000 
 11228 0f88 00000000 		.quad	_ZN12_GLOBAL__N_151TestCheckEqualsWithStringsWorksOnContentsConstConstD0Ev
 11228      00000000 
 11229 0f90 00000000 		.quad	_ZNK12_GLOBAL__N_151TestCheckEqualsWithStringsWorksOnContentsConstConst7RunImplEv
 11229      00000000 
 11230              		.text
 11231              		.align 2
 11233              	_ZN12_GLOBAL__N_151TestCheckEqualsWithStringsWorksOnContentsConstConstD2Ev:
 11234              	.LFB1373:
  38:TestChecks.cpp **** {
 11235              		.loc 5 38 0
 11236              		.cfi_startproc
 11237 4196 55       		pushq	%rbp
 11238              		.cfi_def_cfa_offset 16
 11239              		.cfi_offset 6, -16
 11240 4197 4889E5   		movq	%rsp, %rbp
 11241              		.cfi_def_cfa_register 6
 11242 419a 4883EC10 		subq	$16, %rsp
 11243 419e 48897DF8 		movq	%rdi, -8(%rbp)
 11244              	.LBB105:
  38:TestChecks.cpp **** {
 11245              		.loc 5 38 0
 11246 41a2 BA000000 		movl	$_ZTVN12_GLOBAL__N_151TestCheckEqualsWithStringsWorksOnContentsConstConstE+16, %edx
 11246      00
 11247 41a7 488B45F8 		movq	-8(%rbp), %rax
 11248 41ab 488910   		movq	%rdx, (%rax)
 11249 41ae 488B45F8 		movq	-8(%rbp), %rax
 11250 41b2 4889C7   		movq	%rax, %rdi
 11251 41b5 E8000000 		call	_ZN8UnitTest4TestD2Ev
 11251      00
 11252              	.LBE105:
 11253 41ba B8000000 		movl	$0, %eax
 11253      00
 11254 41bf 85C0     		testl	%eax, %eax
 11255 41c1 740C     		je	.L546
  38:TestChecks.cpp **** {
 11256              		.loc 5 38 0 is_stmt 0 discriminator 4
 11257 41c3 488B45F8 		movq	-8(%rbp), %rax
 11258 41c7 4889C7   		movq	%rax, %rdi
 11259 41ca E8000000 		call	_ZdlPv
 11259      00
 11260              	.L546:
  38:TestChecks.cpp **** {
 11261              		.loc 5 38 0
 11262 41cf C9       		leave
 11263              		.cfi_def_cfa 7, 8
 11264 41d0 C3       		ret
 11265              		.cfi_endproc
 11266              	.LFE1373:
 11268              		.set	_ZN12_GLOBAL__N_151TestCheckEqualsWithStringsWorksOnContentsConstConstD1Ev,_ZN12_GLOBAL__N_15
 11269 41d1 90       		.align 2
 11271              	_ZN12_GLOBAL__N_151TestCheckEqualsWithStringsWorksOnContentsConstConstD0Ev:
 11272              	.LFB1375:
  38:TestChecks.cpp **** {
 11273              		.loc 5 38 0 is_stmt 1
 11274              		.cfi_startproc
 11275 41d2 55       		pushq	%rbp
 11276              		.cfi_def_cfa_offset 16
 11277              		.cfi_offset 6, -16
 11278 41d3 4889E5   		movq	%rsp, %rbp
 11279              		.cfi_def_cfa_register 6
 11280 41d6 4883EC10 		subq	$16, %rsp
 11281 41da 48897DF8 		movq	%rdi, -8(%rbp)
  38:TestChecks.cpp **** {
 11282              		.loc 5 38 0
 11283 41de 488B45F8 		movq	-8(%rbp), %rax
 11284 41e2 4889C7   		movq	%rax, %rdi
 11285 41e5 E8ACFFFF 		call	_ZN12_GLOBAL__N_151TestCheckEqualsWithStringsWorksOnContentsConstConstD1Ev
 11285      FF
 11286 41ea 488B45F8 		movq	-8(%rbp), %rax
 11287 41ee 4889C7   		movq	%rax, %rdi
 11288 41f1 E8000000 		call	_ZdlPv
 11288      00
 11289 41f6 C9       		leave
 11290              		.cfi_def_cfa 7, 8
 11291 41f7 C3       		ret
 11292              		.cfi_endproc
 11293              	.LFE1375:
 11295              		.section	.rodata
 11296              		.align 8
 11299              	_ZTVN12_GLOBAL__N_157TestCheckEqualsWithStringsWorksOnContentsNonConstNonConstE:
 11300 0f98 00000000 		.quad	0
 11300      00000000 
 11301 0fa0 00000000 		.quad	_ZTIN12_GLOBAL__N_157TestCheckEqualsWithStringsWorksOnContentsNonConstNonConstE
 11301      00000000 
 11302 0fa8 00000000 		.quad	_ZN12_GLOBAL__N_157TestCheckEqualsWithStringsWorksOnContentsNonConstNonConstD1Ev
 11302      00000000 
 11303 0fb0 00000000 		.quad	_ZN12_GLOBAL__N_157TestCheckEqualsWithStringsWorksOnContentsNonConstNonConstD0Ev
 11303      00000000 
 11304 0fb8 00000000 		.quad	_ZNK12_GLOBAL__N_157TestCheckEqualsWithStringsWorksOnContentsNonConstNonConst7RunImplEv
 11304      00000000 
 11305              		.text
 11306              		.align 2
 11308              	_ZN12_GLOBAL__N_157TestCheckEqualsWithStringsWorksOnContentsNonConstNonConstD2Ev:
 11309              	.LFB1377:
  29:TestChecks.cpp **** {
 11310              		.loc 5 29 0
 11311              		.cfi_startproc
 11312 41f8 55       		pushq	%rbp
 11313              		.cfi_def_cfa_offset 16
 11314              		.cfi_offset 6, -16
 11315 41f9 4889E5   		movq	%rsp, %rbp
 11316              		.cfi_def_cfa_register 6
 11317 41fc 4883EC10 		subq	$16, %rsp
 11318 4200 48897DF8 		movq	%rdi, -8(%rbp)
 11319              	.LBB106:
  29:TestChecks.cpp **** {
 11320              		.loc 5 29 0
 11321 4204 BA000000 		movl	$_ZTVN12_GLOBAL__N_157TestCheckEqualsWithStringsWorksOnContentsNonConstNonConstE+16, %edx
 11321      00
 11322 4209 488B45F8 		movq	-8(%rbp), %rax
 11323 420d 488910   		movq	%rdx, (%rax)
 11324 4210 488B45F8 		movq	-8(%rbp), %rax
 11325 4214 4889C7   		movq	%rax, %rdi
 11326 4217 E8000000 		call	_ZN8UnitTest4TestD2Ev
 11326      00
 11327              	.LBE106:
 11328 421c B8000000 		movl	$0, %eax
 11328      00
 11329 4221 85C0     		testl	%eax, %eax
 11330 4223 740C     		je	.L549
  29:TestChecks.cpp **** {
 11331              		.loc 5 29 0 is_stmt 0 discriminator 4
 11332 4225 488B45F8 		movq	-8(%rbp), %rax
 11333 4229 4889C7   		movq	%rax, %rdi
 11334 422c E8000000 		call	_ZdlPv
 11334      00
 11335              	.L549:
  29:TestChecks.cpp **** {
 11336              		.loc 5 29 0
 11337 4231 C9       		leave
 11338              		.cfi_def_cfa 7, 8
 11339 4232 C3       		ret
 11340              		.cfi_endproc
 11341              	.LFE1377:
 11343              		.set	_ZN12_GLOBAL__N_157TestCheckEqualsWithStringsWorksOnContentsNonConstNonConstD1Ev,_ZN12_GLOBAL
 11344 4233 90       		.align 2
 11346              	_ZN12_GLOBAL__N_157TestCheckEqualsWithStringsWorksOnContentsNonConstNonConstD0Ev:
 11347              	.LFB1379:
  29:TestChecks.cpp **** {
 11348              		.loc 5 29 0 is_stmt 1
 11349              		.cfi_startproc
 11350 4234 55       		pushq	%rbp
 11351              		.cfi_def_cfa_offset 16
 11352              		.cfi_offset 6, -16
 11353 4235 4889E5   		movq	%rsp, %rbp
 11354              		.cfi_def_cfa_register 6
 11355 4238 4883EC10 		subq	$16, %rsp
 11356 423c 48897DF8 		movq	%rdi, -8(%rbp)
  29:TestChecks.cpp **** {
 11357              		.loc 5 29 0
 11358 4240 488B45F8 		movq	-8(%rbp), %rax
 11359 4244 4889C7   		movq	%rax, %rdi
 11360 4247 E8ACFFFF 		call	_ZN12_GLOBAL__N_157TestCheckEqualsWithStringsWorksOnContentsNonConstNonConstD1Ev
 11360      FF
 11361 424c 488B45F8 		movq	-8(%rbp), %rax
 11362 4250 4889C7   		movq	%rax, %rdi
 11363 4253 E8000000 		call	_ZdlPv
 11363      00
 11364 4258 C9       		leave
 11365              		.cfi_def_cfa 7, 8
 11366 4259 C3       		ret
 11367              		.cfi_endproc
 11368              	.LFE1379:
 11370              		.section	.rodata
 11371              		.align 8
 11374              	_ZTVN12_GLOBAL__N_149TestCheckEqualsWithStringsFailsOnDifferentStringsE:
 11375 0fc0 00000000 		.quad	0
 11375      00000000 
 11376 0fc8 00000000 		.quad	_ZTIN12_GLOBAL__N_149TestCheckEqualsWithStringsFailsOnDifferentStringsE
 11376      00000000 
 11377 0fd0 00000000 		.quad	_ZN12_GLOBAL__N_149TestCheckEqualsWithStringsFailsOnDifferentStringsD1Ev
 11377      00000000 
 11378 0fd8 00000000 		.quad	_ZN12_GLOBAL__N_149TestCheckEqualsWithStringsFailsOnDifferentStringsD0Ev
 11378      00000000 
 11379 0fe0 00000000 		.quad	_ZNK12_GLOBAL__N_149TestCheckEqualsWithStringsFailsOnDifferentStrings7RunImplEv
 11379      00000000 
 11380              		.text
 11381              		.align 2
 11383              	_ZN12_GLOBAL__N_149TestCheckEqualsWithStringsFailsOnDifferentStringsD2Ev:
 11384              	.LFB1381:
  17:TestChecks.cpp **** {
 11385              		.loc 5 17 0
 11386              		.cfi_startproc
 11387 425a 55       		pushq	%rbp
 11388              		.cfi_def_cfa_offset 16
 11389              		.cfi_offset 6, -16
 11390 425b 4889E5   		movq	%rsp, %rbp
 11391              		.cfi_def_cfa_register 6
 11392 425e 4883EC10 		subq	$16, %rsp
 11393 4262 48897DF8 		movq	%rdi, -8(%rbp)
 11394              	.LBB107:
  17:TestChecks.cpp **** {
 11395              		.loc 5 17 0
 11396 4266 BA000000 		movl	$_ZTVN12_GLOBAL__N_149TestCheckEqualsWithStringsFailsOnDifferentStringsE+16, %edx
 11396      00
 11397 426b 488B45F8 		movq	-8(%rbp), %rax
 11398 426f 488910   		movq	%rdx, (%rax)
 11399 4272 488B45F8 		movq	-8(%rbp), %rax
 11400 4276 4889C7   		movq	%rax, %rdi
 11401 4279 E8000000 		call	_ZN8UnitTest4TestD2Ev
 11401      00
 11402              	.LBE107:
 11403 427e B8000000 		movl	$0, %eax
 11403      00
 11404 4283 85C0     		testl	%eax, %eax
 11405 4285 740C     		je	.L552
  17:TestChecks.cpp **** {
 11406              		.loc 5 17 0 is_stmt 0 discriminator 4
 11407 4287 488B45F8 		movq	-8(%rbp), %rax
 11408 428b 4889C7   		movq	%rax, %rdi
 11409 428e E8000000 		call	_ZdlPv
 11409      00
 11410              	.L552:
  17:TestChecks.cpp **** {
 11411              		.loc 5 17 0
 11412 4293 C9       		leave
 11413              		.cfi_def_cfa 7, 8
 11414 4294 C3       		ret
 11415              		.cfi_endproc
 11416              	.LFE1381:
 11418              		.set	_ZN12_GLOBAL__N_149TestCheckEqualsWithStringsFailsOnDifferentStringsD1Ev,_ZN12_GLOBAL__N_149T
 11419 4295 90       		.align 2
 11421              	_ZN12_GLOBAL__N_149TestCheckEqualsWithStringsFailsOnDifferentStringsD0Ev:
 11422              	.LFB1383:
  17:TestChecks.cpp **** {
 11423              		.loc 5 17 0 is_stmt 1
 11424              		.cfi_startproc
 11425 4296 55       		pushq	%rbp
 11426              		.cfi_def_cfa_offset 16
 11427              		.cfi_offset 6, -16
 11428 4297 4889E5   		movq	%rsp, %rbp
 11429              		.cfi_def_cfa_register 6
 11430 429a 4883EC10 		subq	$16, %rsp
 11431 429e 48897DF8 		movq	%rdi, -8(%rbp)
  17:TestChecks.cpp **** {
 11432              		.loc 5 17 0
 11433 42a2 488B45F8 		movq	-8(%rbp), %rax
 11434 42a6 4889C7   		movq	%rax, %rdi
 11435 42a9 E8ACFFFF 		call	_ZN12_GLOBAL__N_149TestCheckEqualsWithStringsFailsOnDifferentStringsD1Ev
 11435      FF
 11436 42ae 488B45F8 		movq	-8(%rbp), %rax
 11437 42b2 4889C7   		movq	%rax, %rdi
 11438 42b5 E8000000 		call	_ZdlPv
 11438      00
 11439 42ba C9       		leave
 11440              		.cfi_def_cfa 7, 8
 11441 42bb C3       		ret
 11442              		.cfi_endproc
 11443              	.LFE1383:
 11445              		.section	.rodata
 11446              		.align 8
 11449              	_ZTVN12_GLOBAL__N_130TestCheckEqualWithUnsignedLongE:
 11450 0fe8 00000000 		.quad	0
 11450      00000000 
 11451 0ff0 00000000 		.quad	_ZTIN12_GLOBAL__N_130TestCheckEqualWithUnsignedLongE
 11451      00000000 
 11452 0ff8 00000000 		.quad	_ZN12_GLOBAL__N_130TestCheckEqualWithUnsignedLongD1Ev
 11452      00000000 
 11453 1000 00000000 		.quad	_ZN12_GLOBAL__N_130TestCheckEqualWithUnsignedLongD0Ev
 11453      00000000 
 11454 1008 00000000 		.quad	_ZNK12_GLOBAL__N_130TestCheckEqualWithUnsignedLong7RunImplEv
 11454      00000000 
 11455              		.text
 11456              		.align 2
 11458              	_ZN12_GLOBAL__N_130TestCheckEqualWithUnsignedLongD2Ev:
 11459              	.LFB1385:
  10:TestChecks.cpp **** {
 11460              		.loc 5 10 0
 11461              		.cfi_startproc
 11462 42bc 55       		pushq	%rbp
 11463              		.cfi_def_cfa_offset 16
 11464              		.cfi_offset 6, -16
 11465 42bd 4889E5   		movq	%rsp, %rbp
 11466              		.cfi_def_cfa_register 6
 11467 42c0 4883EC10 		subq	$16, %rsp
 11468 42c4 48897DF8 		movq	%rdi, -8(%rbp)
 11469              	.LBB108:
  10:TestChecks.cpp **** {
 11470              		.loc 5 10 0
 11471 42c8 BA000000 		movl	$_ZTVN12_GLOBAL__N_130TestCheckEqualWithUnsignedLongE+16, %edx
 11471      00
 11472 42cd 488B45F8 		movq	-8(%rbp), %rax
 11473 42d1 488910   		movq	%rdx, (%rax)
 11474 42d4 488B45F8 		movq	-8(%rbp), %rax
 11475 42d8 4889C7   		movq	%rax, %rdi
 11476 42db E8000000 		call	_ZN8UnitTest4TestD2Ev
 11476      00
 11477              	.LBE108:
 11478 42e0 B8000000 		movl	$0, %eax
 11478      00
 11479 42e5 85C0     		testl	%eax, %eax
 11480 42e7 740C     		je	.L555
  10:TestChecks.cpp **** {
 11481              		.loc 5 10 0 is_stmt 0 discriminator 4
 11482 42e9 488B45F8 		movq	-8(%rbp), %rax
 11483 42ed 4889C7   		movq	%rax, %rdi
 11484 42f0 E8000000 		call	_ZdlPv
 11484      00
 11485              	.L555:
  10:TestChecks.cpp **** {
 11486              		.loc 5 10 0
 11487 42f5 C9       		leave
 11488              		.cfi_def_cfa 7, 8
 11489 42f6 C3       		ret
 11490              		.cfi_endproc
 11491              	.LFE1385:
 11493              		.set	_ZN12_GLOBAL__N_130TestCheckEqualWithUnsignedLongD1Ev,_ZN12_GLOBAL__N_130TestCheckEqualWithUn
 11494 42f7 90       		.align 2
 11496              	_ZN12_GLOBAL__N_130TestCheckEqualWithUnsignedLongD0Ev:
 11497              	.LFB1387:
  10:TestChecks.cpp **** {
 11498              		.loc 5 10 0 is_stmt 1
 11499              		.cfi_startproc
 11500 42f8 55       		pushq	%rbp
 11501              		.cfi_def_cfa_offset 16
 11502              		.cfi_offset 6, -16
 11503 42f9 4889E5   		movq	%rsp, %rbp
 11504              		.cfi_def_cfa_register 6
 11505 42fc 4883EC10 		subq	$16, %rsp
 11506 4300 48897DF8 		movq	%rdi, -8(%rbp)
  10:TestChecks.cpp **** {
 11507              		.loc 5 10 0
 11508 4304 488B45F8 		movq	-8(%rbp), %rax
 11509 4308 4889C7   		movq	%rax, %rdi
 11510 430b E8ACFFFF 		call	_ZN12_GLOBAL__N_130TestCheckEqualWithUnsignedLongD1Ev
 11510      FF
 11511 4310 488B45F8 		movq	-8(%rbp), %rax
 11512 4314 4889C7   		movq	%rax, %rdi
 11513 4317 E8000000 		call	_ZdlPv
 11513      00
 11514 431c C9       		leave
 11515              		.cfi_def_cfa 7, 8
 11516 431d C3       		ret
 11517              		.cfi_endproc
 11518              	.LFE1387:
 11520              		.weak	_ZTV17RecordingReporter
 11521              		.section	.rodata._ZTV17RecordingReporter,"aG",@progbits,_ZTV17RecordingReporter,comdat
 11522              		.align 8
 11525              	_ZTV17RecordingReporter:
 11526 0000 00000000 		.quad	0
 11526      00000000 
 11527 0008 00000000 		.quad	_ZTI17RecordingReporter
 11527      00000000 
 11528 0010 00000000 		.quad	_ZN17RecordingReporterD1Ev
 11528      00000000 
 11529 0018 00000000 		.quad	_ZN17RecordingReporterD0Ev
 11529      00000000 
 11530 0020 00000000 		.quad	_ZN17RecordingReporter15ReportTestStartERKN8UnitTest11TestDetailsE
 11530      00000000 
 11531 0028 00000000 		.quad	_ZN17RecordingReporter13ReportFailureERKN8UnitTest11TestDetailsEPKc
 11531      00000000 
 11532 0030 00000000 		.quad	_ZN17RecordingReporter16ReportTestFinishERKN8UnitTest11TestDetailsEf
 11532      00000000 
 11533 0038 00000000 		.quad	_ZN17RecordingReporter13ReportSummaryEiiif
 11533      00000000 
 11534              		.section	.text._ZN17RecordingReporterD2Ev,"axG",@progbits,_ZN17RecordingReporterD5Ev,comdat
 11535              		.align 2
 11536              		.weak	_ZN17RecordingReporterD2Ev
 11538              	_ZN17RecordingReporterD2Ev:
 11539              	.LFB1389:
   9:RecordingReporter.h **** {
 11540              		.loc 4 9 0
 11541              		.cfi_startproc
 11542 0000 55       		pushq	%rbp
 11543              		.cfi_def_cfa_offset 16
 11544              		.cfi_offset 6, -16
 11545 0001 4889E5   		movq	%rsp, %rbp
 11546              		.cfi_def_cfa_register 6
 11547 0004 4883EC10 		subq	$16, %rsp
 11548 0008 48897DF8 		movq	%rdi, -8(%rbp)
 11549              	.LBB109:
   9:RecordingReporter.h **** {
 11550              		.loc 4 9 0
 11551 000c BA000000 		movl	$_ZTV17RecordingReporter+16, %edx
 11551      00
 11552 0011 488B45F8 		movq	-8(%rbp), %rax
 11553 0015 488910   		movq	%rdx, (%rax)
 11554 0018 488B45F8 		movq	-8(%rbp), %rax
 11555 001c 4889C7   		movq	%rax, %rdi
 11556 001f E8000000 		call	_ZN8UnitTest12TestReporterD2Ev
 11556      00
 11557              	.LBE109:
 11558 0024 B8000000 		movl	$0, %eax
 11558      00
 11559 0029 85C0     		testl	%eax, %eax
 11560 002b 740C     		je	.L558
   9:RecordingReporter.h **** {
 11561              		.loc 4 9 0 is_stmt 0 discriminator 4
 11562 002d 488B45F8 		movq	-8(%rbp), %rax
 11563 0031 4889C7   		movq	%rax, %rdi
 11564 0034 E8000000 		call	_ZdlPv
 11564      00
 11565              	.L558:
   9:RecordingReporter.h **** {
 11566              		.loc 4 9 0
 11567 0039 C9       		leave
 11568              		.cfi_def_cfa 7, 8
 11569 003a C3       		ret
 11570              		.cfi_endproc
 11571              	.LFE1389:
 11573              		.weak	_ZN17RecordingReporterD1Ev
 11574              		.set	_ZN17RecordingReporterD1Ev,_ZN17RecordingReporterD2Ev
 11575              		.section	.text._ZN17RecordingReporterD0Ev,"axG",@progbits,_ZN17RecordingReporterD5Ev,comdat
 11576              		.align 2
 11577              		.weak	_ZN17RecordingReporterD0Ev
 11579              	_ZN17RecordingReporterD0Ev:
 11580              	.LFB1391:
   9:RecordingReporter.h **** {
 11581              		.loc 4 9 0 is_stmt 1
 11582              		.cfi_startproc
 11583 0000 55       		pushq	%rbp
 11584              		.cfi_def_cfa_offset 16
 11585              		.cfi_offset 6, -16
 11586 0001 4889E5   		movq	%rsp, %rbp
 11587              		.cfi_def_cfa_register 6
 11588 0004 4883EC10 		subq	$16, %rsp
 11589 0008 48897DF8 		movq	%rdi, -8(%rbp)
   9:RecordingReporter.h **** {
 11590              		.loc 4 9 0
 11591 000c 488B45F8 		movq	-8(%rbp), %rax
 11592 0010 4889C7   		movq	%rax, %rdi
 11593 0013 E8000000 		call	_ZN17RecordingReporterD1Ev
 11593      00
 11594 0018 488B45F8 		movq	-8(%rbp), %rax
 11595 001c 4889C7   		movq	%rax, %rdi
 11596 001f E8000000 		call	_ZdlPv
 11596      00
 11597 0024 C9       		leave
 11598              		.cfi_def_cfa 7, 8
 11599 0025 C3       		ret
 11600              		.cfi_endproc
 11601              	.LFE1391:
 11603              		.weak	_ZTVN8UnitTest15MemoryOutStreamE
 11604              		.section	.rodata._ZTVN8UnitTest15MemoryOutStreamE,"aG",@progbits,_ZTVN8UnitTest15MemoryOutStreamE,
 11605              		.align 8
 11608              	_ZTVN8UnitTest15MemoryOutStreamE:
 11609 0000 90000000 		.quad	144
 11609      00000000 
 11610 0008 00000000 		.quad	0
 11610      00000000 
 11611 0010 00000000 		.quad	_ZTIN8UnitTest15MemoryOutStreamE
 11611      00000000 
 11612 0018 00000000 		.quad	_ZN8UnitTest15MemoryOutStreamD1Ev
 11612      00000000 
 11613 0020 00000000 		.quad	_ZN8UnitTest15MemoryOutStreamD0Ev
 11613      00000000 
 11614 0028 70FFFFFF 		.quad	-144
 11614      FFFFFFFF 
 11615 0030 70FFFFFF 		.quad	-144
 11615      FFFFFFFF 
 11616 0038 00000000 		.quad	_ZTIN8UnitTest15MemoryOutStreamE
 11616      00000000 
 11617 0040 00000000 		.quad	_ZTv0_n24_N8UnitTest15MemoryOutStreamD1Ev
 11617      00000000 
 11618 0048 00000000 		.quad	_ZTv0_n24_N8UnitTest15MemoryOutStreamD0Ev
 11618      00000000 
 11619              		.weak	_ZTTN8UnitTest15MemoryOutStreamE
 11620              		.section	.rodata._ZTTN8UnitTest15MemoryOutStreamE,"aG",@progbits,_ZTVN8UnitTest15MemoryOutStreamE,
 11621              		.align 8
 11624              	_ZTTN8UnitTest15MemoryOutStreamE:
 11625 0000 00000000 		.quad	_ZTVN8UnitTest15MemoryOutStreamE+24
 11625      00000000 
 11626 0008 00000000 		.quad	_ZTCN8UnitTest15MemoryOutStreamE0_NSt7__cxx1119basic_ostringstreamIcSt11char_traitsIcESaIcEE
 11626      00000000 
 11627 0010 00000000 		.quad	_ZTCN8UnitTest15MemoryOutStreamE0_So+24
 11627      00000000 
 11628 0018 00000000 		.quad	_ZTCN8UnitTest15MemoryOutStreamE0_So+64
 11628      00000000 
 11629 0020 00000000 		.quad	_ZTCN8UnitTest15MemoryOutStreamE0_NSt7__cxx1119basic_ostringstreamIcSt11char_traitsIcESaIcEE
 11629      00000000 
 11630 0028 00000000 		.quad	_ZTVN8UnitTest15MemoryOutStreamE+64
 11630      00000000 
 11631              		.hidden	_ZTCN8UnitTest15MemoryOutStreamE0_NSt7__cxx1119basic_ostringstreamIcSt11char_traitsIcESaIc
 11632              		.weak	_ZTCN8UnitTest15MemoryOutStreamE0_NSt7__cxx1119basic_ostringstreamIcSt11char_traitsIcESaIcEE
 11633              		.section	.rodata._ZTCN8UnitTest15MemoryOutStreamE0_NSt7__cxx1119basic_ostringstreamIcSt11char_trai
 11634              		.align 8
 11637              	_ZTCN8UnitTest15MemoryOutStreamE0_NSt7__cxx1119basic_ostringstreamIcSt11char_traitsIcESaIcEEE:
 11638 0000 90000000 		.quad	144
 11638      00000000 
 11639 0008 00000000 		.quad	0
 11639      00000000 
 11640 0010 00000000 		.quad	_ZTINSt7__cxx1119basic_ostringstreamIcSt11char_traitsIcESaIcEEE
 11640      00000000 
 11641 0018 00000000 		.quad	0
 11641      00000000 
 11642 0020 00000000 		.quad	0
 11642      00000000 
 11643 0028 70FFFFFF 		.quad	-144
 11643      FFFFFFFF 
 11644 0030 70FFFFFF 		.quad	-144
 11644      FFFFFFFF 
 11645 0038 00000000 		.quad	_ZTINSt7__cxx1119basic_ostringstreamIcSt11char_traitsIcESaIcEEE
 11645      00000000 
 11646 0040 00000000 		.quad	0
 11646      00000000 
 11647 0048 00000000 		.quad	0
 11647      00000000 
 11648              		.hidden	_ZTCN8UnitTest15MemoryOutStreamE0_So
 11649              		.weak	_ZTCN8UnitTest15MemoryOutStreamE0_So
 11650              		.section	.rodata._ZTCN8UnitTest15MemoryOutStreamE0_So,"aG",@progbits,_ZTVN8UnitTest15MemoryOutStre
 11651              		.align 8
 11654              	_ZTCN8UnitTest15MemoryOutStreamE0_So:
 11655 0000 90000000 		.quad	144
 11655      00000000 
 11656 0008 00000000 		.quad	0
 11656      00000000 
 11657 0010 00000000 		.quad	_ZTISo
 11657      00000000 
 11658 0018 00000000 		.quad	0
 11658      00000000 
 11659 0020 00000000 		.quad	0
 11659      00000000 
 11660 0028 70FFFFFF 		.quad	-144
 11660      FFFFFFFF 
 11661 0030 70FFFFFF 		.quad	-144
 11661      FFFFFFFF 
 11662 0038 00000000 		.quad	_ZTISo
 11662      00000000 
 11663 0040 00000000 		.quad	0
 11663      00000000 
 11664 0048 00000000 		.quad	0
 11664      00000000 
 11665              		.section	.rodata
 11666 1010 00000000 		.align 32
 11666      00000000 
 11666      00000000 
 11666      00000000 
 11669              	_ZTSN12_GLOBAL__N_143TestCheckArray2DCloseFailureIncludesDetailsE:
 11670 1020 2A4E3132 		.string	"*N12_GLOBAL__N_143TestCheckArray2DCloseFailureIncludesDetailsE"
 11670      5F474C4F 
 11670      42414C5F 
 11670      5F4E5F31 
 11670      34335465 
 11671 105f 00       		.align 8
 11674              	_ZTIN12_GLOBAL__N_143TestCheckArray2DCloseFailureIncludesDetailsE:
 11675 1060 00000000 		.quad	_ZTVN10__cxxabiv120__si_class_type_infoE+16
 11675      00000000 
 11676 1068 00000000 		.quad	_ZTSN12_GLOBAL__N_143TestCheckArray2DCloseFailureIncludesDetailsE
 11676      00000000 
 11677 1070 00000000 		.quad	_ZTIN8UnitTest4TestE
 11677      00000000 
 11678 1078 00000000 		.align 32
 11678      00000000 
 11681              	_ZTSN12_GLOBAL__N_133TestCheckCloseWithDoublesSucceedsE:
 11682 1080 2A4E3132 		.string	"*N12_GLOBAL__N_133TestCheckCloseWithDoublesSucceedsE"
 11682      5F474C4F 
 11682      42414C5F 
 11682      5F4E5F31 
 11682      33335465 
 11683 10b5 000000   		.align 8
 11686              	_ZTIN12_GLOBAL__N_133TestCheckCloseWithDoublesSucceedsE:
 11687 10b8 00000000 		.quad	_ZTVN10__cxxabiv120__si_class_type_infoE+16
 11687      00000000 
 11688 10c0 00000000 		.quad	_ZTSN12_GLOBAL__N_133TestCheckCloseWithDoublesSucceedsE
 11688      00000000 
 11689 10c8 00000000 		.quad	_ZTIN8UnitTest4TestE
 11689      00000000 
 11690 10d0 00000000 		.align 32
 11690      00000000 
 11690      00000000 
 11690      00000000 
 11693              	_ZTSN12_GLOBAL__N_126TestCheckArray2DCloseFalseE:
 11694 10e0 2A4E3132 		.string	"*N12_GLOBAL__N_126TestCheckArray2DCloseFalseE"
 11694      5F474C4F 
 11694      42414C5F 
 11694      5F4E5F31 
 11694      32365465 
 11695 110e 0000     		.align 8
 11698              	_ZTIN12_GLOBAL__N_126TestCheckArray2DCloseFalseE:
 11699 1110 00000000 		.quad	_ZTVN10__cxxabiv120__si_class_type_infoE+16
 11699      00000000 
 11700 1118 00000000 		.quad	_ZTSN12_GLOBAL__N_126TestCheckArray2DCloseFalseE
 11700      00000000 
 11701 1120 00000000 		.quad	_ZTIN8UnitTest4TestE
 11701      00000000 
 11702 1128 00000000 		.align 32
 11702      00000000 
 11702      00000000 
 11702      00000000 
 11702      00000000 
 11705              	_ZTSN12_GLOBAL__N_125TestCheckArray2DCloseTrueE:
 11706 1140 2A4E3132 		.string	"*N12_GLOBAL__N_125TestCheckArray2DCloseTrueE"
 11706      5F474C4F 
 11706      42414C5F 
 11706      5F4E5F31 
 11706      32355465 
 11707 116d 000000   		.align 8
 11710              	_ZTIN12_GLOBAL__N_125TestCheckArray2DCloseTrueE:
 11711 1170 00000000 		.quad	_ZTVN10__cxxabiv120__si_class_type_infoE+16
 11711      00000000 
 11712 1178 00000000 		.quad	_ZTSN12_GLOBAL__N_125TestCheckArray2DCloseTrueE
 11712      00000000 
 11713 1180 00000000 		.quad	_ZTIN8UnitTest4TestE
 11713      00000000 
 11714 1188 00000000 		.align 32
 11714      00000000 
 11714      00000000 
 11714      00000000 
 11714      00000000 
 11717              	_ZTSN12_GLOBAL__N_141TestCheckArrayCloseFailureIncludesDetailsE:
 11718 11a0 2A4E3132 		.string	"*N12_GLOBAL__N_141TestCheckArrayCloseFailureIncludesDetailsE"
 11718      5F474C4F 
 11718      42414C5F 
 11718      5F4E5F31 
 11718      34315465 
 11719 11dd 000000   		.align 8
 11722              	_ZTIN12_GLOBAL__N_141TestCheckArrayCloseFailureIncludesDetailsE:
 11723 11e0 00000000 		.quad	_ZTVN10__cxxabiv120__si_class_type_infoE+16
 11723      00000000 
 11724 11e8 00000000 		.quad	_ZTSN12_GLOBAL__N_141TestCheckArrayCloseFailureIncludesDetailsE
 11724      00000000 
 11725 11f0 00000000 		.quad	_ZTIN8UnitTest4TestE
 11725      00000000 
 11726 11f8 00000000 		.align 32
 11726      00000000 
 11729              	_ZTSN12_GLOBAL__N_124TestCheckArrayCloseFalseE:
 11730 1200 2A4E3132 		.string	"*N12_GLOBAL__N_124TestCheckArrayCloseFalseE"
 11730      5F474C4F 
 11730      42414C5F 
 11730      5F4E5F31 
 11730      32345465 
 11731 122c 00000000 		.align 8
 11734              	_ZTIN12_GLOBAL__N_124TestCheckArrayCloseFalseE:
 11735 1230 00000000 		.quad	_ZTVN10__cxxabiv120__si_class_type_infoE+16
 11735      00000000 
 11736 1238 00000000 		.quad	_ZTSN12_GLOBAL__N_124TestCheckArrayCloseFalseE
 11736      00000000 
 11737 1240 00000000 		.quad	_ZTIN8UnitTest4TestE
 11737      00000000 
 11738 1248 00000000 		.align 32
 11738      00000000 
 11738      00000000 
 11738      00000000 
 11738      00000000 
 11741              	_ZTSN12_GLOBAL__N_123TestCheckArrayCloseTrueE:
 11742 1260 2A4E3132 		.string	"*N12_GLOBAL__N_123TestCheckArrayCloseTrueE"
 11742      5F474C4F 
 11742      42414C5F 
 11742      5F4E5F31 
 11742      32335465 
 11743 128b 00000000 		.align 8
 11743      00
 11746              	_ZTIN12_GLOBAL__N_123TestCheckArrayCloseTrueE:
 11747 1290 00000000 		.quad	_ZTVN10__cxxabiv120__si_class_type_infoE+16
 11747      00000000 
 11748 1298 00000000 		.quad	_ZTSN12_GLOBAL__N_123TestCheckArrayCloseTrueE
 11748      00000000 
 11749 12a0 00000000 		.quad	_ZTIN8UnitTest4TestE
 11749      00000000 
 11750 12a8 00000000 		.align 32
 11750      00000000 
 11750      00000000 
 11750      00000000 
 11750      00000000 
 11753              	_ZTSN12_GLOBAL__N_124TestCheckArrayEqualFalseE:
 11754 12c0 2A4E3132 		.string	"*N12_GLOBAL__N_124TestCheckArrayEqualFalseE"
 11754      5F474C4F 
 11754      42414C5F 
 11754      5F4E5F31 
 11754      32345465 
 11755 12ec 00000000 		.align 8
 11758              	_ZTIN12_GLOBAL__N_124TestCheckArrayEqualFalseE:
 11759 12f0 00000000 		.quad	_ZTVN10__cxxabiv120__si_class_type_infoE+16
 11759      00000000 
 11760 12f8 00000000 		.quad	_ZTSN12_GLOBAL__N_124TestCheckArrayEqualFalseE
 11760      00000000 
 11761 1300 00000000 		.quad	_ZTIN8UnitTest4TestE
 11761      00000000 
 11762 1308 00000000 		.align 32
 11762      00000000 
 11762      00000000 
 11762      00000000 
 11762      00000000 
 11765              	_ZTSN12_GLOBAL__N_123TestCheckArrayEqualTrueE:
 11766 1320 2A4E3132 		.string	"*N12_GLOBAL__N_123TestCheckArrayEqualTrueE"
 11766      5F474C4F 
 11766      42414C5F 
 11766      5F4E5F31 
 11766      32335465 
 11767 134b 00000000 		.align 8
 11767      00
 11770              	_ZTIN12_GLOBAL__N_123TestCheckArrayEqualTrueE:
 11771 1350 00000000 		.quad	_ZTVN10__cxxabiv120__si_class_type_infoE+16
 11771      00000000 
 11772 1358 00000000 		.quad	_ZTSN12_GLOBAL__N_123TestCheckArrayEqualTrueE
 11772      00000000 
 11773 1360 00000000 		.quad	_ZTIN8UnitTest4TestE
 11773      00000000 
 11774 1368 00000000 		.align 32
 11774      00000000 
 11774      00000000 
 11774      00000000 
 11774      00000000 
 11777              	_ZTSN12_GLOBAL__N_136TestCheckCloseFailureIncludesDetailsE:
 11778 1380 2A4E3132 		.string	"*N12_GLOBAL__N_136TestCheckCloseFailureIncludesDetailsE"
 11778      5F474C4F 
 11778      42414C5F 
 11778      5F4E5F31 
 11778      33365465 
 11779              		.align 8
 11782              	_ZTIN12_GLOBAL__N_136TestCheckCloseFailureIncludesDetailsE:
 11783 13b8 00000000 		.quad	_ZTVN10__cxxabiv120__si_class_type_infoE+16
 11783      00000000 
 11784 13c0 00000000 		.quad	_ZTSN12_GLOBAL__N_136TestCheckCloseFailureIncludesDetailsE
 11784      00000000 
 11785 13c8 00000000 		.quad	_ZTIN8UnitTest4TestE
 11785      00000000 
 11786 13d0 00000000 		.align 32
 11786      00000000 
 11786      00000000 
 11786      00000000 
 11789              	_ZTSN12_GLOBAL__N_138TestCheckCloseFailureIncludesToleranceE:
 11790 13e0 2A4E3132 		.string	"*N12_GLOBAL__N_138TestCheckCloseFailureIncludesToleranceE"
 11790      5F474C4F 
 11790      42414C5F 
 11790      5F4E5F31 
 11790      33385465 
 11791 141a 00000000 		.align 8
 11791      0000
 11794              	_ZTIN12_GLOBAL__N_138TestCheckCloseFailureIncludesToleranceE:
 11795 1420 00000000 		.quad	_ZTVN10__cxxabiv120__si_class_type_infoE+16
 11795      00000000 
 11796 1428 00000000 		.quad	_ZTSN12_GLOBAL__N_138TestCheckCloseFailureIncludesToleranceE
 11796      00000000 
 11797 1430 00000000 		.quad	_ZTIN8UnitTest4TestE
 11797      00000000 
 11798 1438 00000000 		.align 32
 11798      00000000 
 11801              	_ZTSN12_GLOBAL__N_151TestCheckCloseFailureIncludesCheckExpectedAndActualE:
 11802 1440 2A4E3132 		.string	"*N12_GLOBAL__N_151TestCheckCloseFailureIncludesCheckExpectedAndActualE"
 11802      5F474C4F 
 11802      42414C5F 
 11802      5F4E5F31 
 11802      35315465 
 11803 1487 00       		.align 8
 11806              	_ZTIN12_GLOBAL__N_151TestCheckCloseFailureIncludesCheckExpectedAndActualE:
 11807 1488 00000000 		.quad	_ZTVN10__cxxabiv120__si_class_type_infoE+16
 11807      00000000 
 11808 1490 00000000 		.quad	_ZTSN12_GLOBAL__N_151TestCheckCloseFailureIncludesCheckExpectedAndActualE
 11808      00000000 
 11809 1498 00000000 		.quad	_ZTIN8UnitTest4TestE
 11809      00000000 
 11810              		.align 32
 11813              	_ZTSN12_GLOBAL__N_139TestCheckCloseWithNaNAgainstItselfFailsE:
 11814 14a0 2A4E3132 		.string	"*N12_GLOBAL__N_139TestCheckCloseWithNaNAgainstItselfFailsE"
 11814      5F474C4F 
 11814      42414C5F 
 11814      5F4E5F31 
 11814      33395465 
 11815 14db 00000000 		.align 8
 11815      00
 11818              	_ZTIN12_GLOBAL__N_139TestCheckCloseWithNaNAgainstItselfFailsE:
 11819 14e0 00000000 		.quad	_ZTVN10__cxxabiv120__si_class_type_infoE+16
 11819      00000000 
 11820 14e8 00000000 		.quad	_ZTSN12_GLOBAL__N_139TestCheckCloseWithNaNAgainstItselfFailsE
 11820      00000000 
 11821 14f0 00000000 		.quad	_ZTIN8UnitTest4TestE
 11821      00000000 
 11822 14f8 00000000 		.align 32
 11822      00000000 
 11825              	_ZTSN12_GLOBAL__N_126TestCheckCloseWithNaNFailsE:
 11826 1500 2A4E3132 		.string	"*N12_GLOBAL__N_126TestCheckCloseWithNaNFailsE"
 11826      5F474C4F 
 11826      42414C5F 
 11826      5F4E5F31 
 11826      32365465 
 11827 152e 0000     		.align 8
 11830              	_ZTIN12_GLOBAL__N_126TestCheckCloseWithNaNFailsE:
 11831 1530 00000000 		.quad	_ZTVN10__cxxabiv120__si_class_type_infoE+16
 11831      00000000 
 11832 1538 00000000 		.quad	_ZTSN12_GLOBAL__N_126TestCheckCloseWithNaNFailsE
 11832      00000000 
 11833 1540 00000000 		.quad	_ZTIN8UnitTest4TestE
 11833      00000000 
 11834 1548 00000000 		.align 32
 11834      00000000 
 11834      00000000 
 11834      00000000 
 11834      00000000 
 11837              	_ZTSN12_GLOBAL__N_147TestCheckCloseWithZeroEpsilonWorksForSameNumberE:
 11838 1560 2A4E3132 		.string	"*N12_GLOBAL__N_147TestCheckCloseWithZeroEpsilonWorksForSameNumberE"
 11838      5F474C4F 
 11838      42414C5F 
 11838      5F4E5F31 
 11838      34375465 
 11839 15a3 00000000 		.align 8
 11839      00
 11842              	_ZTIN12_GLOBAL__N_147TestCheckCloseWithZeroEpsilonWorksForSameNumberE:
 11843 15a8 00000000 		.quad	_ZTVN10__cxxabiv120__si_class_type_infoE+16
 11843      00000000 
 11844 15b0 00000000 		.quad	_ZTSN12_GLOBAL__N_147TestCheckCloseWithZeroEpsilonWorksForSameNumberE
 11844      00000000 
 11845 15b8 00000000 		.quad	_ZTIN8UnitTest4TestE
 11845      00000000 
 11846              		.align 32
 11849              	_ZTSN12_GLOBAL__N_119TestCheckCloseFalseE:
 11850 15c0 2A4E3132 		.string	"*N12_GLOBAL__N_119TestCheckCloseFalseE"
 11850      5F474C4F 
 11850      42414C5F 
 11850      5F4E5F31 
 11850      31395465 
 11851 15e7 00       		.align 8
 11854              	_ZTIN12_GLOBAL__N_119TestCheckCloseFalseE:
 11855 15e8 00000000 		.quad	_ZTVN10__cxxabiv120__si_class_type_infoE+16
 11855      00000000 
 11856 15f0 00000000 		.quad	_ZTSN12_GLOBAL__N_119TestCheckCloseFalseE
 11856      00000000 
 11857 15f8 00000000 		.quad	_ZTIN8UnitTest4TestE
 11857      00000000 
 11858              		.align 32
 11861              	_ZTSN12_GLOBAL__N_118TestCheckCloseTrueE:
 11862 1600 2A4E3132 		.string	"*N12_GLOBAL__N_118TestCheckCloseTrueE"
 11862      5F474C4F 
 11862      42414C5F 
 11862      5F4E5F31 
 11862      31385465 
 11863 1626 0000     		.align 8
 11866              	_ZTIN12_GLOBAL__N_118TestCheckCloseTrueE:
 11867 1628 00000000 		.quad	_ZTVN10__cxxabiv120__si_class_type_infoE+16
 11867      00000000 
 11868 1630 00000000 		.quad	_ZTSN12_GLOBAL__N_118TestCheckCloseTrueE
 11868      00000000 
 11869 1638 00000000 		.quad	_ZTIN8UnitTest4TestE
 11869      00000000 
 11870              		.align 32
 11873              	_ZTSN12_GLOBAL__N_136TestCheckEqualFailureIncludesDetailsE:
 11874 1640 2A4E3132 		.string	"*N12_GLOBAL__N_136TestCheckEqualFailureIncludesDetailsE"
 11874      5F474C4F 
 11874      42414C5F 
 11874      5F4E5F31 
 11874      33365465 
 11875              		.align 8
 11878              	_ZTIN12_GLOBAL__N_136TestCheckEqualFailureIncludesDetailsE:
 11879 1678 00000000 		.quad	_ZTVN10__cxxabiv120__si_class_type_infoE+16
 11879      00000000 
 11880 1680 00000000 		.quad	_ZTSN12_GLOBAL__N_136TestCheckEqualFailureIncludesDetailsE
 11880      00000000 
 11881 1688 00000000 		.quad	_ZTIN8UnitTest4TestE
 11881      00000000 
 11882 1690 00000000 		.align 32
 11882      00000000 
 11882      00000000 
 11882      00000000 
 11885              	_ZTSN12_GLOBAL__N_151TestCheckEqualFailureIncludesCheckExpectedAndActualE:
 11886 16a0 2A4E3132 		.string	"*N12_GLOBAL__N_151TestCheckEqualFailureIncludesCheckExpectedAndActualE"
 11886      5F474C4F 
 11886      42414C5F 
 11886      5F4E5F31 
 11886      35315465 
 11887 16e7 00       		.align 8
 11890              	_ZTIN12_GLOBAL__N_151TestCheckEqualFailureIncludesCheckExpectedAndActualE:
 11891 16e8 00000000 		.quad	_ZTVN10__cxxabiv120__si_class_type_infoE+16
 11891      00000000 
 11892 16f0 00000000 		.quad	_ZTSN12_GLOBAL__N_151TestCheckEqualFailureIncludesCheckExpectedAndActualE
 11892      00000000 
 11893 16f8 00000000 		.quad	_ZTIN8UnitTest4TestE
 11893      00000000 
 11894              		.align 32
 11897              	_ZTSN12_GLOBAL__N_153TestCheckEqualsWithStringsWorksOnContentsWithALiteralE:
 11898 1700 2A4E3132 		.string	"*N12_GLOBAL__N_153TestCheckEqualsWithStringsWorksOnContentsWithALiteralE"
 11898      5F474C4F 
 11898      42414C5F 
 11898      5F4E5F31 
 11898      35335465 
 11899 1749 00000000 		.align 8
 11899      000000
 11902              	_ZTIN12_GLOBAL__N_153TestCheckEqualsWithStringsWorksOnContentsWithALiteralE:
 11903 1750 00000000 		.quad	_ZTVN10__cxxabiv120__si_class_type_infoE+16
 11903      00000000 
 11904 1758 00000000 		.quad	_ZTSN12_GLOBAL__N_153TestCheckEqualsWithStringsWorksOnContentsWithALiteralE
 11904      00000000 
 11905 1760 00000000 		.quad	_ZTIN8UnitTest4TestE
 11905      00000000 
 11906 1768 00000000 		.align 32
 11906      00000000 
 11906      00000000 
 11906      00000000 
 11906      00000000 
 11909              	_ZTSN12_GLOBAL__N_154TestCheckEqualsWithStringsWorksOnContentsConstNonConstE:
 11910 1780 2A4E3132 		.string	"*N12_GLOBAL__N_154TestCheckEqualsWithStringsWorksOnContentsConstNonConstE"
 11910      5F474C4F 
 11910      42414C5F 
 11910      5F4E5F31 
 11910      35345465 
 11911 17ca 00000000 		.align 8
 11911      0000
 11914              	_ZTIN12_GLOBAL__N_154TestCheckEqualsWithStringsWorksOnContentsConstNonConstE:
 11915 17d0 00000000 		.quad	_ZTVN10__cxxabiv120__si_class_type_infoE+16
 11915      00000000 
 11916 17d8 00000000 		.quad	_ZTSN12_GLOBAL__N_154TestCheckEqualsWithStringsWorksOnContentsConstNonConstE
 11916      00000000 
 11917 17e0 00000000 		.quad	_ZTIN8UnitTest4TestE
 11917      00000000 
 11918 17e8 00000000 		.align 32
 11918      00000000 
 11918      00000000 
 11918      00000000 
 11918      00000000 
 11921              	_ZTSN12_GLOBAL__N_154TestCheckEqualsWithStringsWorksOnContentsNonConstConstE:
 11922 1800 2A4E3132 		.string	"*N12_GLOBAL__N_154TestCheckEqualsWithStringsWorksOnContentsNonConstConstE"
 11922      5F474C4F 
 11922      42414C5F 
 11922      5F4E5F31 
 11922      35345465 
 11923 184a 00000000 		.align 8
 11923      0000
 11926              	_ZTIN12_GLOBAL__N_154TestCheckEqualsWithStringsWorksOnContentsNonConstConstE:
 11927 1850 00000000 		.quad	_ZTVN10__cxxabiv120__si_class_type_infoE+16
 11927      00000000 
 11928 1858 00000000 		.quad	_ZTSN12_GLOBAL__N_154TestCheckEqualsWithStringsWorksOnContentsNonConstConstE
 11928      00000000 
 11929 1860 00000000 		.quad	_ZTIN8UnitTest4TestE
 11929      00000000 
 11930 1868 00000000 		.align 32
 11930      00000000 
 11930      00000000 
 11930      00000000 
 11930      00000000 
 11933              	_ZTSN12_GLOBAL__N_151TestCheckEqualsWithStringsWorksOnContentsConstConstE:
 11934 1880 2A4E3132 		.string	"*N12_GLOBAL__N_151TestCheckEqualsWithStringsWorksOnContentsConstConstE"
 11934      5F474C4F 
 11934      42414C5F 
 11934      5F4E5F31 
 11934      35315465 
 11935 18c7 00       		.align 8
 11938              	_ZTIN12_GLOBAL__N_151TestCheckEqualsWithStringsWorksOnContentsConstConstE:
 11939 18c8 00000000 		.quad	_ZTVN10__cxxabiv120__si_class_type_infoE+16
 11939      00000000 
 11940 18d0 00000000 		.quad	_ZTSN12_GLOBAL__N_151TestCheckEqualsWithStringsWorksOnContentsConstConstE
 11940      00000000 
 11941 18d8 00000000 		.quad	_ZTIN8UnitTest4TestE
 11941      00000000 
 11942              		.align 32
 11945              	_ZTSN12_GLOBAL__N_157TestCheckEqualsWithStringsWorksOnContentsNonConstNonConstE:
 11946 18e0 2A4E3132 		.string	"*N12_GLOBAL__N_157TestCheckEqualsWithStringsWorksOnContentsNonConstNonConstE"
 11946      5F474C4F 
 11946      42414C5F 
 11946      5F4E5F31 
 11946      35375465 
 11947 192d 000000   		.align 8
 11950              	_ZTIN12_GLOBAL__N_157TestCheckEqualsWithStringsWorksOnContentsNonConstNonConstE:
 11951 1930 00000000 		.quad	_ZTVN10__cxxabiv120__si_class_type_infoE+16
 11951      00000000 
 11952 1938 00000000 		.quad	_ZTSN12_GLOBAL__N_157TestCheckEqualsWithStringsWorksOnContentsNonConstNonConstE
 11952      00000000 
 11953 1940 00000000 		.quad	_ZTIN8UnitTest4TestE
 11953      00000000 
 11954 1948 00000000 		.align 32
 11954      00000000 
 11954      00000000 
 11954      00000000 
 11954      00000000 
 11957              	_ZTSN12_GLOBAL__N_149TestCheckEqualsWithStringsFailsOnDifferentStringsE:
 11958 1960 2A4E3132 		.string	"*N12_GLOBAL__N_149TestCheckEqualsWithStringsFailsOnDifferentStringsE"
 11958      5F474C4F 
 11958      42414C5F 
 11958      5F4E5F31 
 11958      34395465 
 11959 19a5 000000   		.align 8
 11962              	_ZTIN12_GLOBAL__N_149TestCheckEqualsWithStringsFailsOnDifferentStringsE:
 11963 19a8 00000000 		.quad	_ZTVN10__cxxabiv120__si_class_type_infoE+16
 11963      00000000 
 11964 19b0 00000000 		.quad	_ZTSN12_GLOBAL__N_149TestCheckEqualsWithStringsFailsOnDifferentStringsE
 11964      00000000 
 11965 19b8 00000000 		.quad	_ZTIN8UnitTest4TestE
 11965      00000000 
 11966              		.align 32
 11969              	_ZTSN12_GLOBAL__N_130TestCheckEqualWithUnsignedLongE:
 11970 19c0 2A4E3132 		.string	"*N12_GLOBAL__N_130TestCheckEqualWithUnsignedLongE"
 11970      5F474C4F 
 11970      42414C5F 
 11970      5F4E5F31 
 11970      33305465 
 11971 19f2 00000000 		.align 8
 11971      0000
 11974              	_ZTIN12_GLOBAL__N_130TestCheckEqualWithUnsignedLongE:
 11975 19f8 00000000 		.quad	_ZTVN10__cxxabiv120__si_class_type_infoE+16
 11975      00000000 
 11976 1a00 00000000 		.quad	_ZTSN12_GLOBAL__N_130TestCheckEqualWithUnsignedLongE
 11976      00000000 
 11977 1a08 00000000 		.quad	_ZTIN8UnitTest4TestE
 11977      00000000 
 11978              		.weak	_ZTI17RecordingReporter
 11979              		.section	.rodata._ZTI17RecordingReporter,"aG",@progbits,_ZTI17RecordingReporter,comdat
 11980              		.align 8
 11983              	_ZTI17RecordingReporter:
 11984 0000 00000000 		.quad	_ZTVN10__cxxabiv120__si_class_type_infoE+16
 11984      00000000 
 11985 0008 00000000 		.quad	_ZTS17RecordingReporter
 11985      00000000 
 11986 0010 00000000 		.quad	_ZTIN8UnitTest12TestReporterE
 11986      00000000 
 11987              		.weak	_ZTS17RecordingReporter
 11988              		.section	.rodata._ZTS17RecordingReporter,"aG",@progbits,_ZTS17RecordingReporter,comdat
 11989              		.align 16
 11992              	_ZTS17RecordingReporter:
 11993 0000 31375265 		.string	"17RecordingReporter"
 11993      636F7264 
 11993      696E6752 
 11993      65706F72 
 11993      74657200 
 11994              		.weak	_ZTIN8UnitTest15MemoryOutStreamE
 11995              		.section	.rodata._ZTIN8UnitTest15MemoryOutStreamE,"aG",@progbits,_ZTIN8UnitTest15MemoryOutStreamE,
 11996              		.align 8
 11999              	_ZTIN8UnitTest15MemoryOutStreamE:
 12000 0000 00000000 		.quad	_ZTVN10__cxxabiv120__si_class_type_infoE+16
 12000      00000000 
 12001 0008 00000000 		.quad	_ZTSN8UnitTest15MemoryOutStreamE
 12001      00000000 
 12002 0010 00000000 		.quad	_ZTINSt7__cxx1119basic_ostringstreamIcSt11char_traitsIcESaIcEEE
 12002      00000000 
 12003              		.weak	_ZTSN8UnitTest15MemoryOutStreamE
 12004              		.section	.rodata._ZTSN8UnitTest15MemoryOutStreamE,"aG",@progbits,_ZTSN8UnitTest15MemoryOutStreamE,
 12005              		.align 16
 12008              	_ZTSN8UnitTest15MemoryOutStreamE:
 12009 0000 4E38556E 		.string	"N8UnitTest15MemoryOutStreamE"
 12009      69745465 
 12009      73743135 
 12009      4D656D6F 
 12009      72794F75 
 12010              		.text
 12012              	_Z41__static_initialization_and_destruction_0ii:
 12013              	.LFB1392:
 292:TestChecks.cpp **** 
 293:TestChecks.cpp **** }
 12014              		.loc 5 293 0
 12015              		.cfi_startproc
 12016 431e 55       		pushq	%rbp
 12017              		.cfi_def_cfa_offset 16
 12018              		.cfi_offset 6, -16
 12019 431f 4889E5   		movq	%rsp, %rbp
 12020              		.cfi_def_cfa_register 6
 12021 4322 4883EC10 		subq	$16, %rsp
 12022 4326 897DFC   		movl	%edi, -4(%rbp)
 12023 4329 8975F8   		movl	%esi, -8(%rbp)
 12024              		.loc 5 293 0
 12025 432c 837DFC01 		cmpl	$1, -4(%rbp)
 12026 4330 0F856F05 		jne	.L563
 12026      0000
 12027              		.loc 5 293 0 is_stmt 0 discriminator 1
 12028 4336 817DF8FF 		cmpl	$65535, -8(%rbp)
 12028      FF0000
 12029 433d 0F856205 		jne	.L563
 12029      0000
  10:TestChecks.cpp **** {
 12030              		.loc 5 10 0 is_stmt 1
 12031 4343 BF000000 		movl	$_ZN12_GLOBAL__N_138testCheckEqualWithUnsignedLongInstanceE, %edi
 12031      00
 12032 4348 E8B3BCFF 		call	_ZN12_GLOBAL__N_130TestCheckEqualWithUnsignedLongC1Ev
 12032      FF
 12033 434d BA000000 		movl	$__dso_handle, %edx
 12033      00
 12034 4352 BE000000 		movl	$_ZN12_GLOBAL__N_138testCheckEqualWithUnsignedLongInstanceE, %esi
 12034      00
 12035 4357 BF000000 		movl	$_ZN12_GLOBAL__N_130TestCheckEqualWithUnsignedLongD1Ev, %edi
 12035      00
 12036 435c E8000000 		call	__cxa_atexit
 12036      00
 12037 4361 E8000000 		call	_ZN8UnitTest4Test11GetTestListEv
 12037      00
 12038 4366 BA000000 		movl	$_ZN12_GLOBAL__N_138testCheckEqualWithUnsignedLongInstanceE, %edx
 12038      00
 12039 436b 4889C6   		movq	%rax, %rsi
 12040 436e BF000000 		movl	$_ZN12_GLOBAL__N_131adderCheckEqualWithUnsignedLongE, %edi
 12040      00
 12041 4373 E8000000 		call	_ZN8UnitTest9ListAdderC1ERNS_8TestListEPNS_4TestE
 12041      00
  17:TestChecks.cpp **** {
 12042              		.loc 5 17 0
 12043 4378 BF000000 		movl	$_ZN12_GLOBAL__N_157testCheckEqualsWithStringsFailsOnDifferentStringsInstanceE, %edi
 12043      00
 12044 437d E8A2BDFF 		call	_ZN12_GLOBAL__N_149TestCheckEqualsWithStringsFailsOnDifferentStringsC1Ev
 12044      FF
 12045 4382 BA000000 		movl	$__dso_handle, %edx
 12045      00
 12046 4387 BE000000 		movl	$_ZN12_GLOBAL__N_157testCheckEqualsWithStringsFailsOnDifferentStringsInstanceE, %esi
 12046      00
 12047 438c BF000000 		movl	$_ZN12_GLOBAL__N_149TestCheckEqualsWithStringsFailsOnDifferentStringsD1Ev, %edi
 12047      00
 12048 4391 E8000000 		call	__cxa_atexit
 12048      00
 12049 4396 E8000000 		call	_ZN8UnitTest4Test11GetTestListEv
 12049      00
 12050 439b BA000000 		movl	$_ZN12_GLOBAL__N_157testCheckEqualsWithStringsFailsOnDifferentStringsInstanceE, %edx
 12050      00
 12051 43a0 4889C6   		movq	%rax, %rsi
 12052 43a3 BF000000 		movl	$_ZN12_GLOBAL__N_150adderCheckEqualsWithStringsFailsOnDifferentStringsE, %edi
 12052      00
 12053 43a8 E8000000 		call	_ZN8UnitTest9ListAdderC1ERNS_8TestListEPNS_4TestE
 12053      00
  29:TestChecks.cpp **** {
 12054              		.loc 5 29 0
 12055 43ad BF000000 		movl	$_ZN12_GLOBAL__N_165testCheckEqualsWithStringsWorksOnContentsNonConstNonConstInstanceE, %edi
 12055      00
 12056 43b2 E8FDBEFF 		call	_ZN12_GLOBAL__N_157TestCheckEqualsWithStringsWorksOnContentsNonConstNonConstC1Ev
 12056      FF
 12057 43b7 BA000000 		movl	$__dso_handle, %edx
 12057      00
 12058 43bc BE000000 		movl	$_ZN12_GLOBAL__N_165testCheckEqualsWithStringsWorksOnContentsNonConstNonConstInstanceE, %esi
 12058      00
 12059 43c1 BF000000 		movl	$_ZN12_GLOBAL__N_157TestCheckEqualsWithStringsWorksOnContentsNonConstNonConstD1Ev, %edi
 12059      00
 12060 43c6 E8000000 		call	__cxa_atexit
 12060      00
 12061 43cb E8000000 		call	_ZN8UnitTest4Test11GetTestListEv
 12061      00
 12062 43d0 BA000000 		movl	$_ZN12_GLOBAL__N_165testCheckEqualsWithStringsWorksOnContentsNonConstNonConstInstanceE, %edx
 12062      00
 12063 43d5 4889C6   		movq	%rax, %rsi
 12064 43d8 BF000000 		movl	$_ZN12_GLOBAL__N_158adderCheckEqualsWithStringsWorksOnContentsNonConstNonConstE, %edi
 12064      00
 12065 43dd E8000000 		call	_ZN8UnitTest9ListAdderC1ERNS_8TestListEPNS_4TestE
 12065      00
  38:TestChecks.cpp **** {
 12066              		.loc 5 38 0
 12067 43e2 BF000000 		movl	$_ZN12_GLOBAL__N_159testCheckEqualsWithStringsWorksOnContentsConstConstInstanceE, %edi
 12067      00
 12068 43e7 E84EC0FF 		call	_ZN12_GLOBAL__N_151TestCheckEqualsWithStringsWorksOnContentsConstConstC1Ev
 12068      FF
 12069 43ec BA000000 		movl	$__dso_handle, %edx
 12069      00
 12070 43f1 BE000000 		movl	$_ZN12_GLOBAL__N_159testCheckEqualsWithStringsWorksOnContentsConstConstInstanceE, %esi
 12070      00
 12071 43f6 BF000000 		movl	$_ZN12_GLOBAL__N_151TestCheckEqualsWithStringsWorksOnContentsConstConstD1Ev, %edi
 12071      00
 12072 43fb E8000000 		call	__cxa_atexit
 12072      00
 12073 4400 E8000000 		call	_ZN8UnitTest4Test11GetTestListEv
 12073      00
 12074 4405 BA000000 		movl	$_ZN12_GLOBAL__N_159testCheckEqualsWithStringsWorksOnContentsConstConstInstanceE, %edx
 12074      00
 12075 440a 4889C6   		movq	%rax, %rsi
 12076 440d BF000000 		movl	$_ZN12_GLOBAL__N_152adderCheckEqualsWithStringsWorksOnContentsConstConstE, %edi
 12076      00
 12077 4412 E8000000 		call	_ZN8UnitTest9ListAdderC1ERNS_8TestListEPNS_4TestE
 12077      00
  47:TestChecks.cpp **** {
 12078              		.loc 5 47 0
 12079 4417 BF000000 		movl	$_ZN12_GLOBAL__N_162testCheckEqualsWithStringsWorksOnContentsNonConstConstInstanceE, %edi
 12079      00
 12080 441c E89FC1FF 		call	_ZN12_GLOBAL__N_154TestCheckEqualsWithStringsWorksOnContentsNonConstConstC1Ev
 12080      FF
 12081 4421 BA000000 		movl	$__dso_handle, %edx
 12081      00
 12082 4426 BE000000 		movl	$_ZN12_GLOBAL__N_162testCheckEqualsWithStringsWorksOnContentsNonConstConstInstanceE, %esi
 12082      00
 12083 442b BF000000 		movl	$_ZN12_GLOBAL__N_154TestCheckEqualsWithStringsWorksOnContentsNonConstConstD1Ev, %edi
 12083      00
 12084 4430 E8000000 		call	__cxa_atexit
 12084      00
 12085 4435 E8000000 		call	_ZN8UnitTest4Test11GetTestListEv
 12085      00
 12086 443a BA000000 		movl	$_ZN12_GLOBAL__N_162testCheckEqualsWithStringsWorksOnContentsNonConstConstInstanceE, %edx
 12086      00
 12087 443f 4889C6   		movq	%rax, %rsi
 12088 4442 BF000000 		movl	$_ZN12_GLOBAL__N_155adderCheckEqualsWithStringsWorksOnContentsNonConstConstE, %edi
 12088      00
 12089 4447 E8000000 		call	_ZN8UnitTest9ListAdderC1ERNS_8TestListEPNS_4TestE
 12089      00
  56:TestChecks.cpp **** {
 12090              		.loc 5 56 0
 12091 444c BF000000 		movl	$_ZN12_GLOBAL__N_162testCheckEqualsWithStringsWorksOnContentsConstNonConstInstanceE, %edi
 12091      00
 12092 4451 E8F0C2FF 		call	_ZN12_GLOBAL__N_154TestCheckEqualsWithStringsWorksOnContentsConstNonConstC1Ev
 12092      FF
 12093 4456 BA000000 		movl	$__dso_handle, %edx
 12093      00
 12094 445b BE000000 		movl	$_ZN12_GLOBAL__N_162testCheckEqualsWithStringsWorksOnContentsConstNonConstInstanceE, %esi
 12094      00
 12095 4460 BF000000 		movl	$_ZN12_GLOBAL__N_154TestCheckEqualsWithStringsWorksOnContentsConstNonConstD1Ev, %edi
 12095      00
 12096 4465 E8000000 		call	__cxa_atexit
 12096      00
 12097 446a E8000000 		call	_ZN8UnitTest4Test11GetTestListEv
 12097      00
 12098 446f BA000000 		movl	$_ZN12_GLOBAL__N_162testCheckEqualsWithStringsWorksOnContentsConstNonConstInstanceE, %edx
 12098      00
 12099 4474 4889C6   		movq	%rax, %rsi
 12100 4477 BF000000 		movl	$_ZN12_GLOBAL__N_155adderCheckEqualsWithStringsWorksOnContentsConstNonConstE, %edi
 12100      00
 12101 447c E8000000 		call	_ZN8UnitTest9ListAdderC1ERNS_8TestListEPNS_4TestE
 12101      00
  65:TestChecks.cpp **** {
 12102              		.loc 5 65 0
 12103 4481 BF000000 		movl	$_ZN12_GLOBAL__N_161testCheckEqualsWithStringsWorksOnContentsWithALiteralInstanceE, %edi
 12103      00
 12104 4486 E841C4FF 		call	_ZN12_GLOBAL__N_153TestCheckEqualsWithStringsWorksOnContentsWithALiteralC1Ev
 12104      FF
 12105 448b BA000000 		movl	$__dso_handle, %edx
 12105      00
 12106 4490 BE000000 		movl	$_ZN12_GLOBAL__N_161testCheckEqualsWithStringsWorksOnContentsWithALiteralInstanceE, %esi
 12106      00
 12107 4495 BF000000 		movl	$_ZN12_GLOBAL__N_153TestCheckEqualsWithStringsWorksOnContentsWithALiteralD1Ev, %edi
 12107      00
 12108 449a E8000000 		call	__cxa_atexit
 12108      00
 12109 449f E8000000 		call	_ZN8UnitTest4Test11GetTestListEv
 12109      00
 12110 44a4 BA000000 		movl	$_ZN12_GLOBAL__N_161testCheckEqualsWithStringsWorksOnContentsWithALiteralInstanceE, %edx
 12110      00
 12111 44a9 4889C6   		movq	%rax, %rsi
 12112 44ac BF000000 		movl	$_ZN12_GLOBAL__N_154adderCheckEqualsWithStringsWorksOnContentsWithALiteralE, %edi
 12112      00
 12113 44b1 E8000000 		call	_ZN8UnitTest9ListAdderC1ERNS_8TestListEPNS_4TestE
 12113      00
  73:TestChecks.cpp **** {
 12114              		.loc 5 73 0
 12115 44b6 BF000000 		movl	$_ZN12_GLOBAL__N_159testCheckEqualFailureIncludesCheckExpectedAndActualInstanceE, %edi
 12115      00
 12116 44bb E882C5FF 		call	_ZN12_GLOBAL__N_151TestCheckEqualFailureIncludesCheckExpectedAndActualC1Ev
 12116      FF
 12117 44c0 BA000000 		movl	$__dso_handle, %edx
 12117      00
 12118 44c5 BE000000 		movl	$_ZN12_GLOBAL__N_159testCheckEqualFailureIncludesCheckExpectedAndActualInstanceE, %esi
 12118      00
 12119 44ca BF000000 		movl	$_ZN12_GLOBAL__N_151TestCheckEqualFailureIncludesCheckExpectedAndActualD1Ev, %edi
 12119      00
 12120 44cf E8000000 		call	__cxa_atexit
 12120      00
 12121 44d4 E8000000 		call	_ZN8UnitTest4Test11GetTestListEv
 12121      00
 12122 44d9 BA000000 		movl	$_ZN12_GLOBAL__N_159testCheckEqualFailureIncludesCheckExpectedAndActualInstanceE, %edx
 12122      00
 12123 44de 4889C6   		movq	%rax, %rsi
 12124 44e1 BF000000 		movl	$_ZN12_GLOBAL__N_152adderCheckEqualFailureIncludesCheckExpectedAndActualE, %edi
 12124      00
 12125 44e6 E8000000 		call	_ZN8UnitTest9ListAdderC1ERNS_8TestListEPNS_4TestE
 12125      00
  85:TestChecks.cpp **** {
 12126              		.loc 5 85 0
 12127 44eb BF000000 		movl	$_ZN12_GLOBAL__N_144testCheckEqualFailureIncludesDetailsInstanceE, %edi
 12127      00
 12128 44f0 E809C8FF 		call	_ZN12_GLOBAL__N_136TestCheckEqualFailureIncludesDetailsC1Ev
 12128      FF
 12129 44f5 BA000000 		movl	$__dso_handle, %edx
 12129      00
 12130 44fa BE000000 		movl	$_ZN12_GLOBAL__N_144testCheckEqualFailureIncludesDetailsInstanceE, %esi
 12130      00
 12131 44ff BF000000 		movl	$_ZN12_GLOBAL__N_136TestCheckEqualFailureIncludesDetailsD1Ev, %edi
 12131      00
 12132 4504 E8000000 		call	__cxa_atexit
 12132      00
 12133 4509 E8000000 		call	_ZN8UnitTest4Test11GetTestListEv
 12133      00
 12134 450e BA000000 		movl	$_ZN12_GLOBAL__N_144testCheckEqualFailureIncludesDetailsInstanceE, %edx
 12134      00
 12135 4513 4889C6   		movq	%rax, %rsi
 12136 4516 BF000000 		movl	$_ZN12_GLOBAL__N_137adderCheckEqualFailureIncludesDetailsE, %edi
 12136      00
 12137 451b E8000000 		call	_ZN8UnitTest9ListAdderC1ERNS_8TestListEPNS_4TestE
 12137      00
  99:TestChecks.cpp **** {
 12138              		.loc 5 99 0
 12139 4520 BF000000 		movl	$_ZN12_GLOBAL__N_126testCheckCloseTrueInstanceE, %edi
 12139      00
 12140 4525 E8C6CBFF 		call	_ZN12_GLOBAL__N_118TestCheckCloseTrueC1Ev
 12140      FF
 12141 452a BA000000 		movl	$__dso_handle, %edx
 12141      00
 12142 452f BE000000 		movl	$_ZN12_GLOBAL__N_126testCheckCloseTrueInstanceE, %esi
 12142      00
 12143 4534 BF000000 		movl	$_ZN12_GLOBAL__N_118TestCheckCloseTrueD1Ev, %edi
 12143      00
 12144 4539 E8000000 		call	__cxa_atexit
 12144      00
 12145 453e E8000000 		call	_ZN8UnitTest4Test11GetTestListEv
 12145      00
 12146 4543 BA000000 		movl	$_ZN12_GLOBAL__N_126testCheckCloseTrueInstanceE, %edx
 12146      00
 12147 4548 4889C6   		movq	%rax, %rsi
 12148 454b BF000000 		movl	$_ZN12_GLOBAL__N_119adderCheckCloseTrueE, %edi
 12148      00
 12149 4550 E8000000 		call	_ZN8UnitTest9ListAdderC1ERNS_8TestListEPNS_4TestE
 12149      00
 106:TestChecks.cpp **** {
 12150              		.loc 5 106 0
 12151 4555 BF000000 		movl	$_ZN12_GLOBAL__N_127testCheckCloseFalseInstanceE, %edi
 12151      00
 12152 455a E82DCDFF 		call	_ZN12_GLOBAL__N_119TestCheckCloseFalseC1Ev
 12152      FF
 12153 455f BA000000 		movl	$__dso_handle, %edx
 12153      00
 12154 4564 BE000000 		movl	$_ZN12_GLOBAL__N_127testCheckCloseFalseInstanceE, %esi
 12154      00
 12155 4569 BF000000 		movl	$_ZN12_GLOBAL__N_119TestCheckCloseFalseD1Ev, %edi
 12155      00
 12156 456e E8000000 		call	__cxa_atexit
 12156      00
 12157 4573 E8000000 		call	_ZN8UnitTest4Test11GetTestListEv
 12157      00
 12158 4578 BA000000 		movl	$_ZN12_GLOBAL__N_127testCheckCloseFalseInstanceE, %edx
 12158      00
 12159 457d 4889C6   		movq	%rax, %rsi
 12160 4580 BF000000 		movl	$_ZN12_GLOBAL__N_120adderCheckCloseFalseE, %edi
 12160      00
 12161 4585 E8000000 		call	_ZN8UnitTest9ListAdderC1ERNS_8TestListEPNS_4TestE
 12161      00
 113:TestChecks.cpp **** {
 12162              		.loc 5 113 0
 12163 458a BF000000 		movl	$_ZN12_GLOBAL__N_155testCheckCloseWithZeroEpsilonWorksForSameNumberInstanceE, %edi
 12163      00
 12164 458f E894CEFF 		call	_ZN12_GLOBAL__N_147TestCheckCloseWithZeroEpsilonWorksForSameNumberC1Ev
 12164      FF
 12165 4594 BA000000 		movl	$__dso_handle, %edx
 12165      00
 12166 4599 BE000000 		movl	$_ZN12_GLOBAL__N_155testCheckCloseWithZeroEpsilonWorksForSameNumberInstanceE, %esi
 12166      00
 12167 459e BF000000 		movl	$_ZN12_GLOBAL__N_147TestCheckCloseWithZeroEpsilonWorksForSameNumberD1Ev, %edi
 12167      00
 12168 45a3 E8000000 		call	__cxa_atexit
 12168      00
 12169 45a8 E8000000 		call	_ZN8UnitTest4Test11GetTestListEv
 12169      00
 12170 45ad BA000000 		movl	$_ZN12_GLOBAL__N_155testCheckCloseWithZeroEpsilonWorksForSameNumberInstanceE, %edx
 12170      00
 12171 45b2 4889C6   		movq	%rax, %rsi
 12172 45b5 BF000000 		movl	$_ZN12_GLOBAL__N_148adderCheckCloseWithZeroEpsilonWorksForSameNumberE, %edi
 12172      00
 12173 45ba E8000000 		call	_ZN8UnitTest9ListAdderC1ERNS_8TestListEPNS_4TestE
 12173      00
 120:TestChecks.cpp **** {
 12174              		.loc 5 120 0
 12175 45bf BF000000 		movl	$_ZN12_GLOBAL__N_134testCheckCloseWithNaNFailsInstanceE, %edi
 12175      00
 12176 45c4 E8F5CFFF 		call	_ZN12_GLOBAL__N_126TestCheckCloseWithNaNFailsC1Ev
 12176      FF
 12177 45c9 BA000000 		movl	$__dso_handle, %edx
 12177      00
 12178 45ce BE000000 		movl	$_ZN12_GLOBAL__N_134testCheckCloseWithNaNFailsInstanceE, %esi
 12178      00
 12179 45d3 BF000000 		movl	$_ZN12_GLOBAL__N_126TestCheckCloseWithNaNFailsD1Ev, %edi
 12179      00
 12180 45d8 E8000000 		call	__cxa_atexit
 12180      00
 12181 45dd E8000000 		call	_ZN8UnitTest4Test11GetTestListEv
 12181      00
 12182 45e2 BA000000 		movl	$_ZN12_GLOBAL__N_134testCheckCloseWithNaNFailsInstanceE, %edx
 12182      00
 12183 45e7 4889C6   		movq	%rax, %rsi
 12184 45ea BF000000 		movl	$_ZN12_GLOBAL__N_127adderCheckCloseWithNaNFailsE, %edi
 12184      00
 12185 45ef E8000000 		call	_ZN8UnitTest9ListAdderC1ERNS_8TestListEPNS_4TestE
 12185      00
 133:TestChecks.cpp **** {
 12186              		.loc 5 133 0
 12187 45f4 BF000000 		movl	$_ZN12_GLOBAL__N_147testCheckCloseWithNaNAgainstItselfFailsInstanceE, %edi
 12187      00
 12188 45f9 E856D1FF 		call	_ZN12_GLOBAL__N_139TestCheckCloseWithNaNAgainstItselfFailsC1Ev
 12188      FF
 12189 45fe BA000000 		movl	$__dso_handle, %edx
 12189      00
 12190 4603 BE000000 		movl	$_ZN12_GLOBAL__N_147testCheckCloseWithNaNAgainstItselfFailsInstanceE, %esi
 12190      00
 12191 4608 BF000000 		movl	$_ZN12_GLOBAL__N_139TestCheckCloseWithNaNAgainstItselfFailsD1Ev, %edi
 12191      00
 12192 460d E8000000 		call	__cxa_atexit
 12192      00
 12193 4612 E8000000 		call	_ZN8UnitTest4Test11GetTestListEv
 12193      00
 12194 4617 BA000000 		movl	$_ZN12_GLOBAL__N_147testCheckCloseWithNaNAgainstItselfFailsInstanceE, %edx
 12194      00
 12195 461c 4889C6   		movq	%rax, %rsi
 12196 461f BF000000 		movl	$_ZN12_GLOBAL__N_140adderCheckCloseWithNaNAgainstItselfFailsE, %edi
 12196      00
 12197 4624 E8000000 		call	_ZN8UnitTest9ListAdderC1ERNS_8TestListEPNS_4TestE
 12197      00
 146:TestChecks.cpp **** {
 12198              		.loc 5 146 0
 12199 4629 BF000000 		movl	$_ZN12_GLOBAL__N_159testCheckCloseFailureIncludesCheckExpectedAndActualInstanceE, %edi
 12199      00
 12200 462e E8A9D2FF 		call	_ZN12_GLOBAL__N_151TestCheckCloseFailureIncludesCheckExpectedAndActualC1Ev
 12200      FF
 12201 4633 BA000000 		movl	$__dso_handle, %edx
 12201      00
 12202 4638 BE000000 		movl	$_ZN12_GLOBAL__N_159testCheckCloseFailureIncludesCheckExpectedAndActualInstanceE, %esi
 12202      00
 12203 463d BF000000 		movl	$_ZN12_GLOBAL__N_151TestCheckCloseFailureIncludesCheckExpectedAndActualD1Ev, %edi
 12203      00
 12204 4642 E8000000 		call	__cxa_atexit
 12204      00
 12205 4647 E8000000 		call	_ZN8UnitTest4Test11GetTestListEv
 12205      00
 12206 464c BA000000 		movl	$_ZN12_GLOBAL__N_159testCheckCloseFailureIncludesCheckExpectedAndActualInstanceE, %edx
 12206      00
 12207 4651 4889C6   		movq	%rax, %rsi
 12208 4654 BF000000 		movl	$_ZN12_GLOBAL__N_152adderCheckCloseFailureIncludesCheckExpectedAndActualE, %edi
 12208      00
 12209 4659 E8000000 		call	_ZN8UnitTest9ListAdderC1ERNS_8TestListEPNS_4TestE
 12209      00
 159:TestChecks.cpp **** {
 12210              		.loc 5 159 0
 12211 465e BF000000 		movl	$_ZN12_GLOBAL__N_146testCheckCloseFailureIncludesToleranceInstanceE, %edi
 12211      00
 12212 4663 E856D5FF 		call	_ZN12_GLOBAL__N_138TestCheckCloseFailureIncludesToleranceC1Ev
 12212      FF
 12213 4668 BA000000 		movl	$__dso_handle, %edx
 12213      00
 12214 466d BE000000 		movl	$_ZN12_GLOBAL__N_146testCheckCloseFailureIncludesToleranceInstanceE, %esi
 12214      00
 12215 4672 BF000000 		movl	$_ZN12_GLOBAL__N_138TestCheckCloseFailureIncludesToleranceD1Ev, %edi
 12215      00
 12216 4677 E8000000 		call	__cxa_atexit
 12216      00
 12217 467c E8000000 		call	_ZN8UnitTest4Test11GetTestListEv
 12217      00
 12218 4681 BA000000 		movl	$_ZN12_GLOBAL__N_146testCheckCloseFailureIncludesToleranceInstanceE, %edx
 12218      00
 12219 4686 4889C6   		movq	%rax, %rsi
 12220 4689 BF000000 		movl	$_ZN12_GLOBAL__N_139adderCheckCloseFailureIncludesToleranceE, %edi
 12220      00
 12221 468e E8000000 		call	_ZN8UnitTest9ListAdderC1ERNS_8TestListEPNS_4TestE
 12221      00
 169:TestChecks.cpp **** {
 12222              		.loc 5 169 0
 12223 4693 BF000000 		movl	$_ZN12_GLOBAL__N_144testCheckCloseFailureIncludesDetailsInstanceE, %edi
 12223      00
 12224 4698 E82DD7FF 		call	_ZN12_GLOBAL__N_136TestCheckCloseFailureIncludesDetailsC1Ev
 12224      FF
 12225 469d BA000000 		movl	$__dso_handle, %edx
 12225      00
 12226 46a2 BE000000 		movl	$_ZN12_GLOBAL__N_144testCheckCloseFailureIncludesDetailsInstanceE, %esi
 12226      00
 12227 46a7 BF000000 		movl	$_ZN12_GLOBAL__N_136TestCheckCloseFailureIncludesDetailsD1Ev, %edi
 12227      00
 12228 46ac E8000000 		call	__cxa_atexit
 12228      00
 12229 46b1 E8000000 		call	_ZN8UnitTest4Test11GetTestListEv
 12229      00
 12230 46b6 BA000000 		movl	$_ZN12_GLOBAL__N_144testCheckCloseFailureIncludesDetailsInstanceE, %edx
 12230      00
 12231 46bb 4889C6   		movq	%rax, %rsi
 12232 46be BF000000 		movl	$_ZN12_GLOBAL__N_137adderCheckCloseFailureIncludesDetailsE, %edi
 12232      00
 12233 46c3 E8000000 		call	_ZN8UnitTest9ListAdderC1ERNS_8TestListEPNS_4TestE
 12233      00
 184:TestChecks.cpp **** {
 12234              		.loc 5 184 0
 12235 46c8 BF000000 		movl	$_ZN12_GLOBAL__N_131testCheckArrayEqualTrueInstanceE, %edi
 12235      00
 12236 46cd E804DBFF 		call	_ZN12_GLOBAL__N_123TestCheckArrayEqualTrueC1Ev
 12236      FF
 12237 46d2 BA000000 		movl	$__dso_handle, %edx
 12237      00
 12238 46d7 BE000000 		movl	$_ZN12_GLOBAL__N_131testCheckArrayEqualTrueInstanceE, %esi
 12238      00
 12239 46dc BF000000 		movl	$_ZN12_GLOBAL__N_123TestCheckArrayEqualTrueD1Ev, %edi
 12239      00
 12240 46e1 E8000000 		call	__cxa_atexit
 12240      00
 12241 46e6 E8000000 		call	_ZN8UnitTest4Test11GetTestListEv
 12241      00
 12242 46eb BA000000 		movl	$_ZN12_GLOBAL__N_131testCheckArrayEqualTrueInstanceE, %edx
 12242      00
 12243 46f0 4889C6   		movq	%rax, %rsi
 12244 46f3 BF000000 		movl	$_ZN12_GLOBAL__N_124adderCheckArrayEqualTrueE, %edi
 12244      00
 12245 46f8 E8000000 		call	_ZN8UnitTest9ListAdderC1ERNS_8TestListEPNS_4TestE
 12245      00
 193:TestChecks.cpp **** {
 12246              		.loc 5 193 0
 12247 46fd BF000000 		movl	$_ZN12_GLOBAL__N_132testCheckArrayEqualFalseInstanceE, %edi
 12247      00
 12248 4702 E863DCFF 		call	_ZN12_GLOBAL__N_124TestCheckArrayEqualFalseC1Ev
 12248      FF
 12249 4707 BA000000 		movl	$__dso_handle, %edx
 12249      00
 12250 470c BE000000 		movl	$_ZN12_GLOBAL__N_132testCheckArrayEqualFalseInstanceE, %esi
 12250      00
 12251 4711 BF000000 		movl	$_ZN12_GLOBAL__N_124TestCheckArrayEqualFalseD1Ev, %edi
 12251      00
 12252 4716 E8000000 		call	__cxa_atexit
 12252      00
 12253 471b E8000000 		call	_ZN8UnitTest4Test11GetTestListEv
 12253      00
 12254 4720 BA000000 		movl	$_ZN12_GLOBAL__N_132testCheckArrayEqualFalseInstanceE, %edx
 12254      00
 12255 4725 4889C6   		movq	%rax, %rsi
 12256 4728 BF000000 		movl	$_ZN12_GLOBAL__N_125adderCheckArrayEqualFalseE, %edi
 12256      00
 12257 472d E8000000 		call	_ZN8UnitTest9ListAdderC1ERNS_8TestListEPNS_4TestE
 12257      00
 203:TestChecks.cpp **** {
 12258              		.loc 5 203 0
 12259 4732 BF000000 		movl	$_ZN12_GLOBAL__N_131testCheckArrayCloseTrueInstanceE, %edi
 12259      00
 12260 4737 E8E2DDFF 		call	_ZN12_GLOBAL__N_123TestCheckArrayCloseTrueC1Ev
 12260      FF
 12261 473c BA000000 		movl	$__dso_handle, %edx
 12261      00
 12262 4741 BE000000 		movl	$_ZN12_GLOBAL__N_131testCheckArrayCloseTrueInstanceE, %esi
 12262      00
 12263 4746 BF000000 		movl	$_ZN12_GLOBAL__N_123TestCheckArrayCloseTrueD1Ev, %edi
 12263      00
 12264 474b E8000000 		call	__cxa_atexit
 12264      00
 12265 4750 E8000000 		call	_ZN8UnitTest4Test11GetTestListEv
 12265      00
 12266 4755 BA000000 		movl	$_ZN12_GLOBAL__N_131testCheckArrayCloseTrueInstanceE, %edx
 12266      00
 12267 475a 4889C6   		movq	%rax, %rsi
 12268 475d BF000000 		movl	$_ZN12_GLOBAL__N_124adderCheckArrayCloseTrueE, %edi
 12268      00
 12269 4762 E8000000 		call	_ZN8UnitTest9ListAdderC1ERNS_8TestListEPNS_4TestE
 12269      00
 213:TestChecks.cpp **** {
 12270              		.loc 5 213 0
 12271 4767 BF000000 		movl	$_ZN12_GLOBAL__N_132testCheckArrayCloseFalseInstanceE, %edi
 12271      00
 12272 476c E89FDFFF 		call	_ZN12_GLOBAL__N_124TestCheckArrayCloseFalseC1Ev
 12272      FF
 12273 4771 BA000000 		movl	$__dso_handle, %edx
 12273      00
 12274 4776 BE000000 		movl	$_ZN12_GLOBAL__N_132testCheckArrayCloseFalseInstanceE, %esi
 12274      00
 12275 477b BF000000 		movl	$_ZN12_GLOBAL__N_124TestCheckArrayCloseFalseD1Ev, %edi
 12275      00
 12276 4780 E8000000 		call	__cxa_atexit
 12276      00
 12277 4785 E8000000 		call	_ZN8UnitTest4Test11GetTestListEv
 12277      00
 12278 478a BA000000 		movl	$_ZN12_GLOBAL__N_132testCheckArrayCloseFalseInstanceE, %edx
 12278      00
 12279 478f 4889C6   		movq	%rax, %rsi
 12280 4792 BF000000 		movl	$_ZN12_GLOBAL__N_125adderCheckArrayCloseFalseE, %edi
 12280      00
 12281 4797 E8000000 		call	_ZN8UnitTest9ListAdderC1ERNS_8TestListEPNS_4TestE
 12281      00
 223:TestChecks.cpp **** {
 12282              		.loc 5 223 0
 12283 479c BF000000 		movl	$_ZN12_GLOBAL__N_149testCheckArrayCloseFailureIncludesDetailsInstanceE, %edi
 12283      00
 12284 47a1 E85CE1FF 		call	_ZN12_GLOBAL__N_141TestCheckArrayCloseFailureIncludesDetailsC1Ev
 12284      FF
 12285 47a6 BA000000 		movl	$__dso_handle, %edx
 12285      00
 12286 47ab BE000000 		movl	$_ZN12_GLOBAL__N_149testCheckArrayCloseFailureIncludesDetailsInstanceE, %esi
 12286      00
 12287 47b0 BF000000 		movl	$_ZN12_GLOBAL__N_141TestCheckArrayCloseFailureIncludesDetailsD1Ev, %edi
 12287      00
 12288 47b5 E8000000 		call	__cxa_atexit
 12288      00
 12289 47ba E8000000 		call	_ZN8UnitTest4Test11GetTestListEv
 12289      00
 12290 47bf BA000000 		movl	$_ZN12_GLOBAL__N_149testCheckArrayCloseFailureIncludesDetailsInstanceE, %edx
 12290      00
 12291 47c4 4889C6   		movq	%rax, %rsi
 12292 47c7 BF000000 		movl	$_ZN12_GLOBAL__N_142adderCheckArrayCloseFailureIncludesDetailsE, %edi
 12292      00
 12293 47cc E8000000 		call	_ZN8UnitTest9ListAdderC1ERNS_8TestListEPNS_4TestE
 12293      00
 240:TestChecks.cpp **** {
 12294              		.loc 5 240 0
 12295 47d1 BF000000 		movl	$_ZN12_GLOBAL__N_133testCheckArray2DCloseTrueInstanceE, %edi
 12295      00
 12296 47d6 E887E5FF 		call	_ZN12_GLOBAL__N_125TestCheckArray2DCloseTrueC1Ev
 12296      FF
 12297 47db BA000000 		movl	$__dso_handle, %edx
 12297      00
 12298 47e0 BE000000 		movl	$_ZN12_GLOBAL__N_133testCheckArray2DCloseTrueInstanceE, %esi
 12298      00
 12299 47e5 BF000000 		movl	$_ZN12_GLOBAL__N_125TestCheckArray2DCloseTrueD1Ev, %edi
 12299      00
 12300 47ea E8000000 		call	__cxa_atexit
 12300      00
 12301 47ef E8000000 		call	_ZN8UnitTest4Test11GetTestListEv
 12301      00
 12302 47f4 BA000000 		movl	$_ZN12_GLOBAL__N_133testCheckArray2DCloseTrueInstanceE, %edx
 12302      00
 12303 47f9 4889C6   		movq	%rax, %rsi
 12304 47fc BF000000 		movl	$_ZN12_GLOBAL__N_126adderCheckArray2DCloseTrueE, %edi
 12304      00
 12305 4801 E8000000 		call	_ZN8UnitTest9ListAdderC1ERNS_8TestListEPNS_4TestE
 12305      00
 254:TestChecks.cpp **** {
 12306              		.loc 5 254 0
 12307 4806 BF000000 		movl	$_ZN12_GLOBAL__N_134testCheckArray2DCloseFalseInstanceE, %edi
 12307      00
 12308 480b E804E8FF 		call	_ZN12_GLOBAL__N_126TestCheckArray2DCloseFalseC1Ev
 12308      FF
 12309 4810 BA000000 		movl	$__dso_handle, %edx
 12309      00
 12310 4815 BE000000 		movl	$_ZN12_GLOBAL__N_134testCheckArray2DCloseFalseInstanceE, %esi
 12310      00
 12311 481a BF000000 		movl	$_ZN12_GLOBAL__N_126TestCheckArray2DCloseFalseD1Ev, %edi
 12311      00
 12312 481f E8000000 		call	__cxa_atexit
 12312      00
 12313 4824 E8000000 		call	_ZN8UnitTest4Test11GetTestListEv
 12313      00
 12314 4829 BA000000 		movl	$_ZN12_GLOBAL__N_134testCheckArray2DCloseFalseInstanceE, %edx
 12314      00
 12315 482e 4889C6   		movq	%rax, %rsi
 12316 4831 BF000000 		movl	$_ZN12_GLOBAL__N_127adderCheckArray2DCloseFalseE, %edi
 12316      00
 12317 4836 E8000000 		call	_ZN8UnitTest9ListAdderC1ERNS_8TestListEPNS_4TestE
 12317      00
 268:TestChecks.cpp **** {
 12318              		.loc 5 268 0
 12319 483b BF000000 		movl	$_ZN12_GLOBAL__N_141testCheckCloseWithDoublesSucceedsInstanceE, %edi
 12319      00
 12320 4840 E881EAFF 		call	_ZN12_GLOBAL__N_133TestCheckCloseWithDoublesSucceedsC1Ev
 12320      FF
 12321 4845 BA000000 		movl	$__dso_handle, %edx
 12321      00
 12322 484a BE000000 		movl	$_ZN12_GLOBAL__N_141testCheckCloseWithDoublesSucceedsInstanceE, %esi
 12322      00
 12323 484f BF000000 		movl	$_ZN12_GLOBAL__N_133TestCheckCloseWithDoublesSucceedsD1Ev, %edi
 12323      00
 12324 4854 E8000000 		call	__cxa_atexit
 12324      00
 12325 4859 E8000000 		call	_ZN8UnitTest4Test11GetTestListEv
 12325      00
 12326 485e BA000000 		movl	$_ZN12_GLOBAL__N_141testCheckCloseWithDoublesSucceedsInstanceE, %edx
 12326      00
 12327 4863 4889C6   		movq	%rax, %rsi
 12328 4866 BF000000 		movl	$_ZN12_GLOBAL__N_134adderCheckCloseWithDoublesSucceedsE, %edi
 12328      00
 12329 486b E8000000 		call	_ZN8UnitTest9ListAdderC1ERNS_8TestListEPNS_4TestE
 12329      00
 273:TestChecks.cpp **** {
 12330              		.loc 5 273 0
 12331 4870 BF000000 		movl	$_ZN12_GLOBAL__N_151testCheckArray2DCloseFailureIncludesDetailsInstanceE, %edi
 12331      00
 12332 4875 E888EBFF 		call	_ZN12_GLOBAL__N_143TestCheckArray2DCloseFailureIncludesDetailsC1Ev
 12332      FF
 12333 487a BA000000 		movl	$__dso_handle, %edx
 12333      00
 12334 487f BE000000 		movl	$_ZN12_GLOBAL__N_151testCheckArray2DCloseFailureIncludesDetailsInstanceE, %esi
 12334      00
 12335 4884 BF000000 		movl	$_ZN12_GLOBAL__N_143TestCheckArray2DCloseFailureIncludesDetailsD1Ev, %edi
 12335      00
 12336 4889 E8000000 		call	__cxa_atexit
 12336      00
 12337 488e E8000000 		call	_ZN8UnitTest4Test11GetTestListEv
 12337      00
 12338 4893 BA000000 		movl	$_ZN12_GLOBAL__N_151testCheckArray2DCloseFailureIncludesDetailsInstanceE, %edx
 12338      00
 12339 4898 4889C6   		movq	%rax, %rsi
 12340 489b BF000000 		movl	$_ZN12_GLOBAL__N_144adderCheckArray2DCloseFailureIncludesDetailsE, %edi
 12340      00
 12341 48a0 E8000000 		call	_ZN8UnitTest9ListAdderC1ERNS_8TestListEPNS_4TestE
 12341      00
 12342              	.L563:
 12343              		.loc 5 293 0
 12344 48a5 90       		nop
 12345 48a6 C9       		leave
 12346              		.cfi_def_cfa 7, 8
 12347 48a7 C3       		ret
 12348              		.cfi_endproc
 12349              	.LFE1392:
 12352              	_GLOBAL__sub_I_TestChecks.cpp:
 12353              	.LFB1393:
 12354              		.loc 5 293 0
 12355              		.cfi_startproc
 12356 48a8 55       		pushq	%rbp
 12357              		.cfi_def_cfa_offset 16
 12358              		.cfi_offset 6, -16
 12359 48a9 4889E5   		movq	%rsp, %rbp
 12360              		.cfi_def_cfa_register 6
 12361              		.loc 5 293 0
 12362 48ac BEFFFF00 		movl	$65535, %esi
 12362      00
 12363 48b1 BF010000 		movl	$1, %edi
 12363      00
 12364 48b6 E863FAFF 		call	_Z41__static_initialization_and_destruction_0ii
 12364      FF
 12365 48bb 5D       		popq	%rbp
 12366              		.cfi_def_cfa 7, 8
 12367 48bc C3       		ret
 12368              		.cfi_endproc
 12369              	.LFE1393:
 12371              		.section	.init_array,"aw"
 12372              		.align 8
 12373 0000 00000000 		.quad	_GLOBAL__sub_I_TestChecks.cpp
 12373      00000000 
 12374              		.section	.rodata
 12375              		.align 4
 12376              	.LC31:
 12377 1a10 CDCCCC3D 		.long	1036831949
 12378              		.align 4
 12379              	.LC32:
 12380 1a14 00004040 		.long	1077936128
 12381              		.align 4
 12382              	.LC33:
 12383 1a18 62104040 		.long	1077940322
 12384              		.align 4
 12385              	.LC35:
 12386 1a1c 14AE4740 		.long	1078439444
 12387              		.align 4
 12388              	.LC40:
 12389 1a20 6666663F 		.long	1063675494
 12390              		.align 4
 12391              	.LC41:
 12392 1a24 CDCC8C3F 		.long	1066192077
 12393              		.align 4
 12394              	.LC42:
 12395 1a28 0AD7233C 		.long	1008981770
 12396              		.align 4
 12397              	.LC60:
 12398 1a2c 0000803F 		.long	1065353216
 12399              		.align 4
 12400              	.LC61:
 12401 1a30 0000C03F 		.long	1069547520
 12402              		.align 4
 12403              	.LC62:
 12404 1a34 00000040 		.long	1073741824
 12405              		.align 4
 12406              	.LC63:
 12407 1a38 AE47813F 		.long	1065437102
 12408              		.align 4
 12409              	.LC64:
 12410 1a3c AE47C13F 		.long	1069631406
 12411              		.align 4
 12412              	.LC65:
 12413 1a40 D7A30040 		.long	1073783767
 12414              		.align 4
 12415              	.LC66:
 12416 1a44 0AD7A33C 		.long	1017370378
 12417              		.align 4
 12418              	.LC68:
 12419 1a48 6F12833A 		.long	981668463
 12420              		.align 4
 12421              	.LC78:
 12422 1a4c 00002040 		.long	1075838976
 12423              		.align 4
 12424              	.LC79:
 12425 1a50 00006040 		.long	1080033280
 12426              		.align 4
 12427              	.LC80:
 12428 1a54 00008040 		.long	1082130432
 12429              		.align 4
 12430              	.LC81:
 12431 1a58 D7A32040 		.long	1075880919
 12432              		.align 4
 12433              	.LC82:
 12434 1a5c D7A34040 		.long	1077978071
 12435              		.align 4
 12436              	.LC83:
 12437 1a60 D7A36040 		.long	1080075223
 12438              		.align 4
 12439              	.LC84:
 12440 1a64 EC518040 		.long	1082151404
 12441              		.align 8
 12442              	.LC87:
 12443 1a68 2D431CEB 		.long	3944497965
 12444 1a6c E2361A3F 		.long	1058682594
 12445              		.align 8
 12446              	.LC88:
 12447 1a70 00000000 		.long	0
 12448 1a74 0000E03F 		.long	1071644672
 12449              		.text
 12450              	.Letext0:
 12451              		.file 7 "../TestDetails.h"
 12452              		.file 8 "../TestList.h"
 12453              		.file 9 "../TestResults.h"
 12454              		.file 10 "/usr/include/x86_64-linux-gnu/c++/5/bits/c++config.h"
 12455              		.file 11 "/usr/include/c++/5/bits/basic_string.h"
 12456              		.file 12 "/usr/include/c++/5/bits/basic_string.tcc"
 12457              		.file 13 "/usr/include/c++/5/bits/stringfwd.h"
 12458              		.file 14 "/usr/include/c++/5/cwchar"
 12459              		.file 15 "/usr/include/c++/5/bits/char_traits.h"
 12460              		.file 16 "/usr/include/c++/5/clocale"
 12461              		.file 17 "/usr/include/c++/5/bits/allocator.h"
 12462              		.file 18 "/usr/include/c++/5/cwctype"
 12463              		.file 19 "/usr/include/c++/5/cstring"
 12464              		.file 20 "/usr/include/c++/5/debug/debug.h"
 12465              		.file 21 "/usr/include/c++/5/bits/predefined_ops.h"
 12466              		.file 22 "/usr/include/c++/5/ext/new_allocator.h"
 12467              		.file 23 "/usr/include/c++/5/ext/numeric_traits.h"
 12468              		.file 24 "/usr/include/c++/5/ext/alloc_traits.h"
 12469              		.file 25 "/usr/include/stdio.h"
 12470              		.file 26 "<built-in>"
 12471              		.file 27 "/usr/lib/gcc/x86_64-linux-gnu/5/include/stddef.h"
 12472              		.file 28 "/usr/include/wchar.h"
 12473              		.file 29 "/usr/include/time.h"
 12474              		.file 30 "/usr/include/locale.h"
 12475              		.file 31 "/usr/include/x86_64-linux-gnu/bits/types.h"
 12476              		.file 32 "/usr/include/wctype.h"
 12477              		.file 33 "/usr/include/x86_64-linux-gnu/sys/time.h"
 12478              		.file 34 "/usr/include/string.h"
DEFINED SYMBOLS
                            *ABS*:0000000000000000 TestChecks.cpp
     /tmp/ccOQuQrM.s:10     .text._ZN13UnitTestSuite12GetSuiteNameEv:0000000000000000 _ZN13UnitTestSuite12GetSuiteNameEv
     /tmp/ccOQuQrM.s:33     .text._ZN8UnitTest15MemoryOutStreamC1Ev:0000000000000000 _ZN8UnitTest15MemoryOutStreamC1Ev
     /tmp/ccOQuQrM.s:11624  .rodata._ZTTN8UnitTest15MemoryOutStreamE:0000000000000000 _ZTTN8UnitTest15MemoryOutStreamE
     /tmp/ccOQuQrM.s:11608  .rodata._ZTVN8UnitTest15MemoryOutStreamE:0000000000000000 _ZTVN8UnitTest15MemoryOutStreamE
     /tmp/ccOQuQrM.s:146    .text._ZN8UnitTest12TestReporterC2Ev:0000000000000000 _ZN8UnitTest12TestReporterC2Ev
     /tmp/ccOQuQrM.s:146    .text._ZN8UnitTest12TestReporterC2Ev:0000000000000000 _ZN8UnitTest12TestReporterC1Ev
     /tmp/ccOQuQrM.s:176    .text._ZN17RecordingReporterC2Ev:0000000000000000 _ZN17RecordingReporterC2Ev
     /tmp/ccOQuQrM.s:11525  .rodata._ZTV17RecordingReporter:0000000000000000 _ZTV17RecordingReporter
     /tmp/ccOQuQrM.s:176    .text._ZN17RecordingReporterC2Ev:0000000000000000 _ZN17RecordingReporterC1Ev
     /tmp/ccOQuQrM.s:255    .text._ZN17RecordingReporter15ReportTestStartERKN8UnitTest11TestDetailsE:0000000000000000 _ZN17RecordingReporter15ReportTestStartERKN8UnitTest11TestDetailsE
     /tmp/ccOQuQrM.s:301    .text._ZN17RecordingReporter13ReportFailureERKN8UnitTest11TestDetailsEPKc:0000000000000000 _ZN17RecordingReporter13ReportFailureERKN8UnitTest11TestDetailsEPKc
     /tmp/ccOQuQrM.s:368    .text._ZN17RecordingReporter16ReportTestFinishERKN8UnitTest11TestDetailsEf:0000000000000000 _ZN17RecordingReporter16ReportTestFinishERKN8UnitTest11TestDetailsEf
     /tmp/ccOQuQrM.s:419    .text._ZN17RecordingReporter13ReportSummaryEiiif:0000000000000000 _ZN17RecordingReporter13ReportSummaryEiiif
     /tmp/ccOQuQrM.s:465    .text:0000000000000000 _ZN12_GLOBAL__N_130TestCheckEqualWithUnsignedLongC2Ev
     /tmp/ccOQuQrM.s:11449  .rodata:0000000000000fe8 _ZTVN12_GLOBAL__N_130TestCheckEqualWithUnsignedLongE
     /tmp/ccOQuQrM.s:465    .text:0000000000000000 _ZN12_GLOBAL__N_130TestCheckEqualWithUnsignedLongC1Ev
     /tmp/ccOQuQrM.s:500    .bss:0000000000000000 _ZN12_GLOBAL__N_138testCheckEqualWithUnsignedLongInstanceE
     /tmp/ccOQuQrM.s:500    .bss:0000000000000038 _ZN12_GLOBAL__N_131adderCheckEqualWithUnsignedLongE
     /tmp/ccOQuQrM.s:510    .text:0000000000000040 _ZNK12_GLOBAL__N_130TestCheckEqualWithUnsignedLong7RunImplEv
     /tmp/ccOQuQrM.s:7614   .text._ZN8UnitTest10CheckEqualImmEEvRNS_11TestResultsERKT_RKT0_RKNS_11TestDetailsE:0000000000000000 _ZN8UnitTest10CheckEqualImmEEvRNS_11TestResultsERKT_RKT0_RKNS_11TestDetailsE
     /tmp/ccOQuQrM.s:654    .text:0000000000000124 _ZN12_GLOBAL__N_149TestCheckEqualsWithStringsFailsOnDifferentStringsC2Ev
     /tmp/ccOQuQrM.s:11374  .rodata:0000000000000fc0 _ZTVN12_GLOBAL__N_149TestCheckEqualsWithStringsFailsOnDifferentStringsE
     /tmp/ccOQuQrM.s:654    .text:0000000000000124 _ZN12_GLOBAL__N_149TestCheckEqualsWithStringsFailsOnDifferentStringsC1Ev
     /tmp/ccOQuQrM.s:688    .bss:0000000000000040 _ZN12_GLOBAL__N_157testCheckEqualsWithStringsFailsOnDifferentStringsInstanceE
     /tmp/ccOQuQrM.s:688    .bss:0000000000000078 _ZN12_GLOBAL__N_150adderCheckEqualsWithStringsFailsOnDifferentStringsE
     /tmp/ccOQuQrM.s:700    .text:0000000000000164 _ZNK12_GLOBAL__N_149TestCheckEqualsWithStringsFailsOnDifferentStrings7RunImplEv
     /tmp/ccOQuQrM.s:7756   .text._ZN8UnitTest10CheckEqualIiiEEvRNS_11TestResultsERKT_RKT0_RKNS_11TestDetailsE:0000000000000000 _ZN8UnitTest10CheckEqualIiiEEvRNS_11TestResultsERKT_RKT0_RKNS_11TestDetailsE
     /tmp/ccOQuQrM.s:875    .data:0000000000000000 _ZN12_GLOBAL__N_14txt1E
     /tmp/ccOQuQrM.s:879    .data:0000000000000006 _ZN12_GLOBAL__N_14txt2E
     /tmp/ccOQuQrM.s:888    .text:00000000000002b4 _ZN12_GLOBAL__N_157TestCheckEqualsWithStringsWorksOnContentsNonConstNonConstC2Ev
     /tmp/ccOQuQrM.s:11299  .rodata:0000000000000f98 _ZTVN12_GLOBAL__N_157TestCheckEqualsWithStringsWorksOnContentsNonConstNonConstE
     /tmp/ccOQuQrM.s:888    .text:00000000000002b4 _ZN12_GLOBAL__N_157TestCheckEqualsWithStringsWorksOnContentsNonConstNonConstC1Ev
     /tmp/ccOQuQrM.s:922    .bss:0000000000000080 _ZN12_GLOBAL__N_165testCheckEqualsWithStringsWorksOnContentsNonConstNonConstInstanceE
     /tmp/ccOQuQrM.s:922    .bss:00000000000000b8 _ZN12_GLOBAL__N_158adderCheckEqualsWithStringsWorksOnContentsNonConstNonConstE
     /tmp/ccOQuQrM.s:932    .text:00000000000002f4 _ZNK12_GLOBAL__N_157TestCheckEqualsWithStringsWorksOnContentsNonConstNonConst7RunImplEv
     /tmp/ccOQuQrM.s:1109   .text:000000000000043a _ZN12_GLOBAL__N_151TestCheckEqualsWithStringsWorksOnContentsConstConstC2Ev
     /tmp/ccOQuQrM.s:11224  .rodata:0000000000000f70 _ZTVN12_GLOBAL__N_151TestCheckEqualsWithStringsWorksOnContentsConstConstE
     /tmp/ccOQuQrM.s:1109   .text:000000000000043a _ZN12_GLOBAL__N_151TestCheckEqualsWithStringsWorksOnContentsConstConstC1Ev
     /tmp/ccOQuQrM.s:1143   .bss:00000000000000c0 _ZN12_GLOBAL__N_159testCheckEqualsWithStringsWorksOnContentsConstConstInstanceE
     /tmp/ccOQuQrM.s:1143   .bss:00000000000000f8 _ZN12_GLOBAL__N_152adderCheckEqualsWithStringsWorksOnContentsConstConstE
     /tmp/ccOQuQrM.s:1148   .text:000000000000047a _ZNK12_GLOBAL__N_151TestCheckEqualsWithStringsWorksOnContentsConstConst7RunImplEv
     /tmp/ccOQuQrM.s:1325   .text:00000000000005c0 _ZN12_GLOBAL__N_154TestCheckEqualsWithStringsWorksOnContentsNonConstConstC2Ev
     /tmp/ccOQuQrM.s:11149  .rodata:0000000000000f48 _ZTVN12_GLOBAL__N_154TestCheckEqualsWithStringsWorksOnContentsNonConstConstE
     /tmp/ccOQuQrM.s:1325   .text:00000000000005c0 _ZN12_GLOBAL__N_154TestCheckEqualsWithStringsWorksOnContentsNonConstConstC1Ev
     /tmp/ccOQuQrM.s:1359   .bss:0000000000000100 _ZN12_GLOBAL__N_162testCheckEqualsWithStringsWorksOnContentsNonConstConstInstanceE
     /tmp/ccOQuQrM.s:1359   .bss:0000000000000138 _ZN12_GLOBAL__N_155adderCheckEqualsWithStringsWorksOnContentsNonConstConstE
     /tmp/ccOQuQrM.s:1364   .text:0000000000000600 _ZNK12_GLOBAL__N_154TestCheckEqualsWithStringsWorksOnContentsNonConstConst7RunImplEv
     /tmp/ccOQuQrM.s:1541   .text:0000000000000746 _ZN12_GLOBAL__N_154TestCheckEqualsWithStringsWorksOnContentsConstNonConstC2Ev
     /tmp/ccOQuQrM.s:11074  .rodata:0000000000000f20 _ZTVN12_GLOBAL__N_154TestCheckEqualsWithStringsWorksOnContentsConstNonConstE
     /tmp/ccOQuQrM.s:1541   .text:0000000000000746 _ZN12_GLOBAL__N_154TestCheckEqualsWithStringsWorksOnContentsConstNonConstC1Ev
     /tmp/ccOQuQrM.s:1575   .bss:0000000000000140 _ZN12_GLOBAL__N_162testCheckEqualsWithStringsWorksOnContentsConstNonConstInstanceE
     /tmp/ccOQuQrM.s:1575   .bss:0000000000000178 _ZN12_GLOBAL__N_155adderCheckEqualsWithStringsWorksOnContentsConstNonConstE
     /tmp/ccOQuQrM.s:1580   .text:0000000000000786 _ZNK12_GLOBAL__N_154TestCheckEqualsWithStringsWorksOnContentsConstNonConst7RunImplEv
     /tmp/ccOQuQrM.s:1757   .text:00000000000008cc _ZN12_GLOBAL__N_153TestCheckEqualsWithStringsWorksOnContentsWithALiteralC2Ev
     /tmp/ccOQuQrM.s:10999  .rodata:0000000000000ef8 _ZTVN12_GLOBAL__N_153TestCheckEqualsWithStringsWorksOnContentsWithALiteralE
     /tmp/ccOQuQrM.s:1757   .text:00000000000008cc _ZN12_GLOBAL__N_153TestCheckEqualsWithStringsWorksOnContentsWithALiteralC1Ev
     /tmp/ccOQuQrM.s:1791   .bss:0000000000000180 _ZN12_GLOBAL__N_161testCheckEqualsWithStringsWorksOnContentsWithALiteralInstanceE
     /tmp/ccOQuQrM.s:1791   .bss:00000000000001b8 _ZN12_GLOBAL__N_154adderCheckEqualsWithStringsWorksOnContentsWithALiteralE
     /tmp/ccOQuQrM.s:1800   .text:000000000000090c _ZNK12_GLOBAL__N_153TestCheckEqualsWithStringsWorksOnContentsWithALiteral7RunImplEv
     /tmp/ccOQuQrM.s:1975   .text:0000000000000a42 _ZN12_GLOBAL__N_151TestCheckEqualFailureIncludesCheckExpectedAndActualC2Ev
     /tmp/ccOQuQrM.s:10924  .rodata:0000000000000ed0 _ZTVN12_GLOBAL__N_151TestCheckEqualFailureIncludesCheckExpectedAndActualE
     /tmp/ccOQuQrM.s:1975   .text:0000000000000a42 _ZN12_GLOBAL__N_151TestCheckEqualFailureIncludesCheckExpectedAndActualC1Ev
     /tmp/ccOQuQrM.s:2009   .bss:00000000000001c0 _ZN12_GLOBAL__N_159testCheckEqualFailureIncludesCheckExpectedAndActualInstanceE
     /tmp/ccOQuQrM.s:2009   .bss:00000000000001f8 _ZN12_GLOBAL__N_152adderCheckEqualFailureIncludesCheckExpectedAndActualE
     /tmp/ccOQuQrM.s:2032   .text:0000000000000a82 _ZNK12_GLOBAL__N_151TestCheckEqualFailureIncludesCheckExpectedAndActual7RunImplEv
     /tmp/ccOQuQrM.s:7897   .text._ZN8UnitTest5CheckIPcEEbT_:0000000000000000 _ZN8UnitTest5CheckIPcEEbT_
     /tmp/ccOQuQrM.s:11538  .text._ZN17RecordingReporterD2Ev:0000000000000000 _ZN17RecordingReporterD1Ev
     /tmp/ccOQuQrM.s:2300   .text:0000000000000cfe _ZN12_GLOBAL__N_136TestCheckEqualFailureIncludesDetailsC2Ev
     /tmp/ccOQuQrM.s:10849  .rodata:0000000000000ea8 _ZTVN12_GLOBAL__N_136TestCheckEqualFailureIncludesDetailsE
     /tmp/ccOQuQrM.s:2300   .text:0000000000000cfe _ZN12_GLOBAL__N_136TestCheckEqualFailureIncludesDetailsC1Ev
     /tmp/ccOQuQrM.s:2334   .bss:0000000000000200 _ZN12_GLOBAL__N_144testCheckEqualFailureIncludesDetailsInstanceE
     /tmp/ccOQuQrM.s:2334   .bss:0000000000000238 _ZN12_GLOBAL__N_137adderCheckEqualFailureIncludesDetailsE
     /tmp/ccOQuQrM.s:2359   .text:0000000000000d3e _ZNK12_GLOBAL__N_136TestCheckEqualFailureIncludesDetails7RunImplEv
     /tmp/ccOQuQrM.s:2748   .text:00000000000010f0 _ZN12_GLOBAL__N_118TestCheckCloseTrueC2Ev
     /tmp/ccOQuQrM.s:10774  .rodata:0000000000000e80 _ZTVN12_GLOBAL__N_118TestCheckCloseTrueE
     /tmp/ccOQuQrM.s:2748   .text:00000000000010f0 _ZN12_GLOBAL__N_118TestCheckCloseTrueC1Ev
     /tmp/ccOQuQrM.s:2782   .bss:0000000000000240 _ZN12_GLOBAL__N_126testCheckCloseTrueInstanceE
     /tmp/ccOQuQrM.s:2782   .bss:0000000000000278 _ZN12_GLOBAL__N_119adderCheckCloseTrueE
     /tmp/ccOQuQrM.s:2787   .text:0000000000001130 _ZNK12_GLOBAL__N_118TestCheckCloseTrue7RunImplEv
     /tmp/ccOQuQrM.s:7923   .text._ZN8UnitTest10CheckCloseIfffEEvRNS_11TestResultsERKT_RKT0_RKT1_RKNS_11TestDetailsE:0000000000000000 _ZN8UnitTest10CheckCloseIfffEEvRNS_11TestResultsERKT_RKT0_RKT1_RKNS_11TestDetailsE
     /tmp/ccOQuQrM.s:2967   .text:000000000000128c _ZN12_GLOBAL__N_119TestCheckCloseFalseC2Ev
     /tmp/ccOQuQrM.s:10699  .rodata:0000000000000e58 _ZTVN12_GLOBAL__N_119TestCheckCloseFalseE
     /tmp/ccOQuQrM.s:2967   .text:000000000000128c _ZN12_GLOBAL__N_119TestCheckCloseFalseC1Ev
     /tmp/ccOQuQrM.s:3001   .bss:0000000000000280 _ZN12_GLOBAL__N_127testCheckCloseFalseInstanceE
     /tmp/ccOQuQrM.s:3001   .bss:00000000000002b8 _ZN12_GLOBAL__N_120adderCheckCloseFalseE
     /tmp/ccOQuQrM.s:3006   .text:00000000000012cc _ZNK12_GLOBAL__N_119TestCheckCloseFalse7RunImplEv
     /tmp/ccOQuQrM.s:3187   .text:0000000000001428 _ZN12_GLOBAL__N_147TestCheckCloseWithZeroEpsilonWorksForSameNumberC2Ev
     /tmp/ccOQuQrM.s:10624  .rodata:0000000000000e30 _ZTVN12_GLOBAL__N_147TestCheckCloseWithZeroEpsilonWorksForSameNumberE
     /tmp/ccOQuQrM.s:3187   .text:0000000000001428 _ZN12_GLOBAL__N_147TestCheckCloseWithZeroEpsilonWorksForSameNumberC1Ev
     /tmp/ccOQuQrM.s:3221   .bss:00000000000002c0 _ZN12_GLOBAL__N_155testCheckCloseWithZeroEpsilonWorksForSameNumberInstanceE
     /tmp/ccOQuQrM.s:3221   .bss:00000000000002f8 _ZN12_GLOBAL__N_148adderCheckCloseWithZeroEpsilonWorksForSameNumberE
     /tmp/ccOQuQrM.s:3226   .text:0000000000001468 _ZNK12_GLOBAL__N_147TestCheckCloseWithZeroEpsilonWorksForSameNumber7RunImplEv
     /tmp/ccOQuQrM.s:8084   .text._ZN8UnitTest10CheckCloseIffiEEvRNS_11TestResultsERKT_RKT0_RKT1_RKNS_11TestDetailsE:0000000000000000 _ZN8UnitTest10CheckCloseIffiEEvRNS_11TestResultsERKT_RKT0_RKT1_RKNS_11TestDetailsE
     /tmp/ccOQuQrM.s:3405   .text:00000000000015be _ZN12_GLOBAL__N_126TestCheckCloseWithNaNFailsC2Ev
     /tmp/ccOQuQrM.s:10549  .rodata:0000000000000e08 _ZTVN12_GLOBAL__N_126TestCheckCloseWithNaNFailsE
     /tmp/ccOQuQrM.s:3405   .text:00000000000015be _ZN12_GLOBAL__N_126TestCheckCloseWithNaNFailsC1Ev
     /tmp/ccOQuQrM.s:3439   .bss:0000000000000300 _ZN12_GLOBAL__N_134testCheckCloseWithNaNFailsInstanceE
     /tmp/ccOQuQrM.s:3439   .bss:0000000000000338 _ZN12_GLOBAL__N_127adderCheckCloseWithNaNFailsE
     /tmp/ccOQuQrM.s:3444   .text:00000000000015fe _ZNK12_GLOBAL__N_126TestCheckCloseWithNaNFails7RunImplEv
     /tmp/ccOQuQrM.s:3625   .text:0000000000001754 _ZN12_GLOBAL__N_139TestCheckCloseWithNaNAgainstItselfFailsC2Ev
     /tmp/ccOQuQrM.s:10474  .rodata:0000000000000de0 _ZTVN12_GLOBAL__N_139TestCheckCloseWithNaNAgainstItselfFailsE
     /tmp/ccOQuQrM.s:3625   .text:0000000000001754 _ZN12_GLOBAL__N_139TestCheckCloseWithNaNAgainstItselfFailsC1Ev
     /tmp/ccOQuQrM.s:3659   .bss:0000000000000340 _ZN12_GLOBAL__N_147testCheckCloseWithNaNAgainstItselfFailsInstanceE
     /tmp/ccOQuQrM.s:3659   .bss:0000000000000378 _ZN12_GLOBAL__N_140adderCheckCloseWithNaNAgainstItselfFailsE
     /tmp/ccOQuQrM.s:3664   .text:0000000000001794 _ZNK12_GLOBAL__N_139TestCheckCloseWithNaNAgainstItselfFails7RunImplEv
     /tmp/ccOQuQrM.s:3843   .text:00000000000018dc _ZN12_GLOBAL__N_151TestCheckCloseFailureIncludesCheckExpectedAndActualC2Ev
     /tmp/ccOQuQrM.s:10399  .rodata:0000000000000db8 _ZTVN12_GLOBAL__N_151TestCheckCloseFailureIncludesCheckExpectedAndActualE
     /tmp/ccOQuQrM.s:3843   .text:00000000000018dc _ZN12_GLOBAL__N_151TestCheckCloseFailureIncludesCheckExpectedAndActualC1Ev
     /tmp/ccOQuQrM.s:3877   .bss:0000000000000380 _ZN12_GLOBAL__N_159testCheckCloseFailureIncludesCheckExpectedAndActualInstanceE
     /tmp/ccOQuQrM.s:3877   .bss:00000000000003b8 _ZN12_GLOBAL__N_152adderCheckCloseFailureIncludesCheckExpectedAndActualE
     /tmp/ccOQuQrM.s:3900   .text:000000000000191c _ZNK12_GLOBAL__N_151TestCheckCloseFailureIncludesCheckExpectedAndActual7RunImplEv
     /tmp/ccOQuQrM.s:4175   .text:0000000000001bbe _ZN12_GLOBAL__N_138TestCheckCloseFailureIncludesToleranceC2Ev
     /tmp/ccOQuQrM.s:10324  .rodata:0000000000000d90 _ZTVN12_GLOBAL__N_138TestCheckCloseFailureIncludesToleranceE
     /tmp/ccOQuQrM.s:4175   .text:0000000000001bbe _ZN12_GLOBAL__N_138TestCheckCloseFailureIncludesToleranceC1Ev
     /tmp/ccOQuQrM.s:4209   .bss:00000000000003c0 _ZN12_GLOBAL__N_146testCheckCloseFailureIncludesToleranceInstanceE
     /tmp/ccOQuQrM.s:4209   .bss:00000000000003f8 _ZN12_GLOBAL__N_139adderCheckCloseFailureIncludesToleranceE
     /tmp/ccOQuQrM.s:4224   .text:0000000000001bfe _ZNK12_GLOBAL__N_138TestCheckCloseFailureIncludesTolerance7RunImplEv
     /tmp/ccOQuQrM.s:8244   .text._ZN8UnitTest10CheckCloseIiifEEvRNS_11TestResultsERKT_RKT0_RKT1_RKNS_11TestDetailsE:0000000000000000 _ZN8UnitTest10CheckCloseIiifEEvRNS_11TestResultsERKT_RKT0_RKT1_RKNS_11TestDetailsE
     /tmp/ccOQuQrM.s:4422   .text:0000000000001dca _ZN12_GLOBAL__N_136TestCheckCloseFailureIncludesDetailsC2Ev
     /tmp/ccOQuQrM.s:10249  .rodata:0000000000000d68 _ZTVN12_GLOBAL__N_136TestCheckCloseFailureIncludesDetailsE
     /tmp/ccOQuQrM.s:4422   .text:0000000000001dca _ZN12_GLOBAL__N_136TestCheckCloseFailureIncludesDetailsC1Ev
     /tmp/ccOQuQrM.s:4456   .bss:0000000000000400 _ZN12_GLOBAL__N_144testCheckCloseFailureIncludesDetailsInstanceE
     /tmp/ccOQuQrM.s:4456   .bss:0000000000000438 _ZN12_GLOBAL__N_137adderCheckCloseFailureIncludesDetailsE
     /tmp/ccOQuQrM.s:4471   .text:0000000000001e0a _ZNK12_GLOBAL__N_136TestCheckCloseFailureIncludesDetails7RunImplEv
     /tmp/ccOQuQrM.s:4864   .text:00000000000021d6 _ZN12_GLOBAL__N_123TestCheckArrayEqualTrueC2Ev
     /tmp/ccOQuQrM.s:10174  .rodata:0000000000000d40 _ZTVN12_GLOBAL__N_123TestCheckArrayEqualTrueE
     /tmp/ccOQuQrM.s:4864   .text:00000000000021d6 _ZN12_GLOBAL__N_123TestCheckArrayEqualTrueC1Ev
     /tmp/ccOQuQrM.s:4898   .bss:0000000000000440 _ZN12_GLOBAL__N_131testCheckArrayEqualTrueInstanceE
     /tmp/ccOQuQrM.s:4898   .bss:0000000000000478 _ZN12_GLOBAL__N_124adderCheckArrayEqualTrueE
     /tmp/ccOQuQrM.s:4903   .text:0000000000002216 _ZNK12_GLOBAL__N_123TestCheckArrayEqualTrue7RunImplEv
     /tmp/ccOQuQrM.s:8412   .text._ZN8UnitTest15CheckArrayEqualIA3_iS1_EEvRNS_11TestResultsERKT_RKT0_iRKNS_11TestDetailsE:0000000000000000 _ZN8UnitTest15CheckArrayEqualIA3_iS1_EEvRNS_11TestResultsERKT_RKT0_iRKNS_11TestDetailsE
     /tmp/ccOQuQrM.s:5081   .text:000000000000236a _ZN12_GLOBAL__N_124TestCheckArrayEqualFalseC2Ev
     /tmp/ccOQuQrM.s:10099  .rodata:0000000000000d18 _ZTVN12_GLOBAL__N_124TestCheckArrayEqualFalseE
     /tmp/ccOQuQrM.s:5081   .text:000000000000236a _ZN12_GLOBAL__N_124TestCheckArrayEqualFalseC1Ev
     /tmp/ccOQuQrM.s:5115   .bss:0000000000000480 _ZN12_GLOBAL__N_132testCheckArrayEqualFalseInstanceE
     /tmp/ccOQuQrM.s:5115   .bss:00000000000004b8 _ZN12_GLOBAL__N_125adderCheckArrayEqualFalseE
     /tmp/ccOQuQrM.s:5120   .text:00000000000023aa _ZNK12_GLOBAL__N_124TestCheckArrayEqualFalse7RunImplEv
     /tmp/ccOQuQrM.s:5302   .text:000000000000251e _ZN12_GLOBAL__N_123TestCheckArrayCloseTrueC2Ev
     /tmp/ccOQuQrM.s:10024  .rodata:0000000000000cf0 _ZTVN12_GLOBAL__N_123TestCheckArrayCloseTrueE
     /tmp/ccOQuQrM.s:5302   .text:000000000000251e _ZN12_GLOBAL__N_123TestCheckArrayCloseTrueC1Ev
     /tmp/ccOQuQrM.s:5336   .bss:00000000000004c0 _ZN12_GLOBAL__N_131testCheckArrayCloseTrueInstanceE
     /tmp/ccOQuQrM.s:5336   .bss:00000000000004f8 _ZN12_GLOBAL__N_124adderCheckArrayCloseTrueE
     /tmp/ccOQuQrM.s:5341   .text:000000000000255e _ZNK12_GLOBAL__N_123TestCheckArrayCloseTrue7RunImplEv
     /tmp/ccOQuQrM.s:8631   .text._ZN8UnitTest15CheckArrayCloseIA3_fS1_fEEvRNS_11TestResultsERKT_RKT0_iRKT1_RKNS_11TestDetailsE:0000000000000000 _ZN8UnitTest15CheckArrayCloseIA3_fS1_fEEvRNS_11TestResultsERKT_RKT0_iRKT1_RKNS_11TestDetailsE
     /tmp/ccOQuQrM.s:5533   .text:0000000000002710 _ZN12_GLOBAL__N_124TestCheckArrayCloseFalseC2Ev
     /tmp/ccOQuQrM.s:9949   .rodata:0000000000000cc8 _ZTVN12_GLOBAL__N_124TestCheckArrayCloseFalseE
     /tmp/ccOQuQrM.s:5533   .text:0000000000002710 _ZN12_GLOBAL__N_124TestCheckArrayCloseFalseC1Ev
     /tmp/ccOQuQrM.s:5567   .bss:0000000000000500 _ZN12_GLOBAL__N_132testCheckArrayCloseFalseInstanceE
     /tmp/ccOQuQrM.s:5567   .bss:0000000000000538 _ZN12_GLOBAL__N_125adderCheckArrayCloseFalseE
     /tmp/ccOQuQrM.s:5572   .text:0000000000002750 _ZNK12_GLOBAL__N_124TestCheckArrayCloseFalse7RunImplEv
     /tmp/ccOQuQrM.s:5765   .text:0000000000002902 _ZN12_GLOBAL__N_141TestCheckArrayCloseFailureIncludesDetailsC2Ev
     /tmp/ccOQuQrM.s:9874   .rodata:0000000000000ca0 _ZTVN12_GLOBAL__N_141TestCheckArrayCloseFailureIncludesDetailsE
     /tmp/ccOQuQrM.s:5765   .text:0000000000002902 _ZN12_GLOBAL__N_141TestCheckArrayCloseFailureIncludesDetailsC1Ev
     /tmp/ccOQuQrM.s:5799   .bss:0000000000000540 _ZN12_GLOBAL__N_149testCheckArrayCloseFailureIncludesDetailsInstanceE
     /tmp/ccOQuQrM.s:5799   .bss:0000000000000578 _ZN12_GLOBAL__N_142adderCheckArrayCloseFailureIncludesDetailsE
     /tmp/ccOQuQrM.s:5824   .text:0000000000002942 _ZNK12_GLOBAL__N_141TestCheckArrayCloseFailureIncludesDetails7RunImplEv
     /tmp/ccOQuQrM.s:6231   .text:0000000000002d62 _ZN12_GLOBAL__N_125TestCheckArray2DCloseTrueC2Ev
     /tmp/ccOQuQrM.s:9799   .rodata:0000000000000c78 _ZTVN12_GLOBAL__N_125TestCheckArray2DCloseTrueE
     /tmp/ccOQuQrM.s:6231   .text:0000000000002d62 _ZN12_GLOBAL__N_125TestCheckArray2DCloseTrueC1Ev
     /tmp/ccOQuQrM.s:6265   .bss:0000000000000580 _ZN12_GLOBAL__N_133testCheckArray2DCloseTrueInstanceE
     /tmp/ccOQuQrM.s:6265   .bss:00000000000005b8 _ZN12_GLOBAL__N_126adderCheckArray2DCloseTrueE
     /tmp/ccOQuQrM.s:6270   .text:0000000000002da2 _ZNK12_GLOBAL__N_125TestCheckArray2DCloseTrue7RunImplEv
     /tmp/ccOQuQrM.s:8839   .text._ZN8UnitTest17CheckArray2DCloseIA3_A3_fS2_fEEvRNS_11TestResultsERKT_RKT0_iiRKT1_RKNS_11TestDetailsE:0000000000000000 _ZN8UnitTest17CheckArray2DCloseIA3_A3_fS2_fEEvRNS_11TestResultsERKT_RKT0_iiRKT1_RKNS_11TestDetailsE
     /tmp/ccOQuQrM.s:6488   .text:0000000000003014 _ZN12_GLOBAL__N_126TestCheckArray2DCloseFalseC2Ev
     /tmp/ccOQuQrM.s:9724   .rodata:0000000000000c50 _ZTVN12_GLOBAL__N_126TestCheckArray2DCloseFalseE
     /tmp/ccOQuQrM.s:6488   .text:0000000000003014 _ZN12_GLOBAL__N_126TestCheckArray2DCloseFalseC1Ev
     /tmp/ccOQuQrM.s:6522   .bss:00000000000005c0 _ZN12_GLOBAL__N_134testCheckArray2DCloseFalseInstanceE
     /tmp/ccOQuQrM.s:6522   .bss:00000000000005f8 _ZN12_GLOBAL__N_127adderCheckArray2DCloseFalseE
     /tmp/ccOQuQrM.s:6527   .text:0000000000003054 _ZNK12_GLOBAL__N_126TestCheckArray2DCloseFalse7RunImplEv
     /tmp/ccOQuQrM.s:6745   .text:00000000000032c6 _ZN12_GLOBAL__N_133TestCheckCloseWithDoublesSucceedsC2Ev
     /tmp/ccOQuQrM.s:9649   .rodata:0000000000000c28 _ZTVN12_GLOBAL__N_133TestCheckCloseWithDoublesSucceedsE
     /tmp/ccOQuQrM.s:6745   .text:00000000000032c6 _ZN12_GLOBAL__N_133TestCheckCloseWithDoublesSucceedsC1Ev
     /tmp/ccOQuQrM.s:6779   .bss:0000000000000600 _ZN12_GLOBAL__N_141testCheckCloseWithDoublesSucceedsInstanceE
     /tmp/ccOQuQrM.s:6779   .bss:0000000000000638 _ZN12_GLOBAL__N_134adderCheckCloseWithDoublesSucceedsE
     /tmp/ccOQuQrM.s:6789   .text:0000000000003306 _ZNK12_GLOBAL__N_133TestCheckCloseWithDoublesSucceeds7RunImplEv
     /tmp/ccOQuQrM.s:9141   .text._ZN8UnitTest10CheckCloseIdddEEvRNS_11TestResultsERKT_RKT0_RKT1_RKNS_11TestDetailsE:0000000000000000 _ZN8UnitTest10CheckCloseIdddEEvRNS_11TestResultsERKT_RKT0_RKT1_RKNS_11TestDetailsE
     /tmp/ccOQuQrM.s:6939   .text:0000000000003402 _ZN12_GLOBAL__N_143TestCheckArray2DCloseFailureIncludesDetailsC2Ev
     /tmp/ccOQuQrM.s:9574   .rodata:0000000000000c00 _ZTVN12_GLOBAL__N_143TestCheckArray2DCloseFailureIncludesDetailsE
     /tmp/ccOQuQrM.s:6939   .text:0000000000003402 _ZN12_GLOBAL__N_143TestCheckArray2DCloseFailureIncludesDetailsC1Ev
     /tmp/ccOQuQrM.s:6973   .bss:0000000000000640 _ZN12_GLOBAL__N_151testCheckArray2DCloseFailureIncludesDetailsInstanceE
     /tmp/ccOQuQrM.s:6973   .bss:0000000000000678 _ZN12_GLOBAL__N_144adderCheckArray2DCloseFailureIncludesDetailsE
     /tmp/ccOQuQrM.s:6993   .text:0000000000003442 _ZNK12_GLOBAL__N_143TestCheckArray2DCloseFailureIncludesDetails7RunImplEv
     /tmp/ccOQuQrM.s:7427   .text._ZN8UnitTest15MemoryOutStreamD1Ev:0000000000000000 _ZN8UnitTest15MemoryOutStreamD1Ev
     /tmp/ccOQuQrM.s:7555   .text._ZN8UnitTest15MemoryOutStreamD1Ev:00000000000000cc _ZTv0_n24_N8UnitTest15MemoryOutStreamD1Ev
     /tmp/ccOQuQrM.s:7569   .text._ZN8UnitTest15MemoryOutStreamD0Ev:0000000000000000 _ZN8UnitTest15MemoryOutStreamD0Ev
     /tmp/ccOQuQrM.s:7596   .text._ZN8UnitTest15MemoryOutStreamD0Ev:0000000000000026 _ZTv0_n24_N8UnitTest15MemoryOutStreamD0Ev
     /tmp/ccOQuQrM.s:9302   .text._ZN8UnitTest8AreCloseIfffEEbRKT_RKT0_RKT1_:0000000000000000 _ZN8UnitTest8AreCloseIfffEEbRKT_RKT0_RKT1_
     /tmp/ccOQuQrM.s:9351   .text._ZN8UnitTest8AreCloseIffiEEbRKT_RKT0_RKT1_:0000000000000000 _ZN8UnitTest8AreCloseIffiEEbRKT_RKT0_RKT1_
     /tmp/ccOQuQrM.s:9405   .text._ZN8UnitTest8AreCloseIiifEEbRKT_RKT0_RKT1_:0000000000000000 _ZN8UnitTest8AreCloseIiifEEbRKT_RKT0_RKT1_
     /tmp/ccOQuQrM.s:9462   .text._ZN8UnitTest13ArrayAreCloseIA3_fS1_fEEbRKT_RKT0_iRKT1_:0000000000000000 _ZN8UnitTest13ArrayAreCloseIA3_fS1_fEEbRKT_RKT0_iRKT1_
     /tmp/ccOQuQrM.s:9524   .text._ZN8UnitTest8AreCloseIdddEEbRKT_RKT0_RKT1_:0000000000000000 _ZN8UnitTest8AreCloseIdddEEbRKT_RKT0_RKT1_
     /tmp/ccOQuQrM.s:11674  .rodata:0000000000001060 _ZTIN12_GLOBAL__N_143TestCheckArray2DCloseFailureIncludesDetailsE
     /tmp/ccOQuQrM.s:9583   .text:000000000000392a _ZN12_GLOBAL__N_143TestCheckArray2DCloseFailureIncludesDetailsD1Ev
     /tmp/ccOQuQrM.s:9621   .text:0000000000003966 _ZN12_GLOBAL__N_143TestCheckArray2DCloseFailureIncludesDetailsD0Ev
     /tmp/ccOQuQrM.s:9583   .text:000000000000392a _ZN12_GLOBAL__N_143TestCheckArray2DCloseFailureIncludesDetailsD2Ev
     /tmp/ccOQuQrM.s:11686  .rodata:00000000000010b8 _ZTIN12_GLOBAL__N_133TestCheckCloseWithDoublesSucceedsE
     /tmp/ccOQuQrM.s:9658   .text:000000000000398c _ZN12_GLOBAL__N_133TestCheckCloseWithDoublesSucceedsD1Ev
     /tmp/ccOQuQrM.s:9696   .text:00000000000039c8 _ZN12_GLOBAL__N_133TestCheckCloseWithDoublesSucceedsD0Ev
     /tmp/ccOQuQrM.s:9658   .text:000000000000398c _ZN12_GLOBAL__N_133TestCheckCloseWithDoublesSucceedsD2Ev
     /tmp/ccOQuQrM.s:11698  .rodata:0000000000001110 _ZTIN12_GLOBAL__N_126TestCheckArray2DCloseFalseE
     /tmp/ccOQuQrM.s:9733   .text:00000000000039ee _ZN12_GLOBAL__N_126TestCheckArray2DCloseFalseD1Ev
     /tmp/ccOQuQrM.s:9771   .text:0000000000003a2a _ZN12_GLOBAL__N_126TestCheckArray2DCloseFalseD0Ev
     /tmp/ccOQuQrM.s:9733   .text:00000000000039ee _ZN12_GLOBAL__N_126TestCheckArray2DCloseFalseD2Ev
     /tmp/ccOQuQrM.s:11710  .rodata:0000000000001170 _ZTIN12_GLOBAL__N_125TestCheckArray2DCloseTrueE
     /tmp/ccOQuQrM.s:9808   .text:0000000000003a50 _ZN12_GLOBAL__N_125TestCheckArray2DCloseTrueD1Ev
     /tmp/ccOQuQrM.s:9846   .text:0000000000003a8c _ZN12_GLOBAL__N_125TestCheckArray2DCloseTrueD0Ev
     /tmp/ccOQuQrM.s:9808   .text:0000000000003a50 _ZN12_GLOBAL__N_125TestCheckArray2DCloseTrueD2Ev
     /tmp/ccOQuQrM.s:11722  .rodata:00000000000011e0 _ZTIN12_GLOBAL__N_141TestCheckArrayCloseFailureIncludesDetailsE
     /tmp/ccOQuQrM.s:9883   .text:0000000000003ab2 _ZN12_GLOBAL__N_141TestCheckArrayCloseFailureIncludesDetailsD1Ev
     /tmp/ccOQuQrM.s:9921   .text:0000000000003aee _ZN12_GLOBAL__N_141TestCheckArrayCloseFailureIncludesDetailsD0Ev
     /tmp/ccOQuQrM.s:9883   .text:0000000000003ab2 _ZN12_GLOBAL__N_141TestCheckArrayCloseFailureIncludesDetailsD2Ev
     /tmp/ccOQuQrM.s:11734  .rodata:0000000000001230 _ZTIN12_GLOBAL__N_124TestCheckArrayCloseFalseE
     /tmp/ccOQuQrM.s:9958   .text:0000000000003b14 _ZN12_GLOBAL__N_124TestCheckArrayCloseFalseD1Ev
     /tmp/ccOQuQrM.s:9996   .text:0000000000003b50 _ZN12_GLOBAL__N_124TestCheckArrayCloseFalseD0Ev
     /tmp/ccOQuQrM.s:9958   .text:0000000000003b14 _ZN12_GLOBAL__N_124TestCheckArrayCloseFalseD2Ev
     /tmp/ccOQuQrM.s:11746  .rodata:0000000000001290 _ZTIN12_GLOBAL__N_123TestCheckArrayCloseTrueE
     /tmp/ccOQuQrM.s:10033  .text:0000000000003b76 _ZN12_GLOBAL__N_123TestCheckArrayCloseTrueD1Ev
     /tmp/ccOQuQrM.s:10071  .text:0000000000003bb2 _ZN12_GLOBAL__N_123TestCheckArrayCloseTrueD0Ev
     /tmp/ccOQuQrM.s:10033  .text:0000000000003b76 _ZN12_GLOBAL__N_123TestCheckArrayCloseTrueD2Ev
     /tmp/ccOQuQrM.s:11758  .rodata:00000000000012f0 _ZTIN12_GLOBAL__N_124TestCheckArrayEqualFalseE
     /tmp/ccOQuQrM.s:10108  .text:0000000000003bd8 _ZN12_GLOBAL__N_124TestCheckArrayEqualFalseD1Ev
     /tmp/ccOQuQrM.s:10146  .text:0000000000003c14 _ZN12_GLOBAL__N_124TestCheckArrayEqualFalseD0Ev
     /tmp/ccOQuQrM.s:10108  .text:0000000000003bd8 _ZN12_GLOBAL__N_124TestCheckArrayEqualFalseD2Ev
     /tmp/ccOQuQrM.s:11770  .rodata:0000000000001350 _ZTIN12_GLOBAL__N_123TestCheckArrayEqualTrueE
     /tmp/ccOQuQrM.s:10183  .text:0000000000003c3a _ZN12_GLOBAL__N_123TestCheckArrayEqualTrueD1Ev
     /tmp/ccOQuQrM.s:10221  .text:0000000000003c76 _ZN12_GLOBAL__N_123TestCheckArrayEqualTrueD0Ev
     /tmp/ccOQuQrM.s:10183  .text:0000000000003c3a _ZN12_GLOBAL__N_123TestCheckArrayEqualTrueD2Ev
     /tmp/ccOQuQrM.s:11782  .rodata:00000000000013b8 _ZTIN12_GLOBAL__N_136TestCheckCloseFailureIncludesDetailsE
     /tmp/ccOQuQrM.s:10258  .text:0000000000003c9c _ZN12_GLOBAL__N_136TestCheckCloseFailureIncludesDetailsD1Ev
     /tmp/ccOQuQrM.s:10296  .text:0000000000003cd8 _ZN12_GLOBAL__N_136TestCheckCloseFailureIncludesDetailsD0Ev
     /tmp/ccOQuQrM.s:10258  .text:0000000000003c9c _ZN12_GLOBAL__N_136TestCheckCloseFailureIncludesDetailsD2Ev
     /tmp/ccOQuQrM.s:11794  .rodata:0000000000001420 _ZTIN12_GLOBAL__N_138TestCheckCloseFailureIncludesToleranceE
     /tmp/ccOQuQrM.s:10333  .text:0000000000003cfe _ZN12_GLOBAL__N_138TestCheckCloseFailureIncludesToleranceD1Ev
     /tmp/ccOQuQrM.s:10371  .text:0000000000003d3a _ZN12_GLOBAL__N_138TestCheckCloseFailureIncludesToleranceD0Ev
     /tmp/ccOQuQrM.s:10333  .text:0000000000003cfe _ZN12_GLOBAL__N_138TestCheckCloseFailureIncludesToleranceD2Ev
     /tmp/ccOQuQrM.s:11806  .rodata:0000000000001488 _ZTIN12_GLOBAL__N_151TestCheckCloseFailureIncludesCheckExpectedAndActualE
     /tmp/ccOQuQrM.s:10408  .text:0000000000003d60 _ZN12_GLOBAL__N_151TestCheckCloseFailureIncludesCheckExpectedAndActualD1Ev
     /tmp/ccOQuQrM.s:10446  .text:0000000000003d9c _ZN12_GLOBAL__N_151TestCheckCloseFailureIncludesCheckExpectedAndActualD0Ev
     /tmp/ccOQuQrM.s:10408  .text:0000000000003d60 _ZN12_GLOBAL__N_151TestCheckCloseFailureIncludesCheckExpectedAndActualD2Ev
     /tmp/ccOQuQrM.s:11818  .rodata:00000000000014e0 _ZTIN12_GLOBAL__N_139TestCheckCloseWithNaNAgainstItselfFailsE
     /tmp/ccOQuQrM.s:10483  .text:0000000000003dc2 _ZN12_GLOBAL__N_139TestCheckCloseWithNaNAgainstItselfFailsD1Ev
     /tmp/ccOQuQrM.s:10521  .text:0000000000003dfe _ZN12_GLOBAL__N_139TestCheckCloseWithNaNAgainstItselfFailsD0Ev
     /tmp/ccOQuQrM.s:10483  .text:0000000000003dc2 _ZN12_GLOBAL__N_139TestCheckCloseWithNaNAgainstItselfFailsD2Ev
     /tmp/ccOQuQrM.s:11830  .rodata:0000000000001530 _ZTIN12_GLOBAL__N_126TestCheckCloseWithNaNFailsE
     /tmp/ccOQuQrM.s:10558  .text:0000000000003e24 _ZN12_GLOBAL__N_126TestCheckCloseWithNaNFailsD1Ev
     /tmp/ccOQuQrM.s:10596  .text:0000000000003e60 _ZN12_GLOBAL__N_126TestCheckCloseWithNaNFailsD0Ev
     /tmp/ccOQuQrM.s:10558  .text:0000000000003e24 _ZN12_GLOBAL__N_126TestCheckCloseWithNaNFailsD2Ev
     /tmp/ccOQuQrM.s:11842  .rodata:00000000000015a8 _ZTIN12_GLOBAL__N_147TestCheckCloseWithZeroEpsilonWorksForSameNumberE
     /tmp/ccOQuQrM.s:10633  .text:0000000000003e86 _ZN12_GLOBAL__N_147TestCheckCloseWithZeroEpsilonWorksForSameNumberD1Ev
     /tmp/ccOQuQrM.s:10671  .text:0000000000003ec2 _ZN12_GLOBAL__N_147TestCheckCloseWithZeroEpsilonWorksForSameNumberD0Ev
     /tmp/ccOQuQrM.s:10633  .text:0000000000003e86 _ZN12_GLOBAL__N_147TestCheckCloseWithZeroEpsilonWorksForSameNumberD2Ev
     /tmp/ccOQuQrM.s:11854  .rodata:00000000000015e8 _ZTIN12_GLOBAL__N_119TestCheckCloseFalseE
     /tmp/ccOQuQrM.s:10708  .text:0000000000003ee8 _ZN12_GLOBAL__N_119TestCheckCloseFalseD1Ev
     /tmp/ccOQuQrM.s:10746  .text:0000000000003f24 _ZN12_GLOBAL__N_119TestCheckCloseFalseD0Ev
     /tmp/ccOQuQrM.s:10708  .text:0000000000003ee8 _ZN12_GLOBAL__N_119TestCheckCloseFalseD2Ev
     /tmp/ccOQuQrM.s:11866  .rodata:0000000000001628 _ZTIN12_GLOBAL__N_118TestCheckCloseTrueE
     /tmp/ccOQuQrM.s:10783  .text:0000000000003f4a _ZN12_GLOBAL__N_118TestCheckCloseTrueD1Ev
     /tmp/ccOQuQrM.s:10821  .text:0000000000003f86 _ZN12_GLOBAL__N_118TestCheckCloseTrueD0Ev
     /tmp/ccOQuQrM.s:10783  .text:0000000000003f4a _ZN12_GLOBAL__N_118TestCheckCloseTrueD2Ev
     /tmp/ccOQuQrM.s:11878  .rodata:0000000000001678 _ZTIN12_GLOBAL__N_136TestCheckEqualFailureIncludesDetailsE
     /tmp/ccOQuQrM.s:10858  .text:0000000000003fac _ZN12_GLOBAL__N_136TestCheckEqualFailureIncludesDetailsD1Ev
     /tmp/ccOQuQrM.s:10896  .text:0000000000003fe8 _ZN12_GLOBAL__N_136TestCheckEqualFailureIncludesDetailsD0Ev
     /tmp/ccOQuQrM.s:10858  .text:0000000000003fac _ZN12_GLOBAL__N_136TestCheckEqualFailureIncludesDetailsD2Ev
     /tmp/ccOQuQrM.s:11890  .rodata:00000000000016e8 _ZTIN12_GLOBAL__N_151TestCheckEqualFailureIncludesCheckExpectedAndActualE
     /tmp/ccOQuQrM.s:10933  .text:000000000000400e _ZN12_GLOBAL__N_151TestCheckEqualFailureIncludesCheckExpectedAndActualD1Ev
     /tmp/ccOQuQrM.s:10971  .text:000000000000404a _ZN12_GLOBAL__N_151TestCheckEqualFailureIncludesCheckExpectedAndActualD0Ev
     /tmp/ccOQuQrM.s:10933  .text:000000000000400e _ZN12_GLOBAL__N_151TestCheckEqualFailureIncludesCheckExpectedAndActualD2Ev
     /tmp/ccOQuQrM.s:11902  .rodata:0000000000001750 _ZTIN12_GLOBAL__N_153TestCheckEqualsWithStringsWorksOnContentsWithALiteralE
     /tmp/ccOQuQrM.s:11008  .text:0000000000004070 _ZN12_GLOBAL__N_153TestCheckEqualsWithStringsWorksOnContentsWithALiteralD1Ev
     /tmp/ccOQuQrM.s:11046  .text:00000000000040ac _ZN12_GLOBAL__N_153TestCheckEqualsWithStringsWorksOnContentsWithALiteralD0Ev
     /tmp/ccOQuQrM.s:11008  .text:0000000000004070 _ZN12_GLOBAL__N_153TestCheckEqualsWithStringsWorksOnContentsWithALiteralD2Ev
     /tmp/ccOQuQrM.s:11914  .rodata:00000000000017d0 _ZTIN12_GLOBAL__N_154TestCheckEqualsWithStringsWorksOnContentsConstNonConstE
     /tmp/ccOQuQrM.s:11083  .text:00000000000040d2 _ZN12_GLOBAL__N_154TestCheckEqualsWithStringsWorksOnContentsConstNonConstD1Ev
     /tmp/ccOQuQrM.s:11121  .text:000000000000410e _ZN12_GLOBAL__N_154TestCheckEqualsWithStringsWorksOnContentsConstNonConstD0Ev
     /tmp/ccOQuQrM.s:11083  .text:00000000000040d2 _ZN12_GLOBAL__N_154TestCheckEqualsWithStringsWorksOnContentsConstNonConstD2Ev
     /tmp/ccOQuQrM.s:11926  .rodata:0000000000001850 _ZTIN12_GLOBAL__N_154TestCheckEqualsWithStringsWorksOnContentsNonConstConstE
     /tmp/ccOQuQrM.s:11158  .text:0000000000004134 _ZN12_GLOBAL__N_154TestCheckEqualsWithStringsWorksOnContentsNonConstConstD1Ev
     /tmp/ccOQuQrM.s:11196  .text:0000000000004170 _ZN12_GLOBAL__N_154TestCheckEqualsWithStringsWorksOnContentsNonConstConstD0Ev
     /tmp/ccOQuQrM.s:11158  .text:0000000000004134 _ZN12_GLOBAL__N_154TestCheckEqualsWithStringsWorksOnContentsNonConstConstD2Ev
     /tmp/ccOQuQrM.s:11938  .rodata:00000000000018c8 _ZTIN12_GLOBAL__N_151TestCheckEqualsWithStringsWorksOnContentsConstConstE
     /tmp/ccOQuQrM.s:11233  .text:0000000000004196 _ZN12_GLOBAL__N_151TestCheckEqualsWithStringsWorksOnContentsConstConstD1Ev
     /tmp/ccOQuQrM.s:11271  .text:00000000000041d2 _ZN12_GLOBAL__N_151TestCheckEqualsWithStringsWorksOnContentsConstConstD0Ev
     /tmp/ccOQuQrM.s:11233  .text:0000000000004196 _ZN12_GLOBAL__N_151TestCheckEqualsWithStringsWorksOnContentsConstConstD2Ev
     /tmp/ccOQuQrM.s:11950  .rodata:0000000000001930 _ZTIN12_GLOBAL__N_157TestCheckEqualsWithStringsWorksOnContentsNonConstNonConstE
     /tmp/ccOQuQrM.s:11308  .text:00000000000041f8 _ZN12_GLOBAL__N_157TestCheckEqualsWithStringsWorksOnContentsNonConstNonConstD1Ev
     /tmp/ccOQuQrM.s:11346  .text:0000000000004234 _ZN12_GLOBAL__N_157TestCheckEqualsWithStringsWorksOnContentsNonConstNonConstD0Ev
     /tmp/ccOQuQrM.s:11308  .text:00000000000041f8 _ZN12_GLOBAL__N_157TestCheckEqualsWithStringsWorksOnContentsNonConstNonConstD2Ev
     /tmp/ccOQuQrM.s:11962  .rodata:00000000000019a8 _ZTIN12_GLOBAL__N_149TestCheckEqualsWithStringsFailsOnDifferentStringsE
     /tmp/ccOQuQrM.s:11383  .text:000000000000425a _ZN12_GLOBAL__N_149TestCheckEqualsWithStringsFailsOnDifferentStringsD1Ev
     /tmp/ccOQuQrM.s:11421  .text:0000000000004296 _ZN12_GLOBAL__N_149TestCheckEqualsWithStringsFailsOnDifferentStringsD0Ev
     /tmp/ccOQuQrM.s:11383  .text:000000000000425a _ZN12_GLOBAL__N_149TestCheckEqualsWithStringsFailsOnDifferentStringsD2Ev
     /tmp/ccOQuQrM.s:11974  .rodata:00000000000019f8 _ZTIN12_GLOBAL__N_130TestCheckEqualWithUnsignedLongE
     /tmp/ccOQuQrM.s:11458  .text:00000000000042bc _ZN12_GLOBAL__N_130TestCheckEqualWithUnsignedLongD1Ev
     /tmp/ccOQuQrM.s:11496  .text:00000000000042f8 _ZN12_GLOBAL__N_130TestCheckEqualWithUnsignedLongD0Ev
     /tmp/ccOQuQrM.s:11458  .text:00000000000042bc _ZN12_GLOBAL__N_130TestCheckEqualWithUnsignedLongD2Ev
     /tmp/ccOQuQrM.s:11983  .rodata._ZTI17RecordingReporter:0000000000000000 _ZTI17RecordingReporter
     /tmp/ccOQuQrM.s:11579  .text._ZN17RecordingReporterD0Ev:0000000000000000 _ZN17RecordingReporterD0Ev
     /tmp/ccOQuQrM.s:11538  .text._ZN17RecordingReporterD2Ev:0000000000000000 _ZN17RecordingReporterD2Ev
     /tmp/ccOQuQrM.s:11999  .rodata._ZTIN8UnitTest15MemoryOutStreamE:0000000000000000 _ZTIN8UnitTest15MemoryOutStreamE
     /tmp/ccOQuQrM.s:11637  .rodata._ZTCN8UnitTest15MemoryOutStreamE0_NSt7__cxx1119basic_ostringstreamIcSt11char_traitsIcESaIcEEE:0000000000000000 _ZTCN8UnitTest15MemoryOutStreamE0_NSt7__cxx1119basic_ostringstreamIcSt11char_traitsIcESaIcEEE
     /tmp/ccOQuQrM.s:11654  .rodata._ZTCN8UnitTest15MemoryOutStreamE0_So:0000000000000000 _ZTCN8UnitTest15MemoryOutStreamE0_So
     /tmp/ccOQuQrM.s:11669  .rodata:0000000000001020 _ZTSN12_GLOBAL__N_143TestCheckArray2DCloseFailureIncludesDetailsE
     /tmp/ccOQuQrM.s:11681  .rodata:0000000000001080 _ZTSN12_GLOBAL__N_133TestCheckCloseWithDoublesSucceedsE
     /tmp/ccOQuQrM.s:11693  .rodata:00000000000010e0 _ZTSN12_GLOBAL__N_126TestCheckArray2DCloseFalseE
     /tmp/ccOQuQrM.s:11705  .rodata:0000000000001140 _ZTSN12_GLOBAL__N_125TestCheckArray2DCloseTrueE
     /tmp/ccOQuQrM.s:11717  .rodata:00000000000011a0 _ZTSN12_GLOBAL__N_141TestCheckArrayCloseFailureIncludesDetailsE
     /tmp/ccOQuQrM.s:11729  .rodata:0000000000001200 _ZTSN12_GLOBAL__N_124TestCheckArrayCloseFalseE
     /tmp/ccOQuQrM.s:11741  .rodata:0000000000001260 _ZTSN12_GLOBAL__N_123TestCheckArrayCloseTrueE
     /tmp/ccOQuQrM.s:11753  .rodata:00000000000012c0 _ZTSN12_GLOBAL__N_124TestCheckArrayEqualFalseE
     /tmp/ccOQuQrM.s:11765  .rodata:0000000000001320 _ZTSN12_GLOBAL__N_123TestCheckArrayEqualTrueE
     /tmp/ccOQuQrM.s:11777  .rodata:0000000000001380 _ZTSN12_GLOBAL__N_136TestCheckCloseFailureIncludesDetailsE
     /tmp/ccOQuQrM.s:11789  .rodata:00000000000013e0 _ZTSN12_GLOBAL__N_138TestCheckCloseFailureIncludesToleranceE
     /tmp/ccOQuQrM.s:11801  .rodata:0000000000001440 _ZTSN12_GLOBAL__N_151TestCheckCloseFailureIncludesCheckExpectedAndActualE
     /tmp/ccOQuQrM.s:11813  .rodata:00000000000014a0 _ZTSN12_GLOBAL__N_139TestCheckCloseWithNaNAgainstItselfFailsE
     /tmp/ccOQuQrM.s:11825  .rodata:0000000000001500 _ZTSN12_GLOBAL__N_126TestCheckCloseWithNaNFailsE
     /tmp/ccOQuQrM.s:11837  .rodata:0000000000001560 _ZTSN12_GLOBAL__N_147TestCheckCloseWithZeroEpsilonWorksForSameNumberE
     /tmp/ccOQuQrM.s:11849  .rodata:00000000000015c0 _ZTSN12_GLOBAL__N_119TestCheckCloseFalseE
     /tmp/ccOQuQrM.s:11861  .rodata:0000000000001600 _ZTSN12_GLOBAL__N_118TestCheckCloseTrueE
     /tmp/ccOQuQrM.s:11873  .rodata:0000000000001640 _ZTSN12_GLOBAL__N_136TestCheckEqualFailureIncludesDetailsE
     /tmp/ccOQuQrM.s:11885  .rodata:00000000000016a0 _ZTSN12_GLOBAL__N_151TestCheckEqualFailureIncludesCheckExpectedAndActualE
     /tmp/ccOQuQrM.s:11897  .rodata:0000000000001700 _ZTSN12_GLOBAL__N_153TestCheckEqualsWithStringsWorksOnContentsWithALiteralE
     /tmp/ccOQuQrM.s:11909  .rodata:0000000000001780 _ZTSN12_GLOBAL__N_154TestCheckEqualsWithStringsWorksOnContentsConstNonConstE
     /tmp/ccOQuQrM.s:11921  .rodata:0000000000001800 _ZTSN12_GLOBAL__N_154TestCheckEqualsWithStringsWorksOnContentsNonConstConstE
     /tmp/ccOQuQrM.s:11933  .rodata:0000000000001880 _ZTSN12_GLOBAL__N_151TestCheckEqualsWithStringsWorksOnContentsConstConstE
     /tmp/ccOQuQrM.s:11945  .rodata:00000000000018e0 _ZTSN12_GLOBAL__N_157TestCheckEqualsWithStringsWorksOnContentsNonConstNonConstE
     /tmp/ccOQuQrM.s:11957  .rodata:0000000000001960 _ZTSN12_GLOBAL__N_149TestCheckEqualsWithStringsFailsOnDifferentStringsE
     /tmp/ccOQuQrM.s:11969  .rodata:00000000000019c0 _ZTSN12_GLOBAL__N_130TestCheckEqualWithUnsignedLongE
     /tmp/ccOQuQrM.s:11992  .rodata._ZTS17RecordingReporter:0000000000000000 _ZTS17RecordingReporter
     /tmp/ccOQuQrM.s:12008  .rodata._ZTSN8UnitTest15MemoryOutStreamE:0000000000000000 _ZTSN8UnitTest15MemoryOutStreamE
     /tmp/ccOQuQrM.s:12012  .text:000000000000431e _Z41__static_initialization_and_destruction_0ii
     /tmp/ccOQuQrM.s:12352  .text:00000000000048a8 _GLOBAL__sub_I_TestChecks.cpp
                           .group:0000000000000000 _ZN8UnitTest12TestReporterC5Ev
                           .group:0000000000000000 _ZN17RecordingReporterC5Ev
                           .group:0000000000000000 _ZN17RecordingReporterD5Ev

UNDEFINED SYMBOLS
__gxx_personality_v0
_ZNSt9basic_iosIcSt11char_traitsIcEEC2Ev
_ZNSt7__cxx1119basic_ostringstreamIcSt11char_traitsIcESaIcEEC2ESt13_Ios_Openmode
_ZNSt7__cxx1112basic_stringIcSt11char_traitsIcESaIcEEC1Ev
_ZNSt7__cxx1119basic_ostringstreamIcSt11char_traitsIcESaIcEED2Ev
_ZNSt9basic_iosIcSt11char_traitsIcEED2Ev
_Unwind_Resume
_ZTVN8UnitTest12TestReporterE
strcpy
_ZN8UnitTest4TestC2EPKcS2_S2_i
_ZN8UnitTest11TestResultsC1EPNS_12TestReporterE
_ZN8UnitTest11CurrentTest7DetailsEv
_ZN8UnitTest11TestDetailsC1ERKS0_i
_ZN8UnitTest11CurrentTest7ResultsEv
__cxa_begin_catch
_ZN8UnitTest11TestResults13OnTestFailureERKNS_11TestDetailsEPKc
__cxa_end_catch
__stack_chk_fail
_ZN8UnitTest11TestDetailsC1EPKcS2_S2_i
_ZN8UnitTest10CheckEqualERNS_11TestResultsEPcS2_RKNS_11TestDetailsE
_ZNK8UnitTest11TestResults15GetFailureCountEv
_ZN8UnitTest10CheckEqualERNS_11TestResultsEPKcS3_RKNS_11TestDetailsE
_ZN8UnitTest10CheckEqualERNS_11TestResultsEPcPKcRKNS_11TestDetailsE
_ZN8UnitTest10CheckEqualERNS_11TestResultsEPKcPcRKNS_11TestDetailsE
strstr
_ZNSt7__cxx1112basic_stringIcSt11char_traitsIcESaIcEED1Ev
_ZdlPv
_ZStlsISt11char_traitsIcEERSt13basic_ostreamIcT_ES5_PKc
_ZNSolsEm
_ZNK8UnitTest15MemoryOutStream7GetTextEv
_ZNSolsEi
_ZNSolsEf
_ZNSolsEd
_ZN8UnitTest4TestD2Ev
_ZN8UnitTest12TestReporterD2Ev
_ZTINSt7__cxx1119basic_ostringstreamIcSt11char_traitsIcESaIcEEE
_ZTISo
_ZTVN10__cxxabiv120__si_class_type_infoE
_ZTIN8UnitTest4TestE
_ZTIN8UnitTest12TestReporterE
__dso_handle
__cxa_atexit
_ZN8UnitTest4Test11GetTestListEv
_ZN8UnitTest9ListAdderC1ERNS_8TestListEPNS_4TestE
