   1              		.file	"TestTestMacros.cpp"
   2              		.text
   3              	.Ltext0:
   4              		.section	.rodata
   5              	.LC0:
   6 0000 44656661 		.string	"DefaultSuite"
   6      756C7453 
   6      75697465 
   6      00
   7              		.section	.text._ZN13UnitTestSuite12GetSuiteNameEv,"axG",@progbits,_ZN13UnitTestSuite12GetSuiteName
   8              		.weak	_ZN13UnitTestSuite12GetSuiteNameEv
  10              	_ZN13UnitTestSuite12GetSuiteNameEv:
  11              	.LFB0:
  12              		.file 1 "../TestSuite.h"
   1:../TestSuite.h **** #ifndef UNITTEST_TESTSUITE_H
   2:../TestSuite.h **** #define UNITTEST_TESTSUITE_H
   3:../TestSuite.h **** 
   4:../TestSuite.h **** namespace UnitTestSuite {
   5:../TestSuite.h **** 
   6:../TestSuite.h ****     inline char const* GetSuiteName ()
   7:../TestSuite.h ****     {
  13              		.loc 1 7 0
  14              		.cfi_startproc
  15 0000 55       		pushq	%rbp
  16              		.cfi_def_cfa_offset 16
  17              		.cfi_offset 6, -16
  18 0001 4889E5   		movq	%rsp, %rbp
  19              		.cfi_def_cfa_register 6
   8:../TestSuite.h ****         return "DefaultSuite";
  20              		.loc 1 8 0
  21 0004 B8000000 		movl	$.LC0, %eax
  21      00
   9:../TestSuite.h ****     }
  22              		.loc 1 9 0
  23 0009 5D       		popq	%rbp
  24              		.cfi_def_cfa 7, 8
  25 000a C3       		ret
  26              		.cfi_endproc
  27              	.LFE0:
  29              		.section	.text._ZN8UnitTest15MemoryOutStreamC1Ev,"axG",@progbits,_ZN8UnitTest15MemoryOutStreamC1Ev
  30              		.align 2
  31              		.weak	_ZN8UnitTest15MemoryOutStreamC1Ev
  33              	_ZN8UnitTest15MemoryOutStreamC1Ev:
  34              	.LFB1057:
  35              		.file 2 "../MemoryOutStream.h"
   1:../MemoryOutStream.h **** #ifndef UNITTEST_MEMORYOUTSTREAM_H
   2:../MemoryOutStream.h **** #define UNITTEST_MEMORYOUTSTREAM_H
   3:../MemoryOutStream.h **** 
   4:../MemoryOutStream.h **** #include "Config.h"
   5:../MemoryOutStream.h **** 
   6:../MemoryOutStream.h **** #ifndef UNITTEST_USE_CUSTOM_STREAMS
   7:../MemoryOutStream.h **** 
   8:../MemoryOutStream.h **** #include <sstream>
   9:../MemoryOutStream.h **** 
  10:../MemoryOutStream.h **** namespace UnitTest
  11:../MemoryOutStream.h **** {
  12:../MemoryOutStream.h **** 
  13:../MemoryOutStream.h **** class MemoryOutStream : public std::ostringstream
  14:../MemoryOutStream.h **** {
  15:../MemoryOutStream.h **** public:
  16:../MemoryOutStream.h ****     MemoryOutStream() {}
  36              		.loc 2 16 0
  37              		.cfi_startproc
  38              		.cfi_personality 0x3,__gxx_personality_v0
  39              		.cfi_lsda 0x3,.LLSDA1057
  40 0000 55       		pushq	%rbp
  41              		.cfi_def_cfa_offset 16
  42              		.cfi_offset 6, -16
  43 0001 4889E5   		movq	%rsp, %rbp
  44              		.cfi_def_cfa_register 6
  45 0004 53       		pushq	%rbx
  46 0005 4883EC18 		subq	$24, %rsp
  47              		.cfi_offset 3, -24
  48 0009 48897DE8 		movq	%rdi, -24(%rbp)
  49              	.LBB2:
  50              		.loc 2 16 0
  51 000d 488B45E8 		movq	-24(%rbp), %rax
  52 0011 48059000 		addq	$144, %rax
  52      0000
  53 0017 4889C7   		movq	%rax, %rdi
  54              	.LEHB0:
  55 001a E8000000 		call	_ZNSt9basic_iosIcSt11char_traitsIcEEC2Ev
  55      00
  56              	.LEHE0:
  57 001f B9000000 		movl	$_ZTTN8UnitTest15MemoryOutStreamE+8, %ecx
  57      00
  58 0024 488B45E8 		movq	-24(%rbp), %rax
  59 0028 BA100000 		movl	$16, %edx
  59      00
  60 002d 4889CE   		movq	%rcx, %rsi
  61 0030 4889C7   		movq	%rax, %rdi
  62              	.LEHB1:
  63 0033 E8000000 		call	_ZNSt7__cxx1119basic_ostringstreamIcSt11char_traitsIcESaIcEEC2ESt13_Ios_Openmode
  63      00
  64              	.LEHE1:
  65              		.loc 2 16 0 is_stmt 0 discriminator 9
  66 0038 BA000000 		movl	$_ZTVN8UnitTest15MemoryOutStreamE+24, %edx
  66      00
  67 003d 488B45E8 		movq	-24(%rbp), %rax
  68 0041 488910   		movq	%rdx, (%rax)
  69 0044 BA900000 		movl	$144, %edx
  69      00
  70 0049 488B45E8 		movq	-24(%rbp), %rax
  71 004d 4801D0   		addq	%rdx, %rax
  72 0050 BA000000 		movl	$_ZTVN8UnitTest15MemoryOutStreamE+64, %edx
  72      00
  73 0055 488910   		movq	%rdx, (%rax)
  74 0058 488B45E8 		movq	-24(%rbp), %rax
  75 005c 4883C070 		addq	$112, %rax
  76 0060 4889C7   		movq	%rax, %rdi
  77              	.LEHB2:
  78 0063 E8000000 		call	_ZNSt7__cxx1112basic_stringIcSt11char_traitsIcESaIcEEC1Ev
  78      00
  79              	.LEHE2:
  80              	.LBE2:
  81              		.loc 2 16 0
  82 0068 EB39     		jmp	.L9
  83              	.L7:
  84 006a 4889C3   		movq	%rax, %rbx
  85              	.LBB3:
  86 006d BA000000 		movl	$_ZTTN8UnitTest15MemoryOutStreamE+8, %edx
  86      00
  87 0072 488B45E8 		movq	-24(%rbp), %rax
  88 0076 4889D6   		movq	%rdx, %rsi
  89 0079 4889C7   		movq	%rax, %rdi
  90 007c E8000000 		call	_ZNSt7__cxx1119basic_ostringstreamIcSt11char_traitsIcESaIcEED2Ev
  90      00
  91 0081 EB03     		jmp	.L8
  92              	.L6:
  93 0083 4889C3   		movq	%rax, %rbx
  94              	.L8:
  95              		.loc 2 16 0 discriminator 28
  96 0086 488B45E8 		movq	-24(%rbp), %rax
  97 008a 48059000 		addq	$144, %rax
  97      0000
  98 0090 4889C7   		movq	%rax, %rdi
  99 0093 E8000000 		call	_ZNSt9basic_iosIcSt11char_traitsIcEED2Ev
  99      00
 100 0098 4889D8   		movq	%rbx, %rax
 101 009b 4889C7   		movq	%rax, %rdi
 102              	.LEHB3:
 103 009e E8000000 		call	_Unwind_Resume
 103      00
 104              	.LEHE3:
 105              	.L9:
 106              	.LBE3:
 107              		.loc 2 16 0
 108 00a3 4883C418 		addq	$24, %rsp
 109 00a7 5B       		popq	%rbx
 110 00a8 5D       		popq	%rbp
 111              		.cfi_def_cfa 7, 8
 112 00a9 C3       		ret
 113              		.cfi_endproc
 114              	.LFE1057:
 115              		.globl	__gxx_personality_v0
 116              		.section	.gcc_except_table._ZN8UnitTest15MemoryOutStreamC1Ev,"aG",@progbits,_ZN8UnitTest15MemoryOu
 117              	.LLSDA1057:
 118 0000 FF       		.byte	0xff
 119 0001 FF       		.byte	0xff
 120 0002 01       		.byte	0x1
 121 0003 12       		.uleb128 .LLSDACSE1057-.LLSDACSB1057
 122              	.LLSDACSB1057:
 123 0004 1A       		.uleb128 .LEHB0-.LFB1057
 124 0005 05       		.uleb128 .LEHE0-.LEHB0
 125 0006 00       		.uleb128 0
 126 0007 00       		.uleb128 0
 127 0008 33       		.uleb128 .LEHB1-.LFB1057
 128 0009 05       		.uleb128 .LEHE1-.LEHB1
 129 000a 8301     		.uleb128 .L6-.LFB1057
 130 000c 00       		.uleb128 0
 131 000d 63       		.uleb128 .LEHB2-.LFB1057
 132 000e 05       		.uleb128 .LEHE2-.LEHB2
 133 000f 6A       		.uleb128 .L7-.LFB1057
 134 0010 00       		.uleb128 0
 135 0011 9E01     		.uleb128 .LEHB3-.LFB1057
 136 0013 05       		.uleb128 .LEHE3-.LEHB3
 137 0014 00       		.uleb128 0
 138 0015 00       		.uleb128 0
 139              	.LLSDACSE1057:
 140              		.section	.text._ZN8UnitTest15MemoryOutStreamC1Ev,"axG",@progbits,_ZN8UnitTest15MemoryOutStreamC1Ev
 142              		.section	.text._ZN8UnitTest12TestReporterC2Ev,"axG",@progbits,_ZN8UnitTest12TestReporterC5Ev,comda
 143              		.align 2
 144              		.weak	_ZN8UnitTest12TestReporterC2Ev
 146              	_ZN8UnitTest12TestReporterC2Ev:
 147              	.LFB1071:
 148              		.file 3 "../TestReporter.h"
   1:../TestReporter.h **** #ifndef UNITTEST_TESTREPORTER_H
   2:../TestReporter.h **** #define UNITTEST_TESTREPORTER_H
   3:../TestReporter.h **** 
   4:../TestReporter.h **** namespace UnitTest {
   5:../TestReporter.h **** 
   6:../TestReporter.h **** class TestDetails;
   7:../TestReporter.h **** 
   8:../TestReporter.h **** class TestReporter
 149              		.loc 3 8 0 is_stmt 1
 150              		.cfi_startproc
 151 0000 55       		pushq	%rbp
 152              		.cfi_def_cfa_offset 16
 153              		.cfi_offset 6, -16
 154 0001 4889E5   		movq	%rsp, %rbp
 155              		.cfi_def_cfa_register 6
 156 0004 48897DF8 		movq	%rdi, -8(%rbp)
 157              	.LBB4:
 158              		.loc 3 8 0
 159 0008 BA000000 		movl	$_ZTVN8UnitTest12TestReporterE+16, %edx
 159      00
 160 000d 488B45F8 		movq	-8(%rbp), %rax
 161 0011 488910   		movq	%rdx, (%rax)
 162              	.LBE4:
 163 0014 90       		nop
 164 0015 5D       		popq	%rbp
 165              		.cfi_def_cfa 7, 8
 166 0016 C3       		ret
 167              		.cfi_endproc
 168              	.LFE1071:
 170              		.weak	_ZN8UnitTest12TestReporterC1Ev
 171              		.set	_ZN8UnitTest12TestReporterC1Ev,_ZN8UnitTest12TestReporterC2Ev
 172              		.section	.text._ZN17RecordingReporterC2Ev,"axG",@progbits,_ZN17RecordingReporterC5Ev,comdat
 173              		.align 2
 174              		.weak	_ZN17RecordingReporterC2Ev
 176              	_ZN17RecordingReporterC2Ev:
 177              	.LFB1073:
 178              		.file 4 "RecordingReporter.h"
   1:RecordingReporter.h **** #ifndef UNITTEST_RECORDINGREPORTER_H
   2:RecordingReporter.h **** #define UNITTEST_RECORDINGREPORTER_H
   3:RecordingReporter.h **** 
   4:RecordingReporter.h **** #include "../TestReporter.h"
   5:RecordingReporter.h **** #include <cstring>
   6:RecordingReporter.h **** 
   7:RecordingReporter.h **** #include "../TestDetails.h"
   8:RecordingReporter.h **** 
   9:RecordingReporter.h **** struct RecordingReporter : public UnitTest::TestReporter
  10:RecordingReporter.h **** {
  11:RecordingReporter.h **** private:
  12:RecordingReporter.h ****     enum { kMaxStringLength = 256 };
  13:RecordingReporter.h **** 
  14:RecordingReporter.h **** public:
  15:RecordingReporter.h ****     RecordingReporter()
 179              		.loc 4 15 0
 180              		.cfi_startproc
 181 0000 55       		pushq	%rbp
 182              		.cfi_def_cfa_offset 16
 183              		.cfi_offset 6, -16
 184 0001 4889E5   		movq	%rsp, %rbp
 185              		.cfi_def_cfa_register 6
 186 0004 4883EC10 		subq	$16, %rsp
 187 0008 48897DF8 		movq	%rdi, -8(%rbp)
 188              	.LBB5:
  16:RecordingReporter.h ****         : testRunCount(0)
  17:RecordingReporter.h ****         , testFailedCount(0)
  18:RecordingReporter.h ****         , lastFailedLine(0)
  19:RecordingReporter.h ****         , testFinishedCount(0)
  20:RecordingReporter.h ****         , lastFinishedTestTime(0)
  21:RecordingReporter.h ****         , summaryTotalTestCount(0)
  22:RecordingReporter.h ****         , summaryFailedTestCount(0)
  23:RecordingReporter.h ****         , summaryFailureCount(0)
  24:RecordingReporter.h ****         , summarySecondsElapsed(0)
 189              		.loc 4 24 0
 190 000c 488B45F8 		movq	-8(%rbp), %rax
 191 0010 4889C7   		movq	%rax, %rdi
 192 0013 E8000000 		call	_ZN8UnitTest12TestReporterC2Ev
 192      00
 193 0018 BA000000 		movl	$_ZTV17RecordingReporter+16, %edx
 193      00
 194 001d 488B45F8 		movq	-8(%rbp), %rax
 195 0021 488910   		movq	%rdx, (%rax)
 196 0024 488B45F8 		movq	-8(%rbp), %rax
 197 0028 C7400800 		movl	$0, 8(%rax)
 197      000000
 198 002f 488B45F8 		movq	-8(%rbp), %rax
 199 0033 C7800C02 		movl	$0, 524(%rax)
 199      00000000 
 199      0000
 200 003d 488B45F8 		movq	-8(%rbp), %rax
 201 0041 C7801003 		movl	$0, 784(%rax)
 201      00000000 
 201      0000
 202 004b 488B45F8 		movq	-8(%rbp), %rax
 203 004f C7801406 		movl	$0, 1556(%rax)
 203      00000000 
 203      0000
 204 0059 488B45F8 		movq	-8(%rbp), %rax
 205 005d 660FEFC0 		pxor	%xmm0, %xmm0
 206 0061 F30F1180 		movss	%xmm0, 2072(%rax)
 206      18080000 
 207 0069 488B45F8 		movq	-8(%rbp), %rax
 208 006d C7801C08 		movl	$0, 2076(%rax)
 208      00000000 
 208      0000
 209 0077 488B45F8 		movq	-8(%rbp), %rax
 210 007b C7802008 		movl	$0, 2080(%rax)
 210      00000000 
 210      0000
 211 0085 488B45F8 		movq	-8(%rbp), %rax
 212 0089 C7802408 		movl	$0, 2084(%rax)
 212      00000000 
 212      0000
 213 0093 488B45F8 		movq	-8(%rbp), %rax
 214 0097 660FEFC0 		pxor	%xmm0, %xmm0
 215 009b F30F1180 		movss	%xmm0, 2088(%rax)
 215      28080000 
  25:RecordingReporter.h ****     {
  26:RecordingReporter.h ****         lastStartedSuite[0] = '\0';
 216              		.loc 4 26 0
 217 00a3 488B45F8 		movq	-8(%rbp), %rax
 218 00a7 C6400C00 		movb	$0, 12(%rax)
  27:RecordingReporter.h ****         lastStartedTest[0] = '\0';
 219              		.loc 4 27 0
 220 00ab 488B45F8 		movq	-8(%rbp), %rax
 221 00af C6800C01 		movb	$0, 268(%rax)
 221      000000
  28:RecordingReporter.h ****         lastFailedFile[0] = '\0';
 222              		.loc 4 28 0
 223 00b6 488B45F8 		movq	-8(%rbp), %rax
 224 00ba C6801002 		movb	$0, 528(%rax)
 224      000000
  29:RecordingReporter.h ****         lastFailedSuite[0] = '\0';
 225              		.loc 4 29 0
 226 00c1 488B45F8 		movq	-8(%rbp), %rax
 227 00c5 C6801403 		movb	$0, 788(%rax)
 227      000000
  30:RecordingReporter.h ****         lastFailedTest[0] = '\0';
 228              		.loc 4 30 0
 229 00cc 488B45F8 		movq	-8(%rbp), %rax
 230 00d0 C6801404 		movb	$0, 1044(%rax)
 230      000000
  31:RecordingReporter.h ****         lastFailedMessage[0] = '\0';
 231              		.loc 4 31 0
 232 00d7 488B45F8 		movq	-8(%rbp), %rax
 233 00db C6801405 		movb	$0, 1300(%rax)
 233      000000
  32:RecordingReporter.h ****         lastFinishedSuite[0] = '\0';
 234              		.loc 4 32 0
 235 00e2 488B45F8 		movq	-8(%rbp), %rax
 236 00e6 C6801806 		movb	$0, 1560(%rax)
 236      000000
  33:RecordingReporter.h ****         lastFinishedTest[0] = '\0';
 237              		.loc 4 33 0
 238 00ed 488B45F8 		movq	-8(%rbp), %rax
 239 00f1 C6801807 		movb	$0, 1816(%rax)
 239      000000
 240              	.LBE5:
  34:RecordingReporter.h ****     }
 241              		.loc 4 34 0
 242 00f8 90       		nop
 243 00f9 C9       		leave
 244              		.cfi_def_cfa 7, 8
 245 00fa C3       		ret
 246              		.cfi_endproc
 247              	.LFE1073:
 249              		.weak	_ZN17RecordingReporterC1Ev
 250              		.set	_ZN17RecordingReporterC1Ev,_ZN17RecordingReporterC2Ev
 251              		.section	.text._ZN17RecordingReporter15ReportTestStartERKN8UnitTest11TestDetailsE,"axG",@progbits,
 252              		.align 2
 253              		.weak	_ZN17RecordingReporter15ReportTestStartERKN8UnitTest11TestDetailsE
 255              	_ZN17RecordingReporter15ReportTestStartERKN8UnitTest11TestDetailsE:
 256              	.LFB1075:
  35:RecordingReporter.h **** 
  36:RecordingReporter.h ****     virtual void ReportTestStart(UnitTest::TestDetails const& test)
 257              		.loc 4 36 0
 258              		.cfi_startproc
 259 0000 55       		pushq	%rbp
 260              		.cfi_def_cfa_offset 16
 261              		.cfi_offset 6, -16
 262 0001 4889E5   		movq	%rsp, %rbp
 263              		.cfi_def_cfa_register 6
 264 0004 4883EC10 		subq	$16, %rsp
 265 0008 48897DF8 		movq	%rdi, -8(%rbp)
 266 000c 488975F0 		movq	%rsi, -16(%rbp)
  37:RecordingReporter.h ****     {
  38:RecordingReporter.h **** 		using namespace std;
  39:RecordingReporter.h **** 
  40:RecordingReporter.h ****         ++testRunCount;
 267              		.loc 4 40 0
 268 0010 488B45F8 		movq	-8(%rbp), %rax
 269 0014 8B4008   		movl	8(%rax), %eax
 270 0017 8D5001   		leal	1(%rax), %edx
 271 001a 488B45F8 		movq	-8(%rbp), %rax
 272 001e 895008   		movl	%edx, 8(%rax)
  41:RecordingReporter.h ****         strcpy(lastStartedSuite, test.suiteName);
 273              		.loc 4 41 0
 274 0021 488B45F0 		movq	-16(%rbp), %rax
 275 0025 488B00   		movq	(%rax), %rax
 276 0028 488B55F8 		movq	-8(%rbp), %rdx
 277 002c 4883C20C 		addq	$12, %rdx
 278 0030 4889C6   		movq	%rax, %rsi
 279 0033 4889D7   		movq	%rdx, %rdi
 280 0036 E8000000 		call	strcpy
 280      00
  42:RecordingReporter.h ****         strcpy(lastStartedTest, test.testName);
 281              		.loc 4 42 0
 282 003b 488B45F0 		movq	-16(%rbp), %rax
 283 003f 488B4008 		movq	8(%rax), %rax
 284 0043 488B55F8 		movq	-8(%rbp), %rdx
 285 0047 4881C20C 		addq	$268, %rdx
 285      010000
 286 004e 4889C6   		movq	%rax, %rsi
 287 0051 4889D7   		movq	%rdx, %rdi
 288 0054 E8000000 		call	strcpy
 288      00
  43:RecordingReporter.h ****     }
 289              		.loc 4 43 0
 290 0059 90       		nop
 291 005a C9       		leave
 292              		.cfi_def_cfa 7, 8
 293 005b C3       		ret
 294              		.cfi_endproc
 295              	.LFE1075:
 297              		.section	.text._ZN17RecordingReporter13ReportFailureERKN8UnitTest11TestDetailsEPKc,"axG",@progbits
 298              		.align 2
 299              		.weak	_ZN17RecordingReporter13ReportFailureERKN8UnitTest11TestDetailsEPKc
 301              	_ZN17RecordingReporter13ReportFailureERKN8UnitTest11TestDetailsEPKc:
 302              	.LFB1076:
  44:RecordingReporter.h **** 
  45:RecordingReporter.h ****     virtual void ReportFailure(UnitTest::TestDetails const& test, char const* failure)
 303              		.loc 4 45 0
 304              		.cfi_startproc
 305 0000 55       		pushq	%rbp
 306              		.cfi_def_cfa_offset 16
 307              		.cfi_offset 6, -16
 308 0001 4889E5   		movq	%rsp, %rbp
 309              		.cfi_def_cfa_register 6
 310 0004 4883EC20 		subq	$32, %rsp
 311 0008 48897DF8 		movq	%rdi, -8(%rbp)
 312 000c 488975F0 		movq	%rsi, -16(%rbp)
 313 0010 488955E8 		movq	%rdx, -24(%rbp)
  46:RecordingReporter.h ****     {
  47:RecordingReporter.h **** 		using namespace std;
  48:RecordingReporter.h **** 
  49:RecordingReporter.h **** 		++testFailedCount;
 314              		.loc 4 49 0
 315 0014 488B45F8 		movq	-8(%rbp), %rax
 316 0018 8B800C02 		movl	524(%rax), %eax
 316      0000
 317 001e 8D5001   		leal	1(%rax), %edx
 318 0021 488B45F8 		movq	-8(%rbp), %rax
 319 0025 89900C02 		movl	%edx, 524(%rax)
 319      0000
  50:RecordingReporter.h ****         strcpy(lastFailedFile, test.filename);
 320              		.loc 4 50 0
 321 002b 488B45F0 		movq	-16(%rbp), %rax
 322 002f 488B4010 		movq	16(%rax), %rax
 323 0033 488B55F8 		movq	-8(%rbp), %rdx
 324 0037 4881C210 		addq	$528, %rdx
 324      020000
 325 003e 4889C6   		movq	%rax, %rsi
 326 0041 4889D7   		movq	%rdx, %rdi
 327 0044 E8000000 		call	strcpy
 327      00
  51:RecordingReporter.h ****         lastFailedLine = test.lineNumber;
 328              		.loc 4 51 0
 329 0049 488B45F0 		movq	-16(%rbp), %rax
 330 004d 8B5018   		movl	24(%rax), %edx
 331 0050 488B45F8 		movq	-8(%rbp), %rax
 332 0054 89901003 		movl	%edx, 784(%rax)
 332      0000
  52:RecordingReporter.h ****         strcpy(lastFailedSuite, test.suiteName);
 333              		.loc 4 52 0
 334 005a 488B45F0 		movq	-16(%rbp), %rax
 335 005e 488B00   		movq	(%rax), %rax
 336 0061 488B55F8 		movq	-8(%rbp), %rdx
 337 0065 4881C214 		addq	$788, %rdx
 337      030000
 338 006c 4889C6   		movq	%rax, %rsi
 339 006f 4889D7   		movq	%rdx, %rdi
 340 0072 E8000000 		call	strcpy
 340      00
  53:RecordingReporter.h ****         strcpy(lastFailedTest, test.testName);
 341              		.loc 4 53 0
 342 0077 488B45F0 		movq	-16(%rbp), %rax
 343 007b 488B4008 		movq	8(%rax), %rax
 344 007f 488B55F8 		movq	-8(%rbp), %rdx
 345 0083 4881C214 		addq	$1044, %rdx
 345      040000
 346 008a 4889C6   		movq	%rax, %rsi
 347 008d 4889D7   		movq	%rdx, %rdi
 348 0090 E8000000 		call	strcpy
 348      00
  54:RecordingReporter.h ****         strcpy(lastFailedMessage, failure);
 349              		.loc 4 54 0
 350 0095 488B45F8 		movq	-8(%rbp), %rax
 351 0099 488D9014 		leaq	1300(%rax), %rdx
 351      050000
 352 00a0 488B45E8 		movq	-24(%rbp), %rax
 353 00a4 4889C6   		movq	%rax, %rsi
 354 00a7 4889D7   		movq	%rdx, %rdi
 355 00aa E8000000 		call	strcpy
 355      00
  55:RecordingReporter.h ****     }
 356              		.loc 4 55 0
 357 00af 90       		nop
 358 00b0 C9       		leave
 359              		.cfi_def_cfa 7, 8
 360 00b1 C3       		ret
 361              		.cfi_endproc
 362              	.LFE1076:
 364              		.section	.text._ZN17RecordingReporter16ReportTestFinishERKN8UnitTest11TestDetailsEf,"axG",@progbit
 365              		.align 2
 366              		.weak	_ZN17RecordingReporter16ReportTestFinishERKN8UnitTest11TestDetailsEf
 368              	_ZN17RecordingReporter16ReportTestFinishERKN8UnitTest11TestDetailsEf:
 369              	.LFB1077:
  56:RecordingReporter.h **** 
  57:RecordingReporter.h ****     virtual void ReportTestFinish(UnitTest::TestDetails const& test, float testDuration)
 370              		.loc 4 57 0
 371              		.cfi_startproc
 372 0000 55       		pushq	%rbp
 373              		.cfi_def_cfa_offset 16
 374              		.cfi_offset 6, -16
 375 0001 4889E5   		movq	%rsp, %rbp
 376              		.cfi_def_cfa_register 6
 377 0004 4883EC20 		subq	$32, %rsp
 378 0008 48897DF8 		movq	%rdi, -8(%rbp)
 379 000c 488975F0 		movq	%rsi, -16(%rbp)
 380 0010 F30F1145 		movss	%xmm0, -20(%rbp)
 380      EC
  58:RecordingReporter.h ****     {
  59:RecordingReporter.h **** 		using namespace std;
  60:RecordingReporter.h **** 
  61:RecordingReporter.h **** 		++testFinishedCount;
 381              		.loc 4 61 0
 382 0015 488B45F8 		movq	-8(%rbp), %rax
 383 0019 8B801406 		movl	1556(%rax), %eax
 383      0000
 384 001f 8D5001   		leal	1(%rax), %edx
 385 0022 488B45F8 		movq	-8(%rbp), %rax
 386 0026 89901406 		movl	%edx, 1556(%rax)
 386      0000
  62:RecordingReporter.h ****         strcpy(lastFinishedSuite, test.suiteName);
 387              		.loc 4 62 0
 388 002c 488B45F0 		movq	-16(%rbp), %rax
 389 0030 488B00   		movq	(%rax), %rax
 390 0033 488B55F8 		movq	-8(%rbp), %rdx
 391 0037 4881C218 		addq	$1560, %rdx
 391      060000
 392 003e 4889C6   		movq	%rax, %rsi
 393 0041 4889D7   		movq	%rdx, %rdi
 394 0044 E8000000 		call	strcpy
 394      00
  63:RecordingReporter.h ****         strcpy(lastFinishedTest, test.testName);
 395              		.loc 4 63 0
 396 0049 488B45F0 		movq	-16(%rbp), %rax
 397 004d 488B4008 		movq	8(%rax), %rax
 398 0051 488B55F8 		movq	-8(%rbp), %rdx
 399 0055 4881C218 		addq	$1816, %rdx
 399      070000
 400 005c 4889C6   		movq	%rax, %rsi
 401 005f 4889D7   		movq	%rdx, %rdi
 402 0062 E8000000 		call	strcpy
 402      00
  64:RecordingReporter.h ****         lastFinishedTestTime = testDuration;
 403              		.loc 4 64 0
 404 0067 488B45F8 		movq	-8(%rbp), %rax
 405 006b F30F1045 		movss	-20(%rbp), %xmm0
 405      EC
 406 0070 F30F1180 		movss	%xmm0, 2072(%rax)
 406      18080000 
  65:RecordingReporter.h ****     }
 407              		.loc 4 65 0
 408 0078 90       		nop
 409 0079 C9       		leave
 410              		.cfi_def_cfa 7, 8
 411 007a C3       		ret
 412              		.cfi_endproc
 413              	.LFE1077:
 415              		.section	.text._ZN17RecordingReporter13ReportSummaryEiiif,"axG",@progbits,_ZN17RecordingReporter13
 416              		.align 2
 417              		.weak	_ZN17RecordingReporter13ReportSummaryEiiif
 419              	_ZN17RecordingReporter13ReportSummaryEiiif:
 420              	.LFB1078:
  66:RecordingReporter.h **** 
  67:RecordingReporter.h ****     virtual void ReportSummary(int totalTestCount, int failedTestCount, int failureCount, float sec
 421              		.loc 4 67 0
 422              		.cfi_startproc
 423 0000 55       		pushq	%rbp
 424              		.cfi_def_cfa_offset 16
 425              		.cfi_offset 6, -16
 426 0001 4889E5   		movq	%rsp, %rbp
 427              		.cfi_def_cfa_register 6
 428 0004 48897DF8 		movq	%rdi, -8(%rbp)
 429 0008 8975F4   		movl	%esi, -12(%rbp)
 430 000b 8955F0   		movl	%edx, -16(%rbp)
 431 000e 894DEC   		movl	%ecx, -20(%rbp)
 432 0011 F30F1145 		movss	%xmm0, -24(%rbp)
 432      E8
  68:RecordingReporter.h ****     {
  69:RecordingReporter.h ****         summaryTotalTestCount = totalTestCount;
 433              		.loc 4 69 0
 434 0016 488B45F8 		movq	-8(%rbp), %rax
 435 001a 8B55F4   		movl	-12(%rbp), %edx
 436 001d 89901C08 		movl	%edx, 2076(%rax)
 436      0000
  70:RecordingReporter.h ****         summaryFailedTestCount = failedTestCount;
 437              		.loc 4 70 0
 438 0023 488B45F8 		movq	-8(%rbp), %rax
 439 0027 8B55F0   		movl	-16(%rbp), %edx
 440 002a 89902008 		movl	%edx, 2080(%rax)
 440      0000
  71:RecordingReporter.h ****         summaryFailureCount = failureCount;
 441              		.loc 4 71 0
 442 0030 488B45F8 		movq	-8(%rbp), %rax
 443 0034 8B55EC   		movl	-20(%rbp), %edx
 444 0037 89902408 		movl	%edx, 2084(%rax)
 444      0000
  72:RecordingReporter.h ****         summarySecondsElapsed = secondsElapsed;
 445              		.loc 4 72 0
 446 003d 488B45F8 		movq	-8(%rbp), %rax
 447 0041 F30F1045 		movss	-24(%rbp), %xmm0
 447      E8
 448 0046 F30F1180 		movss	%xmm0, 2088(%rax)
 448      28080000 
  73:RecordingReporter.h ****     }
 449              		.loc 4 73 0
 450 004e 90       		nop
 451 004f 5D       		popq	%rbp
 452              		.cfi_def_cfa 7, 8
 453 0050 C3       		ret
 454              		.cfi_endproc
 455              	.LFE1078:
 457              		.section	.text._ZN17ScopedCurrentTestC2ERN8UnitTest11TestResultsEPKNS0_11TestDetailsE,"axG",@progb
 458              		.align 2
 459              		.weak	_ZN17ScopedCurrentTestC2ERN8UnitTest11TestResultsEPKNS0_11TestDetailsE
 461              	_ZN17ScopedCurrentTestC2ERN8UnitTest11TestResultsEPKNS0_11TestDetailsE:
 462              	.LFB1083:
 463              		.file 5 "ScopedCurrentTest.h"
   1:ScopedCurrentTest.h **** #ifndef UNITTEST_SCOPEDCURRENTTEST_H
   2:ScopedCurrentTest.h **** #define UNITTEST_SCOPEDCURRENTTEST_H
   3:ScopedCurrentTest.h **** 
   4:ScopedCurrentTest.h **** #include "../CurrentTest.h"
   5:ScopedCurrentTest.h **** #include <cstddef>
   6:ScopedCurrentTest.h **** 
   7:ScopedCurrentTest.h **** class ScopedCurrentTest
   8:ScopedCurrentTest.h **** {
   9:ScopedCurrentTest.h **** public:
  10:ScopedCurrentTest.h **** 	ScopedCurrentTest()
  11:ScopedCurrentTest.h **** 		: m_oldTestResults(UnitTest::CurrentTest::Results())
  12:ScopedCurrentTest.h **** 		, m_oldTestDetails(UnitTest::CurrentTest::Details())
  13:ScopedCurrentTest.h **** 	{
  14:ScopedCurrentTest.h **** 	}
  15:ScopedCurrentTest.h **** 
  16:ScopedCurrentTest.h **** 	explicit ScopedCurrentTest(UnitTest::TestResults& newResults, const UnitTest::TestDetails* newDeta
 464              		.loc 5 16 0
 465              		.cfi_startproc
 466 0000 55       		pushq	%rbp
 467              		.cfi_def_cfa_offset 16
 468              		.cfi_offset 6, -16
 469 0001 4889E5   		movq	%rsp, %rbp
 470              		.cfi_def_cfa_register 6
 471 0004 4883EC20 		subq	$32, %rsp
 472 0008 48897DF8 		movq	%rdi, -8(%rbp)
 473 000c 488975F0 		movq	%rsi, -16(%rbp)
 474 0010 488955E8 		movq	%rdx, -24(%rbp)
 475              	.LBB6:
  17:ScopedCurrentTest.h **** 		: m_oldTestResults(UnitTest::CurrentTest::Results())
 476              		.loc 5 17 0
 477 0014 E8000000 		call	_ZN8UnitTest11CurrentTest7ResultsEv
 477      00
 478 0019 488B10   		movq	(%rax), %rdx
  18:ScopedCurrentTest.h **** 		, m_oldTestDetails(UnitTest::CurrentTest::Details())
 479              		.loc 5 18 0
 480 001c 488B45F8 		movq	-8(%rbp), %rax
 481 0020 488910   		movq	%rdx, (%rax)
 482 0023 E8000000 		call	_ZN8UnitTest11CurrentTest7DetailsEv
 482      00
 483 0028 488B10   		movq	(%rax), %rdx
 484 002b 488B45F8 		movq	-8(%rbp), %rax
 485 002f 48895008 		movq	%rdx, 8(%rax)
  19:ScopedCurrentTest.h **** 	{
  20:ScopedCurrentTest.h **** 		UnitTest::CurrentTest::Results() = &newResults;
 486              		.loc 5 20 0
 487 0033 E8000000 		call	_ZN8UnitTest11CurrentTest7ResultsEv
 487      00
 488 0038 4889C2   		movq	%rax, %rdx
 489 003b 488B45F0 		movq	-16(%rbp), %rax
 490 003f 488902   		movq	%rax, (%rdx)
  21:ScopedCurrentTest.h **** 
  22:ScopedCurrentTest.h **** 		if (newDetails != NULL)
 491              		.loc 5 22 0
 492 0042 48837DE8 		cmpq	$0, -24(%rbp)
 492      00
 493 0047 740F     		je	.L18
  23:ScopedCurrentTest.h **** 			UnitTest::CurrentTest::Details() = newDetails;
 494              		.loc 5 23 0
 495 0049 E8000000 		call	_ZN8UnitTest11CurrentTest7DetailsEv
 495      00
 496 004e 4889C2   		movq	%rax, %rdx
 497 0051 488B45E8 		movq	-24(%rbp), %rax
 498 0055 488902   		movq	%rax, (%rdx)
 499              	.L18:
 500              	.LBE6:
  24:ScopedCurrentTest.h **** 	}
 501              		.loc 5 24 0
 502 0058 90       		nop
 503 0059 C9       		leave
 504              		.cfi_def_cfa 7, 8
 505 005a C3       		ret
 506              		.cfi_endproc
 507              	.LFE1083:
 509              		.weak	_ZN17ScopedCurrentTestC1ERN8UnitTest11TestResultsEPKNS0_11TestDetailsE
 510              		.set	_ZN17ScopedCurrentTestC1ERN8UnitTest11TestResultsEPKNS0_11TestDetailsE,_ZN17ScopedCurrentTest
 511              		.section	.text._ZN17ScopedCurrentTestD2Ev,"axG",@progbits,_ZN17ScopedCurrentTestD5Ev,comdat
 512              		.align 2
 513              		.weak	_ZN17ScopedCurrentTestD2Ev
 515              	_ZN17ScopedCurrentTestD2Ev:
 516              	.LFB1086:
  25:ScopedCurrentTest.h **** 
  26:ScopedCurrentTest.h **** 	~ScopedCurrentTest()
 517              		.loc 5 26 0
 518              		.cfi_startproc
 519 0000 55       		pushq	%rbp
 520              		.cfi_def_cfa_offset 16
 521              		.cfi_offset 6, -16
 522 0001 4889E5   		movq	%rsp, %rbp
 523              		.cfi_def_cfa_register 6
 524 0004 4883EC10 		subq	$16, %rsp
 525 0008 48897DF8 		movq	%rdi, -8(%rbp)
 526              	.LBB7:
  27:ScopedCurrentTest.h **** 	{
  28:ScopedCurrentTest.h **** 		UnitTest::CurrentTest::Results() = m_oldTestResults;
 527              		.loc 5 28 0
 528 000c E8000000 		call	_ZN8UnitTest11CurrentTest7ResultsEv
 528      00
 529 0011 4889C2   		movq	%rax, %rdx
 530 0014 488B45F8 		movq	-8(%rbp), %rax
 531 0018 488B00   		movq	(%rax), %rax
 532 001b 488902   		movq	%rax, (%rdx)
  29:ScopedCurrentTest.h **** 		UnitTest::CurrentTest::Details() = m_oldTestDetails;
 533              		.loc 5 29 0
 534 001e E8000000 		call	_ZN8UnitTest11CurrentTest7DetailsEv
 534      00
 535 0023 4889C2   		movq	%rax, %rdx
 536 0026 488B45F8 		movq	-8(%rbp), %rax
 537 002a 488B4008 		movq	8(%rax), %rax
 538 002e 488902   		movq	%rax, (%rdx)
 539              	.LBE7:
  30:ScopedCurrentTest.h **** 	}
 540              		.loc 5 30 0
 541 0031 90       		nop
 542 0032 C9       		leave
 543              		.cfi_def_cfa 7, 8
 544 0033 C3       		ret
 545              		.cfi_endproc
 546              	.LFE1086:
 548              		.weak	_ZN17ScopedCurrentTestD1Ev
 549              		.set	_ZN17ScopedCurrentTestD1Ev,_ZN17ScopedCurrentTestD2Ev
 550              		.local	_ZN12_GLOBAL__N_15list1E
 551              		.comm	_ZN12_GLOBAL__N_15list1E,16,16
 552              		.section	.rodata
 553              	.LC2:
 554 000d 54657374 		.string	"TestTestMacros.cpp"
 554      54657374 
 554      4D616372 
 554      6F732E63 
 554      707000
 555              	.LC3:
 556 0020 44756D6D 		.string	"DummyTest"
 556      79546573 
 556      7400
 557              		.text
 558              		.align 2
 560              	_ZN12_GLOBAL__N_113TestDummyTestC2Ev:
 561              	.LFB1089:
 562              		.file 6 "TestTestMacros.cpp"
   1:TestTestMacros.cpp **** #include "../UnitTest++.h"
   2:TestTestMacros.cpp **** #include "../TestMacros.h"
   3:TestTestMacros.cpp **** #include "../TestList.h"
   4:TestTestMacros.cpp **** #include "../TestResults.h"
   5:TestTestMacros.cpp **** #include "../TestReporter.h"
   6:TestTestMacros.cpp **** #include "../ReportAssert.h"
   7:TestTestMacros.cpp **** #include "RecordingReporter.h"
   8:TestTestMacros.cpp **** #include "ScopedCurrentTest.h"
   9:TestTestMacros.cpp **** 
  10:TestTestMacros.cpp **** using namespace UnitTest;
  11:TestTestMacros.cpp **** 
  12:TestTestMacros.cpp **** namespace {
  13:TestTestMacros.cpp **** 
  14:TestTestMacros.cpp **** TestList list1;
  15:TestTestMacros.cpp **** TEST_EX(DummyTest, list1)
 563              		.loc 6 15 0
 564              		.cfi_startproc
 565 0000 55       		pushq	%rbp
 566              		.cfi_def_cfa_offset 16
 567              		.cfi_offset 6, -16
 568 0001 4889E5   		movq	%rsp, %rbp
 569              		.cfi_def_cfa_register 6
 570 0004 4883EC10 		subq	$16, %rsp
 571 0008 48897DF8 		movq	%rdi, -8(%rbp)
 572              	.LBB8:
 573              		.loc 6 15 0
 574 000c E8000000 		call	_ZN13UnitTestSuite12GetSuiteNameEv
 574      00
 575 0011 4889C2   		movq	%rax, %rdx
 576 0014 488B45F8 		movq	-8(%rbp), %rax
 577 0018 41B80F00 		movl	$15, %r8d
 577      0000
 578 001e B9000000 		movl	$.LC2, %ecx
 578      00
 579 0023 BE000000 		movl	$.LC3, %esi
 579      00
 580 0028 4889C7   		movq	%rax, %rdi
 581 002b E8000000 		call	_ZN8UnitTest4TestC2EPKcS2_S2_i
 581      00
 582 0030 BA000000 		movl	$_ZTVN12_GLOBAL__N_113TestDummyTestE+16, %edx
 582      00
 583 0035 488B45F8 		movq	-8(%rbp), %rax
 584 0039 488910   		movq	%rdx, (%rax)
 585              	.LBE8:
 586 003c 90       		nop
 587 003d C9       		leave
 588              		.cfi_def_cfa 7, 8
 589 003e C3       		ret
 590              		.cfi_endproc
 591              	.LFE1089:
 593              		.set	_ZN12_GLOBAL__N_113TestDummyTestC1Ev,_ZN12_GLOBAL__N_113TestDummyTestC2Ev
 594              		.local	_ZN12_GLOBAL__N_121testDummyTestInstanceE
 595              		.comm	_ZN12_GLOBAL__N_121testDummyTestInstanceE,56,32
 596              		.local	_ZN12_GLOBAL__N_114adderDummyTestE
 597              		.comm	_ZN12_GLOBAL__N_114adderDummyTestE,1,1
 598 003f 90       		.align 2
 600              	_ZNK12_GLOBAL__N_113TestDummyTest7RunImplEv:
 601              	.LFB1091:
  16:TestTestMacros.cpp **** {
 602              		.loc 6 16 0
 603              		.cfi_startproc
 604 0040 55       		pushq	%rbp
 605              		.cfi_def_cfa_offset 16
 606              		.cfi_offset 6, -16
 607 0041 4889E5   		movq	%rsp, %rbp
 608              		.cfi_def_cfa_register 6
 609 0044 48897DF8 		movq	%rdi, -8(%rbp)
  17:TestTestMacros.cpp **** }
 610              		.loc 6 17 0
 611 0048 90       		nop
 612 0049 5D       		popq	%rbp
 613              		.cfi_def_cfa 7, 8
 614 004a C3       		ret
 615              		.cfi_endproc
 616              	.LFE1091:
 618              		.section	.rodata
 619 002a 00000000 		.align 8
 619      0000
 620              	.LC4:
 621 0030 54657374 		.string	"TestsAreAddedToTheListThroughMacro"
 621      73417265 
 621      41646465 
 621      64546F54 
 621      68654C69 
 622              		.text
 623 004b 90       		.align 2
 625              	_ZN12_GLOBAL__N_138TestTestsAreAddedToTheListThroughMacroC2Ev:
 626              	.LFB1093:
  18:TestTestMacros.cpp **** 
  19:TestTestMacros.cpp **** TEST (TestsAreAddedToTheListThroughMacro)
 627              		.loc 6 19 0
 628              		.cfi_startproc
 629 004c 55       		pushq	%rbp
 630              		.cfi_def_cfa_offset 16
 631              		.cfi_offset 6, -16
 632 004d 4889E5   		movq	%rsp, %rbp
 633              		.cfi_def_cfa_register 6
 634 0050 4883EC10 		subq	$16, %rsp
 635 0054 48897DF8 		movq	%rdi, -8(%rbp)
 636              	.LBB9:
 637              		.loc 6 19 0
 638 0058 E8000000 		call	_ZN13UnitTestSuite12GetSuiteNameEv
 638      00
 639 005d 4889C2   		movq	%rax, %rdx
 640 0060 488B45F8 		movq	-8(%rbp), %rax
 641 0064 41B81300 		movl	$19, %r8d
 641      0000
 642 006a B9000000 		movl	$.LC2, %ecx
 642      00
 643 006f BE000000 		movl	$.LC4, %esi
 643      00
 644 0074 4889C7   		movq	%rax, %rdi
 645 0077 E8000000 		call	_ZN8UnitTest4TestC2EPKcS2_S2_i
 645      00
 646 007c BA000000 		movl	$_ZTVN12_GLOBAL__N_138TestTestsAreAddedToTheListThroughMacroE+16, %edx
 646      00
 647 0081 488B45F8 		movq	-8(%rbp), %rax
 648 0085 488910   		movq	%rdx, (%rax)
 649              	.LBE9:
 650 0088 90       		nop
 651 0089 C9       		leave
 652              		.cfi_def_cfa 7, 8
 653 008a C3       		ret
 654              		.cfi_endproc
 655              	.LFE1093:
 657              		.set	_ZN12_GLOBAL__N_138TestTestsAreAddedToTheListThroughMacroC1Ev,_ZN12_GLOBAL__N_138TestTestsAre
 658              		.local	_ZN12_GLOBAL__N_146testTestsAreAddedToTheListThroughMacroInstanceE
 659              		.comm	_ZN12_GLOBAL__N_146testTestsAreAddedToTheListThroughMacroInstanceE,56,32
 660              		.local	_ZN12_GLOBAL__N_139adderTestsAreAddedToTheListThroughMacroE
 661              		.comm	_ZN12_GLOBAL__N_139adderTestsAreAddedToTheListThroughMacroE,1,1
 662              		.section	.rodata
 663              	.LC5:
 664 0053 6C697374 		.string	"list1.GetHead() != 0"
 664      312E4765 
 664      74486561 
 664      64282920 
 664      213D2030 
 665              	.LC6:
 666 0068 6C697374 		.string	"list1.GetHead()->next == 0"
 666      312E4765 
 666      74486561 
 666      6428292D 
 666      3E6E6578 
 667 0083 00000000 		.align 8
 667      00
 668              	.LC7:
 669 0088 556E6861 		.string	"Unhandled exception in CHECK(list1.GetHead() != 0)"
 669      6E646C65 
 669      64206578 
 669      63657074 
 669      696F6E20 
 670 00bb 00000000 		.align 8
 670      00
 671              	.LC8:
 672 00c0 556E6861 		.string	"Unhandled exception in CHECK(list1.GetHead()->next == 0)"
 672      6E646C65 
 672      64206578 
 672      63657074 
 672      696F6E20 
 673              		.text
 674 008b 90       		.align 2
 676              	_ZNK12_GLOBAL__N_138TestTestsAreAddedToTheListThroughMacro7RunImplEv:
 677              	.LFB1095:
  20:TestTestMacros.cpp **** {
 678              		.loc 6 20 0
 679              		.cfi_startproc
 680              		.cfi_personality 0x3,__gxx_personality_v0
 681              		.cfi_lsda 0x3,.LLSDA1095
 682 008c 55       		pushq	%rbp
 683              		.cfi_def_cfa_offset 16
 684              		.cfi_offset 6, -16
 685 008d 4889E5   		movq	%rsp, %rbp
 686              		.cfi_def_cfa_register 6
 687 0090 53       		pushq	%rbx
 688 0091 4883EC48 		subq	$72, %rsp
 689              		.cfi_offset 3, -24
 690 0095 48897DB8 		movq	%rdi, -72(%rbp)
 691              		.loc 6 20 0
 692 0099 64488B04 		movq	%fs:40, %rax
 692      25280000 
 692      00
 693 00a2 488945E8 		movq	%rax, -24(%rbp)
 694 00a6 31C0     		xorl	%eax, %eax
  21:TestTestMacros.cpp ****     CHECK(list1.GetHead() != 0);
 695              		.loc 6 21 0
 696 00a8 BF000000 		movl	$_ZN12_GLOBAL__N_15list1E, %edi
 696      00
 697              	.LEHB4:
 698 00ad E8000000 		call	_ZNK8UnitTest8TestList7GetHeadEv
 698      00
 699 00b2 4885C0   		testq	%rax, %rax
 700 00b5 0F95C0   		setne	%al
 701 00b8 0FB6C0   		movzbl	%al, %eax
 702 00bb 89C7     		movl	%eax, %edi
 703 00bd E8000000 		call	_ZN8UnitTest5CheckIbEEbT_
 703      00
 704 00c2 83F001   		xorl	$1, %eax
 705 00c5 84C0     		testb	%al, %al
 706 00c7 7438     		je	.L24
 707              		.loc 6 21 0 is_stmt 0 discriminator 2
 708 00c9 E8000000 		call	_ZN8UnitTest11CurrentTest7DetailsEv
 708      00
 709 00ce 488B08   		movq	(%rax), %rcx
 710 00d1 488D45C0 		leaq	-64(%rbp), %rax
 711 00d5 BA150000 		movl	$21, %edx
 711      00
 712 00da 4889CE   		movq	%rcx, %rsi
 713 00dd 4889C7   		movq	%rax, %rdi
 714 00e0 E8000000 		call	_ZN8UnitTest11TestDetailsC1ERKS0_i
 714      00
 715              		.loc 6 21 0 discriminator 4
 716 00e5 E8000000 		call	_ZN8UnitTest11CurrentTest7ResultsEv
 716      00
 717 00ea 488B00   		movq	(%rax), %rax
 718 00ed 488D4DC0 		leaq	-64(%rbp), %rcx
 719 00f1 BA000000 		movl	$.LC5, %edx
 719      00
 720 00f6 4889CE   		movq	%rcx, %rsi
 721 00f9 4889C7   		movq	%rax, %rdi
 722 00fc E8000000 		call	_ZN8UnitTest11TestResults13OnTestFailureERKNS_11TestDetailsEPKc
 722      00
 723              	.LEHE4:
 724              	.L24:
  22:TestTestMacros.cpp ****     CHECK(list1.GetHead()->next == 0);
 725              		.loc 6 22 0 is_stmt 1
 726 0101 BF000000 		movl	$_ZN12_GLOBAL__N_15list1E, %edi
 726      00
 727              	.LEHB5:
 728 0106 E8000000 		call	_ZNK8UnitTest8TestList7GetHeadEv
 728      00
 729 010b 488B4028 		movq	40(%rax), %rax
 730 010f 4885C0   		testq	%rax, %rax
 731 0112 0F94C0   		sete	%al
 732 0115 0FB6C0   		movzbl	%al, %eax
 733 0118 89C7     		movl	%eax, %edi
 734 011a E8000000 		call	_ZN8UnitTest5CheckIbEEbT_
 734      00
 735 011f 83F001   		xorl	$1, %eax
 736 0122 84C0     		testb	%al, %al
 737 0124 0F84F400 		je	.L35
 737      0000
 738              		.loc 6 22 0 is_stmt 0 discriminator 2
 739 012a E8000000 		call	_ZN8UnitTest11CurrentTest7DetailsEv
 739      00
 740 012f 488B08   		movq	(%rax), %rcx
 741 0132 488D45C0 		leaq	-64(%rbp), %rax
 742 0136 BA160000 		movl	$22, %edx
 742      00
 743 013b 4889CE   		movq	%rcx, %rsi
 744 013e 4889C7   		movq	%rax, %rdi
 745 0141 E8000000 		call	_ZN8UnitTest11TestDetailsC1ERKS0_i
 745      00
 746              		.loc 6 22 0 discriminator 4
 747 0146 E8000000 		call	_ZN8UnitTest11CurrentTest7ResultsEv
 747      00
 748 014b 488B00   		movq	(%rax), %rax
 749 014e 488D4DC0 		leaq	-64(%rbp), %rcx
 750 0152 BA000000 		movl	$.LC6, %edx
 750      00
 751 0157 4889CE   		movq	%rcx, %rsi
 752 015a 4889C7   		movq	%rax, %rdi
 753 015d E8000000 		call	_ZN8UnitTest11TestResults13OnTestFailureERKNS_11TestDetailsEPKc
 753      00
 754              	.LEHE5:
  23:TestTestMacros.cpp **** }
 755              		.loc 6 23 0 is_stmt 1
 756 0162 E9B70000 		jmp	.L35
 756      00
 757              	.L31:
  21:TestTestMacros.cpp ****     CHECK(list1.GetHead() != 0);
 758              		.loc 6 21 0
 759 0167 4889C7   		movq	%rax, %rdi
 760 016a E8000000 		call	__cxa_begin_catch
 760      00
 761              	.LEHB6:
 762 016f E8000000 		call	_ZN8UnitTest11CurrentTest7DetailsEv
 762      00
 763 0174 488B08   		movq	(%rax), %rcx
 764 0177 488D45C0 		leaq	-64(%rbp), %rax
 765 017b BA150000 		movl	$21, %edx
 765      00
 766 0180 4889CE   		movq	%rcx, %rsi
 767 0183 4889C7   		movq	%rax, %rdi
 768 0186 E8000000 		call	_ZN8UnitTest11TestDetailsC1ERKS0_i
 768      00
  21:TestTestMacros.cpp ****     CHECK(list1.GetHead() != 0);
 769              		.loc 6 21 0 is_stmt 0 discriminator 12
 770 018b E8000000 		call	_ZN8UnitTest11CurrentTest7ResultsEv
 770      00
 771 0190 488B00   		movq	(%rax), %rax
 772 0193 488D4DC0 		leaq	-64(%rbp), %rcx
 773 0197 BA000000 		movl	$.LC7, %edx
 773      00
 774 019c 4889CE   		movq	%rcx, %rsi
 775 019f 4889C7   		movq	%rax, %rdi
 776 01a2 E8000000 		call	_ZN8UnitTest11TestResults13OnTestFailureERKNS_11TestDetailsEPKc
 776      00
 777              	.LEHE6:
 778              	.LEHB7:
  21:TestTestMacros.cpp ****     CHECK(list1.GetHead() != 0);
 779              		.loc 6 21 0 discriminator 16
 780 01a7 E8000000 		call	__cxa_end_catch
 780      00
 781              	.LEHE7:
 782 01ac E950FFFF 		jmp	.L24
 782      FF
 783              	.L32:
 784 01b1 4889C3   		movq	%rax, %rbx
  21:TestTestMacros.cpp ****     CHECK(list1.GetHead() != 0);
 785              		.loc 6 21 0
 786 01b4 E8000000 		call	__cxa_end_catch
 786      00
 787 01b9 4889D8   		movq	%rbx, %rax
 788 01bc 4889C7   		movq	%rax, %rdi
 789              	.LEHB8:
 790 01bf E8000000 		call	_Unwind_Resume
 790      00
 791              	.LEHE8:
 792              	.L33:
  22:TestTestMacros.cpp ****     CHECK(list1.GetHead()->next == 0);
 793              		.loc 6 22 0 is_stmt 1
 794 01c4 4889C7   		movq	%rax, %rdi
 795 01c7 E8000000 		call	__cxa_begin_catch
 795      00
 796              	.LEHB9:
 797 01cc E8000000 		call	_ZN8UnitTest11CurrentTest7DetailsEv
 797      00
 798 01d1 488B08   		movq	(%rax), %rcx
 799 01d4 488D45C0 		leaq	-64(%rbp), %rax
 800 01d8 BA160000 		movl	$22, %edx
 800      00
 801 01dd 4889CE   		movq	%rcx, %rsi
 802 01e0 4889C7   		movq	%rax, %rdi
 803 01e3 E8000000 		call	_ZN8UnitTest11TestDetailsC1ERKS0_i
 803      00
  22:TestTestMacros.cpp ****     CHECK(list1.GetHead()->next == 0);
 804              		.loc 6 22 0 is_stmt 0 discriminator 12
 805 01e8 E8000000 		call	_ZN8UnitTest11CurrentTest7ResultsEv
 805      00
 806 01ed 488B00   		movq	(%rax), %rax
 807 01f0 488D4DC0 		leaq	-64(%rbp), %rcx
 808 01f4 BA000000 		movl	$.LC8, %edx
 808      00
 809 01f9 4889CE   		movq	%rcx, %rsi
 810 01fc 4889C7   		movq	%rax, %rdi
 811 01ff E8000000 		call	_ZN8UnitTest11TestResults13OnTestFailureERKNS_11TestDetailsEPKc
 811      00
 812              	.LEHE9:
 813              	.LEHB10:
  22:TestTestMacros.cpp ****     CHECK(list1.GetHead()->next == 0);
 814              		.loc 6 22 0 discriminator 16
 815 0204 E8000000 		call	__cxa_end_catch
 815      00
 816              	.LEHE10:
 817              		.loc 6 23 0 is_stmt 1 discriminator 16
 818 0209 EB13     		jmp	.L35
 819              	.L34:
 820 020b 4889C3   		movq	%rax, %rbx
  22:TestTestMacros.cpp ****     CHECK(list1.GetHead()->next == 0);
 821              		.loc 6 22 0
 822 020e E8000000 		call	__cxa_end_catch
 822      00
 823 0213 4889D8   		movq	%rbx, %rax
 824 0216 4889C7   		movq	%rax, %rdi
 825              	.LEHB11:
 826 0219 E8000000 		call	_Unwind_Resume
 826      00
 827              	.LEHE11:
 828              	.L35:
 829              		.loc 6 23 0
 830 021e 90       		nop
 831 021f 488B45E8 		movq	-24(%rbp), %rax
 832 0223 64483304 		xorq	%fs:40, %rax
 832      25280000 
 832      00
 833 022c 7405     		je	.L30
 834 022e E8000000 		call	__stack_chk_fail
 834      00
 835              	.L30:
 836 0233 4883C448 		addq	$72, %rsp
 837 0237 5B       		popq	%rbx
 838 0238 5D       		popq	%rbp
 839              		.cfi_def_cfa 7, 8
 840 0239 C3       		ret
 841              		.cfi_endproc
 842              	.LFE1095:
 843              		.section	.gcc_except_table,"a",@progbits
 844              		.align 4
 845              	.LLSDA1095:
 846 0000 FF       		.byte	0xff
 847 0001 03       		.byte	0x3
 848 0002 35       		.uleb128 .LLSDATT1095-.LLSDATTD1095
 849              	.LLSDATTD1095:
 850 0003 01       		.byte	0x1
 851 0004 2A       		.uleb128 .LLSDACSE1095-.LLSDACSB1095
 852              	.LLSDACSB1095:
 853 0005 21       		.uleb128 .LEHB4-.LFB1095
 854 0006 54       		.uleb128 .LEHE4-.LEHB4
 855 0007 DB01     		.uleb128 .L31-.LFB1095
 856 0009 01       		.uleb128 0x1
 857 000a 7A       		.uleb128 .LEHB5-.LFB1095
 858 000b 5C       		.uleb128 .LEHE5-.LEHB5
 859 000c B802     		.uleb128 .L33-.LFB1095
 860 000e 01       		.uleb128 0x1
 861 000f E301     		.uleb128 .LEHB6-.LFB1095
 862 0011 38       		.uleb128 .LEHE6-.LEHB6
 863 0012 A502     		.uleb128 .L32-.LFB1095
 864 0014 00       		.uleb128 0
 865 0015 9B02     		.uleb128 .LEHB7-.LFB1095
 866 0017 05       		.uleb128 .LEHE7-.LEHB7
 867 0018 00       		.uleb128 0
 868 0019 00       		.uleb128 0
 869 001a B302     		.uleb128 .LEHB8-.LFB1095
 870 001c 05       		.uleb128 .LEHE8-.LEHB8
 871 001d 00       		.uleb128 0
 872 001e 00       		.uleb128 0
 873 001f C002     		.uleb128 .LEHB9-.LFB1095
 874 0021 38       		.uleb128 .LEHE9-.LEHB9
 875 0022 FF02     		.uleb128 .L34-.LFB1095
 876 0024 00       		.uleb128 0
 877 0025 F802     		.uleb128 .LEHB10-.LFB1095
 878 0027 05       		.uleb128 .LEHE10-.LEHB10
 879 0028 00       		.uleb128 0
 880 0029 00       		.uleb128 0
 881 002a 8D03     		.uleb128 .LEHB11-.LFB1095
 882 002c 05       		.uleb128 .LEHE11-.LEHB11
 883 002d 00       		.uleb128 0
 884 002e 00       		.uleb128 0
 885              	.LLSDACSE1095:
 886 002f 01       		.byte	0x1
 887 0030 00       		.byte	0
 888 0031 000000   		.align 4
 889 0034 00000000 		.long	0
 890              	
 891              	.LLSDATT1095:
 892              		.text
 894              		.section	.rodata
 895              	.LC9:
 896 00f9 4F6F7073 		.string	"Oops"
 896      00
 897              		.text
 898              		.align 2
 900              	_ZN12_GLOBAL__N_115ThrowingThingieC2Ev:
 901              	.LFB1097:
  24:TestTestMacros.cpp **** 
  25:TestTestMacros.cpp **** struct ThrowingThingie
  26:TestTestMacros.cpp **** {
  27:TestTestMacros.cpp ****     ThrowingThingie() : dummy(false)
 902              		.loc 6 27 0
 903              		.cfi_startproc
 904 023a 55       		pushq	%rbp
 905              		.cfi_def_cfa_offset 16
 906              		.cfi_offset 6, -16
 907 023b 4889E5   		movq	%rsp, %rbp
 908              		.cfi_def_cfa_register 6
 909 023e 4883EC10 		subq	$16, %rsp
 910 0242 48897DF8 		movq	%rdi, -8(%rbp)
 911              	.LBB10:
 912              		.loc 6 27 0
 913 0246 488B45F8 		movq	-8(%rbp), %rax
 914 024a C60000   		movb	$0, (%rax)
  28:TestTestMacros.cpp ****     {
  29:TestTestMacros.cpp ****         if (!dummy)
 915              		.loc 6 29 0
 916 024d 488B45F8 		movq	-8(%rbp), %rax
 917 0251 0FB600   		movzbl	(%rax), %eax
 918 0254 83F001   		xorl	$1, %eax
 919 0257 84C0     		testb	%al, %al
 920 0259 7423     		je	.L38
  30:TestTestMacros.cpp ****             throw "Oops";
 921              		.loc 6 30 0
 922 025b BF080000 		movl	$8, %edi
 922      00
 923 0260 E8000000 		call	__cxa_allocate_exception
 923      00
 924 0265 48C70000 		movq	$.LC9, (%rax)
 924      000000
 925 026c BA000000 		movl	$0, %edx
 925      00
 926 0271 BE000000 		movl	$_ZTIPKc, %esi
 926      00
 927 0276 4889C7   		movq	%rax, %rdi
 928 0279 E8000000 		call	__cxa_throw
 928      00
 929              	.L38:
 930              	.LBE10:
  31:TestTestMacros.cpp ****     }
 931              		.loc 6 31 0
 932 027e 90       		nop
 933 027f C9       		leave
 934              		.cfi_def_cfa 7, 8
 935 0280 C3       		ret
 936              		.cfi_endproc
 937              	.LFE1097:
 939              		.local	_ZN12_GLOBAL__N_15list2E
 940              		.comm	_ZN12_GLOBAL__N_15list2E,16,16
 941 0281 90       		.align 2
 943              	_ZN12_GLOBAL__N_134ThrowingThingieDummyTestNameHelperC2ERKN8UnitTest11TestDetailsE:
 944              	.LFB1100:
  32:TestTestMacros.cpp **** 
  33:TestTestMacros.cpp ****     bool dummy;
  34:TestTestMacros.cpp **** };
  35:TestTestMacros.cpp **** 
  36:TestTestMacros.cpp **** TestList list2;
  37:TestTestMacros.cpp **** TEST_FIXTURE_EX(ThrowingThingie, DummyTestName, list2)
 945              		.loc 6 37 0
 946              		.cfi_startproc
 947 0282 55       		pushq	%rbp
 948              		.cfi_def_cfa_offset 16
 949              		.cfi_offset 6, -16
 950 0283 4889E5   		movq	%rsp, %rbp
 951              		.cfi_def_cfa_register 6
 952 0286 4883EC10 		subq	$16, %rsp
 953 028a 48897DF8 		movq	%rdi, -8(%rbp)
 954 028e 488975F0 		movq	%rsi, -16(%rbp)
 955              	.LBB11:
 956              		.loc 6 37 0
 957 0292 488B45F8 		movq	-8(%rbp), %rax
 958 0296 4889C7   		movq	%rax, %rdi
 959 0299 E89CFFFF 		call	_ZN12_GLOBAL__N_115ThrowingThingieC2Ev
 959      FF
 960 029e 488B45F8 		movq	-8(%rbp), %rax
 961 02a2 488B55F0 		movq	-16(%rbp), %rdx
 962 02a6 48895008 		movq	%rdx, 8(%rax)
 963              	.LBE11:
 964 02aa 90       		nop
 965 02ab C9       		leave
 966              		.cfi_def_cfa 7, 8
 967 02ac C3       		ret
 968              		.cfi_endproc
 969              	.LFE1100:
 971              		.set	_ZN12_GLOBAL__N_134ThrowingThingieDummyTestNameHelperC1ERKN8UnitTest11TestDetailsE,_ZN12_GLOB
 972              		.section	.rodata
 973              	.LC10:
 974 00fe 44756D6D 		.string	"DummyTestName"
 974      79546573 
 974      744E616D 
 974      6500
 975              		.text
 976 02ad 90       		.align 2
 978              	_ZN12_GLOBAL__N_132TestThrowingThingieDummyTestNameC2Ev:
 979              	.LFB1103:
 980              		.loc 6 37 0
 981              		.cfi_startproc
 982 02ae 55       		pushq	%rbp
 983              		.cfi_def_cfa_offset 16
 984              		.cfi_offset 6, -16
 985 02af 4889E5   		movq	%rsp, %rbp
 986              		.cfi_def_cfa_register 6
 987 02b2 4883EC10 		subq	$16, %rsp
 988 02b6 48897DF8 		movq	%rdi, -8(%rbp)
 989              	.LBB12:
 990              		.loc 6 37 0
 991 02ba E8000000 		call	_ZN13UnitTestSuite12GetSuiteNameEv
 991      00
 992 02bf 4889C2   		movq	%rax, %rdx
 993 02c2 488B45F8 		movq	-8(%rbp), %rax
 994 02c6 41B82500 		movl	$37, %r8d
 994      0000
 995 02cc B9000000 		movl	$.LC2, %ecx
 995      00
 996 02d1 BE000000 		movl	$.LC10, %esi
 996      00
 997 02d6 4889C7   		movq	%rax, %rdi
 998 02d9 E8000000 		call	_ZN8UnitTest4TestC2EPKcS2_S2_i
 998      00
 999 02de BA000000 		movl	$_ZTVN12_GLOBAL__N_132TestThrowingThingieDummyTestNameE+16, %edx
 999      00
 1000 02e3 488B45F8 		movq	-8(%rbp), %rax
 1001 02e7 488910   		movq	%rdx, (%rax)
 1002              	.LBE12:
 1003 02ea 90       		nop
 1004 02eb C9       		leave
 1005              		.cfi_def_cfa 7, 8
 1006 02ec C3       		ret
 1007              		.cfi_endproc
 1008              	.LFE1103:
 1010              		.set	_ZN12_GLOBAL__N_132TestThrowingThingieDummyTestNameC1Ev,_ZN12_GLOBAL__N_132TestThrowingThingi
 1011              		.local	_ZN12_GLOBAL__N_140testThrowingThingieDummyTestNameInstanceE
 1012              		.comm	_ZN12_GLOBAL__N_140testThrowingThingieDummyTestNameInstanceE,56,32
 1013              		.local	_ZN12_GLOBAL__N_133adderThrowingThingieDummyTestNameE
 1014              		.comm	_ZN12_GLOBAL__N_133adderThrowingThingieDummyTestNameE,1,1
 1015              		.section	.rodata
 1016              	.LC11:
 1017 010c 556E6861 		.string	"Unhandled exception: "
 1017      6E646C65 
 1017      64206578 
 1017      63657074 
 1017      696F6E3A 
 1018 0122 00000000 		.align 8
 1018      0000
 1019              	.LC12:
 1020 0128 556E6861 		.string	"Unhandled exception while destroying fixture ThrowingThingie"
 1020      6E646C65 
 1020      64206578 
 1020      63657074 
 1020      696F6E20 
 1021 0165 000000   		.align 8
 1022              	.LC13:
 1023 0168 556E6861 		.string	"Unhandled exception while constructing fixture ThrowingThingie"
 1023      6E646C65 
 1023      64206578 
 1023      63657074 
 1023      696F6E20 
 1024              		.text
 1025 02ed 90       		.align 2
 1027              	_ZNK12_GLOBAL__N_132TestThrowingThingieDummyTestName7RunImplEv:
 1028              	.LFB1105:
 1029              		.loc 6 37 0
 1030              		.cfi_startproc
 1031              		.cfi_personality 0x3,__gxx_personality_v0
 1032              		.cfi_lsda 0x3,.LLSDA1105
 1033 02ee 55       		pushq	%rbp
 1034              		.cfi_def_cfa_offset 16
 1035              		.cfi_offset 6, -16
 1036 02ef 4889E5   		movq	%rsp, %rbp
 1037              		.cfi_def_cfa_register 6
 1038 02f2 4154     		pushq	%r12
 1039 02f4 53       		pushq	%rbx
 1040 02f5 4881ECF0 		subq	$496, %rsp
 1040      010000
 1041              		.cfi_offset 12, -24
 1042              		.cfi_offset 3, -32
 1043 02fc 4889BD08 		movq	%rdi, -504(%rbp)
 1043      FEFFFF
 1044              		.loc 6 37 0
 1045 0303 64488B04 		movq	%fs:40, %rax
 1045      25280000 
 1045      00
 1046 030c 488945E8 		movq	%rax, -24(%rbp)
 1047 0310 31C0     		xorl	%eax, %eax
 1048 0312 C6851FFE 		movb	$0, -481(%rbp)
 1048      FFFF00
 1049              	.LBB13:
 1050 0319 488B8508 		movq	-504(%rbp), %rax
 1050      FEFFFF
 1051 0320 488D5008 		leaq	8(%rax), %rdx
 1052 0324 488D8530 		leaq	-464(%rbp), %rax
 1052      FEFFFF
 1053 032b 4889D6   		movq	%rdx, %rsi
 1054 032e 4889C7   		movq	%rax, %rdi
 1055              	.LEHB12:
 1056 0331 E84CFFFF 		call	_ZN12_GLOBAL__N_134ThrowingThingieDummyTestNameHelperC1ERKN8UnitTest11TestDetailsE
 1056      FF
 1057              		.loc 6 37 0 is_stmt 0 discriminator 1
 1058 0336 C6851FFE 		movb	$1, -481(%rbp)
 1058      FFFF01
 1059 033d 488B8508 		movq	-504(%rbp), %rax
 1059      FEFFFF
 1060 0344 488D5008 		leaq	8(%rax), %rdx
 1061 0348 488D8530 		leaq	-464(%rbp), %rax
 1061      FEFFFF
 1062 034f 4889D6   		movq	%rdx, %rsi
 1063 0352 4889C7   		movq	%rax, %rdi
 1064 0355 E8EA2B00 		call	_ZN8UnitTest11ExecuteTestIN12_GLOBAL__N_134ThrowingThingieDummyTestNameHelperEEEvRT_RKNS_11Te
 1064      00
 1065              	.LEHE12:
 1066              	.LBE13:
 1067              		.loc 6 37 0
 1068 035a E9490200 		jmp	.L41
 1068      00
 1069              	.L54:
 1070 035f 4883FA01 		cmpq	$1, %rdx
 1071 0363 740F     		je	.L44
 1072 0365 4883FA02 		cmpq	$2, %rdx
 1073 0369 0F84A700 		je	.L45
 1073      0000
 1074 036f E94B0100 		jmp	.L59
 1074      00
 1075              	.L44:
 1076              	.LBB14:
 1077 0374 4889C7   		movq	%rax, %rdi
 1078 0377 E8000000 		call	__cxa_begin_catch
 1078      00
 1079 037c 48898520 		movq	%rax, -480(%rbp)
 1079      FEFFFF
 1080 0383 488B8520 		movq	-480(%rbp), %rax
 1080      FEFFFF
 1081 038a 488B00   		movq	(%rax), %rax
 1082 038d 4883C010 		addq	$16, %rax
 1083 0391 488B00   		movq	(%rax), %rax
 1084 0394 488B9520 		movq	-480(%rbp), %rdx
 1084      FEFFFF
 1085 039b 4889D7   		movq	%rdx, %rdi
 1086 039e FFD0     		call	*%rax
 1087 03a0 4889C3   		movq	%rax, %rbx
 1088 03a3 488B8520 		movq	-480(%rbp), %rax
 1088      FEFFFF
 1089 03aa 4889C7   		movq	%rax, %rdi
 1090              	.LEHB13:
 1091 03ad E8000000 		call	_ZNK8UnitTest15AssertException10LineNumberEv
 1091      00
 1092 03b2 4189C4   		movl	%eax, %r12d
 1093 03b5 488B8520 		movq	-480(%rbp), %rax
 1093      FEFFFF
 1094 03bc 4889C7   		movq	%rax, %rdi
 1095 03bf E8000000 		call	_ZNK8UnitTest15AssertException8FilenameEv
 1095      00
 1096              		.loc 6 37 0 discriminator 3
 1097 03c4 4889C1   		movq	%rax, %rcx
 1098 03c7 488B8508 		movq	-504(%rbp), %rax
 1098      FEFFFF
 1099 03ce 488B5008 		movq	8(%rax), %rdx
 1100 03d2 488B8508 		movq	-504(%rbp), %rax
 1100      FEFFFF
 1101 03d9 488B7010 		movq	16(%rax), %rsi
 1102 03dd 488D8530 		leaq	-464(%rbp), %rax
 1102      FEFFFF
 1103 03e4 4589E0   		movl	%r12d, %r8d
 1104 03e7 4889C7   		movq	%rax, %rdi
 1105 03ea E8000000 		call	_ZN8UnitTest11TestDetailsC1EPKcS2_S2_i
 1105      00
 1106              		.loc 6 37 0 discriminator 7
 1107 03ef E8000000 		call	_ZN8UnitTest11CurrentTest7ResultsEv
 1107      00
 1108 03f4 488B00   		movq	(%rax), %rax
 1109 03f7 488D8D30 		leaq	-464(%rbp), %rcx
 1109      FEFFFF
 1110 03fe 4889DA   		movq	%rbx, %rdx
 1111 0401 4889CE   		movq	%rcx, %rsi
 1112 0404 4889C7   		movq	%rax, %rdi
 1113 0407 E8000000 		call	_ZN8UnitTest11TestResults13OnTestFailureERKNS_11TestDetailsEPKc
 1113      00
 1114              	.LEHE13:
 1115              		.loc 6 37 0 discriminator 11
 1116 040c E8000000 		call	__cxa_end_catch
 1116      00
 1117              	.LBE14:
 1118 0411 E9920100 		jmp	.L41
 1118      00
 1119              	.L45:
 1120              	.LBB15:
 1121              		.loc 6 37 0
 1122 0416 4889C7   		movq	%rax, %rdi
 1123 0419 E8000000 		call	__cxa_begin_catch
 1123      00
 1124 041e 48898528 		movq	%rax, -472(%rbp)
 1124      FEFFFF
 1125              	.LBB16:
 1126 0425 488D8550 		leaq	-432(%rbp), %rax
 1126      FEFFFF
 1127 042c 4889C7   		movq	%rax, %rdi
 1128              	.LEHB14:
 1129 042f E8000000 		call	_ZN8UnitTest15MemoryOutStreamC1Ev
 1129      00
 1130              	.LEHE14:
 1131              		.loc 6 37 0 discriminator 13
 1132 0434 488B8528 		movq	-472(%rbp), %rax
 1132      FEFFFF
 1133 043b 488B00   		movq	(%rax), %rax
 1134 043e 4883C010 		addq	$16, %rax
 1135 0442 488B00   		movq	(%rax), %rax
 1136 0445 488B9528 		movq	-472(%rbp), %rdx
 1136      FEFFFF
 1137 044c 4889D7   		movq	%rdx, %rdi
 1138 044f FFD0     		call	*%rax
 1139 0451 4889C3   		movq	%rax, %rbx
 1140 0454 488D8550 		leaq	-432(%rbp), %rax
 1140      FEFFFF
 1141 045b BE000000 		movl	$.LC11, %esi
 1141      00
 1142 0460 4889C7   		movq	%rax, %rdi
 1143              	.LEHB15:
 1144 0463 E8000000 		call	_ZStlsISt11char_traitsIcEERSt13basic_ostreamIcT_ES5_PKc
 1144      00
 1145 0468 4889DE   		movq	%rbx, %rsi
 1146 046b 4889C7   		movq	%rax, %rdi
 1147 046e E8000000 		call	_ZStlsISt11char_traitsIcEERSt13basic_ostreamIcT_ES5_PKc
 1147      00
 1148              		.loc 6 37 0 discriminator 17
 1149 0473 488D8550 		leaq	-432(%rbp), %rax
 1149      FEFFFF
 1150 047a 4889C7   		movq	%rax, %rdi
 1151 047d E8000000 		call	_ZNK8UnitTest15MemoryOutStream7GetTextEv
 1151      00
 1152 0482 4989C4   		movq	%rax, %r12
 1153 0485 488B8508 		movq	-504(%rbp), %rax
 1153      FEFFFF
 1154 048c 488D5808 		leaq	8(%rax), %rbx
 1155 0490 E8000000 		call	_ZN8UnitTest11CurrentTest7ResultsEv
 1155      00
 1156              		.loc 6 37 0 discriminator 19
 1157 0495 488B00   		movq	(%rax), %rax
 1158 0498 4C89E2   		movq	%r12, %rdx
 1159 049b 4889DE   		movq	%rbx, %rsi
 1160 049e 4889C7   		movq	%rax, %rdi
 1161 04a1 E8000000 		call	_ZN8UnitTest11TestResults13OnTestFailureERKNS_11TestDetailsEPKc
 1161      00
 1162              	.LEHE15:
 1163              		.loc 6 37 0 discriminator 23
 1164 04a6 488D8550 		leaq	-432(%rbp), %rax
 1164      FEFFFF
 1165 04ad 4889C7   		movq	%rax, %rdi
 1166              	.LEHB16:
 1167 04b0 E8000000 		call	_ZN8UnitTest15MemoryOutStreamD1Ev
 1167      00
 1168              	.LEHE16:
 1169              	.LBE16:
 1170              		.loc 6 37 0 discriminator 24
 1171 04b5 E8000000 		call	__cxa_end_catch
 1171      00
 1172              	.LBE15:
 1173 04ba E9E90000 		jmp	.L41
 1173      00
 1174              	.L59:
 1175              		.loc 6 37 0
 1176 04bf 4889C7   		movq	%rax, %rdi
 1177 04c2 E8000000 		call	__cxa_begin_catch
 1177      00
 1178 04c7 80BD1FFE 		cmpb	$0, -481(%rbp)
 1178      FFFF00
 1179 04ce 7443     		je	.L47
 1180              		.loc 6 37 0 discriminator 26
 1181 04d0 488B8508 		movq	-504(%rbp), %rax
 1181      FEFFFF
 1182 04d7 488D4808 		leaq	8(%rax), %rcx
 1183 04db 488D8530 		leaq	-464(%rbp), %rax
 1183      FEFFFF
 1184 04e2 BA250000 		movl	$37, %edx
 1184      00
 1185 04e7 4889CE   		movq	%rcx, %rsi
 1186 04ea 4889C7   		movq	%rax, %rdi
 1187              	.LEHB17:
 1188 04ed E8000000 		call	_ZN8UnitTest11TestDetailsC1ERKS0_i
 1188      00
 1189              		.loc 6 37 0 discriminator 29
 1190 04f2 E8000000 		call	_ZN8UnitTest11CurrentTest7ResultsEv
 1190      00
 1191 04f7 488B00   		movq	(%rax), %rax
 1192 04fa 488D8D30 		leaq	-464(%rbp), %rcx
 1192      FEFFFF
 1193 0501 BA000000 		movl	$.LC12, %edx
 1193      00
 1194 0506 4889CE   		movq	%rcx, %rsi
 1195 0509 4889C7   		movq	%rax, %rdi
 1196 050c E8000000 		call	_ZN8UnitTest11TestResults13OnTestFailureERKNS_11TestDetailsEPKc
 1196      00
 1197 0511 EB41     		jmp	.L48
 1198              	.L47:
 1199              		.loc 6 37 0 discriminator 27
 1200 0513 488B8508 		movq	-504(%rbp), %rax
 1200      FEFFFF
 1201 051a 488D4808 		leaq	8(%rax), %rcx
 1202 051e 488D8530 		leaq	-464(%rbp), %rax
 1202      FEFFFF
 1203 0525 BA250000 		movl	$37, %edx
 1203      00
 1204 052a 4889CE   		movq	%rcx, %rsi
 1205 052d 4889C7   		movq	%rax, %rdi
 1206 0530 E8000000 		call	_ZN8UnitTest11TestDetailsC1ERKS0_i
 1206      00
 1207              		.loc 6 37 0 discriminator 36
 1208 0535 E8000000 		call	_ZN8UnitTest11CurrentTest7ResultsEv
 1208      00
 1209 053a 488B00   		movq	(%rax), %rax
 1210 053d 488D8D30 		leaq	-464(%rbp), %rcx
 1210      FEFFFF
 1211 0544 BA000000 		movl	$.LC13, %edx
 1211      00
 1212 0549 4889CE   		movq	%rcx, %rsi
 1213 054c 4889C7   		movq	%rax, %rdi
 1214 054f E8000000 		call	_ZN8UnitTest11TestResults13OnTestFailureERKNS_11TestDetailsEPKc
 1214      00
 1215              	.LEHE17:
 1216              	.L48:
 1217              	.LEHB18:
 1218              		.loc 6 37 0 discriminator 41
 1219 0554 E8000000 		call	__cxa_end_catch
 1219      00
 1220 0559 EB4D     		jmp	.L41
 1221              	.L55:
 1222 055b 4889C3   		movq	%rax, %rbx
 1223              	.LBB18:
 1224              		.loc 6 37 0
 1225 055e E8000000 		call	__cxa_end_catch
 1225      00
 1226 0563 4889D8   		movq	%rbx, %rax
 1227 0566 4889C7   		movq	%rax, %rdi
 1228 0569 E8000000 		call	_Unwind_Resume
 1228      00
 1229              	.LEHE18:
 1230              	.L57:
 1231 056e 4889C3   		movq	%rax, %rbx
 1232              	.LBE18:
 1233              	.LBB19:
 1234              	.LBB17:
 1235 0571 488D8550 		leaq	-432(%rbp), %rax
 1235      FEFFFF
 1236 0578 4889C7   		movq	%rax, %rdi
 1237 057b E8000000 		call	_ZN8UnitTest15MemoryOutStreamD1Ev
 1237      00
 1238 0580 EB03     		jmp	.L51
 1239              	.L56:
 1240 0582 4889C3   		movq	%rax, %rbx
 1241              	.L51:
 1242              	.LBE17:
 1243 0585 E8000000 		call	__cxa_end_catch
 1243      00
 1244 058a 4889D8   		movq	%rbx, %rax
 1245 058d 4889C7   		movq	%rax, %rdi
 1246              	.LEHB19:
 1247 0590 E8000000 		call	_Unwind_Resume
 1247      00
 1248              	.LEHE19:
 1249              	.L58:
 1250 0595 4889C3   		movq	%rax, %rbx
 1251              	.LBE19:
 1252 0598 E8000000 		call	__cxa_end_catch
 1252      00
 1253 059d 4889D8   		movq	%rbx, %rax
 1254 05a0 4889C7   		movq	%rax, %rdi
 1255              	.LEHB20:
 1256 05a3 E8000000 		call	_Unwind_Resume
 1256      00
 1257              	.LEHE20:
 1258              	.L41:
 1259 05a8 488B45E8 		movq	-24(%rbp), %rax
 1260 05ac 64483304 		xorq	%fs:40, %rax
 1260      25280000 
 1260      00
 1261 05b5 7405     		je	.L53
 1262 05b7 E8000000 		call	__stack_chk_fail
 1262      00
 1263              	.L53:
 1264 05bc 4881C4F0 		addq	$496, %rsp
 1264      010000
 1265 05c3 5B       		popq	%rbx
 1266 05c4 415C     		popq	%r12
 1267 05c6 5D       		popq	%rbp
 1268              		.cfi_def_cfa 7, 8
 1269 05c7 C3       		ret
 1270              		.cfi_endproc
 1271              	.LFE1105:
 1272              		.section	.gcc_except_table
 1273              		.align 4
 1274              	.LLSDA1105:
 1275 0038 FF       		.byte	0xff
 1276 0039 03       		.byte	0x3
 1277 003a 45       		.uleb128 .LLSDATT1105-.LLSDATTD1105
 1278              	.LLSDATTD1105:
 1279 003b 01       		.byte	0x1
 1280 003c 31       		.uleb128 .LLSDACSE1105-.LLSDACSB1105
 1281              	.LLSDACSB1105:
 1282 003d 43       		.uleb128 .LEHB12-.LFB1105
 1283 003e 29       		.uleb128 .LEHE12-.LEHB12
 1284 003f 71       		.uleb128 .L54-.LFB1105
 1285 0040 05       		.uleb128 0x5
 1286 0041 BF01     		.uleb128 .LEHB13-.LFB1105
 1287 0043 5F       		.uleb128 .LEHE13-.LEHB13
 1288 0044 ED04     		.uleb128 .L55-.LFB1105
 1289 0046 00       		.uleb128 0
 1290 0047 C102     		.uleb128 .LEHB14-.LFB1105
 1291 0049 05       		.uleb128 .LEHE14-.LEHB14
 1292 004a 9405     		.uleb128 .L56-.LFB1105
 1293 004c 00       		.uleb128 0
 1294 004d F502     		.uleb128 .LEHB15-.LFB1105
 1295 004f 43       		.uleb128 .LEHE15-.LEHB15
 1296 0050 8005     		.uleb128 .L57-.LFB1105
 1297 0052 00       		.uleb128 0
 1298 0053 C203     		.uleb128 .LEHB16-.LFB1105
 1299 0055 05       		.uleb128 .LEHE16-.LEHB16
 1300 0056 9405     		.uleb128 .L56-.LFB1105
 1301 0058 00       		.uleb128 0
 1302 0059 FF03     		.uleb128 .LEHB17-.LFB1105
 1303 005b 67       		.uleb128 .LEHE17-.LEHB17
 1304 005c A705     		.uleb128 .L58-.LFB1105
 1305 005e 00       		.uleb128 0
 1306 005f E604     		.uleb128 .LEHB18-.LFB1105
 1307 0061 1A       		.uleb128 .LEHE18-.LEHB18
 1308 0062 00       		.uleb128 0
 1309 0063 00       		.uleb128 0
 1310 0064 A205     		.uleb128 .LEHB19-.LFB1105
 1311 0066 05       		.uleb128 .LEHE19-.LEHB19
 1312 0067 00       		.uleb128 0
 1313 0068 00       		.uleb128 0
 1314 0069 B505     		.uleb128 .LEHB20-.LFB1105
 1315 006b 05       		.uleb128 .LEHE20-.LEHB20
 1316 006c 00       		.uleb128 0
 1317 006d 00       		.uleb128 0
 1318              	.LLSDACSE1105:
 1319 006e 03       		.byte	0x3
 1320 006f 00       		.byte	0
 1321 0070 02       		.byte	0x2
 1322 0071 7D       		.byte	0x7d
 1323 0072 01       		.byte	0x1
 1324 0073 7D       		.byte	0x7d
 1325              		.align 4
 1326 0074 00000000 		.long	0
 1327              	
 1328 0078 00000000 		.long	_ZTISt9exception
 1329 007c 00000000 		.long	_ZTIN8UnitTest15AssertExceptionE
 1330              	.LLSDATT1105:
 1331              		.text
 1333              		.align 2
 1335              	_ZN12_GLOBAL__N_134ThrowingThingieDummyTestNameHelper7RunImplEv:
 1336              	.LFB1106:
  38:TestTestMacros.cpp **** {
 1337              		.loc 6 38 0 is_stmt 1
 1338              		.cfi_startproc
 1339 05c8 55       		pushq	%rbp
 1340              		.cfi_def_cfa_offset 16
 1341              		.cfi_offset 6, -16
 1342 05c9 4889E5   		movq	%rsp, %rbp
 1343              		.cfi_def_cfa_register 6
 1344 05cc 48897DF8 		movq	%rdi, -8(%rbp)
  39:TestTestMacros.cpp **** }
 1345              		.loc 6 39 0
 1346 05d0 90       		nop
 1347 05d1 5D       		popq	%rbp
 1348              		.cfi_def_cfa 7, 8
 1349 05d2 C3       		ret
 1350              		.cfi_endproc
 1351              	.LFE1106:
 1353              		.section	.rodata
 1354 01a7 00       		.align 8
 1355              	.LC14:
 1356 01a8 45786365 		.string	"ExceptionsInFixtureAreReportedAsHappeningInTheFixture"
 1356      7074696F 
 1356      6E73496E 
 1356      46697874 
 1356      75726541 
 1357              		.text
 1358 05d3 90       		.align 2
 1360              	_ZN12_GLOBAL__N_157TestExceptionsInFixtureAreReportedAsHappeningInTheFixtureC2Ev:
 1361              	.LFB1108:
  40:TestTestMacros.cpp **** 
  41:TestTestMacros.cpp **** TEST (ExceptionsInFixtureAreReportedAsHappeningInTheFixture)
 1362              		.loc 6 41 0
 1363              		.cfi_startproc
 1364 05d4 55       		pushq	%rbp
 1365              		.cfi_def_cfa_offset 16
 1366              		.cfi_offset 6, -16
 1367 05d5 4889E5   		movq	%rsp, %rbp
 1368              		.cfi_def_cfa_register 6
 1369 05d8 4883EC10 		subq	$16, %rsp
 1370 05dc 48897DF8 		movq	%rdi, -8(%rbp)
 1371              	.LBB20:
 1372              		.loc 6 41 0
 1373 05e0 E8000000 		call	_ZN13UnitTestSuite12GetSuiteNameEv
 1373      00
 1374 05e5 4889C2   		movq	%rax, %rdx
 1375 05e8 488B45F8 		movq	-8(%rbp), %rax
 1376 05ec 41B82900 		movl	$41, %r8d
 1376      0000
 1377 05f2 B9000000 		movl	$.LC2, %ecx
 1377      00
 1378 05f7 BE000000 		movl	$.LC14, %esi
 1378      00
 1379 05fc 4889C7   		movq	%rax, %rdi
 1380 05ff E8000000 		call	_ZN8UnitTest4TestC2EPKcS2_S2_i
 1380      00
 1381 0604 BA000000 		movl	$_ZTVN12_GLOBAL__N_157TestExceptionsInFixtureAreReportedAsHappeningInTheFixtureE+16, %edx
 1381      00
 1382 0609 488B45F8 		movq	-8(%rbp), %rax
 1383 060d 488910   		movq	%rdx, (%rax)
 1384              	.LBE20:
 1385 0610 90       		nop
 1386 0611 C9       		leave
 1387              		.cfi_def_cfa 7, 8
 1388 0612 C3       		ret
 1389              		.cfi_endproc
 1390              	.LFE1108:
 1392              		.set	_ZN12_GLOBAL__N_157TestExceptionsInFixtureAreReportedAsHappeningInTheFixtureC1Ev,_ZN12_GLOBAL
 1393              		.local	_ZN12_GLOBAL__N_165testExceptionsInFixtureAreReportedAsHappeningInTheFixtureInstanceE
 1394              		.comm	_ZN12_GLOBAL__N_165testExceptionsInFixtureAreReportedAsHappeningInTheFixtureInstanceE,56,32
 1395              		.local	_ZN12_GLOBAL__N_158adderExceptionsInFixtureAreReportedAsHappeningInTheFixtureE
 1396              		.comm	_ZN12_GLOBAL__N_158adderExceptionsInFixtureAreReportedAsHappeningInTheFixtureE,1,1
 1397              		.section	.rodata
 1398              	.LC15:
 1399 01de 78636570 		.string	"xception"
 1399      74696F6E 
 1399      00
 1400 01e7 00       		.align 8
 1401              	.LC16:
 1402 01e8 73747273 		.string	"strstr(reporter.lastFailedMessage, \"xception\")"
 1402      74722872 
 1402      65706F72 
 1402      7465722E 
 1402      6C617374 
 1403              	.LC17:
 1404 0217 66697874 		.string	"fixture"
 1404      75726500 
 1405 021f 00       		.align 8
 1406              	.LC18:
 1407 0220 73747273 		.string	"strstr(reporter.lastFailedMessage, \"fixture\")"
 1407      74722872 
 1407      65706F72 
 1407      7465722E 
 1407      6C617374 
 1408              	.LC19:
 1409 024e 5468726F 		.string	"ThrowingThingie"
 1409      77696E67 
 1409      5468696E 
 1409      67696500 
 1410 025e 0000     		.align 8
 1411              	.LC20:
 1412 0260 73747273 		.string	"strstr(reporter.lastFailedMessage, \"ThrowingThingie\")"
 1412      74722872 
 1412      65706F72 
 1412      7465722E 
 1412      6C617374 
 1413 0296 0000     		.align 8
 1414              	.LC21:
 1415 0298 556E6861 		.string	"Unhandled exception in CHECK(strstr(reporter.lastFailedMessage, \"xception\"))"
 1415      6E646C65 
 1415      64206578 
 1415      63657074 
 1415      696F6E20 
 1416 02e5 000000   		.align 8
 1417              	.LC22:
 1418 02e8 556E6861 		.string	"Unhandled exception in CHECK(strstr(reporter.lastFailedMessage, \"fixture\"))"
 1418      6E646C65 
 1418      64206578 
 1418      63657074 
 1418      696F6E20 
 1419 0334 00000000 		.align 8
 1420              	.LC23:
 1421 0338 556E6861 		.string	"Unhandled exception in CHECK(strstr(reporter.lastFailedMessage, \"ThrowingThingie\"))"
 1421      6E646C65 
 1421      64206578 
 1421      63657074 
 1421      696F6E20 
 1422              		.text
 1423 0613 90       		.align 2
 1425              	_ZNK12_GLOBAL__N_157TestExceptionsInFixtureAreReportedAsHappeningInTheFixture7RunImplEv:
 1426              	.LFB1110:
  42:TestTestMacros.cpp **** {
 1427              		.loc 6 42 0
 1428              		.cfi_startproc
 1429              		.cfi_personality 0x3,__gxx_personality_v0
 1430              		.cfi_lsda 0x3,.LLSDA1110
 1431 0614 55       		pushq	%rbp
 1432              		.cfi_def_cfa_offset 16
 1433              		.cfi_offset 6, -16
 1434 0615 4889E5   		movq	%rsp, %rbp
 1435              		.cfi_def_cfa_register 6
 1436 0618 53       		pushq	%rbx
 1437 0619 4881EC98 		subq	$2200, %rsp
 1437      080000
 1438              		.cfi_offset 3, -24
 1439 0620 4889BD68 		movq	%rdi, -2200(%rbp)
 1439      F7FFFF
 1440              		.loc 6 42 0
 1441 0627 64488B04 		movq	%fs:40, %rax
 1441      25280000 
 1441      00
 1442 0630 488945E8 		movq	%rax, -24(%rbp)
 1443 0634 31C0     		xorl	%eax, %eax
  43:TestTestMacros.cpp ****     RecordingReporter reporter;
 1444              		.loc 6 43 0
 1445 0636 488D85B0 		leaq	-2128(%rbp), %rax
 1445      F7FFFF
 1446 063d 4889C7   		movq	%rax, %rdi
 1447 0640 E8000000 		call	_ZN17RecordingReporterC1Ev
 1447      00
  44:TestTestMacros.cpp ****     TestResults result(&reporter);
 1448              		.loc 6 44 0
 1449 0645 488D95B0 		leaq	-2128(%rbp), %rdx
 1449      F7FFFF
 1450 064c 488D8570 		leaq	-2192(%rbp), %rax
 1450      F7FFFF
 1451 0653 4889D6   		movq	%rdx, %rsi
 1452 0656 4889C7   		movq	%rax, %rdi
 1453              	.LEHB21:
 1454 0659 E8000000 		call	_ZN8UnitTest11TestResultsC1EPNS_12TestReporterE
 1454      00
 1455              	.LBB21:
  45:TestTestMacros.cpp **** 	{
  46:TestTestMacros.cpp **** 		ScopedCurrentTest scopedResults(result);
 1456              		.loc 6 46 0
 1457 065e 488D8D70 		leaq	-2192(%rbp), %rcx
 1457      F7FFFF
 1458 0665 488D8590 		leaq	-2160(%rbp), %rax
 1458      F7FFFF
 1459 066c BA000000 		movl	$0, %edx
 1459      00
 1460 0671 4889CE   		movq	%rcx, %rsi
 1461 0674 4889C7   		movq	%rax, %rdi
 1462 0677 E8000000 		call	_ZN17ScopedCurrentTestC1ERN8UnitTest11TestResultsEPKNS0_11TestDetailsE
 1462      00
 1463              	.LEHE21:
  47:TestTestMacros.cpp **** 		list2.GetHead()->Run();
 1464              		.loc 6 47 0
 1465 067c BF000000 		movl	$_ZN12_GLOBAL__N_15list2E, %edi
 1465      00
 1466              	.LEHB22:
 1467 0681 E8000000 		call	_ZNK8UnitTest8TestList7GetHeadEv
 1467      00
 1468 0686 4889C7   		movq	%rax, %rdi
 1469 0689 E8000000 		call	_ZN8UnitTest4Test3RunEv
 1469      00
 1470              	.LEHE22:
  46:TestTestMacros.cpp **** 		list2.GetHead()->Run();
 1471              		.loc 6 46 0
 1472 068e 488D8590 		leaq	-2160(%rbp), %rax
 1472      F7FFFF
 1473 0695 4889C7   		movq	%rax, %rdi
 1474              	.LEHB23:
 1475 0698 E8000000 		call	_ZN17ScopedCurrentTestD1Ev
 1475      00
 1476              	.LEHE23:
 1477              	.LBE21:
  48:TestTestMacros.cpp **** 	}
  49:TestTestMacros.cpp **** 
  50:TestTestMacros.cpp ****     CHECK(strstr(reporter.lastFailedMessage, "xception"));
 1478              		.loc 6 50 0
 1479 069d 488D85B0 		leaq	-2128(%rbp), %rax
 1479      F7FFFF
 1480 06a4 48051405 		addq	$1300, %rax
 1480      0000
 1481 06aa BE000000 		movl	$.LC15, %esi
 1481      00
 1482 06af 4889C7   		movq	%rax, %rdi
 1483 06b2 E8000000 		call	strstr
 1483      00
 1484 06b7 4889C7   		movq	%rax, %rdi
 1485 06ba E8000000 		call	_ZN8UnitTest5CheckIPcEEbT_
 1485      00
 1486 06bf 83F001   		xorl	$1, %eax
 1487 06c2 84C0     		testb	%al, %al
 1488 06c4 743E     		je	.L63
 1489              	.LEHB24:
 1490              		.loc 6 50 0 is_stmt 0 discriminator 1
 1491 06c6 E8000000 		call	_ZN8UnitTest11CurrentTest7DetailsEv
 1491      00
 1492 06cb 488B08   		movq	(%rax), %rcx
 1493 06ce 488D8590 		leaq	-2160(%rbp), %rax
 1493      F7FFFF
 1494 06d5 BA320000 		movl	$50, %edx
 1494      00
 1495 06da 4889CE   		movq	%rcx, %rsi
 1496 06dd 4889C7   		movq	%rax, %rdi
 1497 06e0 E8000000 		call	_ZN8UnitTest11TestDetailsC1ERKS0_i
 1497      00
 1498              		.loc 6 50 0 discriminator 3
 1499 06e5 E8000000 		call	_ZN8UnitTest11CurrentTest7ResultsEv
 1499      00
 1500 06ea 488B00   		movq	(%rax), %rax
 1501 06ed 488D8D90 		leaq	-2160(%rbp), %rcx
 1501      F7FFFF
 1502 06f4 BA000000 		movl	$.LC16, %edx
 1502      00
 1503 06f9 4889CE   		movq	%rcx, %rsi
 1504 06fc 4889C7   		movq	%rax, %rdi
 1505 06ff E8000000 		call	_ZN8UnitTest11TestResults13OnTestFailureERKNS_11TestDetailsEPKc
 1505      00
 1506              	.LEHE24:
 1507              	.L63:
  51:TestTestMacros.cpp ****     CHECK(strstr(reporter.lastFailedMessage, "fixture"));
 1508              		.loc 6 51 0 is_stmt 1
 1509 0704 488D85B0 		leaq	-2128(%rbp), %rax
 1509      F7FFFF
 1510 070b 48051405 		addq	$1300, %rax
 1510      0000
 1511 0711 BE000000 		movl	$.LC17, %esi
 1511      00
 1512 0716 4889C7   		movq	%rax, %rdi
 1513 0719 E8000000 		call	strstr
 1513      00
 1514 071e 4889C7   		movq	%rax, %rdi
 1515 0721 E8000000 		call	_ZN8UnitTest5CheckIPcEEbT_
 1515      00
 1516 0726 83F001   		xorl	$1, %eax
 1517 0729 84C0     		testb	%al, %al
 1518 072b 743E     		je	.L64
 1519              	.LEHB25:
 1520              		.loc 6 51 0 is_stmt 0 discriminator 1
 1521 072d E8000000 		call	_ZN8UnitTest11CurrentTest7DetailsEv
 1521      00
 1522 0732 488B08   		movq	(%rax), %rcx
 1523 0735 488D8590 		leaq	-2160(%rbp), %rax
 1523      F7FFFF
 1524 073c BA330000 		movl	$51, %edx
 1524      00
 1525 0741 4889CE   		movq	%rcx, %rsi
 1526 0744 4889C7   		movq	%rax, %rdi
 1527 0747 E8000000 		call	_ZN8UnitTest11TestDetailsC1ERKS0_i
 1527      00
 1528              		.loc 6 51 0 discriminator 3
 1529 074c E8000000 		call	_ZN8UnitTest11CurrentTest7ResultsEv
 1529      00
 1530 0751 488B00   		movq	(%rax), %rax
 1531 0754 488D8D90 		leaq	-2160(%rbp), %rcx
 1531      F7FFFF
 1532 075b BA000000 		movl	$.LC18, %edx
 1532      00
 1533 0760 4889CE   		movq	%rcx, %rsi
 1534 0763 4889C7   		movq	%rax, %rdi
 1535 0766 E8000000 		call	_ZN8UnitTest11TestResults13OnTestFailureERKNS_11TestDetailsEPKc
 1535      00
 1536              	.LEHE25:
 1537              	.L64:
  52:TestTestMacros.cpp ****     CHECK(strstr(reporter.lastFailedMessage, "ThrowingThingie"));
 1538              		.loc 6 52 0 is_stmt 1
 1539 076b 488D85B0 		leaq	-2128(%rbp), %rax
 1539      F7FFFF
 1540 0772 48051405 		addq	$1300, %rax
 1540      0000
 1541 0778 BE000000 		movl	$.LC19, %esi
 1541      00
 1542 077d 4889C7   		movq	%rax, %rdi
 1543 0780 E8000000 		call	strstr
 1543      00
 1544 0785 4889C7   		movq	%rax, %rdi
 1545 0788 E8000000 		call	_ZN8UnitTest5CheckIPcEEbT_
 1545      00
 1546 078d 83F001   		xorl	$1, %eax
 1547 0790 84C0     		testb	%al, %al
 1548 0792 743E     		je	.L65
 1549              	.LEHB26:
 1550              		.loc 6 52 0 is_stmt 0 discriminator 1
 1551 0794 E8000000 		call	_ZN8UnitTest11CurrentTest7DetailsEv
 1551      00
 1552 0799 488B08   		movq	(%rax), %rcx
 1553 079c 488D8590 		leaq	-2160(%rbp), %rax
 1553      F7FFFF
 1554 07a3 BA340000 		movl	$52, %edx
 1554      00
 1555 07a8 4889CE   		movq	%rcx, %rsi
 1556 07ab 4889C7   		movq	%rax, %rdi
 1557 07ae E8000000 		call	_ZN8UnitTest11TestDetailsC1ERKS0_i
 1557      00
 1558              		.loc 6 52 0 discriminator 3
 1559 07b3 E8000000 		call	_ZN8UnitTest11CurrentTest7ResultsEv
 1559      00
 1560 07b8 488B00   		movq	(%rax), %rax
 1561 07bb 488D8D90 		leaq	-2160(%rbp), %rcx
 1561      F7FFFF
 1562 07c2 BA000000 		movl	$.LC20, %edx
 1562      00
 1563 07c7 4889CE   		movq	%rcx, %rsi
 1564 07ca 4889C7   		movq	%rax, %rdi
 1565 07cd E8000000 		call	_ZN8UnitTest11TestResults13OnTestFailureERKNS_11TestDetailsEPKc
 1565      00
 1566              	.LEHE26:
 1567              	.L65:
  43:TestTestMacros.cpp ****     TestResults result(&reporter);
 1568              		.loc 6 43 0 is_stmt 1
 1569 07d2 488D85B0 		leaq	-2128(%rbp), %rax
 1569      F7FFFF
 1570 07d9 4889C7   		movq	%rax, %rdi
 1571              	.LEHB27:
 1572 07dc E8000000 		call	_ZN17RecordingReporterD1Ev
 1572      00
 1573              	.LEHE27:
  53:TestTestMacros.cpp **** }
 1574              		.loc 6 53 0
 1575 07e1 90       		nop
 1576 07e2 488B45E8 		movq	-24(%rbp), %rax
 1577 07e6 64483304 		xorq	%fs:40, %rax
 1577      25280000 
 1577      00
 1578 07ef 0F844F01 		je	.L74
 1578      0000
 1579 07f5 E9450100 		jmp	.L83
 1579      00
 1580              	.L76:
 1581 07fa 4889C3   		movq	%rax, %rbx
 1582              	.LBB22:
  46:TestTestMacros.cpp **** 		list2.GetHead()->Run();
 1583              		.loc 6 46 0
 1584 07fd 488D8590 		leaq	-2160(%rbp), %rax
 1584      F7FFFF
 1585 0804 4889C7   		movq	%rax, %rdi
 1586 0807 E8000000 		call	_ZN17ScopedCurrentTestD1Ev
 1586      00
 1587 080c E9140100 		jmp	.L67
 1587      00
 1588              	.L77:
 1589              	.LBE22:
  50:TestTestMacros.cpp ****     CHECK(strstr(reporter.lastFailedMessage, "fixture"));
 1590              		.loc 6 50 0
 1591 0811 4889C7   		movq	%rax, %rdi
 1592 0814 E8000000 		call	__cxa_begin_catch
 1592      00
 1593              	.LEHB28:
 1594 0819 E8000000 		call	_ZN8UnitTest11CurrentTest7DetailsEv
 1594      00
 1595 081e 488B08   		movq	(%rax), %rcx
 1596 0821 488D8590 		leaq	-2160(%rbp), %rax
 1596      F7FFFF
 1597 0828 BA320000 		movl	$50, %edx
 1597      00
 1598 082d 4889CE   		movq	%rcx, %rsi
 1599 0830 4889C7   		movq	%rax, %rdi
 1600 0833 E8000000 		call	_ZN8UnitTest11TestDetailsC1ERKS0_i
 1600      00
  50:TestTestMacros.cpp ****     CHECK(strstr(reporter.lastFailedMessage, "fixture"));
 1601              		.loc 6 50 0 is_stmt 0 discriminator 11
 1602 0838 E8000000 		call	_ZN8UnitTest11CurrentTest7ResultsEv
 1602      00
 1603 083d 488B00   		movq	(%rax), %rax
 1604 0840 488D8D90 		leaq	-2160(%rbp), %rcx
 1604      F7FFFF
 1605 0847 BA000000 		movl	$.LC21, %edx
 1605      00
 1606 084c 4889CE   		movq	%rcx, %rsi
 1607 084f 4889C7   		movq	%rax, %rdi
 1608 0852 E8000000 		call	_ZN8UnitTest11TestResults13OnTestFailureERKNS_11TestDetailsEPKc
 1608      00
 1609              	.LEHE28:
 1610              	.LEHB29:
  50:TestTestMacros.cpp ****     CHECK(strstr(reporter.lastFailedMessage, "fixture"));
 1611              		.loc 6 50 0 discriminator 15
 1612 0857 E8000000 		call	__cxa_end_catch
 1612      00
 1613              	.LEHE29:
  50:TestTestMacros.cpp ****     CHECK(strstr(reporter.lastFailedMessage, "fixture"));
 1614              		.loc 6 50 0
 1615 085c E9A3FEFF 		jmp	.L63
 1615      FF
 1616              	.L78:
 1617 0861 4889C3   		movq	%rax, %rbx
 1618 0864 E8000000 		call	__cxa_end_catch
 1618      00
 1619 0869 E9B70000 		jmp	.L67
 1619      00
 1620              	.L79:
  51:TestTestMacros.cpp ****     CHECK(strstr(reporter.lastFailedMessage, "ThrowingThingie"));
 1621              		.loc 6 51 0 is_stmt 1
 1622 086e 4889C7   		movq	%rax, %rdi
 1623 0871 E8000000 		call	__cxa_begin_catch
 1623      00
 1624              	.LEHB30:
 1625 0876 E8000000 		call	_ZN8UnitTest11CurrentTest7DetailsEv
 1625      00
 1626 087b 488B08   		movq	(%rax), %rcx
 1627 087e 488D8590 		leaq	-2160(%rbp), %rax
 1627      F7FFFF
 1628 0885 BA330000 		movl	$51, %edx
 1628      00
 1629 088a 4889CE   		movq	%rcx, %rsi
 1630 088d 4889C7   		movq	%rax, %rdi
 1631 0890 E8000000 		call	_ZN8UnitTest11TestDetailsC1ERKS0_i
 1631      00
  51:TestTestMacros.cpp ****     CHECK(strstr(reporter.lastFailedMessage, "ThrowingThingie"));
 1632              		.loc 6 51 0 is_stmt 0 discriminator 11
 1633 0895 E8000000 		call	_ZN8UnitTest11CurrentTest7ResultsEv
 1633      00
 1634 089a 488B00   		movq	(%rax), %rax
 1635 089d 488D8D90 		leaq	-2160(%rbp), %rcx
 1635      F7FFFF
 1636 08a4 BA000000 		movl	$.LC22, %edx
 1636      00
 1637 08a9 4889CE   		movq	%rcx, %rsi
 1638 08ac 4889C7   		movq	%rax, %rdi
 1639 08af E8000000 		call	_ZN8UnitTest11TestResults13OnTestFailureERKNS_11TestDetailsEPKc
 1639      00
 1640              	.LEHE30:
 1641              	.LEHB31:
  51:TestTestMacros.cpp ****     CHECK(strstr(reporter.lastFailedMessage, "ThrowingThingie"));
 1642              		.loc 6 51 0 discriminator 15
 1643 08b4 E8000000 		call	__cxa_end_catch
 1643      00
 1644              	.LEHE31:
  51:TestTestMacros.cpp ****     CHECK(strstr(reporter.lastFailedMessage, "ThrowingThingie"));
 1645              		.loc 6 51 0
 1646 08b9 E9ADFEFF 		jmp	.L64
 1646      FF
 1647              	.L80:
 1648 08be 4889C3   		movq	%rax, %rbx
 1649 08c1 E8000000 		call	__cxa_end_catch
 1649      00
 1650 08c6 EB5D     		jmp	.L67
 1651              	.L81:
  52:TestTestMacros.cpp **** }
 1652              		.loc 6 52 0 is_stmt 1
 1653 08c8 4889C7   		movq	%rax, %rdi
 1654 08cb E8000000 		call	__cxa_begin_catch
 1654      00
 1655              	.LEHB32:
 1656 08d0 E8000000 		call	_ZN8UnitTest11CurrentTest7DetailsEv
 1656      00
 1657 08d5 488B08   		movq	(%rax), %rcx
 1658 08d8 488D8590 		leaq	-2160(%rbp), %rax
 1658      F7FFFF
 1659 08df BA340000 		movl	$52, %edx
 1659      00
 1660 08e4 4889CE   		movq	%rcx, %rsi
 1661 08e7 4889C7   		movq	%rax, %rdi
 1662 08ea E8000000 		call	_ZN8UnitTest11TestDetailsC1ERKS0_i
 1662      00
  52:TestTestMacros.cpp **** }
 1663              		.loc 6 52 0 is_stmt 0 discriminator 11
 1664 08ef E8000000 		call	_ZN8UnitTest11CurrentTest7ResultsEv
 1664      00
 1665 08f4 488B00   		movq	(%rax), %rax
 1666 08f7 488D8D90 		leaq	-2160(%rbp), %rcx
 1666      F7FFFF
 1667 08fe BA000000 		movl	$.LC23, %edx
 1667      00
 1668 0903 4889CE   		movq	%rcx, %rsi
 1669 0906 4889C7   		movq	%rax, %rdi
 1670 0909 E8000000 		call	_ZN8UnitTest11TestResults13OnTestFailureERKNS_11TestDetailsEPKc
 1670      00
 1671              	.LEHE32:
 1672              	.LEHB33:
  52:TestTestMacros.cpp **** }
 1673              		.loc 6 52 0 discriminator 15
 1674 090e E8000000 		call	__cxa_end_catch
 1674      00
 1675              	.LEHE33:
  52:TestTestMacros.cpp **** }
 1676              		.loc 6 52 0
 1677 0913 E9BAFEFF 		jmp	.L65
 1677      FF
 1678              	.L82:
 1679 0918 4889C3   		movq	%rax, %rbx
 1680 091b E8000000 		call	__cxa_end_catch
 1680      00
 1681 0920 EB03     		jmp	.L67
 1682              	.L75:
 1683 0922 4889C3   		movq	%rax, %rbx
 1684              	.L67:
  43:TestTestMacros.cpp ****     TestResults result(&reporter);
 1685              		.loc 6 43 0 is_stmt 1
 1686 0925 488D85B0 		leaq	-2128(%rbp), %rax
 1686      F7FFFF
 1687 092c 4889C7   		movq	%rax, %rdi
 1688 092f E8000000 		call	_ZN17RecordingReporterD1Ev
 1688      00
 1689 0934 4889D8   		movq	%rbx, %rax
 1690 0937 4889C7   		movq	%rax, %rdi
 1691              	.LEHB34:
 1692 093a E8000000 		call	_Unwind_Resume
 1692      00
 1693              	.LEHE34:
 1694              	.L83:
 1695              		.loc 6 53 0
 1696 093f E8000000 		call	__stack_chk_fail
 1696      00
 1697              	.L74:
 1698 0944 4881C498 		addq	$2200, %rsp
 1698      080000
 1699 094b 5B       		popq	%rbx
 1700 094c 5D       		popq	%rbp
 1701              		.cfi_def_cfa 7, 8
 1702 094d C3       		ret
 1703              		.cfi_endproc
 1704              	.LFE1110:
 1705              		.section	.gcc_except_table
 1706              		.align 4
 1707              	.LLSDA1110:
 1708 0080 FF       		.byte	0xff
 1709 0081 03       		.byte	0x3
 1710 0082 59       		.uleb128 .LLSDATT1110-.LLSDATTD1110
 1711              	.LLSDATTD1110:
 1712 0083 01       		.byte	0x1
 1713 0084 50       		.uleb128 .LLSDACSE1110-.LLSDACSB1110
 1714              	.LLSDACSB1110:
 1715 0085 45       		.uleb128 .LEHB21-.LFB1110
 1716 0086 23       		.uleb128 .LEHE21-.LEHB21
 1717 0087 8E06     		.uleb128 .L75-.LFB1110
 1718 0089 00       		.uleb128 0
 1719 008a 6D       		.uleb128 .LEHB22-.LFB1110
 1720 008b 0D       		.uleb128 .LEHE22-.LEHB22
 1721 008c E603     		.uleb128 .L76-.LFB1110
 1722 008e 00       		.uleb128 0
 1723 008f 8401     		.uleb128 .LEHB23-.LFB1110
 1724 0091 05       		.uleb128 .LEHE23-.LEHB23
 1725 0092 8E06     		.uleb128 .L75-.LFB1110
 1726 0094 00       		.uleb128 0
 1727 0095 B201     		.uleb128 .LEHB24-.LFB1110
 1728 0097 3E       		.uleb128 .LEHE24-.LEHB24
 1729 0098 FD03     		.uleb128 .L77-.LFB1110
 1730 009a 01       		.uleb128 0x1
 1731 009b 9902     		.uleb128 .LEHB25-.LFB1110
 1732 009d 3E       		.uleb128 .LEHE25-.LEHB25
 1733 009e DA04     		.uleb128 .L79-.LFB1110
 1734 00a0 01       		.uleb128 0x1
 1735 00a1 8003     		.uleb128 .LEHB26-.LFB1110
 1736 00a3 3E       		.uleb128 .LEHE26-.LEHB26
 1737 00a4 B405     		.uleb128 .L81-.LFB1110
 1738 00a6 01       		.uleb128 0x1
 1739 00a7 C803     		.uleb128 .LEHB27-.LFB1110
 1740 00a9 05       		.uleb128 .LEHE27-.LEHB27
 1741 00aa 00       		.uleb128 0
 1742 00ab 00       		.uleb128 0
 1743 00ac 8504     		.uleb128 .LEHB28-.LFB1110
 1744 00ae 3E       		.uleb128 .LEHE28-.LEHB28
 1745 00af CD04     		.uleb128 .L78-.LFB1110
 1746 00b1 00       		.uleb128 0
 1747 00b2 C304     		.uleb128 .LEHB29-.LFB1110
 1748 00b4 05       		.uleb128 .LEHE29-.LEHB29
 1749 00b5 8E06     		.uleb128 .L75-.LFB1110
 1750 00b7 00       		.uleb128 0
 1751 00b8 E204     		.uleb128 .LEHB30-.LFB1110
 1752 00ba 3E       		.uleb128 .LEHE30-.LEHB30
 1753 00bb AA05     		.uleb128 .L80-.LFB1110
 1754 00bd 00       		.uleb128 0
 1755 00be A005     		.uleb128 .LEHB31-.LFB1110
 1756 00c0 05       		.uleb128 .LEHE31-.LEHB31
 1757 00c1 8E06     		.uleb128 .L75-.LFB1110
 1758 00c3 00       		.uleb128 0
 1759 00c4 BC05     		.uleb128 .LEHB32-.LFB1110
 1760 00c6 3E       		.uleb128 .LEHE32-.LEHB32
 1761 00c7 8406     		.uleb128 .L82-.LFB1110
 1762 00c9 00       		.uleb128 0
 1763 00ca FA05     		.uleb128 .LEHB33-.LFB1110
 1764 00cc 05       		.uleb128 .LEHE33-.LEHB33
 1765 00cd 8E06     		.uleb128 .L75-.LFB1110
 1766 00cf 00       		.uleb128 0
 1767 00d0 A606     		.uleb128 .LEHB34-.LFB1110
 1768 00d2 05       		.uleb128 .LEHE34-.LEHB34
 1769 00d3 00       		.uleb128 0
 1770 00d4 00       		.uleb128 0
 1771              	.LLSDACSE1110:
 1772 00d5 01       		.byte	0x1
 1773 00d6 00       		.byte	0
 1774 00d7 00       		.align 4
 1775 00d8 00000000 		.long	0
 1776              	
 1777              	.LLSDATT1110:
 1778              		.text
 1780              		.section	.rodata
 1781              	.LC24:
 1782 038c 54657374 		.string	"TestSuite1"
 1782      53756974 
 1782      653100
 1783              		.text
 1785              	_ZN12_GLOBAL__N_115SuiteTestSuite113UnitTestSuite12GetSuiteNameEv:
 1786              	.LFB1111:
  54:TestTestMacros.cpp **** 
  55:TestTestMacros.cpp **** struct DummyFixture
  56:TestTestMacros.cpp **** {
  57:TestTestMacros.cpp ****     int x;
  58:TestTestMacros.cpp **** };
  59:TestTestMacros.cpp **** 
  60:TestTestMacros.cpp **** // We're really testing the macros so we just want them to compile and link
  61:TestTestMacros.cpp **** SUITE(TestSuite1)
 1787              		.loc 6 61 0
 1788              		.cfi_startproc
 1789 094e 55       		pushq	%rbp
 1790              		.cfi_def_cfa_offset 16
 1791              		.cfi_offset 6, -16
 1792 094f 4889E5   		movq	%rsp, %rbp
 1793              		.cfi_def_cfa_register 6
 1794              		.loc 6 61 0
 1795 0952 B8000000 		movl	$.LC24, %eax
 1795      00
 1796 0957 5D       		popq	%rbp
 1797              		.cfi_def_cfa 7, 8
 1798 0958 C3       		ret
 1799              		.cfi_endproc
 1800              	.LFE1111:
 1802              		.section	.rodata
 1803 0397 00       		.align 8
 1804              	.LC25:
 1805 0398 53696D69 		.string	"SimilarlyNamedTestsInDifferentSuitesWork"
 1805      6C61726C 
 1805      794E616D 
 1805      65645465 
 1805      73747349 
 1806              		.text
 1807 0959 90       		.align 2
 1809              	_ZN12_GLOBAL__N_115SuiteTestSuite144TestSimilarlyNamedTestsInDifferentSuitesWorkC2Ev:
 1810              	.LFB1113:
  62:TestTestMacros.cpp **** {
  63:TestTestMacros.cpp **** 	TEST(SimilarlyNamedTestsInDifferentSuitesWork)
 1811              		.loc 6 63 0
 1812              		.cfi_startproc
 1813 095a 55       		pushq	%rbp
 1814              		.cfi_def_cfa_offset 16
 1815              		.cfi_offset 6, -16
 1816 095b 4889E5   		movq	%rsp, %rbp
 1817              		.cfi_def_cfa_register 6
 1818 095e 4883EC10 		subq	$16, %rsp
 1819 0962 48897DF8 		movq	%rdi, -8(%rbp)
 1820              	.LBB23:
 1821              		.loc 6 63 0
 1822 0966 E8E3FFFF 		call	_ZN12_GLOBAL__N_115SuiteTestSuite113UnitTestSuite12GetSuiteNameEv
 1822      FF
 1823 096b 4889C2   		movq	%rax, %rdx
 1824 096e 488B45F8 		movq	-8(%rbp), %rax
 1825 0972 41B83F00 		movl	$63, %r8d
 1825      0000
 1826 0978 B9000000 		movl	$.LC2, %ecx
 1826      00
 1827 097d BE000000 		movl	$.LC25, %esi
 1827      00
 1828 0982 4889C7   		movq	%rax, %rdi
 1829 0985 E8000000 		call	_ZN8UnitTest4TestC2EPKcS2_S2_i
 1829      00
 1830 098a BA000000 		movl	$_ZTVN12_GLOBAL__N_115SuiteTestSuite144TestSimilarlyNamedTestsInDifferentSuitesWorkE+16, %edx
 1830      00
 1831 098f 488B45F8 		movq	-8(%rbp), %rax
 1832 0993 488910   		movq	%rdx, (%rax)
 1833              	.LBE23:
 1834 0996 90       		nop
 1835 0997 C9       		leave
 1836              		.cfi_def_cfa 7, 8
 1837 0998 C3       		ret
 1838              		.cfi_endproc
 1839              	.LFE1113:
 1841              		.set	_ZN12_GLOBAL__N_115SuiteTestSuite144TestSimilarlyNamedTestsInDifferentSuitesWorkC1Ev,_ZN12_GL
 1842              		.local	_ZN12_GLOBAL__N_115SuiteTestSuite152testSimilarlyNamedTestsInDifferentSuitesWorkInstanceE
 1843              		.comm	_ZN12_GLOBAL__N_115SuiteTestSuite152testSimilarlyNamedTestsInDifferentSuitesWorkInstanceE,56
 1844              		.local	_ZN12_GLOBAL__N_115SuiteTestSuite145adderSimilarlyNamedTestsInDifferentSuitesWorkE
 1845              		.comm	_ZN12_GLOBAL__N_115SuiteTestSuite145adderSimilarlyNamedTestsInDifferentSuitesWorkE,1,1
 1846 0999 90       		.align 2
 1848              	_ZNK12_GLOBAL__N_115SuiteTestSuite144TestSimilarlyNamedTestsInDifferentSuitesWork7RunImplEv:
 1849              	.LFB1115:
  64:TestTestMacros.cpp **** 	{
 1850              		.loc 6 64 0
 1851              		.cfi_startproc
 1852 099a 55       		pushq	%rbp
 1853              		.cfi_def_cfa_offset 16
 1854              		.cfi_offset 6, -16
 1855 099b 4889E5   		movq	%rsp, %rbp
 1856              		.cfi_def_cfa_register 6
 1857 099e 48897DF8 		movq	%rdi, -8(%rbp)
  65:TestTestMacros.cpp **** 	}
 1858              		.loc 6 65 0
 1859 09a2 90       		nop
 1860 09a3 5D       		popq	%rbp
 1861              		.cfi_def_cfa 7, 8
 1862 09a4 C3       		ret
 1863              		.cfi_endproc
 1864              	.LFE1115:
 1866 09a5 90       		.align 2
 1868              	_ZN12_GLOBAL__N_112DummyFixtureC2Ev:
 1869              	.LFB1118:
  55:TestTestMacros.cpp **** {
 1870              		.loc 6 55 0
 1871              		.cfi_startproc
 1872 09a6 55       		pushq	%rbp
 1873              		.cfi_def_cfa_offset 16
 1874              		.cfi_offset 6, -16
 1875 09a7 4889E5   		movq	%rsp, %rbp
 1876              		.cfi_def_cfa_register 6
 1877 09aa 48897DF8 		movq	%rdi, -8(%rbp)
  55:TestTestMacros.cpp **** {
 1878              		.loc 6 55 0
 1879 09ae 90       		nop
 1880 09af 5D       		popq	%rbp
 1881              		.cfi_def_cfa 7, 8
 1882 09b0 C3       		ret
 1883              		.cfi_endproc
 1884              	.LFE1118:
 1886 09b1 90       		.align 2
 1888              	_ZN12_GLOBAL__N_115SuiteTestSuite165DummyFixtureSimilarlyNamedFixtureTestsInDifferentSuitesWorkHelp
 1889              	.LFB1120:
  66:TestTestMacros.cpp **** 
  67:TestTestMacros.cpp **** 	TEST_FIXTURE(DummyFixture, SimilarlyNamedFixtureTestsInDifferentSuitesWork)
 1890              		.loc 6 67 0
 1891              		.cfi_startproc
 1892 09b2 55       		pushq	%rbp
 1893              		.cfi_def_cfa_offset 16
 1894              		.cfi_offset 6, -16
 1895 09b3 4889E5   		movq	%rsp, %rbp
 1896              		.cfi_def_cfa_register 6
 1897 09b6 4883EC10 		subq	$16, %rsp
 1898 09ba 48897DF8 		movq	%rdi, -8(%rbp)
 1899 09be 488975F0 		movq	%rsi, -16(%rbp)
 1900              	.LBB24:
 1901              		.loc 6 67 0
 1902 09c2 488B45F8 		movq	-8(%rbp), %rax
 1903 09c6 4889C7   		movq	%rax, %rdi
 1904 09c9 E8D8FFFF 		call	_ZN12_GLOBAL__N_112DummyFixtureC2Ev
 1904      FF
 1905 09ce 488B45F8 		movq	-8(%rbp), %rax
 1906 09d2 488B55F0 		movq	-16(%rbp), %rdx
 1907 09d6 48895008 		movq	%rdx, 8(%rax)
 1908              	.LBE24:
 1909 09da 90       		nop
 1910 09db C9       		leave
 1911              		.cfi_def_cfa 7, 8
 1912 09dc C3       		ret
 1913              		.cfi_endproc
 1914              	.LFE1120:
 1916              		.set	_ZN12_GLOBAL__N_115SuiteTestSuite165DummyFixtureSimilarlyNamedFixtureTestsInDifferentSuitesWo
 1917              		.section	.rodata
 1918 03c1 00000000 		.align 8
 1918      000000
 1919              	.LC26:
 1920 03c8 53696D69 		.string	"SimilarlyNamedFixtureTestsInDifferentSuitesWork"
 1920      6C61726C 
 1920      794E616D 
 1920      65644669 
 1920      78747572 
 1921              		.text
 1922 09dd 90       		.align 2
 1924              	_ZN12_GLOBAL__N_115SuiteTestSuite163TestDummyFixtureSimilarlyNamedFixtureTestsInDifferentSuitesWork
 1925              	.LFB1123:
 1926              		.loc 6 67 0
 1927              		.cfi_startproc
 1928 09de 55       		pushq	%rbp
 1929              		.cfi_def_cfa_offset 16
 1930              		.cfi_offset 6, -16
 1931 09df 4889E5   		movq	%rsp, %rbp
 1932              		.cfi_def_cfa_register 6
 1933 09e2 4883EC10 		subq	$16, %rsp
 1934 09e6 48897DF8 		movq	%rdi, -8(%rbp)
 1935              	.LBB25:
 1936              		.loc 6 67 0
 1937 09ea E85FFFFF 		call	_ZN12_GLOBAL__N_115SuiteTestSuite113UnitTestSuite12GetSuiteNameEv
 1937      FF
 1938 09ef 4889C2   		movq	%rax, %rdx
 1939 09f2 488B45F8 		movq	-8(%rbp), %rax
 1940 09f6 41B84300 		movl	$67, %r8d
 1940      0000
 1941 09fc B9000000 		movl	$.LC2, %ecx
 1941      00
 1942 0a01 BE000000 		movl	$.LC26, %esi
 1942      00
 1943 0a06 4889C7   		movq	%rax, %rdi
 1944 0a09 E8000000 		call	_ZN8UnitTest4TestC2EPKcS2_S2_i
 1944      00
 1945 0a0e BA000000 		movl	$_ZTVN12_GLOBAL__N_115SuiteTestSuite163TestDummyFixtureSimilarlyNamedFixtureTestsInDifferentS
 1945      00
 1946 0a13 488B45F8 		movq	-8(%rbp), %rax
 1947 0a17 488910   		movq	%rdx, (%rax)
 1948              	.LBE25:
 1949 0a1a 90       		nop
 1950 0a1b C9       		leave
 1951              		.cfi_def_cfa 7, 8
 1952 0a1c C3       		ret
 1953              		.cfi_endproc
 1954              	.LFE1123:
 1956              		.set	_ZN12_GLOBAL__N_115SuiteTestSuite163TestDummyFixtureSimilarlyNamedFixtureTestsInDifferentSuit
 1957              		.local	_ZN12_GLOBAL__N_115SuiteTestSuite171testDummyFixtureSimilarlyNamedFixtureTestsInDifferentSu
 1958              		.comm	_ZN12_GLOBAL__N_115SuiteTestSuite171testDummyFixtureSimilarlyNamedFixtureTestsInDifferentSui
 1959              		.local	_ZN12_GLOBAL__N_115SuiteTestSuite164adderDummyFixtureSimilarlyNamedFixtureTestsInDifferentS
 1960              		.comm	_ZN12_GLOBAL__N_115SuiteTestSuite164adderDummyFixtureSimilarlyNamedFixtureTestsInDifferentSu
 1961              		.section	.rodata
 1962              		.align 8
 1963              	.LC27:
 1964 03f8 556E6861 		.string	"Unhandled exception while destroying fixture DummyFixture"
 1964      6E646C65 
 1964      64206578 
 1964      63657074 
 1964      696F6E20 
 1965 0432 00000000 		.align 8
 1965      0000
 1966              	.LC28:
 1967 0438 556E6861 		.string	"Unhandled exception while constructing fixture DummyFixture"
 1967      6E646C65 
 1967      64206578 
 1967      63657074 
 1967      696F6E20 
 1968              		.text
 1969 0a1d 90       		.align 2
 1971              	_ZNK12_GLOBAL__N_115SuiteTestSuite163TestDummyFixtureSimilarlyNamedFixtureTestsInDifferentSuitesWor
 1972              	.LFB1125:
 1973              		.loc 6 67 0
 1974              		.cfi_startproc
 1975              		.cfi_personality 0x3,__gxx_personality_v0
 1976              		.cfi_lsda 0x3,.LLSDA1125
 1977 0a1e 55       		pushq	%rbp
 1978              		.cfi_def_cfa_offset 16
 1979              		.cfi_offset 6, -16
 1980 0a1f 4889E5   		movq	%rsp, %rbp
 1981              		.cfi_def_cfa_register 6
 1982 0a22 4154     		pushq	%r12
 1983 0a24 53       		pushq	%rbx
 1984 0a25 4881ECF0 		subq	$496, %rsp
 1984      010000
 1985              		.cfi_offset 12, -24
 1986              		.cfi_offset 3, -32
 1987 0a2c 4889BD08 		movq	%rdi, -504(%rbp)
 1987      FEFFFF
 1988              		.loc 6 67 0
 1989 0a33 64488B04 		movq	%fs:40, %rax
 1989      25280000 
 1989      00
 1990 0a3c 488945E8 		movq	%rax, -24(%rbp)
 1991 0a40 31C0     		xorl	%eax, %eax
 1992 0a42 C6851FFE 		movb	$0, -481(%rbp)
 1992      FFFF00
 1993              	.LBB26:
 1994 0a49 488B8508 		movq	-504(%rbp), %rax
 1994      FEFFFF
 1995 0a50 488D5008 		leaq	8(%rax), %rdx
 1996 0a54 488D8530 		leaq	-464(%rbp), %rax
 1996      FEFFFF
 1997 0a5b 4889D6   		movq	%rdx, %rsi
 1998 0a5e 4889C7   		movq	%rax, %rdi
 1999 0a61 E84CFFFF 		call	_ZN12_GLOBAL__N_115SuiteTestSuite165DummyFixtureSimilarlyNamedFixtureTestsInDifferentSuitesWo
 1999      FF
 2000 0a66 C6851FFE 		movb	$1, -481(%rbp)
 2000      FFFF01
 2001 0a6d 488B8508 		movq	-504(%rbp), %rax
 2001      FEFFFF
 2002 0a74 488D5008 		leaq	8(%rax), %rdx
 2003 0a78 488D8530 		leaq	-464(%rbp), %rax
 2003      FEFFFF
 2004 0a7f 4889D6   		movq	%rdx, %rsi
 2005 0a82 4889C7   		movq	%rax, %rdi
 2006              	.LEHB35:
 2007 0a85 E8792700 		call	_ZN8UnitTest11ExecuteTestIN12_GLOBAL__N_115SuiteTestSuite165DummyFixtureSimilarlyNamedFixture
 2007      00
 2008              	.LEHE35:
 2009              	.LBE26:
 2010 0a8a E9490200 		jmp	.L91
 2010      00
 2011              	.L104:
 2012 0a8f 4883FA01 		cmpq	$1, %rdx
 2013 0a93 740F     		je	.L94
 2014 0a95 4883FA02 		cmpq	$2, %rdx
 2015 0a99 0F84A700 		je	.L95
 2015      0000
 2016 0a9f E94B0100 		jmp	.L109
 2016      00
 2017              	.L94:
 2018              	.LBB27:
 2019 0aa4 4889C7   		movq	%rax, %rdi
 2020 0aa7 E8000000 		call	__cxa_begin_catch
 2020      00
 2021 0aac 48898520 		movq	%rax, -480(%rbp)
 2021      FEFFFF
 2022 0ab3 488B8520 		movq	-480(%rbp), %rax
 2022      FEFFFF
 2023 0aba 488B00   		movq	(%rax), %rax
 2024 0abd 4883C010 		addq	$16, %rax
 2025 0ac1 488B00   		movq	(%rax), %rax
 2026 0ac4 488B9520 		movq	-480(%rbp), %rdx
 2026      FEFFFF
 2027 0acb 4889D7   		movq	%rdx, %rdi
 2028 0ace FFD0     		call	*%rax
 2029 0ad0 4889C3   		movq	%rax, %rbx
 2030 0ad3 488B8520 		movq	-480(%rbp), %rax
 2030      FEFFFF
 2031 0ada 4889C7   		movq	%rax, %rdi
 2032              	.LEHB36:
 2033 0add E8000000 		call	_ZNK8UnitTest15AssertException10LineNumberEv
 2033      00
 2034 0ae2 4189C4   		movl	%eax, %r12d
 2035 0ae5 488B8520 		movq	-480(%rbp), %rax
 2035      FEFFFF
 2036 0aec 4889C7   		movq	%rax, %rdi
 2037 0aef E8000000 		call	_ZNK8UnitTest15AssertException8FilenameEv
 2037      00
 2038              		.loc 6 67 0 is_stmt 0 discriminator 2
 2039 0af4 4889C1   		movq	%rax, %rcx
 2040 0af7 488B8508 		movq	-504(%rbp), %rax
 2040      FEFFFF
 2041 0afe 488B5008 		movq	8(%rax), %rdx
 2042 0b02 488B8508 		movq	-504(%rbp), %rax
 2042      FEFFFF
 2043 0b09 488B7010 		movq	16(%rax), %rsi
 2044 0b0d 488D8530 		leaq	-464(%rbp), %rax
 2044      FEFFFF
 2045 0b14 4589E0   		movl	%r12d, %r8d
 2046 0b17 4889C7   		movq	%rax, %rdi
 2047 0b1a E8000000 		call	_ZN8UnitTest11TestDetailsC1EPKcS2_S2_i
 2047      00
 2048              		.loc 6 67 0 discriminator 6
 2049 0b1f E8000000 		call	_ZN8UnitTest11CurrentTest7ResultsEv
 2049      00
 2050 0b24 488B00   		movq	(%rax), %rax
 2051 0b27 488D8D30 		leaq	-464(%rbp), %rcx
 2051      FEFFFF
 2052 0b2e 4889DA   		movq	%rbx, %rdx
 2053 0b31 4889CE   		movq	%rcx, %rsi
 2054 0b34 4889C7   		movq	%rax, %rdi
 2055 0b37 E8000000 		call	_ZN8UnitTest11TestResults13OnTestFailureERKNS_11TestDetailsEPKc
 2055      00
 2056              	.LEHE36:
 2057              		.loc 6 67 0 discriminator 10
 2058 0b3c E8000000 		call	__cxa_end_catch
 2058      00
 2059              	.LBE27:
 2060 0b41 E9920100 		jmp	.L91
 2060      00
 2061              	.L95:
 2062              	.LBB28:
 2063              		.loc 6 67 0
 2064 0b46 4889C7   		movq	%rax, %rdi
 2065 0b49 E8000000 		call	__cxa_begin_catch
 2065      00
 2066 0b4e 48898528 		movq	%rax, -472(%rbp)
 2066      FEFFFF
 2067              	.LBB29:
 2068 0b55 488D8550 		leaq	-432(%rbp), %rax
 2068      FEFFFF
 2069 0b5c 4889C7   		movq	%rax, %rdi
 2070              	.LEHB37:
 2071 0b5f E8000000 		call	_ZN8UnitTest15MemoryOutStreamC1Ev
 2071      00
 2072              	.LEHE37:
 2073              		.loc 6 67 0 discriminator 12
 2074 0b64 488B8528 		movq	-472(%rbp), %rax
 2074      FEFFFF
 2075 0b6b 488B00   		movq	(%rax), %rax
 2076 0b6e 4883C010 		addq	$16, %rax
 2077 0b72 488B00   		movq	(%rax), %rax
 2078 0b75 488B9528 		movq	-472(%rbp), %rdx
 2078      FEFFFF
 2079 0b7c 4889D7   		movq	%rdx, %rdi
 2080 0b7f FFD0     		call	*%rax
 2081 0b81 4889C3   		movq	%rax, %rbx
 2082 0b84 488D8550 		leaq	-432(%rbp), %rax
 2082      FEFFFF
 2083 0b8b BE000000 		movl	$.LC11, %esi
 2083      00
 2084 0b90 4889C7   		movq	%rax, %rdi
 2085              	.LEHB38:
 2086 0b93 E8000000 		call	_ZStlsISt11char_traitsIcEERSt13basic_ostreamIcT_ES5_PKc
 2086      00
 2087 0b98 4889DE   		movq	%rbx, %rsi
 2088 0b9b 4889C7   		movq	%rax, %rdi
 2089 0b9e E8000000 		call	_ZStlsISt11char_traitsIcEERSt13basic_ostreamIcT_ES5_PKc
 2089      00
 2090              		.loc 6 67 0 discriminator 16
 2091 0ba3 488D8550 		leaq	-432(%rbp), %rax
 2091      FEFFFF
 2092 0baa 4889C7   		movq	%rax, %rdi
 2093 0bad E8000000 		call	_ZNK8UnitTest15MemoryOutStream7GetTextEv
 2093      00
 2094 0bb2 4989C4   		movq	%rax, %r12
 2095 0bb5 488B8508 		movq	-504(%rbp), %rax
 2095      FEFFFF
 2096 0bbc 488D5808 		leaq	8(%rax), %rbx
 2097 0bc0 E8000000 		call	_ZN8UnitTest11CurrentTest7ResultsEv
 2097      00
 2098              		.loc 6 67 0 discriminator 18
 2099 0bc5 488B00   		movq	(%rax), %rax
 2100 0bc8 4C89E2   		movq	%r12, %rdx
 2101 0bcb 4889DE   		movq	%rbx, %rsi
 2102 0bce 4889C7   		movq	%rax, %rdi
 2103 0bd1 E8000000 		call	_ZN8UnitTest11TestResults13OnTestFailureERKNS_11TestDetailsEPKc
 2103      00
 2104              	.LEHE38:
 2105              		.loc 6 67 0 discriminator 22
 2106 0bd6 488D8550 		leaq	-432(%rbp), %rax
 2106      FEFFFF
 2107 0bdd 4889C7   		movq	%rax, %rdi
 2108              	.LEHB39:
 2109 0be0 E8000000 		call	_ZN8UnitTest15MemoryOutStreamD1Ev
 2109      00
 2110              	.LEHE39:
 2111              	.LBE29:
 2112              		.loc 6 67 0 discriminator 23
 2113 0be5 E8000000 		call	__cxa_end_catch
 2113      00
 2114              	.LBE28:
 2115 0bea E9E90000 		jmp	.L91
 2115      00
 2116              	.L109:
 2117              		.loc 6 67 0
 2118 0bef 4889C7   		movq	%rax, %rdi
 2119 0bf2 E8000000 		call	__cxa_begin_catch
 2119      00
 2120 0bf7 80BD1FFE 		cmpb	$0, -481(%rbp)
 2120      FFFF00
 2121 0bfe 7443     		je	.L97
 2122              		.loc 6 67 0 discriminator 25
 2123 0c00 488B8508 		movq	-504(%rbp), %rax
 2123      FEFFFF
 2124 0c07 488D4808 		leaq	8(%rax), %rcx
 2125 0c0b 488D8530 		leaq	-464(%rbp), %rax
 2125      FEFFFF
 2126 0c12 BA430000 		movl	$67, %edx
 2126      00
 2127 0c17 4889CE   		movq	%rcx, %rsi
 2128 0c1a 4889C7   		movq	%rax, %rdi
 2129              	.LEHB40:
 2130 0c1d E8000000 		call	_ZN8UnitTest11TestDetailsC1ERKS0_i
 2130      00
 2131              		.loc 6 67 0 discriminator 28
 2132 0c22 E8000000 		call	_ZN8UnitTest11CurrentTest7ResultsEv
 2132      00
 2133 0c27 488B00   		movq	(%rax), %rax
 2134 0c2a 488D8D30 		leaq	-464(%rbp), %rcx
 2134      FEFFFF
 2135 0c31 BA000000 		movl	$.LC27, %edx
 2135      00
 2136 0c36 4889CE   		movq	%rcx, %rsi
 2137 0c39 4889C7   		movq	%rax, %rdi
 2138 0c3c E8000000 		call	_ZN8UnitTest11TestResults13OnTestFailureERKNS_11TestDetailsEPKc
 2138      00
 2139 0c41 EB41     		jmp	.L98
 2140              	.L97:
 2141              		.loc 6 67 0 discriminator 26
 2142 0c43 488B8508 		movq	-504(%rbp), %rax
 2142      FEFFFF
 2143 0c4a 488D4808 		leaq	8(%rax), %rcx
 2144 0c4e 488D8530 		leaq	-464(%rbp), %rax
 2144      FEFFFF
 2145 0c55 BA430000 		movl	$67, %edx
 2145      00
 2146 0c5a 4889CE   		movq	%rcx, %rsi
 2147 0c5d 4889C7   		movq	%rax, %rdi
 2148 0c60 E8000000 		call	_ZN8UnitTest11TestDetailsC1ERKS0_i
 2148      00
 2149              		.loc 6 67 0 discriminator 35
 2150 0c65 E8000000 		call	_ZN8UnitTest11CurrentTest7ResultsEv
 2150      00
 2151 0c6a 488B00   		movq	(%rax), %rax
 2152 0c6d 488D8D30 		leaq	-464(%rbp), %rcx
 2152      FEFFFF
 2153 0c74 BA000000 		movl	$.LC28, %edx
 2153      00
 2154 0c79 4889CE   		movq	%rcx, %rsi
 2155 0c7c 4889C7   		movq	%rax, %rdi
 2156 0c7f E8000000 		call	_ZN8UnitTest11TestResults13OnTestFailureERKNS_11TestDetailsEPKc
 2156      00
 2157              	.LEHE40:
 2158              	.L98:
 2159              	.LEHB41:
 2160              		.loc 6 67 0 discriminator 40
 2161 0c84 E8000000 		call	__cxa_end_catch
 2161      00
 2162 0c89 EB4D     		jmp	.L91
 2163              	.L105:
 2164 0c8b 4889C3   		movq	%rax, %rbx
 2165              	.LBB31:
 2166              		.loc 6 67 0
 2167 0c8e E8000000 		call	__cxa_end_catch
 2167      00
 2168 0c93 4889D8   		movq	%rbx, %rax
 2169 0c96 4889C7   		movq	%rax, %rdi
 2170 0c99 E8000000 		call	_Unwind_Resume
 2170      00
 2171              	.LEHE41:
 2172              	.L107:
 2173 0c9e 4889C3   		movq	%rax, %rbx
 2174              	.LBE31:
 2175              	.LBB32:
 2176              	.LBB30:
 2177 0ca1 488D8550 		leaq	-432(%rbp), %rax
 2177      FEFFFF
 2178 0ca8 4889C7   		movq	%rax, %rdi
 2179 0cab E8000000 		call	_ZN8UnitTest15MemoryOutStreamD1Ev
 2179      00
 2180 0cb0 EB03     		jmp	.L101
 2181              	.L106:
 2182 0cb2 4889C3   		movq	%rax, %rbx
 2183              	.L101:
 2184              	.LBE30:
 2185 0cb5 E8000000 		call	__cxa_end_catch
 2185      00
 2186 0cba 4889D8   		movq	%rbx, %rax
 2187 0cbd 4889C7   		movq	%rax, %rdi
 2188              	.LEHB42:
 2189 0cc0 E8000000 		call	_Unwind_Resume
 2189      00
 2190              	.LEHE42:
 2191              	.L108:
 2192 0cc5 4889C3   		movq	%rax, %rbx
 2193              	.LBE32:
 2194 0cc8 E8000000 		call	__cxa_end_catch
 2194      00
 2195 0ccd 4889D8   		movq	%rbx, %rax
 2196 0cd0 4889C7   		movq	%rax, %rdi
 2197              	.LEHB43:
 2198 0cd3 E8000000 		call	_Unwind_Resume
 2198      00
 2199              	.LEHE43:
 2200              	.L91:
 2201 0cd8 488B45E8 		movq	-24(%rbp), %rax
 2202 0cdc 64483304 		xorq	%fs:40, %rax
 2202      25280000 
 2202      00
 2203 0ce5 7405     		je	.L103
 2204 0ce7 E8000000 		call	__stack_chk_fail
 2204      00
 2205              	.L103:
 2206 0cec 4881C4F0 		addq	$496, %rsp
 2206      010000
 2207 0cf3 5B       		popq	%rbx
 2208 0cf4 415C     		popq	%r12
 2209 0cf6 5D       		popq	%rbp
 2210              		.cfi_def_cfa 7, 8
 2211 0cf7 C3       		ret
 2212              		.cfi_endproc
 2213              	.LFE1125:
 2214              		.section	.gcc_except_table
 2215              		.align 4
 2216              	.LLSDA1125:
 2217 00dc FF       		.byte	0xff
 2218 00dd 03       		.byte	0x3
 2219 00de 45       		.uleb128 .LLSDATT1125-.LLSDATTD1125
 2220              	.LLSDATTD1125:
 2221 00df 01       		.byte	0x1
 2222 00e0 31       		.uleb128 .LLSDACSE1125-.LLSDACSB1125
 2223              	.LLSDACSB1125:
 2224 00e1 67       		.uleb128 .LEHB35-.LFB1125
 2225 00e2 05       		.uleb128 .LEHE35-.LEHB35
 2226 00e3 71       		.uleb128 .L104-.LFB1125
 2227 00e4 05       		.uleb128 0x5
 2228 00e5 BF01     		.uleb128 .LEHB36-.LFB1125
 2229 00e7 5F       		.uleb128 .LEHE36-.LEHB36
 2230 00e8 ED04     		.uleb128 .L105-.LFB1125
 2231 00ea 00       		.uleb128 0
 2232 00eb C102     		.uleb128 .LEHB37-.LFB1125
 2233 00ed 05       		.uleb128 .LEHE37-.LEHB37
 2234 00ee 9405     		.uleb128 .L106-.LFB1125
 2235 00f0 00       		.uleb128 0
 2236 00f1 F502     		.uleb128 .LEHB38-.LFB1125
 2237 00f3 43       		.uleb128 .LEHE38-.LEHB38
 2238 00f4 8005     		.uleb128 .L107-.LFB1125
 2239 00f6 00       		.uleb128 0
 2240 00f7 C203     		.uleb128 .LEHB39-.LFB1125
 2241 00f9 05       		.uleb128 .LEHE39-.LEHB39
 2242 00fa 9405     		.uleb128 .L106-.LFB1125
 2243 00fc 00       		.uleb128 0
 2244 00fd FF03     		.uleb128 .LEHB40-.LFB1125
 2245 00ff 67       		.uleb128 .LEHE40-.LEHB40
 2246 0100 A705     		.uleb128 .L108-.LFB1125
 2247 0102 00       		.uleb128 0
 2248 0103 E604     		.uleb128 .LEHB41-.LFB1125
 2249 0105 1A       		.uleb128 .LEHE41-.LEHB41
 2250 0106 00       		.uleb128 0
 2251 0107 00       		.uleb128 0
 2252 0108 A205     		.uleb128 .LEHB42-.LFB1125
 2253 010a 05       		.uleb128 .LEHE42-.LEHB42
 2254 010b 00       		.uleb128 0
 2255 010c 00       		.uleb128 0
 2256 010d B505     		.uleb128 .LEHB43-.LFB1125
 2257 010f 05       		.uleb128 .LEHE43-.LEHB43
 2258 0110 00       		.uleb128 0
 2259 0111 00       		.uleb128 0
 2260              	.LLSDACSE1125:
 2261 0112 03       		.byte	0x3
 2262 0113 00       		.byte	0
 2263 0114 02       		.byte	0x2
 2264 0115 7D       		.byte	0x7d
 2265 0116 01       		.byte	0x1
 2266 0117 7D       		.byte	0x7d
 2267              		.align 4
 2268 0118 00000000 		.long	0
 2269              	
 2270 011c 00000000 		.long	_ZTISt9exception
 2271 0120 00000000 		.long	_ZTIN8UnitTest15AssertExceptionE
 2272              	.LLSDATT1125:
 2273              		.text
 2275              		.align 2
 2277              	_ZN12_GLOBAL__N_115SuiteTestSuite165DummyFixtureSimilarlyNamedFixtureTestsInDifferentSuitesWorkHelp
 2278              	.LFB1126:
  68:TestTestMacros.cpp **** 	{
 2279              		.loc 6 68 0 is_stmt 1
 2280              		.cfi_startproc
 2281 0cf8 55       		pushq	%rbp
 2282              		.cfi_def_cfa_offset 16
 2283              		.cfi_offset 6, -16
 2284 0cf9 4889E5   		movq	%rsp, %rbp
 2285              		.cfi_def_cfa_register 6
 2286 0cfc 48897DF8 		movq	%rdi, -8(%rbp)
  69:TestTestMacros.cpp **** 	}
 2287              		.loc 6 69 0
 2288 0d00 90       		nop
 2289 0d01 5D       		popq	%rbp
 2290              		.cfi_def_cfa 7, 8
 2291 0d02 C3       		ret
 2292              		.cfi_endproc
 2293              	.LFE1126:
 2295              		.section	.rodata
 2296              	.LC29:
 2297 0474 54657374 		.string	"TestSuite2"
 2297      53756974 
 2297      653200
 2298              		.text
 2300              	_ZN12_GLOBAL__N_115SuiteTestSuite213UnitTestSuite12GetSuiteNameEv:
 2301              	.LFB1127:
  70:TestTestMacros.cpp **** }
  71:TestTestMacros.cpp **** 
  72:TestTestMacros.cpp **** SUITE(TestSuite2)
 2302              		.loc 6 72 0
 2303              		.cfi_startproc
 2304 0d03 55       		pushq	%rbp
 2305              		.cfi_def_cfa_offset 16
 2306              		.cfi_offset 6, -16
 2307 0d04 4889E5   		movq	%rsp, %rbp
 2308              		.cfi_def_cfa_register 6
 2309              		.loc 6 72 0
 2310 0d07 B8000000 		movl	$.LC29, %eax
 2310      00
 2311 0d0c 5D       		popq	%rbp
 2312              		.cfi_def_cfa 7, 8
 2313 0d0d C3       		ret
 2314              		.cfi_endproc
 2315              	.LFE1127:
 2317              		.align 2
 2319              	_ZN12_GLOBAL__N_115SuiteTestSuite244TestSimilarlyNamedTestsInDifferentSuitesWorkC2Ev:
 2320              	.LFB1129:
  73:TestTestMacros.cpp **** {
  74:TestTestMacros.cpp **** 	TEST(SimilarlyNamedTestsInDifferentSuitesWork)
 2321              		.loc 6 74 0
 2322              		.cfi_startproc
 2323 0d0e 55       		pushq	%rbp
 2324              		.cfi_def_cfa_offset 16
 2325              		.cfi_offset 6, -16
 2326 0d0f 4889E5   		movq	%rsp, %rbp
 2327              		.cfi_def_cfa_register 6
 2328 0d12 4883EC10 		subq	$16, %rsp
 2329 0d16 48897DF8 		movq	%rdi, -8(%rbp)
 2330              	.LBB33:
 2331              		.loc 6 74 0
 2332 0d1a E8E4FFFF 		call	_ZN12_GLOBAL__N_115SuiteTestSuite213UnitTestSuite12GetSuiteNameEv
 2332      FF
 2333 0d1f 4889C2   		movq	%rax, %rdx
 2334 0d22 488B45F8 		movq	-8(%rbp), %rax
 2335 0d26 41B84A00 		movl	$74, %r8d
 2335      0000
 2336 0d2c B9000000 		movl	$.LC2, %ecx
 2336      00
 2337 0d31 BE000000 		movl	$.LC25, %esi
 2337      00
 2338 0d36 4889C7   		movq	%rax, %rdi
 2339 0d39 E8000000 		call	_ZN8UnitTest4TestC2EPKcS2_S2_i
 2339      00
 2340 0d3e BA000000 		movl	$_ZTVN12_GLOBAL__N_115SuiteTestSuite244TestSimilarlyNamedTestsInDifferentSuitesWorkE+16, %edx
 2340      00
 2341 0d43 488B45F8 		movq	-8(%rbp), %rax
 2342 0d47 488910   		movq	%rdx, (%rax)
 2343              	.LBE33:
 2344 0d4a 90       		nop
 2345 0d4b C9       		leave
 2346              		.cfi_def_cfa 7, 8
 2347 0d4c C3       		ret
 2348              		.cfi_endproc
 2349              	.LFE1129:
 2351              		.set	_ZN12_GLOBAL__N_115SuiteTestSuite244TestSimilarlyNamedTestsInDifferentSuitesWorkC1Ev,_ZN12_GL
 2352              		.local	_ZN12_GLOBAL__N_115SuiteTestSuite252testSimilarlyNamedTestsInDifferentSuitesWorkInstanceE
 2353              		.comm	_ZN12_GLOBAL__N_115SuiteTestSuite252testSimilarlyNamedTestsInDifferentSuitesWorkInstanceE,56
 2354              		.local	_ZN12_GLOBAL__N_115SuiteTestSuite245adderSimilarlyNamedTestsInDifferentSuitesWorkE
 2355              		.comm	_ZN12_GLOBAL__N_115SuiteTestSuite245adderSimilarlyNamedTestsInDifferentSuitesWorkE,1,1
 2356 0d4d 90       		.align 2
 2358              	_ZNK12_GLOBAL__N_115SuiteTestSuite244TestSimilarlyNamedTestsInDifferentSuitesWork7RunImplEv:
 2359              	.LFB1131:
  75:TestTestMacros.cpp **** 	{
 2360              		.loc 6 75 0
 2361              		.cfi_startproc
 2362 0d4e 55       		pushq	%rbp
 2363              		.cfi_def_cfa_offset 16
 2364              		.cfi_offset 6, -16
 2365 0d4f 4889E5   		movq	%rsp, %rbp
 2366              		.cfi_def_cfa_register 6
 2367 0d52 48897DF8 		movq	%rdi, -8(%rbp)
  76:TestTestMacros.cpp **** 	}
 2368              		.loc 6 76 0
 2369 0d56 90       		nop
 2370 0d57 5D       		popq	%rbp
 2371              		.cfi_def_cfa 7, 8
 2372 0d58 C3       		ret
 2373              		.cfi_endproc
 2374              	.LFE1131:
 2376 0d59 90       		.align 2
 2378              	_ZN12_GLOBAL__N_115SuiteTestSuite265DummyFixtureSimilarlyNamedFixtureTestsInDifferentSuitesWorkHelp
 2379              	.LFB1133:
  77:TestTestMacros.cpp **** 
  78:TestTestMacros.cpp **** 	TEST_FIXTURE(DummyFixture,SimilarlyNamedFixtureTestsInDifferentSuitesWork)
 2380              		.loc 6 78 0
 2381              		.cfi_startproc
 2382 0d5a 55       		pushq	%rbp
 2383              		.cfi_def_cfa_offset 16
 2384              		.cfi_offset 6, -16
 2385 0d5b 4889E5   		movq	%rsp, %rbp
 2386              		.cfi_def_cfa_register 6
 2387 0d5e 4883EC10 		subq	$16, %rsp
 2388 0d62 48897DF8 		movq	%rdi, -8(%rbp)
 2389 0d66 488975F0 		movq	%rsi, -16(%rbp)
 2390              	.LBB34:
 2391              		.loc 6 78 0
 2392 0d6a 488B45F8 		movq	-8(%rbp), %rax
 2393 0d6e 4889C7   		movq	%rax, %rdi
 2394 0d71 E830FCFF 		call	_ZN12_GLOBAL__N_112DummyFixtureC2Ev
 2394      FF
 2395 0d76 488B45F8 		movq	-8(%rbp), %rax
 2396 0d7a 488B55F0 		movq	-16(%rbp), %rdx
 2397 0d7e 48895008 		movq	%rdx, 8(%rax)
 2398              	.LBE34:
 2399 0d82 90       		nop
 2400 0d83 C9       		leave
 2401              		.cfi_def_cfa 7, 8
 2402 0d84 C3       		ret
 2403              		.cfi_endproc
 2404              	.LFE1133:
 2406              		.set	_ZN12_GLOBAL__N_115SuiteTestSuite265DummyFixtureSimilarlyNamedFixtureTestsInDifferentSuitesWo
 2407 0d85 90       		.align 2
 2409              	_ZN12_GLOBAL__N_115SuiteTestSuite263TestDummyFixtureSimilarlyNamedFixtureTestsInDifferentSuitesWork
 2410              	.LFB1136:
 2411              		.loc 6 78 0
 2412              		.cfi_startproc
 2413 0d86 55       		pushq	%rbp
 2414              		.cfi_def_cfa_offset 16
 2415              		.cfi_offset 6, -16
 2416 0d87 4889E5   		movq	%rsp, %rbp
 2417              		.cfi_def_cfa_register 6
 2418 0d8a 4883EC10 		subq	$16, %rsp
 2419 0d8e 48897DF8 		movq	%rdi, -8(%rbp)
 2420              	.LBB35:
 2421              		.loc 6 78 0
 2422 0d92 E86CFFFF 		call	_ZN12_GLOBAL__N_115SuiteTestSuite213UnitTestSuite12GetSuiteNameEv
 2422      FF
 2423 0d97 4889C2   		movq	%rax, %rdx
 2424 0d9a 488B45F8 		movq	-8(%rbp), %rax
 2425 0d9e 41B84E00 		movl	$78, %r8d
 2425      0000
 2426 0da4 B9000000 		movl	$.LC2, %ecx
 2426      00
 2427 0da9 BE000000 		movl	$.LC26, %esi
 2427      00
 2428 0dae 4889C7   		movq	%rax, %rdi
 2429 0db1 E8000000 		call	_ZN8UnitTest4TestC2EPKcS2_S2_i
 2429      00
 2430 0db6 BA000000 		movl	$_ZTVN12_GLOBAL__N_115SuiteTestSuite263TestDummyFixtureSimilarlyNamedFixtureTestsInDifferentS
 2430      00
 2431 0dbb 488B45F8 		movq	-8(%rbp), %rax
 2432 0dbf 488910   		movq	%rdx, (%rax)
 2433              	.LBE35:
 2434 0dc2 90       		nop
 2435 0dc3 C9       		leave
 2436              		.cfi_def_cfa 7, 8
 2437 0dc4 C3       		ret
 2438              		.cfi_endproc
 2439              	.LFE1136:
 2441              		.set	_ZN12_GLOBAL__N_115SuiteTestSuite263TestDummyFixtureSimilarlyNamedFixtureTestsInDifferentSuit
 2442              		.local	_ZN12_GLOBAL__N_115SuiteTestSuite271testDummyFixtureSimilarlyNamedFixtureTestsInDifferentSu
 2443              		.comm	_ZN12_GLOBAL__N_115SuiteTestSuite271testDummyFixtureSimilarlyNamedFixtureTestsInDifferentSui
 2444              		.local	_ZN12_GLOBAL__N_115SuiteTestSuite264adderDummyFixtureSimilarlyNamedFixtureTestsInDifferentS
 2445              		.comm	_ZN12_GLOBAL__N_115SuiteTestSuite264adderDummyFixtureSimilarlyNamedFixtureTestsInDifferentSu
 2446 0dc5 90       		.align 2
 2448              	_ZNK12_GLOBAL__N_115SuiteTestSuite263TestDummyFixtureSimilarlyNamedFixtureTestsInDifferentSuitesWor
 2449              	.LFB1138:
 2450              		.loc 6 78 0
 2451              		.cfi_startproc
 2452              		.cfi_personality 0x3,__gxx_personality_v0
 2453              		.cfi_lsda 0x3,.LLSDA1138
 2454 0dc6 55       		pushq	%rbp
 2455              		.cfi_def_cfa_offset 16
 2456              		.cfi_offset 6, -16
 2457 0dc7 4889E5   		movq	%rsp, %rbp
 2458              		.cfi_def_cfa_register 6
 2459 0dca 4154     		pushq	%r12
 2460 0dcc 53       		pushq	%rbx
 2461 0dcd 4881ECF0 		subq	$496, %rsp
 2461      010000
 2462              		.cfi_offset 12, -24
 2463              		.cfi_offset 3, -32
 2464 0dd4 4889BD08 		movq	%rdi, -504(%rbp)
 2464      FEFFFF
 2465              		.loc 6 78 0
 2466 0ddb 64488B04 		movq	%fs:40, %rax
 2466      25280000 
 2466      00
 2467 0de4 488945E8 		movq	%rax, -24(%rbp)
 2468 0de8 31C0     		xorl	%eax, %eax
 2469 0dea C6851FFE 		movb	$0, -481(%rbp)
 2469      FFFF00
 2470              	.LBB36:
 2471 0df1 488B8508 		movq	-504(%rbp), %rax
 2471      FEFFFF
 2472 0df8 488D5008 		leaq	8(%rax), %rdx
 2473 0dfc 488D8530 		leaq	-464(%rbp), %rax
 2473      FEFFFF
 2474 0e03 4889D6   		movq	%rdx, %rsi
 2475 0e06 4889C7   		movq	%rax, %rdi
 2476 0e09 E84CFFFF 		call	_ZN12_GLOBAL__N_115SuiteTestSuite265DummyFixtureSimilarlyNamedFixtureTestsInDifferentSuitesWo
 2476      FF
 2477 0e0e C6851FFE 		movb	$1, -481(%rbp)
 2477      FFFF01
 2478 0e15 488B8508 		movq	-504(%rbp), %rax
 2478      FEFFFF
 2479 0e1c 488D5008 		leaq	8(%rax), %rdx
 2480 0e20 488D8530 		leaq	-464(%rbp), %rax
 2480      FEFFFF
 2481 0e27 4889D6   		movq	%rdx, %rsi
 2482 0e2a 4889C7   		movq	%rax, %rdi
 2483              	.LEHB44:
 2484 0e2d E8902600 		call	_ZN8UnitTest11ExecuteTestIN12_GLOBAL__N_115SuiteTestSuite265DummyFixtureSimilarlyNamedFixture
 2484      00
 2485              	.LEHE44:
 2486              	.LBE36:
 2487 0e32 E9490200 		jmp	.L117
 2487      00
 2488              	.L130:
 2489 0e37 4883FA01 		cmpq	$1, %rdx
 2490 0e3b 740F     		je	.L120
 2491 0e3d 4883FA02 		cmpq	$2, %rdx
 2492 0e41 0F84A700 		je	.L121
 2492      0000
 2493 0e47 E94B0100 		jmp	.L135
 2493      00
 2494              	.L120:
 2495              	.LBB37:
 2496 0e4c 4889C7   		movq	%rax, %rdi
 2497 0e4f E8000000 		call	__cxa_begin_catch
 2497      00
 2498 0e54 48898520 		movq	%rax, -480(%rbp)
 2498      FEFFFF
 2499 0e5b 488B8520 		movq	-480(%rbp), %rax
 2499      FEFFFF
 2500 0e62 488B00   		movq	(%rax), %rax
 2501 0e65 4883C010 		addq	$16, %rax
 2502 0e69 488B00   		movq	(%rax), %rax
 2503 0e6c 488B9520 		movq	-480(%rbp), %rdx
 2503      FEFFFF
 2504 0e73 4889D7   		movq	%rdx, %rdi
 2505 0e76 FFD0     		call	*%rax
 2506 0e78 4889C3   		movq	%rax, %rbx
 2507 0e7b 488B8520 		movq	-480(%rbp), %rax
 2507      FEFFFF
 2508 0e82 4889C7   		movq	%rax, %rdi
 2509              	.LEHB45:
 2510 0e85 E8000000 		call	_ZNK8UnitTest15AssertException10LineNumberEv
 2510      00
 2511 0e8a 4189C4   		movl	%eax, %r12d
 2512 0e8d 488B8520 		movq	-480(%rbp), %rax
 2512      FEFFFF
 2513 0e94 4889C7   		movq	%rax, %rdi
 2514 0e97 E8000000 		call	_ZNK8UnitTest15AssertException8FilenameEv
 2514      00
 2515              		.loc 6 78 0 is_stmt 0 discriminator 2
 2516 0e9c 4889C1   		movq	%rax, %rcx
 2517 0e9f 488B8508 		movq	-504(%rbp), %rax
 2517      FEFFFF
 2518 0ea6 488B5008 		movq	8(%rax), %rdx
 2519 0eaa 488B8508 		movq	-504(%rbp), %rax
 2519      FEFFFF
 2520 0eb1 488B7010 		movq	16(%rax), %rsi
 2521 0eb5 488D8530 		leaq	-464(%rbp), %rax
 2521      FEFFFF
 2522 0ebc 4589E0   		movl	%r12d, %r8d
 2523 0ebf 4889C7   		movq	%rax, %rdi
 2524 0ec2 E8000000 		call	_ZN8UnitTest11TestDetailsC1EPKcS2_S2_i
 2524      00
 2525              		.loc 6 78 0 discriminator 6
 2526 0ec7 E8000000 		call	_ZN8UnitTest11CurrentTest7ResultsEv
 2526      00
 2527 0ecc 488B00   		movq	(%rax), %rax
 2528 0ecf 488D8D30 		leaq	-464(%rbp), %rcx
 2528      FEFFFF
 2529 0ed6 4889DA   		movq	%rbx, %rdx
 2530 0ed9 4889CE   		movq	%rcx, %rsi
 2531 0edc 4889C7   		movq	%rax, %rdi
 2532 0edf E8000000 		call	_ZN8UnitTest11TestResults13OnTestFailureERKNS_11TestDetailsEPKc
 2532      00
 2533              	.LEHE45:
 2534              		.loc 6 78 0 discriminator 10
 2535 0ee4 E8000000 		call	__cxa_end_catch
 2535      00
 2536              	.LBE37:
 2537 0ee9 E9920100 		jmp	.L117
 2537      00
 2538              	.L121:
 2539              	.LBB38:
 2540              		.loc 6 78 0
 2541 0eee 4889C7   		movq	%rax, %rdi
 2542 0ef1 E8000000 		call	__cxa_begin_catch
 2542      00
 2543 0ef6 48898528 		movq	%rax, -472(%rbp)
 2543      FEFFFF
 2544              	.LBB39:
 2545 0efd 488D8550 		leaq	-432(%rbp), %rax
 2545      FEFFFF
 2546 0f04 4889C7   		movq	%rax, %rdi
 2547              	.LEHB46:
 2548 0f07 E8000000 		call	_ZN8UnitTest15MemoryOutStreamC1Ev
 2548      00
 2549              	.LEHE46:
 2550              		.loc 6 78 0 discriminator 12
 2551 0f0c 488B8528 		movq	-472(%rbp), %rax
 2551      FEFFFF
 2552 0f13 488B00   		movq	(%rax), %rax
 2553 0f16 4883C010 		addq	$16, %rax
 2554 0f1a 488B00   		movq	(%rax), %rax
 2555 0f1d 488B9528 		movq	-472(%rbp), %rdx
 2555      FEFFFF
 2556 0f24 4889D7   		movq	%rdx, %rdi
 2557 0f27 FFD0     		call	*%rax
 2558 0f29 4889C3   		movq	%rax, %rbx
 2559 0f2c 488D8550 		leaq	-432(%rbp), %rax
 2559      FEFFFF
 2560 0f33 BE000000 		movl	$.LC11, %esi
 2560      00
 2561 0f38 4889C7   		movq	%rax, %rdi
 2562              	.LEHB47:
 2563 0f3b E8000000 		call	_ZStlsISt11char_traitsIcEERSt13basic_ostreamIcT_ES5_PKc
 2563      00
 2564 0f40 4889DE   		movq	%rbx, %rsi
 2565 0f43 4889C7   		movq	%rax, %rdi
 2566 0f46 E8000000 		call	_ZStlsISt11char_traitsIcEERSt13basic_ostreamIcT_ES5_PKc
 2566      00
 2567              		.loc 6 78 0 discriminator 16
 2568 0f4b 488D8550 		leaq	-432(%rbp), %rax
 2568      FEFFFF
 2569 0f52 4889C7   		movq	%rax, %rdi
 2570 0f55 E8000000 		call	_ZNK8UnitTest15MemoryOutStream7GetTextEv
 2570      00
 2571 0f5a 4989C4   		movq	%rax, %r12
 2572 0f5d 488B8508 		movq	-504(%rbp), %rax
 2572      FEFFFF
 2573 0f64 488D5808 		leaq	8(%rax), %rbx
 2574 0f68 E8000000 		call	_ZN8UnitTest11CurrentTest7ResultsEv
 2574      00
 2575              		.loc 6 78 0 discriminator 18
 2576 0f6d 488B00   		movq	(%rax), %rax
 2577 0f70 4C89E2   		movq	%r12, %rdx
 2578 0f73 4889DE   		movq	%rbx, %rsi
 2579 0f76 4889C7   		movq	%rax, %rdi
 2580 0f79 E8000000 		call	_ZN8UnitTest11TestResults13OnTestFailureERKNS_11TestDetailsEPKc
 2580      00
 2581              	.LEHE47:
 2582              		.loc 6 78 0 discriminator 22
 2583 0f7e 488D8550 		leaq	-432(%rbp), %rax
 2583      FEFFFF
 2584 0f85 4889C7   		movq	%rax, %rdi
 2585              	.LEHB48:
 2586 0f88 E8000000 		call	_ZN8UnitTest15MemoryOutStreamD1Ev
 2586      00
 2587              	.LEHE48:
 2588              	.LBE39:
 2589              		.loc 6 78 0 discriminator 23
 2590 0f8d E8000000 		call	__cxa_end_catch
 2590      00
 2591              	.LBE38:
 2592 0f92 E9E90000 		jmp	.L117
 2592      00
 2593              	.L135:
 2594              		.loc 6 78 0
 2595 0f97 4889C7   		movq	%rax, %rdi
 2596 0f9a E8000000 		call	__cxa_begin_catch
 2596      00
 2597 0f9f 80BD1FFE 		cmpb	$0, -481(%rbp)
 2597      FFFF00
 2598 0fa6 7443     		je	.L123
 2599              		.loc 6 78 0 discriminator 25
 2600 0fa8 488B8508 		movq	-504(%rbp), %rax
 2600      FEFFFF
 2601 0faf 488D4808 		leaq	8(%rax), %rcx
 2602 0fb3 488D8530 		leaq	-464(%rbp), %rax
 2602      FEFFFF
 2603 0fba BA4E0000 		movl	$78, %edx
 2603      00
 2604 0fbf 4889CE   		movq	%rcx, %rsi
 2605 0fc2 4889C7   		movq	%rax, %rdi
 2606              	.LEHB49:
 2607 0fc5 E8000000 		call	_ZN8UnitTest11TestDetailsC1ERKS0_i
 2607      00
 2608              		.loc 6 78 0 discriminator 28
 2609 0fca E8000000 		call	_ZN8UnitTest11CurrentTest7ResultsEv
 2609      00
 2610 0fcf 488B00   		movq	(%rax), %rax
 2611 0fd2 488D8D30 		leaq	-464(%rbp), %rcx
 2611      FEFFFF
 2612 0fd9 BA000000 		movl	$.LC27, %edx
 2612      00
 2613 0fde 4889CE   		movq	%rcx, %rsi
 2614 0fe1 4889C7   		movq	%rax, %rdi
 2615 0fe4 E8000000 		call	_ZN8UnitTest11TestResults13OnTestFailureERKNS_11TestDetailsEPKc
 2615      00
 2616 0fe9 EB41     		jmp	.L124
 2617              	.L123:
 2618              		.loc 6 78 0 discriminator 26
 2619 0feb 488B8508 		movq	-504(%rbp), %rax
 2619      FEFFFF
 2620 0ff2 488D4808 		leaq	8(%rax), %rcx
 2621 0ff6 488D8530 		leaq	-464(%rbp), %rax
 2621      FEFFFF
 2622 0ffd BA4E0000 		movl	$78, %edx
 2622      00
 2623 1002 4889CE   		movq	%rcx, %rsi
 2624 1005 4889C7   		movq	%rax, %rdi
 2625 1008 E8000000 		call	_ZN8UnitTest11TestDetailsC1ERKS0_i
 2625      00
 2626              		.loc 6 78 0 discriminator 35
 2627 100d E8000000 		call	_ZN8UnitTest11CurrentTest7ResultsEv
 2627      00
 2628 1012 488B00   		movq	(%rax), %rax
 2629 1015 488D8D30 		leaq	-464(%rbp), %rcx
 2629      FEFFFF
 2630 101c BA000000 		movl	$.LC28, %edx
 2630      00
 2631 1021 4889CE   		movq	%rcx, %rsi
 2632 1024 4889C7   		movq	%rax, %rdi
 2633 1027 E8000000 		call	_ZN8UnitTest11TestResults13OnTestFailureERKNS_11TestDetailsEPKc
 2633      00
 2634              	.LEHE49:
 2635              	.L124:
 2636              	.LEHB50:
 2637              		.loc 6 78 0 discriminator 40
 2638 102c E8000000 		call	__cxa_end_catch
 2638      00
 2639 1031 EB4D     		jmp	.L117
 2640              	.L131:
 2641 1033 4889C3   		movq	%rax, %rbx
 2642              	.LBB41:
 2643              		.loc 6 78 0
 2644 1036 E8000000 		call	__cxa_end_catch
 2644      00
 2645 103b 4889D8   		movq	%rbx, %rax
 2646 103e 4889C7   		movq	%rax, %rdi
 2647 1041 E8000000 		call	_Unwind_Resume
 2647      00
 2648              	.LEHE50:
 2649              	.L133:
 2650 1046 4889C3   		movq	%rax, %rbx
 2651              	.LBE41:
 2652              	.LBB42:
 2653              	.LBB40:
 2654 1049 488D8550 		leaq	-432(%rbp), %rax
 2654      FEFFFF
 2655 1050 4889C7   		movq	%rax, %rdi
 2656 1053 E8000000 		call	_ZN8UnitTest15MemoryOutStreamD1Ev
 2656      00
 2657 1058 EB03     		jmp	.L127
 2658              	.L132:
 2659 105a 4889C3   		movq	%rax, %rbx
 2660              	.L127:
 2661              	.LBE40:
 2662 105d E8000000 		call	__cxa_end_catch
 2662      00
 2663 1062 4889D8   		movq	%rbx, %rax
 2664 1065 4889C7   		movq	%rax, %rdi
 2665              	.LEHB51:
 2666 1068 E8000000 		call	_Unwind_Resume
 2666      00
 2667              	.LEHE51:
 2668              	.L134:
 2669 106d 4889C3   		movq	%rax, %rbx
 2670              	.LBE42:
 2671 1070 E8000000 		call	__cxa_end_catch
 2671      00
 2672 1075 4889D8   		movq	%rbx, %rax
 2673 1078 4889C7   		movq	%rax, %rdi
 2674              	.LEHB52:
 2675 107b E8000000 		call	_Unwind_Resume
 2675      00
 2676              	.LEHE52:
 2677              	.L117:
 2678 1080 488B45E8 		movq	-24(%rbp), %rax
 2679 1084 64483304 		xorq	%fs:40, %rax
 2679      25280000 
 2679      00
 2680 108d 7405     		je	.L129
 2681 108f E8000000 		call	__stack_chk_fail
 2681      00
 2682              	.L129:
 2683 1094 4881C4F0 		addq	$496, %rsp
 2683      010000
 2684 109b 5B       		popq	%rbx
 2685 109c 415C     		popq	%r12
 2686 109e 5D       		popq	%rbp
 2687              		.cfi_def_cfa 7, 8
 2688 109f C3       		ret
 2689              		.cfi_endproc
 2690              	.LFE1138:
 2691              		.section	.gcc_except_table
 2692              		.align 4
 2693              	.LLSDA1138:
 2694 0124 FF       		.byte	0xff
 2695 0125 03       		.byte	0x3
 2696 0126 45       		.uleb128 .LLSDATT1138-.LLSDATTD1138
 2697              	.LLSDATTD1138:
 2698 0127 01       		.byte	0x1
 2699 0128 31       		.uleb128 .LLSDACSE1138-.LLSDACSB1138
 2700              	.LLSDACSB1138:
 2701 0129 67       		.uleb128 .LEHB44-.LFB1138
 2702 012a 05       		.uleb128 .LEHE44-.LEHB44
 2703 012b 71       		.uleb128 .L130-.LFB1138
 2704 012c 05       		.uleb128 0x5
 2705 012d BF01     		.uleb128 .LEHB45-.LFB1138
 2706 012f 5F       		.uleb128 .LEHE45-.LEHB45
 2707 0130 ED04     		.uleb128 .L131-.LFB1138
 2708 0132 00       		.uleb128 0
 2709 0133 C102     		.uleb128 .LEHB46-.LFB1138
 2710 0135 05       		.uleb128 .LEHE46-.LEHB46
 2711 0136 9405     		.uleb128 .L132-.LFB1138
 2712 0138 00       		.uleb128 0
 2713 0139 F502     		.uleb128 .LEHB47-.LFB1138
 2714 013b 43       		.uleb128 .LEHE47-.LEHB47
 2715 013c 8005     		.uleb128 .L133-.LFB1138
 2716 013e 00       		.uleb128 0
 2717 013f C203     		.uleb128 .LEHB48-.LFB1138
 2718 0141 05       		.uleb128 .LEHE48-.LEHB48
 2719 0142 9405     		.uleb128 .L132-.LFB1138
 2720 0144 00       		.uleb128 0
 2721 0145 FF03     		.uleb128 .LEHB49-.LFB1138
 2722 0147 67       		.uleb128 .LEHE49-.LEHB49
 2723 0148 A705     		.uleb128 .L134-.LFB1138
 2724 014a 00       		.uleb128 0
 2725 014b E604     		.uleb128 .LEHB50-.LFB1138
 2726 014d 1A       		.uleb128 .LEHE50-.LEHB50
 2727 014e 00       		.uleb128 0
 2728 014f 00       		.uleb128 0
 2729 0150 A205     		.uleb128 .LEHB51-.LFB1138
 2730 0152 05       		.uleb128 .LEHE51-.LEHB51
 2731 0153 00       		.uleb128 0
 2732 0154 00       		.uleb128 0
 2733 0155 B505     		.uleb128 .LEHB52-.LFB1138
 2734 0157 05       		.uleb128 .LEHE52-.LEHB52
 2735 0158 00       		.uleb128 0
 2736 0159 00       		.uleb128 0
 2737              	.LLSDACSE1138:
 2738 015a 03       		.byte	0x3
 2739 015b 00       		.byte	0
 2740 015c 02       		.byte	0x2
 2741 015d 7D       		.byte	0x7d
 2742 015e 01       		.byte	0x1
 2743 015f 7D       		.byte	0x7d
 2744              		.align 4
 2745 0160 00000000 		.long	0
 2746              	
 2747 0164 00000000 		.long	_ZTISt9exception
 2748 0168 00000000 		.long	_ZTIN8UnitTest15AssertExceptionE
 2749              	.LLSDATT1138:
 2750              		.text
 2752              		.align 2
 2754              	_ZN12_GLOBAL__N_115SuiteTestSuite265DummyFixtureSimilarlyNamedFixtureTestsInDifferentSuitesWorkHelp
 2755              	.LFB1139:
  79:TestTestMacros.cpp **** 	{
 2756              		.loc 6 79 0 is_stmt 1
 2757              		.cfi_startproc
 2758 10a0 55       		pushq	%rbp
 2759              		.cfi_def_cfa_offset 16
 2760              		.cfi_offset 6, -16
 2761 10a1 4889E5   		movq	%rsp, %rbp
 2762              		.cfi_def_cfa_register 6
 2763 10a4 48897DF8 		movq	%rdi, -8(%rbp)
  80:TestTestMacros.cpp **** 	}
 2764              		.loc 6 80 0
 2765 10a8 90       		nop
 2766 10a9 5D       		popq	%rbp
 2767              		.cfi_def_cfa 7, 8
 2768 10aa C3       		ret
 2769              		.cfi_endproc
 2770              	.LFE1139:
 2772              		.local	_ZN12_GLOBAL__N_114macroTestList1E
 2773              		.comm	_ZN12_GLOBAL__N_114macroTestList1E,16,16
 2774              		.section	.rodata
 2775              	.LC30:
 2776 047f 4D616372 		.string	"MacroTestHelper1"
 2776      6F546573 
 2776      7448656C 
 2776      70657231 
 2776      00
 2777              		.text
 2778 10ab 90       		.align 2
 2780              	_ZN12_GLOBAL__N_120TestMacroTestHelper1C2Ev:
 2781              	.LFB1141:
  81:TestTestMacros.cpp **** }
  82:TestTestMacros.cpp **** 
  83:TestTestMacros.cpp **** TestList macroTestList1;
  84:TestTestMacros.cpp **** TEST_EX(MacroTestHelper1, macroTestList1)
 2782              		.loc 6 84 0
 2783              		.cfi_startproc
 2784 10ac 55       		pushq	%rbp
 2785              		.cfi_def_cfa_offset 16
 2786              		.cfi_offset 6, -16
 2787 10ad 4889E5   		movq	%rsp, %rbp
 2788              		.cfi_def_cfa_register 6
 2789 10b0 4883EC10 		subq	$16, %rsp
 2790 10b4 48897DF8 		movq	%rdi, -8(%rbp)
 2791              	.LBB43:
 2792              		.loc 6 84 0
 2793 10b8 E8000000 		call	_ZN13UnitTestSuite12GetSuiteNameEv
 2793      00
 2794 10bd 4889C2   		movq	%rax, %rdx
 2795 10c0 488B45F8 		movq	-8(%rbp), %rax
 2796 10c4 41B85400 		movl	$84, %r8d
 2796      0000
 2797 10ca B9000000 		movl	$.LC2, %ecx
 2797      00
 2798 10cf BE000000 		movl	$.LC30, %esi
 2798      00
 2799 10d4 4889C7   		movq	%rax, %rdi
 2800 10d7 E8000000 		call	_ZN8UnitTest4TestC2EPKcS2_S2_i
 2800      00
 2801 10dc BA000000 		movl	$_ZTVN12_GLOBAL__N_120TestMacroTestHelper1E+16, %edx
 2801      00
 2802 10e1 488B45F8 		movq	-8(%rbp), %rax
 2803 10e5 488910   		movq	%rdx, (%rax)
 2804              	.LBE43:
 2805 10e8 90       		nop
 2806 10e9 C9       		leave
 2807              		.cfi_def_cfa 7, 8
 2808 10ea C3       		ret
 2809              		.cfi_endproc
 2810              	.LFE1141:
 2812              		.set	_ZN12_GLOBAL__N_120TestMacroTestHelper1C1Ev,_ZN12_GLOBAL__N_120TestMacroTestHelper1C2Ev
 2813              		.local	_ZN12_GLOBAL__N_128testMacroTestHelper1InstanceE
 2814              		.comm	_ZN12_GLOBAL__N_128testMacroTestHelper1InstanceE,56,32
 2815              		.local	_ZN12_GLOBAL__N_121adderMacroTestHelper1E
 2816              		.comm	_ZN12_GLOBAL__N_121adderMacroTestHelper1E,1,1
 2817 10eb 90       		.align 2
 2819              	_ZNK12_GLOBAL__N_120TestMacroTestHelper17RunImplEv:
 2820              	.LFB1143:
  85:TestTestMacros.cpp **** {
 2821              		.loc 6 85 0
 2822              		.cfi_startproc
 2823 10ec 55       		pushq	%rbp
 2824              		.cfi_def_cfa_offset 16
 2825              		.cfi_offset 6, -16
 2826 10ed 4889E5   		movq	%rsp, %rbp
 2827              		.cfi_def_cfa_register 6
 2828 10f0 48897DF8 		movq	%rdi, -8(%rbp)
  86:TestTestMacros.cpp **** }
 2829              		.loc 6 86 0
 2830 10f4 90       		nop
 2831 10f5 5D       		popq	%rbp
 2832              		.cfi_def_cfa 7, 8
 2833 10f6 C3       		ret
 2834              		.cfi_endproc
 2835              	.LFE1143:
 2837              		.section	.rodata
 2838              		.align 8
 2839              	.LC31:
 2840 0490 54657374 		.string	"TestAddedWithTEST_EXMacroGetsDefaultSuite"
 2840      41646465 
 2840      64576974 
 2840      68544553 
 2840      545F4558 
 2841              		.text
 2842 10f7 90       		.align 2
 2844              	_ZN12_GLOBAL__N_145TestTestAddedWithTEST_EXMacroGetsDefaultSuiteC2Ev:
 2845              	.LFB1145:
  87:TestTestMacros.cpp **** 
  88:TestTestMacros.cpp **** TEST(TestAddedWithTEST_EXMacroGetsDefaultSuite)
 2846              		.loc 6 88 0
 2847              		.cfi_startproc
 2848 10f8 55       		pushq	%rbp
 2849              		.cfi_def_cfa_offset 16
 2850              		.cfi_offset 6, -16
 2851 10f9 4889E5   		movq	%rsp, %rbp
 2852              		.cfi_def_cfa_register 6
 2853 10fc 4883EC10 		subq	$16, %rsp
 2854 1100 48897DF8 		movq	%rdi, -8(%rbp)
 2855              	.LBB44:
 2856              		.loc 6 88 0
 2857 1104 E8000000 		call	_ZN13UnitTestSuite12GetSuiteNameEv
 2857      00
 2858 1109 4889C2   		movq	%rax, %rdx
 2859 110c 488B45F8 		movq	-8(%rbp), %rax
 2860 1110 41B85800 		movl	$88, %r8d
 2860      0000
 2861 1116 B9000000 		movl	$.LC2, %ecx
 2861      00
 2862 111b BE000000 		movl	$.LC31, %esi
 2862      00
 2863 1120 4889C7   		movq	%rax, %rdi
 2864 1123 E8000000 		call	_ZN8UnitTest4TestC2EPKcS2_S2_i
 2864      00
 2865 1128 BA000000 		movl	$_ZTVN12_GLOBAL__N_145TestTestAddedWithTEST_EXMacroGetsDefaultSuiteE+16, %edx
 2865      00
 2866 112d 488B45F8 		movq	-8(%rbp), %rax
 2867 1131 488910   		movq	%rdx, (%rax)
 2868              	.LBE44:
 2869 1134 90       		nop
 2870 1135 C9       		leave
 2871              		.cfi_def_cfa 7, 8
 2872 1136 C3       		ret
 2873              		.cfi_endproc
 2874              	.LFE1145:
 2876              		.set	_ZN12_GLOBAL__N_145TestTestAddedWithTEST_EXMacroGetsDefaultSuiteC1Ev,_ZN12_GLOBAL__N_145TestT
 2877              		.local	_ZN12_GLOBAL__N_153testTestAddedWithTEST_EXMacroGetsDefaultSuiteInstanceE
 2878              		.comm	_ZN12_GLOBAL__N_153testTestAddedWithTEST_EXMacroGetsDefaultSuiteInstanceE,56,32
 2879              		.local	_ZN12_GLOBAL__N_146adderTestAddedWithTEST_EXMacroGetsDefaultSuiteE
 2880              		.comm	_ZN12_GLOBAL__N_146adderTestAddedWithTEST_EXMacroGetsDefaultSuiteE,1,1
 2881              		.section	.rodata
 2882 04ba 00000000 		.align 8
 2882      0000
 2883              	.LC32:
 2884 04c0 6D616372 		.string	"macroTestList1.GetHead() != NULL"
 2884      6F546573 
 2884      744C6973 
 2884      74312E47 
 2884      65744865 
 2885 04e1 00000000 		.align 8
 2885      000000
 2886              	.LC33:
 2887 04e8 556E6861 		.string	"Unhandled exception in CHECK(macroTestList1.GetHead() != NULL)"
 2887      6E646C65 
 2887      64206578 
 2887      63657074 
 2887      696F6E20 
 2888 0527 00       		.align 8
 2889              	.LC34:
 2890 0528 556E6861 		.string	"Unhandled exception in CHECK_EQUAL(\"MacroTestHelper1\", macroTestList1.GetHead()->m_deta
 2890      6E646C65 
 2890      64206578 
 2890      63657074 
 2890      696F6E20 
 2891 058d 000000   		.align 8
 2892              	.LC35:
 2893 0590 556E6861 		.string	"Unhandled exception in CHECK_EQUAL(\"DefaultSuite\", macroTestList1.GetHead()->m_details.
 2893      6E646C65 
 2893      64206578 
 2893      63657074 
 2893      696F6E20 
 2894              		.text
 2895 1137 90       		.align 2
 2897              	_ZNK12_GLOBAL__N_145TestTestAddedWithTEST_EXMacroGetsDefaultSuite7RunImplEv:
 2898              	.LFB1147:
  89:TestTestMacros.cpp **** {
 2899              		.loc 6 89 0
 2900              		.cfi_startproc
 2901              		.cfi_personality 0x3,__gxx_personality_v0
 2902              		.cfi_lsda 0x3,.LLSDA1147
 2903 1138 55       		pushq	%rbp
 2904              		.cfi_def_cfa_offset 16
 2905              		.cfi_offset 6, -16
 2906 1139 4889E5   		movq	%rsp, %rbp
 2907              		.cfi_def_cfa_register 6
 2908 113c 53       		pushq	%rbx
 2909 113d 4883EC48 		subq	$72, %rsp
 2910              		.cfi_offset 3, -24
 2911 1141 48897DB8 		movq	%rdi, -72(%rbp)
 2912              		.loc 6 89 0
 2913 1145 64488B04 		movq	%fs:40, %rax
 2913      25280000 
 2913      00
 2914 114e 488945E8 		movq	%rax, -24(%rbp)
 2915 1152 31C0     		xorl	%eax, %eax
  90:TestTestMacros.cpp ****     CHECK(macroTestList1.GetHead() != NULL);
 2916              		.loc 6 90 0
 2917 1154 BF000000 		movl	$_ZN12_GLOBAL__N_114macroTestList1E, %edi
 2917      00
 2918              	.LEHB53:
 2919 1159 E8000000 		call	_ZNK8UnitTest8TestList7GetHeadEv
 2919      00
 2920 115e 4885C0   		testq	%rax, %rax
 2921 1161 0F95C0   		setne	%al
 2922 1164 0FB6C0   		movzbl	%al, %eax
 2923 1167 89C7     		movl	%eax, %edi
 2924 1169 E8000000 		call	_ZN8UnitTest5CheckIbEEbT_
 2924      00
 2925 116e 83F001   		xorl	$1, %eax
 2926 1171 84C0     		testb	%al, %al
 2927 1173 7438     		je	.L141
 2928              		.loc 6 90 0 is_stmt 0 discriminator 2
 2929 1175 E8000000 		call	_ZN8UnitTest11CurrentTest7DetailsEv
 2929      00
 2930 117a 488B08   		movq	(%rax), %rcx
 2931 117d 488D45C0 		leaq	-64(%rbp), %rax
 2932 1181 BA5A0000 		movl	$90, %edx
 2932      00
 2933 1186 4889CE   		movq	%rcx, %rsi
 2934 1189 4889C7   		movq	%rax, %rdi
 2935 118c E8000000 		call	_ZN8UnitTest11TestDetailsC1ERKS0_i
 2935      00
 2936              		.loc 6 90 0 discriminator 4
 2937 1191 E8000000 		call	_ZN8UnitTest11CurrentTest7ResultsEv
 2937      00
 2938 1196 488B00   		movq	(%rax), %rax
 2939 1199 488D4DC0 		leaq	-64(%rbp), %rcx
 2940 119d BA000000 		movl	$.LC32, %edx
 2940      00
 2941 11a2 4889CE   		movq	%rcx, %rsi
 2942 11a5 4889C7   		movq	%rax, %rdi
 2943 11a8 E8000000 		call	_ZN8UnitTest11TestResults13OnTestFailureERKNS_11TestDetailsEPKc
 2943      00
 2944              	.LEHE53:
 2945              	.L141:
 2946              	.LEHB54:
  91:TestTestMacros.cpp ****     CHECK_EQUAL ("MacroTestHelper1", macroTestList1.GetHead()->m_details.testName);
 2947              		.loc 6 91 0 is_stmt 1
 2948 11ad E8000000 		call	_ZN8UnitTest11CurrentTest7DetailsEv
 2948      00
 2949 11b2 488B08   		movq	(%rax), %rcx
 2950 11b5 488D45C0 		leaq	-64(%rbp), %rax
 2951 11b9 BA5B0000 		movl	$91, %edx
 2951      00
 2952 11be 4889CE   		movq	%rcx, %rsi
 2953 11c1 4889C7   		movq	%rax, %rdi
 2954 11c4 E8000000 		call	_ZN8UnitTest11TestDetailsC1ERKS0_i
 2954      00
 2955              		.loc 6 91 0 is_stmt 0 discriminator 2
 2956 11c9 BF000000 		movl	$_ZN12_GLOBAL__N_114macroTestList1E, %edi
 2956      00
 2957 11ce E8000000 		call	_ZNK8UnitTest8TestList7GetHeadEv
 2957      00
 2958 11d3 488B5810 		movq	16(%rax), %rbx
 2959 11d7 E8000000 		call	_ZN8UnitTest11CurrentTest7ResultsEv
 2959      00
 2960              		.loc 6 91 0 discriminator 4
 2961 11dc 488B00   		movq	(%rax), %rax
 2962 11df 488D55C0 		leaq	-64(%rbp), %rdx
 2963 11e3 4889D1   		movq	%rdx, %rcx
 2964 11e6 4889DA   		movq	%rbx, %rdx
 2965 11e9 BE000000 		movl	$.LC30, %esi
 2965      00
 2966 11ee 4889C7   		movq	%rax, %rdi
 2967 11f1 E8000000 		call	_ZN8UnitTest10CheckEqualERNS_11TestResultsEPKcS3_RKNS_11TestDetailsE
 2967      00
 2968              	.LEHE54:
 2969              	.L145:
 2970              	.LEHB55:
  92:TestTestMacros.cpp ****     CHECK_EQUAL ("DefaultSuite", macroTestList1.GetHead()->m_details.suiteName);
 2971              		.loc 6 92 0 is_stmt 1
 2972 11f6 E8000000 		call	_ZN8UnitTest11CurrentTest7DetailsEv
 2972      00
 2973 11fb 488B08   		movq	(%rax), %rcx
 2974 11fe 488D45C0 		leaq	-64(%rbp), %rax
 2975 1202 BA5C0000 		movl	$92, %edx
 2975      00
 2976 1207 4889CE   		movq	%rcx, %rsi
 2977 120a 4889C7   		movq	%rax, %rdi
 2978 120d E8000000 		call	_ZN8UnitTest11TestDetailsC1ERKS0_i
 2978      00
 2979              		.loc 6 92 0 is_stmt 0 discriminator 2
 2980 1212 BF000000 		movl	$_ZN12_GLOBAL__N_114macroTestList1E, %edi
 2980      00
 2981 1217 E8000000 		call	_ZNK8UnitTest8TestList7GetHeadEv
 2981      00
 2982 121c 488B5808 		movq	8(%rax), %rbx
 2983 1220 E8000000 		call	_ZN8UnitTest11CurrentTest7ResultsEv
 2983      00
 2984              		.loc 6 92 0 discriminator 4
 2985 1225 488B00   		movq	(%rax), %rax
 2986 1228 488D55C0 		leaq	-64(%rbp), %rdx
 2987 122c 4889D1   		movq	%rdx, %rcx
 2988 122f 4889DA   		movq	%rbx, %rdx
 2989 1232 BE000000 		movl	$.LC0, %esi
 2989      00
 2990 1237 4889C7   		movq	%rax, %rdi
 2991 123a E8000000 		call	_ZN8UnitTest10CheckEqualERNS_11TestResultsEPKcS3_RKNS_11TestDetailsE
 2991      00
 2992              	.LEHE55:
  93:TestTestMacros.cpp **** }
 2993              		.loc 6 93 0 is_stmt 1
 2994 123f E9140100 		jmp	.L140
 2994      00
 2995              	.L151:
  90:TestTestMacros.cpp ****     CHECK_EQUAL ("MacroTestHelper1", macroTestList1.GetHead()->m_details.testName);
 2996              		.loc 6 90 0
 2997 1244 4889C7   		movq	%rax, %rdi
 2998 1247 E8000000 		call	__cxa_begin_catch
 2998      00
 2999              	.LEHB56:
 3000 124c E8000000 		call	_ZN8UnitTest11CurrentTest7DetailsEv
 3000      00
 3001 1251 488B08   		movq	(%rax), %rcx
 3002 1254 488D45C0 		leaq	-64(%rbp), %rax
 3003 1258 BA5A0000 		movl	$90, %edx
 3003      00
 3004 125d 4889CE   		movq	%rcx, %rsi
 3005 1260 4889C7   		movq	%rax, %rdi
 3006 1263 E8000000 		call	_ZN8UnitTest11TestDetailsC1ERKS0_i
 3006      00
  90:TestTestMacros.cpp ****     CHECK_EQUAL ("MacroTestHelper1", macroTestList1.GetHead()->m_details.testName);
 3007              		.loc 6 90 0 is_stmt 0 discriminator 12
 3008 1268 E8000000 		call	_ZN8UnitTest11CurrentTest7ResultsEv
 3008      00
 3009 126d 488B00   		movq	(%rax), %rax
 3010 1270 488D4DC0 		leaq	-64(%rbp), %rcx
 3011 1274 BA000000 		movl	$.LC33, %edx
 3011      00
 3012 1279 4889CE   		movq	%rcx, %rsi
 3013 127c 4889C7   		movq	%rax, %rdi
 3014 127f E8000000 		call	_ZN8UnitTest11TestResults13OnTestFailureERKNS_11TestDetailsEPKc
 3014      00
 3015              	.LEHE56:
 3016              	.LEHB57:
  90:TestTestMacros.cpp ****     CHECK_EQUAL ("MacroTestHelper1", macroTestList1.GetHead()->m_details.testName);
 3017              		.loc 6 90 0 discriminator 16
 3018 1284 E8000000 		call	__cxa_end_catch
 3018      00
 3019              	.LEHE57:
 3020 1289 E91FFFFF 		jmp	.L141
 3020      FF
 3021              	.L152:
 3022 128e 4889C3   		movq	%rax, %rbx
  90:TestTestMacros.cpp ****     CHECK_EQUAL ("MacroTestHelper1", macroTestList1.GetHead()->m_details.testName);
 3023              		.loc 6 90 0
 3024 1291 E8000000 		call	__cxa_end_catch
 3024      00
 3025 1296 4889D8   		movq	%rbx, %rax
 3026 1299 4889C7   		movq	%rax, %rdi
 3027              	.LEHB58:
 3028 129c E8000000 		call	_Unwind_Resume
 3028      00
 3029              	.LEHE58:
 3030              	.L153:
  91:TestTestMacros.cpp ****     CHECK_EQUAL ("DefaultSuite", macroTestList1.GetHead()->m_details.suiteName);
 3031              		.loc 6 91 0 is_stmt 1
 3032 12a1 4889C7   		movq	%rax, %rdi
 3033 12a4 E8000000 		call	__cxa_begin_catch
 3033      00
 3034              	.LEHB59:
 3035 12a9 E8000000 		call	_ZN8UnitTest11CurrentTest7DetailsEv
 3035      00
 3036 12ae 488B08   		movq	(%rax), %rcx
 3037 12b1 488D45C0 		leaq	-64(%rbp), %rax
 3038 12b5 BA5B0000 		movl	$91, %edx
 3038      00
 3039 12ba 4889CE   		movq	%rcx, %rsi
 3040 12bd 4889C7   		movq	%rax, %rdi
 3041 12c0 E8000000 		call	_ZN8UnitTest11TestDetailsC1ERKS0_i
 3041      00
  91:TestTestMacros.cpp ****     CHECK_EQUAL ("DefaultSuite", macroTestList1.GetHead()->m_details.suiteName);
 3042              		.loc 6 91 0 is_stmt 0 discriminator 12
 3043 12c5 E8000000 		call	_ZN8UnitTest11CurrentTest7ResultsEv
 3043      00
 3044 12ca 488B00   		movq	(%rax), %rax
 3045 12cd 488D4DC0 		leaq	-64(%rbp), %rcx
 3046 12d1 BA000000 		movl	$.LC34, %edx
 3046      00
 3047 12d6 4889CE   		movq	%rcx, %rsi
 3048 12d9 4889C7   		movq	%rax, %rdi
 3049 12dc E8000000 		call	_ZN8UnitTest11TestResults13OnTestFailureERKNS_11TestDetailsEPKc
 3049      00
 3050              	.LEHE59:
 3051              	.LEHB60:
  91:TestTestMacros.cpp ****     CHECK_EQUAL ("DefaultSuite", macroTestList1.GetHead()->m_details.suiteName);
 3052              		.loc 6 91 0 discriminator 16
 3053 12e1 E8000000 		call	__cxa_end_catch
 3053      00
 3054              	.LEHE60:
 3055 12e6 E90BFFFF 		jmp	.L145
 3055      FF
 3056              	.L154:
 3057 12eb 4889C3   		movq	%rax, %rbx
  91:TestTestMacros.cpp ****     CHECK_EQUAL ("DefaultSuite", macroTestList1.GetHead()->m_details.suiteName);
 3058              		.loc 6 91 0
 3059 12ee E8000000 		call	__cxa_end_catch
 3059      00
 3060 12f3 4889D8   		movq	%rbx, %rax
 3061 12f6 4889C7   		movq	%rax, %rdi
 3062              	.LEHB61:
 3063 12f9 E8000000 		call	_Unwind_Resume
 3063      00
 3064              	.LEHE61:
 3065              	.L155:
  92:TestTestMacros.cpp **** }
 3066              		.loc 6 92 0 is_stmt 1
 3067 12fe 4889C7   		movq	%rax, %rdi
 3068 1301 E8000000 		call	__cxa_begin_catch
 3068      00
 3069              	.LEHB62:
 3070 1306 E8000000 		call	_ZN8UnitTest11CurrentTest7DetailsEv
 3070      00
 3071 130b 488B08   		movq	(%rax), %rcx
 3072 130e 488D45C0 		leaq	-64(%rbp), %rax
 3073 1312 BA5C0000 		movl	$92, %edx
 3073      00
 3074 1317 4889CE   		movq	%rcx, %rsi
 3075 131a 4889C7   		movq	%rax, %rdi
 3076 131d E8000000 		call	_ZN8UnitTest11TestDetailsC1ERKS0_i
 3076      00
  92:TestTestMacros.cpp **** }
 3077              		.loc 6 92 0 is_stmt 0 discriminator 12
 3078 1322 E8000000 		call	_ZN8UnitTest11CurrentTest7ResultsEv
 3078      00
 3079 1327 488B00   		movq	(%rax), %rax
 3080 132a 488D4DC0 		leaq	-64(%rbp), %rcx
 3081 132e BA000000 		movl	$.LC35, %edx
 3081      00
 3082 1333 4889CE   		movq	%rcx, %rsi
 3083 1336 4889C7   		movq	%rax, %rdi
 3084 1339 E8000000 		call	_ZN8UnitTest11TestResults13OnTestFailureERKNS_11TestDetailsEPKc
 3084      00
 3085              	.LEHE62:
 3086              	.LEHB63:
  92:TestTestMacros.cpp **** }
 3087              		.loc 6 92 0 discriminator 16
 3088 133e E8000000 		call	__cxa_end_catch
 3088      00
 3089              	.LEHE63:
 3090              		.loc 6 93 0 is_stmt 1 discriminator 16
 3091 1343 EB13     		jmp	.L140
 3092              	.L156:
 3093 1345 4889C3   		movq	%rax, %rbx
  92:TestTestMacros.cpp **** }
 3094              		.loc 6 92 0
 3095 1348 E8000000 		call	__cxa_end_catch
 3095      00
 3096 134d 4889D8   		movq	%rbx, %rax
 3097 1350 4889C7   		movq	%rax, %rdi
 3098              	.LEHB64:
 3099 1353 E8000000 		call	_Unwind_Resume
 3099      00
 3100              	.LEHE64:
 3101              	.L140:
 3102              		.loc 6 93 0
 3103 1358 488B45E8 		movq	-24(%rbp), %rax
 3104 135c 64483304 		xorq	%fs:40, %rax
 3104      25280000 
 3104      00
 3105 1365 7405     		je	.L150
 3106 1367 E8000000 		call	__stack_chk_fail
 3106      00
 3107              	.L150:
 3108 136c 4883C448 		addq	$72, %rsp
 3109 1370 5B       		popq	%rbx
 3110 1371 5D       		popq	%rbp
 3111              		.cfi_def_cfa 7, 8
 3112 1372 C3       		ret
 3113              		.cfi_endproc
 3114              	.LFE1147:
 3115              		.section	.gcc_except_table
 3116              		.align 4
 3117              	.LLSDA1147:
 3118 016c FF       		.byte	0xff
 3119 016d 03       		.byte	0x3
 3120 016e 49       		.uleb128 .LLSDATT1147-.LLSDATTD1147
 3121              	.LLSDATTD1147:
 3122 016f 01       		.byte	0x1
 3123 0170 40       		.uleb128 .LLSDACSE1147-.LLSDACSB1147
 3124              	.LLSDACSB1147:
 3125 0171 21       		.uleb128 .LEHB53-.LFB1147
 3126 0172 54       		.uleb128 .LEHE53-.LEHB53
 3127 0173 8C02     		.uleb128 .L151-.LFB1147
 3128 0175 01       		.uleb128 0x1
 3129 0176 75       		.uleb128 .LEHB54-.LFB1147
 3130 0177 49       		.uleb128 .LEHE54-.LEHB54
 3131 0178 E902     		.uleb128 .L153-.LFB1147
 3132 017a 01       		.uleb128 0x1
 3133 017b BE01     		.uleb128 .LEHB55-.LFB1147
 3134 017d 49       		.uleb128 .LEHE55-.LEHB55
 3135 017e C603     		.uleb128 .L155-.LFB1147
 3136 0180 01       		.uleb128 0x1
 3137 0181 9402     		.uleb128 .LEHB56-.LFB1147
 3138 0183 38       		.uleb128 .LEHE56-.LEHB56
 3139 0184 D602     		.uleb128 .L152-.LFB1147
 3140 0186 00       		.uleb128 0
 3141 0187 CC02     		.uleb128 .LEHB57-.LFB1147
 3142 0189 05       		.uleb128 .LEHE57-.LEHB57
 3143 018a 00       		.uleb128 0
 3144 018b 00       		.uleb128 0
 3145 018c E402     		.uleb128 .LEHB58-.LFB1147
 3146 018e 05       		.uleb128 .LEHE58-.LEHB58
 3147 018f 00       		.uleb128 0
 3148 0190 00       		.uleb128 0
 3149 0191 F102     		.uleb128 .LEHB59-.LFB1147
 3150 0193 38       		.uleb128 .LEHE59-.LEHB59
 3151 0194 B303     		.uleb128 .L154-.LFB1147
 3152 0196 00       		.uleb128 0
 3153 0197 A903     		.uleb128 .LEHB60-.LFB1147
 3154 0199 05       		.uleb128 .LEHE60-.LEHB60
 3155 019a 00       		.uleb128 0
 3156 019b 00       		.uleb128 0
 3157 019c C103     		.uleb128 .LEHB61-.LFB1147
 3158 019e 05       		.uleb128 .LEHE61-.LEHB61
 3159 019f 00       		.uleb128 0
 3160 01a0 00       		.uleb128 0
 3161 01a1 CE03     		.uleb128 .LEHB62-.LFB1147
 3162 01a3 38       		.uleb128 .LEHE62-.LEHB62
 3163 01a4 8D04     		.uleb128 .L156-.LFB1147
 3164 01a6 00       		.uleb128 0
 3165 01a7 8604     		.uleb128 .LEHB63-.LFB1147
 3166 01a9 05       		.uleb128 .LEHE63-.LEHB63
 3167 01aa 00       		.uleb128 0
 3168 01ab 00       		.uleb128 0
 3169 01ac 9B04     		.uleb128 .LEHB64-.LFB1147
 3170 01ae 05       		.uleb128 .LEHE64-.LEHB64
 3171 01af 00       		.uleb128 0
 3172 01b0 00       		.uleb128 0
 3173              	.LLSDACSE1147:
 3174 01b1 01       		.byte	0x1
 3175 01b2 00       		.byte	0
 3176 01b3 00       		.align 4
 3177 01b4 00000000 		.long	0
 3178              	
 3179              	.LLSDATT1147:
 3180              		.text
 3182              		.local	_ZN12_GLOBAL__N_114macroTestList2E
 3183              		.comm	_ZN12_GLOBAL__N_114macroTestList2E,16,16
 3184 1373 90       		.align 2
 3186              	_ZN12_GLOBAL__N_134DummyFixtureMacroTestHelper2HelperC2ERKN8UnitTest11TestDetailsE:
 3187              	.LFB1149:
  94:TestTestMacros.cpp **** 
  95:TestTestMacros.cpp **** TestList macroTestList2;
  96:TestTestMacros.cpp **** TEST_FIXTURE_EX(DummyFixture, MacroTestHelper2, macroTestList2)
 3188              		.loc 6 96 0
 3189              		.cfi_startproc
 3190 1374 55       		pushq	%rbp
 3191              		.cfi_def_cfa_offset 16
 3192              		.cfi_offset 6, -16
 3193 1375 4889E5   		movq	%rsp, %rbp
 3194              		.cfi_def_cfa_register 6
 3195 1378 4883EC10 		subq	$16, %rsp
 3196 137c 48897DF8 		movq	%rdi, -8(%rbp)
 3197 1380 488975F0 		movq	%rsi, -16(%rbp)
 3198              	.LBB45:
 3199              		.loc 6 96 0
 3200 1384 488B45F8 		movq	-8(%rbp), %rax
 3201 1388 4889C7   		movq	%rax, %rdi
 3202 138b E816F6FF 		call	_ZN12_GLOBAL__N_112DummyFixtureC2Ev
 3202      FF
 3203 1390 488B45F8 		movq	-8(%rbp), %rax
 3204 1394 488B55F0 		movq	-16(%rbp), %rdx
 3205 1398 48895008 		movq	%rdx, 8(%rax)
 3206              	.LBE45:
 3207 139c 90       		nop
 3208 139d C9       		leave
 3209              		.cfi_def_cfa 7, 8
 3210 139e C3       		ret
 3211              		.cfi_endproc
 3212              	.LFE1149:
 3214              		.set	_ZN12_GLOBAL__N_134DummyFixtureMacroTestHelper2HelperC1ERKN8UnitTest11TestDetailsE,_ZN12_GLOB
 3215              		.section	.rodata
 3216              	.LC36:
 3217 05f2 4D616372 		.string	"MacroTestHelper2"
 3217      6F546573 
 3217      7448656C 
 3217      70657232 
 3217      00
 3218              		.text
 3219 139f 90       		.align 2
 3221              	_ZN12_GLOBAL__N_132TestDummyFixtureMacroTestHelper2C2Ev:
 3222              	.LFB1152:
 3223              		.loc 6 96 0
 3224              		.cfi_startproc
 3225 13a0 55       		pushq	%rbp
 3226              		.cfi_def_cfa_offset 16
 3227              		.cfi_offset 6, -16
 3228 13a1 4889E5   		movq	%rsp, %rbp
 3229              		.cfi_def_cfa_register 6
 3230 13a4 4883EC10 		subq	$16, %rsp
 3231 13a8 48897DF8 		movq	%rdi, -8(%rbp)
 3232              	.LBB46:
 3233              		.loc 6 96 0
 3234 13ac E8000000 		call	_ZN13UnitTestSuite12GetSuiteNameEv
 3234      00
 3235 13b1 4889C2   		movq	%rax, %rdx
 3236 13b4 488B45F8 		movq	-8(%rbp), %rax
 3237 13b8 41B86000 		movl	$96, %r8d
 3237      0000
 3238 13be B9000000 		movl	$.LC2, %ecx
 3238      00
 3239 13c3 BE000000 		movl	$.LC36, %esi
 3239      00
 3240 13c8 4889C7   		movq	%rax, %rdi
 3241 13cb E8000000 		call	_ZN8UnitTest4TestC2EPKcS2_S2_i
 3241      00
 3242 13d0 BA000000 		movl	$_ZTVN12_GLOBAL__N_132TestDummyFixtureMacroTestHelper2E+16, %edx
 3242      00
 3243 13d5 488B45F8 		movq	-8(%rbp), %rax
 3244 13d9 488910   		movq	%rdx, (%rax)
 3245              	.LBE46:
 3246 13dc 90       		nop
 3247 13dd C9       		leave
 3248              		.cfi_def_cfa 7, 8
 3249 13de C3       		ret
 3250              		.cfi_endproc
 3251              	.LFE1152:
 3253              		.set	_ZN12_GLOBAL__N_132TestDummyFixtureMacroTestHelper2C1Ev,_ZN12_GLOBAL__N_132TestDummyFixtureMa
 3254              		.local	_ZN12_GLOBAL__N_140testDummyFixtureMacroTestHelper2InstanceE
 3255              		.comm	_ZN12_GLOBAL__N_140testDummyFixtureMacroTestHelper2InstanceE,56,32
 3256              		.local	_ZN12_GLOBAL__N_133adderDummyFixtureMacroTestHelper2E
 3257              		.comm	_ZN12_GLOBAL__N_133adderDummyFixtureMacroTestHelper2E,1,1
 3258 13df 90       		.align 2
 3260              	_ZNK12_GLOBAL__N_132TestDummyFixtureMacroTestHelper27RunImplEv:
 3261              	.LFB1154:
 3262              		.loc 6 96 0
 3263              		.cfi_startproc
 3264              		.cfi_personality 0x3,__gxx_personality_v0
 3265              		.cfi_lsda 0x3,.LLSDA1154
 3266 13e0 55       		pushq	%rbp
 3267              		.cfi_def_cfa_offset 16
 3268              		.cfi_offset 6, -16
 3269 13e1 4889E5   		movq	%rsp, %rbp
 3270              		.cfi_def_cfa_register 6
 3271 13e4 4154     		pushq	%r12
 3272 13e6 53       		pushq	%rbx
 3273 13e7 4881ECF0 		subq	$496, %rsp
 3273      010000
 3274              		.cfi_offset 12, -24
 3275              		.cfi_offset 3, -32
 3276 13ee 4889BD08 		movq	%rdi, -504(%rbp)
 3276      FEFFFF
 3277              		.loc 6 96 0
 3278 13f5 64488B04 		movq	%fs:40, %rax
 3278      25280000 
 3278      00
 3279 13fe 488945E8 		movq	%rax, -24(%rbp)
 3280 1402 31C0     		xorl	%eax, %eax
 3281 1404 C6851FFE 		movb	$0, -481(%rbp)
 3281      FFFF00
 3282              	.LBB47:
 3283 140b 488B8508 		movq	-504(%rbp), %rax
 3283      FEFFFF
 3284 1412 488D5008 		leaq	8(%rax), %rdx
 3285 1416 488D8530 		leaq	-464(%rbp), %rax
 3285      FEFFFF
 3286 141d 4889D6   		movq	%rdx, %rsi
 3287 1420 4889C7   		movq	%rax, %rdi
 3288 1423 E84CFFFF 		call	_ZN12_GLOBAL__N_134DummyFixtureMacroTestHelper2HelperC1ERKN8UnitTest11TestDetailsE
 3288      FF
 3289 1428 C6851FFE 		movb	$1, -481(%rbp)
 3289      FFFF01
 3290 142f 488B8508 		movq	-504(%rbp), %rax
 3290      FEFFFF
 3291 1436 488D5008 		leaq	8(%rax), %rdx
 3292 143a 488D8530 		leaq	-464(%rbp), %rax
 3292      FEFFFF
 3293 1441 4889D6   		movq	%rdx, %rsi
 3294 1444 4889C7   		movq	%rax, %rdi
 3295              	.LEHB65:
 3296 1447 E8352300 		call	_ZN8UnitTest11ExecuteTestIN12_GLOBAL__N_134DummyFixtureMacroTestHelper2HelperEEEvRT_RKNS_11Te
 3296      00
 3297              	.LEHE65:
 3298              	.LBE47:
 3299 144c E9490200 		jmp	.L159
 3299      00
 3300              	.L172:
 3301 1451 4883FA01 		cmpq	$1, %rdx
 3302 1455 740F     		je	.L162
 3303 1457 4883FA02 		cmpq	$2, %rdx
 3304 145b 0F84A700 		je	.L163
 3304      0000
 3305 1461 E94B0100 		jmp	.L177
 3305      00
 3306              	.L162:
 3307              	.LBB48:
 3308 1466 4889C7   		movq	%rax, %rdi
 3309 1469 E8000000 		call	__cxa_begin_catch
 3309      00
 3310 146e 48898520 		movq	%rax, -480(%rbp)
 3310      FEFFFF
 3311 1475 488B8520 		movq	-480(%rbp), %rax
 3311      FEFFFF
 3312 147c 488B00   		movq	(%rax), %rax
 3313 147f 4883C010 		addq	$16, %rax
 3314 1483 488B00   		movq	(%rax), %rax
 3315 1486 488B9520 		movq	-480(%rbp), %rdx
 3315      FEFFFF
 3316 148d 4889D7   		movq	%rdx, %rdi
 3317 1490 FFD0     		call	*%rax
 3318 1492 4889C3   		movq	%rax, %rbx
 3319 1495 488B8520 		movq	-480(%rbp), %rax
 3319      FEFFFF
 3320 149c 4889C7   		movq	%rax, %rdi
 3321              	.LEHB66:
 3322 149f E8000000 		call	_ZNK8UnitTest15AssertException10LineNumberEv
 3322      00
 3323 14a4 4189C4   		movl	%eax, %r12d
 3324 14a7 488B8520 		movq	-480(%rbp), %rax
 3324      FEFFFF
 3325 14ae 4889C7   		movq	%rax, %rdi
 3326 14b1 E8000000 		call	_ZNK8UnitTest15AssertException8FilenameEv
 3326      00
 3327              		.loc 6 96 0 is_stmt 0 discriminator 2
 3328 14b6 4889C1   		movq	%rax, %rcx
 3329 14b9 488B8508 		movq	-504(%rbp), %rax
 3329      FEFFFF
 3330 14c0 488B5008 		movq	8(%rax), %rdx
 3331 14c4 488B8508 		movq	-504(%rbp), %rax
 3331      FEFFFF
 3332 14cb 488B7010 		movq	16(%rax), %rsi
 3333 14cf 488D8530 		leaq	-464(%rbp), %rax
 3333      FEFFFF
 3334 14d6 4589E0   		movl	%r12d, %r8d
 3335 14d9 4889C7   		movq	%rax, %rdi
 3336 14dc E8000000 		call	_ZN8UnitTest11TestDetailsC1EPKcS2_S2_i
 3336      00
 3337              		.loc 6 96 0 discriminator 6
 3338 14e1 E8000000 		call	_ZN8UnitTest11CurrentTest7ResultsEv
 3338      00
 3339 14e6 488B00   		movq	(%rax), %rax
 3340 14e9 488D8D30 		leaq	-464(%rbp), %rcx
 3340      FEFFFF
 3341 14f0 4889DA   		movq	%rbx, %rdx
 3342 14f3 4889CE   		movq	%rcx, %rsi
 3343 14f6 4889C7   		movq	%rax, %rdi
 3344 14f9 E8000000 		call	_ZN8UnitTest11TestResults13OnTestFailureERKNS_11TestDetailsEPKc
 3344      00
 3345              	.LEHE66:
 3346              		.loc 6 96 0 discriminator 10
 3347 14fe E8000000 		call	__cxa_end_catch
 3347      00
 3348              	.LBE48:
 3349 1503 E9920100 		jmp	.L159
 3349      00
 3350              	.L163:
 3351              	.LBB49:
 3352              		.loc 6 96 0
 3353 1508 4889C7   		movq	%rax, %rdi
 3354 150b E8000000 		call	__cxa_begin_catch
 3354      00
 3355 1510 48898528 		movq	%rax, -472(%rbp)
 3355      FEFFFF
 3356              	.LBB50:
 3357 1517 488D8550 		leaq	-432(%rbp), %rax
 3357      FEFFFF
 3358 151e 4889C7   		movq	%rax, %rdi
 3359              	.LEHB67:
 3360 1521 E8000000 		call	_ZN8UnitTest15MemoryOutStreamC1Ev
 3360      00
 3361              	.LEHE67:
 3362              		.loc 6 96 0 discriminator 12
 3363 1526 488B8528 		movq	-472(%rbp), %rax
 3363      FEFFFF
 3364 152d 488B00   		movq	(%rax), %rax
 3365 1530 4883C010 		addq	$16, %rax
 3366 1534 488B00   		movq	(%rax), %rax
 3367 1537 488B9528 		movq	-472(%rbp), %rdx
 3367      FEFFFF
 3368 153e 4889D7   		movq	%rdx, %rdi
 3369 1541 FFD0     		call	*%rax
 3370 1543 4889C3   		movq	%rax, %rbx
 3371 1546 488D8550 		leaq	-432(%rbp), %rax
 3371      FEFFFF
 3372 154d BE000000 		movl	$.LC11, %esi
 3372      00
 3373 1552 4889C7   		movq	%rax, %rdi
 3374              	.LEHB68:
 3375 1555 E8000000 		call	_ZStlsISt11char_traitsIcEERSt13basic_ostreamIcT_ES5_PKc
 3375      00
 3376 155a 4889DE   		movq	%rbx, %rsi
 3377 155d 4889C7   		movq	%rax, %rdi
 3378 1560 E8000000 		call	_ZStlsISt11char_traitsIcEERSt13basic_ostreamIcT_ES5_PKc
 3378      00
 3379              		.loc 6 96 0 discriminator 16
 3380 1565 488D8550 		leaq	-432(%rbp), %rax
 3380      FEFFFF
 3381 156c 4889C7   		movq	%rax, %rdi
 3382 156f E8000000 		call	_ZNK8UnitTest15MemoryOutStream7GetTextEv
 3382      00
 3383 1574 4989C4   		movq	%rax, %r12
 3384 1577 488B8508 		movq	-504(%rbp), %rax
 3384      FEFFFF
 3385 157e 488D5808 		leaq	8(%rax), %rbx
 3386 1582 E8000000 		call	_ZN8UnitTest11CurrentTest7ResultsEv
 3386      00
 3387              		.loc 6 96 0 discriminator 18
 3388 1587 488B00   		movq	(%rax), %rax
 3389 158a 4C89E2   		movq	%r12, %rdx
 3390 158d 4889DE   		movq	%rbx, %rsi
 3391 1590 4889C7   		movq	%rax, %rdi
 3392 1593 E8000000 		call	_ZN8UnitTest11TestResults13OnTestFailureERKNS_11TestDetailsEPKc
 3392      00
 3393              	.LEHE68:
 3394              		.loc 6 96 0 discriminator 22
 3395 1598 488D8550 		leaq	-432(%rbp), %rax
 3395      FEFFFF
 3396 159f 4889C7   		movq	%rax, %rdi
 3397              	.LEHB69:
 3398 15a2 E8000000 		call	_ZN8UnitTest15MemoryOutStreamD1Ev
 3398      00
 3399              	.LEHE69:
 3400              	.LBE50:
 3401              		.loc 6 96 0 discriminator 23
 3402 15a7 E8000000 		call	__cxa_end_catch
 3402      00
 3403              	.LBE49:
 3404 15ac E9E90000 		jmp	.L159
 3404      00
 3405              	.L177:
 3406              		.loc 6 96 0
 3407 15b1 4889C7   		movq	%rax, %rdi
 3408 15b4 E8000000 		call	__cxa_begin_catch
 3408      00
 3409 15b9 80BD1FFE 		cmpb	$0, -481(%rbp)
 3409      FFFF00
 3410 15c0 7443     		je	.L165
 3411              		.loc 6 96 0 discriminator 25
 3412 15c2 488B8508 		movq	-504(%rbp), %rax
 3412      FEFFFF
 3413 15c9 488D4808 		leaq	8(%rax), %rcx
 3414 15cd 488D8530 		leaq	-464(%rbp), %rax
 3414      FEFFFF
 3415 15d4 BA600000 		movl	$96, %edx
 3415      00
 3416 15d9 4889CE   		movq	%rcx, %rsi
 3417 15dc 4889C7   		movq	%rax, %rdi
 3418              	.LEHB70:
 3419 15df E8000000 		call	_ZN8UnitTest11TestDetailsC1ERKS0_i
 3419      00
 3420              		.loc 6 96 0 discriminator 28
 3421 15e4 E8000000 		call	_ZN8UnitTest11CurrentTest7ResultsEv
 3421      00
 3422 15e9 488B00   		movq	(%rax), %rax
 3423 15ec 488D8D30 		leaq	-464(%rbp), %rcx
 3423      FEFFFF
 3424 15f3 BA000000 		movl	$.LC27, %edx
 3424      00
 3425 15f8 4889CE   		movq	%rcx, %rsi
 3426 15fb 4889C7   		movq	%rax, %rdi
 3427 15fe E8000000 		call	_ZN8UnitTest11TestResults13OnTestFailureERKNS_11TestDetailsEPKc
 3427      00
 3428 1603 EB41     		jmp	.L166
 3429              	.L165:
 3430              		.loc 6 96 0 discriminator 26
 3431 1605 488B8508 		movq	-504(%rbp), %rax
 3431      FEFFFF
 3432 160c 488D4808 		leaq	8(%rax), %rcx
 3433 1610 488D8530 		leaq	-464(%rbp), %rax
 3433      FEFFFF
 3434 1617 BA600000 		movl	$96, %edx
 3434      00
 3435 161c 4889CE   		movq	%rcx, %rsi
 3436 161f 4889C7   		movq	%rax, %rdi
 3437 1622 E8000000 		call	_ZN8UnitTest11TestDetailsC1ERKS0_i
 3437      00
 3438              		.loc 6 96 0 discriminator 35
 3439 1627 E8000000 		call	_ZN8UnitTest11CurrentTest7ResultsEv
 3439      00
 3440 162c 488B00   		movq	(%rax), %rax
 3441 162f 488D8D30 		leaq	-464(%rbp), %rcx
 3441      FEFFFF
 3442 1636 BA000000 		movl	$.LC28, %edx
 3442      00
 3443 163b 4889CE   		movq	%rcx, %rsi
 3444 163e 4889C7   		movq	%rax, %rdi
 3445 1641 E8000000 		call	_ZN8UnitTest11TestResults13OnTestFailureERKNS_11TestDetailsEPKc
 3445      00
 3446              	.LEHE70:
 3447              	.L166:
 3448              	.LEHB71:
 3449              		.loc 6 96 0 discriminator 40
 3450 1646 E8000000 		call	__cxa_end_catch
 3450      00
 3451 164b EB4D     		jmp	.L159
 3452              	.L173:
 3453 164d 4889C3   		movq	%rax, %rbx
 3454              	.LBB52:
 3455              		.loc 6 96 0
 3456 1650 E8000000 		call	__cxa_end_catch
 3456      00
 3457 1655 4889D8   		movq	%rbx, %rax
 3458 1658 4889C7   		movq	%rax, %rdi
 3459 165b E8000000 		call	_Unwind_Resume
 3459      00
 3460              	.LEHE71:
 3461              	.L175:
 3462 1660 4889C3   		movq	%rax, %rbx
 3463              	.LBE52:
 3464              	.LBB53:
 3465              	.LBB51:
 3466 1663 488D8550 		leaq	-432(%rbp), %rax
 3466      FEFFFF
 3467 166a 4889C7   		movq	%rax, %rdi
 3468 166d E8000000 		call	_ZN8UnitTest15MemoryOutStreamD1Ev
 3468      00
 3469 1672 EB03     		jmp	.L169
 3470              	.L174:
 3471 1674 4889C3   		movq	%rax, %rbx
 3472              	.L169:
 3473              	.LBE51:
 3474 1677 E8000000 		call	__cxa_end_catch
 3474      00
 3475 167c 4889D8   		movq	%rbx, %rax
 3476 167f 4889C7   		movq	%rax, %rdi
 3477              	.LEHB72:
 3478 1682 E8000000 		call	_Unwind_Resume
 3478      00
 3479              	.LEHE72:
 3480              	.L176:
 3481 1687 4889C3   		movq	%rax, %rbx
 3482              	.LBE53:
 3483 168a E8000000 		call	__cxa_end_catch
 3483      00
 3484 168f 4889D8   		movq	%rbx, %rax
 3485 1692 4889C7   		movq	%rax, %rdi
 3486              	.LEHB73:
 3487 1695 E8000000 		call	_Unwind_Resume
 3487      00
 3488              	.LEHE73:
 3489              	.L159:
 3490 169a 488B45E8 		movq	-24(%rbp), %rax
 3491 169e 64483304 		xorq	%fs:40, %rax
 3491      25280000 
 3491      00
 3492 16a7 7405     		je	.L171
 3493 16a9 E8000000 		call	__stack_chk_fail
 3493      00
 3494              	.L171:
 3495 16ae 4881C4F0 		addq	$496, %rsp
 3495      010000
 3496 16b5 5B       		popq	%rbx
 3497 16b6 415C     		popq	%r12
 3498 16b8 5D       		popq	%rbp
 3499              		.cfi_def_cfa 7, 8
 3500 16b9 C3       		ret
 3501              		.cfi_endproc
 3502              	.LFE1154:
 3503              		.section	.gcc_except_table
 3504              		.align 4
 3505              	.LLSDA1154:
 3506 01b8 FF       		.byte	0xff
 3507 01b9 03       		.byte	0x3
 3508 01ba 45       		.uleb128 .LLSDATT1154-.LLSDATTD1154
 3509              	.LLSDATTD1154:
 3510 01bb 01       		.byte	0x1
 3511 01bc 31       		.uleb128 .LLSDACSE1154-.LLSDACSB1154
 3512              	.LLSDACSB1154:
 3513 01bd 67       		.uleb128 .LEHB65-.LFB1154
 3514 01be 05       		.uleb128 .LEHE65-.LEHB65
 3515 01bf 71       		.uleb128 .L172-.LFB1154
 3516 01c0 05       		.uleb128 0x5
 3517 01c1 BF01     		.uleb128 .LEHB66-.LFB1154
 3518 01c3 5F       		.uleb128 .LEHE66-.LEHB66
 3519 01c4 ED04     		.uleb128 .L173-.LFB1154
 3520 01c6 00       		.uleb128 0
 3521 01c7 C102     		.uleb128 .LEHB67-.LFB1154
 3522 01c9 05       		.uleb128 .LEHE67-.LEHB67
 3523 01ca 9405     		.uleb128 .L174-.LFB1154
 3524 01cc 00       		.uleb128 0
 3525 01cd F502     		.uleb128 .LEHB68-.LFB1154
 3526 01cf 43       		.uleb128 .LEHE68-.LEHB68
 3527 01d0 8005     		.uleb128 .L175-.LFB1154
 3528 01d2 00       		.uleb128 0
 3529 01d3 C203     		.uleb128 .LEHB69-.LFB1154
 3530 01d5 05       		.uleb128 .LEHE69-.LEHB69
 3531 01d6 9405     		.uleb128 .L174-.LFB1154
 3532 01d8 00       		.uleb128 0
 3533 01d9 FF03     		.uleb128 .LEHB70-.LFB1154
 3534 01db 67       		.uleb128 .LEHE70-.LEHB70
 3535 01dc A705     		.uleb128 .L176-.LFB1154
 3536 01de 00       		.uleb128 0
 3537 01df E604     		.uleb128 .LEHB71-.LFB1154
 3538 01e1 1A       		.uleb128 .LEHE71-.LEHB71
 3539 01e2 00       		.uleb128 0
 3540 01e3 00       		.uleb128 0
 3541 01e4 A205     		.uleb128 .LEHB72-.LFB1154
 3542 01e6 05       		.uleb128 .LEHE72-.LEHB72
 3543 01e7 00       		.uleb128 0
 3544 01e8 00       		.uleb128 0
 3545 01e9 B505     		.uleb128 .LEHB73-.LFB1154
 3546 01eb 05       		.uleb128 .LEHE73-.LEHB73
 3547 01ec 00       		.uleb128 0
 3548 01ed 00       		.uleb128 0
 3549              	.LLSDACSE1154:
 3550 01ee 03       		.byte	0x3
 3551 01ef 00       		.byte	0
 3552 01f0 02       		.byte	0x2
 3553 01f1 7D       		.byte	0x7d
 3554 01f2 01       		.byte	0x1
 3555 01f3 7D       		.byte	0x7d
 3556              		.align 4
 3557 01f4 00000000 		.long	0
 3558              	
 3559 01f8 00000000 		.long	_ZTISt9exception
 3560 01fc 00000000 		.long	_ZTIN8UnitTest15AssertExceptionE
 3561              	.LLSDATT1154:
 3562              		.text
 3564              		.align 2
 3566              	_ZN12_GLOBAL__N_134DummyFixtureMacroTestHelper2Helper7RunImplEv:
 3567              	.LFB1155:
  97:TestTestMacros.cpp **** {
 3568              		.loc 6 97 0 is_stmt 1
 3569              		.cfi_startproc
 3570 16ba 55       		pushq	%rbp
 3571              		.cfi_def_cfa_offset 16
 3572              		.cfi_offset 6, -16
 3573 16bb 4889E5   		movq	%rsp, %rbp
 3574              		.cfi_def_cfa_register 6
 3575 16be 48897DF8 		movq	%rdi, -8(%rbp)
  98:TestTestMacros.cpp **** }
 3576              		.loc 6 98 0
 3577 16c2 90       		nop
 3578 16c3 5D       		popq	%rbp
 3579              		.cfi_def_cfa 7, 8
 3580 16c4 C3       		ret
 3581              		.cfi_endproc
 3582              	.LFE1155:
 3584              		.section	.rodata
 3585 0603 00000000 		.align 8
 3585      00
 3586              	.LC37:
 3587 0608 54657374 		.string	"TestAddedWithTEST_FIXTURE_EXMacroGetsDefaultSuite"
 3587      41646465 
 3587      64576974 
 3587      68544553 
 3587      545F4649 
 3588              		.text
 3589 16c5 90       		.align 2
 3591              	_ZN12_GLOBAL__N_153TestTestAddedWithTEST_FIXTURE_EXMacroGetsDefaultSuiteC2Ev:
 3592              	.LFB1157:
  99:TestTestMacros.cpp **** 
 100:TestTestMacros.cpp **** TEST(TestAddedWithTEST_FIXTURE_EXMacroGetsDefaultSuite)
 3593              		.loc 6 100 0
 3594              		.cfi_startproc
 3595 16c6 55       		pushq	%rbp
 3596              		.cfi_def_cfa_offset 16
 3597              		.cfi_offset 6, -16
 3598 16c7 4889E5   		movq	%rsp, %rbp
 3599              		.cfi_def_cfa_register 6
 3600 16ca 4883EC10 		subq	$16, %rsp
 3601 16ce 48897DF8 		movq	%rdi, -8(%rbp)
 3602              	.LBB54:
 3603              		.loc 6 100 0
 3604 16d2 E8000000 		call	_ZN13UnitTestSuite12GetSuiteNameEv
 3604      00
 3605 16d7 4889C2   		movq	%rax, %rdx
 3606 16da 488B45F8 		movq	-8(%rbp), %rax
 3607 16de 41B86400 		movl	$100, %r8d
 3607      0000
 3608 16e4 B9000000 		movl	$.LC2, %ecx
 3608      00
 3609 16e9 BE000000 		movl	$.LC37, %esi
 3609      00
 3610 16ee 4889C7   		movq	%rax, %rdi
 3611 16f1 E8000000 		call	_ZN8UnitTest4TestC2EPKcS2_S2_i
 3611      00
 3612 16f6 BA000000 		movl	$_ZTVN12_GLOBAL__N_153TestTestAddedWithTEST_FIXTURE_EXMacroGetsDefaultSuiteE+16, %edx
 3612      00
 3613 16fb 488B45F8 		movq	-8(%rbp), %rax
 3614 16ff 488910   		movq	%rdx, (%rax)
 3615              	.LBE54:
 3616 1702 90       		nop
 3617 1703 C9       		leave
 3618              		.cfi_def_cfa 7, 8
 3619 1704 C3       		ret
 3620              		.cfi_endproc
 3621              	.LFE1157:
 3623              		.set	_ZN12_GLOBAL__N_153TestTestAddedWithTEST_FIXTURE_EXMacroGetsDefaultSuiteC1Ev,_ZN12_GLOBAL__N_
 3624              		.local	_ZN12_GLOBAL__N_161testTestAddedWithTEST_FIXTURE_EXMacroGetsDefaultSuiteInstanceE
 3625              		.comm	_ZN12_GLOBAL__N_161testTestAddedWithTEST_FIXTURE_EXMacroGetsDefaultSuiteInstanceE,56,32
 3626              		.local	_ZN12_GLOBAL__N_154adderTestAddedWithTEST_FIXTURE_EXMacroGetsDefaultSuiteE
 3627              		.comm	_ZN12_GLOBAL__N_154adderTestAddedWithTEST_FIXTURE_EXMacroGetsDefaultSuiteE,1,1
 3628              		.section	.rodata
 3629 063a 00000000 		.align 8
 3629      0000
 3630              	.LC38:
 3631 0640 6D616372 		.string	"macroTestList2.GetHead() != NULL"
 3631      6F546573 
 3631      744C6973 
 3631      74322E47 
 3631      65744865 
 3632 0661 00000000 		.align 8
 3632      000000
 3633              	.LC39:
 3634 0668 556E6861 		.string	"Unhandled exception in CHECK(macroTestList2.GetHead() != NULL)"
 3634      6E646C65 
 3634      64206578 
 3634      63657074 
 3634      696F6E20 
 3635 06a7 00       		.align 8
 3636              	.LC40:
 3637 06a8 556E6861 		.string	"Unhandled exception in CHECK_EQUAL(\"MacroTestHelper2\", macroTestList2.GetHead()->m_deta
 3637      6E646C65 
 3637      64206578 
 3637      63657074 
 3637      696F6E20 
 3638 070d 000000   		.align 8
 3639              	.LC41:
 3640 0710 556E6861 		.string	"Unhandled exception in CHECK_EQUAL(\"DefaultSuite\", macroTestList2.GetHead()->m_details.
 3640      6E646C65 
 3640      64206578 
 3640      63657074 
 3640      696F6E20 
 3641              		.text
 3642 1705 90       		.align 2
 3644              	_ZNK12_GLOBAL__N_153TestTestAddedWithTEST_FIXTURE_EXMacroGetsDefaultSuite7RunImplEv:
 3645              	.LFB1159:
 101:TestTestMacros.cpp **** {
 3646              		.loc 6 101 0
 3647              		.cfi_startproc
 3648              		.cfi_personality 0x3,__gxx_personality_v0
 3649              		.cfi_lsda 0x3,.LLSDA1159
 3650 1706 55       		pushq	%rbp
 3651              		.cfi_def_cfa_offset 16
 3652              		.cfi_offset 6, -16
 3653 1707 4889E5   		movq	%rsp, %rbp
 3654              		.cfi_def_cfa_register 6
 3655 170a 53       		pushq	%rbx
 3656 170b 4883EC48 		subq	$72, %rsp
 3657              		.cfi_offset 3, -24
 3658 170f 48897DB8 		movq	%rdi, -72(%rbp)
 3659              		.loc 6 101 0
 3660 1713 64488B04 		movq	%fs:40, %rax
 3660      25280000 
 3660      00
 3661 171c 488945E8 		movq	%rax, -24(%rbp)
 3662 1720 31C0     		xorl	%eax, %eax
 102:TestTestMacros.cpp ****     CHECK(macroTestList2.GetHead() != NULL);
 3663              		.loc 6 102 0
 3664 1722 BF000000 		movl	$_ZN12_GLOBAL__N_114macroTestList2E, %edi
 3664      00
 3665              	.LEHB74:
 3666 1727 E8000000 		call	_ZNK8UnitTest8TestList7GetHeadEv
 3666      00
 3667 172c 4885C0   		testq	%rax, %rax
 3668 172f 0F95C0   		setne	%al
 3669 1732 0FB6C0   		movzbl	%al, %eax
 3670 1735 89C7     		movl	%eax, %edi
 3671 1737 E8000000 		call	_ZN8UnitTest5CheckIbEEbT_
 3671      00
 3672 173c 83F001   		xorl	$1, %eax
 3673 173f 84C0     		testb	%al, %al
 3674 1741 7438     		je	.L181
 3675              		.loc 6 102 0 is_stmt 0 discriminator 2
 3676 1743 E8000000 		call	_ZN8UnitTest11CurrentTest7DetailsEv
 3676      00
 3677 1748 488B08   		movq	(%rax), %rcx
 3678 174b 488D45C0 		leaq	-64(%rbp), %rax
 3679 174f BA660000 		movl	$102, %edx
 3679      00
 3680 1754 4889CE   		movq	%rcx, %rsi
 3681 1757 4889C7   		movq	%rax, %rdi
 3682 175a E8000000 		call	_ZN8UnitTest11TestDetailsC1ERKS0_i
 3682      00
 3683              		.loc 6 102 0 discriminator 4
 3684 175f E8000000 		call	_ZN8UnitTest11CurrentTest7ResultsEv
 3684      00
 3685 1764 488B00   		movq	(%rax), %rax
 3686 1767 488D4DC0 		leaq	-64(%rbp), %rcx
 3687 176b BA000000 		movl	$.LC38, %edx
 3687      00
 3688 1770 4889CE   		movq	%rcx, %rsi
 3689 1773 4889C7   		movq	%rax, %rdi
 3690 1776 E8000000 		call	_ZN8UnitTest11TestResults13OnTestFailureERKNS_11TestDetailsEPKc
 3690      00
 3691              	.LEHE74:
 3692              	.L181:
 3693              	.LEHB75:
 103:TestTestMacros.cpp ****     CHECK_EQUAL ("MacroTestHelper2", macroTestList2.GetHead()->m_details.testName);
 3694              		.loc 6 103 0 is_stmt 1
 3695 177b E8000000 		call	_ZN8UnitTest11CurrentTest7DetailsEv
 3695      00
 3696 1780 488B08   		movq	(%rax), %rcx
 3697 1783 488D45C0 		leaq	-64(%rbp), %rax
 3698 1787 BA670000 		movl	$103, %edx
 3698      00
 3699 178c 4889CE   		movq	%rcx, %rsi
 3700 178f 4889C7   		movq	%rax, %rdi
 3701 1792 E8000000 		call	_ZN8UnitTest11TestDetailsC1ERKS0_i
 3701      00
 3702              		.loc 6 103 0 is_stmt 0 discriminator 2
 3703 1797 BF000000 		movl	$_ZN12_GLOBAL__N_114macroTestList2E, %edi
 3703      00
 3704 179c E8000000 		call	_ZNK8UnitTest8TestList7GetHeadEv
 3704      00
 3705 17a1 488B5810 		movq	16(%rax), %rbx
 3706 17a5 E8000000 		call	_ZN8UnitTest11CurrentTest7ResultsEv
 3706      00
 3707              		.loc 6 103 0 discriminator 4
 3708 17aa 488B00   		movq	(%rax), %rax
 3709 17ad 488D55C0 		leaq	-64(%rbp), %rdx
 3710 17b1 4889D1   		movq	%rdx, %rcx
 3711 17b4 4889DA   		movq	%rbx, %rdx
 3712 17b7 BE000000 		movl	$.LC36, %esi
 3712      00
 3713 17bc 4889C7   		movq	%rax, %rdi
 3714 17bf E8000000 		call	_ZN8UnitTest10CheckEqualERNS_11TestResultsEPKcS3_RKNS_11TestDetailsE
 3714      00
 3715              	.LEHE75:
 3716              	.L185:
 3717              	.LEHB76:
 104:TestTestMacros.cpp ****     CHECK_EQUAL ("DefaultSuite", macroTestList2.GetHead()->m_details.suiteName);
 3718              		.loc 6 104 0 is_stmt 1
 3719 17c4 E8000000 		call	_ZN8UnitTest11CurrentTest7DetailsEv
 3719      00
 3720 17c9 488B08   		movq	(%rax), %rcx
 3721 17cc 488D45C0 		leaq	-64(%rbp), %rax
 3722 17d0 BA680000 		movl	$104, %edx
 3722      00
 3723 17d5 4889CE   		movq	%rcx, %rsi
 3724 17d8 4889C7   		movq	%rax, %rdi
 3725 17db E8000000 		call	_ZN8UnitTest11TestDetailsC1ERKS0_i
 3725      00
 3726              		.loc 6 104 0 is_stmt 0 discriminator 2
 3727 17e0 BF000000 		movl	$_ZN12_GLOBAL__N_114macroTestList2E, %edi
 3727      00
 3728 17e5 E8000000 		call	_ZNK8UnitTest8TestList7GetHeadEv
 3728      00
 3729 17ea 488B5808 		movq	8(%rax), %rbx
 3730 17ee E8000000 		call	_ZN8UnitTest11CurrentTest7ResultsEv
 3730      00
 3731              		.loc 6 104 0 discriminator 4
 3732 17f3 488B00   		movq	(%rax), %rax
 3733 17f6 488D55C0 		leaq	-64(%rbp), %rdx
 3734 17fa 4889D1   		movq	%rdx, %rcx
 3735 17fd 4889DA   		movq	%rbx, %rdx
 3736 1800 BE000000 		movl	$.LC0, %esi
 3736      00
 3737 1805 4889C7   		movq	%rax, %rdi
 3738 1808 E8000000 		call	_ZN8UnitTest10CheckEqualERNS_11TestResultsEPKcS3_RKNS_11TestDetailsE
 3738      00
 3739              	.LEHE76:
 105:TestTestMacros.cpp **** }
 3740              		.loc 6 105 0 is_stmt 1
 3741 180d E9140100 		jmp	.L180
 3741      00
 3742              	.L191:
 102:TestTestMacros.cpp ****     CHECK_EQUAL ("MacroTestHelper2", macroTestList2.GetHead()->m_details.testName);
 3743              		.loc 6 102 0
 3744 1812 4889C7   		movq	%rax, %rdi
 3745 1815 E8000000 		call	__cxa_begin_catch
 3745      00
 3746              	.LEHB77:
 3747 181a E8000000 		call	_ZN8UnitTest11CurrentTest7DetailsEv
 3747      00
 3748 181f 488B08   		movq	(%rax), %rcx
 3749 1822 488D45C0 		leaq	-64(%rbp), %rax
 3750 1826 BA660000 		movl	$102, %edx
 3750      00
 3751 182b 4889CE   		movq	%rcx, %rsi
 3752 182e 4889C7   		movq	%rax, %rdi
 3753 1831 E8000000 		call	_ZN8UnitTest11TestDetailsC1ERKS0_i
 3753      00
 102:TestTestMacros.cpp ****     CHECK_EQUAL ("MacroTestHelper2", macroTestList2.GetHead()->m_details.testName);
 3754              		.loc 6 102 0 is_stmt 0 discriminator 12
 3755 1836 E8000000 		call	_ZN8UnitTest11CurrentTest7ResultsEv
 3755      00
 3756 183b 488B00   		movq	(%rax), %rax
 3757 183e 488D4DC0 		leaq	-64(%rbp), %rcx
 3758 1842 BA000000 		movl	$.LC39, %edx
 3758      00
 3759 1847 4889CE   		movq	%rcx, %rsi
 3760 184a 4889C7   		movq	%rax, %rdi
 3761 184d E8000000 		call	_ZN8UnitTest11TestResults13OnTestFailureERKNS_11TestDetailsEPKc
 3761      00
 3762              	.LEHE77:
 3763              	.LEHB78:
 102:TestTestMacros.cpp ****     CHECK_EQUAL ("MacroTestHelper2", macroTestList2.GetHead()->m_details.testName);
 3764              		.loc 6 102 0 discriminator 16
 3765 1852 E8000000 		call	__cxa_end_catch
 3765      00
 3766              	.LEHE78:
 3767 1857 E91FFFFF 		jmp	.L181
 3767      FF
 3768              	.L192:
 3769 185c 4889C3   		movq	%rax, %rbx
 102:TestTestMacros.cpp ****     CHECK_EQUAL ("MacroTestHelper2", macroTestList2.GetHead()->m_details.testName);
 3770              		.loc 6 102 0
 3771 185f E8000000 		call	__cxa_end_catch
 3771      00
 3772 1864 4889D8   		movq	%rbx, %rax
 3773 1867 4889C7   		movq	%rax, %rdi
 3774              	.LEHB79:
 3775 186a E8000000 		call	_Unwind_Resume
 3775      00
 3776              	.LEHE79:
 3777              	.L193:
 103:TestTestMacros.cpp ****     CHECK_EQUAL ("DefaultSuite", macroTestList2.GetHead()->m_details.suiteName);
 3778              		.loc 6 103 0 is_stmt 1
 3779 186f 4889C7   		movq	%rax, %rdi
 3780 1872 E8000000 		call	__cxa_begin_catch
 3780      00
 3781              	.LEHB80:
 3782 1877 E8000000 		call	_ZN8UnitTest11CurrentTest7DetailsEv
 3782      00
 3783 187c 488B08   		movq	(%rax), %rcx
 3784 187f 488D45C0 		leaq	-64(%rbp), %rax
 3785 1883 BA670000 		movl	$103, %edx
 3785      00
 3786 1888 4889CE   		movq	%rcx, %rsi
 3787 188b 4889C7   		movq	%rax, %rdi
 3788 188e E8000000 		call	_ZN8UnitTest11TestDetailsC1ERKS0_i
 3788      00
 103:TestTestMacros.cpp ****     CHECK_EQUAL ("DefaultSuite", macroTestList2.GetHead()->m_details.suiteName);
 3789              		.loc 6 103 0 is_stmt 0 discriminator 12
 3790 1893 E8000000 		call	_ZN8UnitTest11CurrentTest7ResultsEv
 3790      00
 3791 1898 488B00   		movq	(%rax), %rax
 3792 189b 488D4DC0 		leaq	-64(%rbp), %rcx
 3793 189f BA000000 		movl	$.LC40, %edx
 3793      00
 3794 18a4 4889CE   		movq	%rcx, %rsi
 3795 18a7 4889C7   		movq	%rax, %rdi
 3796 18aa E8000000 		call	_ZN8UnitTest11TestResults13OnTestFailureERKNS_11TestDetailsEPKc
 3796      00
 3797              	.LEHE80:
 3798              	.LEHB81:
 103:TestTestMacros.cpp ****     CHECK_EQUAL ("DefaultSuite", macroTestList2.GetHead()->m_details.suiteName);
 3799              		.loc 6 103 0 discriminator 16
 3800 18af E8000000 		call	__cxa_end_catch
 3800      00
 3801              	.LEHE81:
 3802 18b4 E90BFFFF 		jmp	.L185
 3802      FF
 3803              	.L194:
 3804 18b9 4889C3   		movq	%rax, %rbx
 103:TestTestMacros.cpp ****     CHECK_EQUAL ("DefaultSuite", macroTestList2.GetHead()->m_details.suiteName);
 3805              		.loc 6 103 0
 3806 18bc E8000000 		call	__cxa_end_catch
 3806      00
 3807 18c1 4889D8   		movq	%rbx, %rax
 3808 18c4 4889C7   		movq	%rax, %rdi
 3809              	.LEHB82:
 3810 18c7 E8000000 		call	_Unwind_Resume
 3810      00
 3811              	.LEHE82:
 3812              	.L195:
 104:TestTestMacros.cpp **** }
 3813              		.loc 6 104 0 is_stmt 1
 3814 18cc 4889C7   		movq	%rax, %rdi
 3815 18cf E8000000 		call	__cxa_begin_catch
 3815      00
 3816              	.LEHB83:
 3817 18d4 E8000000 		call	_ZN8UnitTest11CurrentTest7DetailsEv
 3817      00
 3818 18d9 488B08   		movq	(%rax), %rcx
 3819 18dc 488D45C0 		leaq	-64(%rbp), %rax
 3820 18e0 BA680000 		movl	$104, %edx
 3820      00
 3821 18e5 4889CE   		movq	%rcx, %rsi
 3822 18e8 4889C7   		movq	%rax, %rdi
 3823 18eb E8000000 		call	_ZN8UnitTest11TestDetailsC1ERKS0_i
 3823      00
 104:TestTestMacros.cpp **** }
 3824              		.loc 6 104 0 is_stmt 0 discriminator 12
 3825 18f0 E8000000 		call	_ZN8UnitTest11CurrentTest7ResultsEv
 3825      00
 3826 18f5 488B00   		movq	(%rax), %rax
 3827 18f8 488D4DC0 		leaq	-64(%rbp), %rcx
 3828 18fc BA000000 		movl	$.LC41, %edx
 3828      00
 3829 1901 4889CE   		movq	%rcx, %rsi
 3830 1904 4889C7   		movq	%rax, %rdi
 3831 1907 E8000000 		call	_ZN8UnitTest11TestResults13OnTestFailureERKNS_11TestDetailsEPKc
 3831      00
 3832              	.LEHE83:
 3833              	.LEHB84:
 104:TestTestMacros.cpp **** }
 3834              		.loc 6 104 0 discriminator 16
 3835 190c E8000000 		call	__cxa_end_catch
 3835      00
 3836              	.LEHE84:
 3837              		.loc 6 105 0 is_stmt 1 discriminator 16
 3838 1911 EB13     		jmp	.L180
 3839              	.L196:
 3840 1913 4889C3   		movq	%rax, %rbx
 104:TestTestMacros.cpp **** }
 3841              		.loc 6 104 0
 3842 1916 E8000000 		call	__cxa_end_catch
 3842      00
 3843 191b 4889D8   		movq	%rbx, %rax
 3844 191e 4889C7   		movq	%rax, %rdi
 3845              	.LEHB85:
 3846 1921 E8000000 		call	_Unwind_Resume
 3846      00
 3847              	.LEHE85:
 3848              	.L180:
 3849              		.loc 6 105 0
 3850 1926 488B45E8 		movq	-24(%rbp), %rax
 3851 192a 64483304 		xorq	%fs:40, %rax
 3851      25280000 
 3851      00
 3852 1933 7405     		je	.L190
 3853 1935 E8000000 		call	__stack_chk_fail
 3853      00
 3854              	.L190:
 3855 193a 4883C448 		addq	$72, %rsp
 3856 193e 5B       		popq	%rbx
 3857 193f 5D       		popq	%rbp
 3858              		.cfi_def_cfa 7, 8
 3859 1940 C3       		ret
 3860              		.cfi_endproc
 3861              	.LFE1159:
 3862              		.section	.gcc_except_table
 3863              		.align 4
 3864              	.LLSDA1159:
 3865 0200 FF       		.byte	0xff
 3866 0201 03       		.byte	0x3
 3867 0202 49       		.uleb128 .LLSDATT1159-.LLSDATTD1159
 3868              	.LLSDATTD1159:
 3869 0203 01       		.byte	0x1
 3870 0204 40       		.uleb128 .LLSDACSE1159-.LLSDACSB1159
 3871              	.LLSDACSB1159:
 3872 0205 21       		.uleb128 .LEHB74-.LFB1159
 3873 0206 54       		.uleb128 .LEHE74-.LEHB74
 3874 0207 8C02     		.uleb128 .L191-.LFB1159
 3875 0209 01       		.uleb128 0x1
 3876 020a 75       		.uleb128 .LEHB75-.LFB1159
 3877 020b 49       		.uleb128 .LEHE75-.LEHB75
 3878 020c E902     		.uleb128 .L193-.LFB1159
 3879 020e 01       		.uleb128 0x1
 3880 020f BE01     		.uleb128 .LEHB76-.LFB1159
 3881 0211 49       		.uleb128 .LEHE76-.LEHB76
 3882 0212 C603     		.uleb128 .L195-.LFB1159
 3883 0214 01       		.uleb128 0x1
 3884 0215 9402     		.uleb128 .LEHB77-.LFB1159
 3885 0217 38       		.uleb128 .LEHE77-.LEHB77
 3886 0218 D602     		.uleb128 .L192-.LFB1159
 3887 021a 00       		.uleb128 0
 3888 021b CC02     		.uleb128 .LEHB78-.LFB1159
 3889 021d 05       		.uleb128 .LEHE78-.LEHB78
 3890 021e 00       		.uleb128 0
 3891 021f 00       		.uleb128 0
 3892 0220 E402     		.uleb128 .LEHB79-.LFB1159
 3893 0222 05       		.uleb128 .LEHE79-.LEHB79
 3894 0223 00       		.uleb128 0
 3895 0224 00       		.uleb128 0
 3896 0225 F102     		.uleb128 .LEHB80-.LFB1159
 3897 0227 38       		.uleb128 .LEHE80-.LEHB80
 3898 0228 B303     		.uleb128 .L194-.LFB1159
 3899 022a 00       		.uleb128 0
 3900 022b A903     		.uleb128 .LEHB81-.LFB1159
 3901 022d 05       		.uleb128 .LEHE81-.LEHB81
 3902 022e 00       		.uleb128 0
 3903 022f 00       		.uleb128 0
 3904 0230 C103     		.uleb128 .LEHB82-.LFB1159
 3905 0232 05       		.uleb128 .LEHE82-.LEHB82
 3906 0233 00       		.uleb128 0
 3907 0234 00       		.uleb128 0
 3908 0235 CE03     		.uleb128 .LEHB83-.LFB1159
 3909 0237 38       		.uleb128 .LEHE83-.LEHB83
 3910 0238 8D04     		.uleb128 .L196-.LFB1159
 3911 023a 00       		.uleb128 0
 3912 023b 8604     		.uleb128 .LEHB84-.LFB1159
 3913 023d 05       		.uleb128 .LEHE84-.LEHB84
 3914 023e 00       		.uleb128 0
 3915 023f 00       		.uleb128 0
 3916 0240 9B04     		.uleb128 .LEHB85-.LFB1159
 3917 0242 05       		.uleb128 .LEHE85-.LEHB85
 3918 0243 00       		.uleb128 0
 3919 0244 00       		.uleb128 0
 3920              	.LLSDACSE1159:
 3921 0245 01       		.byte	0x1
 3922 0246 00       		.byte	0
 3923 0247 00       		.align 4
 3924 0248 00000000 		.long	0
 3925              	
 3926              	.LLSDATT1159:
 3927              		.text
 3929              		.section	.rodata
 3930              	.LC42:
 3931 0772 65786365 		.string	"exception"
 3931      7074696F 
 3931      6E00
 3932              		.text
 3933 1941 90       		.align 2
 3935              	_ZN12_GLOBAL__N_117FixtureCtorThrowsC2Ev:
 3936              	.LFB1161:
 106:TestTestMacros.cpp **** 
 107:TestTestMacros.cpp **** struct FixtureCtorThrows
 108:TestTestMacros.cpp **** {
 109:TestTestMacros.cpp **** 	FixtureCtorThrows()	{ throw "exception"; }
 3937              		.loc 6 109 0
 3938              		.cfi_startproc
 3939 1942 55       		pushq	%rbp
 3940              		.cfi_def_cfa_offset 16
 3941              		.cfi_offset 6, -16
 3942 1943 4889E5   		movq	%rsp, %rbp
 3943              		.cfi_def_cfa_register 6
 3944 1946 4883EC10 		subq	$16, %rsp
 3945 194a 48897DF8 		movq	%rdi, -8(%rbp)
 3946              	.LBB55:
 3947              		.loc 6 109 0
 3948 194e BF080000 		movl	$8, %edi
 3948      00
 3949 1953 E8000000 		call	__cxa_allocate_exception
 3949      00
 3950 1958 48C70000 		movq	$.LC42, (%rax)
 3950      000000
 3951 195f BA000000 		movl	$0, %edx
 3951      00
 3952 1964 BE000000 		movl	$_ZTIPKc, %esi
 3952      00
 3953 1969 4889C7   		movq	%rax, %rdi
 3954 196c E8000000 		call	__cxa_throw
 3954      00
 3955              	.LBE55:
 3956              		.cfi_endproc
 3957              	.LFE1161:
 3959              		.local	_ZN12_GLOBAL__N_124throwingFixtureTestList1E
 3960              		.comm	_ZN12_GLOBAL__N_124throwingFixtureTestList1E,16,16
 3961 1971 90       		.align 2
 3963              	_ZN12_GLOBAL__N_148FixtureCtorThrowsFixtureCtorThrowsTestNameHelperC2ERKN8UnitTest11TestDetailsE:
 3964              	.LFB1164:
 110:TestTestMacros.cpp **** };
 111:TestTestMacros.cpp **** 
 112:TestTestMacros.cpp **** TestList throwingFixtureTestList1;
 113:TestTestMacros.cpp **** TEST_FIXTURE_EX(FixtureCtorThrows, FixtureCtorThrowsTestName, throwingFixtureTestList1)
 3965              		.loc 6 113 0
 3966              		.cfi_startproc
 3967 1972 55       		pushq	%rbp
 3968              		.cfi_def_cfa_offset 16
 3969              		.cfi_offset 6, -16
 3970 1973 4889E5   		movq	%rsp, %rbp
 3971              		.cfi_def_cfa_register 6
 3972 1976 4883EC10 		subq	$16, %rsp
 3973 197a 48897DF8 		movq	%rdi, -8(%rbp)
 3974 197e 488975F0 		movq	%rsi, -16(%rbp)
 3975              	.LBB56:
 3976              		.loc 6 113 0
 3977 1982 488B45F8 		movq	-8(%rbp), %rax
 3978 1986 4889C7   		movq	%rax, %rdi
 3979 1989 E8B4FFFF 		call	_ZN12_GLOBAL__N_117FixtureCtorThrowsC2Ev
 3979      FF
 3980 198e 488B45F8 		movq	-8(%rbp), %rax
 3981 1992 488B55F0 		movq	-16(%rbp), %rdx
 3982 1996 488910   		movq	%rdx, (%rax)
 3983              	.LBE56:
 3984 1999 90       		nop
 3985 199a C9       		leave
 3986              		.cfi_def_cfa 7, 8
 3987 199b C3       		ret
 3988              		.cfi_endproc
 3989              	.LFE1164:
 3991              		.set	_ZN12_GLOBAL__N_148FixtureCtorThrowsFixtureCtorThrowsTestNameHelperC1ERKN8UnitTest11TestDetai
 3992              		.section	.rodata
 3993              	.LC43:
 3994 077c 46697874 		.string	"FixtureCtorThrowsTestName"
 3994      75726543 
 3994      746F7254 
 3994      68726F77 
 3994      73546573 
 3995              		.text
 3996              		.align 2
 3998              	_ZN12_GLOBAL__N_146TestFixtureCtorThrowsFixtureCtorThrowsTestNameC2Ev:
 3999              	.LFB1167:
 4000              		.loc 6 113 0
 4001              		.cfi_startproc
 4002 199c 55       		pushq	%rbp
 4003              		.cfi_def_cfa_offset 16
 4004              		.cfi_offset 6, -16
 4005 199d 4889E5   		movq	%rsp, %rbp
 4006              		.cfi_def_cfa_register 6
 4007 19a0 4883EC10 		subq	$16, %rsp
 4008 19a4 48897DF8 		movq	%rdi, -8(%rbp)
 4009              	.LBB57:
 4010              		.loc 6 113 0
 4011 19a8 E8000000 		call	_ZN13UnitTestSuite12GetSuiteNameEv
 4011      00
 4012 19ad 4889C2   		movq	%rax, %rdx
 4013 19b0 488B45F8 		movq	-8(%rbp), %rax
 4014 19b4 41B87100 		movl	$113, %r8d
 4014      0000
 4015 19ba B9000000 		movl	$.LC2, %ecx
 4015      00
 4016 19bf BE000000 		movl	$.LC43, %esi
 4016      00
 4017 19c4 4889C7   		movq	%rax, %rdi
 4018 19c7 E8000000 		call	_ZN8UnitTest4TestC2EPKcS2_S2_i
 4018      00
 4019 19cc BA000000 		movl	$_ZTVN12_GLOBAL__N_146TestFixtureCtorThrowsFixtureCtorThrowsTestNameE+16, %edx
 4019      00
 4020 19d1 488B45F8 		movq	-8(%rbp), %rax
 4021 19d5 488910   		movq	%rdx, (%rax)
 4022              	.LBE57:
 4023 19d8 90       		nop
 4024 19d9 C9       		leave
 4025              		.cfi_def_cfa 7, 8
 4026 19da C3       		ret
 4027              		.cfi_endproc
 4028              	.LFE1167:
 4030              		.set	_ZN12_GLOBAL__N_146TestFixtureCtorThrowsFixtureCtorThrowsTestNameC1Ev,_ZN12_GLOBAL__N_146Test
 4031              		.local	_ZN12_GLOBAL__N_154testFixtureCtorThrowsFixtureCtorThrowsTestNameInstanceE
 4032              		.comm	_ZN12_GLOBAL__N_154testFixtureCtorThrowsFixtureCtorThrowsTestNameInstanceE,56,32
 4033              		.local	_ZN12_GLOBAL__N_147adderFixtureCtorThrowsFixtureCtorThrowsTestNameE
 4034              		.comm	_ZN12_GLOBAL__N_147adderFixtureCtorThrowsFixtureCtorThrowsTestNameE,1,1
 4035              		.section	.rodata
 4036 0796 0000     		.align 8
 4037              	.LC44:
 4038 0798 556E6861 		.string	"Unhandled exception while destroying fixture FixtureCtorThrows"
 4038      6E646C65 
 4038      64206578 
 4038      63657074 
 4038      696F6E20 
 4039 07d7 00       		.align 8
 4040              	.LC45:
 4041 07d8 556E6861 		.string	"Unhandled exception while constructing fixture FixtureCtorThrows"
 4041      6E646C65 
 4041      64206578 
 4041      63657074 
 4041      696F6E20 
 4042              		.text
 4043 19db 90       		.align 2
 4045              	_ZNK12_GLOBAL__N_146TestFixtureCtorThrowsFixtureCtorThrowsTestName7RunImplEv:
 4046              	.LFB1169:
 4047              		.loc 6 113 0
 4048              		.cfi_startproc
 4049              		.cfi_personality 0x3,__gxx_personality_v0
 4050              		.cfi_lsda 0x3,.LLSDA1169
 4051 19dc 55       		pushq	%rbp
 4052              		.cfi_def_cfa_offset 16
 4053              		.cfi_offset 6, -16
 4054 19dd 4889E5   		movq	%rsp, %rbp
 4055              		.cfi_def_cfa_register 6
 4056 19e0 4154     		pushq	%r12
 4057 19e2 53       		pushq	%rbx
 4058 19e3 4881ECF0 		subq	$496, %rsp
 4058      010000
 4059              		.cfi_offset 12, -24
 4060              		.cfi_offset 3, -32
 4061 19ea 4889BD08 		movq	%rdi, -504(%rbp)
 4061      FEFFFF
 4062              		.loc 6 113 0
 4063 19f1 64488B04 		movq	%fs:40, %rax
 4063      25280000 
 4063      00
 4064 19fa 488945E8 		movq	%rax, -24(%rbp)
 4065 19fe 31C0     		xorl	%eax, %eax
 4066 1a00 C6851FFE 		movb	$0, -481(%rbp)
 4066      FFFF00
 4067              	.LBB58:
 4068 1a07 488B8508 		movq	-504(%rbp), %rax
 4068      FEFFFF
 4069 1a0e 488D5008 		leaq	8(%rax), %rdx
 4070 1a12 488D8530 		leaq	-464(%rbp), %rax
 4070      FEFFFF
 4071 1a19 4889D6   		movq	%rdx, %rsi
 4072 1a1c 4889C7   		movq	%rax, %rdi
 4073              	.LEHB86:
 4074 1a1f E84EFFFF 		call	_ZN12_GLOBAL__N_148FixtureCtorThrowsFixtureCtorThrowsTestNameHelperC1ERKN8UnitTest11TestDetai
 4074      FF
 4075              		.loc 6 113 0 is_stmt 0 discriminator 1
 4076 1a24 C6851FFE 		movb	$1, -481(%rbp)
 4076      FFFF01
 4077 1a2b 488B8508 		movq	-504(%rbp), %rax
 4077      FEFFFF
 4078 1a32 488D5008 		leaq	8(%rax), %rdx
 4079 1a36 488D8530 		leaq	-464(%rbp), %rax
 4079      FEFFFF
 4080 1a3d 4889D6   		movq	%rdx, %rsi
 4081 1a40 4889C7   		movq	%rax, %rdi
 4082 1a43 E8F81F00 		call	_ZN8UnitTest11ExecuteTestIN12_GLOBAL__N_148FixtureCtorThrowsFixtureCtorThrowsTestNameHelperEE
 4082      00
 4083              	.LEHE86:
 4084              	.LBE58:
 4085              		.loc 6 113 0
 4086 1a48 E9490200 		jmp	.L200
 4086      00
 4087              	.L213:
 4088 1a4d 4883FA01 		cmpq	$1, %rdx
 4089 1a51 740F     		je	.L203
 4090 1a53 4883FA02 		cmpq	$2, %rdx
 4091 1a57 0F84A700 		je	.L204
 4091      0000
 4092 1a5d E94B0100 		jmp	.L218
 4092      00
 4093              	.L203:
 4094              	.LBB59:
 4095 1a62 4889C7   		movq	%rax, %rdi
 4096 1a65 E8000000 		call	__cxa_begin_catch
 4096      00
 4097 1a6a 48898520 		movq	%rax, -480(%rbp)
 4097      FEFFFF
 4098 1a71 488B8520 		movq	-480(%rbp), %rax
 4098      FEFFFF
 4099 1a78 488B00   		movq	(%rax), %rax
 4100 1a7b 4883C010 		addq	$16, %rax
 4101 1a7f 488B00   		movq	(%rax), %rax
 4102 1a82 488B9520 		movq	-480(%rbp), %rdx
 4102      FEFFFF
 4103 1a89 4889D7   		movq	%rdx, %rdi
 4104 1a8c FFD0     		call	*%rax
 4105 1a8e 4889C3   		movq	%rax, %rbx
 4106 1a91 488B8520 		movq	-480(%rbp), %rax
 4106      FEFFFF
 4107 1a98 4889C7   		movq	%rax, %rdi
 4108              	.LEHB87:
 4109 1a9b E8000000 		call	_ZNK8UnitTest15AssertException10LineNumberEv
 4109      00
 4110 1aa0 4189C4   		movl	%eax, %r12d
 4111 1aa3 488B8520 		movq	-480(%rbp), %rax
 4111      FEFFFF
 4112 1aaa 4889C7   		movq	%rax, %rdi
 4113 1aad E8000000 		call	_ZNK8UnitTest15AssertException8FilenameEv
 4113      00
 4114              		.loc 6 113 0 discriminator 3
 4115 1ab2 4889C1   		movq	%rax, %rcx
 4116 1ab5 488B8508 		movq	-504(%rbp), %rax
 4116      FEFFFF
 4117 1abc 488B5008 		movq	8(%rax), %rdx
 4118 1ac0 488B8508 		movq	-504(%rbp), %rax
 4118      FEFFFF
 4119 1ac7 488B7010 		movq	16(%rax), %rsi
 4120 1acb 488D8530 		leaq	-464(%rbp), %rax
 4120      FEFFFF
 4121 1ad2 4589E0   		movl	%r12d, %r8d
 4122 1ad5 4889C7   		movq	%rax, %rdi
 4123 1ad8 E8000000 		call	_ZN8UnitTest11TestDetailsC1EPKcS2_S2_i
 4123      00
 4124              		.loc 6 113 0 discriminator 7
 4125 1add E8000000 		call	_ZN8UnitTest11CurrentTest7ResultsEv
 4125      00
 4126 1ae2 488B00   		movq	(%rax), %rax
 4127 1ae5 488D8D30 		leaq	-464(%rbp), %rcx
 4127      FEFFFF
 4128 1aec 4889DA   		movq	%rbx, %rdx
 4129 1aef 4889CE   		movq	%rcx, %rsi
 4130 1af2 4889C7   		movq	%rax, %rdi
 4131 1af5 E8000000 		call	_ZN8UnitTest11TestResults13OnTestFailureERKNS_11TestDetailsEPKc
 4131      00
 4132              	.LEHE87:
 4133              		.loc 6 113 0 discriminator 11
 4134 1afa E8000000 		call	__cxa_end_catch
 4134      00
 4135              	.LBE59:
 4136 1aff E9920100 		jmp	.L200
 4136      00
 4137              	.L204:
 4138              	.LBB60:
 4139              		.loc 6 113 0
 4140 1b04 4889C7   		movq	%rax, %rdi
 4141 1b07 E8000000 		call	__cxa_begin_catch
 4141      00
 4142 1b0c 48898528 		movq	%rax, -472(%rbp)
 4142      FEFFFF
 4143              	.LBB61:
 4144 1b13 488D8550 		leaq	-432(%rbp), %rax
 4144      FEFFFF
 4145 1b1a 4889C7   		movq	%rax, %rdi
 4146              	.LEHB88:
 4147 1b1d E8000000 		call	_ZN8UnitTest15MemoryOutStreamC1Ev
 4147      00
 4148              	.LEHE88:
 4149              		.loc 6 113 0 discriminator 13
 4150 1b22 488B8528 		movq	-472(%rbp), %rax
 4150      FEFFFF
 4151 1b29 488B00   		movq	(%rax), %rax
 4152 1b2c 4883C010 		addq	$16, %rax
 4153 1b30 488B00   		movq	(%rax), %rax
 4154 1b33 488B9528 		movq	-472(%rbp), %rdx
 4154      FEFFFF
 4155 1b3a 4889D7   		movq	%rdx, %rdi
 4156 1b3d FFD0     		call	*%rax
 4157 1b3f 4889C3   		movq	%rax, %rbx
 4158 1b42 488D8550 		leaq	-432(%rbp), %rax
 4158      FEFFFF
 4159 1b49 BE000000 		movl	$.LC11, %esi
 4159      00
 4160 1b4e 4889C7   		movq	%rax, %rdi
 4161              	.LEHB89:
 4162 1b51 E8000000 		call	_ZStlsISt11char_traitsIcEERSt13basic_ostreamIcT_ES5_PKc
 4162      00
 4163 1b56 4889DE   		movq	%rbx, %rsi
 4164 1b59 4889C7   		movq	%rax, %rdi
 4165 1b5c E8000000 		call	_ZStlsISt11char_traitsIcEERSt13basic_ostreamIcT_ES5_PKc
 4165      00
 4166              		.loc 6 113 0 discriminator 17
 4167 1b61 488D8550 		leaq	-432(%rbp), %rax
 4167      FEFFFF
 4168 1b68 4889C7   		movq	%rax, %rdi
 4169 1b6b E8000000 		call	_ZNK8UnitTest15MemoryOutStream7GetTextEv
 4169      00
 4170 1b70 4989C4   		movq	%rax, %r12
 4171 1b73 488B8508 		movq	-504(%rbp), %rax
 4171      FEFFFF
 4172 1b7a 488D5808 		leaq	8(%rax), %rbx
 4173 1b7e E8000000 		call	_ZN8UnitTest11CurrentTest7ResultsEv
 4173      00
 4174              		.loc 6 113 0 discriminator 19
 4175 1b83 488B00   		movq	(%rax), %rax
 4176 1b86 4C89E2   		movq	%r12, %rdx
 4177 1b89 4889DE   		movq	%rbx, %rsi
 4178 1b8c 4889C7   		movq	%rax, %rdi
 4179 1b8f E8000000 		call	_ZN8UnitTest11TestResults13OnTestFailureERKNS_11TestDetailsEPKc
 4179      00
 4180              	.LEHE89:
 4181              		.loc 6 113 0 discriminator 23
 4182 1b94 488D8550 		leaq	-432(%rbp), %rax
 4182      FEFFFF
 4183 1b9b 4889C7   		movq	%rax, %rdi
 4184              	.LEHB90:
 4185 1b9e E8000000 		call	_ZN8UnitTest15MemoryOutStreamD1Ev
 4185      00
 4186              	.LEHE90:
 4187              	.LBE61:
 4188              		.loc 6 113 0 discriminator 24
 4189 1ba3 E8000000 		call	__cxa_end_catch
 4189      00
 4190              	.LBE60:
 4191 1ba8 E9E90000 		jmp	.L200
 4191      00
 4192              	.L218:
 4193              		.loc 6 113 0
 4194 1bad 4889C7   		movq	%rax, %rdi
 4195 1bb0 E8000000 		call	__cxa_begin_catch
 4195      00
 4196 1bb5 80BD1FFE 		cmpb	$0, -481(%rbp)
 4196      FFFF00
 4197 1bbc 7443     		je	.L206
 4198              		.loc 6 113 0 discriminator 26
 4199 1bbe 488B8508 		movq	-504(%rbp), %rax
 4199      FEFFFF
 4200 1bc5 488D4808 		leaq	8(%rax), %rcx
 4201 1bc9 488D8530 		leaq	-464(%rbp), %rax
 4201      FEFFFF
 4202 1bd0 BA710000 		movl	$113, %edx
 4202      00
 4203 1bd5 4889CE   		movq	%rcx, %rsi
 4204 1bd8 4889C7   		movq	%rax, %rdi
 4205              	.LEHB91:
 4206 1bdb E8000000 		call	_ZN8UnitTest11TestDetailsC1ERKS0_i
 4206      00
 4207              		.loc 6 113 0 discriminator 29
 4208 1be0 E8000000 		call	_ZN8UnitTest11CurrentTest7ResultsEv
 4208      00
 4209 1be5 488B00   		movq	(%rax), %rax
 4210 1be8 488D8D30 		leaq	-464(%rbp), %rcx
 4210      FEFFFF
 4211 1bef BA000000 		movl	$.LC44, %edx
 4211      00
 4212 1bf4 4889CE   		movq	%rcx, %rsi
 4213 1bf7 4889C7   		movq	%rax, %rdi
 4214 1bfa E8000000 		call	_ZN8UnitTest11TestResults13OnTestFailureERKNS_11TestDetailsEPKc
 4214      00
 4215 1bff EB41     		jmp	.L207
 4216              	.L206:
 4217              		.loc 6 113 0 discriminator 27
 4218 1c01 488B8508 		movq	-504(%rbp), %rax
 4218      FEFFFF
 4219 1c08 488D4808 		leaq	8(%rax), %rcx
 4220 1c0c 488D8530 		leaq	-464(%rbp), %rax
 4220      FEFFFF
 4221 1c13 BA710000 		movl	$113, %edx
 4221      00
 4222 1c18 4889CE   		movq	%rcx, %rsi
 4223 1c1b 4889C7   		movq	%rax, %rdi
 4224 1c1e E8000000 		call	_ZN8UnitTest11TestDetailsC1ERKS0_i
 4224      00
 4225              		.loc 6 113 0 discriminator 36
 4226 1c23 E8000000 		call	_ZN8UnitTest11CurrentTest7ResultsEv
 4226      00
 4227 1c28 488B00   		movq	(%rax), %rax
 4228 1c2b 488D8D30 		leaq	-464(%rbp), %rcx
 4228      FEFFFF
 4229 1c32 BA000000 		movl	$.LC45, %edx
 4229      00
 4230 1c37 4889CE   		movq	%rcx, %rsi
 4231 1c3a 4889C7   		movq	%rax, %rdi
 4232 1c3d E8000000 		call	_ZN8UnitTest11TestResults13OnTestFailureERKNS_11TestDetailsEPKc
 4232      00
 4233              	.LEHE91:
 4234              	.L207:
 4235              	.LEHB92:
 4236              		.loc 6 113 0 discriminator 41
 4237 1c42 E8000000 		call	__cxa_end_catch
 4237      00
 4238 1c47 EB4D     		jmp	.L200
 4239              	.L214:
 4240 1c49 4889C3   		movq	%rax, %rbx
 4241              	.LBB63:
 4242              		.loc 6 113 0
 4243 1c4c E8000000 		call	__cxa_end_catch
 4243      00
 4244 1c51 4889D8   		movq	%rbx, %rax
 4245 1c54 4889C7   		movq	%rax, %rdi
 4246 1c57 E8000000 		call	_Unwind_Resume
 4246      00
 4247              	.LEHE92:
 4248              	.L216:
 4249 1c5c 4889C3   		movq	%rax, %rbx
 4250              	.LBE63:
 4251              	.LBB64:
 4252              	.LBB62:
 4253 1c5f 488D8550 		leaq	-432(%rbp), %rax
 4253      FEFFFF
 4254 1c66 4889C7   		movq	%rax, %rdi
 4255 1c69 E8000000 		call	_ZN8UnitTest15MemoryOutStreamD1Ev
 4255      00
 4256 1c6e EB03     		jmp	.L210
 4257              	.L215:
 4258 1c70 4889C3   		movq	%rax, %rbx
 4259              	.L210:
 4260              	.LBE62:
 4261 1c73 E8000000 		call	__cxa_end_catch
 4261      00
 4262 1c78 4889D8   		movq	%rbx, %rax
 4263 1c7b 4889C7   		movq	%rax, %rdi
 4264              	.LEHB93:
 4265 1c7e E8000000 		call	_Unwind_Resume
 4265      00
 4266              	.LEHE93:
 4267              	.L217:
 4268 1c83 4889C3   		movq	%rax, %rbx
 4269              	.LBE64:
 4270 1c86 E8000000 		call	__cxa_end_catch
 4270      00
 4271 1c8b 4889D8   		movq	%rbx, %rax
 4272 1c8e 4889C7   		movq	%rax, %rdi
 4273              	.LEHB94:
 4274 1c91 E8000000 		call	_Unwind_Resume
 4274      00
 4275              	.LEHE94:
 4276              	.L200:
 4277 1c96 488B45E8 		movq	-24(%rbp), %rax
 4278 1c9a 64483304 		xorq	%fs:40, %rax
 4278      25280000 
 4278      00
 4279 1ca3 7405     		je	.L212
 4280 1ca5 E8000000 		call	__stack_chk_fail
 4280      00
 4281              	.L212:
 4282 1caa 4881C4F0 		addq	$496, %rsp
 4282      010000
 4283 1cb1 5B       		popq	%rbx
 4284 1cb2 415C     		popq	%r12
 4285 1cb4 5D       		popq	%rbp
 4286              		.cfi_def_cfa 7, 8
 4287 1cb5 C3       		ret
 4288              		.cfi_endproc
 4289              	.LFE1169:
 4290              		.section	.gcc_except_table
 4291              		.align 4
 4292              	.LLSDA1169:
 4293 024c FF       		.byte	0xff
 4294 024d 03       		.byte	0x3
 4295 024e 45       		.uleb128 .LLSDATT1169-.LLSDATTD1169
 4296              	.LLSDATTD1169:
 4297 024f 01       		.byte	0x1
 4298 0250 31       		.uleb128 .LLSDACSE1169-.LLSDACSB1169
 4299              	.LLSDACSB1169:
 4300 0251 43       		.uleb128 .LEHB86-.LFB1169
 4301 0252 29       		.uleb128 .LEHE86-.LEHB86
 4302 0253 71       		.uleb128 .L213-.LFB1169
 4303 0254 05       		.uleb128 0x5
 4304 0255 BF01     		.uleb128 .LEHB87-.LFB1169
 4305 0257 5F       		.uleb128 .LEHE87-.LEHB87
 4306 0258 ED04     		.uleb128 .L214-.LFB1169
 4307 025a 00       		.uleb128 0
 4308 025b C102     		.uleb128 .LEHB88-.LFB1169
 4309 025d 05       		.uleb128 .LEHE88-.LEHB88
 4310 025e 9405     		.uleb128 .L215-.LFB1169
 4311 0260 00       		.uleb128 0
 4312 0261 F502     		.uleb128 .LEHB89-.LFB1169
 4313 0263 43       		.uleb128 .LEHE89-.LEHB89
 4314 0264 8005     		.uleb128 .L216-.LFB1169
 4315 0266 00       		.uleb128 0
 4316 0267 C203     		.uleb128 .LEHB90-.LFB1169
 4317 0269 05       		.uleb128 .LEHE90-.LEHB90
 4318 026a 9405     		.uleb128 .L215-.LFB1169
 4319 026c 00       		.uleb128 0
 4320 026d FF03     		.uleb128 .LEHB91-.LFB1169
 4321 026f 67       		.uleb128 .LEHE91-.LEHB91
 4322 0270 A705     		.uleb128 .L217-.LFB1169
 4323 0272 00       		.uleb128 0
 4324 0273 E604     		.uleb128 .LEHB92-.LFB1169
 4325 0275 1A       		.uleb128 .LEHE92-.LEHB92
 4326 0276 00       		.uleb128 0
 4327 0277 00       		.uleb128 0
 4328 0278 A205     		.uleb128 .LEHB93-.LFB1169
 4329 027a 05       		.uleb128 .LEHE93-.LEHB93
 4330 027b 00       		.uleb128 0
 4331 027c 00       		.uleb128 0
 4332 027d B505     		.uleb128 .LEHB94-.LFB1169
 4333 027f 05       		.uleb128 .LEHE94-.LEHB94
 4334 0280 00       		.uleb128 0
 4335 0281 00       		.uleb128 0
 4336              	.LLSDACSE1169:
 4337 0282 03       		.byte	0x3
 4338 0283 00       		.byte	0
 4339 0284 02       		.byte	0x2
 4340 0285 7D       		.byte	0x7d
 4341 0286 01       		.byte	0x1
 4342 0287 7D       		.byte	0x7d
 4343              		.align 4
 4344 0288 00000000 		.long	0
 4345              	
 4346 028c 00000000 		.long	_ZTISt9exception
 4347 0290 00000000 		.long	_ZTIN8UnitTest15AssertExceptionE
 4348              	.LLSDATT1169:
 4349              		.text
 4351              		.align 2
 4353              	_ZN12_GLOBAL__N_148FixtureCtorThrowsFixtureCtorThrowsTestNameHelper7RunImplEv:
 4354              	.LFB1170:
 114:TestTestMacros.cpp **** {
 4355              		.loc 6 114 0 is_stmt 1
 4356              		.cfi_startproc
 4357 1cb6 55       		pushq	%rbp
 4358              		.cfi_def_cfa_offset 16
 4359              		.cfi_offset 6, -16
 4360 1cb7 4889E5   		movq	%rsp, %rbp
 4361              		.cfi_def_cfa_register 6
 4362 1cba 48897DF8 		movq	%rdi, -8(%rbp)
 115:TestTestMacros.cpp **** }
 4363              		.loc 6 115 0
 4364 1cbe 90       		nop
 4365 1cbf 5D       		popq	%rbp
 4366              		.cfi_def_cfa 7, 8
 4367 1cc0 C3       		ret
 4368              		.cfi_endproc
 4369              	.LFE1170:
 4371              		.section	.rodata
 4372 0819 00000000 		.align 8
 4372      000000
 4373              	.LC46:
 4374 0820 46697874 		.string	"FixturesWithThrowingCtorsAreFailures"
 4374      75726573 
 4374      57697468 
 4374      5468726F 
 4374      77696E67 
 4375              		.text
 4376 1cc1 90       		.align 2
 4378              	_ZN12_GLOBAL__N_140TestFixturesWithThrowingCtorsAreFailuresC2Ev:
 4379              	.LFB1172:
 116:TestTestMacros.cpp **** 
 117:TestTestMacros.cpp **** TEST(FixturesWithThrowingCtorsAreFailures)
 4380              		.loc 6 117 0
 4381              		.cfi_startproc
 4382 1cc2 55       		pushq	%rbp
 4383              		.cfi_def_cfa_offset 16
 4384              		.cfi_offset 6, -16
 4385 1cc3 4889E5   		movq	%rsp, %rbp
 4386              		.cfi_def_cfa_register 6
 4387 1cc6 4883EC10 		subq	$16, %rsp
 4388 1cca 48897DF8 		movq	%rdi, -8(%rbp)
 4389              	.LBB65:
 4390              		.loc 6 117 0
 4391 1cce E8000000 		call	_ZN13UnitTestSuite12GetSuiteNameEv
 4391      00
 4392 1cd3 4889C2   		movq	%rax, %rdx
 4393 1cd6 488B45F8 		movq	-8(%rbp), %rax
 4394 1cda 41B87500 		movl	$117, %r8d
 4394      0000
 4395 1ce0 B9000000 		movl	$.LC2, %ecx
 4395      00
 4396 1ce5 BE000000 		movl	$.LC46, %esi
 4396      00
 4397 1cea 4889C7   		movq	%rax, %rdi
 4398 1ced E8000000 		call	_ZN8UnitTest4TestC2EPKcS2_S2_i
 4398      00
 4399 1cf2 BA000000 		movl	$_ZTVN12_GLOBAL__N_140TestFixturesWithThrowingCtorsAreFailuresE+16, %edx
 4399      00
 4400 1cf7 488B45F8 		movq	-8(%rbp), %rax
 4401 1cfb 488910   		movq	%rdx, (%rax)
 4402              	.LBE65:
 4403 1cfe 90       		nop
 4404 1cff C9       		leave
 4405              		.cfi_def_cfa 7, 8
 4406 1d00 C3       		ret
 4407              		.cfi_endproc
 4408              	.LFE1172:
 4410              		.set	_ZN12_GLOBAL__N_140TestFixturesWithThrowingCtorsAreFailuresC1Ev,_ZN12_GLOBAL__N_140TestFixtur
 4411              		.local	_ZN12_GLOBAL__N_148testFixturesWithThrowingCtorsAreFailuresInstanceE
 4412              		.comm	_ZN12_GLOBAL__N_148testFixturesWithThrowingCtorsAreFailuresInstanceE,56,32
 4413              		.local	_ZN12_GLOBAL__N_141adderFixturesWithThrowingCtorsAreFailuresE
 4414              		.comm	_ZN12_GLOBAL__N_141adderFixturesWithThrowingCtorsAreFailuresE,1,1
 4415              		.section	.rodata
 4416 0845 000000   		.align 8
 4417              	.LC47:
 4418 0848 7468726F 		.string	"throwingFixtureTestList1.GetHead() != NULL"
 4418      77696E67 
 4418      46697874 
 4418      75726554 
 4418      6573744C 
 4419              	.LC48:
 4420 0873 7768696C 		.string	"while constructing fixture"
 4420      6520636F 
 4420      6E737472 
 4420      75637469 
 4420      6E672066 
 4421 088e 0000     		.align 8
 4422              	.LC49:
 4423 0890 73747273 		.string	"strstr(reporter.lastFailedMessage, \"while constructing fixture\")"
 4423      74722872 
 4423      65706F72 
 4423      7465722E 
 4423      6C617374 
 4424 08d1 00000000 		.align 8
 4424      000000
 4425              	.LC50:
 4426 08d8 556E6861 		.string	"Unhandled exception in CHECK(throwingFixtureTestList1.GetHead() != NULL)"
 4426      6E646C65 
 4426      64206578 
 4426      63657074 
 4426      696F6E20 
 4427 0921 00000000 		.align 8
 4427      000000
 4428              	.LC51:
 4429 0928 556E6861 		.string	"Unhandled exception in CHECK_EQUAL(1, failureCount)"
 4429      6E646C65 
 4429      64206578 
 4429      63657074 
 4429      696F6E20 
 4430 095c 00000000 		.align 8
 4431              	.LC52:
 4432 0960 556E6861 		.string	"Unhandled exception in CHECK(strstr(reporter.lastFailedMessage, \"while constructing fixt
 4432      6E646C65 
 4432      64206578 
 4432      63657074 
 4432      696F6E20 
 4433              		.text
 4434 1d01 90       		.align 2
 4436              	_ZNK12_GLOBAL__N_140TestFixturesWithThrowingCtorsAreFailures7RunImplEv:
 4437              	.LFB1174:
 118:TestTestMacros.cpp **** {
 4438              		.loc 6 118 0
 4439              		.cfi_startproc
 4440              		.cfi_personality 0x3,__gxx_personality_v0
 4441              		.cfi_lsda 0x3,.LLSDA1174
 4442 1d02 55       		pushq	%rbp
 4443              		.cfi_def_cfa_offset 16
 4444              		.cfi_offset 6, -16
 4445 1d03 4889E5   		movq	%rsp, %rbp
 4446              		.cfi_def_cfa_register 6
 4447 1d06 53       		pushq	%rbx
 4448 1d07 4881ECA8 		subq	$2216, %rsp
 4448      080000
 4449              		.cfi_offset 3, -24
 4450 1d0e 4889BD58 		movq	%rdi, -2216(%rbp)
 4450      F7FFFF
 4451              		.loc 6 118 0
 4452 1d15 64488B04 		movq	%fs:40, %rax
 4452      25280000 
 4452      00
 4453 1d1e 488945E8 		movq	%rax, -24(%rbp)
 4454 1d22 31C0     		xorl	%eax, %eax
 119:TestTestMacros.cpp **** 	CHECK(throwingFixtureTestList1.GetHead() != NULL);
 4455              		.loc 6 119 0
 4456 1d24 BF000000 		movl	$_ZN12_GLOBAL__N_124throwingFixtureTestList1E, %edi
 4456      00
 4457              	.LEHB95:
 4458 1d29 E8000000 		call	_ZNK8UnitTest8TestList7GetHeadEv
 4458      00
 4459 1d2e 4885C0   		testq	%rax, %rax
 4460 1d31 0F95C0   		setne	%al
 4461 1d34 0FB6C0   		movzbl	%al, %eax
 4462 1d37 89C7     		movl	%eax, %edi
 4463 1d39 E8000000 		call	_ZN8UnitTest5CheckIbEEbT_
 4463      00
 4464 1d3e 83F001   		xorl	$1, %eax
 4465 1d41 84C0     		testb	%al, %al
 4466 1d43 743E     		je	.L222
 4467              		.loc 6 119 0 is_stmt 0 discriminator 2
 4468 1d45 E8000000 		call	_ZN8UnitTest11CurrentTest7DetailsEv
 4468      00
 4469 1d4a 488B08   		movq	(%rax), %rcx
 4470 1d4d 488D8590 		leaq	-2160(%rbp), %rax
 4470      F7FFFF
 4471 1d54 BA770000 		movl	$119, %edx
 4471      00
 4472 1d59 4889CE   		movq	%rcx, %rsi
 4473 1d5c 4889C7   		movq	%rax, %rdi
 4474 1d5f E8000000 		call	_ZN8UnitTest11TestDetailsC1ERKS0_i
 4474      00
 4475              		.loc 6 119 0 discriminator 4
 4476 1d64 E8000000 		call	_ZN8UnitTest11CurrentTest7ResultsEv
 4476      00
 4477 1d69 488B00   		movq	(%rax), %rax
 4478 1d6c 488D8D90 		leaq	-2160(%rbp), %rcx
 4478      F7FFFF
 4479 1d73 BA000000 		movl	$.LC47, %edx
 4479      00
 4480 1d78 4889CE   		movq	%rcx, %rsi
 4481 1d7b 4889C7   		movq	%rax, %rdi
 4482 1d7e E8000000 		call	_ZN8UnitTest11TestResults13OnTestFailureERKNS_11TestDetailsEPKc
 4482      00
 4483              	.LEHE95:
 4484              	.L222:
 120:TestTestMacros.cpp **** 	RecordingReporter reporter;
 4485              		.loc 6 120 0 is_stmt 1
 4486 1d83 488D85B0 		leaq	-2128(%rbp), %rax
 4486      F7FFFF
 4487 1d8a 4889C7   		movq	%rax, %rdi
 4488 1d8d E8000000 		call	_ZN17RecordingReporterC1Ev
 4488      00
 121:TestTestMacros.cpp **** 	TestResults result(&reporter);
 4489              		.loc 6 121 0
 4490 1d92 488D95B0 		leaq	-2128(%rbp), %rdx
 4490      F7FFFF
 4491 1d99 488D8570 		leaq	-2192(%rbp), %rax
 4491      F7FFFF
 4492 1da0 4889D6   		movq	%rdx, %rsi
 4493 1da3 4889C7   		movq	%rax, %rdi
 4494              	.LEHB96:
 4495 1da6 E8000000 		call	_ZN8UnitTest11TestResultsC1EPNS_12TestReporterE
 4495      00
 4496              	.LBB66:
 122:TestTestMacros.cpp **** 	{
 123:TestTestMacros.cpp **** 		ScopedCurrentTest scopedResult(result);
 4497              		.loc 6 123 0
 4498 1dab 488D8D70 		leaq	-2192(%rbp), %rcx
 4498      F7FFFF
 4499 1db2 488D8590 		leaq	-2160(%rbp), %rax
 4499      F7FFFF
 4500 1db9 BA000000 		movl	$0, %edx
 4500      00
 4501 1dbe 4889CE   		movq	%rcx, %rsi
 4502 1dc1 4889C7   		movq	%rax, %rdi
 4503 1dc4 E8000000 		call	_ZN17ScopedCurrentTestC1ERN8UnitTest11TestResultsEPKNS0_11TestDetailsE
 4503      00
 4504              	.LEHE96:
 124:TestTestMacros.cpp **** 		throwingFixtureTestList1.GetHead()->Run();
 4505              		.loc 6 124 0
 4506 1dc9 BF000000 		movl	$_ZN12_GLOBAL__N_124throwingFixtureTestList1E, %edi
 4506      00
 4507              	.LEHB97:
 4508 1dce E8000000 		call	_ZNK8UnitTest8TestList7GetHeadEv
 4508      00
 4509 1dd3 4889C7   		movq	%rax, %rdi
 4510 1dd6 E8000000 		call	_ZN8UnitTest4Test3RunEv
 4510      00
 4511              	.LEHE97:
 123:TestTestMacros.cpp **** 		throwingFixtureTestList1.GetHead()->Run();
 4512              		.loc 6 123 0
 4513 1ddb 488D8590 		leaq	-2160(%rbp), %rax
 4513      F7FFFF
 4514 1de2 4889C7   		movq	%rax, %rdi
 4515              	.LEHB98:
 4516 1de5 E8000000 		call	_ZN17ScopedCurrentTestD1Ev
 4516      00
 4517              	.LBE66:
 125:TestTestMacros.cpp **** 	}
 126:TestTestMacros.cpp **** 
 127:TestTestMacros.cpp **** 	int const failureCount = result.GetFailedTestCount();
 4518              		.loc 6 127 0
 4519 1dea 488D8570 		leaq	-2192(%rbp), %rax
 4519      F7FFFF
 4520 1df1 4889C7   		movq	%rax, %rdi
 4521 1df4 E8000000 		call	_ZNK8UnitTest11TestResults18GetFailedTestCountEv
 4521      00
 4522              	.LEHE98:
 4523 1df9 898568F7 		movl	%eax, -2200(%rbp)
 4523      FFFF
 4524              	.LEHB99:
 128:TestTestMacros.cpp **** 	CHECK_EQUAL(1, failureCount);
 4525              		.loc 6 128 0
 4526 1dff E8000000 		call	_ZN8UnitTest11CurrentTest7DetailsEv
 4526      00
 4527              		.loc 6 128 0 is_stmt 0 discriminator 1
 4528 1e04 488B08   		movq	(%rax), %rcx
 4529 1e07 488D8590 		leaq	-2160(%rbp), %rax
 4529      F7FFFF
 4530 1e0e BA800000 		movl	$128, %edx
 4530      00
 4531 1e13 4889CE   		movq	%rcx, %rsi
 4532 1e16 4889C7   		movq	%rax, %rdi
 4533 1e19 E8000000 		call	_ZN8UnitTest11TestDetailsC1ERKS0_i
 4533      00
 4534              	.LEHE99:
 4535              		.loc 6 128 0 discriminator 2
 4536 1e1e C7856CF7 		movl	$1, -2196(%rbp)
 4536      FFFF0100 
 4536      0000
 4537              	.LEHB100:
 4538 1e28 E8000000 		call	_ZN8UnitTest11CurrentTest7ResultsEv
 4538      00
 4539 1e2d 488B00   		movq	(%rax), %rax
 4540 1e30 488D8D90 		leaq	-2160(%rbp), %rcx
 4540      F7FFFF
 4541 1e37 488D9568 		leaq	-2200(%rbp), %rdx
 4541      F7FFFF
 4542 1e3e 488DB56C 		leaq	-2196(%rbp), %rsi
 4542      F7FFFF
 4543 1e45 4889C7   		movq	%rax, %rdi
 4544 1e48 E8000000 		call	_ZN8UnitTest10CheckEqualIiiEEvRNS_11TestResultsERKT_RKT0_RKNS_11TestDetailsE
 4544      00
 4545              	.LEHE100:
 4546              	.L230:
 129:TestTestMacros.cpp **** 	CHECK(strstr(reporter.lastFailedMessage, "while constructing fixture"));
 4547              		.loc 6 129 0 is_stmt 1
 4548 1e4d 488D85B0 		leaq	-2128(%rbp), %rax
 4548      F7FFFF
 4549 1e54 48051405 		addq	$1300, %rax
 4549      0000
 4550 1e5a BE000000 		movl	$.LC48, %esi
 4550      00
 4551 1e5f 4889C7   		movq	%rax, %rdi
 4552 1e62 E8000000 		call	strstr
 4552      00
 4553 1e67 4889C7   		movq	%rax, %rdi
 4554 1e6a E8000000 		call	_ZN8UnitTest5CheckIPcEEbT_
 4554      00
 4555 1e6f 83F001   		xorl	$1, %eax
 4556 1e72 84C0     		testb	%al, %al
 4557 1e74 743E     		je	.L223
 4558              	.LEHB101:
 4559              		.loc 6 129 0 is_stmt 0 discriminator 1
 4560 1e76 E8000000 		call	_ZN8UnitTest11CurrentTest7DetailsEv
 4560      00
 4561 1e7b 488B08   		movq	(%rax), %rcx
 4562 1e7e 488D8590 		leaq	-2160(%rbp), %rax
 4562      F7FFFF
 4563 1e85 BA810000 		movl	$129, %edx
 4563      00
 4564 1e8a 4889CE   		movq	%rcx, %rsi
 4565 1e8d 4889C7   		movq	%rax, %rdi
 4566 1e90 E8000000 		call	_ZN8UnitTest11TestDetailsC1ERKS0_i
 4566      00
 4567              		.loc 6 129 0 discriminator 3
 4568 1e95 E8000000 		call	_ZN8UnitTest11CurrentTest7ResultsEv
 4568      00
 4569 1e9a 488B00   		movq	(%rax), %rax
 4570 1e9d 488D8D90 		leaq	-2160(%rbp), %rcx
 4570      F7FFFF
 4571 1ea4 BA000000 		movl	$.LC49, %edx
 4571      00
 4572 1ea9 4889CE   		movq	%rcx, %rsi
 4573 1eac 4889C7   		movq	%rax, %rdi
 4574 1eaf E8000000 		call	_ZN8UnitTest11TestResults13OnTestFailureERKNS_11TestDetailsEPKc
 4574      00
 4575              	.LEHE101:
 4576              	.L223:
 120:TestTestMacros.cpp **** 	TestResults result(&reporter);
 4577              		.loc 6 120 0 is_stmt 1
 4578 1eb4 488D85B0 		leaq	-2128(%rbp), %rax
 4578      F7FFFF
 4579 1ebb 4889C7   		movq	%rax, %rdi
 4580              	.LEHB102:
 4581 1ebe E8000000 		call	_ZN17RecordingReporterD1Ev
 4581      00
 4582              	.LEHE102:
 130:TestTestMacros.cpp **** }
 4583              		.loc 6 130 0
 4584 1ec3 90       		nop
 4585 1ec4 488B45E8 		movq	-24(%rbp), %rax
 4586 1ec8 64483304 		xorq	%fs:40, %rax
 4586      25280000 
 4586      00
 4587 1ed1 0F845701 		je	.L234
 4587      0000
 4588 1ed7 E94D0100 		jmp	.L244
 4588      00
 4589              	.L235:
 119:TestTestMacros.cpp **** 	RecordingReporter reporter;
 4590              		.loc 6 119 0
 4591 1edc 4889C7   		movq	%rax, %rdi
 4592 1edf E8000000 		call	__cxa_begin_catch
 4592      00
 4593              	.LEHB103:
 4594 1ee4 E8000000 		call	_ZN8UnitTest11CurrentTest7DetailsEv
 4594      00
 4595 1ee9 488B08   		movq	(%rax), %rcx
 4596 1eec 488D8590 		leaq	-2160(%rbp), %rax
 4596      F7FFFF
 4597 1ef3 BA770000 		movl	$119, %edx
 4597      00
 4598 1ef8 4889CE   		movq	%rcx, %rsi
 4599 1efb 4889C7   		movq	%rax, %rdi
 4600 1efe E8000000 		call	_ZN8UnitTest11TestDetailsC1ERKS0_i
 4600      00
 119:TestTestMacros.cpp **** 	RecordingReporter reporter;
 4601              		.loc 6 119 0 is_stmt 0 discriminator 12
 4602 1f03 E8000000 		call	_ZN8UnitTest11CurrentTest7ResultsEv
 4602      00
 4603 1f08 488B00   		movq	(%rax), %rax
 4604 1f0b 488D8D90 		leaq	-2160(%rbp), %rcx
 4604      F7FFFF
 4605 1f12 BA000000 		movl	$.LC50, %edx
 4605      00
 4606 1f17 4889CE   		movq	%rcx, %rsi
 4607 1f1a 4889C7   		movq	%rax, %rdi
 4608 1f1d E8000000 		call	_ZN8UnitTest11TestResults13OnTestFailureERKNS_11TestDetailsEPKc
 4608      00
 4609              	.LEHE103:
 4610              	.LEHB104:
 119:TestTestMacros.cpp **** 	RecordingReporter reporter;
 4611              		.loc 6 119 0 discriminator 16
 4612 1f22 E8000000 		call	__cxa_end_catch
 4612      00
 4613              	.LEHE104:
 4614 1f27 E957FEFF 		jmp	.L222
 4614      FF
 4615              	.L236:
 4616 1f2c 4889C3   		movq	%rax, %rbx
 119:TestTestMacros.cpp **** 	RecordingReporter reporter;
 4617              		.loc 6 119 0
 4618 1f2f E8000000 		call	__cxa_end_catch
 4618      00
 4619 1f34 4889D8   		movq	%rbx, %rax
 4620 1f37 4889C7   		movq	%rax, %rdi
 4621              	.LEHB105:
 4622 1f3a E8000000 		call	_Unwind_Resume
 4622      00
 4623              	.LEHE105:
 4624              	.L238:
 4625 1f3f 4889C3   		movq	%rax, %rbx
 4626              	.LBB67:
 123:TestTestMacros.cpp **** 		throwingFixtureTestList1.GetHead()->Run();
 4627              		.loc 6 123 0 is_stmt 1
 4628 1f42 488D8590 		leaq	-2160(%rbp), %rax
 4628      F7FFFF
 4629 1f49 4889C7   		movq	%rax, %rdi
 4630 1f4c E8000000 		call	_ZN17ScopedCurrentTestD1Ev
 4630      00
 4631 1f51 E9B90000 		jmp	.L227
 4631      00
 4632              	.L240:
 4633 1f56 EB00     		jmp	.L229
 4634              	.L239:
 4635              	.L229:
 4636              	.LBE67:
 128:TestTestMacros.cpp **** 	CHECK(strstr(reporter.lastFailedMessage, "while constructing fixture"));
 4637              		.loc 6 128 0
 4638 1f58 4889C7   		movq	%rax, %rdi
 4639 1f5b E8000000 		call	__cxa_begin_catch
 4639      00
 4640              	.LEHB106:
 4641 1f60 E8000000 		call	_ZN8UnitTest11CurrentTest7DetailsEv
 4641      00
 4642 1f65 488B08   		movq	(%rax), %rcx
 4643 1f68 488D8590 		leaq	-2160(%rbp), %rax
 4643      F7FFFF
 4644 1f6f BA800000 		movl	$128, %edx
 4644      00
 4645 1f74 4889CE   		movq	%rcx, %rsi
 4646 1f77 4889C7   		movq	%rax, %rdi
 4647 1f7a E8000000 		call	_ZN8UnitTest11TestDetailsC1ERKS0_i
 4647      00
 128:TestTestMacros.cpp **** 	CHECK(strstr(reporter.lastFailedMessage, "while constructing fixture"));
 4648              		.loc 6 128 0 is_stmt 0 discriminator 10
 4649 1f7f E8000000 		call	_ZN8UnitTest11CurrentTest7ResultsEv
 4649      00
 4650 1f84 488B00   		movq	(%rax), %rax
 4651 1f87 488D8D90 		leaq	-2160(%rbp), %rcx
 4651      F7FFFF
 4652 1f8e BA000000 		movl	$.LC51, %edx
 4652      00
 4653 1f93 4889CE   		movq	%rcx, %rsi
 4654 1f96 4889C7   		movq	%rax, %rdi
 4655 1f99 E8000000 		call	_ZN8UnitTest11TestResults13OnTestFailureERKNS_11TestDetailsEPKc
 4655      00
 4656              	.LEHE106:
 4657              	.LEHB107:
 128:TestTestMacros.cpp **** 	CHECK(strstr(reporter.lastFailedMessage, "while constructing fixture"));
 4658              		.loc 6 128 0 discriminator 14
 4659 1f9e E8000000 		call	__cxa_end_catch
 4659      00
 4660              	.LEHE107:
 128:TestTestMacros.cpp **** 	CHECK(strstr(reporter.lastFailedMessage, "while constructing fixture"));
 4661              		.loc 6 128 0
 4662 1fa3 E9A5FEFF 		jmp	.L230
 4662      FF
 4663              	.L241:
 4664 1fa8 4889C3   		movq	%rax, %rbx
 4665 1fab E8000000 		call	__cxa_end_catch
 4665      00
 4666 1fb0 EB5D     		jmp	.L227
 4667              	.L242:
 129:TestTestMacros.cpp **** }
 4668              		.loc 6 129 0 is_stmt 1
 4669 1fb2 4889C7   		movq	%rax, %rdi
 4670 1fb5 E8000000 		call	__cxa_begin_catch
 4670      00
 4671              	.LEHB108:
 4672 1fba E8000000 		call	_ZN8UnitTest11CurrentTest7DetailsEv
 4672      00
 4673 1fbf 488B08   		movq	(%rax), %rcx
 4674 1fc2 488D8590 		leaq	-2160(%rbp), %rax
 4674      F7FFFF
 4675 1fc9 BA810000 		movl	$129, %edx
 4675      00
 4676 1fce 4889CE   		movq	%rcx, %rsi
 4677 1fd1 4889C7   		movq	%rax, %rdi
 4678 1fd4 E8000000 		call	_ZN8UnitTest11TestDetailsC1ERKS0_i
 4678      00
 129:TestTestMacros.cpp **** }
 4679              		.loc 6 129 0 is_stmt 0 discriminator 11
 4680 1fd9 E8000000 		call	_ZN8UnitTest11CurrentTest7ResultsEv
 4680      00
 4681 1fde 488B00   		movq	(%rax), %rax
 4682 1fe1 488D8D90 		leaq	-2160(%rbp), %rcx
 4682      F7FFFF
 4683 1fe8 BA000000 		movl	$.LC52, %edx
 4683      00
 4684 1fed 4889CE   		movq	%rcx, %rsi
 4685 1ff0 4889C7   		movq	%rax, %rdi
 4686 1ff3 E8000000 		call	_ZN8UnitTest11TestResults13OnTestFailureERKNS_11TestDetailsEPKc
 4686      00
 4687              	.LEHE108:
 4688              	.LEHB109:
 129:TestTestMacros.cpp **** }
 4689              		.loc 6 129 0 discriminator 15
 4690 1ff8 E8000000 		call	__cxa_end_catch
 4690      00
 4691              	.LEHE109:
 129:TestTestMacros.cpp **** }
 4692              		.loc 6 129 0
 4693 1ffd E9B2FEFF 		jmp	.L223
 4693      FF
 4694              	.L243:
 4695 2002 4889C3   		movq	%rax, %rbx
 4696 2005 E8000000 		call	__cxa_end_catch
 4696      00
 4697 200a EB03     		jmp	.L227
 4698              	.L237:
 4699 200c 4889C3   		movq	%rax, %rbx
 4700              	.L227:
 120:TestTestMacros.cpp **** 	TestResults result(&reporter);
 4701              		.loc 6 120 0 is_stmt 1
 4702 200f 488D85B0 		leaq	-2128(%rbp), %rax
 4702      F7FFFF
 4703 2016 4889C7   		movq	%rax, %rdi
 4704 2019 E8000000 		call	_ZN17RecordingReporterD1Ev
 4704      00
 4705 201e 4889D8   		movq	%rbx, %rax
 4706 2021 4889C7   		movq	%rax, %rdi
 4707              	.LEHB110:
 4708 2024 E8000000 		call	_Unwind_Resume
 4708      00
 4709              	.LEHE110:
 4710              	.L244:
 4711              		.loc 6 130 0
 4712 2029 E8000000 		call	__stack_chk_fail
 4712      00
 4713              	.L234:
 4714 202e 4881C4A8 		addq	$2216, %rsp
 4714      080000
 4715 2035 5B       		popq	%rbx
 4716 2036 5D       		popq	%rbp
 4717              		.cfi_def_cfa 7, 8
 4718 2037 C3       		ret
 4719              		.cfi_endproc
 4720              	.LFE1174:
 4721              		.section	.gcc_except_table
 4722              		.align 4
 4723              	.LLSDA1174:
 4724 0294 FF       		.byte	0xff
 4725 0295 03       		.byte	0x3
 4726 0296 65       		.uleb128 .LLSDATT1174-.LLSDATTD1174
 4727              	.LLSDATTD1174:
 4728 0297 01       		.byte	0x1
 4729 0298 5B       		.uleb128 .LLSDACSE1174-.LLSDACSB1174
 4730              	.LLSDACSB1174:
 4731 0299 27       		.uleb128 .LEHB95-.LFB1174
 4732 029a 5A       		.uleb128 .LEHE95-.LEHB95
 4733 029b DA03     		.uleb128 .L235-.LFB1174
 4734 029d 01       		.uleb128 0x1
 4735 029e A401     		.uleb128 .LEHB96-.LFB1174
 4736 02a0 23       		.uleb128 .LEHE96-.LEHB96
 4737 02a1 8A06     		.uleb128 .L237-.LFB1174
 4738 02a3 00       		.uleb128 0
 4739 02a4 CC01     		.uleb128 .LEHB97-.LFB1174
 4740 02a6 0D       		.uleb128 .LEHE97-.LEHB97
 4741 02a7 BD04     		.uleb128 .L238-.LFB1174
 4742 02a9 00       		.uleb128 0
 4743 02aa E301     		.uleb128 .LEHB98-.LFB1174
 4744 02ac 14       		.uleb128 .LEHE98-.LEHB98
 4745 02ad 8A06     		.uleb128 .L237-.LFB1174
 4746 02af 00       		.uleb128 0
 4747 02b0 FD01     		.uleb128 .LEHB99-.LFB1174
 4748 02b2 1F       		.uleb128 .LEHE99-.LEHB99
 4749 02b3 D604     		.uleb128 .L239-.LFB1174
 4750 02b5 01       		.uleb128 0x1
 4751 02b6 A602     		.uleb128 .LEHB100-.LFB1174
 4752 02b8 25       		.uleb128 .LEHE100-.LEHB100
 4753 02b9 D404     		.uleb128 .L240-.LFB1174
 4754 02bb 01       		.uleb128 0x1
 4755 02bc F402     		.uleb128 .LEHB101-.LFB1174
 4756 02be 3E       		.uleb128 .LEHE101-.LEHB101
 4757 02bf B005     		.uleb128 .L242-.LFB1174
 4758 02c1 01       		.uleb128 0x1
 4759 02c2 BC03     		.uleb128 .LEHB102-.LFB1174
 4760 02c4 05       		.uleb128 .LEHE102-.LEHB102
 4761 02c5 00       		.uleb128 0
 4762 02c6 00       		.uleb128 0
 4763 02c7 E203     		.uleb128 .LEHB103-.LFB1174
 4764 02c9 3E       		.uleb128 .LEHE103-.LEHB103
 4765 02ca AA04     		.uleb128 .L236-.LFB1174
 4766 02cc 00       		.uleb128 0
 4767 02cd A004     		.uleb128 .LEHB104-.LFB1174
 4768 02cf 05       		.uleb128 .LEHE104-.LEHB104
 4769 02d0 00       		.uleb128 0
 4770 02d1 00       		.uleb128 0
 4771 02d2 B804     		.uleb128 .LEHB105-.LFB1174
 4772 02d4 05       		.uleb128 .LEHE105-.LEHB105
 4773 02d5 00       		.uleb128 0
 4774 02d6 00       		.uleb128 0
 4775 02d7 DE04     		.uleb128 .LEHB106-.LFB1174
 4776 02d9 3E       		.uleb128 .LEHE106-.LEHB106
 4777 02da A605     		.uleb128 .L241-.LFB1174
 4778 02dc 00       		.uleb128 0
 4779 02dd 9C05     		.uleb128 .LEHB107-.LFB1174
 4780 02df 05       		.uleb128 .LEHE107-.LEHB107
 4781 02e0 8A06     		.uleb128 .L237-.LFB1174
 4782 02e2 00       		.uleb128 0
 4783 02e3 B805     		.uleb128 .LEHB108-.LFB1174
 4784 02e5 3E       		.uleb128 .LEHE108-.LEHB108
 4785 02e6 8006     		.uleb128 .L243-.LFB1174
 4786 02e8 00       		.uleb128 0
 4787 02e9 F605     		.uleb128 .LEHB109-.LFB1174
 4788 02eb 05       		.uleb128 .LEHE109-.LEHB109
 4789 02ec 8A06     		.uleb128 .L237-.LFB1174
 4790 02ee 00       		.uleb128 0
 4791 02ef A206     		.uleb128 .LEHB110-.LFB1174
 4792 02f1 05       		.uleb128 .LEHE110-.LEHB110
 4793 02f2 00       		.uleb128 0
 4794 02f3 00       		.uleb128 0
 4795              	.LLSDACSE1174:
 4796 02f4 01       		.byte	0x1
 4797 02f5 00       		.byte	0
 4798 02f6 0000     		.align 4
 4799 02f8 00000000 		.long	0
 4800              	
 4801              	.LLSDATT1174:
 4802              		.text
 4804              		.align 2
 4806              	_ZN12_GLOBAL__N_117FixtureDtorThrowsD2Ev:
 4807              	.LFB1176:
 131:TestTestMacros.cpp **** 
 132:TestTestMacros.cpp **** struct FixtureDtorThrows
 133:TestTestMacros.cpp **** {
 134:TestTestMacros.cpp **** 	~FixtureDtorThrows() { throw "exception"; }
 4808              		.loc 6 134 0
 4809              		.cfi_startproc
 4810 2038 55       		pushq	%rbp
 4811              		.cfi_def_cfa_offset 16
 4812              		.cfi_offset 6, -16
 4813 2039 4889E5   		movq	%rsp, %rbp
 4814              		.cfi_def_cfa_register 6
 4815 203c 4883EC10 		subq	$16, %rsp
 4816 2040 48897DF8 		movq	%rdi, -8(%rbp)
 4817              	.LBB68:
 4818              		.loc 6 134 0
 4819 2044 BF080000 		movl	$8, %edi
 4819      00
 4820 2049 E8000000 		call	__cxa_allocate_exception
 4820      00
 4821 204e 48C70000 		movq	$.LC42, (%rax)
 4821      000000
 4822 2055 BA000000 		movl	$0, %edx
 4822      00
 4823 205a BE000000 		movl	$_ZTIPKc, %esi
 4823      00
 4824 205f 4889C7   		movq	%rax, %rdi
 4825 2062 E8000000 		call	__cxa_throw
 4825      00
 4826              	.LBE68:
 4827              		.cfi_endproc
 4828              	.LFE1176:
 4830              		.local	_ZN12_GLOBAL__N_124throwingFixtureTestList2E
 4831              		.comm	_ZN12_GLOBAL__N_124throwingFixtureTestList2E,16,16
 4832 2067 90       		.align 2
 4834              	_ZN12_GLOBAL__N_117FixtureDtorThrowsC2Ev:
 4835              	.LFB1180:
 132:TestTestMacros.cpp **** {
 4836              		.loc 6 132 0
 4837              		.cfi_startproc
 4838 2068 55       		pushq	%rbp
 4839              		.cfi_def_cfa_offset 16
 4840              		.cfi_offset 6, -16
 4841 2069 4889E5   		movq	%rsp, %rbp
 4842              		.cfi_def_cfa_register 6
 4843 206c 48897DF8 		movq	%rdi, -8(%rbp)
 132:TestTestMacros.cpp **** {
 4844              		.loc 6 132 0
 4845 2070 90       		nop
 4846 2071 5D       		popq	%rbp
 4847              		.cfi_def_cfa 7, 8
 4848 2072 C3       		ret
 4849              		.cfi_endproc
 4850              	.LFE1180:
 4852 2073 90       		.align 2
 4854              	_ZN12_GLOBAL__N_148FixtureDtorThrowsFixtureDtorThrowsTestNameHelperC2ERKN8UnitTest11TestDetailsE:
 4855              	.LFB1182:
 135:TestTestMacros.cpp **** };
 136:TestTestMacros.cpp **** 
 137:TestTestMacros.cpp **** TestList throwingFixtureTestList2;
 138:TestTestMacros.cpp **** TEST_FIXTURE_EX(FixtureDtorThrows, FixtureDtorThrowsTestName, throwingFixtureTestList2)
 4856              		.loc 6 138 0
 4857              		.cfi_startproc
 4858 2074 55       		pushq	%rbp
 4859              		.cfi_def_cfa_offset 16
 4860              		.cfi_offset 6, -16
 4861 2075 4889E5   		movq	%rsp, %rbp
 4862              		.cfi_def_cfa_register 6
 4863 2078 4883EC10 		subq	$16, %rsp
 4864 207c 48897DF8 		movq	%rdi, -8(%rbp)
 4865 2080 488975F0 		movq	%rsi, -16(%rbp)
 4866              	.LBB69:
 4867              		.loc 6 138 0
 4868 2084 488B45F8 		movq	-8(%rbp), %rax
 4869 2088 4889C7   		movq	%rax, %rdi
 4870 208b E8D8FFFF 		call	_ZN12_GLOBAL__N_117FixtureDtorThrowsC2Ev
 4870      FF
 4871 2090 488B45F8 		movq	-8(%rbp), %rax
 4872 2094 488B55F0 		movq	-16(%rbp), %rdx
 4873 2098 488910   		movq	%rdx, (%rax)
 4874              	.LBE69:
 4875 209b 90       		nop
 4876 209c C9       		leave
 4877              		.cfi_def_cfa 7, 8
 4878 209d C3       		ret
 4879              		.cfi_endproc
 4880              	.LFE1182:
 4882              		.set	_ZN12_GLOBAL__N_148FixtureDtorThrowsFixtureDtorThrowsTestNameHelperC1ERKN8UnitTest11TestDetai
 4883              		.section	.rodata
 4884              	.LC53:
 4885 09bf 46697874 		.string	"FixtureDtorThrowsTestName"
 4885      75726544 
 4885      746F7254 
 4885      68726F77 
 4885      73546573 
 4886              		.text
 4887              		.align 2
 4889              	_ZN12_GLOBAL__N_146TestFixtureDtorThrowsFixtureDtorThrowsTestNameC2Ev:
 4890              	.LFB1185:
 4891              		.loc 6 138 0
 4892              		.cfi_startproc
 4893 209e 55       		pushq	%rbp
 4894              		.cfi_def_cfa_offset 16
 4895              		.cfi_offset 6, -16
 4896 209f 4889E5   		movq	%rsp, %rbp
 4897              		.cfi_def_cfa_register 6
 4898 20a2 4883EC10 		subq	$16, %rsp
 4899 20a6 48897DF8 		movq	%rdi, -8(%rbp)
 4900              	.LBB70:
 4901              		.loc 6 138 0
 4902 20aa E8000000 		call	_ZN13UnitTestSuite12GetSuiteNameEv
 4902      00
 4903 20af 4889C2   		movq	%rax, %rdx
 4904 20b2 488B45F8 		movq	-8(%rbp), %rax
 4905 20b6 41B88A00 		movl	$138, %r8d
 4905      0000
 4906 20bc B9000000 		movl	$.LC2, %ecx
 4906      00
 4907 20c1 BE000000 		movl	$.LC53, %esi
 4907      00
 4908 20c6 4889C7   		movq	%rax, %rdi
 4909 20c9 E8000000 		call	_ZN8UnitTest4TestC2EPKcS2_S2_i
 4909      00
 4910 20ce BA000000 		movl	$_ZTVN12_GLOBAL__N_146TestFixtureDtorThrowsFixtureDtorThrowsTestNameE+16, %edx
 4910      00
 4911 20d3 488B45F8 		movq	-8(%rbp), %rax
 4912 20d7 488910   		movq	%rdx, (%rax)
 4913              	.LBE70:
 4914 20da 90       		nop
 4915 20db C9       		leave
 4916              		.cfi_def_cfa 7, 8
 4917 20dc C3       		ret
 4918              		.cfi_endproc
 4919              	.LFE1185:
 4921              		.set	_ZN12_GLOBAL__N_146TestFixtureDtorThrowsFixtureDtorThrowsTestNameC1Ev,_ZN12_GLOBAL__N_146Test
 4922              		.local	_ZN12_GLOBAL__N_154testFixtureDtorThrowsFixtureDtorThrowsTestNameInstanceE
 4923              		.comm	_ZN12_GLOBAL__N_154testFixtureDtorThrowsFixtureDtorThrowsTestNameInstanceE,56,32
 4924              		.local	_ZN12_GLOBAL__N_147adderFixtureDtorThrowsFixtureDtorThrowsTestNameE
 4925              		.comm	_ZN12_GLOBAL__N_147adderFixtureDtorThrowsFixtureDtorThrowsTestNameE,1,1
 4926 20dd 90       		.align 2
 4928              	_ZN12_GLOBAL__N_148FixtureDtorThrowsFixtureDtorThrowsTestNameHelperD2Ev:
 4929              	.LFB1189:
 4930              		.loc 6 138 0
 4931              		.cfi_startproc
 4932 20de 55       		pushq	%rbp
 4933              		.cfi_def_cfa_offset 16
 4934              		.cfi_offset 6, -16
 4935 20df 4889E5   		movq	%rsp, %rbp
 4936              		.cfi_def_cfa_register 6
 4937 20e2 4883EC10 		subq	$16, %rsp
 4938 20e6 48897DF8 		movq	%rdi, -8(%rbp)
 4939              	.LBB71:
 4940              		.loc 6 138 0
 4941 20ea 488B45F8 		movq	-8(%rbp), %rax
 4942 20ee 4889C7   		movq	%rax, %rdi
 4943 20f1 E842FFFF 		call	_ZN12_GLOBAL__N_117FixtureDtorThrowsD2Ev
 4943      FF
 4944              	.LBE71:
 4945 20f6 90       		nop
 4946 20f7 C9       		leave
 4947              		.cfi_def_cfa 7, 8
 4948 20f8 C3       		ret
 4949              		.cfi_endproc
 4950              	.LFE1189:
 4952              		.set	_ZN12_GLOBAL__N_148FixtureDtorThrowsFixtureDtorThrowsTestNameHelperD1Ev,_ZN12_GLOBAL__N_148Fi
 4953              		.section	.rodata
 4954 09d9 00000000 		.align 8
 4954      000000
 4955              	.LC54:
 4956 09e0 556E6861 		.string	"Unhandled exception while destroying fixture FixtureDtorThrows"
 4956      6E646C65 
 4956      64206578 
 4956      63657074 
 4956      696F6E20 
 4957 0a1f 00       		.align 8
 4958              	.LC55:
 4959 0a20 556E6861 		.string	"Unhandled exception while constructing fixture FixtureDtorThrows"
 4959      6E646C65 
 4959      64206578 
 4959      63657074 
 4959      696F6E20 
 4960              		.text
 4961 20f9 90       		.align 2
 4963              	_ZNK12_GLOBAL__N_146TestFixtureDtorThrowsFixtureDtorThrowsTestName7RunImplEv:
 4964              	.LFB1187:
 4965              		.loc 6 138 0
 4966              		.cfi_startproc
 4967              		.cfi_personality 0x3,__gxx_personality_v0
 4968              		.cfi_lsda 0x3,.LLSDA1187
 4969 20fa 55       		pushq	%rbp
 4970              		.cfi_def_cfa_offset 16
 4971              		.cfi_offset 6, -16
 4972 20fb 4889E5   		movq	%rsp, %rbp
 4973              		.cfi_def_cfa_register 6
 4974 20fe 4154     		pushq	%r12
 4975 2100 53       		pushq	%rbx
 4976 2101 4881ECF0 		subq	$496, %rsp
 4976      010000
 4977              		.cfi_offset 12, -24
 4978              		.cfi_offset 3, -32
 4979 2108 4889BD08 		movq	%rdi, -504(%rbp)
 4979      FEFFFF
 4980              		.loc 6 138 0
 4981 210f 64488B04 		movq	%fs:40, %rax
 4981      25280000 
 4981      00
 4982 2118 488945E8 		movq	%rax, -24(%rbp)
 4983 211c 31C0     		xorl	%eax, %eax
 4984 211e C6851FFE 		movb	$0, -481(%rbp)
 4984      FFFF00
 4985              	.LBB72:
 4986 2125 488B8508 		movq	-504(%rbp), %rax
 4986      FEFFFF
 4987 212c 488D5008 		leaq	8(%rax), %rdx
 4988 2130 488D8530 		leaq	-464(%rbp), %rax
 4988      FEFFFF
 4989 2137 4889D6   		movq	%rdx, %rsi
 4990 213a 4889C7   		movq	%rax, %rdi
 4991 213d E832FFFF 		call	_ZN12_GLOBAL__N_148FixtureDtorThrowsFixtureDtorThrowsTestNameHelperC1ERKN8UnitTest11TestDetai
 4991      FF
 4992 2142 C6851FFE 		movb	$1, -481(%rbp)
 4992      FFFF01
 4993 2149 488B8508 		movq	-504(%rbp), %rax
 4993      FEFFFF
 4994 2150 488D5008 		leaq	8(%rax), %rdx
 4995 2154 488D8530 		leaq	-464(%rbp), %rax
 4995      FEFFFF
 4996 215b 4889D6   		movq	%rdx, %rsi
 4997 215e 4889C7   		movq	%rax, %rdi
 4998              	.LEHB111:
 4999 2161 E8991B00 		call	_ZN8UnitTest11ExecuteTestIN12_GLOBAL__N_148FixtureDtorThrowsFixtureDtorThrowsTestNameHelperEE
 4999      00
 5000              	.LEHE111:
 5001              		.loc 6 138 0 is_stmt 0 discriminator 3
 5002 2166 488D8530 		leaq	-464(%rbp), %rax
 5002      FEFFFF
 5003 216d 4889C7   		movq	%rax, %rdi
 5004              	.LEHB112:
 5005 2170 E869FFFF 		call	_ZN12_GLOBAL__N_148FixtureDtorThrowsFixtureDtorThrowsTestNameHelperD1Ev
 5005      FF
 5006              	.LEHE112:
 5007              	.LBE72:
 5008              		.loc 6 138 0
 5009 2175 E9660200 		jmp	.L250
 5009      00
 5010              	.L265:
 5011 217a 4989C4   		movq	%rax, %r12
 5012 217d 4889D3   		movq	%rdx, %rbx
 5013              	.LBB73:
 5014 2180 488D8530 		leaq	-464(%rbp), %rax
 5014      FEFFFF
 5015 2187 4889C7   		movq	%rax, %rdi
 5016 218a E84FFFFF 		call	_ZN12_GLOBAL__N_148FixtureDtorThrowsFixtureDtorThrowsTestNameHelperD1Ev
 5016      FF
 5017 218f 4C89E0   		movq	%r12, %rax
 5018 2192 4889DA   		movq	%rbx, %rdx
 5019 2195 EB00     		jmp	.L252
 5020              	.L264:
 5021              	.L252:
 5022 2197 4883FA01 		cmpq	$1, %rdx
 5023 219b 740F     		je	.L254
 5024 219d 4883FA02 		cmpq	$2, %rdx
 5025 21a1 0F84A700 		je	.L255
 5025      0000
 5026 21a7 E94B0100 		jmp	.L270
 5026      00
 5027              	.L254:
 5028              	.LBE73:
 5029              	.LBB74:
 5030 21ac 4889C7   		movq	%rax, %rdi
 5031 21af E8000000 		call	__cxa_begin_catch
 5031      00
 5032 21b4 48898520 		movq	%rax, -480(%rbp)
 5032      FEFFFF
 5033 21bb 488B8520 		movq	-480(%rbp), %rax
 5033      FEFFFF
 5034 21c2 488B00   		movq	(%rax), %rax
 5035 21c5 4883C010 		addq	$16, %rax
 5036 21c9 488B00   		movq	(%rax), %rax
 5037 21cc 488B9520 		movq	-480(%rbp), %rdx
 5037      FEFFFF
 5038 21d3 4889D7   		movq	%rdx, %rdi
 5039 21d6 FFD0     		call	*%rax
 5040 21d8 4889C3   		movq	%rax, %rbx
 5041 21db 488B8520 		movq	-480(%rbp), %rax
 5041      FEFFFF
 5042 21e2 4889C7   		movq	%rax, %rdi
 5043              	.LEHB113:
 5044 21e5 E8000000 		call	_ZNK8UnitTest15AssertException10LineNumberEv
 5044      00
 5045 21ea 4189C4   		movl	%eax, %r12d
 5046 21ed 488B8520 		movq	-480(%rbp), %rax
 5046      FEFFFF
 5047 21f4 4889C7   		movq	%rax, %rdi
 5048 21f7 E8000000 		call	_ZNK8UnitTest15AssertException8FilenameEv
 5048      00
 5049              		.loc 6 138 0 discriminator 5
 5050 21fc 4889C1   		movq	%rax, %rcx
 5051 21ff 488B8508 		movq	-504(%rbp), %rax
 5051      FEFFFF
 5052 2206 488B5008 		movq	8(%rax), %rdx
 5053 220a 488B8508 		movq	-504(%rbp), %rax
 5053      FEFFFF
 5054 2211 488B7010 		movq	16(%rax), %rsi
 5055 2215 488D8530 		leaq	-464(%rbp), %rax
 5055      FEFFFF
 5056 221c 4589E0   		movl	%r12d, %r8d
 5057 221f 4889C7   		movq	%rax, %rdi
 5058 2222 E8000000 		call	_ZN8UnitTest11TestDetailsC1EPKcS2_S2_i
 5058      00
 5059              		.loc 6 138 0 discriminator 9
 5060 2227 E8000000 		call	_ZN8UnitTest11CurrentTest7ResultsEv
 5060      00
 5061 222c 488B00   		movq	(%rax), %rax
 5062 222f 488D8D30 		leaq	-464(%rbp), %rcx
 5062      FEFFFF
 5063 2236 4889DA   		movq	%rbx, %rdx
 5064 2239 4889CE   		movq	%rcx, %rsi
 5065 223c 4889C7   		movq	%rax, %rdi
 5066 223f E8000000 		call	_ZN8UnitTest11TestResults13OnTestFailureERKNS_11TestDetailsEPKc
 5066      00
 5067              	.LEHE113:
 5068              		.loc 6 138 0 discriminator 13
 5069 2244 E8000000 		call	__cxa_end_catch
 5069      00
 5070              	.LBE74:
 5071 2249 E9920100 		jmp	.L250
 5071      00
 5072              	.L255:
 5073              	.LBB75:
 5074              		.loc 6 138 0
 5075 224e 4889C7   		movq	%rax, %rdi
 5076 2251 E8000000 		call	__cxa_begin_catch
 5076      00
 5077 2256 48898528 		movq	%rax, -472(%rbp)
 5077      FEFFFF
 5078              	.LBB76:
 5079 225d 488D8550 		leaq	-432(%rbp), %rax
 5079      FEFFFF
 5080 2264 4889C7   		movq	%rax, %rdi
 5081              	.LEHB114:
 5082 2267 E8000000 		call	_ZN8UnitTest15MemoryOutStreamC1Ev
 5082      00
 5083              	.LEHE114:
 5084              		.loc 6 138 0 discriminator 15
 5085 226c 488B8528 		movq	-472(%rbp), %rax
 5085      FEFFFF
 5086 2273 488B00   		movq	(%rax), %rax
 5087 2276 4883C010 		addq	$16, %rax
 5088 227a 488B00   		movq	(%rax), %rax
 5089 227d 488B9528 		movq	-472(%rbp), %rdx
 5089      FEFFFF
 5090 2284 4889D7   		movq	%rdx, %rdi
 5091 2287 FFD0     		call	*%rax
 5092 2289 4889C3   		movq	%rax, %rbx
 5093 228c 488D8550 		leaq	-432(%rbp), %rax
 5093      FEFFFF
 5094 2293 BE000000 		movl	$.LC11, %esi
 5094      00
 5095 2298 4889C7   		movq	%rax, %rdi
 5096              	.LEHB115:
 5097 229b E8000000 		call	_ZStlsISt11char_traitsIcEERSt13basic_ostreamIcT_ES5_PKc
 5097      00
 5098 22a0 4889DE   		movq	%rbx, %rsi
 5099 22a3 4889C7   		movq	%rax, %rdi
 5100 22a6 E8000000 		call	_ZStlsISt11char_traitsIcEERSt13basic_ostreamIcT_ES5_PKc
 5100      00
 5101              		.loc 6 138 0 discriminator 19
 5102 22ab 488D8550 		leaq	-432(%rbp), %rax
 5102      FEFFFF
 5103 22b2 4889C7   		movq	%rax, %rdi
 5104 22b5 E8000000 		call	_ZNK8UnitTest15MemoryOutStream7GetTextEv
 5104      00
 5105 22ba 4989C4   		movq	%rax, %r12
 5106 22bd 488B8508 		movq	-504(%rbp), %rax
 5106      FEFFFF
 5107 22c4 488D5808 		leaq	8(%rax), %rbx
 5108 22c8 E8000000 		call	_ZN8UnitTest11CurrentTest7ResultsEv
 5108      00
 5109              		.loc 6 138 0 discriminator 21
 5110 22cd 488B00   		movq	(%rax), %rax
 5111 22d0 4C89E2   		movq	%r12, %rdx
 5112 22d3 4889DE   		movq	%rbx, %rsi
 5113 22d6 4889C7   		movq	%rax, %rdi
 5114 22d9 E8000000 		call	_ZN8UnitTest11TestResults13OnTestFailureERKNS_11TestDetailsEPKc
 5114      00
 5115              	.LEHE115:
 5116              		.loc 6 138 0 discriminator 25
 5117 22de 488D8550 		leaq	-432(%rbp), %rax
 5117      FEFFFF
 5118 22e5 4889C7   		movq	%rax, %rdi
 5119              	.LEHB116:
 5120 22e8 E8000000 		call	_ZN8UnitTest15MemoryOutStreamD1Ev
 5120      00
 5121              	.LEHE116:
 5122              	.LBE76:
 5123              		.loc 6 138 0 discriminator 26
 5124 22ed E8000000 		call	__cxa_end_catch
 5124      00
 5125              	.LBE75:
 5126 22f2 E9E90000 		jmp	.L250
 5126      00
 5127              	.L270:
 5128              		.loc 6 138 0
 5129 22f7 4889C7   		movq	%rax, %rdi
 5130 22fa E8000000 		call	__cxa_begin_catch
 5130      00
 5131 22ff 80BD1FFE 		cmpb	$0, -481(%rbp)
 5131      FFFF00
 5132 2306 7443     		je	.L257
 5133              		.loc 6 138 0 discriminator 28
 5134 2308 488B8508 		movq	-504(%rbp), %rax
 5134      FEFFFF
 5135 230f 488D4808 		leaq	8(%rax), %rcx
 5136 2313 488D8530 		leaq	-464(%rbp), %rax
 5136      FEFFFF
 5137 231a BA8A0000 		movl	$138, %edx
 5137      00
 5138 231f 4889CE   		movq	%rcx, %rsi
 5139 2322 4889C7   		movq	%rax, %rdi
 5140              	.LEHB117:
 5141 2325 E8000000 		call	_ZN8UnitTest11TestDetailsC1ERKS0_i
 5141      00
 5142              		.loc 6 138 0 discriminator 31
 5143 232a E8000000 		call	_ZN8UnitTest11CurrentTest7ResultsEv
 5143      00
 5144 232f 488B00   		movq	(%rax), %rax
 5145 2332 488D8D30 		leaq	-464(%rbp), %rcx
 5145      FEFFFF
 5146 2339 BA000000 		movl	$.LC54, %edx
 5146      00
 5147 233e 4889CE   		movq	%rcx, %rsi
 5148 2341 4889C7   		movq	%rax, %rdi
 5149 2344 E8000000 		call	_ZN8UnitTest11TestResults13OnTestFailureERKNS_11TestDetailsEPKc
 5149      00
 5150 2349 EB41     		jmp	.L258
 5151              	.L257:
 5152              		.loc 6 138 0 discriminator 29
 5153 234b 488B8508 		movq	-504(%rbp), %rax
 5153      FEFFFF
 5154 2352 488D4808 		leaq	8(%rax), %rcx
 5155 2356 488D8530 		leaq	-464(%rbp), %rax
 5155      FEFFFF
 5156 235d BA8A0000 		movl	$138, %edx
 5156      00
 5157 2362 4889CE   		movq	%rcx, %rsi
 5158 2365 4889C7   		movq	%rax, %rdi
 5159 2368 E8000000 		call	_ZN8UnitTest11TestDetailsC1ERKS0_i
 5159      00
 5160              		.loc 6 138 0 discriminator 38
 5161 236d E8000000 		call	_ZN8UnitTest11CurrentTest7ResultsEv
 5161      00
 5162 2372 488B00   		movq	(%rax), %rax
 5163 2375 488D8D30 		leaq	-464(%rbp), %rcx
 5163      FEFFFF
 5164 237c BA000000 		movl	$.LC55, %edx
 5164      00
 5165 2381 4889CE   		movq	%rcx, %rsi
 5166 2384 4889C7   		movq	%rax, %rdi
 5167 2387 E8000000 		call	_ZN8UnitTest11TestResults13OnTestFailureERKNS_11TestDetailsEPKc
 5167      00
 5168              	.LEHE117:
 5169              	.L258:
 5170              	.LEHB118:
 5171              		.loc 6 138 0 discriminator 43
 5172 238c E8000000 		call	__cxa_end_catch
 5172      00
 5173 2391 EB4D     		jmp	.L250
 5174              	.L266:
 5175 2393 4889C3   		movq	%rax, %rbx
 5176              	.LBB78:
 5177              		.loc 6 138 0
 5178 2396 E8000000 		call	__cxa_end_catch
 5178      00
 5179 239b 4889D8   		movq	%rbx, %rax
 5180 239e 4889C7   		movq	%rax, %rdi
 5181 23a1 E8000000 		call	_Unwind_Resume
 5181      00
 5182              	.LEHE118:
 5183              	.L268:
 5184 23a6 4889C3   		movq	%rax, %rbx
 5185              	.LBE78:
 5186              	.LBB79:
 5187              	.LBB77:
 5188 23a9 488D8550 		leaq	-432(%rbp), %rax
 5188      FEFFFF
 5189 23b0 4889C7   		movq	%rax, %rdi
 5190 23b3 E8000000 		call	_ZN8UnitTest15MemoryOutStreamD1Ev
 5190      00
 5191 23b8 EB03     		jmp	.L261
 5192              	.L267:
 5193 23ba 4889C3   		movq	%rax, %rbx
 5194              	.L261:
 5195              	.LBE77:
 5196 23bd E8000000 		call	__cxa_end_catch
 5196      00
 5197 23c2 4889D8   		movq	%rbx, %rax
 5198 23c5 4889C7   		movq	%rax, %rdi
 5199              	.LEHB119:
 5200 23c8 E8000000 		call	_Unwind_Resume
 5200      00
 5201              	.LEHE119:
 5202              	.L269:
 5203 23cd 4889C3   		movq	%rax, %rbx
 5204              	.LBE79:
 5205 23d0 E8000000 		call	__cxa_end_catch
 5205      00
 5206 23d5 4889D8   		movq	%rbx, %rax
 5207 23d8 4889C7   		movq	%rax, %rdi
 5208              	.LEHB120:
 5209 23db E8000000 		call	_Unwind_Resume
 5209      00
 5210              	.LEHE120:
 5211              	.L250:
 5212 23e0 488B45E8 		movq	-24(%rbp), %rax
 5213 23e4 64483304 		xorq	%fs:40, %rax
 5213      25280000 
 5213      00
 5214 23ed 7405     		je	.L263
 5215 23ef E8000000 		call	__stack_chk_fail
 5215      00
 5216              	.L263:
 5217 23f4 4881C4F0 		addq	$496, %rsp
 5217      010000
 5218 23fb 5B       		popq	%rbx
 5219 23fc 415C     		popq	%r12
 5220 23fe 5D       		popq	%rbp
 5221              		.cfi_def_cfa 7, 8
 5222 23ff C3       		ret
 5223              		.cfi_endproc
 5224              	.LFE1187:
 5225              		.section	.gcc_except_table
 5226              		.align 4
 5227              	.LLSDA1187:
 5228 02fc FF       		.byte	0xff
 5229 02fd 03       		.byte	0x3
 5230 02fe 4D       		.uleb128 .LLSDATT1187-.LLSDATTD1187
 5231              	.LLSDATTD1187:
 5232 02ff 01       		.byte	0x1
 5233 0300 37       		.uleb128 .LLSDACSE1187-.LLSDACSB1187
 5234              	.LLSDACSB1187:
 5235 0301 67       		.uleb128 .LEHB111-.LFB1187
 5236 0302 05       		.uleb128 .LEHE111-.LEHB111
 5237 0303 8001     		.uleb128 .L265-.LFB1187
 5238 0305 07       		.uleb128 0x7
 5239 0306 76       		.uleb128 .LEHB112-.LFB1187
 5240 0307 05       		.uleb128 .LEHE112-.LEHB112
 5241 0308 9D01     		.uleb128 .L264-.LFB1187
 5242 030a 05       		.uleb128 0x5
 5243 030b EB01     		.uleb128 .LEHB113-.LFB1187
 5244 030d 5F       		.uleb128 .LEHE113-.LEHB113
 5245 030e 9905     		.uleb128 .L266-.LFB1187
 5246 0310 00       		.uleb128 0
 5247 0311 ED02     		.uleb128 .LEHB114-.LFB1187
 5248 0313 05       		.uleb128 .LEHE114-.LEHB114
 5249 0314 C005     		.uleb128 .L267-.LFB1187
 5250 0316 00       		.uleb128 0
 5251 0317 A103     		.uleb128 .LEHB115-.LFB1187
 5252 0319 43       		.uleb128 .LEHE115-.LEHB115
 5253 031a AC05     		.uleb128 .L268-.LFB1187
 5254 031c 00       		.uleb128 0
 5255 031d EE03     		.uleb128 .LEHB116-.LFB1187
 5256 031f 05       		.uleb128 .LEHE116-.LEHB116
 5257 0320 C005     		.uleb128 .L267-.LFB1187
 5258 0322 00       		.uleb128 0
 5259 0323 AB04     		.uleb128 .LEHB117-.LFB1187
 5260 0325 67       		.uleb128 .LEHE117-.LEHB117
 5261 0326 D305     		.uleb128 .L269-.LFB1187
 5262 0328 00       		.uleb128 0
 5263 0329 9205     		.uleb128 .LEHB118-.LFB1187
 5264 032b 1A       		.uleb128 .LEHE118-.LEHB118
 5265 032c 00       		.uleb128 0
 5266 032d 00       		.uleb128 0
 5267 032e CE05     		.uleb128 .LEHB119-.LFB1187
 5268 0330 05       		.uleb128 .LEHE119-.LEHB119
 5269 0331 00       		.uleb128 0
 5270 0332 00       		.uleb128 0
 5271 0333 E105     		.uleb128 .LEHB120-.LFB1187
 5272 0335 05       		.uleb128 .LEHE120-.LEHB120
 5273 0336 00       		.uleb128 0
 5274 0337 00       		.uleb128 0
 5275              	.LLSDACSE1187:
 5276 0338 03       		.byte	0x3
 5277 0339 00       		.byte	0
 5278 033a 02       		.byte	0x2
 5279 033b 7D       		.byte	0x7d
 5280 033c 01       		.byte	0x1
 5281 033d 7D       		.byte	0x7d
 5282 033e 00       		.byte	0
 5283 033f 7D       		.byte	0x7d
 5284              		.align 4
 5285 0340 00000000 		.long	0
 5286              	
 5287 0344 00000000 		.long	_ZTISt9exception
 5288 0348 00000000 		.long	_ZTIN8UnitTest15AssertExceptionE
 5289              	.LLSDATT1187:
 5290              		.text
 5292              		.align 2
 5294              	_ZN12_GLOBAL__N_148FixtureDtorThrowsFixtureDtorThrowsTestNameHelper7RunImplEv:
 5295              	.LFB1191:
 139:TestTestMacros.cpp **** {
 5296              		.loc 6 139 0 is_stmt 1
 5297              		.cfi_startproc
 5298 2400 55       		pushq	%rbp
 5299              		.cfi_def_cfa_offset 16
 5300              		.cfi_offset 6, -16
 5301 2401 4889E5   		movq	%rsp, %rbp
 5302              		.cfi_def_cfa_register 6
 5303 2404 48897DF8 		movq	%rdi, -8(%rbp)
 140:TestTestMacros.cpp **** }
 5304              		.loc 6 140 0
 5305 2408 90       		nop
 5306 2409 5D       		popq	%rbp
 5307              		.cfi_def_cfa 7, 8
 5308 240a C3       		ret
 5309              		.cfi_endproc
 5310              	.LFE1191:
 5312              		.section	.rodata
 5313 0a61 00000000 		.align 8
 5313      000000
 5314              	.LC56:
 5315 0a68 46697874 		.string	"FixturesWithThrowingDtorsAreFailures"
 5315      75726573 
 5315      57697468 
 5315      5468726F 
 5315      77696E67 
 5316              		.text
 5317 240b 90       		.align 2
 5319              	_ZN12_GLOBAL__N_140TestFixturesWithThrowingDtorsAreFailuresC2Ev:
 5320              	.LFB1193:
 141:TestTestMacros.cpp **** 
 142:TestTestMacros.cpp **** TEST(FixturesWithThrowingDtorsAreFailures)
 5321              		.loc 6 142 0
 5322              		.cfi_startproc
 5323 240c 55       		pushq	%rbp
 5324              		.cfi_def_cfa_offset 16
 5325              		.cfi_offset 6, -16
 5326 240d 4889E5   		movq	%rsp, %rbp
 5327              		.cfi_def_cfa_register 6
 5328 2410 4883EC10 		subq	$16, %rsp
 5329 2414 48897DF8 		movq	%rdi, -8(%rbp)
 5330              	.LBB80:
 5331              		.loc 6 142 0
 5332 2418 E8000000 		call	_ZN13UnitTestSuite12GetSuiteNameEv
 5332      00
 5333 241d 4889C2   		movq	%rax, %rdx
 5334 2420 488B45F8 		movq	-8(%rbp), %rax
 5335 2424 41B88E00 		movl	$142, %r8d
 5335      0000
 5336 242a B9000000 		movl	$.LC2, %ecx
 5336      00
 5337 242f BE000000 		movl	$.LC56, %esi
 5337      00
 5338 2434 4889C7   		movq	%rax, %rdi
 5339 2437 E8000000 		call	_ZN8UnitTest4TestC2EPKcS2_S2_i
 5339      00
 5340 243c BA000000 		movl	$_ZTVN12_GLOBAL__N_140TestFixturesWithThrowingDtorsAreFailuresE+16, %edx
 5340      00
 5341 2441 488B45F8 		movq	-8(%rbp), %rax
 5342 2445 488910   		movq	%rdx, (%rax)
 5343              	.LBE80:
 5344 2448 90       		nop
 5345 2449 C9       		leave
 5346              		.cfi_def_cfa 7, 8
 5347 244a C3       		ret
 5348              		.cfi_endproc
 5349              	.LFE1193:
 5351              		.set	_ZN12_GLOBAL__N_140TestFixturesWithThrowingDtorsAreFailuresC1Ev,_ZN12_GLOBAL__N_140TestFixtur
 5352              		.local	_ZN12_GLOBAL__N_148testFixturesWithThrowingDtorsAreFailuresInstanceE
 5353              		.comm	_ZN12_GLOBAL__N_148testFixturesWithThrowingDtorsAreFailuresInstanceE,56,32
 5354              		.local	_ZN12_GLOBAL__N_141adderFixturesWithThrowingDtorsAreFailuresE
 5355              		.comm	_ZN12_GLOBAL__N_141adderFixturesWithThrowingDtorsAreFailuresE,1,1
 5356              		.section	.rodata
 5357 0a8d 000000   		.align 8
 5358              	.LC57:
 5359 0a90 7468726F 		.string	"throwingFixtureTestList2.GetHead() != NULL"
 5359      77696E67 
 5359      46697874 
 5359      75726554 
 5359      6573744C 
 5360              	.LC58:
 5361 0abb 7768696C 		.string	"while destroying fixture"
 5361      65206465 
 5361      7374726F 
 5361      79696E67 
 5361      20666978 
 5362 0ad4 00000000 		.align 8
 5363              	.LC59:
 5364 0ad8 73747273 		.string	"strstr(reporter.lastFailedMessage, \"while destroying fixture\")"
 5364      74722872 
 5364      65706F72 
 5364      7465722E 
 5364      6C617374 
 5365 0b17 00       		.align 8
 5366              	.LC60:
 5367 0b18 556E6861 		.string	"Unhandled exception in CHECK(throwingFixtureTestList2.GetHead() != NULL)"
 5367      6E646C65 
 5367      64206578 
 5367      63657074 
 5367      696F6E20 
 5368 0b61 00000000 		.align 8
 5368      000000
 5369              	.LC61:
 5370 0b68 556E6861 		.string	"Unhandled exception in CHECK(strstr(reporter.lastFailedMessage, \"while destroying fixtur
 5370      6E646C65 
 5370      64206578 
 5370      63657074 
 5370      696F6E20 
 5371              		.text
 5372 244b 90       		.align 2
 5374              	_ZNK12_GLOBAL__N_140TestFixturesWithThrowingDtorsAreFailures7RunImplEv:
 5375              	.LFB1195:
 143:TestTestMacros.cpp **** {
 5376              		.loc 6 143 0
 5377              		.cfi_startproc
 5378              		.cfi_personality 0x3,__gxx_personality_v0
 5379              		.cfi_lsda 0x3,.LLSDA1195
 5380 244c 55       		pushq	%rbp
 5381              		.cfi_def_cfa_offset 16
 5382              		.cfi_offset 6, -16
 5383 244d 4889E5   		movq	%rsp, %rbp
 5384              		.cfi_def_cfa_register 6
 5385 2450 53       		pushq	%rbx
 5386 2451 4881ECA8 		subq	$2216, %rsp
 5386      080000
 5387              		.cfi_offset 3, -24
 5388 2458 4889BD58 		movq	%rdi, -2216(%rbp)
 5388      F7FFFF
 5389              		.loc 6 143 0
 5390 245f 64488B04 		movq	%fs:40, %rax
 5390      25280000 
 5390      00
 5391 2468 488945E8 		movq	%rax, -24(%rbp)
 5392 246c 31C0     		xorl	%eax, %eax
 144:TestTestMacros.cpp **** 	CHECK(throwingFixtureTestList2.GetHead() != NULL);
 5393              		.loc 6 144 0
 5394 246e BF000000 		movl	$_ZN12_GLOBAL__N_124throwingFixtureTestList2E, %edi
 5394      00
 5395              	.LEHB121:
 5396 2473 E8000000 		call	_ZNK8UnitTest8TestList7GetHeadEv
 5396      00
 5397 2478 4885C0   		testq	%rax, %rax
 5398 247b 0F95C0   		setne	%al
 5399 247e 0FB6C0   		movzbl	%al, %eax
 5400 2481 89C7     		movl	%eax, %edi
 5401 2483 E8000000 		call	_ZN8UnitTest5CheckIbEEbT_
 5401      00
 5402 2488 83F001   		xorl	$1, %eax
 5403 248b 84C0     		testb	%al, %al
 5404 248d 743E     		je	.L274
 5405              		.loc 6 144 0 is_stmt 0 discriminator 2
 5406 248f E8000000 		call	_ZN8UnitTest11CurrentTest7DetailsEv
 5406      00
 5407 2494 488B08   		movq	(%rax), %rcx
 5408 2497 488D8590 		leaq	-2160(%rbp), %rax
 5408      F7FFFF
 5409 249e BA900000 		movl	$144, %edx
 5409      00
 5410 24a3 4889CE   		movq	%rcx, %rsi
 5411 24a6 4889C7   		movq	%rax, %rdi
 5412 24a9 E8000000 		call	_ZN8UnitTest11TestDetailsC1ERKS0_i
 5412      00
 5413              		.loc 6 144 0 discriminator 4
 5414 24ae E8000000 		call	_ZN8UnitTest11CurrentTest7ResultsEv
 5414      00
 5415 24b3 488B00   		movq	(%rax), %rax
 5416 24b6 488D8D90 		leaq	-2160(%rbp), %rcx
 5416      F7FFFF
 5417 24bd BA000000 		movl	$.LC57, %edx
 5417      00
 5418 24c2 4889CE   		movq	%rcx, %rsi
 5419 24c5 4889C7   		movq	%rax, %rdi
 5420 24c8 E8000000 		call	_ZN8UnitTest11TestResults13OnTestFailureERKNS_11TestDetailsEPKc
 5420      00
 5421              	.LEHE121:
 5422              	.L274:
 145:TestTestMacros.cpp **** 
 146:TestTestMacros.cpp **** 	RecordingReporter reporter;
 5423              		.loc 6 146 0 is_stmt 1
 5424 24cd 488D85B0 		leaq	-2128(%rbp), %rax
 5424      F7FFFF
 5425 24d4 4889C7   		movq	%rax, %rdi
 5426 24d7 E8000000 		call	_ZN17RecordingReporterC1Ev
 5426      00
 147:TestTestMacros.cpp **** 	TestResults result(&reporter);
 5427              		.loc 6 147 0
 5428 24dc 488D95B0 		leaq	-2128(%rbp), %rdx
 5428      F7FFFF
 5429 24e3 488D8570 		leaq	-2192(%rbp), %rax
 5429      F7FFFF
 5430 24ea 4889D6   		movq	%rdx, %rsi
 5431 24ed 4889C7   		movq	%rax, %rdi
 5432              	.LEHB122:
 5433 24f0 E8000000 		call	_ZN8UnitTest11TestResultsC1EPNS_12TestReporterE
 5433      00
 5434              	.LBB81:
 148:TestTestMacros.cpp **** 	{
 149:TestTestMacros.cpp **** 		ScopedCurrentTest scopedResult(result);
 5435              		.loc 6 149 0
 5436 24f5 488D8D70 		leaq	-2192(%rbp), %rcx
 5436      F7FFFF
 5437 24fc 488D8590 		leaq	-2160(%rbp), %rax
 5437      F7FFFF
 5438 2503 BA000000 		movl	$0, %edx
 5438      00
 5439 2508 4889CE   		movq	%rcx, %rsi
 5440 250b 4889C7   		movq	%rax, %rdi
 5441 250e E8000000 		call	_ZN17ScopedCurrentTestC1ERN8UnitTest11TestResultsEPKNS0_11TestDetailsE
 5441      00
 5442              	.LEHE122:
 150:TestTestMacros.cpp **** 		throwingFixtureTestList2.GetHead()->Run();
 5443              		.loc 6 150 0
 5444 2513 BF000000 		movl	$_ZN12_GLOBAL__N_124throwingFixtureTestList2E, %edi
 5444      00
 5445              	.LEHB123:
 5446 2518 E8000000 		call	_ZNK8UnitTest8TestList7GetHeadEv
 5446      00
 5447 251d 4889C7   		movq	%rax, %rdi
 5448 2520 E8000000 		call	_ZN8UnitTest4Test3RunEv
 5448      00
 5449              	.LEHE123:
 149:TestTestMacros.cpp **** 		throwingFixtureTestList2.GetHead()->Run();
 5450              		.loc 6 149 0
 5451 2525 488D8590 		leaq	-2160(%rbp), %rax
 5451      F7FFFF
 5452 252c 4889C7   		movq	%rax, %rdi
 5453              	.LEHB124:
 5454 252f E8000000 		call	_ZN17ScopedCurrentTestD1Ev
 5454      00
 5455              	.LBE81:
 151:TestTestMacros.cpp **** 	}
 152:TestTestMacros.cpp **** 
 153:TestTestMacros.cpp **** 	int const failureCount = result.GetFailedTestCount();
 5456              		.loc 6 153 0
 5457 2534 488D8570 		leaq	-2192(%rbp), %rax
 5457      F7FFFF
 5458 253b 4889C7   		movq	%rax, %rdi
 5459 253e E8000000 		call	_ZNK8UnitTest11TestResults18GetFailedTestCountEv
 5459      00
 5460              	.LEHE124:
 5461 2543 898568F7 		movl	%eax, -2200(%rbp)
 5461      FFFF
 5462              	.LEHB125:
 154:TestTestMacros.cpp **** 	CHECK_EQUAL(1, failureCount);
 5463              		.loc 6 154 0
 5464 2549 E8000000 		call	_ZN8UnitTest11CurrentTest7DetailsEv
 5464      00
 5465              		.loc 6 154 0 is_stmt 0 discriminator 1
 5466 254e 488B08   		movq	(%rax), %rcx
 5467 2551 488D8590 		leaq	-2160(%rbp), %rax
 5467      F7FFFF
 5468 2558 BA9A0000 		movl	$154, %edx
 5468      00
 5469 255d 4889CE   		movq	%rcx, %rsi
 5470 2560 4889C7   		movq	%rax, %rdi
 5471 2563 E8000000 		call	_ZN8UnitTest11TestDetailsC1ERKS0_i
 5471      00
 5472              	.LEHE125:
 5473              		.loc 6 154 0 discriminator 2
 5474 2568 C7856CF7 		movl	$1, -2196(%rbp)
 5474      FFFF0100 
 5474      0000
 5475              	.LEHB126:
 5476 2572 E8000000 		call	_ZN8UnitTest11CurrentTest7ResultsEv
 5476      00
 5477 2577 488B00   		movq	(%rax), %rax
 5478 257a 488D8D90 		leaq	-2160(%rbp), %rcx
 5478      F7FFFF
 5479 2581 488D9568 		leaq	-2200(%rbp), %rdx
 5479      F7FFFF
 5480 2588 488DB56C 		leaq	-2196(%rbp), %rsi
 5480      F7FFFF
 5481 258f 4889C7   		movq	%rax, %rdi
 5482 2592 E8000000 		call	_ZN8UnitTest10CheckEqualIiiEEvRNS_11TestResultsERKT_RKT0_RKNS_11TestDetailsE
 5482      00
 5483              	.LEHE126:
 5484              	.L282:
 155:TestTestMacros.cpp **** 	CHECK(strstr(reporter.lastFailedMessage, "while destroying fixture"));
 5485              		.loc 6 155 0 is_stmt 1
 5486 2597 488D85B0 		leaq	-2128(%rbp), %rax
 5486      F7FFFF
 5487 259e 48051405 		addq	$1300, %rax
 5487      0000
 5488 25a4 BE000000 		movl	$.LC58, %esi
 5488      00
 5489 25a9 4889C7   		movq	%rax, %rdi
 5490 25ac E8000000 		call	strstr
 5490      00
 5491 25b1 4889C7   		movq	%rax, %rdi
 5492 25b4 E8000000 		call	_ZN8UnitTest5CheckIPcEEbT_
 5492      00
 5493 25b9 83F001   		xorl	$1, %eax
 5494 25bc 84C0     		testb	%al, %al
 5495 25be 743E     		je	.L275
 5496              	.LEHB127:
 5497              		.loc 6 155 0 is_stmt 0 discriminator 1
 5498 25c0 E8000000 		call	_ZN8UnitTest11CurrentTest7DetailsEv
 5498      00
 5499 25c5 488B08   		movq	(%rax), %rcx
 5500 25c8 488D8590 		leaq	-2160(%rbp), %rax
 5500      F7FFFF
 5501 25cf BA9B0000 		movl	$155, %edx
 5501      00
 5502 25d4 4889CE   		movq	%rcx, %rsi
 5503 25d7 4889C7   		movq	%rax, %rdi
 5504 25da E8000000 		call	_ZN8UnitTest11TestDetailsC1ERKS0_i
 5504      00
 5505              		.loc 6 155 0 discriminator 3
 5506 25df E8000000 		call	_ZN8UnitTest11CurrentTest7ResultsEv
 5506      00
 5507 25e4 488B00   		movq	(%rax), %rax
 5508 25e7 488D8D90 		leaq	-2160(%rbp), %rcx
 5508      F7FFFF
 5509 25ee BA000000 		movl	$.LC59, %edx
 5509      00
 5510 25f3 4889CE   		movq	%rcx, %rsi
 5511 25f6 4889C7   		movq	%rax, %rdi
 5512 25f9 E8000000 		call	_ZN8UnitTest11TestResults13OnTestFailureERKNS_11TestDetailsEPKc
 5512      00
 5513              	.LEHE127:
 5514              	.L275:
 146:TestTestMacros.cpp **** 	TestResults result(&reporter);
 5515              		.loc 6 146 0 is_stmt 1
 5516 25fe 488D85B0 		leaq	-2128(%rbp), %rax
 5516      F7FFFF
 5517 2605 4889C7   		movq	%rax, %rdi
 5518              	.LEHB128:
 5519 2608 E8000000 		call	_ZN17RecordingReporterD1Ev
 5519      00
 5520              	.LEHE128:
 156:TestTestMacros.cpp **** }
 5521              		.loc 6 156 0
 5522 260d 90       		nop
 5523 260e 488B45E8 		movq	-24(%rbp), %rax
 5524 2612 64483304 		xorq	%fs:40, %rax
 5524      25280000 
 5524      00
 5525 261b 0F845701 		je	.L286
 5525      0000
 5526 2621 E94D0100 		jmp	.L296
 5526      00
 5527              	.L287:
 144:TestTestMacros.cpp **** 
 5528              		.loc 6 144 0
 5529 2626 4889C7   		movq	%rax, %rdi
 5530 2629 E8000000 		call	__cxa_begin_catch
 5530      00
 5531              	.LEHB129:
 5532 262e E8000000 		call	_ZN8UnitTest11CurrentTest7DetailsEv
 5532      00
 5533 2633 488B08   		movq	(%rax), %rcx
 5534 2636 488D8590 		leaq	-2160(%rbp), %rax
 5534      F7FFFF
 5535 263d BA900000 		movl	$144, %edx
 5535      00
 5536 2642 4889CE   		movq	%rcx, %rsi
 5537 2645 4889C7   		movq	%rax, %rdi
 5538 2648 E8000000 		call	_ZN8UnitTest11TestDetailsC1ERKS0_i
 5538      00
 144:TestTestMacros.cpp **** 
 5539              		.loc 6 144 0 is_stmt 0 discriminator 12
 5540 264d E8000000 		call	_ZN8UnitTest11CurrentTest7ResultsEv
 5540      00
 5541 2652 488B00   		movq	(%rax), %rax
 5542 2655 488D8D90 		leaq	-2160(%rbp), %rcx
 5542      F7FFFF
 5543 265c BA000000 		movl	$.LC60, %edx
 5543      00
 5544 2661 4889CE   		movq	%rcx, %rsi
 5545 2664 4889C7   		movq	%rax, %rdi
 5546 2667 E8000000 		call	_ZN8UnitTest11TestResults13OnTestFailureERKNS_11TestDetailsEPKc
 5546      00
 5547              	.LEHE129:
 5548              	.LEHB130:
 144:TestTestMacros.cpp **** 
 5549              		.loc 6 144 0 discriminator 16
 5550 266c E8000000 		call	__cxa_end_catch
 5550      00
 5551              	.LEHE130:
 5552 2671 E957FEFF 		jmp	.L274
 5552      FF
 5553              	.L288:
 5554 2676 4889C3   		movq	%rax, %rbx
 144:TestTestMacros.cpp **** 
 5555              		.loc 6 144 0
 5556 2679 E8000000 		call	__cxa_end_catch
 5556      00
 5557 267e 4889D8   		movq	%rbx, %rax
 5558 2681 4889C7   		movq	%rax, %rdi
 5559              	.LEHB131:
 5560 2684 E8000000 		call	_Unwind_Resume
 5560      00
 5561              	.LEHE131:
 5562              	.L290:
 5563 2689 4889C3   		movq	%rax, %rbx
 5564              	.LBB82:
 149:TestTestMacros.cpp **** 		throwingFixtureTestList2.GetHead()->Run();
 5565              		.loc 6 149 0 is_stmt 1
 5566 268c 488D8590 		leaq	-2160(%rbp), %rax
 5566      F7FFFF
 5567 2693 4889C7   		movq	%rax, %rdi
 5568 2696 E8000000 		call	_ZN17ScopedCurrentTestD1Ev
 5568      00
 5569 269b E9B90000 		jmp	.L279
 5569      00
 5570              	.L292:
 5571 26a0 EB00     		jmp	.L281
 5572              	.L291:
 5573              	.L281:
 5574              	.LBE82:
 154:TestTestMacros.cpp **** 	CHECK(strstr(reporter.lastFailedMessage, "while destroying fixture"));
 5575              		.loc 6 154 0
 5576 26a2 4889C7   		movq	%rax, %rdi
 5577 26a5 E8000000 		call	__cxa_begin_catch
 5577      00
 5578              	.LEHB132:
 5579 26aa E8000000 		call	_ZN8UnitTest11CurrentTest7DetailsEv
 5579      00
 5580 26af 488B08   		movq	(%rax), %rcx
 5581 26b2 488D8590 		leaq	-2160(%rbp), %rax
 5581      F7FFFF
 5582 26b9 BA9A0000 		movl	$154, %edx
 5582      00
 5583 26be 4889CE   		movq	%rcx, %rsi
 5584 26c1 4889C7   		movq	%rax, %rdi
 5585 26c4 E8000000 		call	_ZN8UnitTest11TestDetailsC1ERKS0_i
 5585      00
 154:TestTestMacros.cpp **** 	CHECK(strstr(reporter.lastFailedMessage, "while destroying fixture"));
 5586              		.loc 6 154 0 is_stmt 0 discriminator 10
 5587 26c9 E8000000 		call	_ZN8UnitTest11CurrentTest7ResultsEv
 5587      00
 5588 26ce 488B00   		movq	(%rax), %rax
 5589 26d1 488D8D90 		leaq	-2160(%rbp), %rcx
 5589      F7FFFF
 5590 26d8 BA000000 		movl	$.LC51, %edx
 5590      00
 5591 26dd 4889CE   		movq	%rcx, %rsi
 5592 26e0 4889C7   		movq	%rax, %rdi
 5593 26e3 E8000000 		call	_ZN8UnitTest11TestResults13OnTestFailureERKNS_11TestDetailsEPKc
 5593      00
 5594              	.LEHE132:
 5595              	.LEHB133:
 154:TestTestMacros.cpp **** 	CHECK(strstr(reporter.lastFailedMessage, "while destroying fixture"));
 5596              		.loc 6 154 0 discriminator 14
 5597 26e8 E8000000 		call	__cxa_end_catch
 5597      00
 5598              	.LEHE133:
 154:TestTestMacros.cpp **** 	CHECK(strstr(reporter.lastFailedMessage, "while destroying fixture"));
 5599              		.loc 6 154 0
 5600 26ed E9A5FEFF 		jmp	.L282
 5600      FF
 5601              	.L293:
 5602 26f2 4889C3   		movq	%rax, %rbx
 5603 26f5 E8000000 		call	__cxa_end_catch
 5603      00
 5604 26fa EB5D     		jmp	.L279
 5605              	.L294:
 155:TestTestMacros.cpp **** }
 5606              		.loc 6 155 0 is_stmt 1
 5607 26fc 4889C7   		movq	%rax, %rdi
 5608 26ff E8000000 		call	__cxa_begin_catch
 5608      00
 5609              	.LEHB134:
 5610 2704 E8000000 		call	_ZN8UnitTest11CurrentTest7DetailsEv
 5610      00
 5611 2709 488B08   		movq	(%rax), %rcx
 5612 270c 488D8590 		leaq	-2160(%rbp), %rax
 5612      F7FFFF
 5613 2713 BA9B0000 		movl	$155, %edx
 5613      00
 5614 2718 4889CE   		movq	%rcx, %rsi
 5615 271b 4889C7   		movq	%rax, %rdi
 5616 271e E8000000 		call	_ZN8UnitTest11TestDetailsC1ERKS0_i
 5616      00
 155:TestTestMacros.cpp **** }
 5617              		.loc 6 155 0 is_stmt 0 discriminator 11
 5618 2723 E8000000 		call	_ZN8UnitTest11CurrentTest7ResultsEv
 5618      00
 5619 2728 488B00   		movq	(%rax), %rax
 5620 272b 488D8D90 		leaq	-2160(%rbp), %rcx
 5620      F7FFFF
 5621 2732 BA000000 		movl	$.LC61, %edx
 5621      00
 5622 2737 4889CE   		movq	%rcx, %rsi
 5623 273a 4889C7   		movq	%rax, %rdi
 5624 273d E8000000 		call	_ZN8UnitTest11TestResults13OnTestFailureERKNS_11TestDetailsEPKc
 5624      00
 5625              	.LEHE134:
 5626              	.LEHB135:
 155:TestTestMacros.cpp **** }
 5627              		.loc 6 155 0 discriminator 15
 5628 2742 E8000000 		call	__cxa_end_catch
 5628      00
 5629              	.LEHE135:
 155:TestTestMacros.cpp **** }
 5630              		.loc 6 155 0
 5631 2747 E9B2FEFF 		jmp	.L275
 5631      FF
 5632              	.L295:
 5633 274c 4889C3   		movq	%rax, %rbx
 5634 274f E8000000 		call	__cxa_end_catch
 5634      00
 5635 2754 EB03     		jmp	.L279
 5636              	.L289:
 5637 2756 4889C3   		movq	%rax, %rbx
 5638              	.L279:
 146:TestTestMacros.cpp **** 	TestResults result(&reporter);
 5639              		.loc 6 146 0 is_stmt 1
 5640 2759 488D85B0 		leaq	-2128(%rbp), %rax
 5640      F7FFFF
 5641 2760 4889C7   		movq	%rax, %rdi
 5642 2763 E8000000 		call	_ZN17RecordingReporterD1Ev
 5642      00
 5643 2768 4889D8   		movq	%rbx, %rax
 5644 276b 4889C7   		movq	%rax, %rdi
 5645              	.LEHB136:
 5646 276e E8000000 		call	_Unwind_Resume
 5646      00
 5647              	.LEHE136:
 5648              	.L296:
 5649              		.loc 6 156 0
 5650 2773 E8000000 		call	__stack_chk_fail
 5650      00
 5651              	.L286:
 5652 2778 4881C4A8 		addq	$2216, %rsp
 5652      080000
 5653 277f 5B       		popq	%rbx
 5654 2780 5D       		popq	%rbp
 5655              		.cfi_def_cfa 7, 8
 5656 2781 C3       		ret
 5657              		.cfi_endproc
 5658              	.LFE1195:
 5659              		.section	.gcc_except_table
 5660              		.align 4
 5661              	.LLSDA1195:
 5662 034c FF       		.byte	0xff
 5663 034d 03       		.byte	0x3
 5664 034e 65       		.uleb128 .LLSDATT1195-.LLSDATTD1195
 5665              	.LLSDATTD1195:
 5666 034f 01       		.byte	0x1
 5667 0350 5B       		.uleb128 .LLSDACSE1195-.LLSDACSB1195
 5668              	.LLSDACSB1195:
 5669 0351 27       		.uleb128 .LEHB121-.LFB1195
 5670 0352 5A       		.uleb128 .LEHE121-.LEHB121
 5671 0353 DA03     		.uleb128 .L287-.LFB1195
 5672 0355 01       		.uleb128 0x1
 5673 0356 A401     		.uleb128 .LEHB122-.LFB1195
 5674 0358 23       		.uleb128 .LEHE122-.LEHB122
 5675 0359 8A06     		.uleb128 .L289-.LFB1195
 5676 035b 00       		.uleb128 0
 5677 035c CC01     		.uleb128 .LEHB123-.LFB1195
 5678 035e 0D       		.uleb128 .LEHE123-.LEHB123
 5679 035f BD04     		.uleb128 .L290-.LFB1195
 5680 0361 00       		.uleb128 0
 5681 0362 E301     		.uleb128 .LEHB124-.LFB1195
 5682 0364 14       		.uleb128 .LEHE124-.LEHB124
 5683 0365 8A06     		.uleb128 .L289-.LFB1195
 5684 0367 00       		.uleb128 0
 5685 0368 FD01     		.uleb128 .LEHB125-.LFB1195
 5686 036a 1F       		.uleb128 .LEHE125-.LEHB125
 5687 036b D604     		.uleb128 .L291-.LFB1195
 5688 036d 01       		.uleb128 0x1
 5689 036e A602     		.uleb128 .LEHB126-.LFB1195
 5690 0370 25       		.uleb128 .LEHE126-.LEHB126
 5691 0371 D404     		.uleb128 .L292-.LFB1195
 5692 0373 01       		.uleb128 0x1
 5693 0374 F402     		.uleb128 .LEHB127-.LFB1195
 5694 0376 3E       		.uleb128 .LEHE127-.LEHB127
 5695 0377 B005     		.uleb128 .L294-.LFB1195
 5696 0379 01       		.uleb128 0x1
 5697 037a BC03     		.uleb128 .LEHB128-.LFB1195
 5698 037c 05       		.uleb128 .LEHE128-.LEHB128
 5699 037d 00       		.uleb128 0
 5700 037e 00       		.uleb128 0
 5701 037f E203     		.uleb128 .LEHB129-.LFB1195
 5702 0381 3E       		.uleb128 .LEHE129-.LEHB129
 5703 0382 AA04     		.uleb128 .L288-.LFB1195
 5704 0384 00       		.uleb128 0
 5705 0385 A004     		.uleb128 .LEHB130-.LFB1195
 5706 0387 05       		.uleb128 .LEHE130-.LEHB130
 5707 0388 00       		.uleb128 0
 5708 0389 00       		.uleb128 0
 5709 038a B804     		.uleb128 .LEHB131-.LFB1195
 5710 038c 05       		.uleb128 .LEHE131-.LEHB131
 5711 038d 00       		.uleb128 0
 5712 038e 00       		.uleb128 0
 5713 038f DE04     		.uleb128 .LEHB132-.LFB1195
 5714 0391 3E       		.uleb128 .LEHE132-.LEHB132
 5715 0392 A605     		.uleb128 .L293-.LFB1195
 5716 0394 00       		.uleb128 0
 5717 0395 9C05     		.uleb128 .LEHB133-.LFB1195
 5718 0397 05       		.uleb128 .LEHE133-.LEHB133
 5719 0398 8A06     		.uleb128 .L289-.LFB1195
 5720 039a 00       		.uleb128 0
 5721 039b B805     		.uleb128 .LEHB134-.LFB1195
 5722 039d 3E       		.uleb128 .LEHE134-.LEHB134
 5723 039e 8006     		.uleb128 .L295-.LFB1195
 5724 03a0 00       		.uleb128 0
 5725 03a1 F605     		.uleb128 .LEHB135-.LFB1195
 5726 03a3 05       		.uleb128 .LEHE135-.LEHB135
 5727 03a4 8A06     		.uleb128 .L289-.LFB1195
 5728 03a6 00       		.uleb128 0
 5729 03a7 A206     		.uleb128 .LEHB136-.LFB1195
 5730 03a9 05       		.uleb128 .LEHE136-.LEHB136
 5731 03aa 00       		.uleb128 0
 5732 03ab 00       		.uleb128 0
 5733              	.LLSDACSE1195:
 5734 03ac 01       		.byte	0x1
 5735 03ad 00       		.byte	0
 5736 03ae 0000     		.align 4
 5737 03b0 00000000 		.long	0
 5738              	
 5739              	.LLSDATT1195:
 5740              		.text
 5742              		.section	.rodata
 5743 0bc5 000000   		.align 4
 5746              	_ZN12_GLOBAL__N_1L11FailingLineE:
 5747 0bc8 7B000000 		.long	123
 5748              	.LC62:
 5749 0bcc 66696C65 		.string	"file"
 5749      00
 5750              	.LC63:
 5751 0bd1 61737365 		.string	"assert failure"
 5751      72742066 
 5751      61696C75 
 5751      726500
 5752              		.text
 5753              		.align 2
 5755              	_ZN12_GLOBAL__N_118FixtureCtorAssertsC2Ev:
 5756              	.LFB1197:
 157:TestTestMacros.cpp **** 
 158:TestTestMacros.cpp **** const int FailingLine = 123;
 159:TestTestMacros.cpp **** 
 160:TestTestMacros.cpp **** struct FixtureCtorAsserts
 161:TestTestMacros.cpp **** {
 162:TestTestMacros.cpp **** 	FixtureCtorAsserts()
 5757              		.loc 6 162 0
 5758              		.cfi_startproc
 5759 2782 55       		pushq	%rbp
 5760              		.cfi_def_cfa_offset 16
 5761              		.cfi_offset 6, -16
 5762 2783 4889E5   		movq	%rsp, %rbp
 5763              		.cfi_def_cfa_register 6
 5764 2786 4883EC10 		subq	$16, %rsp
 5765 278a 48897DF8 		movq	%rdi, -8(%rbp)
 5766              	.LBB83:
 163:TestTestMacros.cpp **** 	{
 164:TestTestMacros.cpp **** 		UnitTest::ReportAssert("assert failure", "file", FailingLine);
 5767              		.loc 6 164 0
 5768 278e BA7B0000 		movl	$123, %edx
 5768      00
 5769 2793 BE000000 		movl	$.LC62, %esi
 5769      00
 5770 2798 BF000000 		movl	$.LC63, %edi
 5770      00
 5771 279d E8000000 		call	_ZN8UnitTest12ReportAssertEPKcS1_i
 5771      00
 5772              	.LBE83:
 165:TestTestMacros.cpp **** 	}
 5773              		.loc 6 165 0
 5774 27a2 90       		nop
 5775 27a3 C9       		leave
 5776              		.cfi_def_cfa 7, 8
 5777 27a4 C3       		ret
 5778              		.cfi_endproc
 5779              	.LFE1197:
 5781              		.local	_ZN12_GLOBAL__N_125ctorAssertFixtureTestListE
 5782              		.comm	_ZN12_GLOBAL__N_125ctorAssertFixtureTestListE,16,16
 5783 27a5 90       		.align 2
 5785              	_ZN12_GLOBAL__N_159FixtureCtorAssertsCorrectlyReportsAssertFailureInCtorHelperC2ERKN8UnitTest11Test
 5786              	.LFB1200:
 166:TestTestMacros.cpp **** };
 167:TestTestMacros.cpp **** 
 168:TestTestMacros.cpp **** TestList ctorAssertFixtureTestList;
 169:TestTestMacros.cpp **** TEST_FIXTURE_EX(FixtureCtorAsserts, CorrectlyReportsAssertFailureInCtor, ctorAssertFixtureTestList)
 5787              		.loc 6 169 0
 5788              		.cfi_startproc
 5789 27a6 55       		pushq	%rbp
 5790              		.cfi_def_cfa_offset 16
 5791              		.cfi_offset 6, -16
 5792 27a7 4889E5   		movq	%rsp, %rbp
 5793              		.cfi_def_cfa_register 6
 5794 27aa 4883EC10 		subq	$16, %rsp
 5795 27ae 48897DF8 		movq	%rdi, -8(%rbp)
 5796 27b2 488975F0 		movq	%rsi, -16(%rbp)
 5797              	.LBB84:
 5798              		.loc 6 169 0
 5799 27b6 488B45F8 		movq	-8(%rbp), %rax
 5800 27ba 4889C7   		movq	%rax, %rdi
 5801 27bd E8C0FFFF 		call	_ZN12_GLOBAL__N_118FixtureCtorAssertsC2Ev
 5801      FF
 5802 27c2 488B45F8 		movq	-8(%rbp), %rax
 5803 27c6 488B55F0 		movq	-16(%rbp), %rdx
 5804 27ca 488910   		movq	%rdx, (%rax)
 5805              	.LBE84:
 5806 27cd 90       		nop
 5807 27ce C9       		leave
 5808              		.cfi_def_cfa 7, 8
 5809 27cf C3       		ret
 5810              		.cfi_endproc
 5811              	.LFE1200:
 5813              		.set	_ZN12_GLOBAL__N_159FixtureCtorAssertsCorrectlyReportsAssertFailureInCtorHelperC1ERKN8UnitTest
 5814              		.section	.rodata
 5815              		.align 8
 5816              	.LC64:
 5817 0be0 436F7272 		.string	"CorrectlyReportsAssertFailureInCtor"
 5817      6563746C 
 5817      79526570 
 5817      6F727473 
 5817      41737365 
 5818              		.text
 5819              		.align 2
 5821              	_ZN12_GLOBAL__N_157TestFixtureCtorAssertsCorrectlyReportsAssertFailureInCtorC2Ev:
 5822              	.LFB1203:
 5823              		.loc 6 169 0
 5824              		.cfi_startproc
 5825 27d0 55       		pushq	%rbp
 5826              		.cfi_def_cfa_offset 16
 5827              		.cfi_offset 6, -16
 5828 27d1 4889E5   		movq	%rsp, %rbp
 5829              		.cfi_def_cfa_register 6
 5830 27d4 4883EC10 		subq	$16, %rsp
 5831 27d8 48897DF8 		movq	%rdi, -8(%rbp)
 5832              	.LBB85:
 5833              		.loc 6 169 0
 5834 27dc E8000000 		call	_ZN13UnitTestSuite12GetSuiteNameEv
 5834      00
 5835 27e1 4889C2   		movq	%rax, %rdx
 5836 27e4 488B45F8 		movq	-8(%rbp), %rax
 5837 27e8 41B8A900 		movl	$169, %r8d
 5837      0000
 5838 27ee B9000000 		movl	$.LC2, %ecx
 5838      00
 5839 27f3 BE000000 		movl	$.LC64, %esi
 5839      00
 5840 27f8 4889C7   		movq	%rax, %rdi
 5841 27fb E8000000 		call	_ZN8UnitTest4TestC2EPKcS2_S2_i
 5841      00
 5842 2800 BA000000 		movl	$_ZTVN12_GLOBAL__N_157TestFixtureCtorAssertsCorrectlyReportsAssertFailureInCtorE+16, %edx
 5842      00
 5843 2805 488B45F8 		movq	-8(%rbp), %rax
 5844 2809 488910   		movq	%rdx, (%rax)
 5845              	.LBE85:
 5846 280c 90       		nop
 5847 280d C9       		leave
 5848              		.cfi_def_cfa 7, 8
 5849 280e C3       		ret
 5850              		.cfi_endproc
 5851              	.LFE1203:
 5853              		.set	_ZN12_GLOBAL__N_157TestFixtureCtorAssertsCorrectlyReportsAssertFailureInCtorC1Ev,_ZN12_GLOBAL
 5854              		.local	_ZN12_GLOBAL__N_165testFixtureCtorAssertsCorrectlyReportsAssertFailureInCtorInstanceE
 5855              		.comm	_ZN12_GLOBAL__N_165testFixtureCtorAssertsCorrectlyReportsAssertFailureInCtorInstanceE,56,32
 5856              		.local	_ZN12_GLOBAL__N_158adderFixtureCtorAssertsCorrectlyReportsAssertFailureInCtorE
 5857              		.comm	_ZN12_GLOBAL__N_158adderFixtureCtorAssertsCorrectlyReportsAssertFailureInCtorE,1,1
 5858              		.section	.rodata
 5859 0c04 00000000 		.align 8
 5860              	.LC65:
 5861 0c08 556E6861 		.string	"Unhandled exception while destroying fixture FixtureCtorAsserts"
 5861      6E646C65 
 5861      64206578 
 5861      63657074 
 5861      696F6E20 
 5862              		.align 8
 5863              	.LC66:
 5864 0c48 556E6861 		.string	"Unhandled exception while constructing fixture FixtureCtorAsserts"
 5864      6E646C65 
 5864      64206578 
 5864      63657074 
 5864      696F6E20 
 5865              		.text
 5866 280f 90       		.align 2
 5868              	_ZNK12_GLOBAL__N_157TestFixtureCtorAssertsCorrectlyReportsAssertFailureInCtor7RunImplEv:
 5869              	.LFB1205:
 5870              		.loc 6 169 0
 5871              		.cfi_startproc
 5872              		.cfi_personality 0x3,__gxx_personality_v0
 5873              		.cfi_lsda 0x3,.LLSDA1205
 5874 2810 55       		pushq	%rbp
 5875              		.cfi_def_cfa_offset 16
 5876              		.cfi_offset 6, -16
 5877 2811 4889E5   		movq	%rsp, %rbp
 5878              		.cfi_def_cfa_register 6
 5879 2814 4154     		pushq	%r12
 5880 2816 53       		pushq	%rbx
 5881 2817 4881ECF0 		subq	$496, %rsp
 5881      010000
 5882              		.cfi_offset 12, -24
 5883              		.cfi_offset 3, -32
 5884 281e 4889BD08 		movq	%rdi, -504(%rbp)
 5884      FEFFFF
 5885              		.loc 6 169 0
 5886 2825 64488B04 		movq	%fs:40, %rax
 5886      25280000 
 5886      00
 5887 282e 488945E8 		movq	%rax, -24(%rbp)
 5888 2832 31C0     		xorl	%eax, %eax
 5889 2834 C6851FFE 		movb	$0, -481(%rbp)
 5889      FFFF00
 5890              	.LBB86:
 5891 283b 488B8508 		movq	-504(%rbp), %rax
 5891      FEFFFF
 5892 2842 488D5008 		leaq	8(%rax), %rdx
 5893 2846 488D8530 		leaq	-464(%rbp), %rax
 5893      FEFFFF
 5894 284d 4889D6   		movq	%rdx, %rsi
 5895 2850 4889C7   		movq	%rax, %rdi
 5896              	.LEHB137:
 5897 2853 E84EFFFF 		call	_ZN12_GLOBAL__N_159FixtureCtorAssertsCorrectlyReportsAssertFailureInCtorHelperC1ERKN8UnitTest
 5897      FF
 5898              		.loc 6 169 0 is_stmt 0 discriminator 1
 5899 2858 C6851FFE 		movb	$1, -481(%rbp)
 5899      FFFF01
 5900 285f 488B8508 		movq	-504(%rbp), %rax
 5900      FEFFFF
 5901 2866 488D5008 		leaq	8(%rax), %rdx
 5902 286a 488D8530 		leaq	-464(%rbp), %rax
 5902      FEFFFF
 5903 2871 4889D6   		movq	%rdx, %rsi
 5904 2874 4889C7   		movq	%rax, %rdi
 5905 2877 E8421700 		call	_ZN8UnitTest11ExecuteTestIN12_GLOBAL__N_159FixtureCtorAssertsCorrectlyReportsAssertFailureInC
 5905      00
 5906              	.LEHE137:
 5907              	.LBE86:
 5908              		.loc 6 169 0
 5909 287c E9490200 		jmp	.L300
 5909      00
 5910              	.L313:
 5911 2881 4883FA01 		cmpq	$1, %rdx
 5912 2885 740F     		je	.L303
 5913 2887 4883FA02 		cmpq	$2, %rdx
 5914 288b 0F84A700 		je	.L304
 5914      0000
 5915 2891 E94B0100 		jmp	.L318
 5915      00
 5916              	.L303:
 5917              	.LBB87:
 5918 2896 4889C7   		movq	%rax, %rdi
 5919 2899 E8000000 		call	__cxa_begin_catch
 5919      00
 5920 289e 48898520 		movq	%rax, -480(%rbp)
 5920      FEFFFF
 5921 28a5 488B8520 		movq	-480(%rbp), %rax
 5921      FEFFFF
 5922 28ac 488B00   		movq	(%rax), %rax
 5923 28af 4883C010 		addq	$16, %rax
 5924 28b3 488B00   		movq	(%rax), %rax
 5925 28b6 488B9520 		movq	-480(%rbp), %rdx
 5925      FEFFFF
 5926 28bd 4889D7   		movq	%rdx, %rdi
 5927 28c0 FFD0     		call	*%rax
 5928 28c2 4889C3   		movq	%rax, %rbx
 5929 28c5 488B8520 		movq	-480(%rbp), %rax
 5929      FEFFFF
 5930 28cc 4889C7   		movq	%rax, %rdi
 5931              	.LEHB138:
 5932 28cf E8000000 		call	_ZNK8UnitTest15AssertException10LineNumberEv
 5932      00
 5933 28d4 4189C4   		movl	%eax, %r12d
 5934 28d7 488B8520 		movq	-480(%rbp), %rax
 5934      FEFFFF
 5935 28de 4889C7   		movq	%rax, %rdi
 5936 28e1 E8000000 		call	_ZNK8UnitTest15AssertException8FilenameEv
 5936      00
 5937              		.loc 6 169 0 discriminator 3
 5938 28e6 4889C1   		movq	%rax, %rcx
 5939 28e9 488B8508 		movq	-504(%rbp), %rax
 5939      FEFFFF
 5940 28f0 488B5008 		movq	8(%rax), %rdx
 5941 28f4 488B8508 		movq	-504(%rbp), %rax
 5941      FEFFFF
 5942 28fb 488B7010 		movq	16(%rax), %rsi
 5943 28ff 488D8530 		leaq	-464(%rbp), %rax
 5943      FEFFFF
 5944 2906 4589E0   		movl	%r12d, %r8d
 5945 2909 4889C7   		movq	%rax, %rdi
 5946 290c E8000000 		call	_ZN8UnitTest11TestDetailsC1EPKcS2_S2_i
 5946      00
 5947              		.loc 6 169 0 discriminator 7
 5948 2911 E8000000 		call	_ZN8UnitTest11CurrentTest7ResultsEv
 5948      00
 5949 2916 488B00   		movq	(%rax), %rax
 5950 2919 488D8D30 		leaq	-464(%rbp), %rcx
 5950      FEFFFF
 5951 2920 4889DA   		movq	%rbx, %rdx
 5952 2923 4889CE   		movq	%rcx, %rsi
 5953 2926 4889C7   		movq	%rax, %rdi
 5954 2929 E8000000 		call	_ZN8UnitTest11TestResults13OnTestFailureERKNS_11TestDetailsEPKc
 5954      00
 5955              	.LEHE138:
 5956              		.loc 6 169 0 discriminator 11
 5957 292e E8000000 		call	__cxa_end_catch
 5957      00
 5958              	.LBE87:
 5959 2933 E9920100 		jmp	.L300
 5959      00
 5960              	.L304:
 5961              	.LBB88:
 5962              		.loc 6 169 0
 5963 2938 4889C7   		movq	%rax, %rdi
 5964 293b E8000000 		call	__cxa_begin_catch
 5964      00
 5965 2940 48898528 		movq	%rax, -472(%rbp)
 5965      FEFFFF
 5966              	.LBB89:
 5967 2947 488D8550 		leaq	-432(%rbp), %rax
 5967      FEFFFF
 5968 294e 4889C7   		movq	%rax, %rdi
 5969              	.LEHB139:
 5970 2951 E8000000 		call	_ZN8UnitTest15MemoryOutStreamC1Ev
 5970      00
 5971              	.LEHE139:
 5972              		.loc 6 169 0 discriminator 13
 5973 2956 488B8528 		movq	-472(%rbp), %rax
 5973      FEFFFF
 5974 295d 488B00   		movq	(%rax), %rax
 5975 2960 4883C010 		addq	$16, %rax
 5976 2964 488B00   		movq	(%rax), %rax
 5977 2967 488B9528 		movq	-472(%rbp), %rdx
 5977      FEFFFF
 5978 296e 4889D7   		movq	%rdx, %rdi
 5979 2971 FFD0     		call	*%rax
 5980 2973 4889C3   		movq	%rax, %rbx
 5981 2976 488D8550 		leaq	-432(%rbp), %rax
 5981      FEFFFF
 5982 297d BE000000 		movl	$.LC11, %esi
 5982      00
 5983 2982 4889C7   		movq	%rax, %rdi
 5984              	.LEHB140:
 5985 2985 E8000000 		call	_ZStlsISt11char_traitsIcEERSt13basic_ostreamIcT_ES5_PKc
 5985      00
 5986 298a 4889DE   		movq	%rbx, %rsi
 5987 298d 4889C7   		movq	%rax, %rdi
 5988 2990 E8000000 		call	_ZStlsISt11char_traitsIcEERSt13basic_ostreamIcT_ES5_PKc
 5988      00
 5989              		.loc 6 169 0 discriminator 17
 5990 2995 488D8550 		leaq	-432(%rbp), %rax
 5990      FEFFFF
 5991 299c 4889C7   		movq	%rax, %rdi
 5992 299f E8000000 		call	_ZNK8UnitTest15MemoryOutStream7GetTextEv
 5992      00
 5993 29a4 4989C4   		movq	%rax, %r12
 5994 29a7 488B8508 		movq	-504(%rbp), %rax
 5994      FEFFFF
 5995 29ae 488D5808 		leaq	8(%rax), %rbx
 5996 29b2 E8000000 		call	_ZN8UnitTest11CurrentTest7ResultsEv
 5996      00
 5997              		.loc 6 169 0 discriminator 19
 5998 29b7 488B00   		movq	(%rax), %rax
 5999 29ba 4C89E2   		movq	%r12, %rdx
 6000 29bd 4889DE   		movq	%rbx, %rsi
 6001 29c0 4889C7   		movq	%rax, %rdi
 6002 29c3 E8000000 		call	_ZN8UnitTest11TestResults13OnTestFailureERKNS_11TestDetailsEPKc
 6002      00
 6003              	.LEHE140:
 6004              		.loc 6 169 0 discriminator 23
 6005 29c8 488D8550 		leaq	-432(%rbp), %rax
 6005      FEFFFF
 6006 29cf 4889C7   		movq	%rax, %rdi
 6007              	.LEHB141:
 6008 29d2 E8000000 		call	_ZN8UnitTest15MemoryOutStreamD1Ev
 6008      00
 6009              	.LEHE141:
 6010              	.LBE89:
 6011              		.loc 6 169 0 discriminator 24
 6012 29d7 E8000000 		call	__cxa_end_catch
 6012      00
 6013              	.LBE88:
 6014 29dc E9E90000 		jmp	.L300
 6014      00
 6015              	.L318:
 6016              		.loc 6 169 0
 6017 29e1 4889C7   		movq	%rax, %rdi
 6018 29e4 E8000000 		call	__cxa_begin_catch
 6018      00
 6019 29e9 80BD1FFE 		cmpb	$0, -481(%rbp)
 6019      FFFF00
 6020 29f0 7443     		je	.L306
 6021              		.loc 6 169 0 discriminator 26
 6022 29f2 488B8508 		movq	-504(%rbp), %rax
 6022      FEFFFF
 6023 29f9 488D4808 		leaq	8(%rax), %rcx
 6024 29fd 488D8530 		leaq	-464(%rbp), %rax
 6024      FEFFFF
 6025 2a04 BAA90000 		movl	$169, %edx
 6025      00
 6026 2a09 4889CE   		movq	%rcx, %rsi
 6027 2a0c 4889C7   		movq	%rax, %rdi
 6028              	.LEHB142:
 6029 2a0f E8000000 		call	_ZN8UnitTest11TestDetailsC1ERKS0_i
 6029      00
 6030              		.loc 6 169 0 discriminator 29
 6031 2a14 E8000000 		call	_ZN8UnitTest11CurrentTest7ResultsEv
 6031      00
 6032 2a19 488B00   		movq	(%rax), %rax
 6033 2a1c 488D8D30 		leaq	-464(%rbp), %rcx
 6033      FEFFFF
 6034 2a23 BA000000 		movl	$.LC65, %edx
 6034      00
 6035 2a28 4889CE   		movq	%rcx, %rsi
 6036 2a2b 4889C7   		movq	%rax, %rdi
 6037 2a2e E8000000 		call	_ZN8UnitTest11TestResults13OnTestFailureERKNS_11TestDetailsEPKc
 6037      00
 6038 2a33 EB41     		jmp	.L307
 6039              	.L306:
 6040              		.loc 6 169 0 discriminator 27
 6041 2a35 488B8508 		movq	-504(%rbp), %rax
 6041      FEFFFF
 6042 2a3c 488D4808 		leaq	8(%rax), %rcx
 6043 2a40 488D8530 		leaq	-464(%rbp), %rax
 6043      FEFFFF
 6044 2a47 BAA90000 		movl	$169, %edx
 6044      00
 6045 2a4c 4889CE   		movq	%rcx, %rsi
 6046 2a4f 4889C7   		movq	%rax, %rdi
 6047 2a52 E8000000 		call	_ZN8UnitTest11TestDetailsC1ERKS0_i
 6047      00
 6048              		.loc 6 169 0 discriminator 36
 6049 2a57 E8000000 		call	_ZN8UnitTest11CurrentTest7ResultsEv
 6049      00
 6050 2a5c 488B00   		movq	(%rax), %rax
 6051 2a5f 488D8D30 		leaq	-464(%rbp), %rcx
 6051      FEFFFF
 6052 2a66 BA000000 		movl	$.LC66, %edx
 6052      00
 6053 2a6b 4889CE   		movq	%rcx, %rsi
 6054 2a6e 4889C7   		movq	%rax, %rdi
 6055 2a71 E8000000 		call	_ZN8UnitTest11TestResults13OnTestFailureERKNS_11TestDetailsEPKc
 6055      00
 6056              	.LEHE142:
 6057              	.L307:
 6058              	.LEHB143:
 6059              		.loc 6 169 0 discriminator 41
 6060 2a76 E8000000 		call	__cxa_end_catch
 6060      00
 6061 2a7b EB4D     		jmp	.L300
 6062              	.L314:
 6063 2a7d 4889C3   		movq	%rax, %rbx
 6064              	.LBB91:
 6065              		.loc 6 169 0
 6066 2a80 E8000000 		call	__cxa_end_catch
 6066      00
 6067 2a85 4889D8   		movq	%rbx, %rax
 6068 2a88 4889C7   		movq	%rax, %rdi
 6069 2a8b E8000000 		call	_Unwind_Resume
 6069      00
 6070              	.LEHE143:
 6071              	.L316:
 6072 2a90 4889C3   		movq	%rax, %rbx
 6073              	.LBE91:
 6074              	.LBB92:
 6075              	.LBB90:
 6076 2a93 488D8550 		leaq	-432(%rbp), %rax
 6076      FEFFFF
 6077 2a9a 4889C7   		movq	%rax, %rdi
 6078 2a9d E8000000 		call	_ZN8UnitTest15MemoryOutStreamD1Ev
 6078      00
 6079 2aa2 EB03     		jmp	.L310
 6080              	.L315:
 6081 2aa4 4889C3   		movq	%rax, %rbx
 6082              	.L310:
 6083              	.LBE90:
 6084 2aa7 E8000000 		call	__cxa_end_catch
 6084      00
 6085 2aac 4889D8   		movq	%rbx, %rax
 6086 2aaf 4889C7   		movq	%rax, %rdi
 6087              	.LEHB144:
 6088 2ab2 E8000000 		call	_Unwind_Resume
 6088      00
 6089              	.LEHE144:
 6090              	.L317:
 6091 2ab7 4889C3   		movq	%rax, %rbx
 6092              	.LBE92:
 6093 2aba E8000000 		call	__cxa_end_catch
 6093      00
 6094 2abf 4889D8   		movq	%rbx, %rax
 6095 2ac2 4889C7   		movq	%rax, %rdi
 6096              	.LEHB145:
 6097 2ac5 E8000000 		call	_Unwind_Resume
 6097      00
 6098              	.LEHE145:
 6099              	.L300:
 6100 2aca 488B45E8 		movq	-24(%rbp), %rax
 6101 2ace 64483304 		xorq	%fs:40, %rax
 6101      25280000 
 6101      00
 6102 2ad7 7405     		je	.L312
 6103 2ad9 E8000000 		call	__stack_chk_fail
 6103      00
 6104              	.L312:
 6105 2ade 4881C4F0 		addq	$496, %rsp
 6105      010000
 6106 2ae5 5B       		popq	%rbx
 6107 2ae6 415C     		popq	%r12
 6108 2ae8 5D       		popq	%rbp
 6109              		.cfi_def_cfa 7, 8
 6110 2ae9 C3       		ret
 6111              		.cfi_endproc
 6112              	.LFE1205:
 6113              		.section	.gcc_except_table
 6114              		.align 4
 6115              	.LLSDA1205:
 6116 03b4 FF       		.byte	0xff
 6117 03b5 03       		.byte	0x3
 6118 03b6 45       		.uleb128 .LLSDATT1205-.LLSDATTD1205
 6119              	.LLSDATTD1205:
 6120 03b7 01       		.byte	0x1
 6121 03b8 31       		.uleb128 .LLSDACSE1205-.LLSDACSB1205
 6122              	.LLSDACSB1205:
 6123 03b9 43       		.uleb128 .LEHB137-.LFB1205
 6124 03ba 29       		.uleb128 .LEHE137-.LEHB137
 6125 03bb 71       		.uleb128 .L313-.LFB1205
 6126 03bc 05       		.uleb128 0x5
 6127 03bd BF01     		.uleb128 .LEHB138-.LFB1205
 6128 03bf 5F       		.uleb128 .LEHE138-.LEHB138
 6129 03c0 ED04     		.uleb128 .L314-.LFB1205
 6130 03c2 00       		.uleb128 0
 6131 03c3 C102     		.uleb128 .LEHB139-.LFB1205
 6132 03c5 05       		.uleb128 .LEHE139-.LEHB139
 6133 03c6 9405     		.uleb128 .L315-.LFB1205
 6134 03c8 00       		.uleb128 0
 6135 03c9 F502     		.uleb128 .LEHB140-.LFB1205
 6136 03cb 43       		.uleb128 .LEHE140-.LEHB140
 6137 03cc 8005     		.uleb128 .L316-.LFB1205
 6138 03ce 00       		.uleb128 0
 6139 03cf C203     		.uleb128 .LEHB141-.LFB1205
 6140 03d1 05       		.uleb128 .LEHE141-.LEHB141
 6141 03d2 9405     		.uleb128 .L315-.LFB1205
 6142 03d4 00       		.uleb128 0
 6143 03d5 FF03     		.uleb128 .LEHB142-.LFB1205
 6144 03d7 67       		.uleb128 .LEHE142-.LEHB142
 6145 03d8 A705     		.uleb128 .L317-.LFB1205
 6146 03da 00       		.uleb128 0
 6147 03db E604     		.uleb128 .LEHB143-.LFB1205
 6148 03dd 1A       		.uleb128 .LEHE143-.LEHB143
 6149 03de 00       		.uleb128 0
 6150 03df 00       		.uleb128 0
 6151 03e0 A205     		.uleb128 .LEHB144-.LFB1205
 6152 03e2 05       		.uleb128 .LEHE144-.LEHB144
 6153 03e3 00       		.uleb128 0
 6154 03e4 00       		.uleb128 0
 6155 03e5 B505     		.uleb128 .LEHB145-.LFB1205
 6156 03e7 05       		.uleb128 .LEHE145-.LEHB145
 6157 03e8 00       		.uleb128 0
 6158 03e9 00       		.uleb128 0
 6159              	.LLSDACSE1205:
 6160 03ea 03       		.byte	0x3
 6161 03eb 00       		.byte	0
 6162 03ec 02       		.byte	0x2
 6163 03ed 7D       		.byte	0x7d
 6164 03ee 01       		.byte	0x1
 6165 03ef 7D       		.byte	0x7d
 6166              		.align 4
 6167 03f0 00000000 		.long	0
 6168              	
 6169 03f4 00000000 		.long	_ZTISt9exception
 6170 03f8 00000000 		.long	_ZTIN8UnitTest15AssertExceptionE
 6171              	.LLSDATT1205:
 6172              		.text
 6174              		.align 2
 6176              	_ZN12_GLOBAL__N_159FixtureCtorAssertsCorrectlyReportsAssertFailureInCtorHelper7RunImplEv:
 6177              	.LFB1206:
 170:TestTestMacros.cpp **** {
 6178              		.loc 6 170 0 is_stmt 1
 6179              		.cfi_startproc
 6180 2aea 55       		pushq	%rbp
 6181              		.cfi_def_cfa_offset 16
 6182              		.cfi_offset 6, -16
 6183 2aeb 4889E5   		movq	%rsp, %rbp
 6184              		.cfi_def_cfa_register 6
 6185 2aee 48897DF8 		movq	%rdi, -8(%rbp)
 171:TestTestMacros.cpp **** }
 6186              		.loc 6 171 0
 6187 2af2 90       		nop
 6188 2af3 5D       		popq	%rbp
 6189              		.cfi_def_cfa 7, 8
 6190 2af4 C3       		ret
 6191              		.cfi_endproc
 6192              	.LFE1206:
 6194              		.section	.rodata
 6195 0c8a 00000000 		.align 8
 6195      0000
 6196              	.LC67:
 6197 0c90 436F7272 		.string	"CorrectlyReportsFixturesWithCtorsThatAssert"
 6197      6563746C 
 6197      79526570 
 6197      6F727473 
 6197      46697874 
 6198              		.text
 6199 2af5 90       		.align 2
 6201              	_ZN12_GLOBAL__N_147TestCorrectlyReportsFixturesWithCtorsThatAssertC2Ev:
 6202              	.LFB1208:
 172:TestTestMacros.cpp **** 
 173:TestTestMacros.cpp **** TEST(CorrectlyReportsFixturesWithCtorsThatAssert)
 6203              		.loc 6 173 0
 6204              		.cfi_startproc
 6205 2af6 55       		pushq	%rbp
 6206              		.cfi_def_cfa_offset 16
 6207              		.cfi_offset 6, -16
 6208 2af7 4889E5   		movq	%rsp, %rbp
 6209              		.cfi_def_cfa_register 6
 6210 2afa 4883EC10 		subq	$16, %rsp
 6211 2afe 48897DF8 		movq	%rdi, -8(%rbp)
 6212              	.LBB93:
 6213              		.loc 6 173 0
 6214 2b02 E8000000 		call	_ZN13UnitTestSuite12GetSuiteNameEv
 6214      00
 6215 2b07 4889C2   		movq	%rax, %rdx
 6216 2b0a 488B45F8 		movq	-8(%rbp), %rax
 6217 2b0e 41B8AD00 		movl	$173, %r8d
 6217      0000
 6218 2b14 B9000000 		movl	$.LC2, %ecx
 6218      00
 6219 2b19 BE000000 		movl	$.LC67, %esi
 6219      00
 6220 2b1e 4889C7   		movq	%rax, %rdi
 6221 2b21 E8000000 		call	_ZN8UnitTest4TestC2EPKcS2_S2_i
 6221      00
 6222 2b26 BA000000 		movl	$_ZTVN12_GLOBAL__N_147TestCorrectlyReportsFixturesWithCtorsThatAssertE+16, %edx
 6222      00
 6223 2b2b 488B45F8 		movq	-8(%rbp), %rax
 6224 2b2f 488910   		movq	%rdx, (%rax)
 6225              	.LBE93:
 6226 2b32 90       		nop
 6227 2b33 C9       		leave
 6228              		.cfi_def_cfa 7, 8
 6229 2b34 C3       		ret
 6230              		.cfi_endproc
 6231              	.LFE1208:
 6233              		.set	_ZN12_GLOBAL__N_147TestCorrectlyReportsFixturesWithCtorsThatAssertC1Ev,_ZN12_GLOBAL__N_147Tes
 6234              		.local	_ZN12_GLOBAL__N_155testCorrectlyReportsFixturesWithCtorsThatAssertInstanceE
 6235              		.comm	_ZN12_GLOBAL__N_155testCorrectlyReportsFixturesWithCtorsThatAssertInstanceE,56,32
 6236              		.local	_ZN12_GLOBAL__N_148adderCorrectlyReportsFixturesWithCtorsThatAssertE
 6237              		.comm	_ZN12_GLOBAL__N_148adderCorrectlyReportsFixturesWithCtorsThatAssertE,1,1
 6238              		.section	.rodata
 6239 0cbc 00000000 		.align 8
 6240              	.LC68:
 6241 0cc0 73747273 		.string	"strstr(reporter.lastFailedMessage, \"assert failure\")"
 6241      74722872 
 6241      65706F72 
 6241      7465722E 
 6241      6C617374 
 6242 0cf5 000000   		.align 8
 6243              	.LC69:
 6244 0cf8 556E6861 		.string	"Unhandled exception in CHECK_EQUAL(FailingLine, reporter.lastFailedLine)"
 6244      6E646C65 
 6244      64206578 
 6244      63657074 
 6244      696F6E20 
 6245 0d41 00000000 		.align 8
 6245      000000
 6246              	.LC70:
 6247 0d48 556E6861 		.string	"Unhandled exception in CHECK(strstr(reporter.lastFailedMessage, \"assert failure\"))"
 6247      6E646C65 
 6247      64206578 
 6247      63657074 
 6247      696F6E20 
 6248              		.text
 6249 2b35 90       		.align 2
 6251              	_ZNK12_GLOBAL__N_147TestCorrectlyReportsFixturesWithCtorsThatAssert7RunImplEv:
 6252              	.LFB1210:
 174:TestTestMacros.cpp **** {
 6253              		.loc 6 174 0
 6254              		.cfi_startproc
 6255              		.cfi_personality 0x3,__gxx_personality_v0
 6256              		.cfi_lsda 0x3,.LLSDA1210
 6257 2b36 55       		pushq	%rbp
 6258              		.cfi_def_cfa_offset 16
 6259              		.cfi_offset 6, -16
 6260 2b37 4889E5   		movq	%rsp, %rbp
 6261              		.cfi_def_cfa_register 6
 6262 2b3a 53       		pushq	%rbx
 6263 2b3b 4881ECA8 		subq	$2216, %rsp
 6263      080000
 6264              		.cfi_offset 3, -24
 6265 2b42 4889BD58 		movq	%rdi, -2216(%rbp)
 6265      F7FFFF
 6266              		.loc 6 174 0
 6267 2b49 64488B04 		movq	%fs:40, %rax
 6267      25280000 
 6267      00
 6268 2b52 488945E8 		movq	%rax, -24(%rbp)
 6269 2b56 31C0     		xorl	%eax, %eax
 175:TestTestMacros.cpp **** 	RecordingReporter reporter;
 6270              		.loc 6 175 0
 6271 2b58 488D85B0 		leaq	-2128(%rbp), %rax
 6271      F7FFFF
 6272 2b5f 4889C7   		movq	%rax, %rdi
 6273 2b62 E8000000 		call	_ZN17RecordingReporterC1Ev
 6273      00
 176:TestTestMacros.cpp **** 	TestResults result(&reporter);
 6274              		.loc 6 176 0
 6275 2b67 488D95B0 		leaq	-2128(%rbp), %rdx
 6275      F7FFFF
 6276 2b6e 488D8570 		leaq	-2192(%rbp), %rax
 6276      F7FFFF
 6277 2b75 4889D6   		movq	%rdx, %rsi
 6278 2b78 4889C7   		movq	%rax, %rdi
 6279              	.LEHB146:
 6280 2b7b E8000000 		call	_ZN8UnitTest11TestResultsC1EPNS_12TestReporterE
 6280      00
 6281              	.LBB94:
 177:TestTestMacros.cpp **** 	{
 178:TestTestMacros.cpp **** 		ScopedCurrentTest scopedResults(result);
 6282              		.loc 6 178 0
 6283 2b80 488D8D70 		leaq	-2192(%rbp), %rcx
 6283      F7FFFF
 6284 2b87 488D8590 		leaq	-2160(%rbp), %rax
 6284      F7FFFF
 6285 2b8e BA000000 		movl	$0, %edx
 6285      00
 6286 2b93 4889CE   		movq	%rcx, %rsi
 6287 2b96 4889C7   		movq	%rax, %rdi
 6288 2b99 E8000000 		call	_ZN17ScopedCurrentTestC1ERN8UnitTest11TestResultsEPKNS0_11TestDetailsE
 6288      00
 6289              	.LEHE146:
 179:TestTestMacros.cpp **** 		ctorAssertFixtureTestList.GetHead()->Run();
 6290              		.loc 6 179 0
 6291 2b9e BF000000 		movl	$_ZN12_GLOBAL__N_125ctorAssertFixtureTestListE, %edi
 6291      00
 6292              	.LEHB147:
 6293 2ba3 E8000000 		call	_ZNK8UnitTest8TestList7GetHeadEv
 6293      00
 6294 2ba8 4889C7   		movq	%rax, %rdi
 6295 2bab E8000000 		call	_ZN8UnitTest4Test3RunEv
 6295      00
 6296              	.LEHE147:
 178:TestTestMacros.cpp **** 		ctorAssertFixtureTestList.GetHead()->Run();
 6297              		.loc 6 178 0
 6298 2bb0 488D8590 		leaq	-2160(%rbp), %rax
 6298      F7FFFF
 6299 2bb7 4889C7   		movq	%rax, %rdi
 6300              	.LEHB148:
 6301 2bba E8000000 		call	_ZN17ScopedCurrentTestD1Ev
 6301      00
 6302              	.LBE94:
 180:TestTestMacros.cpp **** 	}
 181:TestTestMacros.cpp **** 
 182:TestTestMacros.cpp **** 	const int failureCount = result.GetFailedTestCount();
 6303              		.loc 6 182 0
 6304 2bbf 488D8570 		leaq	-2192(%rbp), %rax
 6304      F7FFFF
 6305 2bc6 4889C7   		movq	%rax, %rdi
 6306 2bc9 E8000000 		call	_ZNK8UnitTest11TestResults18GetFailedTestCountEv
 6306      00
 6307              	.LEHE148:
 6308 2bce 898568F7 		movl	%eax, -2200(%rbp)
 6308      FFFF
 6309              	.LEHB149:
 183:TestTestMacros.cpp **** 	CHECK_EQUAL(1, failureCount);
 6310              		.loc 6 183 0
 6311 2bd4 E8000000 		call	_ZN8UnitTest11CurrentTest7DetailsEv
 6311      00
 6312              		.loc 6 183 0 is_stmt 0 discriminator 1
 6313 2bd9 488B08   		movq	(%rax), %rcx
 6314 2bdc 488D8590 		leaq	-2160(%rbp), %rax
 6314      F7FFFF
 6315 2be3 BAB70000 		movl	$183, %edx
 6315      00
 6316 2be8 4889CE   		movq	%rcx, %rsi
 6317 2beb 4889C7   		movq	%rax, %rdi
 6318 2bee E8000000 		call	_ZN8UnitTest11TestDetailsC1ERKS0_i
 6318      00
 6319              	.LEHE149:
 6320              		.loc 6 183 0 discriminator 2
 6321 2bf3 C7856CF7 		movl	$1, -2196(%rbp)
 6321      FFFF0100 
 6321      0000
 6322              	.LEHB150:
 6323 2bfd E8000000 		call	_ZN8UnitTest11CurrentTest7ResultsEv
 6323      00
 6324 2c02 488B00   		movq	(%rax), %rax
 6325 2c05 488D8D90 		leaq	-2160(%rbp), %rcx
 6325      F7FFFF
 6326 2c0c 488D9568 		leaq	-2200(%rbp), %rdx
 6326      F7FFFF
 6327 2c13 488DB56C 		leaq	-2196(%rbp), %rsi
 6327      F7FFFF
 6328 2c1a 4889C7   		movq	%rax, %rdi
 6329 2c1d E8000000 		call	_ZN8UnitTest10CheckEqualIiiEEvRNS_11TestResultsERKT_RKT0_RKNS_11TestDetailsE
 6329      00
 6330              	.LEHE150:
 6331              	.L327:
 6332              	.LEHB151:
 184:TestTestMacros.cpp **** 	CHECK_EQUAL(FailingLine, reporter.lastFailedLine);
 6333              		.loc 6 184 0 is_stmt 1
 6334 2c22 E8000000 		call	_ZN8UnitTest11CurrentTest7DetailsEv
 6334      00
 6335 2c27 488B08   		movq	(%rax), %rcx
 6336 2c2a 488D8590 		leaq	-2160(%rbp), %rax
 6336      F7FFFF
 6337 2c31 BAB80000 		movl	$184, %edx
 6337      00
 6338 2c36 4889CE   		movq	%rcx, %rsi
 6339 2c39 4889C7   		movq	%rax, %rdi
 6340 2c3c E8000000 		call	_ZN8UnitTest11TestDetailsC1ERKS0_i
 6340      00
 6341              		.loc 6 184 0 is_stmt 0 discriminator 2
 6342 2c41 E8000000 		call	_ZN8UnitTest11CurrentTest7ResultsEv
 6342      00
 6343 2c46 488B00   		movq	(%rax), %rax
 6344 2c49 488D9590 		leaq	-2160(%rbp), %rdx
 6344      F7FFFF
 6345 2c50 488D8DB0 		leaq	-2128(%rbp), %rcx
 6345      F7FFFF
 6346 2c57 488DB110 		leaq	784(%rcx), %rsi
 6346      030000
 6347 2c5e 4889D1   		movq	%rdx, %rcx
 6348 2c61 4889F2   		movq	%rsi, %rdx
 6349 2c64 BE000000 		movl	$_ZN12_GLOBAL__N_1L11FailingLineE, %esi
 6349      00
 6350 2c69 4889C7   		movq	%rax, %rdi
 6351 2c6c E8000000 		call	_ZN8UnitTest10CheckEqualIiiEEvRNS_11TestResultsERKT_RKT0_RKNS_11TestDetailsE
 6351      00
 6352              	.LEHE151:
 6353              	.L330:
 185:TestTestMacros.cpp **** 	CHECK(strstr(reporter.lastFailedMessage, "assert failure"));
 6354              		.loc 6 185 0 is_stmt 1
 6355 2c71 488D85B0 		leaq	-2128(%rbp), %rax
 6355      F7FFFF
 6356 2c78 48051405 		addq	$1300, %rax
 6356      0000
 6357 2c7e BE000000 		movl	$.LC63, %esi
 6357      00
 6358 2c83 4889C7   		movq	%rax, %rdi
 6359 2c86 E8000000 		call	strstr
 6359      00
 6360 2c8b 4889C7   		movq	%rax, %rdi
 6361 2c8e E8000000 		call	_ZN8UnitTest5CheckIPcEEbT_
 6361      00
 6362 2c93 83F001   		xorl	$1, %eax
 6363 2c96 84C0     		testb	%al, %al
 6364 2c98 743E     		je	.L322
 6365              	.LEHB152:
 6366              		.loc 6 185 0 is_stmt 0 discriminator 1
 6367 2c9a E8000000 		call	_ZN8UnitTest11CurrentTest7DetailsEv
 6367      00
 6368 2c9f 488B08   		movq	(%rax), %rcx
 6369 2ca2 488D8590 		leaq	-2160(%rbp), %rax
 6369      F7FFFF
 6370 2ca9 BAB90000 		movl	$185, %edx
 6370      00
 6371 2cae 4889CE   		movq	%rcx, %rsi
 6372 2cb1 4889C7   		movq	%rax, %rdi
 6373 2cb4 E8000000 		call	_ZN8UnitTest11TestDetailsC1ERKS0_i
 6373      00
 6374              		.loc 6 185 0 discriminator 3
 6375 2cb9 E8000000 		call	_ZN8UnitTest11CurrentTest7ResultsEv
 6375      00
 6376 2cbe 488B00   		movq	(%rax), %rax
 6377 2cc1 488D8D90 		leaq	-2160(%rbp), %rcx
 6377      F7FFFF
 6378 2cc8 BA000000 		movl	$.LC68, %edx
 6378      00
 6379 2ccd 4889CE   		movq	%rcx, %rsi
 6380 2cd0 4889C7   		movq	%rax, %rdi
 6381 2cd3 E8000000 		call	_ZN8UnitTest11TestResults13OnTestFailureERKNS_11TestDetailsEPKc
 6381      00
 6382              	.LEHE152:
 6383              	.L322:
 175:TestTestMacros.cpp **** 	TestResults result(&reporter);
 6384              		.loc 6 175 0 is_stmt 1
 6385 2cd8 488D85B0 		leaq	-2128(%rbp), %rax
 6385      F7FFFF
 6386 2cdf 4889C7   		movq	%rax, %rdi
 6387              	.LEHB153:
 6388 2ce2 E8000000 		call	_ZN17RecordingReporterD1Ev
 6388      00
 6389              	.LEHE153:
 186:TestTestMacros.cpp **** }
 6390              		.loc 6 186 0
 6391 2ce7 90       		nop
 6392 2ce8 488B45E8 		movq	-24(%rbp), %rax
 6393 2cec 64483304 		xorq	%fs:40, %rax
 6393      25280000 
 6393      00
 6394 2cf5 0F845101 		je	.L334
 6394      0000
 6395 2cfb E9470100 		jmp	.L344
 6395      00
 6396              	.L336:
 6397 2d00 4889C3   		movq	%rax, %rbx
 6398              	.LBB95:
 178:TestTestMacros.cpp **** 		ctorAssertFixtureTestList.GetHead()->Run();
 6399              		.loc 6 178 0
 6400 2d03 488D8590 		leaq	-2160(%rbp), %rax
 6400      F7FFFF
 6401 2d0a 4889C7   		movq	%rax, %rdi
 6402 2d0d E8000000 		call	_ZN17ScopedCurrentTestD1Ev
 6402      00
 6403 2d12 E9160100 		jmp	.L324
 6403      00
 6404              	.L338:
 6405 2d17 EB00     		jmp	.L326
 6406              	.L337:
 6407              	.L326:
 6408              	.LBE95:
 183:TestTestMacros.cpp **** 	CHECK_EQUAL(FailingLine, reporter.lastFailedLine);
 6409              		.loc 6 183 0
 6410 2d19 4889C7   		movq	%rax, %rdi
 6411 2d1c E8000000 		call	__cxa_begin_catch
 6411      00
 6412              	.LEHB154:
 6413 2d21 E8000000 		call	_ZN8UnitTest11CurrentTest7DetailsEv
 6413      00
 6414 2d26 488B08   		movq	(%rax), %rcx
 6415 2d29 488D8590 		leaq	-2160(%rbp), %rax
 6415      F7FFFF
 6416 2d30 BAB70000 		movl	$183, %edx
 6416      00
 6417 2d35 4889CE   		movq	%rcx, %rsi
 6418 2d38 4889C7   		movq	%rax, %rdi
 6419 2d3b E8000000 		call	_ZN8UnitTest11TestDetailsC1ERKS0_i
 6419      00
 183:TestTestMacros.cpp **** 	CHECK_EQUAL(FailingLine, reporter.lastFailedLine);
 6420              		.loc 6 183 0 is_stmt 0 discriminator 10
 6421 2d40 E8000000 		call	_ZN8UnitTest11CurrentTest7ResultsEv
 6421      00
 6422 2d45 488B00   		movq	(%rax), %rax
 6423 2d48 488D8D90 		leaq	-2160(%rbp), %rcx
 6423      F7FFFF
 6424 2d4f BA000000 		movl	$.LC51, %edx
 6424      00
 6425 2d54 4889CE   		movq	%rcx, %rsi
 6426 2d57 4889C7   		movq	%rax, %rdi
 6427 2d5a E8000000 		call	_ZN8UnitTest11TestResults13OnTestFailureERKNS_11TestDetailsEPKc
 6427      00
 6428              	.LEHE154:
 6429              	.LEHB155:
 183:TestTestMacros.cpp **** 	CHECK_EQUAL(FailingLine, reporter.lastFailedLine);
 6430              		.loc 6 183 0 discriminator 14
 6431 2d5f E8000000 		call	__cxa_end_catch
 6431      00
 6432              	.LEHE155:
 183:TestTestMacros.cpp **** 	CHECK_EQUAL(FailingLine, reporter.lastFailedLine);
 6433              		.loc 6 183 0
 6434 2d64 E9B9FEFF 		jmp	.L327
 6434      FF
 6435              	.L339:
 6436 2d69 4889C3   		movq	%rax, %rbx
 6437 2d6c E8000000 		call	__cxa_end_catch
 6437      00
 6438 2d71 E9B70000 		jmp	.L324
 6438      00
 6439              	.L340:
 184:TestTestMacros.cpp **** 	CHECK(strstr(reporter.lastFailedMessage, "assert failure"));
 6440              		.loc 6 184 0 is_stmt 1
 6441 2d76 4889C7   		movq	%rax, %rdi
 6442 2d79 E8000000 		call	__cxa_begin_catch
 6442      00
 6443              	.LEHB156:
 6444 2d7e E8000000 		call	_ZN8UnitTest11CurrentTest7DetailsEv
 6444      00
 6445 2d83 488B08   		movq	(%rax), %rcx
 6446 2d86 488D8590 		leaq	-2160(%rbp), %rax
 6446      F7FFFF
 6447 2d8d BAB80000 		movl	$184, %edx
 6447      00
 6448 2d92 4889CE   		movq	%rcx, %rsi
 6449 2d95 4889C7   		movq	%rax, %rdi
 6450 2d98 E8000000 		call	_ZN8UnitTest11TestDetailsC1ERKS0_i
 6450      00
 184:TestTestMacros.cpp **** 	CHECK(strstr(reporter.lastFailedMessage, "assert failure"));
 6451              		.loc 6 184 0 is_stmt 0 discriminator 10
 6452 2d9d E8000000 		call	_ZN8UnitTest11CurrentTest7ResultsEv
 6452      00
 6453 2da2 488B00   		movq	(%rax), %rax
 6454 2da5 488D8D90 		leaq	-2160(%rbp), %rcx
 6454      F7FFFF
 6455 2dac BA000000 		movl	$.LC69, %edx
 6455      00
 6456 2db1 4889CE   		movq	%rcx, %rsi
 6457 2db4 4889C7   		movq	%rax, %rdi
 6458 2db7 E8000000 		call	_ZN8UnitTest11TestResults13OnTestFailureERKNS_11TestDetailsEPKc
 6458      00
 6459              	.LEHE156:
 6460              	.LEHB157:
 184:TestTestMacros.cpp **** 	CHECK(strstr(reporter.lastFailedMessage, "assert failure"));
 6461              		.loc 6 184 0 discriminator 14
 6462 2dbc E8000000 		call	__cxa_end_catch
 6462      00
 6463              	.LEHE157:
 184:TestTestMacros.cpp **** 	CHECK(strstr(reporter.lastFailedMessage, "assert failure"));
 6464              		.loc 6 184 0
 6465 2dc1 E9ABFEFF 		jmp	.L330
 6465      FF
 6466              	.L341:
 6467 2dc6 4889C3   		movq	%rax, %rbx
 6468 2dc9 E8000000 		call	__cxa_end_catch
 6468      00
 6469 2dce EB5D     		jmp	.L324
 6470              	.L342:
 185:TestTestMacros.cpp **** }
 6471              		.loc 6 185 0 is_stmt 1
 6472 2dd0 4889C7   		movq	%rax, %rdi
 6473 2dd3 E8000000 		call	__cxa_begin_catch
 6473      00
 6474              	.LEHB158:
 6475 2dd8 E8000000 		call	_ZN8UnitTest11CurrentTest7DetailsEv
 6475      00
 6476 2ddd 488B08   		movq	(%rax), %rcx
 6477 2de0 488D8590 		leaq	-2160(%rbp), %rax
 6477      F7FFFF
 6478 2de7 BAB90000 		movl	$185, %edx
 6478      00
 6479 2dec 4889CE   		movq	%rcx, %rsi
 6480 2def 4889C7   		movq	%rax, %rdi
 6481 2df2 E8000000 		call	_ZN8UnitTest11TestDetailsC1ERKS0_i
 6481      00
 185:TestTestMacros.cpp **** }
 6482              		.loc 6 185 0 is_stmt 0 discriminator 11
 6483 2df7 E8000000 		call	_ZN8UnitTest11CurrentTest7ResultsEv
 6483      00
 6484 2dfc 488B00   		movq	(%rax), %rax
 6485 2dff 488D8D90 		leaq	-2160(%rbp), %rcx
 6485      F7FFFF
 6486 2e06 BA000000 		movl	$.LC70, %edx
 6486      00
 6487 2e0b 4889CE   		movq	%rcx, %rsi
 6488 2e0e 4889C7   		movq	%rax, %rdi
 6489 2e11 E8000000 		call	_ZN8UnitTest11TestResults13OnTestFailureERKNS_11TestDetailsEPKc
 6489      00
 6490              	.LEHE158:
 6491              	.LEHB159:
 185:TestTestMacros.cpp **** }
 6492              		.loc 6 185 0 discriminator 15
 6493 2e16 E8000000 		call	__cxa_end_catch
 6493      00
 6494              	.LEHE159:
 185:TestTestMacros.cpp **** }
 6495              		.loc 6 185 0
 6496 2e1b E9B8FEFF 		jmp	.L322
 6496      FF
 6497              	.L343:
 6498 2e20 4889C3   		movq	%rax, %rbx
 6499 2e23 E8000000 		call	__cxa_end_catch
 6499      00
 6500 2e28 EB03     		jmp	.L324
 6501              	.L335:
 6502 2e2a 4889C3   		movq	%rax, %rbx
 6503              	.L324:
 175:TestTestMacros.cpp **** 	TestResults result(&reporter);
 6504              		.loc 6 175 0 is_stmt 1
 6505 2e2d 488D85B0 		leaq	-2128(%rbp), %rax
 6505      F7FFFF
 6506 2e34 4889C7   		movq	%rax, %rdi
 6507 2e37 E8000000 		call	_ZN17RecordingReporterD1Ev
 6507      00
 6508 2e3c 4889D8   		movq	%rbx, %rax
 6509 2e3f 4889C7   		movq	%rax, %rdi
 6510              	.LEHB160:
 6511 2e42 E8000000 		call	_Unwind_Resume
 6511      00
 6512              	.LEHE160:
 6513              	.L344:
 6514              		.loc 6 186 0
 6515 2e47 E8000000 		call	__stack_chk_fail
 6515      00
 6516              	.L334:
 6517 2e4c 4881C4A8 		addq	$2216, %rsp
 6517      080000
 6518 2e53 5B       		popq	%rbx
 6519 2e54 5D       		popq	%rbp
 6520              		.cfi_def_cfa 7, 8
 6521 2e55 C3       		ret
 6522              		.cfi_endproc
 6523              	.LFE1210:
 6524              		.section	.gcc_except_table
 6525              		.align 4
 6526              	.LLSDA1210:
 6527 03fc FF       		.byte	0xff
 6528 03fd 03       		.byte	0x3
 6529 03fe 61       		.uleb128 .LLSDATT1210-.LLSDATTD1210
 6530              	.LLSDATTD1210:
 6531 03ff 01       		.byte	0x1
 6532 0400 56       		.uleb128 .LLSDACSE1210-.LLSDACSB1210
 6533              	.LLSDACSB1210:
 6534 0401 45       		.uleb128 .LEHB146-.LFB1210
 6535 0402 23       		.uleb128 .LEHE146-.LEHB146
 6536 0403 F405     		.uleb128 .L335-.LFB1210
 6537 0405 00       		.uleb128 0
 6538 0406 6D       		.uleb128 .LEHB147-.LFB1210
 6539 0407 0D       		.uleb128 .LEHE147-.LEHB147
 6540 0408 CA03     		.uleb128 .L336-.LFB1210
 6541 040a 00       		.uleb128 0
 6542 040b 8401     		.uleb128 .LEHB148-.LFB1210
 6543 040d 14       		.uleb128 .LEHE148-.LEHB148
 6544 040e F405     		.uleb128 .L335-.LFB1210
 6545 0410 00       		.uleb128 0
 6546 0411 9E01     		.uleb128 .LEHB149-.LFB1210
 6547 0413 1F       		.uleb128 .LEHE149-.LEHB149
 6548 0414 E303     		.uleb128 .L337-.LFB1210
 6549 0416 01       		.uleb128 0x1
 6550 0417 C701     		.uleb128 .LEHB150-.LFB1210
 6551 0419 25       		.uleb128 .LEHE150-.LEHB150
 6552 041a E103     		.uleb128 .L338-.LFB1210
 6553 041c 01       		.uleb128 0x1
 6554 041d EC01     		.uleb128 .LEHB151-.LFB1210
 6555 041f 4F       		.uleb128 .LEHE151-.LEHB151
 6556 0420 C004     		.uleb128 .L340-.LFB1210
 6557 0422 01       		.uleb128 0x1
 6558 0423 E402     		.uleb128 .LEHB152-.LFB1210
 6559 0425 3E       		.uleb128 .LEHE152-.LEHB152
 6560 0426 9A05     		.uleb128 .L342-.LFB1210
 6561 0428 01       		.uleb128 0x1
 6562 0429 AC03     		.uleb128 .LEHB153-.LFB1210
 6563 042b 05       		.uleb128 .LEHE153-.LEHB153
 6564 042c 00       		.uleb128 0
 6565 042d 00       		.uleb128 0
 6566 042e EB03     		.uleb128 .LEHB154-.LFB1210
 6567 0430 3E       		.uleb128 .LEHE154-.LEHB154
 6568 0431 B304     		.uleb128 .L339-.LFB1210
 6569 0433 00       		.uleb128 0
 6570 0434 A904     		.uleb128 .LEHB155-.LFB1210
 6571 0436 05       		.uleb128 .LEHE155-.LEHB155
 6572 0437 F405     		.uleb128 .L335-.LFB1210
 6573 0439 00       		.uleb128 0
 6574 043a C804     		.uleb128 .LEHB156-.LFB1210
 6575 043c 3E       		.uleb128 .LEHE156-.LEHB156
 6576 043d 9005     		.uleb128 .L341-.LFB1210
 6577 043f 00       		.uleb128 0
 6578 0440 8605     		.uleb128 .LEHB157-.LFB1210
 6579 0442 05       		.uleb128 .LEHE157-.LEHB157
 6580 0443 F405     		.uleb128 .L335-.LFB1210
 6581 0445 00       		.uleb128 0
 6582 0446 A205     		.uleb128 .LEHB158-.LFB1210
 6583 0448 3E       		.uleb128 .LEHE158-.LEHB158
 6584 0449 EA05     		.uleb128 .L343-.LFB1210
 6585 044b 00       		.uleb128 0
 6586 044c E005     		.uleb128 .LEHB159-.LFB1210
 6587 044e 05       		.uleb128 .LEHE159-.LEHB159
 6588 044f F405     		.uleb128 .L335-.LFB1210
 6589 0451 00       		.uleb128 0
 6590 0452 8C06     		.uleb128 .LEHB160-.LFB1210
 6591 0454 05       		.uleb128 .LEHE160-.LEHB160
 6592 0455 00       		.uleb128 0
 6593 0456 00       		.uleb128 0
 6594              	.LLSDACSE1210:
 6595 0457 01       		.byte	0x1
 6596 0458 00       		.byte	0
 6597 0459 000000   		.align 4
 6598 045c 00000000 		.long	0
 6599              	
 6600              	.LLSDATT1210:
 6601              		.text
 6603              		.section	.rodata
 6604              	.LC71:
 6605 0d9b 53616D65 		.string	"SameTestSuite"
 6605      54657374 
 6605      53756974 
 6605      6500
 6606              		.section	.text._ZN18SuiteSameTestSuite13UnitTestSuite12GetSuiteNameEv,"axG",@progbits,_ZN18SuiteSa
 6607              		.weak	_ZN18SuiteSameTestSuite13UnitTestSuite12GetSuiteNameEv
 6609              	_ZN18SuiteSameTestSuite13UnitTestSuite12GetSuiteNameEv:
 6610              	.LFB1211:
 187:TestTestMacros.cpp **** 
 188:TestTestMacros.cpp **** }
 189:TestTestMacros.cpp **** 
 190:TestTestMacros.cpp **** // We're really testing if it's possible to use the same suite in two files
 191:TestTestMacros.cpp **** // to compile and link successfuly (TestTestSuite.cpp has suite with the same name)
 192:TestTestMacros.cpp **** // Note: we are outside of the anonymous namespace
 193:TestTestMacros.cpp **** SUITE(SameTestSuite)
 6611              		.loc 6 193 0
 6612              		.cfi_startproc
 6613 0000 55       		pushq	%rbp
 6614              		.cfi_def_cfa_offset 16
 6615              		.cfi_offset 6, -16
 6616 0001 4889E5   		movq	%rsp, %rbp
 6617              		.cfi_def_cfa_register 6
 6618              		.loc 6 193 0
 6619 0004 B8000000 		movl	$.LC71, %eax
 6619      00
 6620 0009 5D       		popq	%rbp
 6621              		.cfi_def_cfa 7, 8
 6622 000a C3       		ret
 6623              		.cfi_endproc
 6624              	.LFE1211:
 6626              		.section	.rodata
 6627              	.LC72:
 6628 0da9 44756D6D 		.string	"DummyTest1"
 6628      79546573 
 6628      743100
 6629              		.section	.text._ZN18SuiteSameTestSuite14TestDummyTest1C2Ev,"axG",@progbits,_ZN18SuiteSameTestSuite
 6630              		.align 2
 6631              		.weak	_ZN18SuiteSameTestSuite14TestDummyTest1C2Ev
 6633              	_ZN18SuiteSameTestSuite14TestDummyTest1C2Ev:
 6634              	.LFB1213:
 194:TestTestMacros.cpp **** {
 195:TestTestMacros.cpp **** 	TEST(DummyTest1)
 6635              		.loc 6 195 0
 6636              		.cfi_startproc
 6637 0000 55       		pushq	%rbp
 6638              		.cfi_def_cfa_offset 16
 6639              		.cfi_offset 6, -16
 6640 0001 4889E5   		movq	%rsp, %rbp
 6641              		.cfi_def_cfa_register 6
 6642 0004 4883EC10 		subq	$16, %rsp
 6643 0008 48897DF8 		movq	%rdi, -8(%rbp)
 6644              	.LBB96:
 6645              		.loc 6 195 0
 6646 000c E8000000 		call	_ZN18SuiteSameTestSuite13UnitTestSuite12GetSuiteNameEv
 6646      00
 6647 0011 4889C2   		movq	%rax, %rdx
 6648 0014 488B45F8 		movq	-8(%rbp), %rax
 6649 0018 41B8C300 		movl	$195, %r8d
 6649      0000
 6650 001e B9000000 		movl	$.LC2, %ecx
 6650      00
 6651 0023 BE000000 		movl	$.LC72, %esi
 6651      00
 6652 0028 4889C7   		movq	%rax, %rdi
 6653 002b E8000000 		call	_ZN8UnitTest4TestC2EPKcS2_S2_i
 6653      00
 6654 0030 BA000000 		movl	$_ZTVN18SuiteSameTestSuite14TestDummyTest1E+16, %edx
 6654      00
 6655 0035 488B45F8 		movq	-8(%rbp), %rax
 6656 0039 488910   		movq	%rdx, (%rax)
 6657              	.LBE96:
 6658 003c 90       		nop
 6659 003d C9       		leave
 6660              		.cfi_def_cfa 7, 8
 6661 003e C3       		ret
 6662              		.cfi_endproc
 6663              	.LFE1213:
 6665              		.weak	_ZN18SuiteSameTestSuite14TestDummyTest1C1Ev
 6666              		.set	_ZN18SuiteSameTestSuite14TestDummyTest1C1Ev,_ZN18SuiteSameTestSuite14TestDummyTest1C2Ev
 6667              		.globl	_ZN18SuiteSameTestSuite22testDummyTest1InstanceE
 6668              		.bss
 6669              		.align 32
 6672              	_ZN18SuiteSameTestSuite22testDummyTest1InstanceE:
 6673 0000 00000000 		.zero	56
 6673      00000000 
 6673      00000000 
 6673      00000000 
 6673      00000000 
 6674              		.globl	_ZN18SuiteSameTestSuite15adderDummyTest1E
 6677              	_ZN18SuiteSameTestSuite15adderDummyTest1E:
 6678 0038 00       		.zero	1
 6679              		.text
 6680              		.align 2
 6681              		.globl	_ZNK18SuiteSameTestSuite14TestDummyTest17RunImplEv
 6683              	_ZNK18SuiteSameTestSuite14TestDummyTest17RunImplEv:
 6684              	.LFB1215:
 196:TestTestMacros.cpp **** 	{
 6685              		.loc 6 196 0
 6686              		.cfi_startproc
 6687 2e56 55       		pushq	%rbp
 6688              		.cfi_def_cfa_offset 16
 6689              		.cfi_offset 6, -16
 6690 2e57 4889E5   		movq	%rsp, %rbp
 6691              		.cfi_def_cfa_register 6
 6692 2e5a 48897DF8 		movq	%rdi, -8(%rbp)
 197:TestTestMacros.cpp **** 	}
 6693              		.loc 6 197 0
 6694 2e5e 90       		nop
 6695 2e5f 5D       		popq	%rbp
 6696              		.cfi_def_cfa 7, 8
 6697 2e60 C3       		ret
 6698              		.cfi_endproc
 6699              	.LFE1215:
 6701              		.section	.rodata
 6702 0db4 00000000 		.align 8
 6703              	.LC73:
 6704 0db8 43757272 		.string	"CurrentTestDetailsContainCurrentTestInfo"
 6704      656E7454 
 6704      65737444 
 6704      65746169 
 6704      6C73436F 
 6705              		.section	.text._ZN44TestCurrentTestDetailsContainCurrentTestInfoC2Ev,"axG",@progbits,_ZN44TestCurr
 6706              		.align 2
 6707              		.weak	_ZN44TestCurrentTestDetailsContainCurrentTestInfoC2Ev
 6709              	_ZN44TestCurrentTestDetailsContainCurrentTestInfoC2Ev:
 6710              	.LFB1217:
 198:TestTestMacros.cpp **** }
 199:TestTestMacros.cpp **** 
 200:TestTestMacros.cpp **** #define CUR_TEST_NAME CurrentTestDetailsContainCurrentTestInfo
 201:TestTestMacros.cpp **** #define INNER_STRINGIFY(X) #X
 202:TestTestMacros.cpp **** #define STRINGIFY(X) INNER_STRINGIFY(X)
 203:TestTestMacros.cpp **** 
 204:TestTestMacros.cpp **** TEST(CUR_TEST_NAME)
 6711              		.loc 6 204 0
 6712              		.cfi_startproc
 6713 0000 55       		pushq	%rbp
 6714              		.cfi_def_cfa_offset 16
 6715              		.cfi_offset 6, -16
 6716 0001 4889E5   		movq	%rsp, %rbp
 6717              		.cfi_def_cfa_register 6
 6718 0004 4883EC10 		subq	$16, %rsp
 6719 0008 48897DF8 		movq	%rdi, -8(%rbp)
 6720              	.LBB97:
 6721              		.loc 6 204 0
 6722 000c E8000000 		call	_ZN13UnitTestSuite12GetSuiteNameEv
 6722      00
 6723 0011 4889C2   		movq	%rax, %rdx
 6724 0014 488B45F8 		movq	-8(%rbp), %rax
 6725 0018 41B8CC00 		movl	$204, %r8d
 6725      0000
 6726 001e B9000000 		movl	$.LC2, %ecx
 6726      00
 6727 0023 BE000000 		movl	$.LC73, %esi
 6727      00
 6728 0028 4889C7   		movq	%rax, %rdi
 6729 002b E8000000 		call	_ZN8UnitTest4TestC2EPKcS2_S2_i
 6729      00
 6730 0030 BA000000 		movl	$_ZTV44TestCurrentTestDetailsContainCurrentTestInfo+16, %edx
 6730      00
 6731 0035 488B45F8 		movq	-8(%rbp), %rax
 6732 0039 488910   		movq	%rdx, (%rax)
 6733              	.LBE97:
 6734 003c 90       		nop
 6735 003d C9       		leave
 6736              		.cfi_def_cfa 7, 8
 6737 003e C3       		ret
 6738              		.cfi_endproc
 6739              	.LFE1217:
 6741              		.weak	_ZN44TestCurrentTestDetailsContainCurrentTestInfoC1Ev
 6742              		.set	_ZN44TestCurrentTestDetailsContainCurrentTestInfoC1Ev,_ZN44TestCurrentTestDetailsContainCurre
 6743              		.globl	testCurrentTestDetailsContainCurrentTestInfoInstance
 6744              		.bss
 6745 0039 00000000 		.align 32
 6745      000000
 6748              	testCurrentTestDetailsContainCurrentTestInfoInstance:
 6749 0040 00000000 		.zero	56
 6749      00000000 
 6749      00000000 
 6749      00000000 
 6749      00000000 
 6750              		.globl	adderCurrentTestDetailsContainCurrentTestInfo
 6753              	adderCurrentTestDetailsContainCurrentTestInfo:
 6754 0078 00       		.zero	1
 6755              		.section	.rodata
 6756 0de1 00000000 		.align 8
 6756      000000
 6757              	.LC74:
 6758 0de8 556E6861 		.string	"Unhandled exception in CHECK_EQUAL(STRINGIFY(CUR_TEST_NAME), details->testName)"
 6758      6E646C65 
 6758      64206578 
 6758      63657074 
 6758      696F6E20 
 6759              		.text
 6760 2e61 90       		.align 2
 6761              		.globl	_ZNK44TestCurrentTestDetailsContainCurrentTestInfo7RunImplEv
 6763              	_ZNK44TestCurrentTestDetailsContainCurrentTestInfo7RunImplEv:
 6764              	.LFB1219:
 205:TestTestMacros.cpp **** {
 6765              		.loc 6 205 0
 6766              		.cfi_startproc
 6767              		.cfi_personality 0x3,__gxx_personality_v0
 6768              		.cfi_lsda 0x3,.LLSDA1219
 6769 2e62 55       		pushq	%rbp
 6770              		.cfi_def_cfa_offset 16
 6771              		.cfi_offset 6, -16
 6772 2e63 4889E5   		movq	%rsp, %rbp
 6773              		.cfi_def_cfa_register 6
 6774 2e66 53       		pushq	%rbx
 6775 2e67 4883EC58 		subq	$88, %rsp
 6776              		.cfi_offset 3, -24
 6777 2e6b 48897DA8 		movq	%rdi, -88(%rbp)
 6778              		.loc 6 205 0
 6779 2e6f 64488B04 		movq	%fs:40, %rax
 6779      25280000 
 6779      00
 6780 2e78 488945E8 		movq	%rax, -24(%rbp)
 6781 2e7c 31C0     		xorl	%eax, %eax
 6782              	.LEHB161:
 206:TestTestMacros.cpp **** 	const UnitTest::TestDetails* details = CurrentTest::Details();
 6783              		.loc 6 206 0
 6784 2e7e E8000000 		call	_ZN8UnitTest11CurrentTest7DetailsEv
 6784      00
 6785              	.LEHE161:
 6786 2e83 488B00   		movq	(%rax), %rax
 6787 2e86 488945B8 		movq	%rax, -72(%rbp)
 6788              	.LEHB162:
 207:TestTestMacros.cpp **** 	CHECK_EQUAL(STRINGIFY(CUR_TEST_NAME), details->testName);
 6789              		.loc 6 207 0
 6790 2e8a E8000000 		call	_ZN8UnitTest11CurrentTest7DetailsEv
 6790      00
 6791 2e8f 488B08   		movq	(%rax), %rcx
 6792 2e92 488D45C0 		leaq	-64(%rbp), %rax
 6793 2e96 BACF0000 		movl	$207, %edx
 6793      00
 6794 2e9b 4889CE   		movq	%rcx, %rsi
 6795 2e9e 4889C7   		movq	%rax, %rdi
 6796 2ea1 E8000000 		call	_ZN8UnitTest11TestDetailsC1ERKS0_i
 6796      00
 6797              		.loc 6 207 0 is_stmt 0 discriminator 2
 6798 2ea6 488B45B8 		movq	-72(%rbp), %rax
 6799 2eaa 488B5808 		movq	8(%rax), %rbx
 6800 2eae E8000000 		call	_ZN8UnitTest11CurrentTest7ResultsEv
 6800      00
 6801 2eb3 488B00   		movq	(%rax), %rax
 6802 2eb6 488D55C0 		leaq	-64(%rbp), %rdx
 6803 2eba 4889D1   		movq	%rdx, %rcx
 6804 2ebd 4889DA   		movq	%rbx, %rdx
 6805 2ec0 BE000000 		movl	$.LC73, %esi
 6805      00
 6806 2ec5 4889C7   		movq	%rax, %rdi
 6807 2ec8 E8000000 		call	_ZN8UnitTest10CheckEqualERNS_11TestResultsEPKcS3_RKNS_11TestDetailsE
 6807      00
 6808              	.LEHE162:
 208:TestTestMacros.cpp **** }
 6809              		.loc 6 208 0 is_stmt 1
 6810 2ecd EB5A     		jmp	.L350
 6811              	.L355:
 207:TestTestMacros.cpp **** 	CHECK_EQUAL(STRINGIFY(CUR_TEST_NAME), details->testName);
 6812              		.loc 6 207 0
 6813 2ecf 4889C7   		movq	%rax, %rdi
 6814 2ed2 E8000000 		call	__cxa_begin_catch
 6814      00
 6815              	.LEHB163:
 6816 2ed7 E8000000 		call	_ZN8UnitTest11CurrentTest7DetailsEv
 6816      00
 6817 2edc 488B08   		movq	(%rax), %rcx
 6818 2edf 488D45C0 		leaq	-64(%rbp), %rax
 6819 2ee3 BACF0000 		movl	$207, %edx
 6819      00
 6820 2ee8 4889CE   		movq	%rcx, %rsi
 6821 2eeb 4889C7   		movq	%rax, %rdi
 6822 2eee E8000000 		call	_ZN8UnitTest11TestDetailsC1ERKS0_i
 6822      00
 207:TestTestMacros.cpp **** 	CHECK_EQUAL(STRINGIFY(CUR_TEST_NAME), details->testName);
 6823              		.loc 6 207 0 is_stmt 0 discriminator 10
 6824 2ef3 E8000000 		call	_ZN8UnitTest11CurrentTest7ResultsEv
 6824      00
 6825 2ef8 488B00   		movq	(%rax), %rax
 6826 2efb 488D4DC0 		leaq	-64(%rbp), %rcx
 6827 2eff BA000000 		movl	$.LC74, %edx
 6827      00
 6828 2f04 4889CE   		movq	%rcx, %rsi
 6829 2f07 4889C7   		movq	%rax, %rdi
 6830 2f0a E8000000 		call	_ZN8UnitTest11TestResults13OnTestFailureERKNS_11TestDetailsEPKc
 6830      00
 6831              	.LEHE163:
 6832              	.LEHB164:
 207:TestTestMacros.cpp **** 	CHECK_EQUAL(STRINGIFY(CUR_TEST_NAME), details->testName);
 6833              		.loc 6 207 0 discriminator 14
 6834 2f0f E8000000 		call	__cxa_end_catch
 6834      00
 6835              	.LEHE164:
 6836              		.loc 6 208 0 is_stmt 1 discriminator 14
 6837 2f14 EB13     		jmp	.L350
 6838              	.L356:
 6839 2f16 4889C3   		movq	%rax, %rbx
 207:TestTestMacros.cpp **** 	CHECK_EQUAL(STRINGIFY(CUR_TEST_NAME), details->testName);
 6840              		.loc 6 207 0
 6841 2f19 E8000000 		call	__cxa_end_catch
 6841      00
 6842 2f1e 4889D8   		movq	%rbx, %rax
 6843 2f21 4889C7   		movq	%rax, %rdi
 6844              	.LEHB165:
 6845 2f24 E8000000 		call	_Unwind_Resume
 6845      00
 6846              	.LEHE165:
 6847              	.L350:
 6848              		.loc 6 208 0
 6849 2f29 488B45E8 		movq	-24(%rbp), %rax
 6850 2f2d 64483304 		xorq	%fs:40, %rax
 6850      25280000 
 6850      00
 6851 2f36 7405     		je	.L354
 6852 2f38 E8000000 		call	__stack_chk_fail
 6852      00
 6853              	.L354:
 6854 2f3d 4883C458 		addq	$88, %rsp
 6855 2f41 5B       		popq	%rbx
 6856 2f42 5D       		popq	%rbp
 6857              		.cfi_def_cfa 7, 8
 6858 2f43 C3       		ret
 6859              		.cfi_endproc
 6860              	.LFE1219:
 6861              		.section	.gcc_except_table
 6862              		.align 4
 6863              	.LLSDA1219:
 6864 0460 FF       		.byte	0xff
 6865 0461 03       		.byte	0x3
 6866 0462 21       		.uleb128 .LLSDATT1219-.LLSDATTD1219
 6867              	.LLSDATTD1219:
 6868 0463 01       		.byte	0x1
 6869 0464 17       		.uleb128 .LLSDACSE1219-.LLSDACSB1219
 6870              	.LLSDACSB1219:
 6871 0465 1C       		.uleb128 .LEHB161-.LFB1219
 6872 0466 05       		.uleb128 .LEHE161-.LEHB161
 6873 0467 00       		.uleb128 0
 6874 0468 00       		.uleb128 0
 6875 0469 28       		.uleb128 .LEHB162-.LFB1219
 6876 046a 43       		.uleb128 .LEHE162-.LEHB162
 6877 046b 6D       		.uleb128 .L355-.LFB1219
 6878 046c 01       		.uleb128 0x1
 6879 046d 75       		.uleb128 .LEHB163-.LFB1219
 6880 046e 38       		.uleb128 .LEHE163-.LEHB163
 6881 046f B401     		.uleb128 .L356-.LFB1219
 6882 0471 00       		.uleb128 0
 6883 0472 AD01     		.uleb128 .LEHB164-.LFB1219
 6884 0474 05       		.uleb128 .LEHE164-.LEHB164
 6885 0475 00       		.uleb128 0
 6886 0476 00       		.uleb128 0
 6887 0477 C201     		.uleb128 .LEHB165-.LFB1219
 6888 0479 05       		.uleb128 .LEHE165-.LEHB165
 6889 047a 00       		.uleb128 0
 6890 047b 00       		.uleb128 0
 6891              	.LLSDACSE1219:
 6892 047c 01       		.byte	0x1
 6893 047d 00       		.byte	0
 6894 047e 0000     		.align 4
 6895 0480 00000000 		.long	0
 6896              	
 6897              	.LLSDATT1219:
 6898              		.text
 6900              		.section	.text._ZN8UnitTest5CheckIbEEbT_,"axG",@progbits,_ZN8UnitTest5CheckIbEEbT_,comdat
 6901              		.weak	_ZN8UnitTest5CheckIbEEbT_
 6903              	_ZN8UnitTest5CheckIbEEbT_:
 6904              	.LFB1247:
 6905              		.file 7 "../Checks.h"
   1:../Checks.h   **** #ifndef UNITTEST_CHECKS_H
   2:../Checks.h   **** #define UNITTEST_CHECKS_H
   3:../Checks.h   **** 
   4:../Checks.h   **** #include "Config.h"
   5:../Checks.h   **** #include "TestResults.h"
   6:../Checks.h   **** #include "MemoryOutStream.h"
   7:../Checks.h   **** 
   8:../Checks.h   **** namespace UnitTest {
   9:../Checks.h   **** 
  10:../Checks.h   **** 
  11:../Checks.h   **** template< typename Value >
  12:../Checks.h   **** bool Check(Value const value)
 6906              		.loc 7 12 0
 6907              		.cfi_startproc
 6908 0000 55       		pushq	%rbp
 6909              		.cfi_def_cfa_offset 16
 6910              		.cfi_offset 6, -16
 6911 0001 4889E5   		movq	%rsp, %rbp
 6912              		.cfi_def_cfa_register 6
 6913 0004 89F8     		movl	%edi, %eax
 6914 0006 8845FC   		movb	%al, -4(%rbp)
  13:../Checks.h   **** {
  14:../Checks.h   ****     return !!value; // doing double negative to avoid silly VS warnings
 6915              		.loc 7 14 0
 6916 0009 0FB645FC 		movzbl	-4(%rbp), %eax
  15:../Checks.h   **** }
 6917              		.loc 7 15 0
 6918 000d 5D       		popq	%rbp
 6919              		.cfi_def_cfa 7, 8
 6920 000e C3       		ret
 6921              		.cfi_endproc
 6922              	.LFE1247:
 6924              		.section	.rodata
 6925              	.LC75:
 6926 0e38 556E6861 		.string	"Unhandled system exception"
 6926      6E646C65 
 6926      64207379 
 6926      7374656D 
 6926      20657863 
 6927              	.LC76:
 6928 0e53 556E6861 		.string	"Unhandled exception: Crash!"
 6928      6E646C65 
 6928      64206578 
 6928      63657074 
 6928      696F6E3A 
 6929              		.text
 6931              	_ZN8UnitTest11ExecuteTestIN12_GLOBAL__N_134ThrowingThingieDummyTestNameHelperEEEvRT_RKNS_11TestDeta
 6932              	.LFB1248:
 6933              		.file 8 "../ExecuteTest.h"
   1:../ExecuteTest.h **** #ifndef UNITTEST_EXECUTE_TEST_H
   2:../ExecuteTest.h **** #define UNITTEST_EXECUTE_TEST_H
   3:../ExecuteTest.h **** 
   4:../ExecuteTest.h **** #include "TestDetails.h"
   5:../ExecuteTest.h **** #include "MemoryOutStream.h"
   6:../ExecuteTest.h **** #include "AssertException.h"
   7:../ExecuteTest.h **** #include "CurrentTest.h"
   8:../ExecuteTest.h **** 
   9:../ExecuteTest.h **** #ifdef UNITTEST_POSIX
  10:../ExecuteTest.h **** 	#include "PosixUtils/SignalTranslator.h"
  11:../ExecuteTest.h **** #endif
  12:../ExecuteTest.h **** 
  13:../ExecuteTest.h **** namespace UnitTest {
  14:../ExecuteTest.h **** 
  15:../ExecuteTest.h **** template< typename T >
  16:../ExecuteTest.h **** void ExecuteTest(T& testObject, TestDetails const& details)
 6934              		.loc 8 16 0
 6935              		.cfi_startproc
 6936              		.cfi_personality 0x3,__gxx_personality_v0
 6937              		.cfi_lsda 0x3,.LLSDA1248
 6938 2f44 55       		pushq	%rbp
 6939              		.cfi_def_cfa_offset 16
 6940              		.cfi_offset 6, -16
 6941 2f45 4889E5   		movq	%rsp, %rbp
 6942              		.cfi_def_cfa_register 6
 6943 2f48 4154     		pushq	%r12
 6944 2f4a 53       		pushq	%rbx
 6945 2f4b 4881EC50 		subq	$1616, %rsp
 6945      060000
 6946              		.cfi_offset 12, -24
 6947              		.cfi_offset 3, -32
 6948 2f52 4889BDA8 		movq	%rdi, -1624(%rbp)
 6948      F9FFFF
 6949 2f59 4889B5A0 		movq	%rsi, -1632(%rbp)
 6949      F9FFFF
 6950              		.loc 8 16 0
 6951 2f60 64488B04 		movq	%fs:40, %rax
 6951      25280000 
 6951      00
 6952 2f69 488945E8 		movq	%rax, -24(%rbp)
 6953 2f6d 31C0     		xorl	%eax, %eax
 6954              	.LEHB166:
  17:../ExecuteTest.h **** {
  18:../ExecuteTest.h **** 	CurrentTest::Details() = &details;
 6955              		.loc 8 18 0
 6956 2f6f E8000000 		call	_ZN8UnitTest11CurrentTest7DetailsEv
 6956      00
 6957              	.LEHE166:
 6958 2f74 4889C2   		movq	%rax, %rdx
 6959 2f77 488B85A0 		movq	-1632(%rbp), %rax
 6959      F9FFFF
 6960 2f7e 488902   		movq	%rax, (%rdx)
 6961              	.LBB98:
  19:../ExecuteTest.h **** 
  20:../ExecuteTest.h **** 	try
  21:../ExecuteTest.h **** 	{
  22:../ExecuteTest.h **** #ifdef UNITTEST_POSIX
  23:../ExecuteTest.h **** 		UNITTEST_THROW_SIGNALS
 6962              		.loc 8 23 0
 6963 2f81 488D8580 		leaq	-1152(%rbp), %rax
 6963      FBFFFF
 6964 2f88 4889C7   		movq	%rax, %rdi
 6965              	.LEHB167:
 6966 2f8b E8000000 		call	_ZN8UnitTest16SignalTranslatorC1Ev
 6966      00
 6967              	.LEHE167:
 6968              		.loc 8 23 0 is_stmt 0 discriminator 1
 6969 2f90 488B0500 		movq	_ZN8UnitTest16SignalTranslator12s_jumpTargetE(%rip), %rax
 6969      000000
 6970 2f97 BE010000 		movl	$1, %esi
 6970      00
 6971 2f9c 4889C7   		movq	%rax, %rdi
 6972 2f9f E8000000 		call	__sigsetjmp
 6972      00
 6973 2fa4 85C0     		testl	%eax, %eax
 6974 2fa6 0F95C0   		setne	%al
 6975 2fa9 84C0     		testb	%al, %al
 6976 2fab 7423     		je	.L379
 6977              		.loc 8 23 0 discriminator 3
 6978 2fad BF080000 		movl	$8, %edi
 6978      00
 6979 2fb2 E8000000 		call	__cxa_allocate_exception
 6979      00
 6980 2fb7 48C70000 		movq	$.LC75, (%rax)
 6980      000000
 6981 2fbe BA000000 		movl	$0, %edx
 6981      00
 6982 2fc3 BE000000 		movl	$_ZTIPKc, %esi
 6982      00
 6983 2fc8 4889C7   		movq	%rax, %rdi
 6984              	.LEHB168:
 6985 2fcb E8000000 		call	__cxa_throw
 6985      00
 6986              	.LEHE168:
 6987              	.L379:
  24:../ExecuteTest.h **** #endif
  25:../ExecuteTest.h **** 		testObject.RunImpl();
 6988              		.loc 8 25 0 is_stmt 1
 6989 2fd0 488B85A8 		movq	-1624(%rbp), %rax
 6989      F9FFFF
 6990 2fd7 4889C7   		movq	%rax, %rdi
 6991 2fda E8E9D5FF 		call	_ZN12_GLOBAL__N_134ThrowingThingieDummyTestNameHelper7RunImplEv
 6991      FF
  23:../ExecuteTest.h **** #endif
 6992              		.loc 8 23 0
 6993 2fdf 488D8580 		leaq	-1152(%rbp), %rax
 6993      FBFFFF
 6994 2fe6 4889C7   		movq	%rax, %rdi
 6995              	.LEHB169:
 6996 2fe9 E8000000 		call	_ZN8UnitTest16SignalTranslatorD1Ev
 6996      00
 6997              	.LEHE169:
 6998              	.LBE98:
  26:../ExecuteTest.h **** 	}
  27:../ExecuteTest.h **** 	catch (AssertException const& e)
  28:../ExecuteTest.h **** 	{
  29:../ExecuteTest.h **** 		CurrentTest::Results()->OnTestFailure(
  30:../ExecuteTest.h **** 			TestDetails(details.testName, details.suiteName, e.Filename(), e.LineNumber()), e.what());
  31:../ExecuteTest.h **** 	}
  32:../ExecuteTest.h **** 	catch (std::exception const& e)
  33:../ExecuteTest.h **** 	{
  34:../ExecuteTest.h **** 		MemoryOutStream stream;
  35:../ExecuteTest.h **** 		stream << "Unhandled exception: " << e.what();
  36:../ExecuteTest.h **** 		CurrentTest::Results()->OnTestFailure(details, stream.GetText());
  37:../ExecuteTest.h **** 	}
  38:../ExecuteTest.h **** 	catch (...)
  39:../ExecuteTest.h **** 	{
  40:../ExecuteTest.h **** 		CurrentTest::Results()->OnTestFailure(details, "Unhandled exception: Crash!");
  41:../ExecuteTest.h **** 	}
  42:../ExecuteTest.h **** }
 6999              		.loc 8 42 0
 7000 2fee E9F00100 		jmp	.L359
 7000      00
 7001              	.L374:
 7002 2ff3 4989C4   		movq	%rax, %r12
 7003 2ff6 4889D3   		movq	%rdx, %rbx
 7004              	.LBB99:
  23:../ExecuteTest.h **** #endif
 7005              		.loc 8 23 0
 7006 2ff9 488D8580 		leaq	-1152(%rbp), %rax
 7006      FBFFFF
 7007 3000 4889C7   		movq	%rax, %rdi
 7008 3003 E8000000 		call	_ZN8UnitTest16SignalTranslatorD1Ev
 7008      00
 7009 3008 4C89E0   		movq	%r12, %rax
 7010 300b 4889DA   		movq	%rbx, %rdx
 7011 300e EB00     		jmp	.L363
 7012              	.L373:
 7013              	.L363:
 7014 3010 4883FA01 		cmpq	$1, %rdx
 7015 3014 740F     		je	.L365
 7016 3016 4883FA02 		cmpq	$2, %rdx
 7017 301a 0F84A600 		je	.L366
 7017      0000
 7018 3020 E9430100 		jmp	.L380
 7018      00
 7019              	.L365:
 7020              	.LBE99:
 7021              	.LBB100:
  27:../ExecuteTest.h **** 	{
 7022              		.loc 8 27 0
 7023 3025 4889C7   		movq	%rax, %rdi
 7024 3028 E8000000 		call	__cxa_begin_catch
 7024      00
 7025 302d 488985B0 		movq	%rax, -1616(%rbp)
 7025      F9FFFF
  30:../ExecuteTest.h **** 	}
 7026              		.loc 8 30 0
 7027 3034 488B85B0 		movq	-1616(%rbp), %rax
 7027      F9FFFF
 7028 303b 488B00   		movq	(%rax), %rax
 7029 303e 4883C010 		addq	$16, %rax
 7030 3042 488B00   		movq	(%rax), %rax
  29:../ExecuteTest.h **** 			TestDetails(details.testName, details.suiteName, e.Filename(), e.LineNumber()), e.what());
 7031              		.loc 8 29 0
 7032 3045 488B95B0 		movq	-1616(%rbp), %rdx
 7032      F9FFFF
 7033 304c 4889D7   		movq	%rdx, %rdi
 7034 304f FFD0     		call	*%rax
 7035 3051 4889C3   		movq	%rax, %rbx
 7036 3054 488B85B0 		movq	-1616(%rbp), %rax
 7036      F9FFFF
 7037 305b 4889C7   		movq	%rax, %rdi
 7038              	.LEHB170:
 7039 305e E8000000 		call	_ZNK8UnitTest15AssertException10LineNumberEv
 7039      00
  29:../ExecuteTest.h **** 			TestDetails(details.testName, details.suiteName, e.Filename(), e.LineNumber()), e.what());
 7040              		.loc 8 29 0 is_stmt 0 discriminator 1
 7041 3063 4189C4   		movl	%eax, %r12d
 7042 3066 488B85B0 		movq	-1616(%rbp), %rax
 7042      F9FFFF
 7043 306d 4889C7   		movq	%rax, %rdi
 7044 3070 E8000000 		call	_ZNK8UnitTest15AssertException8FilenameEv
 7044      00
  29:../ExecuteTest.h **** 			TestDetails(details.testName, details.suiteName, e.Filename(), e.LineNumber()), e.what());
 7045              		.loc 8 29 0 discriminator 2
 7046 3075 4889C1   		movq	%rax, %rcx
 7047 3078 488B85A0 		movq	-1632(%rbp), %rax
 7047      F9FFFF
 7048 307f 488B10   		movq	(%rax), %rdx
 7049 3082 488B85A0 		movq	-1632(%rbp), %rax
 7049      F9FFFF
 7050 3089 488B7008 		movq	8(%rax), %rsi
 7051 308d 488D85C0 		leaq	-1600(%rbp), %rax
 7051      F9FFFF
 7052 3094 4589E0   		movl	%r12d, %r8d
 7053 3097 4889C7   		movq	%rax, %rdi
 7054 309a E8000000 		call	_ZN8UnitTest11TestDetailsC1EPKcS2_S2_i
 7054      00
  29:../ExecuteTest.h **** 			TestDetails(details.testName, details.suiteName, e.Filename(), e.LineNumber()), e.what());
 7055              		.loc 8 29 0 discriminator 4
 7056 309f E8000000 		call	_ZN8UnitTest11CurrentTest7ResultsEv
 7056      00
 7057 30a4 488B00   		movq	(%rax), %rax
 7058 30a7 488D8DC0 		leaq	-1600(%rbp), %rcx
 7058      F9FFFF
 7059 30ae 4889DA   		movq	%rbx, %rdx
 7060 30b1 4889CE   		movq	%rcx, %rsi
 7061 30b4 4889C7   		movq	%rax, %rdi
 7062 30b7 E8000000 		call	_ZN8UnitTest11TestResults13OnTestFailureERKNS_11TestDetailsEPKc
 7062      00
 7063              	.LEHE170:
  27:../ExecuteTest.h **** 	{
 7064              		.loc 8 27 0 is_stmt 1 discriminator 8
 7065 30bc E8000000 		call	__cxa_end_catch
 7065      00
 7066              	.LBE100:
 7067              		.loc 8 42 0 discriminator 8
 7068 30c1 E91D0100 		jmp	.L359
 7068      00
 7069              	.L366:
 7070              	.LBB101:
  32:../ExecuteTest.h **** 	{
 7071              		.loc 8 32 0
 7072 30c6 4889C7   		movq	%rax, %rdi
 7073 30c9 E8000000 		call	__cxa_begin_catch
 7073      00
 7074 30ce 488985B8 		movq	%rax, -1608(%rbp)
 7074      F9FFFF
 7075              	.LBB102:
  34:../ExecuteTest.h **** 		stream << "Unhandled exception: " << e.what();
 7076              		.loc 8 34 0
 7077 30d5 488D85E0 		leaq	-1568(%rbp), %rax
 7077      F9FFFF
 7078 30dc 4889C7   		movq	%rax, %rdi
 7079              	.LEHB171:
 7080 30df E8000000 		call	_ZN8UnitTest15MemoryOutStreamC1Ev
 7080      00
 7081              	.LEHE171:
  35:../ExecuteTest.h **** 		CurrentTest::Results()->OnTestFailure(details, stream.GetText());
 7082              		.loc 8 35 0
 7083 30e4 488B85B8 		movq	-1608(%rbp), %rax
 7083      F9FFFF
 7084 30eb 488B00   		movq	(%rax), %rax
 7085 30ee 4883C010 		addq	$16, %rax
 7086 30f2 488B00   		movq	(%rax), %rax
 7087 30f5 488B95B8 		movq	-1608(%rbp), %rdx
 7087      F9FFFF
 7088 30fc 4889D7   		movq	%rdx, %rdi
 7089 30ff FFD0     		call	*%rax
 7090 3101 4889C3   		movq	%rax, %rbx
 7091 3104 488D85E0 		leaq	-1568(%rbp), %rax
 7091      F9FFFF
 7092 310b BE000000 		movl	$.LC11, %esi
 7092      00
 7093 3110 4889C7   		movq	%rax, %rdi
 7094              	.LEHB172:
 7095 3113 E8000000 		call	_ZStlsISt11char_traitsIcEERSt13basic_ostreamIcT_ES5_PKc
 7095      00
  35:../ExecuteTest.h **** 		CurrentTest::Results()->OnTestFailure(details, stream.GetText());
 7096              		.loc 8 35 0 is_stmt 0 discriminator 1
 7097 3118 4889DE   		movq	%rbx, %rsi
 7098 311b 4889C7   		movq	%rax, %rdi
 7099 311e E8000000 		call	_ZStlsISt11char_traitsIcEERSt13basic_ostreamIcT_ES5_PKc
 7099      00
  36:../ExecuteTest.h **** 	}
 7100              		.loc 8 36 0 is_stmt 1
 7101 3123 488D85E0 		leaq	-1568(%rbp), %rax
 7101      F9FFFF
 7102 312a 4889C7   		movq	%rax, %rdi
 7103 312d E8000000 		call	_ZNK8UnitTest15MemoryOutStream7GetTextEv
 7103      00
 7104 3132 4889C3   		movq	%rax, %rbx
 7105 3135 E8000000 		call	_ZN8UnitTest11CurrentTest7ResultsEv
 7105      00
  36:../ExecuteTest.h **** 	}
 7106              		.loc 8 36 0 is_stmt 0 discriminator 1
 7107 313a 488B00   		movq	(%rax), %rax
 7108 313d 488B8DA0 		movq	-1632(%rbp), %rcx
 7108      F9FFFF
 7109 3144 4889DA   		movq	%rbx, %rdx
 7110 3147 4889CE   		movq	%rcx, %rsi
 7111 314a 4889C7   		movq	%rax, %rdi
 7112 314d E8000000 		call	_ZN8UnitTest11TestResults13OnTestFailureERKNS_11TestDetailsEPKc
 7112      00
 7113              	.LEHE172:
  34:../ExecuteTest.h **** 		stream << "Unhandled exception: " << e.what();
 7114              		.loc 8 34 0 is_stmt 1
 7115 3152 488D85E0 		leaq	-1568(%rbp), %rax
 7115      F9FFFF
 7116 3159 4889C7   		movq	%rax, %rdi
 7117              	.LEHB173:
 7118 315c E8000000 		call	_ZN8UnitTest15MemoryOutStreamD1Ev
 7118      00
 7119              	.LEHE173:
 7120              	.LBE102:
  32:../ExecuteTest.h **** 	{
 7121              		.loc 8 32 0
 7122 3161 E8000000 		call	__cxa_end_catch
 7122      00
 7123              	.LBE101:
 7124              		.loc 8 42 0
 7125 3166 EB7B     		jmp	.L359
 7126              	.L380:
  38:../ExecuteTest.h **** 	{
 7127              		.loc 8 38 0
 7128 3168 4889C7   		movq	%rax, %rdi
 7129 316b E8000000 		call	__cxa_begin_catch
 7129      00
 7130              	.LEHB174:
  40:../ExecuteTest.h **** 	}
 7131              		.loc 8 40 0
 7132 3170 E8000000 		call	_ZN8UnitTest11CurrentTest7ResultsEv
 7132      00
 7133 3175 488B00   		movq	(%rax), %rax
 7134 3178 488B8DA0 		movq	-1632(%rbp), %rcx
 7134      F9FFFF
 7135 317f BA000000 		movl	$.LC76, %edx
 7135      00
 7136 3184 4889CE   		movq	%rcx, %rsi
 7137 3187 4889C7   		movq	%rax, %rdi
 7138 318a E8000000 		call	_ZN8UnitTest11TestResults13OnTestFailureERKNS_11TestDetailsEPKc
 7138      00
 7139              	.LEHE174:
 7140              	.LEHB175:
  38:../ExecuteTest.h **** 	{
 7141              		.loc 8 38 0
 7142 318f E8000000 		call	__cxa_end_catch
 7142      00
 7143              		.loc 8 42 0
 7144 3194 EB4D     		jmp	.L359
 7145              	.L375:
 7146 3196 4889C3   		movq	%rax, %rbx
 7147              	.LBB104:
  27:../ExecuteTest.h **** 	{
 7148              		.loc 8 27 0
 7149 3199 E8000000 		call	__cxa_end_catch
 7149      00
 7150 319e 4889D8   		movq	%rbx, %rax
 7151 31a1 4889C7   		movq	%rax, %rdi
 7152 31a4 E8000000 		call	_Unwind_Resume
 7152      00
 7153              	.LEHE175:
 7154              	.L377:
 7155 31a9 4889C3   		movq	%rax, %rbx
 7156              	.LBE104:
 7157              	.LBB105:
 7158              	.LBB103:
  34:../ExecuteTest.h **** 		stream << "Unhandled exception: " << e.what();
 7159              		.loc 8 34 0
 7160 31ac 488D85E0 		leaq	-1568(%rbp), %rax
 7160      F9FFFF
 7161 31b3 4889C7   		movq	%rax, %rdi
 7162 31b6 E8000000 		call	_ZN8UnitTest15MemoryOutStreamD1Ev
 7162      00
 7163 31bb EB03     		jmp	.L370
 7164              	.L376:
 7165 31bd 4889C3   		movq	%rax, %rbx
 7166              	.L370:
 7167              	.LBE103:
  32:../ExecuteTest.h **** 	{
 7168              		.loc 8 32 0
 7169 31c0 E8000000 		call	__cxa_end_catch
 7169      00
 7170 31c5 4889D8   		movq	%rbx, %rax
 7171 31c8 4889C7   		movq	%rax, %rdi
 7172              	.LEHB176:
 7173 31cb E8000000 		call	_Unwind_Resume
 7173      00
 7174              	.LEHE176:
 7175              	.L378:
 7176 31d0 4889C3   		movq	%rax, %rbx
 7177              	.LBE105:
  38:../ExecuteTest.h **** 	{
 7178              		.loc 8 38 0
 7179 31d3 E8000000 		call	__cxa_end_catch
 7179      00
 7180 31d8 4889D8   		movq	%rbx, %rax
 7181 31db 4889C7   		movq	%rax, %rdi
 7182              	.LEHB177:
 7183 31de E8000000 		call	_Unwind_Resume
 7183      00
 7184              	.LEHE177:
 7185              	.L359:
 7186              		.loc 8 42 0
 7187 31e3 488B45E8 		movq	-24(%rbp), %rax
 7188 31e7 64483304 		xorq	%fs:40, %rax
 7188      25280000 
 7188      00
 7189 31f0 7405     		je	.L372
 7190 31f2 E8000000 		call	__stack_chk_fail
 7190      00
 7191              	.L372:
 7192 31f7 4881C450 		addq	$1616, %rsp
 7192      060000
 7193 31fe 5B       		popq	%rbx
 7194 31ff 415C     		popq	%r12
 7195 3201 5D       		popq	%rbp
 7196              		.cfi_def_cfa 7, 8
 7197 3202 C3       		ret
 7198              		.cfi_endproc
 7199              	.LFE1248:
 7200              		.section	.gcc_except_table
 7201              		.align 4
 7202              	.LLSDA1248:
 7203 0484 FF       		.byte	0xff
 7204 0485 03       		.byte	0x3
 7205 0486 59       		.uleb128 .LLSDATT1248-.LLSDATTD1248
 7206              	.LLSDATTD1248:
 7207 0487 01       		.byte	0x1
 7208 0488 42       		.uleb128 .LLSDACSE1248-.LLSDACSB1248
 7209              	.LLSDACSB1248:
 7210 0489 2B       		.uleb128 .LEHB166-.LFB1248
 7211 048a 05       		.uleb128 .LEHE166-.LEHB166
 7212 048b 00       		.uleb128 0
 7213 048c 00       		.uleb128 0
 7214 048d 47       		.uleb128 .LEHB167-.LFB1248
 7215 048e 05       		.uleb128 .LEHE167-.LEHB167
 7216 048f CC01     		.uleb128 .L373-.LFB1248
 7217 0491 05       		.uleb128 0x5
 7218 0492 8701     		.uleb128 .LEHB168-.LFB1248
 7219 0494 05       		.uleb128 .LEHE168-.LEHB168
 7220 0495 AF01     		.uleb128 .L374-.LFB1248
 7221 0497 07       		.uleb128 0x7
 7222 0498 A501     		.uleb128 .LEHB169-.LFB1248
 7223 049a 05       		.uleb128 .LEHE169-.LEHB169
 7224 049b CC01     		.uleb128 .L373-.LFB1248
 7225 049d 05       		.uleb128 0x5
 7226 049e 9A02     		.uleb128 .LEHB170-.LFB1248
 7227 04a0 5E       		.uleb128 .LEHE170-.LEHB170
 7228 04a1 D204     		.uleb128 .L375-.LFB1248
 7229 04a3 00       		.uleb128 0
 7230 04a4 9B03     		.uleb128 .LEHB171-.LFB1248
 7231 04a6 05       		.uleb128 .LEHE171-.LEHB171
 7232 04a7 F904     		.uleb128 .L376-.LFB1248
 7233 04a9 00       		.uleb128 0
 7234 04aa CF03     		.uleb128 .LEHB172-.LFB1248
 7235 04ac 3F       		.uleb128 .LEHE172-.LEHB172
 7236 04ad E504     		.uleb128 .L377-.LFB1248
 7237 04af 00       		.uleb128 0
 7238 04b0 9804     		.uleb128 .LEHB173-.LFB1248
 7239 04b2 05       		.uleb128 .LEHE173-.LEHB173
 7240 04b3 F904     		.uleb128 .L376-.LFB1248
 7241 04b5 00       		.uleb128 0
 7242 04b6 AC04     		.uleb128 .LEHB174-.LFB1248
 7243 04b8 1F       		.uleb128 .LEHE174-.LEHB174
 7244 04b9 8C05     		.uleb128 .L378-.LFB1248
 7245 04bb 00       		.uleb128 0
 7246 04bc CB04     		.uleb128 .LEHB175-.LFB1248
 7247 04be 1A       		.uleb128 .LEHE175-.LEHB175
 7248 04bf 00       		.uleb128 0
 7249 04c0 00       		.uleb128 0
 7250 04c1 8705     		.uleb128 .LEHB176-.LFB1248
 7251 04c3 05       		.uleb128 .LEHE176-.LEHB176
 7252 04c4 00       		.uleb128 0
 7253 04c5 00       		.uleb128 0
 7254 04c6 9A05     		.uleb128 .LEHB177-.LFB1248
 7255 04c8 05       		.uleb128 .LEHE177-.LEHB177
 7256 04c9 00       		.uleb128 0
 7257 04ca 00       		.uleb128 0
 7258              	.LLSDACSE1248:
 7259 04cb 03       		.byte	0x3
 7260 04cc 00       		.byte	0
 7261 04cd 02       		.byte	0x2
 7262 04ce 7D       		.byte	0x7d
 7263 04cf 01       		.byte	0x1
 7264 04d0 7D       		.byte	0x7d
 7265 04d1 00       		.byte	0
 7266 04d2 7D       		.byte	0x7d
 7267 04d3 00       		.align 4
 7268 04d4 00000000 		.long	0
 7269              	
 7270 04d8 00000000 		.long	_ZTISt9exception
 7271 04dc 00000000 		.long	_ZTIN8UnitTest15AssertExceptionE
 7272              	.LLSDATT1248:
 7273              		.text
 7275              		.section	.text._ZN8UnitTest5CheckIPcEEbT_,"axG",@progbits,_ZN8UnitTest5CheckIPcEEbT_,comdat
 7276              		.weak	_ZN8UnitTest5CheckIPcEEbT_
 7278              	_ZN8UnitTest5CheckIPcEEbT_:
 7279              	.LFB1250:
  12:../Checks.h   **** {
 7280              		.loc 7 12 0
 7281              		.cfi_startproc
 7282 0000 55       		pushq	%rbp
 7283              		.cfi_def_cfa_offset 16
 7284              		.cfi_offset 6, -16
 7285 0001 4889E5   		movq	%rsp, %rbp
 7286              		.cfi_def_cfa_register 6
 7287 0004 48897DF8 		movq	%rdi, -8(%rbp)
  14:../Checks.h   **** }
 7288              		.loc 7 14 0
 7289 0008 48837DF8 		cmpq	$0, -8(%rbp)
 7289      00
 7290 000d 0F95C0   		setne	%al
 7291              		.loc 7 15 0
 7292 0010 5D       		popq	%rbp
 7293              		.cfi_def_cfa 7, 8
 7294 0011 C3       		ret
 7295              		.cfi_endproc
 7296              	.LFE1250:
 7298              		.text
 7300              	_ZN8UnitTest11ExecuteTestIN12_GLOBAL__N_115SuiteTestSuite165DummyFixtureSimilarlyNamedFixtureTestsI
 7301              	.LFB1251:
  16:../ExecuteTest.h **** {
 7302              		.loc 8 16 0
 7303              		.cfi_startproc
 7304              		.cfi_personality 0x3,__gxx_personality_v0
 7305              		.cfi_lsda 0x3,.LLSDA1251
 7306 3203 55       		pushq	%rbp
 7307              		.cfi_def_cfa_offset 16
 7308              		.cfi_offset 6, -16
 7309 3204 4889E5   		movq	%rsp, %rbp
 7310              		.cfi_def_cfa_register 6
 7311 3207 4154     		pushq	%r12
 7312 3209 53       		pushq	%rbx
 7313 320a 4881EC50 		subq	$1616, %rsp
 7313      060000
 7314              		.cfi_offset 12, -24
 7315              		.cfi_offset 3, -32
 7316 3211 4889BDA8 		movq	%rdi, -1624(%rbp)
 7316      F9FFFF
 7317 3218 4889B5A0 		movq	%rsi, -1632(%rbp)
 7317      F9FFFF
  16:../ExecuteTest.h **** {
 7318              		.loc 8 16 0
 7319 321f 64488B04 		movq	%fs:40, %rax
 7319      25280000 
 7319      00
 7320 3228 488945E8 		movq	%rax, -24(%rbp)
 7321 322c 31C0     		xorl	%eax, %eax
 7322              	.LEHB178:
  18:../ExecuteTest.h **** 
 7323              		.loc 8 18 0
 7324 322e E8000000 		call	_ZN8UnitTest11CurrentTest7DetailsEv
 7324      00
 7325              	.LEHE178:
 7326 3233 4889C2   		movq	%rax, %rdx
 7327 3236 488B85A0 		movq	-1632(%rbp), %rax
 7327      F9FFFF
 7328 323d 488902   		movq	%rax, (%rdx)
 7329              	.LBB106:
  23:../ExecuteTest.h **** #endif
 7330              		.loc 8 23 0
 7331 3240 488D8580 		leaq	-1152(%rbp), %rax
 7331      FBFFFF
 7332 3247 4889C7   		movq	%rax, %rdi
 7333              	.LEHB179:
 7334 324a E8000000 		call	_ZN8UnitTest16SignalTranslatorC1Ev
 7334      00
 7335              	.LEHE179:
  23:../ExecuteTest.h **** #endif
 7336              		.loc 8 23 0 is_stmt 0 discriminator 1
 7337 324f 488B0500 		movq	_ZN8UnitTest16SignalTranslator12s_jumpTargetE(%rip), %rax
 7337      000000
 7338 3256 BE010000 		movl	$1, %esi
 7338      00
 7339 325b 4889C7   		movq	%rax, %rdi
 7340 325e E8000000 		call	__sigsetjmp
 7340      00
 7341 3263 85C0     		testl	%eax, %eax
 7342 3265 0F95C0   		setne	%al
 7343 3268 84C0     		testb	%al, %al
 7344 326a 7423     		je	.L403
  23:../ExecuteTest.h **** #endif
 7345              		.loc 8 23 0 discriminator 3
 7346 326c BF080000 		movl	$8, %edi
 7346      00
 7347 3271 E8000000 		call	__cxa_allocate_exception
 7347      00
 7348 3276 48C70000 		movq	$.LC75, (%rax)
 7348      000000
 7349 327d BA000000 		movl	$0, %edx
 7349      00
 7350 3282 BE000000 		movl	$_ZTIPKc, %esi
 7350      00
 7351 3287 4889C7   		movq	%rax, %rdi
 7352              	.LEHB180:
 7353 328a E8000000 		call	__cxa_throw
 7353      00
 7354              	.LEHE180:
 7355              	.L403:
  25:../ExecuteTest.h **** 	}
 7356              		.loc 8 25 0 is_stmt 1
 7357 328f 488B85A8 		movq	-1624(%rbp), %rax
 7357      F9FFFF
 7358 3296 4889C7   		movq	%rax, %rdi
 7359 3299 E85ADAFF 		call	_ZN12_GLOBAL__N_115SuiteTestSuite165DummyFixtureSimilarlyNamedFixtureTestsInDifferentSuitesWo
 7359      FF
  23:../ExecuteTest.h **** #endif
 7360              		.loc 8 23 0
 7361 329e 488D8580 		leaq	-1152(%rbp), %rax
 7361      FBFFFF
 7362 32a5 4889C7   		movq	%rax, %rdi
 7363              	.LEHB181:
 7364 32a8 E8000000 		call	_ZN8UnitTest16SignalTranslatorD1Ev
 7364      00
 7365              	.LEHE181:
 7366              	.LBE106:
 7367              		.loc 8 42 0
 7368 32ad E9F00100 		jmp	.L383
 7368      00
 7369              	.L398:
 7370 32b2 4989C4   		movq	%rax, %r12
 7371 32b5 4889D3   		movq	%rdx, %rbx
 7372              	.LBB107:
  23:../ExecuteTest.h **** #endif
 7373              		.loc 8 23 0
 7374 32b8 488D8580 		leaq	-1152(%rbp), %rax
 7374      FBFFFF
 7375 32bf 4889C7   		movq	%rax, %rdi
 7376 32c2 E8000000 		call	_ZN8UnitTest16SignalTranslatorD1Ev
 7376      00
 7377 32c7 4C89E0   		movq	%r12, %rax
 7378 32ca 4889DA   		movq	%rbx, %rdx
 7379 32cd EB00     		jmp	.L387
 7380              	.L397:
 7381              	.L387:
 7382 32cf 4883FA01 		cmpq	$1, %rdx
 7383 32d3 740F     		je	.L389
 7384 32d5 4883FA02 		cmpq	$2, %rdx
 7385 32d9 0F84A600 		je	.L390
 7385      0000
 7386 32df E9430100 		jmp	.L404
 7386      00
 7387              	.L389:
 7388              	.LBE107:
 7389              	.LBB108:
  27:../ExecuteTest.h **** 	{
 7390              		.loc 8 27 0
 7391 32e4 4889C7   		movq	%rax, %rdi
 7392 32e7 E8000000 		call	__cxa_begin_catch
 7392      00
 7393 32ec 488985B0 		movq	%rax, -1616(%rbp)
 7393      F9FFFF
  30:../ExecuteTest.h **** 	}
 7394              		.loc 8 30 0
 7395 32f3 488B85B0 		movq	-1616(%rbp), %rax
 7395      F9FFFF
 7396 32fa 488B00   		movq	(%rax), %rax
 7397 32fd 4883C010 		addq	$16, %rax
 7398 3301 488B00   		movq	(%rax), %rax
  29:../ExecuteTest.h **** 			TestDetails(details.testName, details.suiteName, e.Filename(), e.LineNumber()), e.what());
 7399              		.loc 8 29 0
 7400 3304 488B95B0 		movq	-1616(%rbp), %rdx
 7400      F9FFFF
 7401 330b 4889D7   		movq	%rdx, %rdi
 7402 330e FFD0     		call	*%rax
 7403 3310 4889C3   		movq	%rax, %rbx
 7404 3313 488B85B0 		movq	-1616(%rbp), %rax
 7404      F9FFFF
 7405 331a 4889C7   		movq	%rax, %rdi
 7406              	.LEHB182:
 7407 331d E8000000 		call	_ZNK8UnitTest15AssertException10LineNumberEv
 7407      00
  29:../ExecuteTest.h **** 			TestDetails(details.testName, details.suiteName, e.Filename(), e.LineNumber()), e.what());
 7408              		.loc 8 29 0 is_stmt 0 discriminator 1
 7409 3322 4189C4   		movl	%eax, %r12d
 7410 3325 488B85B0 		movq	-1616(%rbp), %rax
 7410      F9FFFF
 7411 332c 4889C7   		movq	%rax, %rdi
 7412 332f E8000000 		call	_ZNK8UnitTest15AssertException8FilenameEv
 7412      00
  29:../ExecuteTest.h **** 			TestDetails(details.testName, details.suiteName, e.Filename(), e.LineNumber()), e.what());
 7413              		.loc 8 29 0 discriminator 2
 7414 3334 4889C1   		movq	%rax, %rcx
 7415 3337 488B85A0 		movq	-1632(%rbp), %rax
 7415      F9FFFF
 7416 333e 488B10   		movq	(%rax), %rdx
 7417 3341 488B85A0 		movq	-1632(%rbp), %rax
 7417      F9FFFF
 7418 3348 488B7008 		movq	8(%rax), %rsi
 7419 334c 488D85C0 		leaq	-1600(%rbp), %rax
 7419      F9FFFF
 7420 3353 4589E0   		movl	%r12d, %r8d
 7421 3356 4889C7   		movq	%rax, %rdi
 7422 3359 E8000000 		call	_ZN8UnitTest11TestDetailsC1EPKcS2_S2_i
 7422      00
  29:../ExecuteTest.h **** 			TestDetails(details.testName, details.suiteName, e.Filename(), e.LineNumber()), e.what());
 7423              		.loc 8 29 0 discriminator 4
 7424 335e E8000000 		call	_ZN8UnitTest11CurrentTest7ResultsEv
 7424      00
 7425 3363 488B00   		movq	(%rax), %rax
 7426 3366 488D8DC0 		leaq	-1600(%rbp), %rcx
 7426      F9FFFF
 7427 336d 4889DA   		movq	%rbx, %rdx
 7428 3370 4889CE   		movq	%rcx, %rsi
 7429 3373 4889C7   		movq	%rax, %rdi
 7430 3376 E8000000 		call	_ZN8UnitTest11TestResults13OnTestFailureERKNS_11TestDetailsEPKc
 7430      00
 7431              	.LEHE182:
  27:../ExecuteTest.h **** 	{
 7432              		.loc 8 27 0 is_stmt 1 discriminator 8
 7433 337b E8000000 		call	__cxa_end_catch
 7433      00
 7434              	.LBE108:
 7435              		.loc 8 42 0 discriminator 8
 7436 3380 E91D0100 		jmp	.L383
 7436      00
 7437              	.L390:
 7438              	.LBB109:
  32:../ExecuteTest.h **** 	{
 7439              		.loc 8 32 0
 7440 3385 4889C7   		movq	%rax, %rdi
 7441 3388 E8000000 		call	__cxa_begin_catch
 7441      00
 7442 338d 488985B8 		movq	%rax, -1608(%rbp)
 7442      F9FFFF
 7443              	.LBB110:
  34:../ExecuteTest.h **** 		stream << "Unhandled exception: " << e.what();
 7444              		.loc 8 34 0
 7445 3394 488D85E0 		leaq	-1568(%rbp), %rax
 7445      F9FFFF
 7446 339b 4889C7   		movq	%rax, %rdi
 7447              	.LEHB183:
 7448 339e E8000000 		call	_ZN8UnitTest15MemoryOutStreamC1Ev
 7448      00
 7449              	.LEHE183:
  35:../ExecuteTest.h **** 		CurrentTest::Results()->OnTestFailure(details, stream.GetText());
 7450              		.loc 8 35 0
 7451 33a3 488B85B8 		movq	-1608(%rbp), %rax
 7451      F9FFFF
 7452 33aa 488B00   		movq	(%rax), %rax
 7453 33ad 4883C010 		addq	$16, %rax
 7454 33b1 488B00   		movq	(%rax), %rax
 7455 33b4 488B95B8 		movq	-1608(%rbp), %rdx
 7455      F9FFFF
 7456 33bb 4889D7   		movq	%rdx, %rdi
 7457 33be FFD0     		call	*%rax
 7458 33c0 4889C3   		movq	%rax, %rbx
 7459 33c3 488D85E0 		leaq	-1568(%rbp), %rax
 7459      F9FFFF
 7460 33ca BE000000 		movl	$.LC11, %esi
 7460      00
 7461 33cf 4889C7   		movq	%rax, %rdi
 7462              	.LEHB184:
 7463 33d2 E8000000 		call	_ZStlsISt11char_traitsIcEERSt13basic_ostreamIcT_ES5_PKc
 7463      00
  35:../ExecuteTest.h **** 		CurrentTest::Results()->OnTestFailure(details, stream.GetText());
 7464              		.loc 8 35 0 is_stmt 0 discriminator 1
 7465 33d7 4889DE   		movq	%rbx, %rsi
 7466 33da 4889C7   		movq	%rax, %rdi
 7467 33dd E8000000 		call	_ZStlsISt11char_traitsIcEERSt13basic_ostreamIcT_ES5_PKc
 7467      00
  36:../ExecuteTest.h **** 	}
 7468              		.loc 8 36 0 is_stmt 1
 7469 33e2 488D85E0 		leaq	-1568(%rbp), %rax
 7469      F9FFFF
 7470 33e9 4889C7   		movq	%rax, %rdi
 7471 33ec E8000000 		call	_ZNK8UnitTest15MemoryOutStream7GetTextEv
 7471      00
 7472 33f1 4889C3   		movq	%rax, %rbx
 7473 33f4 E8000000 		call	_ZN8UnitTest11CurrentTest7ResultsEv
 7473      00
  36:../ExecuteTest.h **** 	}
 7474              		.loc 8 36 0 is_stmt 0 discriminator 1
 7475 33f9 488B00   		movq	(%rax), %rax
 7476 33fc 488B8DA0 		movq	-1632(%rbp), %rcx
 7476      F9FFFF
 7477 3403 4889DA   		movq	%rbx, %rdx
 7478 3406 4889CE   		movq	%rcx, %rsi
 7479 3409 4889C7   		movq	%rax, %rdi
 7480 340c E8000000 		call	_ZN8UnitTest11TestResults13OnTestFailureERKNS_11TestDetailsEPKc
 7480      00
 7481              	.LEHE184:
  34:../ExecuteTest.h **** 		stream << "Unhandled exception: " << e.what();
 7482              		.loc 8 34 0 is_stmt 1
 7483 3411 488D85E0 		leaq	-1568(%rbp), %rax
 7483      F9FFFF
 7484 3418 4889C7   		movq	%rax, %rdi
 7485              	.LEHB185:
 7486 341b E8000000 		call	_ZN8UnitTest15MemoryOutStreamD1Ev
 7486      00
 7487              	.LEHE185:
 7488              	.LBE110:
  32:../ExecuteTest.h **** 	{
 7489              		.loc 8 32 0
 7490 3420 E8000000 		call	__cxa_end_catch
 7490      00
 7491              	.LBE109:
 7492              		.loc 8 42 0
 7493 3425 EB7B     		jmp	.L383
 7494              	.L404:
  38:../ExecuteTest.h **** 	{
 7495              		.loc 8 38 0
 7496 3427 4889C7   		movq	%rax, %rdi
 7497 342a E8000000 		call	__cxa_begin_catch
 7497      00
 7498              	.LEHB186:
  40:../ExecuteTest.h **** 	}
 7499              		.loc 8 40 0
 7500 342f E8000000 		call	_ZN8UnitTest11CurrentTest7ResultsEv
 7500      00
 7501 3434 488B00   		movq	(%rax), %rax
 7502 3437 488B8DA0 		movq	-1632(%rbp), %rcx
 7502      F9FFFF
 7503 343e BA000000 		movl	$.LC76, %edx
 7503      00
 7504 3443 4889CE   		movq	%rcx, %rsi
 7505 3446 4889C7   		movq	%rax, %rdi
 7506 3449 E8000000 		call	_ZN8UnitTest11TestResults13OnTestFailureERKNS_11TestDetailsEPKc
 7506      00
 7507              	.LEHE186:
 7508              	.LEHB187:
  38:../ExecuteTest.h **** 	{
 7509              		.loc 8 38 0
 7510 344e E8000000 		call	__cxa_end_catch
 7510      00
 7511              		.loc 8 42 0
 7512 3453 EB4D     		jmp	.L383
 7513              	.L399:
 7514 3455 4889C3   		movq	%rax, %rbx
 7515              	.LBB112:
  27:../ExecuteTest.h **** 	{
 7516              		.loc 8 27 0
 7517 3458 E8000000 		call	__cxa_end_catch
 7517      00
 7518 345d 4889D8   		movq	%rbx, %rax
 7519 3460 4889C7   		movq	%rax, %rdi
 7520 3463 E8000000 		call	_Unwind_Resume
 7520      00
 7521              	.LEHE187:
 7522              	.L401:
 7523 3468 4889C3   		movq	%rax, %rbx
 7524              	.LBE112:
 7525              	.LBB113:
 7526              	.LBB111:
  34:../ExecuteTest.h **** 		stream << "Unhandled exception: " << e.what();
 7527              		.loc 8 34 0
 7528 346b 488D85E0 		leaq	-1568(%rbp), %rax
 7528      F9FFFF
 7529 3472 4889C7   		movq	%rax, %rdi
 7530 3475 E8000000 		call	_ZN8UnitTest15MemoryOutStreamD1Ev
 7530      00
 7531 347a EB03     		jmp	.L394
 7532              	.L400:
 7533 347c 4889C3   		movq	%rax, %rbx
 7534              	.L394:
 7535              	.LBE111:
  32:../ExecuteTest.h **** 	{
 7536              		.loc 8 32 0
 7537 347f E8000000 		call	__cxa_end_catch
 7537      00
 7538 3484 4889D8   		movq	%rbx, %rax
 7539 3487 4889C7   		movq	%rax, %rdi
 7540              	.LEHB188:
 7541 348a E8000000 		call	_Unwind_Resume
 7541      00
 7542              	.LEHE188:
 7543              	.L402:
 7544 348f 4889C3   		movq	%rax, %rbx
 7545              	.LBE113:
  38:../ExecuteTest.h **** 	{
 7546              		.loc 8 38 0
 7547 3492 E8000000 		call	__cxa_end_catch
 7547      00
 7548 3497 4889D8   		movq	%rbx, %rax
 7549 349a 4889C7   		movq	%rax, %rdi
 7550              	.LEHB189:
 7551 349d E8000000 		call	_Unwind_Resume
 7551      00
 7552              	.LEHE189:
 7553              	.L383:
 7554              		.loc 8 42 0
 7555 34a2 488B45E8 		movq	-24(%rbp), %rax
 7556 34a6 64483304 		xorq	%fs:40, %rax
 7556      25280000 
 7556      00
 7557 34af 7405     		je	.L396
 7558 34b1 E8000000 		call	__stack_chk_fail
 7558      00
 7559              	.L396:
 7560 34b6 4881C450 		addq	$1616, %rsp
 7560      060000
 7561 34bd 5B       		popq	%rbx
 7562 34be 415C     		popq	%r12
 7563 34c0 5D       		popq	%rbp
 7564              		.cfi_def_cfa 7, 8
 7565 34c1 C3       		ret
 7566              		.cfi_endproc
 7567              	.LFE1251:
 7568              		.section	.gcc_except_table
 7569              		.align 4
 7570              	.LLSDA1251:
 7571 04e0 FF       		.byte	0xff
 7572 04e1 03       		.byte	0x3
 7573 04e2 59       		.uleb128 .LLSDATT1251-.LLSDATTD1251
 7574              	.LLSDATTD1251:
 7575 04e3 01       		.byte	0x1
 7576 04e4 42       		.uleb128 .LLSDACSE1251-.LLSDACSB1251
 7577              	.LLSDACSB1251:
 7578 04e5 2B       		.uleb128 .LEHB178-.LFB1251
 7579 04e6 05       		.uleb128 .LEHE178-.LEHB178
 7580 04e7 00       		.uleb128 0
 7581 04e8 00       		.uleb128 0
 7582 04e9 47       		.uleb128 .LEHB179-.LFB1251
 7583 04ea 05       		.uleb128 .LEHE179-.LEHB179
 7584 04eb CC01     		.uleb128 .L397-.LFB1251
 7585 04ed 05       		.uleb128 0x5
 7586 04ee 8701     		.uleb128 .LEHB180-.LFB1251
 7587 04f0 05       		.uleb128 .LEHE180-.LEHB180
 7588 04f1 AF01     		.uleb128 .L398-.LFB1251
 7589 04f3 07       		.uleb128 0x7
 7590 04f4 A501     		.uleb128 .LEHB181-.LFB1251
 7591 04f6 05       		.uleb128 .LEHE181-.LEHB181
 7592 04f7 CC01     		.uleb128 .L397-.LFB1251
 7593 04f9 05       		.uleb128 0x5
 7594 04fa 9A02     		.uleb128 .LEHB182-.LFB1251
 7595 04fc 5E       		.uleb128 .LEHE182-.LEHB182
 7596 04fd D204     		.uleb128 .L399-.LFB1251
 7597 04ff 00       		.uleb128 0
 7598 0500 9B03     		.uleb128 .LEHB183-.LFB1251
 7599 0502 05       		.uleb128 .LEHE183-.LEHB183
 7600 0503 F904     		.uleb128 .L400-.LFB1251
 7601 0505 00       		.uleb128 0
 7602 0506 CF03     		.uleb128 .LEHB184-.LFB1251
 7603 0508 3F       		.uleb128 .LEHE184-.LEHB184
 7604 0509 E504     		.uleb128 .L401-.LFB1251
 7605 050b 00       		.uleb128 0
 7606 050c 9804     		.uleb128 .LEHB185-.LFB1251
 7607 050e 05       		.uleb128 .LEHE185-.LEHB185
 7608 050f F904     		.uleb128 .L400-.LFB1251
 7609 0511 00       		.uleb128 0
 7610 0512 AC04     		.uleb128 .LEHB186-.LFB1251
 7611 0514 1F       		.uleb128 .LEHE186-.LEHB186
 7612 0515 8C05     		.uleb128 .L402-.LFB1251
 7613 0517 00       		.uleb128 0
 7614 0518 CB04     		.uleb128 .LEHB187-.LFB1251
 7615 051a 1A       		.uleb128 .LEHE187-.LEHB187
 7616 051b 00       		.uleb128 0
 7617 051c 00       		.uleb128 0
 7618 051d 8705     		.uleb128 .LEHB188-.LFB1251
 7619 051f 05       		.uleb128 .LEHE188-.LEHB188
 7620 0520 00       		.uleb128 0
 7621 0521 00       		.uleb128 0
 7622 0522 9A05     		.uleb128 .LEHB189-.LFB1251
 7623 0524 05       		.uleb128 .LEHE189-.LEHB189
 7624 0525 00       		.uleb128 0
 7625 0526 00       		.uleb128 0
 7626              	.LLSDACSE1251:
 7627 0527 03       		.byte	0x3
 7628 0528 00       		.byte	0
 7629 0529 02       		.byte	0x2
 7630 052a 7D       		.byte	0x7d
 7631 052b 01       		.byte	0x1
 7632 052c 7D       		.byte	0x7d
 7633 052d 00       		.byte	0
 7634 052e 7D       		.byte	0x7d
 7635 052f 00       		.align 4
 7636 0530 00000000 		.long	0
 7637              	
 7638 0534 00000000 		.long	_ZTISt9exception
 7639 0538 00000000 		.long	_ZTIN8UnitTest15AssertExceptionE
 7640              	.LLSDATT1251:
 7641              		.text
 7644              	_ZN8UnitTest11ExecuteTestIN12_GLOBAL__N_115SuiteTestSuite265DummyFixtureSimilarlyNamedFixtureTestsI
 7645              	.LFB1252:
  16:../ExecuteTest.h **** {
 7646              		.loc 8 16 0
 7647              		.cfi_startproc
 7648              		.cfi_personality 0x3,__gxx_personality_v0
 7649              		.cfi_lsda 0x3,.LLSDA1252
 7650 34c2 55       		pushq	%rbp
 7651              		.cfi_def_cfa_offset 16
 7652              		.cfi_offset 6, -16
 7653 34c3 4889E5   		movq	%rsp, %rbp
 7654              		.cfi_def_cfa_register 6
 7655 34c6 4154     		pushq	%r12
 7656 34c8 53       		pushq	%rbx
 7657 34c9 4881EC50 		subq	$1616, %rsp
 7657      060000
 7658              		.cfi_offset 12, -24
 7659              		.cfi_offset 3, -32
 7660 34d0 4889BDA8 		movq	%rdi, -1624(%rbp)
 7660      F9FFFF
 7661 34d7 4889B5A0 		movq	%rsi, -1632(%rbp)
 7661      F9FFFF
  16:../ExecuteTest.h **** {
 7662              		.loc 8 16 0
 7663 34de 64488B04 		movq	%fs:40, %rax
 7663      25280000 
 7663      00
 7664 34e7 488945E8 		movq	%rax, -24(%rbp)
 7665 34eb 31C0     		xorl	%eax, %eax
 7666              	.LEHB190:
  18:../ExecuteTest.h **** 
 7667              		.loc 8 18 0
 7668 34ed E8000000 		call	_ZN8UnitTest11CurrentTest7DetailsEv
 7668      00
 7669              	.LEHE190:
 7670 34f2 4889C2   		movq	%rax, %rdx
 7671 34f5 488B85A0 		movq	-1632(%rbp), %rax
 7671      F9FFFF
 7672 34fc 488902   		movq	%rax, (%rdx)
 7673              	.LBB114:
  23:../ExecuteTest.h **** #endif
 7674              		.loc 8 23 0
 7675 34ff 488D8580 		leaq	-1152(%rbp), %rax
 7675      FBFFFF
 7676 3506 4889C7   		movq	%rax, %rdi
 7677              	.LEHB191:
 7678 3509 E8000000 		call	_ZN8UnitTest16SignalTranslatorC1Ev
 7678      00
 7679              	.LEHE191:
  23:../ExecuteTest.h **** #endif
 7680              		.loc 8 23 0 is_stmt 0 discriminator 1
 7681 350e 488B0500 		movq	_ZN8UnitTest16SignalTranslator12s_jumpTargetE(%rip), %rax
 7681      000000
 7682 3515 BE010000 		movl	$1, %esi
 7682      00
 7683 351a 4889C7   		movq	%rax, %rdi
 7684 351d E8000000 		call	__sigsetjmp
 7684      00
 7685 3522 85C0     		testl	%eax, %eax
 7686 3524 0F95C0   		setne	%al
 7687 3527 84C0     		testb	%al, %al
 7688 3529 7423     		je	.L425
  23:../ExecuteTest.h **** #endif
 7689              		.loc 8 23 0 discriminator 3
 7690 352b BF080000 		movl	$8, %edi
 7690      00
 7691 3530 E8000000 		call	__cxa_allocate_exception
 7691      00
 7692 3535 48C70000 		movq	$.LC75, (%rax)
 7692      000000
 7693 353c BA000000 		movl	$0, %edx
 7693      00
 7694 3541 BE000000 		movl	$_ZTIPKc, %esi
 7694      00
 7695 3546 4889C7   		movq	%rax, %rdi
 7696              	.LEHB192:
 7697 3549 E8000000 		call	__cxa_throw
 7697      00
 7698              	.LEHE192:
 7699              	.L425:
  25:../ExecuteTest.h **** 	}
 7700              		.loc 8 25 0 is_stmt 1
 7701 354e 488B85A8 		movq	-1624(%rbp), %rax
 7701      F9FFFF
 7702 3555 4889C7   		movq	%rax, %rdi
 7703 3558 E843DBFF 		call	_ZN12_GLOBAL__N_115SuiteTestSuite265DummyFixtureSimilarlyNamedFixtureTestsInDifferentSuitesWo
 7703      FF
  23:../ExecuteTest.h **** #endif
 7704              		.loc 8 23 0
 7705 355d 488D8580 		leaq	-1152(%rbp), %rax
 7705      FBFFFF
 7706 3564 4889C7   		movq	%rax, %rdi
 7707              	.LEHB193:
 7708 3567 E8000000 		call	_ZN8UnitTest16SignalTranslatorD1Ev
 7708      00
 7709              	.LEHE193:
 7710              	.LBE114:
 7711              		.loc 8 42 0
 7712 356c E9F00100 		jmp	.L405
 7712      00
 7713              	.L420:
 7714 3571 4989C4   		movq	%rax, %r12
 7715 3574 4889D3   		movq	%rdx, %rbx
 7716              	.LBB115:
  23:../ExecuteTest.h **** #endif
 7717              		.loc 8 23 0
 7718 3577 488D8580 		leaq	-1152(%rbp), %rax
 7718      FBFFFF
 7719 357e 4889C7   		movq	%rax, %rdi
 7720 3581 E8000000 		call	_ZN8UnitTest16SignalTranslatorD1Ev
 7720      00
 7721 3586 4C89E0   		movq	%r12, %rax
 7722 3589 4889DA   		movq	%rbx, %rdx
 7723 358c EB00     		jmp	.L409
 7724              	.L419:
 7725              	.L409:
 7726 358e 4883FA01 		cmpq	$1, %rdx
 7727 3592 740F     		je	.L411
 7728 3594 4883FA02 		cmpq	$2, %rdx
 7729 3598 0F84A600 		je	.L412
 7729      0000
 7730 359e E9430100 		jmp	.L426
 7730      00
 7731              	.L411:
 7732              	.LBE115:
 7733              	.LBB116:
  27:../ExecuteTest.h **** 	{
 7734              		.loc 8 27 0
 7735 35a3 4889C7   		movq	%rax, %rdi
 7736 35a6 E8000000 		call	__cxa_begin_catch
 7736      00
 7737 35ab 488985B0 		movq	%rax, -1616(%rbp)
 7737      F9FFFF
  30:../ExecuteTest.h **** 	}
 7738              		.loc 8 30 0
 7739 35b2 488B85B0 		movq	-1616(%rbp), %rax
 7739      F9FFFF
 7740 35b9 488B00   		movq	(%rax), %rax
 7741 35bc 4883C010 		addq	$16, %rax
 7742 35c0 488B00   		movq	(%rax), %rax
  29:../ExecuteTest.h **** 			TestDetails(details.testName, details.suiteName, e.Filename(), e.LineNumber()), e.what());
 7743              		.loc 8 29 0
 7744 35c3 488B95B0 		movq	-1616(%rbp), %rdx
 7744      F9FFFF
 7745 35ca 4889D7   		movq	%rdx, %rdi
 7746 35cd FFD0     		call	*%rax
 7747 35cf 4889C3   		movq	%rax, %rbx
 7748 35d2 488B85B0 		movq	-1616(%rbp), %rax
 7748      F9FFFF
 7749 35d9 4889C7   		movq	%rax, %rdi
 7750              	.LEHB194:
 7751 35dc E8000000 		call	_ZNK8UnitTest15AssertException10LineNumberEv
 7751      00
  29:../ExecuteTest.h **** 			TestDetails(details.testName, details.suiteName, e.Filename(), e.LineNumber()), e.what());
 7752              		.loc 8 29 0 is_stmt 0 discriminator 1
 7753 35e1 4189C4   		movl	%eax, %r12d
 7754 35e4 488B85B0 		movq	-1616(%rbp), %rax
 7754      F9FFFF
 7755 35eb 4889C7   		movq	%rax, %rdi
 7756 35ee E8000000 		call	_ZNK8UnitTest15AssertException8FilenameEv
 7756      00
  29:../ExecuteTest.h **** 			TestDetails(details.testName, details.suiteName, e.Filename(), e.LineNumber()), e.what());
 7757              		.loc 8 29 0 discriminator 2
 7758 35f3 4889C1   		movq	%rax, %rcx
 7759 35f6 488B85A0 		movq	-1632(%rbp), %rax
 7759      F9FFFF
 7760 35fd 488B10   		movq	(%rax), %rdx
 7761 3600 488B85A0 		movq	-1632(%rbp), %rax
 7761      F9FFFF
 7762 3607 488B7008 		movq	8(%rax), %rsi
 7763 360b 488D85C0 		leaq	-1600(%rbp), %rax
 7763      F9FFFF
 7764 3612 4589E0   		movl	%r12d, %r8d
 7765 3615 4889C7   		movq	%rax, %rdi
 7766 3618 E8000000 		call	_ZN8UnitTest11TestDetailsC1EPKcS2_S2_i
 7766      00
  29:../ExecuteTest.h **** 			TestDetails(details.testName, details.suiteName, e.Filename(), e.LineNumber()), e.what());
 7767              		.loc 8 29 0 discriminator 4
 7768 361d E8000000 		call	_ZN8UnitTest11CurrentTest7ResultsEv
 7768      00
 7769 3622 488B00   		movq	(%rax), %rax
 7770 3625 488D8DC0 		leaq	-1600(%rbp), %rcx
 7770      F9FFFF
 7771 362c 4889DA   		movq	%rbx, %rdx
 7772 362f 4889CE   		movq	%rcx, %rsi
 7773 3632 4889C7   		movq	%rax, %rdi
 7774 3635 E8000000 		call	_ZN8UnitTest11TestResults13OnTestFailureERKNS_11TestDetailsEPKc
 7774      00
 7775              	.LEHE194:
  27:../ExecuteTest.h **** 	{
 7776              		.loc 8 27 0 is_stmt 1 discriminator 8
 7777 363a E8000000 		call	__cxa_end_catch
 7777      00
 7778              	.LBE116:
 7779              		.loc 8 42 0 discriminator 8
 7780 363f E91D0100 		jmp	.L405
 7780      00
 7781              	.L412:
 7782              	.LBB117:
  32:../ExecuteTest.h **** 	{
 7783              		.loc 8 32 0
 7784 3644 4889C7   		movq	%rax, %rdi
 7785 3647 E8000000 		call	__cxa_begin_catch
 7785      00
 7786 364c 488985B8 		movq	%rax, -1608(%rbp)
 7786      F9FFFF
 7787              	.LBB118:
  34:../ExecuteTest.h **** 		stream << "Unhandled exception: " << e.what();
 7788              		.loc 8 34 0
 7789 3653 488D85E0 		leaq	-1568(%rbp), %rax
 7789      F9FFFF
 7790 365a 4889C7   		movq	%rax, %rdi
 7791              	.LEHB195:
 7792 365d E8000000 		call	_ZN8UnitTest15MemoryOutStreamC1Ev
 7792      00
 7793              	.LEHE195:
  35:../ExecuteTest.h **** 		CurrentTest::Results()->OnTestFailure(details, stream.GetText());
 7794              		.loc 8 35 0
 7795 3662 488B85B8 		movq	-1608(%rbp), %rax
 7795      F9FFFF
 7796 3669 488B00   		movq	(%rax), %rax
 7797 366c 4883C010 		addq	$16, %rax
 7798 3670 488B00   		movq	(%rax), %rax
 7799 3673 488B95B8 		movq	-1608(%rbp), %rdx
 7799      F9FFFF
 7800 367a 4889D7   		movq	%rdx, %rdi
 7801 367d FFD0     		call	*%rax
 7802 367f 4889C3   		movq	%rax, %rbx
 7803 3682 488D85E0 		leaq	-1568(%rbp), %rax
 7803      F9FFFF
 7804 3689 BE000000 		movl	$.LC11, %esi
 7804      00
 7805 368e 4889C7   		movq	%rax, %rdi
 7806              	.LEHB196:
 7807 3691 E8000000 		call	_ZStlsISt11char_traitsIcEERSt13basic_ostreamIcT_ES5_PKc
 7807      00
  35:../ExecuteTest.h **** 		CurrentTest::Results()->OnTestFailure(details, stream.GetText());
 7808              		.loc 8 35 0 is_stmt 0 discriminator 1
 7809 3696 4889DE   		movq	%rbx, %rsi
 7810 3699 4889C7   		movq	%rax, %rdi
 7811 369c E8000000 		call	_ZStlsISt11char_traitsIcEERSt13basic_ostreamIcT_ES5_PKc
 7811      00
  36:../ExecuteTest.h **** 	}
 7812              		.loc 8 36 0 is_stmt 1
 7813 36a1 488D85E0 		leaq	-1568(%rbp), %rax
 7813      F9FFFF
 7814 36a8 4889C7   		movq	%rax, %rdi
 7815 36ab E8000000 		call	_ZNK8UnitTest15MemoryOutStream7GetTextEv
 7815      00
 7816 36b0 4889C3   		movq	%rax, %rbx
 7817 36b3 E8000000 		call	_ZN8UnitTest11CurrentTest7ResultsEv
 7817      00
  36:../ExecuteTest.h **** 	}
 7818              		.loc 8 36 0 is_stmt 0 discriminator 1
 7819 36b8 488B00   		movq	(%rax), %rax
 7820 36bb 488B8DA0 		movq	-1632(%rbp), %rcx
 7820      F9FFFF
 7821 36c2 4889DA   		movq	%rbx, %rdx
 7822 36c5 4889CE   		movq	%rcx, %rsi
 7823 36c8 4889C7   		movq	%rax, %rdi
 7824 36cb E8000000 		call	_ZN8UnitTest11TestResults13OnTestFailureERKNS_11TestDetailsEPKc
 7824      00
 7825              	.LEHE196:
  34:../ExecuteTest.h **** 		stream << "Unhandled exception: " << e.what();
 7826              		.loc 8 34 0 is_stmt 1
 7827 36d0 488D85E0 		leaq	-1568(%rbp), %rax
 7827      F9FFFF
 7828 36d7 4889C7   		movq	%rax, %rdi
 7829              	.LEHB197:
 7830 36da E8000000 		call	_ZN8UnitTest15MemoryOutStreamD1Ev
 7830      00
 7831              	.LEHE197:
 7832              	.LBE118:
  32:../ExecuteTest.h **** 	{
 7833              		.loc 8 32 0
 7834 36df E8000000 		call	__cxa_end_catch
 7834      00
 7835              	.LBE117:
 7836              		.loc 8 42 0
 7837 36e4 EB7B     		jmp	.L405
 7838              	.L426:
  38:../ExecuteTest.h **** 	{
 7839              		.loc 8 38 0
 7840 36e6 4889C7   		movq	%rax, %rdi
 7841 36e9 E8000000 		call	__cxa_begin_catch
 7841      00
 7842              	.LEHB198:
  40:../ExecuteTest.h **** 	}
 7843              		.loc 8 40 0
 7844 36ee E8000000 		call	_ZN8UnitTest11CurrentTest7ResultsEv
 7844      00
 7845 36f3 488B00   		movq	(%rax), %rax
 7846 36f6 488B8DA0 		movq	-1632(%rbp), %rcx
 7846      F9FFFF
 7847 36fd BA000000 		movl	$.LC76, %edx
 7847      00
 7848 3702 4889CE   		movq	%rcx, %rsi
 7849 3705 4889C7   		movq	%rax, %rdi
 7850 3708 E8000000 		call	_ZN8UnitTest11TestResults13OnTestFailureERKNS_11TestDetailsEPKc
 7850      00
 7851              	.LEHE198:
 7852              	.LEHB199:
  38:../ExecuteTest.h **** 	{
 7853              		.loc 8 38 0
 7854 370d E8000000 		call	__cxa_end_catch
 7854      00
 7855              		.loc 8 42 0
 7856 3712 EB4D     		jmp	.L405
 7857              	.L421:
 7858 3714 4889C3   		movq	%rax, %rbx
 7859              	.LBB120:
  27:../ExecuteTest.h **** 	{
 7860              		.loc 8 27 0
 7861 3717 E8000000 		call	__cxa_end_catch
 7861      00
 7862 371c 4889D8   		movq	%rbx, %rax
 7863 371f 4889C7   		movq	%rax, %rdi
 7864 3722 E8000000 		call	_Unwind_Resume
 7864      00
 7865              	.LEHE199:
 7866              	.L423:
 7867 3727 4889C3   		movq	%rax, %rbx
 7868              	.LBE120:
 7869              	.LBB121:
 7870              	.LBB119:
  34:../ExecuteTest.h **** 		stream << "Unhandled exception: " << e.what();
 7871              		.loc 8 34 0
 7872 372a 488D85E0 		leaq	-1568(%rbp), %rax
 7872      F9FFFF
 7873 3731 4889C7   		movq	%rax, %rdi
 7874 3734 E8000000 		call	_ZN8UnitTest15MemoryOutStreamD1Ev
 7874      00
 7875 3739 EB03     		jmp	.L416
 7876              	.L422:
 7877 373b 4889C3   		movq	%rax, %rbx
 7878              	.L416:
 7879              	.LBE119:
  32:../ExecuteTest.h **** 	{
 7880              		.loc 8 32 0
 7881 373e E8000000 		call	__cxa_end_catch
 7881      00
 7882 3743 4889D8   		movq	%rbx, %rax
 7883 3746 4889C7   		movq	%rax, %rdi
 7884              	.LEHB200:
 7885 3749 E8000000 		call	_Unwind_Resume
 7885      00
 7886              	.LEHE200:
 7887              	.L424:
 7888 374e 4889C3   		movq	%rax, %rbx
 7889              	.LBE121:
  38:../ExecuteTest.h **** 	{
 7890              		.loc 8 38 0
 7891 3751 E8000000 		call	__cxa_end_catch
 7891      00
 7892 3756 4889D8   		movq	%rbx, %rax
 7893 3759 4889C7   		movq	%rax, %rdi
 7894              	.LEHB201:
 7895 375c E8000000 		call	_Unwind_Resume
 7895      00
 7896              	.LEHE201:
 7897              	.L405:
 7898              		.loc 8 42 0
 7899 3761 488B45E8 		movq	-24(%rbp), %rax
 7900 3765 64483304 		xorq	%fs:40, %rax
 7900      25280000 
 7900      00
 7901 376e 7405     		je	.L418
 7902 3770 E8000000 		call	__stack_chk_fail
 7902      00
 7903              	.L418:
 7904 3775 4881C450 		addq	$1616, %rsp
 7904      060000
 7905 377c 5B       		popq	%rbx
 7906 377d 415C     		popq	%r12
 7907 377f 5D       		popq	%rbp
 7908              		.cfi_def_cfa 7, 8
 7909 3780 C3       		ret
 7910              		.cfi_endproc
 7911              	.LFE1252:
 7912              		.section	.gcc_except_table
 7913              		.align 4
 7914              	.LLSDA1252:
 7915 053c FF       		.byte	0xff
 7916 053d 03       		.byte	0x3
 7917 053e 59       		.uleb128 .LLSDATT1252-.LLSDATTD1252
 7918              	.LLSDATTD1252:
 7919 053f 01       		.byte	0x1
 7920 0540 42       		.uleb128 .LLSDACSE1252-.LLSDACSB1252
 7921              	.LLSDACSB1252:
 7922 0541 2B       		.uleb128 .LEHB190-.LFB1252
 7923 0542 05       		.uleb128 .LEHE190-.LEHB190
 7924 0543 00       		.uleb128 0
 7925 0544 00       		.uleb128 0
 7926 0545 47       		.uleb128 .LEHB191-.LFB1252
 7927 0546 05       		.uleb128 .LEHE191-.LEHB191
 7928 0547 CC01     		.uleb128 .L419-.LFB1252
 7929 0549 05       		.uleb128 0x5
 7930 054a 8701     		.uleb128 .LEHB192-.LFB1252
 7931 054c 05       		.uleb128 .LEHE192-.LEHB192
 7932 054d AF01     		.uleb128 .L420-.LFB1252
 7933 054f 07       		.uleb128 0x7
 7934 0550 A501     		.uleb128 .LEHB193-.LFB1252
 7935 0552 05       		.uleb128 .LEHE193-.LEHB193
 7936 0553 CC01     		.uleb128 .L419-.LFB1252
 7937 0555 05       		.uleb128 0x5
 7938 0556 9A02     		.uleb128 .LEHB194-.LFB1252
 7939 0558 5E       		.uleb128 .LEHE194-.LEHB194
 7940 0559 D204     		.uleb128 .L421-.LFB1252
 7941 055b 00       		.uleb128 0
 7942 055c 9B03     		.uleb128 .LEHB195-.LFB1252
 7943 055e 05       		.uleb128 .LEHE195-.LEHB195
 7944 055f F904     		.uleb128 .L422-.LFB1252
 7945 0561 00       		.uleb128 0
 7946 0562 CF03     		.uleb128 .LEHB196-.LFB1252
 7947 0564 3F       		.uleb128 .LEHE196-.LEHB196
 7948 0565 E504     		.uleb128 .L423-.LFB1252
 7949 0567 00       		.uleb128 0
 7950 0568 9804     		.uleb128 .LEHB197-.LFB1252
 7951 056a 05       		.uleb128 .LEHE197-.LEHB197
 7952 056b F904     		.uleb128 .L422-.LFB1252
 7953 056d 00       		.uleb128 0
 7954 056e AC04     		.uleb128 .LEHB198-.LFB1252
 7955 0570 1F       		.uleb128 .LEHE198-.LEHB198
 7956 0571 8C05     		.uleb128 .L424-.LFB1252
 7957 0573 00       		.uleb128 0
 7958 0574 CB04     		.uleb128 .LEHB199-.LFB1252
 7959 0576 1A       		.uleb128 .LEHE199-.LEHB199
 7960 0577 00       		.uleb128 0
 7961 0578 00       		.uleb128 0
 7962 0579 8705     		.uleb128 .LEHB200-.LFB1252
 7963 057b 05       		.uleb128 .LEHE200-.LEHB200
 7964 057c 00       		.uleb128 0
 7965 057d 00       		.uleb128 0
 7966 057e 9A05     		.uleb128 .LEHB201-.LFB1252
 7967 0580 05       		.uleb128 .LEHE201-.LEHB201
 7968 0581 00       		.uleb128 0
 7969 0582 00       		.uleb128 0
 7970              	.LLSDACSE1252:
 7971 0583 03       		.byte	0x3
 7972 0584 00       		.byte	0
 7973 0585 02       		.byte	0x2
 7974 0586 7D       		.byte	0x7d
 7975 0587 01       		.byte	0x1
 7976 0588 7D       		.byte	0x7d
 7977 0589 00       		.byte	0
 7978 058a 7D       		.byte	0x7d
 7979 058b 00       		.align 4
 7980 058c 00000000 		.long	0
 7981              	
 7982 0590 00000000 		.long	_ZTISt9exception
 7983 0594 00000000 		.long	_ZTIN8UnitTest15AssertExceptionE
 7984              	.LLSDATT1252:
 7985              		.text
 7988              	_ZN8UnitTest11ExecuteTestIN12_GLOBAL__N_134DummyFixtureMacroTestHelper2HelperEEEvRT_RKNS_11TestDeta
 7989              	.LFB1253:
  16:../ExecuteTest.h **** {
 7990              		.loc 8 16 0
 7991              		.cfi_startproc
 7992              		.cfi_personality 0x3,__gxx_personality_v0
 7993              		.cfi_lsda 0x3,.LLSDA1253
 7994 3781 55       		pushq	%rbp
 7995              		.cfi_def_cfa_offset 16
 7996              		.cfi_offset 6, -16
 7997 3782 4889E5   		movq	%rsp, %rbp
 7998              		.cfi_def_cfa_register 6
 7999 3785 4154     		pushq	%r12
 8000 3787 53       		pushq	%rbx
 8001 3788 4881EC50 		subq	$1616, %rsp
 8001      060000
 8002              		.cfi_offset 12, -24
 8003              		.cfi_offset 3, -32
 8004 378f 4889BDA8 		movq	%rdi, -1624(%rbp)
 8004      F9FFFF
 8005 3796 4889B5A0 		movq	%rsi, -1632(%rbp)
 8005      F9FFFF
  16:../ExecuteTest.h **** {
 8006              		.loc 8 16 0
 8007 379d 64488B04 		movq	%fs:40, %rax
 8007      25280000 
 8007      00
 8008 37a6 488945E8 		movq	%rax, -24(%rbp)
 8009 37aa 31C0     		xorl	%eax, %eax
 8010              	.LEHB202:
  18:../ExecuteTest.h **** 
 8011              		.loc 8 18 0
 8012 37ac E8000000 		call	_ZN8UnitTest11CurrentTest7DetailsEv
 8012      00
 8013              	.LEHE202:
 8014 37b1 4889C2   		movq	%rax, %rdx
 8015 37b4 488B85A0 		movq	-1632(%rbp), %rax
 8015      F9FFFF
 8016 37bb 488902   		movq	%rax, (%rdx)
 8017              	.LBB122:
  23:../ExecuteTest.h **** #endif
 8018              		.loc 8 23 0
 8019 37be 488D8580 		leaq	-1152(%rbp), %rax
 8019      FBFFFF
 8020 37c5 4889C7   		movq	%rax, %rdi
 8021              	.LEHB203:
 8022 37c8 E8000000 		call	_ZN8UnitTest16SignalTranslatorC1Ev
 8022      00
 8023              	.LEHE203:
  23:../ExecuteTest.h **** #endif
 8024              		.loc 8 23 0 is_stmt 0 discriminator 1
 8025 37cd 488B0500 		movq	_ZN8UnitTest16SignalTranslator12s_jumpTargetE(%rip), %rax
 8025      000000
 8026 37d4 BE010000 		movl	$1, %esi
 8026      00
 8027 37d9 4889C7   		movq	%rax, %rdi
 8028 37dc E8000000 		call	__sigsetjmp
 8028      00
 8029 37e1 85C0     		testl	%eax, %eax
 8030 37e3 0F95C0   		setne	%al
 8031 37e6 84C0     		testb	%al, %al
 8032 37e8 7423     		je	.L447
  23:../ExecuteTest.h **** #endif
 8033              		.loc 8 23 0 discriminator 3
 8034 37ea BF080000 		movl	$8, %edi
 8034      00
 8035 37ef E8000000 		call	__cxa_allocate_exception
 8035      00
 8036 37f4 48C70000 		movq	$.LC75, (%rax)
 8036      000000
 8037 37fb BA000000 		movl	$0, %edx
 8037      00
 8038 3800 BE000000 		movl	$_ZTIPKc, %esi
 8038      00
 8039 3805 4889C7   		movq	%rax, %rdi
 8040              	.LEHB204:
 8041 3808 E8000000 		call	__cxa_throw
 8041      00
 8042              	.LEHE204:
 8043              	.L447:
  25:../ExecuteTest.h **** 	}
 8044              		.loc 8 25 0 is_stmt 1
 8045 380d 488B85A8 		movq	-1624(%rbp), %rax
 8045      F9FFFF
 8046 3814 4889C7   		movq	%rax, %rdi
 8047 3817 E89EDEFF 		call	_ZN12_GLOBAL__N_134DummyFixtureMacroTestHelper2Helper7RunImplEv
 8047      FF
  23:../ExecuteTest.h **** #endif
 8048              		.loc 8 23 0
 8049 381c 488D8580 		leaq	-1152(%rbp), %rax
 8049      FBFFFF
 8050 3823 4889C7   		movq	%rax, %rdi
 8051              	.LEHB205:
 8052 3826 E8000000 		call	_ZN8UnitTest16SignalTranslatorD1Ev
 8052      00
 8053              	.LEHE205:
 8054              	.LBE122:
 8055              		.loc 8 42 0
 8056 382b E9F00100 		jmp	.L427
 8056      00
 8057              	.L442:
 8058 3830 4989C4   		movq	%rax, %r12
 8059 3833 4889D3   		movq	%rdx, %rbx
 8060              	.LBB123:
  23:../ExecuteTest.h **** #endif
 8061              		.loc 8 23 0
 8062 3836 488D8580 		leaq	-1152(%rbp), %rax
 8062      FBFFFF
 8063 383d 4889C7   		movq	%rax, %rdi
 8064 3840 E8000000 		call	_ZN8UnitTest16SignalTranslatorD1Ev
 8064      00
 8065 3845 4C89E0   		movq	%r12, %rax
 8066 3848 4889DA   		movq	%rbx, %rdx
 8067 384b EB00     		jmp	.L431
 8068              	.L441:
 8069              	.L431:
 8070 384d 4883FA01 		cmpq	$1, %rdx
 8071 3851 740F     		je	.L433
 8072 3853 4883FA02 		cmpq	$2, %rdx
 8073 3857 0F84A600 		je	.L434
 8073      0000
 8074 385d E9430100 		jmp	.L448
 8074      00
 8075              	.L433:
 8076              	.LBE123:
 8077              	.LBB124:
  27:../ExecuteTest.h **** 	{
 8078              		.loc 8 27 0
 8079 3862 4889C7   		movq	%rax, %rdi
 8080 3865 E8000000 		call	__cxa_begin_catch
 8080      00
 8081 386a 488985B0 		movq	%rax, -1616(%rbp)
 8081      F9FFFF
  30:../ExecuteTest.h **** 	}
 8082              		.loc 8 30 0
 8083 3871 488B85B0 		movq	-1616(%rbp), %rax
 8083      F9FFFF
 8084 3878 488B00   		movq	(%rax), %rax
 8085 387b 4883C010 		addq	$16, %rax
 8086 387f 488B00   		movq	(%rax), %rax
  29:../ExecuteTest.h **** 			TestDetails(details.testName, details.suiteName, e.Filename(), e.LineNumber()), e.what());
 8087              		.loc 8 29 0
 8088 3882 488B95B0 		movq	-1616(%rbp), %rdx
 8088      F9FFFF
 8089 3889 4889D7   		movq	%rdx, %rdi
 8090 388c FFD0     		call	*%rax
 8091 388e 4889C3   		movq	%rax, %rbx
 8092 3891 488B85B0 		movq	-1616(%rbp), %rax
 8092      F9FFFF
 8093 3898 4889C7   		movq	%rax, %rdi
 8094              	.LEHB206:
 8095 389b E8000000 		call	_ZNK8UnitTest15AssertException10LineNumberEv
 8095      00
  29:../ExecuteTest.h **** 			TestDetails(details.testName, details.suiteName, e.Filename(), e.LineNumber()), e.what());
 8096              		.loc 8 29 0 is_stmt 0 discriminator 1
 8097 38a0 4189C4   		movl	%eax, %r12d
 8098 38a3 488B85B0 		movq	-1616(%rbp), %rax
 8098      F9FFFF
 8099 38aa 4889C7   		movq	%rax, %rdi
 8100 38ad E8000000 		call	_ZNK8UnitTest15AssertException8FilenameEv
 8100      00
  29:../ExecuteTest.h **** 			TestDetails(details.testName, details.suiteName, e.Filename(), e.LineNumber()), e.what());
 8101              		.loc 8 29 0 discriminator 2
 8102 38b2 4889C1   		movq	%rax, %rcx
 8103 38b5 488B85A0 		movq	-1632(%rbp), %rax
 8103      F9FFFF
 8104 38bc 488B10   		movq	(%rax), %rdx
 8105 38bf 488B85A0 		movq	-1632(%rbp), %rax
 8105      F9FFFF
 8106 38c6 488B7008 		movq	8(%rax), %rsi
 8107 38ca 488D85C0 		leaq	-1600(%rbp), %rax
 8107      F9FFFF
 8108 38d1 4589E0   		movl	%r12d, %r8d
 8109 38d4 4889C7   		movq	%rax, %rdi
 8110 38d7 E8000000 		call	_ZN8UnitTest11TestDetailsC1EPKcS2_S2_i
 8110      00
  29:../ExecuteTest.h **** 			TestDetails(details.testName, details.suiteName, e.Filename(), e.LineNumber()), e.what());
 8111              		.loc 8 29 0 discriminator 4
 8112 38dc E8000000 		call	_ZN8UnitTest11CurrentTest7ResultsEv
 8112      00
 8113 38e1 488B00   		movq	(%rax), %rax
 8114 38e4 488D8DC0 		leaq	-1600(%rbp), %rcx
 8114      F9FFFF
 8115 38eb 4889DA   		movq	%rbx, %rdx
 8116 38ee 4889CE   		movq	%rcx, %rsi
 8117 38f1 4889C7   		movq	%rax, %rdi
 8118 38f4 E8000000 		call	_ZN8UnitTest11TestResults13OnTestFailureERKNS_11TestDetailsEPKc
 8118      00
 8119              	.LEHE206:
  27:../ExecuteTest.h **** 	{
 8120              		.loc 8 27 0 is_stmt 1 discriminator 8
 8121 38f9 E8000000 		call	__cxa_end_catch
 8121      00
 8122              	.LBE124:
 8123              		.loc 8 42 0 discriminator 8
 8124 38fe E91D0100 		jmp	.L427
 8124      00
 8125              	.L434:
 8126              	.LBB125:
  32:../ExecuteTest.h **** 	{
 8127              		.loc 8 32 0
 8128 3903 4889C7   		movq	%rax, %rdi
 8129 3906 E8000000 		call	__cxa_begin_catch
 8129      00
 8130 390b 488985B8 		movq	%rax, -1608(%rbp)
 8130      F9FFFF
 8131              	.LBB126:
  34:../ExecuteTest.h **** 		stream << "Unhandled exception: " << e.what();
 8132              		.loc 8 34 0
 8133 3912 488D85E0 		leaq	-1568(%rbp), %rax
 8133      F9FFFF
 8134 3919 4889C7   		movq	%rax, %rdi
 8135              	.LEHB207:
 8136 391c E8000000 		call	_ZN8UnitTest15MemoryOutStreamC1Ev
 8136      00
 8137              	.LEHE207:
  35:../ExecuteTest.h **** 		CurrentTest::Results()->OnTestFailure(details, stream.GetText());
 8138              		.loc 8 35 0
 8139 3921 488B85B8 		movq	-1608(%rbp), %rax
 8139      F9FFFF
 8140 3928 488B00   		movq	(%rax), %rax
 8141 392b 4883C010 		addq	$16, %rax
 8142 392f 488B00   		movq	(%rax), %rax
 8143 3932 488B95B8 		movq	-1608(%rbp), %rdx
 8143      F9FFFF
 8144 3939 4889D7   		movq	%rdx, %rdi
 8145 393c FFD0     		call	*%rax
 8146 393e 4889C3   		movq	%rax, %rbx
 8147 3941 488D85E0 		leaq	-1568(%rbp), %rax
 8147      F9FFFF
 8148 3948 BE000000 		movl	$.LC11, %esi
 8148      00
 8149 394d 4889C7   		movq	%rax, %rdi
 8150              	.LEHB208:
 8151 3950 E8000000 		call	_ZStlsISt11char_traitsIcEERSt13basic_ostreamIcT_ES5_PKc
 8151      00
  35:../ExecuteTest.h **** 		CurrentTest::Results()->OnTestFailure(details, stream.GetText());
 8152              		.loc 8 35 0 is_stmt 0 discriminator 1
 8153 3955 4889DE   		movq	%rbx, %rsi
 8154 3958 4889C7   		movq	%rax, %rdi
 8155 395b E8000000 		call	_ZStlsISt11char_traitsIcEERSt13basic_ostreamIcT_ES5_PKc
 8155      00
  36:../ExecuteTest.h **** 	}
 8156              		.loc 8 36 0 is_stmt 1
 8157 3960 488D85E0 		leaq	-1568(%rbp), %rax
 8157      F9FFFF
 8158 3967 4889C7   		movq	%rax, %rdi
 8159 396a E8000000 		call	_ZNK8UnitTest15MemoryOutStream7GetTextEv
 8159      00
 8160 396f 4889C3   		movq	%rax, %rbx
 8161 3972 E8000000 		call	_ZN8UnitTest11CurrentTest7ResultsEv
 8161      00
  36:../ExecuteTest.h **** 	}
 8162              		.loc 8 36 0 is_stmt 0 discriminator 1
 8163 3977 488B00   		movq	(%rax), %rax
 8164 397a 488B8DA0 		movq	-1632(%rbp), %rcx
 8164      F9FFFF
 8165 3981 4889DA   		movq	%rbx, %rdx
 8166 3984 4889CE   		movq	%rcx, %rsi
 8167 3987 4889C7   		movq	%rax, %rdi
 8168 398a E8000000 		call	_ZN8UnitTest11TestResults13OnTestFailureERKNS_11TestDetailsEPKc
 8168      00
 8169              	.LEHE208:
  34:../ExecuteTest.h **** 		stream << "Unhandled exception: " << e.what();
 8170              		.loc 8 34 0 is_stmt 1
 8171 398f 488D85E0 		leaq	-1568(%rbp), %rax
 8171      F9FFFF
 8172 3996 4889C7   		movq	%rax, %rdi
 8173              	.LEHB209:
 8174 3999 E8000000 		call	_ZN8UnitTest15MemoryOutStreamD1Ev
 8174      00
 8175              	.LEHE209:
 8176              	.LBE126:
  32:../ExecuteTest.h **** 	{
 8177              		.loc 8 32 0
 8178 399e E8000000 		call	__cxa_end_catch
 8178      00
 8179              	.LBE125:
 8180              		.loc 8 42 0
 8181 39a3 EB7B     		jmp	.L427
 8182              	.L448:
  38:../ExecuteTest.h **** 	{
 8183              		.loc 8 38 0
 8184 39a5 4889C7   		movq	%rax, %rdi
 8185 39a8 E8000000 		call	__cxa_begin_catch
 8185      00
 8186              	.LEHB210:
  40:../ExecuteTest.h **** 	}
 8187              		.loc 8 40 0
 8188 39ad E8000000 		call	_ZN8UnitTest11CurrentTest7ResultsEv
 8188      00
 8189 39b2 488B00   		movq	(%rax), %rax
 8190 39b5 488B8DA0 		movq	-1632(%rbp), %rcx
 8190      F9FFFF
 8191 39bc BA000000 		movl	$.LC76, %edx
 8191      00
 8192 39c1 4889CE   		movq	%rcx, %rsi
 8193 39c4 4889C7   		movq	%rax, %rdi
 8194 39c7 E8000000 		call	_ZN8UnitTest11TestResults13OnTestFailureERKNS_11TestDetailsEPKc
 8194      00
 8195              	.LEHE210:
 8196              	.LEHB211:
  38:../ExecuteTest.h **** 	{
 8197              		.loc 8 38 0
 8198 39cc E8000000 		call	__cxa_end_catch
 8198      00
 8199              		.loc 8 42 0
 8200 39d1 EB4D     		jmp	.L427
 8201              	.L443:
 8202 39d3 4889C3   		movq	%rax, %rbx
 8203              	.LBB128:
  27:../ExecuteTest.h **** 	{
 8204              		.loc 8 27 0
 8205 39d6 E8000000 		call	__cxa_end_catch
 8205      00
 8206 39db 4889D8   		movq	%rbx, %rax
 8207 39de 4889C7   		movq	%rax, %rdi
 8208 39e1 E8000000 		call	_Unwind_Resume
 8208      00
 8209              	.LEHE211:
 8210              	.L445:
 8211 39e6 4889C3   		movq	%rax, %rbx
 8212              	.LBE128:
 8213              	.LBB129:
 8214              	.LBB127:
  34:../ExecuteTest.h **** 		stream << "Unhandled exception: " << e.what();
 8215              		.loc 8 34 0
 8216 39e9 488D85E0 		leaq	-1568(%rbp), %rax
 8216      F9FFFF
 8217 39f0 4889C7   		movq	%rax, %rdi
 8218 39f3 E8000000 		call	_ZN8UnitTest15MemoryOutStreamD1Ev
 8218      00
 8219 39f8 EB03     		jmp	.L438
 8220              	.L444:
 8221 39fa 4889C3   		movq	%rax, %rbx
 8222              	.L438:
 8223              	.LBE127:
  32:../ExecuteTest.h **** 	{
 8224              		.loc 8 32 0
 8225 39fd E8000000 		call	__cxa_end_catch
 8225      00
 8226 3a02 4889D8   		movq	%rbx, %rax
 8227 3a05 4889C7   		movq	%rax, %rdi
 8228              	.LEHB212:
 8229 3a08 E8000000 		call	_Unwind_Resume
 8229      00
 8230              	.LEHE212:
 8231              	.L446:
 8232 3a0d 4889C3   		movq	%rax, %rbx
 8233              	.LBE129:
  38:../ExecuteTest.h **** 	{
 8234              		.loc 8 38 0
 8235 3a10 E8000000 		call	__cxa_end_catch
 8235      00
 8236 3a15 4889D8   		movq	%rbx, %rax
 8237 3a18 4889C7   		movq	%rax, %rdi
 8238              	.LEHB213:
 8239 3a1b E8000000 		call	_Unwind_Resume
 8239      00
 8240              	.LEHE213:
 8241              	.L427:
 8242              		.loc 8 42 0
 8243 3a20 488B45E8 		movq	-24(%rbp), %rax
 8244 3a24 64483304 		xorq	%fs:40, %rax
 8244      25280000 
 8244      00
 8245 3a2d 7405     		je	.L440
 8246 3a2f E8000000 		call	__stack_chk_fail
 8246      00
 8247              	.L440:
 8248 3a34 4881C450 		addq	$1616, %rsp
 8248      060000
 8249 3a3b 5B       		popq	%rbx
 8250 3a3c 415C     		popq	%r12
 8251 3a3e 5D       		popq	%rbp
 8252              		.cfi_def_cfa 7, 8
 8253 3a3f C3       		ret
 8254              		.cfi_endproc
 8255              	.LFE1253:
 8256              		.section	.gcc_except_table
 8257              		.align 4
 8258              	.LLSDA1253:
 8259 0598 FF       		.byte	0xff
 8260 0599 03       		.byte	0x3
 8261 059a 59       		.uleb128 .LLSDATT1253-.LLSDATTD1253
 8262              	.LLSDATTD1253:
 8263 059b 01       		.byte	0x1
 8264 059c 42       		.uleb128 .LLSDACSE1253-.LLSDACSB1253
 8265              	.LLSDACSB1253:
 8266 059d 2B       		.uleb128 .LEHB202-.LFB1253
 8267 059e 05       		.uleb128 .LEHE202-.LEHB202
 8268 059f 00       		.uleb128 0
 8269 05a0 00       		.uleb128 0
 8270 05a1 47       		.uleb128 .LEHB203-.LFB1253
 8271 05a2 05       		.uleb128 .LEHE203-.LEHB203
 8272 05a3 CC01     		.uleb128 .L441-.LFB1253
 8273 05a5 05       		.uleb128 0x5
 8274 05a6 8701     		.uleb128 .LEHB204-.LFB1253
 8275 05a8 05       		.uleb128 .LEHE204-.LEHB204
 8276 05a9 AF01     		.uleb128 .L442-.LFB1253
 8277 05ab 07       		.uleb128 0x7
 8278 05ac A501     		.uleb128 .LEHB205-.LFB1253
 8279 05ae 05       		.uleb128 .LEHE205-.LEHB205
 8280 05af CC01     		.uleb128 .L441-.LFB1253
 8281 05b1 05       		.uleb128 0x5
 8282 05b2 9A02     		.uleb128 .LEHB206-.LFB1253
 8283 05b4 5E       		.uleb128 .LEHE206-.LEHB206
 8284 05b5 D204     		.uleb128 .L443-.LFB1253
 8285 05b7 00       		.uleb128 0
 8286 05b8 9B03     		.uleb128 .LEHB207-.LFB1253
 8287 05ba 05       		.uleb128 .LEHE207-.LEHB207
 8288 05bb F904     		.uleb128 .L444-.LFB1253
 8289 05bd 00       		.uleb128 0
 8290 05be CF03     		.uleb128 .LEHB208-.LFB1253
 8291 05c0 3F       		.uleb128 .LEHE208-.LEHB208
 8292 05c1 E504     		.uleb128 .L445-.LFB1253
 8293 05c3 00       		.uleb128 0
 8294 05c4 9804     		.uleb128 .LEHB209-.LFB1253
 8295 05c6 05       		.uleb128 .LEHE209-.LEHB209
 8296 05c7 F904     		.uleb128 .L444-.LFB1253
 8297 05c9 00       		.uleb128 0
 8298 05ca AC04     		.uleb128 .LEHB210-.LFB1253
 8299 05cc 1F       		.uleb128 .LEHE210-.LEHB210
 8300 05cd 8C05     		.uleb128 .L446-.LFB1253
 8301 05cf 00       		.uleb128 0
 8302 05d0 CB04     		.uleb128 .LEHB211-.LFB1253
 8303 05d2 1A       		.uleb128 .LEHE211-.LEHB211
 8304 05d3 00       		.uleb128 0
 8305 05d4 00       		.uleb128 0
 8306 05d5 8705     		.uleb128 .LEHB212-.LFB1253
 8307 05d7 05       		.uleb128 .LEHE212-.LEHB212
 8308 05d8 00       		.uleb128 0
 8309 05d9 00       		.uleb128 0
 8310 05da 9A05     		.uleb128 .LEHB213-.LFB1253
 8311 05dc 05       		.uleb128 .LEHE213-.LEHB213
 8312 05dd 00       		.uleb128 0
 8313 05de 00       		.uleb128 0
 8314              	.LLSDACSE1253:
 8315 05df 03       		.byte	0x3
 8316 05e0 00       		.byte	0
 8317 05e1 02       		.byte	0x2
 8318 05e2 7D       		.byte	0x7d
 8319 05e3 01       		.byte	0x1
 8320 05e4 7D       		.byte	0x7d
 8321 05e5 00       		.byte	0
 8322 05e6 7D       		.byte	0x7d
 8323 05e7 00       		.align 4
 8324 05e8 00000000 		.long	0
 8325              	
 8326 05ec 00000000 		.long	_ZTISt9exception
 8327 05f0 00000000 		.long	_ZTIN8UnitTest15AssertExceptionE
 8328              	.LLSDATT1253:
 8329              		.text
 8332              	_ZN8UnitTest11ExecuteTestIN12_GLOBAL__N_148FixtureCtorThrowsFixtureCtorThrowsTestNameHelperEEEvRT_R
 8333              	.LFB1254:
  16:../ExecuteTest.h **** {
 8334              		.loc 8 16 0
 8335              		.cfi_startproc
 8336              		.cfi_personality 0x3,__gxx_personality_v0
 8337              		.cfi_lsda 0x3,.LLSDA1254
 8338 3a40 55       		pushq	%rbp
 8339              		.cfi_def_cfa_offset 16
 8340              		.cfi_offset 6, -16
 8341 3a41 4889E5   		movq	%rsp, %rbp
 8342              		.cfi_def_cfa_register 6
 8343 3a44 4154     		pushq	%r12
 8344 3a46 53       		pushq	%rbx
 8345 3a47 4881EC50 		subq	$1616, %rsp
 8345      060000
 8346              		.cfi_offset 12, -24
 8347              		.cfi_offset 3, -32
 8348 3a4e 4889BDA8 		movq	%rdi, -1624(%rbp)
 8348      F9FFFF
 8349 3a55 4889B5A0 		movq	%rsi, -1632(%rbp)
 8349      F9FFFF
  16:../ExecuteTest.h **** {
 8350              		.loc 8 16 0
 8351 3a5c 64488B04 		movq	%fs:40, %rax
 8351      25280000 
 8351      00
 8352 3a65 488945E8 		movq	%rax, -24(%rbp)
 8353 3a69 31C0     		xorl	%eax, %eax
 8354              	.LEHB214:
  18:../ExecuteTest.h **** 
 8355              		.loc 8 18 0
 8356 3a6b E8000000 		call	_ZN8UnitTest11CurrentTest7DetailsEv
 8356      00
 8357              	.LEHE214:
 8358 3a70 4889C2   		movq	%rax, %rdx
 8359 3a73 488B85A0 		movq	-1632(%rbp), %rax
 8359      F9FFFF
 8360 3a7a 488902   		movq	%rax, (%rdx)
 8361              	.LBB130:
  23:../ExecuteTest.h **** #endif
 8362              		.loc 8 23 0
 8363 3a7d 488D8580 		leaq	-1152(%rbp), %rax
 8363      FBFFFF
 8364 3a84 4889C7   		movq	%rax, %rdi
 8365              	.LEHB215:
 8366 3a87 E8000000 		call	_ZN8UnitTest16SignalTranslatorC1Ev
 8366      00
 8367              	.LEHE215:
  23:../ExecuteTest.h **** #endif
 8368              		.loc 8 23 0 is_stmt 0 discriminator 1
 8369 3a8c 488B0500 		movq	_ZN8UnitTest16SignalTranslator12s_jumpTargetE(%rip), %rax
 8369      000000
 8370 3a93 BE010000 		movl	$1, %esi
 8370      00
 8371 3a98 4889C7   		movq	%rax, %rdi
 8372 3a9b E8000000 		call	__sigsetjmp
 8372      00
 8373 3aa0 85C0     		testl	%eax, %eax
 8374 3aa2 0F95C0   		setne	%al
 8375 3aa5 84C0     		testb	%al, %al
 8376 3aa7 7423     		je	.L469
  23:../ExecuteTest.h **** #endif
 8377              		.loc 8 23 0 discriminator 3
 8378 3aa9 BF080000 		movl	$8, %edi
 8378      00
 8379 3aae E8000000 		call	__cxa_allocate_exception
 8379      00
 8380 3ab3 48C70000 		movq	$.LC75, (%rax)
 8380      000000
 8381 3aba BA000000 		movl	$0, %edx
 8381      00
 8382 3abf BE000000 		movl	$_ZTIPKc, %esi
 8382      00
 8383 3ac4 4889C7   		movq	%rax, %rdi
 8384              	.LEHB216:
 8385 3ac7 E8000000 		call	__cxa_throw
 8385      00
 8386              	.LEHE216:
 8387              	.L469:
  25:../ExecuteTest.h **** 	}
 8388              		.loc 8 25 0 is_stmt 1
 8389 3acc 488B85A8 		movq	-1624(%rbp), %rax
 8389      F9FFFF
 8390 3ad3 4889C7   		movq	%rax, %rdi
 8391 3ad6 E8DBE1FF 		call	_ZN12_GLOBAL__N_148FixtureCtorThrowsFixtureCtorThrowsTestNameHelper7RunImplEv
 8391      FF
  23:../ExecuteTest.h **** #endif
 8392              		.loc 8 23 0
 8393 3adb 488D8580 		leaq	-1152(%rbp), %rax
 8393      FBFFFF
 8394 3ae2 4889C7   		movq	%rax, %rdi
 8395              	.LEHB217:
 8396 3ae5 E8000000 		call	_ZN8UnitTest16SignalTranslatorD1Ev
 8396      00
 8397              	.LEHE217:
 8398              	.LBE130:
 8399              		.loc 8 42 0
 8400 3aea E9F00100 		jmp	.L449
 8400      00
 8401              	.L464:
 8402 3aef 4989C4   		movq	%rax, %r12
 8403 3af2 4889D3   		movq	%rdx, %rbx
 8404              	.LBB131:
  23:../ExecuteTest.h **** #endif
 8405              		.loc 8 23 0
 8406 3af5 488D8580 		leaq	-1152(%rbp), %rax
 8406      FBFFFF
 8407 3afc 4889C7   		movq	%rax, %rdi
 8408 3aff E8000000 		call	_ZN8UnitTest16SignalTranslatorD1Ev
 8408      00
 8409 3b04 4C89E0   		movq	%r12, %rax
 8410 3b07 4889DA   		movq	%rbx, %rdx
 8411 3b0a EB00     		jmp	.L453
 8412              	.L463:
 8413              	.L453:
 8414 3b0c 4883FA01 		cmpq	$1, %rdx
 8415 3b10 740F     		je	.L455
 8416 3b12 4883FA02 		cmpq	$2, %rdx
 8417 3b16 0F84A600 		je	.L456
 8417      0000
 8418 3b1c E9430100 		jmp	.L470
 8418      00
 8419              	.L455:
 8420              	.LBE131:
 8421              	.LBB132:
  27:../ExecuteTest.h **** 	{
 8422              		.loc 8 27 0
 8423 3b21 4889C7   		movq	%rax, %rdi
 8424 3b24 E8000000 		call	__cxa_begin_catch
 8424      00
 8425 3b29 488985B0 		movq	%rax, -1616(%rbp)
 8425      F9FFFF
  30:../ExecuteTest.h **** 	}
 8426              		.loc 8 30 0
 8427 3b30 488B85B0 		movq	-1616(%rbp), %rax
 8427      F9FFFF
 8428 3b37 488B00   		movq	(%rax), %rax
 8429 3b3a 4883C010 		addq	$16, %rax
 8430 3b3e 488B00   		movq	(%rax), %rax
  29:../ExecuteTest.h **** 			TestDetails(details.testName, details.suiteName, e.Filename(), e.LineNumber()), e.what());
 8431              		.loc 8 29 0
 8432 3b41 488B95B0 		movq	-1616(%rbp), %rdx
 8432      F9FFFF
 8433 3b48 4889D7   		movq	%rdx, %rdi
 8434 3b4b FFD0     		call	*%rax
 8435 3b4d 4889C3   		movq	%rax, %rbx
 8436 3b50 488B85B0 		movq	-1616(%rbp), %rax
 8436      F9FFFF
 8437 3b57 4889C7   		movq	%rax, %rdi
 8438              	.LEHB218:
 8439 3b5a E8000000 		call	_ZNK8UnitTest15AssertException10LineNumberEv
 8439      00
  29:../ExecuteTest.h **** 			TestDetails(details.testName, details.suiteName, e.Filename(), e.LineNumber()), e.what());
 8440              		.loc 8 29 0 is_stmt 0 discriminator 1
 8441 3b5f 4189C4   		movl	%eax, %r12d
 8442 3b62 488B85B0 		movq	-1616(%rbp), %rax
 8442      F9FFFF
 8443 3b69 4889C7   		movq	%rax, %rdi
 8444 3b6c E8000000 		call	_ZNK8UnitTest15AssertException8FilenameEv
 8444      00
  29:../ExecuteTest.h **** 			TestDetails(details.testName, details.suiteName, e.Filename(), e.LineNumber()), e.what());
 8445              		.loc 8 29 0 discriminator 2
 8446 3b71 4889C1   		movq	%rax, %rcx
 8447 3b74 488B85A0 		movq	-1632(%rbp), %rax
 8447      F9FFFF
 8448 3b7b 488B10   		movq	(%rax), %rdx
 8449 3b7e 488B85A0 		movq	-1632(%rbp), %rax
 8449      F9FFFF
 8450 3b85 488B7008 		movq	8(%rax), %rsi
 8451 3b89 488D85C0 		leaq	-1600(%rbp), %rax
 8451      F9FFFF
 8452 3b90 4589E0   		movl	%r12d, %r8d
 8453 3b93 4889C7   		movq	%rax, %rdi
 8454 3b96 E8000000 		call	_ZN8UnitTest11TestDetailsC1EPKcS2_S2_i
 8454      00
  29:../ExecuteTest.h **** 			TestDetails(details.testName, details.suiteName, e.Filename(), e.LineNumber()), e.what());
 8455              		.loc 8 29 0 discriminator 4
 8456 3b9b E8000000 		call	_ZN8UnitTest11CurrentTest7ResultsEv
 8456      00
 8457 3ba0 488B00   		movq	(%rax), %rax
 8458 3ba3 488D8DC0 		leaq	-1600(%rbp), %rcx
 8458      F9FFFF
 8459 3baa 4889DA   		movq	%rbx, %rdx
 8460 3bad 4889CE   		movq	%rcx, %rsi
 8461 3bb0 4889C7   		movq	%rax, %rdi
 8462 3bb3 E8000000 		call	_ZN8UnitTest11TestResults13OnTestFailureERKNS_11TestDetailsEPKc
 8462      00
 8463              	.LEHE218:
  27:../ExecuteTest.h **** 	{
 8464              		.loc 8 27 0 is_stmt 1 discriminator 8
 8465 3bb8 E8000000 		call	__cxa_end_catch
 8465      00
 8466              	.LBE132:
 8467              		.loc 8 42 0 discriminator 8
 8468 3bbd E91D0100 		jmp	.L449
 8468      00
 8469              	.L456:
 8470              	.LBB133:
  32:../ExecuteTest.h **** 	{
 8471              		.loc 8 32 0
 8472 3bc2 4889C7   		movq	%rax, %rdi
 8473 3bc5 E8000000 		call	__cxa_begin_catch
 8473      00
 8474 3bca 488985B8 		movq	%rax, -1608(%rbp)
 8474      F9FFFF
 8475              	.LBB134:
  34:../ExecuteTest.h **** 		stream << "Unhandled exception: " << e.what();
 8476              		.loc 8 34 0
 8477 3bd1 488D85E0 		leaq	-1568(%rbp), %rax
 8477      F9FFFF
 8478 3bd8 4889C7   		movq	%rax, %rdi
 8479              	.LEHB219:
 8480 3bdb E8000000 		call	_ZN8UnitTest15MemoryOutStreamC1Ev
 8480      00
 8481              	.LEHE219:
  35:../ExecuteTest.h **** 		CurrentTest::Results()->OnTestFailure(details, stream.GetText());
 8482              		.loc 8 35 0
 8483 3be0 488B85B8 		movq	-1608(%rbp), %rax
 8483      F9FFFF
 8484 3be7 488B00   		movq	(%rax), %rax
 8485 3bea 4883C010 		addq	$16, %rax
 8486 3bee 488B00   		movq	(%rax), %rax
 8487 3bf1 488B95B8 		movq	-1608(%rbp), %rdx
 8487      F9FFFF
 8488 3bf8 4889D7   		movq	%rdx, %rdi
 8489 3bfb FFD0     		call	*%rax
 8490 3bfd 4889C3   		movq	%rax, %rbx
 8491 3c00 488D85E0 		leaq	-1568(%rbp), %rax
 8491      F9FFFF
 8492 3c07 BE000000 		movl	$.LC11, %esi
 8492      00
 8493 3c0c 4889C7   		movq	%rax, %rdi
 8494              	.LEHB220:
 8495 3c0f E8000000 		call	_ZStlsISt11char_traitsIcEERSt13basic_ostreamIcT_ES5_PKc
 8495      00
  35:../ExecuteTest.h **** 		CurrentTest::Results()->OnTestFailure(details, stream.GetText());
 8496              		.loc 8 35 0 is_stmt 0 discriminator 1
 8497 3c14 4889DE   		movq	%rbx, %rsi
 8498 3c17 4889C7   		movq	%rax, %rdi
 8499 3c1a E8000000 		call	_ZStlsISt11char_traitsIcEERSt13basic_ostreamIcT_ES5_PKc
 8499      00
  36:../ExecuteTest.h **** 	}
 8500              		.loc 8 36 0 is_stmt 1
 8501 3c1f 488D85E0 		leaq	-1568(%rbp), %rax
 8501      F9FFFF
 8502 3c26 4889C7   		movq	%rax, %rdi
 8503 3c29 E8000000 		call	_ZNK8UnitTest15MemoryOutStream7GetTextEv
 8503      00
 8504 3c2e 4889C3   		movq	%rax, %rbx
 8505 3c31 E8000000 		call	_ZN8UnitTest11CurrentTest7ResultsEv
 8505      00
  36:../ExecuteTest.h **** 	}
 8506              		.loc 8 36 0 is_stmt 0 discriminator 1
 8507 3c36 488B00   		movq	(%rax), %rax
 8508 3c39 488B8DA0 		movq	-1632(%rbp), %rcx
 8508      F9FFFF
 8509 3c40 4889DA   		movq	%rbx, %rdx
 8510 3c43 4889CE   		movq	%rcx, %rsi
 8511 3c46 4889C7   		movq	%rax, %rdi
 8512 3c49 E8000000 		call	_ZN8UnitTest11TestResults13OnTestFailureERKNS_11TestDetailsEPKc
 8512      00
 8513              	.LEHE220:
  34:../ExecuteTest.h **** 		stream << "Unhandled exception: " << e.what();
 8514              		.loc 8 34 0 is_stmt 1
 8515 3c4e 488D85E0 		leaq	-1568(%rbp), %rax
 8515      F9FFFF
 8516 3c55 4889C7   		movq	%rax, %rdi
 8517              	.LEHB221:
 8518 3c58 E8000000 		call	_ZN8UnitTest15MemoryOutStreamD1Ev
 8518      00
 8519              	.LEHE221:
 8520              	.LBE134:
  32:../ExecuteTest.h **** 	{
 8521              		.loc 8 32 0
 8522 3c5d E8000000 		call	__cxa_end_catch
 8522      00
 8523              	.LBE133:
 8524              		.loc 8 42 0
 8525 3c62 EB7B     		jmp	.L449
 8526              	.L470:
  38:../ExecuteTest.h **** 	{
 8527              		.loc 8 38 0
 8528 3c64 4889C7   		movq	%rax, %rdi
 8529 3c67 E8000000 		call	__cxa_begin_catch
 8529      00
 8530              	.LEHB222:
  40:../ExecuteTest.h **** 	}
 8531              		.loc 8 40 0
 8532 3c6c E8000000 		call	_ZN8UnitTest11CurrentTest7ResultsEv
 8532      00
 8533 3c71 488B00   		movq	(%rax), %rax
 8534 3c74 488B8DA0 		movq	-1632(%rbp), %rcx
 8534      F9FFFF
 8535 3c7b BA000000 		movl	$.LC76, %edx
 8535      00
 8536 3c80 4889CE   		movq	%rcx, %rsi
 8537 3c83 4889C7   		movq	%rax, %rdi
 8538 3c86 E8000000 		call	_ZN8UnitTest11TestResults13OnTestFailureERKNS_11TestDetailsEPKc
 8538      00
 8539              	.LEHE222:
 8540              	.LEHB223:
  38:../ExecuteTest.h **** 	{
 8541              		.loc 8 38 0
 8542 3c8b E8000000 		call	__cxa_end_catch
 8542      00
 8543              		.loc 8 42 0
 8544 3c90 EB4D     		jmp	.L449
 8545              	.L465:
 8546 3c92 4889C3   		movq	%rax, %rbx
 8547              	.LBB136:
  27:../ExecuteTest.h **** 	{
 8548              		.loc 8 27 0
 8549 3c95 E8000000 		call	__cxa_end_catch
 8549      00
 8550 3c9a 4889D8   		movq	%rbx, %rax
 8551 3c9d 4889C7   		movq	%rax, %rdi
 8552 3ca0 E8000000 		call	_Unwind_Resume
 8552      00
 8553              	.LEHE223:
 8554              	.L467:
 8555 3ca5 4889C3   		movq	%rax, %rbx
 8556              	.LBE136:
 8557              	.LBB137:
 8558              	.LBB135:
  34:../ExecuteTest.h **** 		stream << "Unhandled exception: " << e.what();
 8559              		.loc 8 34 0
 8560 3ca8 488D85E0 		leaq	-1568(%rbp), %rax
 8560      F9FFFF
 8561 3caf 4889C7   		movq	%rax, %rdi
 8562 3cb2 E8000000 		call	_ZN8UnitTest15MemoryOutStreamD1Ev
 8562      00
 8563 3cb7 EB03     		jmp	.L460
 8564              	.L466:
 8565 3cb9 4889C3   		movq	%rax, %rbx
 8566              	.L460:
 8567              	.LBE135:
  32:../ExecuteTest.h **** 	{
 8568              		.loc 8 32 0
 8569 3cbc E8000000 		call	__cxa_end_catch
 8569      00
 8570 3cc1 4889D8   		movq	%rbx, %rax
 8571 3cc4 4889C7   		movq	%rax, %rdi
 8572              	.LEHB224:
 8573 3cc7 E8000000 		call	_Unwind_Resume
 8573      00
 8574              	.LEHE224:
 8575              	.L468:
 8576 3ccc 4889C3   		movq	%rax, %rbx
 8577              	.LBE137:
  38:../ExecuteTest.h **** 	{
 8578              		.loc 8 38 0
 8579 3ccf E8000000 		call	__cxa_end_catch
 8579      00
 8580 3cd4 4889D8   		movq	%rbx, %rax
 8581 3cd7 4889C7   		movq	%rax, %rdi
 8582              	.LEHB225:
 8583 3cda E8000000 		call	_Unwind_Resume
 8583      00
 8584              	.LEHE225:
 8585              	.L449:
 8586              		.loc 8 42 0
 8587 3cdf 488B45E8 		movq	-24(%rbp), %rax
 8588 3ce3 64483304 		xorq	%fs:40, %rax
 8588      25280000 
 8588      00
 8589 3cec 7405     		je	.L462
 8590 3cee E8000000 		call	__stack_chk_fail
 8590      00
 8591              	.L462:
 8592 3cf3 4881C450 		addq	$1616, %rsp
 8592      060000
 8593 3cfa 5B       		popq	%rbx
 8594 3cfb 415C     		popq	%r12
 8595 3cfd 5D       		popq	%rbp
 8596              		.cfi_def_cfa 7, 8
 8597 3cfe C3       		ret
 8598              		.cfi_endproc
 8599              	.LFE1254:
 8600              		.section	.gcc_except_table
 8601              		.align 4
 8602              	.LLSDA1254:
 8603 05f4 FF       		.byte	0xff
 8604 05f5 03       		.byte	0x3
 8605 05f6 59       		.uleb128 .LLSDATT1254-.LLSDATTD1254
 8606              	.LLSDATTD1254:
 8607 05f7 01       		.byte	0x1
 8608 05f8 42       		.uleb128 .LLSDACSE1254-.LLSDACSB1254
 8609              	.LLSDACSB1254:
 8610 05f9 2B       		.uleb128 .LEHB214-.LFB1254
 8611 05fa 05       		.uleb128 .LEHE214-.LEHB214
 8612 05fb 00       		.uleb128 0
 8613 05fc 00       		.uleb128 0
 8614 05fd 47       		.uleb128 .LEHB215-.LFB1254
 8615 05fe 05       		.uleb128 .LEHE215-.LEHB215
 8616 05ff CC01     		.uleb128 .L463-.LFB1254
 8617 0601 05       		.uleb128 0x5
 8618 0602 8701     		.uleb128 .LEHB216-.LFB1254
 8619 0604 05       		.uleb128 .LEHE216-.LEHB216
 8620 0605 AF01     		.uleb128 .L464-.LFB1254
 8621 0607 07       		.uleb128 0x7
 8622 0608 A501     		.uleb128 .LEHB217-.LFB1254
 8623 060a 05       		.uleb128 .LEHE217-.LEHB217
 8624 060b CC01     		.uleb128 .L463-.LFB1254
 8625 060d 05       		.uleb128 0x5
 8626 060e 9A02     		.uleb128 .LEHB218-.LFB1254
 8627 0610 5E       		.uleb128 .LEHE218-.LEHB218
 8628 0611 D204     		.uleb128 .L465-.LFB1254
 8629 0613 00       		.uleb128 0
 8630 0614 9B03     		.uleb128 .LEHB219-.LFB1254
 8631 0616 05       		.uleb128 .LEHE219-.LEHB219
 8632 0617 F904     		.uleb128 .L466-.LFB1254
 8633 0619 00       		.uleb128 0
 8634 061a CF03     		.uleb128 .LEHB220-.LFB1254
 8635 061c 3F       		.uleb128 .LEHE220-.LEHB220
 8636 061d E504     		.uleb128 .L467-.LFB1254
 8637 061f 00       		.uleb128 0
 8638 0620 9804     		.uleb128 .LEHB221-.LFB1254
 8639 0622 05       		.uleb128 .LEHE221-.LEHB221
 8640 0623 F904     		.uleb128 .L466-.LFB1254
 8641 0625 00       		.uleb128 0
 8642 0626 AC04     		.uleb128 .LEHB222-.LFB1254
 8643 0628 1F       		.uleb128 .LEHE222-.LEHB222
 8644 0629 8C05     		.uleb128 .L468-.LFB1254
 8645 062b 00       		.uleb128 0
 8646 062c CB04     		.uleb128 .LEHB223-.LFB1254
 8647 062e 1A       		.uleb128 .LEHE223-.LEHB223
 8648 062f 00       		.uleb128 0
 8649 0630 00       		.uleb128 0
 8650 0631 8705     		.uleb128 .LEHB224-.LFB1254
 8651 0633 05       		.uleb128 .LEHE224-.LEHB224
 8652 0634 00       		.uleb128 0
 8653 0635 00       		.uleb128 0
 8654 0636 9A05     		.uleb128 .LEHB225-.LFB1254
 8655 0638 05       		.uleb128 .LEHE225-.LEHB225
 8656 0639 00       		.uleb128 0
 8657 063a 00       		.uleb128 0
 8658              	.LLSDACSE1254:
 8659 063b 03       		.byte	0x3
 8660 063c 00       		.byte	0
 8661 063d 02       		.byte	0x2
 8662 063e 7D       		.byte	0x7d
 8663 063f 01       		.byte	0x1
 8664 0640 7D       		.byte	0x7d
 8665 0641 00       		.byte	0
 8666 0642 7D       		.byte	0x7d
 8667 0643 00       		.align 4
 8668 0644 00000000 		.long	0
 8669              	
 8670 0648 00000000 		.long	_ZTISt9exception
 8671 064c 00000000 		.long	_ZTIN8UnitTest15AssertExceptionE
 8672              	.LLSDATT1254:
 8673              		.text
 8675              		.section	.rodata
 8676              	.LC77:
 8677 0e6f 45787065 		.string	"Expected "
 8677      63746564 
 8677      2000
 8678              	.LC78:
 8679 0e79 20627574 		.string	" but was "
 8679      20776173 
 8679      2000
 8680              		.section	.text._ZN8UnitTest10CheckEqualIiiEEvRNS_11TestResultsERKT_RKT0_RKNS_11TestDetailsE,"axG",
 8681              		.weak	_ZN8UnitTest10CheckEqualIiiEEvRNS_11TestResultsERKT_RKT0_RKNS_11TestDetailsE
 8683              	_ZN8UnitTest10CheckEqualIiiEEvRNS_11TestResultsERKT_RKT0_RKNS_11TestDetailsE:
 8684              	.LFB1255:
  16:../Checks.h   **** 
  17:../Checks.h   **** 
  18:../Checks.h   **** template< typename Expected, typename Actual >
  19:../Checks.h   **** void CheckEqual(TestResults& results, Expected const& expected, Actual const& actual, TestDetails c
 8685              		.loc 7 19 0
 8686              		.cfi_startproc
 8687              		.cfi_personality 0x3,__gxx_personality_v0
 8688              		.cfi_lsda 0x3,.LLSDA1255
 8689 0000 55       		pushq	%rbp
 8690              		.cfi_def_cfa_offset 16
 8691              		.cfi_offset 6, -16
 8692 0001 4889E5   		movq	%rsp, %rbp
 8693              		.cfi_def_cfa_register 6
 8694 0004 4154     		pushq	%r12
 8695 0006 53       		pushq	%rbx
 8696 0007 4881ECC0 		subq	$448, %rsp
 8696      010000
 8697              		.cfi_offset 12, -24
 8698              		.cfi_offset 3, -32
 8699 000e 4889BD48 		movq	%rdi, -440(%rbp)
 8699      FEFFFF
 8700 0015 4889B540 		movq	%rsi, -448(%rbp)
 8700      FEFFFF
 8701 001c 48899538 		movq	%rdx, -456(%rbp)
 8701      FEFFFF
 8702 0023 48898D30 		movq	%rcx, -464(%rbp)
 8702      FEFFFF
 8703              		.loc 7 19 0
 8704 002a 64488B04 		movq	%fs:40, %rax
 8704      25280000 
 8704      00
 8705 0033 488945E8 		movq	%rax, -24(%rbp)
 8706 0037 31C0     		xorl	%eax, %eax
 8707              	.LBB138:
  20:../Checks.h   **** {
  21:../Checks.h   ****     if (!(expected == actual))
 8708              		.loc 7 21 0
 8709 0039 488B8540 		movq	-448(%rbp), %rax
 8709      FEFFFF
 8710 0040 8B10     		movl	(%rax), %edx
 8711 0042 488B8538 		movq	-456(%rbp), %rax
 8711      FEFFFF
 8712 0049 8B00     		movl	(%rax), %eax
 8713 004b 39C2     		cmpl	%eax, %edx
 8714 004d 0F84B100 		je	.L476
 8714      0000
 8715              	.LBB139:
  22:../Checks.h   ****     {
  23:../Checks.h   ****         UnitTest::MemoryOutStream stream;
 8716              		.loc 7 23 0
 8717 0053 488D8550 		leaq	-432(%rbp), %rax
 8717      FEFFFF
 8718 005a 4889C7   		movq	%rax, %rdi
 8719              	.LEHB226:
 8720 005d E8000000 		call	_ZN8UnitTest15MemoryOutStreamC1Ev
 8720      00
 8721              	.LEHE226:
  24:../Checks.h   ****         stream << "Expected " << expected << " but was " << actual;
 8722              		.loc 7 24 0
 8723 0062 488B8538 		movq	-456(%rbp), %rax
 8723      FEFFFF
 8724 0069 8B18     		movl	(%rax), %ebx
 8725 006b 488B8540 		movq	-448(%rbp), %rax
 8725      FEFFFF
 8726 0072 448B20   		movl	(%rax), %r12d
 8727 0075 488D8550 		leaq	-432(%rbp), %rax
 8727      FEFFFF
 8728 007c BE000000 		movl	$.LC77, %esi
 8728      00
 8729 0081 4889C7   		movq	%rax, %rdi
 8730              	.LEHB227:
 8731 0084 E8000000 		call	_ZStlsISt11char_traitsIcEERSt13basic_ostreamIcT_ES5_PKc
 8731      00
 8732 0089 4489E6   		movl	%r12d, %esi
 8733 008c 4889C7   		movq	%rax, %rdi
 8734 008f E8000000 		call	_ZNSolsEi
 8734      00
 8735              		.loc 7 24 0 is_stmt 0 discriminator 1
 8736 0094 BE000000 		movl	$.LC78, %esi
 8736      00
 8737 0099 4889C7   		movq	%rax, %rdi
 8738 009c E8000000 		call	_ZStlsISt11char_traitsIcEERSt13basic_ostreamIcT_ES5_PKc
 8738      00
 8739              		.loc 7 24 0 discriminator 2
 8740 00a1 89DE     		movl	%ebx, %esi
 8741 00a3 4889C7   		movq	%rax, %rdi
 8742 00a6 E8000000 		call	_ZNSolsEi
 8742      00
  25:../Checks.h   **** 
  26:../Checks.h   ****         results.OnTestFailure(details, stream.GetText());
 8743              		.loc 7 26 0 is_stmt 1
 8744 00ab 488D8550 		leaq	-432(%rbp), %rax
 8744      FEFFFF
 8745 00b2 4889C7   		movq	%rax, %rdi
 8746 00b5 E8000000 		call	_ZNK8UnitTest15MemoryOutStream7GetTextEv
 8746      00
 8747 00ba 4889C2   		movq	%rax, %rdx
 8748 00bd 488B8D30 		movq	-464(%rbp), %rcx
 8748      FEFFFF
 8749 00c4 488B8548 		movq	-440(%rbp), %rax
 8749      FEFFFF
 8750 00cb 4889CE   		movq	%rcx, %rsi
 8751 00ce 4889C7   		movq	%rax, %rdi
 8752 00d1 E8000000 		call	_ZN8UnitTest11TestResults13OnTestFailureERKNS_11TestDetailsEPKc
 8752      00
 8753              	.LEHE227:
  23:../Checks.h   ****         stream << "Expected " << expected << " but was " << actual;
 8754              		.loc 7 23 0
 8755 00d6 488D8550 		leaq	-432(%rbp), %rax
 8755      FEFFFF
 8756 00dd 4889C7   		movq	%rax, %rdi
 8757              	.LEHB228:
 8758 00e0 E8000000 		call	_ZN8UnitTest15MemoryOutStreamD1Ev
 8758      00
 8759              	.LEHE228:
 8760              	.LBE139:
 8761              	.LBE138:
  27:../Checks.h   ****     }
  28:../Checks.h   **** }
 8762              		.loc 7 28 0
 8763 00e5 EB1D     		jmp	.L476
 8764              	.L475:
 8765 00e7 4889C3   		movq	%rax, %rbx
 8766              	.LBB141:
 8767              	.LBB140:
  23:../Checks.h   ****         stream << "Expected " << expected << " but was " << actual;
 8768              		.loc 7 23 0
 8769 00ea 488D8550 		leaq	-432(%rbp), %rax
 8769      FEFFFF
 8770 00f1 4889C7   		movq	%rax, %rdi
 8771 00f4 E8000000 		call	_ZN8UnitTest15MemoryOutStreamD1Ev
 8771      00
 8772 00f9 4889D8   		movq	%rbx, %rax
 8773 00fc 4889C7   		movq	%rax, %rdi
 8774              	.LEHB229:
 8775 00ff E8000000 		call	_Unwind_Resume
 8775      00
 8776              	.LEHE229:
 8777              	.L476:
 8778              	.LBE140:
 8779              	.LBE141:
 8780              		.loc 7 28 0
 8781 0104 90       		nop
 8782 0105 488B45E8 		movq	-24(%rbp), %rax
 8783 0109 64483304 		xorq	%fs:40, %rax
 8783      25280000 
 8783      00
 8784 0112 7405     		je	.L474
 8785 0114 E8000000 		call	__stack_chk_fail
 8785      00
 8786              	.L474:
 8787 0119 4881C4C0 		addq	$448, %rsp
 8787      010000
 8788 0120 5B       		popq	%rbx
 8789 0121 415C     		popq	%r12
 8790 0123 5D       		popq	%rbp
 8791              		.cfi_def_cfa 7, 8
 8792 0124 C3       		ret
 8793              		.cfi_endproc
 8794              	.LFE1255:
 8795              		.section	.gcc_except_table
 8796              	.LLSDA1255:
 8797 0650 FF       		.byte	0xff
 8798 0651 FF       		.byte	0xff
 8799 0652 01       		.byte	0x1
 8800 0653 14       		.uleb128 .LLSDACSE1255-.LLSDACSB1255
 8801              	.LLSDACSB1255:
 8802 0654 5D       		.uleb128 .LEHB226-.LFB1255
 8803 0655 05       		.uleb128 .LEHE226-.LEHB226
 8804 0656 00       		.uleb128 0
 8805 0657 00       		.uleb128 0
 8806 0658 8401     		.uleb128 .LEHB227-.LFB1255
 8807 065a 52       		.uleb128 .LEHE227-.LEHB227
 8808 065b E701     		.uleb128 .L475-.LFB1255
 8809 065d 00       		.uleb128 0
 8810 065e E001     		.uleb128 .LEHB228-.LFB1255
 8811 0660 05       		.uleb128 .LEHE228-.LEHB228
 8812 0661 00       		.uleb128 0
 8813 0662 00       		.uleb128 0
 8814 0663 FF01     		.uleb128 .LEHB229-.LFB1255
 8815 0665 05       		.uleb128 .LEHE229-.LEHB229
 8816 0666 00       		.uleb128 0
 8817 0667 00       		.uleb128 0
 8818              	.LLSDACSE1255:
 8819              		.section	.text._ZN8UnitTest10CheckEqualIiiEEvRNS_11TestResultsERKT_RKT0_RKNS_11TestDetailsE,"axG",
 8821              		.text
 8823              	_ZN8UnitTest11ExecuteTestIN12_GLOBAL__N_148FixtureDtorThrowsFixtureDtorThrowsTestNameHelperEEEvRT_R
 8824              	.LFB1256:
  16:../ExecuteTest.h **** {
 8825              		.loc 8 16 0
 8826              		.cfi_startproc
 8827              		.cfi_personality 0x3,__gxx_personality_v0
 8828              		.cfi_lsda 0x3,.LLSDA1256
 8829 3cff 55       		pushq	%rbp
 8830              		.cfi_def_cfa_offset 16
 8831              		.cfi_offset 6, -16
 8832 3d00 4889E5   		movq	%rsp, %rbp
 8833              		.cfi_def_cfa_register 6
 8834 3d03 4154     		pushq	%r12
 8835 3d05 53       		pushq	%rbx
 8836 3d06 4881EC50 		subq	$1616, %rsp
 8836      060000
 8837              		.cfi_offset 12, -24
 8838              		.cfi_offset 3, -32
 8839 3d0d 4889BDA8 		movq	%rdi, -1624(%rbp)
 8839      F9FFFF
 8840 3d14 4889B5A0 		movq	%rsi, -1632(%rbp)
 8840      F9FFFF
  16:../ExecuteTest.h **** {
 8841              		.loc 8 16 0
 8842 3d1b 64488B04 		movq	%fs:40, %rax
 8842      25280000 
 8842      00
 8843 3d24 488945E8 		movq	%rax, -24(%rbp)
 8844 3d28 31C0     		xorl	%eax, %eax
 8845              	.LEHB230:
  18:../ExecuteTest.h **** 
 8846              		.loc 8 18 0
 8847 3d2a E8000000 		call	_ZN8UnitTest11CurrentTest7DetailsEv
 8847      00
 8848              	.LEHE230:
 8849 3d2f 4889C2   		movq	%rax, %rdx
 8850 3d32 488B85A0 		movq	-1632(%rbp), %rax
 8850      F9FFFF
 8851 3d39 488902   		movq	%rax, (%rdx)
 8852              	.LBB142:
  23:../ExecuteTest.h **** #endif
 8853              		.loc 8 23 0
 8854 3d3c 488D8580 		leaq	-1152(%rbp), %rax
 8854      FBFFFF
 8855 3d43 4889C7   		movq	%rax, %rdi
 8856              	.LEHB231:
 8857 3d46 E8000000 		call	_ZN8UnitTest16SignalTranslatorC1Ev
 8857      00
 8858              	.LEHE231:
  23:../ExecuteTest.h **** #endif
 8859              		.loc 8 23 0 is_stmt 0 discriminator 1
 8860 3d4b 488B0500 		movq	_ZN8UnitTest16SignalTranslator12s_jumpTargetE(%rip), %rax
 8860      000000
 8861 3d52 BE010000 		movl	$1, %esi
 8861      00
 8862 3d57 4889C7   		movq	%rax, %rdi
 8863 3d5a E8000000 		call	__sigsetjmp
 8863      00
 8864 3d5f 85C0     		testl	%eax, %eax
 8865 3d61 0F95C0   		setne	%al
 8866 3d64 84C0     		testb	%al, %al
 8867 3d66 7423     		je	.L497
  23:../ExecuteTest.h **** #endif
 8868              		.loc 8 23 0 discriminator 3
 8869 3d68 BF080000 		movl	$8, %edi
 8869      00
 8870 3d6d E8000000 		call	__cxa_allocate_exception
 8870      00
 8871 3d72 48C70000 		movq	$.LC75, (%rax)
 8871      000000
 8872 3d79 BA000000 		movl	$0, %edx
 8872      00
 8873 3d7e BE000000 		movl	$_ZTIPKc, %esi
 8873      00
 8874 3d83 4889C7   		movq	%rax, %rdi
 8875              	.LEHB232:
 8876 3d86 E8000000 		call	__cxa_throw
 8876      00
 8877              	.LEHE232:
 8878              	.L497:
  25:../ExecuteTest.h **** 	}
 8879              		.loc 8 25 0 is_stmt 1
 8880 3d8b 488B85A8 		movq	-1624(%rbp), %rax
 8880      F9FFFF
 8881 3d92 4889C7   		movq	%rax, %rdi
 8882 3d95 E866E6FF 		call	_ZN12_GLOBAL__N_148FixtureDtorThrowsFixtureDtorThrowsTestNameHelper7RunImplEv
 8882      FF
  23:../ExecuteTest.h **** #endif
 8883              		.loc 8 23 0
 8884 3d9a 488D8580 		leaq	-1152(%rbp), %rax
 8884      FBFFFF
 8885 3da1 4889C7   		movq	%rax, %rdi
 8886              	.LEHB233:
 8887 3da4 E8000000 		call	_ZN8UnitTest16SignalTranslatorD1Ev
 8887      00
 8888              	.LEHE233:
 8889              	.LBE142:
 8890              		.loc 8 42 0
 8891 3da9 E9F00100 		jmp	.L477
 8891      00
 8892              	.L492:
 8893 3dae 4989C4   		movq	%rax, %r12
 8894 3db1 4889D3   		movq	%rdx, %rbx
 8895              	.LBB143:
  23:../ExecuteTest.h **** #endif
 8896              		.loc 8 23 0
 8897 3db4 488D8580 		leaq	-1152(%rbp), %rax
 8897      FBFFFF
 8898 3dbb 4889C7   		movq	%rax, %rdi
 8899 3dbe E8000000 		call	_ZN8UnitTest16SignalTranslatorD1Ev
 8899      00
 8900 3dc3 4C89E0   		movq	%r12, %rax
 8901 3dc6 4889DA   		movq	%rbx, %rdx
 8902 3dc9 EB00     		jmp	.L481
 8903              	.L491:
 8904              	.L481:
 8905 3dcb 4883FA01 		cmpq	$1, %rdx
 8906 3dcf 740F     		je	.L483
 8907 3dd1 4883FA02 		cmpq	$2, %rdx
 8908 3dd5 0F84A600 		je	.L484
 8908      0000
 8909 3ddb E9430100 		jmp	.L498
 8909      00
 8910              	.L483:
 8911              	.LBE143:
 8912              	.LBB144:
  27:../ExecuteTest.h **** 	{
 8913              		.loc 8 27 0
 8914 3de0 4889C7   		movq	%rax, %rdi
 8915 3de3 E8000000 		call	__cxa_begin_catch
 8915      00
 8916 3de8 488985B0 		movq	%rax, -1616(%rbp)
 8916      F9FFFF
  30:../ExecuteTest.h **** 	}
 8917              		.loc 8 30 0
 8918 3def 488B85B0 		movq	-1616(%rbp), %rax
 8918      F9FFFF
 8919 3df6 488B00   		movq	(%rax), %rax
 8920 3df9 4883C010 		addq	$16, %rax
 8921 3dfd 488B00   		movq	(%rax), %rax
  29:../ExecuteTest.h **** 			TestDetails(details.testName, details.suiteName, e.Filename(), e.LineNumber()), e.what());
 8922              		.loc 8 29 0
 8923 3e00 488B95B0 		movq	-1616(%rbp), %rdx
 8923      F9FFFF
 8924 3e07 4889D7   		movq	%rdx, %rdi
 8925 3e0a FFD0     		call	*%rax
 8926 3e0c 4889C3   		movq	%rax, %rbx
 8927 3e0f 488B85B0 		movq	-1616(%rbp), %rax
 8927      F9FFFF
 8928 3e16 4889C7   		movq	%rax, %rdi
 8929              	.LEHB234:
 8930 3e19 E8000000 		call	_ZNK8UnitTest15AssertException10LineNumberEv
 8930      00
  29:../ExecuteTest.h **** 			TestDetails(details.testName, details.suiteName, e.Filename(), e.LineNumber()), e.what());
 8931              		.loc 8 29 0 is_stmt 0 discriminator 1
 8932 3e1e 4189C4   		movl	%eax, %r12d
 8933 3e21 488B85B0 		movq	-1616(%rbp), %rax
 8933      F9FFFF
 8934 3e28 4889C7   		movq	%rax, %rdi
 8935 3e2b E8000000 		call	_ZNK8UnitTest15AssertException8FilenameEv
 8935      00
  29:../ExecuteTest.h **** 			TestDetails(details.testName, details.suiteName, e.Filename(), e.LineNumber()), e.what());
 8936              		.loc 8 29 0 discriminator 2
 8937 3e30 4889C1   		movq	%rax, %rcx
 8938 3e33 488B85A0 		movq	-1632(%rbp), %rax
 8938      F9FFFF
 8939 3e3a 488B10   		movq	(%rax), %rdx
 8940 3e3d 488B85A0 		movq	-1632(%rbp), %rax
 8940      F9FFFF
 8941 3e44 488B7008 		movq	8(%rax), %rsi
 8942 3e48 488D85C0 		leaq	-1600(%rbp), %rax
 8942      F9FFFF
 8943 3e4f 4589E0   		movl	%r12d, %r8d
 8944 3e52 4889C7   		movq	%rax, %rdi
 8945 3e55 E8000000 		call	_ZN8UnitTest11TestDetailsC1EPKcS2_S2_i
 8945      00
  29:../ExecuteTest.h **** 			TestDetails(details.testName, details.suiteName, e.Filename(), e.LineNumber()), e.what());
 8946              		.loc 8 29 0 discriminator 4
 8947 3e5a E8000000 		call	_ZN8UnitTest11CurrentTest7ResultsEv
 8947      00
 8948 3e5f 488B00   		movq	(%rax), %rax
 8949 3e62 488D8DC0 		leaq	-1600(%rbp), %rcx
 8949      F9FFFF
 8950 3e69 4889DA   		movq	%rbx, %rdx
 8951 3e6c 4889CE   		movq	%rcx, %rsi
 8952 3e6f 4889C7   		movq	%rax, %rdi
 8953 3e72 E8000000 		call	_ZN8UnitTest11TestResults13OnTestFailureERKNS_11TestDetailsEPKc
 8953      00
 8954              	.LEHE234:
  27:../ExecuteTest.h **** 	{
 8955              		.loc 8 27 0 is_stmt 1 discriminator 8
 8956 3e77 E8000000 		call	__cxa_end_catch
 8956      00
 8957              	.LBE144:
 8958              		.loc 8 42 0 discriminator 8
 8959 3e7c E91D0100 		jmp	.L477
 8959      00
 8960              	.L484:
 8961              	.LBB145:
  32:../ExecuteTest.h **** 	{
 8962              		.loc 8 32 0
 8963 3e81 4889C7   		movq	%rax, %rdi
 8964 3e84 E8000000 		call	__cxa_begin_catch
 8964      00
 8965 3e89 488985B8 		movq	%rax, -1608(%rbp)
 8965      F9FFFF
 8966              	.LBB146:
  34:../ExecuteTest.h **** 		stream << "Unhandled exception: " << e.what();
 8967              		.loc 8 34 0
 8968 3e90 488D85E0 		leaq	-1568(%rbp), %rax
 8968      F9FFFF
 8969 3e97 4889C7   		movq	%rax, %rdi
 8970              	.LEHB235:
 8971 3e9a E8000000 		call	_ZN8UnitTest15MemoryOutStreamC1Ev
 8971      00
 8972              	.LEHE235:
  35:../ExecuteTest.h **** 		CurrentTest::Results()->OnTestFailure(details, stream.GetText());
 8973              		.loc 8 35 0
 8974 3e9f 488B85B8 		movq	-1608(%rbp), %rax
 8974      F9FFFF
 8975 3ea6 488B00   		movq	(%rax), %rax
 8976 3ea9 4883C010 		addq	$16, %rax
 8977 3ead 488B00   		movq	(%rax), %rax
 8978 3eb0 488B95B8 		movq	-1608(%rbp), %rdx
 8978      F9FFFF
 8979 3eb7 4889D7   		movq	%rdx, %rdi
 8980 3eba FFD0     		call	*%rax
 8981 3ebc 4889C3   		movq	%rax, %rbx
 8982 3ebf 488D85E0 		leaq	-1568(%rbp), %rax
 8982      F9FFFF
 8983 3ec6 BE000000 		movl	$.LC11, %esi
 8983      00
 8984 3ecb 4889C7   		movq	%rax, %rdi
 8985              	.LEHB236:
 8986 3ece E8000000 		call	_ZStlsISt11char_traitsIcEERSt13basic_ostreamIcT_ES5_PKc
 8986      00
  35:../ExecuteTest.h **** 		CurrentTest::Results()->OnTestFailure(details, stream.GetText());
 8987              		.loc 8 35 0 is_stmt 0 discriminator 1
 8988 3ed3 4889DE   		movq	%rbx, %rsi
 8989 3ed6 4889C7   		movq	%rax, %rdi
 8990 3ed9 E8000000 		call	_ZStlsISt11char_traitsIcEERSt13basic_ostreamIcT_ES5_PKc
 8990      00
  36:../ExecuteTest.h **** 	}
 8991              		.loc 8 36 0 is_stmt 1
 8992 3ede 488D85E0 		leaq	-1568(%rbp), %rax
 8992      F9FFFF
 8993 3ee5 4889C7   		movq	%rax, %rdi
 8994 3ee8 E8000000 		call	_ZNK8UnitTest15MemoryOutStream7GetTextEv
 8994      00
 8995 3eed 4889C3   		movq	%rax, %rbx
 8996 3ef0 E8000000 		call	_ZN8UnitTest11CurrentTest7ResultsEv
 8996      00
  36:../ExecuteTest.h **** 	}
 8997              		.loc 8 36 0 is_stmt 0 discriminator 1
 8998 3ef5 488B00   		movq	(%rax), %rax
 8999 3ef8 488B8DA0 		movq	-1632(%rbp), %rcx
 8999      F9FFFF
 9000 3eff 4889DA   		movq	%rbx, %rdx
 9001 3f02 4889CE   		movq	%rcx, %rsi
 9002 3f05 4889C7   		movq	%rax, %rdi
 9003 3f08 E8000000 		call	_ZN8UnitTest11TestResults13OnTestFailureERKNS_11TestDetailsEPKc
 9003      00
 9004              	.LEHE236:
  34:../ExecuteTest.h **** 		stream << "Unhandled exception: " << e.what();
 9005              		.loc 8 34 0 is_stmt 1
 9006 3f0d 488D85E0 		leaq	-1568(%rbp), %rax
 9006      F9FFFF
 9007 3f14 4889C7   		movq	%rax, %rdi
 9008              	.LEHB237:
 9009 3f17 E8000000 		call	_ZN8UnitTest15MemoryOutStreamD1Ev
 9009      00
 9010              	.LEHE237:
 9011              	.LBE146:
  32:../ExecuteTest.h **** 	{
 9012              		.loc 8 32 0
 9013 3f1c E8000000 		call	__cxa_end_catch
 9013      00
 9014              	.LBE145:
 9015              		.loc 8 42 0
 9016 3f21 EB7B     		jmp	.L477
 9017              	.L498:
  38:../ExecuteTest.h **** 	{
 9018              		.loc 8 38 0
 9019 3f23 4889C7   		movq	%rax, %rdi
 9020 3f26 E8000000 		call	__cxa_begin_catch
 9020      00
 9021              	.LEHB238:
  40:../ExecuteTest.h **** 	}
 9022              		.loc 8 40 0
 9023 3f2b E8000000 		call	_ZN8UnitTest11CurrentTest7ResultsEv
 9023      00
 9024 3f30 488B00   		movq	(%rax), %rax
 9025 3f33 488B8DA0 		movq	-1632(%rbp), %rcx
 9025      F9FFFF
 9026 3f3a BA000000 		movl	$.LC76, %edx
 9026      00
 9027 3f3f 4889CE   		movq	%rcx, %rsi
 9028 3f42 4889C7   		movq	%rax, %rdi
 9029 3f45 E8000000 		call	_ZN8UnitTest11TestResults13OnTestFailureERKNS_11TestDetailsEPKc
 9029      00
 9030              	.LEHE238:
 9031              	.LEHB239:
  38:../ExecuteTest.h **** 	{
 9032              		.loc 8 38 0
 9033 3f4a E8000000 		call	__cxa_end_catch
 9033      00
 9034              		.loc 8 42 0
 9035 3f4f EB4D     		jmp	.L477
 9036              	.L493:
 9037 3f51 4889C3   		movq	%rax, %rbx
 9038              	.LBB148:
  27:../ExecuteTest.h **** 	{
 9039              		.loc 8 27 0
 9040 3f54 E8000000 		call	__cxa_end_catch
 9040      00
 9041 3f59 4889D8   		movq	%rbx, %rax
 9042 3f5c 4889C7   		movq	%rax, %rdi
 9043 3f5f E8000000 		call	_Unwind_Resume
 9043      00
 9044              	.LEHE239:
 9045              	.L495:
 9046 3f64 4889C3   		movq	%rax, %rbx
 9047              	.LBE148:
 9048              	.LBB149:
 9049              	.LBB147:
  34:../ExecuteTest.h **** 		stream << "Unhandled exception: " << e.what();
 9050              		.loc 8 34 0
 9051 3f67 488D85E0 		leaq	-1568(%rbp), %rax
 9051      F9FFFF
 9052 3f6e 4889C7   		movq	%rax, %rdi
 9053 3f71 E8000000 		call	_ZN8UnitTest15MemoryOutStreamD1Ev
 9053      00
 9054 3f76 EB03     		jmp	.L488
 9055              	.L494:
 9056 3f78 4889C3   		movq	%rax, %rbx
 9057              	.L488:
 9058              	.LBE147:
  32:../ExecuteTest.h **** 	{
 9059              		.loc 8 32 0
 9060 3f7b E8000000 		call	__cxa_end_catch
 9060      00
 9061 3f80 4889D8   		movq	%rbx, %rax
 9062 3f83 4889C7   		movq	%rax, %rdi
 9063              	.LEHB240:
 9064 3f86 E8000000 		call	_Unwind_Resume
 9064      00
 9065              	.LEHE240:
 9066              	.L496:
 9067 3f8b 4889C3   		movq	%rax, %rbx
 9068              	.LBE149:
  38:../ExecuteTest.h **** 	{
 9069              		.loc 8 38 0
 9070 3f8e E8000000 		call	__cxa_end_catch
 9070      00
 9071 3f93 4889D8   		movq	%rbx, %rax
 9072 3f96 4889C7   		movq	%rax, %rdi
 9073              	.LEHB241:
 9074 3f99 E8000000 		call	_Unwind_Resume
 9074      00
 9075              	.LEHE241:
 9076              	.L477:
 9077              		.loc 8 42 0
 9078 3f9e 488B45E8 		movq	-24(%rbp), %rax
 9079 3fa2 64483304 		xorq	%fs:40, %rax
 9079      25280000 
 9079      00
 9080 3fab 7405     		je	.L490
 9081 3fad E8000000 		call	__stack_chk_fail
 9081      00
 9082              	.L490:
 9083 3fb2 4881C450 		addq	$1616, %rsp
 9083      060000
 9084 3fb9 5B       		popq	%rbx
 9085 3fba 415C     		popq	%r12
 9086 3fbc 5D       		popq	%rbp
 9087              		.cfi_def_cfa 7, 8
 9088 3fbd C3       		ret
 9089              		.cfi_endproc
 9090              	.LFE1256:
 9091              		.section	.gcc_except_table
 9092              		.align 4
 9093              	.LLSDA1256:
 9094 0668 FF       		.byte	0xff
 9095 0669 03       		.byte	0x3
 9096 066a 59       		.uleb128 .LLSDATT1256-.LLSDATTD1256
 9097              	.LLSDATTD1256:
 9098 066b 01       		.byte	0x1
 9099 066c 42       		.uleb128 .LLSDACSE1256-.LLSDACSB1256
 9100              	.LLSDACSB1256:
 9101 066d 2B       		.uleb128 .LEHB230-.LFB1256
 9102 066e 05       		.uleb128 .LEHE230-.LEHB230
 9103 066f 00       		.uleb128 0
 9104 0670 00       		.uleb128 0
 9105 0671 47       		.uleb128 .LEHB231-.LFB1256
 9106 0672 05       		.uleb128 .LEHE231-.LEHB231
 9107 0673 CC01     		.uleb128 .L491-.LFB1256
 9108 0675 05       		.uleb128 0x5
 9109 0676 8701     		.uleb128 .LEHB232-.LFB1256
 9110 0678 05       		.uleb128 .LEHE232-.LEHB232
 9111 0679 AF01     		.uleb128 .L492-.LFB1256
 9112 067b 07       		.uleb128 0x7
 9113 067c A501     		.uleb128 .LEHB233-.LFB1256
 9114 067e 05       		.uleb128 .LEHE233-.LEHB233
 9115 067f CC01     		.uleb128 .L491-.LFB1256
 9116 0681 05       		.uleb128 0x5
 9117 0682 9A02     		.uleb128 .LEHB234-.LFB1256
 9118 0684 5E       		.uleb128 .LEHE234-.LEHB234
 9119 0685 D204     		.uleb128 .L493-.LFB1256
 9120 0687 00       		.uleb128 0
 9121 0688 9B03     		.uleb128 .LEHB235-.LFB1256
 9122 068a 05       		.uleb128 .LEHE235-.LEHB235
 9123 068b F904     		.uleb128 .L494-.LFB1256
 9124 068d 00       		.uleb128 0
 9125 068e CF03     		.uleb128 .LEHB236-.LFB1256
 9126 0690 3F       		.uleb128 .LEHE236-.LEHB236
 9127 0691 E504     		.uleb128 .L495-.LFB1256
 9128 0693 00       		.uleb128 0
 9129 0694 9804     		.uleb128 .LEHB237-.LFB1256
 9130 0696 05       		.uleb128 .LEHE237-.LEHB237
 9131 0697 F904     		.uleb128 .L494-.LFB1256
 9132 0699 00       		.uleb128 0
 9133 069a AC04     		.uleb128 .LEHB238-.LFB1256
 9134 069c 1F       		.uleb128 .LEHE238-.LEHB238
 9135 069d 8C05     		.uleb128 .L496-.LFB1256
 9136 069f 00       		.uleb128 0
 9137 06a0 CB04     		.uleb128 .LEHB239-.LFB1256
 9138 06a2 1A       		.uleb128 .LEHE239-.LEHB239
 9139 06a3 00       		.uleb128 0
 9140 06a4 00       		.uleb128 0
 9141 06a5 8705     		.uleb128 .LEHB240-.LFB1256
 9142 06a7 05       		.uleb128 .LEHE240-.LEHB240
 9143 06a8 00       		.uleb128 0
 9144 06a9 00       		.uleb128 0
 9145 06aa 9A05     		.uleb128 .LEHB241-.LFB1256
 9146 06ac 05       		.uleb128 .LEHE241-.LEHB241
 9147 06ad 00       		.uleb128 0
 9148 06ae 00       		.uleb128 0
 9149              	.LLSDACSE1256:
 9150 06af 03       		.byte	0x3
 9151 06b0 00       		.byte	0
 9152 06b1 02       		.byte	0x2
 9153 06b2 7D       		.byte	0x7d
 9154 06b3 01       		.byte	0x1
 9155 06b4 7D       		.byte	0x7d
 9156 06b5 00       		.byte	0
 9157 06b6 7D       		.byte	0x7d
 9158 06b7 00       		.align 4
 9159 06b8 00000000 		.long	0
 9160              	
 9161 06bc 00000000 		.long	_ZTISt9exception
 9162 06c0 00000000 		.long	_ZTIN8UnitTest15AssertExceptionE
 9163              	.LLSDATT1256:
 9164              		.text
 9167              	_ZN8UnitTest11ExecuteTestIN12_GLOBAL__N_159FixtureCtorAssertsCorrectlyReportsAssertFailureInCtorHel
 9168              	.LFB1257:
  16:../ExecuteTest.h **** {
 9169              		.loc 8 16 0
 9170              		.cfi_startproc
 9171              		.cfi_personality 0x3,__gxx_personality_v0
 9172              		.cfi_lsda 0x3,.LLSDA1257
 9173 3fbe 55       		pushq	%rbp
 9174              		.cfi_def_cfa_offset 16
 9175              		.cfi_offset 6, -16
 9176 3fbf 4889E5   		movq	%rsp, %rbp
 9177              		.cfi_def_cfa_register 6
 9178 3fc2 4154     		pushq	%r12
 9179 3fc4 53       		pushq	%rbx
 9180 3fc5 4881EC50 		subq	$1616, %rsp
 9180      060000
 9181              		.cfi_offset 12, -24
 9182              		.cfi_offset 3, -32
 9183 3fcc 4889BDA8 		movq	%rdi, -1624(%rbp)
 9183      F9FFFF
 9184 3fd3 4889B5A0 		movq	%rsi, -1632(%rbp)
 9184      F9FFFF
  16:../ExecuteTest.h **** {
 9185              		.loc 8 16 0
 9186 3fda 64488B04 		movq	%fs:40, %rax
 9186      25280000 
 9186      00
 9187 3fe3 488945E8 		movq	%rax, -24(%rbp)
 9188 3fe7 31C0     		xorl	%eax, %eax
 9189              	.LEHB242:
  18:../ExecuteTest.h **** 
 9190              		.loc 8 18 0
 9191 3fe9 E8000000 		call	_ZN8UnitTest11CurrentTest7DetailsEv
 9191      00
 9192              	.LEHE242:
 9193 3fee 4889C2   		movq	%rax, %rdx
 9194 3ff1 488B85A0 		movq	-1632(%rbp), %rax
 9194      F9FFFF
 9195 3ff8 488902   		movq	%rax, (%rdx)
 9196              	.LBB150:
  23:../ExecuteTest.h **** #endif
 9197              		.loc 8 23 0
 9198 3ffb 488D8580 		leaq	-1152(%rbp), %rax
 9198      FBFFFF
 9199 4002 4889C7   		movq	%rax, %rdi
 9200              	.LEHB243:
 9201 4005 E8000000 		call	_ZN8UnitTest16SignalTranslatorC1Ev
 9201      00
 9202              	.LEHE243:
  23:../ExecuteTest.h **** #endif
 9203              		.loc 8 23 0 is_stmt 0 discriminator 1
 9204 400a 488B0500 		movq	_ZN8UnitTest16SignalTranslator12s_jumpTargetE(%rip), %rax
 9204      000000
 9205 4011 BE010000 		movl	$1, %esi
 9205      00
 9206 4016 4889C7   		movq	%rax, %rdi
 9207 4019 E8000000 		call	__sigsetjmp
 9207      00
 9208 401e 85C0     		testl	%eax, %eax
 9209 4020 0F95C0   		setne	%al
 9210 4023 84C0     		testb	%al, %al
 9211 4025 7423     		je	.L519
  23:../ExecuteTest.h **** #endif
 9212              		.loc 8 23 0 discriminator 3
 9213 4027 BF080000 		movl	$8, %edi
 9213      00
 9214 402c E8000000 		call	__cxa_allocate_exception
 9214      00
 9215 4031 48C70000 		movq	$.LC75, (%rax)
 9215      000000
 9216 4038 BA000000 		movl	$0, %edx
 9216      00
 9217 403d BE000000 		movl	$_ZTIPKc, %esi
 9217      00
 9218 4042 4889C7   		movq	%rax, %rdi
 9219              	.LEHB244:
 9220 4045 E8000000 		call	__cxa_throw
 9220      00
 9221              	.LEHE244:
 9222              	.L519:
  25:../ExecuteTest.h **** 	}
 9223              		.loc 8 25 0 is_stmt 1
 9224 404a 488B85A8 		movq	-1624(%rbp), %rax
 9224      F9FFFF
 9225 4051 4889C7   		movq	%rax, %rdi
 9226 4054 E891EAFF 		call	_ZN12_GLOBAL__N_159FixtureCtorAssertsCorrectlyReportsAssertFailureInCtorHelper7RunImplEv
 9226      FF
  23:../ExecuteTest.h **** #endif
 9227              		.loc 8 23 0
 9228 4059 488D8580 		leaq	-1152(%rbp), %rax
 9228      FBFFFF
 9229 4060 4889C7   		movq	%rax, %rdi
 9230              	.LEHB245:
 9231 4063 E8000000 		call	_ZN8UnitTest16SignalTranslatorD1Ev
 9231      00
 9232              	.LEHE245:
 9233              	.LBE150:
 9234              		.loc 8 42 0
 9235 4068 E9F00100 		jmp	.L499
 9235      00
 9236              	.L514:
 9237 406d 4989C4   		movq	%rax, %r12
 9238 4070 4889D3   		movq	%rdx, %rbx
 9239              	.LBB151:
  23:../ExecuteTest.h **** #endif
 9240              		.loc 8 23 0
 9241 4073 488D8580 		leaq	-1152(%rbp), %rax
 9241      FBFFFF
 9242 407a 4889C7   		movq	%rax, %rdi
 9243 407d E8000000 		call	_ZN8UnitTest16SignalTranslatorD1Ev
 9243      00
 9244 4082 4C89E0   		movq	%r12, %rax
 9245 4085 4889DA   		movq	%rbx, %rdx
 9246 4088 EB00     		jmp	.L503
 9247              	.L513:
 9248              	.L503:
 9249 408a 4883FA01 		cmpq	$1, %rdx
 9250 408e 740F     		je	.L505
 9251 4090 4883FA02 		cmpq	$2, %rdx
 9252 4094 0F84A600 		je	.L506
 9252      0000
 9253 409a E9430100 		jmp	.L520
 9253      00
 9254              	.L505:
 9255              	.LBE151:
 9256              	.LBB152:
  27:../ExecuteTest.h **** 	{
 9257              		.loc 8 27 0
 9258 409f 4889C7   		movq	%rax, %rdi
 9259 40a2 E8000000 		call	__cxa_begin_catch
 9259      00
 9260 40a7 488985B0 		movq	%rax, -1616(%rbp)
 9260      F9FFFF
  30:../ExecuteTest.h **** 	}
 9261              		.loc 8 30 0
 9262 40ae 488B85B0 		movq	-1616(%rbp), %rax
 9262      F9FFFF
 9263 40b5 488B00   		movq	(%rax), %rax
 9264 40b8 4883C010 		addq	$16, %rax
 9265 40bc 488B00   		movq	(%rax), %rax
  29:../ExecuteTest.h **** 			TestDetails(details.testName, details.suiteName, e.Filename(), e.LineNumber()), e.what());
 9266              		.loc 8 29 0
 9267 40bf 488B95B0 		movq	-1616(%rbp), %rdx
 9267      F9FFFF
 9268 40c6 4889D7   		movq	%rdx, %rdi
 9269 40c9 FFD0     		call	*%rax
 9270 40cb 4889C3   		movq	%rax, %rbx
 9271 40ce 488B85B0 		movq	-1616(%rbp), %rax
 9271      F9FFFF
 9272 40d5 4889C7   		movq	%rax, %rdi
 9273              	.LEHB246:
 9274 40d8 E8000000 		call	_ZNK8UnitTest15AssertException10LineNumberEv
 9274      00
  29:../ExecuteTest.h **** 			TestDetails(details.testName, details.suiteName, e.Filename(), e.LineNumber()), e.what());
 9275              		.loc 8 29 0 is_stmt 0 discriminator 1
 9276 40dd 4189C4   		movl	%eax, %r12d
 9277 40e0 488B85B0 		movq	-1616(%rbp), %rax
 9277      F9FFFF
 9278 40e7 4889C7   		movq	%rax, %rdi
 9279 40ea E8000000 		call	_ZNK8UnitTest15AssertException8FilenameEv
 9279      00
  29:../ExecuteTest.h **** 			TestDetails(details.testName, details.suiteName, e.Filename(), e.LineNumber()), e.what());
 9280              		.loc 8 29 0 discriminator 2
 9281 40ef 4889C1   		movq	%rax, %rcx
 9282 40f2 488B85A0 		movq	-1632(%rbp), %rax
 9282      F9FFFF
 9283 40f9 488B10   		movq	(%rax), %rdx
 9284 40fc 488B85A0 		movq	-1632(%rbp), %rax
 9284      F9FFFF
 9285 4103 488B7008 		movq	8(%rax), %rsi
 9286 4107 488D85C0 		leaq	-1600(%rbp), %rax
 9286      F9FFFF
 9287 410e 4589E0   		movl	%r12d, %r8d
 9288 4111 4889C7   		movq	%rax, %rdi
 9289 4114 E8000000 		call	_ZN8UnitTest11TestDetailsC1EPKcS2_S2_i
 9289      00
  29:../ExecuteTest.h **** 			TestDetails(details.testName, details.suiteName, e.Filename(), e.LineNumber()), e.what());
 9290              		.loc 8 29 0 discriminator 4
 9291 4119 E8000000 		call	_ZN8UnitTest11CurrentTest7ResultsEv
 9291      00
 9292 411e 488B00   		movq	(%rax), %rax
 9293 4121 488D8DC0 		leaq	-1600(%rbp), %rcx
 9293      F9FFFF
 9294 4128 4889DA   		movq	%rbx, %rdx
 9295 412b 4889CE   		movq	%rcx, %rsi
 9296 412e 4889C7   		movq	%rax, %rdi
 9297 4131 E8000000 		call	_ZN8UnitTest11TestResults13OnTestFailureERKNS_11TestDetailsEPKc
 9297      00
 9298              	.LEHE246:
  27:../ExecuteTest.h **** 	{
 9299              		.loc 8 27 0 is_stmt 1 discriminator 8
 9300 4136 E8000000 		call	__cxa_end_catch
 9300      00
 9301              	.LBE152:
 9302              		.loc 8 42 0 discriminator 8
 9303 413b E91D0100 		jmp	.L499
 9303      00
 9304              	.L506:
 9305              	.LBB153:
  32:../ExecuteTest.h **** 	{
 9306              		.loc 8 32 0
 9307 4140 4889C7   		movq	%rax, %rdi
 9308 4143 E8000000 		call	__cxa_begin_catch
 9308      00
 9309 4148 488985B8 		movq	%rax, -1608(%rbp)
 9309      F9FFFF
 9310              	.LBB154:
  34:../ExecuteTest.h **** 		stream << "Unhandled exception: " << e.what();
 9311              		.loc 8 34 0
 9312 414f 488D85E0 		leaq	-1568(%rbp), %rax
 9312      F9FFFF
 9313 4156 4889C7   		movq	%rax, %rdi
 9314              	.LEHB247:
 9315 4159 E8000000 		call	_ZN8UnitTest15MemoryOutStreamC1Ev
 9315      00
 9316              	.LEHE247:
  35:../ExecuteTest.h **** 		CurrentTest::Results()->OnTestFailure(details, stream.GetText());
 9317              		.loc 8 35 0
 9318 415e 488B85B8 		movq	-1608(%rbp), %rax
 9318      F9FFFF
 9319 4165 488B00   		movq	(%rax), %rax
 9320 4168 4883C010 		addq	$16, %rax
 9321 416c 488B00   		movq	(%rax), %rax
 9322 416f 488B95B8 		movq	-1608(%rbp), %rdx
 9322      F9FFFF
 9323 4176 4889D7   		movq	%rdx, %rdi
 9324 4179 FFD0     		call	*%rax
 9325 417b 4889C3   		movq	%rax, %rbx
 9326 417e 488D85E0 		leaq	-1568(%rbp), %rax
 9326      F9FFFF
 9327 4185 BE000000 		movl	$.LC11, %esi
 9327      00
 9328 418a 4889C7   		movq	%rax, %rdi
 9329              	.LEHB248:
 9330 418d E8000000 		call	_ZStlsISt11char_traitsIcEERSt13basic_ostreamIcT_ES5_PKc
 9330      00
  35:../ExecuteTest.h **** 		CurrentTest::Results()->OnTestFailure(details, stream.GetText());
 9331              		.loc 8 35 0 is_stmt 0 discriminator 1
 9332 4192 4889DE   		movq	%rbx, %rsi
 9333 4195 4889C7   		movq	%rax, %rdi
 9334 4198 E8000000 		call	_ZStlsISt11char_traitsIcEERSt13basic_ostreamIcT_ES5_PKc
 9334      00
  36:../ExecuteTest.h **** 	}
 9335              		.loc 8 36 0 is_stmt 1
 9336 419d 488D85E0 		leaq	-1568(%rbp), %rax
 9336      F9FFFF
 9337 41a4 4889C7   		movq	%rax, %rdi
 9338 41a7 E8000000 		call	_ZNK8UnitTest15MemoryOutStream7GetTextEv
 9338      00
 9339 41ac 4889C3   		movq	%rax, %rbx
 9340 41af E8000000 		call	_ZN8UnitTest11CurrentTest7ResultsEv
 9340      00
  36:../ExecuteTest.h **** 	}
 9341              		.loc 8 36 0 is_stmt 0 discriminator 1
 9342 41b4 488B00   		movq	(%rax), %rax
 9343 41b7 488B8DA0 		movq	-1632(%rbp), %rcx
 9343      F9FFFF
 9344 41be 4889DA   		movq	%rbx, %rdx
 9345 41c1 4889CE   		movq	%rcx, %rsi
 9346 41c4 4889C7   		movq	%rax, %rdi
 9347 41c7 E8000000 		call	_ZN8UnitTest11TestResults13OnTestFailureERKNS_11TestDetailsEPKc
 9347      00
 9348              	.LEHE248:
  34:../ExecuteTest.h **** 		stream << "Unhandled exception: " << e.what();
 9349              		.loc 8 34 0 is_stmt 1
 9350 41cc 488D85E0 		leaq	-1568(%rbp), %rax
 9350      F9FFFF
 9351 41d3 4889C7   		movq	%rax, %rdi
 9352              	.LEHB249:
 9353 41d6 E8000000 		call	_ZN8UnitTest15MemoryOutStreamD1Ev
 9353      00
 9354              	.LEHE249:
 9355              	.LBE154:
  32:../ExecuteTest.h **** 	{
 9356              		.loc 8 32 0
 9357 41db E8000000 		call	__cxa_end_catch
 9357      00
 9358              	.LBE153:
 9359              		.loc 8 42 0
 9360 41e0 EB7B     		jmp	.L499
 9361              	.L520:
  38:../ExecuteTest.h **** 	{
 9362              		.loc 8 38 0
 9363 41e2 4889C7   		movq	%rax, %rdi
 9364 41e5 E8000000 		call	__cxa_begin_catch
 9364      00
 9365              	.LEHB250:
  40:../ExecuteTest.h **** 	}
 9366              		.loc 8 40 0
 9367 41ea E8000000 		call	_ZN8UnitTest11CurrentTest7ResultsEv
 9367      00
 9368 41ef 488B00   		movq	(%rax), %rax
 9369 41f2 488B8DA0 		movq	-1632(%rbp), %rcx
 9369      F9FFFF
 9370 41f9 BA000000 		movl	$.LC76, %edx
 9370      00
 9371 41fe 4889CE   		movq	%rcx, %rsi
 9372 4201 4889C7   		movq	%rax, %rdi
 9373 4204 E8000000 		call	_ZN8UnitTest11TestResults13OnTestFailureERKNS_11TestDetailsEPKc
 9373      00
 9374              	.LEHE250:
 9375              	.LEHB251:
  38:../ExecuteTest.h **** 	{
 9376              		.loc 8 38 0
 9377 4209 E8000000 		call	__cxa_end_catch
 9377      00
 9378              		.loc 8 42 0
 9379 420e EB4D     		jmp	.L499
 9380              	.L515:
 9381 4210 4889C3   		movq	%rax, %rbx
 9382              	.LBB156:
  27:../ExecuteTest.h **** 	{
 9383              		.loc 8 27 0
 9384 4213 E8000000 		call	__cxa_end_catch
 9384      00
 9385 4218 4889D8   		movq	%rbx, %rax
 9386 421b 4889C7   		movq	%rax, %rdi
 9387 421e E8000000 		call	_Unwind_Resume
 9387      00
 9388              	.LEHE251:
 9389              	.L517:
 9390 4223 4889C3   		movq	%rax, %rbx
 9391              	.LBE156:
 9392              	.LBB157:
 9393              	.LBB155:
  34:../ExecuteTest.h **** 		stream << "Unhandled exception: " << e.what();
 9394              		.loc 8 34 0
 9395 4226 488D85E0 		leaq	-1568(%rbp), %rax
 9395      F9FFFF
 9396 422d 4889C7   		movq	%rax, %rdi
 9397 4230 E8000000 		call	_ZN8UnitTest15MemoryOutStreamD1Ev
 9397      00
 9398 4235 EB03     		jmp	.L510
 9399              	.L516:
 9400 4237 4889C3   		movq	%rax, %rbx
 9401              	.L510:
 9402              	.LBE155:
  32:../ExecuteTest.h **** 	{
 9403              		.loc 8 32 0
 9404 423a E8000000 		call	__cxa_end_catch
 9404      00
 9405 423f 4889D8   		movq	%rbx, %rax
 9406 4242 4889C7   		movq	%rax, %rdi
 9407              	.LEHB252:
 9408 4245 E8000000 		call	_Unwind_Resume
 9408      00
 9409              	.LEHE252:
 9410              	.L518:
 9411 424a 4889C3   		movq	%rax, %rbx
 9412              	.LBE157:
  38:../ExecuteTest.h **** 	{
 9413              		.loc 8 38 0
 9414 424d E8000000 		call	__cxa_end_catch
 9414      00
 9415 4252 4889D8   		movq	%rbx, %rax
 9416 4255 4889C7   		movq	%rax, %rdi
 9417              	.LEHB253:
 9418 4258 E8000000 		call	_Unwind_Resume
 9418      00
 9419              	.LEHE253:
 9420              	.L499:
 9421              		.loc 8 42 0
 9422 425d 488B45E8 		movq	-24(%rbp), %rax
 9423 4261 64483304 		xorq	%fs:40, %rax
 9423      25280000 
 9423      00
 9424 426a 7405     		je	.L512
 9425 426c E8000000 		call	__stack_chk_fail
 9425      00
 9426              	.L512:
 9427 4271 4881C450 		addq	$1616, %rsp
 9427      060000
 9428 4278 5B       		popq	%rbx
 9429 4279 415C     		popq	%r12
 9430 427b 5D       		popq	%rbp
 9431              		.cfi_def_cfa 7, 8
 9432 427c C3       		ret
 9433              		.cfi_endproc
 9434              	.LFE1257:
 9435              		.section	.gcc_except_table
 9436              		.align 4
 9437              	.LLSDA1257:
 9438 06c4 FF       		.byte	0xff
 9439 06c5 03       		.byte	0x3
 9440 06c6 59       		.uleb128 .LLSDATT1257-.LLSDATTD1257
 9441              	.LLSDATTD1257:
 9442 06c7 01       		.byte	0x1
 9443 06c8 42       		.uleb128 .LLSDACSE1257-.LLSDACSB1257
 9444              	.LLSDACSB1257:
 9445 06c9 2B       		.uleb128 .LEHB242-.LFB1257
 9446 06ca 05       		.uleb128 .LEHE242-.LEHB242
 9447 06cb 00       		.uleb128 0
 9448 06cc 00       		.uleb128 0
 9449 06cd 47       		.uleb128 .LEHB243-.LFB1257
 9450 06ce 05       		.uleb128 .LEHE243-.LEHB243
 9451 06cf CC01     		.uleb128 .L513-.LFB1257
 9452 06d1 05       		.uleb128 0x5
 9453 06d2 8701     		.uleb128 .LEHB244-.LFB1257
 9454 06d4 05       		.uleb128 .LEHE244-.LEHB244
 9455 06d5 AF01     		.uleb128 .L514-.LFB1257
 9456 06d7 07       		.uleb128 0x7
 9457 06d8 A501     		.uleb128 .LEHB245-.LFB1257
 9458 06da 05       		.uleb128 .LEHE245-.LEHB245
 9459 06db CC01     		.uleb128 .L513-.LFB1257
 9460 06dd 05       		.uleb128 0x5
 9461 06de 9A02     		.uleb128 .LEHB246-.LFB1257
 9462 06e0 5E       		.uleb128 .LEHE246-.LEHB246
 9463 06e1 D204     		.uleb128 .L515-.LFB1257
 9464 06e3 00       		.uleb128 0
 9465 06e4 9B03     		.uleb128 .LEHB247-.LFB1257
 9466 06e6 05       		.uleb128 .LEHE247-.LEHB247
 9467 06e7 F904     		.uleb128 .L516-.LFB1257
 9468 06e9 00       		.uleb128 0
 9469 06ea CF03     		.uleb128 .LEHB248-.LFB1257
 9470 06ec 3F       		.uleb128 .LEHE248-.LEHB248
 9471 06ed E504     		.uleb128 .L517-.LFB1257
 9472 06ef 00       		.uleb128 0
 9473 06f0 9804     		.uleb128 .LEHB249-.LFB1257
 9474 06f2 05       		.uleb128 .LEHE249-.LEHB249
 9475 06f3 F904     		.uleb128 .L516-.LFB1257
 9476 06f5 00       		.uleb128 0
 9477 06f6 AC04     		.uleb128 .LEHB250-.LFB1257
 9478 06f8 1F       		.uleb128 .LEHE250-.LEHB250
 9479 06f9 8C05     		.uleb128 .L518-.LFB1257
 9480 06fb 00       		.uleb128 0
 9481 06fc CB04     		.uleb128 .LEHB251-.LFB1257
 9482 06fe 1A       		.uleb128 .LEHE251-.LEHB251
 9483 06ff 00       		.uleb128 0
 9484 0700 00       		.uleb128 0
 9485 0701 8705     		.uleb128 .LEHB252-.LFB1257
 9486 0703 05       		.uleb128 .LEHE252-.LEHB252
 9487 0704 00       		.uleb128 0
 9488 0705 00       		.uleb128 0
 9489 0706 9A05     		.uleb128 .LEHB253-.LFB1257
 9490 0708 05       		.uleb128 .LEHE253-.LEHB253
 9491 0709 00       		.uleb128 0
 9492 070a 00       		.uleb128 0
 9493              	.LLSDACSE1257:
 9494 070b 03       		.byte	0x3
 9495 070c 00       		.byte	0
 9496 070d 02       		.byte	0x2
 9497 070e 7D       		.byte	0x7d
 9498 070f 01       		.byte	0x1
 9499 0710 7D       		.byte	0x7d
 9500 0711 00       		.byte	0
 9501 0712 7D       		.byte	0x7d
 9502 0713 00       		.align 4
 9503 0714 00000000 		.long	0
 9504              	
 9505 0718 00000000 		.long	_ZTISt9exception
 9506 071c 00000000 		.long	_ZTIN8UnitTest15AssertExceptionE
 9507              	.LLSDATT1257:
 9508              		.text
 9510              		.weak	_ZTV44TestCurrentTestDetailsContainCurrentTestInfo
 9511              		.section	.rodata._ZTV44TestCurrentTestDetailsContainCurrentTestInfo,"aG",@progbits,_ZTV44TestCurre
 9512              		.align 8
 9515              	_ZTV44TestCurrentTestDetailsContainCurrentTestInfo:
 9516 0000 00000000 		.quad	0
 9516      00000000 
 9517 0008 00000000 		.quad	_ZTI44TestCurrentTestDetailsContainCurrentTestInfo
 9517      00000000 
 9518 0010 00000000 		.quad	_ZN44TestCurrentTestDetailsContainCurrentTestInfoD1Ev
 9518      00000000 
 9519 0018 00000000 		.quad	_ZN44TestCurrentTestDetailsContainCurrentTestInfoD0Ev
 9519      00000000 
 9520 0020 00000000 		.quad	_ZNK44TestCurrentTestDetailsContainCurrentTestInfo7RunImplEv
 9520      00000000 
 9521              		.section	.text._ZN44TestCurrentTestDetailsContainCurrentTestInfoD2Ev,"axG",@progbits,_ZN44TestCurr
 9522              		.align 2
 9523              		.weak	_ZN44TestCurrentTestDetailsContainCurrentTestInfoD2Ev
 9525              	_ZN44TestCurrentTestDetailsContainCurrentTestInfoD2Ev:
 9526              	.LFB1310:
 204:TestTestMacros.cpp **** {
 9527              		.loc 6 204 0
 9528              		.cfi_startproc
 9529 0000 55       		pushq	%rbp
 9530              		.cfi_def_cfa_offset 16
 9531              		.cfi_offset 6, -16
 9532 0001 4889E5   		movq	%rsp, %rbp
 9533              		.cfi_def_cfa_register 6
 9534 0004 4883EC10 		subq	$16, %rsp
 9535 0008 48897DF8 		movq	%rdi, -8(%rbp)
 9536              	.LBB158:
 204:TestTestMacros.cpp **** {
 9537              		.loc 6 204 0
 9538 000c BA000000 		movl	$_ZTV44TestCurrentTestDetailsContainCurrentTestInfo+16, %edx
 9538      00
 9539 0011 488B45F8 		movq	-8(%rbp), %rax
 9540 0015 488910   		movq	%rdx, (%rax)
 9541 0018 488B45F8 		movq	-8(%rbp), %rax
 9542 001c 4889C7   		movq	%rax, %rdi
 9543 001f E8000000 		call	_ZN8UnitTest4TestD2Ev
 9543      00
 9544              	.LBE158:
 9545 0024 B8000000 		movl	$0, %eax
 9545      00
 9546 0029 85C0     		testl	%eax, %eax
 9547 002b 740C     		je	.L521
 204:TestTestMacros.cpp **** {
 9548              		.loc 6 204 0 is_stmt 0 discriminator 4
 9549 002d 488B45F8 		movq	-8(%rbp), %rax
 9550 0031 4889C7   		movq	%rax, %rdi
 9551 0034 E8000000 		call	_ZdlPv
 9551      00
 9552              	.L521:
 204:TestTestMacros.cpp **** {
 9553              		.loc 6 204 0
 9554 0039 C9       		leave
 9555              		.cfi_def_cfa 7, 8
 9556 003a C3       		ret
 9557              		.cfi_endproc
 9558              	.LFE1310:
 9560              		.weak	_ZN44TestCurrentTestDetailsContainCurrentTestInfoD1Ev
 9561              		.set	_ZN44TestCurrentTestDetailsContainCurrentTestInfoD1Ev,_ZN44TestCurrentTestDetailsContainCurre
 9562              		.section	.text._ZN44TestCurrentTestDetailsContainCurrentTestInfoD0Ev,"axG",@progbits,_ZN44TestCurr
 9563              		.align 2
 9564              		.weak	_ZN44TestCurrentTestDetailsContainCurrentTestInfoD0Ev
 9566              	_ZN44TestCurrentTestDetailsContainCurrentTestInfoD0Ev:
 9567              	.LFB1312:
 204:TestTestMacros.cpp **** {
 9568              		.loc 6 204 0 is_stmt 1
 9569              		.cfi_startproc
 9570 0000 55       		pushq	%rbp
 9571              		.cfi_def_cfa_offset 16
 9572              		.cfi_offset 6, -16
 9573 0001 4889E5   		movq	%rsp, %rbp
 9574              		.cfi_def_cfa_register 6
 9575 0004 4883EC10 		subq	$16, %rsp
 9576 0008 48897DF8 		movq	%rdi, -8(%rbp)
 204:TestTestMacros.cpp **** {
 9577              		.loc 6 204 0
 9578 000c 488B45F8 		movq	-8(%rbp), %rax
 9579 0010 4889C7   		movq	%rax, %rdi
 9580 0013 E8000000 		call	_ZN44TestCurrentTestDetailsContainCurrentTestInfoD1Ev
 9580      00
 9581 0018 488B45F8 		movq	-8(%rbp), %rax
 9582 001c 4889C7   		movq	%rax, %rdi
 9583 001f E8000000 		call	_ZdlPv
 9583      00
 9584 0024 C9       		leave
 9585              		.cfi_def_cfa 7, 8
 9586 0025 C3       		ret
 9587              		.cfi_endproc
 9588              	.LFE1312:
 9590              		.weak	_ZTVN18SuiteSameTestSuite14TestDummyTest1E
 9591              		.section	.rodata._ZTVN18SuiteSameTestSuite14TestDummyTest1E,"aG",@progbits,_ZTVN18SuiteSameTestSui
 9592              		.align 8
 9595              	_ZTVN18SuiteSameTestSuite14TestDummyTest1E:
 9596 0000 00000000 		.quad	0
 9596      00000000 
 9597 0008 00000000 		.quad	_ZTIN18SuiteSameTestSuite14TestDummyTest1E
 9597      00000000 
 9598 0010 00000000 		.quad	_ZN18SuiteSameTestSuite14TestDummyTest1D1Ev
 9598      00000000 
 9599 0018 00000000 		.quad	_ZN18SuiteSameTestSuite14TestDummyTest1D0Ev
 9599      00000000 
 9600 0020 00000000 		.quad	_ZNK18SuiteSameTestSuite14TestDummyTest17RunImplEv
 9600      00000000 
 9601              		.section	.text._ZN18SuiteSameTestSuite14TestDummyTest1D2Ev,"axG",@progbits,_ZN18SuiteSameTestSuite
 9602              		.align 2
 9603              		.weak	_ZN18SuiteSameTestSuite14TestDummyTest1D2Ev
 9605              	_ZN18SuiteSameTestSuite14TestDummyTest1D2Ev:
 9606              	.LFB1314:
 195:TestTestMacros.cpp **** 	{
 9607              		.loc 6 195 0
 9608              		.cfi_startproc
 9609 0000 55       		pushq	%rbp
 9610              		.cfi_def_cfa_offset 16
 9611              		.cfi_offset 6, -16
 9612 0001 4889E5   		movq	%rsp, %rbp
 9613              		.cfi_def_cfa_register 6
 9614 0004 4883EC10 		subq	$16, %rsp
 9615 0008 48897DF8 		movq	%rdi, -8(%rbp)
 9616              	.LBB159:
 195:TestTestMacros.cpp **** 	{
 9617              		.loc 6 195 0
 9618 000c BA000000 		movl	$_ZTVN18SuiteSameTestSuite14TestDummyTest1E+16, %edx
 9618      00
 9619 0011 488B45F8 		movq	-8(%rbp), %rax
 9620 0015 488910   		movq	%rdx, (%rax)
 9621 0018 488B45F8 		movq	-8(%rbp), %rax
 9622 001c 4889C7   		movq	%rax, %rdi
 9623 001f E8000000 		call	_ZN8UnitTest4TestD2Ev
 9623      00
 9624              	.LBE159:
 9625 0024 B8000000 		movl	$0, %eax
 9625      00
 9626 0029 85C0     		testl	%eax, %eax
 9627 002b 740C     		je	.L524
 195:TestTestMacros.cpp **** 	{
 9628              		.loc 6 195 0 is_stmt 0 discriminator 4
 9629 002d 488B45F8 		movq	-8(%rbp), %rax
 9630 0031 4889C7   		movq	%rax, %rdi
 9631 0034 E8000000 		call	_ZdlPv
 9631      00
 9632              	.L524:
 195:TestTestMacros.cpp **** 	{
 9633              		.loc 6 195 0
 9634 0039 C9       		leave
 9635              		.cfi_def_cfa 7, 8
 9636 003a C3       		ret
 9637              		.cfi_endproc
 9638              	.LFE1314:
 9640              		.weak	_ZN18SuiteSameTestSuite14TestDummyTest1D1Ev
 9641              		.set	_ZN18SuiteSameTestSuite14TestDummyTest1D1Ev,_ZN18SuiteSameTestSuite14TestDummyTest1D2Ev
 9642              		.section	.text._ZN18SuiteSameTestSuite14TestDummyTest1D0Ev,"axG",@progbits,_ZN18SuiteSameTestSuite
 9643              		.align 2
 9644              		.weak	_ZN18SuiteSameTestSuite14TestDummyTest1D0Ev
 9646              	_ZN18SuiteSameTestSuite14TestDummyTest1D0Ev:
 9647              	.LFB1316:
 195:TestTestMacros.cpp **** 	{
 9648              		.loc 6 195 0 is_stmt 1
 9649              		.cfi_startproc
 9650 0000 55       		pushq	%rbp
 9651              		.cfi_def_cfa_offset 16
 9652              		.cfi_offset 6, -16
 9653 0001 4889E5   		movq	%rsp, %rbp
 9654              		.cfi_def_cfa_register 6
 9655 0004 4883EC10 		subq	$16, %rsp
 9656 0008 48897DF8 		movq	%rdi, -8(%rbp)
 195:TestTestMacros.cpp **** 	{
 9657              		.loc 6 195 0
 9658 000c 488B45F8 		movq	-8(%rbp), %rax
 9659 0010 4889C7   		movq	%rax, %rdi
 9660 0013 E8000000 		call	_ZN18SuiteSameTestSuite14TestDummyTest1D1Ev
 9660      00
 9661 0018 488B45F8 		movq	-8(%rbp), %rax
 9662 001c 4889C7   		movq	%rax, %rdi
 9663 001f E8000000 		call	_ZdlPv
 9663      00
 9664 0024 C9       		leave
 9665              		.cfi_def_cfa 7, 8
 9666 0025 C3       		ret
 9667              		.cfi_endproc
 9668              	.LFE1316:
 9670              		.section	.rodata
 9671 0e83 00000000 		.align 8
 9671      00
 9674              	_ZTVN12_GLOBAL__N_147TestCorrectlyReportsFixturesWithCtorsThatAssertE:
 9675 0e88 00000000 		.quad	0
 9675      00000000 
 9676 0e90 00000000 		.quad	_ZTIN12_GLOBAL__N_147TestCorrectlyReportsFixturesWithCtorsThatAssertE
 9676      00000000 
 9677 0e98 00000000 		.quad	_ZN12_GLOBAL__N_147TestCorrectlyReportsFixturesWithCtorsThatAssertD1Ev
 9677      00000000 
 9678 0ea0 00000000 		.quad	_ZN12_GLOBAL__N_147TestCorrectlyReportsFixturesWithCtorsThatAssertD0Ev
 9678      00000000 
 9679 0ea8 00000000 		.quad	_ZNK12_GLOBAL__N_147TestCorrectlyReportsFixturesWithCtorsThatAssert7RunImplEv
 9679      00000000 
 9680              		.text
 9681 427d 90       		.align 2
 9683              	_ZN12_GLOBAL__N_147TestCorrectlyReportsFixturesWithCtorsThatAssertD2Ev:
 9684              	.LFB1318:
 173:TestTestMacros.cpp **** {
 9685              		.loc 6 173 0
 9686              		.cfi_startproc
 9687 427e 55       		pushq	%rbp
 9688              		.cfi_def_cfa_offset 16
 9689              		.cfi_offset 6, -16
 9690 427f 4889E5   		movq	%rsp, %rbp
 9691              		.cfi_def_cfa_register 6
 9692 4282 4883EC10 		subq	$16, %rsp
 9693 4286 48897DF8 		movq	%rdi, -8(%rbp)
 9694              	.LBB160:
 173:TestTestMacros.cpp **** {
 9695              		.loc 6 173 0
 9696 428a BA000000 		movl	$_ZTVN12_GLOBAL__N_147TestCorrectlyReportsFixturesWithCtorsThatAssertE+16, %edx
 9696      00
 9697 428f 488B45F8 		movq	-8(%rbp), %rax
 9698 4293 488910   		movq	%rdx, (%rax)
 9699 4296 488B45F8 		movq	-8(%rbp), %rax
 9700 429a 4889C7   		movq	%rax, %rdi
 9701 429d E8000000 		call	_ZN8UnitTest4TestD2Ev
 9701      00
 9702              	.LBE160:
 9703 42a2 B8000000 		movl	$0, %eax
 9703      00
 9704 42a7 85C0     		testl	%eax, %eax
 9705 42a9 740C     		je	.L527
 173:TestTestMacros.cpp **** {
 9706              		.loc 6 173 0 is_stmt 0 discriminator 4
 9707 42ab 488B45F8 		movq	-8(%rbp), %rax
 9708 42af 4889C7   		movq	%rax, %rdi
 9709 42b2 E8000000 		call	_ZdlPv
 9709      00
 9710              	.L527:
 173:TestTestMacros.cpp **** {
 9711              		.loc 6 173 0
 9712 42b7 C9       		leave
 9713              		.cfi_def_cfa 7, 8
 9714 42b8 C3       		ret
 9715              		.cfi_endproc
 9716              	.LFE1318:
 9718              		.set	_ZN12_GLOBAL__N_147TestCorrectlyReportsFixturesWithCtorsThatAssertD1Ev,_ZN12_GLOBAL__N_147Tes
 9719 42b9 90       		.align 2
 9721              	_ZN12_GLOBAL__N_147TestCorrectlyReportsFixturesWithCtorsThatAssertD0Ev:
 9722              	.LFB1320:
 173:TestTestMacros.cpp **** {
 9723              		.loc 6 173 0 is_stmt 1
 9724              		.cfi_startproc
 9725 42ba 55       		pushq	%rbp
 9726              		.cfi_def_cfa_offset 16
 9727              		.cfi_offset 6, -16
 9728 42bb 4889E5   		movq	%rsp, %rbp
 9729              		.cfi_def_cfa_register 6
 9730 42be 4883EC10 		subq	$16, %rsp
 9731 42c2 48897DF8 		movq	%rdi, -8(%rbp)
 173:TestTestMacros.cpp **** {
 9732              		.loc 6 173 0
 9733 42c6 488B45F8 		movq	-8(%rbp), %rax
 9734 42ca 4889C7   		movq	%rax, %rdi
 9735 42cd E8ACFFFF 		call	_ZN12_GLOBAL__N_147TestCorrectlyReportsFixturesWithCtorsThatAssertD1Ev
 9735      FF
 9736 42d2 488B45F8 		movq	-8(%rbp), %rax
 9737 42d6 4889C7   		movq	%rax, %rdi
 9738 42d9 E8000000 		call	_ZdlPv
 9738      00
 9739 42de C9       		leave
 9740              		.cfi_def_cfa 7, 8
 9741 42df C3       		ret
 9742              		.cfi_endproc
 9743              	.LFE1320:
 9745              		.section	.rodata
 9746              		.align 8
 9749              	_ZTVN12_GLOBAL__N_157TestFixtureCtorAssertsCorrectlyReportsAssertFailureInCtorE:
 9750 0eb0 00000000 		.quad	0
 9750      00000000 
 9751 0eb8 00000000 		.quad	_ZTIN12_GLOBAL__N_157TestFixtureCtorAssertsCorrectlyReportsAssertFailureInCtorE
 9751      00000000 
 9752 0ec0 00000000 		.quad	_ZN12_GLOBAL__N_157TestFixtureCtorAssertsCorrectlyReportsAssertFailureInCtorD1Ev
 9752      00000000 
 9753 0ec8 00000000 		.quad	_ZN12_GLOBAL__N_157TestFixtureCtorAssertsCorrectlyReportsAssertFailureInCtorD0Ev
 9753      00000000 
 9754 0ed0 00000000 		.quad	_ZNK12_GLOBAL__N_157TestFixtureCtorAssertsCorrectlyReportsAssertFailureInCtor7RunImplEv
 9754      00000000 
 9755              		.text
 9756              		.align 2
 9758              	_ZN12_GLOBAL__N_157TestFixtureCtorAssertsCorrectlyReportsAssertFailureInCtorD2Ev:
 9759              	.LFB1322:
 169:TestTestMacros.cpp **** {
 9760              		.loc 6 169 0
 9761              		.cfi_startproc
 9762 42e0 55       		pushq	%rbp
 9763              		.cfi_def_cfa_offset 16
 9764              		.cfi_offset 6, -16
 9765 42e1 4889E5   		movq	%rsp, %rbp
 9766              		.cfi_def_cfa_register 6
 9767 42e4 4883EC10 		subq	$16, %rsp
 9768 42e8 48897DF8 		movq	%rdi, -8(%rbp)
 9769              	.LBB161:
 169:TestTestMacros.cpp **** {
 9770              		.loc 6 169 0
 9771 42ec BA000000 		movl	$_ZTVN12_GLOBAL__N_157TestFixtureCtorAssertsCorrectlyReportsAssertFailureInCtorE+16, %edx
 9771      00
 9772 42f1 488B45F8 		movq	-8(%rbp), %rax
 9773 42f5 488910   		movq	%rdx, (%rax)
 9774 42f8 488B45F8 		movq	-8(%rbp), %rax
 9775 42fc 4889C7   		movq	%rax, %rdi
 9776 42ff E8000000 		call	_ZN8UnitTest4TestD2Ev
 9776      00
 9777              	.LBE161:
 9778 4304 B8000000 		movl	$0, %eax
 9778      00
 9779 4309 85C0     		testl	%eax, %eax
 9780 430b 740C     		je	.L530
 169:TestTestMacros.cpp **** {
 9781              		.loc 6 169 0 is_stmt 0 discriminator 4
 9782 430d 488B45F8 		movq	-8(%rbp), %rax
 9783 4311 4889C7   		movq	%rax, %rdi
 9784 4314 E8000000 		call	_ZdlPv
 9784      00
 9785              	.L530:
 169:TestTestMacros.cpp **** {
 9786              		.loc 6 169 0
 9787 4319 C9       		leave
 9788              		.cfi_def_cfa 7, 8
 9789 431a C3       		ret
 9790              		.cfi_endproc
 9791              	.LFE1322:
 9793              		.set	_ZN12_GLOBAL__N_157TestFixtureCtorAssertsCorrectlyReportsAssertFailureInCtorD1Ev,_ZN12_GLOBAL
 9794 431b 90       		.align 2
 9796              	_ZN12_GLOBAL__N_157TestFixtureCtorAssertsCorrectlyReportsAssertFailureInCtorD0Ev:
 9797              	.LFB1324:
 169:TestTestMacros.cpp **** {
 9798              		.loc 6 169 0 is_stmt 1
 9799              		.cfi_startproc
 9800 431c 55       		pushq	%rbp
 9801              		.cfi_def_cfa_offset 16
 9802              		.cfi_offset 6, -16
 9803 431d 4889E5   		movq	%rsp, %rbp
 9804              		.cfi_def_cfa_register 6
 9805 4320 4883EC10 		subq	$16, %rsp
 9806 4324 48897DF8 		movq	%rdi, -8(%rbp)
 169:TestTestMacros.cpp **** {
 9807              		.loc 6 169 0
 9808 4328 488B45F8 		movq	-8(%rbp), %rax
 9809 432c 4889C7   		movq	%rax, %rdi
 9810 432f E8ACFFFF 		call	_ZN12_GLOBAL__N_157TestFixtureCtorAssertsCorrectlyReportsAssertFailureInCtorD1Ev
 9810      FF
 9811 4334 488B45F8 		movq	-8(%rbp), %rax
 9812 4338 4889C7   		movq	%rax, %rdi
 9813 433b E8000000 		call	_ZdlPv
 9813      00
 9814 4340 C9       		leave
 9815              		.cfi_def_cfa 7, 8
 9816 4341 C3       		ret
 9817              		.cfi_endproc
 9818              	.LFE1324:
 9820              		.section	.rodata
 9821              		.align 8
 9824              	_ZTVN12_GLOBAL__N_140TestFixturesWithThrowingDtorsAreFailuresE:
 9825 0ed8 00000000 		.quad	0
 9825      00000000 
 9826 0ee0 00000000 		.quad	_ZTIN12_GLOBAL__N_140TestFixturesWithThrowingDtorsAreFailuresE
 9826      00000000 
 9827 0ee8 00000000 		.quad	_ZN12_GLOBAL__N_140TestFixturesWithThrowingDtorsAreFailuresD1Ev
 9827      00000000 
 9828 0ef0 00000000 		.quad	_ZN12_GLOBAL__N_140TestFixturesWithThrowingDtorsAreFailuresD0Ev
 9828      00000000 
 9829 0ef8 00000000 		.quad	_ZNK12_GLOBAL__N_140TestFixturesWithThrowingDtorsAreFailures7RunImplEv
 9829      00000000 
 9830              		.text
 9831              		.align 2
 9833              	_ZN12_GLOBAL__N_140TestFixturesWithThrowingDtorsAreFailuresD2Ev:
 9834              	.LFB1326:
 142:TestTestMacros.cpp **** {
 9835              		.loc 6 142 0
 9836              		.cfi_startproc
 9837 4342 55       		pushq	%rbp
 9838              		.cfi_def_cfa_offset 16
 9839              		.cfi_offset 6, -16
 9840 4343 4889E5   		movq	%rsp, %rbp
 9841              		.cfi_def_cfa_register 6
 9842 4346 4883EC10 		subq	$16, %rsp
 9843 434a 48897DF8 		movq	%rdi, -8(%rbp)
 9844              	.LBB162:
 142:TestTestMacros.cpp **** {
 9845              		.loc 6 142 0
 9846 434e BA000000 		movl	$_ZTVN12_GLOBAL__N_140TestFixturesWithThrowingDtorsAreFailuresE+16, %edx
 9846      00
 9847 4353 488B45F8 		movq	-8(%rbp), %rax
 9848 4357 488910   		movq	%rdx, (%rax)
 9849 435a 488B45F8 		movq	-8(%rbp), %rax
 9850 435e 4889C7   		movq	%rax, %rdi
 9851 4361 E8000000 		call	_ZN8UnitTest4TestD2Ev
 9851      00
 9852              	.LBE162:
 9853 4366 B8000000 		movl	$0, %eax
 9853      00
 9854 436b 85C0     		testl	%eax, %eax
 9855 436d 740C     		je	.L533
 142:TestTestMacros.cpp **** {
 9856              		.loc 6 142 0 is_stmt 0 discriminator 4
 9857 436f 488B45F8 		movq	-8(%rbp), %rax
 9858 4373 4889C7   		movq	%rax, %rdi
 9859 4376 E8000000 		call	_ZdlPv
 9859      00
 9860              	.L533:
 142:TestTestMacros.cpp **** {
 9861              		.loc 6 142 0
 9862 437b C9       		leave
 9863              		.cfi_def_cfa 7, 8
 9864 437c C3       		ret
 9865              		.cfi_endproc
 9866              	.LFE1326:
 9868              		.set	_ZN12_GLOBAL__N_140TestFixturesWithThrowingDtorsAreFailuresD1Ev,_ZN12_GLOBAL__N_140TestFixtur
 9869 437d 90       		.align 2
 9871              	_ZN12_GLOBAL__N_140TestFixturesWithThrowingDtorsAreFailuresD0Ev:
 9872              	.LFB1328:
 142:TestTestMacros.cpp **** {
 9873              		.loc 6 142 0 is_stmt 1
 9874              		.cfi_startproc
 9875 437e 55       		pushq	%rbp
 9876              		.cfi_def_cfa_offset 16
 9877              		.cfi_offset 6, -16
 9878 437f 4889E5   		movq	%rsp, %rbp
 9879              		.cfi_def_cfa_register 6
 9880 4382 4883EC10 		subq	$16, %rsp
 9881 4386 48897DF8 		movq	%rdi, -8(%rbp)
 142:TestTestMacros.cpp **** {
 9882              		.loc 6 142 0
 9883 438a 488B45F8 		movq	-8(%rbp), %rax
 9884 438e 4889C7   		movq	%rax, %rdi
 9885 4391 E8ACFFFF 		call	_ZN12_GLOBAL__N_140TestFixturesWithThrowingDtorsAreFailuresD1Ev
 9885      FF
 9886 4396 488B45F8 		movq	-8(%rbp), %rax
 9887 439a 4889C7   		movq	%rax, %rdi
 9888 439d E8000000 		call	_ZdlPv
 9888      00
 9889 43a2 C9       		leave
 9890              		.cfi_def_cfa 7, 8
 9891 43a3 C3       		ret
 9892              		.cfi_endproc
 9893              	.LFE1328:
 9895              		.section	.rodata
 9896              		.align 8
 9899              	_ZTVN12_GLOBAL__N_146TestFixtureDtorThrowsFixtureDtorThrowsTestNameE:
 9900 0f00 00000000 		.quad	0
 9900      00000000 
 9901 0f08 00000000 		.quad	_ZTIN12_GLOBAL__N_146TestFixtureDtorThrowsFixtureDtorThrowsTestNameE
 9901      00000000 
 9902 0f10 00000000 		.quad	_ZN12_GLOBAL__N_146TestFixtureDtorThrowsFixtureDtorThrowsTestNameD1Ev
 9902      00000000 
 9903 0f18 00000000 		.quad	_ZN12_GLOBAL__N_146TestFixtureDtorThrowsFixtureDtorThrowsTestNameD0Ev
 9903      00000000 
 9904 0f20 00000000 		.quad	_ZNK12_GLOBAL__N_146TestFixtureDtorThrowsFixtureDtorThrowsTestName7RunImplEv
 9904      00000000 
 9905              		.text
 9906              		.align 2
 9908              	_ZN12_GLOBAL__N_146TestFixtureDtorThrowsFixtureDtorThrowsTestNameD2Ev:
 9909              	.LFB1330:
 138:TestTestMacros.cpp **** {
 9910              		.loc 6 138 0
 9911              		.cfi_startproc
 9912 43a4 55       		pushq	%rbp
 9913              		.cfi_def_cfa_offset 16
 9914              		.cfi_offset 6, -16
 9915 43a5 4889E5   		movq	%rsp, %rbp
 9916              		.cfi_def_cfa_register 6
 9917 43a8 4883EC10 		subq	$16, %rsp
 9918 43ac 48897DF8 		movq	%rdi, -8(%rbp)
 9919              	.LBB163:
 138:TestTestMacros.cpp **** {
 9920              		.loc 6 138 0
 9921 43b0 BA000000 		movl	$_ZTVN12_GLOBAL__N_146TestFixtureDtorThrowsFixtureDtorThrowsTestNameE+16, %edx
 9921      00
 9922 43b5 488B45F8 		movq	-8(%rbp), %rax
 9923 43b9 488910   		movq	%rdx, (%rax)
 9924 43bc 488B45F8 		movq	-8(%rbp), %rax
 9925 43c0 4889C7   		movq	%rax, %rdi
 9926 43c3 E8000000 		call	_ZN8UnitTest4TestD2Ev
 9926      00
 9927              	.LBE163:
 9928 43c8 B8000000 		movl	$0, %eax
 9928      00
 9929 43cd 85C0     		testl	%eax, %eax
 9930 43cf 740C     		je	.L536
 138:TestTestMacros.cpp **** {
 9931              		.loc 6 138 0 is_stmt 0 discriminator 4
 9932 43d1 488B45F8 		movq	-8(%rbp), %rax
 9933 43d5 4889C7   		movq	%rax, %rdi
 9934 43d8 E8000000 		call	_ZdlPv
 9934      00
 9935              	.L536:
 138:TestTestMacros.cpp **** {
 9936              		.loc 6 138 0
 9937 43dd C9       		leave
 9938              		.cfi_def_cfa 7, 8
 9939 43de C3       		ret
 9940              		.cfi_endproc
 9941              	.LFE1330:
 9943              		.set	_ZN12_GLOBAL__N_146TestFixtureDtorThrowsFixtureDtorThrowsTestNameD1Ev,_ZN12_GLOBAL__N_146Test
 9944 43df 90       		.align 2
 9946              	_ZN12_GLOBAL__N_146TestFixtureDtorThrowsFixtureDtorThrowsTestNameD0Ev:
 9947              	.LFB1332:
 138:TestTestMacros.cpp **** {
 9948              		.loc 6 138 0 is_stmt 1
 9949              		.cfi_startproc
 9950 43e0 55       		pushq	%rbp
 9951              		.cfi_def_cfa_offset 16
 9952              		.cfi_offset 6, -16
 9953 43e1 4889E5   		movq	%rsp, %rbp
 9954              		.cfi_def_cfa_register 6
 9955 43e4 4883EC10 		subq	$16, %rsp
 9956 43e8 48897DF8 		movq	%rdi, -8(%rbp)
 138:TestTestMacros.cpp **** {
 9957              		.loc 6 138 0
 9958 43ec 488B45F8 		movq	-8(%rbp), %rax
 9959 43f0 4889C7   		movq	%rax, %rdi
 9960 43f3 E8ACFFFF 		call	_ZN12_GLOBAL__N_146TestFixtureDtorThrowsFixtureDtorThrowsTestNameD1Ev
 9960      FF
 9961 43f8 488B45F8 		movq	-8(%rbp), %rax
 9962 43fc 4889C7   		movq	%rax, %rdi
 9963 43ff E8000000 		call	_ZdlPv
 9963      00
 9964 4404 C9       		leave
 9965              		.cfi_def_cfa 7, 8
 9966 4405 C3       		ret
 9967              		.cfi_endproc
 9968              	.LFE1332:
 9970              		.section	.rodata
 9971              		.align 8
 9974              	_ZTVN12_GLOBAL__N_140TestFixturesWithThrowingCtorsAreFailuresE:
 9975 0f28 00000000 		.quad	0
 9975      00000000 
 9976 0f30 00000000 		.quad	_ZTIN12_GLOBAL__N_140TestFixturesWithThrowingCtorsAreFailuresE
 9976      00000000 
 9977 0f38 00000000 		.quad	_ZN12_GLOBAL__N_140TestFixturesWithThrowingCtorsAreFailuresD1Ev
 9977      00000000 
 9978 0f40 00000000 		.quad	_ZN12_GLOBAL__N_140TestFixturesWithThrowingCtorsAreFailuresD0Ev
 9978      00000000 
 9979 0f48 00000000 		.quad	_ZNK12_GLOBAL__N_140TestFixturesWithThrowingCtorsAreFailures7RunImplEv
 9979      00000000 
 9980              		.text
 9981              		.align 2
 9983              	_ZN12_GLOBAL__N_140TestFixturesWithThrowingCtorsAreFailuresD2Ev:
 9984              	.LFB1334:
 117:TestTestMacros.cpp **** {
 9985              		.loc 6 117 0
 9986              		.cfi_startproc
 9987 4406 55       		pushq	%rbp
 9988              		.cfi_def_cfa_offset 16
 9989              		.cfi_offset 6, -16
 9990 4407 4889E5   		movq	%rsp, %rbp
 9991              		.cfi_def_cfa_register 6
 9992 440a 4883EC10 		subq	$16, %rsp
 9993 440e 48897DF8 		movq	%rdi, -8(%rbp)
 9994              	.LBB164:
 117:TestTestMacros.cpp **** {
 9995              		.loc 6 117 0
 9996 4412 BA000000 		movl	$_ZTVN12_GLOBAL__N_140TestFixturesWithThrowingCtorsAreFailuresE+16, %edx
 9996      00
 9997 4417 488B45F8 		movq	-8(%rbp), %rax
 9998 441b 488910   		movq	%rdx, (%rax)
 9999 441e 488B45F8 		movq	-8(%rbp), %rax
 10000 4422 4889C7   		movq	%rax, %rdi
 10001 4425 E8000000 		call	_ZN8UnitTest4TestD2Ev
 10001      00
 10002              	.LBE164:
 10003 442a B8000000 		movl	$0, %eax
 10003      00
 10004 442f 85C0     		testl	%eax, %eax
 10005 4431 740C     		je	.L539
 117:TestTestMacros.cpp **** {
 10006              		.loc 6 117 0 is_stmt 0 discriminator 4
 10007 4433 488B45F8 		movq	-8(%rbp), %rax
 10008 4437 4889C7   		movq	%rax, %rdi
 10009 443a E8000000 		call	_ZdlPv
 10009      00
 10010              	.L539:
 117:TestTestMacros.cpp **** {
 10011              		.loc 6 117 0
 10012 443f C9       		leave
 10013              		.cfi_def_cfa 7, 8
 10014 4440 C3       		ret
 10015              		.cfi_endproc
 10016              	.LFE1334:
 10018              		.set	_ZN12_GLOBAL__N_140TestFixturesWithThrowingCtorsAreFailuresD1Ev,_ZN12_GLOBAL__N_140TestFixtur
 10019 4441 90       		.align 2
 10021              	_ZN12_GLOBAL__N_140TestFixturesWithThrowingCtorsAreFailuresD0Ev:
 10022              	.LFB1336:
 117:TestTestMacros.cpp **** {
 10023              		.loc 6 117 0 is_stmt 1
 10024              		.cfi_startproc
 10025 4442 55       		pushq	%rbp
 10026              		.cfi_def_cfa_offset 16
 10027              		.cfi_offset 6, -16
 10028 4443 4889E5   		movq	%rsp, %rbp
 10029              		.cfi_def_cfa_register 6
 10030 4446 4883EC10 		subq	$16, %rsp
 10031 444a 48897DF8 		movq	%rdi, -8(%rbp)
 117:TestTestMacros.cpp **** {
 10032              		.loc 6 117 0
 10033 444e 488B45F8 		movq	-8(%rbp), %rax
 10034 4452 4889C7   		movq	%rax, %rdi
 10035 4455 E8ACFFFF 		call	_ZN12_GLOBAL__N_140TestFixturesWithThrowingCtorsAreFailuresD1Ev
 10035      FF
 10036 445a 488B45F8 		movq	-8(%rbp), %rax
 10037 445e 4889C7   		movq	%rax, %rdi
 10038 4461 E8000000 		call	_ZdlPv
 10038      00
 10039 4466 C9       		leave
 10040              		.cfi_def_cfa 7, 8
 10041 4467 C3       		ret
 10042              		.cfi_endproc
 10043              	.LFE1336:
 10045              		.section	.rodata
 10046              		.align 8
 10049              	_ZTVN12_GLOBAL__N_146TestFixtureCtorThrowsFixtureCtorThrowsTestNameE:
 10050 0f50 00000000 		.quad	0
 10050      00000000 
 10051 0f58 00000000 		.quad	_ZTIN12_GLOBAL__N_146TestFixtureCtorThrowsFixtureCtorThrowsTestNameE
 10051      00000000 
 10052 0f60 00000000 		.quad	_ZN12_GLOBAL__N_146TestFixtureCtorThrowsFixtureCtorThrowsTestNameD1Ev
 10052      00000000 
 10053 0f68 00000000 		.quad	_ZN12_GLOBAL__N_146TestFixtureCtorThrowsFixtureCtorThrowsTestNameD0Ev
 10053      00000000 
 10054 0f70 00000000 		.quad	_ZNK12_GLOBAL__N_146TestFixtureCtorThrowsFixtureCtorThrowsTestName7RunImplEv
 10054      00000000 
 10055              		.text
 10056              		.align 2
 10058              	_ZN12_GLOBAL__N_146TestFixtureCtorThrowsFixtureCtorThrowsTestNameD2Ev:
 10059              	.LFB1338:
 113:TestTestMacros.cpp **** {
 10060              		.loc 6 113 0
 10061              		.cfi_startproc
 10062 4468 55       		pushq	%rbp
 10063              		.cfi_def_cfa_offset 16
 10064              		.cfi_offset 6, -16
 10065 4469 4889E5   		movq	%rsp, %rbp
 10066              		.cfi_def_cfa_register 6
 10067 446c 4883EC10 		subq	$16, %rsp
 10068 4470 48897DF8 		movq	%rdi, -8(%rbp)
 10069              	.LBB165:
 113:TestTestMacros.cpp **** {
 10070              		.loc 6 113 0
 10071 4474 BA000000 		movl	$_ZTVN12_GLOBAL__N_146TestFixtureCtorThrowsFixtureCtorThrowsTestNameE+16, %edx
 10071      00
 10072 4479 488B45F8 		movq	-8(%rbp), %rax
 10073 447d 488910   		movq	%rdx, (%rax)
 10074 4480 488B45F8 		movq	-8(%rbp), %rax
 10075 4484 4889C7   		movq	%rax, %rdi
 10076 4487 E8000000 		call	_ZN8UnitTest4TestD2Ev
 10076      00
 10077              	.LBE165:
 10078 448c B8000000 		movl	$0, %eax
 10078      00
 10079 4491 85C0     		testl	%eax, %eax
 10080 4493 740C     		je	.L542
 113:TestTestMacros.cpp **** {
 10081              		.loc 6 113 0 is_stmt 0 discriminator 4
 10082 4495 488B45F8 		movq	-8(%rbp), %rax
 10083 4499 4889C7   		movq	%rax, %rdi
 10084 449c E8000000 		call	_ZdlPv
 10084      00
 10085              	.L542:
 113:TestTestMacros.cpp **** {
 10086              		.loc 6 113 0
 10087 44a1 C9       		leave
 10088              		.cfi_def_cfa 7, 8
 10089 44a2 C3       		ret
 10090              		.cfi_endproc
 10091              	.LFE1338:
 10093              		.set	_ZN12_GLOBAL__N_146TestFixtureCtorThrowsFixtureCtorThrowsTestNameD1Ev,_ZN12_GLOBAL__N_146Test
 10094 44a3 90       		.align 2
 10096              	_ZN12_GLOBAL__N_146TestFixtureCtorThrowsFixtureCtorThrowsTestNameD0Ev:
 10097              	.LFB1340:
 113:TestTestMacros.cpp **** {
 10098              		.loc 6 113 0 is_stmt 1
 10099              		.cfi_startproc
 10100 44a4 55       		pushq	%rbp
 10101              		.cfi_def_cfa_offset 16
 10102              		.cfi_offset 6, -16
 10103 44a5 4889E5   		movq	%rsp, %rbp
 10104              		.cfi_def_cfa_register 6
 10105 44a8 4883EC10 		subq	$16, %rsp
 10106 44ac 48897DF8 		movq	%rdi, -8(%rbp)
 113:TestTestMacros.cpp **** {
 10107              		.loc 6 113 0
 10108 44b0 488B45F8 		movq	-8(%rbp), %rax
 10109 44b4 4889C7   		movq	%rax, %rdi
 10110 44b7 E8ACFFFF 		call	_ZN12_GLOBAL__N_146TestFixtureCtorThrowsFixtureCtorThrowsTestNameD1Ev
 10110      FF
 10111 44bc 488B45F8 		movq	-8(%rbp), %rax
 10112 44c0 4889C7   		movq	%rax, %rdi
 10113 44c3 E8000000 		call	_ZdlPv
 10113      00
 10114 44c8 C9       		leave
 10115              		.cfi_def_cfa 7, 8
 10116 44c9 C3       		ret
 10117              		.cfi_endproc
 10118              	.LFE1340:
 10120              		.section	.rodata
 10121              		.align 8
 10124              	_ZTVN12_GLOBAL__N_153TestTestAddedWithTEST_FIXTURE_EXMacroGetsDefaultSuiteE:
 10125 0f78 00000000 		.quad	0
 10125      00000000 
 10126 0f80 00000000 		.quad	_ZTIN12_GLOBAL__N_153TestTestAddedWithTEST_FIXTURE_EXMacroGetsDefaultSuiteE
 10126      00000000 
 10127 0f88 00000000 		.quad	_ZN12_GLOBAL__N_153TestTestAddedWithTEST_FIXTURE_EXMacroGetsDefaultSuiteD1Ev
 10127      00000000 
 10128 0f90 00000000 		.quad	_ZN12_GLOBAL__N_153TestTestAddedWithTEST_FIXTURE_EXMacroGetsDefaultSuiteD0Ev
 10128      00000000 
 10129 0f98 00000000 		.quad	_ZNK12_GLOBAL__N_153TestTestAddedWithTEST_FIXTURE_EXMacroGetsDefaultSuite7RunImplEv
 10129      00000000 
 10130              		.text
 10131              		.align 2
 10133              	_ZN12_GLOBAL__N_153TestTestAddedWithTEST_FIXTURE_EXMacroGetsDefaultSuiteD2Ev:
 10134              	.LFB1342:
 100:TestTestMacros.cpp **** {
 10135              		.loc 6 100 0
 10136              		.cfi_startproc
 10137 44ca 55       		pushq	%rbp
 10138              		.cfi_def_cfa_offset 16
 10139              		.cfi_offset 6, -16
 10140 44cb 4889E5   		movq	%rsp, %rbp
 10141              		.cfi_def_cfa_register 6
 10142 44ce 4883EC10 		subq	$16, %rsp
 10143 44d2 48897DF8 		movq	%rdi, -8(%rbp)
 10144              	.LBB166:
 100:TestTestMacros.cpp **** {
 10145              		.loc 6 100 0
 10146 44d6 BA000000 		movl	$_ZTVN12_GLOBAL__N_153TestTestAddedWithTEST_FIXTURE_EXMacroGetsDefaultSuiteE+16, %edx
 10146      00
 10147 44db 488B45F8 		movq	-8(%rbp), %rax
 10148 44df 488910   		movq	%rdx, (%rax)
 10149 44e2 488B45F8 		movq	-8(%rbp), %rax
 10150 44e6 4889C7   		movq	%rax, %rdi
 10151 44e9 E8000000 		call	_ZN8UnitTest4TestD2Ev
 10151      00
 10152              	.LBE166:
 10153 44ee B8000000 		movl	$0, %eax
 10153      00
 10154 44f3 85C0     		testl	%eax, %eax
 10155 44f5 740C     		je	.L545
 100:TestTestMacros.cpp **** {
 10156              		.loc 6 100 0 is_stmt 0 discriminator 4
 10157 44f7 488B45F8 		movq	-8(%rbp), %rax
 10158 44fb 4889C7   		movq	%rax, %rdi
 10159 44fe E8000000 		call	_ZdlPv
 10159      00
 10160              	.L545:
 100:TestTestMacros.cpp **** {
 10161              		.loc 6 100 0
 10162 4503 C9       		leave
 10163              		.cfi_def_cfa 7, 8
 10164 4504 C3       		ret
 10165              		.cfi_endproc
 10166              	.LFE1342:
 10168              		.set	_ZN12_GLOBAL__N_153TestTestAddedWithTEST_FIXTURE_EXMacroGetsDefaultSuiteD1Ev,_ZN12_GLOBAL__N_
 10169 4505 90       		.align 2
 10171              	_ZN12_GLOBAL__N_153TestTestAddedWithTEST_FIXTURE_EXMacroGetsDefaultSuiteD0Ev:
 10172              	.LFB1344:
 100:TestTestMacros.cpp **** {
 10173              		.loc 6 100 0 is_stmt 1
 10174              		.cfi_startproc
 10175 4506 55       		pushq	%rbp
 10176              		.cfi_def_cfa_offset 16
 10177              		.cfi_offset 6, -16
 10178 4507 4889E5   		movq	%rsp, %rbp
 10179              		.cfi_def_cfa_register 6
 10180 450a 4883EC10 		subq	$16, %rsp
 10181 450e 48897DF8 		movq	%rdi, -8(%rbp)
 100:TestTestMacros.cpp **** {
 10182              		.loc 6 100 0
 10183 4512 488B45F8 		movq	-8(%rbp), %rax
 10184 4516 4889C7   		movq	%rax, %rdi
 10185 4519 E8ACFFFF 		call	_ZN12_GLOBAL__N_153TestTestAddedWithTEST_FIXTURE_EXMacroGetsDefaultSuiteD1Ev
 10185      FF
 10186 451e 488B45F8 		movq	-8(%rbp), %rax
 10187 4522 4889C7   		movq	%rax, %rdi
 10188 4525 E8000000 		call	_ZdlPv
 10188      00
 10189 452a C9       		leave
 10190              		.cfi_def_cfa 7, 8
 10191 452b C3       		ret
 10192              		.cfi_endproc
 10193              	.LFE1344:
 10195              		.section	.rodata
 10196              		.align 8
 10199              	_ZTVN12_GLOBAL__N_132TestDummyFixtureMacroTestHelper2E:
 10200 0fa0 00000000 		.quad	0
 10200      00000000 
 10201 0fa8 00000000 		.quad	_ZTIN12_GLOBAL__N_132TestDummyFixtureMacroTestHelper2E
 10201      00000000 
 10202 0fb0 00000000 		.quad	_ZN12_GLOBAL__N_132TestDummyFixtureMacroTestHelper2D1Ev
 10202      00000000 
 10203 0fb8 00000000 		.quad	_ZN12_GLOBAL__N_132TestDummyFixtureMacroTestHelper2D0Ev
 10203      00000000 
 10204 0fc0 00000000 		.quad	_ZNK12_GLOBAL__N_132TestDummyFixtureMacroTestHelper27RunImplEv
 10204      00000000 
 10205              		.text
 10206              		.align 2
 10208              	_ZN12_GLOBAL__N_132TestDummyFixtureMacroTestHelper2D2Ev:
 10209              	.LFB1346:
  96:TestTestMacros.cpp **** {
 10210              		.loc 6 96 0
 10211              		.cfi_startproc
 10212 452c 55       		pushq	%rbp
 10213              		.cfi_def_cfa_offset 16
 10214              		.cfi_offset 6, -16
 10215 452d 4889E5   		movq	%rsp, %rbp
 10216              		.cfi_def_cfa_register 6
 10217 4530 4883EC10 		subq	$16, %rsp
 10218 4534 48897DF8 		movq	%rdi, -8(%rbp)
 10219              	.LBB167:
  96:TestTestMacros.cpp **** {
 10220              		.loc 6 96 0
 10221 4538 BA000000 		movl	$_ZTVN12_GLOBAL__N_132TestDummyFixtureMacroTestHelper2E+16, %edx
 10221      00
 10222 453d 488B45F8 		movq	-8(%rbp), %rax
 10223 4541 488910   		movq	%rdx, (%rax)
 10224 4544 488B45F8 		movq	-8(%rbp), %rax
 10225 4548 4889C7   		movq	%rax, %rdi
 10226 454b E8000000 		call	_ZN8UnitTest4TestD2Ev
 10226      00
 10227              	.LBE167:
 10228 4550 B8000000 		movl	$0, %eax
 10228      00
 10229 4555 85C0     		testl	%eax, %eax
 10230 4557 740C     		je	.L548
  96:TestTestMacros.cpp **** {
 10231              		.loc 6 96 0 is_stmt 0 discriminator 4
 10232 4559 488B45F8 		movq	-8(%rbp), %rax
 10233 455d 4889C7   		movq	%rax, %rdi
 10234 4560 E8000000 		call	_ZdlPv
 10234      00
 10235              	.L548:
  96:TestTestMacros.cpp **** {
 10236              		.loc 6 96 0
 10237 4565 C9       		leave
 10238              		.cfi_def_cfa 7, 8
 10239 4566 C3       		ret
 10240              		.cfi_endproc
 10241              	.LFE1346:
 10243              		.set	_ZN12_GLOBAL__N_132TestDummyFixtureMacroTestHelper2D1Ev,_ZN12_GLOBAL__N_132TestDummyFixtureMa
 10244 4567 90       		.align 2
 10246              	_ZN12_GLOBAL__N_132TestDummyFixtureMacroTestHelper2D0Ev:
 10247              	.LFB1348:
  96:TestTestMacros.cpp **** {
 10248              		.loc 6 96 0 is_stmt 1
 10249              		.cfi_startproc
 10250 4568 55       		pushq	%rbp
 10251              		.cfi_def_cfa_offset 16
 10252              		.cfi_offset 6, -16
 10253 4569 4889E5   		movq	%rsp, %rbp
 10254              		.cfi_def_cfa_register 6
 10255 456c 4883EC10 		subq	$16, %rsp
 10256 4570 48897DF8 		movq	%rdi, -8(%rbp)
  96:TestTestMacros.cpp **** {
 10257              		.loc 6 96 0
 10258 4574 488B45F8 		movq	-8(%rbp), %rax
 10259 4578 4889C7   		movq	%rax, %rdi
 10260 457b E8ACFFFF 		call	_ZN12_GLOBAL__N_132TestDummyFixtureMacroTestHelper2D1Ev
 10260      FF
 10261 4580 488B45F8 		movq	-8(%rbp), %rax
 10262 4584 4889C7   		movq	%rax, %rdi
 10263 4587 E8000000 		call	_ZdlPv
 10263      00
 10264 458c C9       		leave
 10265              		.cfi_def_cfa 7, 8
 10266 458d C3       		ret
 10267              		.cfi_endproc
 10268              	.LFE1348:
 10270              		.section	.rodata
 10271              		.align 8
 10274              	_ZTVN12_GLOBAL__N_145TestTestAddedWithTEST_EXMacroGetsDefaultSuiteE:
 10275 0fc8 00000000 		.quad	0
 10275      00000000 
 10276 0fd0 00000000 		.quad	_ZTIN12_GLOBAL__N_145TestTestAddedWithTEST_EXMacroGetsDefaultSuiteE
 10276      00000000 
 10277 0fd8 00000000 		.quad	_ZN12_GLOBAL__N_145TestTestAddedWithTEST_EXMacroGetsDefaultSuiteD1Ev
 10277      00000000 
 10278 0fe0 00000000 		.quad	_ZN12_GLOBAL__N_145TestTestAddedWithTEST_EXMacroGetsDefaultSuiteD0Ev
 10278      00000000 
 10279 0fe8 00000000 		.quad	_ZNK12_GLOBAL__N_145TestTestAddedWithTEST_EXMacroGetsDefaultSuite7RunImplEv
 10279      00000000 
 10280              		.text
 10281              		.align 2
 10283              	_ZN12_GLOBAL__N_145TestTestAddedWithTEST_EXMacroGetsDefaultSuiteD2Ev:
 10284              	.LFB1350:
  88:TestTestMacros.cpp **** {
 10285              		.loc 6 88 0
 10286              		.cfi_startproc
 10287 458e 55       		pushq	%rbp
 10288              		.cfi_def_cfa_offset 16
 10289              		.cfi_offset 6, -16
 10290 458f 4889E5   		movq	%rsp, %rbp
 10291              		.cfi_def_cfa_register 6
 10292 4592 4883EC10 		subq	$16, %rsp
 10293 4596 48897DF8 		movq	%rdi, -8(%rbp)
 10294              	.LBB168:
  88:TestTestMacros.cpp **** {
 10295              		.loc 6 88 0
 10296 459a BA000000 		movl	$_ZTVN12_GLOBAL__N_145TestTestAddedWithTEST_EXMacroGetsDefaultSuiteE+16, %edx
 10296      00
 10297 459f 488B45F8 		movq	-8(%rbp), %rax
 10298 45a3 488910   		movq	%rdx, (%rax)
 10299 45a6 488B45F8 		movq	-8(%rbp), %rax
 10300 45aa 4889C7   		movq	%rax, %rdi
 10301 45ad E8000000 		call	_ZN8UnitTest4TestD2Ev
 10301      00
 10302              	.LBE168:
 10303 45b2 B8000000 		movl	$0, %eax
 10303      00
 10304 45b7 85C0     		testl	%eax, %eax
 10305 45b9 740C     		je	.L551
  88:TestTestMacros.cpp **** {
 10306              		.loc 6 88 0 is_stmt 0 discriminator 4
 10307 45bb 488B45F8 		movq	-8(%rbp), %rax
 10308 45bf 4889C7   		movq	%rax, %rdi
 10309 45c2 E8000000 		call	_ZdlPv
 10309      00
 10310              	.L551:
  88:TestTestMacros.cpp **** {
 10311              		.loc 6 88 0
 10312 45c7 C9       		leave
 10313              		.cfi_def_cfa 7, 8
 10314 45c8 C3       		ret
 10315              		.cfi_endproc
 10316              	.LFE1350:
 10318              		.set	_ZN12_GLOBAL__N_145TestTestAddedWithTEST_EXMacroGetsDefaultSuiteD1Ev,_ZN12_GLOBAL__N_145TestT
 10319 45c9 90       		.align 2
 10321              	_ZN12_GLOBAL__N_145TestTestAddedWithTEST_EXMacroGetsDefaultSuiteD0Ev:
 10322              	.LFB1352:
  88:TestTestMacros.cpp **** {
 10323              		.loc 6 88 0 is_stmt 1
 10324              		.cfi_startproc
 10325 45ca 55       		pushq	%rbp
 10326              		.cfi_def_cfa_offset 16
 10327              		.cfi_offset 6, -16
 10328 45cb 4889E5   		movq	%rsp, %rbp
 10329              		.cfi_def_cfa_register 6
 10330 45ce 4883EC10 		subq	$16, %rsp
 10331 45d2 48897DF8 		movq	%rdi, -8(%rbp)
  88:TestTestMacros.cpp **** {
 10332              		.loc 6 88 0
 10333 45d6 488B45F8 		movq	-8(%rbp), %rax
 10334 45da 4889C7   		movq	%rax, %rdi
 10335 45dd E8ACFFFF 		call	_ZN12_GLOBAL__N_145TestTestAddedWithTEST_EXMacroGetsDefaultSuiteD1Ev
 10335      FF
 10336 45e2 488B45F8 		movq	-8(%rbp), %rax
 10337 45e6 4889C7   		movq	%rax, %rdi
 10338 45e9 E8000000 		call	_ZdlPv
 10338      00
 10339 45ee C9       		leave
 10340              		.cfi_def_cfa 7, 8
 10341 45ef C3       		ret
 10342              		.cfi_endproc
 10343              	.LFE1352:
 10345              		.section	.rodata
 10346              		.align 8
 10349              	_ZTVN12_GLOBAL__N_120TestMacroTestHelper1E:
 10350 0ff0 00000000 		.quad	0
 10350      00000000 
 10351 0ff8 00000000 		.quad	_ZTIN12_GLOBAL__N_120TestMacroTestHelper1E
 10351      00000000 
 10352 1000 00000000 		.quad	_ZN12_GLOBAL__N_120TestMacroTestHelper1D1Ev
 10352      00000000 
 10353 1008 00000000 		.quad	_ZN12_GLOBAL__N_120TestMacroTestHelper1D0Ev
 10353      00000000 
 10354 1010 00000000 		.quad	_ZNK12_GLOBAL__N_120TestMacroTestHelper17RunImplEv
 10354      00000000 
 10355              		.text
 10356              		.align 2
 10358              	_ZN12_GLOBAL__N_120TestMacroTestHelper1D2Ev:
 10359              	.LFB1354:
  84:TestTestMacros.cpp **** {
 10360              		.loc 6 84 0
 10361              		.cfi_startproc
 10362 45f0 55       		pushq	%rbp
 10363              		.cfi_def_cfa_offset 16
 10364              		.cfi_offset 6, -16
 10365 45f1 4889E5   		movq	%rsp, %rbp
 10366              		.cfi_def_cfa_register 6
 10367 45f4 4883EC10 		subq	$16, %rsp
 10368 45f8 48897DF8 		movq	%rdi, -8(%rbp)
 10369              	.LBB169:
  84:TestTestMacros.cpp **** {
 10370              		.loc 6 84 0
 10371 45fc BA000000 		movl	$_ZTVN12_GLOBAL__N_120TestMacroTestHelper1E+16, %edx
 10371      00
 10372 4601 488B45F8 		movq	-8(%rbp), %rax
 10373 4605 488910   		movq	%rdx, (%rax)
 10374 4608 488B45F8 		movq	-8(%rbp), %rax
 10375 460c 4889C7   		movq	%rax, %rdi
 10376 460f E8000000 		call	_ZN8UnitTest4TestD2Ev
 10376      00
 10377              	.LBE169:
 10378 4614 B8000000 		movl	$0, %eax
 10378      00
 10379 4619 85C0     		testl	%eax, %eax
 10380 461b 740C     		je	.L554
  84:TestTestMacros.cpp **** {
 10381              		.loc 6 84 0 is_stmt 0 discriminator 4
 10382 461d 488B45F8 		movq	-8(%rbp), %rax
 10383 4621 4889C7   		movq	%rax, %rdi
 10384 4624 E8000000 		call	_ZdlPv
 10384      00
 10385              	.L554:
  84:TestTestMacros.cpp **** {
 10386              		.loc 6 84 0
 10387 4629 C9       		leave
 10388              		.cfi_def_cfa 7, 8
 10389 462a C3       		ret
 10390              		.cfi_endproc
 10391              	.LFE1354:
 10393              		.set	_ZN12_GLOBAL__N_120TestMacroTestHelper1D1Ev,_ZN12_GLOBAL__N_120TestMacroTestHelper1D2Ev
 10394 462b 90       		.align 2
 10396              	_ZN12_GLOBAL__N_120TestMacroTestHelper1D0Ev:
 10397              	.LFB1356:
  84:TestTestMacros.cpp **** {
 10398              		.loc 6 84 0 is_stmt 1
 10399              		.cfi_startproc
 10400 462c 55       		pushq	%rbp
 10401              		.cfi_def_cfa_offset 16
 10402              		.cfi_offset 6, -16
 10403 462d 4889E5   		movq	%rsp, %rbp
 10404              		.cfi_def_cfa_register 6
 10405 4630 4883EC10 		subq	$16, %rsp
 10406 4634 48897DF8 		movq	%rdi, -8(%rbp)
  84:TestTestMacros.cpp **** {
 10407              		.loc 6 84 0
 10408 4638 488B45F8 		movq	-8(%rbp), %rax
 10409 463c 4889C7   		movq	%rax, %rdi
 10410 463f E8ACFFFF 		call	_ZN12_GLOBAL__N_120TestMacroTestHelper1D1Ev
 10410      FF
 10411 4644 488B45F8 		movq	-8(%rbp), %rax
 10412 4648 4889C7   		movq	%rax, %rdi
 10413 464b E8000000 		call	_ZdlPv
 10413      00
 10414 4650 C9       		leave
 10415              		.cfi_def_cfa 7, 8
 10416 4651 C3       		ret
 10417              		.cfi_endproc
 10418              	.LFE1356:
 10420              		.section	.rodata
 10421              		.align 8
 10424              	_ZTVN12_GLOBAL__N_115SuiteTestSuite263TestDummyFixtureSimilarlyNamedFixtureTestsInDifferentSuitesWo
 10425 1018 00000000 		.quad	0
 10425      00000000 
 10426 1020 00000000 		.quad	_ZTIN12_GLOBAL__N_115SuiteTestSuite263TestDummyFixtureSimilarlyNamedFixtureTestsInDifferentS
 10426      00000000 
 10427 1028 00000000 		.quad	_ZN12_GLOBAL__N_115SuiteTestSuite263TestDummyFixtureSimilarlyNamedFixtureTestsInDifferentSui
 10427      00000000 
 10428 1030 00000000 		.quad	_ZN12_GLOBAL__N_115SuiteTestSuite263TestDummyFixtureSimilarlyNamedFixtureTestsInDifferentSui
 10428      00000000 
 10429 1038 00000000 		.quad	_ZNK12_GLOBAL__N_115SuiteTestSuite263TestDummyFixtureSimilarlyNamedFixtureTestsInDifferentSu
 10429      00000000 
 10430              		.text
 10431              		.align 2
 10433              	_ZN12_GLOBAL__N_115SuiteTestSuite263TestDummyFixtureSimilarlyNamedFixtureTestsInDifferentSuitesWork
 10434              	.LFB1358:
  78:TestTestMacros.cpp **** 	{
 10435              		.loc 6 78 0
 10436              		.cfi_startproc
 10437 4652 55       		pushq	%rbp
 10438              		.cfi_def_cfa_offset 16
 10439              		.cfi_offset 6, -16
 10440 4653 4889E5   		movq	%rsp, %rbp
 10441              		.cfi_def_cfa_register 6
 10442 4656 4883EC10 		subq	$16, %rsp
 10443 465a 48897DF8 		movq	%rdi, -8(%rbp)
 10444              	.LBB170:
  78:TestTestMacros.cpp **** 	{
 10445              		.loc 6 78 0
 10446 465e BA000000 		movl	$_ZTVN12_GLOBAL__N_115SuiteTestSuite263TestDummyFixtureSimilarlyNamedFixtureTestsInDifferentS
 10446      00
 10447 4663 488B45F8 		movq	-8(%rbp), %rax
 10448 4667 488910   		movq	%rdx, (%rax)
 10449 466a 488B45F8 		movq	-8(%rbp), %rax
 10450 466e 4889C7   		movq	%rax, %rdi
 10451 4671 E8000000 		call	_ZN8UnitTest4TestD2Ev
 10451      00
 10452              	.LBE170:
 10453 4676 B8000000 		movl	$0, %eax
 10453      00
 10454 467b 85C0     		testl	%eax, %eax
 10455 467d 740C     		je	.L557
  78:TestTestMacros.cpp **** 	{
 10456              		.loc 6 78 0 is_stmt 0 discriminator 4
 10457 467f 488B45F8 		movq	-8(%rbp), %rax
 10458 4683 4889C7   		movq	%rax, %rdi
 10459 4686 E8000000 		call	_ZdlPv
 10459      00
 10460              	.L557:
  78:TestTestMacros.cpp **** 	{
 10461              		.loc 6 78 0
 10462 468b C9       		leave
 10463              		.cfi_def_cfa 7, 8
 10464 468c C3       		ret
 10465              		.cfi_endproc
 10466              	.LFE1358:
 10468              		.set	_ZN12_GLOBAL__N_115SuiteTestSuite263TestDummyFixtureSimilarlyNamedFixtureTestsInDifferentSuit
 10469 468d 90       		.align 2
 10471              	_ZN12_GLOBAL__N_115SuiteTestSuite263TestDummyFixtureSimilarlyNamedFixtureTestsInDifferentSuitesWork
 10472              	.LFB1360:
  78:TestTestMacros.cpp **** 	{
 10473              		.loc 6 78 0 is_stmt 1
 10474              		.cfi_startproc
 10475 468e 55       		pushq	%rbp
 10476              		.cfi_def_cfa_offset 16
 10477              		.cfi_offset 6, -16
 10478 468f 4889E5   		movq	%rsp, %rbp
 10479              		.cfi_def_cfa_register 6
 10480 4692 4883EC10 		subq	$16, %rsp
 10481 4696 48897DF8 		movq	%rdi, -8(%rbp)
  78:TestTestMacros.cpp **** 	{
 10482              		.loc 6 78 0
 10483 469a 488B45F8 		movq	-8(%rbp), %rax
 10484 469e 4889C7   		movq	%rax, %rdi
 10485 46a1 E8ACFFFF 		call	_ZN12_GLOBAL__N_115SuiteTestSuite263TestDummyFixtureSimilarlyNamedFixtureTestsInDifferentSuit
 10485      FF
 10486 46a6 488B45F8 		movq	-8(%rbp), %rax
 10487 46aa 4889C7   		movq	%rax, %rdi
 10488 46ad E8000000 		call	_ZdlPv
 10488      00
 10489 46b2 C9       		leave
 10490              		.cfi_def_cfa 7, 8
 10491 46b3 C3       		ret
 10492              		.cfi_endproc
 10493              	.LFE1360:
 10495              		.section	.rodata
 10496              		.align 8
 10499              	_ZTVN12_GLOBAL__N_115SuiteTestSuite244TestSimilarlyNamedTestsInDifferentSuitesWorkE:
 10500 1040 00000000 		.quad	0
 10500      00000000 
 10501 1048 00000000 		.quad	_ZTIN12_GLOBAL__N_115SuiteTestSuite244TestSimilarlyNamedTestsInDifferentSuitesWorkE
 10501      00000000 
 10502 1050 00000000 		.quad	_ZN12_GLOBAL__N_115SuiteTestSuite244TestSimilarlyNamedTestsInDifferentSuitesWorkD1Ev
 10502      00000000 
 10503 1058 00000000 		.quad	_ZN12_GLOBAL__N_115SuiteTestSuite244TestSimilarlyNamedTestsInDifferentSuitesWorkD0Ev
 10503      00000000 
 10504 1060 00000000 		.quad	_ZNK12_GLOBAL__N_115SuiteTestSuite244TestSimilarlyNamedTestsInDifferentSuitesWork7RunImplEv
 10504      00000000 
 10505              		.text
 10506              		.align 2
 10508              	_ZN12_GLOBAL__N_115SuiteTestSuite244TestSimilarlyNamedTestsInDifferentSuitesWorkD2Ev:
 10509              	.LFB1362:
  74:TestTestMacros.cpp **** 	{
 10510              		.loc 6 74 0
 10511              		.cfi_startproc
 10512 46b4 55       		pushq	%rbp
 10513              		.cfi_def_cfa_offset 16
 10514              		.cfi_offset 6, -16
 10515 46b5 4889E5   		movq	%rsp, %rbp
 10516              		.cfi_def_cfa_register 6
 10517 46b8 4883EC10 		subq	$16, %rsp
 10518 46bc 48897DF8 		movq	%rdi, -8(%rbp)
 10519              	.LBB171:
  74:TestTestMacros.cpp **** 	{
 10520              		.loc 6 74 0
 10521 46c0 BA000000 		movl	$_ZTVN12_GLOBAL__N_115SuiteTestSuite244TestSimilarlyNamedTestsInDifferentSuitesWorkE+16, %edx
 10521      00
 10522 46c5 488B45F8 		movq	-8(%rbp), %rax
 10523 46c9 488910   		movq	%rdx, (%rax)
 10524 46cc 488B45F8 		movq	-8(%rbp), %rax
 10525 46d0 4889C7   		movq	%rax, %rdi
 10526 46d3 E8000000 		call	_ZN8UnitTest4TestD2Ev
 10526      00
 10527              	.LBE171:
 10528 46d8 B8000000 		movl	$0, %eax
 10528      00
 10529 46dd 85C0     		testl	%eax, %eax
 10530 46df 740C     		je	.L560
  74:TestTestMacros.cpp **** 	{
 10531              		.loc 6 74 0 is_stmt 0 discriminator 4
 10532 46e1 488B45F8 		movq	-8(%rbp), %rax
 10533 46e5 4889C7   		movq	%rax, %rdi
 10534 46e8 E8000000 		call	_ZdlPv
 10534      00
 10535              	.L560:
  74:TestTestMacros.cpp **** 	{
 10536              		.loc 6 74 0
 10537 46ed C9       		leave
 10538              		.cfi_def_cfa 7, 8
 10539 46ee C3       		ret
 10540              		.cfi_endproc
 10541              	.LFE1362:
 10543              		.set	_ZN12_GLOBAL__N_115SuiteTestSuite244TestSimilarlyNamedTestsInDifferentSuitesWorkD1Ev,_ZN12_GL
 10544 46ef 90       		.align 2
 10546              	_ZN12_GLOBAL__N_115SuiteTestSuite244TestSimilarlyNamedTestsInDifferentSuitesWorkD0Ev:
 10547              	.LFB1364:
  74:TestTestMacros.cpp **** 	{
 10548              		.loc 6 74 0 is_stmt 1
 10549              		.cfi_startproc
 10550 46f0 55       		pushq	%rbp
 10551              		.cfi_def_cfa_offset 16
 10552              		.cfi_offset 6, -16
 10553 46f1 4889E5   		movq	%rsp, %rbp
 10554              		.cfi_def_cfa_register 6
 10555 46f4 4883EC10 		subq	$16, %rsp
 10556 46f8 48897DF8 		movq	%rdi, -8(%rbp)
  74:TestTestMacros.cpp **** 	{
 10557              		.loc 6 74 0
 10558 46fc 488B45F8 		movq	-8(%rbp), %rax
 10559 4700 4889C7   		movq	%rax, %rdi
 10560 4703 E8ACFFFF 		call	_ZN12_GLOBAL__N_115SuiteTestSuite244TestSimilarlyNamedTestsInDifferentSuitesWorkD1Ev
 10560      FF
 10561 4708 488B45F8 		movq	-8(%rbp), %rax
 10562 470c 4889C7   		movq	%rax, %rdi
 10563 470f E8000000 		call	_ZdlPv
 10563      00
 10564 4714 C9       		leave
 10565              		.cfi_def_cfa 7, 8
 10566 4715 C3       		ret
 10567              		.cfi_endproc
 10568              	.LFE1364:
 10570              		.section	.rodata
 10571              		.align 8
 10574              	_ZTVN12_GLOBAL__N_115SuiteTestSuite163TestDummyFixtureSimilarlyNamedFixtureTestsInDifferentSuitesWo
 10575 1068 00000000 		.quad	0
 10575      00000000 
 10576 1070 00000000 		.quad	_ZTIN12_GLOBAL__N_115SuiteTestSuite163TestDummyFixtureSimilarlyNamedFixtureTestsInDifferentS
 10576      00000000 
 10577 1078 00000000 		.quad	_ZN12_GLOBAL__N_115SuiteTestSuite163TestDummyFixtureSimilarlyNamedFixtureTestsInDifferentSui
 10577      00000000 
 10578 1080 00000000 		.quad	_ZN12_GLOBAL__N_115SuiteTestSuite163TestDummyFixtureSimilarlyNamedFixtureTestsInDifferentSui
 10578      00000000 
 10579 1088 00000000 		.quad	_ZNK12_GLOBAL__N_115SuiteTestSuite163TestDummyFixtureSimilarlyNamedFixtureTestsInDifferentSu
 10579      00000000 
 10580              		.text
 10581              		.align 2
 10583              	_ZN12_GLOBAL__N_115SuiteTestSuite163TestDummyFixtureSimilarlyNamedFixtureTestsInDifferentSuitesWork
 10584              	.LFB1366:
  67:TestTestMacros.cpp **** 	{
 10585              		.loc 6 67 0
 10586              		.cfi_startproc
 10587 4716 55       		pushq	%rbp
 10588              		.cfi_def_cfa_offset 16
 10589              		.cfi_offset 6, -16
 10590 4717 4889E5   		movq	%rsp, %rbp
 10591              		.cfi_def_cfa_register 6
 10592 471a 4883EC10 		subq	$16, %rsp
 10593 471e 48897DF8 		movq	%rdi, -8(%rbp)
 10594              	.LBB172:
  67:TestTestMacros.cpp **** 	{
 10595              		.loc 6 67 0
 10596 4722 BA000000 		movl	$_ZTVN12_GLOBAL__N_115SuiteTestSuite163TestDummyFixtureSimilarlyNamedFixtureTestsInDifferentS
 10596      00
 10597 4727 488B45F8 		movq	-8(%rbp), %rax
 10598 472b 488910   		movq	%rdx, (%rax)
 10599 472e 488B45F8 		movq	-8(%rbp), %rax
 10600 4732 4889C7   		movq	%rax, %rdi
 10601 4735 E8000000 		call	_ZN8UnitTest4TestD2Ev
 10601      00
 10602              	.LBE172:
 10603 473a B8000000 		movl	$0, %eax
 10603      00
 10604 473f 85C0     		testl	%eax, %eax
 10605 4741 740C     		je	.L563
  67:TestTestMacros.cpp **** 	{
 10606              		.loc 6 67 0 is_stmt 0 discriminator 4
 10607 4743 488B45F8 		movq	-8(%rbp), %rax
 10608 4747 4889C7   		movq	%rax, %rdi
 10609 474a E8000000 		call	_ZdlPv
 10609      00
 10610              	.L563:
  67:TestTestMacros.cpp **** 	{
 10611              		.loc 6 67 0
 10612 474f C9       		leave
 10613              		.cfi_def_cfa 7, 8
 10614 4750 C3       		ret
 10615              		.cfi_endproc
 10616              	.LFE1366:
 10618              		.set	_ZN12_GLOBAL__N_115SuiteTestSuite163TestDummyFixtureSimilarlyNamedFixtureTestsInDifferentSuit
 10619 4751 90       		.align 2
 10621              	_ZN12_GLOBAL__N_115SuiteTestSuite163TestDummyFixtureSimilarlyNamedFixtureTestsInDifferentSuitesWork
 10622              	.LFB1368:
  67:TestTestMacros.cpp **** 	{
 10623              		.loc 6 67 0 is_stmt 1
 10624              		.cfi_startproc
 10625 4752 55       		pushq	%rbp
 10626              		.cfi_def_cfa_offset 16
 10627              		.cfi_offset 6, -16
 10628 4753 4889E5   		movq	%rsp, %rbp
 10629              		.cfi_def_cfa_register 6
 10630 4756 4883EC10 		subq	$16, %rsp
 10631 475a 48897DF8 		movq	%rdi, -8(%rbp)
  67:TestTestMacros.cpp **** 	{
 10632              		.loc 6 67 0
 10633 475e 488B45F8 		movq	-8(%rbp), %rax
 10634 4762 4889C7   		movq	%rax, %rdi
 10635 4765 E8ACFFFF 		call	_ZN12_GLOBAL__N_115SuiteTestSuite163TestDummyFixtureSimilarlyNamedFixtureTestsInDifferentSuit
 10635      FF
 10636 476a 488B45F8 		movq	-8(%rbp), %rax
 10637 476e 4889C7   		movq	%rax, %rdi
 10638 4771 E8000000 		call	_ZdlPv
 10638      00
 10639 4776 C9       		leave
 10640              		.cfi_def_cfa 7, 8
 10641 4777 C3       		ret
 10642              		.cfi_endproc
 10643              	.LFE1368:
 10645              		.section	.rodata
 10646              		.align 8
 10649              	_ZTVN12_GLOBAL__N_115SuiteTestSuite144TestSimilarlyNamedTestsInDifferentSuitesWorkE:
 10650 1090 00000000 		.quad	0
 10650      00000000 
 10651 1098 00000000 		.quad	_ZTIN12_GLOBAL__N_115SuiteTestSuite144TestSimilarlyNamedTestsInDifferentSuitesWorkE
 10651      00000000 
 10652 10a0 00000000 		.quad	_ZN12_GLOBAL__N_115SuiteTestSuite144TestSimilarlyNamedTestsInDifferentSuitesWorkD1Ev
 10652      00000000 
 10653 10a8 00000000 		.quad	_ZN12_GLOBAL__N_115SuiteTestSuite144TestSimilarlyNamedTestsInDifferentSuitesWorkD0Ev
 10653      00000000 
 10654 10b0 00000000 		.quad	_ZNK12_GLOBAL__N_115SuiteTestSuite144TestSimilarlyNamedTestsInDifferentSuitesWork7RunImplEv
 10654      00000000 
 10655              		.text
 10656              		.align 2
 10658              	_ZN12_GLOBAL__N_115SuiteTestSuite144TestSimilarlyNamedTestsInDifferentSuitesWorkD2Ev:
 10659              	.LFB1370:
  63:TestTestMacros.cpp **** 	{
 10660              		.loc 6 63 0
 10661              		.cfi_startproc
 10662 4778 55       		pushq	%rbp
 10663              		.cfi_def_cfa_offset 16
 10664              		.cfi_offset 6, -16
 10665 4779 4889E5   		movq	%rsp, %rbp
 10666              		.cfi_def_cfa_register 6
 10667 477c 4883EC10 		subq	$16, %rsp
 10668 4780 48897DF8 		movq	%rdi, -8(%rbp)
 10669              	.LBB173:
  63:TestTestMacros.cpp **** 	{
 10670              		.loc 6 63 0
 10671 4784 BA000000 		movl	$_ZTVN12_GLOBAL__N_115SuiteTestSuite144TestSimilarlyNamedTestsInDifferentSuitesWorkE+16, %edx
 10671      00
 10672 4789 488B45F8 		movq	-8(%rbp), %rax
 10673 478d 488910   		movq	%rdx, (%rax)
 10674 4790 488B45F8 		movq	-8(%rbp), %rax
 10675 4794 4889C7   		movq	%rax, %rdi
 10676 4797 E8000000 		call	_ZN8UnitTest4TestD2Ev
 10676      00
 10677              	.LBE173:
 10678 479c B8000000 		movl	$0, %eax
 10678      00
 10679 47a1 85C0     		testl	%eax, %eax
 10680 47a3 740C     		je	.L566
  63:TestTestMacros.cpp **** 	{
 10681              		.loc 6 63 0 is_stmt 0 discriminator 4
 10682 47a5 488B45F8 		movq	-8(%rbp), %rax
 10683 47a9 4889C7   		movq	%rax, %rdi
 10684 47ac E8000000 		call	_ZdlPv
 10684      00
 10685              	.L566:
  63:TestTestMacros.cpp **** 	{
 10686              		.loc 6 63 0
 10687 47b1 C9       		leave
 10688              		.cfi_def_cfa 7, 8
 10689 47b2 C3       		ret
 10690              		.cfi_endproc
 10691              	.LFE1370:
 10693              		.set	_ZN12_GLOBAL__N_115SuiteTestSuite144TestSimilarlyNamedTestsInDifferentSuitesWorkD1Ev,_ZN12_GL
 10694 47b3 90       		.align 2
 10696              	_ZN12_GLOBAL__N_115SuiteTestSuite144TestSimilarlyNamedTestsInDifferentSuitesWorkD0Ev:
 10697              	.LFB1372:
  63:TestTestMacros.cpp **** 	{
 10698              		.loc 6 63 0 is_stmt 1
 10699              		.cfi_startproc
 10700 47b4 55       		pushq	%rbp
 10701              		.cfi_def_cfa_offset 16
 10702              		.cfi_offset 6, -16
 10703 47b5 4889E5   		movq	%rsp, %rbp
 10704              		.cfi_def_cfa_register 6
 10705 47b8 4883EC10 		subq	$16, %rsp
 10706 47bc 48897DF8 		movq	%rdi, -8(%rbp)
  63:TestTestMacros.cpp **** 	{
 10707              		.loc 6 63 0
 10708 47c0 488B45F8 		movq	-8(%rbp), %rax
 10709 47c4 4889C7   		movq	%rax, %rdi
 10710 47c7 E8ACFFFF 		call	_ZN12_GLOBAL__N_115SuiteTestSuite144TestSimilarlyNamedTestsInDifferentSuitesWorkD1Ev
 10710      FF
 10711 47cc 488B45F8 		movq	-8(%rbp), %rax
 10712 47d0 4889C7   		movq	%rax, %rdi
 10713 47d3 E8000000 		call	_ZdlPv
 10713      00
 10714 47d8 C9       		leave
 10715              		.cfi_def_cfa 7, 8
 10716 47d9 C3       		ret
 10717              		.cfi_endproc
 10718              	.LFE1372:
 10720              		.section	.rodata
 10721              		.align 8
 10724              	_ZTVN12_GLOBAL__N_157TestExceptionsInFixtureAreReportedAsHappeningInTheFixtureE:
 10725 10b8 00000000 		.quad	0
 10725      00000000 
 10726 10c0 00000000 		.quad	_ZTIN12_GLOBAL__N_157TestExceptionsInFixtureAreReportedAsHappeningInTheFixtureE
 10726      00000000 
 10727 10c8 00000000 		.quad	_ZN12_GLOBAL__N_157TestExceptionsInFixtureAreReportedAsHappeningInTheFixtureD1Ev
 10727      00000000 
 10728 10d0 00000000 		.quad	_ZN12_GLOBAL__N_157TestExceptionsInFixtureAreReportedAsHappeningInTheFixtureD0Ev
 10728      00000000 
 10729 10d8 00000000 		.quad	_ZNK12_GLOBAL__N_157TestExceptionsInFixtureAreReportedAsHappeningInTheFixture7RunImplEv
 10729      00000000 
 10730              		.text
 10731              		.align 2
 10733              	_ZN12_GLOBAL__N_157TestExceptionsInFixtureAreReportedAsHappeningInTheFixtureD2Ev:
 10734              	.LFB1374:
  41:TestTestMacros.cpp **** {
 10735              		.loc 6 41 0
 10736              		.cfi_startproc
 10737 47da 55       		pushq	%rbp
 10738              		.cfi_def_cfa_offset 16
 10739              		.cfi_offset 6, -16
 10740 47db 4889E5   		movq	%rsp, %rbp
 10741              		.cfi_def_cfa_register 6
 10742 47de 4883EC10 		subq	$16, %rsp
 10743 47e2 48897DF8 		movq	%rdi, -8(%rbp)
 10744              	.LBB174:
  41:TestTestMacros.cpp **** {
 10745              		.loc 6 41 0
 10746 47e6 BA000000 		movl	$_ZTVN12_GLOBAL__N_157TestExceptionsInFixtureAreReportedAsHappeningInTheFixtureE+16, %edx
 10746      00
 10747 47eb 488B45F8 		movq	-8(%rbp), %rax
 10748 47ef 488910   		movq	%rdx, (%rax)
 10749 47f2 488B45F8 		movq	-8(%rbp), %rax
 10750 47f6 4889C7   		movq	%rax, %rdi
 10751 47f9 E8000000 		call	_ZN8UnitTest4TestD2Ev
 10751      00
 10752              	.LBE174:
 10753 47fe B8000000 		movl	$0, %eax
 10753      00
 10754 4803 85C0     		testl	%eax, %eax
 10755 4805 740C     		je	.L569
  41:TestTestMacros.cpp **** {
 10756              		.loc 6 41 0 is_stmt 0 discriminator 4
 10757 4807 488B45F8 		movq	-8(%rbp), %rax
 10758 480b 4889C7   		movq	%rax, %rdi
 10759 480e E8000000 		call	_ZdlPv
 10759      00
 10760              	.L569:
  41:TestTestMacros.cpp **** {
 10761              		.loc 6 41 0
 10762 4813 C9       		leave
 10763              		.cfi_def_cfa 7, 8
 10764 4814 C3       		ret
 10765              		.cfi_endproc
 10766              	.LFE1374:
 10768              		.set	_ZN12_GLOBAL__N_157TestExceptionsInFixtureAreReportedAsHappeningInTheFixtureD1Ev,_ZN12_GLOBAL
 10769 4815 90       		.align 2
 10771              	_ZN12_GLOBAL__N_157TestExceptionsInFixtureAreReportedAsHappeningInTheFixtureD0Ev:
 10772              	.LFB1376:
  41:TestTestMacros.cpp **** {
 10773              		.loc 6 41 0 is_stmt 1
 10774              		.cfi_startproc
 10775 4816 55       		pushq	%rbp
 10776              		.cfi_def_cfa_offset 16
 10777              		.cfi_offset 6, -16
 10778 4817 4889E5   		movq	%rsp, %rbp
 10779              		.cfi_def_cfa_register 6
 10780 481a 4883EC10 		subq	$16, %rsp
 10781 481e 48897DF8 		movq	%rdi, -8(%rbp)
  41:TestTestMacros.cpp **** {
 10782              		.loc 6 41 0
 10783 4822 488B45F8 		movq	-8(%rbp), %rax
 10784 4826 4889C7   		movq	%rax, %rdi
 10785 4829 E8ACFFFF 		call	_ZN12_GLOBAL__N_157TestExceptionsInFixtureAreReportedAsHappeningInTheFixtureD1Ev
 10785      FF
 10786 482e 488B45F8 		movq	-8(%rbp), %rax
 10787 4832 4889C7   		movq	%rax, %rdi
 10788 4835 E8000000 		call	_ZdlPv
 10788      00
 10789 483a C9       		leave
 10790              		.cfi_def_cfa 7, 8
 10791 483b C3       		ret
 10792              		.cfi_endproc
 10793              	.LFE1376:
 10795              		.section	.rodata
 10796              		.align 8
 10799              	_ZTVN12_GLOBAL__N_132TestThrowingThingieDummyTestNameE:
 10800 10e0 00000000 		.quad	0
 10800      00000000 
 10801 10e8 00000000 		.quad	_ZTIN12_GLOBAL__N_132TestThrowingThingieDummyTestNameE
 10801      00000000 
 10802 10f0 00000000 		.quad	_ZN12_GLOBAL__N_132TestThrowingThingieDummyTestNameD1Ev
 10802      00000000 
 10803 10f8 00000000 		.quad	_ZN12_GLOBAL__N_132TestThrowingThingieDummyTestNameD0Ev
 10803      00000000 
 10804 1100 00000000 		.quad	_ZNK12_GLOBAL__N_132TestThrowingThingieDummyTestName7RunImplEv
 10804      00000000 
 10805              		.text
 10806              		.align 2
 10808              	_ZN12_GLOBAL__N_132TestThrowingThingieDummyTestNameD2Ev:
 10809              	.LFB1378:
  37:TestTestMacros.cpp **** {
 10810              		.loc 6 37 0
 10811              		.cfi_startproc
 10812 483c 55       		pushq	%rbp
 10813              		.cfi_def_cfa_offset 16
 10814              		.cfi_offset 6, -16
 10815 483d 4889E5   		movq	%rsp, %rbp
 10816              		.cfi_def_cfa_register 6
 10817 4840 4883EC10 		subq	$16, %rsp
 10818 4844 48897DF8 		movq	%rdi, -8(%rbp)
 10819              	.LBB175:
  37:TestTestMacros.cpp **** {
 10820              		.loc 6 37 0
 10821 4848 BA000000 		movl	$_ZTVN12_GLOBAL__N_132TestThrowingThingieDummyTestNameE+16, %edx
 10821      00
 10822 484d 488B45F8 		movq	-8(%rbp), %rax
 10823 4851 488910   		movq	%rdx, (%rax)
 10824 4854 488B45F8 		movq	-8(%rbp), %rax
 10825 4858 4889C7   		movq	%rax, %rdi
 10826 485b E8000000 		call	_ZN8UnitTest4TestD2Ev
 10826      00
 10827              	.LBE175:
 10828 4860 B8000000 		movl	$0, %eax
 10828      00
 10829 4865 85C0     		testl	%eax, %eax
 10830 4867 740C     		je	.L572
  37:TestTestMacros.cpp **** {
 10831              		.loc 6 37 0 is_stmt 0 discriminator 4
 10832 4869 488B45F8 		movq	-8(%rbp), %rax
 10833 486d 4889C7   		movq	%rax, %rdi
 10834 4870 E8000000 		call	_ZdlPv
 10834      00
 10835              	.L572:
  37:TestTestMacros.cpp **** {
 10836              		.loc 6 37 0
 10837 4875 C9       		leave
 10838              		.cfi_def_cfa 7, 8
 10839 4876 C3       		ret
 10840              		.cfi_endproc
 10841              	.LFE1378:
 10843              		.set	_ZN12_GLOBAL__N_132TestThrowingThingieDummyTestNameD1Ev,_ZN12_GLOBAL__N_132TestThrowingThingi
 10844 4877 90       		.align 2
 10846              	_ZN12_GLOBAL__N_132TestThrowingThingieDummyTestNameD0Ev:
 10847              	.LFB1380:
  37:TestTestMacros.cpp **** {
 10848              		.loc 6 37 0 is_stmt 1
 10849              		.cfi_startproc
 10850 4878 55       		pushq	%rbp
 10851              		.cfi_def_cfa_offset 16
 10852              		.cfi_offset 6, -16
 10853 4879 4889E5   		movq	%rsp, %rbp
 10854              		.cfi_def_cfa_register 6
 10855 487c 4883EC10 		subq	$16, %rsp
 10856 4880 48897DF8 		movq	%rdi, -8(%rbp)
  37:TestTestMacros.cpp **** {
 10857              		.loc 6 37 0
 10858 4884 488B45F8 		movq	-8(%rbp), %rax
 10859 4888 4889C7   		movq	%rax, %rdi
 10860 488b E8ACFFFF 		call	_ZN12_GLOBAL__N_132TestThrowingThingieDummyTestNameD1Ev
 10860      FF
 10861 4890 488B45F8 		movq	-8(%rbp), %rax
 10862 4894 4889C7   		movq	%rax, %rdi
 10863 4897 E8000000 		call	_ZdlPv
 10863      00
 10864 489c C9       		leave
 10865              		.cfi_def_cfa 7, 8
 10866 489d C3       		ret
 10867              		.cfi_endproc
 10868              	.LFE1380:
 10870              		.section	.rodata
 10871              		.align 8
 10874              	_ZTVN12_GLOBAL__N_138TestTestsAreAddedToTheListThroughMacroE:
 10875 1108 00000000 		.quad	0
 10875      00000000 
 10876 1110 00000000 		.quad	_ZTIN12_GLOBAL__N_138TestTestsAreAddedToTheListThroughMacroE
 10876      00000000 
 10877 1118 00000000 		.quad	_ZN12_GLOBAL__N_138TestTestsAreAddedToTheListThroughMacroD1Ev
 10877      00000000 
 10878 1120 00000000 		.quad	_ZN12_GLOBAL__N_138TestTestsAreAddedToTheListThroughMacroD0Ev
 10878      00000000 
 10879 1128 00000000 		.quad	_ZNK12_GLOBAL__N_138TestTestsAreAddedToTheListThroughMacro7RunImplEv
 10879      00000000 
 10880              		.text
 10881              		.align 2
 10883              	_ZN12_GLOBAL__N_138TestTestsAreAddedToTheListThroughMacroD2Ev:
 10884              	.LFB1382:
  19:TestTestMacros.cpp **** {
 10885              		.loc 6 19 0
 10886              		.cfi_startproc
 10887 489e 55       		pushq	%rbp
 10888              		.cfi_def_cfa_offset 16
 10889              		.cfi_offset 6, -16
 10890 489f 4889E5   		movq	%rsp, %rbp
 10891              		.cfi_def_cfa_register 6
 10892 48a2 4883EC10 		subq	$16, %rsp
 10893 48a6 48897DF8 		movq	%rdi, -8(%rbp)
 10894              	.LBB176:
  19:TestTestMacros.cpp **** {
 10895              		.loc 6 19 0
 10896 48aa BA000000 		movl	$_ZTVN12_GLOBAL__N_138TestTestsAreAddedToTheListThroughMacroE+16, %edx
 10896      00
 10897 48af 488B45F8 		movq	-8(%rbp), %rax
 10898 48b3 488910   		movq	%rdx, (%rax)
 10899 48b6 488B45F8 		movq	-8(%rbp), %rax
 10900 48ba 4889C7   		movq	%rax, %rdi
 10901 48bd E8000000 		call	_ZN8UnitTest4TestD2Ev
 10901      00
 10902              	.LBE176:
 10903 48c2 B8000000 		movl	$0, %eax
 10903      00
 10904 48c7 85C0     		testl	%eax, %eax
 10905 48c9 740C     		je	.L575
  19:TestTestMacros.cpp **** {
 10906              		.loc 6 19 0 is_stmt 0 discriminator 4
 10907 48cb 488B45F8 		movq	-8(%rbp), %rax
 10908 48cf 4889C7   		movq	%rax, %rdi
 10909 48d2 E8000000 		call	_ZdlPv
 10909      00
 10910              	.L575:
  19:TestTestMacros.cpp **** {
 10911              		.loc 6 19 0
 10912 48d7 C9       		leave
 10913              		.cfi_def_cfa 7, 8
 10914 48d8 C3       		ret
 10915              		.cfi_endproc
 10916              	.LFE1382:
 10918              		.set	_ZN12_GLOBAL__N_138TestTestsAreAddedToTheListThroughMacroD1Ev,_ZN12_GLOBAL__N_138TestTestsAre
 10919 48d9 90       		.align 2
 10921              	_ZN12_GLOBAL__N_138TestTestsAreAddedToTheListThroughMacroD0Ev:
 10922              	.LFB1384:
  19:TestTestMacros.cpp **** {
 10923              		.loc 6 19 0 is_stmt 1
 10924              		.cfi_startproc
 10925 48da 55       		pushq	%rbp
 10926              		.cfi_def_cfa_offset 16
 10927              		.cfi_offset 6, -16
 10928 48db 4889E5   		movq	%rsp, %rbp
 10929              		.cfi_def_cfa_register 6
 10930 48de 4883EC10 		subq	$16, %rsp
 10931 48e2 48897DF8 		movq	%rdi, -8(%rbp)
  19:TestTestMacros.cpp **** {
 10932              		.loc 6 19 0
 10933 48e6 488B45F8 		movq	-8(%rbp), %rax
 10934 48ea 4889C7   		movq	%rax, %rdi
 10935 48ed E8ACFFFF 		call	_ZN12_GLOBAL__N_138TestTestsAreAddedToTheListThroughMacroD1Ev
 10935      FF
 10936 48f2 488B45F8 		movq	-8(%rbp), %rax
 10937 48f6 4889C7   		movq	%rax, %rdi
 10938 48f9 E8000000 		call	_ZdlPv
 10938      00
 10939 48fe C9       		leave
 10940              		.cfi_def_cfa 7, 8
 10941 48ff C3       		ret
 10942              		.cfi_endproc
 10943              	.LFE1384:
 10945              		.section	.rodata
 10946              		.align 8
 10949              	_ZTVN12_GLOBAL__N_113TestDummyTestE:
 10950 1130 00000000 		.quad	0
 10950      00000000 
 10951 1138 00000000 		.quad	_ZTIN12_GLOBAL__N_113TestDummyTestE
 10951      00000000 
 10952 1140 00000000 		.quad	_ZN12_GLOBAL__N_113TestDummyTestD1Ev
 10952      00000000 
 10953 1148 00000000 		.quad	_ZN12_GLOBAL__N_113TestDummyTestD0Ev
 10953      00000000 
 10954 1150 00000000 		.quad	_ZNK12_GLOBAL__N_113TestDummyTest7RunImplEv
 10954      00000000 
 10955              		.text
 10956              		.align 2
 10958              	_ZN12_GLOBAL__N_113TestDummyTestD2Ev:
 10959              	.LFB1386:
  15:TestTestMacros.cpp **** {
 10960              		.loc 6 15 0
 10961              		.cfi_startproc
 10962 4900 55       		pushq	%rbp
 10963              		.cfi_def_cfa_offset 16
 10964              		.cfi_offset 6, -16
 10965 4901 4889E5   		movq	%rsp, %rbp
 10966              		.cfi_def_cfa_register 6
 10967 4904 4883EC10 		subq	$16, %rsp
 10968 4908 48897DF8 		movq	%rdi, -8(%rbp)
 10969              	.LBB177:
  15:TestTestMacros.cpp **** {
 10970              		.loc 6 15 0
 10971 490c BA000000 		movl	$_ZTVN12_GLOBAL__N_113TestDummyTestE+16, %edx
 10971      00
 10972 4911 488B45F8 		movq	-8(%rbp), %rax
 10973 4915 488910   		movq	%rdx, (%rax)
 10974 4918 488B45F8 		movq	-8(%rbp), %rax
 10975 491c 4889C7   		movq	%rax, %rdi
 10976 491f E8000000 		call	_ZN8UnitTest4TestD2Ev
 10976      00
 10977              	.LBE177:
 10978 4924 B8000000 		movl	$0, %eax
 10978      00
 10979 4929 85C0     		testl	%eax, %eax
 10980 492b 740C     		je	.L578
  15:TestTestMacros.cpp **** {
 10981              		.loc 6 15 0 is_stmt 0 discriminator 4
 10982 492d 488B45F8 		movq	-8(%rbp), %rax
 10983 4931 4889C7   		movq	%rax, %rdi
 10984 4934 E8000000 		call	_ZdlPv
 10984      00
 10985              	.L578:
  15:TestTestMacros.cpp **** {
 10986              		.loc 6 15 0
 10987 4939 C9       		leave
 10988              		.cfi_def_cfa 7, 8
 10989 493a C3       		ret
 10990              		.cfi_endproc
 10991              	.LFE1386:
 10993              		.set	_ZN12_GLOBAL__N_113TestDummyTestD1Ev,_ZN12_GLOBAL__N_113TestDummyTestD2Ev
 10994 493b 90       		.align 2
 10996              	_ZN12_GLOBAL__N_113TestDummyTestD0Ev:
 10997              	.LFB1388:
  15:TestTestMacros.cpp **** {
 10998              		.loc 6 15 0 is_stmt 1
 10999              		.cfi_startproc
 11000 493c 55       		pushq	%rbp
 11001              		.cfi_def_cfa_offset 16
 11002              		.cfi_offset 6, -16
 11003 493d 4889E5   		movq	%rsp, %rbp
 11004              		.cfi_def_cfa_register 6
 11005 4940 4883EC10 		subq	$16, %rsp
 11006 4944 48897DF8 		movq	%rdi, -8(%rbp)
  15:TestTestMacros.cpp **** {
 11007              		.loc 6 15 0
 11008 4948 488B45F8 		movq	-8(%rbp), %rax
 11009 494c 4889C7   		movq	%rax, %rdi
 11010 494f E8ACFFFF 		call	_ZN12_GLOBAL__N_113TestDummyTestD1Ev
 11010      FF
 11011 4954 488B45F8 		movq	-8(%rbp), %rax
 11012 4958 4889C7   		movq	%rax, %rdi
 11013 495b E8000000 		call	_ZdlPv
 11013      00
 11014 4960 C9       		leave
 11015              		.cfi_def_cfa 7, 8
 11016 4961 C3       		ret
 11017              		.cfi_endproc
 11018              	.LFE1388:
 11020              		.weak	_ZTV17RecordingReporter
 11021              		.section	.rodata._ZTV17RecordingReporter,"aG",@progbits,_ZTV17RecordingReporter,comdat
 11022              		.align 8
 11025              	_ZTV17RecordingReporter:
 11026 0000 00000000 		.quad	0
 11026      00000000 
 11027 0008 00000000 		.quad	_ZTI17RecordingReporter
 11027      00000000 
 11028 0010 00000000 		.quad	_ZN17RecordingReporterD1Ev
 11028      00000000 
 11029 0018 00000000 		.quad	_ZN17RecordingReporterD0Ev
 11029      00000000 
 11030 0020 00000000 		.quad	_ZN17RecordingReporter15ReportTestStartERKN8UnitTest11TestDetailsE
 11030      00000000 
 11031 0028 00000000 		.quad	_ZN17RecordingReporter13ReportFailureERKN8UnitTest11TestDetailsEPKc
 11031      00000000 
 11032 0030 00000000 		.quad	_ZN17RecordingReporter16ReportTestFinishERKN8UnitTest11TestDetailsEf
 11032      00000000 
 11033 0038 00000000 		.quad	_ZN17RecordingReporter13ReportSummaryEiiif
 11033      00000000 
 11034              		.section	.text._ZN17RecordingReporterD2Ev,"axG",@progbits,_ZN17RecordingReporterD5Ev,comdat
 11035              		.align 2
 11036              		.weak	_ZN17RecordingReporterD2Ev
 11038              	_ZN17RecordingReporterD2Ev:
 11039              	.LFB1390:
   9:RecordingReporter.h **** {
 11040              		.loc 4 9 0
 11041              		.cfi_startproc
 11042 0000 55       		pushq	%rbp
 11043              		.cfi_def_cfa_offset 16
 11044              		.cfi_offset 6, -16
 11045 0001 4889E5   		movq	%rsp, %rbp
 11046              		.cfi_def_cfa_register 6
 11047 0004 4883EC10 		subq	$16, %rsp
 11048 0008 48897DF8 		movq	%rdi, -8(%rbp)
 11049              	.LBB178:
   9:RecordingReporter.h **** {
 11050              		.loc 4 9 0
 11051 000c BA000000 		movl	$_ZTV17RecordingReporter+16, %edx
 11051      00
 11052 0011 488B45F8 		movq	-8(%rbp), %rax
 11053 0015 488910   		movq	%rdx, (%rax)
 11054 0018 488B45F8 		movq	-8(%rbp), %rax
 11055 001c 4889C7   		movq	%rax, %rdi
 11056 001f E8000000 		call	_ZN8UnitTest12TestReporterD2Ev
 11056      00
 11057              	.LBE178:
 11058 0024 B8000000 		movl	$0, %eax
 11058      00
 11059 0029 85C0     		testl	%eax, %eax
 11060 002b 740C     		je	.L581
   9:RecordingReporter.h **** {
 11061              		.loc 4 9 0 is_stmt 0 discriminator 4
 11062 002d 488B45F8 		movq	-8(%rbp), %rax
 11063 0031 4889C7   		movq	%rax, %rdi
 11064 0034 E8000000 		call	_ZdlPv
 11064      00
 11065              	.L581:
   9:RecordingReporter.h **** {
 11066              		.loc 4 9 0
 11067 0039 C9       		leave
 11068              		.cfi_def_cfa 7, 8
 11069 003a C3       		ret
 11070              		.cfi_endproc
 11071              	.LFE1390:
 11073              		.weak	_ZN17RecordingReporterD1Ev
 11074              		.set	_ZN17RecordingReporterD1Ev,_ZN17RecordingReporterD2Ev
 11075              		.section	.text._ZN17RecordingReporterD0Ev,"axG",@progbits,_ZN17RecordingReporterD5Ev,comdat
 11076              		.align 2
 11077              		.weak	_ZN17RecordingReporterD0Ev
 11079              	_ZN17RecordingReporterD0Ev:
 11080              	.LFB1392:
   9:RecordingReporter.h **** {
 11081              		.loc 4 9 0 is_stmt 1
 11082              		.cfi_startproc
 11083 0000 55       		pushq	%rbp
 11084              		.cfi_def_cfa_offset 16
 11085              		.cfi_offset 6, -16
 11086 0001 4889E5   		movq	%rsp, %rbp
 11087              		.cfi_def_cfa_register 6
 11088 0004 4883EC10 		subq	$16, %rsp
 11089 0008 48897DF8 		movq	%rdi, -8(%rbp)
   9:RecordingReporter.h **** {
 11090              		.loc 4 9 0
 11091 000c 488B45F8 		movq	-8(%rbp), %rax
 11092 0010 4889C7   		movq	%rax, %rdi
 11093 0013 E8000000 		call	_ZN17RecordingReporterD1Ev
 11093      00
 11094 0018 488B45F8 		movq	-8(%rbp), %rax
 11095 001c 4889C7   		movq	%rax, %rdi
 11096 001f E8000000 		call	_ZdlPv
 11096      00
 11097 0024 C9       		leave
 11098              		.cfi_def_cfa 7, 8
 11099 0025 C3       		ret
 11100              		.cfi_endproc
 11101              	.LFE1392:
 11103              		.weak	_ZTVN8UnitTest15MemoryOutStreamE
 11104              		.section	.rodata._ZTVN8UnitTest15MemoryOutStreamE,"aG",@progbits,_ZTVN8UnitTest15MemoryOutStreamE,
 11105              		.align 8
 11108              	_ZTVN8UnitTest15MemoryOutStreamE:
 11109 0000 90000000 		.quad	144
 11109      00000000 
 11110 0008 00000000 		.quad	0
 11110      00000000 
 11111 0010 00000000 		.quad	_ZTIN8UnitTest15MemoryOutStreamE
 11111      00000000 
 11112 0018 00000000 		.quad	_ZN8UnitTest15MemoryOutStreamD1Ev
 11112      00000000 
 11113 0020 00000000 		.quad	_ZN8UnitTest15MemoryOutStreamD0Ev
 11113      00000000 
 11114 0028 70FFFFFF 		.quad	-144
 11114      FFFFFFFF 
 11115 0030 70FFFFFF 		.quad	-144
 11115      FFFFFFFF 
 11116 0038 00000000 		.quad	_ZTIN8UnitTest15MemoryOutStreamE
 11116      00000000 
 11117 0040 00000000 		.quad	_ZTv0_n24_N8UnitTest15MemoryOutStreamD1Ev
 11117      00000000 
 11118 0048 00000000 		.quad	_ZTv0_n24_N8UnitTest15MemoryOutStreamD0Ev
 11118      00000000 
 11119              		.weak	_ZTTN8UnitTest15MemoryOutStreamE
 11120              		.section	.rodata._ZTTN8UnitTest15MemoryOutStreamE,"aG",@progbits,_ZTVN8UnitTest15MemoryOutStreamE,
 11121              		.align 8
 11124              	_ZTTN8UnitTest15MemoryOutStreamE:
 11125 0000 00000000 		.quad	_ZTVN8UnitTest15MemoryOutStreamE+24
 11125      00000000 
 11126 0008 00000000 		.quad	_ZTCN8UnitTest15MemoryOutStreamE0_NSt7__cxx1119basic_ostringstreamIcSt11char_traitsIcESaIcEE
 11126      00000000 
 11127 0010 00000000 		.quad	_ZTCN8UnitTest15MemoryOutStreamE0_So+24
 11127      00000000 
 11128 0018 00000000 		.quad	_ZTCN8UnitTest15MemoryOutStreamE0_So+64
 11128      00000000 
 11129 0020 00000000 		.quad	_ZTCN8UnitTest15MemoryOutStreamE0_NSt7__cxx1119basic_ostringstreamIcSt11char_traitsIcESaIcEE
 11129      00000000 
 11130 0028 00000000 		.quad	_ZTVN8UnitTest15MemoryOutStreamE+64
 11130      00000000 
 11131              		.hidden	_ZTCN8UnitTest15MemoryOutStreamE0_NSt7__cxx1119basic_ostringstreamIcSt11char_traitsIcESaIc
 11132              		.weak	_ZTCN8UnitTest15MemoryOutStreamE0_NSt7__cxx1119basic_ostringstreamIcSt11char_traitsIcESaIcEE
 11133              		.section	.rodata._ZTCN8UnitTest15MemoryOutStreamE0_NSt7__cxx1119basic_ostringstreamIcSt11char_trai
 11134              		.align 8
 11137              	_ZTCN8UnitTest15MemoryOutStreamE0_NSt7__cxx1119basic_ostringstreamIcSt11char_traitsIcESaIcEEE:
 11138 0000 90000000 		.quad	144
 11138      00000000 
 11139 0008 00000000 		.quad	0
 11139      00000000 
 11140 0010 00000000 		.quad	_ZTINSt7__cxx1119basic_ostringstreamIcSt11char_traitsIcESaIcEEE
 11140      00000000 
 11141 0018 00000000 		.quad	0
 11141      00000000 
 11142 0020 00000000 		.quad	0
 11142      00000000 
 11143 0028 70FFFFFF 		.quad	-144
 11143      FFFFFFFF 
 11144 0030 70FFFFFF 		.quad	-144
 11144      FFFFFFFF 
 11145 0038 00000000 		.quad	_ZTINSt7__cxx1119basic_ostringstreamIcSt11char_traitsIcESaIcEEE
 11145      00000000 
 11146 0040 00000000 		.quad	0
 11146      00000000 
 11147 0048 00000000 		.quad	0
 11147      00000000 
 11148              		.hidden	_ZTCN8UnitTest15MemoryOutStreamE0_So
 11149              		.weak	_ZTCN8UnitTest15MemoryOutStreamE0_So
 11150              		.section	.rodata._ZTCN8UnitTest15MemoryOutStreamE0_So,"aG",@progbits,_ZTVN8UnitTest15MemoryOutStre
 11151              		.align 8
 11154              	_ZTCN8UnitTest15MemoryOutStreamE0_So:
 11155 0000 90000000 		.quad	144
 11155      00000000 
 11156 0008 00000000 		.quad	0
 11156      00000000 
 11157 0010 00000000 		.quad	_ZTISo
 11157      00000000 
 11158 0018 00000000 		.quad	0
 11158      00000000 
 11159 0020 00000000 		.quad	0
 11159      00000000 
 11160 0028 70FFFFFF 		.quad	-144
 11160      FFFFFFFF 
 11161 0030 70FFFFFF 		.quad	-144
 11161      FFFFFFFF 
 11162 0038 00000000 		.quad	_ZTISo
 11162      00000000 
 11163 0040 00000000 		.quad	0
 11163      00000000 
 11164 0048 00000000 		.quad	0
 11164      00000000 
 11165              		.section	.text._ZN8UnitTest15MemoryOutStreamD1Ev,"axG",@progbits,_ZN8UnitTest15MemoryOutStreamD1Ev
 11166              		.align 2
 11167              		.weak	_ZN8UnitTest15MemoryOutStreamD1Ev
 11169              	_ZN8UnitTest15MemoryOutStreamD1Ev:
 11170              	.LFB1395:
  13:../MemoryOutStream.h **** {
 11171              		.loc 2 13 0
 11172              		.cfi_startproc
 11173              		.cfi_personality 0x3,__gxx_personality_v0
 11174              		.cfi_lsda 0x3,.LLSDA1395
 11175 0000 55       		pushq	%rbp
 11176              		.cfi_def_cfa_offset 16
 11177              		.cfi_offset 6, -16
 11178 0001 4889E5   		movq	%rsp, %rbp
 11179              		.cfi_def_cfa_register 6
 11180 0004 53       		pushq	%rbx
 11181 0005 4883EC18 		subq	$24, %rsp
 11182              		.cfi_offset 3, -24
 11183 0009 48897DE8 		movq	%rdi, -24(%rbp)
 11184              	.LBB179:
  13:../MemoryOutStream.h **** {
 11185              		.loc 2 13 0
 11186 000d BA000000 		movl	$_ZTVN8UnitTest15MemoryOutStreamE+24, %edx
 11186      00
 11187 0012 488B45E8 		movq	-24(%rbp), %rax
 11188 0016 488910   		movq	%rdx, (%rax)
 11189 0019 BA900000 		movl	$144, %edx
 11189      00
 11190 001e 488B45E8 		movq	-24(%rbp), %rax
 11191 0022 4801D0   		addq	%rdx, %rax
 11192 0025 BA000000 		movl	$_ZTVN8UnitTest15MemoryOutStreamE+64, %edx
 11192      00
 11193 002a 488910   		movq	%rdx, (%rax)
 11194 002d 488B45E8 		movq	-24(%rbp), %rax
 11195 0031 4883C070 		addq	$112, %rax
 11196 0035 4889C7   		movq	%rax, %rdi
 11197              	.LEHB254:
 11198 0038 E8000000 		call	_ZNSt7__cxx1112basic_stringIcSt11char_traitsIcESaIcEED1Ev
 11198      00
 11199              	.LEHE254:
  13:../MemoryOutStream.h **** {
 11200              		.loc 2 13 0 is_stmt 0 discriminator 14
 11201 003d BA000000 		movl	$_ZTTN8UnitTest15MemoryOutStreamE+8, %edx
 11201      00
 11202 0042 488B45E8 		movq	-24(%rbp), %rax
 11203 0046 4889D6   		movq	%rdx, %rsi
 11204 0049 4889C7   		movq	%rax, %rdi
 11205              	.LEHB255:
 11206 004c E8000000 		call	_ZNSt7__cxx1119basic_ostringstreamIcSt11char_traitsIcESaIcEED2Ev
 11206      00
 11207              	.LEHE255:
  13:../MemoryOutStream.h **** {
 11208              		.loc 2 13 0 discriminator 20
 11209 0051 B8020000 		movl	$2, %eax
 11209      00
 11210 0056 85C0     		testl	%eax, %eax
 11211 0058 7412     		je	.L585
  13:../MemoryOutStream.h **** {
 11212              		.loc 2 13 0 discriminator 21
 11213 005a 488B45E8 		movq	-24(%rbp), %rax
 11214 005e 48059000 		addq	$144, %rax
 11214      0000
 11215 0064 4889C7   		movq	%rax, %rdi
 11216              	.LEHB256:
 11217 0067 E8000000 		call	_ZNSt9basic_iosIcSt11char_traitsIcEED2Ev
 11217      00
 11218              	.LEHE256:
 11219              	.L585:
 11220              	.LBE179:
  13:../MemoryOutStream.h **** {
 11221              		.loc 2 13 0 discriminator 22
 11222 006c B8000000 		movl	$0, %eax
 11222      00
 11223 0071 85C0     		testl	%eax, %eax
 11224 0073 7450     		je	.L584
  13:../MemoryOutStream.h **** {
 11225              		.loc 2 13 0 discriminator 25
 11226 0075 488B45E8 		movq	-24(%rbp), %rax
 11227 0079 4889C7   		movq	%rax, %rdi
 11228 007c E8000000 		call	_ZdlPv
 11228      00
 11229 0081 EB42     		jmp	.L584
 11230              	.L590:
 11231 0083 4889C3   		movq	%rax, %rbx
 11232              	.LBB180:
  13:../MemoryOutStream.h **** {
 11233              		.loc 2 13 0
 11234 0086 BA000000 		movl	$_ZTTN8UnitTest15MemoryOutStreamE+8, %edx
 11234      00
 11235 008b 488B45E8 		movq	-24(%rbp), %rax
 11236 008f 4889D6   		movq	%rdx, %rsi
 11237 0092 4889C7   		movq	%rax, %rdi
 11238 0095 E8000000 		call	_ZNSt7__cxx1119basic_ostringstreamIcSt11char_traitsIcESaIcEED2Ev
 11238      00
 11239 009a EB03     		jmp	.L588
 11240              	.L591:
 11241 009c 4889C3   		movq	%rax, %rbx
 11242              	.L588:
  13:../MemoryOutStream.h **** {
 11243              		.loc 2 13 0 discriminator 19
 11244 009f B8020000 		movl	$2, %eax
 11244      00
 11245 00a4 85C0     		testl	%eax, %eax
 11246 00a6 7412     		je	.L589
  13:../MemoryOutStream.h **** {
 11247              		.loc 2 13 0 discriminator 32
 11248 00a8 488B45E8 		movq	-24(%rbp), %rax
 11249 00ac 48059000 		addq	$144, %rax
 11249      0000
 11250 00b2 4889C7   		movq	%rax, %rdi
 11251 00b5 E8000000 		call	_ZNSt9basic_iosIcSt11char_traitsIcEED2Ev
 11251      00
 11252              	.L589:
 11253 00ba 4889D8   		movq	%rbx, %rax
 11254 00bd 4889C7   		movq	%rax, %rdi
 11255              	.LEHB257:
 11256 00c0 E8000000 		call	_Unwind_Resume
 11256      00
 11257              	.LEHE257:
 11258              	.L584:
 11259              	.LBE180:
  13:../MemoryOutStream.h **** {
 11260              		.loc 2 13 0
 11261 00c5 4883C418 		addq	$24, %rsp
 11262 00c9 5B       		popq	%rbx
 11263 00ca 5D       		popq	%rbp
 11264              		.cfi_def_cfa 7, 8
 11265 00cb C3       		ret
 11266              		.cfi_endproc
 11267              	.LFE1395:
 11268              		.section	.gcc_except_table
 11269              	.LLSDA1395:
 11270 0720 FF       		.byte	0xff
 11271 0721 FF       		.byte	0xff
 11272 0722 01       		.byte	0x1
 11273 0723 13       		.uleb128 .LLSDACSE1395-.LLSDACSB1395
 11274              	.LLSDACSB1395:
 11275 0724 38       		.uleb128 .LEHB254-.LFB1395
 11276 0725 05       		.uleb128 .LEHE254-.LEHB254
 11277 0726 8301     		.uleb128 .L590-.LFB1395
 11278 0728 00       		.uleb128 0
 11279 0729 4C       		.uleb128 .LEHB255-.LFB1395
 11280 072a 05       		.uleb128 .LEHE255-.LEHB255
 11281 072b 9C01     		.uleb128 .L591-.LFB1395
 11282 072d 00       		.uleb128 0
 11283 072e 67       		.uleb128 .LEHB256-.LFB1395
 11284 072f 05       		.uleb128 .LEHE256-.LEHB256
 11285 0730 00       		.uleb128 0
 11286 0731 00       		.uleb128 0
 11287 0732 C001     		.uleb128 .LEHB257-.LFB1395
 11288 0734 05       		.uleb128 .LEHE257-.LEHB257
 11289 0735 00       		.uleb128 0
 11290 0736 00       		.uleb128 0
 11291              	.LLSDACSE1395:
 11292              		.section	.text._ZN8UnitTest15MemoryOutStreamD1Ev,"axG",@progbits,_ZN8UnitTest15MemoryOutStreamD1Ev
 11294              		.set	.LTHUNK0,_ZN8UnitTest15MemoryOutStreamD1Ev
 11295              		.weak	_ZTv0_n24_N8UnitTest15MemoryOutStreamD1Ev
 11297              	_ZTv0_n24_N8UnitTest15MemoryOutStreamD1Ev:
 11298              	.LFB1399:
  13:../MemoryOutStream.h **** {
 11299              		.loc 2 13 0 is_stmt 1
 11300              		.cfi_startproc
 11301 00cc 4C8B17   		movq	(%rdi), %r10
 11302 00cf 49037AE8 		addq	-24(%r10), %rdi
 11303 00d3 E928FFFF 		jmp	.LTHUNK0
 11303      FF
 11304              		.cfi_endproc
 11305              	.LFE1399:
 11307              		.section	.text._ZN8UnitTest15MemoryOutStreamD0Ev,"axG",@progbits,_ZN8UnitTest15MemoryOutStreamD0Ev
 11308              		.align 2
 11309              		.weak	_ZN8UnitTest15MemoryOutStreamD0Ev
 11311              	_ZN8UnitTest15MemoryOutStreamD0Ev:
 11312              	.LFB1396:
  13:../MemoryOutStream.h **** {
 11313              		.loc 2 13 0
 11314              		.cfi_startproc
 11315 0000 55       		pushq	%rbp
 11316              		.cfi_def_cfa_offset 16
 11317              		.cfi_offset 6, -16
 11318 0001 4889E5   		movq	%rsp, %rbp
 11319              		.cfi_def_cfa_register 6
 11320 0004 4883EC10 		subq	$16, %rsp
 11321 0008 48897DF8 		movq	%rdi, -8(%rbp)
  13:../MemoryOutStream.h **** {
 11322              		.loc 2 13 0
 11323 000c 488B45F8 		movq	-8(%rbp), %rax
 11324 0010 4889C7   		movq	%rax, %rdi
 11325 0013 E8000000 		call	_ZN8UnitTest15MemoryOutStreamD1Ev
 11325      00
 11326 0018 488B45F8 		movq	-8(%rbp), %rax
 11327 001c 4889C7   		movq	%rax, %rdi
 11328 001f E8000000 		call	_ZdlPv
 11328      00
 11329 0024 C9       		leave
 11330              		.cfi_def_cfa 7, 8
 11331 0025 C3       		ret
 11332              		.cfi_endproc
 11333              	.LFE1396:
 11335              		.set	.LTHUNK1,_ZN8UnitTest15MemoryOutStreamD0Ev
 11336              		.weak	_ZTv0_n24_N8UnitTest15MemoryOutStreamD0Ev
 11338              	_ZTv0_n24_N8UnitTest15MemoryOutStreamD0Ev:
 11339              	.LFB1400:
  13:../MemoryOutStream.h **** {
 11340              		.loc 2 13 0
 11341              		.cfi_startproc
 11342 0026 4C8B17   		movq	(%rdi), %r10
 11343 0029 49037AE8 		addq	-24(%r10), %rdi
 11344 002d EBD1     		jmp	.LTHUNK1
 11345              		.cfi_endproc
 11346              	.LFE1400:
 11348              		.weak	_ZTI44TestCurrentTestDetailsContainCurrentTestInfo
 11349              		.section	.rodata._ZTI44TestCurrentTestDetailsContainCurrentTestInfo,"aG",@progbits,_ZTI44TestCurre
 11350              		.align 8
 11353              	_ZTI44TestCurrentTestDetailsContainCurrentTestInfo:
 11354 0000 00000000 		.quad	_ZTVN10__cxxabiv120__si_class_type_infoE+16
 11354      00000000 
 11355 0008 00000000 		.quad	_ZTS44TestCurrentTestDetailsContainCurrentTestInfo
 11355      00000000 
 11356 0010 00000000 		.quad	_ZTIN8UnitTest4TestE
 11356      00000000 
 11357              		.weak	_ZTS44TestCurrentTestDetailsContainCurrentTestInfo
 11358              		.section	.rodata._ZTS44TestCurrentTestDetailsContainCurrentTestInfo,"aG",@progbits,_ZTS44TestCurre
 11359              		.align 32
 11362              	_ZTS44TestCurrentTestDetailsContainCurrentTestInfo:
 11363 0000 34345465 		.string	"44TestCurrentTestDetailsContainCurrentTestInfo"
 11363      73744375 
 11363      7272656E 
 11363      74546573 
 11363      74446574 
 11364              		.weak	_ZTIN18SuiteSameTestSuite14TestDummyTest1E
 11365              		.section	.rodata._ZTIN18SuiteSameTestSuite14TestDummyTest1E,"aG",@progbits,_ZTIN18SuiteSameTestSui
 11366              		.align 8
 11369              	_ZTIN18SuiteSameTestSuite14TestDummyTest1E:
 11370 0000 00000000 		.quad	_ZTVN10__cxxabiv120__si_class_type_infoE+16
 11370      00000000 
 11371 0008 00000000 		.quad	_ZTSN18SuiteSameTestSuite14TestDummyTest1E
 11371      00000000 
 11372 0010 00000000 		.quad	_ZTIN8UnitTest4TestE
 11372      00000000 
 11373              		.weak	_ZTSN18SuiteSameTestSuite14TestDummyTest1E
 11374              		.section	.rodata._ZTSN18SuiteSameTestSuite14TestDummyTest1E,"aG",@progbits,_ZTSN18SuiteSameTestSui
 11375              		.align 32
 11378              	_ZTSN18SuiteSameTestSuite14TestDummyTest1E:
 11379 0000 4E313853 		.string	"N18SuiteSameTestSuite14TestDummyTest1E"
 11379      75697465 
 11379      53616D65 
 11379      54657374 
 11379      53756974 
 11380              		.section	.rodata
 11381 1158 00000000 		.align 32
 11381      00000000 
 11384              	_ZTSN12_GLOBAL__N_147TestCorrectlyReportsFixturesWithCtorsThatAssertE:
 11385 1160 2A4E3132 		.string	"*N12_GLOBAL__N_147TestCorrectlyReportsFixturesWithCtorsThatAssertE"
 11385      5F474C4F 
 11385      42414C5F 
 11385      5F4E5F31 
 11385      34375465 
 11386 11a3 00000000 		.align 8
 11386      00
 11389              	_ZTIN12_GLOBAL__N_147TestCorrectlyReportsFixturesWithCtorsThatAssertE:
 11390 11a8 00000000 		.quad	_ZTVN10__cxxabiv120__si_class_type_infoE+16
 11390      00000000 
 11391 11b0 00000000 		.quad	_ZTSN12_GLOBAL__N_147TestCorrectlyReportsFixturesWithCtorsThatAssertE
 11391      00000000 
 11392 11b8 00000000 		.quad	_ZTIN8UnitTest4TestE
 11392      00000000 
 11393              		.align 32
 11396              	_ZTSN12_GLOBAL__N_157TestFixtureCtorAssertsCorrectlyReportsAssertFailureInCtorE:
 11397 11c0 2A4E3132 		.string	"*N12_GLOBAL__N_157TestFixtureCtorAssertsCorrectlyReportsAssertFailureInCtorE"
 11397      5F474C4F 
 11397      42414C5F 
 11397      5F4E5F31 
 11397      35375465 
 11398 120d 000000   		.align 8
 11401              	_ZTIN12_GLOBAL__N_157TestFixtureCtorAssertsCorrectlyReportsAssertFailureInCtorE:
 11402 1210 00000000 		.quad	_ZTVN10__cxxabiv120__si_class_type_infoE+16
 11402      00000000 
 11403 1218 00000000 		.quad	_ZTSN12_GLOBAL__N_157TestFixtureCtorAssertsCorrectlyReportsAssertFailureInCtorE
 11403      00000000 
 11404 1220 00000000 		.quad	_ZTIN8UnitTest4TestE
 11404      00000000 
 11405 1228 00000000 		.align 32
 11405      00000000 
 11405      00000000 
 11405      00000000 
 11405      00000000 
 11408              	_ZTSN12_GLOBAL__N_140TestFixturesWithThrowingDtorsAreFailuresE:
 11409 1240 2A4E3132 		.string	"*N12_GLOBAL__N_140TestFixturesWithThrowingDtorsAreFailuresE"
 11409      5F474C4F 
 11409      42414C5F 
 11409      5F4E5F31 
 11409      34305465 
 11410 127c 00000000 		.align 8
 11413              	_ZTIN12_GLOBAL__N_140TestFixturesWithThrowingDtorsAreFailuresE:
 11414 1280 00000000 		.quad	_ZTVN10__cxxabiv120__si_class_type_infoE+16
 11414      00000000 
 11415 1288 00000000 		.quad	_ZTSN12_GLOBAL__N_140TestFixturesWithThrowingDtorsAreFailuresE
 11415      00000000 
 11416 1290 00000000 		.quad	_ZTIN8UnitTest4TestE
 11416      00000000 
 11417 1298 00000000 		.align 32
 11417      00000000 
 11420              	_ZTSN12_GLOBAL__N_146TestFixtureDtorThrowsFixtureDtorThrowsTestNameE:
 11421 12a0 2A4E3132 		.string	"*N12_GLOBAL__N_146TestFixtureDtorThrowsFixtureDtorThrowsTestNameE"
 11421      5F474C4F 
 11421      42414C5F 
 11421      5F4E5F31 
 11421      34365465 
 11422 12e2 00000000 		.align 8
 11422      0000
 11425              	_ZTIN12_GLOBAL__N_146TestFixtureDtorThrowsFixtureDtorThrowsTestNameE:
 11426 12e8 00000000 		.quad	_ZTVN10__cxxabiv120__si_class_type_infoE+16
 11426      00000000 
 11427 12f0 00000000 		.quad	_ZTSN12_GLOBAL__N_146TestFixtureDtorThrowsFixtureDtorThrowsTestNameE
 11427      00000000 
 11428 12f8 00000000 		.quad	_ZTIN8UnitTest4TestE
 11428      00000000 
 11429              		.align 32
 11432              	_ZTSN12_GLOBAL__N_140TestFixturesWithThrowingCtorsAreFailuresE:
 11433 1300 2A4E3132 		.string	"*N12_GLOBAL__N_140TestFixturesWithThrowingCtorsAreFailuresE"
 11433      5F474C4F 
 11433      42414C5F 
 11433      5F4E5F31 
 11433      34305465 
 11434 133c 00000000 		.align 8
 11437              	_ZTIN12_GLOBAL__N_140TestFixturesWithThrowingCtorsAreFailuresE:
 11438 1340 00000000 		.quad	_ZTVN10__cxxabiv120__si_class_type_infoE+16
 11438      00000000 
 11439 1348 00000000 		.quad	_ZTSN12_GLOBAL__N_140TestFixturesWithThrowingCtorsAreFailuresE
 11439      00000000 
 11440 1350 00000000 		.quad	_ZTIN8UnitTest4TestE
 11440      00000000 
 11441 1358 00000000 		.align 32
 11441      00000000 
 11444              	_ZTSN12_GLOBAL__N_146TestFixtureCtorThrowsFixtureCtorThrowsTestNameE:
 11445 1360 2A4E3132 		.string	"*N12_GLOBAL__N_146TestFixtureCtorThrowsFixtureCtorThrowsTestNameE"
 11445      5F474C4F 
 11445      42414C5F 
 11445      5F4E5F31 
 11445      34365465 
 11446 13a2 00000000 		.align 8
 11446      0000
 11449              	_ZTIN12_GLOBAL__N_146TestFixtureCtorThrowsFixtureCtorThrowsTestNameE:
 11450 13a8 00000000 		.quad	_ZTVN10__cxxabiv120__si_class_type_infoE+16
 11450      00000000 
 11451 13b0 00000000 		.quad	_ZTSN12_GLOBAL__N_146TestFixtureCtorThrowsFixtureCtorThrowsTestNameE
 11451      00000000 
 11452 13b8 00000000 		.quad	_ZTIN8UnitTest4TestE
 11452      00000000 
 11453              		.align 32
 11456              	_ZTSN12_GLOBAL__N_153TestTestAddedWithTEST_FIXTURE_EXMacroGetsDefaultSuiteE:
 11457 13c0 2A4E3132 		.string	"*N12_GLOBAL__N_153TestTestAddedWithTEST_FIXTURE_EXMacroGetsDefaultSuiteE"
 11457      5F474C4F 
 11457      42414C5F 
 11457      5F4E5F31 
 11457      35335465 
 11458 1409 00000000 		.align 8
 11458      000000
 11461              	_ZTIN12_GLOBAL__N_153TestTestAddedWithTEST_FIXTURE_EXMacroGetsDefaultSuiteE:
 11462 1410 00000000 		.quad	_ZTVN10__cxxabiv120__si_class_type_infoE+16
 11462      00000000 
 11463 1418 00000000 		.quad	_ZTSN12_GLOBAL__N_153TestTestAddedWithTEST_FIXTURE_EXMacroGetsDefaultSuiteE
 11463      00000000 
 11464 1420 00000000 		.quad	_ZTIN8UnitTest4TestE
 11464      00000000 
 11465 1428 00000000 		.align 32
 11465      00000000 
 11465      00000000 
 11465      00000000 
 11465      00000000 
 11468              	_ZTSN12_GLOBAL__N_132TestDummyFixtureMacroTestHelper2E:
 11469 1440 2A4E3132 		.string	"*N12_GLOBAL__N_132TestDummyFixtureMacroTestHelper2E"
 11469      5F474C4F 
 11469      42414C5F 
 11469      5F4E5F31 
 11469      33325465 
 11470 1474 00000000 		.align 8
 11473              	_ZTIN12_GLOBAL__N_132TestDummyFixtureMacroTestHelper2E:
 11474 1478 00000000 		.quad	_ZTVN10__cxxabiv120__si_class_type_infoE+16
 11474      00000000 
 11475 1480 00000000 		.quad	_ZTSN12_GLOBAL__N_132TestDummyFixtureMacroTestHelper2E
 11475      00000000 
 11476 1488 00000000 		.quad	_ZTIN8UnitTest4TestE
 11476      00000000 
 11477 1490 00000000 		.align 32
 11477      00000000 
 11477      00000000 
 11477      00000000 
 11480              	_ZTSN12_GLOBAL__N_145TestTestAddedWithTEST_EXMacroGetsDefaultSuiteE:
 11481 14a0 2A4E3132 		.string	"*N12_GLOBAL__N_145TestTestAddedWithTEST_EXMacroGetsDefaultSuiteE"
 11481      5F474C4F 
 11481      42414C5F 
 11481      5F4E5F31 
 11481      34355465 
 11482 14e1 00000000 		.align 8
 11482      000000
 11485              	_ZTIN12_GLOBAL__N_145TestTestAddedWithTEST_EXMacroGetsDefaultSuiteE:
 11486 14e8 00000000 		.quad	_ZTVN10__cxxabiv120__si_class_type_infoE+16
 11486      00000000 
 11487 14f0 00000000 		.quad	_ZTSN12_GLOBAL__N_145TestTestAddedWithTEST_EXMacroGetsDefaultSuiteE
 11487      00000000 
 11488 14f8 00000000 		.quad	_ZTIN8UnitTest4TestE
 11488      00000000 
 11489              		.align 32
 11492              	_ZTSN12_GLOBAL__N_120TestMacroTestHelper1E:
 11493 1500 2A4E3132 		.string	"*N12_GLOBAL__N_120TestMacroTestHelper1E"
 11493      5F474C4F 
 11493      42414C5F 
 11493      5F4E5F31 
 11493      32305465 
 11494              		.align 8
 11497              	_ZTIN12_GLOBAL__N_120TestMacroTestHelper1E:
 11498 1528 00000000 		.quad	_ZTVN10__cxxabiv120__si_class_type_infoE+16
 11498      00000000 
 11499 1530 00000000 		.quad	_ZTSN12_GLOBAL__N_120TestMacroTestHelper1E
 11499      00000000 
 11500 1538 00000000 		.quad	_ZTIN8UnitTest4TestE
 11500      00000000 
 11501              		.align 32
 11504              	_ZTSN12_GLOBAL__N_115SuiteTestSuite263TestDummyFixtureSimilarlyNamedFixtureTestsInDifferentSuitesWo
 11505 1540 2A4E3132 		.string	"*N12_GLOBAL__N_115SuiteTestSuite263TestDummyFixtureSimilarlyNamedFixtureTestsInDifferentS
 11505      5F474C4F 
 11505      42414C5F 
 11505      5F4E5F31 
 11505      31355375 
 11506 15a4 00000000 		.align 8
 11509              	_ZTIN12_GLOBAL__N_115SuiteTestSuite263TestDummyFixtureSimilarlyNamedFixtureTestsInDifferentSuitesWo
 11510 15a8 00000000 		.quad	_ZTVN10__cxxabiv120__si_class_type_infoE+16
 11510      00000000 
 11511 15b0 00000000 		.quad	_ZTSN12_GLOBAL__N_115SuiteTestSuite263TestDummyFixtureSimilarlyNamedFixtureTestsInDifferentS
 11511      00000000 
 11512 15b8 00000000 		.quad	_ZTIN8UnitTest4TestE
 11512      00000000 
 11513              		.align 32
 11516              	_ZTSN12_GLOBAL__N_115SuiteTestSuite244TestSimilarlyNamedTestsInDifferentSuitesWorkE:
 11517 15c0 2A4E3132 		.string	"*N12_GLOBAL__N_115SuiteTestSuite244TestSimilarlyNamedTestsInDifferentSuitesWorkE"
 11517      5F474C4F 
 11517      42414C5F 
 11517      5F4E5F31 
 11517      31355375 
 11518 1611 00000000 		.align 8
 11518      000000
 11521              	_ZTIN12_GLOBAL__N_115SuiteTestSuite244TestSimilarlyNamedTestsInDifferentSuitesWorkE:
 11522 1618 00000000 		.quad	_ZTVN10__cxxabiv120__si_class_type_infoE+16
 11522      00000000 
 11523 1620 00000000 		.quad	_ZTSN12_GLOBAL__N_115SuiteTestSuite244TestSimilarlyNamedTestsInDifferentSuitesWorkE
 11523      00000000 
 11524 1628 00000000 		.quad	_ZTIN8UnitTest4TestE
 11524      00000000 
 11525 1630 00000000 		.align 32
 11525      00000000 
 11525      00000000 
 11525      00000000 
 11528              	_ZTSN12_GLOBAL__N_115SuiteTestSuite163TestDummyFixtureSimilarlyNamedFixtureTestsInDifferentSuitesWo
 11529 1640 2A4E3132 		.string	"*N12_GLOBAL__N_115SuiteTestSuite163TestDummyFixtureSimilarlyNamedFixtureTestsInDifferentS
 11529      5F474C4F 
 11529      42414C5F 
 11529      5F4E5F31 
 11529      31355375 
 11530 16a4 00000000 		.align 8
 11533              	_ZTIN12_GLOBAL__N_115SuiteTestSuite163TestDummyFixtureSimilarlyNamedFixtureTestsInDifferentSuitesWo
 11534 16a8 00000000 		.quad	_ZTVN10__cxxabiv120__si_class_type_infoE+16
 11534      00000000 
 11535 16b0 00000000 		.quad	_ZTSN12_GLOBAL__N_115SuiteTestSuite163TestDummyFixtureSimilarlyNamedFixtureTestsInDifferentS
 11535      00000000 
 11536 16b8 00000000 		.quad	_ZTIN8UnitTest4TestE
 11536      00000000 
 11537              		.align 32
 11540              	_ZTSN12_GLOBAL__N_115SuiteTestSuite144TestSimilarlyNamedTestsInDifferentSuitesWorkE:
 11541 16c0 2A4E3132 		.string	"*N12_GLOBAL__N_115SuiteTestSuite144TestSimilarlyNamedTestsInDifferentSuitesWorkE"
 11541      5F474C4F 
 11541      42414C5F 
 11541      5F4E5F31 
 11541      31355375 
 11542 1711 00000000 		.align 8
 11542      000000
 11545              	_ZTIN12_GLOBAL__N_115SuiteTestSuite144TestSimilarlyNamedTestsInDifferentSuitesWorkE:
 11546 1718 00000000 		.quad	_ZTVN10__cxxabiv120__si_class_type_infoE+16
 11546      00000000 
 11547 1720 00000000 		.quad	_ZTSN12_GLOBAL__N_115SuiteTestSuite144TestSimilarlyNamedTestsInDifferentSuitesWorkE
 11547      00000000 
 11548 1728 00000000 		.quad	_ZTIN8UnitTest4TestE
 11548      00000000 
 11549 1730 00000000 		.align 32
 11549      00000000 
 11549      00000000 
 11549      00000000 
 11552              	_ZTSN12_GLOBAL__N_157TestExceptionsInFixtureAreReportedAsHappeningInTheFixtureE:
 11553 1740 2A4E3132 		.string	"*N12_GLOBAL__N_157TestExceptionsInFixtureAreReportedAsHappeningInTheFixtureE"
 11553      5F474C4F 
 11553      42414C5F 
 11553      5F4E5F31 
 11553      35375465 
 11554 178d 000000   		.align 8
 11557              	_ZTIN12_GLOBAL__N_157TestExceptionsInFixtureAreReportedAsHappeningInTheFixtureE:
 11558 1790 00000000 		.quad	_ZTVN10__cxxabiv120__si_class_type_infoE+16
 11558      00000000 
 11559 1798 00000000 		.quad	_ZTSN12_GLOBAL__N_157TestExceptionsInFixtureAreReportedAsHappeningInTheFixtureE
 11559      00000000 
 11560 17a0 00000000 		.quad	_ZTIN8UnitTest4TestE
 11560      00000000 
 11561 17a8 00000000 		.align 32
 11561      00000000 
 11561      00000000 
 11561      00000000 
 11561      00000000 
 11564              	_ZTSN12_GLOBAL__N_132TestThrowingThingieDummyTestNameE:
 11565 17c0 2A4E3132 		.string	"*N12_GLOBAL__N_132TestThrowingThingieDummyTestNameE"
 11565      5F474C4F 
 11565      42414C5F 
 11565      5F4E5F31 
 11565      33325465 
 11566 17f4 00000000 		.align 8
 11569              	_ZTIN12_GLOBAL__N_132TestThrowingThingieDummyTestNameE:
 11570 17f8 00000000 		.quad	_ZTVN10__cxxabiv120__si_class_type_infoE+16
 11570      00000000 
 11571 1800 00000000 		.quad	_ZTSN12_GLOBAL__N_132TestThrowingThingieDummyTestNameE
 11571      00000000 
 11572 1808 00000000 		.quad	_ZTIN8UnitTest4TestE
 11572      00000000 
 11573 1810 00000000 		.align 32
 11573      00000000 
 11573      00000000 
 11573      00000000 
 11576              	_ZTSN12_GLOBAL__N_138TestTestsAreAddedToTheListThroughMacroE:
 11577 1820 2A4E3132 		.string	"*N12_GLOBAL__N_138TestTestsAreAddedToTheListThroughMacroE"
 11577      5F474C4F 
 11577      42414C5F 
 11577      5F4E5F31 
 11577      33385465 
 11578 185a 00000000 		.align 8
 11578      0000
 11581              	_ZTIN12_GLOBAL__N_138TestTestsAreAddedToTheListThroughMacroE:
 11582 1860 00000000 		.quad	_ZTVN10__cxxabiv120__si_class_type_infoE+16
 11582      00000000 
 11583 1868 00000000 		.quad	_ZTSN12_GLOBAL__N_138TestTestsAreAddedToTheListThroughMacroE
 11583      00000000 
 11584 1870 00000000 		.quad	_ZTIN8UnitTest4TestE
 11584      00000000 
 11585 1878 00000000 		.align 32
 11585      00000000 
 11588              	_ZTSN12_GLOBAL__N_113TestDummyTestE:
 11589 1880 2A4E3132 		.string	"*N12_GLOBAL__N_113TestDummyTestE"
 11589      5F474C4F 
 11589      42414C5F 
 11589      5F4E5F31 
 11589      31335465 
 11590 18a1 00000000 		.align 8
 11590      000000
 11593              	_ZTIN12_GLOBAL__N_113TestDummyTestE:
 11594 18a8 00000000 		.quad	_ZTVN10__cxxabiv120__si_class_type_infoE+16
 11594      00000000 
 11595 18b0 00000000 		.quad	_ZTSN12_GLOBAL__N_113TestDummyTestE
 11595      00000000 
 11596 18b8 00000000 		.quad	_ZTIN8UnitTest4TestE
 11596      00000000 
 11597              		.weak	_ZTI17RecordingReporter
 11598              		.section	.rodata._ZTI17RecordingReporter,"aG",@progbits,_ZTI17RecordingReporter,comdat
 11599              		.align 8
 11602              	_ZTI17RecordingReporter:
 11603 0000 00000000 		.quad	_ZTVN10__cxxabiv120__si_class_type_infoE+16
 11603      00000000 
 11604 0008 00000000 		.quad	_ZTS17RecordingReporter
 11604      00000000 
 11605 0010 00000000 		.quad	_ZTIN8UnitTest12TestReporterE
 11605      00000000 
 11606              		.weak	_ZTS17RecordingReporter
 11607              		.section	.rodata._ZTS17RecordingReporter,"aG",@progbits,_ZTS17RecordingReporter,comdat
 11608              		.align 16
 11611              	_ZTS17RecordingReporter:
 11612 0000 31375265 		.string	"17RecordingReporter"
 11612      636F7264 
 11612      696E6752 
 11612      65706F72 
 11612      74657200 
 11613              		.weak	_ZTIN8UnitTest15MemoryOutStreamE
 11614              		.section	.rodata._ZTIN8UnitTest15MemoryOutStreamE,"aG",@progbits,_ZTIN8UnitTest15MemoryOutStreamE,
 11615              		.align 8
 11618              	_ZTIN8UnitTest15MemoryOutStreamE:
 11619 0000 00000000 		.quad	_ZTVN10__cxxabiv120__si_class_type_infoE+16
 11619      00000000 
 11620 0008 00000000 		.quad	_ZTSN8UnitTest15MemoryOutStreamE
 11620      00000000 
 11621 0010 00000000 		.quad	_ZTINSt7__cxx1119basic_ostringstreamIcSt11char_traitsIcESaIcEEE
 11621      00000000 
 11622              		.weak	_ZTSN8UnitTest15MemoryOutStreamE
 11623              		.section	.rodata._ZTSN8UnitTest15MemoryOutStreamE,"aG",@progbits,_ZTSN8UnitTest15MemoryOutStreamE,
 11624              		.align 16
 11627              	_ZTSN8UnitTest15MemoryOutStreamE:
 11628 0000 4E38556E 		.string	"N8UnitTest15MemoryOutStreamE"
 11628      69745465 
 11628      73743135 
 11628      4D656D6F 
 11628      72794F75 
 11629              		.text
 11631              	_Z41__static_initialization_and_destruction_0ii:
 11632              	.LFB1397:
 11633              		.loc 6 208 0
 11634              		.cfi_startproc
 11635 4962 55       		pushq	%rbp
 11636              		.cfi_def_cfa_offset 16
 11637              		.cfi_offset 6, -16
 11638 4963 4889E5   		movq	%rsp, %rbp
 11639              		.cfi_def_cfa_register 6
 11640 4966 4883EC10 		subq	$16, %rsp
 11641 496a 897DFC   		movl	%edi, -4(%rbp)
 11642 496d 8975F8   		movl	%esi, -8(%rbp)
 11643              		.loc 6 208 0
 11644 4970 837DFC01 		cmpl	$1, -4(%rbp)
 11645 4974 0F856204 		jne	.L595
 11645      0000
 11646              		.loc 6 208 0 is_stmt 0 discriminator 1
 11647 497a 817DF8FF 		cmpl	$65535, -8(%rbp)
 11647      FF0000
 11648 4981 0F855504 		jne	.L595
 11648      0000
  14:TestTestMacros.cpp **** TEST_EX(DummyTest, list1)
 11649              		.loc 6 14 0 is_stmt 1
 11650 4987 BF000000 		movl	$_ZN12_GLOBAL__N_15list1E, %edi
 11650      00
 11651 498c E8000000 		call	_ZN8UnitTest8TestListC1Ev
 11651      00
  15:TestTestMacros.cpp **** {
 11652              		.loc 6 15 0
 11653 4991 BF000000 		movl	$_ZN12_GLOBAL__N_121testDummyTestInstanceE, %edi
 11653      00
 11654 4996 E865B6FF 		call	_ZN12_GLOBAL__N_113TestDummyTestC1Ev
 11654      FF
 11655 499b BA000000 		movl	$__dso_handle, %edx
 11655      00
 11656 49a0 BE000000 		movl	$_ZN12_GLOBAL__N_121testDummyTestInstanceE, %esi
 11656      00
 11657 49a5 BF000000 		movl	$_ZN12_GLOBAL__N_113TestDummyTestD1Ev, %edi
 11657      00
 11658 49aa E8000000 		call	__cxa_atexit
 11658      00
 11659 49af BA000000 		movl	$_ZN12_GLOBAL__N_121testDummyTestInstanceE, %edx
 11659      00
 11660 49b4 BE000000 		movl	$_ZN12_GLOBAL__N_15list1E, %esi
 11660      00
 11661 49b9 BF000000 		movl	$_ZN12_GLOBAL__N_114adderDummyTestE, %edi
 11661      00
 11662 49be E8000000 		call	_ZN8UnitTest9ListAdderC1ERNS_8TestListEPNS_4TestE
 11662      00
  19:TestTestMacros.cpp **** {
 11663              		.loc 6 19 0
 11664 49c3 BF000000 		movl	$_ZN12_GLOBAL__N_146testTestsAreAddedToTheListThroughMacroInstanceE, %edi
 11664      00
 11665 49c8 E87FB6FF 		call	_ZN12_GLOBAL__N_138TestTestsAreAddedToTheListThroughMacroC1Ev
 11665      FF
 11666 49cd BA000000 		movl	$__dso_handle, %edx
 11666      00
 11667 49d2 BE000000 		movl	$_ZN12_GLOBAL__N_146testTestsAreAddedToTheListThroughMacroInstanceE, %esi
 11667      00
 11668 49d7 BF000000 		movl	$_ZN12_GLOBAL__N_138TestTestsAreAddedToTheListThroughMacroD1Ev, %edi
 11668      00
 11669 49dc E8000000 		call	__cxa_atexit
 11669      00
 11670 49e1 E8000000 		call	_ZN8UnitTest4Test11GetTestListEv
 11670      00
 11671 49e6 BA000000 		movl	$_ZN12_GLOBAL__N_146testTestsAreAddedToTheListThroughMacroInstanceE, %edx
 11671      00
 11672 49eb 4889C6   		movq	%rax, %rsi
 11673 49ee BF000000 		movl	$_ZN12_GLOBAL__N_139adderTestsAreAddedToTheListThroughMacroE, %edi
 11673      00
 11674 49f3 E8000000 		call	_ZN8UnitTest9ListAdderC1ERNS_8TestListEPNS_4TestE
 11674      00
  36:TestTestMacros.cpp **** TEST_FIXTURE_EX(ThrowingThingie, DummyTestName, list2)
 11675              		.loc 6 36 0
 11676 49f8 BF000000 		movl	$_ZN12_GLOBAL__N_15list2E, %edi
 11676      00
 11677 49fd E8000000 		call	_ZN8UnitTest8TestListC1Ev
 11677      00
  37:TestTestMacros.cpp **** {
 11678              		.loc 6 37 0
 11679 4a02 BF000000 		movl	$_ZN12_GLOBAL__N_140testThrowingThingieDummyTestNameInstanceE, %edi
 11679      00
 11680 4a07 E8A2B8FF 		call	_ZN12_GLOBAL__N_132TestThrowingThingieDummyTestNameC1Ev
 11680      FF
 11681 4a0c BA000000 		movl	$__dso_handle, %edx
 11681      00
 11682 4a11 BE000000 		movl	$_ZN12_GLOBAL__N_140testThrowingThingieDummyTestNameInstanceE, %esi
 11682      00
 11683 4a16 BF000000 		movl	$_ZN12_GLOBAL__N_132TestThrowingThingieDummyTestNameD1Ev, %edi
 11683      00
 11684 4a1b E8000000 		call	__cxa_atexit
 11684      00
 11685 4a20 BA000000 		movl	$_ZN12_GLOBAL__N_140testThrowingThingieDummyTestNameInstanceE, %edx
 11685      00
 11686 4a25 BE000000 		movl	$_ZN12_GLOBAL__N_15list2E, %esi
 11686      00
 11687 4a2a BF000000 		movl	$_ZN12_GLOBAL__N_133adderThrowingThingieDummyTestNameE, %edi
 11687      00
 11688 4a2f E8000000 		call	_ZN8UnitTest9ListAdderC1ERNS_8TestListEPNS_4TestE
 11688      00
  41:TestTestMacros.cpp **** {
 11689              		.loc 6 41 0
 11690 4a34 BF000000 		movl	$_ZN12_GLOBAL__N_165testExceptionsInFixtureAreReportedAsHappeningInTheFixtureInstanceE, %edi
 11690      00
 11691 4a39 E896BBFF 		call	_ZN12_GLOBAL__N_157TestExceptionsInFixtureAreReportedAsHappeningInTheFixtureC1Ev
 11691      FF
 11692 4a3e BA000000 		movl	$__dso_handle, %edx
 11692      00
 11693 4a43 BE000000 		movl	$_ZN12_GLOBAL__N_165testExceptionsInFixtureAreReportedAsHappeningInTheFixtureInstanceE, %esi
 11693      00
 11694 4a48 BF000000 		movl	$_ZN12_GLOBAL__N_157TestExceptionsInFixtureAreReportedAsHappeningInTheFixtureD1Ev, %edi
 11694      00
 11695 4a4d E8000000 		call	__cxa_atexit
 11695      00
 11696 4a52 E8000000 		call	_ZN8UnitTest4Test11GetTestListEv
 11696      00
 11697 4a57 BA000000 		movl	$_ZN12_GLOBAL__N_165testExceptionsInFixtureAreReportedAsHappeningInTheFixtureInstanceE, %edx
 11697      00
 11698 4a5c 4889C6   		movq	%rax, %rsi
 11699 4a5f BF000000 		movl	$_ZN12_GLOBAL__N_158adderExceptionsInFixtureAreReportedAsHappeningInTheFixtureE, %edi
 11699      00
 11700 4a64 E8000000 		call	_ZN8UnitTest9ListAdderC1ERNS_8TestListEPNS_4TestE
 11700      00
  63:TestTestMacros.cpp **** 	{
 11701              		.loc 6 63 0
 11702 4a69 BF000000 		movl	$_ZN12_GLOBAL__N_115SuiteTestSuite152testSimilarlyNamedTestsInDifferentSuitesWorkInstanceE, %
 11702      00
 11703 4a6e E8E7BEFF 		call	_ZN12_GLOBAL__N_115SuiteTestSuite144TestSimilarlyNamedTestsInDifferentSuitesWorkC1Ev
 11703      FF
 11704 4a73 BA000000 		movl	$__dso_handle, %edx
 11704      00
 11705 4a78 BE000000 		movl	$_ZN12_GLOBAL__N_115SuiteTestSuite152testSimilarlyNamedTestsInDifferentSuitesWorkInstanceE, %
 11705      00
 11706 4a7d BF000000 		movl	$_ZN12_GLOBAL__N_115SuiteTestSuite144TestSimilarlyNamedTestsInDifferentSuitesWorkD1Ev, %edi
 11706      00
 11707 4a82 E8000000 		call	__cxa_atexit
 11707      00
 11708 4a87 E8000000 		call	_ZN8UnitTest4Test11GetTestListEv
 11708      00
 11709 4a8c BA000000 		movl	$_ZN12_GLOBAL__N_115SuiteTestSuite152testSimilarlyNamedTestsInDifferentSuitesWorkInstanceE, %
 11709      00
 11710 4a91 4889C6   		movq	%rax, %rsi
 11711 4a94 BF000000 		movl	$_ZN12_GLOBAL__N_115SuiteTestSuite145adderSimilarlyNamedTestsInDifferentSuitesWorkE, %edi
 11711      00
 11712 4a99 E8000000 		call	_ZN8UnitTest9ListAdderC1ERNS_8TestListEPNS_4TestE
 11712      00
  67:TestTestMacros.cpp **** 	{
 11713              		.loc 6 67 0
 11714 4a9e BF000000 		movl	$_ZN12_GLOBAL__N_115SuiteTestSuite171testDummyFixtureSimilarlyNamedFixtureTestsInDifferentSui
 11714      00
 11715 4aa3 E836BFFF 		call	_ZN12_GLOBAL__N_115SuiteTestSuite163TestDummyFixtureSimilarlyNamedFixtureTestsInDifferentSuit
 11715      FF
 11716 4aa8 BA000000 		movl	$__dso_handle, %edx
 11716      00
 11717 4aad BE000000 		movl	$_ZN12_GLOBAL__N_115SuiteTestSuite171testDummyFixtureSimilarlyNamedFixtureTestsInDifferentSui
 11717      00
 11718 4ab2 BF000000 		movl	$_ZN12_GLOBAL__N_115SuiteTestSuite163TestDummyFixtureSimilarlyNamedFixtureTestsInDifferentSui
 11718      00
 11719 4ab7 E8000000 		call	__cxa_atexit
 11719      00
 11720 4abc E8000000 		call	_ZN8UnitTest4Test11GetTestListEv
 11720      00
 11721 4ac1 BA000000 		movl	$_ZN12_GLOBAL__N_115SuiteTestSuite171testDummyFixtureSimilarlyNamedFixtureTestsInDifferentSui
 11721      00
 11722 4ac6 4889C6   		movq	%rax, %rsi
 11723 4ac9 BF000000 		movl	$_ZN12_GLOBAL__N_115SuiteTestSuite164adderDummyFixtureSimilarlyNamedFixtureTestsInDifferentSu
 11723      00
 11724 4ace E8000000 		call	_ZN8UnitTest9ListAdderC1ERNS_8TestListEPNS_4TestE
 11724      00
  74:TestTestMacros.cpp **** 	{
 11725              		.loc 6 74 0
 11726 4ad3 BF000000 		movl	$_ZN12_GLOBAL__N_115SuiteTestSuite252testSimilarlyNamedTestsInDifferentSuitesWorkInstanceE, %
 11726      00
 11727 4ad8 E831C2FF 		call	_ZN12_GLOBAL__N_115SuiteTestSuite244TestSimilarlyNamedTestsInDifferentSuitesWorkC1Ev
 11727      FF
 11728 4add BA000000 		movl	$__dso_handle, %edx
 11728      00
 11729 4ae2 BE000000 		movl	$_ZN12_GLOBAL__N_115SuiteTestSuite252testSimilarlyNamedTestsInDifferentSuitesWorkInstanceE, %
 11729      00
 11730 4ae7 BF000000 		movl	$_ZN12_GLOBAL__N_115SuiteTestSuite244TestSimilarlyNamedTestsInDifferentSuitesWorkD1Ev, %edi
 11730      00
 11731 4aec E8000000 		call	__cxa_atexit
 11731      00
 11732 4af1 E8000000 		call	_ZN8UnitTest4Test11GetTestListEv
 11732      00
 11733 4af6 BA000000 		movl	$_ZN12_GLOBAL__N_115SuiteTestSuite252testSimilarlyNamedTestsInDifferentSuitesWorkInstanceE, %
 11733      00
 11734 4afb 4889C6   		movq	%rax, %rsi
 11735 4afe BF000000 		movl	$_ZN12_GLOBAL__N_115SuiteTestSuite245adderSimilarlyNamedTestsInDifferentSuitesWorkE, %edi
 11735      00
 11736 4b03 E8000000 		call	_ZN8UnitTest9ListAdderC1ERNS_8TestListEPNS_4TestE
 11736      00
  78:TestTestMacros.cpp **** 	{
 11737              		.loc 6 78 0
 11738 4b08 BF000000 		movl	$_ZN12_GLOBAL__N_115SuiteTestSuite271testDummyFixtureSimilarlyNamedFixtureTestsInDifferentSui
 11738      00
 11739 4b0d E874C2FF 		call	_ZN12_GLOBAL__N_115SuiteTestSuite263TestDummyFixtureSimilarlyNamedFixtureTestsInDifferentSuit
 11739      FF
 11740 4b12 BA000000 		movl	$__dso_handle, %edx
 11740      00
 11741 4b17 BE000000 		movl	$_ZN12_GLOBAL__N_115SuiteTestSuite271testDummyFixtureSimilarlyNamedFixtureTestsInDifferentSui
 11741      00
 11742 4b1c BF000000 		movl	$_ZN12_GLOBAL__N_115SuiteTestSuite263TestDummyFixtureSimilarlyNamedFixtureTestsInDifferentSui
 11742      00
 11743 4b21 E8000000 		call	__cxa_atexit
 11743      00
 11744 4b26 E8000000 		call	_ZN8UnitTest4Test11GetTestListEv
 11744      00
 11745 4b2b BA000000 		movl	$_ZN12_GLOBAL__N_115SuiteTestSuite271testDummyFixtureSimilarlyNamedFixtureTestsInDifferentSui
 11745      00
 11746 4b30 4889C6   		movq	%rax, %rsi
 11747 4b33 BF000000 		movl	$_ZN12_GLOBAL__N_115SuiteTestSuite264adderDummyFixtureSimilarlyNamedFixtureTestsInDifferentSu
 11747      00
 11748 4b38 E8000000 		call	_ZN8UnitTest9ListAdderC1ERNS_8TestListEPNS_4TestE
 11748      00
  83:TestTestMacros.cpp **** TEST_EX(MacroTestHelper1, macroTestList1)
 11749              		.loc 6 83 0
 11750 4b3d BF000000 		movl	$_ZN12_GLOBAL__N_114macroTestList1E, %edi
 11750      00
 11751 4b42 E8000000 		call	_ZN8UnitTest8TestListC1Ev
 11751      00
  84:TestTestMacros.cpp **** {
 11752              		.loc 6 84 0
 11753 4b47 BF000000 		movl	$_ZN12_GLOBAL__N_128testMacroTestHelper1InstanceE, %edi
 11753      00
 11754 4b4c E85BC5FF 		call	_ZN12_GLOBAL__N_120TestMacroTestHelper1C1Ev
 11754      FF
 11755 4b51 BA000000 		movl	$__dso_handle, %edx
 11755      00
 11756 4b56 BE000000 		movl	$_ZN12_GLOBAL__N_128testMacroTestHelper1InstanceE, %esi
 11756      00
 11757 4b5b BF000000 		movl	$_ZN12_GLOBAL__N_120TestMacroTestHelper1D1Ev, %edi
 11757      00
 11758 4b60 E8000000 		call	__cxa_atexit
 11758      00
 11759 4b65 BA000000 		movl	$_ZN12_GLOBAL__N_128testMacroTestHelper1InstanceE, %edx
 11759      00
 11760 4b6a BE000000 		movl	$_ZN12_GLOBAL__N_114macroTestList1E, %esi
 11760      00
 11761 4b6f BF000000 		movl	$_ZN12_GLOBAL__N_121adderMacroTestHelper1E, %edi
 11761      00
 11762 4b74 E8000000 		call	_ZN8UnitTest9ListAdderC1ERNS_8TestListEPNS_4TestE
 11762      00
  88:TestTestMacros.cpp **** {
 11763              		.loc 6 88 0
 11764 4b79 BF000000 		movl	$_ZN12_GLOBAL__N_153testTestAddedWithTEST_EXMacroGetsDefaultSuiteInstanceE, %edi
 11764      00
 11765 4b7e E875C5FF 		call	_ZN12_GLOBAL__N_145TestTestAddedWithTEST_EXMacroGetsDefaultSuiteC1Ev
 11765      FF
 11766 4b83 BA000000 		movl	$__dso_handle, %edx
 11766      00
 11767 4b88 BE000000 		movl	$_ZN12_GLOBAL__N_153testTestAddedWithTEST_EXMacroGetsDefaultSuiteInstanceE, %esi
 11767      00
 11768 4b8d BF000000 		movl	$_ZN12_GLOBAL__N_145TestTestAddedWithTEST_EXMacroGetsDefaultSuiteD1Ev, %edi
 11768      00
 11769 4b92 E8000000 		call	__cxa_atexit
 11769      00
 11770 4b97 E8000000 		call	_ZN8UnitTest4Test11GetTestListEv
 11770      00
 11771 4b9c BA000000 		movl	$_ZN12_GLOBAL__N_153testTestAddedWithTEST_EXMacroGetsDefaultSuiteInstanceE, %edx
 11771      00
 11772 4ba1 4889C6   		movq	%rax, %rsi
 11773 4ba4 BF000000 		movl	$_ZN12_GLOBAL__N_146adderTestAddedWithTEST_EXMacroGetsDefaultSuiteE, %edi
 11773      00
 11774 4ba9 E8000000 		call	_ZN8UnitTest9ListAdderC1ERNS_8TestListEPNS_4TestE
 11774      00
  95:TestTestMacros.cpp **** TEST_FIXTURE_EX(DummyFixture, MacroTestHelper2, macroTestList2)
 11775              		.loc 6 95 0
 11776 4bae BF000000 		movl	$_ZN12_GLOBAL__N_114macroTestList2E, %edi
 11776      00
 11777 4bb3 E8000000 		call	_ZN8UnitTest8TestListC1Ev
 11777      00
  96:TestTestMacros.cpp **** {
 11778              		.loc 6 96 0
 11779 4bb8 BF000000 		movl	$_ZN12_GLOBAL__N_140testDummyFixtureMacroTestHelper2InstanceE, %edi
 11779      00
 11780 4bbd E8DEC7FF 		call	_ZN12_GLOBAL__N_132TestDummyFixtureMacroTestHelper2C1Ev
 11780      FF
 11781 4bc2 BA000000 		movl	$__dso_handle, %edx
 11781      00
 11782 4bc7 BE000000 		movl	$_ZN12_GLOBAL__N_140testDummyFixtureMacroTestHelper2InstanceE, %esi
 11782      00
 11783 4bcc BF000000 		movl	$_ZN12_GLOBAL__N_132TestDummyFixtureMacroTestHelper2D1Ev, %edi
 11783      00
 11784 4bd1 E8000000 		call	__cxa_atexit
 11784      00
 11785 4bd6 BA000000 		movl	$_ZN12_GLOBAL__N_140testDummyFixtureMacroTestHelper2InstanceE, %edx
 11785      00
 11786 4bdb BE000000 		movl	$_ZN12_GLOBAL__N_114macroTestList2E, %esi
 11786      00
 11787 4be0 BF000000 		movl	$_ZN12_GLOBAL__N_133adderDummyFixtureMacroTestHelper2E, %edi
 11787      00
 11788 4be5 E8000000 		call	_ZN8UnitTest9ListAdderC1ERNS_8TestListEPNS_4TestE
 11788      00
 100:TestTestMacros.cpp **** {
 11789              		.loc 6 100 0
 11790 4bea BF000000 		movl	$_ZN12_GLOBAL__N_161testTestAddedWithTEST_FIXTURE_EXMacroGetsDefaultSuiteInstanceE, %edi
 11790      00
 11791 4bef E8D2CAFF 		call	_ZN12_GLOBAL__N_153TestTestAddedWithTEST_FIXTURE_EXMacroGetsDefaultSuiteC1Ev
 11791      FF
 11792 4bf4 BA000000 		movl	$__dso_handle, %edx
 11792      00
 11793 4bf9 BE000000 		movl	$_ZN12_GLOBAL__N_161testTestAddedWithTEST_FIXTURE_EXMacroGetsDefaultSuiteInstanceE, %esi
 11793      00
 11794 4bfe BF000000 		movl	$_ZN12_GLOBAL__N_153TestTestAddedWithTEST_FIXTURE_EXMacroGetsDefaultSuiteD1Ev, %edi
 11794      00
 11795 4c03 E8000000 		call	__cxa_atexit
 11795      00
 11796 4c08 E8000000 		call	_ZN8UnitTest4Test11GetTestListEv
 11796      00
 11797 4c0d BA000000 		movl	$_ZN12_GLOBAL__N_161testTestAddedWithTEST_FIXTURE_EXMacroGetsDefaultSuiteInstanceE, %edx
 11797      00
 11798 4c12 4889C6   		movq	%rax, %rsi
 11799 4c15 BF000000 		movl	$_ZN12_GLOBAL__N_154adderTestAddedWithTEST_FIXTURE_EXMacroGetsDefaultSuiteE, %edi
 11799      00
 11800 4c1a E8000000 		call	_ZN8UnitTest9ListAdderC1ERNS_8TestListEPNS_4TestE
 11800      00
 112:TestTestMacros.cpp **** TEST_FIXTURE_EX(FixtureCtorThrows, FixtureCtorThrowsTestName, throwingFixtureTestList1)
 11801              		.loc 6 112 0
 11802 4c1f BF000000 		movl	$_ZN12_GLOBAL__N_124throwingFixtureTestList1E, %edi
 11802      00
 11803 4c24 E8000000 		call	_ZN8UnitTest8TestListC1Ev
 11803      00
 113:TestTestMacros.cpp **** {
 11804              		.loc 6 113 0
 11805 4c29 BF000000 		movl	$_ZN12_GLOBAL__N_154testFixtureCtorThrowsFixtureCtorThrowsTestNameInstanceE, %edi
 11805      00
 11806 4c2e E869CDFF 		call	_ZN12_GLOBAL__N_146TestFixtureCtorThrowsFixtureCtorThrowsTestNameC1Ev
 11806      FF
 11807 4c33 BA000000 		movl	$__dso_handle, %edx
 11807      00
 11808 4c38 BE000000 		movl	$_ZN12_GLOBAL__N_154testFixtureCtorThrowsFixtureCtorThrowsTestNameInstanceE, %esi
 11808      00
 11809 4c3d BF000000 		movl	$_ZN12_GLOBAL__N_146TestFixtureCtorThrowsFixtureCtorThrowsTestNameD1Ev, %edi
 11809      00
 11810 4c42 E8000000 		call	__cxa_atexit
 11810      00
 11811 4c47 BA000000 		movl	$_ZN12_GLOBAL__N_154testFixtureCtorThrowsFixtureCtorThrowsTestNameInstanceE, %edx
 11811      00
 11812 4c4c BE000000 		movl	$_ZN12_GLOBAL__N_124throwingFixtureTestList1E, %esi
 11812      00
 11813 4c51 BF000000 		movl	$_ZN12_GLOBAL__N_147adderFixtureCtorThrowsFixtureCtorThrowsTestNameE, %edi
 11813      00
 11814 4c56 E8000000 		call	_ZN8UnitTest9ListAdderC1ERNS_8TestListEPNS_4TestE
 11814      00
 117:TestTestMacros.cpp **** {
 11815              		.loc 6 117 0
 11816 4c5b BF000000 		movl	$_ZN12_GLOBAL__N_148testFixturesWithThrowingCtorsAreFailuresInstanceE, %edi
 11816      00
 11817 4c60 E85DD0FF 		call	_ZN12_GLOBAL__N_140TestFixturesWithThrowingCtorsAreFailuresC1Ev
 11817      FF
 11818 4c65 BA000000 		movl	$__dso_handle, %edx
 11818      00
 11819 4c6a BE000000 		movl	$_ZN12_GLOBAL__N_148testFixturesWithThrowingCtorsAreFailuresInstanceE, %esi
 11819      00
 11820 4c6f BF000000 		movl	$_ZN12_GLOBAL__N_140TestFixturesWithThrowingCtorsAreFailuresD1Ev, %edi
 11820      00
 11821 4c74 E8000000 		call	__cxa_atexit
 11821      00
 11822 4c79 E8000000 		call	_ZN8UnitTest4Test11GetTestListEv
 11822      00
 11823 4c7e BA000000 		movl	$_ZN12_GLOBAL__N_148testFixturesWithThrowingCtorsAreFailuresInstanceE, %edx
 11823      00
 11824 4c83 4889C6   		movq	%rax, %rsi
 11825 4c86 BF000000 		movl	$_ZN12_GLOBAL__N_141adderFixturesWithThrowingCtorsAreFailuresE, %edi
 11825      00
 11826 4c8b E8000000 		call	_ZN8UnitTest9ListAdderC1ERNS_8TestListEPNS_4TestE
 11826      00
 137:TestTestMacros.cpp **** TEST_FIXTURE_EX(FixtureDtorThrows, FixtureDtorThrowsTestName, throwingFixtureTestList2)
 11827              		.loc 6 137 0
 11828 4c90 BF000000 		movl	$_ZN12_GLOBAL__N_124throwingFixtureTestList2E, %edi
 11828      00
 11829 4c95 E8000000 		call	_ZN8UnitTest8TestListC1Ev
 11829      00
 138:TestTestMacros.cpp **** {
 11830              		.loc 6 138 0
 11831 4c9a BF000000 		movl	$_ZN12_GLOBAL__N_154testFixtureDtorThrowsFixtureDtorThrowsTestNameInstanceE, %edi
 11831      00
 11832 4c9f E8FAD3FF 		call	_ZN12_GLOBAL__N_146TestFixtureDtorThrowsFixtureDtorThrowsTestNameC1Ev
 11832      FF
 11833 4ca4 BA000000 		movl	$__dso_handle, %edx
 11833      00
 11834 4ca9 BE000000 		movl	$_ZN12_GLOBAL__N_154testFixtureDtorThrowsFixtureDtorThrowsTestNameInstanceE, %esi
 11834      00
 11835 4cae BF000000 		movl	$_ZN12_GLOBAL__N_146TestFixtureDtorThrowsFixtureDtorThrowsTestNameD1Ev, %edi
 11835      00
 11836 4cb3 E8000000 		call	__cxa_atexit
 11836      00
 11837 4cb8 BA000000 		movl	$_ZN12_GLOBAL__N_154testFixtureDtorThrowsFixtureDtorThrowsTestNameInstanceE, %edx
 11837      00
 11838 4cbd BE000000 		movl	$_ZN12_GLOBAL__N_124throwingFixtureTestList2E, %esi
 11838      00
 11839 4cc2 BF000000 		movl	$_ZN12_GLOBAL__N_147adderFixtureDtorThrowsFixtureDtorThrowsTestNameE, %edi
 11839      00
 11840 4cc7 E8000000 		call	_ZN8UnitTest9ListAdderC1ERNS_8TestListEPNS_4TestE
 11840      00
 142:TestTestMacros.cpp **** {
 11841              		.loc 6 142 0
 11842 4ccc BF000000 		movl	$_ZN12_GLOBAL__N_148testFixturesWithThrowingDtorsAreFailuresInstanceE, %edi
 11842      00
 11843 4cd1 E836D7FF 		call	_ZN12_GLOBAL__N_140TestFixturesWithThrowingDtorsAreFailuresC1Ev
 11843      FF
 11844 4cd6 BA000000 		movl	$__dso_handle, %edx
 11844      00
 11845 4cdb BE000000 		movl	$_ZN12_GLOBAL__N_148testFixturesWithThrowingDtorsAreFailuresInstanceE, %esi
 11845      00
 11846 4ce0 BF000000 		movl	$_ZN12_GLOBAL__N_140TestFixturesWithThrowingDtorsAreFailuresD1Ev, %edi
 11846      00
 11847 4ce5 E8000000 		call	__cxa_atexit
 11847      00
 11848 4cea E8000000 		call	_ZN8UnitTest4Test11GetTestListEv
 11848      00
 11849 4cef BA000000 		movl	$_ZN12_GLOBAL__N_148testFixturesWithThrowingDtorsAreFailuresInstanceE, %edx
 11849      00
 11850 4cf4 4889C6   		movq	%rax, %rsi
 11851 4cf7 BF000000 		movl	$_ZN12_GLOBAL__N_141adderFixturesWithThrowingDtorsAreFailuresE, %edi
 11851      00
 11852 4cfc E8000000 		call	_ZN8UnitTest9ListAdderC1ERNS_8TestListEPNS_4TestE
 11852      00
 168:TestTestMacros.cpp **** TEST_FIXTURE_EX(FixtureCtorAsserts, CorrectlyReportsAssertFailureInCtor, ctorAssertFixtureTestList)
 11853              		.loc 6 168 0
 11854 4d01 BF000000 		movl	$_ZN12_GLOBAL__N_125ctorAssertFixtureTestListE, %edi
 11854      00
 11855 4d06 E8000000 		call	_ZN8UnitTest8TestListC1Ev
 11855      00
 169:TestTestMacros.cpp **** {
 11856              		.loc 6 169 0
 11857 4d0b BF000000 		movl	$_ZN12_GLOBAL__N_165testFixtureCtorAssertsCorrectlyReportsAssertFailureInCtorInstanceE, %edi
 11857      00
 11858 4d10 E8BBDAFF 		call	_ZN12_GLOBAL__N_157TestFixtureCtorAssertsCorrectlyReportsAssertFailureInCtorC1Ev
 11858      FF
 11859 4d15 BA000000 		movl	$__dso_handle, %edx
 11859      00
 11860 4d1a BE000000 		movl	$_ZN12_GLOBAL__N_165testFixtureCtorAssertsCorrectlyReportsAssertFailureInCtorInstanceE, %esi
 11860      00
 11861 4d1f BF000000 		movl	$_ZN12_GLOBAL__N_157TestFixtureCtorAssertsCorrectlyReportsAssertFailureInCtorD1Ev, %edi
 11861      00
 11862 4d24 E8000000 		call	__cxa_atexit
 11862      00
 11863 4d29 BA000000 		movl	$_ZN12_GLOBAL__N_165testFixtureCtorAssertsCorrectlyReportsAssertFailureInCtorInstanceE, %edx
 11863      00
 11864 4d2e BE000000 		movl	$_ZN12_GLOBAL__N_125ctorAssertFixtureTestListE, %esi
 11864      00
 11865 4d33 BF000000 		movl	$_ZN12_GLOBAL__N_158adderFixtureCtorAssertsCorrectlyReportsAssertFailureInCtorE, %edi
 11865      00
 11866 4d38 E8000000 		call	_ZN8UnitTest9ListAdderC1ERNS_8TestListEPNS_4TestE
 11866      00
 173:TestTestMacros.cpp **** {
 11867              		.loc 6 173 0
 11868 4d3d BF000000 		movl	$_ZN12_GLOBAL__N_155testCorrectlyReportsFixturesWithCtorsThatAssertInstanceE, %edi
 11868      00
 11869 4d42 E8AFDDFF 		call	_ZN12_GLOBAL__N_147TestCorrectlyReportsFixturesWithCtorsThatAssertC1Ev
 11869      FF
 11870 4d47 BA000000 		movl	$__dso_handle, %edx
 11870      00
 11871 4d4c BE000000 		movl	$_ZN12_GLOBAL__N_155testCorrectlyReportsFixturesWithCtorsThatAssertInstanceE, %esi
 11871      00
 11872 4d51 BF000000 		movl	$_ZN12_GLOBAL__N_147TestCorrectlyReportsFixturesWithCtorsThatAssertD1Ev, %edi
 11872      00
 11873 4d56 E8000000 		call	__cxa_atexit
 11873      00
 11874 4d5b E8000000 		call	_ZN8UnitTest4Test11GetTestListEv
 11874      00
 11875 4d60 BA000000 		movl	$_ZN12_GLOBAL__N_155testCorrectlyReportsFixturesWithCtorsThatAssertInstanceE, %edx
 11875      00
 11876 4d65 4889C6   		movq	%rax, %rsi
 11877 4d68 BF000000 		movl	$_ZN12_GLOBAL__N_148adderCorrectlyReportsFixturesWithCtorsThatAssertE, %edi
 11877      00
 11878 4d6d E8000000 		call	_ZN8UnitTest9ListAdderC1ERNS_8TestListEPNS_4TestE
 11878      00
 195:TestTestMacros.cpp **** 	{
 11879              		.loc 6 195 0
 11880 4d72 BF000000 		movl	$_ZN18SuiteSameTestSuite22testDummyTest1InstanceE, %edi
 11880      00
 11881 4d77 E8000000 		call	_ZN18SuiteSameTestSuite14TestDummyTest1C1Ev
 11881      00
 11882 4d7c BA000000 		movl	$__dso_handle, %edx
 11882      00
 11883 4d81 BE000000 		movl	$_ZN18SuiteSameTestSuite22testDummyTest1InstanceE, %esi
 11883      00
 11884 4d86 BF000000 		movl	$_ZN18SuiteSameTestSuite14TestDummyTest1D1Ev, %edi
 11884      00
 11885 4d8b E8000000 		call	__cxa_atexit
 11885      00
 11886 4d90 E8000000 		call	_ZN8UnitTest4Test11GetTestListEv
 11886      00
 11887 4d95 BA000000 		movl	$_ZN18SuiteSameTestSuite22testDummyTest1InstanceE, %edx
 11887      00
 11888 4d9a 4889C6   		movq	%rax, %rsi
 11889 4d9d BF000000 		movl	$_ZN18SuiteSameTestSuite15adderDummyTest1E, %edi
 11889      00
 11890 4da2 E8000000 		call	_ZN8UnitTest9ListAdderC1ERNS_8TestListEPNS_4TestE
 11890      00
 204:TestTestMacros.cpp **** {
 11891              		.loc 6 204 0
 11892 4da7 BF000000 		movl	$testCurrentTestDetailsContainCurrentTestInfoInstance, %edi
 11892      00
 11893 4dac E8000000 		call	_ZN44TestCurrentTestDetailsContainCurrentTestInfoC1Ev
 11893      00
 11894 4db1 BA000000 		movl	$__dso_handle, %edx
 11894      00
 11895 4db6 BE000000 		movl	$testCurrentTestDetailsContainCurrentTestInfoInstance, %esi
 11895      00
 11896 4dbb BF000000 		movl	$_ZN44TestCurrentTestDetailsContainCurrentTestInfoD1Ev, %edi
 11896      00
 11897 4dc0 E8000000 		call	__cxa_atexit
 11897      00
 11898 4dc5 E8000000 		call	_ZN8UnitTest4Test11GetTestListEv
 11898      00
 11899 4dca BA000000 		movl	$testCurrentTestDetailsContainCurrentTestInfoInstance, %edx
 11899      00
 11900 4dcf 4889C6   		movq	%rax, %rsi
 11901 4dd2 BF000000 		movl	$adderCurrentTestDetailsContainCurrentTestInfo, %edi
 11901      00
 11902 4dd7 E8000000 		call	_ZN8UnitTest9ListAdderC1ERNS_8TestListEPNS_4TestE
 11902      00
 11903              	.L595:
 11904              		.loc 6 208 0
 11905 4ddc 90       		nop
 11906 4ddd C9       		leave
 11907              		.cfi_def_cfa 7, 8
 11908 4dde C3       		ret
 11909              		.cfi_endproc
 11910              	.LFE1397:
 11913              	_GLOBAL__sub_I__ZN18SuiteSameTestSuite22testDummyTest1InstanceE:
 11914              	.LFB1398:
 11915              		.loc 6 208 0
 11916              		.cfi_startproc
 11917 4ddf 55       		pushq	%rbp
 11918              		.cfi_def_cfa_offset 16
 11919              		.cfi_offset 6, -16
 11920 4de0 4889E5   		movq	%rsp, %rbp
 11921              		.cfi_def_cfa_register 6
 11922              		.loc 6 208 0
 11923 4de3 BEFFFF00 		movl	$65535, %esi
 11923      00
 11924 4de8 BF010000 		movl	$1, %edi
 11924      00
 11925 4ded E870FBFF 		call	_Z41__static_initialization_and_destruction_0ii
 11925      FF
 11926 4df2 5D       		popq	%rbp
 11927              		.cfi_def_cfa 7, 8
 11928 4df3 C3       		ret
 11929              		.cfi_endproc
 11930              	.LFE1398:
 11932              		.section	.init_array,"aw"
 11933              		.align 8
 11934 0000 00000000 		.quad	_GLOBAL__sub_I__ZN18SuiteSameTestSuite22testDummyTest1InstanceE
 11934      00000000 
 11935              		.text
 11936              	.Letext0:
 11937              		.file 9 "../TestDetails.h"
 11938              		.file 10 "../TestList.h"
 11939              		.file 11 "../TestResults.h"
 11940              		.file 12 "../PosixUtils/SignalTranslator.h"
 11941              		.file 13 "/usr/include/x86_64-linux-gnu/c++/5/bits/c++config.h"
 11942              		.file 14 "/usr/include/c++/5/bits/basic_string.h"
 11943              		.file 15 "/usr/include/c++/5/bits/basic_string.tcc"
 11944              		.file 16 "/usr/include/c++/5/bits/stringfwd.h"
 11945              		.file 17 "/usr/include/c++/5/cwchar"
 11946              		.file 18 "/usr/include/c++/5/bits/char_traits.h"
 11947              		.file 19 "/usr/include/c++/5/clocale"
 11948              		.file 20 "/usr/include/c++/5/bits/allocator.h"
 11949              		.file 21 "/usr/include/c++/5/cwctype"
 11950              		.file 22 "/usr/include/c++/5/cstring"
 11951              		.file 23 "/usr/include/c++/5/debug/debug.h"
 11952              		.file 24 "/usr/include/c++/5/bits/predefined_ops.h"
 11953              		.file 25 "/usr/include/c++/5/ext/new_allocator.h"
 11954              		.file 26 "/usr/include/c++/5/ext/numeric_traits.h"
 11955              		.file 27 "/usr/include/c++/5/ext/alloc_traits.h"
 11956              		.file 28 "/usr/include/stdio.h"
 11957              		.file 29 "<built-in>"
 11958              		.file 30 "/usr/lib/gcc/x86_64-linux-gnu/5/include/stddef.h"
 11959              		.file 31 "/usr/include/wchar.h"
 11960              		.file 32 "/usr/include/time.h"
 11961              		.file 33 "/usr/include/locale.h"
 11962              		.file 34 "/usr/include/x86_64-linux-gnu/bits/types.h"
 11963              		.file 35 "/usr/include/x86_64-linux-gnu/bits/setjmp.h"
 11964              		.file 36 "/usr/include/wctype.h"
 11965              		.file 37 "/usr/include/x86_64-linux-gnu/bits/sigset.h"
 11966              		.file 38 "/usr/include/setjmp.h"
 11967              		.file 39 "/usr/include/x86_64-linux-gnu/bits/siginfo.h"
 11968              		.file 40 "/usr/include/signal.h"
 11969              		.file 41 "/usr/include/x86_64-linux-gnu/bits/sigaction.h"
 11970              		.file 42 "/usr/include/x86_64-linux-gnu/sys/time.h"
 11971              		.file 43 "/usr/include/string.h"
DEFINED SYMBOLS
                            *ABS*:0000000000000000 TestTestMacros.cpp
     /tmp/cchBN9kb.s:10     .text._ZN13UnitTestSuite12GetSuiteNameEv:0000000000000000 _ZN13UnitTestSuite12GetSuiteNameEv
     /tmp/cchBN9kb.s:33     .text._ZN8UnitTest15MemoryOutStreamC1Ev:0000000000000000 _ZN8UnitTest15MemoryOutStreamC1Ev
     /tmp/cchBN9kb.s:11124  .rodata._ZTTN8UnitTest15MemoryOutStreamE:0000000000000000 _ZTTN8UnitTest15MemoryOutStreamE
     /tmp/cchBN9kb.s:11108  .rodata._ZTVN8UnitTest15MemoryOutStreamE:0000000000000000 _ZTVN8UnitTest15MemoryOutStreamE
     /tmp/cchBN9kb.s:146    .text._ZN8UnitTest12TestReporterC2Ev:0000000000000000 _ZN8UnitTest12TestReporterC2Ev
     /tmp/cchBN9kb.s:146    .text._ZN8UnitTest12TestReporterC2Ev:0000000000000000 _ZN8UnitTest12TestReporterC1Ev
     /tmp/cchBN9kb.s:176    .text._ZN17RecordingReporterC2Ev:0000000000000000 _ZN17RecordingReporterC2Ev
     /tmp/cchBN9kb.s:11025  .rodata._ZTV17RecordingReporter:0000000000000000 _ZTV17RecordingReporter
     /tmp/cchBN9kb.s:176    .text._ZN17RecordingReporterC2Ev:0000000000000000 _ZN17RecordingReporterC1Ev
     /tmp/cchBN9kb.s:255    .text._ZN17RecordingReporter15ReportTestStartERKN8UnitTest11TestDetailsE:0000000000000000 _ZN17RecordingReporter15ReportTestStartERKN8UnitTest11TestDetailsE
     /tmp/cchBN9kb.s:301    .text._ZN17RecordingReporter13ReportFailureERKN8UnitTest11TestDetailsEPKc:0000000000000000 _ZN17RecordingReporter13ReportFailureERKN8UnitTest11TestDetailsEPKc
     /tmp/cchBN9kb.s:368    .text._ZN17RecordingReporter16ReportTestFinishERKN8UnitTest11TestDetailsEf:0000000000000000 _ZN17RecordingReporter16ReportTestFinishERKN8UnitTest11TestDetailsEf
     /tmp/cchBN9kb.s:419    .text._ZN17RecordingReporter13ReportSummaryEiiif:0000000000000000 _ZN17RecordingReporter13ReportSummaryEiiif
     /tmp/cchBN9kb.s:461    .text._ZN17ScopedCurrentTestC2ERN8UnitTest11TestResultsEPKNS0_11TestDetailsE:0000000000000000 _ZN17ScopedCurrentTestC2ERN8UnitTest11TestResultsEPKNS0_11TestDetailsE
     /tmp/cchBN9kb.s:461    .text._ZN17ScopedCurrentTestC2ERN8UnitTest11TestResultsEPKNS0_11TestDetailsE:0000000000000000 _ZN17ScopedCurrentTestC1ERN8UnitTest11TestResultsEPKNS0_11TestDetailsE
     /tmp/cchBN9kb.s:515    .text._ZN17ScopedCurrentTestD2Ev:0000000000000000 _ZN17ScopedCurrentTestD2Ev
     /tmp/cchBN9kb.s:515    .text._ZN17ScopedCurrentTestD2Ev:0000000000000000 _ZN17ScopedCurrentTestD1Ev
     /tmp/cchBN9kb.s:551    .bss:0000000000000080 _ZN12_GLOBAL__N_15list1E
     /tmp/cchBN9kb.s:560    .text:0000000000000000 _ZN12_GLOBAL__N_113TestDummyTestC2Ev
     /tmp/cchBN9kb.s:10949  .rodata:0000000000001130 _ZTVN12_GLOBAL__N_113TestDummyTestE
     /tmp/cchBN9kb.s:560    .text:0000000000000000 _ZN12_GLOBAL__N_113TestDummyTestC1Ev
     /tmp/cchBN9kb.s:595    .bss:00000000000000a0 _ZN12_GLOBAL__N_121testDummyTestInstanceE
     /tmp/cchBN9kb.s:595    .bss:00000000000000d8 _ZN12_GLOBAL__N_114adderDummyTestE
     /tmp/cchBN9kb.s:600    .text:0000000000000040 _ZNK12_GLOBAL__N_113TestDummyTest7RunImplEv
     /tmp/cchBN9kb.s:625    .text:000000000000004c _ZN12_GLOBAL__N_138TestTestsAreAddedToTheListThroughMacroC2Ev
     /tmp/cchBN9kb.s:10874  .rodata:0000000000001108 _ZTVN12_GLOBAL__N_138TestTestsAreAddedToTheListThroughMacroE
     /tmp/cchBN9kb.s:625    .text:000000000000004c _ZN12_GLOBAL__N_138TestTestsAreAddedToTheListThroughMacroC1Ev
     /tmp/cchBN9kb.s:659    .bss:00000000000000e0 _ZN12_GLOBAL__N_146testTestsAreAddedToTheListThroughMacroInstanceE
     /tmp/cchBN9kb.s:659    .bss:0000000000000118 _ZN12_GLOBAL__N_139adderTestsAreAddedToTheListThroughMacroE
     /tmp/cchBN9kb.s:676    .text:000000000000008c _ZNK12_GLOBAL__N_138TestTestsAreAddedToTheListThroughMacro7RunImplEv
     /tmp/cchBN9kb.s:6903   .text._ZN8UnitTest5CheckIbEEbT_:0000000000000000 _ZN8UnitTest5CheckIbEEbT_
     /tmp/cchBN9kb.s:900    .text:000000000000023a _ZN12_GLOBAL__N_115ThrowingThingieC2Ev
     /tmp/cchBN9kb.s:940    .bss:0000000000000120 _ZN12_GLOBAL__N_15list2E
     /tmp/cchBN9kb.s:943    .text:0000000000000282 _ZN12_GLOBAL__N_134ThrowingThingieDummyTestNameHelperC2ERKN8UnitTest11TestDetailsE
     /tmp/cchBN9kb.s:943    .text:0000000000000282 _ZN12_GLOBAL__N_134ThrowingThingieDummyTestNameHelperC1ERKN8UnitTest11TestDetailsE
     /tmp/cchBN9kb.s:978    .text:00000000000002ae _ZN12_GLOBAL__N_132TestThrowingThingieDummyTestNameC2Ev
     /tmp/cchBN9kb.s:10799  .rodata:00000000000010e0 _ZTVN12_GLOBAL__N_132TestThrowingThingieDummyTestNameE
     /tmp/cchBN9kb.s:978    .text:00000000000002ae _ZN12_GLOBAL__N_132TestThrowingThingieDummyTestNameC1Ev
     /tmp/cchBN9kb.s:1012   .bss:0000000000000140 _ZN12_GLOBAL__N_140testThrowingThingieDummyTestNameInstanceE
     /tmp/cchBN9kb.s:1012   .bss:0000000000000178 _ZN12_GLOBAL__N_133adderThrowingThingieDummyTestNameE
     /tmp/cchBN9kb.s:1027   .text:00000000000002ee _ZNK12_GLOBAL__N_132TestThrowingThingieDummyTestName7RunImplEv
     /tmp/cchBN9kb.s:6931   .text:0000000000002f44 _ZN8UnitTest11ExecuteTestIN12_GLOBAL__N_134ThrowingThingieDummyTestNameHelperEEEvRT_RKNS_11TestDetailsE
     /tmp/cchBN9kb.s:11169  .text._ZN8UnitTest15MemoryOutStreamD1Ev:0000000000000000 _ZN8UnitTest15MemoryOutStreamD1Ev
     /tmp/cchBN9kb.s:1335   .text:00000000000005c8 _ZN12_GLOBAL__N_134ThrowingThingieDummyTestNameHelper7RunImplEv
     /tmp/cchBN9kb.s:1360   .text:00000000000005d4 _ZN12_GLOBAL__N_157TestExceptionsInFixtureAreReportedAsHappeningInTheFixtureC2Ev
     /tmp/cchBN9kb.s:10724  .rodata:00000000000010b8 _ZTVN12_GLOBAL__N_157TestExceptionsInFixtureAreReportedAsHappeningInTheFixtureE
     /tmp/cchBN9kb.s:1360   .text:00000000000005d4 _ZN12_GLOBAL__N_157TestExceptionsInFixtureAreReportedAsHappeningInTheFixtureC1Ev
     /tmp/cchBN9kb.s:1394   .bss:0000000000000180 _ZN12_GLOBAL__N_165testExceptionsInFixtureAreReportedAsHappeningInTheFixtureInstanceE
     /tmp/cchBN9kb.s:1394   .bss:00000000000001b8 _ZN12_GLOBAL__N_158adderExceptionsInFixtureAreReportedAsHappeningInTheFixtureE
     /tmp/cchBN9kb.s:1425   .text:0000000000000614 _ZNK12_GLOBAL__N_157TestExceptionsInFixtureAreReportedAsHappeningInTheFixture7RunImplEv
     /tmp/cchBN9kb.s:7278   .text._ZN8UnitTest5CheckIPcEEbT_:0000000000000000 _ZN8UnitTest5CheckIPcEEbT_
     /tmp/cchBN9kb.s:11038  .text._ZN17RecordingReporterD2Ev:0000000000000000 _ZN17RecordingReporterD1Ev
     /tmp/cchBN9kb.s:1785   .text:000000000000094e _ZN12_GLOBAL__N_115SuiteTestSuite113UnitTestSuite12GetSuiteNameEv
     /tmp/cchBN9kb.s:1809   .text:000000000000095a _ZN12_GLOBAL__N_115SuiteTestSuite144TestSimilarlyNamedTestsInDifferentSuitesWorkC2Ev
     /tmp/cchBN9kb.s:10649  .rodata:0000000000001090 _ZTVN12_GLOBAL__N_115SuiteTestSuite144TestSimilarlyNamedTestsInDifferentSuitesWorkE
     /tmp/cchBN9kb.s:1809   .text:000000000000095a _ZN12_GLOBAL__N_115SuiteTestSuite144TestSimilarlyNamedTestsInDifferentSuitesWorkC1Ev
     /tmp/cchBN9kb.s:1843   .bss:00000000000001c0 _ZN12_GLOBAL__N_115SuiteTestSuite152testSimilarlyNamedTestsInDifferentSuitesWorkInstanceE
     /tmp/cchBN9kb.s:1843   .bss:00000000000001f8 _ZN12_GLOBAL__N_115SuiteTestSuite145adderSimilarlyNamedTestsInDifferentSuitesWorkE
     /tmp/cchBN9kb.s:1848   .text:000000000000099a _ZNK12_GLOBAL__N_115SuiteTestSuite144TestSimilarlyNamedTestsInDifferentSuitesWork7RunImplEv
     /tmp/cchBN9kb.s:1868   .text:00000000000009a6 _ZN12_GLOBAL__N_112DummyFixtureC2Ev
     /tmp/cchBN9kb.s:1888   .text:00000000000009b2 _ZN12_GLOBAL__N_115SuiteTestSuite165DummyFixtureSimilarlyNamedFixtureTestsInDifferentSuitesWorkHelperC2ERKN8UnitTest11TestDetailsE
     /tmp/cchBN9kb.s:1888   .text:00000000000009b2 _ZN12_GLOBAL__N_115SuiteTestSuite165DummyFixtureSimilarlyNamedFixtureTestsInDifferentSuitesWorkHelperC1ERKN8UnitTest11TestDetailsE
     /tmp/cchBN9kb.s:1924   .text:00000000000009de _ZN12_GLOBAL__N_115SuiteTestSuite163TestDummyFixtureSimilarlyNamedFixtureTestsInDifferentSuitesWorkC2Ev
     /tmp/cchBN9kb.s:10574  .rodata:0000000000001068 _ZTVN12_GLOBAL__N_115SuiteTestSuite163TestDummyFixtureSimilarlyNamedFixtureTestsInDifferentSuitesWorkE
     /tmp/cchBN9kb.s:1924   .text:00000000000009de _ZN12_GLOBAL__N_115SuiteTestSuite163TestDummyFixtureSimilarlyNamedFixtureTestsInDifferentSuitesWorkC1Ev
     /tmp/cchBN9kb.s:1958   .bss:0000000000000200 _ZN12_GLOBAL__N_115SuiteTestSuite171testDummyFixtureSimilarlyNamedFixtureTestsInDifferentSuitesWorkInstanceE
     /tmp/cchBN9kb.s:1958   .bss:0000000000000238 _ZN12_GLOBAL__N_115SuiteTestSuite164adderDummyFixtureSimilarlyNamedFixtureTestsInDifferentSuitesWorkE
     /tmp/cchBN9kb.s:1971   .text:0000000000000a1e _ZNK12_GLOBAL__N_115SuiteTestSuite163TestDummyFixtureSimilarlyNamedFixtureTestsInDifferentSuitesWork7RunImplEv
     /tmp/cchBN9kb.s:7300   .text:0000000000003203 _ZN8UnitTest11ExecuteTestIN12_GLOBAL__N_115SuiteTestSuite165DummyFixtureSimilarlyNamedFixtureTestsInDifferentSuitesWorkHelperEEEvRT_RKNS_11TestDetailsE
     /tmp/cchBN9kb.s:2277   .text:0000000000000cf8 _ZN12_GLOBAL__N_115SuiteTestSuite165DummyFixtureSimilarlyNamedFixtureTestsInDifferentSuitesWorkHelper7RunImplEv
     /tmp/cchBN9kb.s:2300   .text:0000000000000d03 _ZN12_GLOBAL__N_115SuiteTestSuite213UnitTestSuite12GetSuiteNameEv
     /tmp/cchBN9kb.s:2319   .text:0000000000000d0e _ZN12_GLOBAL__N_115SuiteTestSuite244TestSimilarlyNamedTestsInDifferentSuitesWorkC2Ev
     /tmp/cchBN9kb.s:10499  .rodata:0000000000001040 _ZTVN12_GLOBAL__N_115SuiteTestSuite244TestSimilarlyNamedTestsInDifferentSuitesWorkE
     /tmp/cchBN9kb.s:2319   .text:0000000000000d0e _ZN12_GLOBAL__N_115SuiteTestSuite244TestSimilarlyNamedTestsInDifferentSuitesWorkC1Ev
     /tmp/cchBN9kb.s:2353   .bss:0000000000000240 _ZN12_GLOBAL__N_115SuiteTestSuite252testSimilarlyNamedTestsInDifferentSuitesWorkInstanceE
     /tmp/cchBN9kb.s:2353   .bss:0000000000000278 _ZN12_GLOBAL__N_115SuiteTestSuite245adderSimilarlyNamedTestsInDifferentSuitesWorkE
     /tmp/cchBN9kb.s:2358   .text:0000000000000d4e _ZNK12_GLOBAL__N_115SuiteTestSuite244TestSimilarlyNamedTestsInDifferentSuitesWork7RunImplEv
     /tmp/cchBN9kb.s:2378   .text:0000000000000d5a _ZN12_GLOBAL__N_115SuiteTestSuite265DummyFixtureSimilarlyNamedFixtureTestsInDifferentSuitesWorkHelperC2ERKN8UnitTest11TestDetailsE
     /tmp/cchBN9kb.s:2378   .text:0000000000000d5a _ZN12_GLOBAL__N_115SuiteTestSuite265DummyFixtureSimilarlyNamedFixtureTestsInDifferentSuitesWorkHelperC1ERKN8UnitTest11TestDetailsE
     /tmp/cchBN9kb.s:2409   .text:0000000000000d86 _ZN12_GLOBAL__N_115SuiteTestSuite263TestDummyFixtureSimilarlyNamedFixtureTestsInDifferentSuitesWorkC2Ev
     /tmp/cchBN9kb.s:10424  .rodata:0000000000001018 _ZTVN12_GLOBAL__N_115SuiteTestSuite263TestDummyFixtureSimilarlyNamedFixtureTestsInDifferentSuitesWorkE
     /tmp/cchBN9kb.s:2409   .text:0000000000000d86 _ZN12_GLOBAL__N_115SuiteTestSuite263TestDummyFixtureSimilarlyNamedFixtureTestsInDifferentSuitesWorkC1Ev
     /tmp/cchBN9kb.s:2443   .bss:0000000000000280 _ZN12_GLOBAL__N_115SuiteTestSuite271testDummyFixtureSimilarlyNamedFixtureTestsInDifferentSuitesWorkInstanceE
     /tmp/cchBN9kb.s:2443   .bss:00000000000002b8 _ZN12_GLOBAL__N_115SuiteTestSuite264adderDummyFixtureSimilarlyNamedFixtureTestsInDifferentSuitesWorkE
     /tmp/cchBN9kb.s:2448   .text:0000000000000dc6 _ZNK12_GLOBAL__N_115SuiteTestSuite263TestDummyFixtureSimilarlyNamedFixtureTestsInDifferentSuitesWork7RunImplEv
     /tmp/cchBN9kb.s:7644   .text:00000000000034c2 _ZN8UnitTest11ExecuteTestIN12_GLOBAL__N_115SuiteTestSuite265DummyFixtureSimilarlyNamedFixtureTestsInDifferentSuitesWorkHelperEEEvRT_RKNS_11TestDetailsE
     /tmp/cchBN9kb.s:2754   .text:00000000000010a0 _ZN12_GLOBAL__N_115SuiteTestSuite265DummyFixtureSimilarlyNamedFixtureTestsInDifferentSuitesWorkHelper7RunImplEv
     /tmp/cchBN9kb.s:2773   .bss:00000000000002c0 _ZN12_GLOBAL__N_114macroTestList1E
     /tmp/cchBN9kb.s:2780   .text:00000000000010ac _ZN12_GLOBAL__N_120TestMacroTestHelper1C2Ev
     /tmp/cchBN9kb.s:10349  .rodata:0000000000000ff0 _ZTVN12_GLOBAL__N_120TestMacroTestHelper1E
     /tmp/cchBN9kb.s:2780   .text:00000000000010ac _ZN12_GLOBAL__N_120TestMacroTestHelper1C1Ev
     /tmp/cchBN9kb.s:2814   .bss:00000000000002e0 _ZN12_GLOBAL__N_128testMacroTestHelper1InstanceE
     /tmp/cchBN9kb.s:2814   .bss:0000000000000318 _ZN12_GLOBAL__N_121adderMacroTestHelper1E
     /tmp/cchBN9kb.s:2819   .text:00000000000010ec _ZNK12_GLOBAL__N_120TestMacroTestHelper17RunImplEv
     /tmp/cchBN9kb.s:2844   .text:00000000000010f8 _ZN12_GLOBAL__N_145TestTestAddedWithTEST_EXMacroGetsDefaultSuiteC2Ev
     /tmp/cchBN9kb.s:10274  .rodata:0000000000000fc8 _ZTVN12_GLOBAL__N_145TestTestAddedWithTEST_EXMacroGetsDefaultSuiteE
     /tmp/cchBN9kb.s:2844   .text:00000000000010f8 _ZN12_GLOBAL__N_145TestTestAddedWithTEST_EXMacroGetsDefaultSuiteC1Ev
     /tmp/cchBN9kb.s:2878   .bss:0000000000000320 _ZN12_GLOBAL__N_153testTestAddedWithTEST_EXMacroGetsDefaultSuiteInstanceE
     /tmp/cchBN9kb.s:2878   .bss:0000000000000358 _ZN12_GLOBAL__N_146adderTestAddedWithTEST_EXMacroGetsDefaultSuiteE
     /tmp/cchBN9kb.s:2897   .text:0000000000001138 _ZNK12_GLOBAL__N_145TestTestAddedWithTEST_EXMacroGetsDefaultSuite7RunImplEv
     /tmp/cchBN9kb.s:3183   .bss:0000000000000360 _ZN12_GLOBAL__N_114macroTestList2E
     /tmp/cchBN9kb.s:3186   .text:0000000000001374 _ZN12_GLOBAL__N_134DummyFixtureMacroTestHelper2HelperC2ERKN8UnitTest11TestDetailsE
     /tmp/cchBN9kb.s:3186   .text:0000000000001374 _ZN12_GLOBAL__N_134DummyFixtureMacroTestHelper2HelperC1ERKN8UnitTest11TestDetailsE
     /tmp/cchBN9kb.s:3221   .text:00000000000013a0 _ZN12_GLOBAL__N_132TestDummyFixtureMacroTestHelper2C2Ev
     /tmp/cchBN9kb.s:10199  .rodata:0000000000000fa0 _ZTVN12_GLOBAL__N_132TestDummyFixtureMacroTestHelper2E
     /tmp/cchBN9kb.s:3221   .text:00000000000013a0 _ZN12_GLOBAL__N_132TestDummyFixtureMacroTestHelper2C1Ev
     /tmp/cchBN9kb.s:3255   .bss:0000000000000380 _ZN12_GLOBAL__N_140testDummyFixtureMacroTestHelper2InstanceE
     /tmp/cchBN9kb.s:3255   .bss:00000000000003b8 _ZN12_GLOBAL__N_133adderDummyFixtureMacroTestHelper2E
     /tmp/cchBN9kb.s:3260   .text:00000000000013e0 _ZNK12_GLOBAL__N_132TestDummyFixtureMacroTestHelper27RunImplEv
     /tmp/cchBN9kb.s:7988   .text:0000000000003781 _ZN8UnitTest11ExecuteTestIN12_GLOBAL__N_134DummyFixtureMacroTestHelper2HelperEEEvRT_RKNS_11TestDetailsE
     /tmp/cchBN9kb.s:3566   .text:00000000000016ba _ZN12_GLOBAL__N_134DummyFixtureMacroTestHelper2Helper7RunImplEv
     /tmp/cchBN9kb.s:3591   .text:00000000000016c6 _ZN12_GLOBAL__N_153TestTestAddedWithTEST_FIXTURE_EXMacroGetsDefaultSuiteC2Ev
     /tmp/cchBN9kb.s:10124  .rodata:0000000000000f78 _ZTVN12_GLOBAL__N_153TestTestAddedWithTEST_FIXTURE_EXMacroGetsDefaultSuiteE
     /tmp/cchBN9kb.s:3591   .text:00000000000016c6 _ZN12_GLOBAL__N_153TestTestAddedWithTEST_FIXTURE_EXMacroGetsDefaultSuiteC1Ev
     /tmp/cchBN9kb.s:3625   .bss:00000000000003c0 _ZN12_GLOBAL__N_161testTestAddedWithTEST_FIXTURE_EXMacroGetsDefaultSuiteInstanceE
     /tmp/cchBN9kb.s:3625   .bss:00000000000003f8 _ZN12_GLOBAL__N_154adderTestAddedWithTEST_FIXTURE_EXMacroGetsDefaultSuiteE
     /tmp/cchBN9kb.s:3644   .text:0000000000001706 _ZNK12_GLOBAL__N_153TestTestAddedWithTEST_FIXTURE_EXMacroGetsDefaultSuite7RunImplEv
     /tmp/cchBN9kb.s:3935   .text:0000000000001942 _ZN12_GLOBAL__N_117FixtureCtorThrowsC2Ev
     /tmp/cchBN9kb.s:3960   .bss:0000000000000400 _ZN12_GLOBAL__N_124throwingFixtureTestList1E
     /tmp/cchBN9kb.s:3963   .text:0000000000001972 _ZN12_GLOBAL__N_148FixtureCtorThrowsFixtureCtorThrowsTestNameHelperC2ERKN8UnitTest11TestDetailsE
     /tmp/cchBN9kb.s:3963   .text:0000000000001972 _ZN12_GLOBAL__N_148FixtureCtorThrowsFixtureCtorThrowsTestNameHelperC1ERKN8UnitTest11TestDetailsE
     /tmp/cchBN9kb.s:3998   .text:000000000000199c _ZN12_GLOBAL__N_146TestFixtureCtorThrowsFixtureCtorThrowsTestNameC2Ev
     /tmp/cchBN9kb.s:10049  .rodata:0000000000000f50 _ZTVN12_GLOBAL__N_146TestFixtureCtorThrowsFixtureCtorThrowsTestNameE
     /tmp/cchBN9kb.s:3998   .text:000000000000199c _ZN12_GLOBAL__N_146TestFixtureCtorThrowsFixtureCtorThrowsTestNameC1Ev
     /tmp/cchBN9kb.s:4032   .bss:0000000000000420 _ZN12_GLOBAL__N_154testFixtureCtorThrowsFixtureCtorThrowsTestNameInstanceE
     /tmp/cchBN9kb.s:4032   .bss:0000000000000458 _ZN12_GLOBAL__N_147adderFixtureCtorThrowsFixtureCtorThrowsTestNameE
     /tmp/cchBN9kb.s:4045   .text:00000000000019dc _ZNK12_GLOBAL__N_146TestFixtureCtorThrowsFixtureCtorThrowsTestName7RunImplEv
     /tmp/cchBN9kb.s:8332   .text:0000000000003a40 _ZN8UnitTest11ExecuteTestIN12_GLOBAL__N_148FixtureCtorThrowsFixtureCtorThrowsTestNameHelperEEEvRT_RKNS_11TestDetailsE
     /tmp/cchBN9kb.s:4353   .text:0000000000001cb6 _ZN12_GLOBAL__N_148FixtureCtorThrowsFixtureCtorThrowsTestNameHelper7RunImplEv
     /tmp/cchBN9kb.s:4378   .text:0000000000001cc2 _ZN12_GLOBAL__N_140TestFixturesWithThrowingCtorsAreFailuresC2Ev
     /tmp/cchBN9kb.s:9974   .rodata:0000000000000f28 _ZTVN12_GLOBAL__N_140TestFixturesWithThrowingCtorsAreFailuresE
     /tmp/cchBN9kb.s:4378   .text:0000000000001cc2 _ZN12_GLOBAL__N_140TestFixturesWithThrowingCtorsAreFailuresC1Ev
     /tmp/cchBN9kb.s:4412   .bss:0000000000000460 _ZN12_GLOBAL__N_148testFixturesWithThrowingCtorsAreFailuresInstanceE
     /tmp/cchBN9kb.s:4412   .bss:0000000000000498 _ZN12_GLOBAL__N_141adderFixturesWithThrowingCtorsAreFailuresE
     /tmp/cchBN9kb.s:4436   .text:0000000000001d02 _ZNK12_GLOBAL__N_140TestFixturesWithThrowingCtorsAreFailures7RunImplEv
     /tmp/cchBN9kb.s:8683   .text._ZN8UnitTest10CheckEqualIiiEEvRNS_11TestResultsERKT_RKT0_RKNS_11TestDetailsE:0000000000000000 _ZN8UnitTest10CheckEqualIiiEEvRNS_11TestResultsERKT_RKT0_RKNS_11TestDetailsE
     /tmp/cchBN9kb.s:4806   .text:0000000000002038 _ZN12_GLOBAL__N_117FixtureDtorThrowsD2Ev
     /tmp/cchBN9kb.s:4831   .bss:00000000000004a0 _ZN12_GLOBAL__N_124throwingFixtureTestList2E
     /tmp/cchBN9kb.s:4834   .text:0000000000002068 _ZN12_GLOBAL__N_117FixtureDtorThrowsC2Ev
     /tmp/cchBN9kb.s:4854   .text:0000000000002074 _ZN12_GLOBAL__N_148FixtureDtorThrowsFixtureDtorThrowsTestNameHelperC2ERKN8UnitTest11TestDetailsE
     /tmp/cchBN9kb.s:4854   .text:0000000000002074 _ZN12_GLOBAL__N_148FixtureDtorThrowsFixtureDtorThrowsTestNameHelperC1ERKN8UnitTest11TestDetailsE
     /tmp/cchBN9kb.s:4889   .text:000000000000209e _ZN12_GLOBAL__N_146TestFixtureDtorThrowsFixtureDtorThrowsTestNameC2Ev
     /tmp/cchBN9kb.s:9899   .rodata:0000000000000f00 _ZTVN12_GLOBAL__N_146TestFixtureDtorThrowsFixtureDtorThrowsTestNameE
     /tmp/cchBN9kb.s:4889   .text:000000000000209e _ZN12_GLOBAL__N_146TestFixtureDtorThrowsFixtureDtorThrowsTestNameC1Ev
     /tmp/cchBN9kb.s:4923   .bss:00000000000004c0 _ZN12_GLOBAL__N_154testFixtureDtorThrowsFixtureDtorThrowsTestNameInstanceE
     /tmp/cchBN9kb.s:4923   .bss:00000000000004f8 _ZN12_GLOBAL__N_147adderFixtureDtorThrowsFixtureDtorThrowsTestNameE
     /tmp/cchBN9kb.s:4928   .text:00000000000020de _ZN12_GLOBAL__N_148FixtureDtorThrowsFixtureDtorThrowsTestNameHelperD2Ev
     /tmp/cchBN9kb.s:4928   .text:00000000000020de _ZN12_GLOBAL__N_148FixtureDtorThrowsFixtureDtorThrowsTestNameHelperD1Ev
     /tmp/cchBN9kb.s:4963   .text:00000000000020fa _ZNK12_GLOBAL__N_146TestFixtureDtorThrowsFixtureDtorThrowsTestName7RunImplEv
     /tmp/cchBN9kb.s:8823   .text:0000000000003cff _ZN8UnitTest11ExecuteTestIN12_GLOBAL__N_148FixtureDtorThrowsFixtureDtorThrowsTestNameHelperEEEvRT_RKNS_11TestDetailsE
     /tmp/cchBN9kb.s:5294   .text:0000000000002400 _ZN12_GLOBAL__N_148FixtureDtorThrowsFixtureDtorThrowsTestNameHelper7RunImplEv
     /tmp/cchBN9kb.s:5319   .text:000000000000240c _ZN12_GLOBAL__N_140TestFixturesWithThrowingDtorsAreFailuresC2Ev
     /tmp/cchBN9kb.s:9824   .rodata:0000000000000ed8 _ZTVN12_GLOBAL__N_140TestFixturesWithThrowingDtorsAreFailuresE
     /tmp/cchBN9kb.s:5319   .text:000000000000240c _ZN12_GLOBAL__N_140TestFixturesWithThrowingDtorsAreFailuresC1Ev
     /tmp/cchBN9kb.s:5353   .bss:0000000000000500 _ZN12_GLOBAL__N_148testFixturesWithThrowingDtorsAreFailuresInstanceE
     /tmp/cchBN9kb.s:5353   .bss:0000000000000538 _ZN12_GLOBAL__N_141adderFixturesWithThrowingDtorsAreFailuresE
     /tmp/cchBN9kb.s:5374   .text:000000000000244c _ZNK12_GLOBAL__N_140TestFixturesWithThrowingDtorsAreFailures7RunImplEv
     /tmp/cchBN9kb.s:5746   .rodata:0000000000000bc8 _ZN12_GLOBAL__N_1L11FailingLineE
     /tmp/cchBN9kb.s:5755   .text:0000000000002782 _ZN12_GLOBAL__N_118FixtureCtorAssertsC2Ev
     /tmp/cchBN9kb.s:5782   .bss:0000000000000540 _ZN12_GLOBAL__N_125ctorAssertFixtureTestListE
     /tmp/cchBN9kb.s:5785   .text:00000000000027a6 _ZN12_GLOBAL__N_159FixtureCtorAssertsCorrectlyReportsAssertFailureInCtorHelperC2ERKN8UnitTest11TestDetailsE
     /tmp/cchBN9kb.s:5785   .text:00000000000027a6 _ZN12_GLOBAL__N_159FixtureCtorAssertsCorrectlyReportsAssertFailureInCtorHelperC1ERKN8UnitTest11TestDetailsE
     /tmp/cchBN9kb.s:5821   .text:00000000000027d0 _ZN12_GLOBAL__N_157TestFixtureCtorAssertsCorrectlyReportsAssertFailureInCtorC2Ev
     /tmp/cchBN9kb.s:9749   .rodata:0000000000000eb0 _ZTVN12_GLOBAL__N_157TestFixtureCtorAssertsCorrectlyReportsAssertFailureInCtorE
     /tmp/cchBN9kb.s:5821   .text:00000000000027d0 _ZN12_GLOBAL__N_157TestFixtureCtorAssertsCorrectlyReportsAssertFailureInCtorC1Ev
     /tmp/cchBN9kb.s:5855   .bss:0000000000000560 _ZN12_GLOBAL__N_165testFixtureCtorAssertsCorrectlyReportsAssertFailureInCtorInstanceE
     /tmp/cchBN9kb.s:5855   .bss:0000000000000598 _ZN12_GLOBAL__N_158adderFixtureCtorAssertsCorrectlyReportsAssertFailureInCtorE
     /tmp/cchBN9kb.s:5868   .text:0000000000002810 _ZNK12_GLOBAL__N_157TestFixtureCtorAssertsCorrectlyReportsAssertFailureInCtor7RunImplEv
     /tmp/cchBN9kb.s:9167   .text:0000000000003fbe _ZN8UnitTest11ExecuteTestIN12_GLOBAL__N_159FixtureCtorAssertsCorrectlyReportsAssertFailureInCtorHelperEEEvRT_RKNS_11TestDetailsE
     /tmp/cchBN9kb.s:6176   .text:0000000000002aea _ZN12_GLOBAL__N_159FixtureCtorAssertsCorrectlyReportsAssertFailureInCtorHelper7RunImplEv
     /tmp/cchBN9kb.s:6201   .text:0000000000002af6 _ZN12_GLOBAL__N_147TestCorrectlyReportsFixturesWithCtorsThatAssertC2Ev
     /tmp/cchBN9kb.s:9674   .rodata:0000000000000e88 _ZTVN12_GLOBAL__N_147TestCorrectlyReportsFixturesWithCtorsThatAssertE
     /tmp/cchBN9kb.s:6201   .text:0000000000002af6 _ZN12_GLOBAL__N_147TestCorrectlyReportsFixturesWithCtorsThatAssertC1Ev
     /tmp/cchBN9kb.s:6235   .bss:00000000000005a0 _ZN12_GLOBAL__N_155testCorrectlyReportsFixturesWithCtorsThatAssertInstanceE
     /tmp/cchBN9kb.s:6235   .bss:00000000000005d8 _ZN12_GLOBAL__N_148adderCorrectlyReportsFixturesWithCtorsThatAssertE
     /tmp/cchBN9kb.s:6251   .text:0000000000002b36 _ZNK12_GLOBAL__N_147TestCorrectlyReportsFixturesWithCtorsThatAssert7RunImplEv
     /tmp/cchBN9kb.s:6609   .text._ZN18SuiteSameTestSuite13UnitTestSuite12GetSuiteNameEv:0000000000000000 _ZN18SuiteSameTestSuite13UnitTestSuite12GetSuiteNameEv
     /tmp/cchBN9kb.s:6633   .text._ZN18SuiteSameTestSuite14TestDummyTest1C2Ev:0000000000000000 _ZN18SuiteSameTestSuite14TestDummyTest1C2Ev
     /tmp/cchBN9kb.s:9595   .rodata._ZTVN18SuiteSameTestSuite14TestDummyTest1E:0000000000000000 _ZTVN18SuiteSameTestSuite14TestDummyTest1E
     /tmp/cchBN9kb.s:6633   .text._ZN18SuiteSameTestSuite14TestDummyTest1C2Ev:0000000000000000 _ZN18SuiteSameTestSuite14TestDummyTest1C1Ev
     /tmp/cchBN9kb.s:6672   .bss:0000000000000000 _ZN18SuiteSameTestSuite22testDummyTest1InstanceE
     /tmp/cchBN9kb.s:6677   .bss:0000000000000038 _ZN18SuiteSameTestSuite15adderDummyTest1E
     /tmp/cchBN9kb.s:6683   .text:0000000000002e56 _ZNK18SuiteSameTestSuite14TestDummyTest17RunImplEv
     /tmp/cchBN9kb.s:6709   .text._ZN44TestCurrentTestDetailsContainCurrentTestInfoC2Ev:0000000000000000 _ZN44TestCurrentTestDetailsContainCurrentTestInfoC2Ev
     /tmp/cchBN9kb.s:9515   .rodata._ZTV44TestCurrentTestDetailsContainCurrentTestInfo:0000000000000000 _ZTV44TestCurrentTestDetailsContainCurrentTestInfo
     /tmp/cchBN9kb.s:6709   .text._ZN44TestCurrentTestDetailsContainCurrentTestInfoC2Ev:0000000000000000 _ZN44TestCurrentTestDetailsContainCurrentTestInfoC1Ev
     /tmp/cchBN9kb.s:6748   .bss:0000000000000040 testCurrentTestDetailsContainCurrentTestInfoInstance
     /tmp/cchBN9kb.s:6753   .bss:0000000000000078 adderCurrentTestDetailsContainCurrentTestInfo
     /tmp/cchBN9kb.s:6763   .text:0000000000002e62 _ZNK44TestCurrentTestDetailsContainCurrentTestInfo7RunImplEv
     /tmp/cchBN9kb.s:11353  .rodata._ZTI44TestCurrentTestDetailsContainCurrentTestInfo:0000000000000000 _ZTI44TestCurrentTestDetailsContainCurrentTestInfo
     /tmp/cchBN9kb.s:9525   .text._ZN44TestCurrentTestDetailsContainCurrentTestInfoD2Ev:0000000000000000 _ZN44TestCurrentTestDetailsContainCurrentTestInfoD1Ev
     /tmp/cchBN9kb.s:9566   .text._ZN44TestCurrentTestDetailsContainCurrentTestInfoD0Ev:0000000000000000 _ZN44TestCurrentTestDetailsContainCurrentTestInfoD0Ev
     /tmp/cchBN9kb.s:9525   .text._ZN44TestCurrentTestDetailsContainCurrentTestInfoD2Ev:0000000000000000 _ZN44TestCurrentTestDetailsContainCurrentTestInfoD2Ev
     /tmp/cchBN9kb.s:11369  .rodata._ZTIN18SuiteSameTestSuite14TestDummyTest1E:0000000000000000 _ZTIN18SuiteSameTestSuite14TestDummyTest1E
     /tmp/cchBN9kb.s:9605   .text._ZN18SuiteSameTestSuite14TestDummyTest1D2Ev:0000000000000000 _ZN18SuiteSameTestSuite14TestDummyTest1D1Ev
     /tmp/cchBN9kb.s:9646   .text._ZN18SuiteSameTestSuite14TestDummyTest1D0Ev:0000000000000000 _ZN18SuiteSameTestSuite14TestDummyTest1D0Ev
     /tmp/cchBN9kb.s:9605   .text._ZN18SuiteSameTestSuite14TestDummyTest1D2Ev:0000000000000000 _ZN18SuiteSameTestSuite14TestDummyTest1D2Ev
     /tmp/cchBN9kb.s:11389  .rodata:00000000000011a8 _ZTIN12_GLOBAL__N_147TestCorrectlyReportsFixturesWithCtorsThatAssertE
     /tmp/cchBN9kb.s:9683   .text:000000000000427e _ZN12_GLOBAL__N_147TestCorrectlyReportsFixturesWithCtorsThatAssertD1Ev
     /tmp/cchBN9kb.s:9721   .text:00000000000042ba _ZN12_GLOBAL__N_147TestCorrectlyReportsFixturesWithCtorsThatAssertD0Ev
     /tmp/cchBN9kb.s:9683   .text:000000000000427e _ZN12_GLOBAL__N_147TestCorrectlyReportsFixturesWithCtorsThatAssertD2Ev
     /tmp/cchBN9kb.s:11401  .rodata:0000000000001210 _ZTIN12_GLOBAL__N_157TestFixtureCtorAssertsCorrectlyReportsAssertFailureInCtorE
     /tmp/cchBN9kb.s:9758   .text:00000000000042e0 _ZN12_GLOBAL__N_157TestFixtureCtorAssertsCorrectlyReportsAssertFailureInCtorD1Ev
     /tmp/cchBN9kb.s:9796   .text:000000000000431c _ZN12_GLOBAL__N_157TestFixtureCtorAssertsCorrectlyReportsAssertFailureInCtorD0Ev
     /tmp/cchBN9kb.s:9758   .text:00000000000042e0 _ZN12_GLOBAL__N_157TestFixtureCtorAssertsCorrectlyReportsAssertFailureInCtorD2Ev
     /tmp/cchBN9kb.s:11413  .rodata:0000000000001280 _ZTIN12_GLOBAL__N_140TestFixturesWithThrowingDtorsAreFailuresE
     /tmp/cchBN9kb.s:9833   .text:0000000000004342 _ZN12_GLOBAL__N_140TestFixturesWithThrowingDtorsAreFailuresD1Ev
     /tmp/cchBN9kb.s:9871   .text:000000000000437e _ZN12_GLOBAL__N_140TestFixturesWithThrowingDtorsAreFailuresD0Ev
     /tmp/cchBN9kb.s:9833   .text:0000000000004342 _ZN12_GLOBAL__N_140TestFixturesWithThrowingDtorsAreFailuresD2Ev
     /tmp/cchBN9kb.s:11425  .rodata:00000000000012e8 _ZTIN12_GLOBAL__N_146TestFixtureDtorThrowsFixtureDtorThrowsTestNameE
     /tmp/cchBN9kb.s:9908   .text:00000000000043a4 _ZN12_GLOBAL__N_146TestFixtureDtorThrowsFixtureDtorThrowsTestNameD1Ev
     /tmp/cchBN9kb.s:9946   .text:00000000000043e0 _ZN12_GLOBAL__N_146TestFixtureDtorThrowsFixtureDtorThrowsTestNameD0Ev
     /tmp/cchBN9kb.s:9908   .text:00000000000043a4 _ZN12_GLOBAL__N_146TestFixtureDtorThrowsFixtureDtorThrowsTestNameD2Ev
     /tmp/cchBN9kb.s:11437  .rodata:0000000000001340 _ZTIN12_GLOBAL__N_140TestFixturesWithThrowingCtorsAreFailuresE
     /tmp/cchBN9kb.s:9983   .text:0000000000004406 _ZN12_GLOBAL__N_140TestFixturesWithThrowingCtorsAreFailuresD1Ev
     /tmp/cchBN9kb.s:10021  .text:0000000000004442 _ZN12_GLOBAL__N_140TestFixturesWithThrowingCtorsAreFailuresD0Ev
     /tmp/cchBN9kb.s:9983   .text:0000000000004406 _ZN12_GLOBAL__N_140TestFixturesWithThrowingCtorsAreFailuresD2Ev
     /tmp/cchBN9kb.s:11449  .rodata:00000000000013a8 _ZTIN12_GLOBAL__N_146TestFixtureCtorThrowsFixtureCtorThrowsTestNameE
     /tmp/cchBN9kb.s:10058  .text:0000000000004468 _ZN12_GLOBAL__N_146TestFixtureCtorThrowsFixtureCtorThrowsTestNameD1Ev
     /tmp/cchBN9kb.s:10096  .text:00000000000044a4 _ZN12_GLOBAL__N_146TestFixtureCtorThrowsFixtureCtorThrowsTestNameD0Ev
     /tmp/cchBN9kb.s:10058  .text:0000000000004468 _ZN12_GLOBAL__N_146TestFixtureCtorThrowsFixtureCtorThrowsTestNameD2Ev
     /tmp/cchBN9kb.s:11461  .rodata:0000000000001410 _ZTIN12_GLOBAL__N_153TestTestAddedWithTEST_FIXTURE_EXMacroGetsDefaultSuiteE
     /tmp/cchBN9kb.s:10133  .text:00000000000044ca _ZN12_GLOBAL__N_153TestTestAddedWithTEST_FIXTURE_EXMacroGetsDefaultSuiteD1Ev
     /tmp/cchBN9kb.s:10171  .text:0000000000004506 _ZN12_GLOBAL__N_153TestTestAddedWithTEST_FIXTURE_EXMacroGetsDefaultSuiteD0Ev
     /tmp/cchBN9kb.s:10133  .text:00000000000044ca _ZN12_GLOBAL__N_153TestTestAddedWithTEST_FIXTURE_EXMacroGetsDefaultSuiteD2Ev
     /tmp/cchBN9kb.s:11473  .rodata:0000000000001478 _ZTIN12_GLOBAL__N_132TestDummyFixtureMacroTestHelper2E
     /tmp/cchBN9kb.s:10208  .text:000000000000452c _ZN12_GLOBAL__N_132TestDummyFixtureMacroTestHelper2D1Ev
     /tmp/cchBN9kb.s:10246  .text:0000000000004568 _ZN12_GLOBAL__N_132TestDummyFixtureMacroTestHelper2D0Ev
     /tmp/cchBN9kb.s:10208  .text:000000000000452c _ZN12_GLOBAL__N_132TestDummyFixtureMacroTestHelper2D2Ev
     /tmp/cchBN9kb.s:11485  .rodata:00000000000014e8 _ZTIN12_GLOBAL__N_145TestTestAddedWithTEST_EXMacroGetsDefaultSuiteE
     /tmp/cchBN9kb.s:10283  .text:000000000000458e _ZN12_GLOBAL__N_145TestTestAddedWithTEST_EXMacroGetsDefaultSuiteD1Ev
     /tmp/cchBN9kb.s:10321  .text:00000000000045ca _ZN12_GLOBAL__N_145TestTestAddedWithTEST_EXMacroGetsDefaultSuiteD0Ev
     /tmp/cchBN9kb.s:10283  .text:000000000000458e _ZN12_GLOBAL__N_145TestTestAddedWithTEST_EXMacroGetsDefaultSuiteD2Ev
     /tmp/cchBN9kb.s:11497  .rodata:0000000000001528 _ZTIN12_GLOBAL__N_120TestMacroTestHelper1E
     /tmp/cchBN9kb.s:10358  .text:00000000000045f0 _ZN12_GLOBAL__N_120TestMacroTestHelper1D1Ev
     /tmp/cchBN9kb.s:10396  .text:000000000000462c _ZN12_GLOBAL__N_120TestMacroTestHelper1D0Ev
     /tmp/cchBN9kb.s:10358  .text:00000000000045f0 _ZN12_GLOBAL__N_120TestMacroTestHelper1D2Ev
     /tmp/cchBN9kb.s:11509  .rodata:00000000000015a8 _ZTIN12_GLOBAL__N_115SuiteTestSuite263TestDummyFixtureSimilarlyNamedFixtureTestsInDifferentSuitesWorkE
     /tmp/cchBN9kb.s:10433  .text:0000000000004652 _ZN12_GLOBAL__N_115SuiteTestSuite263TestDummyFixtureSimilarlyNamedFixtureTestsInDifferentSuitesWorkD1Ev
     /tmp/cchBN9kb.s:10471  .text:000000000000468e _ZN12_GLOBAL__N_115SuiteTestSuite263TestDummyFixtureSimilarlyNamedFixtureTestsInDifferentSuitesWorkD0Ev
     /tmp/cchBN9kb.s:10433  .text:0000000000004652 _ZN12_GLOBAL__N_115SuiteTestSuite263TestDummyFixtureSimilarlyNamedFixtureTestsInDifferentSuitesWorkD2Ev
     /tmp/cchBN9kb.s:11521  .rodata:0000000000001618 _ZTIN12_GLOBAL__N_115SuiteTestSuite244TestSimilarlyNamedTestsInDifferentSuitesWorkE
     /tmp/cchBN9kb.s:10508  .text:00000000000046b4 _ZN12_GLOBAL__N_115SuiteTestSuite244TestSimilarlyNamedTestsInDifferentSuitesWorkD1Ev
     /tmp/cchBN9kb.s:10546  .text:00000000000046f0 _ZN12_GLOBAL__N_115SuiteTestSuite244TestSimilarlyNamedTestsInDifferentSuitesWorkD0Ev
     /tmp/cchBN9kb.s:10508  .text:00000000000046b4 _ZN12_GLOBAL__N_115SuiteTestSuite244TestSimilarlyNamedTestsInDifferentSuitesWorkD2Ev
     /tmp/cchBN9kb.s:11533  .rodata:00000000000016a8 _ZTIN12_GLOBAL__N_115SuiteTestSuite163TestDummyFixtureSimilarlyNamedFixtureTestsInDifferentSuitesWorkE
     /tmp/cchBN9kb.s:10583  .text:0000000000004716 _ZN12_GLOBAL__N_115SuiteTestSuite163TestDummyFixtureSimilarlyNamedFixtureTestsInDifferentSuitesWorkD1Ev
     /tmp/cchBN9kb.s:10621  .text:0000000000004752 _ZN12_GLOBAL__N_115SuiteTestSuite163TestDummyFixtureSimilarlyNamedFixtureTestsInDifferentSuitesWorkD0Ev
     /tmp/cchBN9kb.s:10583  .text:0000000000004716 _ZN12_GLOBAL__N_115SuiteTestSuite163TestDummyFixtureSimilarlyNamedFixtureTestsInDifferentSuitesWorkD2Ev
     /tmp/cchBN9kb.s:11545  .rodata:0000000000001718 _ZTIN12_GLOBAL__N_115SuiteTestSuite144TestSimilarlyNamedTestsInDifferentSuitesWorkE
     /tmp/cchBN9kb.s:10658  .text:0000000000004778 _ZN12_GLOBAL__N_115SuiteTestSuite144TestSimilarlyNamedTestsInDifferentSuitesWorkD1Ev
     /tmp/cchBN9kb.s:10696  .text:00000000000047b4 _ZN12_GLOBAL__N_115SuiteTestSuite144TestSimilarlyNamedTestsInDifferentSuitesWorkD0Ev
     /tmp/cchBN9kb.s:10658  .text:0000000000004778 _ZN12_GLOBAL__N_115SuiteTestSuite144TestSimilarlyNamedTestsInDifferentSuitesWorkD2Ev
     /tmp/cchBN9kb.s:11557  .rodata:0000000000001790 _ZTIN12_GLOBAL__N_157TestExceptionsInFixtureAreReportedAsHappeningInTheFixtureE
     /tmp/cchBN9kb.s:10733  .text:00000000000047da _ZN12_GLOBAL__N_157TestExceptionsInFixtureAreReportedAsHappeningInTheFixtureD1Ev
     /tmp/cchBN9kb.s:10771  .text:0000000000004816 _ZN12_GLOBAL__N_157TestExceptionsInFixtureAreReportedAsHappeningInTheFixtureD0Ev
     /tmp/cchBN9kb.s:10733  .text:00000000000047da _ZN12_GLOBAL__N_157TestExceptionsInFixtureAreReportedAsHappeningInTheFixtureD2Ev
     /tmp/cchBN9kb.s:11569  .rodata:00000000000017f8 _ZTIN12_GLOBAL__N_132TestThrowingThingieDummyTestNameE
     /tmp/cchBN9kb.s:10808  .text:000000000000483c _ZN12_GLOBAL__N_132TestThrowingThingieDummyTestNameD1Ev
     /tmp/cchBN9kb.s:10846  .text:0000000000004878 _ZN12_GLOBAL__N_132TestThrowingThingieDummyTestNameD0Ev
     /tmp/cchBN9kb.s:10808  .text:000000000000483c _ZN12_GLOBAL__N_132TestThrowingThingieDummyTestNameD2Ev
     /tmp/cchBN9kb.s:11581  .rodata:0000000000001860 _ZTIN12_GLOBAL__N_138TestTestsAreAddedToTheListThroughMacroE
     /tmp/cchBN9kb.s:10883  .text:000000000000489e _ZN12_GLOBAL__N_138TestTestsAreAddedToTheListThroughMacroD1Ev
     /tmp/cchBN9kb.s:10921  .text:00000000000048da _ZN12_GLOBAL__N_138TestTestsAreAddedToTheListThroughMacroD0Ev
     /tmp/cchBN9kb.s:10883  .text:000000000000489e _ZN12_GLOBAL__N_138TestTestsAreAddedToTheListThroughMacroD2Ev
     /tmp/cchBN9kb.s:11593  .rodata:00000000000018a8 _ZTIN12_GLOBAL__N_113TestDummyTestE
     /tmp/cchBN9kb.s:10958  .text:0000000000004900 _ZN12_GLOBAL__N_113TestDummyTestD1Ev
     /tmp/cchBN9kb.s:10996  .text:000000000000493c _ZN12_GLOBAL__N_113TestDummyTestD0Ev
     /tmp/cchBN9kb.s:10958  .text:0000000000004900 _ZN12_GLOBAL__N_113TestDummyTestD2Ev
     /tmp/cchBN9kb.s:11602  .rodata._ZTI17RecordingReporter:0000000000000000 _ZTI17RecordingReporter
     /tmp/cchBN9kb.s:11079  .text._ZN17RecordingReporterD0Ev:0000000000000000 _ZN17RecordingReporterD0Ev
     /tmp/cchBN9kb.s:11038  .text._ZN17RecordingReporterD2Ev:0000000000000000 _ZN17RecordingReporterD2Ev
     /tmp/cchBN9kb.s:11618  .rodata._ZTIN8UnitTest15MemoryOutStreamE:0000000000000000 _ZTIN8UnitTest15MemoryOutStreamE
     /tmp/cchBN9kb.s:11311  .text._ZN8UnitTest15MemoryOutStreamD0Ev:0000000000000000 _ZN8UnitTest15MemoryOutStreamD0Ev
     /tmp/cchBN9kb.s:11297  .text._ZN8UnitTest15MemoryOutStreamD1Ev:00000000000000cc _ZTv0_n24_N8UnitTest15MemoryOutStreamD1Ev
     /tmp/cchBN9kb.s:11338  .text._ZN8UnitTest15MemoryOutStreamD0Ev:0000000000000026 _ZTv0_n24_N8UnitTest15MemoryOutStreamD0Ev
     /tmp/cchBN9kb.s:11137  .rodata._ZTCN8UnitTest15MemoryOutStreamE0_NSt7__cxx1119basic_ostringstreamIcSt11char_traitsIcESaIcEEE:0000000000000000 _ZTCN8UnitTest15MemoryOutStreamE0_NSt7__cxx1119basic_ostringstreamIcSt11char_traitsIcESaIcEEE
     /tmp/cchBN9kb.s:11154  .rodata._ZTCN8UnitTest15MemoryOutStreamE0_So:0000000000000000 _ZTCN8UnitTest15MemoryOutStreamE0_So
     /tmp/cchBN9kb.s:11362  .rodata._ZTS44TestCurrentTestDetailsContainCurrentTestInfo:0000000000000000 _ZTS44TestCurrentTestDetailsContainCurrentTestInfo
     /tmp/cchBN9kb.s:11378  .rodata._ZTSN18SuiteSameTestSuite14TestDummyTest1E:0000000000000000 _ZTSN18SuiteSameTestSuite14TestDummyTest1E
     /tmp/cchBN9kb.s:11384  .rodata:0000000000001160 _ZTSN12_GLOBAL__N_147TestCorrectlyReportsFixturesWithCtorsThatAssertE
     /tmp/cchBN9kb.s:11396  .rodata:00000000000011c0 _ZTSN12_GLOBAL__N_157TestFixtureCtorAssertsCorrectlyReportsAssertFailureInCtorE
     /tmp/cchBN9kb.s:11408  .rodata:0000000000001240 _ZTSN12_GLOBAL__N_140TestFixturesWithThrowingDtorsAreFailuresE
     /tmp/cchBN9kb.s:11420  .rodata:00000000000012a0 _ZTSN12_GLOBAL__N_146TestFixtureDtorThrowsFixtureDtorThrowsTestNameE
     /tmp/cchBN9kb.s:11432  .rodata:0000000000001300 _ZTSN12_GLOBAL__N_140TestFixturesWithThrowingCtorsAreFailuresE
     /tmp/cchBN9kb.s:11444  .rodata:0000000000001360 _ZTSN12_GLOBAL__N_146TestFixtureCtorThrowsFixtureCtorThrowsTestNameE
     /tmp/cchBN9kb.s:11456  .rodata:00000000000013c0 _ZTSN12_GLOBAL__N_153TestTestAddedWithTEST_FIXTURE_EXMacroGetsDefaultSuiteE
     /tmp/cchBN9kb.s:11468  .rodata:0000000000001440 _ZTSN12_GLOBAL__N_132TestDummyFixtureMacroTestHelper2E
     /tmp/cchBN9kb.s:11480  .rodata:00000000000014a0 _ZTSN12_GLOBAL__N_145TestTestAddedWithTEST_EXMacroGetsDefaultSuiteE
     /tmp/cchBN9kb.s:11492  .rodata:0000000000001500 _ZTSN12_GLOBAL__N_120TestMacroTestHelper1E
     /tmp/cchBN9kb.s:11504  .rodata:0000000000001540 _ZTSN12_GLOBAL__N_115SuiteTestSuite263TestDummyFixtureSimilarlyNamedFixtureTestsInDifferentSuitesWorkE
     /tmp/cchBN9kb.s:11516  .rodata:00000000000015c0 _ZTSN12_GLOBAL__N_115SuiteTestSuite244TestSimilarlyNamedTestsInDifferentSuitesWorkE
     /tmp/cchBN9kb.s:11528  .rodata:0000000000001640 _ZTSN12_GLOBAL__N_115SuiteTestSuite163TestDummyFixtureSimilarlyNamedFixtureTestsInDifferentSuitesWorkE
     /tmp/cchBN9kb.s:11540  .rodata:00000000000016c0 _ZTSN12_GLOBAL__N_115SuiteTestSuite144TestSimilarlyNamedTestsInDifferentSuitesWorkE
     /tmp/cchBN9kb.s:11552  .rodata:0000000000001740 _ZTSN12_GLOBAL__N_157TestExceptionsInFixtureAreReportedAsHappeningInTheFixtureE
     /tmp/cchBN9kb.s:11564  .rodata:00000000000017c0 _ZTSN12_GLOBAL__N_132TestThrowingThingieDummyTestNameE
     /tmp/cchBN9kb.s:11576  .rodata:0000000000001820 _ZTSN12_GLOBAL__N_138TestTestsAreAddedToTheListThroughMacroE
     /tmp/cchBN9kb.s:11588  .rodata:0000000000001880 _ZTSN12_GLOBAL__N_113TestDummyTestE
     /tmp/cchBN9kb.s:11611  .rodata._ZTS17RecordingReporter:0000000000000000 _ZTS17RecordingReporter
     /tmp/cchBN9kb.s:11627  .rodata._ZTSN8UnitTest15MemoryOutStreamE:0000000000000000 _ZTSN8UnitTest15MemoryOutStreamE
     /tmp/cchBN9kb.s:11631  .text:0000000000004962 _Z41__static_initialization_and_destruction_0ii
     /tmp/cchBN9kb.s:11913  .text:0000000000004ddf _GLOBAL__sub_I__ZN18SuiteSameTestSuite22testDummyTest1InstanceE
                           .group:0000000000000000 _ZN8UnitTest12TestReporterC5Ev
                           .group:0000000000000000 _ZN17RecordingReporterC5Ev
                           .group:0000000000000000 _ZN17ScopedCurrentTestC5ERN8UnitTest11TestResultsEPKNS0_11TestDetailsE
                           .group:0000000000000000 _ZN17ScopedCurrentTestD5Ev
                           .group:0000000000000000 _ZN18SuiteSameTestSuite14TestDummyTest1C5Ev
                           .group:0000000000000000 _ZN44TestCurrentTestDetailsContainCurrentTestInfoC5Ev
                           .group:0000000000000000 _ZN44TestCurrentTestDetailsContainCurrentTestInfoD5Ev
                           .group:0000000000000000 _ZN18SuiteSameTestSuite14TestDummyTest1D5Ev
                           .group:0000000000000000 _ZN17RecordingReporterD5Ev

UNDEFINED SYMBOLS
__gxx_personality_v0
_ZNSt9basic_iosIcSt11char_traitsIcEEC2Ev
_ZNSt7__cxx1119basic_ostringstreamIcSt11char_traitsIcESaIcEEC2ESt13_Ios_Openmode
_ZNSt7__cxx1112basic_stringIcSt11char_traitsIcESaIcEEC1Ev
_ZNSt7__cxx1119basic_ostringstreamIcSt11char_traitsIcESaIcEED2Ev
_ZNSt9basic_iosIcSt11char_traitsIcEED2Ev
_Unwind_Resume
_ZTVN8UnitTest12TestReporterE
strcpy
_ZN8UnitTest11CurrentTest7ResultsEv
_ZN8UnitTest11CurrentTest7DetailsEv
_ZN8UnitTest4TestC2EPKcS2_S2_i
_ZNK8UnitTest8TestList7GetHeadEv
_ZN8UnitTest11TestDetailsC1ERKS0_i
_ZN8UnitTest11TestResults13OnTestFailureERKNS_11TestDetailsEPKc
__cxa_begin_catch
__cxa_end_catch
__stack_chk_fail
__cxa_allocate_exception
_ZTIPKc
__cxa_throw
_ZNK8UnitTest15AssertException10LineNumberEv
_ZNK8UnitTest15AssertException8FilenameEv
_ZN8UnitTest11TestDetailsC1EPKcS2_S2_i
_ZStlsISt11char_traitsIcEERSt13basic_ostreamIcT_ES5_PKc
_ZNK8UnitTest15MemoryOutStream7GetTextEv
_ZTISt9exception
_ZTIN8UnitTest15AssertExceptionE
_ZN8UnitTest11TestResultsC1EPNS_12TestReporterE
_ZN8UnitTest4Test3RunEv
strstr
_ZN8UnitTest10CheckEqualERNS_11TestResultsEPKcS3_RKNS_11TestDetailsE
_ZNK8UnitTest11TestResults18GetFailedTestCountEv
_ZN8UnitTest12ReportAssertEPKcS1_i
_ZN8UnitTest16SignalTranslatorC1Ev
_ZN8UnitTest16SignalTranslator12s_jumpTargetE
__sigsetjmp
_ZN8UnitTest16SignalTranslatorD1Ev
_ZNSolsEi
_ZN8UnitTest4TestD2Ev
_ZdlPv
_ZN8UnitTest12TestReporterD2Ev
_ZTINSt7__cxx1119basic_ostringstreamIcSt11char_traitsIcESaIcEEE
_ZTISo
_ZNSt7__cxx1112basic_stringIcSt11char_traitsIcESaIcEED1Ev
_ZTVN10__cxxabiv120__si_class_type_infoE
_ZTIN8UnitTest4TestE
_ZTIN8UnitTest12TestReporterE
_ZN8UnitTest8TestListC1Ev
__dso_handle
__cxa_atexit
_ZN8UnitTest9ListAdderC1ERNS_8TestListEPNS_4TestE
_ZN8UnitTest4Test11GetTestListEv
