   1              		.file	"TestTestResults.cpp"
   2              		.text
   3              	.Ltext0:
   4              		.section	.rodata
   5              	.LC0:
   6 0000 44656661 		.string	"DefaultSuite"
   6      756C7453 
   6      75697465 
   6      00
   7              		.section	.text._ZN13UnitTestSuite12GetSuiteNameEv,"axG",@progbits,_ZN13UnitTestSuite12GetSuiteName
   8              		.weak	_ZN13UnitTestSuite12GetSuiteNameEv
  10              	_ZN13UnitTestSuite12GetSuiteNameEv:
  11              	.LFB0:
  12              		.file 1 "../TestSuite.h"
   1:../TestSuite.h **** #ifndef UNITTEST_TESTSUITE_H
   2:../TestSuite.h **** #define UNITTEST_TESTSUITE_H
   3:../TestSuite.h **** 
   4:../TestSuite.h **** namespace UnitTestSuite {
   5:../TestSuite.h **** 
   6:../TestSuite.h ****     inline char const* GetSuiteName ()
   7:../TestSuite.h ****     {
  13              		.loc 1 7 0
  14              		.cfi_startproc
  15 0000 55       		pushq	%rbp
  16              		.cfi_def_cfa_offset 16
  17              		.cfi_offset 6, -16
  18 0001 4889E5   		movq	%rsp, %rbp
  19              		.cfi_def_cfa_register 6
   8:../TestSuite.h ****         return "DefaultSuite";
  20              		.loc 1 8 0
  21 0004 B8000000 		movl	$.LC0, %eax
  21      00
   9:../TestSuite.h ****     }
  22              		.loc 1 9 0
  23 0009 5D       		popq	%rbp
  24              		.cfi_def_cfa 7, 8
  25 000a C3       		ret
  26              		.cfi_endproc
  27              	.LFE0:
  29              		.section	.text._ZN8UnitTest15MemoryOutStreamC1Ev,"axG",@progbits,_ZN8UnitTest15MemoryOutStreamC1Ev
  30              		.align 2
  31              		.weak	_ZN8UnitTest15MemoryOutStreamC1Ev
  33              	_ZN8UnitTest15MemoryOutStreamC1Ev:
  34              	.LFB1057:
  35              		.file 2 "../MemoryOutStream.h"
   1:../MemoryOutStream.h **** #ifndef UNITTEST_MEMORYOUTSTREAM_H
   2:../MemoryOutStream.h **** #define UNITTEST_MEMORYOUTSTREAM_H
   3:../MemoryOutStream.h **** 
   4:../MemoryOutStream.h **** #include "Config.h"
   5:../MemoryOutStream.h **** 
   6:../MemoryOutStream.h **** #ifndef UNITTEST_USE_CUSTOM_STREAMS
   7:../MemoryOutStream.h **** 
   8:../MemoryOutStream.h **** #include <sstream>
   9:../MemoryOutStream.h **** 
  10:../MemoryOutStream.h **** namespace UnitTest
  11:../MemoryOutStream.h **** {
  12:../MemoryOutStream.h **** 
  13:../MemoryOutStream.h **** class MemoryOutStream : public std::ostringstream
  14:../MemoryOutStream.h **** {
  15:../MemoryOutStream.h **** public:
  16:../MemoryOutStream.h ****     MemoryOutStream() {}
  36              		.loc 2 16 0
  37              		.cfi_startproc
  38              		.cfi_personality 0x3,__gxx_personality_v0
  39              		.cfi_lsda 0x3,.LLSDA1057
  40 0000 55       		pushq	%rbp
  41              		.cfi_def_cfa_offset 16
  42              		.cfi_offset 6, -16
  43 0001 4889E5   		movq	%rsp, %rbp
  44              		.cfi_def_cfa_register 6
  45 0004 53       		pushq	%rbx
  46 0005 4883EC18 		subq	$24, %rsp
  47              		.cfi_offset 3, -24
  48 0009 48897DE8 		movq	%rdi, -24(%rbp)
  49              	.LBB2:
  50              		.loc 2 16 0
  51 000d 488B45E8 		movq	-24(%rbp), %rax
  52 0011 48059000 		addq	$144, %rax
  52      0000
  53 0017 4889C7   		movq	%rax, %rdi
  54              	.LEHB0:
  55 001a E8000000 		call	_ZNSt9basic_iosIcSt11char_traitsIcEEC2Ev
  55      00
  56              	.LEHE0:
  57 001f B9000000 		movl	$_ZTTN8UnitTest15MemoryOutStreamE+8, %ecx
  57      00
  58 0024 488B45E8 		movq	-24(%rbp), %rax
  59 0028 BA100000 		movl	$16, %edx
  59      00
  60 002d 4889CE   		movq	%rcx, %rsi
  61 0030 4889C7   		movq	%rax, %rdi
  62              	.LEHB1:
  63 0033 E8000000 		call	_ZNSt7__cxx1119basic_ostringstreamIcSt11char_traitsIcESaIcEEC2ESt13_Ios_Openmode
  63      00
  64              	.LEHE1:
  65              		.loc 2 16 0 is_stmt 0 discriminator 9
  66 0038 BA000000 		movl	$_ZTVN8UnitTest15MemoryOutStreamE+24, %edx
  66      00
  67 003d 488B45E8 		movq	-24(%rbp), %rax
  68 0041 488910   		movq	%rdx, (%rax)
  69 0044 BA900000 		movl	$144, %edx
  69      00
  70 0049 488B45E8 		movq	-24(%rbp), %rax
  71 004d 4801D0   		addq	%rdx, %rax
  72 0050 BA000000 		movl	$_ZTVN8UnitTest15MemoryOutStreamE+64, %edx
  72      00
  73 0055 488910   		movq	%rdx, (%rax)
  74 0058 488B45E8 		movq	-24(%rbp), %rax
  75 005c 4883C070 		addq	$112, %rax
  76 0060 4889C7   		movq	%rax, %rdi
  77              	.LEHB2:
  78 0063 E8000000 		call	_ZNSt7__cxx1112basic_stringIcSt11char_traitsIcESaIcEEC1Ev
  78      00
  79              	.LEHE2:
  80              	.LBE2:
  81              		.loc 2 16 0
  82 0068 EB39     		jmp	.L9
  83              	.L7:
  84 006a 4889C3   		movq	%rax, %rbx
  85              	.LBB3:
  86 006d BA000000 		movl	$_ZTTN8UnitTest15MemoryOutStreamE+8, %edx
  86      00
  87 0072 488B45E8 		movq	-24(%rbp), %rax
  88 0076 4889D6   		movq	%rdx, %rsi
  89 0079 4889C7   		movq	%rax, %rdi
  90 007c E8000000 		call	_ZNSt7__cxx1119basic_ostringstreamIcSt11char_traitsIcESaIcEED2Ev
  90      00
  91 0081 EB03     		jmp	.L8
  92              	.L6:
  93 0083 4889C3   		movq	%rax, %rbx
  94              	.L8:
  95              		.loc 2 16 0 discriminator 28
  96 0086 488B45E8 		movq	-24(%rbp), %rax
  97 008a 48059000 		addq	$144, %rax
  97      0000
  98 0090 4889C7   		movq	%rax, %rdi
  99 0093 E8000000 		call	_ZNSt9basic_iosIcSt11char_traitsIcEED2Ev
  99      00
 100 0098 4889D8   		movq	%rbx, %rax
 101 009b 4889C7   		movq	%rax, %rdi
 102              	.LEHB3:
 103 009e E8000000 		call	_Unwind_Resume
 103      00
 104              	.LEHE3:
 105              	.L9:
 106              	.LBE3:
 107              		.loc 2 16 0
 108 00a3 4883C418 		addq	$24, %rsp
 109 00a7 5B       		popq	%rbx
 110 00a8 5D       		popq	%rbp
 111              		.cfi_def_cfa 7, 8
 112 00a9 C3       		ret
 113              		.cfi_endproc
 114              	.LFE1057:
 115              		.globl	__gxx_personality_v0
 116              		.section	.gcc_except_table._ZN8UnitTest15MemoryOutStreamC1Ev,"aG",@progbits,_ZN8UnitTest15MemoryOu
 117              	.LLSDA1057:
 118 0000 FF       		.byte	0xff
 119 0001 FF       		.byte	0xff
 120 0002 01       		.byte	0x1
 121 0003 12       		.uleb128 .LLSDACSE1057-.LLSDACSB1057
 122              	.LLSDACSB1057:
 123 0004 1A       		.uleb128 .LEHB0-.LFB1057
 124 0005 05       		.uleb128 .LEHE0-.LEHB0
 125 0006 00       		.uleb128 0
 126 0007 00       		.uleb128 0
 127 0008 33       		.uleb128 .LEHB1-.LFB1057
 128 0009 05       		.uleb128 .LEHE1-.LEHB1
 129 000a 8301     		.uleb128 .L6-.LFB1057
 130 000c 00       		.uleb128 0
 131 000d 63       		.uleb128 .LEHB2-.LFB1057
 132 000e 05       		.uleb128 .LEHE2-.LEHB2
 133 000f 6A       		.uleb128 .L7-.LFB1057
 134 0010 00       		.uleb128 0
 135 0011 9E01     		.uleb128 .LEHB3-.LFB1057
 136 0013 05       		.uleb128 .LEHE3-.LEHB3
 137 0014 00       		.uleb128 0
 138 0015 00       		.uleb128 0
 139              	.LLSDACSE1057:
 140              		.section	.text._ZN8UnitTest15MemoryOutStreamC1Ev,"axG",@progbits,_ZN8UnitTest15MemoryOutStreamC1Ev
 142              		.section	.text._ZN8UnitTest12TestReporterC2Ev,"axG",@progbits,_ZN8UnitTest12TestReporterC5Ev,comda
 143              		.align 2
 144              		.weak	_ZN8UnitTest12TestReporterC2Ev
 146              	_ZN8UnitTest12TestReporterC2Ev:
 147              	.LFB1071:
 148              		.file 3 "../TestReporter.h"
   1:../TestReporter.h **** #ifndef UNITTEST_TESTREPORTER_H
   2:../TestReporter.h **** #define UNITTEST_TESTREPORTER_H
   3:../TestReporter.h **** 
   4:../TestReporter.h **** namespace UnitTest {
   5:../TestReporter.h **** 
   6:../TestReporter.h **** class TestDetails;
   7:../TestReporter.h **** 
   8:../TestReporter.h **** class TestReporter
 149              		.loc 3 8 0 is_stmt 1
 150              		.cfi_startproc
 151 0000 55       		pushq	%rbp
 152              		.cfi_def_cfa_offset 16
 153              		.cfi_offset 6, -16
 154 0001 4889E5   		movq	%rsp, %rbp
 155              		.cfi_def_cfa_register 6
 156 0004 48897DF8 		movq	%rdi, -8(%rbp)
 157              	.LBB4:
 158              		.loc 3 8 0
 159 0008 BA000000 		movl	$_ZTVN8UnitTest12TestReporterE+16, %edx
 159      00
 160 000d 488B45F8 		movq	-8(%rbp), %rax
 161 0011 488910   		movq	%rdx, (%rax)
 162              	.LBE4:
 163 0014 90       		nop
 164 0015 5D       		popq	%rbp
 165              		.cfi_def_cfa 7, 8
 166 0016 C3       		ret
 167              		.cfi_endproc
 168              	.LFE1071:
 170              		.weak	_ZN8UnitTest12TestReporterC1Ev
 171              		.set	_ZN8UnitTest12TestReporterC1Ev,_ZN8UnitTest12TestReporterC2Ev
 172              		.section	.text._ZN17RecordingReporterC2Ev,"axG",@progbits,_ZN17RecordingReporterC5Ev,comdat
 173              		.align 2
 174              		.weak	_ZN17RecordingReporterC2Ev
 176              	_ZN17RecordingReporterC2Ev:
 177              	.LFB1073:
 178              		.file 4 "RecordingReporter.h"
   1:RecordingReporter.h **** #ifndef UNITTEST_RECORDINGREPORTER_H
   2:RecordingReporter.h **** #define UNITTEST_RECORDINGREPORTER_H
   3:RecordingReporter.h **** 
   4:RecordingReporter.h **** #include "../TestReporter.h"
   5:RecordingReporter.h **** #include <cstring>
   6:RecordingReporter.h **** 
   7:RecordingReporter.h **** #include "../TestDetails.h"
   8:RecordingReporter.h **** 
   9:RecordingReporter.h **** struct RecordingReporter : public UnitTest::TestReporter
  10:RecordingReporter.h **** {
  11:RecordingReporter.h **** private:
  12:RecordingReporter.h ****     enum { kMaxStringLength = 256 };
  13:RecordingReporter.h **** 
  14:RecordingReporter.h **** public:
  15:RecordingReporter.h ****     RecordingReporter()
 179              		.loc 4 15 0
 180              		.cfi_startproc
 181 0000 55       		pushq	%rbp
 182              		.cfi_def_cfa_offset 16
 183              		.cfi_offset 6, -16
 184 0001 4889E5   		movq	%rsp, %rbp
 185              		.cfi_def_cfa_register 6
 186 0004 4883EC10 		subq	$16, %rsp
 187 0008 48897DF8 		movq	%rdi, -8(%rbp)
 188              	.LBB5:
  16:RecordingReporter.h ****         : testRunCount(0)
  17:RecordingReporter.h ****         , testFailedCount(0)
  18:RecordingReporter.h ****         , lastFailedLine(0)
  19:RecordingReporter.h ****         , testFinishedCount(0)
  20:RecordingReporter.h ****         , lastFinishedTestTime(0)
  21:RecordingReporter.h ****         , summaryTotalTestCount(0)
  22:RecordingReporter.h ****         , summaryFailedTestCount(0)
  23:RecordingReporter.h ****         , summaryFailureCount(0)
  24:RecordingReporter.h ****         , summarySecondsElapsed(0)
 189              		.loc 4 24 0
 190 000c 488B45F8 		movq	-8(%rbp), %rax
 191 0010 4889C7   		movq	%rax, %rdi
 192 0013 E8000000 		call	_ZN8UnitTest12TestReporterC2Ev
 192      00
 193 0018 BA000000 		movl	$_ZTV17RecordingReporter+16, %edx
 193      00
 194 001d 488B45F8 		movq	-8(%rbp), %rax
 195 0021 488910   		movq	%rdx, (%rax)
 196 0024 488B45F8 		movq	-8(%rbp), %rax
 197 0028 C7400800 		movl	$0, 8(%rax)
 197      000000
 198 002f 488B45F8 		movq	-8(%rbp), %rax
 199 0033 C7800C02 		movl	$0, 524(%rax)
 199      00000000 
 199      0000
 200 003d 488B45F8 		movq	-8(%rbp), %rax
 201 0041 C7801003 		movl	$0, 784(%rax)
 201      00000000 
 201      0000
 202 004b 488B45F8 		movq	-8(%rbp), %rax
 203 004f C7801406 		movl	$0, 1556(%rax)
 203      00000000 
 203      0000
 204 0059 488B45F8 		movq	-8(%rbp), %rax
 205 005d 660FEFC0 		pxor	%xmm0, %xmm0
 206 0061 F30F1180 		movss	%xmm0, 2072(%rax)
 206      18080000 
 207 0069 488B45F8 		movq	-8(%rbp), %rax
 208 006d C7801C08 		movl	$0, 2076(%rax)
 208      00000000 
 208      0000
 209 0077 488B45F8 		movq	-8(%rbp), %rax
 210 007b C7802008 		movl	$0, 2080(%rax)
 210      00000000 
 210      0000
 211 0085 488B45F8 		movq	-8(%rbp), %rax
 212 0089 C7802408 		movl	$0, 2084(%rax)
 212      00000000 
 212      0000
 213 0093 488B45F8 		movq	-8(%rbp), %rax
 214 0097 660FEFC0 		pxor	%xmm0, %xmm0
 215 009b F30F1180 		movss	%xmm0, 2088(%rax)
 215      28080000 
  25:RecordingReporter.h ****     {
  26:RecordingReporter.h ****         lastStartedSuite[0] = '\0';
 216              		.loc 4 26 0
 217 00a3 488B45F8 		movq	-8(%rbp), %rax
 218 00a7 C6400C00 		movb	$0, 12(%rax)
  27:RecordingReporter.h ****         lastStartedTest[0] = '\0';
 219              		.loc 4 27 0
 220 00ab 488B45F8 		movq	-8(%rbp), %rax
 221 00af C6800C01 		movb	$0, 268(%rax)
 221      000000
  28:RecordingReporter.h ****         lastFailedFile[0] = '\0';
 222              		.loc 4 28 0
 223 00b6 488B45F8 		movq	-8(%rbp), %rax
 224 00ba C6801002 		movb	$0, 528(%rax)
 224      000000
  29:RecordingReporter.h ****         lastFailedSuite[0] = '\0';
 225              		.loc 4 29 0
 226 00c1 488B45F8 		movq	-8(%rbp), %rax
 227 00c5 C6801403 		movb	$0, 788(%rax)
 227      000000
  30:RecordingReporter.h ****         lastFailedTest[0] = '\0';
 228              		.loc 4 30 0
 229 00cc 488B45F8 		movq	-8(%rbp), %rax
 230 00d0 C6801404 		movb	$0, 1044(%rax)
 230      000000
  31:RecordingReporter.h ****         lastFailedMessage[0] = '\0';
 231              		.loc 4 31 0
 232 00d7 488B45F8 		movq	-8(%rbp), %rax
 233 00db C6801405 		movb	$0, 1300(%rax)
 233      000000
  32:RecordingReporter.h ****         lastFinishedSuite[0] = '\0';
 234              		.loc 4 32 0
 235 00e2 488B45F8 		movq	-8(%rbp), %rax
 236 00e6 C6801806 		movb	$0, 1560(%rax)
 236      000000
  33:RecordingReporter.h ****         lastFinishedTest[0] = '\0';
 237              		.loc 4 33 0
 238 00ed 488B45F8 		movq	-8(%rbp), %rax
 239 00f1 C6801807 		movb	$0, 1816(%rax)
 239      000000
 240              	.LBE5:
  34:RecordingReporter.h ****     }
 241              		.loc 4 34 0
 242 00f8 90       		nop
 243 00f9 C9       		leave
 244              		.cfi_def_cfa 7, 8
 245 00fa C3       		ret
 246              		.cfi_endproc
 247              	.LFE1073:
 249              		.weak	_ZN17RecordingReporterC1Ev
 250              		.set	_ZN17RecordingReporterC1Ev,_ZN17RecordingReporterC2Ev
 251              		.section	.text._ZN17RecordingReporter15ReportTestStartERKN8UnitTest11TestDetailsE,"axG",@progbits,
 252              		.align 2
 253              		.weak	_ZN17RecordingReporter15ReportTestStartERKN8UnitTest11TestDetailsE
 255              	_ZN17RecordingReporter15ReportTestStartERKN8UnitTest11TestDetailsE:
 256              	.LFB1075:
  35:RecordingReporter.h **** 
  36:RecordingReporter.h ****     virtual void ReportTestStart(UnitTest::TestDetails const& test)
 257              		.loc 4 36 0
 258              		.cfi_startproc
 259 0000 55       		pushq	%rbp
 260              		.cfi_def_cfa_offset 16
 261              		.cfi_offset 6, -16
 262 0001 4889E5   		movq	%rsp, %rbp
 263              		.cfi_def_cfa_register 6
 264 0004 4883EC10 		subq	$16, %rsp
 265 0008 48897DF8 		movq	%rdi, -8(%rbp)
 266 000c 488975F0 		movq	%rsi, -16(%rbp)
  37:RecordingReporter.h ****     {
  38:RecordingReporter.h **** 		using namespace std;
  39:RecordingReporter.h **** 
  40:RecordingReporter.h ****         ++testRunCount;
 267              		.loc 4 40 0
 268 0010 488B45F8 		movq	-8(%rbp), %rax
 269 0014 8B4008   		movl	8(%rax), %eax
 270 0017 8D5001   		leal	1(%rax), %edx
 271 001a 488B45F8 		movq	-8(%rbp), %rax
 272 001e 895008   		movl	%edx, 8(%rax)
  41:RecordingReporter.h ****         strcpy(lastStartedSuite, test.suiteName);
 273              		.loc 4 41 0
 274 0021 488B45F0 		movq	-16(%rbp), %rax
 275 0025 488B00   		movq	(%rax), %rax
 276 0028 488B55F8 		movq	-8(%rbp), %rdx
 277 002c 4883C20C 		addq	$12, %rdx
 278 0030 4889C6   		movq	%rax, %rsi
 279 0033 4889D7   		movq	%rdx, %rdi
 280 0036 E8000000 		call	strcpy
 280      00
  42:RecordingReporter.h ****         strcpy(lastStartedTest, test.testName);
 281              		.loc 4 42 0
 282 003b 488B45F0 		movq	-16(%rbp), %rax
 283 003f 488B4008 		movq	8(%rax), %rax
 284 0043 488B55F8 		movq	-8(%rbp), %rdx
 285 0047 4881C20C 		addq	$268, %rdx
 285      010000
 286 004e 4889C6   		movq	%rax, %rsi
 287 0051 4889D7   		movq	%rdx, %rdi
 288 0054 E8000000 		call	strcpy
 288      00
  43:RecordingReporter.h ****     }
 289              		.loc 4 43 0
 290 0059 90       		nop
 291 005a C9       		leave
 292              		.cfi_def_cfa 7, 8
 293 005b C3       		ret
 294              		.cfi_endproc
 295              	.LFE1075:
 297              		.section	.text._ZN17RecordingReporter13ReportFailureERKN8UnitTest11TestDetailsEPKc,"axG",@progbits
 298              		.align 2
 299              		.weak	_ZN17RecordingReporter13ReportFailureERKN8UnitTest11TestDetailsEPKc
 301              	_ZN17RecordingReporter13ReportFailureERKN8UnitTest11TestDetailsEPKc:
 302              	.LFB1076:
  44:RecordingReporter.h **** 
  45:RecordingReporter.h ****     virtual void ReportFailure(UnitTest::TestDetails const& test, char const* failure)
 303              		.loc 4 45 0
 304              		.cfi_startproc
 305 0000 55       		pushq	%rbp
 306              		.cfi_def_cfa_offset 16
 307              		.cfi_offset 6, -16
 308 0001 4889E5   		movq	%rsp, %rbp
 309              		.cfi_def_cfa_register 6
 310 0004 4883EC20 		subq	$32, %rsp
 311 0008 48897DF8 		movq	%rdi, -8(%rbp)
 312 000c 488975F0 		movq	%rsi, -16(%rbp)
 313 0010 488955E8 		movq	%rdx, -24(%rbp)
  46:RecordingReporter.h ****     {
  47:RecordingReporter.h **** 		using namespace std;
  48:RecordingReporter.h **** 
  49:RecordingReporter.h **** 		++testFailedCount;
 314              		.loc 4 49 0
 315 0014 488B45F8 		movq	-8(%rbp), %rax
 316 0018 8B800C02 		movl	524(%rax), %eax
 316      0000
 317 001e 8D5001   		leal	1(%rax), %edx
 318 0021 488B45F8 		movq	-8(%rbp), %rax
 319 0025 89900C02 		movl	%edx, 524(%rax)
 319      0000
  50:RecordingReporter.h ****         strcpy(lastFailedFile, test.filename);
 320              		.loc 4 50 0
 321 002b 488B45F0 		movq	-16(%rbp), %rax
 322 002f 488B4010 		movq	16(%rax), %rax
 323 0033 488B55F8 		movq	-8(%rbp), %rdx
 324 0037 4881C210 		addq	$528, %rdx
 324      020000
 325 003e 4889C6   		movq	%rax, %rsi
 326 0041 4889D7   		movq	%rdx, %rdi
 327 0044 E8000000 		call	strcpy
 327      00
  51:RecordingReporter.h ****         lastFailedLine = test.lineNumber;
 328              		.loc 4 51 0
 329 0049 488B45F0 		movq	-16(%rbp), %rax
 330 004d 8B5018   		movl	24(%rax), %edx
 331 0050 488B45F8 		movq	-8(%rbp), %rax
 332 0054 89901003 		movl	%edx, 784(%rax)
 332      0000
  52:RecordingReporter.h ****         strcpy(lastFailedSuite, test.suiteName);
 333              		.loc 4 52 0
 334 005a 488B45F0 		movq	-16(%rbp), %rax
 335 005e 488B00   		movq	(%rax), %rax
 336 0061 488B55F8 		movq	-8(%rbp), %rdx
 337 0065 4881C214 		addq	$788, %rdx
 337      030000
 338 006c 4889C6   		movq	%rax, %rsi
 339 006f 4889D7   		movq	%rdx, %rdi
 340 0072 E8000000 		call	strcpy
 340      00
  53:RecordingReporter.h ****         strcpy(lastFailedTest, test.testName);
 341              		.loc 4 53 0
 342 0077 488B45F0 		movq	-16(%rbp), %rax
 343 007b 488B4008 		movq	8(%rax), %rax
 344 007f 488B55F8 		movq	-8(%rbp), %rdx
 345 0083 4881C214 		addq	$1044, %rdx
 345      040000
 346 008a 4889C6   		movq	%rax, %rsi
 347 008d 4889D7   		movq	%rdx, %rdi
 348 0090 E8000000 		call	strcpy
 348      00
  54:RecordingReporter.h ****         strcpy(lastFailedMessage, failure);
 349              		.loc 4 54 0
 350 0095 488B45F8 		movq	-8(%rbp), %rax
 351 0099 488D9014 		leaq	1300(%rax), %rdx
 351      050000
 352 00a0 488B45E8 		movq	-24(%rbp), %rax
 353 00a4 4889C6   		movq	%rax, %rsi
 354 00a7 4889D7   		movq	%rdx, %rdi
 355 00aa E8000000 		call	strcpy
 355      00
  55:RecordingReporter.h ****     }
 356              		.loc 4 55 0
 357 00af 90       		nop
 358 00b0 C9       		leave
 359              		.cfi_def_cfa 7, 8
 360 00b1 C3       		ret
 361              		.cfi_endproc
 362              	.LFE1076:
 364              		.section	.text._ZN17RecordingReporter16ReportTestFinishERKN8UnitTest11TestDetailsEf,"axG",@progbit
 365              		.align 2
 366              		.weak	_ZN17RecordingReporter16ReportTestFinishERKN8UnitTest11TestDetailsEf
 368              	_ZN17RecordingReporter16ReportTestFinishERKN8UnitTest11TestDetailsEf:
 369              	.LFB1077:
  56:RecordingReporter.h **** 
  57:RecordingReporter.h ****     virtual void ReportTestFinish(UnitTest::TestDetails const& test, float testDuration)
 370              		.loc 4 57 0
 371              		.cfi_startproc
 372 0000 55       		pushq	%rbp
 373              		.cfi_def_cfa_offset 16
 374              		.cfi_offset 6, -16
 375 0001 4889E5   		movq	%rsp, %rbp
 376              		.cfi_def_cfa_register 6
 377 0004 4883EC20 		subq	$32, %rsp
 378 0008 48897DF8 		movq	%rdi, -8(%rbp)
 379 000c 488975F0 		movq	%rsi, -16(%rbp)
 380 0010 F30F1145 		movss	%xmm0, -20(%rbp)
 380      EC
  58:RecordingReporter.h ****     {
  59:RecordingReporter.h **** 		using namespace std;
  60:RecordingReporter.h **** 
  61:RecordingReporter.h **** 		++testFinishedCount;
 381              		.loc 4 61 0
 382 0015 488B45F8 		movq	-8(%rbp), %rax
 383 0019 8B801406 		movl	1556(%rax), %eax
 383      0000
 384 001f 8D5001   		leal	1(%rax), %edx
 385 0022 488B45F8 		movq	-8(%rbp), %rax
 386 0026 89901406 		movl	%edx, 1556(%rax)
 386      0000
  62:RecordingReporter.h ****         strcpy(lastFinishedSuite, test.suiteName);
 387              		.loc 4 62 0
 388 002c 488B45F0 		movq	-16(%rbp), %rax
 389 0030 488B00   		movq	(%rax), %rax
 390 0033 488B55F8 		movq	-8(%rbp), %rdx
 391 0037 4881C218 		addq	$1560, %rdx
 391      060000
 392 003e 4889C6   		movq	%rax, %rsi
 393 0041 4889D7   		movq	%rdx, %rdi
 394 0044 E8000000 		call	strcpy
 394      00
  63:RecordingReporter.h ****         strcpy(lastFinishedTest, test.testName);
 395              		.loc 4 63 0
 396 0049 488B45F0 		movq	-16(%rbp), %rax
 397 004d 488B4008 		movq	8(%rax), %rax
 398 0051 488B55F8 		movq	-8(%rbp), %rdx
 399 0055 4881C218 		addq	$1816, %rdx
 399      070000
 400 005c 4889C6   		movq	%rax, %rsi
 401 005f 4889D7   		movq	%rdx, %rdi
 402 0062 E8000000 		call	strcpy
 402      00
  64:RecordingReporter.h ****         lastFinishedTestTime = testDuration;
 403              		.loc 4 64 0
 404 0067 488B45F8 		movq	-8(%rbp), %rax
 405 006b F30F1045 		movss	-20(%rbp), %xmm0
 405      EC
 406 0070 F30F1180 		movss	%xmm0, 2072(%rax)
 406      18080000 
  65:RecordingReporter.h ****     }
 407              		.loc 4 65 0
 408 0078 90       		nop
 409 0079 C9       		leave
 410              		.cfi_def_cfa 7, 8
 411 007a C3       		ret
 412              		.cfi_endproc
 413              	.LFE1077:
 415              		.section	.text._ZN17RecordingReporter13ReportSummaryEiiif,"axG",@progbits,_ZN17RecordingReporter13
 416              		.align 2
 417              		.weak	_ZN17RecordingReporter13ReportSummaryEiiif
 419              	_ZN17RecordingReporter13ReportSummaryEiiif:
 420              	.LFB1078:
  66:RecordingReporter.h **** 
  67:RecordingReporter.h ****     virtual void ReportSummary(int totalTestCount, int failedTestCount, int failureCount, float sec
 421              		.loc 4 67 0
 422              		.cfi_startproc
 423 0000 55       		pushq	%rbp
 424              		.cfi_def_cfa_offset 16
 425              		.cfi_offset 6, -16
 426 0001 4889E5   		movq	%rsp, %rbp
 427              		.cfi_def_cfa_register 6
 428 0004 48897DF8 		movq	%rdi, -8(%rbp)
 429 0008 8975F4   		movl	%esi, -12(%rbp)
 430 000b 8955F0   		movl	%edx, -16(%rbp)
 431 000e 894DEC   		movl	%ecx, -20(%rbp)
 432 0011 F30F1145 		movss	%xmm0, -24(%rbp)
 432      E8
  68:RecordingReporter.h ****     {
  69:RecordingReporter.h ****         summaryTotalTestCount = totalTestCount;
 433              		.loc 4 69 0
 434 0016 488B45F8 		movq	-8(%rbp), %rax
 435 001a 8B55F4   		movl	-12(%rbp), %edx
 436 001d 89901C08 		movl	%edx, 2076(%rax)
 436      0000
  70:RecordingReporter.h ****         summaryFailedTestCount = failedTestCount;
 437              		.loc 4 70 0
 438 0023 488B45F8 		movq	-8(%rbp), %rax
 439 0027 8B55F0   		movl	-16(%rbp), %edx
 440 002a 89902008 		movl	%edx, 2080(%rax)
 440      0000
  71:RecordingReporter.h ****         summaryFailureCount = failureCount;
 441              		.loc 4 71 0
 442 0030 488B45F8 		movq	-8(%rbp), %rax
 443 0034 8B55EC   		movl	-20(%rbp), %edx
 444 0037 89902408 		movl	%edx, 2084(%rax)
 444      0000
  72:RecordingReporter.h ****         summarySecondsElapsed = secondsElapsed;
 445              		.loc 4 72 0
 446 003d 488B45F8 		movq	-8(%rbp), %rax
 447 0041 F30F1045 		movss	-24(%rbp), %xmm0
 447      E8
 448 0046 F30F1180 		movss	%xmm0, 2088(%rax)
 448      28080000 
  73:RecordingReporter.h ****     }
 449              		.loc 4 73 0
 450 004e 90       		nop
 451 004f 5D       		popq	%rbp
 452              		.cfi_def_cfa 7, 8
 453 0050 C3       		ret
 454              		.cfi_endproc
 455              	.LFE1078:
 457              		.local	_ZN12_GLOBAL__N_1L7detailsE
 458              		.comm	_ZN12_GLOBAL__N_1L7detailsE,32,32
 459              		.section	.rodata
 460              	.LC2:
 461 000d 54657374 		.string	"TestTestResults.cpp"
 461      54657374 
 461      52657375 
 461      6C74732E 
 461      63707000 
 462              	.LC3:
 463 0021 53746172 		.string	"StartsWithNoTestsRun"
 463      74735769 
 463      74684E6F 
 463      54657374 
 463      7352756E 
 464              		.text
 465              		.align 2
 467              	_ZN12_GLOBAL__N_124TestStartsWithNoTestsRunC2Ev:
 468              	.LFB1080:
 469              		.file 5 "TestTestResults.cpp"
   1:TestTestResults.cpp **** #include "../UnitTest++.h"
   2:TestTestResults.cpp **** #include "../TestResults.h"
   3:TestTestResults.cpp **** #include "RecordingReporter.h"
   4:TestTestResults.cpp **** 
   5:TestTestResults.cpp **** using namespace UnitTest;
   6:TestTestResults.cpp **** 
   7:TestTestResults.cpp **** namespace {
   8:TestTestResults.cpp **** 
   9:TestTestResults.cpp **** TestDetails const details("testname", "suitename", "filename", 123);
  10:TestTestResults.cpp **** 
  11:TestTestResults.cpp **** 
  12:TestTestResults.cpp **** TEST(StartsWithNoTestsRun)
 470              		.loc 5 12 0
 471              		.cfi_startproc
 472 0000 55       		pushq	%rbp
 473              		.cfi_def_cfa_offset 16
 474              		.cfi_offset 6, -16
 475 0001 4889E5   		movq	%rsp, %rbp
 476              		.cfi_def_cfa_register 6
 477 0004 4883EC10 		subq	$16, %rsp
 478 0008 48897DF8 		movq	%rdi, -8(%rbp)
 479              	.LBB6:
 480              		.loc 5 12 0
 481 000c E8000000 		call	_ZN13UnitTestSuite12GetSuiteNameEv
 481      00
 482 0011 4889C2   		movq	%rax, %rdx
 483 0014 488B45F8 		movq	-8(%rbp), %rax
 484 0018 41B80C00 		movl	$12, %r8d
 484      0000
 485 001e B9000000 		movl	$.LC2, %ecx
 485      00
 486 0023 BE000000 		movl	$.LC3, %esi
 486      00
 487 0028 4889C7   		movq	%rax, %rdi
 488 002b E8000000 		call	_ZN8UnitTest4TestC2EPKcS2_S2_i
 488      00
 489 0030 BA000000 		movl	$_ZTVN12_GLOBAL__N_124TestStartsWithNoTestsRunE+16, %edx
 489      00
 490 0035 488B45F8 		movq	-8(%rbp), %rax
 491 0039 488910   		movq	%rdx, (%rax)
 492              	.LBE6:
 493 003c 90       		nop
 494 003d C9       		leave
 495              		.cfi_def_cfa 7, 8
 496 003e C3       		ret
 497              		.cfi_endproc
 498              	.LFE1080:
 500              		.set	_ZN12_GLOBAL__N_124TestStartsWithNoTestsRunC1Ev,_ZN12_GLOBAL__N_124TestStartsWithNoTestsRunC2
 501              		.local	_ZN12_GLOBAL__N_132testStartsWithNoTestsRunInstanceE
 502              		.comm	_ZN12_GLOBAL__N_132testStartsWithNoTestsRunInstanceE,56,32
 503              		.local	_ZN12_GLOBAL__N_125adderStartsWithNoTestsRunE
 504              		.comm	_ZN12_GLOBAL__N_125adderStartsWithNoTestsRunE,1,1
 505              		.section	.rodata
 506 0036 0000     		.align 8
 507              	.LC4:
 508 0038 556E6861 		.string	"Unhandled exception in CHECK_EQUAL(0, results.GetTotalTestCount())"
 508      6E646C65 
 508      64206578 
 508      63657074 
 508      696F6E20 
 509              		.text
 510 003f 90       		.align 2
 512              	_ZNK12_GLOBAL__N_124TestStartsWithNoTestsRun7RunImplEv:
 513              	.LFB1082:
  13:TestTestResults.cpp **** {
 514              		.loc 5 13 0
 515              		.cfi_startproc
 516              		.cfi_personality 0x3,__gxx_personality_v0
 517              		.cfi_lsda 0x3,.LLSDA1082
 518 0040 55       		pushq	%rbp
 519              		.cfi_def_cfa_offset 16
 520              		.cfi_offset 6, -16
 521 0041 4889E5   		movq	%rsp, %rbp
 522              		.cfi_def_cfa_register 6
 523 0044 53       		pushq	%rbx
 524 0045 4883EC78 		subq	$120, %rsp
 525              		.cfi_offset 3, -24
 526 0049 48897D88 		movq	%rdi, -120(%rbp)
 527              		.loc 5 13 0
 528 004d 64488B04 		movq	%fs:40, %rax
 528      25280000 
 528      00
 529 0056 488945E8 		movq	%rax, -24(%rbp)
 530 005a 31C0     		xorl	%eax, %eax
  14:TestTestResults.cpp ****     TestResults results;
 531              		.loc 5 14 0
 532 005c 488D45A0 		leaq	-96(%rbp), %rax
 533 0060 BE000000 		movl	$0, %esi
 533      00
 534 0065 4889C7   		movq	%rax, %rdi
 535              	.LEHB4:
 536 0068 E8000000 		call	_ZN8UnitTest11TestResultsC1EPNS_12TestReporterE
 536      00
 537              	.LEHE4:
 538              	.LEHB5:
  15:TestTestResults.cpp ****     CHECK_EQUAL (0, results.GetTotalTestCount());
 539              		.loc 5 15 0
 540 006d E8000000 		call	_ZN8UnitTest11CurrentTest7DetailsEv
 540      00
 541 0072 488B08   		movq	(%rax), %rcx
 542 0075 488D45C0 		leaq	-64(%rbp), %rax
 543 0079 BA0F0000 		movl	$15, %edx
 543      00
 544 007e 4889CE   		movq	%rcx, %rsi
 545 0081 4889C7   		movq	%rax, %rdi
 546 0084 E8000000 		call	_ZN8UnitTest11TestDetailsC1ERKS0_i
 546      00
 547              		.loc 5 15 0 is_stmt 0 discriminator 2
 548 0089 488D45A0 		leaq	-96(%rbp), %rax
 549 008d 4889C7   		movq	%rax, %rdi
 550 0090 E8000000 		call	_ZNK8UnitTest11TestResults17GetTotalTestCountEv
 550      00
 551              	.LEHE5:
 552 0095 89459C   		movl	%eax, -100(%rbp)
 553 0098 C7459800 		movl	$0, -104(%rbp)
 553      000000
 554              	.LEHB6:
 555 009f E8000000 		call	_ZN8UnitTest11CurrentTest7ResultsEv
 555      00
 556              		.loc 5 15 0 discriminator 4
 557 00a4 488B00   		movq	(%rax), %rax
 558 00a7 488D4DC0 		leaq	-64(%rbp), %rcx
 559 00ab 488D559C 		leaq	-100(%rbp), %rdx
 560 00af 488D7598 		leaq	-104(%rbp), %rsi
 561 00b3 4889C7   		movq	%rax, %rdi
 562 00b6 E8000000 		call	_ZN8UnitTest10CheckEqualIiiEEvRNS_11TestResultsERKT_RKT0_RKNS_11TestDetailsE
 562      00
 563              	.LEHE6:
  16:TestTestResults.cpp **** }
 564              		.loc 5 16 0 is_stmt 1
 565 00bb EB5C     		jmp	.L17
 566              	.L24:
 567 00bd EB00     		jmp	.L19
 568              	.L23:
 569              	.L19:
  15:TestTestResults.cpp ****     CHECK_EQUAL (0, results.GetTotalTestCount());
 570              		.loc 5 15 0
 571 00bf 4889C7   		movq	%rax, %rdi
 572 00c2 E8000000 		call	__cxa_begin_catch
 572      00
 573              	.LEHB7:
 574 00c7 E8000000 		call	_ZN8UnitTest11CurrentTest7DetailsEv
 574      00
 575 00cc 488B08   		movq	(%rax), %rcx
 576 00cf 488D45C0 		leaq	-64(%rbp), %rax
 577 00d3 BA0F0000 		movl	$15, %edx
 577      00
 578 00d8 4889CE   		movq	%rcx, %rsi
 579 00db 4889C7   		movq	%rax, %rdi
 580 00de E8000000 		call	_ZN8UnitTest11TestDetailsC1ERKS0_i
 580      00
  15:TestTestResults.cpp ****     CHECK_EQUAL (0, results.GetTotalTestCount());
 581              		.loc 5 15 0 is_stmt 0 discriminator 12
 582 00e3 E8000000 		call	_ZN8UnitTest11CurrentTest7ResultsEv
 582      00
 583 00e8 488B00   		movq	(%rax), %rax
 584 00eb 488D4DC0 		leaq	-64(%rbp), %rcx
 585 00ef BA000000 		movl	$.LC4, %edx
 585      00
 586 00f4 4889CE   		movq	%rcx, %rsi
 587 00f7 4889C7   		movq	%rax, %rdi
 588 00fa E8000000 		call	_ZN8UnitTest11TestResults13OnTestFailureERKNS_11TestDetailsEPKc
 588      00
 589              	.LEHE7:
 590              	.LEHB8:
  15:TestTestResults.cpp ****     CHECK_EQUAL (0, results.GetTotalTestCount());
 591              		.loc 5 15 0 discriminator 16
 592 00ff E8000000 		call	__cxa_end_catch
 592      00
 593              	.LEHE8:
 594              		.loc 5 16 0 is_stmt 1 discriminator 16
 595 0104 EB13     		jmp	.L17
 596              	.L25:
 597 0106 4889C3   		movq	%rax, %rbx
  15:TestTestResults.cpp ****     CHECK_EQUAL (0, results.GetTotalTestCount());
 598              		.loc 5 15 0
 599 0109 E8000000 		call	__cxa_end_catch
 599      00
 600 010e 4889D8   		movq	%rbx, %rax
 601 0111 4889C7   		movq	%rax, %rdi
 602              	.LEHB9:
 603 0114 E8000000 		call	_Unwind_Resume
 603      00
 604              	.LEHE9:
 605              	.L17:
 606              		.loc 5 16 0
 607 0119 488B45E8 		movq	-24(%rbp), %rax
 608 011d 64483304 		xorq	%fs:40, %rax
 608      25280000 
 608      00
 609 0126 7405     		je	.L22
 610 0128 E8000000 		call	__stack_chk_fail
 610      00
 611              	.L22:
 612 012d 4883C478 		addq	$120, %rsp
 613 0131 5B       		popq	%rbx
 614 0132 5D       		popq	%rbp
 615              		.cfi_def_cfa 7, 8
 616 0133 C3       		ret
 617              		.cfi_endproc
 618              	.LFE1082:
 619              		.section	.gcc_except_table,"a",@progbits
 620              		.align 4
 621              	.LLSDA1082:
 622 0000 FF       		.byte	0xff
 623 0001 03       		.byte	0x3
 624 0002 29       		.uleb128 .LLSDATT1082-.LLSDATTD1082
 625              	.LLSDATTD1082:
 626 0003 01       		.byte	0x1
 627 0004 1C       		.uleb128 .LLSDACSE1082-.LLSDACSB1082
 628              	.LLSDACSB1082:
 629 0005 28       		.uleb128 .LEHB4-.LFB1082
 630 0006 05       		.uleb128 .LEHE4-.LEHB4
 631 0007 00       		.uleb128 0
 632 0008 00       		.uleb128 0
 633 0009 2D       		.uleb128 .LEHB5-.LFB1082
 634 000a 28       		.uleb128 .LEHE5-.LEHB5
 635 000b 7F       		.uleb128 .L23-.LFB1082
 636 000c 01       		.uleb128 0x1
 637 000d 5F       		.uleb128 .LEHB6-.LFB1082
 638 000e 1C       		.uleb128 .LEHE6-.LEHB6
 639 000f 7D       		.uleb128 .L24-.LFB1082
 640 0010 03       		.uleb128 0x3
 641 0011 8701     		.uleb128 .LEHB7-.LFB1082
 642 0013 38       		.uleb128 .LEHE7-.LEHB7
 643 0014 C601     		.uleb128 .L25-.LFB1082
 644 0016 00       		.uleb128 0
 645 0017 BF01     		.uleb128 .LEHB8-.LFB1082
 646 0019 05       		.uleb128 .LEHE8-.LEHB8
 647 001a 00       		.uleb128 0
 648 001b 00       		.uleb128 0
 649 001c D401     		.uleb128 .LEHB9-.LFB1082
 650 001e 05       		.uleb128 .LEHE9-.LEHB9
 651 001f 00       		.uleb128 0
 652 0020 00       		.uleb128 0
 653              	.LLSDACSE1082:
 654 0021 01       		.byte	0x1
 655 0022 00       		.byte	0
 656 0023 00       		.byte	0
 657 0024 7D       		.byte	0x7d
 658 0025 000000   		.align 4
 659 0028 00000000 		.long	0
 660              	
 661              	.LLSDATT1082:
 662              		.text
 664              		.section	.rodata
 665              	.LC5:
 666 007b 5265636F 		.string	"RecordsNumbersOfTests"
 666      7264734E 
 666      756D6265 
 666      72734F66 
 666      54657374 
 667              		.text
 668              		.align 2
 670              	_ZN12_GLOBAL__N_125TestRecordsNumbersOfTestsC2Ev:
 671              	.LFB1084:
  17:TestTestResults.cpp **** 
  18:TestTestResults.cpp **** TEST(RecordsNumbersOfTests)
 672              		.loc 5 18 0
 673              		.cfi_startproc
 674 0134 55       		pushq	%rbp
 675              		.cfi_def_cfa_offset 16
 676              		.cfi_offset 6, -16
 677 0135 4889E5   		movq	%rsp, %rbp
 678              		.cfi_def_cfa_register 6
 679 0138 4883EC10 		subq	$16, %rsp
 680 013c 48897DF8 		movq	%rdi, -8(%rbp)
 681              	.LBB7:
 682              		.loc 5 18 0
 683 0140 E8000000 		call	_ZN13UnitTestSuite12GetSuiteNameEv
 683      00
 684 0145 4889C2   		movq	%rax, %rdx
 685 0148 488B45F8 		movq	-8(%rbp), %rax
 686 014c 41B81200 		movl	$18, %r8d
 686      0000
 687 0152 B9000000 		movl	$.LC2, %ecx
 687      00
 688 0157 BE000000 		movl	$.LC5, %esi
 688      00
 689 015c 4889C7   		movq	%rax, %rdi
 690 015f E8000000 		call	_ZN8UnitTest4TestC2EPKcS2_S2_i
 690      00
 691 0164 BA000000 		movl	$_ZTVN12_GLOBAL__N_125TestRecordsNumbersOfTestsE+16, %edx
 691      00
 692 0169 488B45F8 		movq	-8(%rbp), %rax
 693 016d 488910   		movq	%rdx, (%rax)
 694              	.LBE7:
 695 0170 90       		nop
 696 0171 C9       		leave
 697              		.cfi_def_cfa 7, 8
 698 0172 C3       		ret
 699              		.cfi_endproc
 700              	.LFE1084:
 702              		.set	_ZN12_GLOBAL__N_125TestRecordsNumbersOfTestsC1Ev,_ZN12_GLOBAL__N_125TestRecordsNumbersOfTests
 703              		.local	_ZN12_GLOBAL__N_133testRecordsNumbersOfTestsInstanceE
 704              		.comm	_ZN12_GLOBAL__N_133testRecordsNumbersOfTestsInstanceE,56,32
 705              		.local	_ZN12_GLOBAL__N_126adderRecordsNumbersOfTestsE
 706              		.comm	_ZN12_GLOBAL__N_126adderRecordsNumbersOfTestsE,1,1
 707              		.section	.rodata
 708 0091 00000000 		.align 8
 708      000000
 709              	.LC6:
 710 0098 556E6861 		.string	"Unhandled exception in CHECK_EQUAL(3, results.GetTotalTestCount())"
 710      6E646C65 
 710      64206578 
 710      63657074 
 710      696F6E20 
 711              		.text
 712 0173 90       		.align 2
 714              	_ZNK12_GLOBAL__N_125TestRecordsNumbersOfTests7RunImplEv:
 715              	.LFB1086:
  19:TestTestResults.cpp **** {
 716              		.loc 5 19 0
 717              		.cfi_startproc
 718              		.cfi_personality 0x3,__gxx_personality_v0
 719              		.cfi_lsda 0x3,.LLSDA1086
 720 0174 55       		pushq	%rbp
 721              		.cfi_def_cfa_offset 16
 722              		.cfi_offset 6, -16
 723 0175 4889E5   		movq	%rsp, %rbp
 724              		.cfi_def_cfa_register 6
 725 0178 53       		pushq	%rbx
 726 0179 4883EC78 		subq	$120, %rsp
 727              		.cfi_offset 3, -24
 728 017d 48897D88 		movq	%rdi, -120(%rbp)
 729              		.loc 5 19 0
 730 0181 64488B04 		movq	%fs:40, %rax
 730      25280000 
 730      00
 731 018a 488945E8 		movq	%rax, -24(%rbp)
 732 018e 31C0     		xorl	%eax, %eax
  20:TestTestResults.cpp ****     TestResults results;
 733              		.loc 5 20 0
 734 0190 488D45A0 		leaq	-96(%rbp), %rax
 735 0194 BE000000 		movl	$0, %esi
 735      00
 736 0199 4889C7   		movq	%rax, %rdi
 737              	.LEHB10:
 738 019c E8000000 		call	_ZN8UnitTest11TestResultsC1EPNS_12TestReporterE
 738      00
  21:TestTestResults.cpp ****     results.OnTestStart(details);
 739              		.loc 5 21 0
 740 01a1 488D45A0 		leaq	-96(%rbp), %rax
 741 01a5 BE000000 		movl	$_ZN12_GLOBAL__N_1L7detailsE, %esi
 741      00
 742 01aa 4889C7   		movq	%rax, %rdi
 743 01ad E8000000 		call	_ZN8UnitTest11TestResults11OnTestStartERKNS_11TestDetailsE
 743      00
  22:TestTestResults.cpp ****     results.OnTestStart(details);
 744              		.loc 5 22 0
 745 01b2 488D45A0 		leaq	-96(%rbp), %rax
 746 01b6 BE000000 		movl	$_ZN12_GLOBAL__N_1L7detailsE, %esi
 746      00
 747 01bb 4889C7   		movq	%rax, %rdi
 748 01be E8000000 		call	_ZN8UnitTest11TestResults11OnTestStartERKNS_11TestDetailsE
 748      00
  23:TestTestResults.cpp ****     results.OnTestStart(details);
 749              		.loc 5 23 0
 750 01c3 488D45A0 		leaq	-96(%rbp), %rax
 751 01c7 BE000000 		movl	$_ZN12_GLOBAL__N_1L7detailsE, %esi
 751      00
 752 01cc 4889C7   		movq	%rax, %rdi
 753 01cf E8000000 		call	_ZN8UnitTest11TestResults11OnTestStartERKNS_11TestDetailsE
 753      00
 754              	.LEHE10:
 755              	.LEHB11:
  24:TestTestResults.cpp ****     CHECK_EQUAL(3, results.GetTotalTestCount());
 756              		.loc 5 24 0
 757 01d4 E8000000 		call	_ZN8UnitTest11CurrentTest7DetailsEv
 757      00
 758 01d9 488B08   		movq	(%rax), %rcx
 759 01dc 488D45C0 		leaq	-64(%rbp), %rax
 760 01e0 BA180000 		movl	$24, %edx
 760      00
 761 01e5 4889CE   		movq	%rcx, %rsi
 762 01e8 4889C7   		movq	%rax, %rdi
 763 01eb E8000000 		call	_ZN8UnitTest11TestDetailsC1ERKS0_i
 763      00
 764              		.loc 5 24 0 is_stmt 0 discriminator 2
 765 01f0 488D45A0 		leaq	-96(%rbp), %rax
 766 01f4 4889C7   		movq	%rax, %rdi
 767 01f7 E8000000 		call	_ZNK8UnitTest11TestResults17GetTotalTestCountEv
 767      00
 768              	.LEHE11:
 769 01fc 89459C   		movl	%eax, -100(%rbp)
 770 01ff C7459803 		movl	$3, -104(%rbp)
 770      000000
 771              	.LEHB12:
 772 0206 E8000000 		call	_ZN8UnitTest11CurrentTest7ResultsEv
 772      00
 773              		.loc 5 24 0 discriminator 4
 774 020b 488B00   		movq	(%rax), %rax
 775 020e 488D4DC0 		leaq	-64(%rbp), %rcx
 776 0212 488D559C 		leaq	-100(%rbp), %rdx
 777 0216 488D7598 		leaq	-104(%rbp), %rsi
 778 021a 4889C7   		movq	%rax, %rdi
 779 021d E8000000 		call	_ZN8UnitTest10CheckEqualIiiEEvRNS_11TestResultsERKT_RKT0_RKNS_11TestDetailsE
 779      00
 780              	.LEHE12:
  25:TestTestResults.cpp **** }
 781              		.loc 5 25 0 is_stmt 1
 782 0222 EB5C     		jmp	.L27
 783              	.L34:
 784 0224 EB00     		jmp	.L29
 785              	.L33:
 786              	.L29:
  24:TestTestResults.cpp ****     CHECK_EQUAL(3, results.GetTotalTestCount());
 787              		.loc 5 24 0
 788 0226 4889C7   		movq	%rax, %rdi
 789 0229 E8000000 		call	__cxa_begin_catch
 789      00
 790              	.LEHB13:
 791 022e E8000000 		call	_ZN8UnitTest11CurrentTest7DetailsEv
 791      00
 792 0233 488B08   		movq	(%rax), %rcx
 793 0236 488D45C0 		leaq	-64(%rbp), %rax
 794 023a BA180000 		movl	$24, %edx
 794      00
 795 023f 4889CE   		movq	%rcx, %rsi
 796 0242 4889C7   		movq	%rax, %rdi
 797 0245 E8000000 		call	_ZN8UnitTest11TestDetailsC1ERKS0_i
 797      00
  24:TestTestResults.cpp ****     CHECK_EQUAL(3, results.GetTotalTestCount());
 798              		.loc 5 24 0 is_stmt 0 discriminator 12
 799 024a E8000000 		call	_ZN8UnitTest11CurrentTest7ResultsEv
 799      00
 800 024f 488B00   		movq	(%rax), %rax
 801 0252 488D4DC0 		leaq	-64(%rbp), %rcx
 802 0256 BA000000 		movl	$.LC6, %edx
 802      00
 803 025b 4889CE   		movq	%rcx, %rsi
 804 025e 4889C7   		movq	%rax, %rdi
 805 0261 E8000000 		call	_ZN8UnitTest11TestResults13OnTestFailureERKNS_11TestDetailsEPKc
 805      00
 806              	.LEHE13:
 807              	.LEHB14:
  24:TestTestResults.cpp ****     CHECK_EQUAL(3, results.GetTotalTestCount());
 808              		.loc 5 24 0 discriminator 16
 809 0266 E8000000 		call	__cxa_end_catch
 809      00
 810              	.LEHE14:
 811              		.loc 5 25 0 is_stmt 1 discriminator 16
 812 026b EB13     		jmp	.L27
 813              	.L35:
 814 026d 4889C3   		movq	%rax, %rbx
  24:TestTestResults.cpp ****     CHECK_EQUAL(3, results.GetTotalTestCount());
 815              		.loc 5 24 0
 816 0270 E8000000 		call	__cxa_end_catch
 816      00
 817 0275 4889D8   		movq	%rbx, %rax
 818 0278 4889C7   		movq	%rax, %rdi
 819              	.LEHB15:
 820 027b E8000000 		call	_Unwind_Resume
 820      00
 821              	.LEHE15:
 822              	.L27:
 823              		.loc 5 25 0
 824 0280 488B45E8 		movq	-24(%rbp), %rax
 825 0284 64483304 		xorq	%fs:40, %rax
 825      25280000 
 825      00
 826 028d 7405     		je	.L32
 827 028f E8000000 		call	__stack_chk_fail
 827      00
 828              	.L32:
 829 0294 4883C478 		addq	$120, %rsp
 830 0298 5B       		popq	%rbx
 831 0299 5D       		popq	%rbp
 832              		.cfi_def_cfa 7, 8
 833 029a C3       		ret
 834              		.cfi_endproc
 835              	.LFE1086:
 836              		.section	.gcc_except_table
 837              		.align 4
 838              	.LLSDA1086:
 839 002c FF       		.byte	0xff
 840 002d 03       		.byte	0x3
 841 002e 29       		.uleb128 .LLSDATT1086-.LLSDATTD1086
 842              	.LLSDATTD1086:
 843 002f 01       		.byte	0x1
 844 0030 1F       		.uleb128 .LLSDACSE1086-.LLSDACSB1086
 845              	.LLSDACSB1086:
 846 0031 28       		.uleb128 .LEHB10-.LFB1086
 847 0032 38       		.uleb128 .LEHE10-.LEHB10
 848 0033 00       		.uleb128 0
 849 0034 00       		.uleb128 0
 850 0035 60       		.uleb128 .LEHB11-.LFB1086
 851 0036 28       		.uleb128 .LEHE11-.LEHB11
 852 0037 B201     		.uleb128 .L33-.LFB1086
 853 0039 01       		.uleb128 0x1
 854 003a 9201     		.uleb128 .LEHB12-.LFB1086
 855 003c 1C       		.uleb128 .LEHE12-.LEHB12
 856 003d B001     		.uleb128 .L34-.LFB1086
 857 003f 03       		.uleb128 0x3
 858 0040 BA01     		.uleb128 .LEHB13-.LFB1086
 859 0042 38       		.uleb128 .LEHE13-.LEHB13
 860 0043 F901     		.uleb128 .L35-.LFB1086
 861 0045 00       		.uleb128 0
 862 0046 F201     		.uleb128 .LEHB14-.LFB1086
 863 0048 05       		.uleb128 .LEHE14-.LEHB14
 864 0049 00       		.uleb128 0
 865 004a 00       		.uleb128 0
 866 004b 8702     		.uleb128 .LEHB15-.LFB1086
 867 004d 05       		.uleb128 .LEHE15-.LEHB15
 868 004e 00       		.uleb128 0
 869 004f 00       		.uleb128 0
 870              	.LLSDACSE1086:
 871 0050 01       		.byte	0x1
 872 0051 00       		.byte	0
 873 0052 00       		.byte	0
 874 0053 7D       		.byte	0x7d
 875              		.align 4
 876 0054 00000000 		.long	0
 877              	
 878              	.LLSDATT1086:
 879              		.text
 881              		.section	.rodata
 882              	.LC7:
 883 00db 53746172 		.string	"StartsWithNoTestsFailing"
 883      74735769 
 883      74684E6F 
 883      54657374 
 883      73466169 
 884              		.text
 885 029b 90       		.align 2
 887              	_ZN12_GLOBAL__N_128TestStartsWithNoTestsFailingC2Ev:
 888              	.LFB1088:
  26:TestTestResults.cpp **** 
  27:TestTestResults.cpp **** TEST(StartsWithNoTestsFailing)
 889              		.loc 5 27 0
 890              		.cfi_startproc
 891 029c 55       		pushq	%rbp
 892              		.cfi_def_cfa_offset 16
 893              		.cfi_offset 6, -16
 894 029d 4889E5   		movq	%rsp, %rbp
 895              		.cfi_def_cfa_register 6
 896 02a0 4883EC10 		subq	$16, %rsp
 897 02a4 48897DF8 		movq	%rdi, -8(%rbp)
 898              	.LBB8:
 899              		.loc 5 27 0
 900 02a8 E8000000 		call	_ZN13UnitTestSuite12GetSuiteNameEv
 900      00
 901 02ad 4889C2   		movq	%rax, %rdx
 902 02b0 488B45F8 		movq	-8(%rbp), %rax
 903 02b4 41B81B00 		movl	$27, %r8d
 903      0000
 904 02ba B9000000 		movl	$.LC2, %ecx
 904      00
 905 02bf BE000000 		movl	$.LC7, %esi
 905      00
 906 02c4 4889C7   		movq	%rax, %rdi
 907 02c7 E8000000 		call	_ZN8UnitTest4TestC2EPKcS2_S2_i
 907      00
 908 02cc BA000000 		movl	$_ZTVN12_GLOBAL__N_128TestStartsWithNoTestsFailingE+16, %edx
 908      00
 909 02d1 488B45F8 		movq	-8(%rbp), %rax
 910 02d5 488910   		movq	%rdx, (%rax)
 911              	.LBE8:
 912 02d8 90       		nop
 913 02d9 C9       		leave
 914              		.cfi_def_cfa 7, 8
 915 02da C3       		ret
 916              		.cfi_endproc
 917              	.LFE1088:
 919              		.set	_ZN12_GLOBAL__N_128TestStartsWithNoTestsFailingC1Ev,_ZN12_GLOBAL__N_128TestStartsWithNoTestsF
 920              		.local	_ZN12_GLOBAL__N_136testStartsWithNoTestsFailingInstanceE
 921              		.comm	_ZN12_GLOBAL__N_136testStartsWithNoTestsFailingInstanceE,56,32
 922              		.local	_ZN12_GLOBAL__N_129adderStartsWithNoTestsFailingE
 923              		.comm	_ZN12_GLOBAL__N_129adderStartsWithNoTestsFailingE,1,1
 924              		.section	.rodata
 925 00f4 00000000 		.align 8
 926              	.LC8:
 927 00f8 556E6861 		.string	"Unhandled exception in CHECK_EQUAL(0, results.GetFailureCount())"
 927      6E646C65 
 927      64206578 
 927      63657074 
 927      696F6E20 
 928              		.text
 929 02db 90       		.align 2
 931              	_ZNK12_GLOBAL__N_128TestStartsWithNoTestsFailing7RunImplEv:
 932              	.LFB1090:
  28:TestTestResults.cpp **** {
 933              		.loc 5 28 0
 934              		.cfi_startproc
 935              		.cfi_personality 0x3,__gxx_personality_v0
 936              		.cfi_lsda 0x3,.LLSDA1090
 937 02dc 55       		pushq	%rbp
 938              		.cfi_def_cfa_offset 16
 939              		.cfi_offset 6, -16
 940 02dd 4889E5   		movq	%rsp, %rbp
 941              		.cfi_def_cfa_register 6
 942 02e0 53       		pushq	%rbx
 943 02e1 4883EC78 		subq	$120, %rsp
 944              		.cfi_offset 3, -24
 945 02e5 48897D88 		movq	%rdi, -120(%rbp)
 946              		.loc 5 28 0
 947 02e9 64488B04 		movq	%fs:40, %rax
 947      25280000 
 947      00
 948 02f2 488945E8 		movq	%rax, -24(%rbp)
 949 02f6 31C0     		xorl	%eax, %eax
  29:TestTestResults.cpp ****     TestResults results;
 950              		.loc 5 29 0
 951 02f8 488D45A0 		leaq	-96(%rbp), %rax
 952 02fc BE000000 		movl	$0, %esi
 952      00
 953 0301 4889C7   		movq	%rax, %rdi
 954              	.LEHB16:
 955 0304 E8000000 		call	_ZN8UnitTest11TestResultsC1EPNS_12TestReporterE
 955      00
 956              	.LEHE16:
 957              	.LEHB17:
  30:TestTestResults.cpp ****     CHECK_EQUAL (0, results.GetFailureCount());
 958              		.loc 5 30 0
 959 0309 E8000000 		call	_ZN8UnitTest11CurrentTest7DetailsEv
 959      00
 960 030e 488B08   		movq	(%rax), %rcx
 961 0311 488D45C0 		leaq	-64(%rbp), %rax
 962 0315 BA1E0000 		movl	$30, %edx
 962      00
 963 031a 4889CE   		movq	%rcx, %rsi
 964 031d 4889C7   		movq	%rax, %rdi
 965 0320 E8000000 		call	_ZN8UnitTest11TestDetailsC1ERKS0_i
 965      00
 966              		.loc 5 30 0 is_stmt 0 discriminator 2
 967 0325 488D45A0 		leaq	-96(%rbp), %rax
 968 0329 4889C7   		movq	%rax, %rdi
 969 032c E8000000 		call	_ZNK8UnitTest11TestResults15GetFailureCountEv
 969      00
 970              	.LEHE17:
 971 0331 89459C   		movl	%eax, -100(%rbp)
 972 0334 C7459800 		movl	$0, -104(%rbp)
 972      000000
 973              	.LEHB18:
 974 033b E8000000 		call	_ZN8UnitTest11CurrentTest7ResultsEv
 974      00
 975              		.loc 5 30 0 discriminator 4
 976 0340 488B00   		movq	(%rax), %rax
 977 0343 488D4DC0 		leaq	-64(%rbp), %rcx
 978 0347 488D559C 		leaq	-100(%rbp), %rdx
 979 034b 488D7598 		leaq	-104(%rbp), %rsi
 980 034f 4889C7   		movq	%rax, %rdi
 981 0352 E8000000 		call	_ZN8UnitTest10CheckEqualIiiEEvRNS_11TestResultsERKT_RKT0_RKNS_11TestDetailsE
 981      00
 982              	.LEHE18:
  31:TestTestResults.cpp **** }
 983              		.loc 5 31 0 is_stmt 1
 984 0357 EB5C     		jmp	.L37
 985              	.L44:
 986 0359 EB00     		jmp	.L39
 987              	.L43:
 988              	.L39:
  30:TestTestResults.cpp ****     CHECK_EQUAL (0, results.GetFailureCount());
 989              		.loc 5 30 0
 990 035b 4889C7   		movq	%rax, %rdi
 991 035e E8000000 		call	__cxa_begin_catch
 991      00
 992              	.LEHB19:
 993 0363 E8000000 		call	_ZN8UnitTest11CurrentTest7DetailsEv
 993      00
 994 0368 488B08   		movq	(%rax), %rcx
 995 036b 488D45C0 		leaq	-64(%rbp), %rax
 996 036f BA1E0000 		movl	$30, %edx
 996      00
 997 0374 4889CE   		movq	%rcx, %rsi
 998 0377 4889C7   		movq	%rax, %rdi
 999 037a E8000000 		call	_ZN8UnitTest11TestDetailsC1ERKS0_i
 999      00
  30:TestTestResults.cpp ****     CHECK_EQUAL (0, results.GetFailureCount());
 1000              		.loc 5 30 0 is_stmt 0 discriminator 12
 1001 037f E8000000 		call	_ZN8UnitTest11CurrentTest7ResultsEv
 1001      00
 1002 0384 488B00   		movq	(%rax), %rax
 1003 0387 488D4DC0 		leaq	-64(%rbp), %rcx
 1004 038b BA000000 		movl	$.LC8, %edx
 1004      00
 1005 0390 4889CE   		movq	%rcx, %rsi
 1006 0393 4889C7   		movq	%rax, %rdi
 1007 0396 E8000000 		call	_ZN8UnitTest11TestResults13OnTestFailureERKNS_11TestDetailsEPKc
 1007      00
 1008              	.LEHE19:
 1009              	.LEHB20:
  30:TestTestResults.cpp ****     CHECK_EQUAL (0, results.GetFailureCount());
 1010              		.loc 5 30 0 discriminator 16
 1011 039b E8000000 		call	__cxa_end_catch
 1011      00
 1012              	.LEHE20:
 1013              		.loc 5 31 0 is_stmt 1 discriminator 16
 1014 03a0 EB13     		jmp	.L37
 1015              	.L45:
 1016 03a2 4889C3   		movq	%rax, %rbx
  30:TestTestResults.cpp ****     CHECK_EQUAL (0, results.GetFailureCount());
 1017              		.loc 5 30 0
 1018 03a5 E8000000 		call	__cxa_end_catch
 1018      00
 1019 03aa 4889D8   		movq	%rbx, %rax
 1020 03ad 4889C7   		movq	%rax, %rdi
 1021              	.LEHB21:
 1022 03b0 E8000000 		call	_Unwind_Resume
 1022      00
 1023              	.LEHE21:
 1024              	.L37:
 1025              		.loc 5 31 0
 1026 03b5 488B45E8 		movq	-24(%rbp), %rax
 1027 03b9 64483304 		xorq	%fs:40, %rax
 1027      25280000 
 1027      00
 1028 03c2 7405     		je	.L42
 1029 03c4 E8000000 		call	__stack_chk_fail
 1029      00
 1030              	.L42:
 1031 03c9 4883C478 		addq	$120, %rsp
 1032 03cd 5B       		popq	%rbx
 1033 03ce 5D       		popq	%rbp
 1034              		.cfi_def_cfa 7, 8
 1035 03cf C3       		ret
 1036              		.cfi_endproc
 1037              	.LFE1090:
 1038              		.section	.gcc_except_table
 1039              		.align 4
 1040              	.LLSDA1090:
 1041 0058 FF       		.byte	0xff
 1042 0059 03       		.byte	0x3
 1043 005a 29       		.uleb128 .LLSDATT1090-.LLSDATTD1090
 1044              	.LLSDATTD1090:
 1045 005b 01       		.byte	0x1
 1046 005c 1C       		.uleb128 .LLSDACSE1090-.LLSDACSB1090
 1047              	.LLSDACSB1090:
 1048 005d 28       		.uleb128 .LEHB16-.LFB1090
 1049 005e 05       		.uleb128 .LEHE16-.LEHB16
 1050 005f 00       		.uleb128 0
 1051 0060 00       		.uleb128 0
 1052 0061 2D       		.uleb128 .LEHB17-.LFB1090
 1053 0062 28       		.uleb128 .LEHE17-.LEHB17
 1054 0063 7F       		.uleb128 .L43-.LFB1090
 1055 0064 01       		.uleb128 0x1
 1056 0065 5F       		.uleb128 .LEHB18-.LFB1090
 1057 0066 1C       		.uleb128 .LEHE18-.LEHB18
 1058 0067 7D       		.uleb128 .L44-.LFB1090
 1059 0068 03       		.uleb128 0x3
 1060 0069 8701     		.uleb128 .LEHB19-.LFB1090
 1061 006b 38       		.uleb128 .LEHE19-.LEHB19
 1062 006c C601     		.uleb128 .L45-.LFB1090
 1063 006e 00       		.uleb128 0
 1064 006f BF01     		.uleb128 .LEHB20-.LFB1090
 1065 0071 05       		.uleb128 .LEHE20-.LEHB20
 1066 0072 00       		.uleb128 0
 1067 0073 00       		.uleb128 0
 1068 0074 D401     		.uleb128 .LEHB21-.LFB1090
 1069 0076 05       		.uleb128 .LEHE21-.LEHB21
 1070 0077 00       		.uleb128 0
 1071 0078 00       		.uleb128 0
 1072              	.LLSDACSE1090:
 1073 0079 01       		.byte	0x1
 1074 007a 00       		.byte	0
 1075 007b 00       		.byte	0
 1076 007c 7D       		.byte	0x7d
 1077 007d 000000   		.align 4
 1078 0080 00000000 		.long	0
 1079              	
 1080              	.LLSDATT1090:
 1081              		.text
 1083              		.section	.rodata
 1084              	.LC9:
 1085 0139 5265636F 		.string	"RecordsNumberOfFailures"
 1085      7264734E 
 1085      756D6265 
 1085      724F6646 
 1085      61696C75 
 1086              		.text
 1087              		.align 2
 1089              	_ZN12_GLOBAL__N_127TestRecordsNumberOfFailuresC2Ev:
 1090              	.LFB1092:
  32:TestTestResults.cpp **** 
  33:TestTestResults.cpp **** TEST(RecordsNumberOfFailures)
 1091              		.loc 5 33 0
 1092              		.cfi_startproc
 1093 03d0 55       		pushq	%rbp
 1094              		.cfi_def_cfa_offset 16
 1095              		.cfi_offset 6, -16
 1096 03d1 4889E5   		movq	%rsp, %rbp
 1097              		.cfi_def_cfa_register 6
 1098 03d4 4883EC10 		subq	$16, %rsp
 1099 03d8 48897DF8 		movq	%rdi, -8(%rbp)
 1100              	.LBB9:
 1101              		.loc 5 33 0
 1102 03dc E8000000 		call	_ZN13UnitTestSuite12GetSuiteNameEv
 1102      00
 1103 03e1 4889C2   		movq	%rax, %rdx
 1104 03e4 488B45F8 		movq	-8(%rbp), %rax
 1105 03e8 41B82100 		movl	$33, %r8d
 1105      0000
 1106 03ee B9000000 		movl	$.LC2, %ecx
 1106      00
 1107 03f3 BE000000 		movl	$.LC9, %esi
 1107      00
 1108 03f8 4889C7   		movq	%rax, %rdi
 1109 03fb E8000000 		call	_ZN8UnitTest4TestC2EPKcS2_S2_i
 1109      00
 1110 0400 BA000000 		movl	$_ZTVN12_GLOBAL__N_127TestRecordsNumberOfFailuresE+16, %edx
 1110      00
 1111 0405 488B45F8 		movq	-8(%rbp), %rax
 1112 0409 488910   		movq	%rdx, (%rax)
 1113              	.LBE9:
 1114 040c 90       		nop
 1115 040d C9       		leave
 1116              		.cfi_def_cfa 7, 8
 1117 040e C3       		ret
 1118              		.cfi_endproc
 1119              	.LFE1092:
 1121              		.set	_ZN12_GLOBAL__N_127TestRecordsNumberOfFailuresC1Ev,_ZN12_GLOBAL__N_127TestRecordsNumberOfFail
 1122              		.local	_ZN12_GLOBAL__N_135testRecordsNumberOfFailuresInstanceE
 1123              		.comm	_ZN12_GLOBAL__N_135testRecordsNumberOfFailuresInstanceE,56,32
 1124              		.local	_ZN12_GLOBAL__N_128adderRecordsNumberOfFailuresE
 1125              		.comm	_ZN12_GLOBAL__N_128adderRecordsNumberOfFailuresE,1,1
 1126              		.section	.rodata
 1127              	.LC10:
 1128 0151 00       		.string	""
 1129 0152 00000000 		.align 8
 1129      0000
 1130              	.LC11:
 1131 0158 556E6861 		.string	"Unhandled exception in CHECK_EQUAL(2, results.GetFailureCount())"
 1131      6E646C65 
 1131      64206578 
 1131      63657074 
 1131      696F6E20 
 1132              		.text
 1133 040f 90       		.align 2
 1135              	_ZNK12_GLOBAL__N_127TestRecordsNumberOfFailures7RunImplEv:
 1136              	.LFB1094:
  34:TestTestResults.cpp **** {
 1137              		.loc 5 34 0
 1138              		.cfi_startproc
 1139              		.cfi_personality 0x3,__gxx_personality_v0
 1140              		.cfi_lsda 0x3,.LLSDA1094
 1141 0410 55       		pushq	%rbp
 1142              		.cfi_def_cfa_offset 16
 1143              		.cfi_offset 6, -16
 1144 0411 4889E5   		movq	%rsp, %rbp
 1145              		.cfi_def_cfa_register 6
 1146 0414 53       		pushq	%rbx
 1147 0415 4883EC78 		subq	$120, %rsp
 1148              		.cfi_offset 3, -24
 1149 0419 48897D88 		movq	%rdi, -120(%rbp)
 1150              		.loc 5 34 0
 1151 041d 64488B04 		movq	%fs:40, %rax
 1151      25280000 
 1151      00
 1152 0426 488945E8 		movq	%rax, -24(%rbp)
 1153 042a 31C0     		xorl	%eax, %eax
  35:TestTestResults.cpp ****     TestResults results;
 1154              		.loc 5 35 0
 1155 042c 488D45A0 		leaq	-96(%rbp), %rax
 1156 0430 BE000000 		movl	$0, %esi
 1156      00
 1157 0435 4889C7   		movq	%rax, %rdi
 1158              	.LEHB22:
 1159 0438 E8000000 		call	_ZN8UnitTest11TestResultsC1EPNS_12TestReporterE
 1159      00
  36:TestTestResults.cpp ****     results.OnTestFailure(details, "");
 1160              		.loc 5 36 0
 1161 043d 488D45A0 		leaq	-96(%rbp), %rax
 1162 0441 BA000000 		movl	$.LC10, %edx
 1162      00
 1163 0446 BE000000 		movl	$_ZN12_GLOBAL__N_1L7detailsE, %esi
 1163      00
 1164 044b 4889C7   		movq	%rax, %rdi
 1165 044e E8000000 		call	_ZN8UnitTest11TestResults13OnTestFailureERKNS_11TestDetailsEPKc
 1165      00
  37:TestTestResults.cpp ****     results.OnTestFailure(details, "");
 1166              		.loc 5 37 0
 1167 0453 488D45A0 		leaq	-96(%rbp), %rax
 1168 0457 BA000000 		movl	$.LC10, %edx
 1168      00
 1169 045c BE000000 		movl	$_ZN12_GLOBAL__N_1L7detailsE, %esi
 1169      00
 1170 0461 4889C7   		movq	%rax, %rdi
 1171 0464 E8000000 		call	_ZN8UnitTest11TestResults13OnTestFailureERKNS_11TestDetailsEPKc
 1171      00
 1172              	.LEHE22:
 1173              	.LEHB23:
  38:TestTestResults.cpp ****     CHECK_EQUAL(2, results.GetFailureCount());
 1174              		.loc 5 38 0
 1175 0469 E8000000 		call	_ZN8UnitTest11CurrentTest7DetailsEv
 1175      00
 1176 046e 488B08   		movq	(%rax), %rcx
 1177 0471 488D45C0 		leaq	-64(%rbp), %rax
 1178 0475 BA260000 		movl	$38, %edx
 1178      00
 1179 047a 4889CE   		movq	%rcx, %rsi
 1180 047d 4889C7   		movq	%rax, %rdi
 1181 0480 E8000000 		call	_ZN8UnitTest11TestDetailsC1ERKS0_i
 1181      00
 1182              		.loc 5 38 0 is_stmt 0 discriminator 2
 1183 0485 488D45A0 		leaq	-96(%rbp), %rax
 1184 0489 4889C7   		movq	%rax, %rdi
 1185 048c E8000000 		call	_ZNK8UnitTest11TestResults15GetFailureCountEv
 1185      00
 1186              	.LEHE23:
 1187 0491 89459C   		movl	%eax, -100(%rbp)
 1188 0494 C7459802 		movl	$2, -104(%rbp)
 1188      000000
 1189              	.LEHB24:
 1190 049b E8000000 		call	_ZN8UnitTest11CurrentTest7ResultsEv
 1190      00
 1191              		.loc 5 38 0 discriminator 4
 1192 04a0 488B00   		movq	(%rax), %rax
 1193 04a3 488D4DC0 		leaq	-64(%rbp), %rcx
 1194 04a7 488D559C 		leaq	-100(%rbp), %rdx
 1195 04ab 488D7598 		leaq	-104(%rbp), %rsi
 1196 04af 4889C7   		movq	%rax, %rdi
 1197 04b2 E8000000 		call	_ZN8UnitTest10CheckEqualIiiEEvRNS_11TestResultsERKT_RKT0_RKNS_11TestDetailsE
 1197      00
 1198              	.LEHE24:
  39:TestTestResults.cpp **** }
 1199              		.loc 5 39 0 is_stmt 1
 1200 04b7 EB5C     		jmp	.L47
 1201              	.L54:
 1202 04b9 EB00     		jmp	.L49
 1203              	.L53:
 1204              	.L49:
  38:TestTestResults.cpp ****     CHECK_EQUAL(2, results.GetFailureCount());
 1205              		.loc 5 38 0
 1206 04bb 4889C7   		movq	%rax, %rdi
 1207 04be E8000000 		call	__cxa_begin_catch
 1207      00
 1208              	.LEHB25:
 1209 04c3 E8000000 		call	_ZN8UnitTest11CurrentTest7DetailsEv
 1209      00
 1210 04c8 488B08   		movq	(%rax), %rcx
 1211 04cb 488D45C0 		leaq	-64(%rbp), %rax
 1212 04cf BA260000 		movl	$38, %edx
 1212      00
 1213 04d4 4889CE   		movq	%rcx, %rsi
 1214 04d7 4889C7   		movq	%rax, %rdi
 1215 04da E8000000 		call	_ZN8UnitTest11TestDetailsC1ERKS0_i
 1215      00
  38:TestTestResults.cpp ****     CHECK_EQUAL(2, results.GetFailureCount());
 1216              		.loc 5 38 0 is_stmt 0 discriminator 12
 1217 04df E8000000 		call	_ZN8UnitTest11CurrentTest7ResultsEv
 1217      00
 1218 04e4 488B00   		movq	(%rax), %rax
 1219 04e7 488D4DC0 		leaq	-64(%rbp), %rcx
 1220 04eb BA000000 		movl	$.LC11, %edx
 1220      00
 1221 04f0 4889CE   		movq	%rcx, %rsi
 1222 04f3 4889C7   		movq	%rax, %rdi
 1223 04f6 E8000000 		call	_ZN8UnitTest11TestResults13OnTestFailureERKNS_11TestDetailsEPKc
 1223      00
 1224              	.LEHE25:
 1225              	.LEHB26:
  38:TestTestResults.cpp ****     CHECK_EQUAL(2, results.GetFailureCount());
 1226              		.loc 5 38 0 discriminator 16
 1227 04fb E8000000 		call	__cxa_end_catch
 1227      00
 1228              	.LEHE26:
 1229              		.loc 5 39 0 is_stmt 1 discriminator 16
 1230 0500 EB13     		jmp	.L47
 1231              	.L55:
 1232 0502 4889C3   		movq	%rax, %rbx
  38:TestTestResults.cpp ****     CHECK_EQUAL(2, results.GetFailureCount());
 1233              		.loc 5 38 0
 1234 0505 E8000000 		call	__cxa_end_catch
 1234      00
 1235 050a 4889D8   		movq	%rbx, %rax
 1236 050d 4889C7   		movq	%rax, %rdi
 1237              	.LEHB27:
 1238 0510 E8000000 		call	_Unwind_Resume
 1238      00
 1239              	.LEHE27:
 1240              	.L47:
 1241              		.loc 5 39 0
 1242 0515 488B45E8 		movq	-24(%rbp), %rax
 1243 0519 64483304 		xorq	%fs:40, %rax
 1243      25280000 
 1243      00
 1244 0522 7405     		je	.L52
 1245 0524 E8000000 		call	__stack_chk_fail
 1245      00
 1246              	.L52:
 1247 0529 4883C478 		addq	$120, %rsp
 1248 052d 5B       		popq	%rbx
 1249 052e 5D       		popq	%rbp
 1250              		.cfi_def_cfa 7, 8
 1251 052f C3       		ret
 1252              		.cfi_endproc
 1253              	.LFE1094:
 1254              		.section	.gcc_except_table
 1255              		.align 4
 1256              	.LLSDA1094:
 1257 0084 FF       		.byte	0xff
 1258 0085 03       		.byte	0x3
 1259 0086 29       		.uleb128 .LLSDATT1094-.LLSDATTD1094
 1260              	.LLSDATTD1094:
 1261 0087 01       		.byte	0x1
 1262 0088 1F       		.uleb128 .LLSDACSE1094-.LLSDACSB1094
 1263              	.LLSDACSB1094:
 1264 0089 28       		.uleb128 .LEHB22-.LFB1094
 1265 008a 31       		.uleb128 .LEHE22-.LEHB22
 1266 008b 00       		.uleb128 0
 1267 008c 00       		.uleb128 0
 1268 008d 59       		.uleb128 .LEHB23-.LFB1094
 1269 008e 28       		.uleb128 .LEHE23-.LEHB23
 1270 008f AB01     		.uleb128 .L53-.LFB1094
 1271 0091 01       		.uleb128 0x1
 1272 0092 8B01     		.uleb128 .LEHB24-.LFB1094
 1273 0094 1C       		.uleb128 .LEHE24-.LEHB24
 1274 0095 A901     		.uleb128 .L54-.LFB1094
 1275 0097 03       		.uleb128 0x3
 1276 0098 B301     		.uleb128 .LEHB25-.LFB1094
 1277 009a 38       		.uleb128 .LEHE25-.LEHB25
 1278 009b F201     		.uleb128 .L55-.LFB1094
 1279 009d 00       		.uleb128 0
 1280 009e EB01     		.uleb128 .LEHB26-.LFB1094
 1281 00a0 05       		.uleb128 .LEHE26-.LEHB26
 1282 00a1 00       		.uleb128 0
 1283 00a2 00       		.uleb128 0
 1284 00a3 8002     		.uleb128 .LEHB27-.LFB1094
 1285 00a5 05       		.uleb128 .LEHE27-.LEHB27
 1286 00a6 00       		.uleb128 0
 1287 00a7 00       		.uleb128 0
 1288              	.LLSDACSE1094:
 1289 00a8 01       		.byte	0x1
 1290 00a9 00       		.byte	0
 1291 00aa 00       		.byte	0
 1292 00ab 7D       		.byte	0x7d
 1293              		.align 4
 1294 00ac 00000000 		.long	0
 1295              	
 1296              	.LLSDATT1094:
 1297              		.text
 1299              		.section	.rodata
 1300              	.LC12:
 1301 0199 5265636F 		.string	"RecordsNumberOfFailedTests"
 1301      7264734E 
 1301      756D6265 
 1301      724F6646 
 1301      61696C65 
 1302              		.text
 1303              		.align 2
 1305              	_ZN12_GLOBAL__N_130TestRecordsNumberOfFailedTestsC2Ev:
 1306              	.LFB1096:
  40:TestTestResults.cpp **** 
  41:TestTestResults.cpp **** TEST(RecordsNumberOfFailedTests)
 1307              		.loc 5 41 0
 1308              		.cfi_startproc
 1309 0530 55       		pushq	%rbp
 1310              		.cfi_def_cfa_offset 16
 1311              		.cfi_offset 6, -16
 1312 0531 4889E5   		movq	%rsp, %rbp
 1313              		.cfi_def_cfa_register 6
 1314 0534 4883EC10 		subq	$16, %rsp
 1315 0538 48897DF8 		movq	%rdi, -8(%rbp)
 1316              	.LBB10:
 1317              		.loc 5 41 0
 1318 053c E8000000 		call	_ZN13UnitTestSuite12GetSuiteNameEv
 1318      00
 1319 0541 4889C2   		movq	%rax, %rdx
 1320 0544 488B45F8 		movq	-8(%rbp), %rax
 1321 0548 41B82900 		movl	$41, %r8d
 1321      0000
 1322 054e B9000000 		movl	$.LC2, %ecx
 1322      00
 1323 0553 BE000000 		movl	$.LC12, %esi
 1323      00
 1324 0558 4889C7   		movq	%rax, %rdi
 1325 055b E8000000 		call	_ZN8UnitTest4TestC2EPKcS2_S2_i
 1325      00
 1326 0560 BA000000 		movl	$_ZTVN12_GLOBAL__N_130TestRecordsNumberOfFailedTestsE+16, %edx
 1326      00
 1327 0565 488B45F8 		movq	-8(%rbp), %rax
 1328 0569 488910   		movq	%rdx, (%rax)
 1329              	.LBE10:
 1330 056c 90       		nop
 1331 056d C9       		leave
 1332              		.cfi_def_cfa 7, 8
 1333 056e C3       		ret
 1334              		.cfi_endproc
 1335              	.LFE1096:
 1337              		.set	_ZN12_GLOBAL__N_130TestRecordsNumberOfFailedTestsC1Ev,_ZN12_GLOBAL__N_130TestRecordsNumberOfF
 1338              		.local	_ZN12_GLOBAL__N_138testRecordsNumberOfFailedTestsInstanceE
 1339              		.comm	_ZN12_GLOBAL__N_138testRecordsNumberOfFailedTestsInstanceE,56,32
 1340              		.local	_ZN12_GLOBAL__N_131adderRecordsNumberOfFailedTestsE
 1341              		.comm	_ZN12_GLOBAL__N_131adderRecordsNumberOfFailedTestsE,1,1
 1342              		.section	.rodata
 1343 01b4 00000000 		.align 8
 1344              	.LC13:
 1345 01b8 556E6861 		.string	"Unhandled exception in CHECK_EQUAL(2, results.GetFailedTestCount())"
 1345      6E646C65 
 1345      64206578 
 1345      63657074 
 1345      696F6E20 
 1346              		.text
 1347 056f 90       		.align 2
 1349              	_ZNK12_GLOBAL__N_130TestRecordsNumberOfFailedTests7RunImplEv:
 1350              	.LFB1098:
  42:TestTestResults.cpp **** {
 1351              		.loc 5 42 0
 1352              		.cfi_startproc
 1353              		.cfi_personality 0x3,__gxx_personality_v0
 1354              		.cfi_lsda 0x3,.LLSDA1098
 1355 0570 55       		pushq	%rbp
 1356              		.cfi_def_cfa_offset 16
 1357              		.cfi_offset 6, -16
 1358 0571 4889E5   		movq	%rsp, %rbp
 1359              		.cfi_def_cfa_register 6
 1360 0574 53       		pushq	%rbx
 1361 0575 4883EC78 		subq	$120, %rsp
 1362              		.cfi_offset 3, -24
 1363 0579 48897D88 		movq	%rdi, -120(%rbp)
 1364              		.loc 5 42 0
 1365 057d 64488B04 		movq	%fs:40, %rax
 1365      25280000 
 1365      00
 1366 0586 488945E8 		movq	%rax, -24(%rbp)
 1367 058a 31C0     		xorl	%eax, %eax
  43:TestTestResults.cpp ****     TestResults results;
 1368              		.loc 5 43 0
 1369 058c 488D45A0 		leaq	-96(%rbp), %rax
 1370 0590 BE000000 		movl	$0, %esi
 1370      00
 1371 0595 4889C7   		movq	%rax, %rdi
 1372              	.LEHB28:
 1373 0598 E8000000 		call	_ZN8UnitTest11TestResultsC1EPNS_12TestReporterE
 1373      00
  44:TestTestResults.cpp **** 
  45:TestTestResults.cpp ****     results.OnTestStart(details);
 1374              		.loc 5 45 0
 1375 059d 488D45A0 		leaq	-96(%rbp), %rax
 1376 05a1 BE000000 		movl	$_ZN12_GLOBAL__N_1L7detailsE, %esi
 1376      00
 1377 05a6 4889C7   		movq	%rax, %rdi
 1378 05a9 E8000000 		call	_ZN8UnitTest11TestResults11OnTestStartERKNS_11TestDetailsE
 1378      00
  46:TestTestResults.cpp ****     results.OnTestFailure(details, "");
 1379              		.loc 5 46 0
 1380 05ae 488D45A0 		leaq	-96(%rbp), %rax
 1381 05b2 BA000000 		movl	$.LC10, %edx
 1381      00
 1382 05b7 BE000000 		movl	$_ZN12_GLOBAL__N_1L7detailsE, %esi
 1382      00
 1383 05bc 4889C7   		movq	%rax, %rdi
 1384 05bf E8000000 		call	_ZN8UnitTest11TestResults13OnTestFailureERKNS_11TestDetailsEPKc
 1384      00
  47:TestTestResults.cpp ****     results.OnTestFinish(details, 0);
 1385              		.loc 5 47 0
 1386 05c4 488D45A0 		leaq	-96(%rbp), %rax
 1387 05c8 660FEFC0 		pxor	%xmm0, %xmm0
 1388 05cc BE000000 		movl	$_ZN12_GLOBAL__N_1L7detailsE, %esi
 1388      00
 1389 05d1 4889C7   		movq	%rax, %rdi
 1390 05d4 E8000000 		call	_ZN8UnitTest11TestResults12OnTestFinishERKNS_11TestDetailsEf
 1390      00
  48:TestTestResults.cpp **** 
  49:TestTestResults.cpp ****     results.OnTestStart(details);
 1391              		.loc 5 49 0
 1392 05d9 488D45A0 		leaq	-96(%rbp), %rax
 1393 05dd BE000000 		movl	$_ZN12_GLOBAL__N_1L7detailsE, %esi
 1393      00
 1394 05e2 4889C7   		movq	%rax, %rdi
 1395 05e5 E8000000 		call	_ZN8UnitTest11TestResults11OnTestStartERKNS_11TestDetailsE
 1395      00
  50:TestTestResults.cpp ****     results.OnTestFailure(details, "");
 1396              		.loc 5 50 0
 1397 05ea 488D45A0 		leaq	-96(%rbp), %rax
 1398 05ee BA000000 		movl	$.LC10, %edx
 1398      00
 1399 05f3 BE000000 		movl	$_ZN12_GLOBAL__N_1L7detailsE, %esi
 1399      00
 1400 05f8 4889C7   		movq	%rax, %rdi
 1401 05fb E8000000 		call	_ZN8UnitTest11TestResults13OnTestFailureERKNS_11TestDetailsEPKc
 1401      00
  51:TestTestResults.cpp ****     results.OnTestFailure(details, "");
 1402              		.loc 5 51 0
 1403 0600 488D45A0 		leaq	-96(%rbp), %rax
 1404 0604 BA000000 		movl	$.LC10, %edx
 1404      00
 1405 0609 BE000000 		movl	$_ZN12_GLOBAL__N_1L7detailsE, %esi
 1405      00
 1406 060e 4889C7   		movq	%rax, %rdi
 1407 0611 E8000000 		call	_ZN8UnitTest11TestResults13OnTestFailureERKNS_11TestDetailsEPKc
 1407      00
  52:TestTestResults.cpp ****     results.OnTestFailure(details, "");
 1408              		.loc 5 52 0
 1409 0616 488D45A0 		leaq	-96(%rbp), %rax
 1410 061a BA000000 		movl	$.LC10, %edx
 1410      00
 1411 061f BE000000 		movl	$_ZN12_GLOBAL__N_1L7detailsE, %esi
 1411      00
 1412 0624 4889C7   		movq	%rax, %rdi
 1413 0627 E8000000 		call	_ZN8UnitTest11TestResults13OnTestFailureERKNS_11TestDetailsEPKc
 1413      00
  53:TestTestResults.cpp ****     results.OnTestFinish(details, 0);
 1414              		.loc 5 53 0
 1415 062c 488D45A0 		leaq	-96(%rbp), %rax
 1416 0630 660FEFC0 		pxor	%xmm0, %xmm0
 1417 0634 BE000000 		movl	$_ZN12_GLOBAL__N_1L7detailsE, %esi
 1417      00
 1418 0639 4889C7   		movq	%rax, %rdi
 1419 063c E8000000 		call	_ZN8UnitTest11TestResults12OnTestFinishERKNS_11TestDetailsEf
 1419      00
 1420              	.LEHE28:
 1421              	.LEHB29:
  54:TestTestResults.cpp **** 
  55:TestTestResults.cpp ****     CHECK_EQUAL (2, results.GetFailedTestCount());
 1422              		.loc 5 55 0
 1423 0641 E8000000 		call	_ZN8UnitTest11CurrentTest7DetailsEv
 1423      00
 1424 0646 488B08   		movq	(%rax), %rcx
 1425 0649 488D45C0 		leaq	-64(%rbp), %rax
 1426 064d BA370000 		movl	$55, %edx
 1426      00
 1427 0652 4889CE   		movq	%rcx, %rsi
 1428 0655 4889C7   		movq	%rax, %rdi
 1429 0658 E8000000 		call	_ZN8UnitTest11TestDetailsC1ERKS0_i
 1429      00
 1430              		.loc 5 55 0 is_stmt 0 discriminator 2
 1431 065d 488D45A0 		leaq	-96(%rbp), %rax
 1432 0661 4889C7   		movq	%rax, %rdi
 1433 0664 E8000000 		call	_ZNK8UnitTest11TestResults18GetFailedTestCountEv
 1433      00
 1434              	.LEHE29:
 1435 0669 89459C   		movl	%eax, -100(%rbp)
 1436 066c C7459802 		movl	$2, -104(%rbp)
 1436      000000
 1437              	.LEHB30:
 1438 0673 E8000000 		call	_ZN8UnitTest11CurrentTest7ResultsEv
 1438      00
 1439              		.loc 5 55 0 discriminator 4
 1440 0678 488B00   		movq	(%rax), %rax
 1441 067b 488D4DC0 		leaq	-64(%rbp), %rcx
 1442 067f 488D559C 		leaq	-100(%rbp), %rdx
 1443 0683 488D7598 		leaq	-104(%rbp), %rsi
 1444 0687 4889C7   		movq	%rax, %rdi
 1445 068a E8000000 		call	_ZN8UnitTest10CheckEqualIiiEEvRNS_11TestResultsERKT_RKT0_RKNS_11TestDetailsE
 1445      00
 1446              	.LEHE30:
  56:TestTestResults.cpp **** }
 1447              		.loc 5 56 0 is_stmt 1
 1448 068f EB5C     		jmp	.L57
 1449              	.L64:
 1450 0691 EB00     		jmp	.L59
 1451              	.L63:
 1452              	.L59:
  55:TestTestResults.cpp **** }
 1453              		.loc 5 55 0
 1454 0693 4889C7   		movq	%rax, %rdi
 1455 0696 E8000000 		call	__cxa_begin_catch
 1455      00
 1456              	.LEHB31:
 1457 069b E8000000 		call	_ZN8UnitTest11CurrentTest7DetailsEv
 1457      00
 1458 06a0 488B08   		movq	(%rax), %rcx
 1459 06a3 488D45C0 		leaq	-64(%rbp), %rax
 1460 06a7 BA370000 		movl	$55, %edx
 1460      00
 1461 06ac 4889CE   		movq	%rcx, %rsi
 1462 06af 4889C7   		movq	%rax, %rdi
 1463 06b2 E8000000 		call	_ZN8UnitTest11TestDetailsC1ERKS0_i
 1463      00
  55:TestTestResults.cpp **** }
 1464              		.loc 5 55 0 is_stmt 0 discriminator 12
 1465 06b7 E8000000 		call	_ZN8UnitTest11CurrentTest7ResultsEv
 1465      00
 1466 06bc 488B00   		movq	(%rax), %rax
 1467 06bf 488D4DC0 		leaq	-64(%rbp), %rcx
 1468 06c3 BA000000 		movl	$.LC13, %edx
 1468      00
 1469 06c8 4889CE   		movq	%rcx, %rsi
 1470 06cb 4889C7   		movq	%rax, %rdi
 1471 06ce E8000000 		call	_ZN8UnitTest11TestResults13OnTestFailureERKNS_11TestDetailsEPKc
 1471      00
 1472              	.LEHE31:
 1473              	.LEHB32:
  55:TestTestResults.cpp **** }
 1474              		.loc 5 55 0 discriminator 16
 1475 06d3 E8000000 		call	__cxa_end_catch
 1475      00
 1476              	.LEHE32:
 1477              		.loc 5 56 0 is_stmt 1 discriminator 16
 1478 06d8 EB13     		jmp	.L57
 1479              	.L65:
 1480 06da 4889C3   		movq	%rax, %rbx
  55:TestTestResults.cpp **** }
 1481              		.loc 5 55 0
 1482 06dd E8000000 		call	__cxa_end_catch
 1482      00
 1483 06e2 4889D8   		movq	%rbx, %rax
 1484 06e5 4889C7   		movq	%rax, %rdi
 1485              	.LEHB33:
 1486 06e8 E8000000 		call	_Unwind_Resume
 1486      00
 1487              	.LEHE33:
 1488              	.L57:
 1489              		.loc 5 56 0
 1490 06ed 488B45E8 		movq	-24(%rbp), %rax
 1491 06f1 64483304 		xorq	%fs:40, %rax
 1491      25280000 
 1491      00
 1492 06fa 7405     		je	.L62
 1493 06fc E8000000 		call	__stack_chk_fail
 1493      00
 1494              	.L62:
 1495 0701 4883C478 		addq	$120, %rsp
 1496 0705 5B       		popq	%rbx
 1497 0706 5D       		popq	%rbp
 1498              		.cfi_def_cfa 7, 8
 1499 0707 C3       		ret
 1500              		.cfi_endproc
 1501              	.LFE1098:
 1502              		.section	.gcc_except_table
 1503              		.align 4
 1504              	.LLSDA1098:
 1505 00b0 FF       		.byte	0xff
 1506 00b1 03       		.byte	0x3
 1507 00b2 2D       		.uleb128 .LLSDATT1098-.LLSDATTD1098
 1508              	.LLSDATTD1098:
 1509 00b3 01       		.byte	0x1
 1510 00b4 21       		.uleb128 .LLSDACSE1098-.LLSDACSB1098
 1511              	.LLSDACSB1098:
 1512 00b5 28       		.uleb128 .LEHB28-.LFB1098
 1513 00b6 A901     		.uleb128 .LEHE28-.LEHB28
 1514 00b8 00       		.uleb128 0
 1515 00b9 00       		.uleb128 0
 1516 00ba D101     		.uleb128 .LEHB29-.LFB1098
 1517 00bc 28       		.uleb128 .LEHE29-.LEHB29
 1518 00bd A302     		.uleb128 .L63-.LFB1098
 1519 00bf 01       		.uleb128 0x1
 1520 00c0 8302     		.uleb128 .LEHB30-.LFB1098
 1521 00c2 1C       		.uleb128 .LEHE30-.LEHB30
 1522 00c3 A102     		.uleb128 .L64-.LFB1098
 1523 00c5 03       		.uleb128 0x3
 1524 00c6 AB02     		.uleb128 .LEHB31-.LFB1098
 1525 00c8 38       		.uleb128 .LEHE31-.LEHB31
 1526 00c9 EA02     		.uleb128 .L65-.LFB1098
 1527 00cb 00       		.uleb128 0
 1528 00cc E302     		.uleb128 .LEHB32-.LFB1098
 1529 00ce 05       		.uleb128 .LEHE32-.LEHB32
 1530 00cf 00       		.uleb128 0
 1531 00d0 00       		.uleb128 0
 1532 00d1 F802     		.uleb128 .LEHB33-.LFB1098
 1533 00d3 05       		.uleb128 .LEHE33-.LEHB33
 1534 00d4 00       		.uleb128 0
 1535 00d5 00       		.uleb128 0
 1536              	.LLSDACSE1098:
 1537 00d6 01       		.byte	0x1
 1538 00d7 00       		.byte	0
 1539 00d8 00       		.byte	0
 1540 00d9 7D       		.byte	0x7d
 1541 00da 0000     		.align 4
 1542 00dc 00000000 		.long	0
 1543              	
 1544              	.LLSDATT1098:
 1545              		.text
 1547              		.section	.rodata
 1548 01fc 00000000 		.align 8
 1549              	.LC14:
 1550 0200 4E6F7469 		.string	"NotifiesReporterOfTestStartWithCorrectInfo"
 1550      66696573 
 1550      5265706F 
 1550      72746572 
 1550      4F665465 
 1551              		.text
 1552              		.align 2
 1554              	_ZN12_GLOBAL__N_146TestNotifiesReporterOfTestStartWithCorrectInfoC2Ev:
 1555              	.LFB1100:
  57:TestTestResults.cpp **** 
  58:TestTestResults.cpp **** TEST(NotifiesReporterOfTestStartWithCorrectInfo)
 1556              		.loc 5 58 0
 1557              		.cfi_startproc
 1558 0708 55       		pushq	%rbp
 1559              		.cfi_def_cfa_offset 16
 1560              		.cfi_offset 6, -16
 1561 0709 4889E5   		movq	%rsp, %rbp
 1562              		.cfi_def_cfa_register 6
 1563 070c 4883EC10 		subq	$16, %rsp
 1564 0710 48897DF8 		movq	%rdi, -8(%rbp)
 1565              	.LBB11:
 1566              		.loc 5 58 0
 1567 0714 E8000000 		call	_ZN13UnitTestSuite12GetSuiteNameEv
 1567      00
 1568 0719 4889C2   		movq	%rax, %rdx
 1569 071c 488B45F8 		movq	-8(%rbp), %rax
 1570 0720 41B83A00 		movl	$58, %r8d
 1570      0000
 1571 0726 B9000000 		movl	$.LC2, %ecx
 1571      00
 1572 072b BE000000 		movl	$.LC14, %esi
 1572      00
 1573 0730 4889C7   		movq	%rax, %rdi
 1574 0733 E8000000 		call	_ZN8UnitTest4TestC2EPKcS2_S2_i
 1574      00
 1575 0738 BA000000 		movl	$_ZTVN12_GLOBAL__N_146TestNotifiesReporterOfTestStartWithCorrectInfoE+16, %edx
 1575      00
 1576 073d 488B45F8 		movq	-8(%rbp), %rax
 1577 0741 488910   		movq	%rdx, (%rax)
 1578              	.LBE11:
 1579 0744 90       		nop
 1580 0745 C9       		leave
 1581              		.cfi_def_cfa 7, 8
 1582 0746 C3       		ret
 1583              		.cfi_endproc
 1584              	.LFE1100:
 1586              		.set	_ZN12_GLOBAL__N_146TestNotifiesReporterOfTestStartWithCorrectInfoC1Ev,_ZN12_GLOBAL__N_146Test
 1587              		.local	_ZN12_GLOBAL__N_154testNotifiesReporterOfTestStartWithCorrectInfoInstanceE
 1588              		.comm	_ZN12_GLOBAL__N_154testNotifiesReporterOfTestStartWithCorrectInfoInstanceE,56,32
 1589              		.local	_ZN12_GLOBAL__N_147adderNotifiesReporterOfTestStartWithCorrectInfoE
 1590              		.comm	_ZN12_GLOBAL__N_147adderNotifiesReporterOfTestStartWithCorrectInfoE,1,1
 1591              		.section	.rodata
 1592              	.LC15:
 1593 022b 73756974 		.string	"suitename"
 1593      656E616D 
 1593      6500
 1594              	.LC16:
 1595 0235 74657374 		.string	"testname"
 1595      6E616D65 
 1595      00
 1596 023e 0000     		.align 8
 1597              	.LC17:
 1598 0240 556E6861 		.string	"Unhandled exception in CHECK_EQUAL(1, reporter.testRunCount)"
 1598      6E646C65 
 1598      64206578 
 1598      63657074 
 1598      696F6E20 
 1599 027d 000000   		.align 8
 1600              	.LC18:
 1601 0280 556E6861 		.string	"Unhandled exception in CHECK_EQUAL(\"suitename\", reporter.lastStartedSuite)"
 1601      6E646C65 
 1601      64206578 
 1601      63657074 
 1601      696F6E20 
 1602 02cb 00000000 		.align 8
 1602      00
 1603              	.LC19:
 1604 02d0 556E6861 		.string	"Unhandled exception in CHECK_EQUAL(\"testname\", reporter.lastStartedTest)"
 1604      6E646C65 
 1604      64206578 
 1604      63657074 
 1604      696F6E20 
 1605              		.text
 1606 0747 90       		.align 2
 1608              	_ZNK12_GLOBAL__N_146TestNotifiesReporterOfTestStartWithCorrectInfo7RunImplEv:
 1609              	.LFB1102:
  59:TestTestResults.cpp **** {
 1610              		.loc 5 59 0
 1611              		.cfi_startproc
 1612              		.cfi_personality 0x3,__gxx_personality_v0
 1613              		.cfi_lsda 0x3,.LLSDA1102
 1614 0748 55       		pushq	%rbp
 1615              		.cfi_def_cfa_offset 16
 1616              		.cfi_offset 6, -16
 1617 0749 4889E5   		movq	%rsp, %rbp
 1618              		.cfi_def_cfa_register 6
 1619 074c 53       		pushq	%rbx
 1620 074d 4881ECA8 		subq	$2216, %rsp
 1620      080000
 1621              		.cfi_offset 3, -24
 1622 0754 4889BD58 		movq	%rdi, -2216(%rbp)
 1622      F7FFFF
 1623              		.loc 5 59 0
 1624 075b 64488B04 		movq	%fs:40, %rax
 1624      25280000 
 1624      00
 1625 0764 488945E8 		movq	%rax, -24(%rbp)
 1626 0768 31C0     		xorl	%eax, %eax
  60:TestTestResults.cpp ****     RecordingReporter reporter;
 1627              		.loc 5 60 0
 1628 076a 488D85B0 		leaq	-2128(%rbp), %rax
 1628      F7FFFF
 1629 0771 4889C7   		movq	%rax, %rdi
 1630 0774 E8000000 		call	_ZN17RecordingReporterC1Ev
 1630      00
  61:TestTestResults.cpp ****     TestResults results(&reporter);
 1631              		.loc 5 61 0
 1632 0779 488D95B0 		leaq	-2128(%rbp), %rdx
 1632      F7FFFF
 1633 0780 488D8570 		leaq	-2192(%rbp), %rax
 1633      F7FFFF
 1634 0787 4889D6   		movq	%rdx, %rsi
 1635 078a 4889C7   		movq	%rax, %rdi
 1636              	.LEHB34:
 1637 078d E8000000 		call	_ZN8UnitTest11TestResultsC1EPNS_12TestReporterE
 1637      00
  62:TestTestResults.cpp ****     results.OnTestStart(details);
 1638              		.loc 5 62 0
 1639 0792 488D8570 		leaq	-2192(%rbp), %rax
 1639      F7FFFF
 1640 0799 BE000000 		movl	$_ZN12_GLOBAL__N_1L7detailsE, %esi
 1640      00
 1641 079e 4889C7   		movq	%rax, %rdi
 1642 07a1 E8000000 		call	_ZN8UnitTest11TestResults11OnTestStartERKNS_11TestDetailsE
 1642      00
 1643              	.LEHE34:
 1644              	.LEHB35:
  63:TestTestResults.cpp **** 
  64:TestTestResults.cpp ****     CHECK_EQUAL (1, reporter.testRunCount);
 1645              		.loc 5 64 0
 1646 07a6 E8000000 		call	_ZN8UnitTest11CurrentTest7DetailsEv
 1646      00
 1647 07ab 488B08   		movq	(%rax), %rcx
 1648 07ae 488D8590 		leaq	-2160(%rbp), %rax
 1648      F7FFFF
 1649 07b5 BA400000 		movl	$64, %edx
 1649      00
 1650 07ba 4889CE   		movq	%rcx, %rsi
 1651 07bd 4889C7   		movq	%rax, %rdi
 1652 07c0 E8000000 		call	_ZN8UnitTest11TestDetailsC1ERKS0_i
 1652      00
 1653              	.LEHE35:
 1654              		.loc 5 64 0 is_stmt 0 discriminator 2
 1655 07c5 C7856CF7 		movl	$1, -2196(%rbp)
 1655      FFFF0100 
 1655      0000
 1656              	.LEHB36:
 1657 07cf E8000000 		call	_ZN8UnitTest11CurrentTest7ResultsEv
 1657      00
 1658 07d4 488B00   		movq	(%rax), %rax
 1659 07d7 488D9590 		leaq	-2160(%rbp), %rdx
 1659      F7FFFF
 1660 07de 488D8DB0 		leaq	-2128(%rbp), %rcx
 1660      F7FFFF
 1661 07e5 488D7908 		leaq	8(%rcx), %rdi
 1662 07e9 488DB56C 		leaq	-2196(%rbp), %rsi
 1662      F7FFFF
 1663 07f0 4889D1   		movq	%rdx, %rcx
 1664 07f3 4889FA   		movq	%rdi, %rdx
 1665 07f6 4889C7   		movq	%rax, %rdi
 1666 07f9 E8000000 		call	_ZN8UnitTest10CheckEqualIiiEEvRNS_11TestResultsERKT_RKT0_RKNS_11TestDetailsE
 1666      00
 1667              	.LEHE36:
 1668              	.L70:
 1669              	.LEHB37:
  65:TestTestResults.cpp ****     CHECK_EQUAL ("suitename", reporter.lastStartedSuite);
 1670              		.loc 5 65 0 is_stmt 1
 1671 07fe E8000000 		call	_ZN8UnitTest11CurrentTest7DetailsEv
 1671      00
 1672 0803 488B08   		movq	(%rax), %rcx
 1673 0806 488D8590 		leaq	-2160(%rbp), %rax
 1673      F7FFFF
 1674 080d BA410000 		movl	$65, %edx
 1674      00
 1675 0812 4889CE   		movq	%rcx, %rsi
 1676 0815 4889C7   		movq	%rax, %rdi
 1677 0818 E8000000 		call	_ZN8UnitTest11TestDetailsC1ERKS0_i
 1677      00
 1678              		.loc 5 65 0 is_stmt 0 discriminator 2
 1679 081d E8000000 		call	_ZN8UnitTest11CurrentTest7ResultsEv
 1679      00
 1680 0822 488B00   		movq	(%rax), %rax
 1681 0825 488D9590 		leaq	-2160(%rbp), %rdx
 1681      F7FFFF
 1682 082c 488D8DB0 		leaq	-2128(%rbp), %rcx
 1682      F7FFFF
 1683 0833 488D710C 		leaq	12(%rcx), %rsi
 1684 0837 4889D1   		movq	%rdx, %rcx
 1685 083a 4889F2   		movq	%rsi, %rdx
 1686 083d BE000000 		movl	$.LC15, %esi
 1686      00
 1687 0842 4889C7   		movq	%rax, %rdi
 1688 0845 E8000000 		call	_ZN8UnitTest10CheckEqualERNS_11TestResultsEPKcPcRKNS_11TestDetailsE
 1688      00
 1689              	.LEHE37:
 1690              	.L74:
 1691              	.LEHB38:
  66:TestTestResults.cpp ****     CHECK_EQUAL ("testname", reporter.lastStartedTest);
 1692              		.loc 5 66 0 is_stmt 1
 1693 084a E8000000 		call	_ZN8UnitTest11CurrentTest7DetailsEv
 1693      00
 1694 084f 488B08   		movq	(%rax), %rcx
 1695 0852 488D8590 		leaq	-2160(%rbp), %rax
 1695      F7FFFF
 1696 0859 BA420000 		movl	$66, %edx
 1696      00
 1697 085e 4889CE   		movq	%rcx, %rsi
 1698 0861 4889C7   		movq	%rax, %rdi
 1699 0864 E8000000 		call	_ZN8UnitTest11TestDetailsC1ERKS0_i
 1699      00
 1700              		.loc 5 66 0 is_stmt 0 discriminator 2
 1701 0869 E8000000 		call	_ZN8UnitTest11CurrentTest7ResultsEv
 1701      00
 1702 086e 488B00   		movq	(%rax), %rax
 1703 0871 488D9590 		leaq	-2160(%rbp), %rdx
 1703      F7FFFF
 1704 0878 488D8DB0 		leaq	-2128(%rbp), %rcx
 1704      F7FFFF
 1705 087f 488DB10C 		leaq	268(%rcx), %rsi
 1705      010000
 1706 0886 4889D1   		movq	%rdx, %rcx
 1707 0889 4889F2   		movq	%rsi, %rdx
 1708 088c BE000000 		movl	$.LC16, %esi
 1708      00
 1709 0891 4889C7   		movq	%rax, %rdi
 1710 0894 E8000000 		call	_ZN8UnitTest10CheckEqualERNS_11TestResultsEPKcPcRKNS_11TestDetailsE
 1710      00
 1711              	.LEHE38:
 1712              	.L77:
  60:TestTestResults.cpp ****     TestResults results(&reporter);
 1713              		.loc 5 60 0 is_stmt 1
 1714 0899 488D85B0 		leaq	-2128(%rbp), %rax
 1714      F7FFFF
 1715 08a0 4889C7   		movq	%rax, %rdi
 1716              	.LEHB39:
 1717 08a3 E8000000 		call	_ZN17RecordingReporterD1Ev
 1717      00
 1718              	.LEHE39:
  67:TestTestResults.cpp **** }
 1719              		.loc 5 67 0
 1720 08a8 90       		nop
 1721 08a9 488B45E8 		movq	-24(%rbp), %rax
 1722 08ad 64483304 		xorq	%fs:40, %rax
 1722      25280000 
 1722      00
 1723 08b6 0F843A01 		je	.L79
 1723      0000
 1724 08bc E9300100 		jmp	.L88
 1724      00
 1725              	.L82:
 1726 08c1 EB00     		jmp	.L69
 1727              	.L81:
 1728              	.L69:
  64:TestTestResults.cpp ****     CHECK_EQUAL ("suitename", reporter.lastStartedSuite);
 1729              		.loc 5 64 0
 1730 08c3 4889C7   		movq	%rax, %rdi
 1731 08c6 E8000000 		call	__cxa_begin_catch
 1731      00
 1732              	.LEHB40:
 1733 08cb E8000000 		call	_ZN8UnitTest11CurrentTest7DetailsEv
 1733      00
 1734 08d0 488B08   		movq	(%rax), %rcx
 1735 08d3 488D8590 		leaq	-2160(%rbp), %rax
 1735      F7FFFF
 1736 08da BA400000 		movl	$64, %edx
 1736      00
 1737 08df 4889CE   		movq	%rcx, %rsi
 1738 08e2 4889C7   		movq	%rax, %rdi
 1739 08e5 E8000000 		call	_ZN8UnitTest11TestDetailsC1ERKS0_i
 1739      00
  64:TestTestResults.cpp ****     CHECK_EQUAL ("suitename", reporter.lastStartedSuite);
 1740              		.loc 5 64 0 is_stmt 0 discriminator 10
 1741 08ea E8000000 		call	_ZN8UnitTest11CurrentTest7ResultsEv
 1741      00
 1742 08ef 488B00   		movq	(%rax), %rax
 1743 08f2 488D8D90 		leaq	-2160(%rbp), %rcx
 1743      F7FFFF
 1744 08f9 BA000000 		movl	$.LC17, %edx
 1744      00
 1745 08fe 4889CE   		movq	%rcx, %rsi
 1746 0901 4889C7   		movq	%rax, %rdi
 1747 0904 E8000000 		call	_ZN8UnitTest11TestResults13OnTestFailureERKNS_11TestDetailsEPKc
 1747      00
 1748              	.LEHE40:
 1749              	.LEHB41:
  64:TestTestResults.cpp ****     CHECK_EQUAL ("suitename", reporter.lastStartedSuite);
 1750              		.loc 5 64 0 discriminator 14
 1751 0909 E8000000 		call	__cxa_end_catch
 1751      00
 1752              	.LEHE41:
  64:TestTestResults.cpp ****     CHECK_EQUAL ("suitename", reporter.lastStartedSuite);
 1753              		.loc 5 64 0
 1754 090e E9EBFEFF 		jmp	.L70
 1754      FF
 1755              	.L83:
 1756 0913 4889C3   		movq	%rax, %rbx
 1757 0916 E8000000 		call	__cxa_end_catch
 1757      00
 1758 091b E9B70000 		jmp	.L72
 1758      00
 1759              	.L84:
  65:TestTestResults.cpp ****     CHECK_EQUAL ("testname", reporter.lastStartedTest);
 1760              		.loc 5 65 0 is_stmt 1
 1761 0920 4889C7   		movq	%rax, %rdi
 1762 0923 E8000000 		call	__cxa_begin_catch
 1762      00
 1763              	.LEHB42:
 1764 0928 E8000000 		call	_ZN8UnitTest11CurrentTest7DetailsEv
 1764      00
 1765 092d 488B08   		movq	(%rax), %rcx
 1766 0930 488D8590 		leaq	-2160(%rbp), %rax
 1766      F7FFFF
 1767 0937 BA410000 		movl	$65, %edx
 1767      00
 1768 093c 4889CE   		movq	%rcx, %rsi
 1769 093f 4889C7   		movq	%rax, %rdi
 1770 0942 E8000000 		call	_ZN8UnitTest11TestDetailsC1ERKS0_i
 1770      00
  65:TestTestResults.cpp ****     CHECK_EQUAL ("testname", reporter.lastStartedTest);
 1771              		.loc 5 65 0 is_stmt 0 discriminator 10
 1772 0947 E8000000 		call	_ZN8UnitTest11CurrentTest7ResultsEv
 1772      00
 1773 094c 488B00   		movq	(%rax), %rax
 1774 094f 488D8D90 		leaq	-2160(%rbp), %rcx
 1774      F7FFFF
 1775 0956 BA000000 		movl	$.LC18, %edx
 1775      00
 1776 095b 4889CE   		movq	%rcx, %rsi
 1777 095e 4889C7   		movq	%rax, %rdi
 1778 0961 E8000000 		call	_ZN8UnitTest11TestResults13OnTestFailureERKNS_11TestDetailsEPKc
 1778      00
 1779              	.LEHE42:
 1780              	.LEHB43:
  65:TestTestResults.cpp ****     CHECK_EQUAL ("testname", reporter.lastStartedTest);
 1781              		.loc 5 65 0 discriminator 14
 1782 0966 E8000000 		call	__cxa_end_catch
 1782      00
 1783              	.LEHE43:
  65:TestTestResults.cpp ****     CHECK_EQUAL ("testname", reporter.lastStartedTest);
 1784              		.loc 5 65 0
 1785 096b E9DAFEFF 		jmp	.L74
 1785      FF
 1786              	.L85:
 1787 0970 4889C3   		movq	%rax, %rbx
 1788 0973 E8000000 		call	__cxa_end_catch
 1788      00
 1789 0978 EB5D     		jmp	.L72
 1790              	.L86:
  66:TestTestResults.cpp **** }
 1791              		.loc 5 66 0 is_stmt 1
 1792 097a 4889C7   		movq	%rax, %rdi
 1793 097d E8000000 		call	__cxa_begin_catch
 1793      00
 1794              	.LEHB44:
 1795 0982 E8000000 		call	_ZN8UnitTest11CurrentTest7DetailsEv
 1795      00
 1796 0987 488B08   		movq	(%rax), %rcx
 1797 098a 488D8590 		leaq	-2160(%rbp), %rax
 1797      F7FFFF
 1798 0991 BA420000 		movl	$66, %edx
 1798      00
 1799 0996 4889CE   		movq	%rcx, %rsi
 1800 0999 4889C7   		movq	%rax, %rdi
 1801 099c E8000000 		call	_ZN8UnitTest11TestDetailsC1ERKS0_i
 1801      00
  66:TestTestResults.cpp **** }
 1802              		.loc 5 66 0 is_stmt 0 discriminator 10
 1803 09a1 E8000000 		call	_ZN8UnitTest11CurrentTest7ResultsEv
 1803      00
 1804 09a6 488B00   		movq	(%rax), %rax
 1805 09a9 488D8D90 		leaq	-2160(%rbp), %rcx
 1805      F7FFFF
 1806 09b0 BA000000 		movl	$.LC19, %edx
 1806      00
 1807 09b5 4889CE   		movq	%rcx, %rsi
 1808 09b8 4889C7   		movq	%rax, %rdi
 1809 09bb E8000000 		call	_ZN8UnitTest11TestResults13OnTestFailureERKNS_11TestDetailsEPKc
 1809      00
 1810              	.LEHE44:
 1811              	.LEHB45:
  66:TestTestResults.cpp **** }
 1812              		.loc 5 66 0 discriminator 14
 1813 09c0 E8000000 		call	__cxa_end_catch
 1813      00
 1814              	.LEHE45:
  66:TestTestResults.cpp **** }
 1815              		.loc 5 66 0
 1816 09c5 E9CFFEFF 		jmp	.L77
 1816      FF
 1817              	.L87:
 1818 09ca 4889C3   		movq	%rax, %rbx
 1819 09cd E8000000 		call	__cxa_end_catch
 1819      00
 1820 09d2 EB03     		jmp	.L72
 1821              	.L80:
 1822 09d4 4889C3   		movq	%rax, %rbx
 1823              	.L72:
  60:TestTestResults.cpp ****     TestResults results(&reporter);
 1824              		.loc 5 60 0 is_stmt 1
 1825 09d7 488D85B0 		leaq	-2128(%rbp), %rax
 1825      F7FFFF
 1826 09de 4889C7   		movq	%rax, %rdi
 1827 09e1 E8000000 		call	_ZN17RecordingReporterD1Ev
 1827      00
 1828 09e6 4889D8   		movq	%rbx, %rax
 1829 09e9 4889C7   		movq	%rax, %rdi
 1830              	.LEHB46:
 1831 09ec E8000000 		call	_Unwind_Resume
 1831      00
 1832              	.LEHE46:
 1833              	.L88:
 1834              		.loc 5 67 0
 1835 09f1 E8000000 		call	__stack_chk_fail
 1835      00
 1836              	.L79:
 1837 09f6 4881C4A8 		addq	$2216, %rsp
 1837      080000
 1838 09fd 5B       		popq	%rbx
 1839 09fe 5D       		popq	%rbp
 1840              		.cfi_def_cfa 7, 8
 1841 09ff C3       		ret
 1842              		.cfi_endproc
 1843              	.LFE1102:
 1844              		.section	.gcc_except_table
 1845              		.align 4
 1846              	.LLSDA1102:
 1847 00e0 FF       		.byte	0xff
 1848 00e1 03       		.byte	0x3
 1849 00e2 55       		.uleb128 .LLSDATT1102-.LLSDATTD1102
 1850              	.LLSDATTD1102:
 1851 00e3 01       		.byte	0x1
 1852 00e4 4A       		.uleb128 .LLSDACSE1102-.LLSDACSB1102
 1853              	.LLSDACSB1102:
 1854 00e5 45       		.uleb128 .LEHB34-.LFB1102
 1855 00e6 19       		.uleb128 .LEHE34-.LEHB34
 1856 00e7 8C05     		.uleb128 .L80-.LFB1102
 1857 00e9 00       		.uleb128 0
 1858 00ea 5E       		.uleb128 .LEHB35-.LFB1102
 1859 00eb 1F       		.uleb128 .LEHE35-.LEHB35
 1860 00ec FB02     		.uleb128 .L81-.LFB1102
 1861 00ee 01       		.uleb128 0x1
 1862 00ef 8701     		.uleb128 .LEHB36-.LFB1102
 1863 00f1 2F       		.uleb128 .LEHE36-.LEHB36
 1864 00f2 F902     		.uleb128 .L82-.LFB1102
 1865 00f4 01       		.uleb128 0x1
 1866 00f5 B601     		.uleb128 .LEHB37-.LFB1102
 1867 00f7 4C       		.uleb128 .LEHE37-.LEHB37
 1868 00f8 D803     		.uleb128 .L84-.LFB1102
 1869 00fa 01       		.uleb128 0x1
 1870 00fb 8202     		.uleb128 .LEHB38-.LFB1102
 1871 00fd 4F       		.uleb128 .LEHE38-.LEHB38
 1872 00fe B204     		.uleb128 .L86-.LFB1102
 1873 0100 01       		.uleb128 0x1
 1874 0101 DB02     		.uleb128 .LEHB39-.LFB1102
 1875 0103 05       		.uleb128 .LEHE39-.LEHB39
 1876 0104 00       		.uleb128 0
 1877 0105 00       		.uleb128 0
 1878 0106 8303     		.uleb128 .LEHB40-.LFB1102
 1879 0108 3E       		.uleb128 .LEHE40-.LEHB40
 1880 0109 CB03     		.uleb128 .L83-.LFB1102
 1881 010b 00       		.uleb128 0
 1882 010c C103     		.uleb128 .LEHB41-.LFB1102
 1883 010e 05       		.uleb128 .LEHE41-.LEHB41
 1884 010f 8C05     		.uleb128 .L80-.LFB1102
 1885 0111 00       		.uleb128 0
 1886 0112 E003     		.uleb128 .LEHB42-.LFB1102
 1887 0114 3E       		.uleb128 .LEHE42-.LEHB42
 1888 0115 A804     		.uleb128 .L85-.LFB1102
 1889 0117 00       		.uleb128 0
 1890 0118 9E04     		.uleb128 .LEHB43-.LFB1102
 1891 011a 05       		.uleb128 .LEHE43-.LEHB43
 1892 011b 8C05     		.uleb128 .L80-.LFB1102
 1893 011d 00       		.uleb128 0
 1894 011e BA04     		.uleb128 .LEHB44-.LFB1102
 1895 0120 3E       		.uleb128 .LEHE44-.LEHB44
 1896 0121 8205     		.uleb128 .L87-.LFB1102
 1897 0123 00       		.uleb128 0
 1898 0124 F804     		.uleb128 .LEHB45-.LFB1102
 1899 0126 05       		.uleb128 .LEHE45-.LEHB45
 1900 0127 8C05     		.uleb128 .L80-.LFB1102
 1901 0129 00       		.uleb128 0
 1902 012a A405     		.uleb128 .LEHB46-.LFB1102
 1903 012c 05       		.uleb128 .LEHE46-.LEHB46
 1904 012d 00       		.uleb128 0
 1905 012e 00       		.uleb128 0
 1906              	.LLSDACSE1102:
 1907 012f 01       		.byte	0x1
 1908 0130 00       		.byte	0
 1909 0131 000000   		.align 4
 1910 0134 00000000 		.long	0
 1911              	
 1912              	.LLSDATT1102:
 1913              		.text
 1915              		.section	.rodata
 1916 0319 00000000 		.align 8
 1916      000000
 1917              	.LC20:
 1918 0320 4E6F7469 		.string	"NotifiesReporterOfTestFailureWithCorrectInfo"
 1918      66696573 
 1918      5265706F 
 1918      72746572 
 1918      4F665465 
 1919              		.text
 1920              		.align 2
 1922              	_ZN12_GLOBAL__N_148TestNotifiesReporterOfTestFailureWithCorrectInfoC2Ev:
 1923              	.LFB1104:
  68:TestTestResults.cpp **** 
  69:TestTestResults.cpp **** TEST(NotifiesReporterOfTestFailureWithCorrectInfo)
 1924              		.loc 5 69 0
 1925              		.cfi_startproc
 1926 0a00 55       		pushq	%rbp
 1927              		.cfi_def_cfa_offset 16
 1928              		.cfi_offset 6, -16
 1929 0a01 4889E5   		movq	%rsp, %rbp
 1930              		.cfi_def_cfa_register 6
 1931 0a04 4883EC10 		subq	$16, %rsp
 1932 0a08 48897DF8 		movq	%rdi, -8(%rbp)
 1933              	.LBB12:
 1934              		.loc 5 69 0
 1935 0a0c E8000000 		call	_ZN13UnitTestSuite12GetSuiteNameEv
 1935      00
 1936 0a11 4889C2   		movq	%rax, %rdx
 1937 0a14 488B45F8 		movq	-8(%rbp), %rax
 1938 0a18 41B84500 		movl	$69, %r8d
 1938      0000
 1939 0a1e B9000000 		movl	$.LC2, %ecx
 1939      00
 1940 0a23 BE000000 		movl	$.LC20, %esi
 1940      00
 1941 0a28 4889C7   		movq	%rax, %rdi
 1942 0a2b E8000000 		call	_ZN8UnitTest4TestC2EPKcS2_S2_i
 1942      00
 1943 0a30 BA000000 		movl	$_ZTVN12_GLOBAL__N_148TestNotifiesReporterOfTestFailureWithCorrectInfoE+16, %edx
 1943      00
 1944 0a35 488B45F8 		movq	-8(%rbp), %rax
 1945 0a39 488910   		movq	%rdx, (%rax)
 1946              	.LBE12:
 1947 0a3c 90       		nop
 1948 0a3d C9       		leave
 1949              		.cfi_def_cfa 7, 8
 1950 0a3e C3       		ret
 1951              		.cfi_endproc
 1952              	.LFE1104:
 1954              		.set	_ZN12_GLOBAL__N_148TestNotifiesReporterOfTestFailureWithCorrectInfoC1Ev,_ZN12_GLOBAL__N_148Te
 1955              		.local	_ZN12_GLOBAL__N_156testNotifiesReporterOfTestFailureWithCorrectInfoInstanceE
 1956              		.comm	_ZN12_GLOBAL__N_156testNotifiesReporterOfTestFailureWithCorrectInfoInstanceE,56,32
 1957              		.local	_ZN12_GLOBAL__N_149adderNotifiesReporterOfTestFailureWithCorrectInfoE
 1958              		.comm	_ZN12_GLOBAL__N_149adderNotifiesReporterOfTestFailureWithCorrectInfoE,1,1
 1959              		.section	.rodata
 1960              	.LC21:
 1961 034d 6661696C 		.string	"failurestring"
 1961      75726573 
 1961      7472696E 
 1961      6700
 1962              	.LC22:
 1963 035b 66696C65 		.string	"filename"
 1963      6E616D65 
 1963      00
 1964 0364 00000000 		.align 8
 1965              	.LC23:
 1966 0368 556E6861 		.string	"Unhandled exception in CHECK_EQUAL(1, reporter.testFailedCount)"
 1966      6E646C65 
 1966      64206578 
 1966      63657074 
 1966      696F6E20 
 1967              		.align 8
 1968              	.LC24:
 1969 03a8 556E6861 		.string	"Unhandled exception in CHECK_EQUAL(\"filename\", reporter.lastFailedFile)"
 1969      6E646C65 
 1969      64206578 
 1969      63657074 
 1969      696F6E20 
 1970              		.align 8
 1971              	.LC25:
 1972 03f0 556E6861 		.string	"Unhandled exception in CHECK_EQUAL(123, reporter.lastFailedLine)"
 1972      6E646C65 
 1972      64206578 
 1972      63657074 
 1972      696F6E20 
 1973 0431 00000000 		.align 8
 1973      000000
 1974              	.LC26:
 1975 0438 556E6861 		.string	"Unhandled exception in CHECK_EQUAL(\"suitename\", reporter.lastFailedSuite)"
 1975      6E646C65 
 1975      64206578 
 1975      63657074 
 1975      696F6E20 
 1976 0482 00000000 		.align 8
 1976      0000
 1977              	.LC27:
 1978 0488 556E6861 		.string	"Unhandled exception in CHECK_EQUAL(\"testname\", reporter.lastFailedTest)"
 1978      6E646C65 
 1978      64206578 
 1978      63657074 
 1978      696F6E20 
 1979              		.align 8
 1980              	.LC28:
 1981 04d0 556E6861 		.string	"Unhandled exception in CHECK_EQUAL(\"failurestring\", reporter.lastFailedMessage)"
 1981      6E646C65 
 1981      64206578 
 1981      63657074 
 1981      696F6E20 
 1982              		.text
 1983 0a3f 90       		.align 2
 1985              	_ZNK12_GLOBAL__N_148TestNotifiesReporterOfTestFailureWithCorrectInfo7RunImplEv:
 1986              	.LFB1106:
  70:TestTestResults.cpp **** {
 1987              		.loc 5 70 0
 1988              		.cfi_startproc
 1989              		.cfi_personality 0x3,__gxx_personality_v0
 1990              		.cfi_lsda 0x3,.LLSDA1106
 1991 0a40 55       		pushq	%rbp
 1992              		.cfi_def_cfa_offset 16
 1993              		.cfi_offset 6, -16
 1994 0a41 4889E5   		movq	%rsp, %rbp
 1995              		.cfi_def_cfa_register 6
 1996 0a44 53       		pushq	%rbx
 1997 0a45 4881ECA8 		subq	$2216, %rsp
 1997      080000
 1998              		.cfi_offset 3, -24
 1999 0a4c 4889BD58 		movq	%rdi, -2216(%rbp)
 1999      F7FFFF
 2000              		.loc 5 70 0
 2001 0a53 64488B04 		movq	%fs:40, %rax
 2001      25280000 
 2001      00
 2002 0a5c 488945E8 		movq	%rax, -24(%rbp)
 2003 0a60 31C0     		xorl	%eax, %eax
  71:TestTestResults.cpp ****     RecordingReporter reporter;
 2004              		.loc 5 71 0
 2005 0a62 488D85B0 		leaq	-2128(%rbp), %rax
 2005      F7FFFF
 2006 0a69 4889C7   		movq	%rax, %rdi
 2007 0a6c E8000000 		call	_ZN17RecordingReporterC1Ev
 2007      00
  72:TestTestResults.cpp ****     TestResults results(&reporter);
 2008              		.loc 5 72 0
 2009 0a71 488D95B0 		leaq	-2128(%rbp), %rdx
 2009      F7FFFF
 2010 0a78 488D8570 		leaq	-2192(%rbp), %rax
 2010      F7FFFF
 2011 0a7f 4889D6   		movq	%rdx, %rsi
 2012 0a82 4889C7   		movq	%rax, %rdi
 2013              	.LEHB47:
 2014 0a85 E8000000 		call	_ZN8UnitTest11TestResultsC1EPNS_12TestReporterE
 2014      00
  73:TestTestResults.cpp **** 
  74:TestTestResults.cpp ****     results.OnTestFailure(details, "failurestring");
 2015              		.loc 5 74 0
 2016 0a8a 488D8570 		leaq	-2192(%rbp), %rax
 2016      F7FFFF
 2017 0a91 BA000000 		movl	$.LC21, %edx
 2017      00
 2018 0a96 BE000000 		movl	$_ZN12_GLOBAL__N_1L7detailsE, %esi
 2018      00
 2019 0a9b 4889C7   		movq	%rax, %rdi
 2020 0a9e E8000000 		call	_ZN8UnitTest11TestResults13OnTestFailureERKNS_11TestDetailsEPKc
 2020      00
 2021              	.LEHE47:
 2022              	.LEHB48:
  75:TestTestResults.cpp ****     CHECK_EQUAL (1, reporter.testFailedCount);
 2023              		.loc 5 75 0
 2024 0aa3 E8000000 		call	_ZN8UnitTest11CurrentTest7DetailsEv
 2024      00
 2025 0aa8 488B08   		movq	(%rax), %rcx
 2026 0aab 488D8590 		leaq	-2160(%rbp), %rax
 2026      F7FFFF
 2027 0ab2 BA4B0000 		movl	$75, %edx
 2027      00
 2028 0ab7 4889CE   		movq	%rcx, %rsi
 2029 0aba 4889C7   		movq	%rax, %rdi
 2030 0abd E8000000 		call	_ZN8UnitTest11TestDetailsC1ERKS0_i
 2030      00
 2031              	.LEHE48:
 2032              		.loc 5 75 0 is_stmt 0 discriminator 2
 2033 0ac2 C7856CF7 		movl	$1, -2196(%rbp)
 2033      FFFF0100 
 2033      0000
 2034              	.LEHB49:
 2035 0acc E8000000 		call	_ZN8UnitTest11CurrentTest7ResultsEv
 2035      00
 2036 0ad1 488B00   		movq	(%rax), %rax
 2037 0ad4 488D9590 		leaq	-2160(%rbp), %rdx
 2037      F7FFFF
 2038 0adb 488D8DB0 		leaq	-2128(%rbp), %rcx
 2038      F7FFFF
 2039 0ae2 488DB90C 		leaq	524(%rcx), %rdi
 2039      020000
 2040 0ae9 488DB56C 		leaq	-2196(%rbp), %rsi
 2040      F7FFFF
 2041 0af0 4889D1   		movq	%rdx, %rcx
 2042 0af3 4889FA   		movq	%rdi, %rdx
 2043 0af6 4889C7   		movq	%rax, %rdi
 2044 0af9 E8000000 		call	_ZN8UnitTest10CheckEqualIiiEEvRNS_11TestResultsERKT_RKT0_RKNS_11TestDetailsE
 2044      00
 2045              	.LEHE49:
 2046              	.L93:
 2047              	.LEHB50:
  76:TestTestResults.cpp ****     CHECK_EQUAL ("filename", reporter.lastFailedFile);
 2048              		.loc 5 76 0 is_stmt 1
 2049 0afe E8000000 		call	_ZN8UnitTest11CurrentTest7DetailsEv
 2049      00
 2050 0b03 488B08   		movq	(%rax), %rcx
 2051 0b06 488D8590 		leaq	-2160(%rbp), %rax
 2051      F7FFFF
 2052 0b0d BA4C0000 		movl	$76, %edx
 2052      00
 2053 0b12 4889CE   		movq	%rcx, %rsi
 2054 0b15 4889C7   		movq	%rax, %rdi
 2055 0b18 E8000000 		call	_ZN8UnitTest11TestDetailsC1ERKS0_i
 2055      00
 2056              		.loc 5 76 0 is_stmt 0 discriminator 2
 2057 0b1d E8000000 		call	_ZN8UnitTest11CurrentTest7ResultsEv
 2057      00
 2058 0b22 488B00   		movq	(%rax), %rax
 2059 0b25 488D9590 		leaq	-2160(%rbp), %rdx
 2059      F7FFFF
 2060 0b2c 488D8DB0 		leaq	-2128(%rbp), %rcx
 2060      F7FFFF
 2061 0b33 488DB110 		leaq	528(%rcx), %rsi
 2061      020000
 2062 0b3a 4889D1   		movq	%rdx, %rcx
 2063 0b3d 4889F2   		movq	%rsi, %rdx
 2064 0b40 BE000000 		movl	$.LC22, %esi
 2064      00
 2065 0b45 4889C7   		movq	%rax, %rdi
 2066 0b48 E8000000 		call	_ZN8UnitTest10CheckEqualERNS_11TestResultsEPKcPcRKNS_11TestDetailsE
 2066      00
 2067              	.LEHE50:
 2068              	.L97:
 2069              	.LEHB51:
  77:TestTestResults.cpp ****     CHECK_EQUAL (123, reporter.lastFailedLine);
 2070              		.loc 5 77 0 is_stmt 1
 2071 0b4d E8000000 		call	_ZN8UnitTest11CurrentTest7DetailsEv
 2071      00
 2072 0b52 488B08   		movq	(%rax), %rcx
 2073 0b55 488D8590 		leaq	-2160(%rbp), %rax
 2073      F7FFFF
 2074 0b5c BA4D0000 		movl	$77, %edx
 2074      00
 2075 0b61 4889CE   		movq	%rcx, %rsi
 2076 0b64 4889C7   		movq	%rax, %rdi
 2077 0b67 E8000000 		call	_ZN8UnitTest11TestDetailsC1ERKS0_i
 2077      00
 2078              	.LEHE51:
 2079              		.loc 5 77 0 is_stmt 0 discriminator 2
 2080 0b6c C7856CF7 		movl	$123, -2196(%rbp)
 2080      FFFF7B00 
 2080      0000
 2081              	.LEHB52:
 2082 0b76 E8000000 		call	_ZN8UnitTest11CurrentTest7ResultsEv
 2082      00
 2083 0b7b 488B00   		movq	(%rax), %rax
 2084 0b7e 488D9590 		leaq	-2160(%rbp), %rdx
 2084      F7FFFF
 2085 0b85 488D8DB0 		leaq	-2128(%rbp), %rcx
 2085      F7FFFF
 2086 0b8c 488DB910 		leaq	784(%rcx), %rdi
 2086      030000
 2087 0b93 488DB56C 		leaq	-2196(%rbp), %rsi
 2087      F7FFFF
 2088 0b9a 4889D1   		movq	%rdx, %rcx
 2089 0b9d 4889FA   		movq	%rdi, %rdx
 2090 0ba0 4889C7   		movq	%rax, %rdi
 2091 0ba3 E8000000 		call	_ZN8UnitTest10CheckEqualIiiEEvRNS_11TestResultsERKT_RKT0_RKNS_11TestDetailsE
 2091      00
 2092              	.LEHE52:
 2093              	.L101:
 2094              	.LEHB53:
  78:TestTestResults.cpp ****     CHECK_EQUAL ("suitename", reporter.lastFailedSuite);
 2095              		.loc 5 78 0 is_stmt 1
 2096 0ba8 E8000000 		call	_ZN8UnitTest11CurrentTest7DetailsEv
 2096      00
 2097 0bad 488B08   		movq	(%rax), %rcx
 2098 0bb0 488D8590 		leaq	-2160(%rbp), %rax
 2098      F7FFFF
 2099 0bb7 BA4E0000 		movl	$78, %edx
 2099      00
 2100 0bbc 4889CE   		movq	%rcx, %rsi
 2101 0bbf 4889C7   		movq	%rax, %rdi
 2102 0bc2 E8000000 		call	_ZN8UnitTest11TestDetailsC1ERKS0_i
 2102      00
 2103              		.loc 5 78 0 is_stmt 0 discriminator 2
 2104 0bc7 E8000000 		call	_ZN8UnitTest11CurrentTest7ResultsEv
 2104      00
 2105 0bcc 488B00   		movq	(%rax), %rax
 2106 0bcf 488D9590 		leaq	-2160(%rbp), %rdx
 2106      F7FFFF
 2107 0bd6 488D8DB0 		leaq	-2128(%rbp), %rcx
 2107      F7FFFF
 2108 0bdd 488DB114 		leaq	788(%rcx), %rsi
 2108      030000
 2109 0be4 4889D1   		movq	%rdx, %rcx
 2110 0be7 4889F2   		movq	%rsi, %rdx
 2111 0bea BE000000 		movl	$.LC15, %esi
 2111      00
 2112 0bef 4889C7   		movq	%rax, %rdi
 2113 0bf2 E8000000 		call	_ZN8UnitTest10CheckEqualERNS_11TestResultsEPKcPcRKNS_11TestDetailsE
 2113      00
 2114              	.LEHE53:
 2115              	.L104:
 2116              	.LEHB54:
  79:TestTestResults.cpp ****     CHECK_EQUAL ("testname", reporter.lastFailedTest);
 2117              		.loc 5 79 0 is_stmt 1
 2118 0bf7 E8000000 		call	_ZN8UnitTest11CurrentTest7DetailsEv
 2118      00
 2119 0bfc 488B08   		movq	(%rax), %rcx
 2120 0bff 488D8590 		leaq	-2160(%rbp), %rax
 2120      F7FFFF
 2121 0c06 BA4F0000 		movl	$79, %edx
 2121      00
 2122 0c0b 4889CE   		movq	%rcx, %rsi
 2123 0c0e 4889C7   		movq	%rax, %rdi
 2124 0c11 E8000000 		call	_ZN8UnitTest11TestDetailsC1ERKS0_i
 2124      00
 2125              		.loc 5 79 0 is_stmt 0 discriminator 2
 2126 0c16 E8000000 		call	_ZN8UnitTest11CurrentTest7ResultsEv
 2126      00
 2127 0c1b 488B00   		movq	(%rax), %rax
 2128 0c1e 488D9590 		leaq	-2160(%rbp), %rdx
 2128      F7FFFF
 2129 0c25 488D8DB0 		leaq	-2128(%rbp), %rcx
 2129      F7FFFF
 2130 0c2c 488DB114 		leaq	1044(%rcx), %rsi
 2130      040000
 2131 0c33 4889D1   		movq	%rdx, %rcx
 2132 0c36 4889F2   		movq	%rsi, %rdx
 2133 0c39 BE000000 		movl	$.LC16, %esi
 2133      00
 2134 0c3e 4889C7   		movq	%rax, %rdi
 2135 0c41 E8000000 		call	_ZN8UnitTest10CheckEqualERNS_11TestResultsEPKcPcRKNS_11TestDetailsE
 2135      00
 2136              	.LEHE54:
 2137              	.L107:
 2138              	.LEHB55:
  80:TestTestResults.cpp ****     CHECK_EQUAL ("failurestring", reporter.lastFailedMessage);
 2139              		.loc 5 80 0 is_stmt 1
 2140 0c46 E8000000 		call	_ZN8UnitTest11CurrentTest7DetailsEv
 2140      00
 2141 0c4b 488B08   		movq	(%rax), %rcx
 2142 0c4e 488D8590 		leaq	-2160(%rbp), %rax
 2142      F7FFFF
 2143 0c55 BA500000 		movl	$80, %edx
 2143      00
 2144 0c5a 4889CE   		movq	%rcx, %rsi
 2145 0c5d 4889C7   		movq	%rax, %rdi
 2146 0c60 E8000000 		call	_ZN8UnitTest11TestDetailsC1ERKS0_i
 2146      00
 2147              		.loc 5 80 0 is_stmt 0 discriminator 2
 2148 0c65 E8000000 		call	_ZN8UnitTest11CurrentTest7ResultsEv
 2148      00
 2149 0c6a 488B00   		movq	(%rax), %rax
 2150 0c6d 488D9590 		leaq	-2160(%rbp), %rdx
 2150      F7FFFF
 2151 0c74 488D8DB0 		leaq	-2128(%rbp), %rcx
 2151      F7FFFF
 2152 0c7b 488DB114 		leaq	1300(%rcx), %rsi
 2152      050000
 2153 0c82 4889D1   		movq	%rdx, %rcx
 2154 0c85 4889F2   		movq	%rsi, %rdx
 2155 0c88 BE000000 		movl	$.LC21, %esi
 2155      00
 2156 0c8d 4889C7   		movq	%rax, %rdi
 2157 0c90 E8000000 		call	_ZN8UnitTest10CheckEqualERNS_11TestResultsEPKcPcRKNS_11TestDetailsE
 2157      00
 2158              	.LEHE55:
 2159              	.L110:
  71:TestTestResults.cpp ****     TestResults results(&reporter);
 2160              		.loc 5 71 0 is_stmt 1
 2161 0c95 488D85B0 		leaq	-2128(%rbp), %rax
 2161      F7FFFF
 2162 0c9c 4889C7   		movq	%rax, %rdi
 2163              	.LEHB56:
 2164 0c9f E8000000 		call	_ZN17RecordingReporterD1Ev
 2164      00
 2165              	.LEHE56:
  81:TestTestResults.cpp **** }
 2166              		.loc 5 81 0
 2167 0ca4 90       		nop
 2168 0ca5 488B45E8 		movq	-24(%rbp), %rax
 2169 0ca9 64483304 		xorq	%fs:40, %rax
 2169      25280000 
 2169      00
 2170 0cb2 0F845302 		je	.L112
 2170      0000
 2171 0cb8 E9490200 		jmp	.L128
 2171      00
 2172              	.L115:
 2173 0cbd EB00     		jmp	.L92
 2174              	.L114:
 2175              	.L92:
  75:TestTestResults.cpp ****     CHECK_EQUAL ("filename", reporter.lastFailedFile);
 2176              		.loc 5 75 0
 2177 0cbf 4889C7   		movq	%rax, %rdi
 2178 0cc2 E8000000 		call	__cxa_begin_catch
 2178      00
 2179              	.LEHB57:
 2180 0cc7 E8000000 		call	_ZN8UnitTest11CurrentTest7DetailsEv
 2180      00
 2181 0ccc 488B08   		movq	(%rax), %rcx
 2182 0ccf 488D8590 		leaq	-2160(%rbp), %rax
 2182      F7FFFF
 2183 0cd6 BA4B0000 		movl	$75, %edx
 2183      00
 2184 0cdb 4889CE   		movq	%rcx, %rsi
 2185 0cde 4889C7   		movq	%rax, %rdi
 2186 0ce1 E8000000 		call	_ZN8UnitTest11TestDetailsC1ERKS0_i
 2186      00
  75:TestTestResults.cpp ****     CHECK_EQUAL ("filename", reporter.lastFailedFile);
 2187              		.loc 5 75 0 is_stmt 0 discriminator 10
 2188 0ce6 E8000000 		call	_ZN8UnitTest11CurrentTest7ResultsEv
 2188      00
 2189 0ceb 488B00   		movq	(%rax), %rax
 2190 0cee 488D8D90 		leaq	-2160(%rbp), %rcx
 2190      F7FFFF
 2191 0cf5 BA000000 		movl	$.LC23, %edx
 2191      00
 2192 0cfa 4889CE   		movq	%rcx, %rsi
 2193 0cfd 4889C7   		movq	%rax, %rdi
 2194 0d00 E8000000 		call	_ZN8UnitTest11TestResults13OnTestFailureERKNS_11TestDetailsEPKc
 2194      00
 2195              	.LEHE57:
 2196              	.LEHB58:
  75:TestTestResults.cpp ****     CHECK_EQUAL ("filename", reporter.lastFailedFile);
 2197              		.loc 5 75 0 discriminator 14
 2198 0d05 E8000000 		call	__cxa_end_catch
 2198      00
 2199              	.LEHE58:
  75:TestTestResults.cpp ****     CHECK_EQUAL ("filename", reporter.lastFailedFile);
 2200              		.loc 5 75 0
 2201 0d0a E9EFFDFF 		jmp	.L93
 2201      FF
 2202              	.L116:
 2203 0d0f 4889C3   		movq	%rax, %rbx
 2204 0d12 E8000000 		call	__cxa_end_catch
 2204      00
 2205 0d17 E9D00100 		jmp	.L95
 2205      00
 2206              	.L117:
  76:TestTestResults.cpp ****     CHECK_EQUAL (123, reporter.lastFailedLine);
 2207              		.loc 5 76 0 is_stmt 1
 2208 0d1c 4889C7   		movq	%rax, %rdi
 2209 0d1f E8000000 		call	__cxa_begin_catch
 2209      00
 2210              	.LEHB59:
 2211 0d24 E8000000 		call	_ZN8UnitTest11CurrentTest7DetailsEv
 2211      00
 2212 0d29 488B08   		movq	(%rax), %rcx
 2213 0d2c 488D8590 		leaq	-2160(%rbp), %rax
 2213      F7FFFF
 2214 0d33 BA4C0000 		movl	$76, %edx
 2214      00
 2215 0d38 4889CE   		movq	%rcx, %rsi
 2216 0d3b 4889C7   		movq	%rax, %rdi
 2217 0d3e E8000000 		call	_ZN8UnitTest11TestDetailsC1ERKS0_i
 2217      00
  76:TestTestResults.cpp ****     CHECK_EQUAL (123, reporter.lastFailedLine);
 2218              		.loc 5 76 0 is_stmt 0 discriminator 10
 2219 0d43 E8000000 		call	_ZN8UnitTest11CurrentTest7ResultsEv
 2219      00
 2220 0d48 488B00   		movq	(%rax), %rax
 2221 0d4b 488D8D90 		leaq	-2160(%rbp), %rcx
 2221      F7FFFF
 2222 0d52 BA000000 		movl	$.LC24, %edx
 2222      00
 2223 0d57 4889CE   		movq	%rcx, %rsi
 2224 0d5a 4889C7   		movq	%rax, %rdi
 2225 0d5d E8000000 		call	_ZN8UnitTest11TestResults13OnTestFailureERKNS_11TestDetailsEPKc
 2225      00
 2226              	.LEHE59:
 2227              	.LEHB60:
  76:TestTestResults.cpp ****     CHECK_EQUAL (123, reporter.lastFailedLine);
 2228              		.loc 5 76 0 discriminator 14
 2229 0d62 E8000000 		call	__cxa_end_catch
 2229      00
 2230              	.LEHE60:
  76:TestTestResults.cpp ****     CHECK_EQUAL (123, reporter.lastFailedLine);
 2231              		.loc 5 76 0
 2232 0d67 E9E1FDFF 		jmp	.L97
 2232      FF
 2233              	.L118:
 2234 0d6c 4889C3   		movq	%rax, %rbx
 2235 0d6f E8000000 		call	__cxa_end_catch
 2235      00
 2236 0d74 E9730100 		jmp	.L95
 2236      00
 2237              	.L120:
 2238 0d79 EB00     		jmp	.L100
 2239              	.L119:
 2240              	.L100:
  77:TestTestResults.cpp ****     CHECK_EQUAL ("suitename", reporter.lastFailedSuite);
 2241              		.loc 5 77 0 is_stmt 1
 2242 0d7b 4889C7   		movq	%rax, %rdi
 2243 0d7e E8000000 		call	__cxa_begin_catch
 2243      00
 2244              	.LEHB61:
 2245 0d83 E8000000 		call	_ZN8UnitTest11CurrentTest7DetailsEv
 2245      00
 2246 0d88 488B08   		movq	(%rax), %rcx
 2247 0d8b 488D8590 		leaq	-2160(%rbp), %rax
 2247      F7FFFF
 2248 0d92 BA4D0000 		movl	$77, %edx
 2248      00
 2249 0d97 4889CE   		movq	%rcx, %rsi
 2250 0d9a 4889C7   		movq	%rax, %rdi
 2251 0d9d E8000000 		call	_ZN8UnitTest11TestDetailsC1ERKS0_i
 2251      00
  77:TestTestResults.cpp ****     CHECK_EQUAL ("suitename", reporter.lastFailedSuite);
 2252              		.loc 5 77 0 is_stmt 0 discriminator 10
 2253 0da2 E8000000 		call	_ZN8UnitTest11CurrentTest7ResultsEv
 2253      00
 2254 0da7 488B00   		movq	(%rax), %rax
 2255 0daa 488D8D90 		leaq	-2160(%rbp), %rcx
 2255      F7FFFF
 2256 0db1 BA000000 		movl	$.LC25, %edx
 2256      00
 2257 0db6 4889CE   		movq	%rcx, %rsi
 2258 0db9 4889C7   		movq	%rax, %rdi
 2259 0dbc E8000000 		call	_ZN8UnitTest11TestResults13OnTestFailureERKNS_11TestDetailsEPKc
 2259      00
 2260              	.LEHE61:
 2261              	.LEHB62:
  77:TestTestResults.cpp ****     CHECK_EQUAL ("suitename", reporter.lastFailedSuite);
 2262              		.loc 5 77 0 discriminator 14
 2263 0dc1 E8000000 		call	__cxa_end_catch
 2263      00
 2264              	.LEHE62:
  77:TestTestResults.cpp ****     CHECK_EQUAL ("suitename", reporter.lastFailedSuite);
 2265              		.loc 5 77 0
 2266 0dc6 E9DDFDFF 		jmp	.L101
 2266      FF
 2267              	.L121:
 2268 0dcb 4889C3   		movq	%rax, %rbx
 2269 0dce E8000000 		call	__cxa_end_catch
 2269      00
 2270 0dd3 E9140100 		jmp	.L95
 2270      00
 2271              	.L122:
  78:TestTestResults.cpp ****     CHECK_EQUAL ("testname", reporter.lastFailedTest);
 2272              		.loc 5 78 0 is_stmt 1
 2273 0dd8 4889C7   		movq	%rax, %rdi
 2274 0ddb E8000000 		call	__cxa_begin_catch
 2274      00
 2275              	.LEHB63:
 2276 0de0 E8000000 		call	_ZN8UnitTest11CurrentTest7DetailsEv
 2276      00
 2277 0de5 488B08   		movq	(%rax), %rcx
 2278 0de8 488D8590 		leaq	-2160(%rbp), %rax
 2278      F7FFFF
 2279 0def BA4E0000 		movl	$78, %edx
 2279      00
 2280 0df4 4889CE   		movq	%rcx, %rsi
 2281 0df7 4889C7   		movq	%rax, %rdi
 2282 0dfa E8000000 		call	_ZN8UnitTest11TestDetailsC1ERKS0_i
 2282      00
  78:TestTestResults.cpp ****     CHECK_EQUAL ("testname", reporter.lastFailedTest);
 2283              		.loc 5 78 0 is_stmt 0 discriminator 10
 2284 0dff E8000000 		call	_ZN8UnitTest11CurrentTest7ResultsEv
 2284      00
 2285 0e04 488B00   		movq	(%rax), %rax
 2286 0e07 488D8D90 		leaq	-2160(%rbp), %rcx
 2286      F7FFFF
 2287 0e0e BA000000 		movl	$.LC26, %edx
 2287      00
 2288 0e13 4889CE   		movq	%rcx, %rsi
 2289 0e16 4889C7   		movq	%rax, %rdi
 2290 0e19 E8000000 		call	_ZN8UnitTest11TestResults13OnTestFailureERKNS_11TestDetailsEPKc
 2290      00
 2291              	.LEHE63:
 2292              	.LEHB64:
  78:TestTestResults.cpp ****     CHECK_EQUAL ("testname", reporter.lastFailedTest);
 2293              		.loc 5 78 0 discriminator 14
 2294 0e1e E8000000 		call	__cxa_end_catch
 2294      00
 2295              	.LEHE64:
  78:TestTestResults.cpp ****     CHECK_EQUAL ("testname", reporter.lastFailedTest);
 2296              		.loc 5 78 0
 2297 0e23 E9CFFDFF 		jmp	.L104
 2297      FF
 2298              	.L123:
 2299 0e28 4889C3   		movq	%rax, %rbx
 2300 0e2b E8000000 		call	__cxa_end_catch
 2300      00
 2301 0e30 E9B70000 		jmp	.L95
 2301      00
 2302              	.L124:
  79:TestTestResults.cpp ****     CHECK_EQUAL ("failurestring", reporter.lastFailedMessage);
 2303              		.loc 5 79 0 is_stmt 1
 2304 0e35 4889C7   		movq	%rax, %rdi
 2305 0e38 E8000000 		call	__cxa_begin_catch
 2305      00
 2306              	.LEHB65:
 2307 0e3d E8000000 		call	_ZN8UnitTest11CurrentTest7DetailsEv
 2307      00
 2308 0e42 488B08   		movq	(%rax), %rcx
 2309 0e45 488D8590 		leaq	-2160(%rbp), %rax
 2309      F7FFFF
 2310 0e4c BA4F0000 		movl	$79, %edx
 2310      00
 2311 0e51 4889CE   		movq	%rcx, %rsi
 2312 0e54 4889C7   		movq	%rax, %rdi
 2313 0e57 E8000000 		call	_ZN8UnitTest11TestDetailsC1ERKS0_i
 2313      00
  79:TestTestResults.cpp ****     CHECK_EQUAL ("failurestring", reporter.lastFailedMessage);
 2314              		.loc 5 79 0 is_stmt 0 discriminator 10
 2315 0e5c E8000000 		call	_ZN8UnitTest11CurrentTest7ResultsEv
 2315      00
 2316 0e61 488B00   		movq	(%rax), %rax
 2317 0e64 488D8D90 		leaq	-2160(%rbp), %rcx
 2317      F7FFFF
 2318 0e6b BA000000 		movl	$.LC27, %edx
 2318      00
 2319 0e70 4889CE   		movq	%rcx, %rsi
 2320 0e73 4889C7   		movq	%rax, %rdi
 2321 0e76 E8000000 		call	_ZN8UnitTest11TestResults13OnTestFailureERKNS_11TestDetailsEPKc
 2321      00
 2322              	.LEHE65:
 2323              	.LEHB66:
  79:TestTestResults.cpp ****     CHECK_EQUAL ("failurestring", reporter.lastFailedMessage);
 2324              		.loc 5 79 0 discriminator 14
 2325 0e7b E8000000 		call	__cxa_end_catch
 2325      00
 2326              	.LEHE66:
  79:TestTestResults.cpp ****     CHECK_EQUAL ("failurestring", reporter.lastFailedMessage);
 2327              		.loc 5 79 0
 2328 0e80 E9C1FDFF 		jmp	.L107
 2328      FF
 2329              	.L125:
 2330 0e85 4889C3   		movq	%rax, %rbx
 2331 0e88 E8000000 		call	__cxa_end_catch
 2331      00
 2332 0e8d EB5D     		jmp	.L95
 2333              	.L126:
  80:TestTestResults.cpp **** }
 2334              		.loc 5 80 0 is_stmt 1
 2335 0e8f 4889C7   		movq	%rax, %rdi
 2336 0e92 E8000000 		call	__cxa_begin_catch
 2336      00
 2337              	.LEHB67:
 2338 0e97 E8000000 		call	_ZN8UnitTest11CurrentTest7DetailsEv
 2338      00
 2339 0e9c 488B08   		movq	(%rax), %rcx
 2340 0e9f 488D8590 		leaq	-2160(%rbp), %rax
 2340      F7FFFF
 2341 0ea6 BA500000 		movl	$80, %edx
 2341      00
 2342 0eab 4889CE   		movq	%rcx, %rsi
 2343 0eae 4889C7   		movq	%rax, %rdi
 2344 0eb1 E8000000 		call	_ZN8UnitTest11TestDetailsC1ERKS0_i
 2344      00
  80:TestTestResults.cpp **** }
 2345              		.loc 5 80 0 is_stmt 0 discriminator 10
 2346 0eb6 E8000000 		call	_ZN8UnitTest11CurrentTest7ResultsEv
 2346      00
 2347 0ebb 488B00   		movq	(%rax), %rax
 2348 0ebe 488D8D90 		leaq	-2160(%rbp), %rcx
 2348      F7FFFF
 2349 0ec5 BA000000 		movl	$.LC28, %edx
 2349      00
 2350 0eca 4889CE   		movq	%rcx, %rsi
 2351 0ecd 4889C7   		movq	%rax, %rdi
 2352 0ed0 E8000000 		call	_ZN8UnitTest11TestResults13OnTestFailureERKNS_11TestDetailsEPKc
 2352      00
 2353              	.LEHE67:
 2354              	.LEHB68:
  80:TestTestResults.cpp **** }
 2355              		.loc 5 80 0 discriminator 14
 2356 0ed5 E8000000 		call	__cxa_end_catch
 2356      00
 2357              	.LEHE68:
  80:TestTestResults.cpp **** }
 2358              		.loc 5 80 0
 2359 0eda E9B6FDFF 		jmp	.L110
 2359      FF
 2360              	.L127:
 2361 0edf 4889C3   		movq	%rax, %rbx
 2362 0ee2 E8000000 		call	__cxa_end_catch
 2362      00
 2363 0ee7 EB03     		jmp	.L95
 2364              	.L113:
 2365 0ee9 4889C3   		movq	%rax, %rbx
 2366              	.L95:
  71:TestTestResults.cpp ****     TestResults results(&reporter);
 2367              		.loc 5 71 0 is_stmt 1
 2368 0eec 488D85B0 		leaq	-2128(%rbp), %rax
 2368      F7FFFF
 2369 0ef3 4889C7   		movq	%rax, %rdi
 2370 0ef6 E8000000 		call	_ZN17RecordingReporterD1Ev
 2370      00
 2371 0efb 4889D8   		movq	%rbx, %rax
 2372 0efe 4889C7   		movq	%rax, %rdi
 2373              	.LEHB69:
 2374 0f01 E8000000 		call	_Unwind_Resume
 2374      00
 2375              	.LEHE69:
 2376              	.L128:
 2377              		.loc 5 81 0
 2378 0f06 E8000000 		call	__stack_chk_fail
 2378      00
 2379              	.L112:
 2380 0f0b 4881C4A8 		addq	$2216, %rsp
 2380      080000
 2381 0f12 5B       		popq	%rbx
 2382 0f13 5D       		popq	%rbp
 2383              		.cfi_def_cfa 7, 8
 2384 0f14 C3       		ret
 2385              		.cfi_endproc
 2386              	.LFE1106:
 2387              		.section	.gcc_except_table
 2388              		.align 4
 2389              	.LLSDA1106:
 2390 0138 FF       		.byte	0xff
 2391 0139 03       		.byte	0x3
 2392 013a 9001     		.uleb128 .LLSDATT1106-.LLSDATTD1106
 2393              	.LLSDATTD1106:
 2394 013c 01       		.byte	0x1
 2395 013d 8601     		.uleb128 .LLSDACSE1106-.LLSDACSB1106
 2396              	.LLSDACSB1106:
 2397 013f 45       		.uleb128 .LEHB47-.LFB1106
 2398 0140 1E       		.uleb128 .LEHE47-.LEHB47
 2399 0141 A909     		.uleb128 .L113-.LFB1106
 2400 0143 00       		.uleb128 0
 2401 0144 63       		.uleb128 .LEHB48-.LFB1106
 2402 0145 1F       		.uleb128 .LEHE48-.LEHB48
 2403 0146 FF04     		.uleb128 .L114-.LFB1106
 2404 0148 01       		.uleb128 0x1
 2405 0149 8C01     		.uleb128 .LEHB49-.LFB1106
 2406 014b 32       		.uleb128 .LEHE49-.LEHB49
 2407 014c FD04     		.uleb128 .L115-.LFB1106
 2408 014e 01       		.uleb128 0x1
 2409 014f BE01     		.uleb128 .LEHB50-.LFB1106
 2410 0151 4F       		.uleb128 .LEHE50-.LEHB50
 2411 0152 DC05     		.uleb128 .L117-.LFB1106
 2412 0154 01       		.uleb128 0x1
 2413 0155 8D02     		.uleb128 .LEHB51-.LFB1106
 2414 0157 1F       		.uleb128 .LEHE51-.LEHB51
 2415 0158 BB06     		.uleb128 .L119-.LFB1106
 2416 015a 01       		.uleb128 0x1
 2417 015b B602     		.uleb128 .LEHB52-.LFB1106
 2418 015d 32       		.uleb128 .LEHE52-.LEHB52
 2419 015e B906     		.uleb128 .L120-.LFB1106
 2420 0160 01       		.uleb128 0x1
 2421 0161 E802     		.uleb128 .LEHB53-.LFB1106
 2422 0163 4F       		.uleb128 .LEHE53-.LEHB53
 2423 0164 9807     		.uleb128 .L122-.LFB1106
 2424 0166 01       		.uleb128 0x1
 2425 0167 B703     		.uleb128 .LEHB54-.LFB1106
 2426 0169 4F       		.uleb128 .LEHE54-.LEHB54
 2427 016a F507     		.uleb128 .L124-.LFB1106
 2428 016c 01       		.uleb128 0x1
 2429 016d 8604     		.uleb128 .LEHB55-.LFB1106
 2430 016f 4F       		.uleb128 .LEHE55-.LEHB55
 2431 0170 CF08     		.uleb128 .L126-.LFB1106
 2432 0172 01       		.uleb128 0x1
 2433 0173 DF04     		.uleb128 .LEHB56-.LFB1106
 2434 0175 05       		.uleb128 .LEHE56-.LEHB56
 2435 0176 00       		.uleb128 0
 2436 0177 00       		.uleb128 0
 2437 0178 8705     		.uleb128 .LEHB57-.LFB1106
 2438 017a 3E       		.uleb128 .LEHE57-.LEHB57
 2439 017b CF05     		.uleb128 .L116-.LFB1106
 2440 017d 00       		.uleb128 0
 2441 017e C505     		.uleb128 .LEHB58-.LFB1106
 2442 0180 05       		.uleb128 .LEHE58-.LEHB58
 2443 0181 A909     		.uleb128 .L113-.LFB1106
 2444 0183 00       		.uleb128 0
 2445 0184 E405     		.uleb128 .LEHB59-.LFB1106
 2446 0186 3E       		.uleb128 .LEHE59-.LEHB59
 2447 0187 AC06     		.uleb128 .L118-.LFB1106
 2448 0189 00       		.uleb128 0
 2449 018a A206     		.uleb128 .LEHB60-.LFB1106
 2450 018c 05       		.uleb128 .LEHE60-.LEHB60
 2451 018d A909     		.uleb128 .L113-.LFB1106
 2452 018f 00       		.uleb128 0
 2453 0190 C306     		.uleb128 .LEHB61-.LFB1106
 2454 0192 3E       		.uleb128 .LEHE61-.LEHB61
 2455 0193 8B07     		.uleb128 .L121-.LFB1106
 2456 0195 00       		.uleb128 0
 2457 0196 8107     		.uleb128 .LEHB62-.LFB1106
 2458 0198 05       		.uleb128 .LEHE62-.LEHB62
 2459 0199 A909     		.uleb128 .L113-.LFB1106
 2460 019b 00       		.uleb128 0
 2461 019c A007     		.uleb128 .LEHB63-.LFB1106
 2462 019e 3E       		.uleb128 .LEHE63-.LEHB63
 2463 019f E807     		.uleb128 .L123-.LFB1106
 2464 01a1 00       		.uleb128 0
 2465 01a2 DE07     		.uleb128 .LEHB64-.LFB1106
 2466 01a4 05       		.uleb128 .LEHE64-.LEHB64
 2467 01a5 A909     		.uleb128 .L113-.LFB1106
 2468 01a7 00       		.uleb128 0
 2469 01a8 FD07     		.uleb128 .LEHB65-.LFB1106
 2470 01aa 3E       		.uleb128 .LEHE65-.LEHB65
 2471 01ab C508     		.uleb128 .L125-.LFB1106
 2472 01ad 00       		.uleb128 0
 2473 01ae BB08     		.uleb128 .LEHB66-.LFB1106
 2474 01b0 05       		.uleb128 .LEHE66-.LEHB66
 2475 01b1 A909     		.uleb128 .L113-.LFB1106
 2476 01b3 00       		.uleb128 0
 2477 01b4 D708     		.uleb128 .LEHB67-.LFB1106
 2478 01b6 3E       		.uleb128 .LEHE67-.LEHB67
 2479 01b7 9F09     		.uleb128 .L127-.LFB1106
 2480 01b9 00       		.uleb128 0
 2481 01ba 9509     		.uleb128 .LEHB68-.LFB1106
 2482 01bc 05       		.uleb128 .LEHE68-.LEHB68
 2483 01bd A909     		.uleb128 .L113-.LFB1106
 2484 01bf 00       		.uleb128 0
 2485 01c0 C109     		.uleb128 .LEHB69-.LFB1106
 2486 01c2 05       		.uleb128 .LEHE69-.LEHB69
 2487 01c3 00       		.uleb128 0
 2488 01c4 00       		.uleb128 0
 2489              	.LLSDACSE1106:
 2490 01c5 01       		.byte	0x1
 2491 01c6 00       		.byte	0
 2492 01c7 00       		.align 4
 2493 01c8 00000000 		.long	0
 2494              	
 2495              	.LLSDATT1106:
 2496              		.text
 2498              		.section	.rodata
 2499              		.align 8
 2500              	.LC29:
 2501 0520 4E6F7469 		.string	"NotifiesReporterOfCheckFailureWithCorrectInfo"
 2501      66696573 
 2501      5265706F 
 2501      72746572 
 2501      4F664368 
 2502              		.text
 2503 0f15 90       		.align 2
 2505              	_ZN12_GLOBAL__N_149TestNotifiesReporterOfCheckFailureWithCorrectInfoC2Ev:
 2506              	.LFB1108:
  82:TestTestResults.cpp **** 
  83:TestTestResults.cpp **** TEST(NotifiesReporterOfCheckFailureWithCorrectInfo)
 2507              		.loc 5 83 0
 2508              		.cfi_startproc
 2509 0f16 55       		pushq	%rbp
 2510              		.cfi_def_cfa_offset 16
 2511              		.cfi_offset 6, -16
 2512 0f17 4889E5   		movq	%rsp, %rbp
 2513              		.cfi_def_cfa_register 6
 2514 0f1a 4883EC10 		subq	$16, %rsp
 2515 0f1e 48897DF8 		movq	%rdi, -8(%rbp)
 2516              	.LBB13:
 2517              		.loc 5 83 0
 2518 0f22 E8000000 		call	_ZN13UnitTestSuite12GetSuiteNameEv
 2518      00
 2519 0f27 4889C2   		movq	%rax, %rdx
 2520 0f2a 488B45F8 		movq	-8(%rbp), %rax
 2521 0f2e 41B85300 		movl	$83, %r8d
 2521      0000
 2522 0f34 B9000000 		movl	$.LC2, %ecx
 2522      00
 2523 0f39 BE000000 		movl	$.LC29, %esi
 2523      00
 2524 0f3e 4889C7   		movq	%rax, %rdi
 2525 0f41 E8000000 		call	_ZN8UnitTest4TestC2EPKcS2_S2_i
 2525      00
 2526 0f46 BA000000 		movl	$_ZTVN12_GLOBAL__N_149TestNotifiesReporterOfCheckFailureWithCorrectInfoE+16, %edx
 2526      00
 2527 0f4b 488B45F8 		movq	-8(%rbp), %rax
 2528 0f4f 488910   		movq	%rdx, (%rax)
 2529              	.LBE13:
 2530 0f52 90       		nop
 2531 0f53 C9       		leave
 2532              		.cfi_def_cfa 7, 8
 2533 0f54 C3       		ret
 2534              		.cfi_endproc
 2535              	.LFE1108:
 2537              		.set	_ZN12_GLOBAL__N_149TestNotifiesReporterOfCheckFailureWithCorrectInfoC1Ev,_ZN12_GLOBAL__N_149T
 2538              		.local	_ZN12_GLOBAL__N_157testNotifiesReporterOfCheckFailureWithCorrectInfoInstanceE
 2539              		.comm	_ZN12_GLOBAL__N_157testNotifiesReporterOfCheckFailureWithCorrectInfoInstanceE,56,32
 2540              		.local	_ZN12_GLOBAL__N_150adderNotifiesReporterOfCheckFailureWithCorrectInfoE
 2541              		.comm	_ZN12_GLOBAL__N_150adderNotifiesReporterOfCheckFailureWithCorrectInfoE,1,1
 2542 0f55 90       		.align 2
 2544              	_ZNK12_GLOBAL__N_149TestNotifiesReporterOfCheckFailureWithCorrectInfo7RunImplEv:
 2545              	.LFB1110:
  84:TestTestResults.cpp **** {
 2546              		.loc 5 84 0
 2547              		.cfi_startproc
 2548              		.cfi_personality 0x3,__gxx_personality_v0
 2549              		.cfi_lsda 0x3,.LLSDA1110
 2550 0f56 55       		pushq	%rbp
 2551              		.cfi_def_cfa_offset 16
 2552              		.cfi_offset 6, -16
 2553 0f57 4889E5   		movq	%rsp, %rbp
 2554              		.cfi_def_cfa_register 6
 2555 0f5a 53       		pushq	%rbx
 2556 0f5b 4881ECA8 		subq	$2216, %rsp
 2556      080000
 2557              		.cfi_offset 3, -24
 2558 0f62 4889BD58 		movq	%rdi, -2216(%rbp)
 2558      F7FFFF
 2559              		.loc 5 84 0
 2560 0f69 64488B04 		movq	%fs:40, %rax
 2560      25280000 
 2560      00
 2561 0f72 488945E8 		movq	%rax, -24(%rbp)
 2562 0f76 31C0     		xorl	%eax, %eax
  85:TestTestResults.cpp ****     RecordingReporter reporter;
 2563              		.loc 5 85 0
 2564 0f78 488D85B0 		leaq	-2128(%rbp), %rax
 2564      F7FFFF
 2565 0f7f 4889C7   		movq	%rax, %rdi
 2566 0f82 E8000000 		call	_ZN17RecordingReporterC1Ev
 2566      00
  86:TestTestResults.cpp ****     TestResults results(&reporter);
 2567              		.loc 5 86 0
 2568 0f87 488D95B0 		leaq	-2128(%rbp), %rdx
 2568      F7FFFF
 2569 0f8e 488D8570 		leaq	-2192(%rbp), %rax
 2569      F7FFFF
 2570 0f95 4889D6   		movq	%rdx, %rsi
 2571 0f98 4889C7   		movq	%rax, %rdi
 2572              	.LEHB70:
 2573 0f9b E8000000 		call	_ZN8UnitTest11TestResultsC1EPNS_12TestReporterE
 2573      00
  87:TestTestResults.cpp **** 
  88:TestTestResults.cpp ****     results.OnTestFailure(details, "failurestring");
 2574              		.loc 5 88 0
 2575 0fa0 488D8570 		leaq	-2192(%rbp), %rax
 2575      F7FFFF
 2576 0fa7 BA000000 		movl	$.LC21, %edx
 2576      00
 2577 0fac BE000000 		movl	$_ZN12_GLOBAL__N_1L7detailsE, %esi
 2577      00
 2578 0fb1 4889C7   		movq	%rax, %rdi
 2579 0fb4 E8000000 		call	_ZN8UnitTest11TestResults13OnTestFailureERKNS_11TestDetailsEPKc
 2579      00
 2580              	.LEHE70:
 2581              	.LEHB71:
  89:TestTestResults.cpp ****     CHECK_EQUAL (1, reporter.testFailedCount);
 2582              		.loc 5 89 0
 2583 0fb9 E8000000 		call	_ZN8UnitTest11CurrentTest7DetailsEv
 2583      00
 2584 0fbe 488B08   		movq	(%rax), %rcx
 2585 0fc1 488D8590 		leaq	-2160(%rbp), %rax
 2585      F7FFFF
 2586 0fc8 BA590000 		movl	$89, %edx
 2586      00
 2587 0fcd 4889CE   		movq	%rcx, %rsi
 2588 0fd0 4889C7   		movq	%rax, %rdi
 2589 0fd3 E8000000 		call	_ZN8UnitTest11TestDetailsC1ERKS0_i
 2589      00
 2590              	.LEHE71:
 2591              		.loc 5 89 0 is_stmt 0 discriminator 2
 2592 0fd8 C7856CF7 		movl	$1, -2196(%rbp)
 2592      FFFF0100 
 2592      0000
 2593              	.LEHB72:
 2594 0fe2 E8000000 		call	_ZN8UnitTest11CurrentTest7ResultsEv
 2594      00
 2595 0fe7 488B00   		movq	(%rax), %rax
 2596 0fea 488D9590 		leaq	-2160(%rbp), %rdx
 2596      F7FFFF
 2597 0ff1 488D8DB0 		leaq	-2128(%rbp), %rcx
 2597      F7FFFF
 2598 0ff8 488DB90C 		leaq	524(%rcx), %rdi
 2598      020000
 2599 0fff 488DB56C 		leaq	-2196(%rbp), %rsi
 2599      F7FFFF
 2600 1006 4889D1   		movq	%rdx, %rcx
 2601 1009 4889FA   		movq	%rdi, %rdx
 2602 100c 4889C7   		movq	%rax, %rdi
 2603 100f E8000000 		call	_ZN8UnitTest10CheckEqualIiiEEvRNS_11TestResultsERKT_RKT0_RKNS_11TestDetailsE
 2603      00
 2604              	.LEHE72:
 2605              	.L133:
 2606              	.LEHB73:
  90:TestTestResults.cpp **** 
  91:TestTestResults.cpp ****     CHECK_EQUAL ("filename", reporter.lastFailedFile);
 2607              		.loc 5 91 0 is_stmt 1
 2608 1014 E8000000 		call	_ZN8UnitTest11CurrentTest7DetailsEv
 2608      00
 2609 1019 488B08   		movq	(%rax), %rcx
 2610 101c 488D8590 		leaq	-2160(%rbp), %rax
 2610      F7FFFF
 2611 1023 BA5B0000 		movl	$91, %edx
 2611      00
 2612 1028 4889CE   		movq	%rcx, %rsi
 2613 102b 4889C7   		movq	%rax, %rdi
 2614 102e E8000000 		call	_ZN8UnitTest11TestDetailsC1ERKS0_i
 2614      00
 2615              		.loc 5 91 0 is_stmt 0 discriminator 2
 2616 1033 E8000000 		call	_ZN8UnitTest11CurrentTest7ResultsEv
 2616      00
 2617 1038 488B00   		movq	(%rax), %rax
 2618 103b 488D9590 		leaq	-2160(%rbp), %rdx
 2618      F7FFFF
 2619 1042 488D8DB0 		leaq	-2128(%rbp), %rcx
 2619      F7FFFF
 2620 1049 488DB110 		leaq	528(%rcx), %rsi
 2620      020000
 2621 1050 4889D1   		movq	%rdx, %rcx
 2622 1053 4889F2   		movq	%rsi, %rdx
 2623 1056 BE000000 		movl	$.LC22, %esi
 2623      00
 2624 105b 4889C7   		movq	%rax, %rdi
 2625 105e E8000000 		call	_ZN8UnitTest10CheckEqualERNS_11TestResultsEPKcPcRKNS_11TestDetailsE
 2625      00
 2626              	.LEHE73:
 2627              	.L137:
 2628              	.LEHB74:
  92:TestTestResults.cpp ****     CHECK_EQUAL (123, reporter.lastFailedLine);
 2629              		.loc 5 92 0 is_stmt 1
 2630 1063 E8000000 		call	_ZN8UnitTest11CurrentTest7DetailsEv
 2630      00
 2631 1068 488B08   		movq	(%rax), %rcx
 2632 106b 488D8590 		leaq	-2160(%rbp), %rax
 2632      F7FFFF
 2633 1072 BA5C0000 		movl	$92, %edx
 2633      00
 2634 1077 4889CE   		movq	%rcx, %rsi
 2635 107a 4889C7   		movq	%rax, %rdi
 2636 107d E8000000 		call	_ZN8UnitTest11TestDetailsC1ERKS0_i
 2636      00
 2637              	.LEHE74:
 2638              		.loc 5 92 0 is_stmt 0 discriminator 2
 2639 1082 C7856CF7 		movl	$123, -2196(%rbp)
 2639      FFFF7B00 
 2639      0000
 2640              	.LEHB75:
 2641 108c E8000000 		call	_ZN8UnitTest11CurrentTest7ResultsEv
 2641      00
 2642 1091 488B00   		movq	(%rax), %rax
 2643 1094 488D9590 		leaq	-2160(%rbp), %rdx
 2643      F7FFFF
 2644 109b 488D8DB0 		leaq	-2128(%rbp), %rcx
 2644      F7FFFF
 2645 10a2 488DB910 		leaq	784(%rcx), %rdi
 2645      030000
 2646 10a9 488DB56C 		leaq	-2196(%rbp), %rsi
 2646      F7FFFF
 2647 10b0 4889D1   		movq	%rdx, %rcx
 2648 10b3 4889FA   		movq	%rdi, %rdx
 2649 10b6 4889C7   		movq	%rax, %rdi
 2650 10b9 E8000000 		call	_ZN8UnitTest10CheckEqualIiiEEvRNS_11TestResultsERKT_RKT0_RKNS_11TestDetailsE
 2650      00
 2651              	.LEHE75:
 2652              	.L141:
 2653              	.LEHB76:
  93:TestTestResults.cpp ****     CHECK_EQUAL ("testname", reporter.lastFailedTest);
 2654              		.loc 5 93 0 is_stmt 1
 2655 10be E8000000 		call	_ZN8UnitTest11CurrentTest7DetailsEv
 2655      00
 2656 10c3 488B08   		movq	(%rax), %rcx
 2657 10c6 488D8590 		leaq	-2160(%rbp), %rax
 2657      F7FFFF
 2658 10cd BA5D0000 		movl	$93, %edx
 2658      00
 2659 10d2 4889CE   		movq	%rcx, %rsi
 2660 10d5 4889C7   		movq	%rax, %rdi
 2661 10d8 E8000000 		call	_ZN8UnitTest11TestDetailsC1ERKS0_i
 2661      00
 2662              		.loc 5 93 0 is_stmt 0 discriminator 2
 2663 10dd E8000000 		call	_ZN8UnitTest11CurrentTest7ResultsEv
 2663      00
 2664 10e2 488B00   		movq	(%rax), %rax
 2665 10e5 488D9590 		leaq	-2160(%rbp), %rdx
 2665      F7FFFF
 2666 10ec 488D8DB0 		leaq	-2128(%rbp), %rcx
 2666      F7FFFF
 2667 10f3 488DB114 		leaq	1044(%rcx), %rsi
 2667      040000
 2668 10fa 4889D1   		movq	%rdx, %rcx
 2669 10fd 4889F2   		movq	%rsi, %rdx
 2670 1100 BE000000 		movl	$.LC16, %esi
 2670      00
 2671 1105 4889C7   		movq	%rax, %rdi
 2672 1108 E8000000 		call	_ZN8UnitTest10CheckEqualERNS_11TestResultsEPKcPcRKNS_11TestDetailsE
 2672      00
 2673              	.LEHE76:
 2674              	.L144:
 2675              	.LEHB77:
  94:TestTestResults.cpp ****     CHECK_EQUAL ("suitename", reporter.lastFailedSuite);
 2676              		.loc 5 94 0 is_stmt 1
 2677 110d E8000000 		call	_ZN8UnitTest11CurrentTest7DetailsEv
 2677      00
 2678 1112 488B08   		movq	(%rax), %rcx
 2679 1115 488D8590 		leaq	-2160(%rbp), %rax
 2679      F7FFFF
 2680 111c BA5E0000 		movl	$94, %edx
 2680      00
 2681 1121 4889CE   		movq	%rcx, %rsi
 2682 1124 4889C7   		movq	%rax, %rdi
 2683 1127 E8000000 		call	_ZN8UnitTest11TestDetailsC1ERKS0_i
 2683      00
 2684              		.loc 5 94 0 is_stmt 0 discriminator 2
 2685 112c E8000000 		call	_ZN8UnitTest11CurrentTest7ResultsEv
 2685      00
 2686 1131 488B00   		movq	(%rax), %rax
 2687 1134 488D9590 		leaq	-2160(%rbp), %rdx
 2687      F7FFFF
 2688 113b 488D8DB0 		leaq	-2128(%rbp), %rcx
 2688      F7FFFF
 2689 1142 488DB114 		leaq	788(%rcx), %rsi
 2689      030000
 2690 1149 4889D1   		movq	%rdx, %rcx
 2691 114c 4889F2   		movq	%rsi, %rdx
 2692 114f BE000000 		movl	$.LC15, %esi
 2692      00
 2693 1154 4889C7   		movq	%rax, %rdi
 2694 1157 E8000000 		call	_ZN8UnitTest10CheckEqualERNS_11TestResultsEPKcPcRKNS_11TestDetailsE
 2694      00
 2695              	.LEHE77:
 2696              	.L147:
 2697              	.LEHB78:
  95:TestTestResults.cpp ****     CHECK_EQUAL ("failurestring", reporter.lastFailedMessage);
 2698              		.loc 5 95 0 is_stmt 1
 2699 115c E8000000 		call	_ZN8UnitTest11CurrentTest7DetailsEv
 2699      00
 2700 1161 488B08   		movq	(%rax), %rcx
 2701 1164 488D8590 		leaq	-2160(%rbp), %rax
 2701      F7FFFF
 2702 116b BA5F0000 		movl	$95, %edx
 2702      00
 2703 1170 4889CE   		movq	%rcx, %rsi
 2704 1173 4889C7   		movq	%rax, %rdi
 2705 1176 E8000000 		call	_ZN8UnitTest11TestDetailsC1ERKS0_i
 2705      00
 2706              		.loc 5 95 0 is_stmt 0 discriminator 2
 2707 117b E8000000 		call	_ZN8UnitTest11CurrentTest7ResultsEv
 2707      00
 2708 1180 488B00   		movq	(%rax), %rax
 2709 1183 488D9590 		leaq	-2160(%rbp), %rdx
 2709      F7FFFF
 2710 118a 488D8DB0 		leaq	-2128(%rbp), %rcx
 2710      F7FFFF
 2711 1191 488DB114 		leaq	1300(%rcx), %rsi
 2711      050000
 2712 1198 4889D1   		movq	%rdx, %rcx
 2713 119b 4889F2   		movq	%rsi, %rdx
 2714 119e BE000000 		movl	$.LC21, %esi
 2714      00
 2715 11a3 4889C7   		movq	%rax, %rdi
 2716 11a6 E8000000 		call	_ZN8UnitTest10CheckEqualERNS_11TestResultsEPKcPcRKNS_11TestDetailsE
 2716      00
 2717              	.LEHE78:
 2718              	.L150:
  85:TestTestResults.cpp ****     TestResults results(&reporter);
 2719              		.loc 5 85 0 is_stmt 1
 2720 11ab 488D85B0 		leaq	-2128(%rbp), %rax
 2720      F7FFFF
 2721 11b2 4889C7   		movq	%rax, %rdi
 2722              	.LEHB79:
 2723 11b5 E8000000 		call	_ZN17RecordingReporterD1Ev
 2723      00
 2724              	.LEHE79:
  96:TestTestResults.cpp **** }
 2725              		.loc 5 96 0
 2726 11ba 90       		nop
 2727 11bb 488B45E8 		movq	-24(%rbp), %rax
 2728 11bf 64483304 		xorq	%fs:40, %rax
 2728      25280000 
 2728      00
 2729 11c8 0F845302 		je	.L152
 2729      0000
 2730 11ce E9490200 		jmp	.L168
 2730      00
 2731              	.L155:
 2732 11d3 EB00     		jmp	.L132
 2733              	.L154:
 2734              	.L132:
  89:TestTestResults.cpp **** 
 2735              		.loc 5 89 0
 2736 11d5 4889C7   		movq	%rax, %rdi
 2737 11d8 E8000000 		call	__cxa_begin_catch
 2737      00
 2738              	.LEHB80:
 2739 11dd E8000000 		call	_ZN8UnitTest11CurrentTest7DetailsEv
 2739      00
 2740 11e2 488B08   		movq	(%rax), %rcx
 2741 11e5 488D8590 		leaq	-2160(%rbp), %rax
 2741      F7FFFF
 2742 11ec BA590000 		movl	$89, %edx
 2742      00
 2743 11f1 4889CE   		movq	%rcx, %rsi
 2744 11f4 4889C7   		movq	%rax, %rdi
 2745 11f7 E8000000 		call	_ZN8UnitTest11TestDetailsC1ERKS0_i
 2745      00
  89:TestTestResults.cpp **** 
 2746              		.loc 5 89 0 is_stmt 0 discriminator 10
 2747 11fc E8000000 		call	_ZN8UnitTest11CurrentTest7ResultsEv
 2747      00
 2748 1201 488B00   		movq	(%rax), %rax
 2749 1204 488D8D90 		leaq	-2160(%rbp), %rcx
 2749      F7FFFF
 2750 120b BA000000 		movl	$.LC23, %edx
 2750      00
 2751 1210 4889CE   		movq	%rcx, %rsi
 2752 1213 4889C7   		movq	%rax, %rdi
 2753 1216 E8000000 		call	_ZN8UnitTest11TestResults13OnTestFailureERKNS_11TestDetailsEPKc
 2753      00
 2754              	.LEHE80:
 2755              	.LEHB81:
  89:TestTestResults.cpp **** 
 2756              		.loc 5 89 0 discriminator 14
 2757 121b E8000000 		call	__cxa_end_catch
 2757      00
 2758              	.LEHE81:
  89:TestTestResults.cpp **** 
 2759              		.loc 5 89 0
 2760 1220 E9EFFDFF 		jmp	.L133
 2760      FF
 2761              	.L156:
 2762 1225 4889C3   		movq	%rax, %rbx
 2763 1228 E8000000 		call	__cxa_end_catch
 2763      00
 2764 122d E9D00100 		jmp	.L135
 2764      00
 2765              	.L157:
  91:TestTestResults.cpp ****     CHECK_EQUAL (123, reporter.lastFailedLine);
 2766              		.loc 5 91 0 is_stmt 1
 2767 1232 4889C7   		movq	%rax, %rdi
 2768 1235 E8000000 		call	__cxa_begin_catch
 2768      00
 2769              	.LEHB82:
 2770 123a E8000000 		call	_ZN8UnitTest11CurrentTest7DetailsEv
 2770      00
 2771 123f 488B08   		movq	(%rax), %rcx
 2772 1242 488D8590 		leaq	-2160(%rbp), %rax
 2772      F7FFFF
 2773 1249 BA5B0000 		movl	$91, %edx
 2773      00
 2774 124e 4889CE   		movq	%rcx, %rsi
 2775 1251 4889C7   		movq	%rax, %rdi
 2776 1254 E8000000 		call	_ZN8UnitTest11TestDetailsC1ERKS0_i
 2776      00
  91:TestTestResults.cpp ****     CHECK_EQUAL (123, reporter.lastFailedLine);
 2777              		.loc 5 91 0 is_stmt 0 discriminator 10
 2778 1259 E8000000 		call	_ZN8UnitTest11CurrentTest7ResultsEv
 2778      00
 2779 125e 488B00   		movq	(%rax), %rax
 2780 1261 488D8D90 		leaq	-2160(%rbp), %rcx
 2780      F7FFFF
 2781 1268 BA000000 		movl	$.LC24, %edx
 2781      00
 2782 126d 4889CE   		movq	%rcx, %rsi
 2783 1270 4889C7   		movq	%rax, %rdi
 2784 1273 E8000000 		call	_ZN8UnitTest11TestResults13OnTestFailureERKNS_11TestDetailsEPKc
 2784      00
 2785              	.LEHE82:
 2786              	.LEHB83:
  91:TestTestResults.cpp ****     CHECK_EQUAL (123, reporter.lastFailedLine);
 2787              		.loc 5 91 0 discriminator 14
 2788 1278 E8000000 		call	__cxa_end_catch
 2788      00
 2789              	.LEHE83:
  91:TestTestResults.cpp ****     CHECK_EQUAL (123, reporter.lastFailedLine);
 2790              		.loc 5 91 0
 2791 127d E9E1FDFF 		jmp	.L137
 2791      FF
 2792              	.L158:
 2793 1282 4889C3   		movq	%rax, %rbx
 2794 1285 E8000000 		call	__cxa_end_catch
 2794      00
 2795 128a E9730100 		jmp	.L135
 2795      00
 2796              	.L160:
 2797 128f EB00     		jmp	.L140
 2798              	.L159:
 2799              	.L140:
  92:TestTestResults.cpp ****     CHECK_EQUAL ("testname", reporter.lastFailedTest);
 2800              		.loc 5 92 0 is_stmt 1
 2801 1291 4889C7   		movq	%rax, %rdi
 2802 1294 E8000000 		call	__cxa_begin_catch
 2802      00
 2803              	.LEHB84:
 2804 1299 E8000000 		call	_ZN8UnitTest11CurrentTest7DetailsEv
 2804      00
 2805 129e 488B08   		movq	(%rax), %rcx
 2806 12a1 488D8590 		leaq	-2160(%rbp), %rax
 2806      F7FFFF
 2807 12a8 BA5C0000 		movl	$92, %edx
 2807      00
 2808 12ad 4889CE   		movq	%rcx, %rsi
 2809 12b0 4889C7   		movq	%rax, %rdi
 2810 12b3 E8000000 		call	_ZN8UnitTest11TestDetailsC1ERKS0_i
 2810      00
  92:TestTestResults.cpp ****     CHECK_EQUAL ("testname", reporter.lastFailedTest);
 2811              		.loc 5 92 0 is_stmt 0 discriminator 10
 2812 12b8 E8000000 		call	_ZN8UnitTest11CurrentTest7ResultsEv
 2812      00
 2813 12bd 488B00   		movq	(%rax), %rax
 2814 12c0 488D8D90 		leaq	-2160(%rbp), %rcx
 2814      F7FFFF
 2815 12c7 BA000000 		movl	$.LC25, %edx
 2815      00
 2816 12cc 4889CE   		movq	%rcx, %rsi
 2817 12cf 4889C7   		movq	%rax, %rdi
 2818 12d2 E8000000 		call	_ZN8UnitTest11TestResults13OnTestFailureERKNS_11TestDetailsEPKc
 2818      00
 2819              	.LEHE84:
 2820              	.LEHB85:
  92:TestTestResults.cpp ****     CHECK_EQUAL ("testname", reporter.lastFailedTest);
 2821              		.loc 5 92 0 discriminator 14
 2822 12d7 E8000000 		call	__cxa_end_catch
 2822      00
 2823              	.LEHE85:
  92:TestTestResults.cpp ****     CHECK_EQUAL ("testname", reporter.lastFailedTest);
 2824              		.loc 5 92 0
 2825 12dc E9DDFDFF 		jmp	.L141
 2825      FF
 2826              	.L161:
 2827 12e1 4889C3   		movq	%rax, %rbx
 2828 12e4 E8000000 		call	__cxa_end_catch
 2828      00
 2829 12e9 E9140100 		jmp	.L135
 2829      00
 2830              	.L162:
  93:TestTestResults.cpp ****     CHECK_EQUAL ("suitename", reporter.lastFailedSuite);
 2831              		.loc 5 93 0 is_stmt 1
 2832 12ee 4889C7   		movq	%rax, %rdi
 2833 12f1 E8000000 		call	__cxa_begin_catch
 2833      00
 2834              	.LEHB86:
 2835 12f6 E8000000 		call	_ZN8UnitTest11CurrentTest7DetailsEv
 2835      00
 2836 12fb 488B08   		movq	(%rax), %rcx
 2837 12fe 488D8590 		leaq	-2160(%rbp), %rax
 2837      F7FFFF
 2838 1305 BA5D0000 		movl	$93, %edx
 2838      00
 2839 130a 4889CE   		movq	%rcx, %rsi
 2840 130d 4889C7   		movq	%rax, %rdi
 2841 1310 E8000000 		call	_ZN8UnitTest11TestDetailsC1ERKS0_i
 2841      00
  93:TestTestResults.cpp ****     CHECK_EQUAL ("suitename", reporter.lastFailedSuite);
 2842              		.loc 5 93 0 is_stmt 0 discriminator 10
 2843 1315 E8000000 		call	_ZN8UnitTest11CurrentTest7ResultsEv
 2843      00
 2844 131a 488B00   		movq	(%rax), %rax
 2845 131d 488D8D90 		leaq	-2160(%rbp), %rcx
 2845      F7FFFF
 2846 1324 BA000000 		movl	$.LC27, %edx
 2846      00
 2847 1329 4889CE   		movq	%rcx, %rsi
 2848 132c 4889C7   		movq	%rax, %rdi
 2849 132f E8000000 		call	_ZN8UnitTest11TestResults13OnTestFailureERKNS_11TestDetailsEPKc
 2849      00
 2850              	.LEHE86:
 2851              	.LEHB87:
  93:TestTestResults.cpp ****     CHECK_EQUAL ("suitename", reporter.lastFailedSuite);
 2852              		.loc 5 93 0 discriminator 14
 2853 1334 E8000000 		call	__cxa_end_catch
 2853      00
 2854              	.LEHE87:
  93:TestTestResults.cpp ****     CHECK_EQUAL ("suitename", reporter.lastFailedSuite);
 2855              		.loc 5 93 0
 2856 1339 E9CFFDFF 		jmp	.L144
 2856      FF
 2857              	.L163:
 2858 133e 4889C3   		movq	%rax, %rbx
 2859 1341 E8000000 		call	__cxa_end_catch
 2859      00
 2860 1346 E9B70000 		jmp	.L135
 2860      00
 2861              	.L164:
  94:TestTestResults.cpp ****     CHECK_EQUAL ("failurestring", reporter.lastFailedMessage);
 2862              		.loc 5 94 0 is_stmt 1
 2863 134b 4889C7   		movq	%rax, %rdi
 2864 134e E8000000 		call	__cxa_begin_catch
 2864      00
 2865              	.LEHB88:
 2866 1353 E8000000 		call	_ZN8UnitTest11CurrentTest7DetailsEv
 2866      00
 2867 1358 488B08   		movq	(%rax), %rcx
 2868 135b 488D8590 		leaq	-2160(%rbp), %rax
 2868      F7FFFF
 2869 1362 BA5E0000 		movl	$94, %edx
 2869      00
 2870 1367 4889CE   		movq	%rcx, %rsi
 2871 136a 4889C7   		movq	%rax, %rdi
 2872 136d E8000000 		call	_ZN8UnitTest11TestDetailsC1ERKS0_i
 2872      00
  94:TestTestResults.cpp ****     CHECK_EQUAL ("failurestring", reporter.lastFailedMessage);
 2873              		.loc 5 94 0 is_stmt 0 discriminator 10
 2874 1372 E8000000 		call	_ZN8UnitTest11CurrentTest7ResultsEv
 2874      00
 2875 1377 488B00   		movq	(%rax), %rax
 2876 137a 488D8D90 		leaq	-2160(%rbp), %rcx
 2876      F7FFFF
 2877 1381 BA000000 		movl	$.LC26, %edx
 2877      00
 2878 1386 4889CE   		movq	%rcx, %rsi
 2879 1389 4889C7   		movq	%rax, %rdi
 2880 138c E8000000 		call	_ZN8UnitTest11TestResults13OnTestFailureERKNS_11TestDetailsEPKc
 2880      00
 2881              	.LEHE88:
 2882              	.LEHB89:
  94:TestTestResults.cpp ****     CHECK_EQUAL ("failurestring", reporter.lastFailedMessage);
 2883              		.loc 5 94 0 discriminator 14
 2884 1391 E8000000 		call	__cxa_end_catch
 2884      00
 2885              	.LEHE89:
  94:TestTestResults.cpp ****     CHECK_EQUAL ("failurestring", reporter.lastFailedMessage);
 2886              		.loc 5 94 0
 2887 1396 E9C1FDFF 		jmp	.L147
 2887      FF
 2888              	.L165:
 2889 139b 4889C3   		movq	%rax, %rbx
 2890 139e E8000000 		call	__cxa_end_catch
 2890      00
 2891 13a3 EB5D     		jmp	.L135
 2892              	.L166:
  95:TestTestResults.cpp **** }
 2893              		.loc 5 95 0 is_stmt 1
 2894 13a5 4889C7   		movq	%rax, %rdi
 2895 13a8 E8000000 		call	__cxa_begin_catch
 2895      00
 2896              	.LEHB90:
 2897 13ad E8000000 		call	_ZN8UnitTest11CurrentTest7DetailsEv
 2897      00
 2898 13b2 488B08   		movq	(%rax), %rcx
 2899 13b5 488D8590 		leaq	-2160(%rbp), %rax
 2899      F7FFFF
 2900 13bc BA5F0000 		movl	$95, %edx
 2900      00
 2901 13c1 4889CE   		movq	%rcx, %rsi
 2902 13c4 4889C7   		movq	%rax, %rdi
 2903 13c7 E8000000 		call	_ZN8UnitTest11TestDetailsC1ERKS0_i
 2903      00
  95:TestTestResults.cpp **** }
 2904              		.loc 5 95 0 is_stmt 0 discriminator 10
 2905 13cc E8000000 		call	_ZN8UnitTest11CurrentTest7ResultsEv
 2905      00
 2906 13d1 488B00   		movq	(%rax), %rax
 2907 13d4 488D8D90 		leaq	-2160(%rbp), %rcx
 2907      F7FFFF
 2908 13db BA000000 		movl	$.LC28, %edx
 2908      00
 2909 13e0 4889CE   		movq	%rcx, %rsi
 2910 13e3 4889C7   		movq	%rax, %rdi
 2911 13e6 E8000000 		call	_ZN8UnitTest11TestResults13OnTestFailureERKNS_11TestDetailsEPKc
 2911      00
 2912              	.LEHE90:
 2913              	.LEHB91:
  95:TestTestResults.cpp **** }
 2914              		.loc 5 95 0 discriminator 14
 2915 13eb E8000000 		call	__cxa_end_catch
 2915      00
 2916              	.LEHE91:
  95:TestTestResults.cpp **** }
 2917              		.loc 5 95 0
 2918 13f0 E9B6FDFF 		jmp	.L150
 2918      FF
 2919              	.L167:
 2920 13f5 4889C3   		movq	%rax, %rbx
 2921 13f8 E8000000 		call	__cxa_end_catch
 2921      00
 2922 13fd EB03     		jmp	.L135
 2923              	.L153:
 2924 13ff 4889C3   		movq	%rax, %rbx
 2925              	.L135:
  85:TestTestResults.cpp ****     TestResults results(&reporter);
 2926              		.loc 5 85 0 is_stmt 1
 2927 1402 488D85B0 		leaq	-2128(%rbp), %rax
 2927      F7FFFF
 2928 1409 4889C7   		movq	%rax, %rdi
 2929 140c E8000000 		call	_ZN17RecordingReporterD1Ev
 2929      00
 2930 1411 4889D8   		movq	%rbx, %rax
 2931 1414 4889C7   		movq	%rax, %rdi
 2932              	.LEHB92:
 2933 1417 E8000000 		call	_Unwind_Resume
 2933      00
 2934              	.LEHE92:
 2935              	.L168:
 2936              		.loc 5 96 0
 2937 141c E8000000 		call	__stack_chk_fail
 2937      00
 2938              	.L152:
 2939 1421 4881C4A8 		addq	$2216, %rsp
 2939      080000
 2940 1428 5B       		popq	%rbx
 2941 1429 5D       		popq	%rbp
 2942              		.cfi_def_cfa 7, 8
 2943 142a C3       		ret
 2944              		.cfi_endproc
 2945              	.LFE1110:
 2946              		.section	.gcc_except_table
 2947              		.align 4
 2948              	.LLSDA1110:
 2949 01cc FF       		.byte	0xff
 2950 01cd 03       		.byte	0x3
 2951 01ce 9001     		.uleb128 .LLSDATT1110-.LLSDATTD1110
 2952              	.LLSDATTD1110:
 2953 01d0 01       		.byte	0x1
 2954 01d1 8601     		.uleb128 .LLSDACSE1110-.LLSDACSB1110
 2955              	.LLSDACSB1110:
 2956 01d3 45       		.uleb128 .LEHB70-.LFB1110
 2957 01d4 1E       		.uleb128 .LEHE70-.LEHB70
 2958 01d5 A909     		.uleb128 .L153-.LFB1110
 2959 01d7 00       		.uleb128 0
 2960 01d8 63       		.uleb128 .LEHB71-.LFB1110
 2961 01d9 1F       		.uleb128 .LEHE71-.LEHB71
 2962 01da FF04     		.uleb128 .L154-.LFB1110
 2963 01dc 01       		.uleb128 0x1
 2964 01dd 8C01     		.uleb128 .LEHB72-.LFB1110
 2965 01df 32       		.uleb128 .LEHE72-.LEHB72
 2966 01e0 FD04     		.uleb128 .L155-.LFB1110
 2967 01e2 01       		.uleb128 0x1
 2968 01e3 BE01     		.uleb128 .LEHB73-.LFB1110
 2969 01e5 4F       		.uleb128 .LEHE73-.LEHB73
 2970 01e6 DC05     		.uleb128 .L157-.LFB1110
 2971 01e8 01       		.uleb128 0x1
 2972 01e9 8D02     		.uleb128 .LEHB74-.LFB1110
 2973 01eb 1F       		.uleb128 .LEHE74-.LEHB74
 2974 01ec BB06     		.uleb128 .L159-.LFB1110
 2975 01ee 01       		.uleb128 0x1
 2976 01ef B602     		.uleb128 .LEHB75-.LFB1110
 2977 01f1 32       		.uleb128 .LEHE75-.LEHB75
 2978 01f2 B906     		.uleb128 .L160-.LFB1110
 2979 01f4 01       		.uleb128 0x1
 2980 01f5 E802     		.uleb128 .LEHB76-.LFB1110
 2981 01f7 4F       		.uleb128 .LEHE76-.LEHB76
 2982 01f8 9807     		.uleb128 .L162-.LFB1110
 2983 01fa 01       		.uleb128 0x1
 2984 01fb B703     		.uleb128 .LEHB77-.LFB1110
 2985 01fd 4F       		.uleb128 .LEHE77-.LEHB77
 2986 01fe F507     		.uleb128 .L164-.LFB1110
 2987 0200 01       		.uleb128 0x1
 2988 0201 8604     		.uleb128 .LEHB78-.LFB1110
 2989 0203 4F       		.uleb128 .LEHE78-.LEHB78
 2990 0204 CF08     		.uleb128 .L166-.LFB1110
 2991 0206 01       		.uleb128 0x1
 2992 0207 DF04     		.uleb128 .LEHB79-.LFB1110
 2993 0209 05       		.uleb128 .LEHE79-.LEHB79
 2994 020a 00       		.uleb128 0
 2995 020b 00       		.uleb128 0
 2996 020c 8705     		.uleb128 .LEHB80-.LFB1110
 2997 020e 3E       		.uleb128 .LEHE80-.LEHB80
 2998 020f CF05     		.uleb128 .L156-.LFB1110
 2999 0211 00       		.uleb128 0
 3000 0212 C505     		.uleb128 .LEHB81-.LFB1110
 3001 0214 05       		.uleb128 .LEHE81-.LEHB81
 3002 0215 A909     		.uleb128 .L153-.LFB1110
 3003 0217 00       		.uleb128 0
 3004 0218 E405     		.uleb128 .LEHB82-.LFB1110
 3005 021a 3E       		.uleb128 .LEHE82-.LEHB82
 3006 021b AC06     		.uleb128 .L158-.LFB1110
 3007 021d 00       		.uleb128 0
 3008 021e A206     		.uleb128 .LEHB83-.LFB1110
 3009 0220 05       		.uleb128 .LEHE83-.LEHB83
 3010 0221 A909     		.uleb128 .L153-.LFB1110
 3011 0223 00       		.uleb128 0
 3012 0224 C306     		.uleb128 .LEHB84-.LFB1110
 3013 0226 3E       		.uleb128 .LEHE84-.LEHB84
 3014 0227 8B07     		.uleb128 .L161-.LFB1110
 3015 0229 00       		.uleb128 0
 3016 022a 8107     		.uleb128 .LEHB85-.LFB1110
 3017 022c 05       		.uleb128 .LEHE85-.LEHB85
 3018 022d A909     		.uleb128 .L153-.LFB1110
 3019 022f 00       		.uleb128 0
 3020 0230 A007     		.uleb128 .LEHB86-.LFB1110
 3021 0232 3E       		.uleb128 .LEHE86-.LEHB86
 3022 0233 E807     		.uleb128 .L163-.LFB1110
 3023 0235 00       		.uleb128 0
 3024 0236 DE07     		.uleb128 .LEHB87-.LFB1110
 3025 0238 05       		.uleb128 .LEHE87-.LEHB87
 3026 0239 A909     		.uleb128 .L153-.LFB1110
 3027 023b 00       		.uleb128 0
 3028 023c FD07     		.uleb128 .LEHB88-.LFB1110
 3029 023e 3E       		.uleb128 .LEHE88-.LEHB88
 3030 023f C508     		.uleb128 .L165-.LFB1110
 3031 0241 00       		.uleb128 0
 3032 0242 BB08     		.uleb128 .LEHB89-.LFB1110
 3033 0244 05       		.uleb128 .LEHE89-.LEHB89
 3034 0245 A909     		.uleb128 .L153-.LFB1110
 3035 0247 00       		.uleb128 0
 3036 0248 D708     		.uleb128 .LEHB90-.LFB1110
 3037 024a 3E       		.uleb128 .LEHE90-.LEHB90
 3038 024b 9F09     		.uleb128 .L167-.LFB1110
 3039 024d 00       		.uleb128 0
 3040 024e 9509     		.uleb128 .LEHB91-.LFB1110
 3041 0250 05       		.uleb128 .LEHE91-.LEHB91
 3042 0251 A909     		.uleb128 .L153-.LFB1110
 3043 0253 00       		.uleb128 0
 3044 0254 C109     		.uleb128 .LEHB92-.LFB1110
 3045 0256 05       		.uleb128 .LEHE92-.LEHB92
 3046 0257 00       		.uleb128 0
 3047 0258 00       		.uleb128 0
 3048              	.LLSDACSE1110:
 3049 0259 01       		.byte	0x1
 3050 025a 00       		.byte	0
 3051 025b 00       		.align 4
 3052 025c 00000000 		.long	0
 3053              	
 3054              	.LLSDATT1110:
 3055              		.text
 3057              		.section	.rodata
 3058              	.LC30:
 3059 054e 4E6F7469 		.string	"NotifiesReporterOfTestEnd"
 3059      66696573 
 3059      5265706F 
 3059      72746572 
 3059      4F665465 
 3060              		.text
 3061 142b 90       		.align 2
 3063              	_ZN12_GLOBAL__N_129TestNotifiesReporterOfTestEndC2Ev:
 3064              	.LFB1112:
  97:TestTestResults.cpp **** 
  98:TestTestResults.cpp **** TEST(NotifiesReporterOfTestEnd)
 3065              		.loc 5 98 0
 3066              		.cfi_startproc
 3067 142c 55       		pushq	%rbp
 3068              		.cfi_def_cfa_offset 16
 3069              		.cfi_offset 6, -16
 3070 142d 4889E5   		movq	%rsp, %rbp
 3071              		.cfi_def_cfa_register 6
 3072 1430 4883EC10 		subq	$16, %rsp
 3073 1434 48897DF8 		movq	%rdi, -8(%rbp)
 3074              	.LBB14:
 3075              		.loc 5 98 0
 3076 1438 E8000000 		call	_ZN13UnitTestSuite12GetSuiteNameEv
 3076      00
 3077 143d 4889C2   		movq	%rax, %rdx
 3078 1440 488B45F8 		movq	-8(%rbp), %rax
 3079 1444 41B86200 		movl	$98, %r8d
 3079      0000
 3080 144a B9000000 		movl	$.LC2, %ecx
 3080      00
 3081 144f BE000000 		movl	$.LC30, %esi
 3081      00
 3082 1454 4889C7   		movq	%rax, %rdi
 3083 1457 E8000000 		call	_ZN8UnitTest4TestC2EPKcS2_S2_i
 3083      00
 3084 145c BA000000 		movl	$_ZTVN12_GLOBAL__N_129TestNotifiesReporterOfTestEndE+16, %edx
 3084      00
 3085 1461 488B45F8 		movq	-8(%rbp), %rax
 3086 1465 488910   		movq	%rdx, (%rax)
 3087              	.LBE14:
 3088 1468 90       		nop
 3089 1469 C9       		leave
 3090              		.cfi_def_cfa 7, 8
 3091 146a C3       		ret
 3092              		.cfi_endproc
 3093              	.LFE1112:
 3095              		.set	_ZN12_GLOBAL__N_129TestNotifiesReporterOfTestEndC1Ev,_ZN12_GLOBAL__N_129TestNotifiesReporterO
 3096              		.local	_ZN12_GLOBAL__N_137testNotifiesReporterOfTestEndInstanceE
 3097              		.comm	_ZN12_GLOBAL__N_137testNotifiesReporterOfTestEndInstanceE,56,32
 3098              		.local	_ZN12_GLOBAL__N_130adderNotifiesReporterOfTestEndE
 3099              		.comm	_ZN12_GLOBAL__N_130adderNotifiesReporterOfTestEndE,1,1
 3100              		.section	.rodata
 3101              		.align 8
 3102              	.LC33:
 3103 0568 556E6861 		.string	"Unhandled exception in CHECK_EQUAL(1, reporter.testFinishedCount)"
 3103      6E646C65 
 3103      64206578 
 3103      63657074 
 3103      696F6E20 
 3104 05aa 00000000 		.align 8
 3104      0000
 3105              	.LC34:
 3106 05b0 556E6861 		.string	"Unhandled exception in CHECK_EQUAL(\"testname\", reporter.lastFinishedTest)"
 3106      6E646C65 
 3106      64206578 
 3106      63657074 
 3106      696F6E20 
 3107 05fa 00000000 		.align 8
 3107      0000
 3108              	.LC35:
 3109 0600 556E6861 		.string	"Unhandled exception in CHECK_EQUAL(\"suitename\", reporter.lastFinishedSuite)"
 3109      6E646C65 
 3109      64206578 
 3109      63657074 
 3109      696F6E20 
 3110 064c 00000000 		.align 8
 3111              	.LC36:
 3112 0650 556E6861 		.string	"Unhandled exception in CHECK_CLOSE(0.1234f, reporter.lastFinishedTestTime)"
 3112      6E646C65 
 3112      64206578 
 3112      63657074 
 3112      696F6E20 
 3113              		.text
 3114 146b 90       		.align 2
 3116              	_ZNK12_GLOBAL__N_129TestNotifiesReporterOfTestEnd7RunImplEv:
 3117              	.LFB1114:
  99:TestTestResults.cpp **** {
 3118              		.loc 5 99 0
 3119              		.cfi_startproc
 3120              		.cfi_personality 0x3,__gxx_personality_v0
 3121              		.cfi_lsda 0x3,.LLSDA1114
 3122 146c 55       		pushq	%rbp
 3123              		.cfi_def_cfa_offset 16
 3124              		.cfi_offset 6, -16
 3125 146d 4889E5   		movq	%rsp, %rbp
 3126              		.cfi_def_cfa_register 6
 3127 1470 53       		pushq	%rbx
 3128 1471 4881ECA8 		subq	$2216, %rsp
 3128      080000
 3129              		.cfi_offset 3, -24
 3130 1478 4889BD58 		movq	%rdi, -2216(%rbp)
 3130      F7FFFF
 3131              		.loc 5 99 0
 3132 147f 64488B04 		movq	%fs:40, %rax
 3132      25280000 
 3132      00
 3133 1488 488945E8 		movq	%rax, -24(%rbp)
 3134 148c 31C0     		xorl	%eax, %eax
 100:TestTestResults.cpp ****     RecordingReporter reporter;
 3135              		.loc 5 100 0
 3136 148e 488D85B0 		leaq	-2128(%rbp), %rax
 3136      F7FFFF
 3137 1495 4889C7   		movq	%rax, %rdi
 3138 1498 E8000000 		call	_ZN17RecordingReporterC1Ev
 3138      00
 101:TestTestResults.cpp ****     TestResults results(&reporter);
 3139              		.loc 5 101 0
 3140 149d 488D95B0 		leaq	-2128(%rbp), %rdx
 3140      F7FFFF
 3141 14a4 488D8570 		leaq	-2192(%rbp), %rax
 3141      F7FFFF
 3142 14ab 4889D6   		movq	%rdx, %rsi
 3143 14ae 4889C7   		movq	%rax, %rdi
 3144              	.LEHB93:
 3145 14b1 E8000000 		call	_ZN8UnitTest11TestResultsC1EPNS_12TestReporterE
 3145      00
 102:TestTestResults.cpp **** 
 103:TestTestResults.cpp ****     results.OnTestFinish(details, 0.1234f);
 3146              		.loc 5 103 0
 3147 14b6 488D8570 		leaq	-2192(%rbp), %rax
 3147      F7FFFF
 3148 14bd F30F1005 		movss	.LC31(%rip), %xmm0
 3148      00000000 
 3149 14c5 BE000000 		movl	$_ZN12_GLOBAL__N_1L7detailsE, %esi
 3149      00
 3150 14ca 4889C7   		movq	%rax, %rdi
 3151 14cd E8000000 		call	_ZN8UnitTest11TestResults12OnTestFinishERKNS_11TestDetailsEf
 3151      00
 3152              	.LEHE93:
 3153              	.LEHB94:
 104:TestTestResults.cpp ****     CHECK_EQUAL (1, reporter.testFinishedCount);
 3154              		.loc 5 104 0
 3155 14d2 E8000000 		call	_ZN8UnitTest11CurrentTest7DetailsEv
 3155      00
 3156 14d7 488B08   		movq	(%rax), %rcx
 3157 14da 488D8590 		leaq	-2160(%rbp), %rax
 3157      F7FFFF
 3158 14e1 BA680000 		movl	$104, %edx
 3158      00
 3159 14e6 4889CE   		movq	%rcx, %rsi
 3160 14e9 4889C7   		movq	%rax, %rdi
 3161 14ec E8000000 		call	_ZN8UnitTest11TestDetailsC1ERKS0_i
 3161      00
 3162              	.LEHE94:
 3163              		.loc 5 104 0 is_stmt 0 discriminator 2
 3164 14f1 C7856CF7 		movl	$1, -2196(%rbp)
 3164      FFFF0100 
 3164      0000
 3165              	.LEHB95:
 3166 14fb E8000000 		call	_ZN8UnitTest11CurrentTest7ResultsEv
 3166      00
 3167 1500 488B00   		movq	(%rax), %rax
 3168 1503 488D9590 		leaq	-2160(%rbp), %rdx
 3168      F7FFFF
 3169 150a 488D8DB0 		leaq	-2128(%rbp), %rcx
 3169      F7FFFF
 3170 1511 488DB914 		leaq	1556(%rcx), %rdi
 3170      060000
 3171 1518 488DB56C 		leaq	-2196(%rbp), %rsi
 3171      F7FFFF
 3172 151f 4889D1   		movq	%rdx, %rcx
 3173 1522 4889FA   		movq	%rdi, %rdx
 3174 1525 4889C7   		movq	%rax, %rdi
 3175 1528 E8000000 		call	_ZN8UnitTest10CheckEqualIiiEEvRNS_11TestResultsERKT_RKT0_RKNS_11TestDetailsE
 3175      00
 3176              	.LEHE95:
 3177              	.L173:
 3178              	.LEHB96:
 105:TestTestResults.cpp ****     CHECK_EQUAL ("testname", reporter.lastFinishedTest);
 3179              		.loc 5 105 0 is_stmt 1
 3180 152d E8000000 		call	_ZN8UnitTest11CurrentTest7DetailsEv
 3180      00
 3181 1532 488B08   		movq	(%rax), %rcx
 3182 1535 488D8590 		leaq	-2160(%rbp), %rax
 3182      F7FFFF
 3183 153c BA690000 		movl	$105, %edx
 3183      00
 3184 1541 4889CE   		movq	%rcx, %rsi
 3185 1544 4889C7   		movq	%rax, %rdi
 3186 1547 E8000000 		call	_ZN8UnitTest11TestDetailsC1ERKS0_i
 3186      00
 3187              		.loc 5 105 0 is_stmt 0 discriminator 2
 3188 154c E8000000 		call	_ZN8UnitTest11CurrentTest7ResultsEv
 3188      00
 3189 1551 488B00   		movq	(%rax), %rax
 3190 1554 488D9590 		leaq	-2160(%rbp), %rdx
 3190      F7FFFF
 3191 155b 488D8DB0 		leaq	-2128(%rbp), %rcx
 3191      F7FFFF
 3192 1562 488DB118 		leaq	1816(%rcx), %rsi
 3192      070000
 3193 1569 4889D1   		movq	%rdx, %rcx
 3194 156c 4889F2   		movq	%rsi, %rdx
 3195 156f BE000000 		movl	$.LC16, %esi
 3195      00
 3196 1574 4889C7   		movq	%rax, %rdi
 3197 1577 E8000000 		call	_ZN8UnitTest10CheckEqualERNS_11TestResultsEPKcPcRKNS_11TestDetailsE
 3197      00
 3198              	.LEHE96:
 3199              	.L177:
 3200              	.LEHB97:
 106:TestTestResults.cpp ****     CHECK_EQUAL ("suitename", reporter.lastFinishedSuite);
 3201              		.loc 5 106 0 is_stmt 1
 3202 157c E8000000 		call	_ZN8UnitTest11CurrentTest7DetailsEv
 3202      00
 3203 1581 488B08   		movq	(%rax), %rcx
 3204 1584 488D8590 		leaq	-2160(%rbp), %rax
 3204      F7FFFF
 3205 158b BA6A0000 		movl	$106, %edx
 3205      00
 3206 1590 4889CE   		movq	%rcx, %rsi
 3207 1593 4889C7   		movq	%rax, %rdi
 3208 1596 E8000000 		call	_ZN8UnitTest11TestDetailsC1ERKS0_i
 3208      00
 3209              		.loc 5 106 0 is_stmt 0 discriminator 2
 3210 159b E8000000 		call	_ZN8UnitTest11CurrentTest7ResultsEv
 3210      00
 3211 15a0 488B00   		movq	(%rax), %rax
 3212 15a3 488D9590 		leaq	-2160(%rbp), %rdx
 3212      F7FFFF
 3213 15aa 488D8DB0 		leaq	-2128(%rbp), %rcx
 3213      F7FFFF
 3214 15b1 488DB118 		leaq	1560(%rcx), %rsi
 3214      060000
 3215 15b8 4889D1   		movq	%rdx, %rcx
 3216 15bb 4889F2   		movq	%rsi, %rdx
 3217 15be BE000000 		movl	$.LC15, %esi
 3217      00
 3218 15c3 4889C7   		movq	%rax, %rdi
 3219 15c6 E8000000 		call	_ZN8UnitTest10CheckEqualERNS_11TestResultsEPKcPcRKNS_11TestDetailsE
 3219      00
 3220              	.LEHE97:
 3221              	.L180:
 3222              	.LEHB98:
 107:TestTestResults.cpp ****     CHECK_CLOSE (0.1234f, reporter.lastFinishedTestTime, 0.0001f);
 3223              		.loc 5 107 0 is_stmt 1
 3224 15cb E8000000 		call	_ZN8UnitTest11CurrentTest7DetailsEv
 3224      00
 3225 15d0 488B08   		movq	(%rax), %rcx
 3226 15d3 488D8590 		leaq	-2160(%rbp), %rax
 3226      F7FFFF
 3227 15da BA6B0000 		movl	$107, %edx
 3227      00
 3228 15df 4889CE   		movq	%rcx, %rsi
 3229 15e2 4889C7   		movq	%rax, %rdi
 3230 15e5 E8000000 		call	_ZN8UnitTest11TestDetailsC1ERKS0_i
 3230      00
 3231              	.LEHE98:
 3232              		.loc 5 107 0 is_stmt 0 discriminator 2
 3233 15ea F30F1005 		movss	.LC32(%rip), %xmm0
 3233      00000000 
 3234 15f2 F30F1185 		movss	%xmm0, -2196(%rbp)
 3234      6CF7FFFF 
 3235 15fa F30F1005 		movss	.LC31(%rip), %xmm0
 3235      00000000 
 3236 1602 F30F1185 		movss	%xmm0, -2200(%rbp)
 3236      68F7FFFF 
 3237              	.LEHB99:
 3238 160a E8000000 		call	_ZN8UnitTest11CurrentTest7ResultsEv
 3238      00
 3239 160f 488B00   		movq	(%rax), %rax
 3240 1612 488D8D90 		leaq	-2160(%rbp), %rcx
 3240      F7FFFF
 3241 1619 488D956C 		leaq	-2196(%rbp), %rdx
 3241      F7FFFF
 3242 1620 488DB5B0 		leaq	-2128(%rbp), %rsi
 3242      F7FFFF
 3243 1627 488DBE18 		leaq	2072(%rsi), %rdi
 3243      080000
 3244 162e 488DB568 		leaq	-2200(%rbp), %rsi
 3244      F7FFFF
 3245 1635 4989C8   		movq	%rcx, %r8
 3246 1638 4889D1   		movq	%rdx, %rcx
 3247 163b 4889FA   		movq	%rdi, %rdx
 3248 163e 4889C7   		movq	%rax, %rdi
 3249 1641 E8000000 		call	_ZN8UnitTest10CheckCloseIfffEEvRNS_11TestResultsERKT_RKT0_RKT1_RKNS_11TestDetailsE
 3249      00
 3250              	.LEHE99:
 3251              	.L184:
 100:TestTestResults.cpp ****     TestResults results(&reporter);
 3252              		.loc 5 100 0 is_stmt 1
 3253 1646 488D85B0 		leaq	-2128(%rbp), %rax
 3253      F7FFFF
 3254 164d 4889C7   		movq	%rax, %rdi
 3255              	.LEHB100:
 3256 1650 E8000000 		call	_ZN17RecordingReporterD1Ev
 3256      00
 3257              	.LEHE100:
 108:TestTestResults.cpp **** }
 3258              		.loc 5 108 0
 3259 1655 90       		nop
 3260 1656 488B45E8 		movq	-24(%rbp), %rax
 3261 165a 64483304 		xorq	%fs:40, %rax
 3261      25280000 
 3261      00
 3262 1663 0F849901 		je	.L186
 3262      0000
 3263 1669 E98F0100 		jmp	.L198
 3263      00
 3264              	.L189:
 3265 166e EB00     		jmp	.L172
 3266              	.L188:
 3267              	.L172:
 104:TestTestResults.cpp ****     CHECK_EQUAL ("testname", reporter.lastFinishedTest);
 3268              		.loc 5 104 0
 3269 1670 4889C7   		movq	%rax, %rdi
 3270 1673 E8000000 		call	__cxa_begin_catch
 3270      00
 3271              	.LEHB101:
 3272 1678 E8000000 		call	_ZN8UnitTest11CurrentTest7DetailsEv
 3272      00
 3273 167d 488B08   		movq	(%rax), %rcx
 3274 1680 488D8590 		leaq	-2160(%rbp), %rax
 3274      F7FFFF
 3275 1687 BA680000 		movl	$104, %edx
 3275      00
 3276 168c 4889CE   		movq	%rcx, %rsi
 3277 168f 4889C7   		movq	%rax, %rdi
 3278 1692 E8000000 		call	_ZN8UnitTest11TestDetailsC1ERKS0_i
 3278      00
 104:TestTestResults.cpp ****     CHECK_EQUAL ("testname", reporter.lastFinishedTest);
 3279              		.loc 5 104 0 is_stmt 0 discriminator 10
 3280 1697 E8000000 		call	_ZN8UnitTest11CurrentTest7ResultsEv
 3280      00
 3281 169c 488B00   		movq	(%rax), %rax
 3282 169f 488D8D90 		leaq	-2160(%rbp), %rcx
 3282      F7FFFF
 3283 16a6 BA000000 		movl	$.LC33, %edx
 3283      00
 3284 16ab 4889CE   		movq	%rcx, %rsi
 3285 16ae 4889C7   		movq	%rax, %rdi
 3286 16b1 E8000000 		call	_ZN8UnitTest11TestResults13OnTestFailureERKNS_11TestDetailsEPKc
 3286      00
 3287              	.LEHE101:
 3288              	.LEHB102:
 104:TestTestResults.cpp ****     CHECK_EQUAL ("testname", reporter.lastFinishedTest);
 3289              		.loc 5 104 0 discriminator 14
 3290 16b6 E8000000 		call	__cxa_end_catch
 3290      00
 3291              	.LEHE102:
 104:TestTestResults.cpp ****     CHECK_EQUAL ("testname", reporter.lastFinishedTest);
 3292              		.loc 5 104 0
 3293 16bb E96DFEFF 		jmp	.L173
 3293      FF
 3294              	.L190:
 3295 16c0 4889C3   		movq	%rax, %rbx
 3296 16c3 E8000000 		call	__cxa_end_catch
 3296      00
 3297 16c8 E9160100 		jmp	.L175
 3297      00
 3298              	.L191:
 105:TestTestResults.cpp ****     CHECK_EQUAL ("suitename", reporter.lastFinishedSuite);
 3299              		.loc 5 105 0 is_stmt 1
 3300 16cd 4889C7   		movq	%rax, %rdi
 3301 16d0 E8000000 		call	__cxa_begin_catch
 3301      00
 3302              	.LEHB103:
 3303 16d5 E8000000 		call	_ZN8UnitTest11CurrentTest7DetailsEv
 3303      00
 3304 16da 488B08   		movq	(%rax), %rcx
 3305 16dd 488D8590 		leaq	-2160(%rbp), %rax
 3305      F7FFFF
 3306 16e4 BA690000 		movl	$105, %edx
 3306      00
 3307 16e9 4889CE   		movq	%rcx, %rsi
 3308 16ec 4889C7   		movq	%rax, %rdi
 3309 16ef E8000000 		call	_ZN8UnitTest11TestDetailsC1ERKS0_i
 3309      00
 105:TestTestResults.cpp ****     CHECK_EQUAL ("suitename", reporter.lastFinishedSuite);
 3310              		.loc 5 105 0 is_stmt 0 discriminator 10
 3311 16f4 E8000000 		call	_ZN8UnitTest11CurrentTest7ResultsEv
 3311      00
 3312 16f9 488B00   		movq	(%rax), %rax
 3313 16fc 488D8D90 		leaq	-2160(%rbp), %rcx
 3313      F7FFFF
 3314 1703 BA000000 		movl	$.LC34, %edx
 3314      00
 3315 1708 4889CE   		movq	%rcx, %rsi
 3316 170b 4889C7   		movq	%rax, %rdi
 3317 170e E8000000 		call	_ZN8UnitTest11TestResults13OnTestFailureERKNS_11TestDetailsEPKc
 3317      00
 3318              	.LEHE103:
 3319              	.LEHB104:
 105:TestTestResults.cpp ****     CHECK_EQUAL ("suitename", reporter.lastFinishedSuite);
 3320              		.loc 5 105 0 discriminator 14
 3321 1713 E8000000 		call	__cxa_end_catch
 3321      00
 3322              	.LEHE104:
 105:TestTestResults.cpp ****     CHECK_EQUAL ("suitename", reporter.lastFinishedSuite);
 3323              		.loc 5 105 0
 3324 1718 E95FFEFF 		jmp	.L177
 3324      FF
 3325              	.L192:
 3326 171d 4889C3   		movq	%rax, %rbx
 3327 1720 E8000000 		call	__cxa_end_catch
 3327      00
 3328 1725 E9B90000 		jmp	.L175
 3328      00
 3329              	.L193:
 106:TestTestResults.cpp ****     CHECK_CLOSE (0.1234f, reporter.lastFinishedTestTime, 0.0001f);
 3330              		.loc 5 106 0 is_stmt 1
 3331 172a 4889C7   		movq	%rax, %rdi
 3332 172d E8000000 		call	__cxa_begin_catch
 3332      00
 3333              	.LEHB105:
 3334 1732 E8000000 		call	_ZN8UnitTest11CurrentTest7DetailsEv
 3334      00
 3335 1737 488B08   		movq	(%rax), %rcx
 3336 173a 488D8590 		leaq	-2160(%rbp), %rax
 3336      F7FFFF
 3337 1741 BA6A0000 		movl	$106, %edx
 3337      00
 3338 1746 4889CE   		movq	%rcx, %rsi
 3339 1749 4889C7   		movq	%rax, %rdi
 3340 174c E8000000 		call	_ZN8UnitTest11TestDetailsC1ERKS0_i
 3340      00
 106:TestTestResults.cpp ****     CHECK_CLOSE (0.1234f, reporter.lastFinishedTestTime, 0.0001f);
 3341              		.loc 5 106 0 is_stmt 0 discriminator 10
 3342 1751 E8000000 		call	_ZN8UnitTest11CurrentTest7ResultsEv
 3342      00
 3343 1756 488B00   		movq	(%rax), %rax
 3344 1759 488D8D90 		leaq	-2160(%rbp), %rcx
 3344      F7FFFF
 3345 1760 BA000000 		movl	$.LC35, %edx
 3345      00
 3346 1765 4889CE   		movq	%rcx, %rsi
 3347 1768 4889C7   		movq	%rax, %rdi
 3348 176b E8000000 		call	_ZN8UnitTest11TestResults13OnTestFailureERKNS_11TestDetailsEPKc
 3348      00
 3349              	.LEHE105:
 3350              	.LEHB106:
 106:TestTestResults.cpp ****     CHECK_CLOSE (0.1234f, reporter.lastFinishedTestTime, 0.0001f);
 3351              		.loc 5 106 0 discriminator 14
 3352 1770 E8000000 		call	__cxa_end_catch
 3352      00
 3353              	.LEHE106:
 106:TestTestResults.cpp ****     CHECK_CLOSE (0.1234f, reporter.lastFinishedTestTime, 0.0001f);
 3354              		.loc 5 106 0
 3355 1775 E951FEFF 		jmp	.L180
 3355      FF
 3356              	.L194:
 3357 177a 4889C3   		movq	%rax, %rbx
 3358 177d E8000000 		call	__cxa_end_catch
 3358      00
 3359 1782 EB5F     		jmp	.L175
 3360              	.L196:
 3361 1784 EB00     		jmp	.L183
 3362              	.L195:
 3363              	.L183:
 107:TestTestResults.cpp **** }
 3364              		.loc 5 107 0 is_stmt 1
 3365 1786 4889C7   		movq	%rax, %rdi
 3366 1789 E8000000 		call	__cxa_begin_catch
 3366      00
 3367              	.LEHB107:
 3368 178e E8000000 		call	_ZN8UnitTest11CurrentTest7DetailsEv
 3368      00
 3369 1793 488B08   		movq	(%rax), %rcx
 3370 1796 488D8590 		leaq	-2160(%rbp), %rax
 3370      F7FFFF
 3371 179d BA6B0000 		movl	$107, %edx
 3371      00
 3372 17a2 4889CE   		movq	%rcx, %rsi
 3373 17a5 4889C7   		movq	%rax, %rdi
 3374 17a8 E8000000 		call	_ZN8UnitTest11TestDetailsC1ERKS0_i
 3374      00
 107:TestTestResults.cpp **** }
 3375              		.loc 5 107 0 is_stmt 0 discriminator 10
 3376 17ad E8000000 		call	_ZN8UnitTest11CurrentTest7ResultsEv
 3376      00
 3377 17b2 488B00   		movq	(%rax), %rax
 3378 17b5 488D8D90 		leaq	-2160(%rbp), %rcx
 3378      F7FFFF
 3379 17bc BA000000 		movl	$.LC36, %edx
 3379      00
 3380 17c1 4889CE   		movq	%rcx, %rsi
 3381 17c4 4889C7   		movq	%rax, %rdi
 3382 17c7 E8000000 		call	_ZN8UnitTest11TestResults13OnTestFailureERKNS_11TestDetailsEPKc
 3382      00
 3383              	.LEHE107:
 3384              	.LEHB108:
 107:TestTestResults.cpp **** }
 3385              		.loc 5 107 0 discriminator 14
 3386 17cc E8000000 		call	__cxa_end_catch
 3386      00
 3387              	.LEHE108:
 107:TestTestResults.cpp **** }
 3388              		.loc 5 107 0
 3389 17d1 E970FEFF 		jmp	.L184
 3389      FF
 3390              	.L197:
 3391 17d6 4889C3   		movq	%rax, %rbx
 3392 17d9 E8000000 		call	__cxa_end_catch
 3392      00
 3393 17de EB03     		jmp	.L175
 3394              	.L187:
 3395 17e0 4889C3   		movq	%rax, %rbx
 3396              	.L175:
 100:TestTestResults.cpp ****     TestResults results(&reporter);
 3397              		.loc 5 100 0 is_stmt 1
 3398 17e3 488D85B0 		leaq	-2128(%rbp), %rax
 3398      F7FFFF
 3399 17ea 4889C7   		movq	%rax, %rdi
 3400 17ed E8000000 		call	_ZN17RecordingReporterD1Ev
 3400      00
 3401 17f2 4889D8   		movq	%rbx, %rax
 3402 17f5 4889C7   		movq	%rax, %rdi
 3403              	.LEHB109:
 3404 17f8 E8000000 		call	_Unwind_Resume
 3404      00
 3405              	.LEHE109:
 3406              	.L198:
 3407              		.loc 5 108 0
 3408 17fd E8000000 		call	__stack_chk_fail
 3408      00
 3409              	.L186:
 3410 1802 4881C4A8 		addq	$2216, %rsp
 3410      080000
 3411 1809 5B       		popq	%rbx
 3412 180a 5D       		popq	%rbp
 3413              		.cfi_def_cfa 7, 8
 3414 180b C3       		ret
 3415              		.cfi_endproc
 3416              	.LFE1114:
 3417              		.section	.gcc_except_table
 3418              		.align 4
 3419              	.LLSDA1114:
 3420 0260 FF       		.byte	0xff
 3421 0261 03       		.byte	0x3
 3422 0262 6D       		.uleb128 .LLSDATT1114-.LLSDATTD1114
 3423              	.LLSDATTD1114:
 3424 0263 01       		.byte	0x1
 3425 0264 62       		.uleb128 .LLSDACSE1114-.LLSDACSB1114
 3426              	.LLSDACSB1114:
 3427 0265 45       		.uleb128 .LEHB93-.LFB1114
 3428 0266 21       		.uleb128 .LEHE93-.LEHB93
 3429 0267 F406     		.uleb128 .L187-.LFB1114
 3430 0269 00       		.uleb128 0
 3431 026a 66       		.uleb128 .LEHB94-.LFB1114
 3432 026b 1F       		.uleb128 .LEHE94-.LEHB94
 3433 026c 8404     		.uleb128 .L188-.LFB1114
 3434 026e 01       		.uleb128 0x1
 3435 026f 8F01     		.uleb128 .LEHB95-.LFB1114
 3436 0271 32       		.uleb128 .LEHE95-.LEHB95
 3437 0272 8204     		.uleb128 .L189-.LFB1114
 3438 0274 01       		.uleb128 0x1
 3439 0275 C101     		.uleb128 .LEHB96-.LFB1114
 3440 0277 4F       		.uleb128 .LEHE96-.LEHB96
 3441 0278 E104     		.uleb128 .L191-.LFB1114
 3442 027a 01       		.uleb128 0x1
 3443 027b 9002     		.uleb128 .LEHB97-.LFB1114
 3444 027d 4F       		.uleb128 .LEHE97-.LEHB97
 3445 027e BE05     		.uleb128 .L193-.LFB1114
 3446 0280 01       		.uleb128 0x1
 3447 0281 DF02     		.uleb128 .LEHB98-.LFB1114
 3448 0283 1F       		.uleb128 .LEHE98-.LEHB98
 3449 0284 9A06     		.uleb128 .L195-.LFB1114
 3450 0286 01       		.uleb128 0x1
 3451 0287 9E03     		.uleb128 .LEHB99-.LFB1114
 3452 0289 3C       		.uleb128 .LEHE99-.LEHB99
 3453 028a 9806     		.uleb128 .L196-.LFB1114
 3454 028c 01       		.uleb128 0x1
 3455 028d E403     		.uleb128 .LEHB100-.LFB1114
 3456 028f 05       		.uleb128 .LEHE100-.LEHB100
 3457 0290 00       		.uleb128 0
 3458 0291 00       		.uleb128 0
 3459 0292 8C04     		.uleb128 .LEHB101-.LFB1114
 3460 0294 3E       		.uleb128 .LEHE101-.LEHB101
 3461 0295 D404     		.uleb128 .L190-.LFB1114
 3462 0297 00       		.uleb128 0
 3463 0298 CA04     		.uleb128 .LEHB102-.LFB1114
 3464 029a 05       		.uleb128 .LEHE102-.LEHB102
 3465 029b F406     		.uleb128 .L187-.LFB1114
 3466 029d 00       		.uleb128 0
 3467 029e E904     		.uleb128 .LEHB103-.LFB1114
 3468 02a0 3E       		.uleb128 .LEHE103-.LEHB103
 3469 02a1 B105     		.uleb128 .L192-.LFB1114
 3470 02a3 00       		.uleb128 0
 3471 02a4 A705     		.uleb128 .LEHB104-.LFB1114
 3472 02a6 05       		.uleb128 .LEHE104-.LEHB104
 3473 02a7 F406     		.uleb128 .L187-.LFB1114
 3474 02a9 00       		.uleb128 0
 3475 02aa C605     		.uleb128 .LEHB105-.LFB1114
 3476 02ac 3E       		.uleb128 .LEHE105-.LEHB105
 3477 02ad 8E06     		.uleb128 .L194-.LFB1114
 3478 02af 00       		.uleb128 0
 3479 02b0 8406     		.uleb128 .LEHB106-.LFB1114
 3480 02b2 05       		.uleb128 .LEHE106-.LEHB106
 3481 02b3 F406     		.uleb128 .L187-.LFB1114
 3482 02b5 00       		.uleb128 0
 3483 02b6 A206     		.uleb128 .LEHB107-.LFB1114
 3484 02b8 3E       		.uleb128 .LEHE107-.LEHB107
 3485 02b9 EA06     		.uleb128 .L197-.LFB1114
 3486 02bb 00       		.uleb128 0
 3487 02bc E006     		.uleb128 .LEHB108-.LFB1114
 3488 02be 05       		.uleb128 .LEHE108-.LEHB108
 3489 02bf F406     		.uleb128 .L187-.LFB1114
 3490 02c1 00       		.uleb128 0
 3491 02c2 8C07     		.uleb128 .LEHB109-.LFB1114
 3492 02c4 05       		.uleb128 .LEHE109-.LEHB109
 3493 02c5 00       		.uleb128 0
 3494 02c6 00       		.uleb128 0
 3495              	.LLSDACSE1114:
 3496 02c7 01       		.byte	0x1
 3497 02c8 00       		.byte	0
 3498 02c9 000000   		.align 4
 3499 02cc 00000000 		.long	0
 3500              	
 3501              	.LLSDATT1114:
 3502              		.text
 3504              		.section	.text._ZN8UnitTest15MemoryOutStreamD1Ev,"axG",@progbits,_ZN8UnitTest15MemoryOutStreamD1Ev
 3505              		.align 2
 3506              		.weak	_ZN8UnitTest15MemoryOutStreamD1Ev
 3508              	_ZN8UnitTest15MemoryOutStreamD1Ev:
 3509              	.LFB1145:
  13:../MemoryOutStream.h **** {
 3510              		.loc 2 13 0
 3511              		.cfi_startproc
 3512              		.cfi_personality 0x3,__gxx_personality_v0
 3513              		.cfi_lsda 0x3,.LLSDA1145
 3514 0000 55       		pushq	%rbp
 3515              		.cfi_def_cfa_offset 16
 3516              		.cfi_offset 6, -16
 3517 0001 4889E5   		movq	%rsp, %rbp
 3518              		.cfi_def_cfa_register 6
 3519 0004 53       		pushq	%rbx
 3520 0005 4883EC18 		subq	$24, %rsp
 3521              		.cfi_offset 3, -24
 3522 0009 48897DE8 		movq	%rdi, -24(%rbp)
 3523              	.LBB15:
  13:../MemoryOutStream.h **** {
 3524              		.loc 2 13 0
 3525 000d BA000000 		movl	$_ZTVN8UnitTest15MemoryOutStreamE+24, %edx
 3525      00
 3526 0012 488B45E8 		movq	-24(%rbp), %rax
 3527 0016 488910   		movq	%rdx, (%rax)
 3528 0019 BA900000 		movl	$144, %edx
 3528      00
 3529 001e 488B45E8 		movq	-24(%rbp), %rax
 3530 0022 4801D0   		addq	%rdx, %rax
 3531 0025 BA000000 		movl	$_ZTVN8UnitTest15MemoryOutStreamE+64, %edx
 3531      00
 3532 002a 488910   		movq	%rdx, (%rax)
 3533 002d 488B45E8 		movq	-24(%rbp), %rax
 3534 0031 4883C070 		addq	$112, %rax
 3535 0035 4889C7   		movq	%rax, %rdi
 3536              	.LEHB110:
 3537 0038 E8000000 		call	_ZNSt7__cxx1112basic_stringIcSt11char_traitsIcESaIcEED1Ev
 3537      00
 3538              	.LEHE110:
  13:../MemoryOutStream.h **** {
 3539              		.loc 2 13 0 is_stmt 0 discriminator 14
 3540 003d BA000000 		movl	$_ZTTN8UnitTest15MemoryOutStreamE+8, %edx
 3540      00
 3541 0042 488B45E8 		movq	-24(%rbp), %rax
 3542 0046 4889D6   		movq	%rdx, %rsi
 3543 0049 4889C7   		movq	%rax, %rdi
 3544              	.LEHB111:
 3545 004c E8000000 		call	_ZNSt7__cxx1119basic_ostringstreamIcSt11char_traitsIcESaIcEED2Ev
 3545      00
 3546              	.LEHE111:
  13:../MemoryOutStream.h **** {
 3547              		.loc 2 13 0 discriminator 20
 3548 0051 B8020000 		movl	$2, %eax
 3548      00
 3549 0056 85C0     		testl	%eax, %eax
 3550 0058 7412     		je	.L200
  13:../MemoryOutStream.h **** {
 3551              		.loc 2 13 0 discriminator 21
 3552 005a 488B45E8 		movq	-24(%rbp), %rax
 3553 005e 48059000 		addq	$144, %rax
 3553      0000
 3554 0064 4889C7   		movq	%rax, %rdi
 3555              	.LEHB112:
 3556 0067 E8000000 		call	_ZNSt9basic_iosIcSt11char_traitsIcEED2Ev
 3556      00
 3557              	.LEHE112:
 3558              	.L200:
 3559              	.LBE15:
  13:../MemoryOutStream.h **** {
 3560              		.loc 2 13 0 discriminator 22
 3561 006c B8000000 		movl	$0, %eax
 3561      00
 3562 0071 85C0     		testl	%eax, %eax
 3563 0073 7450     		je	.L199
  13:../MemoryOutStream.h **** {
 3564              		.loc 2 13 0 discriminator 25
 3565 0075 488B45E8 		movq	-24(%rbp), %rax
 3566 0079 4889C7   		movq	%rax, %rdi
 3567 007c E8000000 		call	_ZdlPv
 3567      00
 3568 0081 EB42     		jmp	.L199
 3569              	.L205:
 3570 0083 4889C3   		movq	%rax, %rbx
 3571              	.LBB16:
  13:../MemoryOutStream.h **** {
 3572              		.loc 2 13 0
 3573 0086 BA000000 		movl	$_ZTTN8UnitTest15MemoryOutStreamE+8, %edx
 3573      00
 3574 008b 488B45E8 		movq	-24(%rbp), %rax
 3575 008f 4889D6   		movq	%rdx, %rsi
 3576 0092 4889C7   		movq	%rax, %rdi
 3577 0095 E8000000 		call	_ZNSt7__cxx1119basic_ostringstreamIcSt11char_traitsIcESaIcEED2Ev
 3577      00
 3578 009a EB03     		jmp	.L203
 3579              	.L206:
 3580 009c 4889C3   		movq	%rax, %rbx
 3581              	.L203:
  13:../MemoryOutStream.h **** {
 3582              		.loc 2 13 0 discriminator 19
 3583 009f B8020000 		movl	$2, %eax
 3583      00
 3584 00a4 85C0     		testl	%eax, %eax
 3585 00a6 7412     		je	.L204
  13:../MemoryOutStream.h **** {
 3586              		.loc 2 13 0 discriminator 32
 3587 00a8 488B45E8 		movq	-24(%rbp), %rax
 3588 00ac 48059000 		addq	$144, %rax
 3588      0000
 3589 00b2 4889C7   		movq	%rax, %rdi
 3590 00b5 E8000000 		call	_ZNSt9basic_iosIcSt11char_traitsIcEED2Ev
 3590      00
 3591              	.L204:
 3592 00ba 4889D8   		movq	%rbx, %rax
 3593 00bd 4889C7   		movq	%rax, %rdi
 3594              	.LEHB113:
 3595 00c0 E8000000 		call	_Unwind_Resume
 3595      00
 3596              	.LEHE113:
 3597              	.L199:
 3598              	.LBE16:
  13:../MemoryOutStream.h **** {
 3599              		.loc 2 13 0
 3600 00c5 4883C418 		addq	$24, %rsp
 3601 00c9 5B       		popq	%rbx
 3602 00ca 5D       		popq	%rbp
 3603              		.cfi_def_cfa 7, 8
 3604 00cb C3       		ret
 3605              		.cfi_endproc
 3606              	.LFE1145:
 3607              		.section	.gcc_except_table
 3608              	.LLSDA1145:
 3609 02d0 FF       		.byte	0xff
 3610 02d1 FF       		.byte	0xff
 3611 02d2 01       		.byte	0x1
 3612 02d3 13       		.uleb128 .LLSDACSE1145-.LLSDACSB1145
 3613              	.LLSDACSB1145:
 3614 02d4 38       		.uleb128 .LEHB110-.LFB1145
 3615 02d5 05       		.uleb128 .LEHE110-.LEHB110
 3616 02d6 8301     		.uleb128 .L205-.LFB1145
 3617 02d8 00       		.uleb128 0
 3618 02d9 4C       		.uleb128 .LEHB111-.LFB1145
 3619 02da 05       		.uleb128 .LEHE111-.LEHB111
 3620 02db 9C01     		.uleb128 .L206-.LFB1145
 3621 02dd 00       		.uleb128 0
 3622 02de 67       		.uleb128 .LEHB112-.LFB1145
 3623 02df 05       		.uleb128 .LEHE112-.LEHB112
 3624 02e0 00       		.uleb128 0
 3625 02e1 00       		.uleb128 0
 3626 02e2 C001     		.uleb128 .LEHB113-.LFB1145
 3627 02e4 05       		.uleb128 .LEHE113-.LEHB113
 3628 02e5 00       		.uleb128 0
 3629 02e6 00       		.uleb128 0
 3630              	.LLSDACSE1145:
 3631              		.section	.text._ZN8UnitTest15MemoryOutStreamD1Ev,"axG",@progbits,_ZN8UnitTest15MemoryOutStreamD1Ev
 3633              		.set	.LTHUNK0,_ZN8UnitTest15MemoryOutStreamD1Ev
 3634              		.weak	_ZTv0_n24_N8UnitTest15MemoryOutStreamD1Ev
 3636              	_ZTv0_n24_N8UnitTest15MemoryOutStreamD1Ev:
 3637              	.LFB1244:
  13:../MemoryOutStream.h **** {
 3638              		.loc 2 13 0 is_stmt 1
 3639              		.cfi_startproc
 3640 00cc 4C8B17   		movq	(%rdi), %r10
 3641 00cf 49037AE8 		addq	-24(%r10), %rdi
 3642 00d3 E928FFFF 		jmp	.LTHUNK0
 3642      FF
 3643              		.cfi_endproc
 3644              	.LFE1244:
 3646              		.section	.text._ZN8UnitTest15MemoryOutStreamD0Ev,"axG",@progbits,_ZN8UnitTest15MemoryOutStreamD0Ev
 3647              		.align 2
 3648              		.weak	_ZN8UnitTest15MemoryOutStreamD0Ev
 3650              	_ZN8UnitTest15MemoryOutStreamD0Ev:
 3651              	.LFB1146:
  13:../MemoryOutStream.h **** {
 3652              		.loc 2 13 0
 3653              		.cfi_startproc
 3654 0000 55       		pushq	%rbp
 3655              		.cfi_def_cfa_offset 16
 3656              		.cfi_offset 6, -16
 3657 0001 4889E5   		movq	%rsp, %rbp
 3658              		.cfi_def_cfa_register 6
 3659 0004 4883EC10 		subq	$16, %rsp
 3660 0008 48897DF8 		movq	%rdi, -8(%rbp)
  13:../MemoryOutStream.h **** {
 3661              		.loc 2 13 0
 3662 000c 488B45F8 		movq	-8(%rbp), %rax
 3663 0010 4889C7   		movq	%rax, %rdi
 3664 0013 E8000000 		call	_ZN8UnitTest15MemoryOutStreamD1Ev
 3664      00
 3665 0018 488B45F8 		movq	-8(%rbp), %rax
 3666 001c 4889C7   		movq	%rax, %rdi
 3667 001f E8000000 		call	_ZdlPv
 3667      00
 3668 0024 C9       		leave
 3669              		.cfi_def_cfa 7, 8
 3670 0025 C3       		ret
 3671              		.cfi_endproc
 3672              	.LFE1146:
 3674              		.set	.LTHUNK1,_ZN8UnitTest15MemoryOutStreamD0Ev
 3675              		.weak	_ZTv0_n24_N8UnitTest15MemoryOutStreamD0Ev
 3677              	_ZTv0_n24_N8UnitTest15MemoryOutStreamD0Ev:
 3678              	.LFB1245:
  13:../MemoryOutStream.h **** {
 3679              		.loc 2 13 0
 3680              		.cfi_startproc
 3681 0026 4C8B17   		movq	(%rdi), %r10
 3682 0029 49037AE8 		addq	-24(%r10), %rdi
 3683 002d EBD1     		jmp	.LTHUNK1
 3684              		.cfi_endproc
 3685              	.LFE1245:
 3687              		.section	.rodata
 3688              	.LC37:
 3689 069b 45787065 		.string	"Expected "
 3689      63746564 
 3689      2000
 3690              	.LC38:
 3691 06a5 20627574 		.string	" but was "
 3691      20776173 
 3691      2000
 3692              		.section	.text._ZN8UnitTest10CheckEqualIiiEEvRNS_11TestResultsERKT_RKT0_RKNS_11TestDetailsE,"axG",
 3693              		.weak	_ZN8UnitTest10CheckEqualIiiEEvRNS_11TestResultsERKT_RKT0_RKNS_11TestDetailsE
 3695              	_ZN8UnitTest10CheckEqualIiiEEvRNS_11TestResultsERKT_RKT0_RKNS_11TestDetailsE:
 3696              	.LFB1142:
 3697              		.file 6 "../Checks.h"
   1:../Checks.h   **** #ifndef UNITTEST_CHECKS_H
   2:../Checks.h   **** #define UNITTEST_CHECKS_H
   3:../Checks.h   **** 
   4:../Checks.h   **** #include "Config.h"
   5:../Checks.h   **** #include "TestResults.h"
   6:../Checks.h   **** #include "MemoryOutStream.h"
   7:../Checks.h   **** 
   8:../Checks.h   **** namespace UnitTest {
   9:../Checks.h   **** 
  10:../Checks.h   **** 
  11:../Checks.h   **** template< typename Value >
  12:../Checks.h   **** bool Check(Value const value)
  13:../Checks.h   **** {
  14:../Checks.h   ****     return !!value; // doing double negative to avoid silly VS warnings
  15:../Checks.h   **** }
  16:../Checks.h   **** 
  17:../Checks.h   **** 
  18:../Checks.h   **** template< typename Expected, typename Actual >
  19:../Checks.h   **** void CheckEqual(TestResults& results, Expected const& expected, Actual const& actual, TestDetails c
 3698              		.loc 6 19 0
 3699              		.cfi_startproc
 3700              		.cfi_personality 0x3,__gxx_personality_v0
 3701              		.cfi_lsda 0x3,.LLSDA1142
 3702 0000 55       		pushq	%rbp
 3703              		.cfi_def_cfa_offset 16
 3704              		.cfi_offset 6, -16
 3705 0001 4889E5   		movq	%rsp, %rbp
 3706              		.cfi_def_cfa_register 6
 3707 0004 4154     		pushq	%r12
 3708 0006 53       		pushq	%rbx
 3709 0007 4881ECC0 		subq	$448, %rsp
 3709      010000
 3710              		.cfi_offset 12, -24
 3711              		.cfi_offset 3, -32
 3712 000e 4889BD48 		movq	%rdi, -440(%rbp)
 3712      FEFFFF
 3713 0015 4889B540 		movq	%rsi, -448(%rbp)
 3713      FEFFFF
 3714 001c 48899538 		movq	%rdx, -456(%rbp)
 3714      FEFFFF
 3715 0023 48898D30 		movq	%rcx, -464(%rbp)
 3715      FEFFFF
 3716              		.loc 6 19 0
 3717 002a 64488B04 		movq	%fs:40, %rax
 3717      25280000 
 3717      00
 3718 0033 488945E8 		movq	%rax, -24(%rbp)
 3719 0037 31C0     		xorl	%eax, %eax
 3720              	.LBB17:
  20:../Checks.h   **** {
  21:../Checks.h   ****     if (!(expected == actual))
 3721              		.loc 6 21 0
 3722 0039 488B8540 		movq	-448(%rbp), %rax
 3722      FEFFFF
 3723 0040 8B10     		movl	(%rax), %edx
 3724 0042 488B8538 		movq	-456(%rbp), %rax
 3724      FEFFFF
 3725 0049 8B00     		movl	(%rax), %eax
 3726 004b 39C2     		cmpl	%eax, %edx
 3727 004d 0F84B100 		je	.L213
 3727      0000
 3728              	.LBB18:
  22:../Checks.h   ****     {
  23:../Checks.h   ****         UnitTest::MemoryOutStream stream;
 3729              		.loc 6 23 0
 3730 0053 488D8550 		leaq	-432(%rbp), %rax
 3730      FEFFFF
 3731 005a 4889C7   		movq	%rax, %rdi
 3732              	.LEHB114:
 3733 005d E8000000 		call	_ZN8UnitTest15MemoryOutStreamC1Ev
 3733      00
 3734              	.LEHE114:
  24:../Checks.h   ****         stream << "Expected " << expected << " but was " << actual;
 3735              		.loc 6 24 0
 3736 0062 488B8538 		movq	-456(%rbp), %rax
 3736      FEFFFF
 3737 0069 8B18     		movl	(%rax), %ebx
 3738 006b 488B8540 		movq	-448(%rbp), %rax
 3738      FEFFFF
 3739 0072 448B20   		movl	(%rax), %r12d
 3740 0075 488D8550 		leaq	-432(%rbp), %rax
 3740      FEFFFF
 3741 007c BE000000 		movl	$.LC37, %esi
 3741      00
 3742 0081 4889C7   		movq	%rax, %rdi
 3743              	.LEHB115:
 3744 0084 E8000000 		call	_ZStlsISt11char_traitsIcEERSt13basic_ostreamIcT_ES5_PKc
 3744      00
 3745 0089 4489E6   		movl	%r12d, %esi
 3746 008c 4889C7   		movq	%rax, %rdi
 3747 008f E8000000 		call	_ZNSolsEi
 3747      00
 3748              		.loc 6 24 0 is_stmt 0 discriminator 1
 3749 0094 BE000000 		movl	$.LC38, %esi
 3749      00
 3750 0099 4889C7   		movq	%rax, %rdi
 3751 009c E8000000 		call	_ZStlsISt11char_traitsIcEERSt13basic_ostreamIcT_ES5_PKc
 3751      00
 3752              		.loc 6 24 0 discriminator 2
 3753 00a1 89DE     		movl	%ebx, %esi
 3754 00a3 4889C7   		movq	%rax, %rdi
 3755 00a6 E8000000 		call	_ZNSolsEi
 3755      00
  25:../Checks.h   **** 
  26:../Checks.h   ****         results.OnTestFailure(details, stream.GetText());
 3756              		.loc 6 26 0 is_stmt 1
 3757 00ab 488D8550 		leaq	-432(%rbp), %rax
 3757      FEFFFF
 3758 00b2 4889C7   		movq	%rax, %rdi
 3759 00b5 E8000000 		call	_ZNK8UnitTest15MemoryOutStream7GetTextEv
 3759      00
 3760 00ba 4889C2   		movq	%rax, %rdx
 3761 00bd 488B8D30 		movq	-464(%rbp), %rcx
 3761      FEFFFF
 3762 00c4 488B8548 		movq	-440(%rbp), %rax
 3762      FEFFFF
 3763 00cb 4889CE   		movq	%rcx, %rsi
 3764 00ce 4889C7   		movq	%rax, %rdi
 3765 00d1 E8000000 		call	_ZN8UnitTest11TestResults13OnTestFailureERKNS_11TestDetailsEPKc
 3765      00
 3766              	.LEHE115:
  23:../Checks.h   ****         stream << "Expected " << expected << " but was " << actual;
 3767              		.loc 6 23 0
 3768 00d6 488D8550 		leaq	-432(%rbp), %rax
 3768      FEFFFF
 3769 00dd 4889C7   		movq	%rax, %rdi
 3770              	.LEHB116:
 3771 00e0 E8000000 		call	_ZN8UnitTest15MemoryOutStreamD1Ev
 3771      00
 3772              	.LEHE116:
 3773              	.LBE18:
 3774              	.LBE17:
  27:../Checks.h   ****     }
  28:../Checks.h   **** }
 3775              		.loc 6 28 0
 3776 00e5 EB1D     		jmp	.L213
 3777              	.L212:
 3778 00e7 4889C3   		movq	%rax, %rbx
 3779              	.LBB20:
 3780              	.LBB19:
  23:../Checks.h   ****         stream << "Expected " << expected << " but was " << actual;
 3781              		.loc 6 23 0
 3782 00ea 488D8550 		leaq	-432(%rbp), %rax
 3782      FEFFFF
 3783 00f1 4889C7   		movq	%rax, %rdi
 3784 00f4 E8000000 		call	_ZN8UnitTest15MemoryOutStreamD1Ev
 3784      00
 3785 00f9 4889D8   		movq	%rbx, %rax
 3786 00fc 4889C7   		movq	%rax, %rdi
 3787              	.LEHB117:
 3788 00ff E8000000 		call	_Unwind_Resume
 3788      00
 3789              	.LEHE117:
 3790              	.L213:
 3791              	.LBE19:
 3792              	.LBE20:
 3793              		.loc 6 28 0
 3794 0104 90       		nop
 3795 0105 488B45E8 		movq	-24(%rbp), %rax
 3796 0109 64483304 		xorq	%fs:40, %rax
 3796      25280000 
 3796      00
 3797 0112 7405     		je	.L211
 3798 0114 E8000000 		call	__stack_chk_fail
 3798      00
 3799              	.L211:
 3800 0119 4881C4C0 		addq	$448, %rsp
 3800      010000
 3801 0120 5B       		popq	%rbx
 3802 0121 415C     		popq	%r12
 3803 0123 5D       		popq	%rbp
 3804              		.cfi_def_cfa 7, 8
 3805 0124 C3       		ret
 3806              		.cfi_endproc
 3807              	.LFE1142:
 3808              		.section	.gcc_except_table
 3809              	.LLSDA1142:
 3810 02e7 FF       		.byte	0xff
 3811 02e8 FF       		.byte	0xff
 3812 02e9 01       		.byte	0x1
 3813 02ea 14       		.uleb128 .LLSDACSE1142-.LLSDACSB1142
 3814              	.LLSDACSB1142:
 3815 02eb 5D       		.uleb128 .LEHB114-.LFB1142
 3816 02ec 05       		.uleb128 .LEHE114-.LEHB114
 3817 02ed 00       		.uleb128 0
 3818 02ee 00       		.uleb128 0
 3819 02ef 8401     		.uleb128 .LEHB115-.LFB1142
 3820 02f1 52       		.uleb128 .LEHE115-.LEHB115
 3821 02f2 E701     		.uleb128 .L212-.LFB1142
 3822 02f4 00       		.uleb128 0
 3823 02f5 E001     		.uleb128 .LEHB116-.LFB1142
 3824 02f7 05       		.uleb128 .LEHE116-.LEHB116
 3825 02f8 00       		.uleb128 0
 3826 02f9 00       		.uleb128 0
 3827 02fa FF01     		.uleb128 .LEHB117-.LFB1142
 3828 02fc 05       		.uleb128 .LEHE117-.LEHB117
 3829 02fd 00       		.uleb128 0
 3830 02fe 00       		.uleb128 0
 3831              	.LLSDACSE1142:
 3832              		.section	.text._ZN8UnitTest10CheckEqualIiiEEvRNS_11TestResultsERKT_RKT0_RKNS_11TestDetailsE,"axG",
 3834              		.section	.rodata
 3835              	.LC39:
 3836 06af 202B2F2D 		.string	" +/- "
 3836      2000
 3837              		.section	.text._ZN8UnitTest10CheckCloseIfffEEvRNS_11TestResultsERKT_RKT0_RKT1_RKNS_11TestDetailsE,
 3838              		.weak	_ZN8UnitTest10CheckCloseIfffEEvRNS_11TestResultsERKT_RKT0_RKT1_RKNS_11TestDetailsE
 3840              	_ZN8UnitTest10CheckCloseIfffEEvRNS_11TestResultsERKT_RKT0_RKT1_RKNS_11TestDetailsE:
 3841              	.LFB1147:
  29:../Checks.h   **** 
  30:../Checks.h   **** void CheckEqual(TestResults& results, char const* expected, char const* actual, TestDetails const& 
  31:../Checks.h   **** 
  32:../Checks.h   **** void CheckEqual(TestResults& results, char* expected, char* actual, TestDetails const& details);
  33:../Checks.h   **** 
  34:../Checks.h   **** void CheckEqual(TestResults& results, char* expected, char const* actual, TestDetails const& detail
  35:../Checks.h   **** 
  36:../Checks.h   **** void CheckEqual(TestResults& results, char const* expected, char* actual, TestDetails const& detail
  37:../Checks.h   **** 
  38:../Checks.h   **** template< typename Expected, typename Actual, typename Tolerance >
  39:../Checks.h   **** bool AreClose(Expected const& expected, Actual const& actual, Tolerance const& tolerance)
  40:../Checks.h   **** {
  41:../Checks.h   ****     return (actual >= (expected - tolerance)) && (actual <= (expected + tolerance));
  42:../Checks.h   **** }
  43:../Checks.h   **** 
  44:../Checks.h   **** template< typename Expected, typename Actual, typename Tolerance >
  45:../Checks.h   **** void CheckClose(TestResults& results, Expected const& expected, Actual const& actual, Tolerance con
 3842              		.loc 6 45 0
 3843              		.cfi_startproc
 3844              		.cfi_personality 0x3,__gxx_personality_v0
 3845              		.cfi_lsda 0x3,.LLSDA1147
 3846 0000 55       		pushq	%rbp
 3847              		.cfi_def_cfa_offset 16
 3848              		.cfi_offset 6, -16
 3849 0001 4889E5   		movq	%rsp, %rbp
 3850              		.cfi_def_cfa_register 6
 3851 0004 4155     		pushq	%r13
 3852 0006 4154     		pushq	%r12
 3853 0008 53       		pushq	%rbx
 3854 0009 4881ECD8 		subq	$472, %rsp
 3854      010000
 3855              		.cfi_offset 13, -24
 3856              		.cfi_offset 12, -32
 3857              		.cfi_offset 3, -40
 3858 0010 4889BD38 		movq	%rdi, -456(%rbp)
 3858      FEFFFF
 3859 0017 4889B530 		movq	%rsi, -464(%rbp)
 3859      FEFFFF
 3860 001e 48899528 		movq	%rdx, -472(%rbp)
 3860      FEFFFF
 3861 0025 48898D20 		movq	%rcx, -480(%rbp)
 3861      FEFFFF
 3862 002c 4C898518 		movq	%r8, -488(%rbp)
 3862      FEFFFF
 3863              		.loc 6 45 0
 3864 0033 64488B04 		movq	%fs:40, %rax
 3864      25280000 
 3864      00
 3865 003c 488945D8 		movq	%rax, -40(%rbp)
 3866 0040 31C0     		xorl	%eax, %eax
 3867              	.LBB21:
  46:../Checks.h   ****                 TestDetails const& details)
  47:../Checks.h   **** {
  48:../Checks.h   ****     if (!AreClose(expected, actual, tolerance))
 3868              		.loc 6 48 0
 3869 0042 488B9520 		movq	-480(%rbp), %rdx
 3869      FEFFFF
 3870 0049 488B8D28 		movq	-472(%rbp), %rcx
 3870      FEFFFF
 3871 0050 488B8530 		movq	-464(%rbp), %rax
 3871      FEFFFF
 3872 0057 4889CE   		movq	%rcx, %rsi
 3873 005a 4889C7   		movq	%rax, %rdi
 3874 005d E8000000 		call	_ZN8UnitTest8AreCloseIfffEEbRKT_RKT0_RKT1_
 3874      00
 3875 0062 83F001   		xorl	$1, %eax
 3876 0065 84C0     		testb	%al, %al
 3877 0067 0F84F700 		je	.L219
 3877      0000
 3878              	.LBB22:
  49:../Checks.h   ****     { 
  50:../Checks.h   ****         UnitTest::MemoryOutStream stream;
 3879              		.loc 6 50 0
 3880 006d 488D8540 		leaq	-448(%rbp), %rax
 3880      FEFFFF
 3881 0074 4889C7   		movq	%rax, %rdi
 3882              	.LEHB118:
 3883 0077 E8000000 		call	_ZN8UnitTest15MemoryOutStreamC1Ev
 3883      00
 3884              	.LEHE118:
  51:../Checks.h   ****         stream << "Expected " << expected << " +/- " << tolerance << " but was " << actual;
 3885              		.loc 6 51 0
 3886 007c 488B8528 		movq	-472(%rbp), %rax
 3886      FEFFFF
 3887 0083 8B18     		movl	(%rax), %ebx
 3888 0085 488B8520 		movq	-480(%rbp), %rax
 3888      FEFFFF
 3889 008c 448B20   		movl	(%rax), %r12d
 3890 008f 488B8530 		movq	-464(%rbp), %rax
 3890      FEFFFF
 3891 0096 448B28   		movl	(%rax), %r13d
 3892 0099 488D8540 		leaq	-448(%rbp), %rax
 3892      FEFFFF
 3893 00a0 BE000000 		movl	$.LC37, %esi
 3893      00
 3894 00a5 4889C7   		movq	%rax, %rdi
 3895              	.LEHB119:
 3896 00a8 E8000000 		call	_ZStlsISt11char_traitsIcEERSt13basic_ostreamIcT_ES5_PKc
 3896      00
 3897 00ad 4489AD14 		movl	%r13d, -492(%rbp)
 3897      FEFFFF
 3898 00b4 F30F1085 		movss	-492(%rbp), %xmm0
 3898      14FEFFFF 
 3899 00bc 4889C7   		movq	%rax, %rdi
 3900 00bf E8000000 		call	_ZNSolsEf
 3900      00
 3901              		.loc 6 51 0 is_stmt 0 discriminator 1
 3902 00c4 BE000000 		movl	$.LC39, %esi
 3902      00
 3903 00c9 4889C7   		movq	%rax, %rdi
 3904 00cc E8000000 		call	_ZStlsISt11char_traitsIcEERSt13basic_ostreamIcT_ES5_PKc
 3904      00
 3905              		.loc 6 51 0 discriminator 2
 3906 00d1 4489A514 		movl	%r12d, -492(%rbp)
 3906      FEFFFF
 3907 00d8 F30F1085 		movss	-492(%rbp), %xmm0
 3907      14FEFFFF 
 3908 00e0 4889C7   		movq	%rax, %rdi
 3909 00e3 E8000000 		call	_ZNSolsEf
 3909      00
 3910              		.loc 6 51 0 discriminator 3
 3911 00e8 BE000000 		movl	$.LC38, %esi
 3911      00
 3912 00ed 4889C7   		movq	%rax, %rdi
 3913 00f0 E8000000 		call	_ZStlsISt11char_traitsIcEERSt13basic_ostreamIcT_ES5_PKc
 3913      00
 3914              		.loc 6 51 0 discriminator 4
 3915 00f5 899D14FE 		movl	%ebx, -492(%rbp)
 3915      FFFF
 3916 00fb F30F1085 		movss	-492(%rbp), %xmm0
 3916      14FEFFFF 
 3917 0103 4889C7   		movq	%rax, %rdi
 3918 0106 E8000000 		call	_ZNSolsEf
 3918      00
  52:../Checks.h   **** 
  53:../Checks.h   ****         results.OnTestFailure(details, stream.GetText());
 3919              		.loc 6 53 0 is_stmt 1
 3920 010b 488D8540 		leaq	-448(%rbp), %rax
 3920      FEFFFF
 3921 0112 4889C7   		movq	%rax, %rdi
 3922 0115 E8000000 		call	_ZNK8UnitTest15MemoryOutStream7GetTextEv
 3922      00
 3923 011a 4889C2   		movq	%rax, %rdx
 3924 011d 488B8D18 		movq	-488(%rbp), %rcx
 3924      FEFFFF
 3925 0124 488B8538 		movq	-456(%rbp), %rax
 3925      FEFFFF
 3926 012b 4889CE   		movq	%rcx, %rsi
 3927 012e 4889C7   		movq	%rax, %rdi
 3928 0131 E8000000 		call	_ZN8UnitTest11TestResults13OnTestFailureERKNS_11TestDetailsEPKc
 3928      00
 3929              	.LEHE119:
  50:../Checks.h   ****         stream << "Expected " << expected << " +/- " << tolerance << " but was " << actual;
 3930              		.loc 6 50 0
 3931 0136 488D8540 		leaq	-448(%rbp), %rax
 3931      FEFFFF
 3932 013d 4889C7   		movq	%rax, %rdi
 3933              	.LEHB120:
 3934 0140 E8000000 		call	_ZN8UnitTest15MemoryOutStreamD1Ev
 3934      00
 3935              	.LEHE120:
 3936              	.LBE22:
 3937              	.LBE21:
  54:../Checks.h   ****     }
  55:../Checks.h   **** }
 3938              		.loc 6 55 0
 3939 0145 EB1D     		jmp	.L219
 3940              	.L218:
 3941 0147 4889C3   		movq	%rax, %rbx
 3942              	.LBB24:
 3943              	.LBB23:
  50:../Checks.h   ****         stream << "Expected " << expected << " +/- " << tolerance << " but was " << actual;
 3944              		.loc 6 50 0
 3945 014a 488D8540 		leaq	-448(%rbp), %rax
 3945      FEFFFF
 3946 0151 4889C7   		movq	%rax, %rdi
 3947 0154 E8000000 		call	_ZN8UnitTest15MemoryOutStreamD1Ev
 3947      00
 3948 0159 4889D8   		movq	%rbx, %rax
 3949 015c 4889C7   		movq	%rax, %rdi
 3950              	.LEHB121:
 3951 015f E8000000 		call	_Unwind_Resume
 3951      00
 3952              	.LEHE121:
 3953              	.L219:
 3954              	.LBE23:
 3955              	.LBE24:
 3956              		.loc 6 55 0
 3957 0164 90       		nop
 3958 0165 488B45D8 		movq	-40(%rbp), %rax
 3959 0169 64483304 		xorq	%fs:40, %rax
 3959      25280000 
 3959      00
 3960 0172 7405     		je	.L217
 3961 0174 E8000000 		call	__stack_chk_fail
 3961      00
 3962              	.L217:
 3963 0179 4881C4D8 		addq	$472, %rsp
 3963      010000
 3964 0180 5B       		popq	%rbx
 3965 0181 415C     		popq	%r12
 3966 0183 415D     		popq	%r13
 3967 0185 5D       		popq	%rbp
 3968              		.cfi_def_cfa 7, 8
 3969 0186 C3       		ret
 3970              		.cfi_endproc
 3971              	.LFE1147:
 3972              		.section	.gcc_except_table
 3973              	.LLSDA1147:
 3974 02ff FF       		.byte	0xff
 3975 0300 FF       		.byte	0xff
 3976 0301 01       		.byte	0x1
 3977 0302 15       		.uleb128 .LLSDACSE1147-.LLSDACSB1147
 3978              	.LLSDACSB1147:
 3979 0303 77       		.uleb128 .LEHB118-.LFB1147
 3980 0304 05       		.uleb128 .LEHE118-.LEHB118
 3981 0305 00       		.uleb128 0
 3982 0306 00       		.uleb128 0
 3983 0307 A801     		.uleb128 .LEHB119-.LFB1147
 3984 0309 8E01     		.uleb128 .LEHE119-.LEHB119
 3985 030b C702     		.uleb128 .L218-.LFB1147
 3986 030d 00       		.uleb128 0
 3987 030e C002     		.uleb128 .LEHB120-.LFB1147
 3988 0310 05       		.uleb128 .LEHE120-.LEHB120
 3989 0311 00       		.uleb128 0
 3990 0312 00       		.uleb128 0
 3991 0313 DF02     		.uleb128 .LEHB121-.LFB1147
 3992 0315 05       		.uleb128 .LEHE121-.LEHB121
 3993 0316 00       		.uleb128 0
 3994 0317 00       		.uleb128 0
 3995              	.LLSDACSE1147:
 3996              		.section	.text._ZN8UnitTest10CheckCloseIfffEEvRNS_11TestResultsERKT_RKT0_RKT1_RKNS_11TestDetailsE,
 3998              		.section	.text._ZN8UnitTest8AreCloseIfffEEbRKT_RKT0_RKT1_,"axG",@progbits,_ZN8UnitTest8AreCloseIff
 3999              		.weak	_ZN8UnitTest8AreCloseIfffEEbRKT_RKT0_RKT1_
 4001              	_ZN8UnitTest8AreCloseIfffEEbRKT_RKT0_RKT1_:
 4002              	.LFB1175:
  39:../Checks.h   **** {
 4003              		.loc 6 39 0
 4004              		.cfi_startproc
 4005 0000 55       		pushq	%rbp
 4006              		.cfi_def_cfa_offset 16
 4007              		.cfi_offset 6, -16
 4008 0001 4889E5   		movq	%rsp, %rbp
 4009              		.cfi_def_cfa_register 6
 4010 0004 48897DF8 		movq	%rdi, -8(%rbp)
 4011 0008 488975F0 		movq	%rsi, -16(%rbp)
 4012 000c 488955E8 		movq	%rdx, -24(%rbp)
  41:../Checks.h   **** }
 4013              		.loc 6 41 0
 4014 0010 488B45F0 		movq	-16(%rbp), %rax
 4015 0014 F30F1008 		movss	(%rax), %xmm1
 4016 0018 488B45F8 		movq	-8(%rbp), %rax
 4017 001c F30F1000 		movss	(%rax), %xmm0
 4018 0020 488B45E8 		movq	-24(%rbp), %rax
 4019 0024 F30F1010 		movss	(%rax), %xmm2
 4020 0028 F30F5CC2 		subss	%xmm2, %xmm0
 4021 002c 0F2EC8   		ucomiss	%xmm0, %xmm1
 4022 002f 7228     		jb	.L221
  41:../Checks.h   **** }
 4023              		.loc 6 41 0 is_stmt 0 discriminator 1
 4024 0031 488B45F0 		movq	-16(%rbp), %rax
 4025 0035 F30F1008 		movss	(%rax), %xmm1
 4026 0039 488B45F8 		movq	-8(%rbp), %rax
 4027 003d F30F1010 		movss	(%rax), %xmm2
 4028 0041 488B45E8 		movq	-24(%rbp), %rax
 4029 0045 F30F1000 		movss	(%rax), %xmm0
 4030 0049 F30F58C2 		addss	%xmm2, %xmm0
 4031 004d 0F2EC1   		ucomiss	%xmm1, %xmm0
 4032 0050 7207     		jb	.L221
  41:../Checks.h   **** }
 4033              		.loc 6 41 0 discriminator 3
 4034 0052 B8010000 		movl	$1, %eax
 4034      00
 4035 0057 EB05     		jmp	.L225
 4036              	.L221:
  41:../Checks.h   **** }
 4037              		.loc 6 41 0 discriminator 4
 4038 0059 B8000000 		movl	$0, %eax
 4038      00
 4039              	.L225:
  42:../Checks.h   **** 
 4040              		.loc 6 42 0 is_stmt 1 discriminator 7
 4041 005e 5D       		popq	%rbp
 4042              		.cfi_def_cfa 7, 8
 4043 005f C3       		ret
 4044              		.cfi_endproc
 4045              	.LFE1175:
 4047              		.section	.rodata
 4048 06b5 000000   		.align 8
 4051              	_ZTVN12_GLOBAL__N_129TestNotifiesReporterOfTestEndE:
 4052 06b8 00000000 		.quad	0
 4052      00000000 
 4053 06c0 00000000 		.quad	_ZTIN12_GLOBAL__N_129TestNotifiesReporterOfTestEndE
 4053      00000000 
 4054 06c8 00000000 		.quad	_ZN12_GLOBAL__N_129TestNotifiesReporterOfTestEndD1Ev
 4054      00000000 
 4055 06d0 00000000 		.quad	_ZN12_GLOBAL__N_129TestNotifiesReporterOfTestEndD0Ev
 4055      00000000 
 4056 06d8 00000000 		.quad	_ZNK12_GLOBAL__N_129TestNotifiesReporterOfTestEnd7RunImplEv
 4056      00000000 
 4057              		.text
 4058              		.align 2
 4060              	_ZN12_GLOBAL__N_129TestNotifiesReporterOfTestEndD2Ev:
 4061              	.LFB1203:
  98:TestTestResults.cpp **** {
 4062              		.loc 5 98 0
 4063              		.cfi_startproc
 4064 180c 55       		pushq	%rbp
 4065              		.cfi_def_cfa_offset 16
 4066              		.cfi_offset 6, -16
 4067 180d 4889E5   		movq	%rsp, %rbp
 4068              		.cfi_def_cfa_register 6
 4069 1810 4883EC10 		subq	$16, %rsp
 4070 1814 48897DF8 		movq	%rdi, -8(%rbp)
 4071              	.LBB25:
  98:TestTestResults.cpp **** {
 4072              		.loc 5 98 0
 4073 1818 BA000000 		movl	$_ZTVN12_GLOBAL__N_129TestNotifiesReporterOfTestEndE+16, %edx
 4073      00
 4074 181d 488B45F8 		movq	-8(%rbp), %rax
 4075 1821 488910   		movq	%rdx, (%rax)
 4076 1824 488B45F8 		movq	-8(%rbp), %rax
 4077 1828 4889C7   		movq	%rax, %rdi
 4078 182b E8000000 		call	_ZN8UnitTest4TestD2Ev
 4078      00
 4079              	.LBE25:
 4080 1830 B8000000 		movl	$0, %eax
 4080      00
 4081 1835 85C0     		testl	%eax, %eax
 4082 1837 740C     		je	.L228
  98:TestTestResults.cpp **** {
 4083              		.loc 5 98 0 is_stmt 0 discriminator 4
 4084 1839 488B45F8 		movq	-8(%rbp), %rax
 4085 183d 4889C7   		movq	%rax, %rdi
 4086 1840 E8000000 		call	_ZdlPv
 4086      00
 4087              	.L228:
  98:TestTestResults.cpp **** {
 4088              		.loc 5 98 0
 4089 1845 C9       		leave
 4090              		.cfi_def_cfa 7, 8
 4091 1846 C3       		ret
 4092              		.cfi_endproc
 4093              	.LFE1203:
 4095              		.set	_ZN12_GLOBAL__N_129TestNotifiesReporterOfTestEndD1Ev,_ZN12_GLOBAL__N_129TestNotifiesReporterO
 4096 1847 90       		.align 2
 4098              	_ZN12_GLOBAL__N_129TestNotifiesReporterOfTestEndD0Ev:
 4099              	.LFB1205:
  98:TestTestResults.cpp **** {
 4100              		.loc 5 98 0 is_stmt 1
 4101              		.cfi_startproc
 4102 1848 55       		pushq	%rbp
 4103              		.cfi_def_cfa_offset 16
 4104              		.cfi_offset 6, -16
 4105 1849 4889E5   		movq	%rsp, %rbp
 4106              		.cfi_def_cfa_register 6
 4107 184c 4883EC10 		subq	$16, %rsp
 4108 1850 48897DF8 		movq	%rdi, -8(%rbp)
  98:TestTestResults.cpp **** {
 4109              		.loc 5 98 0
 4110 1854 488B45F8 		movq	-8(%rbp), %rax
 4111 1858 4889C7   		movq	%rax, %rdi
 4112 185b E8ACFFFF 		call	_ZN12_GLOBAL__N_129TestNotifiesReporterOfTestEndD1Ev
 4112      FF
 4113 1860 488B45F8 		movq	-8(%rbp), %rax
 4114 1864 4889C7   		movq	%rax, %rdi
 4115 1867 E8000000 		call	_ZdlPv
 4115      00
 4116 186c C9       		leave
 4117              		.cfi_def_cfa 7, 8
 4118 186d C3       		ret
 4119              		.cfi_endproc
 4120              	.LFE1205:
 4122              		.section	.rodata
 4123              		.align 8
 4126              	_ZTVN12_GLOBAL__N_149TestNotifiesReporterOfCheckFailureWithCorrectInfoE:
 4127 06e0 00000000 		.quad	0
 4127      00000000 
 4128 06e8 00000000 		.quad	_ZTIN12_GLOBAL__N_149TestNotifiesReporterOfCheckFailureWithCorrectInfoE
 4128      00000000 
 4129 06f0 00000000 		.quad	_ZN12_GLOBAL__N_149TestNotifiesReporterOfCheckFailureWithCorrectInfoD1Ev
 4129      00000000 
 4130 06f8 00000000 		.quad	_ZN12_GLOBAL__N_149TestNotifiesReporterOfCheckFailureWithCorrectInfoD0Ev
 4130      00000000 
 4131 0700 00000000 		.quad	_ZNK12_GLOBAL__N_149TestNotifiesReporterOfCheckFailureWithCorrectInfo7RunImplEv
 4131      00000000 
 4132              		.text
 4133              		.align 2
 4135              	_ZN12_GLOBAL__N_149TestNotifiesReporterOfCheckFailureWithCorrectInfoD2Ev:
 4136              	.LFB1207:
  83:TestTestResults.cpp **** {
 4137              		.loc 5 83 0
 4138              		.cfi_startproc
 4139 186e 55       		pushq	%rbp
 4140              		.cfi_def_cfa_offset 16
 4141              		.cfi_offset 6, -16
 4142 186f 4889E5   		movq	%rsp, %rbp
 4143              		.cfi_def_cfa_register 6
 4144 1872 4883EC10 		subq	$16, %rsp
 4145 1876 48897DF8 		movq	%rdi, -8(%rbp)
 4146              	.LBB26:
  83:TestTestResults.cpp **** {
 4147              		.loc 5 83 0
 4148 187a BA000000 		movl	$_ZTVN12_GLOBAL__N_149TestNotifiesReporterOfCheckFailureWithCorrectInfoE+16, %edx
 4148      00
 4149 187f 488B45F8 		movq	-8(%rbp), %rax
 4150 1883 488910   		movq	%rdx, (%rax)
 4151 1886 488B45F8 		movq	-8(%rbp), %rax
 4152 188a 4889C7   		movq	%rax, %rdi
 4153 188d E8000000 		call	_ZN8UnitTest4TestD2Ev
 4153      00
 4154              	.LBE26:
 4155 1892 B8000000 		movl	$0, %eax
 4155      00
 4156 1897 85C0     		testl	%eax, %eax
 4157 1899 740C     		je	.L231
  83:TestTestResults.cpp **** {
 4158              		.loc 5 83 0 is_stmt 0 discriminator 4
 4159 189b 488B45F8 		movq	-8(%rbp), %rax
 4160 189f 4889C7   		movq	%rax, %rdi
 4161 18a2 E8000000 		call	_ZdlPv
 4161      00
 4162              	.L231:
  83:TestTestResults.cpp **** {
 4163              		.loc 5 83 0
 4164 18a7 C9       		leave
 4165              		.cfi_def_cfa 7, 8
 4166 18a8 C3       		ret
 4167              		.cfi_endproc
 4168              	.LFE1207:
 4170              		.set	_ZN12_GLOBAL__N_149TestNotifiesReporterOfCheckFailureWithCorrectInfoD1Ev,_ZN12_GLOBAL__N_149T
 4171 18a9 90       		.align 2
 4173              	_ZN12_GLOBAL__N_149TestNotifiesReporterOfCheckFailureWithCorrectInfoD0Ev:
 4174              	.LFB1209:
  83:TestTestResults.cpp **** {
 4175              		.loc 5 83 0 is_stmt 1
 4176              		.cfi_startproc
 4177 18aa 55       		pushq	%rbp
 4178              		.cfi_def_cfa_offset 16
 4179              		.cfi_offset 6, -16
 4180 18ab 4889E5   		movq	%rsp, %rbp
 4181              		.cfi_def_cfa_register 6
 4182 18ae 4883EC10 		subq	$16, %rsp
 4183 18b2 48897DF8 		movq	%rdi, -8(%rbp)
  83:TestTestResults.cpp **** {
 4184              		.loc 5 83 0
 4185 18b6 488B45F8 		movq	-8(%rbp), %rax
 4186 18ba 4889C7   		movq	%rax, %rdi
 4187 18bd E8ACFFFF 		call	_ZN12_GLOBAL__N_149TestNotifiesReporterOfCheckFailureWithCorrectInfoD1Ev
 4187      FF
 4188 18c2 488B45F8 		movq	-8(%rbp), %rax
 4189 18c6 4889C7   		movq	%rax, %rdi
 4190 18c9 E8000000 		call	_ZdlPv
 4190      00
 4191 18ce C9       		leave
 4192              		.cfi_def_cfa 7, 8
 4193 18cf C3       		ret
 4194              		.cfi_endproc
 4195              	.LFE1209:
 4197              		.section	.rodata
 4198              		.align 8
 4201              	_ZTVN12_GLOBAL__N_148TestNotifiesReporterOfTestFailureWithCorrectInfoE:
 4202 0708 00000000 		.quad	0
 4202      00000000 
 4203 0710 00000000 		.quad	_ZTIN12_GLOBAL__N_148TestNotifiesReporterOfTestFailureWithCorrectInfoE
 4203      00000000 
 4204 0718 00000000 		.quad	_ZN12_GLOBAL__N_148TestNotifiesReporterOfTestFailureWithCorrectInfoD1Ev
 4204      00000000 
 4205 0720 00000000 		.quad	_ZN12_GLOBAL__N_148TestNotifiesReporterOfTestFailureWithCorrectInfoD0Ev
 4205      00000000 
 4206 0728 00000000 		.quad	_ZNK12_GLOBAL__N_148TestNotifiesReporterOfTestFailureWithCorrectInfo7RunImplEv
 4206      00000000 
 4207              		.text
 4208              		.align 2
 4210              	_ZN12_GLOBAL__N_148TestNotifiesReporterOfTestFailureWithCorrectInfoD2Ev:
 4211              	.LFB1211:
  69:TestTestResults.cpp **** {
 4212              		.loc 5 69 0
 4213              		.cfi_startproc
 4214 18d0 55       		pushq	%rbp
 4215              		.cfi_def_cfa_offset 16
 4216              		.cfi_offset 6, -16
 4217 18d1 4889E5   		movq	%rsp, %rbp
 4218              		.cfi_def_cfa_register 6
 4219 18d4 4883EC10 		subq	$16, %rsp
 4220 18d8 48897DF8 		movq	%rdi, -8(%rbp)
 4221              	.LBB27:
  69:TestTestResults.cpp **** {
 4222              		.loc 5 69 0
 4223 18dc BA000000 		movl	$_ZTVN12_GLOBAL__N_148TestNotifiesReporterOfTestFailureWithCorrectInfoE+16, %edx
 4223      00
 4224 18e1 488B45F8 		movq	-8(%rbp), %rax
 4225 18e5 488910   		movq	%rdx, (%rax)
 4226 18e8 488B45F8 		movq	-8(%rbp), %rax
 4227 18ec 4889C7   		movq	%rax, %rdi
 4228 18ef E8000000 		call	_ZN8UnitTest4TestD2Ev
 4228      00
 4229              	.LBE27:
 4230 18f4 B8000000 		movl	$0, %eax
 4230      00
 4231 18f9 85C0     		testl	%eax, %eax
 4232 18fb 740C     		je	.L234
  69:TestTestResults.cpp **** {
 4233              		.loc 5 69 0 is_stmt 0 discriminator 4
 4234 18fd 488B45F8 		movq	-8(%rbp), %rax
 4235 1901 4889C7   		movq	%rax, %rdi
 4236 1904 E8000000 		call	_ZdlPv
 4236      00
 4237              	.L234:
  69:TestTestResults.cpp **** {
 4238              		.loc 5 69 0
 4239 1909 C9       		leave
 4240              		.cfi_def_cfa 7, 8
 4241 190a C3       		ret
 4242              		.cfi_endproc
 4243              	.LFE1211:
 4245              		.set	_ZN12_GLOBAL__N_148TestNotifiesReporterOfTestFailureWithCorrectInfoD1Ev,_ZN12_GLOBAL__N_148Te
 4246 190b 90       		.align 2
 4248              	_ZN12_GLOBAL__N_148TestNotifiesReporterOfTestFailureWithCorrectInfoD0Ev:
 4249              	.LFB1213:
  69:TestTestResults.cpp **** {
 4250              		.loc 5 69 0 is_stmt 1
 4251              		.cfi_startproc
 4252 190c 55       		pushq	%rbp
 4253              		.cfi_def_cfa_offset 16
 4254              		.cfi_offset 6, -16
 4255 190d 4889E5   		movq	%rsp, %rbp
 4256              		.cfi_def_cfa_register 6
 4257 1910 4883EC10 		subq	$16, %rsp
 4258 1914 48897DF8 		movq	%rdi, -8(%rbp)
  69:TestTestResults.cpp **** {
 4259              		.loc 5 69 0
 4260 1918 488B45F8 		movq	-8(%rbp), %rax
 4261 191c 4889C7   		movq	%rax, %rdi
 4262 191f E8ACFFFF 		call	_ZN12_GLOBAL__N_148TestNotifiesReporterOfTestFailureWithCorrectInfoD1Ev
 4262      FF
 4263 1924 488B45F8 		movq	-8(%rbp), %rax
 4264 1928 4889C7   		movq	%rax, %rdi
 4265 192b E8000000 		call	_ZdlPv
 4265      00
 4266 1930 C9       		leave
 4267              		.cfi_def_cfa 7, 8
 4268 1931 C3       		ret
 4269              		.cfi_endproc
 4270              	.LFE1213:
 4272              		.section	.rodata
 4273              		.align 8
 4276              	_ZTVN12_GLOBAL__N_146TestNotifiesReporterOfTestStartWithCorrectInfoE:
 4277 0730 00000000 		.quad	0
 4277      00000000 
 4278 0738 00000000 		.quad	_ZTIN12_GLOBAL__N_146TestNotifiesReporterOfTestStartWithCorrectInfoE
 4278      00000000 
 4279 0740 00000000 		.quad	_ZN12_GLOBAL__N_146TestNotifiesReporterOfTestStartWithCorrectInfoD1Ev
 4279      00000000 
 4280 0748 00000000 		.quad	_ZN12_GLOBAL__N_146TestNotifiesReporterOfTestStartWithCorrectInfoD0Ev
 4280      00000000 
 4281 0750 00000000 		.quad	_ZNK12_GLOBAL__N_146TestNotifiesReporterOfTestStartWithCorrectInfo7RunImplEv
 4281      00000000 
 4282              		.text
 4283              		.align 2
 4285              	_ZN12_GLOBAL__N_146TestNotifiesReporterOfTestStartWithCorrectInfoD2Ev:
 4286              	.LFB1215:
  58:TestTestResults.cpp **** {
 4287              		.loc 5 58 0
 4288              		.cfi_startproc
 4289 1932 55       		pushq	%rbp
 4290              		.cfi_def_cfa_offset 16
 4291              		.cfi_offset 6, -16
 4292 1933 4889E5   		movq	%rsp, %rbp
 4293              		.cfi_def_cfa_register 6
 4294 1936 4883EC10 		subq	$16, %rsp
 4295 193a 48897DF8 		movq	%rdi, -8(%rbp)
 4296              	.LBB28:
  58:TestTestResults.cpp **** {
 4297              		.loc 5 58 0
 4298 193e BA000000 		movl	$_ZTVN12_GLOBAL__N_146TestNotifiesReporterOfTestStartWithCorrectInfoE+16, %edx
 4298      00
 4299 1943 488B45F8 		movq	-8(%rbp), %rax
 4300 1947 488910   		movq	%rdx, (%rax)
 4301 194a 488B45F8 		movq	-8(%rbp), %rax
 4302 194e 4889C7   		movq	%rax, %rdi
 4303 1951 E8000000 		call	_ZN8UnitTest4TestD2Ev
 4303      00
 4304              	.LBE28:
 4305 1956 B8000000 		movl	$0, %eax
 4305      00
 4306 195b 85C0     		testl	%eax, %eax
 4307 195d 740C     		je	.L237
  58:TestTestResults.cpp **** {
 4308              		.loc 5 58 0 is_stmt 0 discriminator 4
 4309 195f 488B45F8 		movq	-8(%rbp), %rax
 4310 1963 4889C7   		movq	%rax, %rdi
 4311 1966 E8000000 		call	_ZdlPv
 4311      00
 4312              	.L237:
  58:TestTestResults.cpp **** {
 4313              		.loc 5 58 0
 4314 196b C9       		leave
 4315              		.cfi_def_cfa 7, 8
 4316 196c C3       		ret
 4317              		.cfi_endproc
 4318              	.LFE1215:
 4320              		.set	_ZN12_GLOBAL__N_146TestNotifiesReporterOfTestStartWithCorrectInfoD1Ev,_ZN12_GLOBAL__N_146Test
 4321 196d 90       		.align 2
 4323              	_ZN12_GLOBAL__N_146TestNotifiesReporterOfTestStartWithCorrectInfoD0Ev:
 4324              	.LFB1217:
  58:TestTestResults.cpp **** {
 4325              		.loc 5 58 0 is_stmt 1
 4326              		.cfi_startproc
 4327 196e 55       		pushq	%rbp
 4328              		.cfi_def_cfa_offset 16
 4329              		.cfi_offset 6, -16
 4330 196f 4889E5   		movq	%rsp, %rbp
 4331              		.cfi_def_cfa_register 6
 4332 1972 4883EC10 		subq	$16, %rsp
 4333 1976 48897DF8 		movq	%rdi, -8(%rbp)
  58:TestTestResults.cpp **** {
 4334              		.loc 5 58 0
 4335 197a 488B45F8 		movq	-8(%rbp), %rax
 4336 197e 4889C7   		movq	%rax, %rdi
 4337 1981 E8ACFFFF 		call	_ZN12_GLOBAL__N_146TestNotifiesReporterOfTestStartWithCorrectInfoD1Ev
 4337      FF
 4338 1986 488B45F8 		movq	-8(%rbp), %rax
 4339 198a 4889C7   		movq	%rax, %rdi
 4340 198d E8000000 		call	_ZdlPv
 4340      00
 4341 1992 C9       		leave
 4342              		.cfi_def_cfa 7, 8
 4343 1993 C3       		ret
 4344              		.cfi_endproc
 4345              	.LFE1217:
 4347              		.section	.rodata
 4348              		.align 8
 4351              	_ZTVN12_GLOBAL__N_130TestRecordsNumberOfFailedTestsE:
 4352 0758 00000000 		.quad	0
 4352      00000000 
 4353 0760 00000000 		.quad	_ZTIN12_GLOBAL__N_130TestRecordsNumberOfFailedTestsE
 4353      00000000 
 4354 0768 00000000 		.quad	_ZN12_GLOBAL__N_130TestRecordsNumberOfFailedTestsD1Ev
 4354      00000000 
 4355 0770 00000000 		.quad	_ZN12_GLOBAL__N_130TestRecordsNumberOfFailedTestsD0Ev
 4355      00000000 
 4356 0778 00000000 		.quad	_ZNK12_GLOBAL__N_130TestRecordsNumberOfFailedTests7RunImplEv
 4356      00000000 
 4357              		.text
 4358              		.align 2
 4360              	_ZN12_GLOBAL__N_130TestRecordsNumberOfFailedTestsD2Ev:
 4361              	.LFB1219:
  41:TestTestResults.cpp **** {
 4362              		.loc 5 41 0
 4363              		.cfi_startproc
 4364 1994 55       		pushq	%rbp
 4365              		.cfi_def_cfa_offset 16
 4366              		.cfi_offset 6, -16
 4367 1995 4889E5   		movq	%rsp, %rbp
 4368              		.cfi_def_cfa_register 6
 4369 1998 4883EC10 		subq	$16, %rsp
 4370 199c 48897DF8 		movq	%rdi, -8(%rbp)
 4371              	.LBB29:
  41:TestTestResults.cpp **** {
 4372              		.loc 5 41 0
 4373 19a0 BA000000 		movl	$_ZTVN12_GLOBAL__N_130TestRecordsNumberOfFailedTestsE+16, %edx
 4373      00
 4374 19a5 488B45F8 		movq	-8(%rbp), %rax
 4375 19a9 488910   		movq	%rdx, (%rax)
 4376 19ac 488B45F8 		movq	-8(%rbp), %rax
 4377 19b0 4889C7   		movq	%rax, %rdi
 4378 19b3 E8000000 		call	_ZN8UnitTest4TestD2Ev
 4378      00
 4379              	.LBE29:
 4380 19b8 B8000000 		movl	$0, %eax
 4380      00
 4381 19bd 85C0     		testl	%eax, %eax
 4382 19bf 740C     		je	.L240
  41:TestTestResults.cpp **** {
 4383              		.loc 5 41 0 is_stmt 0 discriminator 4
 4384 19c1 488B45F8 		movq	-8(%rbp), %rax
 4385 19c5 4889C7   		movq	%rax, %rdi
 4386 19c8 E8000000 		call	_ZdlPv
 4386      00
 4387              	.L240:
  41:TestTestResults.cpp **** {
 4388              		.loc 5 41 0
 4389 19cd C9       		leave
 4390              		.cfi_def_cfa 7, 8
 4391 19ce C3       		ret
 4392              		.cfi_endproc
 4393              	.LFE1219:
 4395              		.set	_ZN12_GLOBAL__N_130TestRecordsNumberOfFailedTestsD1Ev,_ZN12_GLOBAL__N_130TestRecordsNumberOfF
 4396 19cf 90       		.align 2
 4398              	_ZN12_GLOBAL__N_130TestRecordsNumberOfFailedTestsD0Ev:
 4399              	.LFB1221:
  41:TestTestResults.cpp **** {
 4400              		.loc 5 41 0 is_stmt 1
 4401              		.cfi_startproc
 4402 19d0 55       		pushq	%rbp
 4403              		.cfi_def_cfa_offset 16
 4404              		.cfi_offset 6, -16
 4405 19d1 4889E5   		movq	%rsp, %rbp
 4406              		.cfi_def_cfa_register 6
 4407 19d4 4883EC10 		subq	$16, %rsp
 4408 19d8 48897DF8 		movq	%rdi, -8(%rbp)
  41:TestTestResults.cpp **** {
 4409              		.loc 5 41 0
 4410 19dc 488B45F8 		movq	-8(%rbp), %rax
 4411 19e0 4889C7   		movq	%rax, %rdi
 4412 19e3 E8ACFFFF 		call	_ZN12_GLOBAL__N_130TestRecordsNumberOfFailedTestsD1Ev
 4412      FF
 4413 19e8 488B45F8 		movq	-8(%rbp), %rax
 4414 19ec 4889C7   		movq	%rax, %rdi
 4415 19ef E8000000 		call	_ZdlPv
 4415      00
 4416 19f4 C9       		leave
 4417              		.cfi_def_cfa 7, 8
 4418 19f5 C3       		ret
 4419              		.cfi_endproc
 4420              	.LFE1221:
 4422              		.section	.rodata
 4423              		.align 8
 4426              	_ZTVN12_GLOBAL__N_127TestRecordsNumberOfFailuresE:
 4427 0780 00000000 		.quad	0
 4427      00000000 
 4428 0788 00000000 		.quad	_ZTIN12_GLOBAL__N_127TestRecordsNumberOfFailuresE
 4428      00000000 
 4429 0790 00000000 		.quad	_ZN12_GLOBAL__N_127TestRecordsNumberOfFailuresD1Ev
 4429      00000000 
 4430 0798 00000000 		.quad	_ZN12_GLOBAL__N_127TestRecordsNumberOfFailuresD0Ev
 4430      00000000 
 4431 07a0 00000000 		.quad	_ZNK12_GLOBAL__N_127TestRecordsNumberOfFailures7RunImplEv
 4431      00000000 
 4432              		.text
 4433              		.align 2
 4435              	_ZN12_GLOBAL__N_127TestRecordsNumberOfFailuresD2Ev:
 4436              	.LFB1223:
  33:TestTestResults.cpp **** {
 4437              		.loc 5 33 0
 4438              		.cfi_startproc
 4439 19f6 55       		pushq	%rbp
 4440              		.cfi_def_cfa_offset 16
 4441              		.cfi_offset 6, -16
 4442 19f7 4889E5   		movq	%rsp, %rbp
 4443              		.cfi_def_cfa_register 6
 4444 19fa 4883EC10 		subq	$16, %rsp
 4445 19fe 48897DF8 		movq	%rdi, -8(%rbp)
 4446              	.LBB30:
  33:TestTestResults.cpp **** {
 4447              		.loc 5 33 0
 4448 1a02 BA000000 		movl	$_ZTVN12_GLOBAL__N_127TestRecordsNumberOfFailuresE+16, %edx
 4448      00
 4449 1a07 488B45F8 		movq	-8(%rbp), %rax
 4450 1a0b 488910   		movq	%rdx, (%rax)
 4451 1a0e 488B45F8 		movq	-8(%rbp), %rax
 4452 1a12 4889C7   		movq	%rax, %rdi
 4453 1a15 E8000000 		call	_ZN8UnitTest4TestD2Ev
 4453      00
 4454              	.LBE30:
 4455 1a1a B8000000 		movl	$0, %eax
 4455      00
 4456 1a1f 85C0     		testl	%eax, %eax
 4457 1a21 740C     		je	.L243
  33:TestTestResults.cpp **** {
 4458              		.loc 5 33 0 is_stmt 0 discriminator 4
 4459 1a23 488B45F8 		movq	-8(%rbp), %rax
 4460 1a27 4889C7   		movq	%rax, %rdi
 4461 1a2a E8000000 		call	_ZdlPv
 4461      00
 4462              	.L243:
  33:TestTestResults.cpp **** {
 4463              		.loc 5 33 0
 4464 1a2f C9       		leave
 4465              		.cfi_def_cfa 7, 8
 4466 1a30 C3       		ret
 4467              		.cfi_endproc
 4468              	.LFE1223:
 4470              		.set	_ZN12_GLOBAL__N_127TestRecordsNumberOfFailuresD1Ev,_ZN12_GLOBAL__N_127TestRecordsNumberOfFail
 4471 1a31 90       		.align 2
 4473              	_ZN12_GLOBAL__N_127TestRecordsNumberOfFailuresD0Ev:
 4474              	.LFB1225:
  33:TestTestResults.cpp **** {
 4475              		.loc 5 33 0 is_stmt 1
 4476              		.cfi_startproc
 4477 1a32 55       		pushq	%rbp
 4478              		.cfi_def_cfa_offset 16
 4479              		.cfi_offset 6, -16
 4480 1a33 4889E5   		movq	%rsp, %rbp
 4481              		.cfi_def_cfa_register 6
 4482 1a36 4883EC10 		subq	$16, %rsp
 4483 1a3a 48897DF8 		movq	%rdi, -8(%rbp)
  33:TestTestResults.cpp **** {
 4484              		.loc 5 33 0
 4485 1a3e 488B45F8 		movq	-8(%rbp), %rax
 4486 1a42 4889C7   		movq	%rax, %rdi
 4487 1a45 E8ACFFFF 		call	_ZN12_GLOBAL__N_127TestRecordsNumberOfFailuresD1Ev
 4487      FF
 4488 1a4a 488B45F8 		movq	-8(%rbp), %rax
 4489 1a4e 4889C7   		movq	%rax, %rdi
 4490 1a51 E8000000 		call	_ZdlPv
 4490      00
 4491 1a56 C9       		leave
 4492              		.cfi_def_cfa 7, 8
 4493 1a57 C3       		ret
 4494              		.cfi_endproc
 4495              	.LFE1225:
 4497              		.section	.rodata
 4498              		.align 8
 4501              	_ZTVN12_GLOBAL__N_128TestStartsWithNoTestsFailingE:
 4502 07a8 00000000 		.quad	0
 4502      00000000 
 4503 07b0 00000000 		.quad	_ZTIN12_GLOBAL__N_128TestStartsWithNoTestsFailingE
 4503      00000000 
 4504 07b8 00000000 		.quad	_ZN12_GLOBAL__N_128TestStartsWithNoTestsFailingD1Ev
 4504      00000000 
 4505 07c0 00000000 		.quad	_ZN12_GLOBAL__N_128TestStartsWithNoTestsFailingD0Ev
 4505      00000000 
 4506 07c8 00000000 		.quad	_ZNK12_GLOBAL__N_128TestStartsWithNoTestsFailing7RunImplEv
 4506      00000000 
 4507              		.text
 4508              		.align 2
 4510              	_ZN12_GLOBAL__N_128TestStartsWithNoTestsFailingD2Ev:
 4511              	.LFB1227:
  27:TestTestResults.cpp **** {
 4512              		.loc 5 27 0
 4513              		.cfi_startproc
 4514 1a58 55       		pushq	%rbp
 4515              		.cfi_def_cfa_offset 16
 4516              		.cfi_offset 6, -16
 4517 1a59 4889E5   		movq	%rsp, %rbp
 4518              		.cfi_def_cfa_register 6
 4519 1a5c 4883EC10 		subq	$16, %rsp
 4520 1a60 48897DF8 		movq	%rdi, -8(%rbp)
 4521              	.LBB31:
  27:TestTestResults.cpp **** {
 4522              		.loc 5 27 0
 4523 1a64 BA000000 		movl	$_ZTVN12_GLOBAL__N_128TestStartsWithNoTestsFailingE+16, %edx
 4523      00
 4524 1a69 488B45F8 		movq	-8(%rbp), %rax
 4525 1a6d 488910   		movq	%rdx, (%rax)
 4526 1a70 488B45F8 		movq	-8(%rbp), %rax
 4527 1a74 4889C7   		movq	%rax, %rdi
 4528 1a77 E8000000 		call	_ZN8UnitTest4TestD2Ev
 4528      00
 4529              	.LBE31:
 4530 1a7c B8000000 		movl	$0, %eax
 4530      00
 4531 1a81 85C0     		testl	%eax, %eax
 4532 1a83 740C     		je	.L246
  27:TestTestResults.cpp **** {
 4533              		.loc 5 27 0 is_stmt 0 discriminator 4
 4534 1a85 488B45F8 		movq	-8(%rbp), %rax
 4535 1a89 4889C7   		movq	%rax, %rdi
 4536 1a8c E8000000 		call	_ZdlPv
 4536      00
 4537              	.L246:
  27:TestTestResults.cpp **** {
 4538              		.loc 5 27 0
 4539 1a91 C9       		leave
 4540              		.cfi_def_cfa 7, 8
 4541 1a92 C3       		ret
 4542              		.cfi_endproc
 4543              	.LFE1227:
 4545              		.set	_ZN12_GLOBAL__N_128TestStartsWithNoTestsFailingD1Ev,_ZN12_GLOBAL__N_128TestStartsWithNoTestsF
 4546 1a93 90       		.align 2
 4548              	_ZN12_GLOBAL__N_128TestStartsWithNoTestsFailingD0Ev:
 4549              	.LFB1229:
  27:TestTestResults.cpp **** {
 4550              		.loc 5 27 0 is_stmt 1
 4551              		.cfi_startproc
 4552 1a94 55       		pushq	%rbp
 4553              		.cfi_def_cfa_offset 16
 4554              		.cfi_offset 6, -16
 4555 1a95 4889E5   		movq	%rsp, %rbp
 4556              		.cfi_def_cfa_register 6
 4557 1a98 4883EC10 		subq	$16, %rsp
 4558 1a9c 48897DF8 		movq	%rdi, -8(%rbp)
  27:TestTestResults.cpp **** {
 4559              		.loc 5 27 0
 4560 1aa0 488B45F8 		movq	-8(%rbp), %rax
 4561 1aa4 4889C7   		movq	%rax, %rdi
 4562 1aa7 E8ACFFFF 		call	_ZN12_GLOBAL__N_128TestStartsWithNoTestsFailingD1Ev
 4562      FF
 4563 1aac 488B45F8 		movq	-8(%rbp), %rax
 4564 1ab0 4889C7   		movq	%rax, %rdi
 4565 1ab3 E8000000 		call	_ZdlPv
 4565      00
 4566 1ab8 C9       		leave
 4567              		.cfi_def_cfa 7, 8
 4568 1ab9 C3       		ret
 4569              		.cfi_endproc
 4570              	.LFE1229:
 4572              		.section	.rodata
 4573              		.align 8
 4576              	_ZTVN12_GLOBAL__N_125TestRecordsNumbersOfTestsE:
 4577 07d0 00000000 		.quad	0
 4577      00000000 
 4578 07d8 00000000 		.quad	_ZTIN12_GLOBAL__N_125TestRecordsNumbersOfTestsE
 4578      00000000 
 4579 07e0 00000000 		.quad	_ZN12_GLOBAL__N_125TestRecordsNumbersOfTestsD1Ev
 4579      00000000 
 4580 07e8 00000000 		.quad	_ZN12_GLOBAL__N_125TestRecordsNumbersOfTestsD0Ev
 4580      00000000 
 4581 07f0 00000000 		.quad	_ZNK12_GLOBAL__N_125TestRecordsNumbersOfTests7RunImplEv
 4581      00000000 
 4582              		.text
 4583              		.align 2
 4585              	_ZN12_GLOBAL__N_125TestRecordsNumbersOfTestsD2Ev:
 4586              	.LFB1231:
  18:TestTestResults.cpp **** {
 4587              		.loc 5 18 0
 4588              		.cfi_startproc
 4589 1aba 55       		pushq	%rbp
 4590              		.cfi_def_cfa_offset 16
 4591              		.cfi_offset 6, -16
 4592 1abb 4889E5   		movq	%rsp, %rbp
 4593              		.cfi_def_cfa_register 6
 4594 1abe 4883EC10 		subq	$16, %rsp
 4595 1ac2 48897DF8 		movq	%rdi, -8(%rbp)
 4596              	.LBB32:
  18:TestTestResults.cpp **** {
 4597              		.loc 5 18 0
 4598 1ac6 BA000000 		movl	$_ZTVN12_GLOBAL__N_125TestRecordsNumbersOfTestsE+16, %edx
 4598      00
 4599 1acb 488B45F8 		movq	-8(%rbp), %rax
 4600 1acf 488910   		movq	%rdx, (%rax)
 4601 1ad2 488B45F8 		movq	-8(%rbp), %rax
 4602 1ad6 4889C7   		movq	%rax, %rdi
 4603 1ad9 E8000000 		call	_ZN8UnitTest4TestD2Ev
 4603      00
 4604              	.LBE32:
 4605 1ade B8000000 		movl	$0, %eax
 4605      00
 4606 1ae3 85C0     		testl	%eax, %eax
 4607 1ae5 740C     		je	.L249
  18:TestTestResults.cpp **** {
 4608              		.loc 5 18 0 is_stmt 0 discriminator 4
 4609 1ae7 488B45F8 		movq	-8(%rbp), %rax
 4610 1aeb 4889C7   		movq	%rax, %rdi
 4611 1aee E8000000 		call	_ZdlPv
 4611      00
 4612              	.L249:
  18:TestTestResults.cpp **** {
 4613              		.loc 5 18 0
 4614 1af3 C9       		leave
 4615              		.cfi_def_cfa 7, 8
 4616 1af4 C3       		ret
 4617              		.cfi_endproc
 4618              	.LFE1231:
 4620              		.set	_ZN12_GLOBAL__N_125TestRecordsNumbersOfTestsD1Ev,_ZN12_GLOBAL__N_125TestRecordsNumbersOfTests
 4621 1af5 90       		.align 2
 4623              	_ZN12_GLOBAL__N_125TestRecordsNumbersOfTestsD0Ev:
 4624              	.LFB1233:
  18:TestTestResults.cpp **** {
 4625              		.loc 5 18 0 is_stmt 1
 4626              		.cfi_startproc
 4627 1af6 55       		pushq	%rbp
 4628              		.cfi_def_cfa_offset 16
 4629              		.cfi_offset 6, -16
 4630 1af7 4889E5   		movq	%rsp, %rbp
 4631              		.cfi_def_cfa_register 6
 4632 1afa 4883EC10 		subq	$16, %rsp
 4633 1afe 48897DF8 		movq	%rdi, -8(%rbp)
  18:TestTestResults.cpp **** {
 4634              		.loc 5 18 0
 4635 1b02 488B45F8 		movq	-8(%rbp), %rax
 4636 1b06 4889C7   		movq	%rax, %rdi
 4637 1b09 E8ACFFFF 		call	_ZN12_GLOBAL__N_125TestRecordsNumbersOfTestsD1Ev
 4637      FF
 4638 1b0e 488B45F8 		movq	-8(%rbp), %rax
 4639 1b12 4889C7   		movq	%rax, %rdi
 4640 1b15 E8000000 		call	_ZdlPv
 4640      00
 4641 1b1a C9       		leave
 4642              		.cfi_def_cfa 7, 8
 4643 1b1b C3       		ret
 4644              		.cfi_endproc
 4645              	.LFE1233:
 4647              		.section	.rodata
 4648              		.align 8
 4651              	_ZTVN12_GLOBAL__N_124TestStartsWithNoTestsRunE:
 4652 07f8 00000000 		.quad	0
 4652      00000000 
 4653 0800 00000000 		.quad	_ZTIN12_GLOBAL__N_124TestStartsWithNoTestsRunE
 4653      00000000 
 4654 0808 00000000 		.quad	_ZN12_GLOBAL__N_124TestStartsWithNoTestsRunD1Ev
 4654      00000000 
 4655 0810 00000000 		.quad	_ZN12_GLOBAL__N_124TestStartsWithNoTestsRunD0Ev
 4655      00000000 
 4656 0818 00000000 		.quad	_ZNK12_GLOBAL__N_124TestStartsWithNoTestsRun7RunImplEv
 4656      00000000 
 4657              		.text
 4658              		.align 2
 4660              	_ZN12_GLOBAL__N_124TestStartsWithNoTestsRunD2Ev:
 4661              	.LFB1235:
  12:TestTestResults.cpp **** {
 4662              		.loc 5 12 0
 4663              		.cfi_startproc
 4664 1b1c 55       		pushq	%rbp
 4665              		.cfi_def_cfa_offset 16
 4666              		.cfi_offset 6, -16
 4667 1b1d 4889E5   		movq	%rsp, %rbp
 4668              		.cfi_def_cfa_register 6
 4669 1b20 4883EC10 		subq	$16, %rsp
 4670 1b24 48897DF8 		movq	%rdi, -8(%rbp)
 4671              	.LBB33:
  12:TestTestResults.cpp **** {
 4672              		.loc 5 12 0
 4673 1b28 BA000000 		movl	$_ZTVN12_GLOBAL__N_124TestStartsWithNoTestsRunE+16, %edx
 4673      00
 4674 1b2d 488B45F8 		movq	-8(%rbp), %rax
 4675 1b31 488910   		movq	%rdx, (%rax)
 4676 1b34 488B45F8 		movq	-8(%rbp), %rax
 4677 1b38 4889C7   		movq	%rax, %rdi
 4678 1b3b E8000000 		call	_ZN8UnitTest4TestD2Ev
 4678      00
 4679              	.LBE33:
 4680 1b40 B8000000 		movl	$0, %eax
 4680      00
 4681 1b45 85C0     		testl	%eax, %eax
 4682 1b47 740C     		je	.L252
  12:TestTestResults.cpp **** {
 4683              		.loc 5 12 0 is_stmt 0 discriminator 4
 4684 1b49 488B45F8 		movq	-8(%rbp), %rax
 4685 1b4d 4889C7   		movq	%rax, %rdi
 4686 1b50 E8000000 		call	_ZdlPv
 4686      00
 4687              	.L252:
  12:TestTestResults.cpp **** {
 4688              		.loc 5 12 0
 4689 1b55 C9       		leave
 4690              		.cfi_def_cfa 7, 8
 4691 1b56 C3       		ret
 4692              		.cfi_endproc
 4693              	.LFE1235:
 4695              		.set	_ZN12_GLOBAL__N_124TestStartsWithNoTestsRunD1Ev,_ZN12_GLOBAL__N_124TestStartsWithNoTestsRunD2
 4696 1b57 90       		.align 2
 4698              	_ZN12_GLOBAL__N_124TestStartsWithNoTestsRunD0Ev:
 4699              	.LFB1237:
  12:TestTestResults.cpp **** {
 4700              		.loc 5 12 0 is_stmt 1
 4701              		.cfi_startproc
 4702 1b58 55       		pushq	%rbp
 4703              		.cfi_def_cfa_offset 16
 4704              		.cfi_offset 6, -16
 4705 1b59 4889E5   		movq	%rsp, %rbp
 4706              		.cfi_def_cfa_register 6
 4707 1b5c 4883EC10 		subq	$16, %rsp
 4708 1b60 48897DF8 		movq	%rdi, -8(%rbp)
  12:TestTestResults.cpp **** {
 4709              		.loc 5 12 0
 4710 1b64 488B45F8 		movq	-8(%rbp), %rax
 4711 1b68 4889C7   		movq	%rax, %rdi
 4712 1b6b E8ACFFFF 		call	_ZN12_GLOBAL__N_124TestStartsWithNoTestsRunD1Ev
 4712      FF
 4713 1b70 488B45F8 		movq	-8(%rbp), %rax
 4714 1b74 4889C7   		movq	%rax, %rdi
 4715 1b77 E8000000 		call	_ZdlPv
 4715      00
 4716 1b7c C9       		leave
 4717              		.cfi_def_cfa 7, 8
 4718 1b7d C3       		ret
 4719              		.cfi_endproc
 4720              	.LFE1237:
 4722              		.weak	_ZTV17RecordingReporter
 4723              		.section	.rodata._ZTV17RecordingReporter,"aG",@progbits,_ZTV17RecordingReporter,comdat
 4724              		.align 8
 4727              	_ZTV17RecordingReporter:
 4728 0000 00000000 		.quad	0
 4728      00000000 
 4729 0008 00000000 		.quad	_ZTI17RecordingReporter
 4729      00000000 
 4730 0010 00000000 		.quad	_ZN17RecordingReporterD1Ev
 4730      00000000 
 4731 0018 00000000 		.quad	_ZN17RecordingReporterD0Ev
 4731      00000000 
 4732 0020 00000000 		.quad	_ZN17RecordingReporter15ReportTestStartERKN8UnitTest11TestDetailsE
 4732      00000000 
 4733 0028 00000000 		.quad	_ZN17RecordingReporter13ReportFailureERKN8UnitTest11TestDetailsEPKc
 4733      00000000 
 4734 0030 00000000 		.quad	_ZN17RecordingReporter16ReportTestFinishERKN8UnitTest11TestDetailsEf
 4734      00000000 
 4735 0038 00000000 		.quad	_ZN17RecordingReporter13ReportSummaryEiiif
 4735      00000000 
 4736              		.section	.text._ZN17RecordingReporterD2Ev,"axG",@progbits,_ZN17RecordingReporterD5Ev,comdat
 4737              		.align 2
 4738              		.weak	_ZN17RecordingReporterD2Ev
 4740              	_ZN17RecordingReporterD2Ev:
 4741              	.LFB1239:
   9:RecordingReporter.h **** {
 4742              		.loc 4 9 0
 4743              		.cfi_startproc
 4744 0000 55       		pushq	%rbp
 4745              		.cfi_def_cfa_offset 16
 4746              		.cfi_offset 6, -16
 4747 0001 4889E5   		movq	%rsp, %rbp
 4748              		.cfi_def_cfa_register 6
 4749 0004 4883EC10 		subq	$16, %rsp
 4750 0008 48897DF8 		movq	%rdi, -8(%rbp)
 4751              	.LBB34:
   9:RecordingReporter.h **** {
 4752              		.loc 4 9 0
 4753 000c BA000000 		movl	$_ZTV17RecordingReporter+16, %edx
 4753      00
 4754 0011 488B45F8 		movq	-8(%rbp), %rax
 4755 0015 488910   		movq	%rdx, (%rax)
 4756 0018 488B45F8 		movq	-8(%rbp), %rax
 4757 001c 4889C7   		movq	%rax, %rdi
 4758 001f E8000000 		call	_ZN8UnitTest12TestReporterD2Ev
 4758      00
 4759              	.LBE34:
 4760 0024 B8000000 		movl	$0, %eax
 4760      00
 4761 0029 85C0     		testl	%eax, %eax
 4762 002b 740C     		je	.L255
   9:RecordingReporter.h **** {
 4763              		.loc 4 9 0 is_stmt 0 discriminator 4
 4764 002d 488B45F8 		movq	-8(%rbp), %rax
 4765 0031 4889C7   		movq	%rax, %rdi
 4766 0034 E8000000 		call	_ZdlPv
 4766      00
 4767              	.L255:
   9:RecordingReporter.h **** {
 4768              		.loc 4 9 0
 4769 0039 C9       		leave
 4770              		.cfi_def_cfa 7, 8
 4771 003a C3       		ret
 4772              		.cfi_endproc
 4773              	.LFE1239:
 4775              		.weak	_ZN17RecordingReporterD1Ev
 4776              		.set	_ZN17RecordingReporterD1Ev,_ZN17RecordingReporterD2Ev
 4777              		.section	.text._ZN17RecordingReporterD0Ev,"axG",@progbits,_ZN17RecordingReporterD5Ev,comdat
 4778              		.align 2
 4779              		.weak	_ZN17RecordingReporterD0Ev
 4781              	_ZN17RecordingReporterD0Ev:
 4782              	.LFB1241:
   9:RecordingReporter.h **** {
 4783              		.loc 4 9 0 is_stmt 1
 4784              		.cfi_startproc
 4785 0000 55       		pushq	%rbp
 4786              		.cfi_def_cfa_offset 16
 4787              		.cfi_offset 6, -16
 4788 0001 4889E5   		movq	%rsp, %rbp
 4789              		.cfi_def_cfa_register 6
 4790 0004 4883EC10 		subq	$16, %rsp
 4791 0008 48897DF8 		movq	%rdi, -8(%rbp)
   9:RecordingReporter.h **** {
 4792              		.loc 4 9 0
 4793 000c 488B45F8 		movq	-8(%rbp), %rax
 4794 0010 4889C7   		movq	%rax, %rdi
 4795 0013 E8000000 		call	_ZN17RecordingReporterD1Ev
 4795      00
 4796 0018 488B45F8 		movq	-8(%rbp), %rax
 4797 001c 4889C7   		movq	%rax, %rdi
 4798 001f E8000000 		call	_ZdlPv
 4798      00
 4799 0024 C9       		leave
 4800              		.cfi_def_cfa 7, 8
 4801 0025 C3       		ret
 4802              		.cfi_endproc
 4803              	.LFE1241:
 4805              		.weak	_ZTVN8UnitTest15MemoryOutStreamE
 4806              		.section	.rodata._ZTVN8UnitTest15MemoryOutStreamE,"aG",@progbits,_ZTVN8UnitTest15MemoryOutStreamE,
 4807              		.align 8
 4810              	_ZTVN8UnitTest15MemoryOutStreamE:
 4811 0000 90000000 		.quad	144
 4811      00000000 
 4812 0008 00000000 		.quad	0
 4812      00000000 
 4813 0010 00000000 		.quad	_ZTIN8UnitTest15MemoryOutStreamE
 4813      00000000 
 4814 0018 00000000 		.quad	_ZN8UnitTest15MemoryOutStreamD1Ev
 4814      00000000 
 4815 0020 00000000 		.quad	_ZN8UnitTest15MemoryOutStreamD0Ev
 4815      00000000 
 4816 0028 70FFFFFF 		.quad	-144
 4816      FFFFFFFF 
 4817 0030 70FFFFFF 		.quad	-144
 4817      FFFFFFFF 
 4818 0038 00000000 		.quad	_ZTIN8UnitTest15MemoryOutStreamE
 4818      00000000 
 4819 0040 00000000 		.quad	_ZTv0_n24_N8UnitTest15MemoryOutStreamD1Ev
 4819      00000000 
 4820 0048 00000000 		.quad	_ZTv0_n24_N8UnitTest15MemoryOutStreamD0Ev
 4820      00000000 
 4821              		.weak	_ZTTN8UnitTest15MemoryOutStreamE
 4822              		.section	.rodata._ZTTN8UnitTest15MemoryOutStreamE,"aG",@progbits,_ZTVN8UnitTest15MemoryOutStreamE,
 4823              		.align 8
 4826              	_ZTTN8UnitTest15MemoryOutStreamE:
 4827 0000 00000000 		.quad	_ZTVN8UnitTest15MemoryOutStreamE+24
 4827      00000000 
 4828 0008 00000000 		.quad	_ZTCN8UnitTest15MemoryOutStreamE0_NSt7__cxx1119basic_ostringstreamIcSt11char_traitsIcESaIcEE
 4828      00000000 
 4829 0010 00000000 		.quad	_ZTCN8UnitTest15MemoryOutStreamE0_So+24
 4829      00000000 
 4830 0018 00000000 		.quad	_ZTCN8UnitTest15MemoryOutStreamE0_So+64
 4830      00000000 
 4831 0020 00000000 		.quad	_ZTCN8UnitTest15MemoryOutStreamE0_NSt7__cxx1119basic_ostringstreamIcSt11char_traitsIcESaIcEE
 4831      00000000 
 4832 0028 00000000 		.quad	_ZTVN8UnitTest15MemoryOutStreamE+64
 4832      00000000 
 4833              		.hidden	_ZTCN8UnitTest15MemoryOutStreamE0_NSt7__cxx1119basic_ostringstreamIcSt11char_traitsIcESaIc
 4834              		.weak	_ZTCN8UnitTest15MemoryOutStreamE0_NSt7__cxx1119basic_ostringstreamIcSt11char_traitsIcESaIcEE
 4835              		.section	.rodata._ZTCN8UnitTest15MemoryOutStreamE0_NSt7__cxx1119basic_ostringstreamIcSt11char_trai
 4836              		.align 8
 4839              	_ZTCN8UnitTest15MemoryOutStreamE0_NSt7__cxx1119basic_ostringstreamIcSt11char_traitsIcESaIcEEE:
 4840 0000 90000000 		.quad	144
 4840      00000000 
 4841 0008 00000000 		.quad	0
 4841      00000000 
 4842 0010 00000000 		.quad	_ZTINSt7__cxx1119basic_ostringstreamIcSt11char_traitsIcESaIcEEE
 4842      00000000 
 4843 0018 00000000 		.quad	0
 4843      00000000 
 4844 0020 00000000 		.quad	0
 4844      00000000 
 4845 0028 70FFFFFF 		.quad	-144
 4845      FFFFFFFF 
 4846 0030 70FFFFFF 		.quad	-144
 4846      FFFFFFFF 
 4847 0038 00000000 		.quad	_ZTINSt7__cxx1119basic_ostringstreamIcSt11char_traitsIcESaIcEEE
 4847      00000000 
 4848 0040 00000000 		.quad	0
 4848      00000000 
 4849 0048 00000000 		.quad	0
 4849      00000000 
 4850              		.hidden	_ZTCN8UnitTest15MemoryOutStreamE0_So
 4851              		.weak	_ZTCN8UnitTest15MemoryOutStreamE0_So
 4852              		.section	.rodata._ZTCN8UnitTest15MemoryOutStreamE0_So,"aG",@progbits,_ZTVN8UnitTest15MemoryOutStre
 4853              		.align 8
 4856              	_ZTCN8UnitTest15MemoryOutStreamE0_So:
 4857 0000 90000000 		.quad	144
 4857      00000000 
 4858 0008 00000000 		.quad	0
 4858      00000000 
 4859 0010 00000000 		.quad	_ZTISo
 4859      00000000 
 4860 0018 00000000 		.quad	0
 4860      00000000 
 4861 0020 00000000 		.quad	0
 4861      00000000 
 4862 0028 70FFFFFF 		.quad	-144
 4862      FFFFFFFF 
 4863 0030 70FFFFFF 		.quad	-144
 4863      FFFFFFFF 
 4864 0038 00000000 		.quad	_ZTISo
 4864      00000000 
 4865 0040 00000000 		.quad	0
 4865      00000000 
 4866 0048 00000000 		.quad	0
 4866      00000000 
 4867              		.section	.rodata
 4868              		.align 32
 4871              	_ZTSN12_GLOBAL__N_129TestNotifiesReporterOfTestEndE:
 4872 0820 2A4E3132 		.string	"*N12_GLOBAL__N_129TestNotifiesReporterOfTestEndE"
 4872      5F474C4F 
 4872      42414C5F 
 4872      5F4E5F31 
 4872      32395465 
 4873 0851 00000000 		.align 8
 4873      000000
 4876              	_ZTIN12_GLOBAL__N_129TestNotifiesReporterOfTestEndE:
 4877 0858 00000000 		.quad	_ZTVN10__cxxabiv120__si_class_type_infoE+16
 4877      00000000 
 4878 0860 00000000 		.quad	_ZTSN12_GLOBAL__N_129TestNotifiesReporterOfTestEndE
 4878      00000000 
 4879 0868 00000000 		.quad	_ZTIN8UnitTest4TestE
 4879      00000000 
 4880 0870 00000000 		.align 32
 4880      00000000 
 4880      00000000 
 4880      00000000 
 4883              	_ZTSN12_GLOBAL__N_149TestNotifiesReporterOfCheckFailureWithCorrectInfoE:
 4884 0880 2A4E3132 		.string	"*N12_GLOBAL__N_149TestNotifiesReporterOfCheckFailureWithCorrectInfoE"
 4884      5F474C4F 
 4884      42414C5F 
 4884      5F4E5F31 
 4884      34395465 
 4885 08c5 000000   		.align 8
 4888              	_ZTIN12_GLOBAL__N_149TestNotifiesReporterOfCheckFailureWithCorrectInfoE:
 4889 08c8 00000000 		.quad	_ZTVN10__cxxabiv120__si_class_type_infoE+16
 4889      00000000 
 4890 08d0 00000000 		.quad	_ZTSN12_GLOBAL__N_149TestNotifiesReporterOfCheckFailureWithCorrectInfoE
 4890      00000000 
 4891 08d8 00000000 		.quad	_ZTIN8UnitTest4TestE
 4891      00000000 
 4892              		.align 32
 4895              	_ZTSN12_GLOBAL__N_148TestNotifiesReporterOfTestFailureWithCorrectInfoE:
 4896 08e0 2A4E3132 		.string	"*N12_GLOBAL__N_148TestNotifiesReporterOfTestFailureWithCorrectInfoE"
 4896      5F474C4F 
 4896      42414C5F 
 4896      5F4E5F31 
 4896      34385465 
 4897 0924 00000000 		.align 8
 4900              	_ZTIN12_GLOBAL__N_148TestNotifiesReporterOfTestFailureWithCorrectInfoE:
 4901 0928 00000000 		.quad	_ZTVN10__cxxabiv120__si_class_type_infoE+16
 4901      00000000 
 4902 0930 00000000 		.quad	_ZTSN12_GLOBAL__N_148TestNotifiesReporterOfTestFailureWithCorrectInfoE
 4902      00000000 
 4903 0938 00000000 		.quad	_ZTIN8UnitTest4TestE
 4903      00000000 
 4904              		.align 32
 4907              	_ZTSN12_GLOBAL__N_146TestNotifiesReporterOfTestStartWithCorrectInfoE:
 4908 0940 2A4E3132 		.string	"*N12_GLOBAL__N_146TestNotifiesReporterOfTestStartWithCorrectInfoE"
 4908      5F474C4F 
 4908      42414C5F 
 4908      5F4E5F31 
 4908      34365465 
 4909 0982 00000000 		.align 8
 4909      0000
 4912              	_ZTIN12_GLOBAL__N_146TestNotifiesReporterOfTestStartWithCorrectInfoE:
 4913 0988 00000000 		.quad	_ZTVN10__cxxabiv120__si_class_type_infoE+16
 4913      00000000 
 4914 0990 00000000 		.quad	_ZTSN12_GLOBAL__N_146TestNotifiesReporterOfTestStartWithCorrectInfoE
 4914      00000000 
 4915 0998 00000000 		.quad	_ZTIN8UnitTest4TestE
 4915      00000000 
 4916              		.align 32
 4919              	_ZTSN12_GLOBAL__N_130TestRecordsNumberOfFailedTestsE:
 4920 09a0 2A4E3132 		.string	"*N12_GLOBAL__N_130TestRecordsNumberOfFailedTestsE"
 4920      5F474C4F 
 4920      42414C5F 
 4920      5F4E5F31 
 4920      33305465 
 4921 09d2 00000000 		.align 8
 4921      0000
 4924              	_ZTIN12_GLOBAL__N_130TestRecordsNumberOfFailedTestsE:
