   1              		.file	"TestChecks.cpp"
   2              		.text
   3              	.Ltext0:
   4              		.section	.rodata
   5              	.LC0:
   6 0000 44656661 		.string	"DefaultSuite"
   6      756C7453 
   6      75697465 
   6      00
   7              		.section	.text._ZN13UnitTestSuite12GetSuiteNameEv,"axG",@progbits,_ZN13UnitTestSuite12GetSuiteName
   8              		.weak	_ZN13UnitTestSuite12GetSuiteNameEv
  10              	_ZN13UnitTestSuite12GetSuiteNameEv:
  11              	.LFB0:
  12              		.file 1 "../TestSuite.h"
   1:../TestSuite.h **** #ifndef UNITTEST_TESTSUITE_H
   2:../TestSuite.h **** #define UNITTEST_TESTSUITE_H
   3:../TestSuite.h **** 
   4:../TestSuite.h **** namespace UnitTestSuite {
   5:../TestSuite.h **** 
   6:../TestSuite.h ****     inline char const* GetSuiteName ()
   7:../TestSuite.h ****     {
  13              		.loc 1 7 0
  14              		.cfi_startproc
  15 0000 55       		pushq	%rbp
  16              		.cfi_def_cfa_offset 16
  17              		.cfi_offset 6, -16
  18 0001 4889E5   		movq	%rsp, %rbp
  19              		.cfi_def_cfa_register 6
   8:../TestSuite.h ****         return "DefaultSuite";
  20              		.loc 1 8 0
  21 0004 B8000000 		movl	$.LC0, %eax
  21      00
   9:../TestSuite.h ****     }
  22              		.loc 1 9 0
  23 0009 5D       		popq	%rbp
  24              		.cfi_def_cfa 7, 8
  25 000a C3       		ret
  26              		.cfi_endproc
  27              	.LFE0:
  29              		.section	.text._ZN8UnitTest15MemoryOutStreamC1Ev,"axG",@progbits,_ZN8UnitTest15MemoryOutStreamC1Ev
  30              		.align 2
  31              		.weak	_ZN8UnitTest15MemoryOutStreamC1Ev
  33              	_ZN8UnitTest15MemoryOutStreamC1Ev:
  34              	.LFB1057:
  35              		.file 2 "../MemoryOutStream.h"
   1:../MemoryOutStream.h **** #ifndef UNITTEST_MEMORYOUTSTREAM_H
   2:../MemoryOutStream.h **** #define UNITTEST_MEMORYOUTSTREAM_H
   3:../MemoryOutStream.h **** 
   4:../MemoryOutStream.h **** #include "Config.h"
   5:../MemoryOutStream.h **** 
   6:../MemoryOutStream.h **** #ifndef UNITTEST_USE_CUSTOM_STREAMS
   7:../MemoryOutStream.h **** 
   8:../MemoryOutStream.h **** #include <sstream>
   9:../MemoryOutStream.h **** 
  10:../MemoryOutStream.h **** namespace UnitTest
  11:../MemoryOutStream.h **** {
  12:../MemoryOutStream.h **** 
  13:../MemoryOutStream.h **** class MemoryOutStream : public std::ostringstream
  14:../MemoryOutStream.h **** {
  15:../MemoryOutStream.h **** public:
  16:../MemoryOutStream.h ****     MemoryOutStream() {}
  36              		.loc 2 16 0
  37              		.cfi_startproc
  38              		.cfi_personality 0x3,__gxx_personality_v0
  39              		.cfi_lsda 0x3,.LLSDA1057
  40 0000 55       		pushq	%rbp
  41              		.cfi_def_cfa_offset 16
  42              		.cfi_offset 6, -16
  43 0001 4889E5   		movq	%rsp, %rbp
  44              		.cfi_def_cfa_register 6
  45 0004 53       		pushq	%rbx
  46 0005 4883EC18 		subq	$24, %rsp
  47              		.cfi_offset 3, -24
  48 0009 48897DE8 		movq	%rdi, -24(%rbp)
  49              	.LBB2:
  50              		.loc 2 16 0
  51 000d 488B45E8 		movq	-24(%rbp), %rax
  52 0011 48059000 		addq	$144, %rax
  52      0000
  53 0017 4889C7   		movq	%rax, %rdi
  54              	.LEHB0:
  55 001a E8000000 		call	_ZNSt9basic_iosIcSt11char_traitsIcEEC2Ev
  55      00
  56              	.LEHE0:
  57 001f B9000000 		movl	$_ZTTN8UnitTest15MemoryOutStreamE+8, %ecx
  57      00
  58 0024 488B45E8 		movq	-24(%rbp), %rax
  59 0028 BA100000 		movl	$16, %edx
  59      00
  60 002d 4889CE   		movq	%rcx, %rsi
  61 0030 4889C7   		movq	%rax, %rdi
  62              	.LEHB1:
  63 0033 E8000000 		call	_ZNSt7__cxx1119basic_ostringstreamIcSt11char_traitsIcESaIcEEC2ESt13_Ios_Openmode
  63      00
  64              	.LEHE1:
  65              		.loc 2 16 0 is_stmt 0 discriminator 9
  66 0038 BA000000 		movl	$_ZTVN8UnitTest15MemoryOutStreamE+24, %edx
  66      00
  67 003d 488B45E8 		movq	-24(%rbp), %rax
  68 0041 488910   		movq	%rdx, (%rax)
  69 0044 BA900000 		movl	$144, %edx
  69      00
  70 0049 488B45E8 		movq	-24(%rbp), %rax
  71 004d 4801D0   		addq	%rdx, %rax
  72 0050 BA000000 		movl	$_ZTVN8UnitTest15MemoryOutStreamE+64, %edx
  72      00
  73 0055 488910   		movq	%rdx, (%rax)
  74 0058 488B45E8 		movq	-24(%rbp), %rax
  75 005c 4883C070 		addq	$112, %rax
  76 0060 4889C7   		movq	%rax, %rdi
  77              	.LEHB2:
  78 0063 E8000000 		call	_ZNSt7__cxx1112basic_stringIcSt11char_traitsIcESaIcEEC1Ev
  78      00
  79              	.LEHE2:
  80              	.LBE2:
  81              		.loc 2 16 0
  82 0068 EB39     		jmp	.L9
  83              	.L7:
  84 006a 4889C3   		movq	%rax, %rbx
  85              	.LBB3:
  86 006d BA000000 		movl	$_ZTTN8UnitTest15MemoryOutStreamE+8, %edx
  86      00
  87 0072 488B45E8 		movq	-24(%rbp), %rax
  88 0076 4889D6   		movq	%rdx, %rsi
  89 0079 4889C7   		movq	%rax, %rdi
  90 007c E8000000 		call	_ZNSt7__cxx1119basic_ostringstreamIcSt11char_traitsIcESaIcEED2Ev
  90      00
  91 0081 EB03     		jmp	.L8
  92              	.L6:
  93 0083 4889C3   		movq	%rax, %rbx
  94              	.L8:
  95              		.loc 2 16 0 discriminator 28
  96 0086 488B45E8 		movq	-24(%rbp), %rax
  97 008a 48059000 		addq	$144, %rax
  97      0000
  98 0090 4889C7   		movq	%rax, %rdi
  99 0093 E8000000 		call	_ZNSt9basic_iosIcSt11char_traitsIcEED2Ev
  99      00
 100 0098 4889D8   		movq	%rbx, %rax
 101 009b 4889C7   		movq	%rax, %rdi
 102              	.LEHB3:
 103 009e E8000000 		call	_Unwind_Resume
 103      00
 104              	.LEHE3:
 105              	.L9:
 106              	.LBE3:
 107              		.loc 2 16 0
 108 00a3 4883C418 		addq	$24, %rsp
 109 00a7 5B       		popq	%rbx
 110 00a8 5D       		popq	%rbp
 111              		.cfi_def_cfa 7, 8
 112 00a9 C3       		ret
 113              		.cfi_endproc
 114              	.LFE1057:
 115              		.globl	__gxx_personality_v0
 116              		.section	.gcc_except_table._ZN8UnitTest15MemoryOutStreamC1Ev,"aG",@progbits,_ZN8UnitTest15MemoryOu
 117              	.LLSDA1057:
 118 0000 FF       		.byte	0xff
 119 0001 FF       		.byte	0xff
 120 0002 01       		.byte	0x1
 121 0003 12       		.uleb128 .LLSDACSE1057-.LLSDACSB1057
 122              	.LLSDACSB1057:
 123 0004 1A       		.uleb128 .LEHB0-.LFB1057
 124 0005 05       		.uleb128 .LEHE0-.LEHB0
 125 0006 00       		.uleb128 0
 126 0007 00       		.uleb128 0
 127 0008 33       		.uleb128 .LEHB1-.LFB1057
 128 0009 05       		.uleb128 .LEHE1-.LEHB1
 129 000a 8301     		.uleb128 .L6-.LFB1057
 130 000c 00       		.uleb128 0
 131 000d 63       		.uleb128 .LEHB2-.LFB1057
 132 000e 05       		.uleb128 .LEHE2-.LEHB2
 133 000f 6A       		.uleb128 .L7-.LFB1057
 134 0010 00       		.uleb128 0
 135 0011 9E01     		.uleb128 .LEHB3-.LFB1057
 136 0013 05       		.uleb128 .LEHE3-.LEHB3
 137 0014 00       		.uleb128 0
 138 0015 00       		.uleb128 0
 139              	.LLSDACSE1057:
 140              		.section	.text._ZN8UnitTest15MemoryOutStreamC1Ev,"axG",@progbits,_ZN8UnitTest15MemoryOutStreamC1Ev
 142              		.section	.text._ZN8UnitTest12TestReporterC2Ev,"axG",@progbits,_ZN8UnitTest12TestReporterC5Ev,comda
 143              		.align 2
 144              		.weak	_ZN8UnitTest12TestReporterC2Ev
 146              	_ZN8UnitTest12TestReporterC2Ev:
 147              	.LFB1071:
 148              		.file 3 "../TestReporter.h"
   1:../TestReporter.h **** #ifndef UNITTEST_TESTREPORTER_H
   2:../TestReporter.h **** #define UNITTEST_TESTREPORTER_H
   3:../TestReporter.h **** 
   4:../TestReporter.h **** namespace UnitTest {
   5:../TestReporter.h **** 
   6:../TestReporter.h **** class TestDetails;
   7:../TestReporter.h **** 
   8:../TestReporter.h **** class TestReporter
 149              		.loc 3 8 0 is_stmt 1
 150              		.cfi_startproc
 151 0000 55       		pushq	%rbp
 152              		.cfi_def_cfa_offset 16
 153              		.cfi_offset 6, -16
 154 0001 4889E5   		movq	%rsp, %rbp
 155              		.cfi_def_cfa_register 6
 156 0004 48897DF8 		movq	%rdi, -8(%rbp)
 157              	.LBB4:
 158              		.loc 3 8 0
 159 0008 BA000000 		movl	$_ZTVN8UnitTest12TestReporterE+16, %edx
 159      00
 160 000d 488B45F8 		movq	-8(%rbp), %rax
 161 0011 488910   		movq	%rdx, (%rax)
 162              	.LBE4:
 163 0014 90       		nop
 164 0015 5D       		popq	%rbp
 165              		.cfi_def_cfa 7, 8
 166 0016 C3       		ret
 167              		.cfi_endproc
 168              	.LFE1071:
 170              		.weak	_ZN8UnitTest12TestReporterC1Ev
 171              		.set	_ZN8UnitTest12TestReporterC1Ev,_ZN8UnitTest12TestReporterC2Ev
 172              		.section	.text._ZN17RecordingReporterC2Ev,"axG",@progbits,_ZN17RecordingReporterC5Ev,comdat
 173              		.align 2
 174              		.weak	_ZN17RecordingReporterC2Ev
 176              	_ZN17RecordingReporterC2Ev:
 177              	.LFB1073:
 178              		.file 4 "RecordingReporter.h"
   1:RecordingReporter.h **** #ifndef UNITTEST_RECORDINGREPORTER_H
   2:RecordingReporter.h **** #define UNITTEST_RECORDINGREPORTER_H
   3:RecordingReporter.h **** 
   4:RecordingReporter.h **** #include "../TestReporter.h"
   5:RecordingReporter.h **** #include <cstring>
   6:RecordingReporter.h **** 
   7:RecordingReporter.h **** #include "../TestDetails.h"
   8:RecordingReporter.h **** 
   9:RecordingReporter.h **** struct RecordingReporter : public UnitTest::TestReporter
  10:RecordingReporter.h **** {
  11:RecordingReporter.h **** private:
  12:RecordingReporter.h ****     enum { kMaxStringLength = 256 };
  13:RecordingReporter.h **** 
  14:RecordingReporter.h **** public:
  15:RecordingReporter.h ****     RecordingReporter()
 179              		.loc 4 15 0
 180              		.cfi_startproc
 181 0000 55       		pushq	%rbp
 182              		.cfi_def_cfa_offset 16
 183              		.cfi_offset 6, -16
 184 0001 4889E5   		movq	%rsp, %rbp
 185              		.cfi_def_cfa_register 6
 186 0004 4883EC10 		subq	$16, %rsp
 187 0008 48897DF8 		movq	%rdi, -8(%rbp)
 188              	.LBB5:
  16:RecordingReporter.h ****         : testRunCount(0)
  17:RecordingReporter.h ****         , testFailedCount(0)
  18:RecordingReporter.h ****         , lastFailedLine(0)
  19:RecordingReporter.h ****         , testFinishedCount(0)
  20:RecordingReporter.h ****         , lastFinishedTestTime(0)
  21:RecordingReporter.h ****         , summaryTotalTestCount(0)
  22:RecordingReporter.h ****         , summaryFailedTestCount(0)
  23:RecordingReporter.h ****         , summaryFailureCount(0)
  24:RecordingReporter.h ****         , summarySecondsElapsed(0)
 189              		.loc 4 24 0
 190 000c 488B45F8 		movq	-8(%rbp), %rax
 191 0010 4889C7   		movq	%rax, %rdi
 192 0013 E8000000 		call	_ZN8UnitTest12TestReporterC2Ev
 192      00
 193 0018 BA000000 		movl	$_ZTV17RecordingReporter+16, %edx
 193      00
 194 001d 488B45F8 		movq	-8(%rbp), %rax
 195 0021 488910   		movq	%rdx, (%rax)
 196 0024 488B45F8 		movq	-8(%rbp), %rax
 197 0028 C7400800 		movl	$0, 8(%rax)
 197      000000
 198 002f 488B45F8 		movq	-8(%rbp), %rax
 199 0033 C7800C02 		movl	$0, 524(%rax)
 199      00000000 
 199      0000
 200 003d 488B45F8 		movq	-8(%rbp), %rax
 201 0041 C7801003 		movl	$0, 784(%rax)
 201      00000000 
 201      0000
 202 004b 488B45F8 		movq	-8(%rbp), %rax
 203 004f C7801406 		movl	$0, 1556(%rax)
 203      00000000 
 203      0000
 204 0059 488B45F8 		movq	-8(%rbp), %rax
 205 005d 660FEFC0 		pxor	%xmm0, %xmm0
 206 0061 F30F1180 		movss	%xmm0, 2072(%rax)
 206      18080000 
 207 0069 488B45F8 		movq	-8(%rbp), %rax
 208 006d C7801C08 		movl	$0, 2076(%rax)
 208      00000000 
 208      0000
 209 0077 488B45F8 		movq	-8(%rbp), %rax
 210 007b C7802008 		movl	$0, 2080(%rax)
 210      00000000 
 210      0000
 211 0085 488B45F8 		movq	-8(%rbp), %rax
 212 0089 C7802408 		movl	$0, 2084(%rax)
 212      00000000 
 212      0000
 213 0093 488B45F8 		movq	-8(%rbp), %rax
 214 0097 660FEFC0 		pxor	%xmm0, %xmm0
 215 009b F30F1180 		movss	%xmm0, 2088(%rax)
 215      28080000 
  25:RecordingReporter.h ****     {
  26:RecordingReporter.h ****         lastStartedSuite[0] = '\0';
 216              		.loc 4 26 0
 217 00a3 488B45F8 		movq	-8(%rbp), %rax
 218 00a7 C6400C00 		movb	$0, 12(%rax)
  27:RecordingReporter.h ****         lastStartedTest[0] = '\0';
 219              		.loc 4 27 0
 220 00ab 488B45F8 		movq	-8(%rbp), %rax
 221 00af C6800C01 		movb	$0, 268(%rax)
 221      000000
  28:RecordingReporter.h ****         lastFailedFile[0] = '\0';
 222              		.loc 4 28 0
 223 00b6 488B45F8 		movq	-8(%rbp), %rax
 224 00ba C6801002 		movb	$0, 528(%rax)
 224      000000
  29:RecordingReporter.h ****         lastFailedSuite[0] = '\0';
 225              		.loc 4 29 0
 226 00c1 488B45F8 		movq	-8(%rbp), %rax
 227 00c5 C6801403 		movb	$0, 788(%rax)
 227      000000
  30:RecordingReporter.h ****         lastFailedTest[0] = '\0';
 228              		.loc 4 30 0
 229 00cc 488B45F8 		movq	-8(%rbp), %rax
 230 00d0 C6801404 		movb	$0, 1044(%rax)
 230      000000
  31:RecordingReporter.h ****         lastFailedMessage[0] = '\0';
 231              		.loc 4 31 0
 232 00d7 488B45F8 		movq	-8(%rbp), %rax
 233 00db C6801405 		movb	$0, 1300(%rax)
 233      000000
  32:RecordingReporter.h ****         lastFinishedSuite[0] = '\0';
 234              		.loc 4 32 0
 235 00e2 488B45F8 		movq	-8(%rbp), %rax
 236 00e6 C6801806 		movb	$0, 1560(%rax)
 236      000000
  33:RecordingReporter.h ****         lastFinishedTest[0] = '\0';
 237              		.loc 4 33 0
 238 00ed 488B45F8 		movq	-8(%rbp), %rax
 239 00f1 C6801807 		movb	$0, 1816(%rax)
 239      000000
 240              	.LBE5:
  34:RecordingReporter.h ****     }
 241              		.loc 4 34 0
 242 00f8 90       		nop
 243 00f9 C9       		leave
 244              		.cfi_def_cfa 7, 8
 245 00fa C3       		ret
 246              		.cfi_endproc
 247              	.LFE1073:
 249              		.weak	_ZN17RecordingReporterC1Ev
 250              		.set	_ZN17RecordingReporterC1Ev,_ZN17RecordingReporterC2Ev
 251              		.section	.text._ZN17RecordingReporter15ReportTestStartERKN8UnitTest11TestDetailsE,"axG",@progbits,
 252              		.align 2
 253              		.weak	_ZN17RecordingReporter15ReportTestStartERKN8UnitTest11TestDetailsE
 255              	_ZN17RecordingReporter15ReportTestStartERKN8UnitTest11TestDetailsE:
 256              	.LFB1075:
  35:RecordingReporter.h **** 
  36:RecordingReporter.h ****     virtual void ReportTestStart(UnitTest::TestDetails const& test)
 257              		.loc 4 36 0
 258              		.cfi_startproc
 259 0000 55       		pushq	%rbp
 260              		.cfi_def_cfa_offset 16
 261              		.cfi_offset 6, -16
 262 0001 4889E5   		movq	%rsp, %rbp
 263              		.cfi_def_cfa_register 6
 264 0004 4883EC10 		subq	$16, %rsp
 265 0008 48897DF8 		movq	%rdi, -8(%rbp)
 266 000c 488975F0 		movq	%rsi, -16(%rbp)
  37:RecordingReporter.h ****     {
  38:RecordingReporter.h **** 		using namespace std;
  39:RecordingReporter.h **** 
  40:RecordingReporter.h ****         ++testRunCount;
 267              		.loc 4 40 0
 268 0010 488B45F8 		movq	-8(%rbp), %rax
 269 0014 8B4008   		movl	8(%rax), %eax
 270 0017 8D5001   		leal	1(%rax), %edx
 271 001a 488B45F8 		movq	-8(%rbp), %rax
 272 001e 895008   		movl	%edx, 8(%rax)
  41:RecordingReporter.h ****         strcpy(lastStartedSuite, test.suiteName);
 273              		.loc 4 41 0
 274 0021 488B45F0 		movq	-16(%rbp), %rax
 275 0025 488B00   		movq	(%rax), %rax
 276 0028 488B55F8 		movq	-8(%rbp), %rdx
 277 002c 4883C20C 		addq	$12, %rdx
 278 0030 4889C6   		movq	%rax, %rsi
 279 0033 4889D7   		movq	%rdx, %rdi
 280 0036 E8000000 		call	strcpy
 280      00
  42:RecordingReporter.h ****         strcpy(lastStartedTest, test.testName);
 281              		.loc 4 42 0
 282 003b 488B45F0 		movq	-16(%rbp), %rax
 283 003f 488B4008 		movq	8(%rax), %rax
 284 0043 488B55F8 		movq	-8(%rbp), %rdx
 285 0047 4881C20C 		addq	$268, %rdx
 285      010000
 286 004e 4889C6   		movq	%rax, %rsi
 287 0051 4889D7   		movq	%rdx, %rdi
 288 0054 E8000000 		call	strcpy
 288      00
  43:RecordingReporter.h ****     }
 289              		.loc 4 43 0
 290 0059 90       		nop
 291 005a C9       		leave
 292              		.cfi_def_cfa 7, 8
 293 005b C3       		ret
 294              		.cfi_endproc
 295              	.LFE1075:
 297              		.section	.text._ZN17RecordingReporter13ReportFailureERKN8UnitTest11TestDetailsEPKc,"axG",@progbits
 298              		.align 2
 299              		.weak	_ZN17RecordingReporter13ReportFailureERKN8UnitTest11TestDetailsEPKc
 301              	_ZN17RecordingReporter13ReportFailureERKN8UnitTest11TestDetailsEPKc:
 302              	.LFB1076:
  44:RecordingReporter.h **** 
  45:RecordingReporter.h ****     virtual void ReportFailure(UnitTest::TestDetails const& test, char const* failure)
 303              		.loc 4 45 0
 304              		.cfi_startproc
 305 0000 55       		pushq	%rbp
 306              		.cfi_def_cfa_offset 16
 307              		.cfi_offset 6, -16
 308 0001 4889E5   		movq	%rsp, %rbp
 309              		.cfi_def_cfa_register 6
 310 0004 4883EC20 		subq	$32, %rsp
 311 0008 48897DF8 		movq	%rdi, -8(%rbp)
 312 000c 488975F0 		movq	%rsi, -16(%rbp)
 313 0010 488955E8 		movq	%rdx, -24(%rbp)
  46:RecordingReporter.h ****     {
  47:RecordingReporter.h **** 		using namespace std;
  48:RecordingReporter.h **** 
  49:RecordingReporter.h **** 		++testFailedCount;
 314              		.loc 4 49 0
 315 0014 488B45F8 		movq	-8(%rbp), %rax
 316 0018 8B800C02 		movl	524(%rax), %eax
 316      0000
 317 001e 8D5001   		leal	1(%rax), %edx
 318 0021 488B45F8 		movq	-8(%rbp), %rax
 319 0025 89900C02 		movl	%edx, 524(%rax)
 319      0000
  50:RecordingReporter.h ****         strcpy(lastFailedFile, test.filename);
 320              		.loc 4 50 0
 321 002b 488B45F0 		movq	-16(%rbp), %rax
 322 002f 488B4010 		movq	16(%rax), %rax
 323 0033 488B55F8 		movq	-8(%rbp), %rdx
 324 0037 4881C210 		addq	$528, %rdx
 324      020000
 325 003e 4889C6   		movq	%rax, %rsi
 326 0041 4889D7   		movq	%rdx, %rdi
 327 0044 E8000000 		call	strcpy
 327      00
  51:RecordingReporter.h ****         lastFailedLine = test.lineNumber;
 328              		.loc 4 51 0
 329 0049 488B45F0 		movq	-16(%rbp), %rax
 330 004d 8B5018   		movl	24(%rax), %edx
 331 0050 488B45F8 		movq	-8(%rbp), %rax
 332 0054 89901003 		movl	%edx, 784(%rax)
 332      0000
  52:RecordingReporter.h ****         strcpy(lastFailedSuite, test.suiteName);
 333              		.loc 4 52 0
 334 005a 488B45F0 		movq	-16(%rbp), %rax
 335 005e 488B00   		movq	(%rax), %rax
 336 0061 488B55F8 		movq	-8(%rbp), %rdx
 337 0065 4881C214 		addq	$788, %rdx
 337      030000
 338 006c 4889C6   		movq	%rax, %rsi
 339 006f 4889D7   		movq	%rdx, %rdi
 340 0072 E8000000 		call	strcpy
 340      00
  53:RecordingReporter.h ****         strcpy(lastFailedTest, test.testName);
 341              		.loc 4 53 0
 342 0077 488B45F0 		movq	-16(%rbp), %rax
 343 007b 488B4008 		movq	8(%rax), %rax
 344 007f 488B55F8 		movq	-8(%rbp), %rdx
 345 0083 4881C214 		addq	$1044, %rdx
 345      040000
 346 008a 4889C6   		movq	%rax, %rsi
 347 008d 4889D7   		movq	%rdx, %rdi
 348 0090 E8000000 		call	strcpy
 348      00
  54:RecordingReporter.h ****         strcpy(lastFailedMessage, failure);
 349              		.loc 4 54 0
 350 0095 488B45F8 		movq	-8(%rbp), %rax
 351 0099 488D9014 		leaq	1300(%rax), %rdx
 351      050000
 352 00a0 488B45E8 		movq	-24(%rbp), %rax
 353 00a4 4889C6   		movq	%rax, %rsi
 354 00a7 4889D7   		movq	%rdx, %rdi
 355 00aa E8000000 		call	strcpy
 355      00
  55:RecordingReporter.h ****     }
 356              		.loc 4 55 0
 357 00af 90       		nop
 358 00b0 C9       		leave
 359              		.cfi_def_cfa 7, 8
 360 00b1 C3       		ret
 361              		.cfi_endproc
 362              	.LFE1076:
 364              		.section	.text._ZN17RecordingReporter16ReportTestFinishERKN8UnitTest11TestDetailsEf,"axG",@progbit
 365              		.align 2
 366              		.weak	_ZN17RecordingReporter16ReportTestFinishERKN8UnitTest11TestDetailsEf
 368              	_ZN17RecordingReporter16ReportTestFinishERKN8UnitTest11TestDetailsEf:
 369              	.LFB1077:
  56:RecordingReporter.h **** 
  57:RecordingReporter.h ****     virtual void ReportTestFinish(UnitTest::TestDetails const& test, float testDuration)
 370              		.loc 4 57 0
 371              		.cfi_startproc
 372 0000 55       		pushq	%rbp
 373              		.cfi_def_cfa_offset 16
 374              		.cfi_offset 6, -16
 375 0001 4889E5   		movq	%rsp, %rbp
 376              		.cfi_def_cfa_register 6
 377 0004 4883EC20 		subq	$32, %rsp
 378 0008 48897DF8 		movq	%rdi, -8(%rbp)
 379 000c 488975F0 		movq	%rsi, -16(%rbp)
 380 0010 F30F1145 		movss	%xmm0, -20(%rbp)
 380      EC
  58:RecordingReporter.h ****     {
  59:RecordingReporter.h **** 		using namespace std;
  60:RecordingReporter.h **** 
  61:RecordingReporter.h **** 		++testFinishedCount;
 381              		.loc 4 61 0
 382 0015 488B45F8 		movq	-8(%rbp), %rax
 383 0019 8B801406 		movl	1556(%rax), %eax
 383      0000
 384 001f 8D5001   		leal	1(%rax), %edx
 385 0022 488B45F8 		movq	-8(%rbp), %rax
 386 0026 89901406 		movl	%edx, 1556(%rax)
 386      0000
  62:RecordingReporter.h ****         strcpy(lastFinishedSuite, test.suiteName);
 387              		.loc 4 62 0
 388 002c 488B45F0 		movq	-16(%rbp), %rax
 389 0030 488B00   		movq	(%rax), %rax
 390 0033 488B55F8 		movq	-8(%rbp), %rdx
 391 0037 4881C218 		addq	$1560, %rdx
 391      060000
 392 003e 4889C6   		movq	%rax, %rsi
 393 0041 4889D7   		movq	%rdx, %rdi
 394 0044 E8000000 		call	strcpy
 394      00
  63:RecordingReporter.h ****         strcpy(lastFinishedTest, test.testName);
 395              		.loc 4 63 0
 396 0049 488B45F0 		movq	-16(%rbp), %rax
 397 004d 488B4008 		movq	8(%rax), %rax
 398 0051 488B55F8 		movq	-8(%rbp), %rdx
 399 0055 4881C218 		addq	$1816, %rdx
 399      070000
 400 005c 4889C6   		movq	%rax, %rsi
 401 005f 4889D7   		movq	%rdx, %rdi
 402 0062 E8000000 		call	strcpy
 402      00
  64:RecordingReporter.h ****         lastFinishedTestTime = testDuration;
 403              		.loc 4 64 0
 404 0067 488B45F8 		movq	-8(%rbp), %rax
 405 006b F30F1045 		movss	-20(%rbp), %xmm0
 405      EC
 406 0070 F30F1180 		movss	%xmm0, 2072(%rax)
 406      18080000 
  65:RecordingReporter.h ****     }
 407              		.loc 4 65 0
 408 0078 90       		nop
 409 0079 C9       		leave
 410              		.cfi_def_cfa 7, 8
 411 007a C3       		ret
 412              		.cfi_endproc
 413              	.LFE1077:
 415              		.section	.text._ZN17RecordingReporter13ReportSummaryEiiif,"axG",@progbits,_ZN17RecordingReporter13
 416              		.align 2
 417              		.weak	_ZN17RecordingReporter13ReportSummaryEiiif
 419              	_ZN17RecordingReporter13ReportSummaryEiiif:
 420              	.LFB1078:
  66:RecordingReporter.h **** 
  67:RecordingReporter.h ****     virtual void ReportSummary(int totalTestCount, int failedTestCount, int failureCount, float sec
 421              		.loc 4 67 0
 422              		.cfi_startproc
 423 0000 55       		pushq	%rbp
 424              		.cfi_def_cfa_offset 16
 425              		.cfi_offset 6, -16
 426 0001 4889E5   		movq	%rsp, %rbp
 427              		.cfi_def_cfa_register 6
 428 0004 48897DF8 		movq	%rdi, -8(%rbp)
 429 0008 8975F4   		movl	%esi, -12(%rbp)
 430 000b 8955F0   		movl	%edx, -16(%rbp)
 431 000e 894DEC   		movl	%ecx, -20(%rbp)
 432 0011 F30F1145 		movss	%xmm0, -24(%rbp)
 432      E8
  68:RecordingReporter.h ****     {
  69:RecordingReporter.h ****         summaryTotalTestCount = totalTestCount;
 433              		.loc 4 69 0
 434 0016 488B45F8 		movq	-8(%rbp), %rax
 435 001a 8B55F4   		movl	-12(%rbp), %edx
 436 001d 89901C08 		movl	%edx, 2076(%rax)
 436      0000
  70:RecordingReporter.h ****         summaryFailedTestCount = failedTestCount;
 437              		.loc 4 70 0
 438 0023 488B45F8 		movq	-8(%rbp), %rax
 439 0027 8B55F0   		movl	-16(%rbp), %edx
 440 002a 89902008 		movl	%edx, 2080(%rax)
 440      0000
  71:RecordingReporter.h ****         summaryFailureCount = failureCount;
 441              		.loc 4 71 0
 442 0030 488B45F8 		movq	-8(%rbp), %rax
 443 0034 8B55EC   		movl	-20(%rbp), %edx
 444 0037 89902408 		movl	%edx, 2084(%rax)
 444      0000
  72:RecordingReporter.h ****         summarySecondsElapsed = secondsElapsed;
 445              		.loc 4 72 0
 446 003d 488B45F8 		movq	-8(%rbp), %rax
 447 0041 F30F1045 		movss	-24(%rbp), %xmm0
 447      E8
 448 0046 F30F1180 		movss	%xmm0, 2088(%rax)
 448      28080000 
  73:RecordingReporter.h ****     }
 449              		.loc 4 73 0
 450 004e 90       		nop
 451 004f 5D       		popq	%rbp
 452              		.cfi_def_cfa 7, 8
 453 0050 C3       		ret
 454              		.cfi_endproc
 455              	.LFE1078:
 457              		.section	.rodata
 458              	.LC2:
 459 000d 54657374 		.string	"TestChecks.cpp"
 459      43686563 
 459      6B732E63 
 459      707000
 460              	.LC3:
 461 001c 43686563 		.string	"CheckEqualWithUnsignedLong"
 461      6B457175 
 461      616C5769 
 461      7468556E 
 461      7369676E 
 462              		.text
 463              		.align 2
 465              	_ZN12_GLOBAL__N_130TestCheckEqualWithUnsignedLongC2Ev:
 466              	.LFB1080:
 467              		.file 5 "TestChecks.cpp"
   1:TestChecks.cpp **** #include "../UnitTest++.h"
   2:TestChecks.cpp **** #include "RecordingReporter.h"
   3:TestChecks.cpp **** 
   4:TestChecks.cpp **** using namespace UnitTest;
   5:TestChecks.cpp **** 
   6:TestChecks.cpp **** 
   7:TestChecks.cpp **** namespace {
   8:TestChecks.cpp **** 
   9:TestChecks.cpp **** 
  10:TestChecks.cpp **** TEST(CheckEqualWithUnsignedLong)
 468              		.loc 5 10 0
 469              		.cfi_startproc
 470 0000 55       		pushq	%rbp
 471              		.cfi_def_cfa_offset 16
 472              		.cfi_offset 6, -16
 473 0001 4889E5   		movq	%rsp, %rbp
 474              		.cfi_def_cfa_register 6
 475 0004 4883EC10 		subq	$16, %rsp
 476 0008 48897DF8 		movq	%rdi, -8(%rbp)
 477              	.LBB6:
 478              		.loc 5 10 0
 479 000c E8000000 		call	_ZN13UnitTestSuite12GetSuiteNameEv
 479      00
 480 0011 4889C2   		movq	%rax, %rdx
 481 0014 488B45F8 		movq	-8(%rbp), %rax
 482 0018 41B80A00 		movl	$10, %r8d
 482      0000
 483 001e B9000000 		movl	$.LC2, %ecx
 483      00
 484 0023 BE000000 		movl	$.LC3, %esi
 484      00
 485 0028 4889C7   		movq	%rax, %rdi
 486 002b E8000000 		call	_ZN8UnitTest4TestC2EPKcS2_S2_i
 486      00
 487 0030 BA000000 		movl	$_ZTVN12_GLOBAL__N_130TestCheckEqualWithUnsignedLongE+16, %edx
 487      00
 488 0035 488B45F8 		movq	-8(%rbp), %rax
 489 0039 488910   		movq	%rdx, (%rax)
 490              	.LBE6:
 491 003c 90       		nop
 492 003d C9       		leave
 493              		.cfi_def_cfa 7, 8
 494 003e C3       		ret
 495              		.cfi_endproc
 496              	.LFE1080:
 498              		.set	_ZN12_GLOBAL__N_130TestCheckEqualWithUnsignedLongC1Ev,_ZN12_GLOBAL__N_130TestCheckEqualWithUn
 499              		.local	_ZN12_GLOBAL__N_138testCheckEqualWithUnsignedLongInstanceE
 500              		.comm	_ZN12_GLOBAL__N_138testCheckEqualWithUnsignedLongInstanceE,56,32
 501              		.local	_ZN12_GLOBAL__N_131adderCheckEqualWithUnsignedLongE
 502              		.comm	_ZN12_GLOBAL__N_131adderCheckEqualWithUnsignedLongE,1,1
 503              		.section	.rodata
 504 0037 00       		.align 8
 505              	.LC4:
 506 0038 556E6861 		.string	"Unhandled exception in CHECK_EQUAL(something, something)"
 506      6E646C65 
 506      64206578 
 506      63657074 
 506      696F6E20 
 507              		.text
 508 003f 90       		.align 2
 510              	_ZNK12_GLOBAL__N_130TestCheckEqualWithUnsignedLong7RunImplEv:
 511              	.LFB1082:
  11:TestChecks.cpp **** {
 512              		.loc 5 11 0
 513              		.cfi_startproc
 514              		.cfi_personality 0x3,__gxx_personality_v0
 515              		.cfi_lsda 0x3,.LLSDA1082
 516 0040 55       		pushq	%rbp
 517              		.cfi_def_cfa_offset 16
 518              		.cfi_offset 6, -16
 519 0041 4889E5   		movq	%rsp, %rbp
 520              		.cfi_def_cfa_register 6
 521 0044 53       		pushq	%rbx
 522 0045 4883EC78 		subq	$120, %rsp
 523              		.cfi_offset 3, -24
 524 0049 48897D88 		movq	%rdi, -120(%rbp)
 525              		.loc 5 11 0
 526 004d 64488B04 		movq	%fs:40, %rax
 526      25280000 
 526      00
 527 0056 488945E8 		movq	%rax, -24(%rbp)
 528 005a 31C0     		xorl	%eax, %eax
  12:TestChecks.cpp ****     TestResults results;
 529              		.loc 5 12 0
 530 005c 488D45A0 		leaq	-96(%rbp), %rax
 531 0060 BE000000 		movl	$0, %esi
 531      00
 532 0065 4889C7   		movq	%rax, %rdi
 533              	.LEHB4:
 534 0068 E8000000 		call	_ZN8UnitTest11TestResultsC1EPNS_12TestReporterE
 534      00
 535              	.LEHE4:
  13:TestChecks.cpp ****     unsigned long something = 2;
 536              		.loc 5 13 0
 537 006d 48C74598 		movq	$2, -104(%rbp)
 537      02000000 
 538              	.LEHB5:
  14:TestChecks.cpp ****     CHECK_EQUAL(something, something);
 539              		.loc 5 14 0
 540 0075 E8000000 		call	_ZN8UnitTest11CurrentTest7DetailsEv
 540      00
 541 007a 488B08   		movq	(%rax), %rcx
 542 007d 488D45C0 		leaq	-64(%rbp), %rax
 543 0081 BA0E0000 		movl	$14, %edx
 543      00
 544 0086 4889CE   		movq	%rcx, %rsi
 545 0089 4889C7   		movq	%rax, %rdi
 546 008c E8000000 		call	_ZN8UnitTest11TestDetailsC1ERKS0_i
 546      00
 547              		.loc 5 14 0 is_stmt 0 discriminator 2
 548 0091 E8000000 		call	_ZN8UnitTest11CurrentTest7ResultsEv
 548      00
 549 0096 488B00   		movq	(%rax), %rax
 550 0099 488D4DC0 		leaq	-64(%rbp), %rcx
 551 009d 488D5598 		leaq	-104(%rbp), %rdx
 552 00a1 488D7598 		leaq	-104(%rbp), %rsi
 553 00a5 4889C7   		movq	%rax, %rdi
 554 00a8 E8000000 		call	_ZN8UnitTest10CheckEqualImmEEvRNS_11TestResultsERKT_RKT0_RKNS_11TestDetailsE
 554      00
 555              	.LEHE5:
  15:TestChecks.cpp **** }
 556              		.loc 5 15 0 is_stmt 1
 557 00ad EB5A     		jmp	.L17
 558              	.L22:
  14:TestChecks.cpp ****     CHECK_EQUAL(something, something);
 559              		.loc 5 14 0
 560 00af 4889C7   		movq	%rax, %rdi
 561 00b2 E8000000 		call	__cxa_begin_catch
 561      00
 562              	.LEHB6:
 563 00b7 E8000000 		call	_ZN8UnitTest11CurrentTest7DetailsEv
 563      00
 564 00bc 488B08   		movq	(%rax), %rcx
 565 00bf 488D45C0 		leaq	-64(%rbp), %rax
 566 00c3 BA0E0000 		movl	$14, %edx
 566      00
 567 00c8 4889CE   		movq	%rcx, %rsi
 568 00cb 4889C7   		movq	%rax, %rdi
 569 00ce E8000000 		call	_ZN8UnitTest11TestDetailsC1ERKS0_i
 569      00
  14:TestChecks.cpp ****     CHECK_EQUAL(something, something);
 570              		.loc 5 14 0 is_stmt 0 discriminator 10
 571 00d3 E8000000 		call	_ZN8UnitTest11CurrentTest7ResultsEv
 571      00
 572 00d8 488B00   		movq	(%rax), %rax
 573 00db 488D4DC0 		leaq	-64(%rbp), %rcx
 574 00df BA000000 		movl	$.LC4, %edx
 574      00
 575 00e4 4889CE   		movq	%rcx, %rsi
 576 00e7 4889C7   		movq	%rax, %rdi
 577 00ea E8000000 		call	_ZN8UnitTest11TestResults13OnTestFailureERKNS_11TestDetailsEPKc
 577      00
 578              	.LEHE6:
 579              	.LEHB7:
  14:TestChecks.cpp ****     CHECK_EQUAL(something, something);
 580              		.loc 5 14 0 discriminator 14
 581 00ef E8000000 		call	__cxa_end_catch
 581      00
 582              	.LEHE7:
 583              		.loc 5 15 0 is_stmt 1 discriminator 14
 584 00f4 EB13     		jmp	.L17
 585              	.L23:
 586 00f6 4889C3   		movq	%rax, %rbx
  14:TestChecks.cpp ****     CHECK_EQUAL(something, something);
 587              		.loc 5 14 0
 588 00f9 E8000000 		call	__cxa_end_catch
 588      00
 589 00fe 4889D8   		movq	%rbx, %rax
 590 0101 4889C7   		movq	%rax, %rdi
 591              	.LEHB8:
 592 0104 E8000000 		call	_Unwind_Resume
 592      00
 593              	.LEHE8:
 594              	.L17:
 595              		.loc 5 15 0
 596 0109 488B45E8 		movq	-24(%rbp), %rax
 597 010d 64483304 		xorq	%fs:40, %rax
 597      25280000 
 597      00
 598 0116 7405     		je	.L21
 599 0118 E8000000 		call	__stack_chk_fail
 599      00
 600              	.L21:
 601 011d 4883C478 		addq	$120, %rsp
 602 0121 5B       		popq	%rbx
 603 0122 5D       		popq	%rbp
 604              		.cfi_def_cfa 7, 8
 605 0123 C3       		ret
 606              		.cfi_endproc
 607              	.LFE1082:
 608              		.section	.gcc_except_table,"a",@progbits
 609              		.align 4
 610              	.LLSDA1082:
 611 0000 FF       		.byte	0xff
 612 0001 03       		.byte	0x3
 613 0002 21       		.uleb128 .LLSDATT1082-.LLSDATTD1082
 614              	.LLSDATTD1082:
 615 0003 01       		.byte	0x1
 616 0004 17       		.uleb128 .LLSDACSE1082-.LLSDACSB1082
 617              	.LLSDACSB1082:
 618 0005 28       		.uleb128 .LEHB4-.LFB1082
 619 0006 05       		.uleb128 .LEHE4-.LEHB4
 620 0007 00       		.uleb128 0
 621 0008 00       		.uleb128 0
 622 0009 35       		.uleb128 .LEHB5-.LFB1082
 623 000a 38       		.uleb128 .LEHE5-.LEHB5
 624 000b 6F       		.uleb128 .L22-.LFB1082
 625 000c 01       		.uleb128 0x1
 626 000d 77       		.uleb128 .LEHB6-.LFB1082
 627 000e 38       		.uleb128 .LEHE6-.LEHB6
 628 000f B601     		.uleb128 .L23-.LFB1082
 629 0011 00       		.uleb128 0
 630 0012 AF01     		.uleb128 .LEHB7-.LFB1082
 631 0014 05       		.uleb128 .LEHE7-.LEHB7
 632 0015 00       		.uleb128 0
 633 0016 00       		.uleb128 0
 634 0017 C401     		.uleb128 .LEHB8-.LFB1082
 635 0019 05       		.uleb128 .LEHE8-.LEHB8
 636 001a 00       		.uleb128 0
 637 001b 00       		.uleb128 0
 638              	.LLSDACSE1082:
 639 001c 01       		.byte	0x1
 640 001d 00       		.byte	0
 641 001e 0000     		.align 4
 642 0020 00000000 		.long	0
 643              	
 644              	.LLSDATT1082:
 645              		.text
 647              		.section	.rodata
 648 0071 00000000 		.align 8
 648      000000
 649              	.LC5:
 650 0078 43686563 		.string	"CheckEqualsWithStringsFailsOnDifferentStrings"
 650      6B457175 
 650      616C7357 
 650      69746853 
 650      7472696E 
 651              		.text
 652              		.align 2
 654              	_ZN12_GLOBAL__N_149TestCheckEqualsWithStringsFailsOnDifferentStringsC2Ev:
 655              	.LFB1084:
  16:TestChecks.cpp **** 
  17:TestChecks.cpp **** TEST(CheckEqualsWithStringsFailsOnDifferentStrings)
 656              		.loc 5 17 0
 657              		.cfi_startproc
 658 0124 55       		pushq	%rbp
 659              		.cfi_def_cfa_offset 16
 660              		.cfi_offset 6, -16
 661 0125 4889E5   		movq	%rsp, %rbp
 662              		.cfi_def_cfa_register 6
 663 0128 4883EC10 		subq	$16, %rsp
 664 012c 48897DF8 		movq	%rdi, -8(%rbp)
 665              	.LBB7:
 666              		.loc 5 17 0
 667 0130 E8000000 		call	_ZN13UnitTestSuite12GetSuiteNameEv
 667      00
 668 0135 4889C2   		movq	%rax, %rdx
 669 0138 488B45F8 		movq	-8(%rbp), %rax
 670 013c 41B81100 		movl	$17, %r8d
 670      0000
 671 0142 B9000000 		movl	$.LC2, %ecx
 671      00
 672 0147 BE000000 		movl	$.LC5, %esi
 672      00
 673 014c 4889C7   		movq	%rax, %rdi
 674 014f E8000000 		call	_ZN8UnitTest4TestC2EPKcS2_S2_i
 674      00
 675 0154 BA000000 		movl	$_ZTVN12_GLOBAL__N_149TestCheckEqualsWithStringsFailsOnDifferentStringsE+16, %edx
 675      00
 676 0159 488B45F8 		movq	-8(%rbp), %rax
 677 015d 488910   		movq	%rdx, (%rax)
 678              	.LBE7:
 679 0160 90       		nop
 680 0161 C9       		leave
 681              		.cfi_def_cfa 7, 8
 682 0162 C3       		ret
 683              		.cfi_endproc
 684              	.LFE1084:
 686              		.set	_ZN12_GLOBAL__N_149TestCheckEqualsWithStringsFailsOnDifferentStringsC1Ev,_ZN12_GLOBAL__N_149T
 687              		.local	_ZN12_GLOBAL__N_157testCheckEqualsWithStringsFailsOnDifferentStringsInstanceE
 688              		.comm	_ZN12_GLOBAL__N_157testCheckEqualsWithStringsFailsOnDifferentStringsInstanceE,56,32
 689              		.local	_ZN12_GLOBAL__N_150adderCheckEqualsWithStringsFailsOnDifferentStringsE
 690              		.comm	_ZN12_GLOBAL__N_150adderCheckEqualsWithStringsFailsOnDifferentStringsE,1,1
 691              		.section	.rodata
 692              	.LC6:
 693 00a6 00       		.string	""
 694 00a7 00       		.align 8
 695              	.LC7:
 696 00a8 556E6861 		.string	"Unhandled exception in CHECK_EQUAL(1, results.GetFailureCount())"
 696      6E646C65 
 696      64206578 
 696      63657074 
 696      696F6E20 
 697              		.text
 698 0163 90       		.align 2
 700              	_ZNK12_GLOBAL__N_149TestCheckEqualsWithStringsFailsOnDifferentStrings7RunImplEv:
 701              	.LFB1086:
  18:TestChecks.cpp **** {
 702              		.loc 5 18 0
 703              		.cfi_startproc
 704              		.cfi_personality 0x3,__gxx_personality_v0
 705              		.cfi_lsda 0x3,.LLSDA1086
 706 0164 55       		pushq	%rbp
 707              		.cfi_def_cfa_offset 16
 708              		.cfi_offset 6, -16
 709 0165 4889E5   		movq	%rsp, %rbp
 710              		.cfi_def_cfa_register 6
 711 0168 53       		pushq	%rbx
 712 0169 4881EC88 		subq	$136, %rsp
 712      000000
 713              		.cfi_offset 3, -24
 714 0170 4889BD78 		movq	%rdi, -136(%rbp)
 714      FFFFFF
 715              		.loc 5 18 0
 716 0177 64488B04 		movq	%fs:40, %rax
 716      25280000 
 716      00
 717 0180 488945E8 		movq	%rax, -24(%rbp)
 718 0184 31C0     		xorl	%eax, %eax
  19:TestChecks.cpp ****     char txt1[] = "Hello";
 719              		.loc 5 19 0
 720 0186 C745D048 		movl	$1819043144, -48(%rbp)
 720      656C6C
 721 018d 66C745D4 		movw	$111, -44(%rbp)
 721      6F00
  20:TestChecks.cpp ****     char txt2[] = "Hallo";
 722              		.loc 5 20 0
 723 0193 C745E048 		movl	$1819042120, -32(%rbp)
 723      616C6C
 724 019a 66C745E4 		movw	$111, -28(%rbp)
 724      6F00
  21:TestChecks.cpp ****     TestResults results;
 725              		.loc 5 21 0
 726 01a0 488D4590 		leaq	-112(%rbp), %rax
 727 01a4 BE000000 		movl	$0, %esi
 727      00
 728 01a9 4889C7   		movq	%rax, %rdi
 729              	.LEHB9:
 730 01ac E8000000 		call	_ZN8UnitTest11TestResultsC1EPNS_12TestReporterE
 730      00
  22:TestChecks.cpp ****     CheckEqual(results, txt1, txt2, TestDetails("", "", "", 0));
 731              		.loc 5 22 0
 732 01b1 488D45B0 		leaq	-80(%rbp), %rax
 733 01b5 41B80000 		movl	$0, %r8d
 733      0000
 734 01bb B9000000 		movl	$.LC6, %ecx
 734      00
 735 01c0 BA000000 		movl	$.LC6, %edx
 735      00
 736 01c5 BE000000 		movl	$.LC6, %esi
 736      00
 737 01ca 4889C7   		movq	%rax, %rdi
 738 01cd E8000000 		call	_ZN8UnitTest11TestDetailsC1EPKcS2_S2_i
 738      00
 739 01d2 488D4DB0 		leaq	-80(%rbp), %rcx
 740 01d6 488D55E0 		leaq	-32(%rbp), %rdx
 741 01da 488D75D0 		leaq	-48(%rbp), %rsi
 742 01de 488D4590 		leaq	-112(%rbp), %rax
 743 01e2 4889C7   		movq	%rax, %rdi
 744 01e5 E8000000 		call	_ZN8UnitTest10CheckEqualERNS_11TestResultsEPcS2_RKNS_11TestDetailsE
 744      00
 745              	.LEHE9:
 746              	.LEHB10:
  23:TestChecks.cpp ****     CHECK_EQUAL(1, results.GetFailureCount());
 747              		.loc 5 23 0
 748 01ea E8000000 		call	_ZN8UnitTest11CurrentTest7DetailsEv
 748      00
 749 01ef 488B08   		movq	(%rax), %rcx
 750 01f2 488D45B0 		leaq	-80(%rbp), %rax
 751 01f6 BA170000 		movl	$23, %edx
 751      00
 752 01fb 4889CE   		movq	%rcx, %rsi
 753 01fe 4889C7   		movq	%rax, %rdi
 754 0201 E8000000 		call	_ZN8UnitTest11TestDetailsC1ERKS0_i
 754      00
 755              		.loc 5 23 0 is_stmt 0 discriminator 2
 756 0206 488D4590 		leaq	-112(%rbp), %rax
 757 020a 4889C7   		movq	%rax, %rdi
 758 020d E8000000 		call	_ZNK8UnitTest11TestResults15GetFailureCountEv
 758      00
 759              	.LEHE10:
 760 0212 89458C   		movl	%eax, -116(%rbp)
 761 0215 C7458801 		movl	$1, -120(%rbp)
 761      000000
 762              	.LEHB11:
 763 021c E8000000 		call	_ZN8UnitTest11CurrentTest7ResultsEv
 763      00
 764              		.loc 5 23 0 discriminator 4
 765 0221 488B00   		movq	(%rax), %rax
 766 0224 488D4DB0 		leaq	-80(%rbp), %rcx
 767 0228 488D558C 		leaq	-116(%rbp), %rdx
 768 022c 488D7588 		leaq	-120(%rbp), %rsi
 769 0230 4889C7   		movq	%rax, %rdi
 770 0233 E8000000 		call	_ZN8UnitTest10CheckEqualIiiEEvRNS_11TestResultsERKT_RKT0_RKNS_11TestDetailsE
 770      00
 771              	.LEHE11:
  24:TestChecks.cpp **** }
 772              		.loc 5 24 0 is_stmt 1
 773 0238 EB5C     		jmp	.L25
 774              	.L32:
 775 023a EB00     		jmp	.L27
 776              	.L31:
 777              	.L27:
  23:TestChecks.cpp ****     CHECK_EQUAL(1, results.GetFailureCount());
 778              		.loc 5 23 0
 779 023c 4889C7   		movq	%rax, %rdi
 780 023f E8000000 		call	__cxa_begin_catch
 780      00
 781              	.LEHB12:
 782 0244 E8000000 		call	_ZN8UnitTest11CurrentTest7DetailsEv
 782      00
 783 0249 488B08   		movq	(%rax), %rcx
 784 024c 488D45B0 		leaq	-80(%rbp), %rax
 785 0250 BA170000 		movl	$23, %edx
 785      00
 786 0255 4889CE   		movq	%rcx, %rsi
 787 0258 4889C7   		movq	%rax, %rdi
 788 025b E8000000 		call	_ZN8UnitTest11TestDetailsC1ERKS0_i
 788      00
  23:TestChecks.cpp ****     CHECK_EQUAL(1, results.GetFailureCount());
 789              		.loc 5 23 0 is_stmt 0 discriminator 12
 790 0260 E8000000 		call	_ZN8UnitTest11CurrentTest7ResultsEv
 790      00
 791 0265 488B00   		movq	(%rax), %rax
 792 0268 488D4DB0 		leaq	-80(%rbp), %rcx
 793 026c BA000000 		movl	$.LC7, %edx
 793      00
 794 0271 4889CE   		movq	%rcx, %rsi
 795 0274 4889C7   		movq	%rax, %rdi
 796 0277 E8000000 		call	_ZN8UnitTest11TestResults13OnTestFailureERKNS_11TestDetailsEPKc
 796      00
 797              	.LEHE12:
 798              	.LEHB13:
  23:TestChecks.cpp ****     CHECK_EQUAL(1, results.GetFailureCount());
 799              		.loc 5 23 0 discriminator 16
 800 027c E8000000 		call	__cxa_end_catch
 800      00
 801              	.LEHE13:
 802              		.loc 5 24 0 is_stmt 1 discriminator 16
 803 0281 EB13     		jmp	.L25
 804              	.L33:
 805 0283 4889C3   		movq	%rax, %rbx
  23:TestChecks.cpp ****     CHECK_EQUAL(1, results.GetFailureCount());
 806              		.loc 5 23 0
 807 0286 E8000000 		call	__cxa_end_catch
 807      00
 808 028b 4889D8   		movq	%rbx, %rax
 809 028e 4889C7   		movq	%rax, %rdi
 810              	.LEHB14:
 811 0291 E8000000 		call	_Unwind_Resume
 811      00
 812              	.LEHE14:
 813              	.L25:
 814              		.loc 5 24 0
 815 0296 488B45E8 		movq	-24(%rbp), %rax
 816 029a 64483304 		xorq	%fs:40, %rax
 816      25280000 
 816      00
 817 02a3 7405     		je	.L30
 818 02a5 E8000000 		call	__stack_chk_fail
 818      00
 819              	.L30:
 820 02aa 4881C488 		addq	$136, %rsp
 820      000000
 821 02b1 5B       		popq	%rbx
 822 02b2 5D       		popq	%rbp
 823              		.cfi_def_cfa 7, 8
 824 02b3 C3       		ret
 825              		.cfi_endproc
 826              	.LFE1086:
 827              		.section	.gcc_except_table
 828              		.align 4
 829              	.LLSDA1086:
 830 0024 FF       		.byte	0xff
 831 0025 03       		.byte	0x3
 832 0026 2D       		.uleb128 .LLSDATT1086-.LLSDATTD1086
 833              	.LLSDATTD1086:
 834 0027 01       		.byte	0x1
 835 0028 20       		.uleb128 .LLSDACSE1086-.LLSDACSB1086
 836              	.LLSDACSB1086:
 837 0029 48       		.uleb128 .LEHB9-.LFB1086
 838 002a 3E       		.uleb128 .LEHE9-.LEHB9
 839 002b 00       		.uleb128 0
 840 002c 00       		.uleb128 0
 841 002d 8601     		.uleb128 .LEHB10-.LFB1086
 842 002f 28       		.uleb128 .LEHE10-.LEHB10
 843 0030 D801     		.uleb128 .L31-.LFB1086
 844 0032 01       		.uleb128 0x1
 845 0033 B801     		.uleb128 .LEHB11-.LFB1086
 846 0035 1C       		.uleb128 .LEHE11-.LEHB11
 847 0036 D601     		.uleb128 .L32-.LFB1086
 848 0038 03       		.uleb128 0x3
 849 0039 E001     		.uleb128 .LEHB12-.LFB1086
 850 003b 38       		.uleb128 .LEHE12-.LEHB12
 851 003c 9F02     		.uleb128 .L33-.LFB1086
 852 003e 00       		.uleb128 0
 853 003f 9802     		.uleb128 .LEHB13-.LFB1086
 854 0041 05       		.uleb128 .LEHE13-.LEHB13
 855 0042 00       		.uleb128 0
 856 0043 00       		.uleb128 0
 857 0044 AD02     		.uleb128 .LEHB14-.LFB1086
 858 0046 05       		.uleb128 .LEHE14-.LEHB14
 859 0047 00       		.uleb128 0
 860 0048 00       		.uleb128 0
 861              	.LLSDACSE1086:
 862 0049 01       		.byte	0x1
 863 004a 00       		.byte	0
 864 004b 00       		.byte	0
 865 004c 7D       		.byte	0x7d
 866 004d 000000   		.align 4
 867 0050 00000000 		.long	0
 868              	
 869              	.LLSDATT1086:
 870              		.text
 872              		.data
 875              	_ZN12_GLOBAL__N_14txt1E:
 876 0000 48656C6C 		.string	"Hello"
 876      6F00
 879              	_ZN12_GLOBAL__N_14txt2E:
 880 0006 48656C6C 		.string	"Hello"
 880      6F00
 881              		.section	.rodata
 882 00e9 00000000 		.align 8
 882      000000
 883              	.LC8:
 884 00f0 43686563 		.string	"CheckEqualsWithStringsWorksOnContentsNonConstNonConst"
 884      6B457175 
 884      616C7357 
 884      69746853 
 884      7472696E 
 885              		.text
 886              		.align 2
 888              	_ZN12_GLOBAL__N_157TestCheckEqualsWithStringsWorksOnContentsNonConstNonConstC2Ev:
 889              	.LFB1088:
  25:TestChecks.cpp **** 
  26:TestChecks.cpp **** char txt1[] = "Hello"; // non-const on purpose so no folding of duplicate data
  27:TestChecks.cpp **** char txt2[] = "Hello";
  28:TestChecks.cpp **** 
  29:TestChecks.cpp **** TEST(CheckEqualsWithStringsWorksOnContentsNonConstNonConst)
 890              		.loc 5 29 0
 891              		.cfi_startproc
 892 02b4 55       		pushq	%rbp
 893              		.cfi_def_cfa_offset 16
 894              		.cfi_offset 6, -16
 895 02b5 4889E5   		movq	%rsp, %rbp
 896              		.cfi_def_cfa_register 6
 897 02b8 4883EC10 		subq	$16, %rsp
 898 02bc 48897DF8 		movq	%rdi, -8(%rbp)
 899              	.LBB8:
 900              		.loc 5 29 0
 901 02c0 E8000000 		call	_ZN13UnitTestSuite12GetSuiteNameEv
 901      00
 902 02c5 4889C2   		movq	%rax, %rdx
 903 02c8 488B45F8 		movq	-8(%rbp), %rax
 904 02cc 41B81D00 		movl	$29, %r8d
 904      0000
 905 02d2 B9000000 		movl	$.LC2, %ecx
 905      00
 906 02d7 BE000000 		movl	$.LC8, %esi
 906      00
 907 02dc 4889C7   		movq	%rax, %rdi
 908 02df E8000000 		call	_ZN8UnitTest4TestC2EPKcS2_S2_i
 908      00
 909 02e4 BA000000 		movl	$_ZTVN12_GLOBAL__N_157TestCheckEqualsWithStringsWorksOnContentsNonConstNonConstE+16, %edx
 909      00
 910 02e9 488B45F8 		movq	-8(%rbp), %rax
 911 02ed 488910   		movq	%rdx, (%rax)
 912              	.LBE8:
 913 02f0 90       		nop
 914 02f1 C9       		leave
 915              		.cfi_def_cfa 7, 8
 916 02f2 C3       		ret
 917              		.cfi_endproc
 918              	.LFE1088:
 920              		.set	_ZN12_GLOBAL__N_157TestCheckEqualsWithStringsWorksOnContentsNonConstNonConstC1Ev,_ZN12_GLOBAL
 921              		.local	_ZN12_GLOBAL__N_165testCheckEqualsWithStringsWorksOnContentsNonConstNonConstInstanceE
 922              		.comm	_ZN12_GLOBAL__N_165testCheckEqualsWithStringsWorksOnContentsNonConstNonConstInstanceE,56,32
 923              		.local	_ZN12_GLOBAL__N_158adderCheckEqualsWithStringsWorksOnContentsNonConstNonConstE
 924              		.comm	_ZN12_GLOBAL__N_158adderCheckEqualsWithStringsWorksOnContentsNonConstNonConstE,1,1
 925              		.section	.rodata
 926 0126 0000     		.align 8
 927              	.LC9:
 928 0128 556E6861 		.string	"Unhandled exception in CHECK_EQUAL(0, results.GetFailureCount())"
 928      6E646C65 
 928      64206578 
 928      63657074 
 928      696F6E20 
 929              		.text
 930 02f3 90       		.align 2
 932              	_ZNK12_GLOBAL__N_157TestCheckEqualsWithStringsWorksOnContentsNonConstNonConst7RunImplEv:
 933              	.LFB1090:
  30:TestChecks.cpp **** {
 934              		.loc 5 30 0
 935              		.cfi_startproc
 936              		.cfi_personality 0x3,__gxx_personality_v0
 937              		.cfi_lsda 0x3,.LLSDA1090
 938 02f4 55       		pushq	%rbp
 939              		.cfi_def_cfa_offset 16
 940              		.cfi_offset 6, -16
 941 02f5 4889E5   		movq	%rsp, %rbp
 942              		.cfi_def_cfa_register 6
 943 02f8 53       		pushq	%rbx
 944 02f9 4881EC88 		subq	$136, %rsp
 944      000000
 945              		.cfi_offset 3, -24
 946 0300 4889BD78 		movq	%rdi, -136(%rbp)
 946      FFFFFF
 947              		.loc 5 30 0
 948 0307 64488B04 		movq	%fs:40, %rax
 948      25280000 
 948      00
 949 0310 488945E8 		movq	%rax, -24(%rbp)
 950 0314 31C0     		xorl	%eax, %eax
  31:TestChecks.cpp ****     char const* const p1 = txt1;
 951              		.loc 5 31 0
 952 0316 48C74590 		movq	$_ZN12_GLOBAL__N_14txt1E, -112(%rbp)
 952      00000000 
  32:TestChecks.cpp ****     char const* const p2 = txt2;
 953              		.loc 5 32 0
 954 031e 48C74598 		movq	$_ZN12_GLOBAL__N_14txt2E, -104(%rbp)
 954      00000000 
  33:TestChecks.cpp ****     TestResults results;
 955              		.loc 5 33 0
 956 0326 488D45A0 		leaq	-96(%rbp), %rax
 957 032a BE000000 		movl	$0, %esi
 957      00
 958 032f 4889C7   		movq	%rax, %rdi
 959              	.LEHB15:
 960 0332 E8000000 		call	_ZN8UnitTest11TestResultsC1EPNS_12TestReporterE
 960      00
  34:TestChecks.cpp ****     CheckEqual(results, p1, p2, TestDetails("", "", "", 0));
 961              		.loc 5 34 0
 962 0337 488D45C0 		leaq	-64(%rbp), %rax
 963 033b 41B80000 		movl	$0, %r8d
 963      0000
 964 0341 B9000000 		movl	$.LC6, %ecx
 964      00
 965 0346 BA000000 		movl	$.LC6, %edx
 965      00
 966 034b BE000000 		movl	$.LC6, %esi
 966      00
 967 0350 4889C7   		movq	%rax, %rdi
 968 0353 E8000000 		call	_ZN8UnitTest11TestDetailsC1EPKcS2_S2_i
 968      00
 969 0358 488D4DC0 		leaq	-64(%rbp), %rcx
 970 035c 488B5598 		movq	-104(%rbp), %rdx
 971 0360 488B7590 		movq	-112(%rbp), %rsi
 972 0364 488D45A0 		leaq	-96(%rbp), %rax
 973 0368 4889C7   		movq	%rax, %rdi
 974 036b E8000000 		call	_ZN8UnitTest10CheckEqualERNS_11TestResultsEPKcS3_RKNS_11TestDetailsE
 974      00
 975              	.LEHE15:
 976              	.LEHB16:
  35:TestChecks.cpp ****     CHECK_EQUAL(0, results.GetFailureCount());
 977              		.loc 5 35 0
 978 0370 E8000000 		call	_ZN8UnitTest11CurrentTest7DetailsEv
 978      00
 979 0375 488B08   		movq	(%rax), %rcx
 980 0378 488D45C0 		leaq	-64(%rbp), %rax
 981 037c BA230000 		movl	$35, %edx
 981      00
 982 0381 4889CE   		movq	%rcx, %rsi
 983 0384 4889C7   		movq	%rax, %rdi
 984 0387 E8000000 		call	_ZN8UnitTest11TestDetailsC1ERKS0_i
 984      00
 985              		.loc 5 35 0 is_stmt 0 discriminator 2
 986 038c 488D45A0 		leaq	-96(%rbp), %rax
 987 0390 4889C7   		movq	%rax, %rdi
 988 0393 E8000000 		call	_ZNK8UnitTest11TestResults15GetFailureCountEv
 988      00
 989              	.LEHE16:
 990 0398 89458C   		movl	%eax, -116(%rbp)
 991 039b C7458800 		movl	$0, -120(%rbp)
 991      000000
 992              	.LEHB17:
 993 03a2 E8000000 		call	_ZN8UnitTest11CurrentTest7ResultsEv
 993      00
 994              		.loc 5 35 0 discriminator 4
 995 03a7 488B00   		movq	(%rax), %rax
 996 03aa 488D4DC0 		leaq	-64(%rbp), %rcx
 997 03ae 488D558C 		leaq	-116(%rbp), %rdx
 998 03b2 488D7588 		leaq	-120(%rbp), %rsi
 999 03b6 4889C7   		movq	%rax, %rdi
 1000 03b9 E8000000 		call	_ZN8UnitTest10CheckEqualIiiEEvRNS_11TestResultsERKT_RKT0_RKNS_11TestDetailsE
 1000      00
 1001              	.LEHE17:
  36:TestChecks.cpp **** }
 1002              		.loc 5 36 0 is_stmt 1
 1003 03be EB5C     		jmp	.L35
 1004              	.L42:
 1005 03c0 EB00     		jmp	.L37
 1006              	.L41:
 1007              	.L37:
  35:TestChecks.cpp ****     CHECK_EQUAL(0, results.GetFailureCount());
 1008              		.loc 5 35 0
 1009 03c2 4889C7   		movq	%rax, %rdi
 1010 03c5 E8000000 		call	__cxa_begin_catch
 1010      00
 1011              	.LEHB18:
 1012 03ca E8000000 		call	_ZN8UnitTest11CurrentTest7DetailsEv
 1012      00
 1013 03cf 488B08   		movq	(%rax), %rcx
 1014 03d2 488D45C0 		leaq	-64(%rbp), %rax
 1015 03d6 BA230000 		movl	$35, %edx
 1015      00
 1016 03db 4889CE   		movq	%rcx, %rsi
 1017 03de 4889C7   		movq	%rax, %rdi
 1018 03e1 E8000000 		call	_ZN8UnitTest11TestDetailsC1ERKS0_i
 1018      00
  35:TestChecks.cpp ****     CHECK_EQUAL(0, results.GetFailureCount());
 1019              		.loc 5 35 0 is_stmt 0 discriminator 12
 1020 03e6 E8000000 		call	_ZN8UnitTest11CurrentTest7ResultsEv
 1020      00
 1021 03eb 488B00   		movq	(%rax), %rax
 1022 03ee 488D4DC0 		leaq	-64(%rbp), %rcx
 1023 03f2 BA000000 		movl	$.LC9, %edx
 1023      00
 1024 03f7 4889CE   		movq	%rcx, %rsi
 1025 03fa 4889C7   		movq	%rax, %rdi
 1026 03fd E8000000 		call	_ZN8UnitTest11TestResults13OnTestFailureERKNS_11TestDetailsEPKc
 1026      00
 1027              	.LEHE18:
 1028              	.LEHB19:
  35:TestChecks.cpp ****     CHECK_EQUAL(0, results.GetFailureCount());
 1029              		.loc 5 35 0 discriminator 16
 1030 0402 E8000000 		call	__cxa_end_catch
 1030      00
 1031              	.LEHE19:
 1032              		.loc 5 36 0 is_stmt 1 discriminator 16
 1033 0407 EB13     		jmp	.L35
 1034              	.L43:
 1035 0409 4889C3   		movq	%rax, %rbx
  35:TestChecks.cpp ****     CHECK_EQUAL(0, results.GetFailureCount());
 1036              		.loc 5 35 0
 1037 040c E8000000 		call	__cxa_end_catch
 1037      00
 1038 0411 4889D8   		movq	%rbx, %rax
 1039 0414 4889C7   		movq	%rax, %rdi
 1040              	.LEHB20:
 1041 0417 E8000000 		call	_Unwind_Resume
 1041      00
 1042              	.LEHE20:
 1043              	.L35:
 1044              		.loc 5 36 0
 1045 041c 488B45E8 		movq	-24(%rbp), %rax
 1046 0420 64483304 		xorq	%fs:40, %rax
 1046      25280000 
 1046      00
 1047 0429 7405     		je	.L40
 1048 042b E8000000 		call	__stack_chk_fail
 1048      00
 1049              	.L40:
 1050 0430 4881C488 		addq	$136, %rsp
 1050      000000
 1051 0437 5B       		popq	%rbx
 1052 0438 5D       		popq	%rbp
 1053              		.cfi_def_cfa 7, 8
 1054 0439 C3       		ret
 1055              		.cfi_endproc
 1056              	.LFE1090:
 1057              		.section	.gcc_except_table
 1058              		.align 4
 1059              	.LLSDA1090:
 1060 0054 FF       		.byte	0xff
 1061 0055 03       		.byte	0x3
 1062 0056 29       		.uleb128 .LLSDATT1090-.LLSDATTD1090
 1063              	.LLSDATTD1090:
 1064 0057 01       		.byte	0x1
 1065 0058 1F       		.uleb128 .LLSDACSE1090-.LLSDACSB1090
 1066              	.LLSDACSB1090:
 1067 0059 3E       		.uleb128 .LEHB15-.LFB1090
 1068 005a 3E       		.uleb128 .LEHE15-.LEHB15
 1069 005b 00       		.uleb128 0
 1070 005c 00       		.uleb128 0
 1071 005d 7C       		.uleb128 .LEHB16-.LFB1090
 1072 005e 28       		.uleb128 .LEHE16-.LEHB16
 1073 005f CE01     		.uleb128 .L41-.LFB1090
 1074 0061 01       		.uleb128 0x1
 1075 0062 AE01     		.uleb128 .LEHB17-.LFB1090
 1076 0064 1C       		.uleb128 .LEHE17-.LEHB17
 1077 0065 CC01     		.uleb128 .L42-.LFB1090
 1078 0067 03       		.uleb128 0x3
 1079 0068 D601     		.uleb128 .LEHB18-.LFB1090
 1080 006a 38       		.uleb128 .LEHE18-.LEHB18
 1081 006b 9502     		.uleb128 .L43-.LFB1090
 1082 006d 00       		.uleb128 0
 1083 006e 8E02     		.uleb128 .LEHB19-.LFB1090
 1084 0070 05       		.uleb128 .LEHE19-.LEHB19
 1085 0071 00       		.uleb128 0
 1086 0072 00       		.uleb128 0
 1087 0073 A302     		.uleb128 .LEHB20-.LFB1090
 1088 0075 05       		.uleb128 .LEHE20-.LEHB20
 1089 0076 00       		.uleb128 0
 1090 0077 00       		.uleb128 0
 1091              	.LLSDACSE1090:
 1092 0078 01       		.byte	0x1
 1093 0079 00       		.byte	0
 1094 007a 00       		.byte	0
 1095 007b 7D       		.byte	0x7d
 1096              		.align 4
 1097 007c 00000000 		.long	0
 1098              	
 1099              	.LLSDATT1090:
 1100              		.text
 1102              		.section	.rodata
 1103 0169 00000000 		.align 8
 1103      000000
 1104              	.LC10:
 1105 0170 43686563 		.string	"CheckEqualsWithStringsWorksOnContentsConstConst"
 1105      6B457175 
 1105      616C7357 
 1105      69746853 
 1105      7472696E 
 1106              		.text
 1107              		.align 2
 1109              	_ZN12_GLOBAL__N_151TestCheckEqualsWithStringsWorksOnContentsConstConstC2Ev:
 1110              	.LFB1092:
  37:TestChecks.cpp **** 
  38:TestChecks.cpp **** TEST(CheckEqualsWithStringsWorksOnContentsConstConst)
 1111              		.loc 5 38 0
 1112              		.cfi_startproc
 1113 043a 55       		pushq	%rbp
 1114              		.cfi_def_cfa_offset 16
 1115              		.cfi_offset 6, -16
 1116 043b 4889E5   		movq	%rsp, %rbp
 1117              		.cfi_def_cfa_register 6
 1118 043e 4883EC10 		subq	$16, %rsp
 1119 0442 48897DF8 		movq	%rdi, -8(%rbp)
 1120              	.LBB9:
 1121              		.loc 5 38 0
 1122 0446 E8000000 		call	_ZN13UnitTestSuite12GetSuiteNameEv
 1122      00
 1123 044b 4889C2   		movq	%rax, %rdx
 1124 044e 488B45F8 		movq	-8(%rbp), %rax
 1125 0452 41B82600 		movl	$38, %r8d
 1125      0000
 1126 0458 B9000000 		movl	$.LC2, %ecx
 1126      00
 1127 045d BE000000 		movl	$.LC10, %esi
 1127      00
 1128 0462 4889C7   		movq	%rax, %rdi
 1129 0465 E8000000 		call	_ZN8UnitTest4TestC2EPKcS2_S2_i
 1129      00
 1130 046a BA000000 		movl	$_ZTVN12_GLOBAL__N_151TestCheckEqualsWithStringsWorksOnContentsConstConstE+16, %edx
 1130      00
 1131 046f 488B45F8 		movq	-8(%rbp), %rax
 1132 0473 488910   		movq	%rdx, (%rax)
 1133              	.LBE9:
 1134 0476 90       		nop
 1135 0477 C9       		leave
 1136              		.cfi_def_cfa 7, 8
 1137 0478 C3       		ret
 1138              		.cfi_endproc
 1139              	.LFE1092:
 1141              		.set	_ZN12_GLOBAL__N_151TestCheckEqualsWithStringsWorksOnContentsConstConstC1Ev,_ZN12_GLOBAL__N_15
 1142              		.local	_ZN12_GLOBAL__N_159testCheckEqualsWithStringsWorksOnContentsConstConstInstanceE
 1143              		.comm	_ZN12_GLOBAL__N_159testCheckEqualsWithStringsWorksOnContentsConstConstInstanceE,56,32
 1144              		.local	_ZN12_GLOBAL__N_152adderCheckEqualsWithStringsWorksOnContentsConstConstE
 1145              		.comm	_ZN12_GLOBAL__N_152adderCheckEqualsWithStringsWorksOnContentsConstConstE,1,1
 1146 0479 90       		.align 2
 1148              	_ZNK12_GLOBAL__N_151TestCheckEqualsWithStringsWorksOnContentsConstConst7RunImplEv:
 1149              	.LFB1094:
  39:TestChecks.cpp **** {
 1150              		.loc 5 39 0
 1151              		.cfi_startproc
 1152              		.cfi_personality 0x3,__gxx_personality_v0
 1153              		.cfi_lsda 0x3,.LLSDA1094
 1154 047a 55       		pushq	%rbp
 1155              		.cfi_def_cfa_offset 16
 1156              		.cfi_offset 6, -16
 1157 047b 4889E5   		movq	%rsp, %rbp
 1158              		.cfi_def_cfa_register 6
 1159 047e 53       		pushq	%rbx
 1160 047f 4881EC88 		subq	$136, %rsp
 1160      000000
 1161              		.cfi_offset 3, -24
 1162 0486 4889BD78 		movq	%rdi, -136(%rbp)
 1162      FFFFFF
 1163              		.loc 5 39 0
 1164 048d 64488B04 		movq	%fs:40, %rax
 1164      25280000 
 1164      00
 1165 0496 488945E8 		movq	%rax, -24(%rbp)
 1166 049a 31C0     		xorl	%eax, %eax
  40:TestChecks.cpp ****     char* const p1 = txt1;
 1167              		.loc 5 40 0
 1168 049c 48C74590 		movq	$_ZN12_GLOBAL__N_14txt1E, -112(%rbp)
 1168      00000000 
  41:TestChecks.cpp ****     char* const p2 = txt2;
 1169              		.loc 5 41 0
 1170 04a4 48C74598 		movq	$_ZN12_GLOBAL__N_14txt2E, -104(%rbp)
 1170      00000000 
  42:TestChecks.cpp ****     TestResults results;
 1171              		.loc 5 42 0
 1172 04ac 488D45A0 		leaq	-96(%rbp), %rax
 1173 04b0 BE000000 		movl	$0, %esi
 1173      00
 1174 04b5 4889C7   		movq	%rax, %rdi
 1175              	.LEHB21:
 1176 04b8 E8000000 		call	_ZN8UnitTest11TestResultsC1EPNS_12TestReporterE
 1176      00
  43:TestChecks.cpp ****     CheckEqual(results, p1, p2, TestDetails("", "", "", 0));
 1177              		.loc 5 43 0
 1178 04bd 488D45C0 		leaq	-64(%rbp), %rax
 1179 04c1 41B80000 		movl	$0, %r8d
 1179      0000
 1180 04c7 B9000000 		movl	$.LC6, %ecx
 1180      00
 1181 04cc BA000000 		movl	$.LC6, %edx
 1181      00
 1182 04d1 BE000000 		movl	$.LC6, %esi
 1182      00
 1183 04d6 4889C7   		movq	%rax, %rdi
 1184 04d9 E8000000 		call	_ZN8UnitTest11TestDetailsC1EPKcS2_S2_i
 1184      00
 1185 04de 488D4DC0 		leaq	-64(%rbp), %rcx
 1186 04e2 488B5598 		movq	-104(%rbp), %rdx
 1187 04e6 488B7590 		movq	-112(%rbp), %rsi
 1188 04ea 488D45A0 		leaq	-96(%rbp), %rax
 1189 04ee 4889C7   		movq	%rax, %rdi
 1190 04f1 E8000000 		call	_ZN8UnitTest10CheckEqualERNS_11TestResultsEPcS2_RKNS_11TestDetailsE
 1190      00
 1191              	.LEHE21:
 1192              	.LEHB22:
  44:TestChecks.cpp ****     CHECK_EQUAL(0, results.GetFailureCount());
 1193              		.loc 5 44 0
 1194 04f6 E8000000 		call	_ZN8UnitTest11CurrentTest7DetailsEv
 1194      00
 1195 04fb 488B08   		movq	(%rax), %rcx
 1196 04fe 488D45C0 		leaq	-64(%rbp), %rax
 1197 0502 BA2C0000 		movl	$44, %edx
 1197      00
 1198 0507 4889CE   		movq	%rcx, %rsi
 1199 050a 4889C7   		movq	%rax, %rdi
 1200 050d E8000000 		call	_ZN8UnitTest11TestDetailsC1ERKS0_i
 1200      00
 1201              		.loc 5 44 0 is_stmt 0 discriminator 2
 1202 0512 488D45A0 		leaq	-96(%rbp), %rax
 1203 0516 4889C7   		movq	%rax, %rdi
 1204 0519 E8000000 		call	_ZNK8UnitTest11TestResults15GetFailureCountEv
 1204      00
 1205              	.LEHE22:
 1206 051e 89458C   		movl	%eax, -116(%rbp)
 1207 0521 C7458800 		movl	$0, -120(%rbp)
 1207      000000
 1208              	.LEHB23:
 1209 0528 E8000000 		call	_ZN8UnitTest11CurrentTest7ResultsEv
 1209      00
 1210              		.loc 5 44 0 discriminator 4
 1211 052d 488B00   		movq	(%rax), %rax
 1212 0530 488D4DC0 		leaq	-64(%rbp), %rcx
 1213 0534 488D558C 		leaq	-116(%rbp), %rdx
 1214 0538 488D7588 		leaq	-120(%rbp), %rsi
 1215 053c 4889C7   		movq	%rax, %rdi
 1216 053f E8000000 		call	_ZN8UnitTest10CheckEqualIiiEEvRNS_11TestResultsERKT_RKT0_RKNS_11TestDetailsE
 1216      00
 1217              	.LEHE23:
  45:TestChecks.cpp **** }
 1218              		.loc 5 45 0 is_stmt 1
 1219 0544 EB5C     		jmp	.L45
 1220              	.L52:
 1221 0546 EB00     		jmp	.L47
 1222              	.L51:
 1223              	.L47:
  44:TestChecks.cpp ****     CHECK_EQUAL(0, results.GetFailureCount());
 1224              		.loc 5 44 0
 1225 0548 4889C7   		movq	%rax, %rdi
 1226 054b E8000000 		call	__cxa_begin_catch
 1226      00
 1227              	.LEHB24:
 1228 0550 E8000000 		call	_ZN8UnitTest11CurrentTest7DetailsEv
 1228      00
 1229 0555 488B08   		movq	(%rax), %rcx
 1230 0558 488D45C0 		leaq	-64(%rbp), %rax
 1231 055c BA2C0000 		movl	$44, %edx
 1231      00
 1232 0561 4889CE   		movq	%rcx, %rsi
 1233 0564 4889C7   		movq	%rax, %rdi
 1234 0567 E8000000 		call	_ZN8UnitTest11TestDetailsC1ERKS0_i
 1234      00
  44:TestChecks.cpp ****     CHECK_EQUAL(0, results.GetFailureCount());
 1235              		.loc 5 44 0 is_stmt 0 discriminator 12
 1236 056c E8000000 		call	_ZN8UnitTest11CurrentTest7ResultsEv
 1236      00
 1237 0571 488B00   		movq	(%rax), %rax
 1238 0574 488D4DC0 		leaq	-64(%rbp), %rcx
 1239 0578 BA000000 		movl	$.LC9, %edx
 1239      00
 1240 057d 4889CE   		movq	%rcx, %rsi
 1241 0580 4889C7   		movq	%rax, %rdi
 1242 0583 E8000000 		call	_ZN8UnitTest11TestResults13OnTestFailureERKNS_11TestDetailsEPKc
 1242      00
 1243              	.LEHE24:
 1244              	.LEHB25:
  44:TestChecks.cpp ****     CHECK_EQUAL(0, results.GetFailureCount());
 1245              		.loc 5 44 0 discriminator 16
 1246 0588 E8000000 		call	__cxa_end_catch
 1246      00
 1247              	.LEHE25:
 1248              		.loc 5 45 0 is_stmt 1 discriminator 16
 1249 058d EB13     		jmp	.L45
 1250              	.L53:
 1251 058f 4889C3   		movq	%rax, %rbx
  44:TestChecks.cpp ****     CHECK_EQUAL(0, results.GetFailureCount());
 1252              		.loc 5 44 0
 1253 0592 E8000000 		call	__cxa_end_catch
 1253      00
 1254 0597 4889D8   		movq	%rbx, %rax
 1255 059a 4889C7   		movq	%rax, %rdi
 1256              	.LEHB26:
 1257 059d E8000000 		call	_Unwind_Resume
 1257      00
 1258              	.LEHE26:
 1259              	.L45:
 1260              		.loc 5 45 0
 1261 05a2 488B45E8 		movq	-24(%rbp), %rax
 1262 05a6 64483304 		xorq	%fs:40, %rax
 1262      25280000 
 1262      00
 1263 05af 7405     		je	.L50
 1264 05b1 E8000000 		call	__stack_chk_fail
 1264      00
 1265              	.L50:
 1266 05b6 4881C488 		addq	$136, %rsp
 1266      000000
 1267 05bd 5B       		popq	%rbx
 1268 05be 5D       		popq	%rbp
 1269              		.cfi_def_cfa 7, 8
 1270 05bf C3       		ret
 1271              		.cfi_endproc
 1272              	.LFE1094:
 1273              		.section	.gcc_except_table
 1274              		.align 4
 1275              	.LLSDA1094:
 1276 0080 FF       		.byte	0xff
 1277 0081 03       		.byte	0x3
 1278 0082 29       		.uleb128 .LLSDATT1094-.LLSDATTD1094
 1279              	.LLSDATTD1094:
 1280 0083 01       		.byte	0x1
 1281 0084 1F       		.uleb128 .LLSDACSE1094-.LLSDACSB1094
 1282              	.LLSDACSB1094:
 1283 0085 3E       		.uleb128 .LEHB21-.LFB1094
 1284 0086 3E       		.uleb128 .LEHE21-.LEHB21
 1285 0087 00       		.uleb128 0
 1286 0088 00       		.uleb128 0
 1287 0089 7C       		.uleb128 .LEHB22-.LFB1094
 1288 008a 28       		.uleb128 .LEHE22-.LEHB22
 1289 008b CE01     		.uleb128 .L51-.LFB1094
 1290 008d 01       		.uleb128 0x1
 1291 008e AE01     		.uleb128 .LEHB23-.LFB1094
 1292 0090 1C       		.uleb128 .LEHE23-.LEHB23
 1293 0091 CC01     		.uleb128 .L52-.LFB1094
 1294 0093 03       		.uleb128 0x3
 1295 0094 D601     		.uleb128 .LEHB24-.LFB1094
 1296 0096 38       		.uleb128 .LEHE24-.LEHB24
 1297 0097 9502     		.uleb128 .L53-.LFB1094
 1298 0099 00       		.uleb128 0
 1299 009a 8E02     		.uleb128 .LEHB25-.LFB1094
 1300 009c 05       		.uleb128 .LEHE25-.LEHB25
 1301 009d 00       		.uleb128 0
 1302 009e 00       		.uleb128 0
 1303 009f A302     		.uleb128 .LEHB26-.LFB1094
 1304 00a1 05       		.uleb128 .LEHE26-.LEHB26
 1305 00a2 00       		.uleb128 0
 1306 00a3 00       		.uleb128 0
 1307              	.LLSDACSE1094:
 1308 00a4 01       		.byte	0x1
 1309 00a5 00       		.byte	0
 1310 00a6 00       		.byte	0
 1311 00a7 7D       		.byte	0x7d
 1312              		.align 4
 1313 00a8 00000000 		.long	0
 1314              	
 1315              	.LLSDATT1094:
 1316              		.text
 1318              		.section	.rodata
 1319              		.align 8
 1320              	.LC11:
 1321 01a0 43686563 		.string	"CheckEqualsWithStringsWorksOnContentsNonConstConst"
 1321      6B457175 
 1321      616C7357 
 1321      69746853 
 1321      7472696E 
 1322              		.text
 1323              		.align 2
 1325              	_ZN12_GLOBAL__N_154TestCheckEqualsWithStringsWorksOnContentsNonConstConstC2Ev:
 1326              	.LFB1096:
  46:TestChecks.cpp **** 
  47:TestChecks.cpp **** TEST(CheckEqualsWithStringsWorksOnContentsNonConstConst)
 1327              		.loc 5 47 0
 1328              		.cfi_startproc
 1329 05c0 55       		pushq	%rbp
 1330              		.cfi_def_cfa_offset 16
 1331              		.cfi_offset 6, -16
 1332 05c1 4889E5   		movq	%rsp, %rbp
 1333              		.cfi_def_cfa_register 6
 1334 05c4 4883EC10 		subq	$16, %rsp
 1335 05c8 48897DF8 		movq	%rdi, -8(%rbp)
 1336              	.LBB10:
 1337              		.loc 5 47 0
 1338 05cc E8000000 		call	_ZN13UnitTestSuite12GetSuiteNameEv
 1338      00
 1339 05d1 4889C2   		movq	%rax, %rdx
 1340 05d4 488B45F8 		movq	-8(%rbp), %rax
 1341 05d8 41B82F00 		movl	$47, %r8d
 1341      0000
 1342 05de B9000000 		movl	$.LC2, %ecx
 1342      00
 1343 05e3 BE000000 		movl	$.LC11, %esi
 1343      00
 1344 05e8 4889C7   		movq	%rax, %rdi
 1345 05eb E8000000 		call	_ZN8UnitTest4TestC2EPKcS2_S2_i
 1345      00
 1346 05f0 BA000000 		movl	$_ZTVN12_GLOBAL__N_154TestCheckEqualsWithStringsWorksOnContentsNonConstConstE+16, %edx
 1346      00
 1347 05f5 488B45F8 		movq	-8(%rbp), %rax
 1348 05f9 488910   		movq	%rdx, (%rax)
 1349              	.LBE10:
 1350 05fc 90       		nop
 1351 05fd C9       		leave
 1352              		.cfi_def_cfa 7, 8
 1353 05fe C3       		ret
 1354              		.cfi_endproc
 1355              	.LFE1096:
 1357              		.set	_ZN12_GLOBAL__N_154TestCheckEqualsWithStringsWorksOnContentsNonConstConstC1Ev,_ZN12_GLOBAL__N
 1358              		.local	_ZN12_GLOBAL__N_162testCheckEqualsWithStringsWorksOnContentsNonConstConstInstanceE
 1359              		.comm	_ZN12_GLOBAL__N_162testCheckEqualsWithStringsWorksOnContentsNonConstConstInstanceE,56,32
 1360              		.local	_ZN12_GLOBAL__N_155adderCheckEqualsWithStringsWorksOnContentsNonConstConstE
 1361              		.comm	_ZN12_GLOBAL__N_155adderCheckEqualsWithStringsWorksOnContentsNonConstConstE,1,1
 1362 05ff 90       		.align 2
 1364              	_ZNK12_GLOBAL__N_154TestCheckEqualsWithStringsWorksOnContentsNonConstConst7RunImplEv:
 1365              	.LFB1098:
  48:TestChecks.cpp **** {
 1366              		.loc 5 48 0
 1367              		.cfi_startproc
 1368              		.cfi_personality 0x3,__gxx_personality_v0
 1369              		.cfi_lsda 0x3,.LLSDA1098
 1370 0600 55       		pushq	%rbp
 1371              		.cfi_def_cfa_offset 16
 1372              		.cfi_offset 6, -16
 1373 0601 4889E5   		movq	%rsp, %rbp
 1374              		.cfi_def_cfa_register 6
 1375 0604 53       		pushq	%rbx
 1376 0605 4881EC88 		subq	$136, %rsp
 1376      000000
 1377              		.cfi_offset 3, -24
 1378 060c 4889BD78 		movq	%rdi, -136(%rbp)
 1378      FFFFFF
 1379              		.loc 5 48 0
 1380 0613 64488B04 		movq	%fs:40, %rax
 1380      25280000 
 1380      00
 1381 061c 488945E8 		movq	%rax, -24(%rbp)
 1382 0620 31C0     		xorl	%eax, %eax
  49:TestChecks.cpp ****     char* const p1 = txt1;
 1383              		.loc 5 49 0
 1384 0622 48C74590 		movq	$_ZN12_GLOBAL__N_14txt1E, -112(%rbp)
 1384      00000000 
  50:TestChecks.cpp ****     char const* const p2 = txt2;
 1385              		.loc 5 50 0
 1386 062a 48C74598 		movq	$_ZN12_GLOBAL__N_14txt2E, -104(%rbp)
 1386      00000000 
  51:TestChecks.cpp ****     TestResults results;
 1387              		.loc 5 51 0
 1388 0632 488D45A0 		leaq	-96(%rbp), %rax
 1389 0636 BE000000 		movl	$0, %esi
 1389      00
 1390 063b 4889C7   		movq	%rax, %rdi
 1391              	.LEHB27:
 1392 063e E8000000 		call	_ZN8UnitTest11TestResultsC1EPNS_12TestReporterE
 1392      00
  52:TestChecks.cpp ****     CheckEqual(results, p1, p2, TestDetails("", "", "", 0));
 1393              		.loc 5 52 0
 1394 0643 488D45C0 		leaq	-64(%rbp), %rax
 1395 0647 41B80000 		movl	$0, %r8d
 1395      0000
 1396 064d B9000000 		movl	$.LC6, %ecx
 1396      00
 1397 0652 BA000000 		movl	$.LC6, %edx
 1397      00
 1398 0657 BE000000 		movl	$.LC6, %esi
 1398      00
 1399 065c 4889C7   		movq	%rax, %rdi
 1400 065f E8000000 		call	_ZN8UnitTest11TestDetailsC1EPKcS2_S2_i
 1400      00
 1401 0664 488D4DC0 		leaq	-64(%rbp), %rcx
 1402 0668 488B5598 		movq	-104(%rbp), %rdx
 1403 066c 488B7590 		movq	-112(%rbp), %rsi
 1404 0670 488D45A0 		leaq	-96(%rbp), %rax
 1405 0674 4889C7   		movq	%rax, %rdi
 1406 0677 E8000000 		call	_ZN8UnitTest10CheckEqualERNS_11TestResultsEPcPKcRKNS_11TestDetailsE
 1406      00
 1407              	.LEHE27:
 1408              	.LEHB28:
  53:TestChecks.cpp ****     CHECK_EQUAL(0, results.GetFailureCount());
 1409              		.loc 5 53 0
 1410 067c E8000000 		call	_ZN8UnitTest11CurrentTest7DetailsEv
 1410      00
 1411 0681 488B08   		movq	(%rax), %rcx
 1412 0684 488D45C0 		leaq	-64(%rbp), %rax
 1413 0688 BA350000 		movl	$53, %edx
 1413      00
 1414 068d 4889CE   		movq	%rcx, %rsi
 1415 0690 4889C7   		movq	%rax, %rdi
 1416 0693 E8000000 		call	_ZN8UnitTest11TestDetailsC1ERKS0_i
 1416      00
 1417              		.loc 5 53 0 is_stmt 0 discriminator 2
 1418 0698 488D45A0 		leaq	-96(%rbp), %rax
 1419 069c 4889C7   		movq	%rax, %rdi
 1420 069f E8000000 		call	_ZNK8UnitTest11TestResults15GetFailureCountEv
 1420      00
 1421              	.LEHE28:
 1422 06a4 89458C   		movl	%eax, -116(%rbp)
 1423 06a7 C7458800 		movl	$0, -120(%rbp)
 1423      000000
 1424              	.LEHB29:
 1425 06ae E8000000 		call	_ZN8UnitTest11CurrentTest7ResultsEv
 1425      00
 1426              		.loc 5 53 0 discriminator 4
 1427 06b3 488B00   		movq	(%rax), %rax
 1428 06b6 488D4DC0 		leaq	-64(%rbp), %rcx
 1429 06ba 488D558C 		leaq	-116(%rbp), %rdx
 1430 06be 488D7588 		leaq	-120(%rbp), %rsi
 1431 06c2 4889C7   		movq	%rax, %rdi
 1432 06c5 E8000000 		call	_ZN8UnitTest10CheckEqualIiiEEvRNS_11TestResultsERKT_RKT0_RKNS_11TestDetailsE
 1432      00
 1433              	.LEHE29:
  54:TestChecks.cpp **** }
 1434              		.loc 5 54 0 is_stmt 1
 1435 06ca EB5C     		jmp	.L55
 1436              	.L62:
 1437 06cc EB00     		jmp	.L57
 1438              	.L61:
 1439              	.L57:
  53:TestChecks.cpp ****     CHECK_EQUAL(0, results.GetFailureCount());
 1440              		.loc 5 53 0
 1441 06ce 4889C7   		movq	%rax, %rdi
 1442 06d1 E8000000 		call	__cxa_begin_catch
 1442      00
 1443              	.LEHB30:
 1444 06d6 E8000000 		call	_ZN8UnitTest11CurrentTest7DetailsEv
 1444      00
 1445 06db 488B08   		movq	(%rax), %rcx
 1446 06de 488D45C0 		leaq	-64(%rbp), %rax
 1447 06e2 BA350000 		movl	$53, %edx
 1447      00
 1448 06e7 4889CE   		movq	%rcx, %rsi
 1449 06ea 4889C7   		movq	%rax, %rdi
 1450 06ed E8000000 		call	_ZN8UnitTest11TestDetailsC1ERKS0_i
 1450      00
  53:TestChecks.cpp ****     CHECK_EQUAL(0, results.GetFailureCount());
 1451              		.loc 5 53 0 is_stmt 0 discriminator 12
 1452 06f2 E8000000 		call	_ZN8UnitTest11CurrentTest7ResultsEv
 1452      00
 1453 06f7 488B00   		movq	(%rax), %rax
 1454 06fa 488D4DC0 		leaq	-64(%rbp), %rcx
 1455 06fe BA000000 		movl	$.LC9, %edx
 1455      00
 1456 0703 4889CE   		movq	%rcx, %rsi
 1457 0706 4889C7   		movq	%rax, %rdi
 1458 0709 E8000000 		call	_ZN8UnitTest11TestResults13OnTestFailureERKNS_11TestDetailsEPKc
 1458      00
 1459              	.LEHE30:
 1460              	.LEHB31:
  53:TestChecks.cpp ****     CHECK_EQUAL(0, results.GetFailureCount());
 1461              		.loc 5 53 0 discriminator 16
 1462 070e E8000000 		call	__cxa_end_catch
 1462      00
 1463              	.LEHE31:
 1464              		.loc 5 54 0 is_stmt 1 discriminator 16
 1465 0713 EB13     		jmp	.L55
 1466              	.L63:
 1467 0715 4889C3   		movq	%rax, %rbx
  53:TestChecks.cpp ****     CHECK_EQUAL(0, results.GetFailureCount());
 1468              		.loc 5 53 0
 1469 0718 E8000000 		call	__cxa_end_catch
 1469      00
 1470 071d 4889D8   		movq	%rbx, %rax
 1471 0720 4889C7   		movq	%rax, %rdi
 1472              	.LEHB32:
 1473 0723 E8000000 		call	_Unwind_Resume
 1473      00
 1474              	.LEHE32:
 1475              	.L55:
 1476              		.loc 5 54 0
 1477 0728 488B45E8 		movq	-24(%rbp), %rax
 1478 072c 64483304 		xorq	%fs:40, %rax
 1478      25280000 
 1478      00
 1479 0735 7405     		je	.L60
 1480 0737 E8000000 		call	__stack_chk_fail
 1480      00
 1481              	.L60:
 1482 073c 4881C488 		addq	$136, %rsp
 1482      000000
 1483 0743 5B       		popq	%rbx
 1484 0744 5D       		popq	%rbp
 1485              		.cfi_def_cfa 7, 8
 1486 0745 C3       		ret
 1487              		.cfi_endproc
 1488              	.LFE1098:
 1489              		.section	.gcc_except_table
 1490              		.align 4
 1491              	.LLSDA1098:
 1492 00ac FF       		.byte	0xff
 1493 00ad 03       		.byte	0x3
 1494 00ae 29       		.uleb128 .LLSDATT1098-.LLSDATTD1098
 1495              	.LLSDATTD1098:
 1496 00af 01       		.byte	0x1
 1497 00b0 1F       		.uleb128 .LLSDACSE1098-.LLSDACSB1098
 1498              	.LLSDACSB1098:
 1499 00b1 3E       		.uleb128 .LEHB27-.LFB1098
 1500 00b2 3E       		.uleb128 .LEHE27-.LEHB27
 1501 00b3 00       		.uleb128 0
 1502 00b4 00       		.uleb128 0
 1503 00b5 7C       		.uleb128 .LEHB28-.LFB1098
 1504 00b6 28       		.uleb128 .LEHE28-.LEHB28
 1505 00b7 CE01     		.uleb128 .L61-.LFB1098
 1506 00b9 01       		.uleb128 0x1
 1507 00ba AE01     		.uleb128 .LEHB29-.LFB1098
 1508 00bc 1C       		.uleb128 .LEHE29-.LEHB29
 1509 00bd CC01     		.uleb128 .L62-.LFB1098
 1510 00bf 03       		.uleb128 0x3
 1511 00c0 D601     		.uleb128 .LEHB30-.LFB1098
 1512 00c2 38       		.uleb128 .LEHE30-.LEHB30
 1513 00c3 9502     		.uleb128 .L63-.LFB1098
 1514 00c5 00       		.uleb128 0
 1515 00c6 8E02     		.uleb128 .LEHB31-.LFB1098
 1516 00c8 05       		.uleb128 .LEHE31-.LEHB31
 1517 00c9 00       		.uleb128 0
 1518 00ca 00       		.uleb128 0
 1519 00cb A302     		.uleb128 .LEHB32-.LFB1098
 1520 00cd 05       		.uleb128 .LEHE32-.LEHB32
 1521 00ce 00       		.uleb128 0
 1522 00cf 00       		.uleb128 0
 1523              	.LLSDACSE1098:
 1524 00d0 01       		.byte	0x1
 1525 00d1 00       		.byte	0
 1526 00d2 00       		.byte	0
 1527 00d3 7D       		.byte	0x7d
 1528              		.align 4
 1529 00d4 00000000 		.long	0
 1530              	
 1531              	.LLSDATT1098:
 1532              		.text
 1534              		.section	.rodata
 1535 01d3 00000000 		.align 8
 1535      00
 1536              	.LC12:
 1537 01d8 43686563 		.string	"CheckEqualsWithStringsWorksOnContentsConstNonConst"
 1537      6B457175 
 1537      616C7357 
 1537      69746853 
 1537      7472696E 
 1538              		.text
 1539              		.align 2
 1541              	_ZN12_GLOBAL__N_154TestCheckEqualsWithStringsWorksOnContentsConstNonConstC2Ev:
 1542              	.LFB1100:
  55:TestChecks.cpp **** 
  56:TestChecks.cpp **** TEST(CheckEqualsWithStringsWorksOnContentsConstNonConst)
 1543              		.loc 5 56 0
 1544              		.cfi_startproc
 1545 0746 55       		pushq	%rbp
 1546              		.cfi_def_cfa_offset 16
 1547              		.cfi_offset 6, -16
 1548 0747 4889E5   		movq	%rsp, %rbp
 1549              		.cfi_def_cfa_register 6
 1550 074a 4883EC10 		subq	$16, %rsp
 1551 074e 48897DF8 		movq	%rdi, -8(%rbp)
 1552              	.LBB11:
 1553              		.loc 5 56 0
 1554 0752 E8000000 		call	_ZN13UnitTestSuite12GetSuiteNameEv
 1554      00
 1555 0757 4889C2   		movq	%rax, %rdx
 1556 075a 488B45F8 		movq	-8(%rbp), %rax
 1557 075e 41B83800 		movl	$56, %r8d
 1557      0000
 1558 0764 B9000000 		movl	$.LC2, %ecx
 1558      00
 1559 0769 BE000000 		movl	$.LC12, %esi
 1559      00
 1560 076e 4889C7   		movq	%rax, %rdi
 1561 0771 E8000000 		call	_ZN8UnitTest4TestC2EPKcS2_S2_i
 1561      00
 1562 0776 BA000000 		movl	$_ZTVN12_GLOBAL__N_154TestCheckEqualsWithStringsWorksOnContentsConstNonConstE+16, %edx
 1562      00
 1563 077b 488B45F8 		movq	-8(%rbp), %rax
 1564 077f 488910   		movq	%rdx, (%rax)
 1565              	.LBE11:
 1566 0782 90       		nop
 1567 0783 C9       		leave
 1568              		.cfi_def_cfa 7, 8
 1569 0784 C3       		ret
 1570              		.cfi_endproc
 1571              	.LFE1100:
 1573              		.set	_ZN12_GLOBAL__N_154TestCheckEqualsWithStringsWorksOnContentsConstNonConstC1Ev,_ZN12_GLOBAL__N
 1574              		.local	_ZN12_GLOBAL__N_162testCheckEqualsWithStringsWorksOnContentsConstNonConstInstanceE
 1575              		.comm	_ZN12_GLOBAL__N_162testCheckEqualsWithStringsWorksOnContentsConstNonConstInstanceE,56,32
 1576              		.local	_ZN12_GLOBAL__N_155adderCheckEqualsWithStringsWorksOnContentsConstNonConstE
 1577              		.comm	_ZN12_GLOBAL__N_155adderCheckEqualsWithStringsWorksOnContentsConstNonConstE,1,1
 1578 0785 90       		.align 2
 1580              	_ZNK12_GLOBAL__N_154TestCheckEqualsWithStringsWorksOnContentsConstNonConst7RunImplEv:
 1581              	.LFB1102:
  57:TestChecks.cpp **** {
 1582              		.loc 5 57 0
 1583              		.cfi_startproc
 1584              		.cfi_personality 0x3,__gxx_personality_v0
 1585              		.cfi_lsda 0x3,.LLSDA1102
 1586 0786 55       		pushq	%rbp
 1587              		.cfi_def_cfa_offset 16
 1588              		.cfi_offset 6, -16
 1589 0787 4889E5   		movq	%rsp, %rbp
 1590              		.cfi_def_cfa_register 6
 1591 078a 53       		pushq	%rbx
 1592 078b 4881EC88 		subq	$136, %rsp
 1592      000000
 1593              		.cfi_offset 3, -24
 1594 0792 4889BD78 		movq	%rdi, -136(%rbp)
 1594      FFFFFF
 1595              		.loc 5 57 0
 1596 0799 64488B04 		movq	%fs:40, %rax
 1596      25280000 
 1596      00
 1597 07a2 488945E8 		movq	%rax, -24(%rbp)
 1598 07a6 31C0     		xorl	%eax, %eax
  58:TestChecks.cpp ****     char const* const p1 = txt1;
 1599              		.loc 5 58 0
 1600 07a8 48C74590 		movq	$_ZN12_GLOBAL__N_14txt1E, -112(%rbp)
 1600      00000000 
  59:TestChecks.cpp ****     char* const p2 = txt2;
 1601              		.loc 5 59 0
 1602 07b0 48C74598 		movq	$_ZN12_GLOBAL__N_14txt2E, -104(%rbp)
 1602      00000000 
  60:TestChecks.cpp ****     TestResults results;
 1603              		.loc 5 60 0
 1604 07b8 488D45A0 		leaq	-96(%rbp), %rax
 1605 07bc BE000000 		movl	$0, %esi
 1605      00
 1606 07c1 4889C7   		movq	%rax, %rdi
 1607              	.LEHB33:
 1608 07c4 E8000000 		call	_ZN8UnitTest11TestResultsC1EPNS_12TestReporterE
 1608      00
  61:TestChecks.cpp ****     CheckEqual(results, p1, p2, TestDetails("", "", "", 0));
 1609              		.loc 5 61 0
 1610 07c9 488D45C0 		leaq	-64(%rbp), %rax
 1611 07cd 41B80000 		movl	$0, %r8d
 1611      0000
 1612 07d3 B9000000 		movl	$.LC6, %ecx
 1612      00
 1613 07d8 BA000000 		movl	$.LC6, %edx
 1613      00
 1614 07dd BE000000 		movl	$.LC6, %esi
 1614      00
 1615 07e2 4889C7   		movq	%rax, %rdi
 1616 07e5 E8000000 		call	_ZN8UnitTest11TestDetailsC1EPKcS2_S2_i
 1616      00
 1617 07ea 488D4DC0 		leaq	-64(%rbp), %rcx
 1618 07ee 488B5598 		movq	-104(%rbp), %rdx
 1619 07f2 488B7590 		movq	-112(%rbp), %rsi
 1620 07f6 488D45A0 		leaq	-96(%rbp), %rax
 1621 07fa 4889C7   		movq	%rax, %rdi
 1622 07fd E8000000 		call	_ZN8UnitTest10CheckEqualERNS_11TestResultsEPKcPcRKNS_11TestDetailsE
 1622      00
 1623              	.LEHE33:
 1624              	.LEHB34:
  62:TestChecks.cpp ****     CHECK_EQUAL(0, results.GetFailureCount());
 1625              		.loc 5 62 0
 1626 0802 E8000000 		call	_ZN8UnitTest11CurrentTest7DetailsEv
 1626      00
 1627 0807 488B08   		movq	(%rax), %rcx
 1628 080a 488D45C0 		leaq	-64(%rbp), %rax
 1629 080e BA3E0000 		movl	$62, %edx
 1629      00
 1630 0813 4889CE   		movq	%rcx, %rsi
 1631 0816 4889C7   		movq	%rax, %rdi
 1632 0819 E8000000 		call	_ZN8UnitTest11TestDetailsC1ERKS0_i
 1632      00
 1633              		.loc 5 62 0 is_stmt 0 discriminator 2
 1634 081e 488D45A0 		leaq	-96(%rbp), %rax
 1635 0822 4889C7   		movq	%rax, %rdi
 1636 0825 E8000000 		call	_ZNK8UnitTest11TestResults15GetFailureCountEv
 1636      00
 1637              	.LEHE34:
 1638 082a 89458C   		movl	%eax, -116(%rbp)
 1639 082d C7458800 		movl	$0, -120(%rbp)
 1639      000000
 1640              	.LEHB35:
 1641 0834 E8000000 		call	_ZN8UnitTest11CurrentTest7ResultsEv
 1641      00
 1642              		.loc 5 62 0 discriminator 4
 1643 0839 488B00   		movq	(%rax), %rax
 1644 083c 488D4DC0 		leaq	-64(%rbp), %rcx
 1645 0840 488D558C 		leaq	-116(%rbp), %rdx
 1646 0844 488D7588 		leaq	-120(%rbp), %rsi
 1647 0848 4889C7   		movq	%rax, %rdi
 1648 084b E8000000 		call	_ZN8UnitTest10CheckEqualIiiEEvRNS_11TestResultsERKT_RKT0_RKNS_11TestDetailsE
 1648      00
 1649              	.LEHE35:
  63:TestChecks.cpp **** }
 1650              		.loc 5 63 0 is_stmt 1
 1651 0850 EB5C     		jmp	.L65
 1652              	.L72:
 1653 0852 EB00     		jmp	.L67
 1654              	.L71:
 1655              	.L67:
  62:TestChecks.cpp ****     CHECK_EQUAL(0, results.GetFailureCount());
 1656              		.loc 5 62 0
 1657 0854 4889C7   		movq	%rax, %rdi
 1658 0857 E8000000 		call	__cxa_begin_catch
 1658      00
 1659              	.LEHB36:
 1660 085c E8000000 		call	_ZN8UnitTest11CurrentTest7DetailsEv
 1660      00
 1661 0861 488B08   		movq	(%rax), %rcx
 1662 0864 488D45C0 		leaq	-64(%rbp), %rax
 1663 0868 BA3E0000 		movl	$62, %edx
 1663      00
 1664 086d 4889CE   		movq	%rcx, %rsi
 1665 0870 4889C7   		movq	%rax, %rdi
 1666 0873 E8000000 		call	_ZN8UnitTest11TestDetailsC1ERKS0_i
 1666      00
  62:TestChecks.cpp ****     CHECK_EQUAL(0, results.GetFailureCount());
 1667              		.loc 5 62 0 is_stmt 0 discriminator 12
 1668 0878 E8000000 		call	_ZN8UnitTest11CurrentTest7ResultsEv
 1668      00
 1669 087d 488B00   		movq	(%rax), %rax
 1670 0880 488D4DC0 		leaq	-64(%rbp), %rcx
 1671 0884 BA000000 		movl	$.LC9, %edx
 1671      00
 1672 0889 4889CE   		movq	%rcx, %rsi
 1673 088c 4889C7   		movq	%rax, %rdi
 1674 088f E8000000 		call	_ZN8UnitTest11TestResults13OnTestFailureERKNS_11TestDetailsEPKc
 1674      00
 1675              	.LEHE36:
 1676              	.LEHB37:
  62:TestChecks.cpp ****     CHECK_EQUAL(0, results.GetFailureCount());
 1677              		.loc 5 62 0 discriminator 16
 1678 0894 E8000000 		call	__cxa_end_catch
 1678      00
 1679              	.LEHE37:
 1680              		.loc 5 63 0 is_stmt 1 discriminator 16
 1681 0899 EB13     		jmp	.L65
 1682              	.L73:
 1683 089b 4889C3   		movq	%rax, %rbx
  62:TestChecks.cpp ****     CHECK_EQUAL(0, results.GetFailureCount());
 1684              		.loc 5 62 0
 1685 089e E8000000 		call	__cxa_end_catch
 1685      00
 1686 08a3 4889D8   		movq	%rbx, %rax
 1687 08a6 4889C7   		movq	%rax, %rdi
 1688              	.LEHB38:
 1689 08a9 E8000000 		call	_Unwind_Resume
 1689      00
 1690              	.LEHE38:
 1691              	.L65:
 1692              		.loc 5 63 0
 1693 08ae 488B45E8 		movq	-24(%rbp), %rax
 1694 08b2 64483304 		xorq	%fs:40, %rax
 1694      25280000 
 1694      00
 1695 08bb 7405     		je	.L70
 1696 08bd E8000000 		call	__stack_chk_fail
 1696      00
 1697              	.L70:
 1698 08c2 4881C488 		addq	$136, %rsp
 1698      000000
 1699 08c9 5B       		popq	%rbx
 1700 08ca 5D       		popq	%rbp
 1701              		.cfi_def_cfa 7, 8
 1702 08cb C3       		ret
 1703              		.cfi_endproc
 1704              	.LFE1102:
 1705              		.section	.gcc_except_table
 1706              		.align 4
 1707              	.LLSDA1102:
 1708 00d8 FF       		.byte	0xff
 1709 00d9 03       		.byte	0x3
 1710 00da 29       		.uleb128 .LLSDATT1102-.LLSDATTD1102
 1711              	.LLSDATTD1102:
 1712 00db 01       		.byte	0x1
 1713 00dc 1F       		.uleb128 .LLSDACSE1102-.LLSDACSB1102
 1714              	.LLSDACSB1102:
 1715 00dd 3E       		.uleb128 .LEHB33-.LFB1102
 1716 00de 3E       		.uleb128 .LEHE33-.LEHB33
 1717 00df 00       		.uleb128 0
 1718 00e0 00       		.uleb128 0
 1719 00e1 7C       		.uleb128 .LEHB34-.LFB1102
 1720 00e2 28       		.uleb128 .LEHE34-.LEHB34
 1721 00e3 CE01     		.uleb128 .L71-.LFB1102
 1722 00e5 01       		.uleb128 0x1
 1723 00e6 AE01     		.uleb128 .LEHB35-.LFB1102
 1724 00e8 1C       		.uleb128 .LEHE35-.LEHB35
 1725 00e9 CC01     		.uleb128 .L72-.LFB1102
 1726 00eb 03       		.uleb128 0x3
 1727 00ec D601     		.uleb128 .LEHB36-.LFB1102
 1728 00ee 38       		.uleb128 .LEHE36-.LEHB36
 1729 00ef 9502     		.uleb128 .L73-.LFB1102
 1730 00f1 00       		.uleb128 0
 1731 00f2 8E02     		.uleb128 .LEHB37-.LFB1102
 1732 00f4 05       		.uleb128 .LEHE37-.LEHB37
 1733 00f5 00       		.uleb128 0
 1734 00f6 00       		.uleb128 0
 1735 00f7 A302     		.uleb128 .LEHB38-.LFB1102
 1736 00f9 05       		.uleb128 .LEHE38-.LEHB38
 1737 00fa 00       		.uleb128 0
 1738 00fb 00       		.uleb128 0
 1739              	.LLSDACSE1102:
 1740 00fc 01       		.byte	0x1
 1741 00fd 00       		.byte	0
 1742 00fe 00       		.byte	0
 1743 00ff 7D       		.byte	0x7d
 1744              		.align 4
 1745 0100 00000000 		.long	0
 1746              	
 1747              	.LLSDATT1102:
 1748              		.text
 1750              		.section	.rodata
 1751 020b 00000000 		.align 8
 1751      00
 1752              	.LC13:
 1753 0210 43686563 		.string	"CheckEqualsWithStringsWorksOnContentsWithALiteral"
 1753      6B457175 
 1753      616C7357 
 1753      69746853 
 1753      7472696E 
 1754              		.text
 1755              		.align 2
 1757              	_ZN12_GLOBAL__N_153TestCheckEqualsWithStringsWorksOnContentsWithALiteralC2Ev:
 1758              	.LFB1104:
  64:TestChecks.cpp **** 
  65:TestChecks.cpp **** TEST(CheckEqualsWithStringsWorksOnContentsWithALiteral)
 1759              		.loc 5 65 0
 1760              		.cfi_startproc
 1761 08cc 55       		pushq	%rbp
 1762              		.cfi_def_cfa_offset 16
 1763              		.cfi_offset 6, -16
 1764 08cd 4889E5   		movq	%rsp, %rbp
 1765              		.cfi_def_cfa_register 6
 1766 08d0 4883EC10 		subq	$16, %rsp
 1767 08d4 48897DF8 		movq	%rdi, -8(%rbp)
 1768              	.LBB12:
 1769              		.loc 5 65 0
 1770 08d8 E8000000 		call	_ZN13UnitTestSuite12GetSuiteNameEv
 1770      00
 1771 08dd 4889C2   		movq	%rax, %rdx
 1772 08e0 488B45F8 		movq	-8(%rbp), %rax
 1773 08e4 41B84100 		movl	$65, %r8d
 1773      0000
 1774 08ea B9000000 		movl	$.LC2, %ecx
 1774      00
 1775 08ef BE000000 		movl	$.LC13, %esi
 1775      00
 1776 08f4 4889C7   		movq	%rax, %rdi
 1777 08f7 E8000000 		call	_ZN8UnitTest4TestC2EPKcS2_S2_i
 1777      00
 1778 08fc BA000000 		movl	$_ZTVN12_GLOBAL__N_153TestCheckEqualsWithStringsWorksOnContentsWithALiteralE+16, %edx
 1778      00
 1779 0901 488B45F8 		movq	-8(%rbp), %rax
 1780 0905 488910   		movq	%rdx, (%rax)
 1781              	.LBE12:
 1782 0908 90       		nop
 1783 0909 C9       		leave
 1784              		.cfi_def_cfa 7, 8
 1785 090a C3       		ret
 1786              		.cfi_endproc
 1787              	.LFE1104:
 1789              		.set	_ZN12_GLOBAL__N_153TestCheckEqualsWithStringsWorksOnContentsWithALiteralC1Ev,_ZN12_GLOBAL__N_
 1790              		.local	_ZN12_GLOBAL__N_161testCheckEqualsWithStringsWorksOnContentsWithALiteralInstanceE
 1791              		.comm	_ZN12_GLOBAL__N_161testCheckEqualsWithStringsWorksOnContentsWithALiteralInstanceE,56,32
 1792              		.local	_ZN12_GLOBAL__N_154adderCheckEqualsWithStringsWorksOnContentsWithALiteralE
 1793              		.comm	_ZN12_GLOBAL__N_154adderCheckEqualsWithStringsWorksOnContentsWithALiteralE,1,1
 1794              		.section	.rodata
 1795              	.LC14:
 1796 0242 48656C6C 		.string	"Hello"
 1796      6F00
 1797              		.text
 1798 090b 90       		.align 2
 1800              	_ZNK12_GLOBAL__N_153TestCheckEqualsWithStringsWorksOnContentsWithALiteral7RunImplEv:
 1801              	.LFB1106:
  66:TestChecks.cpp **** {
 1802              		.loc 5 66 0
 1803              		.cfi_startproc
 1804              		.cfi_personality 0x3,__gxx_personality_v0
 1805              		.cfi_lsda 0x3,.LLSDA1106
 1806 090c 55       		pushq	%rbp
 1807              		.cfi_def_cfa_offset 16
 1808              		.cfi_offset 6, -16
 1809 090d 4889E5   		movq	%rsp, %rbp
 1810              		.cfi_def_cfa_register 6
 1811 0910 53       		pushq	%rbx
 1812 0911 4883EC78 		subq	$120, %rsp
 1813              		.cfi_offset 3, -24
 1814 0915 48897D88 		movq	%rdi, -120(%rbp)
 1815              		.loc 5 66 0
 1816 0919 64488B04 		movq	%fs:40, %rax
 1816      25280000 
 1816      00
 1817 0922 488945E8 		movq	%rax, -24(%rbp)
 1818 0926 31C0     		xorl	%eax, %eax
  67:TestChecks.cpp ****     char const* const p1 = txt1;
 1819              		.loc 5 67 0
 1820 0928 48C74598 		movq	$_ZN12_GLOBAL__N_14txt1E, -104(%rbp)
 1820      00000000 
  68:TestChecks.cpp ****     TestResults results;
 1821              		.loc 5 68 0
 1822 0930 488D45A0 		leaq	-96(%rbp), %rax
 1823 0934 BE000000 		movl	$0, %esi
 1823      00
 1824 0939 4889C7   		movq	%rax, %rdi
 1825              	.LEHB39:
 1826 093c E8000000 		call	_ZN8UnitTest11TestResultsC1EPNS_12TestReporterE
 1826      00
  69:TestChecks.cpp ****     CheckEqual(results, "Hello", p1, TestDetails("", "", "", 0));
 1827              		.loc 5 69 0
 1828 0941 488D45C0 		leaq	-64(%rbp), %rax
 1829 0945 41B80000 		movl	$0, %r8d
 1829      0000
 1830 094b B9000000 		movl	$.LC6, %ecx
 1830      00
 1831 0950 BA000000 		movl	$.LC6, %edx
 1831      00
 1832 0955 BE000000 		movl	$.LC6, %esi
 1832      00
 1833 095a 4889C7   		movq	%rax, %rdi
 1834 095d E8000000 		call	_ZN8UnitTest11TestDetailsC1EPKcS2_S2_i
 1834      00
 1835 0962 488D4DC0 		leaq	-64(%rbp), %rcx
 1836 0966 488B5598 		movq	-104(%rbp), %rdx
 1837 096a 488D45A0 		leaq	-96(%rbp), %rax
 1838 096e BE000000 		movl	$.LC14, %esi
 1838      00
 1839 0973 4889C7   		movq	%rax, %rdi
 1840 0976 E8000000 		call	_ZN8UnitTest10CheckEqualERNS_11TestResultsEPKcS3_RKNS_11TestDetailsE
 1840      00
 1841              	.LEHE39:
 1842              	.LEHB40:
  70:TestChecks.cpp ****     CHECK_EQUAL(0, results.GetFailureCount());
 1843              		.loc 5 70 0
 1844 097b E8000000 		call	_ZN8UnitTest11CurrentTest7DetailsEv
 1844      00
 1845 0980 488B08   		movq	(%rax), %rcx
 1846 0983 488D45C0 		leaq	-64(%rbp), %rax
 1847 0987 BA460000 		movl	$70, %edx
 1847      00
 1848 098c 4889CE   		movq	%rcx, %rsi
 1849 098f 4889C7   		movq	%rax, %rdi
 1850 0992 E8000000 		call	_ZN8UnitTest11TestDetailsC1ERKS0_i
 1850      00
 1851              		.loc 5 70 0 is_stmt 0 discriminator 2
 1852 0997 488D45A0 		leaq	-96(%rbp), %rax
 1853 099b 4889C7   		movq	%rax, %rdi
 1854 099e E8000000 		call	_ZNK8UnitTest11TestResults15GetFailureCountEv
 1854      00
 1855              	.LEHE40:
 1856 09a3 894594   		movl	%eax, -108(%rbp)
 1857 09a6 C7459000 		movl	$0, -112(%rbp)
 1857      000000
 1858              	.LEHB41:
 1859 09ad E8000000 		call	_ZN8UnitTest11CurrentTest7ResultsEv
 1859      00
 1860              		.loc 5 70 0 discriminator 4
 1861 09b2 488B00   		movq	(%rax), %rax
 1862 09b5 488D4DC0 		leaq	-64(%rbp), %rcx
 1863 09b9 488D5594 		leaq	-108(%rbp), %rdx
 1864 09bd 488D7590 		leaq	-112(%rbp), %rsi
 1865 09c1 4889C7   		movq	%rax, %rdi
 1866 09c4 E8000000 		call	_ZN8UnitTest10CheckEqualIiiEEvRNS_11TestResultsERKT_RKT0_RKNS_11TestDetailsE
 1866      00
 1867              	.LEHE41:
  71:TestChecks.cpp **** }
 1868              		.loc 5 71 0 is_stmt 1
 1869 09c9 EB5C     		jmp	.L75
 1870              	.L82:
 1871 09cb EB00     		jmp	.L77
 1872              	.L81:
 1873              	.L77:
  70:TestChecks.cpp ****     CHECK_EQUAL(0, results.GetFailureCount());
 1874              		.loc 5 70 0
 1875 09cd 4889C7   		movq	%rax, %rdi
 1876 09d0 E8000000 		call	__cxa_begin_catch
 1876      00
 1877              	.LEHB42:
 1878 09d5 E8000000 		call	_ZN8UnitTest11CurrentTest7DetailsEv
 1878      00
 1879 09da 488B08   		movq	(%rax), %rcx
 1880 09dd 488D45C0 		leaq	-64(%rbp), %rax
 1881 09e1 BA460000 		movl	$70, %edx
 1881      00
 1882 09e6 4889CE   		movq	%rcx, %rsi
 1883 09e9 4889C7   		movq	%rax, %rdi
 1884 09ec E8000000 		call	_ZN8UnitTest11TestDetailsC1ERKS0_i
 1884      00
  70:TestChecks.cpp ****     CHECK_EQUAL(0, results.GetFailureCount());
 1885              		.loc 5 70 0 is_stmt 0 discriminator 12
 1886 09f1 E8000000 		call	_ZN8UnitTest11CurrentTest7ResultsEv
 1886      00
 1887 09f6 488B00   		movq	(%rax), %rax
 1888 09f9 488D4DC0 		leaq	-64(%rbp), %rcx
 1889 09fd BA000000 		movl	$.LC9, %edx
 1889      00
 1890 0a02 4889CE   		movq	%rcx, %rsi
 1891 0a05 4889C7   		movq	%rax, %rdi
 1892 0a08 E8000000 		call	_ZN8UnitTest11TestResults13OnTestFailureERKNS_11TestDetailsEPKc
 1892      00
 1893              	.LEHE42:
 1894              	.LEHB43:
  70:TestChecks.cpp ****     CHECK_EQUAL(0, results.GetFailureCount());
 1895              		.loc 5 70 0 discriminator 16
 1896 0a0d E8000000 		call	__cxa_end_catch
 1896      00
 1897              	.LEHE43:
 1898              		.loc 5 71 0 is_stmt 1 discriminator 16
 1899 0a12 EB13     		jmp	.L75
 1900              	.L83:
 1901 0a14 4889C3   		movq	%rax, %rbx
  70:TestChecks.cpp ****     CHECK_EQUAL(0, results.GetFailureCount());
 1902              		.loc 5 70 0
 1903 0a17 E8000000 		call	__cxa_end_catch
 1903      00
 1904 0a1c 4889D8   		movq	%rbx, %rax
 1905 0a1f 4889C7   		movq	%rax, %rdi
 1906              	.LEHB44:
 1907 0a22 E8000000 		call	_Unwind_Resume
 1907      00
 1908              	.LEHE44:
 1909              	.L75:
 1910              		.loc 5 71 0
 1911 0a27 488B45E8 		movq	-24(%rbp), %rax
 1912 0a2b 64483304 		xorq	%fs:40, %rax
 1912      25280000 
 1912      00
 1913 0a34 7405     		je	.L80
 1914 0a36 E8000000 		call	__stack_chk_fail
 1914      00
 1915              	.L80:
 1916 0a3b 4883C478 		addq	$120, %rsp
 1917 0a3f 5B       		popq	%rbx
 1918 0a40 5D       		popq	%rbp
 1919              		.cfi_def_cfa 7, 8
 1920 0a41 C3       		ret
 1921              		.cfi_endproc
 1922              	.LFE1106:
 1923              		.section	.gcc_except_table
 1924              		.align 4
 1925              	.LLSDA1106:
 1926 0104 FF       		.byte	0xff
 1927 0105 03       		.byte	0x3
 1928 0106 29       		.uleb128 .LLSDATT1106-.LLSDATTD1106
 1929              	.LLSDATTD1106:
 1930 0107 01       		.byte	0x1
 1931 0108 1F       		.uleb128 .LLSDACSE1106-.LLSDACSB1106
 1932              	.LLSDACSB1106:
 1933 0109 30       		.uleb128 .LEHB39-.LFB1106
 1934 010a 3F       		.uleb128 .LEHE39-.LEHB39
 1935 010b 00       		.uleb128 0
 1936 010c 00       		.uleb128 0
 1937 010d 6F       		.uleb128 .LEHB40-.LFB1106
 1938 010e 28       		.uleb128 .LEHE40-.LEHB40
 1939 010f C101     		.uleb128 .L81-.LFB1106
 1940 0111 01       		.uleb128 0x1
 1941 0112 A101     		.uleb128 .LEHB41-.LFB1106
 1942 0114 1C       		.uleb128 .LEHE41-.LEHB41
 1943 0115 BF01     		.uleb128 .L82-.LFB1106
 1944 0117 03       		.uleb128 0x3
 1945 0118 C901     		.uleb128 .LEHB42-.LFB1106
 1946 011a 38       		.uleb128 .LEHE42-.LEHB42
 1947 011b 8802     		.uleb128 .L83-.LFB1106
 1948 011d 00       		.uleb128 0
 1949 011e 8102     		.uleb128 .LEHB43-.LFB1106
 1950 0120 05       		.uleb128 .LEHE43-.LEHB43
 1951 0121 00       		.uleb128 0
 1952 0122 00       		.uleb128 0
 1953 0123 9602     		.uleb128 .LEHB44-.LFB1106
 1954 0125 05       		.uleb128 .LEHE44-.LEHB44
 1955 0126 00       		.uleb128 0
 1956 0127 00       		.uleb128 0
 1957              	.LLSDACSE1106:
 1958 0128 01       		.byte	0x1
 1959 0129 00       		.byte	0
 1960 012a 00       		.byte	0
 1961 012b 7D       		.byte	0x7d
 1962              		.align 4
 1963 012c 00000000 		.long	0
 1964              	
 1965              	.LLSDATT1106:
 1966              		.text
 1968              		.section	.rodata
 1969              		.align 8
 1970              	.LC15:
 1971 0248 43686563 		.string	"CheckEqualFailureIncludesCheckExpectedAndActual"
 1971      6B457175 
 1971      616C4661 
 1971      696C7572 
 1971      65496E63 
 1972              		.text
 1973              		.align 2
 1975              	_ZN12_GLOBAL__N_151TestCheckEqualFailureIncludesCheckExpectedAndActualC2Ev:
 1976              	.LFB1108:
  72:TestChecks.cpp **** 
  73:TestChecks.cpp **** TEST(CheckEqualFailureIncludesCheckExpectedAndActual)
 1977              		.loc 5 73 0
 1978              		.cfi_startproc
 1979 0a42 55       		pushq	%rbp
 1980              		.cfi_def_cfa_offset 16
 1981              		.cfi_offset 6, -16
 1982 0a43 4889E5   		movq	%rsp, %rbp
 1983              		.cfi_def_cfa_register 6
 1984 0a46 4883EC10 		subq	$16, %rsp
 1985 0a4a 48897DF8 		movq	%rdi, -8(%rbp)
 1986              	.LBB13:
 1987              		.loc 5 73 0
 1988 0a4e E8000000 		call	_ZN13UnitTestSuite12GetSuiteNameEv
 1988      00
 1989 0a53 4889C2   		movq	%rax, %rdx
 1990 0a56 488B45F8 		movq	-8(%rbp), %rax
 1991 0a5a 41B84900 		movl	$73, %r8d
 1991      0000
 1992 0a60 B9000000 		movl	$.LC2, %ecx
 1992      00
 1993 0a65 BE000000 		movl	$.LC15, %esi
 1993      00
 1994 0a6a 4889C7   		movq	%rax, %rdi
 1995 0a6d E8000000 		call	_ZN8UnitTest4TestC2EPKcS2_S2_i
 1995      00
 1996 0a72 BA000000 		movl	$_ZTVN12_GLOBAL__N_151TestCheckEqualFailureIncludesCheckExpectedAndActualE+16, %edx
 1996      00
 1997 0a77 488B45F8 		movq	-8(%rbp), %rax
 1998 0a7b 488910   		movq	%rdx, (%rax)
 1999              	.LBE13:
 2000 0a7e 90       		nop
 2001 0a7f C9       		leave
 2002              		.cfi_def_cfa 7, 8
 2003 0a80 C3       		ret
 2004              		.cfi_endproc
 2005              	.LFE1108:
 2007              		.set	_ZN12_GLOBAL__N_151TestCheckEqualFailureIncludesCheckExpectedAndActualC1Ev,_ZN12_GLOBAL__N_15
 2008              		.local	_ZN12_GLOBAL__N_159testCheckEqualFailureIncludesCheckExpectedAndActualInstanceE
 2009              		.comm	_ZN12_GLOBAL__N_159testCheckEqualFailureIncludesCheckExpectedAndActualInstanceE,56,32
 2010              		.local	_ZN12_GLOBAL__N_152adderCheckEqualFailureIncludesCheckExpectedAndActualE
 2011              		.comm	_ZN12_GLOBAL__N_152adderCheckEqualFailureIncludesCheckExpectedAndActualE,1,1
 2012              		.section	.rodata
 2013              	.LC16:
 2014 0278 78706563 		.string	"xpected 1"
 2014      74656420 
 2014      3100
 2015 0282 00000000 		.align 8
 2015      0000
 2016              	.LC17:
 2017 0288 73747273 		.string	"strstr(reporter.lastFailedMessage, \"xpected 1\")"
 2017      74722872 
 2017      65706F72 
 2017      7465722E 
 2017      6C617374 
 2018              	.LC18:
 2019 02b8 77617320 		.string	"was 2"
 2019      3200
 2020 02be 0000     		.align 8
 2021              	.LC19:
 2022 02c0 73747273 		.string	"strstr(reporter.lastFailedMessage, \"was 2\")"
 2022      74722872 
 2022      65706F72 
 2022      7465722E 
 2022      6C617374 
 2023 02ec 00000000 		.align 8
 2024              	.LC20:
 2025 02f0 556E6861 		.string	"Unhandled exception in CHECK(strstr(reporter.lastFailedMessage, \"xpected 1\"))"
 2025      6E646C65 
 2025      64206578 
 2025      63657074 
 2025      696F6E20 
 2026 033e 0000     		.align 8
 2027              	.LC21:
 2028 0340 556E6861 		.string	"Unhandled exception in CHECK(strstr(reporter.lastFailedMessage, \"was 2\"))"
 2028      6E646C65 
 2028      64206578 
 2028      63657074 
 2028      696F6E20 
 2029              		.text
 2030 0a81 90       		.align 2
 2032              	_ZNK12_GLOBAL__N_151TestCheckEqualFailureIncludesCheckExpectedAndActual7RunImplEv:
 2033              	.LFB1110:
  74:TestChecks.cpp **** {
 2034              		.loc 5 74 0
 2035              		.cfi_startproc
 2036              		.cfi_personality 0x3,__gxx_personality_v0
 2037              		.cfi_lsda 0x3,.LLSDA1110
 2038 0a82 55       		pushq	%rbp
 2039              		.cfi_def_cfa_offset 16
 2040              		.cfi_offset 6, -16
 2041 0a83 4889E5   		movq	%rsp, %rbp
 2042              		.cfi_def_cfa_register 6
 2043 0a86 53       		pushq	%rbx
 2044 0a87 4881ECA8 		subq	$2216, %rsp
 2044      080000
 2045              		.cfi_offset 3, -24
 2046 0a8e 4889BD58 		movq	%rdi, -2216(%rbp)
 2046      F7FFFF
 2047              		.loc 5 74 0
 2048 0a95 64488B04 		movq	%fs:40, %rax
 2048      25280000 
 2048      00
 2049 0a9e 488945E8 		movq	%rax, -24(%rbp)
 2050 0aa2 31C0     		xorl	%eax, %eax
  75:TestChecks.cpp ****     RecordingReporter reporter;
 2051              		.loc 5 75 0
 2052 0aa4 488D85B0 		leaq	-2128(%rbp), %rax
 2052      F7FFFF
 2053 0aab 4889C7   		movq	%rax, %rdi
 2054 0aae E8000000 		call	_ZN17RecordingReporterC1Ev
 2054      00
  76:TestChecks.cpp ****     TestResults results(&reporter);
 2055              		.loc 5 76 0
 2056 0ab3 488D95B0 		leaq	-2128(%rbp), %rdx
 2056      F7FFFF
 2057 0aba 488D8570 		leaq	-2192(%rbp), %rax
 2057      F7FFFF
 2058 0ac1 4889D6   		movq	%rdx, %rsi
 2059 0ac4 4889C7   		movq	%rax, %rdi
 2060              	.LEHB45:
 2061 0ac7 E8000000 		call	_ZN8UnitTest11TestResultsC1EPNS_12TestReporterE
 2061      00
  77:TestChecks.cpp ****     const int something = 2;
 2062              		.loc 5 77 0
 2063 0acc C78568F7 		movl	$2, -2200(%rbp)
 2063      FFFF0200 
 2063      0000
  78:TestChecks.cpp ****     CheckEqual(results, 1, something, TestDetails("", "", "", 0));
 2064              		.loc 5 78 0
 2065 0ad6 488D8590 		leaq	-2160(%rbp), %rax
 2065      F7FFFF
 2066 0add 41B80000 		movl	$0, %r8d
 2066      0000
 2067 0ae3 B9000000 		movl	$.LC6, %ecx
 2067      00
 2068 0ae8 BA000000 		movl	$.LC6, %edx
 2068      00
 2069 0aed BE000000 		movl	$.LC6, %esi
 2069      00
 2070 0af2 4889C7   		movq	%rax, %rdi
 2071 0af5 E8000000 		call	_ZN8UnitTest11TestDetailsC1EPKcS2_S2_i
 2071      00
 2072              		.loc 5 78 0 is_stmt 0 discriminator 1
 2073 0afa C7856CF7 		movl	$1, -2196(%rbp)
 2073      FFFF0100 
 2073      0000
 2074 0b04 488D8D90 		leaq	-2160(%rbp), %rcx
 2074      F7FFFF
 2075 0b0b 488D9568 		leaq	-2200(%rbp), %rdx
 2075      F7FFFF
 2076 0b12 488DB56C 		leaq	-2196(%rbp), %rsi
 2076      F7FFFF
 2077 0b19 488D8570 		leaq	-2192(%rbp), %rax
 2077      F7FFFF
 2078 0b20 4889C7   		movq	%rax, %rdi
 2079 0b23 E8000000 		call	_ZN8UnitTest10CheckEqualIiiEEvRNS_11TestResultsERKT_RKT0_RKNS_11TestDetailsE
 2079      00
 2080              	.LEHE45:
  79:TestChecks.cpp **** 
  80:TestChecks.cpp **** 	using namespace std;
  81:TestChecks.cpp ****     CHECK(strstr(reporter.lastFailedMessage, "xpected 1"));
 2081              		.loc 5 81 0 is_stmt 1 discriminator 3
 2082 0b28 488D85B0 		leaq	-2128(%rbp), %rax
 2082      F7FFFF
 2083 0b2f 48051405 		addq	$1300, %rax
 2083      0000
 2084 0b35 BE000000 		movl	$.LC16, %esi
 2084      00
 2085 0b3a 4889C7   		movq	%rax, %rdi
 2086 0b3d E8000000 		call	strstr
 2086      00
 2087 0b42 4889C7   		movq	%rax, %rdi
 2088 0b45 E8000000 		call	_ZN8UnitTest5CheckIPcEEbT_
 2088      00
 2089 0b4a 83F001   		xorl	$1, %eax
 2090 0b4d 84C0     		testb	%al, %al
 2091 0b4f 743E     		je	.L86
 2092              	.LEHB46:
 2093              		.loc 5 81 0 is_stmt 0 discriminator 1
 2094 0b51 E8000000 		call	_ZN8UnitTest11CurrentTest7DetailsEv
 2094      00
 2095 0b56 488B08   		movq	(%rax), %rcx
 2096 0b59 488D8590 		leaq	-2160(%rbp), %rax
 2096      F7FFFF
 2097 0b60 BA510000 		movl	$81, %edx
 2097      00
 2098 0b65 4889CE   		movq	%rcx, %rsi
 2099 0b68 4889C7   		movq	%rax, %rdi
 2100 0b6b E8000000 		call	_ZN8UnitTest11TestDetailsC1ERKS0_i
 2100      00
 2101              		.loc 5 81 0 discriminator 3
 2102 0b70 E8000000 		call	_ZN8UnitTest11CurrentTest7ResultsEv
 2102      00
 2103 0b75 488B00   		movq	(%rax), %rax
 2104 0b78 488D8D90 		leaq	-2160(%rbp), %rcx
 2104      F7FFFF
 2105 0b7f BA000000 		movl	$.LC17, %edx
 2105      00
 2106 0b84 4889CE   		movq	%rcx, %rsi
 2107 0b87 4889C7   		movq	%rax, %rdi
 2108 0b8a E8000000 		call	_ZN8UnitTest11TestResults13OnTestFailureERKNS_11TestDetailsEPKc
 2108      00
 2109              	.LEHE46:
 2110              	.L86:
  82:TestChecks.cpp ****     CHECK(strstr(reporter.lastFailedMessage, "was 2"));
 2111              		.loc 5 82 0 is_stmt 1
 2112 0b8f 488D85B0 		leaq	-2128(%rbp), %rax
 2112      F7FFFF
 2113 0b96 48051405 		addq	$1300, %rax
 2113      0000
 2114 0b9c BE000000 		movl	$.LC18, %esi
 2114      00
 2115 0ba1 4889C7   		movq	%rax, %rdi
 2116 0ba4 E8000000 		call	strstr
 2116      00
 2117 0ba9 4889C7   		movq	%rax, %rdi
 2118 0bac E8000000 		call	_ZN8UnitTest5CheckIPcEEbT_
 2118      00
 2119 0bb1 83F001   		xorl	$1, %eax
 2120 0bb4 84C0     		testb	%al, %al
 2121 0bb6 743E     		je	.L87
 2122              	.LEHB47:
 2123              		.loc 5 82 0 is_stmt 0 discriminator 1
 2124 0bb8 E8000000 		call	_ZN8UnitTest11CurrentTest7DetailsEv
 2124      00
 2125 0bbd 488B08   		movq	(%rax), %rcx
 2126 0bc0 488D8590 		leaq	-2160(%rbp), %rax
 2126      F7FFFF
 2127 0bc7 BA520000 		movl	$82, %edx
 2127      00
 2128 0bcc 4889CE   		movq	%rcx, %rsi
 2129 0bcf 4889C7   		movq	%rax, %rdi
 2130 0bd2 E8000000 		call	_ZN8UnitTest11TestDetailsC1ERKS0_i
 2130      00
 2131              		.loc 5 82 0 discriminator 3
 2132 0bd7 E8000000 		call	_ZN8UnitTest11CurrentTest7ResultsEv
 2132      00
 2133 0bdc 488B00   		movq	(%rax), %rax
 2134 0bdf 488D8D90 		leaq	-2160(%rbp), %rcx
 2134      F7FFFF
 2135 0be6 BA000000 		movl	$.LC19, %edx
 2135      00
 2136 0beb 4889CE   		movq	%rcx, %rsi
 2137 0bee 4889C7   		movq	%rax, %rdi
 2138 0bf1 E8000000 		call	_ZN8UnitTest11TestResults13OnTestFailureERKNS_11TestDetailsEPKc
 2138      00
 2139              	.LEHE47:
 2140              	.L87:
  75:TestChecks.cpp ****     TestResults results(&reporter);
 2141              		.loc 5 75 0 is_stmt 1
 2142 0bf6 488D85B0 		leaq	-2128(%rbp), %rax
 2142      F7FFFF
 2143 0bfd 4889C7   		movq	%rax, %rdi
 2144              	.LEHB48:
 2145 0c00 E8000000 		call	_ZN17RecordingReporterD1Ev
 2145      00
 2146              	.LEHE48:
  83:TestChecks.cpp **** }
 2147              		.loc 5 83 0
 2148 0c05 90       		nop
 2149 0c06 488B45E8 		movq	-24(%rbp), %rax
 2150 0c0a 64483304 		xorq	%fs:40, %rax
 2150      25280000 
 2150      00
 2151 0c13 0F84DB00 		je	.L93
 2151      0000
 2152 0c19 E9D10000 		jmp	.L99
 2152      00
 2153              	.L95:
  81:TestChecks.cpp ****     CHECK(strstr(reporter.lastFailedMessage, "was 2"));
 2154              		.loc 5 81 0
 2155 0c1e 4889C7   		movq	%rax, %rdi
 2156 0c21 E8000000 		call	__cxa_begin_catch
 2156      00
 2157              	.LEHB49:
 2158 0c26 E8000000 		call	_ZN8UnitTest11CurrentTest7DetailsEv
 2158      00
 2159 0c2b 488B08   		movq	(%rax), %rcx
 2160 0c2e 488D8590 		leaq	-2160(%rbp), %rax
 2160      F7FFFF
 2161 0c35 BA510000 		movl	$81, %edx
 2161      00
 2162 0c3a 4889CE   		movq	%rcx, %rsi
 2163 0c3d 4889C7   		movq	%rax, %rdi
 2164 0c40 E8000000 		call	_ZN8UnitTest11TestDetailsC1ERKS0_i
 2164      00
  81:TestChecks.cpp ****     CHECK(strstr(reporter.lastFailedMessage, "was 2"));
 2165              		.loc 5 81 0 is_stmt 0 discriminator 11
 2166 0c45 E8000000 		call	_ZN8UnitTest11CurrentTest7ResultsEv
 2166      00
 2167 0c4a 488B00   		movq	(%rax), %rax
 2168 0c4d 488D8D90 		leaq	-2160(%rbp), %rcx
 2168      F7FFFF
 2169 0c54 BA000000 		movl	$.LC20, %edx
 2169      00
 2170 0c59 4889CE   		movq	%rcx, %rsi
 2171 0c5c 4889C7   		movq	%rax, %rdi
 2172 0c5f E8000000 		call	_ZN8UnitTest11TestResults13OnTestFailureERKNS_11TestDetailsEPKc
 2172      00
 2173              	.LEHE49:
 2174              	.LEHB50:
  81:TestChecks.cpp ****     CHECK(strstr(reporter.lastFailedMessage, "was 2"));
 2175              		.loc 5 81 0 discriminator 15
 2176 0c64 E8000000 		call	__cxa_end_catch
 2176      00
 2177              	.LEHE50:
  81:TestChecks.cpp ****     CHECK(strstr(reporter.lastFailedMessage, "was 2"));
 2178              		.loc 5 81 0
 2179 0c69 E921FFFF 		jmp	.L86
 2179      FF
 2180              	.L96:
 2181 0c6e 4889C3   		movq	%rax, %rbx
 2182 0c71 E8000000 		call	__cxa_end_catch
 2182      00
 2183 0c76 EB5D     		jmp	.L90
 2184              	.L97:
  82:TestChecks.cpp **** }
 2185              		.loc 5 82 0 is_stmt 1
 2186 0c78 4889C7   		movq	%rax, %rdi
 2187 0c7b E8000000 		call	__cxa_begin_catch
 2187      00
 2188              	.LEHB51:
 2189 0c80 E8000000 		call	_ZN8UnitTest11CurrentTest7DetailsEv
 2189      00
 2190 0c85 488B08   		movq	(%rax), %rcx
 2191 0c88 488D8590 		leaq	-2160(%rbp), %rax
 2191      F7FFFF
 2192 0c8f BA520000 		movl	$82, %edx
 2192      00
 2193 0c94 4889CE   		movq	%rcx, %rsi
 2194 0c97 4889C7   		movq	%rax, %rdi
 2195 0c9a E8000000 		call	_ZN8UnitTest11TestDetailsC1ERKS0_i
 2195      00
  82:TestChecks.cpp **** }
 2196              		.loc 5 82 0 is_stmt 0 discriminator 11
 2197 0c9f E8000000 		call	_ZN8UnitTest11CurrentTest7ResultsEv
 2197      00
 2198 0ca4 488B00   		movq	(%rax), %rax
 2199 0ca7 488D8D90 		leaq	-2160(%rbp), %rcx
 2199      F7FFFF
 2200 0cae BA000000 		movl	$.LC21, %edx
 2200      00
 2201 0cb3 4889CE   		movq	%rcx, %rsi
 2202 0cb6 4889C7   		movq	%rax, %rdi
 2203 0cb9 E8000000 		call	_ZN8UnitTest11TestResults13OnTestFailureERKNS_11TestDetailsEPKc
 2203      00
 2204              	.LEHE51:
 2205              	.LEHB52:
  82:TestChecks.cpp **** }
 2206              		.loc 5 82 0 discriminator 15
 2207 0cbe E8000000 		call	__cxa_end_catch
 2207      00
 2208              	.LEHE52:
  82:TestChecks.cpp **** }
 2209              		.loc 5 82 0
 2210 0cc3 E92EFFFF 		jmp	.L87
 2210      FF
 2211              	.L98:
 2212 0cc8 4889C3   		movq	%rax, %rbx
 2213 0ccb E8000000 		call	__cxa_end_catch
 2213      00
 2214 0cd0 EB03     		jmp	.L90
 2215              	.L94:
 2216 0cd2 4889C3   		movq	%rax, %rbx
 2217              	.L90:
  75:TestChecks.cpp ****     TestResults results(&reporter);
 2218              		.loc 5 75 0 is_stmt 1
 2219 0cd5 488D85B0 		leaq	-2128(%rbp), %rax
 2219      F7FFFF
 2220 0cdc 4889C7   		movq	%rax, %rdi
 2221 0cdf E8000000 		call	_ZN17RecordingReporterD1Ev
 2221      00
 2222 0ce4 4889D8   		movq	%rbx, %rax
 2223 0ce7 4889C7   		movq	%rax, %rdi
 2224              	.LEHB53:
 2225 0cea E8000000 		call	_Unwind_Resume
 2225      00
 2226              	.LEHE53:
 2227              	.L99:
 2228              		.loc 5 83 0
 2229 0cef E8000000 		call	__stack_chk_fail
 2229      00
 2230              	.L93:
 2231 0cf4 4881C4A8 		addq	$2216, %rsp
 2231      080000
 2232 0cfb 5B       		popq	%rbx
 2233 0cfc 5D       		popq	%rbp
 2234              		.cfi_def_cfa 7, 8
 2235 0cfd C3       		ret
 2236              		.cfi_endproc
 2237              	.LFE1110:
 2238              		.section	.gcc_except_table
 2239              		.align 4
 2240              	.LLSDA1110:
 2241 0130 FF       		.byte	0xff
 2242 0131 03       		.byte	0x3
 2243 0132 3D       		.uleb128 .LLSDATT1110-.LLSDATTD1110
 2244              	.LLSDATTD1110:
 2245 0133 01       		.byte	0x1
 2246 0134 33       		.uleb128 .LLSDACSE1110-.LLSDACSB1110
 2247              	.LLSDACSB1110:
 2248 0135 45       		.uleb128 .LEHB45-.LFB1110
 2249 0136 61       		.uleb128 .LEHE45-.LEHB45
 2250 0137 D004     		.uleb128 .L94-.LFB1110
 2251 0139 00       		.uleb128 0
 2252 013a CF01     		.uleb128 .LEHB46-.LFB1110
 2253 013c 3E       		.uleb128 .LEHE46-.LEHB46
 2254 013d 9C03     		.uleb128 .L95-.LFB1110
 2255 013f 01       		.uleb128 0x1
 2256 0140 B602     		.uleb128 .LEHB47-.LFB1110
 2257 0142 3E       		.uleb128 .LEHE47-.LEHB47
 2258 0143 F603     		.uleb128 .L97-.LFB1110
 2259 0145 01       		.uleb128 0x1
 2260 0146 FE02     		.uleb128 .LEHB48-.LFB1110
 2261 0148 05       		.uleb128 .LEHE48-.LEHB48
 2262 0149 00       		.uleb128 0
 2263 014a 00       		.uleb128 0
 2264 014b A403     		.uleb128 .LEHB49-.LFB1110
 2265 014d 3E       		.uleb128 .LEHE49-.LEHB49
 2266 014e EC03     		.uleb128 .L96-.LFB1110
 2267 0150 00       		.uleb128 0
 2268 0151 E203     		.uleb128 .LEHB50-.LFB1110
 2269 0153 05       		.uleb128 .LEHE50-.LEHB50
 2270 0154 D004     		.uleb128 .L94-.LFB1110
 2271 0156 00       		.uleb128 0
 2272 0157 FE03     		.uleb128 .LEHB51-.LFB1110
 2273 0159 3E       		.uleb128 .LEHE51-.LEHB51
 2274 015a C604     		.uleb128 .L98-.LFB1110
 2275 015c 00       		.uleb128 0
 2276 015d BC04     		.uleb128 .LEHB52-.LFB1110
 2277 015f 05       		.uleb128 .LEHE52-.LEHB52
 2278 0160 D004     		.uleb128 .L94-.LFB1110
 2279 0162 00       		.uleb128 0
 2280 0163 E804     		.uleb128 .LEHB53-.LFB1110
 2281 0165 05       		.uleb128 .LEHE53-.LEHB53
 2282 0166 00       		.uleb128 0
 2283 0167 00       		.uleb128 0
 2284              	.LLSDACSE1110:
 2285 0168 01       		.byte	0x1
 2286 0169 00       		.byte	0
 2287 016a 0000     		.align 4
 2288 016c 00000000 		.long	0
 2289              	
 2290              	.LLSDATT1110:
 2291              		.text
 2293              		.section	.rodata
 2294 038a 00000000 		.align 8
 2294      0000
 2295              	.LC22:
 2296 0390 43686563 		.string	"CheckEqualFailureIncludesDetails"
 2296      6B457175 
 2296      616C4661 
 2296      696C7572 
 2296      65496E63 
 2297              		.text
 2298              		.align 2
 2300              	_ZN12_GLOBAL__N_136TestCheckEqualFailureIncludesDetailsC2Ev:
 2301              	.LFB1112:
  84:TestChecks.cpp **** 
  85:TestChecks.cpp **** TEST(CheckEqualFailureIncludesDetails)
 2302              		.loc 5 85 0
 2303              		.cfi_startproc
 2304 0cfe 55       		pushq	%rbp
 2305              		.cfi_def_cfa_offset 16
 2306              		.cfi_offset 6, -16
 2307 0cff 4889E5   		movq	%rsp, %rbp
 2308              		.cfi_def_cfa_register 6
 2309 0d02 4883EC10 		subq	$16, %rsp
 2310 0d06 48897DF8 		movq	%rdi, -8(%rbp)
 2311              	.LBB14:
 2312              		.loc 5 85 0
 2313 0d0a E8000000 		call	_ZN13UnitTestSuite12GetSuiteNameEv
 2313      00
 2314 0d0f 4889C2   		movq	%rax, %rdx
 2315 0d12 488B45F8 		movq	-8(%rbp), %rax
 2316 0d16 41B85500 		movl	$85, %r8d
 2316      0000
 2317 0d1c B9000000 		movl	$.LC2, %ecx
 2317      00
 2318 0d21 BE000000 		movl	$.LC22, %esi
 2318      00
 2319 0d26 4889C7   		movq	%rax, %rdi
 2320 0d29 E8000000 		call	_ZN8UnitTest4TestC2EPKcS2_S2_i
 2320      00
 2321 0d2e BA000000 		movl	$_ZTVN12_GLOBAL__N_136TestCheckEqualFailureIncludesDetailsE+16, %edx
 2321      00
 2322 0d33 488B45F8 		movq	-8(%rbp), %rax
 2323 0d37 488910   		movq	%rdx, (%rax)
 2324              	.LBE14:
 2325 0d3a 90       		nop
 2326 0d3b C9       		leave
 2327              		.cfi_def_cfa 7, 8
 2328 0d3c C3       		ret
 2329              		.cfi_endproc
 2330              	.LFE1112:
 2332              		.set	_ZN12_GLOBAL__N_136TestCheckEqualFailureIncludesDetailsC1Ev,_ZN12_GLOBAL__N_136TestCheckEqual
 2333              		.local	_ZN12_GLOBAL__N_144testCheckEqualFailureIncludesDetailsInstanceE
 2334              		.comm	_ZN12_GLOBAL__N_144testCheckEqualFailureIncludesDetailsInstanceE,56,32
 2335              		.local	_ZN12_GLOBAL__N_137adderCheckEqualFailureIncludesDetailsE
 2336              		.comm	_ZN12_GLOBAL__N_137adderCheckEqualFailureIncludesDetailsE,1,1
 2337              		.section	.rodata
 2338              	.LC23:
 2339 03b1 66696C65 		.string	"file.h"
 2339      2E6800
 2340              	.LC24:
 2341 03b8 6D797375 		.string	"mysuite"
 2341      69746500 
 2342              	.LC25:
 2343 03c0 6D797465 		.string	"mytest"
 2343      737400
 2344 03c7 00       		.align 8
 2345              	.LC26:
 2346 03c8 556E6861 		.string	"Unhandled exception in CHECK_EQUAL(\"mytest\", reporter.lastFailedTest)"
 2346      6E646C65 
 2346      64206578 
 2346      63657074 
 2346      696F6E20 
 2347 040e 0000     		.align 8
 2348              	.LC27:
 2349 0410 556E6861 		.string	"Unhandled exception in CHECK_EQUAL(\"mysuite\", reporter.lastFailedSuite)"
 2349      6E646C65 
 2349      64206578 
 2349      63657074 
 2349      696F6E20 
 2350              		.align 8
 2351              	.LC28:
 2352 0458 556E6861 		.string	"Unhandled exception in CHECK_EQUAL(\"file.h\", reporter.lastFailedFile)"
 2352      6E646C65 
 2352      64206578 
 2352      63657074 
 2352      696F6E20 
 2353 049e 0000     		.align 8
 2354              	.LC29:
 2355 04a0 556E6861 		.string	"Unhandled exception in CHECK_EQUAL(101, reporter.lastFailedLine)"
 2355      6E646C65 
 2355      64206578 
 2355      63657074 
 2355      696F6E20 
 2356              		.text
 2357 0d3d 90       		.align 2
 2359              	_ZNK12_GLOBAL__N_136TestCheckEqualFailureIncludesDetails7RunImplEv:
 2360              	.LFB1114:
  86:TestChecks.cpp **** {
 2361              		.loc 5 86 0
 2362              		.cfi_startproc
 2363              		.cfi_personality 0x3,__gxx_personality_v0
 2364              		.cfi_lsda 0x3,.LLSDA1114
 2365 0d3e 55       		pushq	%rbp
 2366              		.cfi_def_cfa_offset 16
 2367              		.cfi_offset 6, -16
 2368 0d3f 4889E5   		movq	%rsp, %rbp
 2369              		.cfi_def_cfa_register 6
 2370 0d42 53       		pushq	%rbx
 2371 0d43 4881ECC8 		subq	$2248, %rsp
 2371      080000
 2372              		.cfi_offset 3, -24
 2373 0d4a 4889BD38 		movq	%rdi, -2248(%rbp)
 2373      F7FFFF
 2374              		.loc 5 86 0
 2375 0d51 64488B04 		movq	%fs:40, %rax
 2375      25280000 
 2375      00
 2376 0d5a 488945E8 		movq	%rax, -24(%rbp)
 2377 0d5e 31C0     		xorl	%eax, %eax
  87:TestChecks.cpp ****     RecordingReporter reporter;
 2378              		.loc 5 87 0
 2379 0d60 488D85B0 		leaq	-2128(%rbp), %rax
 2379      F7FFFF
 2380 0d67 4889C7   		movq	%rax, %rdi
 2381 0d6a E8000000 		call	_ZN17RecordingReporterC1Ev
 2381      00
  88:TestChecks.cpp ****     TestResults results(&reporter);
 2382              		.loc 5 88 0
 2383 0d6f 488D95B0 		leaq	-2128(%rbp), %rdx
 2383      F7FFFF
 2384 0d76 488D8550 		leaq	-2224(%rbp), %rax
 2384      F7FFFF
 2385 0d7d 4889D6   		movq	%rdx, %rsi
 2386 0d80 4889C7   		movq	%rax, %rdi
 2387              	.LEHB54:
 2388 0d83 E8000000 		call	_ZN8UnitTest11TestResultsC1EPNS_12TestReporterE
 2388      00
  89:TestChecks.cpp ****     TestDetails const details("mytest", "mysuite", "file.h", 101);
 2389              		.loc 5 89 0
 2390 0d88 488D8570 		leaq	-2192(%rbp), %rax
 2390      F7FFFF
 2391 0d8f 41B86500 		movl	$101, %r8d
 2391      0000
 2392 0d95 B9000000 		movl	$.LC23, %ecx
 2392      00
 2393 0d9a BA000000 		movl	$.LC24, %edx
 2393      00
 2394 0d9f BE000000 		movl	$.LC25, %esi
 2394      00
 2395 0da4 4889C7   		movq	%rax, %rdi
 2396 0da7 E8000000 		call	_ZN8UnitTest11TestDetailsC1EPKcS2_S2_i
 2396      00
  90:TestChecks.cpp **** 
  91:TestChecks.cpp ****     CheckEqual(results, 1, 2, details);
 2397              		.loc 5 91 0
 2398 0dac C78590F7 		movl	$2, -2160(%rbp)
 2398      FFFF0200 
 2398      0000
 2399 0db6 C7854CF7 		movl	$1, -2228(%rbp)
 2399      FFFF0100 
 2399      0000
 2400 0dc0 488D8D70 		leaq	-2192(%rbp), %rcx
 2400      F7FFFF
 2401 0dc7 488D9590 		leaq	-2160(%rbp), %rdx
 2401      F7FFFF
 2402 0dce 488DB54C 		leaq	-2228(%rbp), %rsi
 2402      F7FFFF
 2403 0dd5 488D8550 		leaq	-2224(%rbp), %rax
 2403      F7FFFF
 2404 0ddc 4889C7   		movq	%rax, %rdi
 2405 0ddf E8000000 		call	_ZN8UnitTest10CheckEqualIiiEEvRNS_11TestResultsERKT_RKT0_RKNS_11TestDetailsE
 2405      00
 2406              	.LEHE54:
 2407              	.LEHB55:
  92:TestChecks.cpp **** 
  93:TestChecks.cpp ****     CHECK_EQUAL("mytest", reporter.lastFailedTest);
 2408              		.loc 5 93 0 discriminator 2
 2409 0de4 E8000000 		call	_ZN8UnitTest11CurrentTest7DetailsEv
 2409      00
 2410 0de9 488B08   		movq	(%rax), %rcx
 2411 0dec 488D8590 		leaq	-2160(%rbp), %rax
 2411      F7FFFF
 2412 0df3 BA5D0000 		movl	$93, %edx
 2412      00
 2413 0df8 4889CE   		movq	%rcx, %rsi
 2414 0dfb 4889C7   		movq	%rax, %rdi
 2415 0dfe E8000000 		call	_ZN8UnitTest11TestDetailsC1ERKS0_i
 2415      00
 2416 0e03 E8000000 		call	_ZN8UnitTest11CurrentTest7ResultsEv
 2416      00
 2417 0e08 488B00   		movq	(%rax), %rax
 2418 0e0b 488D9590 		leaq	-2160(%rbp), %rdx
 2418      F7FFFF
 2419 0e12 488D8DB0 		leaq	-2128(%rbp), %rcx
 2419      F7FFFF
 2420 0e19 488DB114 		leaq	1044(%rcx), %rsi
 2420      040000
 2421 0e20 4889D1   		movq	%rdx, %rcx
 2422 0e23 4889F2   		movq	%rsi, %rdx
 2423 0e26 BE000000 		movl	$.LC25, %esi
 2423      00
 2424 0e2b 4889C7   		movq	%rax, %rdi
 2425 0e2e E8000000 		call	_ZN8UnitTest10CheckEqualERNS_11TestResultsEPKcPcRKNS_11TestDetailsE
 2425      00
 2426              	.LEHE55:
 2427              	.L103:
 2428              	.LEHB56:
  94:TestChecks.cpp ****     CHECK_EQUAL("mysuite", reporter.lastFailedSuite);
 2429              		.loc 5 94 0
 2430 0e33 E8000000 		call	_ZN8UnitTest11CurrentTest7DetailsEv
 2430      00
 2431 0e38 488B08   		movq	(%rax), %rcx
 2432 0e3b 488D8590 		leaq	-2160(%rbp), %rax
 2432      F7FFFF
 2433 0e42 BA5E0000 		movl	$94, %edx
 2433      00
 2434 0e47 4889CE   		movq	%rcx, %rsi
 2435 0e4a 4889C7   		movq	%rax, %rdi
 2436 0e4d E8000000 		call	_ZN8UnitTest11TestDetailsC1ERKS0_i
 2436      00
 2437              		.loc 5 94 0 is_stmt 0 discriminator 2
 2438 0e52 E8000000 		call	_ZN8UnitTest11CurrentTest7ResultsEv
 2438      00
 2439 0e57 488B00   		movq	(%rax), %rax
 2440 0e5a 488D9590 		leaq	-2160(%rbp), %rdx
 2440      F7FFFF
 2441 0e61 488D8DB0 		leaq	-2128(%rbp), %rcx
 2441      F7FFFF
 2442 0e68 488DB114 		leaq	788(%rcx), %rsi
 2442      030000
 2443 0e6f 4889D1   		movq	%rdx, %rcx
 2444 0e72 4889F2   		movq	%rsi, %rdx
 2445 0e75 BE000000 		movl	$.LC24, %esi
 2445      00
 2446 0e7a 4889C7   		movq	%rax, %rdi
 2447 0e7d E8000000 		call	_ZN8UnitTest10CheckEqualERNS_11TestResultsEPKcPcRKNS_11TestDetailsE
 2447      00
 2448              	.LEHE56:
 2449              	.L107:
 2450              	.LEHB57:
  95:TestChecks.cpp ****     CHECK_EQUAL("file.h", reporter.lastFailedFile);
 2451              		.loc 5 95 0 is_stmt 1
 2452 0e82 E8000000 		call	_ZN8UnitTest11CurrentTest7DetailsEv
 2452      00
 2453 0e87 488B08   		movq	(%rax), %rcx
 2454 0e8a 488D8590 		leaq	-2160(%rbp), %rax
 2454      F7FFFF
 2455 0e91 BA5F0000 		movl	$95, %edx
 2455      00
 2456 0e96 4889CE   		movq	%rcx, %rsi
 2457 0e99 4889C7   		movq	%rax, %rdi
 2458 0e9c E8000000 		call	_ZN8UnitTest11TestDetailsC1ERKS0_i
 2458      00
 2459              		.loc 5 95 0 is_stmt 0 discriminator 2
 2460 0ea1 E8000000 		call	_ZN8UnitTest11CurrentTest7ResultsEv
 2460      00
 2461 0ea6 488B00   		movq	(%rax), %rax
 2462 0ea9 488D9590 		leaq	-2160(%rbp), %rdx
 2462      F7FFFF
 2463 0eb0 488D8DB0 		leaq	-2128(%rbp), %rcx
 2463      F7FFFF
 2464 0eb7 488DB110 		leaq	528(%rcx), %rsi
 2464      020000
 2465 0ebe 4889D1   		movq	%rdx, %rcx
 2466 0ec1 4889F2   		movq	%rsi, %rdx
 2467 0ec4 BE000000 		movl	$.LC23, %esi
 2467      00
 2468 0ec9 4889C7   		movq	%rax, %rdi
 2469 0ecc E8000000 		call	_ZN8UnitTest10CheckEqualERNS_11TestResultsEPKcPcRKNS_11TestDetailsE
 2469      00
 2470              	.LEHE57:
 2471              	.L110:
 2472              	.LEHB58:
  96:TestChecks.cpp ****     CHECK_EQUAL(101, reporter.lastFailedLine);
 2473              		.loc 5 96 0 is_stmt 1
 2474 0ed1 E8000000 		call	_ZN8UnitTest11CurrentTest7DetailsEv
 2474      00
 2475 0ed6 488B08   		movq	(%rax), %rcx
 2476 0ed9 488D8590 		leaq	-2160(%rbp), %rax
 2476      F7FFFF
 2477 0ee0 BA600000 		movl	$96, %edx
 2477      00
 2478 0ee5 4889CE   		movq	%rcx, %rsi
 2479 0ee8 4889C7   		movq	%rax, %rdi
 2480 0eeb E8000000 		call	_ZN8UnitTest11TestDetailsC1ERKS0_i
 2480      00
 2481              	.LEHE58:
 2482              		.loc 5 96 0 is_stmt 0 discriminator 2
 2483 0ef0 C7854CF7 		movl	$101, -2228(%rbp)
 2483      FFFF6500 
 2483      0000
 2484              	.LEHB59:
 2485 0efa E8000000 		call	_ZN8UnitTest11CurrentTest7ResultsEv
 2485      00
 2486 0eff 488B00   		movq	(%rax), %rax
 2487 0f02 488D9590 		leaq	-2160(%rbp), %rdx
 2487      F7FFFF
 2488 0f09 488D8DB0 		leaq	-2128(%rbp), %rcx
 2488      F7FFFF
 2489 0f10 488DB910 		leaq	784(%rcx), %rdi
 2489      030000
 2490 0f17 488DB54C 		leaq	-2228(%rbp), %rsi
 2490      F7FFFF
 2491 0f1e 4889D1   		movq	%rdx, %rcx
 2492 0f21 4889FA   		movq	%rdi, %rdx
 2493 0f24 4889C7   		movq	%rax, %rdi
 2494 0f27 E8000000 		call	_ZN8UnitTest10CheckEqualIiiEEvRNS_11TestResultsERKT_RKT0_RKNS_11TestDetailsE
 2494      00
 2495              	.LEHE59:
 2496              	.L114:
  87:TestChecks.cpp ****     TestResults results(&reporter);
 2497              		.loc 5 87 0 is_stmt 1
 2498 0f2c 488D85B0 		leaq	-2128(%rbp), %rax
 2498      F7FFFF
 2499 0f33 4889C7   		movq	%rax, %rdi
 2500              	.LEHB60:
 2501 0f36 E8000000 		call	_ZN17RecordingReporterD1Ev
 2501      00
 2502              	.LEHE60:
  97:TestChecks.cpp **** }
 2503              		.loc 5 97 0
 2504 0f3b 90       		nop
 2505 0f3c 488B45E8 		movq	-24(%rbp), %rax
 2506 0f40 64483304 		xorq	%fs:40, %rax
 2506      25280000 
 2506      00
 2507 0f49 0F849701 		je	.L116
 2507      0000
 2508 0f4f E98D0100 		jmp	.L127
 2508      00
 2509              	.L118:
  93:TestChecks.cpp ****     CHECK_EQUAL("mysuite", reporter.lastFailedSuite);
 2510              		.loc 5 93 0
 2511 0f54 4889C7   		movq	%rax, %rdi
 2512 0f57 E8000000 		call	__cxa_begin_catch
 2512      00
 2513              	.LEHB61:
 2514 0f5c E8000000 		call	_ZN8UnitTest11CurrentTest7DetailsEv
 2514      00
 2515 0f61 488B08   		movq	(%rax), %rcx
 2516 0f64 488D8590 		leaq	-2160(%rbp), %rax
 2516      F7FFFF
 2517 0f6b BA5D0000 		movl	$93, %edx
 2517      00
 2518 0f70 4889CE   		movq	%rcx, %rsi
 2519 0f73 4889C7   		movq	%rax, %rdi
 2520 0f76 E8000000 		call	_ZN8UnitTest11TestDetailsC1ERKS0_i
 2520      00
  93:TestChecks.cpp ****     CHECK_EQUAL("mysuite", reporter.lastFailedSuite);
 2521              		.loc 5 93 0 is_stmt 0 discriminator 10
 2522 0f7b E8000000 		call	_ZN8UnitTest11CurrentTest7ResultsEv
 2522      00
 2523 0f80 488B00   		movq	(%rax), %rax
 2524 0f83 488D8D90 		leaq	-2160(%rbp), %rcx
 2524      F7FFFF
 2525 0f8a BA000000 		movl	$.LC26, %edx
 2525      00
 2526 0f8f 4889CE   		movq	%rcx, %rsi
 2527 0f92 4889C7   		movq	%rax, %rdi
 2528 0f95 E8000000 		call	_ZN8UnitTest11TestResults13OnTestFailureERKNS_11TestDetailsEPKc
 2528      00
 2529              	.LEHE61:
 2530              	.LEHB62:
  93:TestChecks.cpp ****     CHECK_EQUAL("mysuite", reporter.lastFailedSuite);
 2531              		.loc 5 93 0 discriminator 14
 2532 0f9a E8000000 		call	__cxa_end_catch
 2532      00
 2533              	.LEHE62:
  93:TestChecks.cpp ****     CHECK_EQUAL("mysuite", reporter.lastFailedSuite);
 2534              		.loc 5 93 0
 2535 0f9f E98FFEFF 		jmp	.L103
 2535      FF
 2536              	.L119:
 2537 0fa4 4889C3   		movq	%rax, %rbx
 2538 0fa7 E8000000 		call	__cxa_end_catch
 2538      00
 2539 0fac E9160100 		jmp	.L105
 2539      00
 2540              	.L120:
  94:TestChecks.cpp ****     CHECK_EQUAL("file.h", reporter.lastFailedFile);
 2541              		.loc 5 94 0 is_stmt 1
 2542 0fb1 4889C7   		movq	%rax, %rdi
 2543 0fb4 E8000000 		call	__cxa_begin_catch
 2543      00
 2544              	.LEHB63:
 2545 0fb9 E8000000 		call	_ZN8UnitTest11CurrentTest7DetailsEv
 2545      00
 2546 0fbe 488B08   		movq	(%rax), %rcx
 2547 0fc1 488D8590 		leaq	-2160(%rbp), %rax
 2547      F7FFFF
 2548 0fc8 BA5E0000 		movl	$94, %edx
 2548      00
 2549 0fcd 4889CE   		movq	%rcx, %rsi
 2550 0fd0 4889C7   		movq	%rax, %rdi
 2551 0fd3 E8000000 		call	_ZN8UnitTest11TestDetailsC1ERKS0_i
 2551      00
  94:TestChecks.cpp ****     CHECK_EQUAL("file.h", reporter.lastFailedFile);
 2552              		.loc 5 94 0 is_stmt 0 discriminator 10
 2553 0fd8 E8000000 		call	_ZN8UnitTest11CurrentTest7ResultsEv
 2553      00
 2554 0fdd 488B00   		movq	(%rax), %rax
 2555 0fe0 488D8D90 		leaq	-2160(%rbp), %rcx
 2555      F7FFFF
 2556 0fe7 BA000000 		movl	$.LC27, %edx
 2556      00
 2557 0fec 4889CE   		movq	%rcx, %rsi
 2558 0fef 4889C7   		movq	%rax, %rdi
 2559 0ff2 E8000000 		call	_ZN8UnitTest11TestResults13OnTestFailureERKNS_11TestDetailsEPKc
 2559      00
 2560              	.LEHE63:
 2561              	.LEHB64:
  94:TestChecks.cpp ****     CHECK_EQUAL("file.h", reporter.lastFailedFile);
 2562              		.loc 5 94 0 discriminator 14
 2563 0ff7 E8000000 		call	__cxa_end_catch
 2563      00
 2564              	.LEHE64:
  94:TestChecks.cpp ****     CHECK_EQUAL("file.h", reporter.lastFailedFile);
 2565              		.loc 5 94 0
 2566 0ffc E981FEFF 		jmp	.L107
 2566      FF
 2567              	.L121:
 2568 1001 4889C3   		movq	%rax, %rbx
 2569 1004 E8000000 		call	__cxa_end_catch
 2569      00
 2570 1009 E9B90000 		jmp	.L105
 2570      00
 2571              	.L122:
  95:TestChecks.cpp ****     CHECK_EQUAL(101, reporter.lastFailedLine);
 2572              		.loc 5 95 0 is_stmt 1
 2573 100e 4889C7   		movq	%rax, %rdi
 2574 1011 E8000000 		call	__cxa_begin_catch
 2574      00
 2575              	.LEHB65:
 2576 1016 E8000000 		call	_ZN8UnitTest11CurrentTest7DetailsEv
 2576      00
 2577 101b 488B08   		movq	(%rax), %rcx
 2578 101e 488D8590 		leaq	-2160(%rbp), %rax
 2578      F7FFFF
 2579 1025 BA5F0000 		movl	$95, %edx
 2579      00
 2580 102a 4889CE   		movq	%rcx, %rsi
 2581 102d 4889C7   		movq	%rax, %rdi
 2582 1030 E8000000 		call	_ZN8UnitTest11TestDetailsC1ERKS0_i
 2582      00
  95:TestChecks.cpp ****     CHECK_EQUAL(101, reporter.lastFailedLine);
 2583              		.loc 5 95 0 is_stmt 0 discriminator 10
 2584 1035 E8000000 		call	_ZN8UnitTest11CurrentTest7ResultsEv
 2584      00
 2585 103a 488B00   		movq	(%rax), %rax
 2586 103d 488D8D90 		leaq	-2160(%rbp), %rcx
 2586      F7FFFF
 2587 1044 BA000000 		movl	$.LC28, %edx
 2587      00
 2588 1049 4889CE   		movq	%rcx, %rsi
 2589 104c 4889C7   		movq	%rax, %rdi
 2590 104f E8000000 		call	_ZN8UnitTest11TestResults13OnTestFailureERKNS_11TestDetailsEPKc
 2590      00
 2591              	.LEHE65:
 2592              	.LEHB66:
  95:TestChecks.cpp ****     CHECK_EQUAL(101, reporter.lastFailedLine);
 2593              		.loc 5 95 0 discriminator 14
 2594 1054 E8000000 		call	__cxa_end_catch
 2594      00
 2595              	.LEHE66:
  95:TestChecks.cpp ****     CHECK_EQUAL(101, reporter.lastFailedLine);
 2596              		.loc 5 95 0
 2597 1059 E973FEFF 		jmp	.L110
 2597      FF
 2598              	.L123:
 2599 105e 4889C3   		movq	%rax, %rbx
 2600 1061 E8000000 		call	__cxa_end_catch
 2600      00
 2601 1066 EB5F     		jmp	.L105
 2602              	.L125:
 2603 1068 EB00     		jmp	.L113
 2604              	.L124:
 2605              	.L113:
  96:TestChecks.cpp **** }
 2606              		.loc 5 96 0 is_stmt 1
 2607 106a 4889C7   		movq	%rax, %rdi
 2608 106d E8000000 		call	__cxa_begin_catch
 2608      00
 2609              	.LEHB67:
 2610 1072 E8000000 		call	_ZN8UnitTest11CurrentTest7DetailsEv
 2610      00
 2611 1077 488B08   		movq	(%rax), %rcx
 2612 107a 488D8590 		leaq	-2160(%rbp), %rax
 2612      F7FFFF
 2613 1081 BA600000 		movl	$96, %edx
 2613      00
 2614 1086 4889CE   		movq	%rcx, %rsi
 2615 1089 4889C7   		movq	%rax, %rdi
 2616 108c E8000000 		call	_ZN8UnitTest11TestDetailsC1ERKS0_i
 2616      00
  96:TestChecks.cpp **** }
 2617              		.loc 5 96 0 is_stmt 0 discriminator 10
 2618 1091 E8000000 		call	_ZN8UnitTest11CurrentTest7ResultsEv
 2618      00
 2619 1096 488B00   		movq	(%rax), %rax
 2620 1099 488D8D90 		leaq	-2160(%rbp), %rcx
 2620      F7FFFF
 2621 10a0 BA000000 		movl	$.LC29, %edx
 2621      00
 2622 10a5 4889CE   		movq	%rcx, %rsi
 2623 10a8 4889C7   		movq	%rax, %rdi
 2624 10ab E8000000 		call	_ZN8UnitTest11TestResults13OnTestFailureERKNS_11TestDetailsEPKc
 2624      00
 2625              	.LEHE67:
 2626              	.LEHB68:
  96:TestChecks.cpp **** }
 2627              		.loc 5 96 0 discriminator 14
 2628 10b0 E8000000 		call	__cxa_end_catch
 2628      00
 2629              	.LEHE68:
  96:TestChecks.cpp **** }
 2630              		.loc 5 96 0
 2631 10b5 E972FEFF 		jmp	.L114
 2631      FF
 2632              	.L126:
 2633 10ba 4889C3   		movq	%rax, %rbx
 2634 10bd E8000000 		call	__cxa_end_catch
 2634      00
 2635 10c2 EB03     		jmp	.L105
 2636              	.L117:
 2637 10c4 4889C3   		movq	%rax, %rbx
 2638              	.L105:
  87:TestChecks.cpp ****     TestResults results(&reporter);
 2639              		.loc 5 87 0 is_stmt 1
 2640 10c7 488D85B0 		leaq	-2128(%rbp), %rax
 2640      F7FFFF
 2641 10ce 4889C7   		movq	%rax, %rdi
 2642 10d1 E8000000 		call	_ZN17RecordingReporterD1Ev
 2642      00
 2643 10d6 4889D8   		movq	%rbx, %rax
 2644 10d9 4889C7   		movq	%rax, %rdi
 2645              	.LEHB69:
 2646 10dc E8000000 		call	_Unwind_Resume
 2646      00
 2647              	.LEHE69:
 2648              	.L127:
 2649              		.loc 5 97 0
 2650 10e1 E8000000 		call	__stack_chk_fail
 2650      00
 2651              	.L116:
 2652 10e6 4881C4C8 		addq	$2248, %rsp
 2652      080000
 2653 10ed 5B       		popq	%rbx
 2654 10ee 5D       		popq	%rbp
 2655              		.cfi_def_cfa 7, 8
 2656 10ef C3       		ret
 2657              		.cfi_endproc
 2658              	.LFE1114:
 2659              		.section	.gcc_except_table
 2660              		.align 4
 2661              	.LLSDA1114:
 2662 0170 FF       		.byte	0xff
 2663 0171 03       		.byte	0x3
 2664 0172 65       		.uleb128 .LLSDATT1114-.LLSDATTD1114
 2665              	.LLSDATTD1114:
 2666 0173 01       		.byte	0x1
 2667 0174 5D       		.uleb128 .LLSDACSE1114-.LLSDACSB1114
 2668              	.LLSDACSB1114:
 2669 0175 45       		.uleb128 .LEHB54-.LFB1114
 2670 0176 61       		.uleb128 .LEHE54-.LEHB54
 2671 0177 8607     		.uleb128 .L117-.LFB1114
 2672 0179 00       		.uleb128 0
 2673 017a A601     		.uleb128 .LEHB55-.LFB1114
 2674 017c 4F       		.uleb128 .LEHE55-.LEHB55
 2675 017d 9604     		.uleb128 .L118-.LFB1114
 2676 017f 01       		.uleb128 0x1
 2677 0180 F501     		.uleb128 .LEHB56-.LFB1114
 2678 0182 4F       		.uleb128 .LEHE56-.LEHB56
 2679 0183 F304     		.uleb128 .L120-.LFB1114
 2680 0185 01       		.uleb128 0x1
 2681 0186 C402     		.uleb128 .LEHB57-.LFB1114
 2682 0188 4F       		.uleb128 .LEHE57-.LEHB57
 2683 0189 D005     		.uleb128 .L122-.LFB1114
 2684 018b 01       		.uleb128 0x1
 2685 018c 9303     		.uleb128 .LEHB58-.LFB1114
 2686 018e 1F       		.uleb128 .LEHE58-.LEHB58
 2687 018f AC06     		.uleb128 .L124-.LFB1114
 2688 0191 01       		.uleb128 0x1
 2689 0192 BC03     		.uleb128 .LEHB59-.LFB1114
 2690 0194 32       		.uleb128 .LEHE59-.LEHB59
 2691 0195 AA06     		.uleb128 .L125-.LFB1114
 2692 0197 01       		.uleb128 0x1
 2693 0198 F803     		.uleb128 .LEHB60-.LFB1114
 2694 019a 05       		.uleb128 .LEHE60-.LEHB60
 2695 019b 00       		.uleb128 0
 2696 019c 00       		.uleb128 0
 2697 019d 9E04     		.uleb128 .LEHB61-.LFB1114
 2698 019f 3E       		.uleb128 .LEHE61-.LEHB61
 2699 01a0 E604     		.uleb128 .L119-.LFB1114
 2700 01a2 00       		.uleb128 0
 2701 01a3 DC04     		.uleb128 .LEHB62-.LFB1114
 2702 01a5 05       		.uleb128 .LEHE62-.LEHB62
 2703 01a6 8607     		.uleb128 .L117-.LFB1114
 2704 01a8 00       		.uleb128 0
 2705 01a9 FB04     		.uleb128 .LEHB63-.LFB1114
 2706 01ab 3E       		.uleb128 .LEHE63-.LEHB63
 2707 01ac C305     		.uleb128 .L121-.LFB1114
 2708 01ae 00       		.uleb128 0
 2709 01af B905     		.uleb128 .LEHB64-.LFB1114
 2710 01b1 05       		.uleb128 .LEHE64-.LEHB64
 2711 01b2 8607     		.uleb128 .L117-.LFB1114
 2712 01b4 00       		.uleb128 0
 2713 01b5 D805     		.uleb128 .LEHB65-.LFB1114
 2714 01b7 3E       		.uleb128 .LEHE65-.LEHB65
 2715 01b8 A006     		.uleb128 .L123-.LFB1114
 2716 01ba 00       		.uleb128 0
 2717 01bb 9606     		.uleb128 .LEHB66-.LFB1114
 2718 01bd 05       		.uleb128 .LEHE66-.LEHB66
 2719 01be 8607     		.uleb128 .L117-.LFB1114
 2720 01c0 00       		.uleb128 0
 2721 01c1 B406     		.uleb128 .LEHB67-.LFB1114
 2722 01c3 3E       		.uleb128 .LEHE67-.LEHB67
 2723 01c4 FC06     		.uleb128 .L126-.LFB1114
 2724 01c6 00       		.uleb128 0
 2725 01c7 F206     		.uleb128 .LEHB68-.LFB1114
 2726 01c9 05       		.uleb128 .LEHE68-.LEHB68
 2727 01ca 8607     		.uleb128 .L117-.LFB1114
 2728 01cc 00       		.uleb128 0
 2729 01cd 9E07     		.uleb128 .LEHB69-.LFB1114
 2730 01cf 05       		.uleb128 .LEHE69-.LEHB69
 2731 01d0 00       		.uleb128 0
 2732 01d1 00       		.uleb128 0
 2733              	.LLSDACSE1114:
 2734 01d2 01       		.byte	0x1
 2735 01d3 00       		.byte	0
 2736              		.align 4
 2737 01d4 00000000 		.long	0
 2738              	
 2739              	.LLSDATT1114:
 2740              		.text
 2742              		.section	.rodata
 2743              	.LC30:
 2744 04e1 43686563 		.string	"CheckCloseTrue"
 2744      6B436C6F 
 2744      73655472 
 2744      756500
 2745              		.text
 2746              		.align 2
 2748              	_ZN12_GLOBAL__N_118TestCheckCloseTrueC2Ev:
 2749              	.LFB1116:
  98:TestChecks.cpp **** 
  99:TestChecks.cpp **** TEST(CheckCloseTrue)
 2750              		.loc 5 99 0
 2751              		.cfi_startproc
 2752 10f0 55       		pushq	%rbp
 2753              		.cfi_def_cfa_offset 16
 2754              		.cfi_offset 6, -16
 2755 10f1 4889E5   		movq	%rsp, %rbp
 2756              		.cfi_def_cfa_register 6
 2757 10f4 4883EC10 		subq	$16, %rsp
 2758 10f8 48897DF8 		movq	%rdi, -8(%rbp)
 2759              	.LBB15:
 2760              		.loc 5 99 0
 2761 10fc E8000000 		call	_ZN13UnitTestSuite12GetSuiteNameEv
 2761      00
 2762 1101 4889C2   		movq	%rax, %rdx
 2763 1104 488B45F8 		movq	-8(%rbp), %rax
 2764 1108 41B86300 		movl	$99, %r8d
 2764      0000
 2765 110e B9000000 		movl	$.LC2, %ecx
 2765      00
 2766 1113 BE000000 		movl	$.LC30, %esi
 2766      00
 2767 1118 4889C7   		movq	%rax, %rdi
 2768 111b E8000000 		call	_ZN8UnitTest4TestC2EPKcS2_S2_i
 2768      00
 2769 1120 BA000000 		movl	$_ZTVN12_GLOBAL__N_118TestCheckCloseTrueE+16, %edx
 2769      00
 2770 1125 488B45F8 		movq	-8(%rbp), %rax
 2771 1129 488910   		movq	%rdx, (%rax)
 2772              	.LBE15:
 2773 112c 90       		nop
 2774 112d C9       		leave
 2775              		.cfi_def_cfa 7, 8
 2776 112e C3       		ret
 2777              		.cfi_endproc
 2778              	.LFE1116:
 2780              		.set	_ZN12_GLOBAL__N_118TestCheckCloseTrueC1Ev,_ZN12_GLOBAL__N_118TestCheckCloseTrueC2Ev
 2781              		.local	_ZN12_GLOBAL__N_126testCheckCloseTrueInstanceE
 2782              		.comm	_ZN12_GLOBAL__N_126testCheckCloseTrueInstanceE,56,32
 2783              		.local	_ZN12_GLOBAL__N_119adderCheckCloseTrueE
 2784              		.comm	_ZN12_GLOBAL__N_119adderCheckCloseTrueE,1,1
 2785 112f 90       		.align 2
 2787              	_ZNK12_GLOBAL__N_118TestCheckCloseTrue7RunImplEv:
 2788              	.LFB1118:
 100:TestChecks.cpp **** {
 2789              		.loc 5 100 0
 2790              		.cfi_startproc
 2791              		.cfi_personality 0x3,__gxx_personality_v0
 2792              		.cfi_lsda 0x3,.LLSDA1118
 2793 1130 55       		pushq	%rbp
 2794              		.cfi_def_cfa_offset 16
 2795              		.cfi_offset 6, -16
 2796 1131 4889E5   		movq	%rsp, %rbp
 2797              		.cfi_def_cfa_register 6
 2798 1134 53       		pushq	%rbx
 2799 1135 4883EC78 		subq	$120, %rsp
 2800              		.cfi_offset 3, -24
 2801 1139 48897D88 		movq	%rdi, -120(%rbp)
 2802              		.loc 5 100 0
 2803 113d 64488B04 		movq	%fs:40, %rax
 2803      25280000 
 2803      00
 2804 1146 488945E8 		movq	%rax, -24(%rbp)
 2805 114a 31C0     		xorl	%eax, %eax
 101:TestChecks.cpp ****     TestResults results;
 2806              		.loc 5 101 0
 2807 114c 488D45A0 		leaq	-96(%rbp), %rax
 2808 1150 BE000000 		movl	$0, %esi
 2808      00
 2809 1155 4889C7   		movq	%rax, %rdi
 2810              	.LEHB70:
 2811 1158 E8000000 		call	_ZN8UnitTest11TestResultsC1EPNS_12TestReporterE
 2811      00
 102:TestChecks.cpp ****     CheckClose(results, 3.001f, 3.0f, 0.1f, TestDetails("", "", "", 0));
 2812              		.loc 5 102 0
 2813 115d 488D45C0 		leaq	-64(%rbp), %rax
 2814 1161 41B80000 		movl	$0, %r8d
 2814      0000
 2815 1167 B9000000 		movl	$.LC6, %ecx
 2815      00
 2816 116c BA000000 		movl	$.LC6, %edx
 2816      00
 2817 1171 BE000000 		movl	$.LC6, %esi
 2817      00
 2818 1176 4889C7   		movq	%rax, %rdi
 2819 1179 E8000000 		call	_ZN8UnitTest11TestDetailsC1EPKcS2_S2_i
 2819      00
 2820 117e F30F1005 		movss	.LC31(%rip), %xmm0
 2820      00000000 
 2821 1186 F30F1145 		movss	%xmm0, -100(%rbp)
 2821      9C
 2822 118b F30F1005 		movss	.LC32(%rip), %xmm0
 2822      00000000 
 2823 1193 F30F1145 		movss	%xmm0, -104(%rbp)
 2823      98
 2824 1198 F30F1005 		movss	.LC33(%rip), %xmm0
 2824      00000000 
 2825 11a0 F30F1145 		movss	%xmm0, -108(%rbp)
 2825      94
 2826 11a5 488D7DC0 		leaq	-64(%rbp), %rdi
 2827 11a9 488D4D9C 		leaq	-100(%rbp), %rcx
 2828 11ad 488D5598 		leaq	-104(%rbp), %rdx
 2829 11b1 488D7594 		leaq	-108(%rbp), %rsi
 2830 11b5 488D45A0 		leaq	-96(%rbp), %rax
 2831 11b9 4989F8   		movq	%rdi, %r8
 2832 11bc 4889C7   		movq	%rax, %rdi
 2833 11bf E8000000 		call	_ZN8UnitTest10CheckCloseIfffEEvRNS_11TestResultsERKT_RKT0_RKT1_RKNS_11TestDetailsE
 2833      00
 2834              	.LEHE70:
 2835              	.LEHB71:
 103:TestChecks.cpp ****     CHECK_EQUAL(0, results.GetFailureCount());
 2836              		.loc 5 103 0
 2837 11c4 E8000000 		call	_ZN8UnitTest11CurrentTest7DetailsEv
 2837      00
 2838 11c9 488B08   		movq	(%rax), %rcx
 2839 11cc 488D45C0 		leaq	-64(%rbp), %rax
 2840 11d0 BA670000 		movl	$103, %edx
 2840      00
 2841 11d5 4889CE   		movq	%rcx, %rsi
 2842 11d8 4889C7   		movq	%rax, %rdi
 2843 11db E8000000 		call	_ZN8UnitTest11TestDetailsC1ERKS0_i
 2843      00
 2844              		.loc 5 103 0 is_stmt 0 discriminator 2
 2845 11e0 488D45A0 		leaq	-96(%rbp), %rax
 2846 11e4 4889C7   		movq	%rax, %rdi
 2847 11e7 E8000000 		call	_ZNK8UnitTest11TestResults15GetFailureCountEv
 2847      00
 2848              	.LEHE71:
 2849 11ec 89459C   		movl	%eax, -100(%rbp)
 2850 11ef C7459800 		movl	$0, -104(%rbp)
 2850      000000
 2851              	.LEHB72:
 2852 11f6 E8000000 		call	_ZN8UnitTest11CurrentTest7ResultsEv
 2852      00
 2853              		.loc 5 103 0 discriminator 4
 2854 11fb 488B00   		movq	(%rax), %rax
 2855 11fe 488D4DC0 		leaq	-64(%rbp), %rcx
 2856 1202 488D559C 		leaq	-100(%rbp), %rdx
 2857 1206 488D7598 		leaq	-104(%rbp), %rsi
 2858 120a 4889C7   		movq	%rax, %rdi
 2859 120d E8000000 		call	_ZN8UnitTest10CheckEqualIiiEEvRNS_11TestResultsERKT_RKT0_RKNS_11TestDetailsE
 2859      00
 2860              	.LEHE72:
 104:TestChecks.cpp **** }
 2861              		.loc 5 104 0 is_stmt 1
 2862 1212 EB5C     		jmp	.L129
 2863              	.L136:
 2864 1214 EB00     		jmp	.L131
 2865              	.L135:
 2866              	.L131:
 103:TestChecks.cpp ****     CHECK_EQUAL(0, results.GetFailureCount());
 2867              		.loc 5 103 0
 2868 1216 4889C7   		movq	%rax, %rdi
 2869 1219 E8000000 		call	__cxa_begin_catch
 2869      00
 2870              	.LEHB73:
 2871 121e E8000000 		call	_ZN8UnitTest11CurrentTest7DetailsEv
 2871      00
 2872 1223 488B08   		movq	(%rax), %rcx
 2873 1226 488D45C0 		leaq	-64(%rbp), %rax
 2874 122a BA670000 		movl	$103, %edx
 2874      00
 2875 122f 4889CE   		movq	%rcx, %rsi
 2876 1232 4889C7   		movq	%rax, %rdi
 2877 1235 E8000000 		call	_ZN8UnitTest11TestDetailsC1ERKS0_i
 2877      00
 103:TestChecks.cpp ****     CHECK_EQUAL(0, results.GetFailureCount());
 2878              		.loc 5 103 0 is_stmt 0 discriminator 12
 2879 123a E8000000 		call	_ZN8UnitTest11CurrentTest7ResultsEv
 2879      00
 2880 123f 488B00   		movq	(%rax), %rax
 2881 1242 488D4DC0 		leaq	-64(%rbp), %rcx
 2882 1246 BA000000 		movl	$.LC9, %edx
 2882      00
 2883 124b 4889CE   		movq	%rcx, %rsi
 2884 124e 4889C7   		movq	%rax, %rdi
 2885 1251 E8000000 		call	_ZN8UnitTest11TestResults13OnTestFailureERKNS_11TestDetailsEPKc
 2885      00
 2886              	.LEHE73:
 2887              	.LEHB74:
 103:TestChecks.cpp ****     CHECK_EQUAL(0, results.GetFailureCount());
 2888              		.loc 5 103 0 discriminator 16
 2889 1256 E8000000 		call	__cxa_end_catch
 2889      00
 2890              	.LEHE74:
 2891              		.loc 5 104 0 is_stmt 1 discriminator 16
 2892 125b EB13     		jmp	.L129
 2893              	.L137:
 2894 125d 4889C3   		movq	%rax, %rbx
 103:TestChecks.cpp ****     CHECK_EQUAL(0, results.GetFailureCount());
 2895              		.loc 5 103 0
 2896 1260 E8000000 		call	__cxa_end_catch
 2896      00
 2897 1265 4889D8   		movq	%rbx, %rax
 2898 1268 4889C7   		movq	%rax, %rdi
 2899              	.LEHB75:
 2900 126b E8000000 		call	_Unwind_Resume
 2900      00
 2901              	.LEHE75:
 2902              	.L129:
 2903              		.loc 5 104 0
 2904 1270 488B45E8 		movq	-24(%rbp), %rax
 2905 1274 64483304 		xorq	%fs:40, %rax
 2905      25280000 
 2905      00
 2906 127d 7405     		je	.L134
 2907 127f E8000000 		call	__stack_chk_fail
 2907      00
 2908              	.L134:
 2909 1284 4883C478 		addq	$120, %rsp
 2910 1288 5B       		popq	%rbx
 2911 1289 5D       		popq	%rbp
 2912              		.cfi_def_cfa 7, 8
 2913 128a C3       		ret
 2914              		.cfi_endproc
 2915              	.LFE1118:
 2916              		.section	.gcc_except_table
 2917              		.align 4
 2918              	.LLSDA1118:
 2919 01d8 FF       		.byte	0xff
 2920 01d9 03       		.byte	0x3
 2921 01da 2D       		.uleb128 .LLSDATT1118-.LLSDATTD1118
 2922              	.LLSDATTD1118:
 2923 01db 01       		.byte	0x1
 2924 01dc 20       		.uleb128 .LLSDACSE1118-.LLSDACSB1118
 2925              	.LLSDACSB1118:
 2926 01dd 28       		.uleb128 .LEHB70-.LFB1118
 2927 01de 6C       		.uleb128 .LEHE70-.LEHB70
 2928 01df 00       		.uleb128 0
 2929 01e0 00       		.uleb128 0
 2930 01e1 9401     		.uleb128 .LEHB71-.LFB1118
 2931 01e3 28       		.uleb128 .LEHE71-.LEHB71
 2932 01e4 E601     		.uleb128 .L135-.LFB1118
 2933 01e6 01       		.uleb128 0x1
 2934 01e7 C601     		.uleb128 .LEHB72-.LFB1118
 2935 01e9 1C       		.uleb128 .LEHE72-.LEHB72
 2936 01ea E401     		.uleb128 .L136-.LFB1118
 2937 01ec 03       		.uleb128 0x3
 2938 01ed EE01     		.uleb128 .LEHB73-.LFB1118
 2939 01ef 38       		.uleb128 .LEHE73-.LEHB73
 2940 01f0 AD02     		.uleb128 .L137-.LFB1118
 2941 01f2 00       		.uleb128 0
 2942 01f3 A602     		.uleb128 .LEHB74-.LFB1118
 2943 01f5 05       		.uleb128 .LEHE74-.LEHB74
 2944 01f6 00       		.uleb128 0
 2945 01f7 00       		.uleb128 0
 2946 01f8 BB02     		.uleb128 .LEHB75-.LFB1118
 2947 01fa 05       		.uleb128 .LEHE75-.LEHB75
 2948 01fb 00       		.uleb128 0
 2949 01fc 00       		.uleb128 0
 2950              	.LLSDACSE1118:
 2951 01fd 01       		.byte	0x1
 2952 01fe 00       		.byte	0
 2953 01ff 00       		.byte	0
 2954 0200 7D       		.byte	0x7d
 2955 0201 000000   		.align 4
 2956 0204 00000000 		.long	0
 2957              	
 2958              	.LLSDATT1118:
 2959              		.text
 2961              		.section	.rodata
 2962              	.LC34:
 2963 04f0 43686563 		.string	"CheckCloseFalse"
 2963      6B436C6F 
 2963      73654661 
 2963      6C736500 
 2964              		.text
 2965 128b 90       		.align 2
 2967              	_ZN12_GLOBAL__N_119TestCheckCloseFalseC2Ev:
 2968              	.LFB1120:
 105:TestChecks.cpp **** 
 106:TestChecks.cpp **** TEST(CheckCloseFalse)
 2969              		.loc 5 106 0
 2970              		.cfi_startproc
 2971 128c 55       		pushq	%rbp
 2972              		.cfi_def_cfa_offset 16
 2973              		.cfi_offset 6, -16
 2974 128d 4889E5   		movq	%rsp, %rbp
 2975              		.cfi_def_cfa_register 6
 2976 1290 4883EC10 		subq	$16, %rsp
 2977 1294 48897DF8 		movq	%rdi, -8(%rbp)
 2978              	.LBB16:
 2979              		.loc 5 106 0
 2980 1298 E8000000 		call	_ZN13UnitTestSuite12GetSuiteNameEv
 2980      00
 2981 129d 4889C2   		movq	%rax, %rdx
 2982 12a0 488B45F8 		movq	-8(%rbp), %rax
 2983 12a4 41B86A00 		movl	$106, %r8d
 2983      0000
 2984 12aa B9000000 		movl	$.LC2, %ecx
 2984      00
 2985 12af BE000000 		movl	$.LC34, %esi
 2985      00
 2986 12b4 4889C7   		movq	%rax, %rdi
 2987 12b7 E8000000 		call	_ZN8UnitTest4TestC2EPKcS2_S2_i
 2987      00
 2988 12bc BA000000 		movl	$_ZTVN12_GLOBAL__N_119TestCheckCloseFalseE+16, %edx
 2988      00
 2989 12c1 488B45F8 		movq	-8(%rbp), %rax
 2990 12c5 488910   		movq	%rdx, (%rax)
 2991              	.LBE16:
 2992 12c8 90       		nop
 2993 12c9 C9       		leave
 2994              		.cfi_def_cfa 7, 8
 2995 12ca C3       		ret
 2996              		.cfi_endproc
 2997              	.LFE1120:
 2999              		.set	_ZN12_GLOBAL__N_119TestCheckCloseFalseC1Ev,_ZN12_GLOBAL__N_119TestCheckCloseFalseC2Ev
 3000              		.local	_ZN12_GLOBAL__N_127testCheckCloseFalseInstanceE
 3001              		.comm	_ZN12_GLOBAL__N_127testCheckCloseFalseInstanceE,56,32
 3002              		.local	_ZN12_GLOBAL__N_120adderCheckCloseFalseE
 3003              		.comm	_ZN12_GLOBAL__N_120adderCheckCloseFalseE,1,1
 3004 12cb 90       		.align 2
 3006              	_ZNK12_GLOBAL__N_119TestCheckCloseFalse7RunImplEv:
 3007              	.LFB1122:
 107:TestChecks.cpp **** {
 3008              		.loc 5 107 0
 3009              		.cfi_startproc
 3010              		.cfi_personality 0x3,__gxx_personality_v0
 3011              		.cfi_lsda 0x3,.LLSDA1122
 3012 12cc 55       		pushq	%rbp
 3013              		.cfi_def_cfa_offset 16
 3014              		.cfi_offset 6, -16
 3015 12cd 4889E5   		movq	%rsp, %rbp
 3016              		.cfi_def_cfa_register 6
 3017 12d0 53       		pushq	%rbx
 3018 12d1 4883EC78 		subq	$120, %rsp
 3019              		.cfi_offset 3, -24
 3020 12d5 48897D88 		movq	%rdi, -120(%rbp)
 3021              		.loc 5 107 0
 3022 12d9 64488B04 		movq	%fs:40, %rax
 3022      25280000 
 3022      00
 3023 12e2 488945E8 		movq	%rax, -24(%rbp)
 3024 12e6 31C0     		xorl	%eax, %eax
 108:TestChecks.cpp ****     TestResults results;
 3025              		.loc 5 108 0
 3026 12e8 488D45A0 		leaq	-96(%rbp), %rax
 3027 12ec BE000000 		movl	$0, %esi
 3027      00
 3028 12f1 4889C7   		movq	%rax, %rdi
 3029              	.LEHB76:
 3030 12f4 E8000000 		call	_ZN8UnitTest11TestResultsC1EPNS_12TestReporterE
 3030      00
 109:TestChecks.cpp ****     CheckClose(results, 3.12f, 3.0f, 0.1f, TestDetails("", "", "", 0));
 3031              		.loc 5 109 0
 3032 12f9 488D45C0 		leaq	-64(%rbp), %rax
 3033 12fd 41B80000 		movl	$0, %r8d
 3033      0000
 3034 1303 B9000000 		movl	$.LC6, %ecx
 3034      00
 3035 1308 BA000000 		movl	$.LC6, %edx
 3035      00
 3036 130d BE000000 		movl	$.LC6, %esi
 3036      00
 3037 1312 4889C7   		movq	%rax, %rdi
 3038 1315 E8000000 		call	_ZN8UnitTest11TestDetailsC1EPKcS2_S2_i
 3038      00
 3039 131a F30F1005 		movss	.LC31(%rip), %xmm0
 3039      00000000 
 3040 1322 F30F1145 		movss	%xmm0, -100(%rbp)
 3040      9C
 3041 1327 F30F1005 		movss	.LC32(%rip), %xmm0
 3041      00000000 
 3042 132f F30F1145 		movss	%xmm0, -104(%rbp)
 3042      98
 3043 1334 F30F1005 		movss	.LC35(%rip), %xmm0
 3043      00000000 
 3044 133c F30F1145 		movss	%xmm0, -108(%rbp)
 3044      94
 3045 1341 488D7DC0 		leaq	-64(%rbp), %rdi
 3046 1345 488D4D9C 		leaq	-100(%rbp), %rcx
 3047 1349 488D5598 		leaq	-104(%rbp), %rdx
 3048 134d 488D7594 		leaq	-108(%rbp), %rsi
 3049 1351 488D45A0 		leaq	-96(%rbp), %rax
 3050 1355 4989F8   		movq	%rdi, %r8
 3051 1358 4889C7   		movq	%rax, %rdi
 3052 135b E8000000 		call	_ZN8UnitTest10CheckCloseIfffEEvRNS_11TestResultsERKT_RKT0_RKT1_RKNS_11TestDetailsE
 3052      00
 3053              	.LEHE76:
 3054              	.LEHB77:
 110:TestChecks.cpp ****     CHECK_EQUAL(1, results.GetFailureCount());
 3055              		.loc 5 110 0
 3056 1360 E8000000 		call	_ZN8UnitTest11CurrentTest7DetailsEv
 3056      00
 3057 1365 488B08   		movq	(%rax), %rcx
 3058 1368 488D45C0 		leaq	-64(%rbp), %rax
 3059 136c BA6E0000 		movl	$110, %edx
 3059      00
 3060 1371 4889CE   		movq	%rcx, %rsi
 3061 1374 4889C7   		movq	%rax, %rdi
 3062 1377 E8000000 		call	_ZN8UnitTest11TestDetailsC1ERKS0_i
 3062      00
 3063              		.loc 5 110 0 is_stmt 0 discriminator 2
 3064 137c 488D45A0 		leaq	-96(%rbp), %rax
 3065 1380 4889C7   		movq	%rax, %rdi
 3066 1383 E8000000 		call	_ZNK8UnitTest11TestResults15GetFailureCountEv
 3066      00
 3067              	.LEHE77:
 3068 1388 89459C   		movl	%eax, -100(%rbp)
 3069 138b C7459801 		movl	$1, -104(%rbp)
 3069      000000
 3070              	.LEHB78:
 3071 1392 E8000000 		call	_ZN8UnitTest11CurrentTest7ResultsEv
 3071      00
 3072              		.loc 5 110 0 discriminator 4
 3073 1397 488B00   		movq	(%rax), %rax
 3074 139a 488D4DC0 		leaq	-64(%rbp), %rcx
 3075 139e 488D559C 		leaq	-100(%rbp), %rdx
 3076 13a2 488D7598 		leaq	-104(%rbp), %rsi
 3077 13a6 4889C7   		movq	%rax, %rdi
 3078 13a9 E8000000 		call	_ZN8UnitTest10CheckEqualIiiEEvRNS_11TestResultsERKT_RKT0_RKNS_11TestDetailsE
 3078      00
 3079              	.LEHE78:
 111:TestChecks.cpp **** }
 3080              		.loc 5 111 0 is_stmt 1
 3081 13ae EB5C     		jmp	.L139
 3082              	.L146:
 3083 13b0 EB00     		jmp	.L141
 3084              	.L145:
 3085              	.L141:
 110:TestChecks.cpp ****     CHECK_EQUAL(1, results.GetFailureCount());
 3086              		.loc 5 110 0
 3087 13b2 4889C7   		movq	%rax, %rdi
 3088 13b5 E8000000 		call	__cxa_begin_catch
 3088      00
 3089              	.LEHB79:
 3090 13ba E8000000 		call	_ZN8UnitTest11CurrentTest7DetailsEv
 3090      00
 3091 13bf 488B08   		movq	(%rax), %rcx
 3092 13c2 488D45C0 		leaq	-64(%rbp), %rax
 3093 13c6 BA6E0000 		movl	$110, %edx
 3093      00
 3094 13cb 4889CE   		movq	%rcx, %rsi
 3095 13ce 4889C7   		movq	%rax, %rdi
 3096 13d1 E8000000 		call	_ZN8UnitTest11TestDetailsC1ERKS0_i
 3096      00
 110:TestChecks.cpp ****     CHECK_EQUAL(1, results.GetFailureCount());
 3097              		.loc 5 110 0 is_stmt 0 discriminator 12
 3098 13d6 E8000000 		call	_ZN8UnitTest11CurrentTest7ResultsEv
 3098      00
 3099 13db 488B00   		movq	(%rax), %rax
 3100 13de 488D4DC0 		leaq	-64(%rbp), %rcx
 3101 13e2 BA000000 		movl	$.LC7, %edx
 3101      00
 3102 13e7 4889CE   		movq	%rcx, %rsi
 3103 13ea 4889C7   		movq	%rax, %rdi
 3104 13ed E8000000 		call	_ZN8UnitTest11TestResults13OnTestFailureERKNS_11TestDetailsEPKc
 3104      00
 3105              	.LEHE79:
 3106              	.LEHB80:
 110:TestChecks.cpp ****     CHECK_EQUAL(1, results.GetFailureCount());
 3107              		.loc 5 110 0 discriminator 16
 3108 13f2 E8000000 		call	__cxa_end_catch
 3108      00
 3109              	.LEHE80:
 3110              		.loc 5 111 0 is_stmt 1 discriminator 16
 3111 13f7 EB13     		jmp	.L139
 3112              	.L147:
 3113 13f9 4889C3   		movq	%rax, %rbx
 110:TestChecks.cpp ****     CHECK_EQUAL(1, results.GetFailureCount());
 3114              		.loc 5 110 0
 3115 13fc E8000000 		call	__cxa_end_catch
 3115      00
 3116 1401 4889D8   		movq	%rbx, %rax
 3117 1404 4889C7   		movq	%rax, %rdi
 3118              	.LEHB81:
 3119 1407 E8000000 		call	_Unwind_Resume
 3119      00
 3120              	.LEHE81:
 3121              	.L139:
 3122              		.loc 5 111 0
 3123 140c 488B45E8 		movq	-24(%rbp), %rax
 3124 1410 64483304 		xorq	%fs:40, %rax
 3124      25280000 
 3124      00
 3125 1419 7405     		je	.L144
 3126 141b E8000000 		call	__stack_chk_fail
 3126      00
 3127              	.L144:
 3128 1420 4883C478 		addq	$120, %rsp
 3129 1424 5B       		popq	%rbx
 3130 1425 5D       		popq	%rbp
 3131              		.cfi_def_cfa 7, 8
 3132 1426 C3       		ret
 3133              		.cfi_endproc
 3134              	.LFE1122:
 3135              		.section	.gcc_except_table
 3136              		.align 4
 3137              	.LLSDA1122:
 3138 0208 FF       		.byte	0xff
 3139 0209 03       		.byte	0x3
 3140 020a 2D       		.uleb128 .LLSDATT1122-.LLSDATTD1122
 3141              	.LLSDATTD1122:
 3142 020b 01       		.byte	0x1
 3143 020c 20       		.uleb128 .LLSDACSE1122-.LLSDACSB1122
 3144              	.LLSDACSB1122:
 3145 020d 28       		.uleb128 .LEHB76-.LFB1122
 3146 020e 6C       		.uleb128 .LEHE76-.LEHB76
 3147 020f 00       		.uleb128 0
 3148 0210 00       		.uleb128 0
 3149 0211 9401     		.uleb128 .LEHB77-.LFB1122
 3150 0213 28       		.uleb128 .LEHE77-.LEHB77
 3151 0214 E601     		.uleb128 .L145-.LFB1122
 3152 0216 01       		.uleb128 0x1
 3153 0217 C601     		.uleb128 .LEHB78-.LFB1122
 3154 0219 1C       		.uleb128 .LEHE78-.LEHB78
 3155 021a E401     		.uleb128 .L146-.LFB1122
 3156 021c 03       		.uleb128 0x3
 3157 021d EE01     		.uleb128 .LEHB79-.LFB1122
 3158 021f 38       		.uleb128 .LEHE79-.LEHB79
 3159 0220 AD02     		.uleb128 .L147-.LFB1122
 3160 0222 00       		.uleb128 0
 3161 0223 A602     		.uleb128 .LEHB80-.LFB1122
 3162 0225 05       		.uleb128 .LEHE80-.LEHB80
 3163 0226 00       		.uleb128 0
 3164 0227 00       		.uleb128 0
 3165 0228 BB02     		.uleb128 .LEHB81-.LFB1122
 3166 022a 05       		.uleb128 .LEHE81-.LEHB81
 3167 022b 00       		.uleb128 0
 3168 022c 00       		.uleb128 0
 3169              	.LLSDACSE1122:
 3170 022d 01       		.byte	0x1
 3171 022e 00       		.byte	0
 3172 022f 00       		.byte	0
 3173 0230 7D       		.byte	0x7d
 3174 0231 000000   		.align 4
 3175 0234 00000000 		.long	0
 3176              	
 3177              	.LLSDATT1122:
 3178              		.text
 3180              		.section	.rodata
 3181              		.align 8
 3182              	.LC36:
 3183 0500 43686563 		.string	"CheckCloseWithZeroEpsilonWorksForSameNumber"
 3183      6B436C6F 
 3183      73655769 
 3183      74685A65 
 3183      726F4570 
 3184              		.text
 3185 1427 90       		.align 2
 3187              	_ZN12_GLOBAL__N_147TestCheckCloseWithZeroEpsilonWorksForSameNumberC2Ev:
 3188              	.LFB1124:
 112:TestChecks.cpp **** 
 113:TestChecks.cpp **** TEST(CheckCloseWithZeroEpsilonWorksForSameNumber)
 3189              		.loc 5 113 0
 3190              		.cfi_startproc
 3191 1428 55       		pushq	%rbp
 3192              		.cfi_def_cfa_offset 16
 3193              		.cfi_offset 6, -16
 3194 1429 4889E5   		movq	%rsp, %rbp
 3195              		.cfi_def_cfa_register 6
 3196 142c 4883EC10 		subq	$16, %rsp
 3197 1430 48897DF8 		movq	%rdi, -8(%rbp)
 3198              	.LBB17:
 3199              		.loc 5 113 0
 3200 1434 E8000000 		call	_ZN13UnitTestSuite12GetSuiteNameEv
 3200      00
 3201 1439 4889C2   		movq	%rax, %rdx
 3202 143c 488B45F8 		movq	-8(%rbp), %rax
 3203 1440 41B87100 		movl	$113, %r8d
 3203      0000
 3204 1446 B9000000 		movl	$.LC2, %ecx
 3204      00
 3205 144b BE000000 		movl	$.LC36, %esi
 3205      00
 3206 1450 4889C7   		movq	%rax, %rdi
 3207 1453 E8000000 		call	_ZN8UnitTest4TestC2EPKcS2_S2_i
 3207      00
 3208 1458 BA000000 		movl	$_ZTVN12_GLOBAL__N_147TestCheckCloseWithZeroEpsilonWorksForSameNumberE+16, %edx
 3208      00
 3209 145d 488B45F8 		movq	-8(%rbp), %rax
 3210 1461 488910   		movq	%rdx, (%rax)
 3211              	.LBE17:
 3212 1464 90       		nop
 3213 1465 C9       		leave
 3214              		.cfi_def_cfa 7, 8
 3215 1466 C3       		ret
 3216              		.cfi_endproc
 3217              	.LFE1124:
 3219              		.set	_ZN12_GLOBAL__N_147TestCheckCloseWithZeroEpsilonWorksForSameNumberC1Ev,_ZN12_GLOBAL__N_147Tes
 3220              		.local	_ZN12_GLOBAL__N_155testCheckCloseWithZeroEpsilonWorksForSameNumberInstanceE
 3221              		.comm	_ZN12_GLOBAL__N_155testCheckCloseWithZeroEpsilonWorksForSameNumberInstanceE,56,32
 3222              		.local	_ZN12_GLOBAL__N_148adderCheckCloseWithZeroEpsilonWorksForSameNumberE
 3223              		.comm	_ZN12_GLOBAL__N_148adderCheckCloseWithZeroEpsilonWorksForSameNumberE,1,1
 3224 1467 90       		.align 2
 3226              	_ZNK12_GLOBAL__N_147TestCheckCloseWithZeroEpsilonWorksForSameNumber7RunImplEv:
 3227              	.LFB1126:
 114:TestChecks.cpp **** {
 3228              		.loc 5 114 0
 3229              		.cfi_startproc
 3230              		.cfi_personality 0x3,__gxx_personality_v0
 3231              		.cfi_lsda 0x3,.LLSDA1126
 3232 1468 55       		pushq	%rbp
 3233              		.cfi_def_cfa_offset 16
 3234              		.cfi_offset 6, -16
 3235 1469 4889E5   		movq	%rsp, %rbp
 3236              		.cfi_def_cfa_register 6
 3237 146c 53       		pushq	%rbx
 3238 146d 4883EC78 		subq	$120, %rsp
 3239              		.cfi_offset 3, -24
 3240 1471 48897D88 		movq	%rdi, -120(%rbp)
 3241              		.loc 5 114 0
 3242 1475 64488B04 		movq	%fs:40, %rax
 3242      25280000 
 3242      00
 3243 147e 488945E8 		movq	%rax, -24(%rbp)
 3244 1482 31C0     		xorl	%eax, %eax
 115:TestChecks.cpp ****     TestResults results;
 3245              		.loc 5 115 0
 3246 1484 488D45A0 		leaq	-96(%rbp), %rax
 3247 1488 BE000000 		movl	$0, %esi
 3247      00
 3248 148d 4889C7   		movq	%rax, %rdi
 3249              	.LEHB82:
 3250 1490 E8000000 		call	_ZN8UnitTest11TestResultsC1EPNS_12TestReporterE
 3250      00
 116:TestChecks.cpp ****     CheckClose(results, 0.1f, 0.1f, 0, TestDetails("", "", "", 0));
 3251              		.loc 5 116 0
 3252 1495 488D45C0 		leaq	-64(%rbp), %rax
 3253 1499 41B80000 		movl	$0, %r8d
 3253      0000
 3254 149f B9000000 		movl	$.LC6, %ecx
 3254      00
 3255 14a4 BA000000 		movl	$.LC6, %edx
 3255      00
 3256 14a9 BE000000 		movl	$.LC6, %esi
 3256      00
 3257 14ae 4889C7   		movq	%rax, %rdi
 3258 14b1 E8000000 		call	_ZN8UnitTest11TestDetailsC1EPKcS2_S2_i
 3258      00
 3259 14b6 C7459C00 		movl	$0, -100(%rbp)
 3259      000000
 3260 14bd F30F1005 		movss	.LC31(%rip), %xmm0
 3260      00000000 
 3261 14c5 F30F1145 		movss	%xmm0, -104(%rbp)
 3261      98
 3262 14ca F30F1005 		movss	.LC31(%rip), %xmm0
 3262      00000000 
 3263 14d2 F30F1145 		movss	%xmm0, -108(%rbp)
 3263      94
 3264 14d7 488D7DC0 		leaq	-64(%rbp), %rdi
 3265 14db 488D4D9C 		leaq	-100(%rbp), %rcx
 3266 14df 488D5598 		leaq	-104(%rbp), %rdx
 3267 14e3 488D7594 		leaq	-108(%rbp), %rsi
 3268 14e7 488D45A0 		leaq	-96(%rbp), %rax
 3269 14eb 4989F8   		movq	%rdi, %r8
 3270 14ee 4889C7   		movq	%rax, %rdi
 3271 14f1 E8000000 		call	_ZN8UnitTest10CheckCloseIffiEEvRNS_11TestResultsERKT_RKT0_RKT1_RKNS_11TestDetailsE
 3271      00
 3272              	.LEHE82:
 3273              	.LEHB83:
 117:TestChecks.cpp ****     CHECK_EQUAL(0, results.GetFailureCount());
 3274              		.loc 5 117 0
 3275 14f6 E8000000 		call	_ZN8UnitTest11CurrentTest7DetailsEv
 3275      00
 3276 14fb 488B08   		movq	(%rax), %rcx
 3277 14fe 488D45C0 		leaq	-64(%rbp), %rax
 3278 1502 BA750000 		movl	$117, %edx
 3278      00
 3279 1507 4889CE   		movq	%rcx, %rsi
 3280 150a 4889C7   		movq	%rax, %rdi
 3281 150d E8000000 		call	_ZN8UnitTest11TestDetailsC1ERKS0_i
 3281      00
 3282              		.loc 5 117 0 is_stmt 0 discriminator 2
 3283 1512 488D45A0 		leaq	-96(%rbp), %rax
 3284 1516 4889C7   		movq	%rax, %rdi
 3285 1519 E8000000 		call	_ZNK8UnitTest11TestResults15GetFailureCountEv
 3285      00
 3286              	.LEHE83:
 3287 151e 89459C   		movl	%eax, -100(%rbp)
 3288 1521 C7459800 		movl	$0, -104(%rbp)
 3288      000000
 3289              	.LEHB84:
 3290 1528 E8000000 		call	_ZN8UnitTest11CurrentTest7ResultsEv
 3290      00
 3291              		.loc 5 117 0 discriminator 4
 3292 152d 488B00   		movq	(%rax), %rax
 3293 1530 488D4DC0 		leaq	-64(%rbp), %rcx
 3294 1534 488D559C 		leaq	-100(%rbp), %rdx
 3295 1538 488D7598 		leaq	-104(%rbp), %rsi
 3296 153c 4889C7   		movq	%rax, %rdi
 3297 153f E8000000 		call	_ZN8UnitTest10CheckEqualIiiEEvRNS_11TestResultsERKT_RKT0_RKNS_11TestDetailsE
 3297      00
 3298              	.LEHE84:
 118:TestChecks.cpp **** }
 3299              		.loc 5 118 0 is_stmt 1
 3300 1544 EB5C     		jmp	.L149
 3301              	.L156:
 3302 1546 EB00     		jmp	.L151
 3303              	.L155:
 3304              	.L151:
 117:TestChecks.cpp ****     CHECK_EQUAL(0, results.GetFailureCount());
 3305              		.loc 5 117 0
 3306 1548 4889C7   		movq	%rax, %rdi
 3307 154b E8000000 		call	__cxa_begin_catch
 3307      00
 3308              	.LEHB85:
 3309 1550 E8000000 		call	_ZN8UnitTest11CurrentTest7DetailsEv
 3309      00
 3310 1555 488B08   		movq	(%rax), %rcx
 3311 1558 488D45C0 		leaq	-64(%rbp), %rax
 3312 155c BA750000 		movl	$117, %edx
 3312      00
 3313 1561 4889CE   		movq	%rcx, %rsi
 3314 1564 4889C7   		movq	%rax, %rdi
 3315 1567 E8000000 		call	_ZN8UnitTest11TestDetailsC1ERKS0_i
 3315      00
 117:TestChecks.cpp ****     CHECK_EQUAL(0, results.GetFailureCount());
 3316              		.loc 5 117 0 is_stmt 0 discriminator 12
 3317 156c E8000000 		call	_ZN8UnitTest11CurrentTest7ResultsEv
 3317      00
 3318 1571 488B00   		movq	(%rax), %rax
 3319 1574 488D4DC0 		leaq	-64(%rbp), %rcx
 3320 1578 BA000000 		movl	$.LC9, %edx
 3320      00
 3321 157d 4889CE   		movq	%rcx, %rsi
 3322 1580 4889C7   		movq	%rax, %rdi
 3323 1583 E8000000 		call	_ZN8UnitTest11TestResults13OnTestFailureERKNS_11TestDetailsEPKc
 3323      00
 3324              	.LEHE85:
 3325              	.LEHB86:
 117:TestChecks.cpp ****     CHECK_EQUAL(0, results.GetFailureCount());
 3326              		.loc 5 117 0 discriminator 16
 3327 1588 E8000000 		call	__cxa_end_catch
 3327      00
 3328              	.LEHE86:
 3329              		.loc 5 118 0 is_stmt 1 discriminator 16
 3330 158d EB13     		jmp	.L149
 3331              	.L157:
 3332 158f 4889C3   		movq	%rax, %rbx
 117:TestChecks.cpp ****     CHECK_EQUAL(0, results.GetFailureCount());
 3333              		.loc 5 117 0
 3334 1592 E8000000 		call	__cxa_end_catch
 3334      00
 3335 1597 4889D8   		movq	%rbx, %rax
 3336 159a 4889C7   		movq	%rax, %rdi
 3337              	.LEHB87:
 3338 159d E8000000 		call	_Unwind_Resume
 3338      00
 3339              	.LEHE87:
 3340              	.L149:
 3341              		.loc 5 118 0
 3342 15a2 488B45E8 		movq	-24(%rbp), %rax
 3343 15a6 64483304 		xorq	%fs:40, %rax
 3343      25280000 
 3343      00
 3344 15af 7405     		je	.L154
 3345 15b1 E8000000 		call	__stack_chk_fail
 3345      00
 3346              	.L154:
 3347 15b6 4883C478 		addq	$120, %rsp
 3348 15ba 5B       		popq	%rbx
 3349 15bb 5D       		popq	%rbp
 3350              		.cfi_def_cfa 7, 8
 3351 15bc C3       		ret
 3352              		.cfi_endproc
 3353              	.LFE1126:
 3354              		.section	.gcc_except_table
 3355              		.align 4
 3356              	.LLSDA1126:
 3357 0238 FF       		.byte	0xff
 3358 0239 03       		.byte	0x3
 3359 023a 2D       		.uleb128 .LLSDATT1126-.LLSDATTD1126
 3360              	.LLSDATTD1126:
 3361 023b 01       		.byte	0x1
 3362 023c 20       		.uleb128 .LLSDACSE1126-.LLSDACSB1126
 3363              	.LLSDACSB1126:
 3364 023d 28       		.uleb128 .LEHB82-.LFB1126
 3365 023e 66       		.uleb128 .LEHE82-.LEHB82
 3366 023f 00       		.uleb128 0
 3367 0240 00       		.uleb128 0
 3368 0241 8E01     		.uleb128 .LEHB83-.LFB1126
 3369 0243 28       		.uleb128 .LEHE83-.LEHB83
 3370 0244 E001     		.uleb128 .L155-.LFB1126
 3371 0246 01       		.uleb128 0x1
 3372 0247 C001     		.uleb128 .LEHB84-.LFB1126
 3373 0249 1C       		.uleb128 .LEHE84-.LEHB84
 3374 024a DE01     		.uleb128 .L156-.LFB1126
 3375 024c 03       		.uleb128 0x3
 3376 024d E801     		.uleb128 .LEHB85-.LFB1126
 3377 024f 38       		.uleb128 .LEHE85-.LEHB85
 3378 0250 A702     		.uleb128 .L157-.LFB1126
 3379 0252 00       		.uleb128 0
 3380 0253 A002     		.uleb128 .LEHB86-.LFB1126
 3381 0255 05       		.uleb128 .LEHE86-.LEHB86
 3382 0256 00       		.uleb128 0
 3383 0257 00       		.uleb128 0
 3384 0258 B502     		.uleb128 .LEHB87-.LFB1126
 3385 025a 05       		.uleb128 .LEHE87-.LEHB87
 3386 025b 00       		.uleb128 0
 3387 025c 00       		.uleb128 0
 3388              	.LLSDACSE1126:
 3389 025d 01       		.byte	0x1
 3390 025e 00       		.byte	0
 3391 025f 00       		.byte	0
 3392 0260 7D       		.byte	0x7d
 3393 0261 000000   		.align 4
 3394 0264 00000000 		.long	0
 3395              	
 3396              	.LLSDATT1126:
 3397              		.text
 3399              		.section	.rodata
 3400              	.LC37:
 3401 052c 43686563 		.string	"CheckCloseWithNaNFails"
 3401      6B436C6F 
 3401      73655769 
 3401      74684E61 
 3401      4E466169 
 3402              		.text
 3403 15bd 90       		.align 2
 3405              	_ZN12_GLOBAL__N_126TestCheckCloseWithNaNFailsC2Ev:
 3406              	.LFB1128:
 119:TestChecks.cpp **** 
 120:TestChecks.cpp **** TEST(CheckCloseWithNaNFails)
 3407              		.loc 5 120 0
 3408              		.cfi_startproc
 3409 15be 55       		pushq	%rbp
 3410              		.cfi_def_cfa_offset 16
 3411              		.cfi_offset 6, -16
 3412 15bf 4889E5   		movq	%rsp, %rbp
 3413              		.cfi_def_cfa_register 6
 3414 15c2 4883EC10 		subq	$16, %rsp
 3415 15c6 48897DF8 		movq	%rdi, -8(%rbp)
 3416              	.LBB18:
 3417              		.loc 5 120 0
 3418 15ca E8000000 		call	_ZN13UnitTestSuite12GetSuiteNameEv
 3418      00
 3419 15cf 4889C2   		movq	%rax, %rdx
 3420 15d2 488B45F8 		movq	-8(%rbp), %rax
 3421 15d6 41B87800 		movl	$120, %r8d
 3421      0000
 3422 15dc B9000000 		movl	$.LC2, %ecx
 3422      00
 3423 15e1 BE000000 		movl	$.LC37, %esi
 3423      00
 3424 15e6 4889C7   		movq	%rax, %rdi
 3425 15e9 E8000000 		call	_ZN8UnitTest4TestC2EPKcS2_S2_i
 3425      00
 3426 15ee BA000000 		movl	$_ZTVN12_GLOBAL__N_126TestCheckCloseWithNaNFailsE+16, %edx
 3426      00
 3427 15f3 488B45F8 		movq	-8(%rbp), %rax
 3428 15f7 488910   		movq	%rdx, (%rax)
 3429              	.LBE18:
 3430 15fa 90       		nop
 3431 15fb C9       		leave
 3432              		.cfi_def_cfa 7, 8
 3433 15fc C3       		ret
 3434              		.cfi_endproc
 3435              	.LFE1128:
 3437              		.set	_ZN12_GLOBAL__N_126TestCheckCloseWithNaNFailsC1Ev,_ZN12_GLOBAL__N_126TestCheckCloseWithNaNFai
 3438              		.local	_ZN12_GLOBAL__N_134testCheckCloseWithNaNFailsInstanceE
 3439              		.comm	_ZN12_GLOBAL__N_134testCheckCloseWithNaNFailsInstanceE,56,32
 3440              		.local	_ZN12_GLOBAL__N_127adderCheckCloseWithNaNFailsE
 3441              		.comm	_ZN12_GLOBAL__N_127adderCheckCloseWithNaNFailsE,1,1
 3442 15fd 90       		.align 2
 3444              	_ZNK12_GLOBAL__N_126TestCheckCloseWithNaNFails7RunImplEv:
 3445              	.LFB1130:
 121:TestChecks.cpp **** {
 3446              		.loc 5 121 0
 3447              		.cfi_startproc
 3448              		.cfi_personality 0x3,__gxx_personality_v0
 3449              		.cfi_lsda 0x3,.LLSDA1130
 3450 15fe 55       		pushq	%rbp
 3451              		.cfi_def_cfa_offset 16
 3452              		.cfi_offset 6, -16
 3453 15ff 4889E5   		movq	%rsp, %rbp
 3454              		.cfi_def_cfa_register 6
 3455 1602 53       		pushq	%rbx
 3456 1603 4883EC78 		subq	$120, %rsp
 3457              		.cfi_offset 3, -24
 3458 1607 48897D88 		movq	%rdi, -120(%rbp)
 3459              		.loc 5 121 0
 3460 160b 64488B04 		movq	%fs:40, %rax
 3460      25280000 
 3460      00
 3461 1614 488945E8 		movq	%rax, -24(%rbp)
 3462 1618 31C0     		xorl	%eax, %eax
 122:TestChecks.cpp ****     union
 123:TestChecks.cpp ****     {
 124:TestChecks.cpp ****         unsigned int bitpattern;
 125:TestChecks.cpp ****         float nan;
 126:TestChecks.cpp ****     };
 127:TestChecks.cpp ****     bitpattern = 0xFFFFFFFF;
 3463              		.loc 5 127 0
 3464 161a C74590FF 		movl	$-1, -112(%rbp)
 3464      FFFFFF
 128:TestChecks.cpp ****     TestResults results;
 3465              		.loc 5 128 0
 3466 1621 488D45A0 		leaq	-96(%rbp), %rax
 3467 1625 BE000000 		movl	$0, %esi
 3467      00
 3468 162a 4889C7   		movq	%rax, %rdi
 3469              	.LEHB88:
 3470 162d E8000000 		call	_ZN8UnitTest11TestResultsC1EPNS_12TestReporterE
 3470      00
 129:TestChecks.cpp ****     CheckClose(results, 3.0f, nan, 0.1f, TestDetails("", "", "", 0));
 3471              		.loc 5 129 0
 3472 1632 488D45C0 		leaq	-64(%rbp), %rax
 3473 1636 41B80000 		movl	$0, %r8d
 3473      0000
 3474 163c B9000000 		movl	$.LC6, %ecx
 3474      00
 3475 1641 BA000000 		movl	$.LC6, %edx
 3475      00
 3476 1646 BE000000 		movl	$.LC6, %esi
 3476      00
 3477 164b 4889C7   		movq	%rax, %rdi
 3478 164e E8000000 		call	_ZN8UnitTest11TestDetailsC1EPKcS2_S2_i
 3478      00
 3479 1653 F30F1005 		movss	.LC31(%rip), %xmm0
 3479      00000000 
 3480 165b F30F1145 		movss	%xmm0, -100(%rbp)
 3480      9C
 3481 1660 F30F1005 		movss	.LC32(%rip), %xmm0
 3481      00000000 
 3482 1668 F30F1145 		movss	%xmm0, -104(%rbp)
 3482      98
 3483 166d 488D7DC0 		leaq	-64(%rbp), %rdi
 3484 1671 488D4D9C 		leaq	-100(%rbp), %rcx
 3485 1675 488D5590 		leaq	-112(%rbp), %rdx
 3486 1679 488D7598 		leaq	-104(%rbp), %rsi
 3487 167d 488D45A0 		leaq	-96(%rbp), %rax
 3488 1681 4989F8   		movq	%rdi, %r8
 3489 1684 4889C7   		movq	%rax, %rdi
 3490 1687 E8000000 		call	_ZN8UnitTest10CheckCloseIfffEEvRNS_11TestResultsERKT_RKT0_RKT1_RKNS_11TestDetailsE
 3490      00
 3491              	.LEHE88:
 3492              	.LEHB89:
 130:TestChecks.cpp ****     CHECK_EQUAL(1, results.GetFailureCount());
 3493              		.loc 5 130 0
 3494 168c E8000000 		call	_ZN8UnitTest11CurrentTest7DetailsEv
 3494      00
 3495 1691 488B08   		movq	(%rax), %rcx
 3496 1694 488D45C0 		leaq	-64(%rbp), %rax
 3497 1698 BA820000 		movl	$130, %edx
 3497      00
 3498 169d 4889CE   		movq	%rcx, %rsi
 3499 16a0 4889C7   		movq	%rax, %rdi
 3500 16a3 E8000000 		call	_ZN8UnitTest11TestDetailsC1ERKS0_i
 3500      00
 3501              		.loc 5 130 0 is_stmt 0 discriminator 2
 3502 16a8 488D45A0 		leaq	-96(%rbp), %rax
 3503 16ac 4889C7   		movq	%rax, %rdi
 3504 16af E8000000 		call	_ZNK8UnitTest11TestResults15GetFailureCountEv
 3504      00
 3505              	.LEHE89:
 3506 16b4 89459C   		movl	%eax, -100(%rbp)
 3507 16b7 C7459801 		movl	$1, -104(%rbp)
 3507      000000
 3508              	.LEHB90:
 3509 16be E8000000 		call	_ZN8UnitTest11CurrentTest7ResultsEv
 3509      00
 3510              		.loc 5 130 0 discriminator 4
 3511 16c3 488B00   		movq	(%rax), %rax
 3512 16c6 488D4DC0 		leaq	-64(%rbp), %rcx
 3513 16ca 488D559C 		leaq	-100(%rbp), %rdx
 3514 16ce 488D7598 		leaq	-104(%rbp), %rsi
 3515 16d2 4889C7   		movq	%rax, %rdi
 3516 16d5 E8000000 		call	_ZN8UnitTest10CheckEqualIiiEEvRNS_11TestResultsERKT_RKT0_RKNS_11TestDetailsE
 3516      00
 3517              	.LEHE90:
 131:TestChecks.cpp **** }
 3518              		.loc 5 131 0 is_stmt 1
 3519 16da EB5C     		jmp	.L159
 3520              	.L166:
 3521 16dc EB00     		jmp	.L161
 3522              	.L165:
 3523              	.L161:
 130:TestChecks.cpp ****     CHECK_EQUAL(1, results.GetFailureCount());
 3524              		.loc 5 130 0
 3525 16de 4889C7   		movq	%rax, %rdi
 3526 16e1 E8000000 		call	__cxa_begin_catch
 3526      00
 3527              	.LEHB91:
 3528 16e6 E8000000 		call	_ZN8UnitTest11CurrentTest7DetailsEv
 3528      00
 3529 16eb 488B08   		movq	(%rax), %rcx
 3530 16ee 488D45C0 		leaq	-64(%rbp), %rax
 3531 16f2 BA820000 		movl	$130, %edx
 3531      00
 3532 16f7 4889CE   		movq	%rcx, %rsi
 3533 16fa 4889C7   		movq	%rax, %rdi
 3534 16fd E8000000 		call	_ZN8UnitTest11TestDetailsC1ERKS0_i
 3534      00
 130:TestChecks.cpp ****     CHECK_EQUAL(1, results.GetFailureCount());
 3535              		.loc 5 130 0 is_stmt 0 discriminator 12
 3536 1702 E8000000 		call	_ZN8UnitTest11CurrentTest7ResultsEv
 3536      00
 3537 1707 488B00   		movq	(%rax), %rax
 3538 170a 488D4DC0 		leaq	-64(%rbp), %rcx
 3539 170e BA000000 		movl	$.LC7, %edx
 3539      00
 3540 1713 4889CE   		movq	%rcx, %rsi
 3541 1716 4889C7   		movq	%rax, %rdi
 3542 1719 E8000000 		call	_ZN8UnitTest11TestResults13OnTestFailureERKNS_11TestDetailsEPKc
 3542      00
 3543              	.LEHE91:
 3544              	.LEHB92:
 130:TestChecks.cpp ****     CHECK_EQUAL(1, results.GetFailureCount());
 3545              		.loc 5 130 0 discriminator 16
 3546 171e E8000000 		call	__cxa_end_catch
 3546      00
 3547              	.LEHE92:
 3548              		.loc 5 131 0 is_stmt 1 discriminator 16
 3549 1723 EB13     		jmp	.L159
 3550              	.L167:
 3551 1725 4889C3   		movq	%rax, %rbx
 130:TestChecks.cpp ****     CHECK_EQUAL(1, results.GetFailureCount());
 3552              		.loc 5 130 0
 3553 1728 E8000000 		call	__cxa_end_catch
 3553      00
 3554 172d 4889D8   		movq	%rbx, %rax
 3555 1730 4889C7   		movq	%rax, %rdi
 3556              	.LEHB93:
 3557 1733 E8000000 		call	_Unwind_Resume
 3557      00
 3558              	.LEHE93:
 3559              	.L159:
 3560              		.loc 5 131 0
 3561 1738 488B45E8 		movq	-24(%rbp), %rax
 3562 173c 64483304 		xorq	%fs:40, %rax
 3562      25280000 
 3562      00
 3563 1745 7405     		je	.L164
 3564 1747 E8000000 		call	__stack_chk_fail
 3564      00
 3565              	.L164:
 3566 174c 4883C478 		addq	$120, %rsp
 3567 1750 5B       		popq	%rbx
 3568 1751 5D       		popq	%rbp
 3569              		.cfi_def_cfa 7, 8
 3570 1752 C3       		ret
 3571              		.cfi_endproc
 3572              	.LFE1130:
 3573              		.section	.gcc_except_table
 3574              		.align 4
 3575              	.LLSDA1130:
 3576 0268 FF       		.byte	0xff
 3577 0269 03       		.byte	0x3
 3578 026a 2D       		.uleb128 .LLSDATT1130-.LLSDATTD1130
 3579              	.LLSDATTD1130:
 3580 026b 01       		.byte	0x1
 3581 026c 20       		.uleb128 .LLSDACSE1130-.LLSDACSB1130
 3582              	.LLSDACSB1130:
 3583 026d 2F       		.uleb128 .LEHB88-.LFB1130
 3584 026e 5F       		.uleb128 .LEHE88-.LEHB88
 3585 026f 00       		.uleb128 0
 3586 0270 00       		.uleb128 0
 3587 0271 8E01     		.uleb128 .LEHB89-.LFB1130
 3588 0273 28       		.uleb128 .LEHE89-.LEHB89
 3589 0274 E001     		.uleb128 .L165-.LFB1130
 3590 0276 01       		.uleb128 0x1
 3591 0277 C001     		.uleb128 .LEHB90-.LFB1130
 3592 0279 1C       		.uleb128 .LEHE90-.LEHB90
 3593 027a DE01     		.uleb128 .L166-.LFB1130
 3594 027c 03       		.uleb128 0x3
 3595 027d E801     		.uleb128 .LEHB91-.LFB1130
 3596 027f 38       		.uleb128 .LEHE91-.LEHB91
 3597 0280 A702     		.uleb128 .L167-.LFB1130
 3598 0282 00       		.uleb128 0
 3599 0283 A002     		.uleb128 .LEHB92-.LFB1130
 3600 0285 05       		.uleb128 .LEHE92-.LEHB92
 3601 0286 00       		.uleb128 0
 3602 0287 00       		.uleb128 0
 3603 0288 B502     		.uleb128 .LEHB93-.LFB1130
 3604 028a 05       		.uleb128 .LEHE93-.LEHB93
 3605 028b 00       		.uleb128 0
 3606 028c 00       		.uleb128 0
 3607              	.LLSDACSE1130:
 3608 028d 01       		.byte	0x1
 3609 028e 00       		.byte	0
 3610 028f 00       		.byte	0
 3611 0290 7D       		.byte	0x7d
 3612 0291 000000   		.align 4
 3613 0294 00000000 		.long	0
 3614              	
 3615              	.LLSDATT1130:
 3616              		.text
 3618              		.section	.rodata
 3619 0543 00000000 		.align 8
 3619      00
 3620              	.LC38:
 3621 0548 43686563 		.string	"CheckCloseWithNaNAgainstItselfFails"
 3621      6B436C6F 
 3621      73655769 
 3621      74684E61 
 3621      4E416761 
 3622              		.text
 3623 1753 90       		.align 2
 3625              	_ZN12_GLOBAL__N_139TestCheckCloseWithNaNAgainstItselfFailsC2Ev:
 3626              	.LFB1132:
 132:TestChecks.cpp **** 
 133:TestChecks.cpp **** TEST(CheckCloseWithNaNAgainstItselfFails)
 3627              		.loc 5 133 0
 3628              		.cfi_startproc
 3629 1754 55       		pushq	%rbp
 3630              		.cfi_def_cfa_offset 16
 3631              		.cfi_offset 6, -16
 3632 1755 4889E5   		movq	%rsp, %rbp
 3633              		.cfi_def_cfa_register 6
 3634 1758 4883EC10 		subq	$16, %rsp
 3635 175c 48897DF8 		movq	%rdi, -8(%rbp)
 3636              	.LBB19:
 3637              		.loc 5 133 0
 3638 1760 E8000000 		call	_ZN13UnitTestSuite12GetSuiteNameEv
 3638      00
 3639 1765 4889C2   		movq	%rax, %rdx
 3640 1768 488B45F8 		movq	-8(%rbp), %rax
 3641 176c 41B88500 		movl	$133, %r8d
 3641      0000
 3642 1772 B9000000 		movl	$.LC2, %ecx
 3642      00
 3643 1777 BE000000 		movl	$.LC38, %esi
 3643      00
 3644 177c 4889C7   		movq	%rax, %rdi
 3645 177f E8000000 		call	_ZN8UnitTest4TestC2EPKcS2_S2_i
 3645      00
 3646 1784 BA000000 		movl	$_ZTVN12_GLOBAL__N_139TestCheckCloseWithNaNAgainstItselfFailsE+16, %edx
 3646      00
 3647 1789 488B45F8 		movq	-8(%rbp), %rax
 3648 178d 488910   		movq	%rdx, (%rax)
 3649              	.LBE19:
 3650 1790 90       		nop
 3651 1791 C9       		leave
 3652              		.cfi_def_cfa 7, 8
 3653 1792 C3       		ret
 3654              		.cfi_endproc
 3655              	.LFE1132:
 3657              		.set	_ZN12_GLOBAL__N_139TestCheckCloseWithNaNAgainstItselfFailsC1Ev,_ZN12_GLOBAL__N_139TestCheckCl
 3658              		.local	_ZN12_GLOBAL__N_147testCheckCloseWithNaNAgainstItselfFailsInstanceE
 3659              		.comm	_ZN12_GLOBAL__N_147testCheckCloseWithNaNAgainstItselfFailsInstanceE,56,32
 3660              		.local	_ZN12_GLOBAL__N_140adderCheckCloseWithNaNAgainstItselfFailsE
 3661              		.comm	_ZN12_GLOBAL__N_140adderCheckCloseWithNaNAgainstItselfFailsE,1,1
 3662 1793 90       		.align 2
 3664              	_ZNK12_GLOBAL__N_139TestCheckCloseWithNaNAgainstItselfFails7RunImplEv:
 3665              	.LFB1134:
 134:TestChecks.cpp **** {
 3666              		.loc 5 134 0
 3667              		.cfi_startproc
 3668              		.cfi_personality 0x3,__gxx_personality_v0
 3669              		.cfi_lsda 0x3,.LLSDA1134
 3670 1794 55       		pushq	%rbp
 3671              		.cfi_def_cfa_offset 16
 3672              		.cfi_offset 6, -16
 3673 1795 4889E5   		movq	%rsp, %rbp
 3674              		.cfi_def_cfa_register 6
 3675 1798 53       		pushq	%rbx
 3676 1799 4883EC78 		subq	$120, %rsp
 3677              		.cfi_offset 3, -24
 3678 179d 48897D88 		movq	%rdi, -120(%rbp)
 3679              		.loc 5 134 0
 3680 17a1 64488B04 		movq	%fs:40, %rax
 3680      25280000 
 3680      00
 3681 17aa 488945E8 		movq	%rax, -24(%rbp)
 3682 17ae 31C0     		xorl	%eax, %eax
 135:TestChecks.cpp ****     union
 136:TestChecks.cpp ****     {
 137:TestChecks.cpp ****         unsigned int bitpattern;
 138:TestChecks.cpp ****         float nan;
 139:TestChecks.cpp ****     };
 140:TestChecks.cpp ****     bitpattern = 0xFFFFFFFF;
 3683              		.loc 5 140 0
 3684 17b0 C74590FF 		movl	$-1, -112(%rbp)
 3684      FFFFFF
 141:TestChecks.cpp ****     TestResults results;
 3685              		.loc 5 141 0
 3686 17b7 488D45A0 		leaq	-96(%rbp), %rax
 3687 17bb BE000000 		movl	$0, %esi
 3687      00
 3688 17c0 4889C7   		movq	%rax, %rdi
 3689              	.LEHB94:
 3690 17c3 E8000000 		call	_ZN8UnitTest11TestResultsC1EPNS_12TestReporterE
 3690      00
 142:TestChecks.cpp ****     CheckClose(results, nan, nan, 0.1f, TestDetails("", "", "", 0));
 3691              		.loc 5 142 0
 3692 17c8 488D45C0 		leaq	-64(%rbp), %rax
 3693 17cc 41B80000 		movl	$0, %r8d
 3693      0000
 3694 17d2 B9000000 		movl	$.LC6, %ecx
 3694      00
 3695 17d7 BA000000 		movl	$.LC6, %edx
 3695      00
 3696 17dc BE000000 		movl	$.LC6, %esi
 3696      00
 3697 17e1 4889C7   		movq	%rax, %rdi
 3698 17e4 E8000000 		call	_ZN8UnitTest11TestDetailsC1EPKcS2_S2_i
 3698      00
 3699 17e9 F30F1005 		movss	.LC31(%rip), %xmm0
 3699      00000000 
 3700 17f1 F30F1145 		movss	%xmm0, -100(%rbp)
 3700      9C
 3701 17f6 488D7DC0 		leaq	-64(%rbp), %rdi
 3702 17fa 488D4D9C 		leaq	-100(%rbp), %rcx
 3703 17fe 488D5590 		leaq	-112(%rbp), %rdx
 3704 1802 488D7590 		leaq	-112(%rbp), %rsi
 3705 1806 488D45A0 		leaq	-96(%rbp), %rax
 3706 180a 4989F8   		movq	%rdi, %r8
 3707 180d 4889C7   		movq	%rax, %rdi
 3708 1810 E8000000 		call	_ZN8UnitTest10CheckCloseIfffEEvRNS_11TestResultsERKT_RKT0_RKT1_RKNS_11TestDetailsE
 3708      00
 3709              	.LEHE94:
 3710              	.LEHB95:
 143:TestChecks.cpp ****     CHECK_EQUAL(1, results.GetFailureCount());
 3711              		.loc 5 143 0
 3712 1815 E8000000 		call	_ZN8UnitTest11CurrentTest7DetailsEv
 3712      00
 3713 181a 488B08   		movq	(%rax), %rcx
 3714 181d 488D45C0 		leaq	-64(%rbp), %rax
 3715 1821 BA8F0000 		movl	$143, %edx
 3715      00
 3716 1826 4889CE   		movq	%rcx, %rsi
 3717 1829 4889C7   		movq	%rax, %rdi
 3718 182c E8000000 		call	_ZN8UnitTest11TestDetailsC1ERKS0_i
 3718      00
 3719              		.loc 5 143 0 is_stmt 0 discriminator 2
 3720 1831 488D45A0 		leaq	-96(%rbp), %rax
 3721 1835 4889C7   		movq	%rax, %rdi
 3722 1838 E8000000 		call	_ZNK8UnitTest11TestResults15GetFailureCountEv
 3722      00
 3723              	.LEHE95:
 3724 183d 89459C   		movl	%eax, -100(%rbp)
 3725 1840 C7459801 		movl	$1, -104(%rbp)
 3725      000000
 3726              	.LEHB96:
 3727 1847 E8000000 		call	_ZN8UnitTest11CurrentTest7ResultsEv
 3727      00
 3728              		.loc 5 143 0 discriminator 4
 3729 184c 488B00   		movq	(%rax), %rax
 3730 184f 488D4DC0 		leaq	-64(%rbp), %rcx
 3731 1853 488D559C 		leaq	-100(%rbp), %rdx
 3732 1857 488D7598 		leaq	-104(%rbp), %rsi
 3733 185b 4889C7   		movq	%rax, %rdi
 3734 185e E8000000 		call	_ZN8UnitTest10CheckEqualIiiEEvRNS_11TestResultsERKT_RKT0_RKNS_11TestDetailsE
 3734      00
 3735              	.LEHE96:
 144:TestChecks.cpp **** }
 3736              		.loc 5 144 0 is_stmt 1
 3737 1863 EB5C     		jmp	.L169
 3738              	.L176:
 3739 1865 EB00     		jmp	.L171
 3740              	.L175:
 3741              	.L171:
 143:TestChecks.cpp ****     CHECK_EQUAL(1, results.GetFailureCount());
 3742              		.loc 5 143 0
 3743 1867 4889C7   		movq	%rax, %rdi
 3744 186a E8000000 		call	__cxa_begin_catch
 3744      00
 3745              	.LEHB97:
 3746 186f E8000000 		call	_ZN8UnitTest11CurrentTest7DetailsEv
 3746      00
 3747 1874 488B08   		movq	(%rax), %rcx
 3748 1877 488D45C0 		leaq	-64(%rbp), %rax
 3749 187b BA8F0000 		movl	$143, %edx
 3749      00
 3750 1880 4889CE   		movq	%rcx, %rsi
 3751 1883 4889C7   		movq	%rax, %rdi
 3752 1886 E8000000 		call	_ZN8UnitTest11TestDetailsC1ERKS0_i
 3752      00
 143:TestChecks.cpp ****     CHECK_EQUAL(1, results.GetFailureCount());
 3753              		.loc 5 143 0 is_stmt 0 discriminator 12
 3754 188b E8000000 		call	_ZN8UnitTest11CurrentTest7ResultsEv
 3754      00
 3755 1890 488B00   		movq	(%rax), %rax
 3756 1893 488D4DC0 		leaq	-64(%rbp), %rcx
 3757 1897 BA000000 		movl	$.LC7, %edx
 3757      00
 3758 189c 4889CE   		movq	%rcx, %rsi
 3759 189f 4889C7   		movq	%rax, %rdi
 3760 18a2 E8000000 		call	_ZN8UnitTest11TestResults13OnTestFailureERKNS_11TestDetailsEPKc
 3760      00
 3761              	.LEHE97:
 3762              	.LEHB98:
 143:TestChecks.cpp ****     CHECK_EQUAL(1, results.GetFailureCount());
 3763              		.loc 5 143 0 discriminator 16
 3764 18a7 E8000000 		call	__cxa_end_catch
 3764      00
 3765              	.LEHE98:
 3766              		.loc 5 144 0 is_stmt 1 discriminator 16
 3767 18ac EB13     		jmp	.L169
 3768              	.L177:
 3769 18ae 4889C3   		movq	%rax, %rbx
 143:TestChecks.cpp ****     CHECK_EQUAL(1, results.GetFailureCount());
 3770              		.loc 5 143 0
 3771 18b1 E8000000 		call	__cxa_end_catch
 3771      00
 3772 18b6 4889D8   		movq	%rbx, %rax
 3773 18b9 4889C7   		movq	%rax, %rdi
 3774              	.LEHB99:
 3775 18bc E8000000 		call	_Unwind_Resume
 3775      00
 3776              	.LEHE99:
 3777              	.L169:
 3778              		.loc 5 144 0
 3779 18c1 488B45E8 		movq	-24(%rbp), %rax
 3780 18c5 64483304 		xorq	%fs:40, %rax
 3780      25280000 
 3780      00
 3781 18ce 7405     		je	.L174
 3782 18d0 E8000000 		call	__stack_chk_fail
 3782      00
 3783              	.L174:
 3784 18d5 4883C478 		addq	$120, %rsp
 3785 18d9 5B       		popq	%rbx
 3786 18da 5D       		popq	%rbp
 3787              		.cfi_def_cfa 7, 8
 3788 18db C3       		ret
 3789              		.cfi_endproc
 3790              	.LFE1134:
 3791              		.section	.gcc_except_table
 3792              		.align 4
 3793              	.LLSDA1134:
 3794 0298 FF       		.byte	0xff
 3795 0299 03       		.byte	0x3
 3796 029a 2D       		.uleb128 .LLSDATT1134-.LLSDATTD1134
 3797              	.LLSDATTD1134:
 3798 029b 01       		.byte	0x1
 3799 029c 20       		.uleb128 .LLSDACSE1134-.LLSDACSB1134
 3800              	.LLSDACSB1134:
 3801 029d 2F       		.uleb128 .LEHB94-.LFB1134
 3802 029e 52       		.uleb128 .LEHE94-.LEHB94
 3803 029f 00       		.uleb128 0
 3804 02a0 00       		.uleb128 0
 3805 02a1 8101     		.uleb128 .LEHB95-.LFB1134
 3806 02a3 28       		.uleb128 .LEHE95-.LEHB95
 3807 02a4 D301     		.uleb128 .L175-.LFB1134
 3808 02a6 01       		.uleb128 0x1
 3809 02a7 B301     		.uleb128 .LEHB96-.LFB1134
 3810 02a9 1C       		.uleb128 .LEHE96-.LEHB96
 3811 02aa D101     		.uleb128 .L176-.LFB1134
 3812 02ac 03       		.uleb128 0x3
 3813 02ad DB01     		.uleb128 .LEHB97-.LFB1134
 3814 02af 38       		.uleb128 .LEHE97-.LEHB97
 3815 02b0 9A02     		.uleb128 .L177-.LFB1134
 3816 02b2 00       		.uleb128 0
 3817 02b3 9302     		.uleb128 .LEHB98-.LFB1134
 3818 02b5 05       		.uleb128 .LEHE98-.LEHB98
 3819 02b6 00       		.uleb128 0
 3820 02b7 00       		.uleb128 0
 3821 02b8 A802     		.uleb128 .LEHB99-.LFB1134
 3822 02ba 05       		.uleb128 .LEHE99-.LEHB99
 3823 02bb 00       		.uleb128 0
 3824 02bc 00       		.uleb128 0
 3825              	.LLSDACSE1134:
 3826 02bd 01       		.byte	0x1
 3827 02be 00       		.byte	0
 3828 02bf 00       		.byte	0
 3829 02c0 7D       		.byte	0x7d
 3830 02c1 000000   		.align 4
 3831 02c4 00000000 		.long	0
 3832              	
 3833              	.LLSDATT1134:
 3834              		.text
 3836              		.section	.rodata
 3837 056c 00000000 		.align 8
 3838              	.LC39:
 3839 0570 43686563 		.string	"CheckCloseFailureIncludesCheckExpectedAndActual"
 3839      6B436C6F 
 3839      73654661 
 3839      696C7572 
 3839      65496E63 
 3840              		.text
 3841              		.align 2
 3843              	_ZN12_GLOBAL__N_151TestCheckCloseFailureIncludesCheckExpectedAndActualC2Ev:
 3844              	.LFB1136:
 145:TestChecks.cpp **** 
 146:TestChecks.cpp **** TEST(CheckCloseFailureIncludesCheckExpectedAndActual)
 3845              		.loc 5 146 0
 3846              		.cfi_startproc
 3847 18dc 55       		pushq	%rbp
 3848              		.cfi_def_cfa_offset 16
 3849              		.cfi_offset 6, -16
 3850 18dd 4889E5   		movq	%rsp, %rbp
 3851              		.cfi_def_cfa_register 6
 3852 18e0 4883EC10 		subq	$16, %rsp
 3853 18e4 48897DF8 		movq	%rdi, -8(%rbp)
 3854              	.LBB20:
 3855              		.loc 5 146 0
 3856 18e8 E8000000 		call	_ZN13UnitTestSuite12GetSuiteNameEv
 3856      00
 3857 18ed 4889C2   		movq	%rax, %rdx
 3858 18f0 488B45F8 		movq	-8(%rbp), %rax
 3859 18f4 41B89200 		movl	$146, %r8d
 3859      0000
 3860 18fa B9000000 		movl	$.LC2, %ecx
 3860      00
 3861 18ff BE000000 		movl	$.LC39, %esi
 3861      00
 3862 1904 4889C7   		movq	%rax, %rdi
 3863 1907 E8000000 		call	_ZN8UnitTest4TestC2EPKcS2_S2_i
 3863      00
 3864 190c BA000000 		movl	$_ZTVN12_GLOBAL__N_151TestCheckCloseFailureIncludesCheckExpectedAndActualE+16, %edx
 3864      00
 3865 1911 488B45F8 		movq	-8(%rbp), %rax
 3866 1915 488910   		movq	%rdx, (%rax)
 3867              	.LBE20:
 3868 1918 90       		nop
 3869 1919 C9       		leave
 3870              		.cfi_def_cfa 7, 8
 3871 191a C3       		ret
 3872              		.cfi_endproc
 3873              	.LFE1136:
 3875              		.set	_ZN12_GLOBAL__N_151TestCheckCloseFailureIncludesCheckExpectedAndActualC1Ev,_ZN12_GLOBAL__N_15
 3876              		.local	_ZN12_GLOBAL__N_159testCheckCloseFailureIncludesCheckExpectedAndActualInstanceE
 3877              		.comm	_ZN12_GLOBAL__N_159testCheckCloseFailureIncludesCheckExpectedAndActualInstanceE,56,32
 3878              		.local	_ZN12_GLOBAL__N_152adderCheckCloseFailureIncludesCheckExpectedAndActualE
 3879              		.comm	_ZN12_GLOBAL__N_152adderCheckCloseFailureIncludesCheckExpectedAndActualE,1,1
 3880              		.section	.rodata
 3881              	.LC43:
 3882 05a0 78706563 		.string	"xpected 0.9"
 3882      74656420 
 3882      302E3900 
 3883 05ac 00000000 		.align 8
 3884              	.LC44:
 3885 05b0 73747273 		.string	"strstr(reporter.lastFailedMessage, \"xpected 0.9\")"
 3885      74722872 
 3885      65706F72 
 3885      7465722E 
 3885      6C617374 
 3886              	.LC45:
 3887 05e2 77617320 		.string	"was 1.1"
 3887      312E3100 
 3888 05ea 00000000 		.align 8
 3888      0000
 3889              	.LC46:
 3890 05f0 73747273 		.string	"strstr(reporter.lastFailedMessage, \"was 1.1\")"
 3890      74722872 
 3890      65706F72 
 3890      7465722E 
 3890      6C617374 
 3891 061e 0000     		.align 8
 3892              	.LC47:
 3893 0620 556E6861 		.string	"Unhandled exception in CHECK(strstr(reporter.lastFailedMessage, \"xpected 0.9\"))"
 3893      6E646C65 
 3893      64206578 
 3893      63657074 
 3893      696F6E20 
 3894              		.align 8
 3895              	.LC48:
 3896 0670 556E6861 		.string	"Unhandled exception in CHECK(strstr(reporter.lastFailedMessage, \"was 1.1\"))"
 3896      6E646C65 
 3896      64206578 
 3896      63657074 
 3896      696F6E20 
 3897              		.text
 3898 191b 90       		.align 2
 3900              	_ZNK12_GLOBAL__N_151TestCheckCloseFailureIncludesCheckExpectedAndActual7RunImplEv:
 3901              	.LFB1138:
 147:TestChecks.cpp **** {
 3902              		.loc 5 147 0
 3903              		.cfi_startproc
 3904              		.cfi_personality 0x3,__gxx_personality_v0
 3905              		.cfi_lsda 0x3,.LLSDA1138
 3906 191c 55       		pushq	%rbp
 3907              		.cfi_def_cfa_offset 16
 3908              		.cfi_offset 6, -16
 3909 191d 4889E5   		movq	%rsp, %rbp
 3910              		.cfi_def_cfa_register 6
 3911 1920 53       		pushq	%rbx
 3912 1921 4881ECA8 		subq	$2216, %rsp
 3912      080000
 3913              		.cfi_offset 3, -24
 3914 1928 4889BD58 		movq	%rdi, -2216(%rbp)
 3914      F7FFFF
 3915              		.loc 5 147 0
 3916 192f 64488B04 		movq	%fs:40, %rax
 3916      25280000 
 3916      00
 3917 1938 488945E8 		movq	%rax, -24(%rbp)
 3918 193c 31C0     		xorl	%eax, %eax
 148:TestChecks.cpp ****     RecordingReporter reporter;
 3919              		.loc 5 148 0
 3920 193e 488D85B0 		leaq	-2128(%rbp), %rax
 3920      F7FFFF
 3921 1945 4889C7   		movq	%rax, %rdi
 3922 1948 E8000000 		call	_ZN17RecordingReporterC1Ev
 3922      00
 149:TestChecks.cpp ****     TestResults results(&reporter);
 3923              		.loc 5 149 0
 3924 194d 488D95B0 		leaq	-2128(%rbp), %rdx
 3924      F7FFFF
 3925 1954 488D8570 		leaq	-2192(%rbp), %rax
 3925      F7FFFF
 3926 195b 4889D6   		movq	%rdx, %rsi
 3927 195e 4889C7   		movq	%rax, %rdi
 3928              	.LEHB100:
 3929 1961 E8000000 		call	_ZN8UnitTest11TestResultsC1EPNS_12TestReporterE
 3929      00
 150:TestChecks.cpp ****     const float expected = 0.9f;
 3930              		.loc 5 150 0
 3931 1966 F30F1005 		movss	.LC40(%rip), %xmm0
 3931      00000000 
 3932 196e F30F1185 		movss	%xmm0, -2204(%rbp)
 3932      64F7FFFF 
 151:TestChecks.cpp ****     const float actual = 1.1f;
 3933              		.loc 5 151 0
 3934 1976 F30F1005 		movss	.LC41(%rip), %xmm0
 3934      00000000 
 3935 197e F30F1185 		movss	%xmm0, -2200(%rbp)
 3935      68F7FFFF 
 152:TestChecks.cpp ****     CheckClose(results, expected, actual, 0.01f, TestDetails("", "", "", 0));
 3936              		.loc 5 152 0
 3937 1986 488D8590 		leaq	-2160(%rbp), %rax
 3937      F7FFFF
 3938 198d 41B80000 		movl	$0, %r8d
 3938      0000
 3939 1993 B9000000 		movl	$.LC6, %ecx
 3939      00
 3940 1998 BA000000 		movl	$.LC6, %edx
 3940      00
 3941 199d BE000000 		movl	$.LC6, %esi
 3941      00
 3942 19a2 4889C7   		movq	%rax, %rdi
 3943 19a5 E8000000 		call	_ZN8UnitTest11TestDetailsC1EPKcS2_S2_i
 3943      00
 3944              		.loc 5 152 0 is_stmt 0 discriminator 1
 3945 19aa F30F1005 		movss	.LC42(%rip), %xmm0
 3945      00000000 
 3946 19b2 F30F1185 		movss	%xmm0, -2196(%rbp)
 3946      6CF7FFFF 
 3947 19ba 488DBD90 		leaq	-2160(%rbp), %rdi
 3947      F7FFFF
 3948 19c1 488D8D6C 		leaq	-2196(%rbp), %rcx
 3948      F7FFFF
 3949 19c8 488D9568 		leaq	-2200(%rbp), %rdx
 3949      F7FFFF
 3950 19cf 488DB564 		leaq	-2204(%rbp), %rsi
 3950      F7FFFF
 3951 19d6 488D8570 		leaq	-2192(%rbp), %rax
 3951      F7FFFF
 3952 19dd 4989F8   		movq	%rdi, %r8
 3953 19e0 4889C7   		movq	%rax, %rdi
 3954 19e3 E8000000 		call	_ZN8UnitTest10CheckCloseIfffEEvRNS_11TestResultsERKT_RKT0_RKT1_RKNS_11TestDetailsE
 3954      00
 3955              	.LEHE100:
 153:TestChecks.cpp **** 
 154:TestChecks.cpp **** 	using namespace std;
 155:TestChecks.cpp ****     CHECK(strstr(reporter.lastFailedMessage, "xpected 0.9"));
 3956              		.loc 5 155 0 is_stmt 1 discriminator 3
 3957 19e8 488D85B0 		leaq	-2128(%rbp), %rax
 3957      F7FFFF
 3958 19ef 48051405 		addq	$1300, %rax
 3958      0000
 3959 19f5 BE000000 		movl	$.LC43, %esi
 3959      00
 3960 19fa 4889C7   		movq	%rax, %rdi
 3961 19fd E8000000 		call	strstr
 3961      00
 3962 1a02 4889C7   		movq	%rax, %rdi
 3963 1a05 E8000000 		call	_ZN8UnitTest5CheckIPcEEbT_
 3963      00
 3964 1a0a 83F001   		xorl	$1, %eax
 3965 1a0d 84C0     		testb	%al, %al
 3966 1a0f 743E     		je	.L180
 3967              	.LEHB101:
 3968              		.loc 5 155 0 is_stmt 0 discriminator 1
 3969 1a11 E8000000 		call	_ZN8UnitTest11CurrentTest7DetailsEv
 3969      00
 3970 1a16 488B08   		movq	(%rax), %rcx
 3971 1a19 488D8590 		leaq	-2160(%rbp), %rax
 3971      F7FFFF
 3972 1a20 BA9B0000 		movl	$155, %edx
 3972      00
 3973 1a25 4889CE   		movq	%rcx, %rsi
 3974 1a28 4889C7   		movq	%rax, %rdi
 3975 1a2b E8000000 		call	_ZN8UnitTest11TestDetailsC1ERKS0_i
 3975      00
 3976              		.loc 5 155 0 discriminator 3
 3977 1a30 E8000000 		call	_ZN8UnitTest11CurrentTest7ResultsEv
 3977      00
 3978 1a35 488B00   		movq	(%rax), %rax
 3979 1a38 488D8D90 		leaq	-2160(%rbp), %rcx
 3979      F7FFFF
 3980 1a3f BA000000 		movl	$.LC44, %edx
 3980      00
 3981 1a44 4889CE   		movq	%rcx, %rsi
 3982 1a47 4889C7   		movq	%rax, %rdi
 3983 1a4a E8000000 		call	_ZN8UnitTest11TestResults13OnTestFailureERKNS_11TestDetailsEPKc
 3983      00
 3984              	.LEHE101:
 3985              	.L180:
 156:TestChecks.cpp ****     CHECK(strstr(reporter.lastFailedMessage, "was 1.1"));
 3986              		.loc 5 156 0 is_stmt 1
 3987 1a4f 488D85B0 		leaq	-2128(%rbp), %rax
 3987      F7FFFF
 3988 1a56 48051405 		addq	$1300, %rax
 3988      0000
 3989 1a5c BE000000 		movl	$.LC45, %esi
 3989      00
 3990 1a61 4889C7   		movq	%rax, %rdi
 3991 1a64 E8000000 		call	strstr
 3991      00
 3992 1a69 4889C7   		movq	%rax, %rdi
 3993 1a6c E8000000 		call	_ZN8UnitTest5CheckIPcEEbT_
 3993      00
 3994 1a71 83F001   		xorl	$1, %eax
 3995 1a74 84C0     		testb	%al, %al
 3996 1a76 743E     		je	.L181
 3997              	.LEHB102:
 3998              		.loc 5 156 0 is_stmt 0 discriminator 1
 3999 1a78 E8000000 		call	_ZN8UnitTest11CurrentTest7DetailsEv
 3999      00
 4000 1a7d 488B08   		movq	(%rax), %rcx
 4001 1a80 488D8590 		leaq	-2160(%rbp), %rax
 4001      F7FFFF
 4002 1a87 BA9C0000 		movl	$156, %edx
 4002      00
 4003 1a8c 4889CE   		movq	%rcx, %rsi
 4004 1a8f 4889C7   		movq	%rax, %rdi
 4005 1a92 E8000000 		call	_ZN8UnitTest11TestDetailsC1ERKS0_i
 4005      00
 4006              		.loc 5 156 0 discriminator 3
 4007 1a97 E8000000 		call	_ZN8UnitTest11CurrentTest7ResultsEv
 4007      00
 4008 1a9c 488B00   		movq	(%rax), %rax
 4009 1a9f 488D8D90 		leaq	-2160(%rbp), %rcx
 4009      F7FFFF
 4010 1aa6 BA000000 		movl	$.LC46, %edx
 4010      00
 4011 1aab 4889CE   		movq	%rcx, %rsi
 4012 1aae 4889C7   		movq	%rax, %rdi
 4013 1ab1 E8000000 		call	_ZN8UnitTest11TestResults13OnTestFailureERKNS_11TestDetailsEPKc
 4013      00
 4014              	.LEHE102:
 4015              	.L181:
 148:TestChecks.cpp ****     TestResults results(&reporter);
 4016              		.loc 5 148 0 is_stmt 1
 4017 1ab6 488D85B0 		leaq	-2128(%rbp), %rax
 4017      F7FFFF
 4018 1abd 4889C7   		movq	%rax, %rdi
 4019              	.LEHB103:
 4020 1ac0 E8000000 		call	_ZN17RecordingReporterD1Ev
 4020      00
 4021              	.LEHE103:
 157:TestChecks.cpp **** }
 4022              		.loc 5 157 0
 4023 1ac5 90       		nop
 4024 1ac6 488B45E8 		movq	-24(%rbp), %rax
 4025 1aca 64483304 		xorq	%fs:40, %rax
 4025      25280000 
 4025      00
 4026 1ad3 0F84DB00 		je	.L187
 4026      0000
 4027 1ad9 E9D10000 		jmp	.L193
 4027      00
 4028              	.L189:
 155:TestChecks.cpp ****     CHECK(strstr(reporter.lastFailedMessage, "was 1.1"));
 4029              		.loc 5 155 0
 4030 1ade 4889C7   		movq	%rax, %rdi
 4031 1ae1 E8000000 		call	__cxa_begin_catch
 4031      00
 4032              	.LEHB104:
 4033 1ae6 E8000000 		call	_ZN8UnitTest11CurrentTest7DetailsEv
 4033      00
 4034 1aeb 488B08   		movq	(%rax), %rcx
 4035 1aee 488D8590 		leaq	-2160(%rbp), %rax
 4035      F7FFFF
 4036 1af5 BA9B0000 		movl	$155, %edx
 4036      00
 4037 1afa 4889CE   		movq	%rcx, %rsi
 4038 1afd 4889C7   		movq	%rax, %rdi
 4039 1b00 E8000000 		call	_ZN8UnitTest11TestDetailsC1ERKS0_i
 4039      00
 155:TestChecks.cpp ****     CHECK(strstr(reporter.lastFailedMessage, "was 1.1"));
 4040              		.loc 5 155 0 is_stmt 0 discriminator 11
 4041 1b05 E8000000 		call	_ZN8UnitTest11CurrentTest7ResultsEv
 4041      00
 4042 1b0a 488B00   		movq	(%rax), %rax
 4043 1b0d 488D8D90 		leaq	-2160(%rbp), %rcx
 4043      F7FFFF
 4044 1b14 BA000000 		movl	$.LC47, %edx
 4044      00
 4045 1b19 4889CE   		movq	%rcx, %rsi
 4046 1b1c 4889C7   		movq	%rax, %rdi
 4047 1b1f E8000000 		call	_ZN8UnitTest11TestResults13OnTestFailureERKNS_11TestDetailsEPKc
 4047      00
 4048              	.LEHE104:
 4049              	.LEHB105:
 155:TestChecks.cpp ****     CHECK(strstr(reporter.lastFailedMessage, "was 1.1"));
 4050              		.loc 5 155 0 discriminator 15
 4051 1b24 E8000000 		call	__cxa_end_catch
 4051      00
 4052              	.LEHE105:
 155:TestChecks.cpp ****     CHECK(strstr(reporter.lastFailedMessage, "was 1.1"));
 4053              		.loc 5 155 0
 4054 1b29 E921FFFF 		jmp	.L180
 4054      FF
 4055              	.L190:
 4056 1b2e 4889C3   		movq	%rax, %rbx
 4057 1b31 E8000000 		call	__cxa_end_catch
 4057      00
 4058 1b36 EB5D     		jmp	.L184
 4059              	.L191:
 156:TestChecks.cpp **** }
 4060              		.loc 5 156 0 is_stmt 1
 4061 1b38 4889C7   		movq	%rax, %rdi
 4062 1b3b E8000000 		call	__cxa_begin_catch
 4062      00
 4063              	.LEHB106:
 4064 1b40 E8000000 		call	_ZN8UnitTest11CurrentTest7DetailsEv
 4064      00
 4065 1b45 488B08   		movq	(%rax), %rcx
 4066 1b48 488D8590 		leaq	-2160(%rbp), %rax
 4066      F7FFFF
 4067 1b4f BA9C0000 		movl	$156, %edx
 4067      00
 4068 1b54 4889CE   		movq	%rcx, %rsi
 4069 1b57 4889C7   		movq	%rax, %rdi
 4070 1b5a E8000000 		call	_ZN8UnitTest11TestDetailsC1ERKS0_i
 4070      00
 156:TestChecks.cpp **** }
 4071              		.loc 5 156 0 is_stmt 0 discriminator 11
 4072 1b5f E8000000 		call	_ZN8UnitTest11CurrentTest7ResultsEv
 4072      00
 4073 1b64 488B00   		movq	(%rax), %rax
 4074 1b67 488D8D90 		leaq	-2160(%rbp), %rcx
 4074      F7FFFF
 4075 1b6e BA000000 		movl	$.LC48, %edx
 4075      00
 4076 1b73 4889CE   		movq	%rcx, %rsi
 4077 1b76 4889C7   		movq	%rax, %rdi
 4078 1b79 E8000000 		call	_ZN8UnitTest11TestResults13OnTestFailureERKNS_11TestDetailsEPKc
 4078      00
 4079              	.LEHE106:
 4080              	.LEHB107:
 156:TestChecks.cpp **** }
 4081              		.loc 5 156 0 discriminator 15
 4082 1b7e E8000000 		call	__cxa_end_catch
 4082      00
 4083              	.LEHE107:
 156:TestChecks.cpp **** }
 4084              		.loc 5 156 0
 4085 1b83 E92EFFFF 		jmp	.L181
 4085      FF
 4086              	.L192:
 4087 1b88 4889C3   		movq	%rax, %rbx
 4088 1b8b E8000000 		call	__cxa_end_catch
 4088      00
 4089 1b90 EB03     		jmp	.L184
 4090              	.L188:
 4091 1b92 4889C3   		movq	%rax, %rbx
 4092              	.L184:
 148:TestChecks.cpp ****     TestResults results(&reporter);
 4093              		.loc 5 148 0 is_stmt 1
 4094 1b95 488D85B0 		leaq	-2128(%rbp), %rax
 4094      F7FFFF
 4095 1b9c 4889C7   		movq	%rax, %rdi
 4096 1b9f E8000000 		call	_ZN17RecordingReporterD1Ev
 4096      00
 4097 1ba4 4889D8   		movq	%rbx, %rax
 4098 1ba7 4889C7   		movq	%rax, %rdi
 4099              	.LEHB108:
 4100 1baa E8000000 		call	_Unwind_Resume
 4100      00
 4101              	.LEHE108:
 4102              	.L193:
 4103              		.loc 5 157 0
 4104 1baf E8000000 		call	__stack_chk_fail
 4104      00
 4105              	.L187:
 4106 1bb4 4881C4A8 		addq	$2216, %rsp
 4106      080000
 4107 1bbb 5B       		popq	%rbx
 4108 1bbc 5D       		popq	%rbp
 4109              		.cfi_def_cfa 7, 8
 4110 1bbd C3       		ret
 4111              		.cfi_endproc
 4112              	.LFE1138:
 4113              		.section	.gcc_except_table
 4114              		.align 4
 4115              	.LLSDA1138:
 4116 02c8 FF       		.byte	0xff
 4117 02c9 03       		.byte	0x3
 4118 02ca 3D       		.uleb128 .LLSDATT1138-.LLSDATTD1138
 4119              	.LLSDATTD1138:
 4120 02cb 01       		.byte	0x1
 4121 02cc 34       		.uleb128 .LLSDACSE1138-.LLSDACSB1138
 4122              	.LLSDACSB1138:
 4123 02cd 45       		.uleb128 .LEHB100-.LFB1138
 4124 02ce 8701     		.uleb128 .LEHE100-.LEHB100
 4125 02d0 F604     		.uleb128 .L188-.LFB1138
 4126 02d2 00       		.uleb128 0
 4127 02d3 F501     		.uleb128 .LEHB101-.LFB1138
 4128 02d5 3E       		.uleb128 .LEHE101-.LEHB101
 4129 02d6 C203     		.uleb128 .L189-.LFB1138
 4130 02d8 01       		.uleb128 0x1
 4131 02d9 DC02     		.uleb128 .LEHB102-.LFB1138
 4132 02db 3E       		.uleb128 .LEHE102-.LEHB102
 4133 02dc 9C04     		.uleb128 .L191-.LFB1138
 4134 02de 01       		.uleb128 0x1
 4135 02df A403     		.uleb128 .LEHB103-.LFB1138
 4136 02e1 05       		.uleb128 .LEHE103-.LEHB103
 4137 02e2 00       		.uleb128 0
 4138 02e3 00       		.uleb128 0
 4139 02e4 CA03     		.uleb128 .LEHB104-.LFB1138
 4140 02e6 3E       		.uleb128 .LEHE104-.LEHB104
 4141 02e7 9204     		.uleb128 .L190-.LFB1138
 4142 02e9 00       		.uleb128 0
 4143 02ea 8804     		.uleb128 .LEHB105-.LFB1138
 4144 02ec 05       		.uleb128 .LEHE105-.LEHB105
 4145 02ed F604     		.uleb128 .L188-.LFB1138
 4146 02ef 00       		.uleb128 0
 4147 02f0 A404     		.uleb128 .LEHB106-.LFB1138
 4148 02f2 3E       		.uleb128 .LEHE106-.LEHB106
 4149 02f3 EC04     		.uleb128 .L192-.LFB1138
 4150 02f5 00       		.uleb128 0
 4151 02f6 E204     		.uleb128 .LEHB107-.LFB1138
 4152 02f8 05       		.uleb128 .LEHE107-.LEHB107
 4153 02f9 F604     		.uleb128 .L188-.LFB1138
 4154 02fb 00       		.uleb128 0
 4155 02fc 8E05     		.uleb128 .LEHB108-.LFB1138
 4156 02fe 05       		.uleb128 .LEHE108-.LEHB108
 4157 02ff 00       		.uleb128 0
 4158 0300 00       		.uleb128 0
 4159              	.LLSDACSE1138:
 4160 0301 01       		.byte	0x1
 4161 0302 00       		.byte	0
 4162 0303 00       		.align 4
 4163 0304 00000000 		.long	0
 4164              	
 4165              	.LLSDATT1138:
 4166              		.text
 4168              		.section	.rodata
 4169 06bc 00000000 		.align 8
 4170              	.LC49:
 4171 06c0 43686563 		.string	"CheckCloseFailureIncludesTolerance"
 4171      6B436C6F 
 4171      73654661 
 4171      696C7572 
 4171      65496E63 
 4172              		.text
 4173              		.align 2
 4175              	_ZN12_GLOBAL__N_138TestCheckCloseFailureIncludesToleranceC2Ev:
 4176              	.LFB1140:
 158:TestChecks.cpp **** 
 159:TestChecks.cpp **** TEST(CheckCloseFailureIncludesTolerance)
 4177              		.loc 5 159 0
 4178              		.cfi_startproc
 4179 1bbe 55       		pushq	%rbp
 4180              		.cfi_def_cfa_offset 16
 4181              		.cfi_offset 6, -16
 4182 1bbf 4889E5   		movq	%rsp, %rbp
 4183              		.cfi_def_cfa_register 6
 4184 1bc2 4883EC10 		subq	$16, %rsp
 4185 1bc6 48897DF8 		movq	%rdi, -8(%rbp)
 4186              	.LBB21:
 4187              		.loc 5 159 0
 4188 1bca E8000000 		call	_ZN13UnitTestSuite12GetSuiteNameEv
 4188      00
 4189 1bcf 4889C2   		movq	%rax, %rdx
 4190 1bd2 488B45F8 		movq	-8(%rbp), %rax
 4191 1bd6 41B89F00 		movl	$159, %r8d
 4191      0000
 4192 1bdc B9000000 		movl	$.LC2, %ecx
 4192      00
 4193 1be1 BE000000 		movl	$.LC49, %esi
 4193      00
 4194 1be6 4889C7   		movq	%rax, %rdi
 4195 1be9 E8000000 		call	_ZN8UnitTest4TestC2EPKcS2_S2_i
 4195      00
 4196 1bee BA000000 		movl	$_ZTVN12_GLOBAL__N_138TestCheckCloseFailureIncludesToleranceE+16, %edx
 4196      00
 4197 1bf3 488B45F8 		movq	-8(%rbp), %rax
 4198 1bf7 488910   		movq	%rdx, (%rax)
 4199              	.LBE21:
 4200 1bfa 90       		nop
 4201 1bfb C9       		leave
 4202              		.cfi_def_cfa 7, 8
 4203 1bfc C3       		ret
 4204              		.cfi_endproc
 4205              	.LFE1140:
 4207              		.set	_ZN12_GLOBAL__N_138TestCheckCloseFailureIncludesToleranceC1Ev,_ZN12_GLOBAL__N_138TestCheckClo
 4208              		.local	_ZN12_GLOBAL__N_146testCheckCloseFailureIncludesToleranceInstanceE
 4209              		.comm	_ZN12_GLOBAL__N_146testCheckCloseFailureIncludesToleranceInstanceE,56,32
 4210              		.local	_ZN12_GLOBAL__N_139adderCheckCloseFailureIncludesToleranceE
 4211              		.comm	_ZN12_GLOBAL__N_139adderCheckCloseFailureIncludesToleranceE,1,1
 4212              		.section	.rodata
 4213              	.LC50:
 4214 06e3 302E3031 		.string	"0.01"
 4214      00
 4215              		.align 8
 4216              	.LC51:
 4217 06e8 73747273 		.string	"strstr(reporter.lastFailedMessage, \"0.01\")"
 4217      74722872 
 4217      65706F72 
 4217      7465722E 
 4217      6C617374 
 4218 0713 00000000 		.align 8
 4218      00
 4219              	.LC52:
 4220 0718 556E6861 		.string	"Unhandled exception in CHECK(strstr(reporter.lastFailedMessage, \"0.01\"))"
 4220      6E646C65 
 4220      64206578 
 4220      63657074 
 4220      696F6E20 
 4221              		.text
 4222 1bfd 90       		.align 2
 4224              	_ZNK12_GLOBAL__N_138TestCheckCloseFailureIncludesTolerance7RunImplEv:
 4225              	.LFB1142:
 160:TestChecks.cpp **** {
 4226              		.loc 5 160 0
 4227              		.cfi_startproc
 4228              		.cfi_personality 0x3,__gxx_personality_v0
 4229              		.cfi_lsda 0x3,.LLSDA1142
 4230 1bfe 55       		pushq	%rbp
 4231              		.cfi_def_cfa_offset 16
 4232              		.cfi_offset 6, -16
 4233 1bff 4889E5   		movq	%rsp, %rbp
 4234              		.cfi_def_cfa_register 6
 4235 1c02 53       		pushq	%rbx
 4236 1c03 4881ECA8 		subq	$2216, %rsp
 4236      080000
 4237              		.cfi_offset 3, -24
 4238 1c0a 4889BD58 		movq	%rdi, -2216(%rbp)
 4238      F7FFFF
 4239              		.loc 5 160 0
 4240 1c11 64488B04 		movq	%fs:40, %rax
 4240      25280000 
 4240      00
 4241 1c1a 488945E8 		movq	%rax, -24(%rbp)
 4242 1c1e 31C0     		xorl	%eax, %eax
 161:TestChecks.cpp ****     RecordingReporter reporter;
 4243              		.loc 5 161 0
 4244 1c20 488D85B0 		leaq	-2128(%rbp), %rax
 4244      F7FFFF
 4245 1c27 4889C7   		movq	%rax, %rdi
 4246 1c2a E8000000 		call	_ZN17RecordingReporterC1Ev
 4246      00
 162:TestChecks.cpp ****     TestResults results(&reporter);
 4247              		.loc 5 162 0
 4248 1c2f 488D95B0 		leaq	-2128(%rbp), %rdx
 4248      F7FFFF
 4249 1c36 488D8570 		leaq	-2192(%rbp), %rax
 4249      F7FFFF
 4250 1c3d 4889D6   		movq	%rdx, %rsi
 4251 1c40 4889C7   		movq	%rax, %rdi
 4252              	.LEHB109:
 4253 1c43 E8000000 		call	_ZN8UnitTest11TestResultsC1EPNS_12TestReporterE
 4253      00
 163:TestChecks.cpp ****     CheckClose(results, 2, 3, 0.01f, TestDetails("", "", "", 0));
 4254              		.loc 5 163 0
 4255 1c48 488D8590 		leaq	-2160(%rbp), %rax
 4255      F7FFFF
 4256 1c4f 41B80000 		movl	$0, %r8d
 4256      0000
 4257 1c55 B9000000 		movl	$.LC6, %ecx
 4257      00
 4258 1c5a BA000000 		movl	$.LC6, %edx
 4258      00
 4259 1c5f BE000000 		movl	$.LC6, %esi
 4259      00
 4260 1c64 4889C7   		movq	%rax, %rdi
 4261 1c67 E8000000 		call	_ZN8UnitTest11TestDetailsC1EPKcS2_S2_i
 4261      00
 4262              		.loc 5 163 0 is_stmt 0 discriminator 1
 4263 1c6c F30F1005 		movss	.LC42(%rip), %xmm0
 4263      00000000 
 4264 1c74 F30F1185 		movss	%xmm0, -2196(%rbp)
 4264      6CF7FFFF 
 4265 1c7c C78568F7 		movl	$3, -2200(%rbp)
 4265      FFFF0300 
 4265      0000
 4266 1c86 C78564F7 		movl	$2, -2204(%rbp)
 4266      FFFF0200 
 4266      0000
 4267 1c90 488DBD90 		leaq	-2160(%rbp), %rdi
 4267      F7FFFF
 4268 1c97 488D8D6C 		leaq	-2196(%rbp), %rcx
 4268      F7FFFF
 4269 1c9e 488D9568 		leaq	-2200(%rbp), %rdx
 4269      F7FFFF
 4270 1ca5 488DB564 		leaq	-2204(%rbp), %rsi
 4270      F7FFFF
 4271 1cac 488D8570 		leaq	-2192(%rbp), %rax
 4271      F7FFFF
 4272 1cb3 4989F8   		movq	%rdi, %r8
 4273 1cb6 4889C7   		movq	%rax, %rdi
 4274 1cb9 E8000000 		call	_ZN8UnitTest10CheckCloseIiifEEvRNS_11TestResultsERKT_RKT0_RKT1_RKNS_11TestDetailsE
 4274      00
 4275              	.LEHE109:
 164:TestChecks.cpp **** 
 165:TestChecks.cpp **** 	using namespace std;
 166:TestChecks.cpp ****     CHECK(strstr(reporter.lastFailedMessage, "0.01"));
 4276              		.loc 5 166 0 is_stmt 1 discriminator 3
 4277 1cbe 488D85B0 		leaq	-2128(%rbp), %rax
 4277      F7FFFF
 4278 1cc5 48051405 		addq	$1300, %rax
 4278      0000
 4279 1ccb BE000000 		movl	$.LC50, %esi
 4279      00
 4280 1cd0 4889C7   		movq	%rax, %rdi
 4281 1cd3 E8000000 		call	strstr
 4281      00
 4282 1cd8 4889C7   		movq	%rax, %rdi
 4283 1cdb E8000000 		call	_ZN8UnitTest5CheckIPcEEbT_
 4283      00
 4284 1ce0 83F001   		xorl	$1, %eax
 4285 1ce3 84C0     		testb	%al, %al
 4286 1ce5 743E     		je	.L196
 4287              	.LEHB110:
 4288              		.loc 5 166 0 is_stmt 0 discriminator 1
 4289 1ce7 E8000000 		call	_ZN8UnitTest11CurrentTest7DetailsEv
 4289      00
 4290 1cec 488B08   		movq	(%rax), %rcx
 4291 1cef 488D8590 		leaq	-2160(%rbp), %rax
 4291      F7FFFF
 4292 1cf6 BAA60000 		movl	$166, %edx
 4292      00
 4293 1cfb 4889CE   		movq	%rcx, %rsi
 4294 1cfe 4889C7   		movq	%rax, %rdi
 4295 1d01 E8000000 		call	_ZN8UnitTest11TestDetailsC1ERKS0_i
 4295      00
 4296              		.loc 5 166 0 discriminator 3
 4297 1d06 E8000000 		call	_ZN8UnitTest11CurrentTest7ResultsEv
 4297      00
 4298 1d0b 488B00   		movq	(%rax), %rax
 4299 1d0e 488D8D90 		leaq	-2160(%rbp), %rcx
 4299      F7FFFF
 4300 1d15 BA000000 		movl	$.LC51, %edx
 4300      00
 4301 1d1a 4889CE   		movq	%rcx, %rsi
 4302 1d1d 4889C7   		movq	%rax, %rdi
 4303 1d20 E8000000 		call	_ZN8UnitTest11TestResults13OnTestFailureERKNS_11TestDetailsEPKc
 4303      00
 4304              	.LEHE110:
 4305              	.L196:
 161:TestChecks.cpp ****     TestResults results(&reporter);
 4306              		.loc 5 161 0 is_stmt 1
 4307 1d25 488D85B0 		leaq	-2128(%rbp), %rax
 4307      F7FFFF
 4308 1d2c 4889C7   		movq	%rax, %rdi
 4309              	.LEHB111:
 4310 1d2f E8000000 		call	_ZN17RecordingReporterD1Ev
 4310      00
 4311              	.LEHE111:
 167:TestChecks.cpp **** }
 4312              		.loc 5 167 0
 4313 1d34 90       		nop
 4314 1d35 488B45E8 		movq	-24(%rbp), %rax
 4315 1d39 64483304 		xorq	%fs:40, %rax
 4315      25280000 
 4315      00
 4316 1d42 747B     		je	.L200
 4317 1d44 EB74     		jmp	.L204
 4318              	.L202:
 166:TestChecks.cpp **** }
 4319              		.loc 5 166 0
 4320 1d46 4889C7   		movq	%rax, %rdi
 4321 1d49 E8000000 		call	__cxa_begin_catch
 4321      00
 4322              	.LEHB112:
 4323 1d4e E8000000 		call	_ZN8UnitTest11CurrentTest7DetailsEv
 4323      00
 4324 1d53 488B08   		movq	(%rax), %rcx
 4325 1d56 488D8590 		leaq	-2160(%rbp), %rax
 4325      F7FFFF
 4326 1d5d BAA60000 		movl	$166, %edx
 4326      00
 4327 1d62 4889CE   		movq	%rcx, %rsi
 4328 1d65 4889C7   		movq	%rax, %rdi
 4329 1d68 E8000000 		call	_ZN8UnitTest11TestDetailsC1ERKS0_i
 4329      00
 166:TestChecks.cpp **** }
 4330              		.loc 5 166 0 is_stmt 0 discriminator 11
 4331 1d6d E8000000 		call	_ZN8UnitTest11CurrentTest7ResultsEv
 4331      00
 4332 1d72 488B00   		movq	(%rax), %rax
 4333 1d75 488D8D90 		leaq	-2160(%rbp), %rcx
 4333      F7FFFF
 4334 1d7c BA000000 		movl	$.LC52, %edx
 4334      00
 4335 1d81 4889CE   		movq	%rcx, %rsi
 4336 1d84 4889C7   		movq	%rax, %rdi
 4337 1d87 E8000000 		call	_ZN8UnitTest11TestResults13OnTestFailureERKNS_11TestDetailsEPKc
 4337      00
 4338              	.LEHE112:
 4339              	.LEHB113:
 166:TestChecks.cpp **** }
 4340              		.loc 5 166 0 discriminator 15
 4341 1d8c E8000000 		call	__cxa_end_catch
 4341      00
 4342              	.LEHE113:
 166:TestChecks.cpp **** }
 4343              		.loc 5 166 0
 4344 1d91 EB92     		jmp	.L196
 4345              	.L203:
 4346 1d93 4889C3   		movq	%rax, %rbx
 4347 1d96 E8000000 		call	__cxa_end_catch
 4347      00
 4348 1d9b EB03     		jmp	.L199
 4349              	.L201:
 4350 1d9d 4889C3   		movq	%rax, %rbx
 4351              	.L199:
 161:TestChecks.cpp ****     TestResults results(&reporter);
 4352              		.loc 5 161 0 is_stmt 1
 4353 1da0 488D85B0 		leaq	-2128(%rbp), %rax
 4353      F7FFFF
 4354 1da7 4889C7   		movq	%rax, %rdi
 4355 1daa E8000000 		call	_ZN17RecordingReporterD1Ev
 4355      00
 4356 1daf 4889D8   		movq	%rbx, %rax
 4357 1db2 4889C7   		movq	%rax, %rdi
 4358              	.LEHB114:
 4359 1db5 E8000000 		call	_Unwind_Resume
 4359      00
 4360              	.LEHE114:
 4361              	.L204:
 4362              		.loc 5 167 0
 4363 1dba E8000000 		call	__stack_chk_fail
 4363      00
 4364              	.L200:
 4365 1dbf 4881C4A8 		addq	$2216, %rsp
 4365      080000
 4366 1dc6 5B       		popq	%rbx
 4367 1dc7 5D       		popq	%rbp
 4368              		.cfi_def_cfa 7, 8
 4369 1dc8 C3       		ret
 4370              		.cfi_endproc
 4371              	.LFE1142:
 4372              		.section	.gcc_except_table
 4373              		.align 4
 4374              	.LLSDA1142:
 4375 0308 FF       		.byte	0xff
 4376 0309 03       		.byte	0x3
 4377 030a 29       		.uleb128 .LLSDATT1142-.LLSDATTD1142
 4378              	.LLSDATTD1142:
 4379 030b 01       		.byte	0x1
 4380 030c 21       		.uleb128 .LLSDACSE1142-.LLSDACSB1142
 4381              	.LLSDACSB1142:
 4382 030d 45       		.uleb128 .LEHB109-.LFB1142
 4383 030e 7B       		.uleb128 .LEHE109-.LEHB109
 4384 030f 9F03     		.uleb128 .L201-.LFB1142
 4385 0311 00       		.uleb128 0
 4386 0312 E901     		.uleb128 .LEHB110-.LFB1142
 4387 0314 3E       		.uleb128 .LEHE110-.LEHB110
 4388 0315 C802     		.uleb128 .L202-.LFB1142
 4389 0317 01       		.uleb128 0x1
 4390 0318 B102     		.uleb128 .LEHB111-.LFB1142
 4391 031a 05       		.uleb128 .LEHE111-.LEHB111
 4392 031b 00       		.uleb128 0
 4393 031c 00       		.uleb128 0
 4394 031d D002     		.uleb128 .LEHB112-.LFB1142
 4395 031f 3E       		.uleb128 .LEHE112-.LEHB112
 4396 0320 9503     		.uleb128 .L203-.LFB1142
 4397 0322 00       		.uleb128 0
 4398 0323 8E03     		.uleb128 .LEHB113-.LFB1142
 4399 0325 05       		.uleb128 .LEHE113-.LEHB113
 4400 0326 9F03     		.uleb128 .L201-.LFB1142
 4401 0328 00       		.uleb128 0
 4402 0329 B703     		.uleb128 .LEHB114-.LFB1142
 4403 032b 05       		.uleb128 .LEHE114-.LEHB114
 4404 032c 00       		.uleb128 0
 4405 032d 00       		.uleb128 0
 4406              	.LLSDACSE1142:
 4407 032e 01       		.byte	0x1
 4408 032f 00       		.byte	0
 4409              		.align 4
 4410 0330 00000000 		.long	0
 4411              	
 4412              	.LLSDATT1142:
 4413              		.text
 4415              		.section	.rodata
 4416 0761 00000000 		.align 8
 4416      000000
 4417              	.LC53:
 4418 0768 43686563 		.string	"CheckCloseFailureIncludesDetails"
 4418      6B436C6F 
 4418      73654661 
 4418      696C7572 
 4418      65496E63 
 4419              		.text
 4420 1dc9 90       		.align 2
 4422              	_ZN12_GLOBAL__N_136TestCheckCloseFailureIncludesDetailsC2Ev:
 4423              	.LFB1144:
 168:TestChecks.cpp **** 
 169:TestChecks.cpp **** TEST(CheckCloseFailureIncludesDetails)
 4424              		.loc 5 169 0
 4425              		.cfi_startproc
 4426 1dca 55       		pushq	%rbp
 4427              		.cfi_def_cfa_offset 16
 4428              		.cfi_offset 6, -16
 4429 1dcb 4889E5   		movq	%rsp, %rbp
 4430              		.cfi_def_cfa_register 6
 4431 1dce 4883EC10 		subq	$16, %rsp
 4432 1dd2 48897DF8 		movq	%rdi, -8(%rbp)
 4433              	.LBB22:
 4434              		.loc 5 169 0
 4435 1dd6 E8000000 		call	_ZN13UnitTestSuite12GetSuiteNameEv
 4435      00
 4436 1ddb 4889C2   		movq	%rax, %rdx
 4437 1dde 488B45F8 		movq	-8(%rbp), %rax
 4438 1de2 41B8A900 		movl	$169, %r8d
 4438      0000
 4439 1de8 B9000000 		movl	$.LC2, %ecx
 4439      00
 4440 1ded BE000000 		movl	$.LC53, %esi
 4440      00
 4441 1df2 4889C7   		movq	%rax, %rdi
 4442 1df5 E8000000 		call	_ZN8UnitTest4TestC2EPKcS2_S2_i
 4442      00
 4443 1dfa BA000000 		movl	$_ZTVN12_GLOBAL__N_136TestCheckCloseFailureIncludesDetailsE+16, %edx
 4443      00
 4444 1dff 488B45F8 		movq	-8(%rbp), %rax
 4445 1e03 488910   		movq	%rdx, (%rax)
 4446              	.LBE22:
 4447 1e06 90       		nop
 4448 1e07 C9       		leave
 4449              		.cfi_def_cfa 7, 8
 4450 1e08 C3       		ret
 4451              		.cfi_endproc
 4452              	.LFE1144:
 4454              		.set	_ZN12_GLOBAL__N_136TestCheckCloseFailureIncludesDetailsC1Ev,_ZN12_GLOBAL__N_136TestCheckClose
 4455              		.local	_ZN12_GLOBAL__N_144testCheckCloseFailureIncludesDetailsInstanceE
 4456              		.comm	_ZN12_GLOBAL__N_144testCheckCloseFailureIncludesDetailsInstanceE,56,32
 4457              		.local	_ZN12_GLOBAL__N_137adderCheckCloseFailureIncludesDetailsE
 4458              		.comm	_ZN12_GLOBAL__N_137adderCheckCloseFailureIncludesDetailsE,1,1
 4459              		.section	.rodata
 4460              	.LC54:
 4461 0789 68656164 		.string	"header.h"
 4461      65722E68 
 4461      00
 4462 0792 00000000 		.align 8
 4462      0000
 4463              	.LC55:
 4464 0798 556E6861 		.string	"Unhandled exception in CHECK_EQUAL(\"header.h\", reporter.lastFailedFile)"
 4464      6E646C65 
 4464      64206578 
 4464      63657074 
 4464      696F6E20 
 4465              		.align 8
 4466              	.LC56:
 4467 07e0 556E6861 		.string	"Unhandled exception in CHECK_EQUAL(10, reporter.lastFailedLine)"
 4467      6E646C65 
 4467      64206578 
 4467      63657074 
 4467      696F6E20 
 4468              		.text
 4469 1e09 90       		.align 2
 4471              	_ZNK12_GLOBAL__N_136TestCheckCloseFailureIncludesDetails7RunImplEv:
 4472              	.LFB1146:
 170:TestChecks.cpp **** {
 4473              		.loc 5 170 0
 4474              		.cfi_startproc
 4475              		.cfi_personality 0x3,__gxx_personality_v0
 4476              		.cfi_lsda 0x3,.LLSDA1146
 4477 1e0a 55       		pushq	%rbp
 4478              		.cfi_def_cfa_offset 16
 4479              		.cfi_offset 6, -16
 4480 1e0b 4889E5   		movq	%rsp, %rbp
 4481              		.cfi_def_cfa_register 6
 4482 1e0e 53       		pushq	%rbx
 4483 1e0f 4881ECC8 		subq	$2248, %rsp
 4483      080000
 4484              		.cfi_offset 3, -24
 4485 1e16 4889BD38 		movq	%rdi, -2248(%rbp)
 4485      F7FFFF
 4486              		.loc 5 170 0
 4487 1e1d 64488B04 		movq	%fs:40, %rax
 4487      25280000 
 4487      00
 4488 1e26 488945E8 		movq	%rax, -24(%rbp)
 4489 1e2a 31C0     		xorl	%eax, %eax
 171:TestChecks.cpp ****     RecordingReporter reporter;
 4490              		.loc 5 171 0
 4491 1e2c 488D85B0 		leaq	-2128(%rbp), %rax
 4491      F7FFFF
 4492 1e33 4889C7   		movq	%rax, %rdi
 4493 1e36 E8000000 		call	_ZN17RecordingReporterC1Ev
 4493      00
 172:TestChecks.cpp ****     TestResults results(&reporter);
 4494              		.loc 5 172 0
 4495 1e3b 488D95B0 		leaq	-2128(%rbp), %rdx
 4495      F7FFFF
 4496 1e42 488D8550 		leaq	-2224(%rbp), %rax
 4496      F7FFFF
 4497 1e49 4889D6   		movq	%rdx, %rsi
 4498 1e4c 4889C7   		movq	%rax, %rdi
 4499              	.LEHB115:
 4500 1e4f E8000000 		call	_ZN8UnitTest11TestResultsC1EPNS_12TestReporterE
 4500      00
 173:TestChecks.cpp ****     TestDetails const details("mytest", "mysuite", "header.h", 10);
 4501              		.loc 5 173 0
 4502 1e54 488D8570 		leaq	-2192(%rbp), %rax
 4502      F7FFFF
 4503 1e5b 41B80A00 		movl	$10, %r8d
 4503      0000
 4504 1e61 B9000000 		movl	$.LC54, %ecx
 4504      00
 4505 1e66 BA000000 		movl	$.LC24, %edx
 4505      00
 4506 1e6b BE000000 		movl	$.LC25, %esi
 4506      00
 4507 1e70 4889C7   		movq	%rax, %rdi
 4508 1e73 E8000000 		call	_ZN8UnitTest11TestDetailsC1EPKcS2_S2_i
 4508      00
 174:TestChecks.cpp **** 
 175:TestChecks.cpp ****     CheckClose(results, 2, 3, 0.01f, details);
 4509              		.loc 5 175 0
 4510 1e78 F30F1005 		movss	.LC42(%rip), %xmm0
 4510      00000000 
 4511 1e80 F30F1185 		movss	%xmm0, -2160(%rbp)
 4511      90F7FFFF 
 4512 1e88 C7854CF7 		movl	$3, -2228(%rbp)
 4512      FFFF0300 
 4512      0000
 4513 1e92 C78548F7 		movl	$2, -2232(%rbp)
 4513      FFFF0200 
 4513      0000
 4514 1e9c 488DBD70 		leaq	-2192(%rbp), %rdi
 4514      F7FFFF
 4515 1ea3 488D8D90 		leaq	-2160(%rbp), %rcx
 4515      F7FFFF
 4516 1eaa 488D954C 		leaq	-2228(%rbp), %rdx
 4516      F7FFFF
 4517 1eb1 488DB548 		leaq	-2232(%rbp), %rsi
 4517      F7FFFF
 4518 1eb8 488D8550 		leaq	-2224(%rbp), %rax
 4518      F7FFFF
 4519 1ebf 4989F8   		movq	%rdi, %r8
 4520 1ec2 4889C7   		movq	%rax, %rdi
 4521 1ec5 E8000000 		call	_ZN8UnitTest10CheckCloseIiifEEvRNS_11TestResultsERKT_RKT0_RKT1_RKNS_11TestDetailsE
 4521      00
 4522              	.LEHE115:
 4523              	.LEHB116:
 176:TestChecks.cpp **** 
 177:TestChecks.cpp ****     CHECK_EQUAL("mytest", reporter.lastFailedTest);
 4524              		.loc 5 177 0 discriminator 2
 4525 1eca E8000000 		call	_ZN8UnitTest11CurrentTest7DetailsEv
 4525      00
 4526 1ecf 488B08   		movq	(%rax), %rcx
 4527 1ed2 488D8590 		leaq	-2160(%rbp), %rax
 4527      F7FFFF
 4528 1ed9 BAB10000 		movl	$177, %edx
 4528      00
 4529 1ede 4889CE   		movq	%rcx, %rsi
 4530 1ee1 4889C7   		movq	%rax, %rdi
 4531 1ee4 E8000000 		call	_ZN8UnitTest11TestDetailsC1ERKS0_i
 4531      00
 4532 1ee9 E8000000 		call	_ZN8UnitTest11CurrentTest7ResultsEv
 4532      00
 4533 1eee 488B00   		movq	(%rax), %rax
 4534 1ef1 488D9590 		leaq	-2160(%rbp), %rdx
 4534      F7FFFF
 4535 1ef8 488D8DB0 		leaq	-2128(%rbp), %rcx
 4535      F7FFFF
 4536 1eff 488DB114 		leaq	1044(%rcx), %rsi
 4536      040000
 4537 1f06 4889D1   		movq	%rdx, %rcx
 4538 1f09 4889F2   		movq	%rsi, %rdx
 4539 1f0c BE000000 		movl	$.LC25, %esi
 4539      00
 4540 1f11 4889C7   		movq	%rax, %rdi
 4541 1f14 E8000000 		call	_ZN8UnitTest10CheckEqualERNS_11TestResultsEPKcPcRKNS_11TestDetailsE
 4541      00
 4542              	.LEHE116:
 4543              	.L208:
 4544              	.LEHB117:
 178:TestChecks.cpp ****     CHECK_EQUAL("mysuite", reporter.lastFailedSuite);
 4545              		.loc 5 178 0
 4546 1f19 E8000000 		call	_ZN8UnitTest11CurrentTest7DetailsEv
 4546      00
 4547 1f1e 488B08   		movq	(%rax), %rcx
 4548 1f21 488D8590 		leaq	-2160(%rbp), %rax
 4548      F7FFFF
 4549 1f28 BAB20000 		movl	$178, %edx
 4549      00
 4550 1f2d 4889CE   		movq	%rcx, %rsi
 4551 1f30 4889C7   		movq	%rax, %rdi
 4552 1f33 E8000000 		call	_ZN8UnitTest11TestDetailsC1ERKS0_i
 4552      00
 4553              		.loc 5 178 0 is_stmt 0 discriminator 2
 4554 1f38 E8000000 		call	_ZN8UnitTest11CurrentTest7ResultsEv
 4554      00
 4555 1f3d 488B00   		movq	(%rax), %rax
 4556 1f40 488D9590 		leaq	-2160(%rbp), %rdx
 4556      F7FFFF
 4557 1f47 488D8DB0 		leaq	-2128(%rbp), %rcx
 4557      F7FFFF
 4558 1f4e 488DB114 		leaq	788(%rcx), %rsi
 4558      030000
 4559 1f55 4889D1   		movq	%rdx, %rcx
 4560 1f58 4889F2   		movq	%rsi, %rdx
 4561 1f5b BE000000 		movl	$.LC24, %esi
 4561      00
 4562 1f60 4889C7   		movq	%rax, %rdi
 4563 1f63 E8000000 		call	_ZN8UnitTest10CheckEqualERNS_11TestResultsEPKcPcRKNS_11TestDetailsE
 4563      00
 4564              	.LEHE117:
 4565              	.L212:
 4566              	.LEHB118:
 179:TestChecks.cpp ****     CHECK_EQUAL("header.h", reporter.lastFailedFile);
 4567              		.loc 5 179 0 is_stmt 1
 4568 1f68 E8000000 		call	_ZN8UnitTest11CurrentTest7DetailsEv
 4568      00
 4569 1f6d 488B08   		movq	(%rax), %rcx
 4570 1f70 488D8590 		leaq	-2160(%rbp), %rax
 4570      F7FFFF
 4571 1f77 BAB30000 		movl	$179, %edx
 4571      00
 4572 1f7c 4889CE   		movq	%rcx, %rsi
 4573 1f7f 4889C7   		movq	%rax, %rdi
 4574 1f82 E8000000 		call	_ZN8UnitTest11TestDetailsC1ERKS0_i
 4574      00
 4575              		.loc 5 179 0 is_stmt 0 discriminator 2
 4576 1f87 E8000000 		call	_ZN8UnitTest11CurrentTest7ResultsEv
 4576      00
 4577 1f8c 488B00   		movq	(%rax), %rax
 4578 1f8f 488D9590 		leaq	-2160(%rbp), %rdx
 4578      F7FFFF
 4579 1f96 488D8DB0 		leaq	-2128(%rbp), %rcx
 4579      F7FFFF
 4580 1f9d 488DB110 		leaq	528(%rcx), %rsi
 4580      020000
 4581 1fa4 4889D1   		movq	%rdx, %rcx
 4582 1fa7 4889F2   		movq	%rsi, %rdx
 4583 1faa BE000000 		movl	$.LC54, %esi
 4583      00
 4584 1faf 4889C7   		movq	%rax, %rdi
 4585 1fb2 E8000000 		call	_ZN8UnitTest10CheckEqualERNS_11TestResultsEPKcPcRKNS_11TestDetailsE
 4585      00
 4586              	.LEHE118:
 4587              	.L215:
 4588              	.LEHB119:
 180:TestChecks.cpp ****     CHECK_EQUAL(10, reporter.lastFailedLine);
 4589              		.loc 5 180 0 is_stmt 1
 4590 1fb7 E8000000 		call	_ZN8UnitTest11CurrentTest7DetailsEv
 4590      00
 4591 1fbc 488B08   		movq	(%rax), %rcx
 4592 1fbf 488D8590 		leaq	-2160(%rbp), %rax
 4592      F7FFFF
 4593 1fc6 BAB40000 		movl	$180, %edx
 4593      00
 4594 1fcb 4889CE   		movq	%rcx, %rsi
 4595 1fce 4889C7   		movq	%rax, %rdi
 4596 1fd1 E8000000 		call	_ZN8UnitTest11TestDetailsC1ERKS0_i
 4596      00
 4597              	.LEHE119:
 4598              		.loc 5 180 0 is_stmt 0 discriminator 2
 4599 1fd6 C7854CF7 		movl	$10, -2228(%rbp)
 4599      FFFF0A00 
 4599      0000
 4600              	.LEHB120:
 4601 1fe0 E8000000 		call	_ZN8UnitTest11CurrentTest7ResultsEv
 4601      00
 4602 1fe5 488B00   		movq	(%rax), %rax
 4603 1fe8 488D9590 		leaq	-2160(%rbp), %rdx
 4603      F7FFFF
 4604 1fef 488D8DB0 		leaq	-2128(%rbp), %rcx
 4604      F7FFFF
 4605 1ff6 488DB910 		leaq	784(%rcx), %rdi
 4605      030000
 4606 1ffd 488DB54C 		leaq	-2228(%rbp), %rsi
 4606      F7FFFF
 4607 2004 4889D1   		movq	%rdx, %rcx
 4608 2007 4889FA   		movq	%rdi, %rdx
 4609 200a 4889C7   		movq	%rax, %rdi
 4610 200d E8000000 		call	_ZN8UnitTest10CheckEqualIiiEEvRNS_11TestResultsERKT_RKT0_RKNS_11TestDetailsE
 4610      00
 4611              	.LEHE120:
 4612              	.L219:
 171:TestChecks.cpp ****     TestResults results(&reporter);
 4613              		.loc 5 171 0 is_stmt 1
 4614 2012 488D85B0 		leaq	-2128(%rbp), %rax
 4614      F7FFFF
 4615 2019 4889C7   		movq	%rax, %rdi
 4616              	.LEHB121:
 4617 201c E8000000 		call	_ZN17RecordingReporterD1Ev
 4617      00
 4618              	.LEHE121:
 181:TestChecks.cpp **** }
 4619              		.loc 5 181 0
 4620 2021 90       		nop
 4621 2022 488B45E8 		movq	-24(%rbp), %rax
 4622 2026 64483304 		xorq	%fs:40, %rax
 4622      25280000 
 4622      00
 4623 202f 0F849701 		je	.L221
 4623      0000
 4624 2035 E98D0100 		jmp	.L232
 4624      00
 4625              	.L223:
 177:TestChecks.cpp ****     CHECK_EQUAL("mysuite", reporter.lastFailedSuite);
 4626              		.loc 5 177 0
 4627 203a 4889C7   		movq	%rax, %rdi
 4628 203d E8000000 		call	__cxa_begin_catch
 4628      00
 4629              	.LEHB122:
 4630 2042 E8000000 		call	_ZN8UnitTest11CurrentTest7DetailsEv
 4630      00
 4631 2047 488B08   		movq	(%rax), %rcx
 4632 204a 488D8590 		leaq	-2160(%rbp), %rax
 4632      F7FFFF
 4633 2051 BAB10000 		movl	$177, %edx
 4633      00
 4634 2056 4889CE   		movq	%rcx, %rsi
 4635 2059 4889C7   		movq	%rax, %rdi
 4636 205c E8000000 		call	_ZN8UnitTest11TestDetailsC1ERKS0_i
 4636      00
 177:TestChecks.cpp ****     CHECK_EQUAL("mysuite", reporter.lastFailedSuite);
 4637              		.loc 5 177 0 is_stmt 0 discriminator 10
 4638 2061 E8000000 		call	_ZN8UnitTest11CurrentTest7ResultsEv
 4638      00
 4639 2066 488B00   		movq	(%rax), %rax
 4640 2069 488D8D90 		leaq	-2160(%rbp), %rcx
 4640      F7FFFF
 4641 2070 BA000000 		movl	$.LC26, %edx
 4641      00
 4642 2075 4889CE   		movq	%rcx, %rsi
 4643 2078 4889C7   		movq	%rax, %rdi
 4644 207b E8000000 		call	_ZN8UnitTest11TestResults13OnTestFailureERKNS_11TestDetailsEPKc
 4644      00
 4645              	.LEHE122:
 4646              	.LEHB123:
 177:TestChecks.cpp ****     CHECK_EQUAL("mysuite", reporter.lastFailedSuite);
 4647              		.loc 5 177 0 discriminator 14
 4648 2080 E8000000 		call	__cxa_end_catch
 4648      00
 4649              	.LEHE123:
 177:TestChecks.cpp ****     CHECK_EQUAL("mysuite", reporter.lastFailedSuite);
 4650              		.loc 5 177 0
 4651 2085 E98FFEFF 		jmp	.L208
 4651      FF
 4652              	.L224:
 4653 208a 4889C3   		movq	%rax, %rbx
 4654 208d E8000000 		call	__cxa_end_catch
 4654      00
 4655 2092 E9160100 		jmp	.L210
 4655      00
 4656              	.L225:
 178:TestChecks.cpp ****     CHECK_EQUAL("header.h", reporter.lastFailedFile);
 4657              		.loc 5 178 0 is_stmt 1
 4658 2097 4889C7   		movq	%rax, %rdi
 4659 209a E8000000 		call	__cxa_begin_catch
 4659      00
 4660              	.LEHB124:
 4661 209f E8000000 		call	_ZN8UnitTest11CurrentTest7DetailsEv
 4661      00
 4662 20a4 488B08   		movq	(%rax), %rcx
 4663 20a7 488D8590 		leaq	-2160(%rbp), %rax
 4663      F7FFFF
 4664 20ae BAB20000 		movl	$178, %edx
 4664      00
 4665 20b3 4889CE   		movq	%rcx, %rsi
 4666 20b6 4889C7   		movq	%rax, %rdi
 4667 20b9 E8000000 		call	_ZN8UnitTest11TestDetailsC1ERKS0_i
 4667      00
 178:TestChecks.cpp ****     CHECK_EQUAL("header.h", reporter.lastFailedFile);
 4668              		.loc 5 178 0 is_stmt 0 discriminator 10
 4669 20be E8000000 		call	_ZN8UnitTest11CurrentTest7ResultsEv
 4669      00
 4670 20c3 488B00   		movq	(%rax), %rax
 4671 20c6 488D8D90 		leaq	-2160(%rbp), %rcx
 4671      F7FFFF
 4672 20cd BA000000 		movl	$.LC27, %edx
 4672      00
 4673 20d2 4889CE   		movq	%rcx, %rsi
 4674 20d5 4889C7   		movq	%rax, %rdi
 4675 20d8 E8000000 		call	_ZN8UnitTest11TestResults13OnTestFailureERKNS_11TestDetailsEPKc
 4675      00
 4676              	.LEHE124:
 4677              	.LEHB125:
 178:TestChecks.cpp ****     CHECK_EQUAL("header.h", reporter.lastFailedFile);
 4678              		.loc 5 178 0 discriminator 14
 4679 20dd E8000000 		call	__cxa_end_catch
 4679      00
 4680              	.LEHE125:
 178:TestChecks.cpp ****     CHECK_EQUAL("header.h", reporter.lastFailedFile);
 4681              		.loc 5 178 0
 4682 20e2 E981FEFF 		jmp	.L212
 4682      FF
 4683              	.L226:
 4684 20e7 4889C3   		movq	%rax, %rbx
 4685 20ea E8000000 		call	__cxa_end_catch
 4685      00
 4686 20ef E9B90000 		jmp	.L210
 4686      00
 4687              	.L227:
 179:TestChecks.cpp ****     CHECK_EQUAL(10, reporter.lastFailedLine);
 4688              		.loc 5 179 0 is_stmt 1
 4689 20f4 4889C7   		movq	%rax, %rdi
 4690 20f7 E8000000 		call	__cxa_begin_catch
 4690      00
 4691              	.LEHB126:
 4692 20fc E8000000 		call	_ZN8UnitTest11CurrentTest7DetailsEv
 4692      00
 4693 2101 488B08   		movq	(%rax), %rcx
 4694 2104 488D8590 		leaq	-2160(%rbp), %rax
 4694      F7FFFF
 4695 210b BAB30000 		movl	$179, %edx
 4695      00
 4696 2110 4889CE   		movq	%rcx, %rsi
 4697 2113 4889C7   		movq	%rax, %rdi
 4698 2116 E8000000 		call	_ZN8UnitTest11TestDetailsC1ERKS0_i
 4698      00
 179:TestChecks.cpp ****     CHECK_EQUAL(10, reporter.lastFailedLine);
 4699              		.loc 5 179 0 is_stmt 0 discriminator 10
 4700 211b E8000000 		call	_ZN8UnitTest11CurrentTest7ResultsEv
 4700      00
 4701 2120 488B00   		movq	(%rax), %rax
 4702 2123 488D8D90 		leaq	-2160(%rbp), %rcx
 4702      F7FFFF
 4703 212a BA000000 		movl	$.LC55, %edx
 4703      00
 4704 212f 4889CE   		movq	%rcx, %rsi
 4705 2132 4889C7   		movq	%rax, %rdi
 4706 2135 E8000000 		call	_ZN8UnitTest11TestResults13OnTestFailureERKNS_11TestDetailsEPKc
 4706      00
 4707              	.LEHE126:
 4708              	.LEHB127:
 179:TestChecks.cpp ****     CHECK_EQUAL(10, reporter.lastFailedLine);
 4709              		.loc 5 179 0 discriminator 14
 4710 213a E8000000 		call	__cxa_end_catch
 4710      00
 4711              	.LEHE127:
 179:TestChecks.cpp ****     CHECK_EQUAL(10, reporter.lastFailedLine);
 4712              		.loc 5 179 0
 4713 213f E973FEFF 		jmp	.L215
 4713      FF
 4714              	.L228:
 4715 2144 4889C3   		movq	%rax, %rbx
 4716 2147 E8000000 		call	__cxa_end_catch
 4716      00
 4717 214c EB5F     		jmp	.L210
 4718              	.L230:
 4719 214e EB00     		jmp	.L218
 4720              	.L229:
 4721              	.L218:
 180:TestChecks.cpp **** }
 4722              		.loc 5 180 0 is_stmt 1
 4723 2150 4889C7   		movq	%rax, %rdi
 4724 2153 E8000000 		call	__cxa_begin_catch
 4724      00
 4725              	.LEHB128:
 4726 2158 E8000000 		call	_ZN8UnitTest11CurrentTest7DetailsEv
 4726      00
 4727 215d 488B08   		movq	(%rax), %rcx
 4728 2160 488D8590 		leaq	-2160(%rbp), %rax
 4728      F7FFFF
 4729 2167 BAB40000 		movl	$180, %edx
 4729      00
 4730 216c 4889CE   		movq	%rcx, %rsi
 4731 216f 4889C7   		movq	%rax, %rdi
 4732 2172 E8000000 		call	_ZN8UnitTest11TestDetailsC1ERKS0_i
 4732      00
 180:TestChecks.cpp **** }
 4733              		.loc 5 180 0 is_stmt 0 discriminator 10
 4734 2177 E8000000 		call	_ZN8UnitTest11CurrentTest7ResultsEv
 4734      00
 4735 217c 488B00   		movq	(%rax), %rax
 4736 217f 488D8D90 		leaq	-2160(%rbp), %rcx
 4736      F7FFFF
 4737 2186 BA000000 		movl	$.LC56, %edx
 4737      00
 4738 218b 4889CE   		movq	%rcx, %rsi
 4739 218e 4889C7   		movq	%rax, %rdi
 4740 2191 E8000000 		call	_ZN8UnitTest11TestResults13OnTestFailureERKNS_11TestDetailsEPKc
 4740      00
 4741              	.LEHE128:
 4742              	.LEHB129:
 180:TestChecks.cpp **** }
 4743              		.loc 5 180 0 discriminator 14
 4744 2196 E8000000 		call	__cxa_end_catch
 4744      00
 4745              	.LEHE129:
 180:TestChecks.cpp **** }
 4746              		.loc 5 180 0
 4747 219b E972FEFF 		jmp	.L219
 4747      FF
 4748              	.L231:
 4749 21a0 4889C3   		movq	%rax, %rbx
 4750 21a3 E8000000 		call	__cxa_end_catch
 4750      00
 4751 21a8 EB03     		jmp	.L210
 4752              	.L222:
 4753 21aa 4889C3   		movq	%rax, %rbx
 4754              	.L210:
 171:TestChecks.cpp ****     TestResults results(&reporter);
 4755              		.loc 5 171 0 is_stmt 1
 4756 21ad 488D85B0 		leaq	-2128(%rbp), %rax
 4756      F7FFFF
 4757 21b4 4889C7   		movq	%rax, %rdi
 4758 21b7 E8000000 		call	_ZN17RecordingReporterD1Ev
 4758      00
 4759 21bc 4889D8   		movq	%rbx, %rax
 4760 21bf 4889C7   		movq	%rax, %rdi
 4761              	.LEHB130:
 4762 21c2 E8000000 		call	_Unwind_Resume
 4762      00
 4763              	.LEHE130:
 4764              	.L232:
 4765              		.loc 5 181 0
 4766 21c7 E8000000 		call	__stack_chk_fail
 4766      00
 4767              	.L221:
 4768 21cc 4881C4C8 		addq	$2248, %rsp
 4768      080000
 4769 21d3 5B       		popq	%rbx
 4770 21d4 5D       		popq	%rbp
 4771              		.cfi_def_cfa 7, 8
 4772 21d5 C3       		ret
 4773              		.cfi_endproc
 4774              	.LFE1146:
 4775              		.section	.gcc_except_table
 4776              		.align 4
 4777              	.LLSDA1146:
 4778 0334 FF       		.byte	0xff
 4779 0335 03       		.byte	0x3
 4780 0336 65       		.uleb128 .LLSDATT1146-.LLSDATTD1146
 4781              	.LLSDATTD1146:
 4782 0337 01       		.byte	0x1
 4783 0338 5D       		.uleb128 .LLSDACSE1146-.LLSDACSB1146
 4784              	.LLSDACSB1146:
 4785 0339 45       		.uleb128 .LEHB115-.LFB1146
 4786 033a 7B       		.uleb128 .LEHE115-.LEHB115
 4787 033b A007     		.uleb128 .L222-.LFB1146
 4788 033d 00       		.uleb128 0
 4789 033e C001     		.uleb128 .LEHB116-.LFB1146
 4790 0340 4F       		.uleb128 .LEHE116-.LEHB116
 4791 0341 B004     		.uleb128 .L223-.LFB1146
 4792 0343 01       		.uleb128 0x1
 4793 0344 8F02     		.uleb128 .LEHB117-.LFB1146
 4794 0346 4F       		.uleb128 .LEHE117-.LEHB117
 4795 0347 8D05     		.uleb128 .L225-.LFB1146
 4796 0349 01       		.uleb128 0x1
 4797 034a DE02     		.uleb128 .LEHB118-.LFB1146
 4798 034c 4F       		.uleb128 .LEHE118-.LEHB118
 4799 034d EA05     		.uleb128 .L227-.LFB1146
 4800 034f 01       		.uleb128 0x1
 4801 0350 AD03     		.uleb128 .LEHB119-.LFB1146
 4802 0352 1F       		.uleb128 .LEHE119-.LEHB119
 4803 0353 C606     		.uleb128 .L229-.LFB1146
 4804 0355 01       		.uleb128 0x1
 4805 0356 D603     		.uleb128 .LEHB120-.LFB1146
 4806 0358 32       		.uleb128 .LEHE120-.LEHB120
 4807 0359 C406     		.uleb128 .L230-.LFB1146
 4808 035b 01       		.uleb128 0x1
 4809 035c 9204     		.uleb128 .LEHB121-.LFB1146
 4810 035e 05       		.uleb128 .LEHE121-.LEHB121
 4811 035f 00       		.uleb128 0
 4812 0360 00       		.uleb128 0
 4813 0361 B804     		.uleb128 .LEHB122-.LFB1146
 4814 0363 3E       		.uleb128 .LEHE122-.LEHB122
 4815 0364 8005     		.uleb128 .L224-.LFB1146
 4816 0366 00       		.uleb128 0
 4817 0367 F604     		.uleb128 .LEHB123-.LFB1146
 4818 0369 05       		.uleb128 .LEHE123-.LEHB123
 4819 036a A007     		.uleb128 .L222-.LFB1146
 4820 036c 00       		.uleb128 0
 4821 036d 9505     		.uleb128 .LEHB124-.LFB1146
 4822 036f 3E       		.uleb128 .LEHE124-.LEHB124
 4823 0370 DD05     		.uleb128 .L226-.LFB1146
 4824 0372 00       		.uleb128 0
 4825 0373 D305     		.uleb128 .LEHB125-.LFB1146
 4826 0375 05       		.uleb128 .LEHE125-.LEHB125
 4827 0376 A007     		.uleb128 .L222-.LFB1146
 4828 0378 00       		.uleb128 0
 4829 0379 F205     		.uleb128 .LEHB126-.LFB1146
 4830 037b 3E       		.uleb128 .LEHE126-.LEHB126
 4831 037c BA06     		.uleb128 .L228-.LFB1146
 4832 037e 00       		.uleb128 0
 4833 037f B006     		.uleb128 .LEHB127-.LFB1146
 4834 0381 05       		.uleb128 .LEHE127-.LEHB127
 4835 0382 A007     		.uleb128 .L222-.LFB1146
 4836 0384 00       		.uleb128 0
 4837 0385 CE06     		.uleb128 .LEHB128-.LFB1146
 4838 0387 3E       		.uleb128 .LEHE128-.LEHB128
 4839 0388 9607     		.uleb128 .L231-.LFB1146
 4840 038a 00       		.uleb128 0
 4841 038b 8C07     		.uleb128 .LEHB129-.LFB1146
 4842 038d 05       		.uleb128 .LEHE129-.LEHB129
 4843 038e A007     		.uleb128 .L222-.LFB1146
 4844 0390 00       		.uleb128 0
 4845 0391 B807     		.uleb128 .LEHB130-.LFB1146
 4846 0393 05       		.uleb128 .LEHE130-.LEHB130
 4847 0394 00       		.uleb128 0
 4848 0395 00       		.uleb128 0
 4849              	.LLSDACSE1146:
 4850 0396 01       		.byte	0x1
 4851 0397 00       		.byte	0
 4852              		.align 4
 4853 0398 00000000 		.long	0
 4854              	
 4855              	.LLSDATT1146:
 4856              		.text
 4858              		.section	.rodata
 4859              	.LC57:
 4860 0820 43686563 		.string	"CheckArrayEqualTrue"
 4860      6B417272 
 4860      61794571 
 4860      75616C54 
 4860      72756500 
 4861              		.text
 4862              		.align 2
 4864              	_ZN12_GLOBAL__N_123TestCheckArrayEqualTrueC2Ev:
 4865              	.LFB1148:
 182:TestChecks.cpp **** 
 183:TestChecks.cpp **** 
 184:TestChecks.cpp **** TEST(CheckArrayEqualTrue)
 4866              		.loc 5 184 0
 4867              		.cfi_startproc
 4868 21d6 55       		pushq	%rbp
 4869              		.cfi_def_cfa_offset 16
 4870              		.cfi_offset 6, -16
 4871 21d7 4889E5   		movq	%rsp, %rbp
 4872              		.cfi_def_cfa_register 6
 4873 21da 4883EC10 		subq	$16, %rsp
 4874 21de 48897DF8 		movq	%rdi, -8(%rbp)
 4875              	.LBB23:
 4876              		.loc 5 184 0
 4877 21e2 E8000000 		call	_ZN13UnitTestSuite12GetSuiteNameEv
 4877      00
 4878 21e7 4889C2   		movq	%rax, %rdx
 4879 21ea 488B45F8 		movq	-8(%rbp), %rax
 4880 21ee 41B8B800 		movl	$184, %r8d
 4880      0000
 4881 21f4 B9000000 		movl	$.LC2, %ecx
 4881      00
 4882 21f9 BE000000 		movl	$.LC57, %esi
 4882      00
 4883 21fe 4889C7   		movq	%rax, %rdi
 4884 2201 E8000000 		call	_ZN8UnitTest4TestC2EPKcS2_S2_i
 4884      00
 4885 2206 BA000000 		movl	$_ZTVN12_GLOBAL__N_123TestCheckArrayEqualTrueE+16, %edx
 4885      00
 4886 220b 488B45F8 		movq	-8(%rbp), %rax
 4887 220f 488910   		movq	%rdx, (%rax)
 4888              	.LBE23:
 4889 2212 90       		nop
 4890 2213 C9       		leave
 4891              		.cfi_def_cfa 7, 8
 4892 2214 C3       		ret
 4893              		.cfi_endproc
 4894              	.LFE1148:
 4896              		.set	_ZN12_GLOBAL__N_123TestCheckArrayEqualTrueC1Ev,_ZN12_GLOBAL__N_123TestCheckArrayEqualTrueC2Ev
 4897              		.local	_ZN12_GLOBAL__N_131testCheckArrayEqualTrueInstanceE
 4898              		.comm	_ZN12_GLOBAL__N_131testCheckArrayEqualTrueInstanceE,56,32
 4899              		.local	_ZN12_GLOBAL__N_124adderCheckArrayEqualTrueE
 4900              		.comm	_ZN12_GLOBAL__N_124adderCheckArrayEqualTrueE,1,1
 4901 2215 90       		.align 2
 4903              	_ZNK12_GLOBAL__N_123TestCheckArrayEqualTrue7RunImplEv:
 4904              	.LFB1150:
 185:TestChecks.cpp **** {
 4905              		.loc 5 185 0
 4906              		.cfi_startproc
 4907              		.cfi_personality 0x3,__gxx_personality_v0
 4908              		.cfi_lsda 0x3,.LLSDA1150
 4909 2216 55       		pushq	%rbp
 4910              		.cfi_def_cfa_offset 16
 4911              		.cfi_offset 6, -16
 4912 2217 4889E5   		movq	%rsp, %rbp
 4913              		.cfi_def_cfa_register 6
 4914 221a 53       		pushq	%rbx
 4915 221b 4881EC88 		subq	$136, %rsp
 4915      000000
 4916              		.cfi_offset 3, -24
 4917 2222 4889BD78 		movq	%rdi, -136(%rbp)
 4917      FFFFFF
 4918              		.loc 5 185 0
 4919 2229 64488B04 		movq	%fs:40, %rax
 4919      25280000 
 4919      00
 4920 2232 488945E8 		movq	%rax, -24(%rbp)
 4921 2236 31C0     		xorl	%eax, %eax
 186:TestChecks.cpp ****     TestResults results;
 4922              		.loc 5 186 0
 4923 2238 488D4590 		leaq	-112(%rbp), %rax
 4924 223c BE000000 		movl	$0, %esi
 4924      00
 4925 2241 4889C7   		movq	%rax, %rdi
 4926              	.LEHB131:
 4927 2244 E8000000 		call	_ZN8UnitTest11TestResultsC1EPNS_12TestReporterE
 4927      00
 187:TestChecks.cpp **** 
 188:TestChecks.cpp ****     int const array[3] = { 1, 2, 3 };
 4928              		.loc 5 188 0
 4929 2249 C745D001 		movl	$1, -48(%rbp)
 4929      000000
 4930 2250 C745D402 		movl	$2, -44(%rbp)
 4930      000000
 4931 2257 C745D803 		movl	$3, -40(%rbp)
 4931      000000
 189:TestChecks.cpp ****     CheckArrayEqual(results, array, array, 3, TestDetails("", "", "", 0));
 4932              		.loc 5 189 0
 4933 225e 488D45B0 		leaq	-80(%rbp), %rax
 4934 2262 41B80000 		movl	$0, %r8d
 4934      0000
 4935 2268 B9000000 		movl	$.LC6, %ecx
 4935      00
 4936 226d BA000000 		movl	$.LC6, %edx
 4936      00
 4937 2272 BE000000 		movl	$.LC6, %esi
 4937      00
 4938 2277 4889C7   		movq	%rax, %rdi
 4939 227a E8000000 		call	_ZN8UnitTest11TestDetailsC1EPKcS2_S2_i
 4939      00
 4940 227f 488D4DB0 		leaq	-80(%rbp), %rcx
 4941 2283 488D55D0 		leaq	-48(%rbp), %rdx
 4942 2287 488D75D0 		leaq	-48(%rbp), %rsi
 4943 228b 488D4590 		leaq	-112(%rbp), %rax
 4944 228f 4989C8   		movq	%rcx, %r8
 4945 2292 B9030000 		movl	$3, %ecx
 4945      00
 4946 2297 4889C7   		movq	%rax, %rdi
 4947 229a E8000000 		call	_ZN8UnitTest15CheckArrayEqualIA3_iS1_EEvRNS_11TestResultsERKT_RKT0_iRKNS_11TestDetailsE
 4947      00
 4948              	.LEHE131:
 4949              	.LEHB132:
 190:TestChecks.cpp ****     CHECK_EQUAL(0, results.GetFailureCount());
 4950              		.loc 5 190 0
 4951 229f E8000000 		call	_ZN8UnitTest11CurrentTest7DetailsEv
 4951      00
 4952 22a4 488B08   		movq	(%rax), %rcx
 4953 22a7 488D45B0 		leaq	-80(%rbp), %rax
 4954 22ab BABE0000 		movl	$190, %edx
 4954      00
 4955 22b0 4889CE   		movq	%rcx, %rsi
 4956 22b3 4889C7   		movq	%rax, %rdi
 4957 22b6 E8000000 		call	_ZN8UnitTest11TestDetailsC1ERKS0_i
 4957      00
 4958              		.loc 5 190 0 is_stmt 0 discriminator 2
 4959 22bb 488D4590 		leaq	-112(%rbp), %rax
 4960 22bf 4889C7   		movq	%rax, %rdi
 4961 22c2 E8000000 		call	_ZNK8UnitTest11TestResults15GetFailureCountEv
 4961      00
 4962              	.LEHE132:
 4963 22c7 89458C   		movl	%eax, -116(%rbp)
 4964 22ca C7458800 		movl	$0, -120(%rbp)
 4964      000000
 4965              	.LEHB133:
 4966 22d1 E8000000 		call	_ZN8UnitTest11CurrentTest7ResultsEv
 4966      00
 4967              		.loc 5 190 0 discriminator 4
 4968 22d6 488B00   		movq	(%rax), %rax
 4969 22d9 488D4DB0 		leaq	-80(%rbp), %rcx
 4970 22dd 488D558C 		leaq	-116(%rbp), %rdx
 4971 22e1 488D7588 		leaq	-120(%rbp), %rsi
 4972 22e5 4889C7   		movq	%rax, %rdi
 4973 22e8 E8000000 		call	_ZN8UnitTest10CheckEqualIiiEEvRNS_11TestResultsERKT_RKT0_RKNS_11TestDetailsE
 4973      00
 4974              	.LEHE133:
 191:TestChecks.cpp **** }
 4975              		.loc 5 191 0 is_stmt 1
 4976 22ed EB5C     		jmp	.L234
 4977              	.L241:
 4978 22ef EB00     		jmp	.L236
 4979              	.L240:
 4980              	.L236:
 190:TestChecks.cpp ****     CHECK_EQUAL(0, results.GetFailureCount());
 4981              		.loc 5 190 0
 4982 22f1 4889C7   		movq	%rax, %rdi
 4983 22f4 E8000000 		call	__cxa_begin_catch
 4983      00
