   1              		.file	"TestTestMacros.cpp"
   2              		.text
   3              	.Ltext0:
   4              		.section	.rodata
   5              	.LC0:
   6 0000 44656661 		.string	"DefaultSuite"
   6      756C7453 
   6      75697465 
   6      00
   7              		.section	.text._ZN13UnitTestSuite12GetSuiteNameEv,"axG",@progbits,_ZN13UnitTestSuite12GetSuiteName
   8              		.weak	_ZN13UnitTestSuite12GetSuiteNameEv
  10              	_ZN13UnitTestSuite12GetSuiteNameEv:
  11              	.LFB0:
  12              		.file 1 "../TestSuite.h"
   1:../TestSuite.h **** #ifndef UNITTEST_TESTSUITE_H
   2:../TestSuite.h **** #define UNITTEST_TESTSUITE_H
   3:../TestSuite.h **** 
   4:../TestSuite.h **** namespace UnitTestSuite {
   5:../TestSuite.h **** 
   6:../TestSuite.h ****     inline char const* GetSuiteName ()
   7:../TestSuite.h ****     {
  13              		.loc 1 7 0
  14              		.cfi_startproc
  15 0000 55       		pushq	%rbp
  16              		.cfi_def_cfa_offset 16
  17              		.cfi_offset 6, -16
  18 0001 4889E5   		movq	%rsp, %rbp
  19              		.cfi_def_cfa_register 6
   8:../TestSuite.h ****         return "DefaultSuite";
  20              		.loc 1 8 0
  21 0004 B8000000 		movl	$.LC0, %eax
  21      00
   9:../TestSuite.h ****     }
  22              		.loc 1 9 0
  23 0009 5D       		popq	%rbp
  24              		.cfi_def_cfa 7, 8
  25 000a C3       		ret
  26              		.cfi_endproc
  27              	.LFE0:
  29              		.section	.text._ZN8UnitTest15MemoryOutStreamC1Ev,"axG",@progbits,_ZN8UnitTest15MemoryOutStreamC1Ev
  30              		.align 2
  31              		.weak	_ZN8UnitTest15MemoryOutStreamC1Ev
  33              	_ZN8UnitTest15MemoryOutStreamC1Ev:
  34              	.LFB1057:
  35              		.file 2 "../MemoryOutStream.h"
   1:../MemoryOutStream.h **** #ifndef UNITTEST_MEMORYOUTSTREAM_H
   2:../MemoryOutStream.h **** #define UNITTEST_MEMORYOUTSTREAM_H
   3:../MemoryOutStream.h **** 
   4:../MemoryOutStream.h **** #include "Config.h"
   5:../MemoryOutStream.h **** 
   6:../MemoryOutStream.h **** #ifndef UNITTEST_USE_CUSTOM_STREAMS
   7:../MemoryOutStream.h **** 
   8:../MemoryOutStream.h **** #include <sstream>
   9:../MemoryOutStream.h **** 
  10:../MemoryOutStream.h **** namespace UnitTest
  11:../MemoryOutStream.h **** {
  12:../MemoryOutStream.h **** 
  13:../MemoryOutStream.h **** class MemoryOutStream : public std::ostringstream
  14:../MemoryOutStream.h **** {
  15:../MemoryOutStream.h **** public:
  16:../MemoryOutStream.h ****     MemoryOutStream() {}
  36              		.loc 2 16 0
  37              		.cfi_startproc
  38              		.cfi_personality 0x3,__gxx_personality_v0
  39              		.cfi_lsda 0x3,.LLSDA1057
  40 0000 55       		pushq	%rbp
  41              		.cfi_def_cfa_offset 16
  42              		.cfi_offset 6, -16
  43 0001 4889E5   		movq	%rsp, %rbp
  44              		.cfi_def_cfa_register 6
  45 0004 53       		pushq	%rbx
  46 0005 4883EC18 		subq	$24, %rsp
  47              		.cfi_offset 3, -24
  48 0009 48897DE8 		movq	%rdi, -24(%rbp)
  49              	.LBB2:
  50              		.loc 2 16 0
  51 000d 488B45E8 		movq	-24(%rbp), %rax
  52 0011 48059000 		addq	$144, %rax
  52      0000
  53 0017 4889C7   		movq	%rax, %rdi
  54              	.LEHB0:
  55 001a E8000000 		call	_ZNSt9basic_iosIcSt11char_traitsIcEEC2Ev
  55      00
  56              	.LEHE0:
  57 001f B9000000 		movl	$_ZTTN8UnitTest15MemoryOutStreamE+8, %ecx
  57      00
  58 0024 488B45E8 		movq	-24(%rbp), %rax
  59 0028 BA100000 		movl	$16, %edx
  59      00
  60 002d 4889CE   		movq	%rcx, %rsi
  61 0030 4889C7   		movq	%rax, %rdi
  62              	.LEHB1:
  63 0033 E8000000 		call	_ZNSt7__cxx1119basic_ostringstreamIcSt11char_traitsIcESaIcEEC2ESt13_Ios_Openmode
  63      00
  64              	.LEHE1:
  65              		.loc 2 16 0 is_stmt 0 discriminator 9
  66 0038 BA000000 		movl	$_ZTVN8UnitTest15MemoryOutStreamE+24, %edx
  66      00
  67 003d 488B45E8 		movq	-24(%rbp), %rax
  68 0041 488910   		movq	%rdx, (%rax)
  69 0044 BA900000 		movl	$144, %edx
  69      00
  70 0049 488B45E8 		movq	-24(%rbp), %rax
  71 004d 4801D0   		addq	%rdx, %rax
  72 0050 BA000000 		movl	$_ZTVN8UnitTest15MemoryOutStreamE+64, %edx
  72      00
  73 0055 488910   		movq	%rdx, (%rax)
  74 0058 488B45E8 		movq	-24(%rbp), %rax
  75 005c 4883C070 		addq	$112, %rax
  76 0060 4889C7   		movq	%rax, %rdi
  77              	.LEHB2:
  78 0063 E8000000 		call	_ZNSt7__cxx1112basic_stringIcSt11char_traitsIcESaIcEEC1Ev
  78      00
  79              	.LEHE2:
  80              	.LBE2:
  81              		.loc 2 16 0
  82 0068 EB39     		jmp	.L9
  83              	.L7:
  84 006a 4889C3   		movq	%rax, %rbx
  85              	.LBB3:
  86 006d BA000000 		movl	$_ZTTN8UnitTest15MemoryOutStreamE+8, %edx
  86      00
  87 0072 488B45E8 		movq	-24(%rbp), %rax
  88 0076 4889D6   		movq	%rdx, %rsi
  89 0079 4889C7   		movq	%rax, %rdi
  90 007c E8000000 		call	_ZNSt7__cxx1119basic_ostringstreamIcSt11char_traitsIcESaIcEED2Ev
  90      00
  91 0081 EB03     		jmp	.L8
  92              	.L6:
  93 0083 4889C3   		movq	%rax, %rbx
  94              	.L8:
  95              		.loc 2 16 0 discriminator 28
  96 0086 488B45E8 		movq	-24(%rbp), %rax
  97 008a 48059000 		addq	$144, %rax
  97      0000
  98 0090 4889C7   		movq	%rax, %rdi
  99 0093 E8000000 		call	_ZNSt9basic_iosIcSt11char_traitsIcEED2Ev
  99      00
 100 0098 4889D8   		movq	%rbx, %rax
 101 009b 4889C7   		movq	%rax, %rdi
 102              	.LEHB3:
 103 009e E8000000 		call	_Unwind_Resume
 103      00
 104              	.LEHE3:
 105              	.L9:
 106              	.LBE3:
 107              		.loc 2 16 0
 108 00a3 4883C418 		addq	$24, %rsp
 109 00a7 5B       		popq	%rbx
 110 00a8 5D       		popq	%rbp
 111              		.cfi_def_cfa 7, 8
 112 00a9 C3       		ret
 113              		.cfi_endproc
 114              	.LFE1057:
 115              		.globl	__gxx_personality_v0
 116              		.section	.gcc_except_table._ZN8UnitTest15MemoryOutStreamC1Ev,"aG",@progbits,_ZN8UnitTest15MemoryOu
 117              	.LLSDA1057:
 118 0000 FF       		.byte	0xff
 119 0001 FF       		.byte	0xff
 120 0002 01       		.byte	0x1
 121 0003 12       		.uleb128 .LLSDACSE1057-.LLSDACSB1057
 122              	.LLSDACSB1057:
 123 0004 1A       		.uleb128 .LEHB0-.LFB1057
 124 0005 05       		.uleb128 .LEHE0-.LEHB0
 125 0006 00       		.uleb128 0
 126 0007 00       		.uleb128 0
 127 0008 33       		.uleb128 .LEHB1-.LFB1057
 128 0009 05       		.uleb128 .LEHE1-.LEHB1
 129 000a 8301     		.uleb128 .L6-.LFB1057
 130 000c 00       		.uleb128 0
 131 000d 63       		.uleb128 .LEHB2-.LFB1057
 132 000e 05       		.uleb128 .LEHE2-.LEHB2
 133 000f 6A       		.uleb128 .L7-.LFB1057
 134 0010 00       		.uleb128 0
 135 0011 9E01     		.uleb128 .LEHB3-.LFB1057
 136 0013 05       		.uleb128 .LEHE3-.LEHB3
 137 0014 00       		.uleb128 0
 138 0015 00       		.uleb128 0
 139              	.LLSDACSE1057:
 140              		.section	.text._ZN8UnitTest15MemoryOutStreamC1Ev,"axG",@progbits,_ZN8UnitTest15MemoryOutStreamC1Ev
 142              		.section	.text._ZN8UnitTest12TestReporterC2Ev,"axG",@progbits,_ZN8UnitTest12TestReporterC5Ev,comda
 143              		.align 2
 144              		.weak	_ZN8UnitTest12TestReporterC2Ev
 146              	_ZN8UnitTest12TestReporterC2Ev:
 147              	.LFB1071:
 148              		.file 3 "../TestReporter.h"
   1:../TestReporter.h **** #ifndef UNITTEST_TESTREPORTER_H
   2:../TestReporter.h **** #define UNITTEST_TESTREPORTER_H
   3:../TestReporter.h **** 
   4:../TestReporter.h **** namespace UnitTest {
   5:../TestReporter.h **** 
   6:../TestReporter.h **** class TestDetails;
   7:../TestReporter.h **** 
   8:../TestReporter.h **** class TestReporter
 149              		.loc 3 8 0 is_stmt 1
 150              		.cfi_startproc
 151 0000 55       		pushq	%rbp
 152              		.cfi_def_cfa_offset 16
 153              		.cfi_offset 6, -16
 154 0001 4889E5   		movq	%rsp, %rbp
 155              		.cfi_def_cfa_register 6
 156 0004 48897DF8 		movq	%rdi, -8(%rbp)
 157              	.LBB4:
 158              		.loc 3 8 0
 159 0008 BA000000 		movl	$_ZTVN8UnitTest12TestReporterE+16, %edx
 159      00
 160 000d 488B45F8 		movq	-8(%rbp), %rax
 161 0011 488910   		movq	%rdx, (%rax)
 162              	.LBE4:
 163 0014 90       		nop
 164 0015 5D       		popq	%rbp
 165              		.cfi_def_cfa 7, 8
 166 0016 C3       		ret
 167              		.cfi_endproc
 168              	.LFE1071:
 170              		.weak	_ZN8UnitTest12TestReporterC1Ev
 171              		.set	_ZN8UnitTest12TestReporterC1Ev,_ZN8UnitTest12TestReporterC2Ev
 172              		.section	.text._ZN17RecordingReporterC2Ev,"axG",@progbits,_ZN17RecordingReporterC5Ev,comdat
 173              		.align 2
 174              		.weak	_ZN17RecordingReporterC2Ev
 176              	_ZN17RecordingReporterC2Ev:
 177              	.LFB1073:
 178              		.file 4 "RecordingReporter.h"
   1:RecordingReporter.h **** #ifndef UNITTEST_RECORDINGREPORTER_H
   2:RecordingReporter.h **** #define UNITTEST_RECORDINGREPORTER_H
   3:RecordingReporter.h **** 
   4:RecordingReporter.h **** #include "../TestReporter.h"
   5:RecordingReporter.h **** #include <cstring>
   6:RecordingReporter.h **** 
   7:RecordingReporter.h **** #include "../TestDetails.h"
   8:RecordingReporter.h **** 
   9:RecordingReporter.h **** struct RecordingReporter : public UnitTest::TestReporter
  10:RecordingReporter.h **** {
  11:RecordingReporter.h **** private:
  12:RecordingReporter.h ****     enum { kMaxStringLength = 256 };
  13:RecordingReporter.h **** 
  14:RecordingReporter.h **** public:
  15:RecordingReporter.h ****     RecordingReporter()
 179              		.loc 4 15 0
 180              		.cfi_startproc
 181 0000 55       		pushq	%rbp
 182              		.cfi_def_cfa_offset 16
 183              		.cfi_offset 6, -16
 184 0001 4889E5   		movq	%rsp, %rbp
 185              		.cfi_def_cfa_register 6
 186 0004 4883EC10 		subq	$16, %rsp
 187 0008 48897DF8 		movq	%rdi, -8(%rbp)
 188              	.LBB5:
  16:RecordingReporter.h ****         : testRunCount(0)
  17:RecordingReporter.h ****         , testFailedCount(0)
  18:RecordingReporter.h ****         , lastFailedLine(0)
  19:RecordingReporter.h ****         , testFinishedCount(0)
  20:RecordingReporter.h ****         , lastFinishedTestTime(0)
  21:RecordingReporter.h ****         , summaryTotalTestCount(0)
  22:RecordingReporter.h ****         , summaryFailedTestCount(0)
  23:RecordingReporter.h ****         , summaryFailureCount(0)
  24:RecordingReporter.h ****         , summarySecondsElapsed(0)
 189              		.loc 4 24 0
 190 000c 488B45F8 		movq	-8(%rbp), %rax
 191 0010 4889C7   		movq	%rax, %rdi
 192 0013 E8000000 		call	_ZN8UnitTest12TestReporterC2Ev
 192      00
 193 0018 BA000000 		movl	$_ZTV17RecordingReporter+16, %edx
 193      00
 194 001d 488B45F8 		movq	-8(%rbp), %rax
 195 0021 488910   		movq	%rdx, (%rax)
 196 0024 488B45F8 		movq	-8(%rbp), %rax
 197 0028 C7400800 		movl	$0, 8(%rax)
 197      000000
 198 002f 488B45F8 		movq	-8(%rbp), %rax
 199 0033 C7800C02 		movl	$0, 524(%rax)
 199      00000000 
 199      0000
 200 003d 488B45F8 		movq	-8(%rbp), %rax
 201 0041 C7801003 		movl	$0, 784(%rax)
 201      00000000 
 201      0000
 202 004b 488B45F8 		movq	-8(%rbp), %rax
 203 004f C7801406 		movl	$0, 1556(%rax)
 203      00000000 
 203      0000
 204 0059 488B45F8 		movq	-8(%rbp), %rax
 205 005d 660FEFC0 		pxor	%xmm0, %xmm0
 206 0061 F30F1180 		movss	%xmm0, 2072(%rax)
 206      18080000 
 207 0069 488B45F8 		movq	-8(%rbp), %rax
 208 006d C7801C08 		movl	$0, 2076(%rax)
 208      00000000 
 208      0000
 209 0077 488B45F8 		movq	-8(%rbp), %rax
 210 007b C7802008 		movl	$0, 2080(%rax)
 210      00000000 
 210      0000
 211 0085 488B45F8 		movq	-8(%rbp), %rax
 212 0089 C7802408 		movl	$0, 2084(%rax)
 212      00000000 
 212      0000
 213 0093 488B45F8 		movq	-8(%rbp), %rax
 214 0097 660FEFC0 		pxor	%xmm0, %xmm0
 215 009b F30F1180 		movss	%xmm0, 2088(%rax)
 215      28080000 
  25:RecordingReporter.h ****     {
  26:RecordingReporter.h ****         lastStartedSuite[0] = '\0';
 216              		.loc 4 26 0
 217 00a3 488B45F8 		movq	-8(%rbp), %rax
 218 00a7 C6400C00 		movb	$0, 12(%rax)
  27:RecordingReporter.h ****         lastStartedTest[0] = '\0';
 219              		.loc 4 27 0
 220 00ab 488B45F8 		movq	-8(%rbp), %rax
 221 00af C6800C01 		movb	$0, 268(%rax)
 221      000000
  28:RecordingReporter.h ****         lastFailedFile[0] = '\0';
 222              		.loc 4 28 0
 223 00b6 488B45F8 		movq	-8(%rbp), %rax
 224 00ba C6801002 		movb	$0, 528(%rax)
 224      000000
  29:RecordingReporter.h ****         lastFailedSuite[0] = '\0';
 225              		.loc 4 29 0
 226 00c1 488B45F8 		movq	-8(%rbp), %rax
 227 00c5 C6801403 		movb	$0, 788(%rax)
 227      000000
  30:RecordingReporter.h ****         lastFailedTest[0] = '\0';
 228              		.loc 4 30 0
 229 00cc 488B45F8 		movq	-8(%rbp), %rax
 230 00d0 C6801404 		movb	$0, 1044(%rax)
 230      000000
  31:RecordingReporter.h ****         lastFailedMessage[0] = '\0';
 231              		.loc 4 31 0
 232 00d7 488B45F8 		movq	-8(%rbp), %rax
 233 00db C6801405 		movb	$0, 1300(%rax)
 233      000000
  32:RecordingReporter.h ****         lastFinishedSuite[0] = '\0';
 234              		.loc 4 32 0
 235 00e2 488B45F8 		movq	-8(%rbp), %rax
 236 00e6 C6801806 		movb	$0, 1560(%rax)
 236      000000
  33:RecordingReporter.h ****         lastFinishedTest[0] = '\0';
 237              		.loc 4 33 0
 238 00ed 488B45F8 		movq	-8(%rbp), %rax
 239 00f1 C6801807 		movb	$0, 1816(%rax)
 239      000000
 240              	.LBE5:
  34:RecordingReporter.h ****     }
 241              		.loc 4 34 0
 242 00f8 90       		nop
 243 00f9 C9       		leave
 244              		.cfi_def_cfa 7, 8
 245 00fa C3       		ret
 246              		.cfi_endproc
 247              	.LFE1073:
 249              		.weak	_ZN17RecordingReporterC1Ev
 250              		.set	_ZN17RecordingReporterC1Ev,_ZN17RecordingReporterC2Ev
 251              		.section	.text._ZN17RecordingReporter15ReportTestStartERKN8UnitTest11TestDetailsE,"axG",@progbits,
 252              		.align 2
 253              		.weak	_ZN17RecordingReporter15ReportTestStartERKN8UnitTest11TestDetailsE
 255              	_ZN17RecordingReporter15ReportTestStartERKN8UnitTest11TestDetailsE:
 256              	.LFB1075:
  35:RecordingReporter.h **** 
  36:RecordingReporter.h ****     virtual void ReportTestStart(UnitTest::TestDetails const& test)
 257              		.loc 4 36 0
 258              		.cfi_startproc
 259 0000 55       		pushq	%rbp
 260              		.cfi_def_cfa_offset 16
 261              		.cfi_offset 6, -16
 262 0001 4889E5   		movq	%rsp, %rbp
 263              		.cfi_def_cfa_register 6
 264 0004 4883EC10 		subq	$16, %rsp
 265 0008 48897DF8 		movq	%rdi, -8(%rbp)
 266 000c 488975F0 		movq	%rsi, -16(%rbp)
  37:RecordingReporter.h ****     {
  38:RecordingReporter.h **** 		using namespace std;
  39:RecordingReporter.h **** 
  40:RecordingReporter.h ****         ++testRunCount;
 267              		.loc 4 40 0
 268 0010 488B45F8 		movq	-8(%rbp), %rax
 269 0014 8B4008   		movl	8(%rax), %eax
 270 0017 8D5001   		leal	1(%rax), %edx
 271 001a 488B45F8 		movq	-8(%rbp), %rax
 272 001e 895008   		movl	%edx, 8(%rax)
  41:RecordingReporter.h ****         strcpy(lastStartedSuite, test.suiteName);
 273              		.loc 4 41 0
 274 0021 488B45F0 		movq	-16(%rbp), %rax
 275 0025 488B00   		movq	(%rax), %rax
 276 0028 488B55F8 		movq	-8(%rbp), %rdx
 277 002c 4883C20C 		addq	$12, %rdx
 278 0030 4889C6   		movq	%rax, %rsi
 279 0033 4889D7   		movq	%rdx, %rdi
 280 0036 E8000000 		call	strcpy
 280      00
  42:RecordingReporter.h ****         strcpy(lastStartedTest, test.testName);
 281              		.loc 4 42 0
 282 003b 488B45F0 		movq	-16(%rbp), %rax
 283 003f 488B4008 		movq	8(%rax), %rax
 284 0043 488B55F8 		movq	-8(%rbp), %rdx
 285 0047 4881C20C 		addq	$268, %rdx
 285      010000
 286 004e 4889C6   		movq	%rax, %rsi
 287 0051 4889D7   		movq	%rdx, %rdi
 288 0054 E8000000 		call	strcpy
 288      00
  43:RecordingReporter.h ****     }
 289              		.loc 4 43 0
 290 0059 90       		nop
 291 005a C9       		leave
 292              		.cfi_def_cfa 7, 8
 293 005b C3       		ret
 294              		.cfi_endproc
 295              	.LFE1075:
 297              		.section	.text._ZN17RecordingReporter13ReportFailureERKN8UnitTest11TestDetailsEPKc,"axG",@progbits
 298              		.align 2
 299              		.weak	_ZN17RecordingReporter13ReportFailureERKN8UnitTest11TestDetailsEPKc
 301              	_ZN17RecordingReporter13ReportFailureERKN8UnitTest11TestDetailsEPKc:
 302              	.LFB1076:
  44:RecordingReporter.h **** 
  45:RecordingReporter.h ****     virtual void ReportFailure(UnitTest::TestDetails const& test, char const* failure)
 303              		.loc 4 45 0
 304              		.cfi_startproc
 305 0000 55       		pushq	%rbp
 306              		.cfi_def_cfa_offset 16
 307              		.cfi_offset 6, -16
 308 0001 4889E5   		movq	%rsp, %rbp
 309              		.cfi_def_cfa_register 6
 310 0004 4883EC20 		subq	$32, %rsp
 311 0008 48897DF8 		movq	%rdi, -8(%rbp)
 312 000c 488975F0 		movq	%rsi, -16(%rbp)
 313 0010 488955E8 		movq	%rdx, -24(%rbp)
  46:RecordingReporter.h ****     {
  47:RecordingReporter.h **** 		using namespace std;
  48:RecordingReporter.h **** 
  49:RecordingReporter.h **** 		++testFailedCount;
 314              		.loc 4 49 0
 315 0014 488B45F8 		movq	-8(%rbp), %rax
 316 0018 8B800C02 		movl	524(%rax), %eax
 316      0000
 317 001e 8D5001   		leal	1(%rax), %edx
 318 0021 488B45F8 		movq	-8(%rbp), %rax
 319 0025 89900C02 		movl	%edx, 524(%rax)
 319      0000
  50:RecordingReporter.h ****         strcpy(lastFailedFile, test.filename);
 320              		.loc 4 50 0
 321 002b 488B45F0 		movq	-16(%rbp), %rax
 322 002f 488B4010 		movq	16(%rax), %rax
 323 0033 488B55F8 		movq	-8(%rbp), %rdx
 324 0037 4881C210 		addq	$528, %rdx
 324      020000
 325 003e 4889C6   		movq	%rax, %rsi
 326 0041 4889D7   		movq	%rdx, %rdi
 327 0044 E8000000 		call	strcpy
 327      00
  51:RecordingReporter.h ****         lastFailedLine = test.lineNumber;
 328              		.loc 4 51 0
 329 0049 488B45F0 		movq	-16(%rbp), %rax
 330 004d 8B5018   		movl	24(%rax), %edx
 331 0050 488B45F8 		movq	-8(%rbp), %rax
 332 0054 89901003 		movl	%edx, 784(%rax)
 332      0000
  52:RecordingReporter.h ****         strcpy(lastFailedSuite, test.suiteName);
 333              		.loc 4 52 0
 334 005a 488B45F0 		movq	-16(%rbp), %rax
 335 005e 488B00   		movq	(%rax), %rax
 336 0061 488B55F8 		movq	-8(%rbp), %rdx
 337 0065 4881C214 		addq	$788, %rdx
 337      030000
 338 006c 4889C6   		movq	%rax, %rsi
 339 006f 4889D7   		movq	%rdx, %rdi
 340 0072 E8000000 		call	strcpy
 340      00
  53:RecordingReporter.h ****         strcpy(lastFailedTest, test.testName);
 341              		.loc 4 53 0
 342 0077 488B45F0 		movq	-16(%rbp), %rax
 343 007b 488B4008 		movq	8(%rax), %rax
 344 007f 488B55F8 		movq	-8(%rbp), %rdx
 345 0083 4881C214 		addq	$1044, %rdx
 345      040000
 346 008a 4889C6   		movq	%rax, %rsi
 347 008d 4889D7   		movq	%rdx, %rdi
 348 0090 E8000000 		call	strcpy
 348      00
  54:RecordingReporter.h ****         strcpy(lastFailedMessage, failure);
 349              		.loc 4 54 0
 350 0095 488B45F8 		movq	-8(%rbp), %rax
 351 0099 488D9014 		leaq	1300(%rax), %rdx
 351      050000
 352 00a0 488B45E8 		movq	-24(%rbp), %rax
 353 00a4 4889C6   		movq	%rax, %rsi
 354 00a7 4889D7   		movq	%rdx, %rdi
 355 00aa E8000000 		call	strcpy
 355      00
  55:RecordingReporter.h ****     }
 356              		.loc 4 55 0
 357 00af 90       		nop
 358 00b0 C9       		leave
 359              		.cfi_def_cfa 7, 8
 360 00b1 C3       		ret
 361              		.cfi_endproc
 362              	.LFE1076:
 364              		.section	.text._ZN17RecordingReporter16ReportTestFinishERKN8UnitTest11TestDetailsEf,"axG",@progbit
 365              		.align 2
 366              		.weak	_ZN17RecordingReporter16ReportTestFinishERKN8UnitTest11TestDetailsEf
 368              	_ZN17RecordingReporter16ReportTestFinishERKN8UnitTest11TestDetailsEf:
 369              	.LFB1077:
  56:RecordingReporter.h **** 
  57:RecordingReporter.h ****     virtual void ReportTestFinish(UnitTest::TestDetails const& test, float testDuration)
 370              		.loc 4 57 0
 371              		.cfi_startproc
 372 0000 55       		pushq	%rbp
 373              		.cfi_def_cfa_offset 16
 374              		.cfi_offset 6, -16
 375 0001 4889E5   		movq	%rsp, %rbp
 376              		.cfi_def_cfa_register 6
 377 0004 4883EC20 		subq	$32, %rsp
 378 0008 48897DF8 		movq	%rdi, -8(%rbp)
 379 000c 488975F0 		movq	%rsi, -16(%rbp)
 380 0010 F30F1145 		movss	%xmm0, -20(%rbp)
 380      EC
  58:RecordingReporter.h ****     {
  59:RecordingReporter.h **** 		using namespace std;
  60:RecordingReporter.h **** 
  61:RecordingReporter.h **** 		++testFinishedCount;
 381              		.loc 4 61 0
 382 0015 488B45F8 		movq	-8(%rbp), %rax
 383 0019 8B801406 		movl	1556(%rax), %eax
 383      0000
 384 001f 8D5001   		leal	1(%rax), %edx
 385 0022 488B45F8 		movq	-8(%rbp), %rax
 386 0026 89901406 		movl	%edx, 1556(%rax)
 386      0000
  62:RecordingReporter.h ****         strcpy(lastFinishedSuite, test.suiteName);
 387              		.loc 4 62 0
 388 002c 488B45F0 		movq	-16(%rbp), %rax
 389 0030 488B00   		movq	(%rax), %rax
 390 0033 488B55F8 		movq	-8(%rbp), %rdx
 391 0037 4881C218 		addq	$1560, %rdx
 391      060000
 392 003e 4889C6   		movq	%rax, %rsi
 393 0041 4889D7   		movq	%rdx, %rdi
 394 0044 E8000000 		call	strcpy
 394      00
  63:RecordingReporter.h ****         strcpy(lastFinishedTest, test.testName);
 395              		.loc 4 63 0
 396 0049 488B45F0 		movq	-16(%rbp), %rax
 397 004d 488B4008 		movq	8(%rax), %rax
 398 0051 488B55F8 		movq	-8(%rbp), %rdx
 399 0055 4881C218 		addq	$1816, %rdx
 399      070000
 400 005c 4889C6   		movq	%rax, %rsi
 401 005f 4889D7   		movq	%rdx, %rdi
 402 0062 E8000000 		call	strcpy
 402      00
  64:RecordingReporter.h ****         lastFinishedTestTime = testDuration;
 403              		.loc 4 64 0
 404 0067 488B45F8 		movq	-8(%rbp), %rax
 405 006b F30F1045 		movss	-20(%rbp), %xmm0
 405      EC
 406 0070 F30F1180 		movss	%xmm0, 2072(%rax)
 406      18080000 
  65:RecordingReporter.h ****     }
 407              		.loc 4 65 0
 408 0078 90       		nop
 409 0079 C9       		leave
 410              		.cfi_def_cfa 7, 8
 411 007a C3       		ret
 412              		.cfi_endproc
 413              	.LFE1077:
 415              		.section	.text._ZN17RecordingReporter13ReportSummaryEiiif,"axG",@progbits,_ZN17RecordingReporter13
 416              		.align 2
 417              		.weak	_ZN17RecordingReporter13ReportSummaryEiiif
 419              	_ZN17RecordingReporter13ReportSummaryEiiif:
 420              	.LFB1078:
  66:RecordingReporter.h **** 
  67:RecordingReporter.h ****     virtual void ReportSummary(int totalTestCount, int failedTestCount, int failureCount, float sec
 421              		.loc 4 67 0
 422              		.cfi_startproc
 423 0000 55       		pushq	%rbp
 424              		.cfi_def_cfa_offset 16
 425              		.cfi_offset 6, -16
 426 0001 4889E5   		movq	%rsp, %rbp
 427              		.cfi_def_cfa_register 6
 428 0004 48897DF8 		movq	%rdi, -8(%rbp)
 429 0008 8975F4   		movl	%esi, -12(%rbp)
 430 000b 8955F0   		movl	%edx, -16(%rbp)
 431 000e 894DEC   		movl	%ecx, -20(%rbp)
 432 0011 F30F1145 		movss	%xmm0, -24(%rbp)
 432      E8
  68:RecordingReporter.h ****     {
  69:RecordingReporter.h ****         summaryTotalTestCount = totalTestCount;
 433              		.loc 4 69 0
 434 0016 488B45F8 		movq	-8(%rbp), %rax
 435 001a 8B55F4   		movl	-12(%rbp), %edx
 436 001d 89901C08 		movl	%edx, 2076(%rax)
 436      0000
  70:RecordingReporter.h ****         summaryFailedTestCount = failedTestCount;
 437              		.loc 4 70 0
 438 0023 488B45F8 		movq	-8(%rbp), %rax
 439 0027 8B55F0   		movl	-16(%rbp), %edx
 440 002a 89902008 		movl	%edx, 2080(%rax)
 440      0000
  71:RecordingReporter.h ****         summaryFailureCount = failureCount;
 441              		.loc 4 71 0
 442 0030 488B45F8 		movq	-8(%rbp), %rax
 443 0034 8B55EC   		movl	-20(%rbp), %edx
 444 0037 89902408 		movl	%edx, 2084(%rax)
 444      0000
  72:RecordingReporter.h ****         summarySecondsElapsed = secondsElapsed;
 445              		.loc 4 72 0
 446 003d 488B45F8 		movq	-8(%rbp), %rax
 447 0041 F30F1045 		movss	-24(%rbp), %xmm0
 447      E8
 448 0046 F30F1180 		movss	%xmm0, 2088(%rax)
 448      28080000 
  73:RecordingReporter.h ****     }
 449              		.loc 4 73 0
 450 004e 90       		nop
 451 004f 5D       		popq	%rbp
 452              		.cfi_def_cfa 7, 8
 453 0050 C3       		ret
 454              		.cfi_endproc
 455              	.LFE1078:
 457              		.section	.text._ZN17ScopedCurrentTestC2ERN8UnitTest11TestResultsEPKNS0_11TestDetailsE,"axG",@progb
 458              		.align 2
 459              		.weak	_ZN17ScopedCurrentTestC2ERN8UnitTest11TestResultsEPKNS0_11TestDetailsE
 461              	_ZN17ScopedCurrentTestC2ERN8UnitTest11TestResultsEPKNS0_11TestDetailsE:
 462              	.LFB1083:
 463              		.file 5 "ScopedCurrentTest.h"
   1:ScopedCurrentTest.h **** #ifndef UNITTEST_SCOPEDCURRENTTEST_H
   2:ScopedCurrentTest.h **** #define UNITTEST_SCOPEDCURRENTTEST_H
   3:ScopedCurrentTest.h **** 
   4:ScopedCurrentTest.h **** #include "../CurrentTest.h"
   5:ScopedCurrentTest.h **** #include <cstddef>
   6:ScopedCurrentTest.h **** 
   7:ScopedCurrentTest.h **** class ScopedCurrentTest
   8:ScopedCurrentTest.h **** {
   9:ScopedCurrentTest.h **** public:
  10:ScopedCurrentTest.h **** 	ScopedCurrentTest()
  11:ScopedCurrentTest.h **** 		: m_oldTestResults(UnitTest::CurrentTest::Results())
  12:ScopedCurrentTest.h **** 		, m_oldTestDetails(UnitTest::CurrentTest::Details())
  13:ScopedCurrentTest.h **** 	{
  14:ScopedCurrentTest.h **** 	}
  15:ScopedCurrentTest.h **** 
  16:ScopedCurrentTest.h **** 	explicit ScopedCurrentTest(UnitTest::TestResults& newResults, const UnitTest::TestDetails* newDeta
 464              		.loc 5 16 0
 465              		.cfi_startproc
 466 0000 55       		pushq	%rbp
 467              		.cfi_def_cfa_offset 16
 468              		.cfi_offset 6, -16
 469 0001 4889E5   		movq	%rsp, %rbp
 470              		.cfi_def_cfa_register 6
 471 0004 4883EC20 		subq	$32, %rsp
 472 0008 48897DF8 		movq	%rdi, -8(%rbp)
 473 000c 488975F0 		movq	%rsi, -16(%rbp)
 474 0010 488955E8 		movq	%rdx, -24(%rbp)
 475              	.LBB6:
  17:ScopedCurrentTest.h **** 		: m_oldTestResults(UnitTest::CurrentTest::Results())
 476              		.loc 5 17 0
 477 0014 E8000000 		call	_ZN8UnitTest11CurrentTest7ResultsEv
 477      00
 478 0019 488B10   		movq	(%rax), %rdx
  18:ScopedCurrentTest.h **** 		, m_oldTestDetails(UnitTest::CurrentTest::Details())
 479              		.loc 5 18 0
 480 001c 488B45F8 		movq	-8(%rbp), %rax
 481 0020 488910   		movq	%rdx, (%rax)
 482 0023 E8000000 		call	_ZN8UnitTest11CurrentTest7DetailsEv
 482      00
 483 0028 488B10   		movq	(%rax), %rdx
 484 002b 488B45F8 		movq	-8(%rbp), %rax
 485 002f 48895008 		movq	%rdx, 8(%rax)
  19:ScopedCurrentTest.h **** 	{
  20:ScopedCurrentTest.h **** 		UnitTest::CurrentTest::Results() = &newResults;
 486              		.loc 5 20 0
 487 0033 E8000000 		call	_ZN8UnitTest11CurrentTest7ResultsEv
 487      00
 488 0038 4889C2   		movq	%rax, %rdx
 489 003b 488B45F0 		movq	-16(%rbp), %rax
 490 003f 488902   		movq	%rax, (%rdx)
  21:ScopedCurrentTest.h **** 
  22:ScopedCurrentTest.h **** 		if (newDetails != NULL)
 491              		.loc 5 22 0
 492 0042 48837DE8 		cmpq	$0, -24(%rbp)
 492      00
 493 0047 740F     		je	.L18
  23:ScopedCurrentTest.h **** 			UnitTest::CurrentTest::Details() = newDetails;
 494              		.loc 5 23 0
 495 0049 E8000000 		call	_ZN8UnitTest11CurrentTest7DetailsEv
 495      00
 496 004e 4889C2   		movq	%rax, %rdx
 497 0051 488B45E8 		movq	-24(%rbp), %rax
 498 0055 488902   		movq	%rax, (%rdx)
 499              	.L18:
 500              	.LBE6:
  24:ScopedCurrentTest.h **** 	}
 501              		.loc 5 24 0
 502 0058 90       		nop
 503 0059 C9       		leave
 504              		.cfi_def_cfa 7, 8
 505 005a C3       		ret
 506              		.cfi_endproc
 507              	.LFE1083:
 509              		.weak	_ZN17ScopedCurrentTestC1ERN8UnitTest11TestResultsEPKNS0_11TestDetailsE
 510              		.set	_ZN17ScopedCurrentTestC1ERN8UnitTest11TestResultsEPKNS0_11TestDetailsE,_ZN17ScopedCurrentTest
 511              		.section	.text._ZN17ScopedCurrentTestD2Ev,"axG",@progbits,_ZN17ScopedCurrentTestD5Ev,comdat
 512              		.align 2
 513              		.weak	_ZN17ScopedCurrentTestD2Ev
 515              	_ZN17ScopedCurrentTestD2Ev:
 516              	.LFB1086:
  25:ScopedCurrentTest.h **** 
  26:ScopedCurrentTest.h **** 	~ScopedCurrentTest()
 517              		.loc 5 26 0
 518              		.cfi_startproc
 519 0000 55       		pushq	%rbp
 520              		.cfi_def_cfa_offset 16
 521              		.cfi_offset 6, -16
 522 0001 4889E5   		movq	%rsp, %rbp
 523              		.cfi_def_cfa_register 6
 524 0004 4883EC10 		subq	$16, %rsp
 525 0008 48897DF8 		movq	%rdi, -8(%rbp)
 526              	.LBB7:
  27:ScopedCurrentTest.h **** 	{
  28:ScopedCurrentTest.h **** 		UnitTest::CurrentTest::Results() = m_oldTestResults;
 527              		.loc 5 28 0
 528 000c E8000000 		call	_ZN8UnitTest11CurrentTest7ResultsEv
 528      00
 529 0011 4889C2   		movq	%rax, %rdx
 530 0014 488B45F8 		movq	-8(%rbp), %rax
 531 0018 488B00   		movq	(%rax), %rax
 532 001b 488902   		movq	%rax, (%rdx)
  29:ScopedCurrentTest.h **** 		UnitTest::CurrentTest::Details() = m_oldTestDetails;
 533              		.loc 5 29 0
 534 001e E8000000 		call	_ZN8UnitTest11CurrentTest7DetailsEv
 534      00
 535 0023 4889C2   		movq	%rax, %rdx
 536 0026 488B45F8 		movq	-8(%rbp), %rax
 537 002a 488B4008 		movq	8(%rax), %rax
 538 002e 488902   		movq	%rax, (%rdx)
 539              	.LBE7:
  30:ScopedCurrentTest.h **** 	}
 540              		.loc 5 30 0
 541 0031 90       		nop
 542 0032 C9       		leave
 543              		.cfi_def_cfa 7, 8
 544 0033 C3       		ret
 545              		.cfi_endproc
 546              	.LFE1086:
 548              		.weak	_ZN17ScopedCurrentTestD1Ev
 549              		.set	_ZN17ScopedCurrentTestD1Ev,_ZN17ScopedCurrentTestD2Ev
 550              		.local	_ZN12_GLOBAL__N_15list1E
 551              		.comm	_ZN12_GLOBAL__N_15list1E,16,16
 552              		.section	.rodata
 553              	.LC2:
 554 000d 54657374 		.string	"TestTestMacros.cpp"
 554      54657374 
 554      4D616372 
 554      6F732E63 
 554      707000
 555              	.LC3:
 556 0020 44756D6D 		.string	"DummyTest"
 556      79546573 
 556      7400
 557              		.text
 558              		.align 2
 560              	_ZN12_GLOBAL__N_113TestDummyTestC2Ev:
 561              	.LFB1089:
 562              		.file 6 "TestTestMacros.cpp"
   1:TestTestMacros.cpp **** #include "../UnitTest++.h"
   2:TestTestMacros.cpp **** #include "../TestMacros.h"
   3:TestTestMacros.cpp **** #include "../TestList.h"
   4:TestTestMacros.cpp **** #include "../TestResults.h"
   5:TestTestMacros.cpp **** #include "../TestReporter.h"
   6:TestTestMacros.cpp **** #include "../ReportAssert.h"
   7:TestTestMacros.cpp **** #include "RecordingReporter.h"
   8:TestTestMacros.cpp **** #include "ScopedCurrentTest.h"
   9:TestTestMacros.cpp **** 
  10:TestTestMacros.cpp **** using namespace UnitTest;
  11:TestTestMacros.cpp **** 
  12:TestTestMacros.cpp **** namespace {
  13:TestTestMacros.cpp **** 
  14:TestTestMacros.cpp **** TestList list1;
  15:TestTestMacros.cpp **** TEST_EX(DummyTest, list1)
 563              		.loc 6 15 0
 564              		.cfi_startproc
 565 0000 55       		pushq	%rbp
 566              		.cfi_def_cfa_offset 16
 567              		.cfi_offset 6, -16
 568 0001 4889E5   		movq	%rsp, %rbp
 569              		.cfi_def_cfa_register 6
 570 0004 4883EC10 		subq	$16, %rsp
 571 0008 48897DF8 		movq	%rdi, -8(%rbp)
 572              	.LBB8:
 573              		.loc 6 15 0
 574 000c E8000000 		call	_ZN13UnitTestSuite12GetSuiteNameEv
 574      00
 575 0011 4889C2   		movq	%rax, %rdx
 576 0014 488B45F8 		movq	-8(%rbp), %rax
 577 0018 41B80F00 		movl	$15, %r8d
 577      0000
 578 001e B9000000 		movl	$.LC2, %ecx
 578      00
 579 0023 BE000000 		movl	$.LC3, %esi
 579      00
 580 0028 4889C7   		movq	%rax, %rdi
 581 002b E8000000 		call	_ZN8UnitTest4TestC2EPKcS2_S2_i
 581      00
 582 0030 BA000000 		movl	$_ZTVN12_GLOBAL__N_113TestDummyTestE+16, %edx
 582      00
 583 0035 488B45F8 		movq	-8(%rbp), %rax
 584 0039 488910   		movq	%rdx, (%rax)
 585              	.LBE8:
 586 003c 90       		nop
 587 003d C9       		leave
 588              		.cfi_def_cfa 7, 8
 589 003e C3       		ret
 590              		.cfi_endproc
 591              	.LFE1089:
 593              		.set	_ZN12_GLOBAL__N_113TestDummyTestC1Ev,_ZN12_GLOBAL__N_113TestDummyTestC2Ev
 594              		.local	_ZN12_GLOBAL__N_121testDummyTestInstanceE
 595              		.comm	_ZN12_GLOBAL__N_121testDummyTestInstanceE,56,32
 596              		.local	_ZN12_GLOBAL__N_114adderDummyTestE
 597              		.comm	_ZN12_GLOBAL__N_114adderDummyTestE,1,1
 598 003f 90       		.align 2
 600              	_ZNK12_GLOBAL__N_113TestDummyTest7RunImplEv:
 601              	.LFB1091:
  16:TestTestMacros.cpp **** {
 602              		.loc 6 16 0
 603              		.cfi_startproc
 604 0040 55       		pushq	%rbp
 605              		.cfi_def_cfa_offset 16
 606              		.cfi_offset 6, -16
 607 0041 4889E5   		movq	%rsp, %rbp
 608              		.cfi_def_cfa_register 6
 609 0044 48897DF8 		movq	%rdi, -8(%rbp)
  17:TestTestMacros.cpp **** }
 610              		.loc 6 17 0
 611 0048 90       		nop
 612 0049 5D       		popq	%rbp
 613              		.cfi_def_cfa 7, 8
 614 004a C3       		ret
 615              		.cfi_endproc
 616              	.LFE1091:
 618              		.section	.rodata
 619 002a 00000000 		.align 8
 619      0000
 620              	.LC4:
 621 0030 54657374 		.string	"TestsAreAddedToTheListThroughMacro"
 621      73417265 
 621      41646465 
 621      64546F54 
 621      68654C69 
 622              		.text
 623 004b 90       		.align 2
 625              	_ZN12_GLOBAL__N_138TestTestsAreAddedToTheListThroughMacroC2Ev:
 626              	.LFB1093:
  18:TestTestMacros.cpp **** 
  19:TestTestMacros.cpp **** TEST (TestsAreAddedToTheListThroughMacro)
 627              		.loc 6 19 0
 628              		.cfi_startproc
 629 004c 55       		pushq	%rbp
 630              		.cfi_def_cfa_offset 16
 631              		.cfi_offset 6, -16
 632 004d 4889E5   		movq	%rsp, %rbp
 633              		.cfi_def_cfa_register 6
 634 0050 4883EC10 		subq	$16, %rsp
 635 0054 48897DF8 		movq	%rdi, -8(%rbp)
 636              	.LBB9:
 637              		.loc 6 19 0
 638 0058 E8000000 		call	_ZN13UnitTestSuite12GetSuiteNameEv
 638      00
 639 005d 4889C2   		movq	%rax, %rdx
 640 0060 488B45F8 		movq	-8(%rbp), %rax
 641 0064 41B81300 		movl	$19, %r8d
 641      0000
 642 006a B9000000 		movl	$.LC2, %ecx
 642      00
 643 006f BE000000 		movl	$.LC4, %esi
 643      00
 644 0074 4889C7   		movq	%rax, %rdi
 645 0077 E8000000 		call	_ZN8UnitTest4TestC2EPKcS2_S2_i
 645      00
 646 007c BA000000 		movl	$_ZTVN12_GLOBAL__N_138TestTestsAreAddedToTheListThroughMacroE+16, %edx
 646      00
 647 0081 488B45F8 		movq	-8(%rbp), %rax
 648 0085 488910   		movq	%rdx, (%rax)
 649              	.LBE9:
 650 0088 90       		nop
 651 0089 C9       		leave
 652              		.cfi_def_cfa 7, 8
 653 008a C3       		ret
 654              		.cfi_endproc
 655              	.LFE1093:
 657              		.set	_ZN12_GLOBAL__N_138TestTestsAreAddedToTheListThroughMacroC1Ev,_ZN12_GLOBAL__N_138TestTestsAre
 658              		.local	_ZN12_GLOBAL__N_146testTestsAreAddedToTheListThroughMacroInstanceE
 659              		.comm	_ZN12_GLOBAL__N_146testTestsAreAddedToTheListThroughMacroInstanceE,56,32
 660              		.local	_ZN12_GLOBAL__N_139adderTestsAreAddedToTheListThroughMacroE
 661              		.comm	_ZN12_GLOBAL__N_139adderTestsAreAddedToTheListThroughMacroE,1,1
 662              		.section	.rodata
 663              	.LC5:
 664 0053 6C697374 		.string	"list1.GetHead() != 0"
 664      312E4765 
 664      74486561 
 664      64282920 
 664      213D2030 
 665              	.LC6:
 666 0068 6C697374 		.string	"list1.GetHead()->next == 0"
 666      312E4765 
 666      74486561 
 666      6428292D 
 666      3E6E6578 
 667 0083 00000000 		.align 8
 667      00
 668              	.LC7:
 669 0088 556E6861 		.string	"Unhandled exception in CHECK(list1.GetHead() != 0)"
 669      6E646C65 
 669      64206578 
 669      63657074 
 669      696F6E20 
 670 00bb 00000000 		.align 8
 670      00
 671              	.LC8:
 672 00c0 556E6861 		.string	"Unhandled exception in CHECK(list1.GetHead()->next == 0)"
 672      6E646C65 
 672      64206578 
 672      63657074 
 672      696F6E20 
 673              		.text
 674 008b 90       		.align 2
 676              	_ZNK12_GLOBAL__N_138TestTestsAreAddedToTheListThroughMacro7RunImplEv:
 677              	.LFB1095:
  20:TestTestMacros.cpp **** {
 678              		.loc 6 20 0
 679              		.cfi_startproc
 680              		.cfi_personality 0x3,__gxx_personality_v0
 681              		.cfi_lsda 0x3,.LLSDA1095
 682 008c 55       		pushq	%rbp
 683              		.cfi_def_cfa_offset 16
 684              		.cfi_offset 6, -16
 685 008d 4889E5   		movq	%rsp, %rbp
 686              		.cfi_def_cfa_register 6
 687 0090 53       		pushq	%rbx
 688 0091 4883EC48 		subq	$72, %rsp
 689              		.cfi_offset 3, -24
 690 0095 48897DB8 		movq	%rdi, -72(%rbp)
 691              		.loc 6 20 0
 692 0099 64488B04 		movq	%fs:40, %rax
 692      25280000 
 692      00
 693 00a2 488945E8 		movq	%rax, -24(%rbp)
 694 00a6 31C0     		xorl	%eax, %eax
  21:TestTestMacros.cpp ****     CHECK(list1.GetHead() != 0);
 695              		.loc 6 21 0
 696 00a8 BF000000 		movl	$_ZN12_GLOBAL__N_15list1E, %edi
 696      00
 697              	.LEHB4:
 698 00ad E8000000 		call	_ZNK8UnitTest8TestList7GetHeadEv
 698      00
 699 00b2 4885C0   		testq	%rax, %rax
 700 00b5 0F95C0   		setne	%al
 701 00b8 0FB6C0   		movzbl	%al, %eax
 702 00bb 89C7     		movl	%eax, %edi
 703 00bd E8000000 		call	_ZN8UnitTest5CheckIbEEbT_
 703      00
 704 00c2 83F001   		xorl	$1, %eax
 705 00c5 84C0     		testb	%al, %al
 706 00c7 7438     		je	.L24
 707              		.loc 6 21 0 is_stmt 0 discriminator 2
 708 00c9 E8000000 		call	_ZN8UnitTest11CurrentTest7DetailsEv
 708      00
 709 00ce 488B08   		movq	(%rax), %rcx
 710 00d1 488D45C0 		leaq	-64(%rbp), %rax
 711 00d5 BA150000 		movl	$21, %edx
 711      00
 712 00da 4889CE   		movq	%rcx, %rsi
 713 00dd 4889C7   		movq	%rax, %rdi
 714 00e0 E8000000 		call	_ZN8UnitTest11TestDetailsC1ERKS0_i
 714      00
 715              		.loc 6 21 0 discriminator 4
 716 00e5 E8000000 		call	_ZN8UnitTest11CurrentTest7ResultsEv
 716      00
 717 00ea 488B00   		movq	(%rax), %rax
 718 00ed 488D4DC0 		leaq	-64(%rbp), %rcx
 719 00f1 BA000000 		movl	$.LC5, %edx
 719      00
 720 00f6 4889CE   		movq	%rcx, %rsi
 721 00f9 4889C7   		movq	%rax, %rdi
 722 00fc E8000000 		call	_ZN8UnitTest11TestResults13OnTestFailureERKNS_11TestDetailsEPKc
 722      00
 723              	.LEHE4:
 724              	.L24:
  22:TestTestMacros.cpp ****     CHECK(list1.GetHead()->next == 0);
 725              		.loc 6 22 0 is_stmt 1
 726 0101 BF000000 		movl	$_ZN12_GLOBAL__N_15list1E, %edi
 726      00
 727              	.LEHB5:
 728 0106 E8000000 		call	_ZNK8UnitTest8TestList7GetHeadEv
 728      00
 729 010b 488B4028 		movq	40(%rax), %rax
 730 010f 4885C0   		testq	%rax, %rax
 731 0112 0F94C0   		sete	%al
 732 0115 0FB6C0   		movzbl	%al, %eax
 733 0118 89C7     		movl	%eax, %edi
 734 011a E8000000 		call	_ZN8UnitTest5CheckIbEEbT_
 734      00
 735 011f 83F001   		xorl	$1, %eax
 736 0122 84C0     		testb	%al, %al
 737 0124 0F84F400 		je	.L35
 737      0000
 738              		.loc 6 22 0 is_stmt 0 discriminator 2
 739 012a E8000000 		call	_ZN8UnitTest11CurrentTest7DetailsEv
 739      00
 740 012f 488B08   		movq	(%rax), %rcx
 741 0132 488D45C0 		leaq	-64(%rbp), %rax
 742 0136 BA160000 		movl	$22, %edx
 742      00
 743 013b 4889CE   		movq	%rcx, %rsi
 744 013e 4889C7   		movq	%rax, %rdi
 745 0141 E8000000 		call	_ZN8UnitTest11TestDetailsC1ERKS0_i
 745      00
 746              		.loc 6 22 0 discriminator 4
 747 0146 E8000000 		call	_ZN8UnitTest11CurrentTest7ResultsEv
 747      00
 748 014b 488B00   		movq	(%rax), %rax
 749 014e 488D4DC0 		leaq	-64(%rbp), %rcx
 750 0152 BA000000 		movl	$.LC6, %edx
 750      00
 751 0157 4889CE   		movq	%rcx, %rsi
 752 015a 4889C7   		movq	%rax, %rdi
 753 015d E8000000 		call	_ZN8UnitTest11TestResults13OnTestFailureERKNS_11TestDetailsEPKc
 753      00
 754              	.LEHE5:
  23:TestTestMacros.cpp **** }
 755              		.loc 6 23 0 is_stmt 1
 756 0162 E9B70000 		jmp	.L35
 756      00
 757              	.L31:
  21:TestTestMacros.cpp ****     CHECK(list1.GetHead() != 0);
 758              		.loc 6 21 0
 759 0167 4889C7   		movq	%rax, %rdi
 760 016a E8000000 		call	__cxa_begin_catch
 760      00
 761              	.LEHB6:
 762 016f E8000000 		call	_ZN8UnitTest11CurrentTest7DetailsEv
 762      00
 763 0174 488B08   		movq	(%rax), %rcx
 764 0177 488D45C0 		leaq	-64(%rbp), %rax
 765 017b BA150000 		movl	$21, %edx
 765      00
 766 0180 4889CE   		movq	%rcx, %rsi
 767 0183 4889C7   		movq	%rax, %rdi
 768 0186 E8000000 		call	_ZN8UnitTest11TestDetailsC1ERKS0_i
 768      00
  21:TestTestMacros.cpp ****     CHECK(list1.GetHead() != 0);
 769              		.loc 6 21 0 is_stmt 0 discriminator 12
 770 018b E8000000 		call	_ZN8UnitTest11CurrentTest7ResultsEv
 770      00
 771 0190 488B00   		movq	(%rax), %rax
 772 0193 488D4DC0 		leaq	-64(%rbp), %rcx
 773 0197 BA000000 		movl	$.LC7, %edx
 773      00
 774 019c 4889CE   		movq	%rcx, %rsi
 775 019f 4889C7   		movq	%rax, %rdi
 776 01a2 E8000000 		call	_ZN8UnitTest11TestResults13OnTestFailureERKNS_11TestDetailsEPKc
 776      00
 777              	.LEHE6:
 778              	.LEHB7:
  21:TestTestMacros.cpp ****     CHECK(list1.GetHead() != 0);
 779              		.loc 6 21 0 discriminator 16
 780 01a7 E8000000 		call	__cxa_end_catch
 780      00
 781              	.LEHE7:
 782 01ac E950FFFF 		jmp	.L24
 782      FF
 783              	.L32:
 784 01b1 4889C3   		movq	%rax, %rbx
  21:TestTestMacros.cpp ****     CHECK(list1.GetHead() != 0);
 785              		.loc 6 21 0
 786 01b4 E8000000 		call	__cxa_end_catch
 786      00
 787 01b9 4889D8   		movq	%rbx, %rax
 788 01bc 4889C7   		movq	%rax, %rdi
 789              	.LEHB8:
 790 01bf E8000000 		call	_Unwind_Resume
 790      00
 791              	.LEHE8:
 792              	.L33:
  22:TestTestMacros.cpp ****     CHECK(list1.GetHead()->next == 0);
 793              		.loc 6 22 0 is_stmt 1
 794 01c4 4889C7   		movq	%rax, %rdi
 795 01c7 E8000000 		call	__cxa_begin_catch
 795      00
 796              	.LEHB9:
 797 01cc E8000000 		call	_ZN8UnitTest11CurrentTest7DetailsEv
 797      00
 798 01d1 488B08   		movq	(%rax), %rcx
 799 01d4 488D45C0 		leaq	-64(%rbp), %rax
 800 01d8 BA160000 		movl	$22, %edx
 800      00
 801 01dd 4889CE   		movq	%rcx, %rsi
 802 01e0 4889C7   		movq	%rax, %rdi
 803 01e3 E8000000 		call	_ZN8UnitTest11TestDetailsC1ERKS0_i
 803      00
  22:TestTestMacros.cpp ****     CHECK(list1.GetHead()->next == 0);
 804              		.loc 6 22 0 is_stmt 0 discriminator 12
 805 01e8 E8000000 		call	_ZN8UnitTest11CurrentTest7ResultsEv
 805      00
 806 01ed 488B00   		movq	(%rax), %rax
 807 01f0 488D4DC0 		leaq	-64(%rbp), %rcx
 808 01f4 BA000000 		movl	$.LC8, %edx
 808      00
 809 01f9 4889CE   		movq	%rcx, %rsi
 810 01fc 4889C7   		movq	%rax, %rdi
 811 01ff E8000000 		call	_ZN8UnitTest11TestResults13OnTestFailureERKNS_11TestDetailsEPKc
 811      00
 812              	.LEHE9:
 813              	.LEHB10:
  22:TestTestMacros.cpp ****     CHECK(list1.GetHead()->next == 0);
 814              		.loc 6 22 0 discriminator 16
 815 0204 E8000000 		call	__cxa_end_catch
 815      00
 816              	.LEHE10:
 817              		.loc 6 23 0 is_stmt 1 discriminator 16
 818 0209 EB13     		jmp	.L35
 819              	.L34:
 820 020b 4889C3   		movq	%rax, %rbx
  22:TestTestMacros.cpp ****     CHECK(list1.GetHead()->next == 0);
 821              		.loc 6 22 0
 822 020e E8000000 		call	__cxa_end_catch
 822      00
 823 0213 4889D8   		movq	%rbx, %rax
 824 0216 4889C7   		movq	%rax, %rdi
 825              	.LEHB11:
 826 0219 E8000000 		call	_Unwind_Resume
 826      00
 827              	.LEHE11:
 828              	.L35:
 829              		.loc 6 23 0
 830 021e 90       		nop
 831 021f 488B45E8 		movq	-24(%rbp), %rax
 832 0223 64483304 		xorq	%fs:40, %rax
 832      25280000 
 832      00
 833 022c 7405     		je	.L30
 834 022e E8000000 		call	__stack_chk_fail
 834      00
 835              	.L30:
 836 0233 4883C448 		addq	$72, %rsp
 837 0237 5B       		popq	%rbx
 838 0238 5D       		popq	%rbp
 839              		.cfi_def_cfa 7, 8
 840 0239 C3       		ret
 841              		.cfi_endproc
 842              	.LFE1095:
 843              		.section	.gcc_except_table,"a",@progbits
 844              		.align 4
 845              	.LLSDA1095:
 846 0000 FF       		.byte	0xff
 847 0001 03       		.byte	0x3
 848 0002 35       		.uleb128 .LLSDATT1095-.LLSDATTD1095
 849              	.LLSDATTD1095:
 850 0003 01       		.byte	0x1
 851 0004 2A       		.uleb128 .LLSDACSE1095-.LLSDACSB1095
 852              	.LLSDACSB1095:
 853 0005 21       		.uleb128 .LEHB4-.LFB1095
 854 0006 54       		.uleb128 .LEHE4-.LEHB4
 855 0007 DB01     		.uleb128 .L31-.LFB1095
 856 0009 01       		.uleb128 0x1
 857 000a 7A       		.uleb128 .LEHB5-.LFB1095
 858 000b 5C       		.uleb128 .LEHE5-.LEHB5
 859 000c B802     		.uleb128 .L33-.LFB1095
 860 000e 01       		.uleb128 0x1
 861 000f E301     		.uleb128 .LEHB6-.LFB1095
 862 0011 38       		.uleb128 .LEHE6-.LEHB6
 863 0012 A502     		.uleb128 .L32-.LFB1095
 864 0014 00       		.uleb128 0
 865 0015 9B02     		.uleb128 .LEHB7-.LFB1095
 866 0017 05       		.uleb128 .LEHE7-.LEHB7
 867 0018 00       		.uleb128 0
 868 0019 00       		.uleb128 0
 869 001a B302     		.uleb128 .LEHB8-.LFB1095
 870 001c 05       		.uleb128 .LEHE8-.LEHB8
 871 001d 00       		.uleb128 0
 872 001e 00       		.uleb128 0
 873 001f C002     		.uleb128 .LEHB9-.LFB1095
 874 0021 38       		.uleb128 .LEHE9-.LEHB9
 875 0022 FF02     		.uleb128 .L34-.LFB1095
 876 0024 00       		.uleb128 0
 877 0025 F802     		.uleb128 .LEHB10-.LFB1095
 878 0027 05       		.uleb128 .LEHE10-.LEHB10
 879 0028 00       		.uleb128 0
 880 0029 00       		.uleb128 0
 881 002a 8D03     		.uleb128 .LEHB11-.LFB1095
 882 002c 05       		.uleb128 .LEHE11-.LEHB11
 883 002d 00       		.uleb128 0
 884 002e 00       		.uleb128 0
 885              	.LLSDACSE1095:
 886 002f 01       		.byte	0x1
 887 0030 00       		.byte	0
 888 0031 000000   		.align 4
 889 0034 00000000 		.long	0
 890              	
 891              	.LLSDATT1095:
 892              		.text
 894              		.section	.rodata
 895              	.LC9:
 896 00f9 4F6F7073 		.string	"Oops"
 896      00
 897              		.text
 898              		.align 2
 900              	_ZN12_GLOBAL__N_115ThrowingThingieC2Ev:
 901              	.LFB1097:
  24:TestTestMacros.cpp **** 
  25:TestTestMacros.cpp **** struct ThrowingThingie
  26:TestTestMacros.cpp **** {
  27:TestTestMacros.cpp ****     ThrowingThingie() : dummy(false)
 902              		.loc 6 27 0
 903              		.cfi_startproc
 904 023a 55       		pushq	%rbp
 905              		.cfi_def_cfa_offset 16
 906              		.cfi_offset 6, -16
 907 023b 4889E5   		movq	%rsp, %rbp
 908              		.cfi_def_cfa_register 6
 909 023e 4883EC10 		subq	$16, %rsp
 910 0242 48897DF8 		movq	%rdi, -8(%rbp)
 911              	.LBB10:
 912              		.loc 6 27 0
 913 0246 488B45F8 		movq	-8(%rbp), %rax
 914 024a C60000   		movb	$0, (%rax)
  28:TestTestMacros.cpp ****     {
  29:TestTestMacros.cpp ****         if (!dummy)
 915              		.loc 6 29 0
 916 024d 488B45F8 		movq	-8(%rbp), %rax
 917 0251 0FB600   		movzbl	(%rax), %eax
 918 0254 83F001   		xorl	$1, %eax
 919 0257 84C0     		testb	%al, %al
 920 0259 7423     		je	.L38
  30:TestTestMacros.cpp ****             throw "Oops";
 921              		.loc 6 30 0
 922 025b BF080000 		movl	$8, %edi
 922      00
 923 0260 E8000000 		call	__cxa_allocate_exception
 923      00
 924 0265 48C70000 		movq	$.LC9, (%rax)
 924      000000
 925 026c BA000000 		movl	$0, %edx
 925      00
 926 0271 BE000000 		movl	$_ZTIPKc, %esi
 926      00
 927 0276 4889C7   		movq	%rax, %rdi
 928 0279 E8000000 		call	__cxa_throw
 928      00
 929              	.L38:
 930              	.LBE10:
  31:TestTestMacros.cpp ****     }
 931              		.loc 6 31 0
 932 027e 90       		nop
 933 027f C9       		leave
 934              		.cfi_def_cfa 7, 8
 935 0280 C3       		ret
 936              		.cfi_endproc
 937              	.LFE1097:
 939              		.local	_ZN12_GLOBAL__N_15list2E
 940              		.comm	_ZN12_GLOBAL__N_15list2E,16,16
 941 0281 90       		.align 2
 943              	_ZN12_GLOBAL__N_134ThrowingThingieDummyTestNameHelperC2ERKN8UnitTest11TestDetailsE:
 944              	.LFB1100:
  32:TestTestMacros.cpp **** 
  33:TestTestMacros.cpp ****     bool dummy;
  34:TestTestMacros.cpp **** };
  35:TestTestMacros.cpp **** 
  36:TestTestMacros.cpp **** TestList list2;
  37:TestTestMacros.cpp **** TEST_FIXTURE_EX(ThrowingThingie, DummyTestName, list2)
 945              		.loc 6 37 0
 946              		.cfi_startproc
 947 0282 55       		pushq	%rbp
 948              		.cfi_def_cfa_offset 16
 949              		.cfi_offset 6, -16
 950 0283 4889E5   		movq	%rsp, %rbp
 951              		.cfi_def_cfa_register 6
 952 0286 4883EC10 		subq	$16, %rsp
 953 028a 48897DF8 		movq	%rdi, -8(%rbp)
 954 028e 488975F0 		movq	%rsi, -16(%rbp)
 955              	.LBB11:
 956              		.loc 6 37 0
 957 0292 488B45F8 		movq	-8(%rbp), %rax
 958 0296 4889C7   		movq	%rax, %rdi
 959 0299 E89CFFFF 		call	_ZN12_GLOBAL__N_115ThrowingThingieC2Ev
 959      FF
 960 029e 488B45F8 		movq	-8(%rbp), %rax
 961 02a2 488B55F0 		movq	-16(%rbp), %rdx
 962 02a6 48895008 		movq	%rdx, 8(%rax)
 963              	.LBE11:
 964 02aa 90       		nop
 965 02ab C9       		leave
 966              		.cfi_def_cfa 7, 8
 967 02ac C3       		ret
 968              		.cfi_endproc
 969              	.LFE1100:
 971              		.set	_ZN12_GLOBAL__N_134ThrowingThingieDummyTestNameHelperC1ERKN8UnitTest11TestDetailsE,_ZN12_GLOB
 972              		.section	.rodata
 973              	.LC10:
 974 00fe 44756D6D 		.string	"DummyTestName"
 974      79546573 
 974      744E616D 
 974      6500
 975              		.text
 976 02ad 90       		.align 2
 978              	_ZN12_GLOBAL__N_132TestThrowingThingieDummyTestNameC2Ev:
 979              	.LFB1103:
 980              		.loc 6 37 0
 981              		.cfi_startproc
 982 02ae 55       		pushq	%rbp
 983              		.cfi_def_cfa_offset 16
 984              		.cfi_offset 6, -16
 985 02af 4889E5   		movq	%rsp, %rbp
 986              		.cfi_def_cfa_register 6
 987 02b2 4883EC10 		subq	$16, %rsp
 988 02b6 48897DF8 		movq	%rdi, -8(%rbp)
 989              	.LBB12:
 990              		.loc 6 37 0
 991 02ba E8000000 		call	_ZN13UnitTestSuite12GetSuiteNameEv
 991      00
 992 02bf 4889C2   		movq	%rax, %rdx
 993 02c2 488B45F8 		movq	-8(%rbp), %rax
 994 02c6 41B82500 		movl	$37, %r8d
 994      0000
 995 02cc B9000000 		movl	$.LC2, %ecx
 995      00
 996 02d1 BE000000 		movl	$.LC10, %esi
 996      00
 997 02d6 4889C7   		movq	%rax, %rdi
 998 02d9 E8000000 		call	_ZN8UnitTest4TestC2EPKcS2_S2_i
 998      00
 999 02de BA000000 		movl	$_ZTVN12_GLOBAL__N_132TestThrowingThingieDummyTestNameE+16, %edx
 999      00
 1000 02e3 488B45F8 		movq	-8(%rbp), %rax
 1001 02e7 488910   		movq	%rdx, (%rax)
 1002              	.LBE12:
 1003 02ea 90       		nop
 1004 02eb C9       		leave
 1005              		.cfi_def_cfa 7, 8
 1006 02ec C3       		ret
 1007              		.cfi_endproc
 1008              	.LFE1103:
 1010              		.set	_ZN12_GLOBAL__N_132TestThrowingThingieDummyTestNameC1Ev,_ZN12_GLOBAL__N_132TestThrowingThingi
 1011              		.local	_ZN12_GLOBAL__N_140testThrowingThingieDummyTestNameInstanceE
 1012              		.comm	_ZN12_GLOBAL__N_140testThrowingThingieDummyTestNameInstanceE,56,32
 1013              		.local	_ZN12_GLOBAL__N_133adderThrowingThingieDummyTestNameE
 1014              		.comm	_ZN12_GLOBAL__N_133adderThrowingThingieDummyTestNameE,1,1
 1015              		.section	.rodata
 1016              	.LC11:
 1017 010c 556E6861 		.string	"Unhandled exception: "
 1017      6E646C65 
 1017      64206578 
 1017      63657074 
 1017      696F6E3A 
 1018 0122 00000000 		.align 8
 1018      0000
 1019              	.LC12:
 1020 0128 556E6861 		.string	"Unhandled exception while destroying fixture ThrowingThingie"
 1020      6E646C65 
 1020      64206578 
 1020      63657074 
 1020      696F6E20 
 1021 0165 000000   		.align 8
 1022              	.LC13:
 1023 0168 556E6861 		.string	"Unhandled exception while constructing fixture ThrowingThingie"
 1023      6E646C65 
 1023      64206578 
 1023      63657074 
 1023      696F6E20 
 1024              		.text
 1025 02ed 90       		.align 2
 1027              	_ZNK12_GLOBAL__N_132TestThrowingThingieDummyTestName7RunImplEv:
 1028              	.LFB1105:
 1029              		.loc 6 37 0
 1030              		.cfi_startproc
 1031              		.cfi_personality 0x3,__gxx_personality_v0
 1032              		.cfi_lsda 0x3,.LLSDA1105
 1033 02ee 55       		pushq	%rbp
 1034              		.cfi_def_cfa_offset 16
 1035              		.cfi_offset 6, -16
 1036 02ef 4889E5   		movq	%rsp, %rbp
 1037              		.cfi_def_cfa_register 6
 1038 02f2 4154     		pushq	%r12
 1039 02f4 53       		pushq	%rbx
 1040 02f5 4881ECF0 		subq	$496, %rsp
 1040      010000
 1041              		.cfi_offset 12, -24
 1042              		.cfi_offset 3, -32
 1043 02fc 4889BD08 		movq	%rdi, -504(%rbp)
 1043      FEFFFF
 1044              		.loc 6 37 0
 1045 0303 64488B04 		movq	%fs:40, %rax
 1045      25280000 
 1045      00
 1046 030c 488945E8 		movq	%rax, -24(%rbp)
 1047 0310 31C0     		xorl	%eax, %eax
 1048 0312 C6851FFE 		movb	$0, -481(%rbp)
 1048      FFFF00
 1049              	.LBB13:
 1050 0319 488B8508 		movq	-504(%rbp), %rax
 1050      FEFFFF
 1051 0320 488D5008 		leaq	8(%rax), %rdx
 1052 0324 488D8530 		leaq	-464(%rbp), %rax
 1052      FEFFFF
 1053 032b 4889D6   		movq	%rdx, %rsi
 1054 032e 4889C7   		movq	%rax, %rdi
 1055              	.LEHB12:
 1056 0331 E84CFFFF 		call	_ZN12_GLOBAL__N_134ThrowingThingieDummyTestNameHelperC1ERKN8UnitTest11TestDetailsE
 1056      FF
 1057              		.loc 6 37 0 is_stmt 0 discriminator 1
 1058 0336 C6851FFE 		movb	$1, -481(%rbp)
 1058      FFFF01
 1059 033d 488B8508 		movq	-504(%rbp), %rax
 1059      FEFFFF
 1060 0344 488D5008 		leaq	8(%rax), %rdx
 1061 0348 488D8530 		leaq	-464(%rbp), %rax
 1061      FEFFFF
 1062 034f 4889D6   		movq	%rdx, %rsi
 1063 0352 4889C7   		movq	%rax, %rdi
 1064 0355 E8EA2B00 		call	_ZN8UnitTest11ExecuteTestIN12_GLOBAL__N_134ThrowingThingieDummyTestNameHelperEEEvRT_RKNS_11Te
 1064      00
 1065              	.LEHE12:
 1066              	.LBE13:
 1067              		.loc 6 37 0
 1068 035a E9490200 		jmp	.L41
 1068      00
 1069              	.L54:
 1070 035f 4883FA01 		cmpq	$1, %rdx
 1071 0363 740F     		je	.L44
 1072 0365 4883FA02 		cmpq	$2, %rdx
 1073 0369 0F84A700 		je	.L45
 1073      0000
 1074 036f E94B0100 		jmp	.L59
 1074      00
 1075              	.L44:
 1076              	.LBB14:
 1077 0374 4889C7   		movq	%rax, %rdi
 1078 0377 E8000000 		call	__cxa_begin_catch
 1078      00
 1079 037c 48898520 		movq	%rax, -480(%rbp)
 1079      FEFFFF
 1080 0383 488B8520 		movq	-480(%rbp), %rax
 1080      FEFFFF
 1081 038a 488B00   		movq	(%rax), %rax
 1082 038d 4883C010 		addq	$16, %rax
 1083 0391 488B00   		movq	(%rax), %rax
 1084 0394 488B9520 		movq	-480(%rbp), %rdx
 1084      FEFFFF
 1085 039b 4889D7   		movq	%rdx, %rdi
 1086 039e FFD0     		call	*%rax
 1087 03a0 4889C3   		movq	%rax, %rbx
 1088 03a3 488B8520 		movq	-480(%rbp), %rax
 1088      FEFFFF
 1089 03aa 4889C7   		movq	%rax, %rdi
 1090              	.LEHB13:
 1091 03ad E8000000 		call	_ZNK8UnitTest15AssertException10LineNumberEv
 1091      00
 1092 03b2 4189C4   		movl	%eax, %r12d
 1093 03b5 488B8520 		movq	-480(%rbp), %rax
 1093      FEFFFF
 1094 03bc 4889C7   		movq	%rax, %rdi
 1095 03bf E8000000 		call	_ZNK8UnitTest15AssertException8FilenameEv
 1095      00
 1096              		.loc 6 37 0 discriminator 3
 1097 03c4 4889C1   		movq	%rax, %rcx
 1098 03c7 488B8508 		movq	-504(%rbp), %rax
 1098      FEFFFF
 1099 03ce 488B5008 		movq	8(%rax), %rdx
 1100 03d2 488B8508 		movq	-504(%rbp), %rax
 1100      FEFFFF
 1101 03d9 488B7010 		movq	16(%rax), %rsi
 1102 03dd 488D8530 		leaq	-464(%rbp), %rax
 1102      FEFFFF
 1103 03e4 4589E0   		movl	%r12d, %r8d
 1104 03e7 4889C7   		movq	%rax, %rdi
 1105 03ea E8000000 		call	_ZN8UnitTest11TestDetailsC1EPKcS2_S2_i
 1105      00
 1106              		.loc 6 37 0 discriminator 7
 1107 03ef E8000000 		call	_ZN8UnitTest11CurrentTest7ResultsEv
 1107      00
 1108 03f4 488B00   		movq	(%rax), %rax
 1109 03f7 488D8D30 		leaq	-464(%rbp), %rcx
 1109      FEFFFF
 1110 03fe 4889DA   		movq	%rbx, %rdx
 1111 0401 4889CE   		movq	%rcx, %rsi
 1112 0404 4889C7   		movq	%rax, %rdi
 1113 0407 E8000000 		call	_ZN8UnitTest11TestResults13OnTestFailureERKNS_11TestDetailsEPKc
 1113      00
 1114              	.LEHE13:
 1115              		.loc 6 37 0 discriminator 11
 1116 040c E8000000 		call	__cxa_end_catch
 1116      00
 1117              	.LBE14:
 1118 0411 E9920100 		jmp	.L41
 1118      00
 1119              	.L45:
 1120              	.LBB15:
 1121              		.loc 6 37 0
 1122 0416 4889C7   		movq	%rax, %rdi
 1123 0419 E8000000 		call	__cxa_begin_catch
 1123      00
 1124 041e 48898528 		movq	%rax, -472(%rbp)
 1124      FEFFFF
 1125              	.LBB16:
 1126 0425 488D8550 		leaq	-432(%rbp), %rax
 1126      FEFFFF
 1127 042c 4889C7   		movq	%rax, %rdi
 1128              	.LEHB14:
 1129 042f E8000000 		call	_ZN8UnitTest15MemoryOutStreamC1Ev
 1129      00
 1130              	.LEHE14:
 1131              		.loc 6 37 0 discriminator 13
 1132 0434 488B8528 		movq	-472(%rbp), %rax
 1132      FEFFFF
 1133 043b 488B00   		movq	(%rax), %rax
 1134 043e 4883C010 		addq	$16, %rax
 1135 0442 488B00   		movq	(%rax), %rax
 1136 0445 488B9528 		movq	-472(%rbp), %rdx
 1136      FEFFFF
 1137 044c 4889D7   		movq	%rdx, %rdi
 1138 044f FFD0     		call	*%rax
 1139 0451 4889C3   		movq	%rax, %rbx
 1140 0454 488D8550 		leaq	-432(%rbp), %rax
 1140      FEFFFF
 1141 045b BE000000 		movl	$.LC11, %esi
 1141      00
 1142 0460 4889C7   		movq	%rax, %rdi
 1143              	.LEHB15:
 1144 0463 E8000000 		call	_ZStlsISt11char_traitsIcEERSt13basic_ostreamIcT_ES5_PKc
 1144      00
 1145 0468 4889DE   		movq	%rbx, %rsi
 1146 046b 4889C7   		movq	%rax, %rdi
 1147 046e E8000000 		call	_ZStlsISt11char_traitsIcEERSt13basic_ostreamIcT_ES5_PKc
 1147      00
 1148              		.loc 6 37 0 discriminator 17
 1149 0473 488D8550 		leaq	-432(%rbp), %rax
 1149      FEFFFF
 1150 047a 4889C7   		movq	%rax, %rdi
 1151 047d E8000000 		call	_ZNK8UnitTest15MemoryOutStream7GetTextEv
 1151      00
 1152 0482 4989C4   		movq	%rax, %r12
 1153 0485 488B8508 		movq	-504(%rbp), %rax
 1153      FEFFFF
 1154 048c 488D5808 		leaq	8(%rax), %rbx
 1155 0490 E8000000 		call	_ZN8UnitTest11CurrentTest7ResultsEv
 1155      00
 1156              		.loc 6 37 0 discriminator 19
 1157 0495 488B00   		movq	(%rax), %rax
 1158 0498 4C89E2   		movq	%r12, %rdx
 1159 049b 4889DE   		movq	%rbx, %rsi
 1160 049e 4889C7   		movq	%rax, %rdi
 1161 04a1 E8000000 		call	_ZN8UnitTest11TestResults13OnTestFailureERKNS_11TestDetailsEPKc
 1161      00
 1162              	.LEHE15:
 1163              		.loc 6 37 0 discriminator 23
 1164 04a6 488D8550 		leaq	-432(%rbp), %rax
 1164      FEFFFF
 1165 04ad 4889C7   		movq	%rax, %rdi
 1166              	.LEHB16:
 1167 04b0 E8000000 		call	_ZN8UnitTest15MemoryOutStreamD1Ev
 1167      00
 1168              	.LEHE16:
 1169              	.LBE16:
 1170              		.loc 6 37 0 discriminator 24
 1171 04b5 E8000000 		call	__cxa_end_catch
 1171      00
 1172              	.LBE15:
 1173 04ba E9E90000 		jmp	.L41
 1173      00
 1174              	.L59:
 1175              		.loc 6 37 0
 1176 04bf 4889C7   		movq	%rax, %rdi
 1177 04c2 E8000000 		call	__cxa_begin_catch
 1177      00
 1178 04c7 80BD1FFE 		cmpb	$0, -481(%rbp)
 1178      FFFF00
 1179 04ce 7443     		je	.L47
 1180              		.loc 6 37 0 discriminator 26
 1181 04d0 488B8508 		movq	-504(%rbp), %rax
 1181      FEFFFF
 1182 04d7 488D4808 		leaq	8(%rax), %rcx
 1183 04db 488D8530 		leaq	-464(%rbp), %rax
 1183      FEFFFF
 1184 04e2 BA250000 		movl	$37, %edx
 1184      00
 1185 04e7 4889CE   		movq	%rcx, %rsi
 1186 04ea 4889C7   		movq	%rax, %rdi
 1187              	.LEHB17:
 1188 04ed E8000000 		call	_ZN8UnitTest11TestDetailsC1ERKS0_i
 1188      00
 1189              		.loc 6 37 0 discriminator 29
 1190 04f2 E8000000 		call	_ZN8UnitTest11CurrentTest7ResultsEv
 1190      00
 1191 04f7 488B00   		movq	(%rax), %rax
 1192 04fa 488D8D30 		leaq	-464(%rbp), %rcx
 1192      FEFFFF
 1193 0501 BA000000 		movl	$.LC12, %edx
 1193      00
 1194 0506 4889CE   		movq	%rcx, %rsi
 1195 0509 4889C7   		movq	%rax, %rdi
 1196 050c E8000000 		call	_ZN8UnitTest11TestResults13OnTestFailureERKNS_11TestDetailsEPKc
 1196      00
 1197 0511 EB41     		jmp	.L48
 1198              	.L47:
 1199              		.loc 6 37 0 discriminator 27
 1200 0513 488B8508 		movq	-504(%rbp), %rax
 1200      FEFFFF
 1201 051a 488D4808 		leaq	8(%rax), %rcx
 1202 051e 488D8530 		leaq	-464(%rbp), %rax
 1202      FEFFFF
 1203 0525 BA250000 		movl	$37, %edx
 1203      00
 1204 052a 4889CE   		movq	%rcx, %rsi
 1205 052d 4889C7   		movq	%rax, %rdi
 1206 0530 E8000000 		call	_ZN8UnitTest11TestDetailsC1ERKS0_i
 1206      00
 1207              		.loc 6 37 0 discriminator 36
 1208 0535 E8000000 		call	_ZN8UnitTest11CurrentTest7ResultsEv
 1208      00
 1209 053a 488B00   		movq	(%rax), %rax
 1210 053d 488D8D30 		leaq	-464(%rbp), %rcx
 1210      FEFFFF
 1211 0544 BA000000 		movl	$.LC13, %edx
 1211      00
 1212 0549 4889CE   		movq	%rcx, %rsi
 1213 054c 4889C7   		movq	%rax, %rdi
 1214 054f E8000000 		call	_ZN8UnitTest11TestResults13OnTestFailureERKNS_11TestDetailsEPKc
 1214      00
 1215              	.LEHE17:
 1216              	.L48:
 1217              	.LEHB18:
 1218              		.loc 6 37 0 discriminator 41
 1219 0554 E8000000 		call	__cxa_end_catch
 1219      00
 1220 0559 EB4D     		jmp	.L41
 1221              	.L55:
 1222 055b 4889C3   		movq	%rax, %rbx
 1223              	.LBB18:
 1224              		.loc 6 37 0
 1225 055e E8000000 		call	__cxa_end_catch
 1225      00
 1226 0563 4889D8   		movq	%rbx, %rax
 1227 0566 4889C7   		movq	%rax, %rdi
 1228 0569 E8000000 		call	_Unwind_Resume
 1228      00
 1229              	.LEHE18:
 1230              	.L57:
 1231 056e 4889C3   		movq	%rax, %rbx
 1232              	.LBE18:
 1233              	.LBB19:
 1234              	.LBB17:
 1235 0571 488D8550 		leaq	-432(%rbp), %rax
 1235      FEFFFF
 1236 0578 4889C7   		movq	%rax, %rdi
 1237 057b E8000000 		call	_ZN8UnitTest15MemoryOutStreamD1Ev
 1237      00
 1238 0580 EB03     		jmp	.L51
 1239              	.L56:
 1240 0582 4889C3   		movq	%rax, %rbx
 1241              	.L51:
 1242              	.LBE17:
 1243 0585 E8000000 		call	__cxa_end_catch
 1243      00
 1244 058a 4889D8   		movq	%rbx, %rax
 1245 058d 4889C7   		movq	%rax, %rdi
 1246              	.LEHB19:
 1247 0590 E8000000 		call	_Unwind_Resume
 1247      00
 1248              	.LEHE19:
 1249              	.L58:
 1250 0595 4889C3   		movq	%rax, %rbx
 1251              	.LBE19:
 1252 0598 E8000000 		call	__cxa_end_catch
 1252      00
 1253 059d 4889D8   		movq	%rbx, %rax
 1254 05a0 4889C7   		movq	%rax, %rdi
 1255              	.LEHB20:
 1256 05a3 E8000000 		call	_Unwind_Resume
 1256      00
 1257              	.LEHE20:
 1258              	.L41:
 1259 05a8 488B45E8 		movq	-24(%rbp), %rax
 1260 05ac 64483304 		xorq	%fs:40, %rax
 1260      25280000 
 1260      00
 1261 05b5 7405     		je	.L53
 1262 05b7 E8000000 		call	__stack_chk_fail
 1262      00
 1263              	.L53:
 1264 05bc 4881C4F0 		addq	$496, %rsp
 1264      010000
 1265 05c3 5B       		popq	%rbx
 1266 05c4 415C     		popq	%r12
 1267 05c6 5D       		popq	%rbp
 1268              		.cfi_def_cfa 7, 8
 1269 05c7 C3       		ret
 1270              		.cfi_endproc
 1271              	.LFE1105:
 1272              		.section	.gcc_except_table
 1273              		.align 4
 1274              	.LLSDA1105:
 1275 0038 FF       		.byte	0xff
 1276 0039 03       		.byte	0x3
 1277 003a 45       		.uleb128 .LLSDATT1105-.LLSDATTD1105
 1278              	.LLSDATTD1105:
 1279 003b 01       		.byte	0x1
 1280 003c 31       		.uleb128 .LLSDACSE1105-.LLSDACSB1105
 1281              	.LLSDACSB1105:
 1282 003d 43       		.uleb128 .LEHB12-.LFB1105
 1283 003e 29       		.uleb128 .LEHE12-.LEHB12
 1284 003f 71       		.uleb128 .L54-.LFB1105
 1285 0040 05       		.uleb128 0x5
 1286 0041 BF01     		.uleb128 .LEHB13-.LFB1105
 1287 0043 5F       		.uleb128 .LEHE13-.LEHB13
 1288 0044 ED04     		.uleb128 .L55-.LFB1105
 1289 0046 00       		.uleb128 0
 1290 0047 C102     		.uleb128 .LEHB14-.LFB1105
 1291 0049 05       		.uleb128 .LEHE14-.LEHB14
 1292 004a 9405     		.uleb128 .L56-.LFB1105
 1293 004c 00       		.uleb128 0
 1294 004d F502     		.uleb128 .LEHB15-.LFB1105
 1295 004f 43       		.uleb128 .LEHE15-.LEHB15
 1296 0050 8005     		.uleb128 .L57-.LFB1105
 1297 0052 00       		.uleb128 0
 1298 0053 C203     		.uleb128 .LEHB16-.LFB1105
 1299 0055 05       		.uleb128 .LEHE16-.LEHB16
 1300 0056 9405     		.uleb128 .L56-.LFB1105
 1301 0058 00       		.uleb128 0
 1302 0059 FF03     		.uleb128 .LEHB17-.LFB1105
 1303 005b 67       		.uleb128 .LEHE17-.LEHB17
 1304 005c A705     		.uleb128 .L58-.LFB1105
 1305 005e 00       		.uleb128 0
 1306 005f E604     		.uleb128 .LEHB18-.LFB1105
 1307 0061 1A       		.uleb128 .LEHE18-.LEHB18
 1308 0062 00       		.uleb128 0
 1309 0063 00       		.uleb128 0
 1310 0064 A205     		.uleb128 .LEHB19-.LFB1105
 1311 0066 05       		.uleb128 .LEHE19-.LEHB19
 1312 0067 00       		.uleb128 0
 1313 0068 00       		.uleb128 0
 1314 0069 B505     		.uleb128 .LEHB20-.LFB1105
 1315 006b 05       		.uleb128 .LEHE20-.LEHB20
 1316 006c 00       		.uleb128 0
 1317 006d 00       		.uleb128 0
 1318              	.LLSDACSE1105:
 1319 006e 03       		.byte	0x3
 1320 006f 00       		.byte	0
 1321 0070 02       		.byte	0x2
 1322 0071 7D       		.byte	0x7d
 1323 0072 01       		.byte	0x1
 1324 0073 7D       		.byte	0x7d
 1325              		.align 4
 1326 0074 00000000 		.long	0
 1327              	
 1328 0078 00000000 		.long	_ZTISt9exception
 1329 007c 00000000 		.long	_ZTIN8UnitTest15AssertExceptionE
 1330              	.LLSDATT1105:
 1331              		.text
 1333              		.align 2
 1335              	_ZN12_GLOBAL__N_134ThrowingThingieDummyTestNameHelper7RunImplEv:
 1336              	.LFB1106:
  38:TestTestMacros.cpp **** {
 1337              		.loc 6 38 0 is_stmt 1
 1338              		.cfi_startproc
 1339 05c8 55       		pushq	%rbp
 1340              		.cfi_def_cfa_offset 16
 1341              		.cfi_offset 6, -16
 1342 05c9 4889E5   		movq	%rsp, %rbp
 1343              		.cfi_def_cfa_register 6
 1344 05cc 48897DF8 		movq	%rdi, -8(%rbp)
  39:TestTestMacros.cpp **** }
 1345              		.loc 6 39 0
 1346 05d0 90       		nop
 1347 05d1 5D       		popq	%rbp
 1348              		.cfi_def_cfa 7, 8
 1349 05d2 C3       		ret
 1350              		.cfi_endproc
 1351              	.LFE1106:
 1353              		.section	.rodata
 1354 01a7 00       		.align 8
 1355              	.LC14:
 1356 01a8 45786365 		.string	"ExceptionsInFixtureAreReportedAsHappeningInTheFixture"
 1356      7074696F 
 1356      6E73496E 
 1356      46697874 
 1356      75726541 
 1357              		.text
 1358 05d3 90       		.align 2
 1360              	_ZN12_GLOBAL__N_157TestExceptionsInFixtureAreReportedAsHappeningInTheFixtureC2Ev:
 1361              	.LFB1108:
  40:TestTestMacros.cpp **** 
  41:TestTestMacros.cpp **** TEST (ExceptionsInFixtureAreReportedAsHappeningInTheFixture)
 1362              		.loc 6 41 0
 1363              		.cfi_startproc
 1364 05d4 55       		pushq	%rbp
 1365              		.cfi_def_cfa_offset 16
 1366              		.cfi_offset 6, -16
 1367 05d5 4889E5   		movq	%rsp, %rbp
 1368              		.cfi_def_cfa_register 6
 1369 05d8 4883EC10 		subq	$16, %rsp
 1370 05dc 48897DF8 		movq	%rdi, -8(%rbp)
 1371              	.LBB20:
 1372              		.loc 6 41 0
 1373 05e0 E8000000 		call	_ZN13UnitTestSuite12GetSuiteNameEv
 1373      00
 1374 05e5 4889C2   		movq	%rax, %rdx
 1375 05e8 488B45F8 		movq	-8(%rbp), %rax
 1376 05ec 41B82900 		movl	$41, %r8d
 1376      0000
 1377 05f2 B9000000 		movl	$.LC2, %ecx
 1377      00
 1378 05f7 BE000000 		movl	$.LC14, %esi
 1378      00
 1379 05fc 4889C7   		movq	%rax, %rdi
 1380 05ff E8000000 		call	_ZN8UnitTest4TestC2EPKcS2_S2_i
 1380      00
 1381 0604 BA000000 		movl	$_ZTVN12_GLOBAL__N_157TestExceptionsInFixtureAreReportedAsHappeningInTheFixtureE+16, %edx
 1381      00
 1382 0609 488B45F8 		movq	-8(%rbp), %rax
 1383 060d 488910   		movq	%rdx, (%rax)
 1384              	.LBE20:
 1385 0610 90       		nop
 1386 0611 C9       		leave
 1387              		.cfi_def_cfa 7, 8
 1388 0612 C3       		ret
 1389              		.cfi_endproc
 1390              	.LFE1108:
 1392              		.set	_ZN12_GLOBAL__N_157TestExceptionsInFixtureAreReportedAsHappeningInTheFixtureC1Ev,_ZN12_GLOBAL
 1393              		.local	_ZN12_GLOBAL__N_165testExceptionsInFixtureAreReportedAsHappeningInTheFixtureInstanceE
 1394              		.comm	_ZN12_GLOBAL__N_165testExceptionsInFixtureAreReportedAsHappeningInTheFixtureInstanceE,56,32
 1395              		.local	_ZN12_GLOBAL__N_158adderExceptionsInFixtureAreReportedAsHappeningInTheFixtureE
 1396              		.comm	_ZN12_GLOBAL__N_158adderExceptionsInFixtureAreReportedAsHappeningInTheFixtureE,1,1
 1397              		.section	.rodata
 1398              	.LC15:
 1399 01de 78636570 		.string	"xception"
 1399      74696F6E 
 1399      00
 1400 01e7 00       		.align 8
 1401              	.LC16:
 1402 01e8 73747273 		.string	"strstr(reporter.lastFailedMessage, \"xception\")"
 1402      74722872 
 1402      65706F72 
 1402      7465722E 
 1402      6C617374 
 1403              	.LC17:
 1404 0217 66697874 		.string	"fixture"
 1404      75726500 
 1405 021f 00       		.align 8
 1406              	.LC18:
 1407 0220 73747273 		.string	"strstr(reporter.lastFailedMessage, \"fixture\")"
 1407      74722872 
 1407      65706F72 
 1407      7465722E 
 1407      6C617374 
 1408              	.LC19:
 1409 024e 5468726F 		.string	"ThrowingThingie"
 1409      77696E67 
 1409      5468696E 
 1409      67696500 
 1410 025e 0000     		.align 8
 1411              	.LC20:
 1412 0260 73747273 		.string	"strstr(reporter.lastFailedMessage, \"ThrowingThingie\")"
 1412      74722872 
 1412      65706F72 
 1412      7465722E 
 1412      6C617374 
 1413 0296 0000     		.align 8
 1414              	.LC21:
 1415 0298 556E6861 		.string	"Unhandled exception in CHECK(strstr(reporter.lastFailedMessage, \"xception\"))"
 1415      6E646C65 
 1415      64206578 
 1415      63657074 
 1415      696F6E20 
 1416 02e5 000000   		.align 8
 1417              	.LC22:
 1418 02e8 556E6861 		.string	"Unhandled exception in CHECK(strstr(reporter.lastFailedMessage, \"fixture\"))"
 1418      6E646C65 
 1418      64206578 
 1418      63657074 
 1418      696F6E20 
 1419 0334 00000000 		.align 8
 1420              	.LC23:
 1421 0338 556E6861 		.string	"Unhandled exception in CHECK(strstr(reporter.lastFailedMessage, \"ThrowingThingie\"))"
 1421      6E646C65 
 1421      64206578 
 1421      63657074 
 1421      696F6E20 
 1422              		.text
 1423 0613 90       		.align 2
 1425              	_ZNK12_GLOBAL__N_157TestExceptionsInFixtureAreReportedAsHappeningInTheFixture7RunImplEv:
 1426              	.LFB1110:
  42:TestTestMacros.cpp **** {
 1427              		.loc 6 42 0
 1428              		.cfi_startproc
 1429              		.cfi_personality 0x3,__gxx_personality_v0
 1430              		.cfi_lsda 0x3,.LLSDA1110
 1431 0614 55       		pushq	%rbp
 1432              		.cfi_def_cfa_offset 16
 1433              		.cfi_offset 6, -16
 1434 0615 4889E5   		movq	%rsp, %rbp
 1435              		.cfi_def_cfa_register 6
 1436 0618 53       		pushq	%rbx
 1437 0619 4881EC98 		subq	$2200, %rsp
 1437      080000
 1438              		.cfi_offset 3, -24
 1439 0620 4889BD68 		movq	%rdi, -2200(%rbp)
 1439      F7FFFF
 1440              		.loc 6 42 0
 1441 0627 64488B04 		movq	%fs:40, %rax
 1441      25280000 
 1441      00
 1442 0630 488945E8 		movq	%rax, -24(%rbp)
 1443 0634 31C0     		xorl	%eax, %eax
  43:TestTestMacros.cpp ****     RecordingReporter reporter;
 1444              		.loc 6 43 0
 1445 0636 488D85B0 		leaq	-2128(%rbp), %rax
 1445      F7FFFF
 1446 063d 4889C7   		movq	%rax, %rdi
 1447 0640 E8000000 		call	_ZN17RecordingReporterC1Ev
 1447      00
  44:TestTestMacros.cpp ****     TestResults result(&reporter);
 1448              		.loc 6 44 0
 1449 0645 488D95B0 		leaq	-2128(%rbp), %rdx
 1449      F7FFFF
 1450 064c 488D8570 		leaq	-2192(%rbp), %rax
 1450      F7FFFF
 1451 0653 4889D6   		movq	%rdx, %rsi
 1452 0656 4889C7   		movq	%rax, %rdi
 1453              	.LEHB21:
 1454 0659 E8000000 		call	_ZN8UnitTest11TestResultsC1EPNS_12TestReporterE
 1454      00
 1455              	.LBB21:
  45:TestTestMacros.cpp **** 	{
  46:TestTestMacros.cpp **** 		ScopedCurrentTest scopedResults(result);
 1456              		.loc 6 46 0
 1457 065e 488D8D70 		leaq	-2192(%rbp), %rcx
 1457      F7FFFF
 1458 0665 488D8590 		leaq	-2160(%rbp), %rax
 1458      F7FFFF
 1459 066c BA000000 		movl	$0, %edx
 1459      00
 1460 0671 4889CE   		movq	%rcx, %rsi
 1461 0674 4889C7   		movq	%rax, %rdi
 1462 0677 E8000000 		call	_ZN17ScopedCurrentTestC1ERN8UnitTest11TestResultsEPKNS0_11TestDetailsE
 1462      00
 1463              	.LEHE21:
  47:TestTestMacros.cpp **** 		list2.GetHead()->Run();
 1464              		.loc 6 47 0
 1465 067c BF000000 		movl	$_ZN12_GLOBAL__N_15list2E, %edi
 1465      00
 1466              	.LEHB22:
 1467 0681 E8000000 		call	_ZNK8UnitTest8TestList7GetHeadEv
 1467      00
 1468 0686 4889C7   		movq	%rax, %rdi
 1469 0689 E8000000 		call	_ZN8UnitTest4Test3RunEv
 1469      00
 1470              	.LEHE22:
  46:TestTestMacros.cpp **** 		list2.GetHead()->Run();
 1471              		.loc 6 46 0
 1472 068e 488D8590 		leaq	-2160(%rbp), %rax
 1472      F7FFFF
 1473 0695 4889C7   		movq	%rax, %rdi
 1474              	.LEHB23:
 1475 0698 E8000000 		call	_ZN17ScopedCurrentTestD1Ev
 1475      00
 1476              	.LEHE23:
 1477              	.LBE21:
  48:TestTestMacros.cpp **** 	}
  49:TestTestMacros.cpp **** 
  50:TestTestMacros.cpp ****     CHECK(strstr(reporter.lastFailedMessage, "xception"));
 1478              		.loc 6 50 0
 1479 069d 488D85B0 		leaq	-2128(%rbp), %rax
 1479      F7FFFF
 1480 06a4 48051405 		addq	$1300, %rax
 1480      0000
 1481 06aa BE000000 		movl	$.LC15, %esi
 1481      00
 1482 06af 4889C7   		movq	%rax, %rdi
 1483 06b2 E8000000 		call	strstr
 1483      00
 1484 06b7 4889C7   		movq	%rax, %rdi
 1485 06ba E8000000 		call	_ZN8UnitTest5CheckIPcEEbT_
 1485      00
 1486 06bf 83F001   		xorl	$1, %eax
 1487 06c2 84C0     		testb	%al, %al
 1488 06c4 743E     		je	.L63
 1489              	.LEHB24:
 1490              		.loc 6 50 0 is_stmt 0 discriminator 1
 1491 06c6 E8000000 		call	_ZN8UnitTest11CurrentTest7DetailsEv
 1491      00
 1492 06cb 488B08   		movq	(%rax), %rcx
 1493 06ce 488D8590 		leaq	-2160(%rbp), %rax
 1493      F7FFFF
 1494 06d5 BA320000 		movl	$50, %edx
 1494      00
 1495 06da 4889CE   		movq	%rcx, %rsi
 1496 06dd 4889C7   		movq	%rax, %rdi
 1497 06e0 E8000000 		call	_ZN8UnitTest11TestDetailsC1ERKS0_i
 1497      00
 1498              		.loc 6 50 0 discriminator 3
 1499 06e5 E8000000 		call	_ZN8UnitTest11CurrentTest7ResultsEv
 1499      00
 1500 06ea 488B00   		movq	(%rax), %rax
 1501 06ed 488D8D90 		leaq	-2160(%rbp), %rcx
 1501      F7FFFF
 1502 06f4 BA000000 		movl	$.LC16, %edx
 1502      00
 1503 06f9 4889CE   		movq	%rcx, %rsi
 1504 06fc 4889C7   		movq	%rax, %rdi
 1505 06ff E8000000 		call	_ZN8UnitTest11TestResults13OnTestFailureERKNS_11TestDetailsEPKc
 1505      00
 1506              	.LEHE24:
 1507              	.L63:
  51:TestTestMacros.cpp ****     CHECK(strstr(reporter.lastFailedMessage, "fixture"));
 1508              		.loc 6 51 0 is_stmt 1
 1509 0704 488D85B0 		leaq	-2128(%rbp), %rax
 1509      F7FFFF
 1510 070b 48051405 		addq	$1300, %rax
 1510      0000
 1511 0711 BE000000 		movl	$.LC17, %esi
 1511      00
 1512 0716 4889C7   		movq	%rax, %rdi
 1513 0719 E8000000 		call	strstr
 1513      00
 1514 071e 4889C7   		movq	%rax, %rdi
 1515 0721 E8000000 		call	_ZN8UnitTest5CheckIPcEEbT_
 1515      00
 1516 0726 83F001   		xorl	$1, %eax
 1517 0729 84C0     		testb	%al, %al
 1518 072b 743E     		je	.L64
 1519              	.LEHB25:
 1520              		.loc 6 51 0 is_stmt 0 discriminator 1
 1521 072d E8000000 		call	_ZN8UnitTest11CurrentTest7DetailsEv
 1521      00
 1522 0732 488B08   		movq	(%rax), %rcx
 1523 0735 488D8590 		leaq	-2160(%rbp), %rax
 1523      F7FFFF
 1524 073c BA330000 		movl	$51, %edx
 1524      00
 1525 0741 4889CE   		movq	%rcx, %rsi
 1526 0744 4889C7   		movq	%rax, %rdi
 1527 0747 E8000000 		call	_ZN8UnitTest11TestDetailsC1ERKS0_i
 1527      00
 1528              		.loc 6 51 0 discriminator 3
 1529 074c E8000000 		call	_ZN8UnitTest11CurrentTest7ResultsEv
 1529      00
 1530 0751 488B00   		movq	(%rax), %rax
 1531 0754 488D8D90 		leaq	-2160(%rbp), %rcx
 1531      F7FFFF
 1532 075b BA000000 		movl	$.LC18, %edx
 1532      00
 1533 0760 4889CE   		movq	%rcx, %rsi
 1534 0763 4889C7   		movq	%rax, %rdi
 1535 0766 E8000000 		call	_ZN8UnitTest11TestResults13OnTestFailureERKNS_11TestDetailsEPKc
 1535      00
 1536              	.LEHE25:
 1537              	.L64:
  52:TestTestMacros.cpp ****     CHECK(strstr(reporter.lastFailedMessage, "ThrowingThingie"));
 1538              		.loc 6 52 0 is_stmt 1
 1539 076b 488D85B0 		leaq	-2128(%rbp), %rax
 1539      F7FFFF
 1540 0772 48051405 		addq	$1300, %rax
 1540      0000
 1541 0778 BE000000 		movl	$.LC19, %esi
 1541      00
 1542 077d 4889C7   		movq	%rax, %rdi
 1543 0780 E8000000 		call	strstr
 1543      00
 1544 0785 4889C7   		movq	%rax, %rdi
 1545 0788 E8000000 		call	_ZN8UnitTest5CheckIPcEEbT_
 1545      00
 1546 078d 83F001   		xorl	$1, %eax
 1547 0790 84C0     		testb	%al, %al
 1548 0792 743E     		je	.L65
 1549              	.LEHB26:
 1550              		.loc 6 52 0 is_stmt 0 discriminator 1
 1551 0794 E8000000 		call	_ZN8UnitTest11CurrentTest7DetailsEv
 1551      00
 1552 0799 488B08   		movq	(%rax), %rcx
 1553 079c 488D8590 		leaq	-2160(%rbp), %rax
 1553      F7FFFF
 1554 07a3 BA340000 		movl	$52, %edx
 1554      00
 1555 07a8 4889CE   		movq	%rcx, %rsi
 1556 07ab 4889C7   		movq	%rax, %rdi
 1557 07ae E8000000 		call	_ZN8UnitTest11TestDetailsC1ERKS0_i
 1557      00
 1558              		.loc 6 52 0 discriminator 3
 1559 07b3 E8000000 		call	_ZN8UnitTest11CurrentTest7ResultsEv
 1559      00
 1560 07b8 488B00   		movq	(%rax), %rax
 1561 07bb 488D8D90 		leaq	-2160(%rbp), %rcx
 1561      F7FFFF
 1562 07c2 BA000000 		movl	$.LC20, %edx
 1562      00
 1563 07c7 4889CE   		movq	%rcx, %rsi
 1564 07ca 4889C7   		movq	%rax, %rdi
 1565 07cd E8000000 		call	_ZN8UnitTest11TestResults13OnTestFailureERKNS_11TestDetailsEPKc
 1565      00
 1566              	.LEHE26:
 1567              	.L65:
  43:TestTestMacros.cpp ****     TestResults result(&reporter);
 1568              		.loc 6 43 0 is_stmt 1
 1569 07d2 488D85B0 		leaq	-2128(%rbp), %rax
 1569      F7FFFF
 1570 07d9 4889C7   		movq	%rax, %rdi
 1571              	.LEHB27:
 1572 07dc E8000000 		call	_ZN17RecordingReporterD1Ev
 1572      00
 1573              	.LEHE27:
  53:TestTestMacros.cpp **** }
 1574              		.loc 6 53 0
 1575 07e1 90       		nop
 1576 07e2 488B45E8 		movq	-24(%rbp), %rax
 1577 07e6 64483304 		xorq	%fs:40, %rax
 1577      25280000 
 1577      00
 1578 07ef 0F844F01 		je	.L74
 1578      0000
 1579 07f5 E9450100 		jmp	.L83
 1579      00
 1580              	.L76:
 1581 07fa 4889C3   		movq	%rax, %rbx
 1582              	.LBB22:
  46:TestTestMacros.cpp **** 		list2.GetHead()->Run();
 1583              		.loc 6 46 0
 1584 07fd 488D8590 		leaq	-2160(%rbp), %rax
 1584      F7FFFF
 1585 0804 4889C7   		movq	%rax, %rdi
 1586 0807 E8000000 		call	_ZN17ScopedCurrentTestD1Ev
 1586      00
 1587 080c E9140100 		jmp	.L67
 1587      00
 1588              	.L77:
 1589              	.LBE22:
  50:TestTestMacros.cpp ****     CHECK(strstr(reporter.lastFailedMessage, "fixture"));
 1590              		.loc 6 50 0
 1591 0811 4889C7   		movq	%rax, %rdi
 1592 0814 E8000000 		call	__cxa_begin_catch
 1592      00
 1593              	.LEHB28:
 1594 0819 E8000000 		call	_ZN8UnitTest11CurrentTest7DetailsEv
 1594      00
 1595 081e 488B08   		movq	(%rax), %rcx
 1596 0821 488D8590 		leaq	-2160(%rbp), %rax
 1596      F7FFFF
 1597 0828 BA320000 		movl	$50, %edx
 1597      00
 1598 082d 4889CE   		movq	%rcx, %rsi
 1599 0830 4889C7   		movq	%rax, %rdi
 1600 0833 E8000000 		call	_ZN8UnitTest11TestDetailsC1ERKS0_i
 1600      00
  50:TestTestMacros.cpp ****     CHECK(strstr(reporter.lastFailedMessage, "fixture"));
 1601              		.loc 6 50 0 is_stmt 0 discriminator 11
 1602 0838 E8000000 		call	_ZN8UnitTest11CurrentTest7ResultsEv
 1602      00
 1603 083d 488B00   		movq	(%rax), %rax
 1604 0840 488D8D90 		leaq	-2160(%rbp), %rcx
 1604      F7FFFF
 1605 0847 BA000000 		movl	$.LC21, %edx
 1605      00
 1606 084c 4889CE   		movq	%rcx, %rsi
 1607 084f 4889C7   		movq	%rax, %rdi
 1608 0852 E8000000 		call	_ZN8UnitTest11TestResults13OnTestFailureERKNS_11TestDetailsEPKc
 1608      00
 1609              	.LEHE28:
 1610              	.LEHB29:
  50:TestTestMacros.cpp ****     CHECK(strstr(reporter.lastFailedMessage, "fixture"));
 1611              		.loc 6 50 0 discriminator 15
 1612 0857 E8000000 		call	__cxa_end_catch
 1612      00
 1613              	.LEHE29:
  50:TestTestMacros.cpp ****     CHECK(strstr(reporter.lastFailedMessage, "fixture"));
 1614              		.loc 6 50 0
 1615 085c E9A3FEFF 		jmp	.L63
 1615      FF
 1616              	.L78:
 1617 0861 4889C3   		movq	%rax, %rbx
 1618 0864 E8000000 		call	__cxa_end_catch
 1618      00
 1619 0869 E9B70000 		jmp	.L67
 1619      00
 1620              	.L79:
  51:TestTestMacros.cpp ****     CHECK(strstr(reporter.lastFailedMessage, "ThrowingThingie"));
 1621              		.loc 6 51 0 is_stmt 1
 1622 086e 4889C7   		movq	%rax, %rdi
 1623 0871 E8000000 		call	__cxa_begin_catch
 1623      00
 1624              	.LEHB30:
 1625 0876 E8000000 		call	_ZN8UnitTest11CurrentTest7DetailsEv
 1625      00
 1626 087b 488B08   		movq	(%rax), %rcx
 1627 087e 488D8590 		leaq	-2160(%rbp), %rax
 1627      F7FFFF
 1628 0885 BA330000 		movl	$51, %edx
 1628      00
 1629 088a 4889CE   		movq	%rcx, %rsi
 1630 088d 4889C7   		movq	%rax, %rdi
 1631 0890 E8000000 		call	_ZN8UnitTest11TestDetailsC1ERKS0_i
 1631      00
  51:TestTestMacros.cpp ****     CHECK(strstr(reporter.lastFailedMessage, "ThrowingThingie"));
 1632              		.loc 6 51 0 is_stmt 0 discriminator 11
 1633 0895 E8000000 		call	_ZN8UnitTest11CurrentTest7ResultsEv
 1633      00
 1634 089a 488B00   		movq	(%rax), %rax
 1635 089d 488D8D90 		leaq	-2160(%rbp), %rcx
 1635      F7FFFF
 1636 08a4 BA000000 		movl	$.LC22, %edx
 1636      00
 1637 08a9 4889CE   		movq	%rcx, %rsi
 1638 08ac 4889C7   		movq	%rax, %rdi
 1639 08af E8000000 		call	_ZN8UnitTest11TestResults13OnTestFailureERKNS_11TestDetailsEPKc
 1639      00
 1640              	.LEHE30:
 1641              	.LEHB31:
  51:TestTestMacros.cpp ****     CHECK(strstr(reporter.lastFailedMessage, "ThrowingThingie"));
 1642              		.loc 6 51 0 discriminator 15
 1643 08b4 E8000000 		call	__cxa_end_catch
 1643      00
 1644              	.LEHE31:
  51:TestTestMacros.cpp ****     CHECK(strstr(reporter.lastFailedMessage, "ThrowingThingie"));
 1645              		.loc 6 51 0
 1646 08b9 E9ADFEFF 		jmp	.L64
 1646      FF
 1647              	.L80:
 1648 08be 4889C3   		movq	%rax, %rbx
 1649 08c1 E8000000 		call	__cxa_end_catch
 1649      00
 1650 08c6 EB5D     		jmp	.L67
 1651              	.L81:
  52:TestTestMacros.cpp **** }
 1652              		.loc 6 52 0 is_stmt 1
 1653 08c8 4889C7   		movq	%rax, %rdi
 1654 08cb E8000000 		call	__cxa_begin_catch
 1654      00
 1655              	.LEHB32:
 1656 08d0 E8000000 		call	_ZN8UnitTest11CurrentTest7DetailsEv
 1656      00
 1657 08d5 488B08   		movq	(%rax), %rcx
 1658 08d8 488D8590 		leaq	-2160(%rbp), %rax
 1658      F7FFFF
 1659 08df BA340000 		movl	$52, %edx
 1659      00
 1660 08e4 4889CE   		movq	%rcx, %rsi
 1661 08e7 4889C7   		movq	%rax, %rdi
 1662 08ea E8000000 		call	_ZN8UnitTest11TestDetailsC1ERKS0_i
 1662      00
  52:TestTestMacros.cpp **** }
 1663              		.loc 6 52 0 is_stmt 0 discriminator 11
 1664 08ef E8000000 		call	_ZN8UnitTest11CurrentTest7ResultsEv
 1664      00
 1665 08f4 488B00   		movq	(%rax), %rax
 1666 08f7 488D8D90 		leaq	-2160(%rbp), %rcx
 1666      F7FFFF
 1667 08fe BA000000 		movl	$.LC23, %edx
 1667      00
 1668 0903 4889CE   		movq	%rcx, %rsi
 1669 0906 4889C7   		movq	%rax, %rdi
 1670 0909 E8000000 		call	_ZN8UnitTest11TestResults13OnTestFailureERKNS_11TestDetailsEPKc
 1670      00
 1671              	.LEHE32:
 1672              	.LEHB33:
  52:TestTestMacros.cpp **** }
 1673              		.loc 6 52 0 discriminator 15
 1674 090e E8000000 		call	__cxa_end_catch
 1674      00
 1675              	.LEHE33:
  52:TestTestMacros.cpp **** }
 1676              		.loc 6 52 0
 1677 0913 E9BAFEFF 		jmp	.L65
 1677      FF
 1678              	.L82:
 1679 0918 4889C3   		movq	%rax, %rbx
 1680 091b E8000000 		call	__cxa_end_catch
 1680      00
 1681 0920 EB03     		jmp	.L67
 1682              	.L75:
 1683 0922 4889C3   		movq	%rax, %rbx
 1684              	.L67:
  43:TestTestMacros.cpp ****     TestResults result(&reporter);
 1685              		.loc 6 43 0 is_stmt 1
 1686 0925 488D85B0 		leaq	-2128(%rbp), %rax
 1686      F7FFFF
 1687 092c 4889C7   		movq	%rax, %rdi
 1688 092f E8000000 		call	_ZN17RecordingReporterD1Ev
 1688      00
 1689 0934 4889D8   		movq	%rbx, %rax
 1690 0937 4889C7   		movq	%rax, %rdi
 1691              	.LEHB34:
 1692 093a E8000000 		call	_Unwind_Resume
 1692      00
 1693              	.LEHE34:
 1694              	.L83:
 1695              		.loc 6 53 0
 1696 093f E8000000 		call	__stack_chk_fail
 1696      00
 1697              	.L74:
 1698 0944 4881C498 		addq	$2200, %rsp
 1698      080000
 1699 094b 5B       		popq	%rbx
 1700 094c 5D       		popq	%rbp
 1701              		.cfi_def_cfa 7, 8
 1702 094d C3       		ret
 1703              		.cfi_endproc
 1704              	.LFE1110:
 1705              		.section	.gcc_except_table
 1706              		.align 4
 1707              	.LLSDA1110:
 1708 0080 FF       		.byte	0xff
 1709 0081 03       		.byte	0x3
 1710 0082 59       		.uleb128 .LLSDATT1110-.LLSDATTD1110
 1711              	.LLSDATTD1110:
 1712 0083 01       		.byte	0x1
 1713 0084 50       		.uleb128 .LLSDACSE1110-.LLSDACSB1110
 1714              	.LLSDACSB1110:
 1715 0085 45       		.uleb128 .LEHB21-.LFB1110
 1716 0086 23       		.uleb128 .LEHE21-.LEHB21
 1717 0087 8E06     		.uleb128 .L75-.LFB1110
 1718 0089 00       		.uleb128 0
 1719 008a 6D       		.uleb128 .LEHB22-.LFB1110
 1720 008b 0D       		.uleb128 .LEHE22-.LEHB22
 1721 008c E603     		.uleb128 .L76-.LFB1110
 1722 008e 00       		.uleb128 0
 1723 008f 8401     		.uleb128 .LEHB23-.LFB1110
 1724 0091 05       		.uleb128 .LEHE23-.LEHB23
 1725 0092 8E06     		.uleb128 .L75-.LFB1110
 1726 0094 00       		.uleb128 0
 1727 0095 B201     		.uleb128 .LEHB24-.LFB1110
 1728 0097 3E       		.uleb128 .LEHE24-.LEHB24
 1729 0098 FD03     		.uleb128 .L77-.LFB1110
 1730 009a 01       		.uleb128 0x1
 1731 009b 9902     		.uleb128 .LEHB25-.LFB1110
 1732 009d 3E       		.uleb128 .LEHE25-.LEHB25
 1733 009e DA04     		.uleb128 .L79-.LFB1110
 1734 00a0 01       		.uleb128 0x1
 1735 00a1 8003     		.uleb128 .LEHB26-.LFB1110
 1736 00a3 3E       		.uleb128 .LEHE26-.LEHB26
 1737 00a4 B405     		.uleb128 .L81-.LFB1110
 1738 00a6 01       		.uleb128 0x1
 1739 00a7 C803     		.uleb128 .LEHB27-.LFB1110
 1740 00a9 05       		.uleb128 .LEHE27-.LEHB27
 1741 00aa 00       		.uleb128 0
 1742 00ab 00       		.uleb128 0
 1743 00ac 8504     		.uleb128 .LEHB28-.LFB1110
 1744 00ae 3E       		.uleb128 .LEHE28-.LEHB28
 1745 00af CD04     		.uleb128 .L78-.LFB1110
 1746 00b1 00       		.uleb128 0
 1747 00b2 C304     		.uleb128 .LEHB29-.LFB1110
 1748 00b4 05       		.uleb128 .LEHE29-.LEHB29
 1749 00b5 8E06     		.uleb128 .L75-.LFB1110
 1750 00b7 00       		.uleb128 0
 1751 00b8 E204     		.uleb128 .LEHB30-.LFB1110
 1752 00ba 3E       		.uleb128 .LEHE30-.LEHB30
 1753 00bb AA05     		.uleb128 .L80-.LFB1110
 1754 00bd 00       		.uleb128 0
 1755 00be A005     		.uleb128 .LEHB31-.LFB1110
 1756 00c0 05       		.uleb128 .LEHE31-.LEHB31
 1757 00c1 8E06     		.uleb128 .L75-.LFB1110
 1758 00c3 00       		.uleb128 0
 1759 00c4 BC05     		.uleb128 .LEHB32-.LFB1110
 1760 00c6 3E       		.uleb128 .LEHE32-.LEHB32
 1761 00c7 8406     		.uleb128 .L82-.LFB1110
 1762 00c9 00       		.uleb128 0
 1763 00ca FA05     		.uleb128 .LEHB33-.LFB1110
 1764 00cc 05       		.uleb128 .LEHE33-.LEHB33
 1765 00cd 8E06     		.uleb128 .L75-.LFB1110
 1766 00cf 00       		.uleb128 0
 1767 00d0 A606     		.uleb128 .LEHB34-.LFB1110
 1768 00d2 05       		.uleb128 .LEHE34-.LEHB34
 1769 00d3 00       		.uleb128 0
 1770 00d4 00       		.uleb128 0
 1771              	.LLSDACSE1110:
 1772 00d5 01       		.byte	0x1
 1773 00d6 00       		.byte	0
 1774 00d7 00       		.align 4
 1775 00d8 00000000 		.long	0
 1776              	
 1777              	.LLSDATT1110:
 1778              		.text
 1780              		.section	.rodata
 1781              	.LC24:
 1782 038c 54657374 		.string	"TestSuite1"
 1782      53756974 
 1782      653100
 1783              		.text
 1785              	_ZN12_GLOBAL__N_115SuiteTestSuite113UnitTestSuite12GetSuiteNameEv:
 1786              	.LFB1111:
  54:TestTestMacros.cpp **** 
  55:TestTestMacros.cpp **** struct DummyFixture
  56:TestTestMacros.cpp **** {
  57:TestTestMacros.cpp ****     int x;
  58:TestTestMacros.cpp **** };
  59:TestTestMacros.cpp **** 
  60:TestTestMacros.cpp **** // We're really testing the macros so we just want them to compile and link
  61:TestTestMacros.cpp **** SUITE(TestSuite1)
 1787              		.loc 6 61 0
 1788              		.cfi_startproc
 1789 094e 55       		pushq	%rbp
 1790              		.cfi_def_cfa_offset 16
 1791              		.cfi_offset 6, -16
 1792 094f 4889E5   		movq	%rsp, %rbp
 1793              		.cfi_def_cfa_register 6
 1794              		.loc 6 61 0
 1795 0952 B8000000 		movl	$.LC24, %eax
 1795      00
 1796 0957 5D       		popq	%rbp
 1797              		.cfi_def_cfa 7, 8
 1798 0958 C3       		ret
 1799              		.cfi_endproc
 1800              	.LFE1111:
 1802              		.section	.rodata
 1803 0397 00       		.align 8
 1804              	.LC25:
 1805 0398 53696D69 		.string	"SimilarlyNamedTestsInDifferentSuitesWork"
 1805      6C61726C 
 1805      794E616D 
 1805      65645465 
 1805      73747349 
 1806              		.text
 1807 0959 90       		.align 2
 1809              	_ZN12_GLOBAL__N_115SuiteTestSuite144TestSimilarlyNamedTestsInDifferentSuitesWorkC2Ev:
 1810              	.LFB1113:
  62:TestTestMacros.cpp **** {
  63:TestTestMacros.cpp **** 	TEST(SimilarlyNamedTestsInDifferentSuitesWork)
 1811              		.loc 6 63 0
 1812              		.cfi_startproc
 1813 095a 55       		pushq	%rbp
 1814              		.cfi_def_cfa_offset 16
 1815              		.cfi_offset 6, -16
 1816 095b 4889E5   		movq	%rsp, %rbp
 1817              		.cfi_def_cfa_register 6
 1818 095e 4883EC10 		subq	$16, %rsp
 1819 0962 48897DF8 		movq	%rdi, -8(%rbp)
 1820              	.LBB23:
 1821              		.loc 6 63 0
 1822 0966 E8E3FFFF 		call	_ZN12_GLOBAL__N_115SuiteTestSuite113UnitTestSuite12GetSuiteNameEv
 1822      FF
 1823 096b 4889C2   		movq	%rax, %rdx
 1824 096e 488B45F8 		movq	-8(%rbp), %rax
 1825 0972 41B83F00 		movl	$63, %r8d
 1825      0000
 1826 0978 B9000000 		movl	$.LC2, %ecx
 1826      00
 1827 097d BE000000 		movl	$.LC25, %esi
 1827      00
 1828 0982 4889C7   		movq	%rax, %rdi
 1829 0985 E8000000 		call	_ZN8UnitTest4TestC2EPKcS2_S2_i
 1829      00
 1830 098a BA000000 		movl	$_ZTVN12_GLOBAL__N_115SuiteTestSuite144TestSimilarlyNamedTestsInDifferentSuitesWorkE+16, %edx
 1830      00
 1831 098f 488B45F8 		movq	-8(%rbp), %rax
 1832 0993 488910   		movq	%rdx, (%rax)
 1833              	.LBE23:
 1834 0996 90       		nop
 1835 0997 C9       		leave
 1836              		.cfi_def_cfa 7, 8
 1837 0998 C3       		ret
 1838              		.cfi_endproc
 1839              	.LFE1113:
 1841              		.set	_ZN12_GLOBAL__N_115SuiteTestSuite144TestSimilarlyNamedTestsInDifferentSuitesWorkC1Ev,_ZN12_GL
 1842              		.local	_ZN12_GLOBAL__N_115SuiteTestSuite152testSimilarlyNamedTestsInDifferentSuitesWorkInstanceE
 1843              		.comm	_ZN12_GLOBAL__N_115SuiteTestSuite152testSimilarlyNamedTestsInDifferentSuitesWorkInstanceE,56
 1844              		.local	_ZN12_GLOBAL__N_115SuiteTestSuite145adderSimilarlyNamedTestsInDifferentSuitesWorkE
 1845              		.comm	_ZN12_GLOBAL__N_115SuiteTestSuite145adderSimilarlyNamedTestsInDifferentSuitesWorkE,1,1
 1846 0999 90       		.align 2
 1848              	_ZNK12_GLOBAL__N_115SuiteTestSuite144TestSimilarlyNamedTestsInDifferentSuitesWork7RunImplEv:
 1849              	.LFB1115:
  64:TestTestMacros.cpp **** 	{
 1850              		.loc 6 64 0
 1851              		.cfi_startproc
 1852 099a 55       		pushq	%rbp
 1853              		.cfi_def_cfa_offset 16
 1854              		.cfi_offset 6, -16
 1855 099b 4889E5   		movq	%rsp, %rbp
 1856              		.cfi_def_cfa_register 6
 1857 099e 48897DF8 		movq	%rdi, -8(%rbp)
  65:TestTestMacros.cpp **** 	}
 1858              		.loc 6 65 0
 1859 09a2 90       		nop
 1860 09a3 5D       		popq	%rbp
 1861              		.cfi_def_cfa 7, 8
 1862 09a4 C3       		ret
 1863              		.cfi_endproc
 1864              	.LFE1115:
 1866 09a5 90       		.align 2
 1868              	_ZN12_GLOBAL__N_112DummyFixtureC2Ev:
 1869              	.LFB1118:
  55:TestTestMacros.cpp **** {
 1870              		.loc 6 55 0
 1871              		.cfi_startproc
 1872 09a6 55       		pushq	%rbp
 1873              		.cfi_def_cfa_offset 16
 1874              		.cfi_offset 6, -16
 1875 09a7 4889E5   		movq	%rsp, %rbp
 1876              		.cfi_def_cfa_register 6
 1877 09aa 48897DF8 		movq	%rdi, -8(%rbp)
  55:TestTestMacros.cpp **** {
 1878              		.loc 6 55 0
 1879 09ae 90       		nop
 1880 09af 5D       		popq	%rbp
 1881              		.cfi_def_cfa 7, 8
 1882 09b0 C3       		ret
 1883              		.cfi_endproc
 1884              	.LFE1118:
 1886 09b1 90       		.align 2
 1888              	_ZN12_GLOBAL__N_115SuiteTestSuite165DummyFixtureSimilarlyNamedFixtureTestsInDifferentSuitesWorkHelp
 1889              	.LFB1120:
  66:TestTestMacros.cpp **** 
  67:TestTestMacros.cpp **** 	TEST_FIXTURE(DummyFixture, SimilarlyNamedFixtureTestsInDifferentSuitesWork)
 1890              		.loc 6 67 0
 1891              		.cfi_startproc
 1892 09b2 55       		pushq	%rbp
 1893              		.cfi_def_cfa_offset 16
 1894              		.cfi_offset 6, -16
 1895 09b3 4889E5   		movq	%rsp, %rbp
 1896              		.cfi_def_cfa_register 6
 1897 09b6 4883EC10 		subq	$16, %rsp
 1898 09ba 48897DF8 		movq	%rdi, -8(%rbp)
 1899 09be 488975F0 		movq	%rsi, -16(%rbp)
 1900              	.LBB24:
 1901              		.loc 6 67 0
 1902 09c2 488B45F8 		movq	-8(%rbp), %rax
 1903 09c6 4889C7   		movq	%rax, %rdi
 1904 09c9 E8D8FFFF 		call	_ZN12_GLOBAL__N_112DummyFixtureC2Ev
 1904      FF
 1905 09ce 488B45F8 		movq	-8(%rbp), %rax
 1906 09d2 488B55F0 		movq	-16(%rbp), %rdx
 1907 09d6 48895008 		movq	%rdx, 8(%rax)
 1908              	.LBE24:
 1909 09da 90       		nop
 1910 09db C9       		leave
 1911              		.cfi_def_cfa 7, 8
 1912 09dc C3       		ret
 1913              		.cfi_endproc
 1914              	.LFE1120:
 1916              		.set	_ZN12_GLOBAL__N_115SuiteTestSuite165DummyFixtureSimilarlyNamedFixtureTestsInDifferentSuitesWo
 1917              		.section	.rodata
 1918 03c1 00000000 		.align 8
 1918      000000
 1919              	.LC26:
 1920 03c8 53696D69 		.string	"SimilarlyNamedFixtureTestsInDifferentSuitesWork"
 1920      6C61726C 
 1920      794E616D 
 1920      65644669 
 1920      78747572 
 1921              		.text
 1922 09dd 90       		.align 2
 1924              	_ZN12_GLOBAL__N_115SuiteTestSuite163TestDummyFixtureSimilarlyNamedFixtureTestsInDifferentSuitesWork
 1925              	.LFB1123:
 1926              		.loc 6 67 0
 1927              		.cfi_startproc
 1928 09de 55       		pushq	%rbp
 1929              		.cfi_def_cfa_offset 16
 1930              		.cfi_offset 6, -16
 1931 09df 4889E5   		movq	%rsp, %rbp
 1932              		.cfi_def_cfa_register 6
 1933 09e2 4883EC10 		subq	$16, %rsp
 1934 09e6 48897DF8 		movq	%rdi, -8(%rbp)
 1935              	.LBB25:
 1936              		.loc 6 67 0
 1937 09ea E85FFFFF 		call	_ZN12_GLOBAL__N_115SuiteTestSuite113UnitTestSuite12GetSuiteNameEv
 1937      FF
 1938 09ef 4889C2   		movq	%rax, %rdx
 1939 09f2 488B45F8 		movq	-8(%rbp), %rax
 1940 09f6 41B84300 		movl	$67, %r8d
 1940      0000
 1941 09fc B9000000 		movl	$.LC2, %ecx
 1941      00
 1942 0a01 BE000000 		movl	$.LC26, %esi
 1942      00
 1943 0a06 4889C7   		movq	%rax, %rdi
 1944 0a09 E8000000 		call	_ZN8UnitTest4TestC2EPKcS2_S2_i
 1944      00
 1945 0a0e BA000000 		movl	$_ZTVN12_GLOBAL__N_115SuiteTestSuite163TestDummyFixtureSimilarlyNamedFixtureTestsInDifferentS
 1945      00
 1946 0a13 488B45F8 		movq	-8(%rbp), %rax
 1947 0a17 488910   		movq	%rdx, (%rax)
 1948              	.LBE25:
 1949 0a1a 90       		nop
 1950 0a1b C9       		leave
 1951              		.cfi_def_cfa 7, 8
 1952 0a1c C3       		ret
 1953              		.cfi_endproc
 1954              	.LFE1123:
 1956              		.set	_ZN12_GLOBAL__N_115SuiteTestSuite163TestDummyFixtureSimilarlyNamedFixtureTestsInDifferentSuit
 1957              		.local	_ZN12_GLOBAL__N_115SuiteTestSuite171testDummyFixtureSimilarlyNamedFixtureTestsInDifferentSu
 1958              		.comm	_ZN12_GLOBAL__N_115SuiteTestSuite171testDummyFixtureSimilarlyNamedFixtureTestsInDifferentSui
 1959              		.local	_ZN12_GLOBAL__N_115SuiteTestSuite164adderDummyFixtureSimilarlyNamedFixtureTestsInDifferentS
 1960              		.comm	_ZN12_GLOBAL__N_115SuiteTestSuite164adderDummyFixtureSimilarlyNamedFixtureTestsInDifferentSu
 1961              		.section	.rodata
 1962              		.align 8
 1963              	.LC27:
 1964 03f8 556E6861 		.string	"Unhandled exception while destroying fixture DummyFixture"
 1964      6E646C65 
 1964      64206578 
 1964      63657074 
 1964      696F6E20 
 1965 0432 00000000 		.align 8
 1965      0000
 1966              	.LC28:
 1967 0438 556E6861 		.string	"Unhandled exception while constructing fixture DummyFixture"
 1967      6E646C65 
 1967      64206578 
 1967      63657074 
 1967      696F6E20 
 1968              		.text
 1969 0a1d 90       		.align 2
 1971              	_ZNK12_GLOBAL__N_115SuiteTestSuite163TestDummyFixtureSimilarlyNamedFixtureTestsInDifferentSuitesWor
 1972              	.LFB1125:
 1973              		.loc 6 67 0
 1974              		.cfi_startproc
 1975              		.cfi_personality 0x3,__gxx_personality_v0
 1976              		.cfi_lsda 0x3,.LLSDA1125
 1977 0a1e 55       		pushq	%rbp
 1978              		.cfi_def_cfa_offset 16
 1979              		.cfi_offset 6, -16
 1980 0a1f 4889E5   		movq	%rsp, %rbp
 1981              		.cfi_def_cfa_register 6
 1982 0a22 4154     		pushq	%r12
 1983 0a24 53       		pushq	%rbx
 1984 0a25 4881ECF0 		subq	$496, %rsp
 1984      010000
 1985              		.cfi_offset 12, -24
 1986              		.cfi_offset 3, -32
 1987 0a2c 4889BD08 		movq	%rdi, -504(%rbp)
 1987      FEFFFF
 1988              		.loc 6 67 0
 1989 0a33 64488B04 		movq	%fs:40, %rax
 1989      25280000 
 1989      00
 1990 0a3c 488945E8 		movq	%rax, -24(%rbp)
 1991 0a40 31C0     		xorl	%eax, %eax
 1992 0a42 C6851FFE 		movb	$0, -481(%rbp)
 1992      FFFF00
 1993              	.LBB26:
 1994 0a49 488B8508 		movq	-504(%rbp), %rax
 1994      FEFFFF
 1995 0a50 488D5008 		leaq	8(%rax), %rdx
 1996 0a54 488D8530 		leaq	-464(%rbp), %rax
 1996      FEFFFF
 1997 0a5b 4889D6   		movq	%rdx, %rsi
 1998 0a5e 4889C7   		movq	%rax, %rdi
 1999 0a61 E84CFFFF 		call	_ZN12_GLOBAL__N_115SuiteTestSuite165DummyFixtureSimilarlyNamedFixtureTestsInDifferentSuitesWo
 1999      FF
 2000 0a66 C6851FFE 		movb	$1, -481(%rbp)
 2000      FFFF01
 2001 0a6d 488B8508 		movq	-504(%rbp), %rax
 2001      FEFFFF
 2002 0a74 488D5008 		leaq	8(%rax), %rdx
 2003 0a78 488D8530 		leaq	-464(%rbp), %rax
 2003      FEFFFF
 2004 0a7f 4889D6   		movq	%rdx, %rsi
 2005 0a82 4889C7   		movq	%rax, %rdi
 2006              	.LEHB35:
 2007 0a85 E8792700 		call	_ZN8UnitTest11ExecuteTestIN12_GLOBAL__N_115SuiteTestSuite165DummyFixtureSimilarlyNamedFixture
 2007      00
 2008              	.LEHE35:
 2009              	.LBE26:
 2010 0a8a E9490200 		jmp	.L91
 2010      00
 2011              	.L104:
 2012 0a8f 4883FA01 		cmpq	$1, %rdx
 2013 0a93 740F     		je	.L94
 2014 0a95 4883FA02 		cmpq	$2, %rdx
 2015 0a99 0F84A700 		je	.L95
 2015      0000
 2016 0a9f E94B0100 		jmp	.L109
 2016      00
 2017              	.L94:
 2018              	.LBB27:
 2019 0aa4 4889C7   		movq	%rax, %rdi
 2020 0aa7 E8000000 		call	__cxa_begin_catch
 2020      00
 2021 0aac 48898520 		movq	%rax, -480(%rbp)
 2021      FEFFFF
 2022 0ab3 488B8520 		movq	-480(%rbp), %rax
 2022      FEFFFF
 2023 0aba 488B00   		movq	(%rax), %rax
 2024 0abd 4883C010 		addq	$16, %rax
 2025 0ac1 488B00   		movq	(%rax), %rax
 2026 0ac4 488B9520 		movq	-480(%rbp), %rdx
 2026      FEFFFF
 2027 0acb 4889D7   		movq	%rdx, %rdi
 2028 0ace FFD0     		call	*%rax
 2029 0ad0 4889C3   		movq	%rax, %rbx
 2030 0ad3 488B8520 		movq	-480(%rbp), %rax
 2030      FEFFFF
 2031 0ada 4889C7   		movq	%rax, %rdi
 2032              	.LEHB36:
 2033 0add E8000000 		call	_ZNK8UnitTest15AssertException10LineNumberEv
 2033      00
 2034 0ae2 4189C4   		movl	%eax, %r12d
 2035 0ae5 488B8520 		movq	-480(%rbp), %rax
 2035      FEFFFF
 2036 0aec 4889C7   		movq	%rax, %rdi
 2037 0aef E8000000 		call	_ZNK8UnitTest15AssertException8FilenameEv
 2037      00
 2038              		.loc 6 67 0 is_stmt 0 discriminator 2
 2039 0af4 4889C1   		movq	%rax, %rcx
 2040 0af7 488B8508 		movq	-504(%rbp), %rax
 2040      FEFFFF
 2041 0afe 488B5008 		movq	8(%rax), %rdx
 2042 0b02 488B8508 		movq	-504(%rbp), %rax
 2042      FEFFFF
 2043 0b09 488B7010 		movq	16(%rax), %rsi
 2044 0b0d 488D8530 		leaq	-464(%rbp), %rax
 2044      FEFFFF
 2045 0b14 4589E0   		movl	%r12d, %r8d
 2046 0b17 4889C7   		movq	%rax, %rdi
 2047 0b1a E8000000 		call	_ZN8UnitTest11TestDetailsC1EPKcS2_S2_i
 2047      00
 2048              		.loc 6 67 0 discriminator 6
 2049 0b1f E8000000 		call	_ZN8UnitTest11CurrentTest7ResultsEv
 2049      00
 2050 0b24 488B00   		movq	(%rax), %rax
 2051 0b27 488D8D30 		leaq	-464(%rbp), %rcx
 2051      FEFFFF
 2052 0b2e 4889DA   		movq	%rbx, %rdx
 2053 0b31 4889CE   		movq	%rcx, %rsi
 2054 0b34 4889C7   		movq	%rax, %rdi
 2055 0b37 E8000000 		call	_ZN8UnitTest11TestResults13OnTestFailureERKNS_11TestDetailsEPKc
 2055      00
 2056              	.LEHE36:
 2057              		.loc 6 67 0 discriminator 10
 2058 0b3c E8000000 		call	__cxa_end_catch
 2058      00
 2059              	.LBE27:
 2060 0b41 E9920100 		jmp	.L91
 2060      00
 2061              	.L95:
 2062              	.LBB28:
 2063              		.loc 6 67 0
 2064 0b46 4889C7   		movq	%rax, %rdi
 2065 0b49 E8000000 		call	__cxa_begin_catch
 2065      00
 2066 0b4e 48898528 		movq	%rax, -472(%rbp)
 2066      FEFFFF
 2067              	.LBB29:
 2068 0b55 488D8550 		leaq	-432(%rbp), %rax
 2068      FEFFFF
 2069 0b5c 4889C7   		movq	%rax, %rdi
 2070              	.LEHB37:
 2071 0b5f E8000000 		call	_ZN8UnitTest15MemoryOutStreamC1Ev
 2071      00
 2072              	.LEHE37:
 2073              		.loc 6 67 0 discriminator 12
 2074 0b64 488B8528 		movq	-472(%rbp), %rax
 2074      FEFFFF
 2075 0b6b 488B00   		movq	(%rax), %rax
 2076 0b6e 4883C010 		addq	$16, %rax
 2077 0b72 488B00   		movq	(%rax), %rax
 2078 0b75 488B9528 		movq	-472(%rbp), %rdx
 2078      FEFFFF
 2079 0b7c 4889D7   		movq	%rdx, %rdi
 2080 0b7f FFD0     		call	*%rax
 2081 0b81 4889C3   		movq	%rax, %rbx
 2082 0b84 488D8550 		leaq	-432(%rbp), %rax
 2082      FEFFFF
 2083 0b8b BE000000 		movl	$.LC11, %esi
 2083      00
 2084 0b90 4889C7   		movq	%rax, %rdi
 2085              	.LEHB38:
 2086 0b93 E8000000 		call	_ZStlsISt11char_traitsIcEERSt13basic_ostreamIcT_ES5_PKc
 2086      00
 2087 0b98 4889DE   		movq	%rbx, %rsi
 2088 0b9b 4889C7   		movq	%rax, %rdi
 2089 0b9e E8000000 		call	_ZStlsISt11char_traitsIcEERSt13basic_ostreamIcT_ES5_PKc
 2089      00
 2090              		.loc 6 67 0 discriminator 16
 2091 0ba3 488D8550 		leaq	-432(%rbp), %rax
 2091      FEFFFF
 2092 0baa 4889C7   		movq	%rax, %rdi
 2093 0bad E8000000 		call	_ZNK8UnitTest15MemoryOutStream7GetTextEv
 2093      00
 2094 0bb2 4989C4   		movq	%rax, %r12
 2095 0bb5 488B8508 		movq	-504(%rbp), %rax
 2095      FEFFFF
 2096 0bbc 488D5808 		leaq	8(%rax), %rbx
 2097 0bc0 E8000000 		call	_ZN8UnitTest11CurrentTest7ResultsEv
 2097      00
 2098              		.loc 6 67 0 discriminator 18
 2099 0bc5 488B00   		movq	(%rax), %rax
 2100 0bc8 4C89E2   		movq	%r12, %rdx
 2101 0bcb 4889DE   		movq	%rbx, %rsi
 2102 0bce 4889C7   		movq	%rax, %rdi
 2103 0bd1 E8000000 		call	_ZN8UnitTest11TestResults13OnTestFailureERKNS_11TestDetailsEPKc
 2103      00
 2104              	.LEHE38:
 2105              		.loc 6 67 0 discriminator 22
 2106 0bd6 488D8550 		leaq	-432(%rbp), %rax
 2106      FEFFFF
 2107 0bdd 4889C7   		movq	%rax, %rdi
 2108              	.LEHB39:
 2109 0be0 E8000000 		call	_ZN8UnitTest15MemoryOutStreamD1Ev
 2109      00
 2110              	.LEHE39:
 2111              	.LBE29:
 2112              		.loc 6 67 0 discriminator 23
 2113 0be5 E8000000 		call	__cxa_end_catch
 2113      00
 2114              	.LBE28:
 2115 0bea E9E90000 		jmp	.L91
 2115      00
 2116              	.L109:
 2117              		.loc 6 67 0
 2118 0bef 4889C7   		movq	%rax, %rdi
 2119 0bf2 E8000000 		call	__cxa_begin_catch
 2119      00
 2120 0bf7 80BD1FFE 		cmpb	$0, -481(%rbp)
 2120      FFFF00
 2121 0bfe 7443     		je	.L97
 2122              		.loc 6 67 0 discriminator 25
 2123 0c00 488B8508 		movq	-504(%rbp), %rax
 2123      FEFFFF
 2124 0c07 488D4808 		leaq	8(%rax), %rcx
 2125 0c0b 488D8530 		leaq	-464(%rbp), %rax
 2125      FEFFFF
 2126 0c12 BA430000 		movl	$67, %edx
 2126      00
 2127 0c17 4889CE   		movq	%rcx, %rsi
 2128 0c1a 4889C7   		movq	%rax, %rdi
 2129              	.LEHB40:
 2130 0c1d E8000000 		call	_ZN8UnitTest11TestDetailsC1ERKS0_i
 2130      00
 2131              		.loc 6 67 0 discriminator 28
 2132 0c22 E8000000 		call	_ZN8UnitTest11CurrentTest7ResultsEv
 2132      00
 2133 0c27 488B00   		movq	(%rax), %rax
 2134 0c2a 488D8D30 		leaq	-464(%rbp), %rcx
 2134      FEFFFF
 2135 0c31 BA000000 		movl	$.LC27, %edx
 2135      00
 2136 0c36 4889CE   		movq	%rcx, %rsi
 2137 0c39 4889C7   		movq	%rax, %rdi
 2138 0c3c E8000000 		call	_ZN8UnitTest11TestResults13OnTestFailureERKNS_11TestDetailsEPKc
 2138      00
 2139 0c41 EB41     		jmp	.L98
 2140              	.L97:
 2141              		.loc 6 67 0 discriminator 26
 2142 0c43 488B8508 		movq	-504(%rbp), %rax
 2142      FEFFFF
 2143 0c4a 488D4808 		leaq	8(%rax), %rcx
 2144 0c4e 488D8530 		leaq	-464(%rbp), %rax
 2144      FEFFFF
 2145 0c55 BA430000 		movl	$67, %edx
 2145      00
 2146 0c5a 4889CE   		movq	%rcx, %rsi
 2147 0c5d 4889C7   		movq	%rax, %rdi
 2148 0c60 E8000000 		call	_ZN8UnitTest11TestDetailsC1ERKS0_i
 2148      00
 2149              		.loc 6 67 0 discriminator 35
 2150 0c65 E8000000 		call	_ZN8UnitTest11CurrentTest7ResultsEv
 2150      00
 2151 0c6a 488B00   		movq	(%rax), %rax
 2152 0c6d 488D8D30 		leaq	-464(%rbp), %rcx
 2152      FEFFFF
 2153 0c74 BA000000 		movl	$.LC28, %edx
 2153      00
 2154 0c79 4889CE   		movq	%rcx, %rsi
 2155 0c7c 4889C7   		movq	%rax, %rdi
 2156 0c7f E8000000 		call	_ZN8UnitTest11TestResults13OnTestFailureERKNS_11TestDetailsEPKc
 2156      00
 2157              	.LEHE40:
 2158              	.L98:
 2159              	.LEHB41:
 2160              		.loc 6 67 0 discriminator 40
 2161 0c84 E8000000 		call	__cxa_end_catch
 2161      00
 2162 0c89 EB4D     		jmp	.L91
 2163              	.L105:
 2164 0c8b 4889C3   		movq	%rax, %rbx
 2165              	.LBB31:
 2166              		.loc 6 67 0
 2167 0c8e E8000000 		call	__cxa_end_catch
 2167      00
 2168 0c93 4889D8   		movq	%rbx, %rax
 2169 0c96 4889C7   		movq	%rax, %rdi
 2170 0c99 E8000000 		call	_Unwind_Resume
 2170      00
 2171              	.LEHE41:
 2172              	.L107:
 2173 0c9e 4889C3   		movq	%rax, %rbx
 2174              	.LBE31:
 2175              	.LBB32:
 2176              	.LBB30:
 2177 0ca1 488D8550 		leaq	-432(%rbp), %rax
 2177      FEFFFF
 2178 0ca8 4889C7   		movq	%rax, %rdi
 2179 0cab E8000000 		call	_ZN8UnitTest15MemoryOutStreamD1Ev
 2179      00
 2180 0cb0 EB03     		jmp	.L101
 2181              	.L106:
 2182 0cb2 4889C3   		movq	%rax, %rbx
 2183              	.L101:
 2184              	.LBE30:
 2185 0cb5 E8000000 		call	__cxa_end_catch
 2185      00
 2186 0cba 4889D8   		movq	%rbx, %rax
 2187 0cbd 4889C7   		movq	%rax, %rdi
 2188              	.LEHB42:
 2189 0cc0 E8000000 		call	_Unwind_Resume
 2189      00
 2190              	.LEHE42:
 2191              	.L108:
 2192 0cc5 4889C3   		movq	%rax, %rbx
 2193              	.LBE32:
 2194 0cc8 E8000000 		call	__cxa_end_catch
 2194      00
 2195 0ccd 4889D8   		movq	%rbx, %rax
 2196 0cd0 4889C7   		movq	%rax, %rdi
 2197              	.LEHB43:
 2198 0cd3 E8000000 		call	_Unwind_Resume
 2198      00
 2199              	.LEHE43:
 2200              	.L91:
 2201 0cd8 488B45E8 		movq	-24(%rbp), %rax
 2202 0cdc 64483304 		xorq	%fs:40, %rax
 2202      25280000 
 2202      00
 2203 0ce5 7405     		je	.L103
 2204 0ce7 E8000000 		call	__stack_chk_fail
 2204      00
 2205              	.L103:
 2206 0cec 4881C4F0 		addq	$496, %rsp
 2206      010000
 2207 0cf3 5B       		popq	%rbx
 2208 0cf4 415C     		popq	%r12
 2209 0cf6 5D       		popq	%rbp
 2210              		.cfi_def_cfa 7, 8
 2211 0cf7 C3       		ret
 2212              		.cfi_endproc
 2213              	.LFE1125:
 2214              		.section	.gcc_except_table
 2215              		.align 4
 2216              	.LLSDA1125:
 2217 00dc FF       		.byte	0xff
 2218 00dd 03       		.byte	0x3
 2219 00de 45       		.uleb128 .LLSDATT1125-.LLSDATTD1125
 2220              	.LLSDATTD1125:
 2221 00df 01       		.byte	0x1
 2222 00e0 31       		.uleb128 .LLSDACSE1125-.LLSDACSB1125
 2223              	.LLSDACSB1125:
 2224 00e1 67       		.uleb128 .LEHB35-.LFB1125
 2225 00e2 05       		.uleb128 .LEHE35-.LEHB35
 2226 00e3 71       		.uleb128 .L104-.LFB1125
 2227 00e4 05       		.uleb128 0x5
 2228 00e5 BF01     		.uleb128 .LEHB36-.LFB1125
 2229 00e7 5F       		.uleb128 .LEHE36-.LEHB36
 2230 00e8 ED04     		.uleb128 .L105-.LFB1125
 2231 00ea 00       		.uleb128 0
 2232 00eb C102     		.uleb128 .LEHB37-.LFB1125
 2233 00ed 05       		.uleb128 .LEHE37-.LEHB37
 2234 00ee 9405     		.uleb128 .L106-.LFB1125
 2235 00f0 00       		.uleb128 0
 2236 00f1 F502     		.uleb128 .LEHB38-.LFB1125
 2237 00f3 43       		.uleb128 .LEHE38-.LEHB38
 2238 00f4 8005     		.uleb128 .L107-.LFB1125
 2239 00f6 00       		.uleb128 0
 2240 00f7 C203     		.uleb128 .LEHB39-.LFB1125
 2241 00f9 05       		.uleb128 .LEHE39-.LEHB39
 2242 00fa 9405     		.uleb128 .L106-.LFB1125
 2243 00fc 00       		.uleb128 0
 2244 00fd FF03     		.uleb128 .LEHB40-.LFB1125
 2245 00ff 67       		.uleb128 .LEHE40-.LEHB40
 2246 0100 A705     		.uleb128 .L108-.LFB1125
 2247 0102 00       		.uleb128 0
 2248 0103 E604     		.uleb128 .LEHB41-.LFB1125
 2249 0105 1A       		.uleb128 .LEHE41-.LEHB41
 2250 0106 00       		.uleb128 0
 2251 0107 00       		.uleb128 0
 2252 0108 A205     		.uleb128 .LEHB42-.LFB1125
 2253 010a 05       		.uleb128 .LEHE42-.LEHB42
 2254 010b 00       		.uleb128 0
 2255 010c 00       		.uleb128 0
 2256 010d B505     		.uleb128 .LEHB43-.LFB1125
 2257 010f 05       		.uleb128 .LEHE43-.LEHB43
 2258 0110 00       		.uleb128 0
 2259 0111 00       		.uleb128 0
 2260              	.LLSDACSE1125:
 2261 0112 03       		.byte	0x3
 2262 0113 00       		.byte	0
 2263 0114 02       		.byte	0x2
 2264 0115 7D       		.byte	0x7d
 2265 0116 01       		.byte	0x1
 2266 0117 7D       		.byte	0x7d
 2267              		.align 4
 2268 0118 00000000 		.long	0
 2269              	
 2270 011c 00000000 		.long	_ZTISt9exception
 2271 0120 00000000 		.long	_ZTIN8UnitTest15AssertExceptionE
 2272              	.LLSDATT1125:
 2273              		.text
 2275              		.align 2
 2277              	_ZN12_GLOBAL__N_115SuiteTestSuite165DummyFixtureSimilarlyNamedFixtureTestsInDifferentSuitesWorkHelp
 2278              	.LFB1126:
  68:TestTestMacros.cpp **** 	{
 2279              		.loc 6 68 0 is_stmt 1
 2280              		.cfi_startproc
 2281 0cf8 55       		pushq	%rbp
 2282              		.cfi_def_cfa_offset 16
 2283              		.cfi_offset 6, -16
 2284 0cf9 4889E5   		movq	%rsp, %rbp
 2285              		.cfi_def_cfa_register 6
 2286 0cfc 48897DF8 		movq	%rdi, -8(%rbp)
  69:TestTestMacros.cpp **** 	}
 2287              		.loc 6 69 0
 2288 0d00 90       		nop
 2289 0d01 5D       		popq	%rbp
 2290              		.cfi_def_cfa 7, 8
 2291 0d02 C3       		ret
 2292              		.cfi_endproc
 2293              	.LFE1126:
 2295              		.section	.rodata
 2296              	.LC29:
 2297 0474 54657374 		.string	"TestSuite2"
 2297      53756974 
 2297      653200
 2298              		.text
 2300              	_ZN12_GLOBAL__N_115SuiteTestSuite213UnitTestSuite12GetSuiteNameEv:
 2301              	.LFB1127:
  70:TestTestMacros.cpp **** }
  71:TestTestMacros.cpp **** 
  72:TestTestMacros.cpp **** SUITE(TestSuite2)
 2302              		.loc 6 72 0
 2303              		.cfi_startproc
 2304 0d03 55       		pushq	%rbp
 2305              		.cfi_def_cfa_offset 16
 2306              		.cfi_offset 6, -16
 2307 0d04 4889E5   		movq	%rsp, %rbp
 2308              		.cfi_def_cfa_register 6
 2309              		.loc 6 72 0
 2310 0d07 B8000000 		movl	$.LC29, %eax
 2310      00
 2311 0d0c 5D       		popq	%rbp
 2312              		.cfi_def_cfa 7, 8
 2313 0d0d C3       		ret
 2314              		.cfi_endproc
 2315              	.LFE1127:
 2317              		.align 2
 2319              	_ZN12_GLOBAL__N_115SuiteTestSuite244TestSimilarlyNamedTestsInDifferentSuitesWorkC2Ev:
 2320              	.LFB1129:
  73:TestTestMacros.cpp **** {
  74:TestTestMacros.cpp **** 	TEST(SimilarlyNamedTestsInDifferentSuitesWork)
 2321              		.loc 6 74 0
 2322              		.cfi_startproc
 2323 0d0e 55       		pushq	%rbp
 2324              		.cfi_def_cfa_offset 16
 2325              		.cfi_offset 6, -16
 2326 0d0f 4889E5   		movq	%rsp, %rbp
 2327              		.cfi_def_cfa_register 6
 2328 0d12 4883EC10 		subq	$16, %rsp
 2329 0d16 48897DF8 		movq	%rdi, -8(%rbp)
 2330              	.LBB33:
 2331              		.loc 6 74 0
 2332 0d1a E8E4FFFF 		call	_ZN12_GLOBAL__N_115SuiteTestSuite213UnitTestSuite12GetSuiteNameEv
 2332      FF
 2333 0d1f 4889C2   		movq	%rax, %rdx
 2334 0d22 488B45F8 		movq	-8(%rbp), %rax
 2335 0d26 41B84A00 		movl	$74, %r8d
 2335      0000
 2336 0d2c B9000000 		movl	$.LC2, %ecx
 2336      00
 2337 0d31 BE000000 		movl	$.LC25, %esi
 2337      00
 2338 0d36 4889C7   		movq	%rax, %rdi
 2339 0d39 E8000000 		call	_ZN8UnitTest4TestC2EPKcS2_S2_i
 2339      00
 2340 0d3e BA000000 		movl	$_ZTVN12_GLOBAL__N_115SuiteTestSuite244TestSimilarlyNamedTestsInDifferentSuitesWorkE+16, %edx
 2340      00
 2341 0d43 488B45F8 		movq	-8(%rbp), %rax
 2342 0d47 488910   		movq	%rdx, (%rax)
 2343              	.LBE33:
 2344 0d4a 90       		nop
 2345 0d4b C9       		leave
 2346              		.cfi_def_cfa 7, 8
 2347 0d4c C3       		ret
 2348              		.cfi_endproc
 2349              	.LFE1129:
 2351              		.set	_ZN12_GLOBAL__N_115SuiteTestSuite244TestSimilarlyNamedTestsInDifferentSuitesWorkC1Ev,_ZN12_GL
 2352              		.local	_ZN12_GLOBAL__N_115SuiteTestSuite252testSimilarlyNamedTestsInDifferentSuitesWorkInstanceE
 2353              		.comm	_ZN12_GLOBAL__N_115SuiteTestSuite252testSimilarlyNamedTestsInDifferentSuitesWorkInstanceE,56
 2354              		.local	_ZN12_GLOBAL__N_115SuiteTestSuite245adderSimilarlyNamedTestsInDifferentSuitesWorkE
 2355              		.comm	_ZN12_GLOBAL__N_115SuiteTestSuite245adderSimilarlyNamedTestsInDifferentSuitesWorkE,1,1
 2356 0d4d 90       		.align 2
 2358              	_ZNK12_GLOBAL__N_115SuiteTestSuite244TestSimilarlyNamedTestsInDifferentSuitesWork7RunImplEv:
 2359              	.LFB1131:
  75:TestTestMacros.cpp **** 	{
 2360              		.loc 6 75 0
 2361              		.cfi_startproc
 2362 0d4e 55       		pushq	%rbp
 2363              		.cfi_def_cfa_offset 16
 2364              		.cfi_offset 6, -16
 2365 0d4f 4889E5   		movq	%rsp, %rbp
 2366              		.cfi_def_cfa_register 6
 2367 0d52 48897DF8 		movq	%rdi, -8(%rbp)
  76:TestTestMacros.cpp **** 	}
 2368              		.loc 6 76 0
 2369 0d56 90       		nop
 2370 0d57 5D       		popq	%rbp
 2371              		.cfi_def_cfa 7, 8
 2372 0d58 C3       		ret
 2373              		.cfi_endproc
 2374              	.LFE1131:
 2376 0d59 90       		.align 2
 2378              	_ZN12_GLOBAL__N_115SuiteTestSuite265DummyFixtureSimilarlyNamedFixtureTestsInDifferentSuitesWorkHelp
 2379              	.LFB1133:
  77:TestTestMacros.cpp **** 
  78:TestTestMacros.cpp **** 	TEST_FIXTURE(DummyFixture,SimilarlyNamedFixtureTestsInDifferentSuitesWork)
 2380              		.loc 6 78 0
 2381              		.cfi_startproc
 2382 0d5a 55       		pushq	%rbp
 2383              		.cfi_def_cfa_offset 16
 2384              		.cfi_offset 6, -16
 2385 0d5b 4889E5   		movq	%rsp, %rbp
 2386              		.cfi_def_cfa_register 6
 2387 0d5e 4883EC10 		subq	$16, %rsp
 2388 0d62 48897DF8 		movq	%rdi, -8(%rbp)
 2389 0d66 488975F0 		movq	%rsi, -16(%rbp)
 2390              	.LBB34:
 2391              		.loc 6 78 0
 2392 0d6a 488B45F8 		movq	-8(%rbp), %rax
 2393 0d6e 4889C7   		movq	%rax, %rdi
 2394 0d71 E830FCFF 		call	_ZN12_GLOBAL__N_112DummyFixtureC2Ev
 2394      FF
 2395 0d76 488B45F8 		movq	-8(%rbp), %rax
 2396 0d7a 488B55F0 		movq	-16(%rbp), %rdx
 2397 0d7e 48895008 		movq	%rdx, 8(%rax)
 2398              	.LBE34:
 2399 0d82 90       		nop
 2400 0d83 C9       		leave
 2401              		.cfi_def_cfa 7, 8
 2402 0d84 C3       		ret
 2403              		.cfi_endproc
 2404              	.LFE1133:
 2406              		.set	_ZN12_GLOBAL__N_115SuiteTestSuite265DummyFixtureSimilarlyNamedFixtureTestsInDifferentSuitesWo
 2407 0d85 90       		.align 2
 2409              	_ZN12_GLOBAL__N_115SuiteTestSuite263TestDummyFixtureSimilarlyNamedFixtureTestsInDifferentSuitesWork
 2410              	.LFB1136:
 2411              		.loc 6 78 0
 2412              		.cfi_startproc
 2413 0d86 55       		pushq	%rbp
 2414              		.cfi_def_cfa_offset 16
 2415              		.cfi_offset 6, -16
 2416 0d87 4889E5   		movq	%rsp, %rbp
 2417              		.cfi_def_cfa_register 6
 2418 0d8a 4883EC10 		subq	$16, %rsp
 2419 0d8e 48897DF8 		movq	%rdi, -8(%rbp)
 2420              	.LBB35:
 2421              		.loc 6 78 0
 2422 0d92 E86CFFFF 		call	_ZN12_GLOBAL__N_115SuiteTestSuite213UnitTestSuite12GetSuiteNameEv
 2422      FF
 2423 0d97 4889C2   		movq	%rax, %rdx
 2424 0d9a 488B45F8 		movq	-8(%rbp), %rax
 2425 0d9e 41B84E00 		movl	$78, %r8d
 2425      0000
 2426 0da4 B9000000 		movl	$.LC2, %ecx
 2426      00
 2427 0da9 BE000000 		movl	$.LC26, %esi
 2427      00
 2428 0dae 4889C7   		movq	%rax, %rdi
 2429 0db1 E8000000 		call	_ZN8UnitTest4TestC2EPKcS2_S2_i
 2429      00
 2430 0db6 BA000000 		movl	$_ZTVN12_GLOBAL__N_115SuiteTestSuite263TestDummyFixtureSimilarlyNamedFixtureTestsInDifferentS
 2430      00
 2431 0dbb 488B45F8 		movq	-8(%rbp), %rax
 2432 0dbf 488910   		movq	%rdx, (%rax)
 2433              	.LBE35:
 2434 0dc2 90       		nop
 2435 0dc3 C9       		leave
 2436              		.cfi_def_cfa 7, 8
 2437 0dc4 C3       		ret
 2438              		.cfi_endproc
 2439              	.LFE1136:
 2441              		.set	_ZN12_GLOBAL__N_115SuiteTestSuite263TestDummyFixtureSimilarlyNamedFixtureTestsInDifferentSuit
 2442              		.local	_ZN12_GLOBAL__N_115SuiteTestSuite271testDummyFixtureSimilarlyNamedFixtureTestsInDifferentSu
 2443              		.comm	_ZN12_GLOBAL__N_115SuiteTestSuite271testDummyFixtureSimilarlyNamedFixtureTestsInDifferentSui
 2444              		.local	_ZN12_GLOBAL__N_115SuiteTestSuite264adderDummyFixtureSimilarlyNamedFixtureTestsInDifferentS
 2445              		.comm	_ZN12_GLOBAL__N_115SuiteTestSuite264adderDummyFixtureSimilarlyNamedFixtureTestsInDifferentSu
 2446 0dc5 90       		.align 2
 2448              	_ZNK12_GLOBAL__N_115SuiteTestSuite263TestDummyFixtureSimilarlyNamedFixtureTestsInDifferentSuitesWor
 2449              	.LFB1138:
 2450              		.loc 6 78 0
 2451              		.cfi_startproc
 2452              		.cfi_personality 0x3,__gxx_personality_v0
 2453              		.cfi_lsda 0x3,.LLSDA1138
 2454 0dc6 55       		pushq	%rbp
 2455              		.cfi_def_cfa_offset 16
 2456              		.cfi_offset 6, -16
 2457 0dc7 4889E5   		movq	%rsp, %rbp
 2458              		.cfi_def_cfa_register 6
 2459 0dca 4154     		pushq	%r12
 2460 0dcc 53       		pushq	%rbx
 2461 0dcd 4881ECF0 		subq	$496, %rsp
 2461      010000
 2462              		.cfi_offset 12, -24
 2463              		.cfi_offset 3, -32
 2464 0dd4 4889BD08 		movq	%rdi, -504(%rbp)
 2464      FEFFFF
 2465              		.loc 6 78 0
 2466 0ddb 64488B04 		movq	%fs:40, %rax
 2466      25280000 
 2466      00
 2467 0de4 488945E8 		movq	%rax, -24(%rbp)
 2468 0de8 31C0     		xorl	%eax, %eax
 2469 0dea C6851FFE 		movb	$0, -481(%rbp)
 2469      FFFF00
 2470              	.LBB36:
 2471 0df1 488B8508 		movq	-504(%rbp), %rax
 2471      FEFFFF
 2472 0df8 488D5008 		leaq	8(%rax), %rdx
 2473 0dfc 488D8530 		leaq	-464(%rbp), %rax
 2473      FEFFFF
 2474 0e03 4889D6   		movq	%rdx, %rsi
 2475 0e06 4889C7   		movq	%rax, %rdi
 2476 0e09 E84CFFFF 		call	_ZN12_GLOBAL__N_115SuiteTestSuite265DummyFixtureSimilarlyNamedFixtureTestsInDifferentSuitesWo
 2476      FF
 2477 0e0e C6851FFE 		movb	$1, -481(%rbp)
 2477      FFFF01
 2478 0e15 488B8508 		movq	-504(%rbp), %rax
 2478      FEFFFF
 2479 0e1c 488D5008 		leaq	8(%rax), %rdx
 2480 0e20 488D8530 		leaq	-464(%rbp), %rax
 2480      FEFFFF
 2481 0e27 4889D6   		movq	%rdx, %rsi
 2482 0e2a 4889C7   		movq	%rax, %rdi
 2483              	.LEHB44:
 2484 0e2d E8902600 		call	_ZN8UnitTest11ExecuteTestIN12_GLOBAL__N_115SuiteTestSuite265DummyFixtureSimilarlyNamedFixture
 2484      00
 2485              	.LEHE44:
 2486              	.LBE36:
 2487 0e32 E9490200 		jmp	.L117
 2487      00
 2488              	.L130:
 2489 0e37 4883FA01 		cmpq	$1, %rdx
 2490 0e3b 740F     		je	.L120
 2491 0e3d 4883FA02 		cmpq	$2, %rdx
 2492 0e41 0F84A700 		je	.L121
 2492      0000
 2493 0e47 E94B0100 		jmp	.L135
 2493      00
 2494              	.L120:
 2495              	.LBB37:
 2496 0e4c 4889C7   		movq	%rax, %rdi
 2497 0e4f E8000000 		call	__cxa_begin_catch
 2497      00
 2498 0e54 48898520 		movq	%rax, -480(%rbp)
 2498      FEFFFF
 2499 0e5b 488B8520 		movq	-480(%rbp), %rax
 2499      FEFFFF
 2500 0e62 488B00   		movq	(%rax), %rax
 2501 0e65 4883C010 		addq	$16, %rax
 2502 0e69 488B00   		movq	(%rax), %rax
 2503 0e6c 488B9520 		movq	-480(%rbp), %rdx
 2503      FEFFFF
 2504 0e73 4889D7   		movq	%rdx, %rdi
 2505 0e76 FFD0     		call	*%rax
 2506 0e78 4889C3   		movq	%rax, %rbx
 2507 0e7b 488B8520 		movq	-480(%rbp), %rax
 2507      FEFFFF
 2508 0e82 4889C7   		movq	%rax, %rdi
 2509              	.LEHB45:
 2510 0e85 E8000000 		call	_ZNK8UnitTest15AssertException10LineNumberEv
 2510      00
 2511 0e8a 4189C4   		movl	%eax, %r12d
 2512 0e8d 488B8520 		movq	-480(%rbp), %rax
 2512      FEFFFF
 2513 0e94 4889C7   		movq	%rax, %rdi
 2514 0e97 E8000000 		call	_ZNK8UnitTest15AssertException8FilenameEv
 2514      00
 2515              		.loc 6 78 0 is_stmt 0 discriminator 2
 2516 0e9c 4889C1   		movq	%rax, %rcx
 2517 0e9f 488B8508 		movq	-504(%rbp), %rax
 2517      FEFFFF
 2518 0ea6 488B5008 		movq	8(%rax), %rdx
 2519 0eaa 488B8508 		movq	-504(%rbp), %rax
 2519      FEFFFF
 2520 0eb1 488B7010 		movq	16(%rax), %rsi
 2521 0eb5 488D8530 		leaq	-464(%rbp), %rax
 2521      FEFFFF
 2522 0ebc 4589E0   		movl	%r12d, %r8d
 2523 0ebf 4889C7   		movq	%rax, %rdi
 2524 0ec2 E8000000 		call	_ZN8UnitTest11TestDetailsC1EPKcS2_S2_i
 2524      00
 2525              		.loc 6 78 0 discriminator 6
 2526 0ec7 E8000000 		call	_ZN8UnitTest11CurrentTest7ResultsEv
 2526      00
 2527 0ecc 488B00   		movq	(%rax), %rax
 2528 0ecf 488D8D30 		leaq	-464(%rbp), %rcx
 2528      FEFFFF
 2529 0ed6 4889DA   		movq	%rbx, %rdx
 2530 0ed9 4889CE   		movq	%rcx, %rsi
 2531 0edc 4889C7   		movq	%rax, %rdi
 2532 0edf E8000000 		call	_ZN8UnitTest11TestResults13OnTestFailureERKNS_11TestDetailsEPKc
 2532      00
 2533              	.LEHE45:
 2534              		.loc 6 78 0 discriminator 10
 2535 0ee4 E8000000 		call	__cxa_end_catch
 2535      00
 2536              	.LBE37:
 2537 0ee9 E9920100 		jmp	.L117
 2537      00
 2538              	.L121:
 2539              	.LBB38:
 2540              		.loc 6 78 0
 2541 0eee 4889C7   		movq	%rax, %rdi
 2542 0ef1 E8000000 		call	__cxa_begin_catch
 2542      00
 2543 0ef6 48898528 		movq	%rax, -472(%rbp)
 2543      FEFFFF
 2544              	.LBB39:
 2545 0efd 488D8550 		leaq	-432(%rbp), %rax
 2545      FEFFFF
 2546 0f04 4889C7   		movq	%rax, %rdi
 2547              	.LEHB46:
 2548 0f07 E8000000 		call	_ZN8UnitTest15MemoryOutStreamC1Ev
 2548      00
 2549              	.LEHE46:
 2550              		.loc 6 78 0 discriminator 12
 2551 0f0c 488B8528 		movq	-472(%rbp), %rax
 2551      FEFFFF
 2552 0f13 488B00   		movq	(%rax), %rax
 2553 0f16 4883C010 		addq	$16, %rax
 2554 0f1a 488B00   		movq	(%rax), %rax
 2555 0f1d 488B9528 		movq	-472(%rbp), %rdx
 2555      FEFFFF
 2556 0f24 4889D7   		movq	%rdx, %rdi
 2557 0f27 FFD0     		call	*%rax
 2558 0f29 4889C3   		movq	%rax, %rbx
 2559 0f2c 488D8550 		leaq	-432(%rbp), %rax
 2559      FEFFFF
 2560 0f33 BE000000 		movl	$.LC11, %esi
 2560      00
 2561 0f38 4889C7   		movq	%rax, %rdi
 2562              	.LEHB47:
 2563 0f3b E8000000 		call	_ZStlsISt11char_traitsIcEERSt13basic_ostreamIcT_ES5_PKc
 2563      00
 2564 0f40 4889DE   		movq	%rbx, %rsi
 2565 0f43 4889C7   		movq	%rax, %rdi
 2566 0f46 E8000000 		call	_ZStlsISt11char_traitsIcEERSt13basic_ostreamIcT_ES5_PKc
 2566      00
 2567              		.loc 6 78 0 discriminator 16
 2568 0f4b 488D8550 		leaq	-432(%rbp), %rax
 2568      FEFFFF
 2569 0f52 4889C7   		movq	%rax, %rdi
 2570 0f55 E8000000 		call	_ZNK8UnitTest15MemoryOutStream7GetTextEv
 2570      00
 2571 0f5a 4989C4   		movq	%rax, %r12
 2572 0f5d 488B8508 		movq	-504(%rbp), %rax
 2572      FEFFFF
 2573 0f64 488D5808 		leaq	8(%rax), %rbx
 2574 0f68 E8000000 		call	_ZN8UnitTest11CurrentTest7ResultsEv
 2574      00
 2575              		.loc 6 78 0 discriminator 18
 2576 0f6d 488B00   		movq	(%rax), %rax
 2577 0f70 4C89E2   		movq	%r12, %rdx
 2578 0f73 4889DE   		movq	%rbx, %rsi
 2579 0f76 4889C7   		movq	%rax, %rdi
 2580 0f79 E8000000 		call	_ZN8UnitTest11TestResults13OnTestFailureERKNS_11TestDetailsEPKc
 2580      00
 2581              	.LEHE47:
 2582              		.loc 6 78 0 discriminator 22
 2583 0f7e 488D8550 		leaq	-432(%rbp), %rax
 2583      FEFFFF
 2584 0f85 4889C7   		movq	%rax, %rdi
 2585              	.LEHB48:
 2586 0f88 E8000000 		call	_ZN8UnitTest15MemoryOutStreamD1Ev
 2586      00
 2587              	.LEHE48:
 2588              	.LBE39:
 2589              		.loc 6 78 0 discriminator 23
 2590 0f8d E8000000 		call	__cxa_end_catch
 2590      00
 2591              	.LBE38:
 2592 0f92 E9E90000 		jmp	.L117
 2592      00
 2593              	.L135:
 2594              		.loc 6 78 0
 2595 0f97 4889C7   		movq	%rax, %rdi
 2596 0f9a E8000000 		call	__cxa_begin_catch
 2596      00
 2597 0f9f 80BD1FFE 		cmpb	$0, -481(%rbp)
 2597      FFFF00
 2598 0fa6 7443     		je	.L123
 2599              		.loc 6 78 0 discriminator 25
 2600 0fa8 488B8508 		movq	-504(%rbp), %rax
 2600      FEFFFF
 2601 0faf 488D4808 		leaq	8(%rax), %rcx
 2602 0fb3 488D8530 		leaq	-464(%rbp), %rax
 2602      FEFFFF
 2603 0fba BA4E0000 		movl	$78, %edx
 2603      00
 2604 0fbf 4889CE   		movq	%rcx, %rsi
 2605 0fc2 4889C7   		movq	%rax, %rdi
 2606              	.LEHB49:
 2607 0fc5 E8000000 		call	_ZN8UnitTest11TestDetailsC1ERKS0_i
 2607      00
 2608              		.loc 6 78 0 discriminator 28
 2609 0fca E8000000 		call	_ZN8UnitTest11CurrentTest7ResultsEv
 2609      00
 2610 0fcf 488B00   		movq	(%rax), %rax
 2611 0fd2 488D8D30 		leaq	-464(%rbp), %rcx
 2611      FEFFFF
 2612 0fd9 BA000000 		movl	$.LC27, %edx
 2612      00
 2613 0fde 4889CE   		movq	%rcx, %rsi
 2614 0fe1 4889C7   		movq	%rax, %rdi
 2615 0fe4 E8000000 		call	_ZN8UnitTest11TestResults13OnTestFailureERKNS_11TestDetailsEPKc
 2615      00
 2616 0fe9 EB41     		jmp	.L124
 2617              	.L123:
 2618              		.loc 6 78 0 discriminator 26
 2619 0feb 488B8508 		movq	-504(%rbp), %rax
 2619      FEFFFF
 2620 0ff2 488D4808 		leaq	8(%rax), %rcx
 2621 0ff6 488D8530 		leaq	-464(%rbp), %rax
 2621      FEFFFF
 2622 0ffd BA4E0000 		movl	$78, %edx
 2622      00
 2623 1002 4889CE   		movq	%rcx, %rsi
 2624 1005 4889C7   		movq	%rax, %rdi
 2625 1008 E8000000 		call	_ZN8UnitTest11TestDetailsC1ERKS0_i
 2625      00
 2626              		.loc 6 78 0 discriminator 35
 2627 100d E8000000 		call	_ZN8UnitTest11CurrentTest7ResultsEv
 2627      00
 2628 1012 488B00   		movq	(%rax), %rax
 2629 1015 488D8D30 		leaq	-464(%rbp), %rcx
 2629      FEFFFF
 2630 101c BA000000 		movl	$.LC28, %edx
 2630      00
 2631 1021 4889CE   		movq	%rcx, %rsi
 2632 1024 4889C7   		movq	%rax, %rdi
 2633 1027 E8000000 		call	_ZN8UnitTest11TestResults13OnTestFailureERKNS_11TestDetailsEPKc
 2633      00
 2634              	.LEHE49:
 2635              	.L124:
 2636              	.LEHB50:
 2637              		.loc 6 78 0 discriminator 40
 2638 102c E8000000 		call	__cxa_end_catch
 2638      00
 2639 1031 EB4D     		jmp	.L117
 2640              	.L131:
 2641 1033 4889C3   		movq	%rax, %rbx
 2642              	.LBB41:
 2643              		.loc 6 78 0
 2644 1036 E8000000 		call	__cxa_end_catch
 2644      00
 2645 103b 4889D8   		movq	%rbx, %rax
 2646 103e 4889C7   		movq	%rax, %rdi
 2647 1041 E8000000 		call	_Unwind_Resume
 2647      00
 2648              	.LEHE50:
 2649              	.L133:
 2650 1046 4889C3   		movq	%rax, %rbx
 2651              	.LBE41:
 2652              	.LBB42:
 2653              	.LBB40:
 2654 1049 488D8550 		leaq	-432(%rbp), %rax
 2654      FEFFFF
 2655 1050 4889C7   		movq	%rax, %rdi
 2656 1053 E8000000 		call	_ZN8UnitTest15MemoryOutStreamD1Ev
 2656      00
 2657 1058 EB03     		jmp	.L127
 2658              	.L132:
 2659 105a 4889C3   		movq	%rax, %rbx
 2660              	.L127:
 2661              	.LBE40:
 2662 105d E8000000 		call	__cxa_end_catch
 2662      00
 2663 1062 4889D8   		movq	%rbx, %rax
 2664 1065 4889C7   		movq	%rax, %rdi
 2665              	.LEHB51:
 2666 1068 E8000000 		call	_Unwind_Resume
 2666      00
 2667              	.LEHE51:
 2668              	.L134:
 2669 106d 4889C3   		movq	%rax, %rbx
 2670              	.LBE42:
 2671 1070 E8000000 		call	__cxa_end_catch
 2671      00
 2672 1075 4889D8   		movq	%rbx, %rax
 2673 1078 4889C7   		movq	%rax, %rdi
 2674              	.LEHB52:
 2675 107b E8000000 		call	_Unwind_Resume
 2675      00
 2676              	.LEHE52:
 2677              	.L117:
 2678 1080 488B45E8 		movq	-24(%rbp), %rax
 2679 1084 64483304 		xorq	%fs:40, %rax
 2679      25280000 
 2679      00
 2680 108d 7405     		je	.L129
 2681 108f E8000000 		call	__stack_chk_fail
 2681      00
 2682              	.L129:
 2683 1094 4881C4F0 		addq	$496, %rsp
 2683      010000
 2684 109b 5B       		popq	%rbx
 2685 109c 415C     		popq	%r12
 2686 109e 5D       		popq	%rbp
 2687              		.cfi_def_cfa 7, 8
 2688 109f C3       		ret
 2689              		.cfi_endproc
 2690              	.LFE1138:
 2691              		.section	.gcc_except_table
 2692              		.align 4
 2693              	.LLSDA1138:
 2694 0124 FF       		.byte	0xff
 2695 0125 03       		.byte	0x3
 2696 0126 45       		.uleb128 .LLSDATT1138-.LLSDATTD1138
 2697              	.LLSDATTD1138:
 2698 0127 01       		.byte	0x1
 2699 0128 31       		.uleb128 .LLSDACSE1138-.LLSDACSB1138
 2700              	.LLSDACSB1138:
 2701 0129 67       		.uleb128 .LEHB44-.LFB1138
 2702 012a 05       		.uleb128 .LEHE44-.LEHB44
 2703 012b 71       		.uleb128 .L130-.LFB1138
 2704 012c 05       		.uleb128 0x5
 2705 012d BF01     		.uleb128 .LEHB45-.LFB1138
 2706 012f 5F       		.uleb128 .LEHE45-.LEHB45
 2707 0130 ED04     		.uleb128 .L131-.LFB1138
 2708 0132 00       		.uleb128 0
 2709 0133 C102     		.uleb128 .LEHB46-.LFB1138
 2710 0135 05       		.uleb128 .LEHE46-.LEHB46
 2711 0136 9405     		.uleb128 .L132-.LFB1138
 2712 0138 00       		.uleb128 0
 2713 0139 F502     		.uleb128 .LEHB47-.LFB1138
 2714 013b 43       		.uleb128 .LEHE47-.LEHB47
 2715 013c 8005     		.uleb128 .L133-.LFB1138
 2716 013e 00       		.uleb128 0
 2717 013f C203     		.uleb128 .LEHB48-.LFB1138
 2718 0141 05       		.uleb128 .LEHE48-.LEHB48
 2719 0142 9405     		.uleb128 .L132-.LFB1138
 2720 0144 00       		.uleb128 0
 2721 0145 FF03     		.uleb128 .LEHB49-.LFB1138
 2722 0147 67       		.uleb128 .LEHE49-.LEHB49
 2723 0148 A705     		.uleb128 .L134-.LFB1138
 2724 014a 00       		.uleb128 0
 2725 014b E604     		.uleb128 .LEHB50-.LFB1138
 2726 014d 1A       		.uleb128 .LEHE50-.LEHB50
 2727 014e 00       		.uleb128 0
 2728 014f 00       		.uleb128 0
 2729 0150 A205     		.uleb128 .LEHB51-.LFB1138
 2730 0152 05       		.uleb128 .LEHE51-.LEHB51
 2731 0153 00       		.uleb128 0
 2732 0154 00       		.uleb128 0
 2733 0155 B505     		.uleb128 .LEHB52-.LFB1138
 2734 0157 05       		.uleb128 .LEHE52-.LEHB52
 2735 0158 00       		.uleb128 0
 2736 0159 00       		.uleb128 0
 2737              	.LLSDACSE1138:
 2738 015a 03       		.byte	0x3
 2739 015b 00       		.byte	0
 2740 015c 02       		.byte	0x2
 2741 015d 7D       		.byte	0x7d
 2742 015e 01       		.byte	0x1
 2743 015f 7D       		.byte	0x7d
 2744              		.align 4
 2745 0160 00000000 		.long	0
 2746              	
 2747 0164 00000000 		.long	_ZTISt9exception
 2748 0168 00000000 		.long	_ZTIN8UnitTest15AssertExceptionE
 2749              	.LLSDATT1138:
 2750              		.text
 2752              		.align 2
 2754              	_ZN12_GLOBAL__N_115SuiteTestSuite265DummyFixtureSimilarlyNamedFixtureTestsInDifferentSuitesWorkHelp
 2755              	.LFB1139:
  79:TestTestMacros.cpp **** 	{
 2756              		.loc 6 79 0 is_stmt 1
 2757              		.cfi_startproc
 2758 10a0 55       		pushq	%rbp
 2759              		.cfi_def_cfa_offset 16
 2760              		.cfi_offset 6, -16
 2761 10a1 4889E5   		movq	%rsp, %rbp
 2762              		.cfi_def_cfa_register 6
 2763 10a4 48897DF8 		movq	%rdi, -8(%rbp)
  80:TestTestMacros.cpp **** 	}
 2764              		.loc 6 80 0
 2765 10a8 90       		nop
 2766 10a9 5D       		popq	%rbp
 2767              		.cfi_def_cfa 7, 8
 2768 10aa C3       		ret
 2769              		.cfi_endproc
 2770              	.LFE1139:
 2772              		.local	_ZN12_GLOBAL__N_114macroTestList1E
 2773              		.comm	_ZN12_GLOBAL__N_114macroTestList1E,16,16
 2774              		.section	.rodata
 2775              	.LC30:
 2776 047f 4D616372 		.string	"MacroTestHelper1"
 2776      6F546573 
 2776      7448656C 
 2776      70657231 
 2776      00
 2777              		.text
 2778 10ab 90       		.align 2
 2780              	_ZN12_GLOBAL__N_120TestMacroTestHelper1C2Ev:
 2781              	.LFB1141:
  81:TestTestMacros.cpp **** }
  82:TestTestMacros.cpp **** 
  83:TestTestMacros.cpp **** TestList macroTestList1;
  84:TestTestMacros.cpp **** TEST_EX(MacroTestHelper1, macroTestList1)
 2782              		.loc 6 84 0
 2783              		.cfi_startproc
 2784 10ac 55       		pushq	%rbp
 2785              		.cfi_def_cfa_offset 16
 2786              		.cfi_offset 6, -16
 2787 10ad 4889E5   		movq	%rsp, %rbp
 2788              		.cfi_def_cfa_register 6
 2789 10b0 4883EC10 		subq	$16, %rsp
 2790 10b4 48897DF8 		movq	%rdi, -8(%rbp)
 2791              	.LBB43:
 2792              		.loc 6 84 0
 2793 10b8 E8000000 		call	_ZN13UnitTestSuite12GetSuiteNameEv
 2793      00
 2794 10bd 4889C2   		movq	%rax, %rdx
 2795 10c0 488B45F8 		movq	-8(%rbp), %rax
 2796 10c4 41B85400 		movl	$84, %r8d
 2796      0000
 2797 10ca B9000000 		movl	$.LC2, %ecx
 2797      00
 2798 10cf BE000000 		movl	$.LC30, %esi
 2798      00
 2799 10d4 4889C7   		movq	%rax, %rdi
 2800 10d7 E8000000 		call	_ZN8UnitTest4TestC2EPKcS2_S2_i
 2800      00
 2801 10dc BA000000 		movl	$_ZTVN12_GLOBAL__N_120TestMacroTestHelper1E+16, %edx
 2801      00
 2802 10e1 488B45F8 		movq	-8(%rbp), %rax
 2803 10e5 488910   		movq	%rdx, (%rax)
 2804              	.LBE43:
 2805 10e8 90       		nop
 2806 10e9 C9       		leave
 2807              		.cfi_def_cfa 7, 8
 2808 10ea C3       		ret
 2809              		.cfi_endproc
 2810              	.LFE1141:
 2812              		.set	_ZN12_GLOBAL__N_120TestMacroTestHelper1C1Ev,_ZN12_GLOBAL__N_120TestMacroTestHelper1C2Ev
 2813              		.local	_ZN12_GLOBAL__N_128testMacroTestHelper1InstanceE
 2814              		.comm	_ZN12_GLOBAL__N_128testMacroTestHelper1InstanceE,56,32
 2815              		.local	_ZN12_GLOBAL__N_121adderMacroTestHelper1E
 2816              		.comm	_ZN12_GLOBAL__N_121adderMacroTestHelper1E,1,1
 2817 10eb 90       		.align 2
 2819              	_ZNK12_GLOBAL__N_120TestMacroTestHelper17RunImplEv:
 2820              	.LFB1143:
  85:TestTestMacros.cpp **** {
 2821              		.loc 6 85 0
 2822              		.cfi_startproc
 2823 10ec 55       		pushq	%rbp
 2824              		.cfi_def_cfa_offset 16
 2825              		.cfi_offset 6, -16
 2826 10ed 4889E5   		movq	%rsp, %rbp
 2827              		.cfi_def_cfa_register 6
 2828 10f0 48897DF8 		movq	%rdi, -8(%rbp)
  86:TestTestMacros.cpp **** }
 2829              		.loc 6 86 0
 2830 10f4 90       		nop
 2831 10f5 5D       		popq	%rbp
 2832              		.cfi_def_cfa 7, 8
 2833 10f6 C3       		ret
 2834              		.cfi_endproc
 2835              	.LFE1143:
 2837              		.section	.rodata
 2838              		.align 8
 2839              	.LC31:
 2840 0490 54657374 		.string	"TestAddedWithTEST_EXMacroGetsDefaultSuite"
 2840      41646465 
 2840      64576974 
 2840      68544553 
 2840      545F4558 
 2841              		.text
 2842 10f7 90       		.align 2
 2844              	_ZN12_GLOBAL__N_145TestTestAddedWithTEST_EXMacroGetsDefaultSuiteC2Ev:
 2845              	.LFB1145:
  87:TestTestMacros.cpp **** 
  88:TestTestMacros.cpp **** TEST(TestAddedWithTEST_EXMacroGetsDefaultSuite)
 2846              		.loc 6 88 0
 2847              		.cfi_startproc
 2848 10f8 55       		pushq	%rbp
 2849              		.cfi_def_cfa_offset 16
 2850              		.cfi_offset 6, -16
 2851 10f9 4889E5   		movq	%rsp, %rbp
 2852              		.cfi_def_cfa_register 6
 2853 10fc 4883EC10 		subq	$16, %rsp
 2854 1100 48897DF8 		movq	%rdi, -8(%rbp)
 2855              	.LBB44:
 2856              		.loc 6 88 0
 2857 1104 E8000000 		call	_ZN13UnitTestSuite12GetSuiteNameEv
 2857      00
 2858 1109 4889C2   		movq	%rax, %rdx
 2859 110c 488B45F8 		movq	-8(%rbp), %rax
 2860 1110 41B85800 		movl	$88, %r8d
 2860      0000
 2861 1116 B9000000 		movl	$.LC2, %ecx
 2861      00
 2862 111b BE000000 		movl	$.LC31, %esi
 2862      00
 2863 1120 4889C7   		movq	%rax, %rdi
 2864 1123 E8000000 		call	_ZN8UnitTest4TestC2EPKcS2_S2_i
 2864      00
 2865 1128 BA000000 		movl	$_ZTVN12_GLOBAL__N_145TestTestAddedWithTEST_EXMacroGetsDefaultSuiteE+16, %edx
 2865      00
 2866 112d 488B45F8 		movq	-8(%rbp), %rax
 2867 1131 488910   		movq	%rdx, (%rax)
 2868              	.LBE44:
 2869 1134 90       		nop
 2870 1135 C9       		leave
 2871              		.cfi_def_cfa 7, 8
 2872 1136 C3       		ret
 2873              		.cfi_endproc
 2874              	.LFE1145:
 2876              		.set	_ZN12_GLOBAL__N_145TestTestAddedWithTEST_EXMacroGetsDefaultSuiteC1Ev,_ZN12_GLOBAL__N_145TestT
 2877              		.local	_ZN12_GLOBAL__N_153testTestAddedWithTEST_EXMacroGetsDefaultSuiteInstanceE
 2878              		.comm	_ZN12_GLOBAL__N_153testTestAddedWithTEST_EXMacroGetsDefaultSuiteInstanceE,56,32
 2879              		.local	_ZN12_GLOBAL__N_146adderTestAddedWithTEST_EXMacroGetsDefaultSuiteE
 2880              		.comm	_ZN12_GLOBAL__N_146adderTestAddedWithTEST_EXMacroGetsDefaultSuiteE,1,1
 2881              		.section	.rodata
 2882 04ba 00000000 		.align 8
 2882      0000
 2883              	.LC32:
 2884 04c0 6D616372 		.string	"macroTestList1.GetHead() != NULL"
 2884      6F546573 
 2884      744C6973 
 2884      74312E47 
 2884      65744865 
 2885 04e1 00000000 		.align 8
 2885      000000
 2886              	.LC33:
 2887 04e8 556E6861 		.string	"Unhandled exception in CHECK(macroTestList1.GetHead() != NULL)"
 2887      6E646C65 
 2887      64206578 
 2887      63657074 
 2887      696F6E20 
 2888 0527 00       		.align 8
 2889              	.LC34:
 2890 0528 556E6861 		.string	"Unhandled exception in CHECK_EQUAL(\"MacroTestHelper1\", macroTestList1.GetHead()->m_deta
 2890      6E646C65 
 2890      64206578 
 2890      63657074 
 2890      696F6E20 
 2891 058d 000000   		.align 8
 2892              	.LC35:
 2893 0590 556E6861 		.string	"Unhandled exception in CHECK_EQUAL(\"DefaultSuite\", macroTestList1.GetHead()->m_details.
 2893      6E646C65 
 2893      64206578 
 2893      63657074 
 2893      696F6E20 
 2894              		.text
 2895 1137 90       		.align 2
 2897              	_ZNK12_GLOBAL__N_145TestTestAddedWithTEST_EXMacroGetsDefaultSuite7RunImplEv:
 2898              	.LFB1147:
  89:TestTestMacros.cpp **** {
 2899              		.loc 6 89 0
 2900              		.cfi_startproc
 2901              		.cfi_personality 0x3,__gxx_personality_v0
 2902              		.cfi_lsda 0x3,.LLSDA1147
 2903 1138 55       		pushq	%rbp
 2904              		.cfi_def_cfa_offset 16
 2905              		.cfi_offset 6, -16
 2906 1139 4889E5   		movq	%rsp, %rbp
 2907              		.cfi_def_cfa_register 6
 2908 113c 53       		pushq	%rbx
 2909 113d 4883EC48 		subq	$72, %rsp
 2910              		.cfi_offset 3, -24
 2911 1141 48897DB8 		movq	%rdi, -72(%rbp)
 2912              		.loc 6 89 0
 2913 1145 64488B04 		movq	%fs:40, %rax
 2913      25280000 
 2913      00
 2914 114e 488945E8 		movq	%rax, -24(%rbp)
 2915 1152 31C0     		xorl	%eax, %eax
  90:TestTestMacros.cpp ****     CHECK(macroTestList1.GetHead() != NULL);
 2916              		.loc 6 90 0
 2917 1154 BF000000 		movl	$_ZN12_GLOBAL__N_114macroTestList1E, %edi
 2917      00
 2918              	.LEHB53:
 2919 1159 E8000000 		call	_ZNK8UnitTest8TestList7GetHeadEv
 2919      00
 2920 115e 4885C0   		testq	%rax, %rax
 2921 1161 0F95C0   		setne	%al
 2922 1164 0FB6C0   		movzbl	%al, %eax
 2923 1167 89C7     		movl	%eax, %edi
 2924 1169 E8000000 		call	_ZN8UnitTest5CheckIbEEbT_
 2924      00
 2925 116e 83F001   		xorl	$1, %eax
 2926 1171 84C0     		testb	%al, %al
 2927 1173 7438     		je	.L141
 2928              		.loc 6 90 0 is_stmt 0 discriminator 2
 2929 1175 E8000000 		call	_ZN8UnitTest11CurrentTest7DetailsEv
 2929      00
 2930 117a 488B08   		movq	(%rax), %rcx
 2931 117d 488D45C0 		leaq	-64(%rbp), %rax
 2932 1181 BA5A0000 		movl	$90, %edx
 2932      00
 2933 1186 4889CE   		movq	%rcx, %rsi
 2934 1189 4889C7   		movq	%rax, %rdi
 2935 118c E8000000 		call	_ZN8UnitTest11TestDetailsC1ERKS0_i
 2935      00
 2936              		.loc 6 90 0 discriminator 4
 2937 1191 E8000000 		call	_ZN8UnitTest11CurrentTest7ResultsEv
 2937      00
 2938 1196 488B00   		movq	(%rax), %rax
 2939 1199 488D4DC0 		leaq	-64(%rbp), %rcx
 2940 119d BA000000 		movl	$.LC32, %edx
 2940      00
 2941 11a2 4889CE   		movq	%rcx, %rsi
 2942 11a5 4889C7   		movq	%rax, %rdi
 2943 11a8 E8000000 		call	_ZN8UnitTest11TestResults13OnTestFailureERKNS_11TestDetailsEPKc
 2943      00
 2944              	.LEHE53:
 2945              	.L141:
 2946              	.LEHB54:
  91:TestTestMacros.cpp ****     CHECK_EQUAL ("MacroTestHelper1", macroTestList1.GetHead()->m_details.testName);
 2947              		.loc 6 91 0 is_stmt 1
 2948 11ad E8000000 		call	_ZN8UnitTest11CurrentTest7DetailsEv
 2948      00
 2949 11b2 488B08   		movq	(%rax), %rcx
 2950 11b5 488D45C0 		leaq	-64(%rbp), %rax
 2951 11b9 BA5B0000 		movl	$91, %edx
 2951      00
 2952 11be 4889CE   		movq	%rcx, %rsi
 2953 11c1 4889C7   		movq	%rax, %rdi
 2954 11c4 E8000000 		call	_ZN8UnitTest11TestDetailsC1ERKS0_i
 2954      00
 2955              		.loc 6 91 0 is_stmt 0 discriminator 2
 2956 11c9 BF000000 		movl	$_ZN12_GLOBAL__N_114macroTestList1E, %edi
 2956      00
 2957 11ce E8000000 		call	_ZNK8UnitTest8TestList7GetHeadEv
 2957      00
 2958 11d3 488B5810 		movq	16(%rax), %rbx
 2959 11d7 E8000000 		call	_ZN8UnitTest11CurrentTest7ResultsEv
 2959      00
 2960              		.loc 6 91 0 discriminator 4
 2961 11dc 488B00   		movq	(%rax), %rax
 2962 11df 488D55C0 		leaq	-64(%rbp), %rdx
 2963 11e3 4889D1   		movq	%rdx, %rcx
 2964 11e6 4889DA   		movq	%rbx, %rdx
 2965 11e9 BE000000 		movl	$.LC30, %esi
 2965      00
 2966 11ee 4889C7   		movq	%rax, %rdi
 2967 11f1 E8000000 		call	_ZN8UnitTest10CheckEqualERNS_11TestResultsEPKcS3_RKNS_11TestDetailsE
 2967      00
 2968              	.LEHE54:
 2969              	.L145:
 2970              	.LEHB55:
  92:TestTestMacros.cpp ****     CHECK_EQUAL ("DefaultSuite", macroTestList1.GetHead()->m_details.suiteName);
 2971              		.loc 6 92 0 is_stmt 1
 2972 11f6 E8000000 		call	_ZN8UnitTest11CurrentTest7DetailsEv
 2972      00
 2973 11fb 488B08   		movq	(%rax), %rcx
 2974 11fe 488D45C0 		leaq	-64(%rbp), %rax
 2975 1202 BA5C0000 		movl	$92, %edx
 2975      00
 2976 1207 4889CE   		movq	%rcx, %rsi
 2977 120a 4889C7   		movq	%rax, %rdi
 2978 120d E8000000 		call	_ZN8UnitTest11TestDetailsC1ERKS0_i
 2978      00
 2979              		.loc 6 92 0 is_stmt 0 discriminator 2
 2980 1212 BF000000 		movl	$_ZN12_GLOBAL__N_114macroTestList1E, %edi
 2980      00
 2981 1217 E8000000 		call	_ZNK8UnitTest8TestList7GetHeadEv
 2981      00
 2982 121c 488B5808 		movq	8(%rax), %rbx
 2983 1220 E8000000 		call	_ZN8UnitTest11CurrentTest7ResultsEv
 2983      00
 2984              		.loc 6 92 0 discriminator 4
 2985 1225 488B00   		movq	(%rax), %rax
 2986 1228 488D55C0 		leaq	-64(%rbp), %rdx
 2987 122c 4889D1   		movq	%rdx, %rcx
 2988 122f 4889DA   		movq	%rbx, %rdx
 2989 1232 BE000000 		movl	$.LC0, %esi
 2989      00
 2990 1237 4889C7   		movq	%rax, %rdi
 2991 123a E8000000 		call	_ZN8UnitTest10CheckEqualERNS_11TestResultsEPKcS3_RKNS_11TestDetailsE
 2991      00
 2992              	.LEHE55:
  93:TestTestMacros.cpp **** }
 2993              		.loc 6 93 0 is_stmt 1
 2994 123f E9140100 		jmp	.L140
 2994      00
 2995              	.L151:
  90:TestTestMacros.cpp ****     CHECK_EQUAL ("MacroTestHelper1", macroTestList1.GetHead()->m_details.testName);
 2996              		.loc 6 90 0
 2997 1244 4889C7   		movq	%rax, %rdi
 2998 1247 E8000000 		call	__cxa_begin_catch
 2998      00
 2999              	.LEHB56:
 3000 124c E8000000 		call	_ZN8UnitTest11CurrentTest7DetailsEv
 3000      00
 3001 1251 488B08   		movq	(%rax), %rcx
 3002 1254 488D45C0 		leaq	-64(%rbp), %rax
 3003 1258 BA5A0000 		movl	$90, %edx
 3003      00
 3004 125d 4889CE   		movq	%rcx, %rsi
 3005 1260 4889C7   		movq	%rax, %rdi
 3006 1263 E8000000 		call	_ZN8UnitTest11TestDetailsC1ERKS0_i
 3006      00
  90:TestTestMacros.cpp ****     CHECK_EQUAL ("MacroTestHelper1", macroTestList1.GetHead()->m_details.testName);
 3007              		.loc 6 90 0 is_stmt 0 discriminator 12
 3008 1268 E8000000 		call	_ZN8UnitTest11CurrentTest7ResultsEv
 3008      00
 3009 126d 488B00   		movq	(%rax), %rax
 3010 1270 488D4DC0 		leaq	-64(%rbp), %rcx
 3011 1274 BA000000 		movl	$.LC33, %edx
 3011      00
 3012 1279 4889CE   		movq	%rcx, %rsi
 3013 127c 4889C7   		movq	%rax, %rdi
 3014 127f E8000000 		call	_ZN8UnitTest11TestResults13OnTestFailureERKNS_11TestDetailsEPKc
 3014      00
 3015              	.LEHE56:
 3016              	.LEHB57:
  90:TestTestMacros.cpp ****     CHECK_EQUAL ("MacroTestHelper1", macroTestList1.GetHead()->m_details.testName);
 3017              		.loc 6 90 0 discriminator 16
 3018 1284 E8000000 		call	__cxa_end_catch
 3018      00
 3019              	.LEHE57:
 3020 1289 E91FFFFF 		jmp	.L141
 3020      FF
 3021              	.L152:
 3022 128e 4889C3   		movq	%rax, %rbx
  90:TestTestMacros.cpp ****     CHECK_EQUAL ("MacroTestHelper1", macroTestList1.GetHead()->m_details.testName);
 3023              		.loc 6 90 0
 3024 1291 E8000000 		call	__cxa_end_catch
 3024      00
 3025 1296 4889D8   		movq	%rbx, %rax
 3026 1299 4889C7   		movq	%rax, %rdi
 3027              	.LEHB58:
 3028 129c E8000000 		call	_Unwind_Resume
 3028      00
 3029              	.LEHE58:
 3030              	.L153:
  91:TestTestMacros.cpp ****     CHECK_EQUAL ("DefaultSuite", macroTestList1.GetHead()->m_details.suiteName);
 3031              		.loc 6 91 0 is_stmt 1
 3032 12a1 4889C7   		movq	%rax, %rdi
 3033 12a4 E8000000 		call	__cxa_begin_catch
 3033      00
 3034              	.LEHB59:
 3035 12a9 E8000000 		call	_ZN8UnitTest11CurrentTest7DetailsEv
 3035      00
 3036 12ae 488B08   		movq	(%rax), %rcx
 3037 12b1 488D45C0 		leaq	-64(%rbp), %rax
 3038 12b5 BA5B0000 		movl	$91, %edx
 3038      00
 3039 12ba 4889CE   		movq	%rcx, %rsi
 3040 12bd 4889C7   		movq	%rax, %rdi
 3041 12c0 E8000000 		call	_ZN8UnitTest11TestDetailsC1ERKS0_i
 3041      00
  91:TestTestMacros.cpp ****     CHECK_EQUAL ("DefaultSuite", macroTestList1.GetHead()->m_details.suiteName);
 3042              		.loc 6 91 0 is_stmt 0 discriminator 12
 3043 12c5 E8000000 		call	_ZN8UnitTest11CurrentTest7ResultsEv
 3043      00
 3044 12ca 488B00   		movq	(%rax), %rax
 3045 12cd 488D4DC0 		leaq	-64(%rbp), %rcx
 3046 12d1 BA000000 		movl	$.LC34, %edx
 3046      00
 3047 12d6 4889CE   		movq	%rcx, %rsi
 3048 12d9 4889C7   		movq	%rax, %rdi
 3049 12dc E8000000 		call	_ZN8UnitTest11TestResults13OnTestFailureERKNS_11TestDetailsEPKc
 3049      00
 3050              	.LEHE59:
 3051              	.LEHB60:
  91:TestTestMacros.cpp ****     CHECK_EQUAL ("DefaultSuite", macroTestList1.GetHead()->m_details.suiteName);
 3052              		.loc 6 91 0 discriminator 16
 3053 12e1 E8000000 		call	__cxa_end_catch
 3053      00
 3054              	.LEHE60:
 3055 12e6 E90BFFFF 		jmp	.L145
 3055      FF
 3056              	.L154:
 3057 12eb 4889C3   		movq	%rax, %rbx
  91:TestTestMacros.cpp ****     CHECK_EQUAL ("DefaultSuite", macroTestList1.GetHead()->m_details.suiteName);
 3058              		.loc 6 91 0
 3059 12ee E8000000 		call	__cxa_end_catch
 3059      00
 3060 12f3 4889D8   		movq	%rbx, %rax
 3061 12f6 4889C7   		movq	%rax, %rdi
 3062              	.LEHB61:
 3063 12f9 E8000000 		call	_Unwind_Resume
 3063      00
 3064              	.LEHE61:
 3065              	.L155:
  92:TestTestMacros.cpp **** }
 3066              		.loc 6 92 0 is_stmt 1
 3067 12fe 4889C7   		movq	%rax, %rdi
 3068 1301 E8000000 		call	__cxa_begin_catch
 3068      00
 3069              	.LEHB62:
 3070 1306 E8000000 		call	_ZN8UnitTest11CurrentTest7DetailsEv
 3070      00
 3071 130b 488B08   		movq	(%rax), %rcx
 3072 130e 488D45C0 		leaq	-64(%rbp), %rax
 3073 1312 BA5C0000 		movl	$92, %edx
 3073      00
 3074 1317 4889CE   		movq	%rcx, %rsi
 3075 131a 4889C7   		movq	%rax, %rdi
 3076 131d E8000000 		call	_ZN8UnitTest11TestDetailsC1ERKS0_i
 3076      00
  92:TestTestMacros.cpp **** }
 3077              		.loc 6 92 0 is_stmt 0 discriminator 12
 3078 1322 E8000000 		call	_ZN8UnitTest11CurrentTest7ResultsEv
 3078      00
 3079 1327 488B00   		movq	(%rax), %rax
 3080 132a 488D4DC0 		leaq	-64(%rbp), %rcx
 3081 132e BA000000 		movl	$.LC35, %edx
 3081      00
 3082 1333 4889CE   		movq	%rcx, %rsi
 3083 1336 4889C7   		movq	%rax, %rdi
 3084 1339 E8000000 		call	_ZN8UnitTest11TestResults13OnTestFailureERKNS_11TestDetailsEPKc
 3084      00
 3085              	.LEHE62:
 3086              	.LEHB63:
  92:TestTestMacros.cpp **** }
 3087              		.loc 6 92 0 discriminator 16
 3088 133e E8000000 		call	__cxa_end_catch
 3088      00
 3089              	.LEHE63:
 3090              		.loc 6 93 0 is_stmt 1 discriminator 16
 3091 1343 EB13     		jmp	.L140
 3092              	.L156:
 3093 1345 4889C3   		movq	%rax, %rbx
  92:TestTestMacros.cpp **** }
 3094              		.loc 6 92 0
 3095 1348 E8000000 		call	__cxa_end_catch
 3095      00
 3096 134d 4889D8   		movq	%rbx, %rax
 3097 1350 4889C7   		movq	%rax, %rdi
 3098              	.LEHB64:
 3099 1353 E8000000 		call	_Unwind_Resume
 3099      00
 3100              	.LEHE64:
 3101              	.L140:
 3102              		.loc 6 93 0
 3103 1358 488B45E8 		movq	-24(%rbp), %rax
 3104 135c 64483304 		xorq	%fs:40, %rax
 3104      25280000 
 3104      00
 3105 1365 7405     		je	.L150
 3106 1367 E8000000 		call	__stack_chk_fail
 3106      00
 3107              	.L150:
 3108 136c 4883C448 		addq	$72, %rsp
 3109 1370 5B       		popq	%rbx
 3110 1371 5D       		popq	%rbp
 3111              		.cfi_def_cfa 7, 8
 3112 1372 C3       		ret
 3113              		.cfi_endproc
 3114              	.LFE1147:
 3115              		.section	.gcc_except_table
 3116              		.align 4
 3117              	.LLSDA1147:
 3118 016c FF       		.byte	0xff
 3119 016d 03       		.byte	0x3
 3120 016e 49       		.uleb128 .LLSDATT1147-.LLSDATTD1147
 3121              	.LLSDATTD1147:
 3122 016f 01       		.byte	0x1
 3123 0170 40       		.uleb128 .LLSDACSE1147-.LLSDACSB1147
 3124              	.LLSDACSB1147:
 3125 0171 21       		.uleb128 .LEHB53-.LFB1147
 3126 0172 54       		.uleb128 .LEHE53-.LEHB53
 3127 0173 8C02     		.uleb128 .L151-.LFB1147
 3128 0175 01       		.uleb128 0x1
 3129 0176 75       		.uleb128 .LEHB54-.LFB1147
 3130 0177 49       		.uleb128 .LEHE54-.LEHB54
 3131 0178 E902     		.uleb128 .L153-.LFB1147
 3132 017a 01       		.uleb128 0x1
 3133 017b BE01     		.uleb128 .LEHB55-.LFB1147
 3134 017d 49       		.uleb128 .LEHE55-.LEHB55
 3135 017e C603     		.uleb128 .L155-.LFB1147
 3136 0180 01       		.uleb128 0x1
 3137 0181 9402     		.uleb128 .LEHB56-.LFB1147
 3138 0183 38       		.uleb128 .LEHE56-.LEHB56
 3139 0184 D602     		.uleb128 .L152-.LFB1147
 3140 0186 00       		.uleb128 0
 3141 0187 CC02     		.uleb128 .LEHB57-.LFB1147
 3142 0189 05       		.uleb128 .LEHE57-.LEHB57
 3143 018a 00       		.uleb128 0
 3144 018b 00       		.uleb128 0
 3145 018c E402     		.uleb128 .LEHB58-.LFB1147
 3146 018e 05       		.uleb128 .LEHE58-.LEHB58
 3147 018f 00       		.uleb128 0
 3148 0190 00       		.uleb128 0
 3149 0191 F102     		.uleb128 .LEHB59-.LFB1147
 3150 0193 38       		.uleb128 .LEHE59-.LEHB59
 3151 0194 B303     		.uleb128 .L154-.LFB1147
 3152 0196 00       		.uleb128 0
 3153 0197 A903     		.uleb128 .LEHB60-.LFB1147
 3154 0199 05       		.uleb128 .LEHE60-.LEHB60
 3155 019a 00       		.uleb128 0
 3156 019b 00       		.uleb128 0
 3157 019c C103     		.uleb128 .LEHB61-.LFB1147
 3158 019e 05       		.uleb128 .LEHE61-.LEHB61
 3159 019f 00       		.uleb128 0
 3160 01a0 00       		.uleb128 0
 3161 01a1 CE03     		.uleb128 .LEHB62-.LFB1147
 3162 01a3 38       		.uleb128 .LEHE62-.LEHB62
 3163 01a4 8D04     		.uleb128 .L156-.LFB1147
 3164 01a6 00       		.uleb128 0
 3165 01a7 8604     		.uleb128 .LEHB63-.LFB1147
 3166 01a9 05       		.uleb128 .LEHE63-.LEHB63
 3167 01aa 00       		.uleb128 0
 3168 01ab 00       		.uleb128 0
 3169 01ac 9B04     		.uleb128 .LEHB64-.LFB1147
 3170 01ae 05       		.uleb128 .LEHE64-.LEHB64
 3171 01af 00       		.uleb128 0
 3172 01b0 00       		.uleb128 0
 3173              	.LLSDACSE1147:
 3174 01b1 01       		.byte	0x1
 3175 01b2 00       		.byte	0
 3176 01b3 00       		.align 4
 3177 01b4 00000000 		.long	0
 3178              	
 3179              	.LLSDATT1147:
 3180              		.text
 3182              		.local	_ZN12_GLOBAL__N_114macroTestList2E
 3183              		.comm	_ZN12_GLOBAL__N_114macroTestList2E,16,16
 3184 1373 90       		.align 2
 3186              	_ZN12_GLOBAL__N_134DummyFixtureMacroTestHelper2HelperC2ERKN8UnitTest11TestDetailsE:
 3187              	.LFB1149:
  94:TestTestMacros.cpp **** 
  95:TestTestMacros.cpp **** TestList macroTestList2;
  96:TestTestMacros.cpp **** TEST_FIXTURE_EX(DummyFixture, MacroTestHelper2, macroTestList2)
 3188              		.loc 6 96 0
 3189              		.cfi_startproc
 3190 1374 55       		pushq	%rbp
 3191              		.cfi_def_cfa_offset 16
 3192              		.cfi_offset 6, -16
 3193 1375 4889E5   		movq	%rsp, %rbp
 3194              		.cfi_def_cfa_register 6
 3195 1378 4883EC10 		subq	$16, %rsp
 3196 137c 48897DF8 		movq	%rdi, -8(%rbp)
 3197 1380 488975F0 		movq	%rsi, -16(%rbp)
 3198              	.LBB45:
 3199              		.loc 6 96 0
 3200 1384 488B45F8 		movq	-8(%rbp), %rax
 3201 1388 4889C7   		movq	%rax, %rdi
 3202 138b E816F6FF 		call	_ZN12_GLOBAL__N_112DummyFixtureC2Ev
 3202      FF
 3203 1390 488B45F8 		movq	-8(%rbp), %rax
 3204 1394 488B55F0 		movq	-16(%rbp), %rdx
 3205 1398 48895008 		movq	%rdx, 8(%rax)
 3206              	.LBE45:
 3207 139c 90       		nop
 3208 139d C9       		leave
 3209              		.cfi_def_cfa 7, 8
 3210 139e C3       		ret
 3211              		.cfi_endproc
 3212              	.LFE1149:
 3214              		.set	_ZN12_GLOBAL__N_134DummyFixtureMacroTestHelper2HelperC1ERKN8UnitTest11TestDetailsE,_ZN12_GLOB
 3215              		.section	.rodata
 3216              	.LC36:
 3217 05f2 4D616372 		.string	"MacroTestHelper2"
 3217      6F546573 
 3217      7448656C 
 3217      70657232 
 3217      00
 3218              		.text
 3219 139f 90       		.align 2
 3221              	_ZN12_GLOBAL__N_132TestDummyFixtureMacroTestHelper2C2Ev:
 3222              	.LFB1152:
 3223              		.loc 6 96 0
 3224              		.cfi_startproc
 3225 13a0 55       		pushq	%rbp
 3226              		.cfi_def_cfa_offset 16
 3227              		.cfi_offset 6, -16
 3228 13a1 4889E5   		movq	%rsp, %rbp
 3229              		.cfi_def_cfa_register 6
 3230 13a4 4883EC10 		subq	$16, %rsp
 3231 13a8 48897DF8 		movq	%rdi, -8(%rbp)
 3232              	.LBB46:
 3233              		.loc 6 96 0
 3234 13ac E8000000 		call	_ZN13UnitTestSuite12GetSuiteNameEv
 3234      00
 3235 13b1 4889C2   		movq	%rax, %rdx
 3236 13b4 488B45F8 		movq	-8(%rbp), %rax
 3237 13b8 41B86000 		movl	$96, %r8d
 3237      0000
 3238 13be B9000000 		movl	$.LC2, %ecx
 3238      00
 3239 13c3 BE000000 		movl	$.LC36, %esi
 3239      00
 3240 13c8 4889C7   		movq	%rax, %rdi
 3241 13cb E8000000 		call	_ZN8UnitTest4TestC2EPKcS2_S2_i
 3241      00
 3242 13d0 BA000000 		movl	$_ZTVN12_GLOBAL__N_132TestDummyFixtureMacroTestHelper2E+16, %edx
 3242      00
 3243 13d5 488B45F8 		movq	-8(%rbp), %rax
 3244 13d9 488910   		movq	%rdx, (%rax)
 3245              	.LBE46:
 3246 13dc 90       		nop
 3247 13dd C9       		leave
 3248              		.cfi_def_cfa 7, 8
 3249 13de C3       		ret
 3250              		.cfi_endproc
 3251              	.LFE1152:
 3253              		.set	_ZN12_GLOBAL__N_132TestDummyFixtureMacroTestHelper2C1Ev,_ZN12_GLOBAL__N_132TestDummyFixtureMa
 3254              		.local	_ZN12_GLOBAL__N_140testDummyFixtureMacroTestHelper2InstanceE
 3255              		.comm	_ZN12_GLOBAL__N_140testDummyFixtureMacroTestHelper2InstanceE,56,32
 3256              		.local	_ZN12_GLOBAL__N_133adderDummyFixtureMacroTestHelper2E
 3257              		.comm	_ZN12_GLOBAL__N_133adderDummyFixtureMacroTestHelper2E,1,1
 3258 13df 90       		.align 2
 3260              	_ZNK12_GLOBAL__N_132TestDummyFixtureMacroTestHelper27RunImplEv:
 3261              	.LFB1154:
 3262              		.loc 6 96 0
 3263              		.cfi_startproc
 3264              		.cfi_personality 0x3,__gxx_personality_v0
 3265              		.cfi_lsda 0x3,.LLSDA1154
 3266 13e0 55       		pushq	%rbp
 3267              		.cfi_def_cfa_offset 16
 3268              		.cfi_offset 6, -16
 3269 13e1 4889E5   		movq	%rsp, %rbp
 3270              		.cfi_def_cfa_register 6
 3271 13e4 4154     		pushq	%r12
 3272 13e6 53       		pushq	%rbx
 3273 13e7 4881ECF0 		subq	$496, %rsp
 3273      010000
 3274              		.cfi_offset 12, -24
 3275              		.cfi_offset 3, -32
 3276 13ee 4889BD08 		movq	%rdi, -504(%rbp)
 3276      FEFFFF
 3277              		.loc 6 96 0
 3278 13f5 64488B04 		movq	%fs:40, %rax
 3278      25280000 
 3278      00
 3279 13fe 488945E8 		movq	%rax, -24(%rbp)
 3280 1402 31C0     		xorl	%eax, %eax
 3281 1404 C6851FFE 		movb	$0, -481(%rbp)
 3281      FFFF00
 3282              	.LBB47:
 3283 140b 488B8508 		movq	-504(%rbp), %rax
 3283      FEFFFF
 3284 1412 488D5008 		leaq	8(%rax), %rdx
 3285 1416 488D8530 		leaq	-464(%rbp), %rax
 3285      FEFFFF
 3286 141d 4889D6   		movq	%rdx, %rsi
 3287 1420 4889C7   		movq	%rax, %rdi
 3288 1423 E84CFFFF 		call	_ZN12_GLOBAL__N_134DummyFixtureMacroTestHelper2HelperC1ERKN8UnitTest11TestDetailsE
 3288      FF
 3289 1428 C6851FFE 		movb	$1, -481(%rbp)
 3289      FFFF01
 3290 142f 488B8508 		movq	-504(%rbp), %rax
 3290      FEFFFF
 3291 1436 488D5008 		leaq	8(%rax), %rdx
 3292 143a 488D8530 		leaq	-464(%rbp), %rax
 3292      FEFFFF
 3293 1441 4889D6   		movq	%rdx, %rsi
 3294 1444 4889C7   		movq	%rax, %rdi
 3295              	.LEHB65:
 3296 1447 E8352300 		call	_ZN8UnitTest11ExecuteTestIN12_GLOBAL__N_134DummyFixtureMacroTestHelper2HelperEEEvRT_RKNS_11Te
 3296      00
 3297              	.LEHE65:
 3298              	.LBE47:
 3299 144c E9490200 		jmp	.L159
 3299      00
 3300              	.L172:
 3301 1451 4883FA01 		cmpq	$1, %rdx
 3302 1455 740F     		je	.L162
 3303 1457 4883FA02 		cmpq	$2, %rdx
 3304 145b 0F84A700 		je	.L163
 3304      0000
 3305 1461 E94B0100 		jmp	.L177
 3305      00
 3306              	.L162:
 3307              	.LBB48:
 3308 1466 4889C7   		movq	%rax, %rdi
 3309 1469 E8000000 		call	__cxa_begin_catch
 3309      00
 3310 146e 48898520 		movq	%rax, -480(%rbp)
 3310      FEFFFF
 3311 1475 488B8520 		movq	-480(%rbp), %rax
 3311      FEFFFF
 3312 147c 488B00   		movq	(%rax), %rax
 3313 147f 4883C010 		addq	$16, %rax
 3314 1483 488B00   		movq	(%rax), %rax
 3315 1486 488B9520 		movq	-480(%rbp), %rdx
 3315      FEFFFF
 3316 148d 4889D7   		movq	%rdx, %rdi
 3317 1490 FFD0     		call	*%rax
 3318 1492 4889C3   		movq	%rax, %rbx
 3319 1495 488B8520 		movq	-480(%rbp), %rax
 3319      FEFFFF
 3320 149c 4889C7   		movq	%rax, %rdi
 3321              	.LEHB66:
 3322 149f E8000000 		call	_ZNK8UnitTest15AssertException10LineNumberEv
 3322      00
 3323 14a4 4189C4   		movl	%eax, %r12d
 3324 14a7 488B8520 		movq	-480(%rbp), %rax
 3324      FEFFFF
 3325 14ae 4889C7   		movq	%rax, %rdi
 3326 14b1 E8000000 		call	_ZNK8UnitTest15AssertException8FilenameEv
 3326      00
 3327              		.loc 6 96 0 is_stmt 0 discriminator 2
 3328 14b6 4889C1   		movq	%rax, %rcx
 3329 14b9 488B8508 		movq	-504(%rbp), %rax
 3329      FEFFFF
 3330 14c0 488B5008 		movq	8(%rax), %rdx
 3331 14c4 488B8508 		movq	-504(%rbp), %rax
 3331      FEFFFF
 3332 14cb 488B7010 		movq	16(%rax), %rsi
 3333 14cf 488D8530 		leaq	-464(%rbp), %rax
 3333      FEFFFF
 3334 14d6 4589E0   		movl	%r12d, %r8d
 3335 14d9 4889C7   		movq	%rax, %rdi
 3336 14dc E8000000 		call	_ZN8UnitTest11TestDetailsC1EPKcS2_S2_i
 3336      00
 3337              		.loc 6 96 0 discriminator 6
 3338 14e1 E8000000 		call	_ZN8UnitTest11CurrentTest7ResultsEv
 3338      00
 3339 14e6 488B00   		movq	(%rax), %rax
 3340 14e9 488D8D30 		leaq	-464(%rbp), %rcx
 3340      FEFFFF
 3341 14f0 4889DA   		movq	%rbx, %rdx
 3342 14f3 4889CE   		movq	%rcx, %rsi
 3343 14f6 4889C7   		movq	%rax, %rdi
 3344 14f9 E8000000 		call	_ZN8UnitTest11TestResults13OnTestFailureERKNS_11TestDetailsEPKc
 3344      00
 3345              	.LEHE66:
 3346              		.loc 6 96 0 discriminator 10
 3347 14fe E8000000 		call	__cxa_end_catch
 3347      00
 3348              	.LBE48:
 3349 1503 E9920100 		jmp	.L159
 3349      00
 3350              	.L163:
 3351              	.LBB49:
 3352              		.loc 6 96 0
 3353 1508 4889C7   		movq	%rax, %rdi
 3354 150b E8000000 		call	__cxa_begin_catch
 3354      00
 3355 1510 48898528 		movq	%rax, -472(%rbp)
 3355      FEFFFF
 3356              	.LBB50:
 3357 1517 488D8550 		leaq	-432(%rbp), %rax
 3357      FEFFFF
 3358 151e 4889C7   		movq	%rax, %rdi
 3359              	.LEHB67:
 3360 1521 E8000000 		call	_ZN8UnitTest15MemoryOutStreamC1Ev
 3360      00
 3361              	.LEHE67:
 3362              		.loc 6 96 0 discriminator 12
 3363 1526 488B8528 		movq	-472(%rbp), %rax
 3363      FEFFFF
 3364 152d 488B00   		movq	(%rax), %rax
 3365 1530 4883C010 		addq	$16, %rax
 3366 1534 488B00   		movq	(%rax), %rax
 3367 1537 488B9528 		movq	-472(%rbp), %rdx
 3367      FEFFFF
 3368 153e 4889D7   		movq	%rdx, %rdi
 3369 1541 FFD0     		call	*%rax
 3370 1543 4889C3   		movq	%rax, %rbx
 3371 1546 488D8550 		leaq	-432(%rbp), %rax
 3371      FEFFFF
 3372 154d BE000000 		movl	$.LC11, %esi
 3372      00
 3373 1552 4889C7   		movq	%rax, %rdi
 3374              	.LEHB68:
 3375 1555 E8000000 		call	_ZStlsISt11char_traitsIcEERSt13basic_ostreamIcT_ES5_PKc
 3375      00
 3376 155a 4889DE   		movq	%rbx, %rsi
 3377 155d 4889C7   		movq	%rax, %rdi
 3378 1560 E8000000 		call	_ZStlsISt11char_traitsIcEERSt13basic_ostreamIcT_ES5_PKc
 3378      00
 3379              		.loc 6 96 0 discriminator 16
 3380 1565 488D8550 		leaq	-432(%rbp), %rax
 3380      FEFFFF
 3381 156c 4889C7   		movq	%rax, %rdi
 3382 156f E8000000 		call	_ZNK8UnitTest15MemoryOutStream7GetTextEv
 3382      00
 3383 1574 4989C4   		movq	%rax, %r12
 3384 1577 488B8508 		movq	-504(%rbp), %rax
 3384      FEFFFF
 3385 157e 488D5808 		leaq	8(%rax), %rbx
 3386 1582 E8000000 		call	_ZN8UnitTest11CurrentTest7ResultsEv
 3386      00
 3387              		.loc 6 96 0 discriminator 18
 3388 1587 488B00   		movq	(%rax), %rax
 3389 158a 4C89E2   		movq	%r12, %rdx
 3390 158d 4889DE   		movq	%rbx, %rsi
 3391 1590 4889C7   		movq	%rax, %rdi
 3392 1593 E8000000 		call	_ZN8UnitTest11TestResults13OnTestFailureERKNS_11TestDetailsEPKc
 3392      00
 3393              	.LEHE68:
 3394              		.loc 6 96 0 discriminator 22
 3395 1598 488D8550 		leaq	-432(%rbp), %rax
 3395      FEFFFF
 3396 159f 4889C7   		movq	%rax, %rdi
 3397              	.LEHB69:
 3398 15a2 E8000000 		call	_ZN8UnitTest15MemoryOutStreamD1Ev
 3398      00
 3399              	.LEHE69:
 3400              	.LBE50:
 3401              		.loc 6 96 0 discriminator 23
 3402 15a7 E8000000 		call	__cxa_end_catch
 3402      00
 3403              	.LBE49:
 3404 15ac E9E90000 		jmp	.L159
 3404      00
 3405              	.L177:
 3406              		.loc 6 96 0
 3407 15b1 4889C7   		movq	%rax, %rdi
 3408 15b4 E8000000 		call	__cxa_begin_catch
 3408      00
 3409 15b9 80BD1FFE 		cmpb	$0, -481(%rbp)
 3409      FFFF00
 3410 15c0 7443     		je	.L165
 3411              		.loc 6 96 0 discriminator 25
 3412 15c2 488B8508 		movq	-504(%rbp), %rax
 3412      FEFFFF
 3413 15c9 488D4808 		leaq	8(%rax), %rcx
 3414 15cd 488D8530 		leaq	-464(%rbp), %rax
 3414      FEFFFF
 3415 15d4 BA600000 		movl	$96, %edx
 3415      00
 3416 15d9 4889CE   		movq	%rcx, %rsi
 3417 15dc 4889C7   		movq	%rax, %rdi
 3418              	.LEHB70:
 3419 15df E8000000 		call	_ZN8UnitTest11TestDetailsC1ERKS0_i
 3419      00
 3420              		.loc 6 96 0 discriminator 28
 3421 15e4 E8000000 		call	_ZN8UnitTest11CurrentTest7ResultsEv
 3421      00
 3422 15e9 488B00   		movq	(%rax), %rax
 3423 15ec 488D8D30 		leaq	-464(%rbp), %rcx
 3423      FEFFFF
 3424 15f3 BA000000 		movl	$.LC27, %edx
 3424      00
 3425 15f8 4889CE   		movq	%rcx, %rsi
 3426 15fb 4889C7   		movq	%rax, %rdi
 3427 15fe E8000000 		call	_ZN8UnitTest11TestResults13OnTestFailureERKNS_11TestDetailsEPKc
 3427      00
 3428 1603 EB41     		jmp	.L166
 3429              	.L165:
 3430              		.loc 6 96 0 discriminator 26
 3431 1605 488B8508 		movq	-504(%rbp), %rax
 3431      FEFFFF
 3432 160c 488D4808 		leaq	8(%rax), %rcx
 3433 1610 488D8530 		leaq	-464(%rbp), %rax
 3433      FEFFFF
 3434 1617 BA600000 		movl	$96, %edx
 3434      00
 3435 161c 4889CE   		movq	%rcx, %rsi
 3436 161f 4889C7   		movq	%rax, %rdi
 3437 1622 E8000000 		call	_ZN8UnitTest11TestDetailsC1ERKS0_i
 3437      00
 3438              		.loc 6 96 0 discriminator 35
 3439 1627 E8000000 		call	_ZN8UnitTest11CurrentTest7ResultsEv
 3439      00
 3440 162c 488B00   		movq	(%rax), %rax
 3441 162f 488D8D30 		leaq	-464(%rbp), %rcx
 3441      FEFFFF
 3442 1636 BA000000 		movl	$.LC28, %edx
 3442      00
 3443 163b 4889CE   		movq	%rcx, %rsi
 3444 163e 4889C7   		movq	%rax, %rdi
 3445 1641 E8000000 		call	_ZN8UnitTest11TestResults13OnTestFailureERKNS_11TestDetailsEPKc
 3445      00
 3446              	.LEHE70:
 3447              	.L166:
 3448              	.LEHB71:
 3449              		.loc 6 96 0 discriminator 40
 3450 1646 E8000000 		call	__cxa_end_catch
 3450      00
 3451 164b EB4D     		jmp	.L159
 3452              	.L173:
 3453 164d 4889C3   		movq	%rax, %rbx
 3454              	.LBB52:
 3455              		.loc 6 96 0
 3456 1650 E8000000 		call	__cxa_end_catch
 3456      00
 3457 1655 4889D8   		movq	%rbx, %rax
 3458 1658 4889C7   		movq	%rax, %rdi
 3459 165b E8000000 		call	_Unwind_Resume
 3459      00
 3460              	.LEHE71:
 3461              	.L175:
 3462 1660 4889C3   		movq	%rax, %rbx
 3463              	.LBE52:
 3464              	.LBB53:
 3465              	.LBB51:
 3466 1663 488D8550 		leaq	-432(%rbp), %rax
 3466      FEFFFF
 3467 166a 4889C7   		movq	%rax, %rdi
 3468 166d E8000000 		call	_ZN8UnitTest15MemoryOutStreamD1Ev
 3468      00
 3469 1672 EB03     		jmp	.L169
 3470              	.L174:
 3471 1674 4889C3   		movq	%rax, %rbx
 3472              	.L169:
 3473              	.LBE51:
 3474 1677 E8000000 		call	__cxa_end_catch
 3474      00
 3475 167c 4889D8   		movq	%rbx, %rax
 3476 167f 4889C7   		movq	%rax, %rdi
 3477              	.LEHB72:
 3478 1682 E8000000 		call	_Unwind_Resume
 3478      00
 3479              	.LEHE72:
 3480              	.L176:
 3481 1687 4889C3   		movq	%rax, %rbx
 3482              	.LBE53:
 3483 168a E8000000 		call	__cxa_end_catch
 3483      00
 3484 168f 4889D8   		movq	%rbx, %rax
 3485 1692 4889C7   		movq	%rax, %rdi
 3486              	.LEHB73:
 3487 1695 E8000000 		call	_Unwind_Resume
 3487      00
 3488              	.LEHE73:
 3489              	.L159:
 3490 169a 488B45E8 		movq	-24(%rbp), %rax
 3491 169e 64483304 		xorq	%fs:40, %rax
 3491      25280000 
 3491      00
 3492 16a7 7405     		je	.L171
 3493 16a9 E8000000 		call	__stack_chk_fail
 3493      00
 3494              	.L171:
 3495 16ae 4881C4F0 		addq	$496, %rsp
 3495      010000
 3496 16b5 5B       		popq	%rbx
 3497 16b6 415C     		popq	%r12
 3498 16b8 5D       		popq	%rbp
 3499              		.cfi_def_cfa 7, 8
 3500 16b9 C3       		ret
 3501              		.cfi_endproc
 3502              	.LFE1154:
 3503              		.section	.gcc_except_table
 3504              		.align 4
 3505              	.LLSDA1154:
 3506 01b8 FF       		.byte	0xff
 3507 01b9 03       		.byte	0x3
 3508 01ba 45       		.uleb128 .LLSDATT1154-.LLSDATTD1154
 3509              	.LLSDATTD1154:
 3510 01bb 01       		.byte	0x1
 3511 01bc 31       		.uleb128 .LLSDACSE1154-.LLSDACSB1154
 3512              	.LLSDACSB1154:
 3513 01bd 67       		.uleb128 .LEHB65-.LFB1154
 3514 01be 05       		.uleb128 .LEHE65-.LEHB65
 3515 01bf 71       		.uleb128 .L172-.LFB1154
 3516 01c0 05       		.uleb128 0x5
 3517 01c1 BF01     		.uleb128 .LEHB66-.LFB1154
 3518 01c3 5F       		.uleb128 .LEHE66-.LEHB66
 3519 01c4 ED04     		.uleb128 .L173-.LFB1154
 3520 01c6 00       		.uleb128 0
 3521 01c7 C102     		.uleb128 .LEHB67-.LFB1154
 3522 01c9 05       		.uleb128 .LEHE67-.LEHB67
 3523 01ca 9405     		.uleb128 .L174-.LFB1154
 3524 01cc 00       		.uleb128 0
 3525 01cd F502     		.uleb128 .LEHB68-.LFB1154
 3526 01cf 43       		.uleb128 .LEHE68-.LEHB68
 3527 01d0 8005     		.uleb128 .L175-.LFB1154
 3528 01d2 00       		.uleb128 0
 3529 01d3 C203     		.uleb128 .LEHB69-.LFB1154
 3530 01d5 05       		.uleb128 .LEHE69-.LEHB69
 3531 01d6 9405     		.uleb128 .L174-.LFB1154
 3532 01d8 00       		.uleb128 0
 3533 01d9 FF03     		.uleb128 .LEHB70-.LFB1154
 3534 01db 67       		.uleb128 .LEHE70-.LEHB70
 3535 01dc A705     		.uleb128 .L176-.LFB1154
 3536 01de 00       		.uleb128 0
 3537 01df E604     		.uleb128 .LEHB71-.LFB1154
 3538 01e1 1A       		.uleb128 .LEHE71-.LEHB71
 3539 01e2 00       		.uleb128 0
 3540 01e3 00       		.uleb128 0
 3541 01e4 A205     		.uleb128 .LEHB72-.LFB1154
 3542 01e6 05       		.uleb128 .LEHE72-.LEHB72
 3543 01e7 00       		.uleb128 0
 3544 01e8 00       		.uleb128 0
 3545 01e9 B505     		.uleb128 .LEHB73-.LFB1154
 3546 01eb 05       		.uleb128 .LEHE73-.LEHB73
 3547 01ec 00       		.uleb128 0
 3548 01ed 00       		.uleb128 0
 3549              	.LLSDACSE1154:
 3550 01ee 03       		.byte	0x3
 3551 01ef 00       		.byte	0
 3552 01f0 02       		.byte	0x2
 3553 01f1 7D       		.byte	0x7d
 3554 01f2 01       		.byte	0x1
 3555 01f3 7D       		.byte	0x7d
 3556              		.align 4
 3557 01f4 00000000 		.long	0
 3558              	
 3559 01f8 00000000 		.long	_ZTISt9exception
 3560 01fc 00000000 		.long	_ZTIN8UnitTest15AssertExceptionE
 3561              	.LLSDATT1154:
 3562              		.text
 3564              		.align 2
 3566              	_ZN12_GLOBAL__N_134DummyFixtureMacroTestHelper2Helper7RunImplEv:
 3567              	.LFB1155:
  97:TestTestMacros.cpp **** {
 3568              		.loc 6 97 0 is_stmt 1
 3569              		.cfi_startproc
 3570 16ba 55       		pushq	%rbp
 3571              		.cfi_def_cfa_offset 16
 3572              		.cfi_offset 6, -16
 3573 16bb 4889E5   		movq	%rsp, %rbp
 3574              		.cfi_def_cfa_register 6
 3575 16be 48897DF8 		movq	%rdi, -8(%rbp)
  98:TestTestMacros.cpp **** }
 3576              		.loc 6 98 0
 3577 16c2 90       		nop
 3578 16c3 5D       		popq	%rbp
 3579              		.cfi_def_cfa 7, 8
 3580 16c4 C3       		ret
 3581              		.cfi_endproc
 3582              	.LFE1155:
 3584              		.section	.rodata
 3585 0603 00000000 		.align 8
 3585      00
 3586              	.LC37:
 3587 0608 54657374 		.string	"TestAddedWithTEST_FIXTURE_EXMacroGetsDefaultSuite"
 3587      41646465 
 3587      64576974 
 3587      68544553 
 3587      545F4649 
 3588              		.text
 3589 16c5 90       		.align 2
 3591              	_ZN12_GLOBAL__N_153TestTestAddedWithTEST_FIXTURE_EXMacroGetsDefaultSuiteC2Ev:
 3592              	.LFB1157:
  99:TestTestMacros.cpp **** 
 100:TestTestMacros.cpp **** TEST(TestAddedWithTEST_FIXTURE_EXMacroGetsDefaultSuite)
 3593              		.loc 6 100 0
 3594              		.cfi_startproc
 3595 16c6 55       		pushq	%rbp
 3596              		.cfi_def_cfa_offset 16
 3597              		.cfi_offset 6, -16
 3598 16c7 4889E5   		movq	%rsp, %rbp
 3599              		.cfi_def_cfa_register 6
 3600 16ca 4883EC10 		subq	$16, %rsp
 3601 16ce 48897DF8 		movq	%rdi, -8(%rbp)
 3602              	.LBB54:
 3603              		.loc 6 100 0
 3604 16d2 E8000000 		call	_ZN13UnitTestSuite12GetSuiteNameEv
 3604      00
 3605 16d7 4889C2   		movq	%rax, %rdx
 3606 16da 488B45F8 		movq	-8(%rbp), %rax
 3607 16de 41B86400 		movl	$100, %r8d
 3607      0000
 3608 16e4 B9000000 		movl	$.LC2, %ecx
 3608      00
 3609 16e9 BE000000 		movl	$.LC37, %esi
 3609      00
 3610 16ee 4889C7   		movq	%rax, %rdi
 3611 16f1 E8000000 		call	_ZN8UnitTest4TestC2EPKcS2_S2_i
 3611      00
 3612 16f6 BA000000 		movl	$_ZTVN12_GLOBAL__N_153TestTestAddedWithTEST_FIXTURE_EXMacroGetsDefaultSuiteE+16, %edx
 3612      00
 3613 16fb 488B45F8 		movq	-8(%rbp), %rax
 3614 16ff 488910   		movq	%rdx, (%rax)
 3615              	.LBE54:
 3616 1702 90       		nop
 3617 1703 C9       		leave
 3618              		.cfi_def_cfa 7, 8
 3619 1704 C3       		ret
 3620              		.cfi_endproc
 3621              	.LFE1157:
 3623              		.set	_ZN12_GLOBAL__N_153TestTestAddedWithTEST_FIXTURE_EXMacroGetsDefaultSuiteC1Ev,_ZN12_GLOBAL__N_
 3624              		.local	_ZN12_GLOBAL__N_161testTestAddedWithTEST_FIXTURE_EXMacroGetsDefaultSuiteInstanceE
 3625              		.comm	_ZN12_GLOBAL__N_161testTestAddedWithTEST_FIXTURE_EXMacroGetsDefaultSuiteInstanceE,56,32
 3626              		.local	_ZN12_GLOBAL__N_154adderTestAddedWithTEST_FIXTURE_EXMacroGetsDefaultSuiteE
 3627              		.comm	_ZN12_GLOBAL__N_154adderTestAddedWithTEST_FIXTURE_EXMacroGetsDefaultSuiteE,1,1
 3628              		.section	.rodata
 3629 063a 00000000 		.align 8
 3629      0000
 3630              	.LC38:
 3631 0640 6D616372 		.string	"macroTestList2.GetHead() != NULL"
 3631      6F546573 
 3631      744C6973 
 3631      74322E47 
 3631      65744865 
 3632 0661 00000000 		.align 8
 3632      000000
 3633              	.LC39:
 3634 0668 556E6861 		.string	"Unhandled exception in CHECK(macroTestList2.GetHead() != NULL)"
 3634      6E646C65 
 3634      64206578 
 3634      63657074 
 3634      696F6E20 
 3635 06a7 00       		.align 8
 3636              	.LC40:
 3637 06a8 556E6861 		.string	"Unhandled exception in CHECK_EQUAL(\"MacroTestHelper2\", macroTestList2.GetHead()->m_deta
 3637      6E646C65 
 3637      64206578 
 3637      63657074 
 3637      696F6E20 
 3638 070d 000000   		.align 8
 3639              	.LC41:
 3640 0710 556E6861 		.string	"Unhandled exception in CHECK_EQUAL(\"DefaultSuite\", macroTestList2.GetHead()->m_details.
 3640      6E646C65 
 3640      64206578 
 3640      63657074 
 3640      696F6E20 
 3641              		.text
 3642 1705 90       		.align 2
 3644              	_ZNK12_GLOBAL__N_153TestTestAddedWithTEST_FIXTURE_EXMacroGetsDefaultSuite7RunImplEv:
 3645              	.LFB1159:
 101:TestTestMacros.cpp **** {
 3646              		.loc 6 101 0
 3647              		.cfi_startproc
 3648              		.cfi_personality 0x3,__gxx_personality_v0
 3649              		.cfi_lsda 0x3,.LLSDA1159
 3650 1706 55       		pushq	%rbp
 3651              		.cfi_def_cfa_offset 16
 3652              		.cfi_offset 6, -16
 3653 1707 4889E5   		movq	%rsp, %rbp
 3654              		.cfi_def_cfa_register 6
 3655 170a 53       		pushq	%rbx
 3656 170b 4883EC48 		subq	$72, %rsp
 3657              		.cfi_offset 3, -24
 3658 170f 48897DB8 		movq	%rdi, -72(%rbp)
 3659              		.loc 6 101 0
 3660 1713 64488B04 		movq	%fs:40, %rax
 3660      25280000 
 3660      00
 3661 171c 488945E8 		movq	%rax, -24(%rbp)
 3662 1720 31C0     		xorl	%eax, %eax
 102:TestTestMacros.cpp ****     CHECK(macroTestList2.GetHead() != NULL);
 3663              		.loc 6 102 0
 3664 1722 BF000000 		movl	$_ZN12_GLOBAL__N_114macroTestList2E, %edi
 3664      00
 3665              	.LEHB74:
 3666 1727 E8000000 		call	_ZNK8UnitTest8TestList7GetHeadEv
 3666      00
 3667 172c 4885C0   		testq	%rax, %rax
 3668 172f 0F95C0   		setne	%al
 3669 1732 0FB6C0   		movzbl	%al, %eax
 3670 1735 89C7     		movl	%eax, %edi
 3671 1737 E8000000 		call	_ZN8UnitTest5CheckIbEEbT_
 3671      00
 3672 173c 83F001   		xorl	$1, %eax
 3673 173f 84C0     		testb	%al, %al
 3674 1741 7438     		je	.L181
 3675              		.loc 6 102 0 is_stmt 0 discriminator 2
 3676 1743 E8000000 		call	_ZN8UnitTest11CurrentTest7DetailsEv
 3676      00
 3677 1748 488B08   		movq	(%rax), %rcx
 3678 174b 488D45C0 		leaq	-64(%rbp), %rax
 3679 174f BA660000 		movl	$102, %edx
 3679      00
 3680 1754 4889CE   		movq	%rcx, %rsi
 3681 1757 4889C7   		movq	%rax, %rdi
 3682 175a E8000000 		call	_ZN8UnitTest11TestDetailsC1ERKS0_i
 3682      00
 3683              		.loc 6 102 0 discriminator 4
 3684 175f E8000000 		call	_ZN8UnitTest11CurrentTest7ResultsEv
 3684      00
 3685 1764 488B00   		movq	(%rax), %rax
 3686 1767 488D4DC0 		leaq	-64(%rbp), %rcx
 3687 176b BA000000 		movl	$.LC38, %edx
 3687      00
 3688 1770 4889CE   		movq	%rcx, %rsi
 3689 1773 4889C7   		movq	%rax, %rdi
 3690 1776 E8000000 		call	_ZN8UnitTest11TestResults13OnTestFailureERKNS_11TestDetailsEPKc
 3690      00
 3691              	.LEHE74:
 3692              	.L181:
 3693              	.LEHB75:
 103:TestTestMacros.cpp ****     CHECK_EQUAL ("MacroTestHelper2", macroTestList2.GetHead()->m_details.testName);
 3694              		.loc 6 103 0 is_stmt 1
 3695 177b E8000000 		call	_ZN8UnitTest11CurrentTest7DetailsEv
 3695      00
 3696 1780 488B08   		movq	(%rax), %rcx
 3697 1783 488D45C0 		leaq	-64(%rbp), %rax
 3698 1787 BA670000 		movl	$103, %edx
 3698      00
 3699 178c 4889CE   		movq	%rcx, %rsi
 3700 178f 4889C7   		movq	%rax, %rdi
 3701 1792 E8000000 		call	_ZN8UnitTest11TestDetailsC1ERKS0_i
 3701      00
 3702              		.loc 6 103 0 is_stmt 0 discriminator 2
 3703 1797 BF000000 		movl	$_ZN12_GLOBAL__N_114macroTestList2E, %edi
 3703      00
 3704 179c E8000000 		call	_ZNK8UnitTest8TestList7GetHeadEv
 3704      00
 3705 17a1 488B5810 		movq	16(%rax), %rbx
 3706 17a5 E8000000 		call	_ZN8UnitTest11CurrentTest7ResultsEv
 3706      00
 3707              		.loc 6 103 0 discriminator 4
 3708 17aa 488B00   		movq	(%rax), %rax
 3709 17ad 488D55C0 		leaq	-64(%rbp), %rdx
 3710 17b1 4889D1   		movq	%rdx, %rcx
 3711 17b4 4889DA   		movq	%rbx, %rdx
 3712 17b7 BE000000 		movl	$.LC36, %esi
 3712      00
 3713 17bc 4889C7   		movq	%rax, %rdi
 3714 17bf E8000000 		call	_ZN8UnitTest10CheckEqualERNS_11TestResultsEPKcS3_RKNS_11TestDetailsE
 3714      00
 3715              	.LEHE75:
 3716              	.L185:
 3717              	.LEHB76:
 104:TestTestMacros.cpp ****     CHECK_EQUAL ("DefaultSuite", macroTestList2.GetHead()->m_details.suiteName);
 3718              		.loc 6 104 0 is_stmt 1
 3719 17c4 E8000000 		call	_ZN8UnitTest11CurrentTest7DetailsEv
 3719      00
 3720 17c9 488B08   		movq	(%rax), %rcx
 3721 17cc 488D45C0 		leaq	-64(%rbp), %rax
 3722 17d0 BA680000 		movl	$104, %edx
 3722      00
 3723 17d5 4889CE   		movq	%rcx, %rsi
 3724 17d8 4889C7   		movq	%rax, %rdi
 3725 17db E8000000 		call	_ZN8UnitTest11TestDetailsC1ERKS0_i
 3725      00
 3726              		.loc 6 104 0 is_stmt 0 discriminator 2
 3727 17e0 BF000000 		movl	$_ZN12_GLOBAL__N_114macroTestList2E, %edi
 3727      00
 3728 17e5 E8000000 		call	_ZNK8UnitTest8TestList7GetHeadEv
 3728      00
 3729 17ea 488B5808 		movq	8(%rax), %rbx
 3730 17ee E8000000 		call	_ZN8UnitTest11CurrentTest7ResultsEv
 3730      00
 3731              		.loc 6 104 0 discriminator 4
 3732 17f3 488B00   		movq	(%rax), %rax
 3733 17f6 488D55C0 		leaq	-64(%rbp), %rdx
 3734 17fa 4889D1   		movq	%rdx, %rcx
 3735 17fd 4889DA   		movq	%rbx, %rdx
 3736 1800 BE000000 		movl	$.LC0, %esi
 3736      00
 3737 1805 4889C7   		movq	%rax, %rdi
 3738 1808 E8000000 		call	_ZN8UnitTest10CheckEqualERNS_11TestResultsEPKcS3_RKNS_11TestDetailsE
 3738      00
 3739              	.LEHE76:
 105:TestTestMacros.cpp **** }
 3740              		.loc 6 105 0 is_stmt 1
 3741 180d E9140100 		jmp	.L180
 3741      00
 3742              	.L191:
 102:TestTestMacros.cpp ****     CHECK_EQUAL ("MacroTestHelper2", macroTestList2.GetHead()->m_details.testName);
 3743              		.loc 6 102 0
 3744 1812 4889C7   		movq	%rax, %rdi
 3745 1815 E8000000 		call	__cxa_begin_catch
 3745      00
 3746              	.LEHB77:
 3747 181a E8000000 		call	_ZN8UnitTest11CurrentTest7DetailsEv
 3747      00
 3748 181f 488B08   		movq	(%rax), %rcx
 3749 1822 488D45C0 		leaq	-64(%rbp), %rax
 3750 1826 BA660000 		movl	$102, %edx
 3750      00
 3751 182b 4889CE   		movq	%rcx, %rsi
 3752 182e 4889C7   		movq	%rax, %rdi
 3753 1831 E8000000 		call	_ZN8UnitTest11TestDetailsC1ERKS0_i
 3753      00
 102:TestTestMacros.cpp ****     CHECK_EQUAL ("MacroTestHelper2", macroTestList2.GetHead()->m_details.testName);
 3754              		.loc 6 102 0 is_stmt 0 discriminator 12
 3755 1836 E8000000 		call	_ZN8UnitTest11CurrentTest7ResultsEv
 3755      00
 3756 183b 488B00   		movq	(%rax), %rax
 3757 183e 488D4DC0 		leaq	-64(%rbp), %rcx
 3758 1842 BA000000 		movl	$.LC39, %edx
 3758      00
 3759 1847 4889CE   		movq	%rcx, %rsi
 3760 184a 4889C7   		movq	%rax, %rdi
 3761 184d E8000000 		call	_ZN8UnitTest11TestResults13OnTestFailureERKNS_11TestDetailsEPKc
 3761      00
 3762              	.LEHE77:
 3763              	.LEHB78:
 102:TestTestMacros.cpp ****     CHECK_EQUAL ("MacroTestHelper2", macroTestList2.GetHead()->m_details.testName);
 3764              		.loc 6 102 0 discriminator 16
 3765 1852 E8000000 		call	__cxa_end_catch
 3765      00
 3766              	.LEHE78:
 3767 1857 E91FFFFF 		jmp	.L181
 3767      FF
 3768              	.L192:
 3769 185c 4889C3   		movq	%rax, %rbx
 102:TestTestMacros.cpp ****     CHECK_EQUAL ("MacroTestHelper2", macroTestList2.GetHead()->m_details.testName);
 3770              		.loc 6 102 0
 3771 185f E8000000 		call	__cxa_end_catch
 3771      00
 3772 1864 4889D8   		movq	%rbx, %rax
 3773 1867 4889C7   		movq	%rax, %rdi
 3774              	.LEHB79:
 3775 186a E8000000 		call	_Unwind_Resume
 3775      00
 3776              	.LEHE79:
 3777              	.L193:
 103:TestTestMacros.cpp ****     CHECK_EQUAL ("DefaultSuite", macroTestList2.GetHead()->m_details.suiteName);
 3778              		.loc 6 103 0 is_stmt 1
 3779 186f 4889C7   		movq	%rax, %rdi
 3780 1872 E8000000 		call	__cxa_begin_catch
 3780      00
 3781              	.LEHB80:
 3782 1877 E8000000 		call	_ZN8UnitTest11CurrentTest7DetailsEv
 3782      00
 3783 187c 488B08   		movq	(%rax), %rcx
 3784 187f 488D45C0 		leaq	-64(%rbp), %rax
 3785 1883 BA670000 		movl	$103, %edx
 3785      00
 3786 1888 4889CE   		movq	%rcx, %rsi
 3787 188b 4889C7   		movq	%rax, %rdi
 3788 188e E8000000 		call	_ZN8UnitTest11TestDetailsC1ERKS0_i
 3788      00
 103:TestTestMacros.cpp ****     CHECK_EQUAL ("DefaultSuite", macroTestList2.GetHead()->m_details.suiteName);
 3789              		.loc 6 103 0 is_stmt 0 discriminator 12
 3790 1893 E8000000 		call	_ZN8UnitTest11CurrentTest7ResultsEv
 3790      00
 3791 1898 488B00   		movq	(%rax), %rax
 3792 189b 488D4DC0 		leaq	-64(%rbp), %rcx
 3793 189f BA000000 		movl	$.LC40, %edx
 3793      00
 3794 18a4 4889CE   		movq	%rcx, %rsi
 3795 18a7 4889C7   		movq	%rax, %rdi
 3796 18aa E8000000 		call	_ZN8UnitTest11TestResults13OnTestFailureERKNS_11TestDetailsEPKc
 3796      00
 3797              	.LEHE80:
 3798              	.LEHB81:
 103:TestTestMacros.cpp ****     CHECK_EQUAL ("DefaultSuite", macroTestList2.GetHead()->m_details.suiteName);
 3799              		.loc 6 103 0 discriminator 16
 3800 18af E8000000 		call	__cxa_end_catch
 3800      00
 3801              	.LEHE81:
 3802 18b4 E90BFFFF 		jmp	.L185
 3802      FF
 3803              	.L194:
 3804 18b9 4889C3   		movq	%rax, %rbx
 103:TestTestMacros.cpp ****     CHECK_EQUAL ("DefaultSuite", macroTestList2.GetHead()->m_details.suiteName);
 3805              		.loc 6 103 0
 3806 18bc E8000000 		call	__cxa_end_catch
 3806      00
 3807 18c1 4889D8   		movq	%rbx, %rax
 3808 18c4 4889C7   		movq	%rax, %rdi
 3809              	.LEHB82:
 3810 18c7 E8000000 		call	_Unwind_Resume
 3810      00
 3811              	.LEHE82:
 3812              	.L195:
 104:TestTestMacros.cpp **** }
 3813              		.loc 6 104 0 is_stmt 1
 3814 18cc 4889C7   		movq	%rax, %rdi
 3815 18cf E8000000 		call	__cxa_begin_catch
 3815      00
 3816              	.LEHB83:
 3817 18d4 E8000000 		call	_ZN8UnitTest11CurrentTest7DetailsEv
 3817      00
 3818 18d9 488B08   		movq	(%rax), %rcx
 3819 18dc 488D45C0 		leaq	-64(%rbp), %rax
 3820 18e0 BA680000 		movl	$104, %edx
 3820      00
 3821 18e5 4889CE   		movq	%rcx, %rsi
 3822 18e8 4889C7   		movq	%rax, %rdi
 3823 18eb E8000000 		call	_ZN8UnitTest11TestDetailsC1ERKS0_i
 3823      00
 104:TestTestMacros.cpp **** }
 3824              		.loc 6 104 0 is_stmt 0 discriminator 12
 3825 18f0 E8000000 		call	_ZN8UnitTest11CurrentTest7ResultsEv
 3825      00
 3826 18f5 488B00   		movq	(%rax), %rax
 3827 18f8 488D4DC0 		leaq	-64(%rbp), %rcx
 3828 18fc BA000000 		movl	$.LC41, %edx
 3828      00
 3829 1901 4889CE   		movq	%rcx, %rsi
 3830 1904 4889C7   		movq	%rax, %rdi
 3831 1907 E8000000 		call	_ZN8UnitTest11TestResults13OnTestFailureERKNS_11TestDetailsEPKc
 3831      00
 3832              	.LEHE83:
 3833              	.LEHB84:
 104:TestTestMacros.cpp **** }
 3834              		.loc 6 104 0 discriminator 16
 3835 190c E8000000 		call	__cxa_end_catch
 3835      00
 3836              	.LEHE84:
 3837              		.loc 6 105 0 is_stmt 1 discriminator 16
 3838 1911 EB13     		jmp	.L180
 3839              	.L196:
 3840 1913 4889C3   		movq	%rax, %rbx
 104:TestTestMacros.cpp **** }
 3841              		.loc 6 104 0
 3842 1916 E8000000 		call	__cxa_end_catch
 3842      00
 3843 191b 4889D8   		movq	%rbx, %rax
 3844 191e 4889C7   		movq	%rax, %rdi
 3845              	.LEHB85:
 3846 1921 E8000000 		call	_Unwind_Resume
 3846      00
 3847              	.LEHE85:
 3848              	.L180:
 3849              		.loc 6 105 0
 3850 1926 488B45E8 		movq	-24(%rbp), %rax
 3851 192a 64483304 		xorq	%fs:40, %rax
 3851      25280000 
 3851      00
 3852 1933 7405     		je	.L190
 3853 1935 E8000000 		call	__stack_chk_fail
 3853      00
 3854              	.L190:
 3855 193a 4883C448 		addq	$72, %rsp
 3856 193e 5B       		popq	%rbx
 3857 193f 5D       		popq	%rbp
 3858              		.cfi_def_cfa 7, 8
 3859 1940 C3       		ret
 3860              		.cfi_endproc
 3861              	.LFE1159:
 3862              		.section	.gcc_except_table
 3863              		.align 4
 3864              	.LLSDA1159:
 3865 0200 FF       		.byte	0xff
 3866 0201 03       		.byte	0x3
 3867 0202 49       		.uleb128 .LLSDATT1159-.LLSDATTD1159
 3868              	.LLSDATTD1159:
 3869 0203 01       		.byte	0x1
 3870 0204 40       		.uleb128 .LLSDACSE1159-.LLSDACSB1159
 3871              	.LLSDACSB1159:
 3872 0205 21       		.uleb128 .LEHB74-.LFB1159
 3873 0206 54       		.uleb128 .LEHE74-.LEHB74
 3874 0207 8C02     		.uleb128 .L191-.LFB1159
 3875 0209 01       		.uleb128 0x1
 3876 020a 75       		.uleb128 .LEHB75-.LFB1159
 3877 020b 49       		.uleb128 .LEHE75-.LEHB75
 3878 020c E902     		.uleb128 .L193-.LFB1159
 3879 020e 01       		.uleb128 0x1
 3880 020f BE01     		.uleb128 .LEHB76-.LFB1159
 3881 0211 49       		.uleb128 .LEHE76-.LEHB76
 3882 0212 C603     		.uleb128 .L195-.LFB1159
 3883 0214 01       		.uleb128 0x1
 3884 0215 9402     		.uleb128 .LEHB77-.LFB1159
 3885 0217 38       		.uleb128 .LEHE77-.LEHB77
 3886 0218 D602     		.uleb128 .L192-.LFB1159
 3887 021a 00       		.uleb128 0
 3888 021b CC02     		.uleb128 .LEHB78-.LFB1159
 3889 021d 05       		.uleb128 .LEHE78-.LEHB78
 3890 021e 00       		.uleb128 0
 3891 021f 00       		.uleb128 0
 3892 0220 E402     		.uleb128 .LEHB79-.LFB1159
 3893 0222 05       		.uleb128 .LEHE79-.LEHB79
 3894 0223 00       		.uleb128 0
 3895 0224 00       		.uleb128 0
 3896 0225 F102     		.uleb128 .LEHB80-.LFB1159
 3897 0227 38       		.uleb128 .LEHE80-.LEHB80
 3898 0228 B303     		.uleb128 .L194-.LFB1159
 3899 022a 00       		.uleb128 0
 3900 022b A903     		.uleb128 .LEHB81-.LFB1159
 3901 022d 05       		.uleb128 .LEHE81-.LEHB81
 3902 022e 00       		.uleb128 0
 3903 022f 00       		.uleb128 0
 3904 0230 C103     		.uleb128 .LEHB82-.LFB1159
 3905 0232 05       		.uleb128 .LEHE82-.LEHB82
 3906 0233 00       		.uleb128 0
 3907 0234 00       		.uleb128 0
 3908 0235 CE03     		.uleb128 .LEHB83-.LFB1159
 3909 0237 38       		.uleb128 .LEHE83-.LEHB83
 3910 0238 8D04     		.uleb128 .L196-.LFB1159
 3911 023a 00       		.uleb128 0
 3912 023b 8604     		.uleb128 .LEHB84-.LFB1159
 3913 023d 05       		.uleb128 .LEHE84-.LEHB84
 3914 023e 00       		.uleb128 0
 3915 023f 00       		.uleb128 0
 3916 0240 9B04     		.uleb128 .LEHB85-.LFB1159
 3917 0242 05       		.uleb128 .LEHE85-.LEHB85
 3918 0243 00       		.uleb128 0
 3919 0244 00       		.uleb128 0
 3920              	.LLSDACSE1159:
 3921 0245 01       		.byte	0x1
 3922 0246 00       		.byte	0
 3923 0247 00       		.align 4
 3924 0248 00000000 		.long	0
 3925              	
 3926              	.LLSDATT1159:
 3927              		.text
 3929              		.section	.rodata
 3930              	.LC42:
 3931 0772 65786365 		.string	"exception"
 3931      7074696F 
 3931      6E00
 3932              		.text
 3933 1941 90       		.align 2
 3935              	_ZN12_GLOBAL__N_117FixtureCtorThrowsC2Ev:
 3936              	.LFB1161:
 106:TestTestMacros.cpp **** 
 107:TestTestMacros.cpp **** struct FixtureCtorThrows
 108:TestTestMacros.cpp **** {
 109:TestTestMacros.cpp **** 	FixtureCtorThrows()	{ throw "exception"; }
 3937              		.loc 6 109 0
 3938              		.cfi_startproc
 3939 1942 55       		pushq	%rbp
 3940              		.cfi_def_cfa_offset 16
 3941              		.cfi_offset 6, -16
 3942 1943 4889E5   		movq	%rsp, %rbp
 3943              		.cfi_def_cfa_register 6
 3944 1946 4883EC10 		subq	$16, %rsp
 3945 194a 48897DF8 		movq	%rdi, -8(%rbp)
 3946              	.LBB55:
 3947              		.loc 6 109 0
 3948 194e BF080000 		movl	$8, %edi
 3948      00
 3949 1953 E8000000 		call	__cxa_allocate_exception
 3949      00
 3950 1958 48C70000 		movq	$.LC42, (%rax)
 3950      000000
 3951 195f BA000000 		movl	$0, %edx
 3951      00
 3952 1964 BE000000 		movl	$_ZTIPKc, %esi
 3952      00
 3953 1969 4889C7   		movq	%rax, %rdi
 3954 196c E8000000 		call	__cxa_throw
 3954      00
 3955              	.LBE55:
 3956              		.cfi_endproc
 3957              	.LFE1161:
 3959              		.local	_ZN12_GLOBAL__N_124throwingFixtureTestList1E
 3960              		.comm	_ZN12_GLOBAL__N_124throwingFixtureTestList1E,16,16
 3961 1971 90       		.align 2
 3963              	_ZN12_GLOBAL__N_148FixtureCtorThrowsFixtureCtorThrowsTestNameHelperC2ERKN8UnitTest11TestDetailsE:
 3964              	.LFB1164:
 110:TestTestMacros.cpp **** };
 111:TestTestMacros.cpp **** 
 112:TestTestMacros.cpp **** TestList throwingFixtureTestList1;
 113:TestTestMacros.cpp **** TEST_FIXTURE_EX(FixtureCtorThrows, FixtureCtorThrowsTestName, throwingFixtureTestList1)
 3965              		.loc 6 113 0
 3966              		.cfi_startproc
 3967 1972 55       		pushq	%rbp
 3968              		.cfi_def_cfa_offset 16
 3969              		.cfi_offset 6, -16
 3970 1973 4889E5   		movq	%rsp, %rbp
 3971              		.cfi_def_cfa_register 6
 3972 1976 4883EC10 		subq	$16, %rsp
 3973 197a 48897DF8 		movq	%rdi, -8(%rbp)
 3974 197e 488975F0 		movq	%rsi, -16(%rbp)
 3975              	.LBB56:
 3976              		.loc 6 113 0
 3977 1982 488B45F8 		movq	-8(%rbp), %rax
 3978 1986 4889C7   		movq	%rax, %rdi
 3979 1989 E8B4FFFF 		call	_ZN12_GLOBAL__N_117FixtureCtorThrowsC2Ev
 3979      FF
 3980 198e 488B45F8 		movq	-8(%rbp), %rax
 3981 1992 488B55F0 		movq	-16(%rbp), %rdx
 3982 1996 488910   		movq	%rdx, (%rax)
 3983              	.LBE56:
 3984 1999 90       		nop
 3985 199a C9       		leave
 3986              		.cfi_def_cfa 7, 8
 3987 199b C3       		ret
 3988              		.cfi_endproc
 3989              	.LFE1164:
 3991              		.set	_ZN12_GLOBAL__N_148FixtureCtorThrowsFixtureCtorThrowsTestNameHelperC1ERKN8UnitTest11TestDetai
 3992              		.section	.rodata
 3993              	.LC43:
 3994 077c 46697874 		.string	"FixtureCtorThrowsTestName"
 3994      75726543 
 3994      746F7254 
 3994      68726F77 
 3994      73546573 
 3995              		.text
 3996              		.align 2
 3998              	_ZN12_GLOBAL__N_146TestFixtureCtorThrowsFixtureCtorThrowsTestNameC2Ev:
 3999              	.LFB1167:
 4000              		.loc 6 113 0
 4001              		.cfi_startproc
 4002 199c 55       		pushq	%rbp
 4003              		.cfi_def_cfa_offset 16
 4004              		.cfi_offset 6, -16
 4005 199d 4889E5   		movq	%rsp, %rbp
 4006              		.cfi_def_cfa_register 6
 4007 19a0 4883EC10 		subq	$16, %rsp
 4008 19a4 48897DF8 		movq	%rdi, -8(%rbp)
 4009              	.LBB57:
 4010              		.loc 6 113 0
 4011 19a8 E8000000 		call	_ZN13UnitTestSuite12GetSuiteNameEv
 4011      00
 4012 19ad 4889C2   		movq	%rax, %rdx
 4013 19b0 488B45F8 		movq	-8(%rbp), %rax
 4014 19b4 41B87100 		movl	$113, %r8d
 4014      0000
 4015 19ba B9000000 		movl	$.LC2, %ecx
 4015      00
 4016 19bf BE000000 		movl	$.LC43, %esi
 4016      00
 4017 19c4 4889C7   		movq	%rax, %rdi
 4018 19c7 E8000000 		call	_ZN8UnitTest4TestC2EPKcS2_S2_i
 4018      00
 4019 19cc BA000000 		movl	$_ZTVN12_GLOBAL__N_146TestFixtureCtorThrowsFixtureCtorThrowsTestNameE+16, %edx
 4019      00
 4020 19d1 488B45F8 		movq	-8(%rbp), %rax
 4021 19d5 488910   		movq	%rdx, (%rax)
 4022              	.LBE57:
 4023 19d8 90       		nop
 4024 19d9 C9       		leave
 4025              		.cfi_def_cfa 7, 8
 4026 19da C3       		ret
 4027              		.cfi_endproc
 4028              	.LFE1167:
 4030              		.set	_ZN12_GLOBAL__N_146TestFixtureCtorThrowsFixtureCtorThrowsTestNameC1Ev,_ZN12_GLOBAL__N_146Test
 4031              		.local	_ZN12_GLOBAL__N_154testFixtureCtorThrowsFixtureCtorThrowsTestNameInstanceE
 4032              		.comm	_ZN12_GLOBAL__N_154testFixtureCtorThrowsFixtureCtorThrowsTestNameInstanceE,56,32
 4033              		.local	_ZN12_GLOBAL__N_147adderFixtureCtorThrowsFixtureCtorThrowsTestNameE
 4034              		.comm	_ZN12_GLOBAL__N_147adderFixtureCtorThrowsFixtureCtorThrowsTestNameE,1,1
 4035              		.section	.rodata
 4036 0796 0000     		.align 8
 4037              	.LC44:
 4038 0798 556E6861 		.string	"Unhandled exception while destroying fixture FixtureCtorThrows"
 4038      6E646C65 
 4038      64206578 
 4038      63657074 
 4038      696F6E20 
 4039 07d7 00       		.align 8
 4040              	.LC45:
 4041 07d8 556E6861 		.string	"Unhandled exception while constructing fixture FixtureCtorThrows"
 4041      6E646C65 
 4041      64206578 
 4041      63657074 
 4041      696F6E20 
 4042              		.text
 4043 19db 90       		.align 2
 4045              	_ZNK12_GLOBAL__N_146TestFixtureCtorThrowsFixtureCtorThrowsTestName7RunImplEv:
 4046              	.LFB1169:
 4047              		.loc 6 113 0
 4048              		.cfi_startproc
 4049              		.cfi_personality 0x3,__gxx_personality_v0
 4050              		.cfi_lsda 0x3,.LLSDA1169
 4051 19dc 55       		pushq	%rbp
 4052              		.cfi_def_cfa_offset 16
 4053              		.cfi_offset 6, -16
 4054 19dd 4889E5   		movq	%rsp, %rbp
 4055              		.cfi_def_cfa_register 6
 4056 19e0 4154     		pushq	%r12
 4057 19e2 53       		pushq	%rbx
 4058 19e3 4881ECF0 		subq	$496, %rsp
 4058      010000
 4059              		.cfi_offset 12, -24
 4060              		.cfi_offset 3, -32
 4061 19ea 4889BD08 		movq	%rdi, -504(%rbp)
 4061      FEFFFF
 4062              		.loc 6 113 0
 4063 19f1 64488B04 		movq	%fs:40, %rax
 4063      25280000 
 4063      00
 4064 19fa 488945E8 		movq	%rax, -24(%rbp)
 4065 19fe 31C0     		xorl	%eax, %eax
 4066 1a00 C6851FFE 		movb	$0, -481(%rbp)
 4066      FFFF00
 4067              	.LBB58:
 4068 1a07 488B8508 		movq	-504(%rbp), %rax
 4068      FEFFFF
 4069 1a0e 488D5008 		leaq	8(%rax), %rdx
 4070 1a12 488D8530 		leaq	-464(%rbp), %rax
 4070      FEFFFF
 4071 1a19 4889D6   		movq	%rdx, %rsi
 4072 1a1c 4889C7   		movq	%rax, %rdi
 4073              	.LEHB86:
 4074 1a1f E84EFFFF 		call	_ZN12_GLOBAL__N_148FixtureCtorThrowsFixtureCtorThrowsTestNameHelperC1ERKN8UnitTest11TestDetai
 4074      FF
 4075              		.loc 6 113 0 is_stmt 0 discriminator 1
 4076 1a24 C6851FFE 		movb	$1, -481(%rbp)
 4076      FFFF01
 4077 1a2b 488B8508 		movq	-504(%rbp), %rax
 4077      FEFFFF
 4078 1a32 488D5008 		leaq	8(%rax), %rdx
 4079 1a36 488D8530 		leaq	-464(%rbp), %rax
 4079      FEFFFF
 4080 1a3d 4889D6   		movq	%rdx, %rsi
 4081 1a40 4889C7   		movq	%rax, %rdi
 4082 1a43 E8F81F00 		call	_ZN8UnitTest11ExecuteTestIN12_GLOBAL__N_148FixtureCtorThrowsFixtureCtorThrowsTestNameHelperEE
 4082      00
 4083              	.LEHE86:
 4084              	.LBE58:
 4085              		.loc 6 113 0
 4086 1a48 E9490200 		jmp	.L200
 4086      00
 4087              	.L213:
 4088 1a4d 4883FA01 		cmpq	$1, %rdx
 4089 1a51 740F     		je	.L203
 4090 1a53 4883FA02 		cmpq	$2, %rdx
 4091 1a57 0F84A700 		je	.L204
 4091      0000
 4092 1a5d E94B0100 		jmp	.L218
 4092      00
 4093              	.L203:
 4094              	.LBB59:
 4095 1a62 4889C7   		movq	%rax, %rdi
 4096 1a65 E8000000 		call	__cxa_begin_catch
 4096      00
 4097 1a6a 48898520 		movq	%rax, -480(%rbp)
 4097      FEFFFF
 4098 1a71 488B8520 		movq	-480(%rbp), %rax
 4098      FEFFFF
 4099 1a78 488B00   		movq	(%rax), %rax
 4100 1a7b 4883C010 		addq	$16, %rax
 4101 1a7f 488B00   		movq	(%rax), %rax
 4102 1a82 488B9520 		movq	-480(%rbp), %rdx
 4102      FEFFFF
 4103 1a89 4889D7   		movq	%rdx, %rdi
 4104 1a8c FFD0     		call	*%rax
 4105 1a8e 4889C3   		movq	%rax, %rbx
 4106 1a91 488B8520 		movq	-480(%rbp), %rax
 4106      FEFFFF
 4107 1a98 4889C7   		movq	%rax, %rdi
 4108              	.LEHB87:
 4109 1a9b E8000000 		call	_ZNK8UnitTest15AssertException10LineNumberEv
 4109      00
 4110 1aa0 4189C4   		movl	%eax, %r12d
 4111 1aa3 488B8520 		movq	-480(%rbp), %rax
 4111      FEFFFF
 4112 1aaa 4889C7   		movq	%rax, %rdi
 4113 1aad E8000000 		call	_ZNK8UnitTest15AssertException8FilenameEv
 4113      00
 4114              		.loc 6 113 0 discriminator 3
 4115 1ab2 4889C1   		movq	%rax, %rcx
 4116 1ab5 488B8508 		movq	-504(%rbp), %rax
 4116      FEFFFF
 4117 1abc 488B5008 		movq	8(%rax), %rdx
 4118 1ac0 488B8508 		movq	-504(%rbp), %rax
 4118      FEFFFF
 4119 1ac7 488B7010 		movq	16(%rax), %rsi
 4120 1acb 488D8530 		leaq	-464(%rbp), %rax
 4120      FEFFFF
 4121 1ad2 4589E0   		movl	%r12d, %r8d
 4122 1ad5 4889C7   		movq	%rax, %rdi
 4123 1ad8 E8000000 		call	_ZN8UnitTest11TestDetailsC1EPKcS2_S2_i
 4123      00
 4124              		.loc 6 113 0 discriminator 7
 4125 1add E8000000 		call	_ZN8UnitTest11CurrentTest7ResultsEv
 4125      00
 4126 1ae2 488B00   		movq	(%rax), %rax
 4127 1ae5 488D8D30 		leaq	-464(%rbp), %rcx
 4127      FEFFFF
 4128 1aec 4889DA   		movq	%rbx, %rdx
 4129 1aef 4889CE   		movq	%rcx, %rsi
 4130 1af2 4889C7   		movq	%rax, %rdi
 4131 1af5 E8000000 		call	_ZN8UnitTest11TestResults13OnTestFailureERKNS_11TestDetailsEPKc
 4131      00
 4132              	.LEHE87:
 4133              		.loc 6 113 0 discriminator 11
 4134 1afa E8000000 		call	__cxa_end_catch
 4134      00
 4135              	.LBE59:
 4136 1aff E9920100 		jmp	.L200
 4136      00
 4137              	.L204:
 4138              	.LBB60:
 4139              		.loc 6 113 0
 4140 1b04 4889C7   		movq	%rax, %rdi
 4141 1b07 E8000000 		call	__cxa_begin_catch
 4141      00
 4142 1b0c 48898528 		movq	%rax, -472(%rbp)
 4142      FEFFFF
 4143              	.LBB61:
 4144 1b13 488D8550 		leaq	-432(%rbp), %rax
 4144      FEFFFF
 4145 1b1a 4889C7   		movq	%rax, %rdi
 4146              	.LEHB88:
 4147 1b1d E8000000 		call	_ZN8UnitTest15MemoryOutStreamC1Ev
 4147      00
 4148              	.LEHE88:
 4149              		.loc 6 113 0 discriminator 13
 4150 1b22 488B8528 		movq	-472(%rbp), %rax
 4150      FEFFFF
 4151 1b29 488B00   		movq	(%rax), %rax
 4152 1b2c 4883C010 		addq	$16, %rax
 4153 1b30 488B00   		movq	(%rax), %rax
 4154 1b33 488B9528 		movq	-472(%rbp), %rdx
 4154      FEFFFF
 4155 1b3a 4889D7   		movq	%rdx, %rdi
 4156 1b3d FFD0     		call	*%rax
 4157 1b3f 4889C3   		movq	%rax, %rbx
 4158 1b42 488D8550 		leaq	-432(%rbp), %rax
 4158      FEFFFF
 4159 1b49 BE000000 		movl	$.LC11, %esi
 4159      00
 4160 1b4e 4889C7   		movq	%rax, %rdi
 4161              	.LEHB89:
 4162 1b51 E8000000 		call	_ZStlsISt11char_traitsIcEERSt13basic_ostreamIcT_ES5_PKc
 4162      00
 4163 1b56 4889DE   		movq	%rbx, %rsi
 4164 1b59 4889C7   		movq	%rax, %rdi
 4165 1b5c E8000000 		call	_ZStlsISt11char_traitsIcEERSt13basic_ostreamIcT_ES5_PKc
 4165      00
 4166              		.loc 6 113 0 discriminator 17
 4167 1b61 488D8550 		leaq	-432(%rbp), %rax
 4167      FEFFFF
 4168 1b68 4889C7   		movq	%rax, %rdi
 4169 1b6b E8000000 		call	_ZNK8UnitTest15MemoryOutStream7GetTextEv
 4169      00
 4170 1b70 4989C4   		movq	%rax, %r12
 4171 1b73 488B8508 		movq	-504(%rbp), %rax
 4171      FEFFFF
 4172 1b7a 488D5808 		leaq	8(%rax), %rbx
 4173 1b7e E8000000 		call	_ZN8UnitTest11CurrentTest7ResultsEv
 4173      00
 4174              		.loc 6 113 0 discriminator 19
 4175 1b83 488B00   		movq	(%rax), %rax
 4176 1b86 4C89E2   		movq	%r12, %rdx
 4177 1b89 4889DE   		movq	%rbx, %rsi
 4178 1b8c 4889C7   		movq	%rax, %rdi
 4179 1b8f E8000000 		call	_ZN8UnitTest11TestResults13OnTestFailureERKNS_11TestDetailsEPKc
 4179      00
 4180              	.LEHE89:
 4181              		.loc 6 113 0 discriminator 23
 4182 1b94 488D8550 		leaq	-432(%rbp), %rax
 4182      FEFFFF
 4183 1b9b 4889C7   		movq	%rax, %rdi
 4184              	.LEHB90:
 4185 1b9e E8000000 		call	_ZN8UnitTest15MemoryOutStreamD1Ev
 4185      00
 4186              	.LEHE90:
 4187              	.LBE61:
 4188              		.loc 6 113 0 discriminator 24
 4189 1ba3 E8000000 		call	__cxa_end_catch
 4189      00
 4190              	.LBE60:
 4191 1ba8 E9E90000 		jmp	.L200
 4191      00
 4192              	.L218:
 4193              		.loc 6 113 0
 4194 1bad 4889C7   		movq	%rax, %rdi
 4195 1bb0 E8000000 		call	__cxa_begin_catch
 4195      00
 4196 1bb5 80BD1FFE 		cmpb	$0, -481(%rbp)
 4196      FFFF00
 4197 1bbc 7443     		je	.L206
 4198              		.loc 6 113 0 discriminator 26
 4199 1bbe 488B8508 		movq	-504(%rbp), %rax
 4199      FEFFFF
 4200 1bc5 488D4808 		leaq	8(%rax), %rcx
 4201 1bc9 488D8530 		leaq	-464(%rbp), %rax
 4201      FEFFFF
 4202 1bd0 BA710000 		movl	$113, %edx
 4202      00
 4203 1bd5 4889CE   		movq	%rcx, %rsi
 4204 1bd8 4889C7   		movq	%rax, %rdi
 4205              	.LEHB91:
 4206 1bdb E8000000 		call	_ZN8UnitTest11TestDetailsC1ERKS0_i
 4206      00
 4207              		.loc 6 113 0 discriminator 29
 4208 1be0 E8000000 		call	_ZN8UnitTest11CurrentTest7ResultsEv
 4208      00
 4209 1be5 488B00   		movq	(%rax), %rax
 4210 1be8 488D8D30 		leaq	-464(%rbp), %rcx
 4210      FEFFFF
 4211 1bef BA000000 		movl	$.LC44, %edx
 4211      00
 4212 1bf4 4889CE   		movq	%rcx, %rsi
 4213 1bf7 4889C7   		movq	%rax, %rdi
 4214 1bfa E8000000 		call	_ZN8UnitTest11TestResults13OnTestFailureERKNS_11TestDetailsEPKc
 4214      00
 4215 1bff EB41     		jmp	.L207
 4216              	.L206:
 4217              		.loc 6 113 0 discriminator 27
 4218 1c01 488B8508 		movq	-504(%rbp), %rax
 4218      FEFFFF
 4219 1c08 488D4808 		leaq	8(%rax), %rcx
 4220 1c0c 488D8530 		leaq	-464(%rbp), %rax
 4220      FEFFFF
 4221 1c13 BA710000 		movl	$113, %edx
 4221      00
 4222 1c18 4889CE   		movq	%rcx, %rsi
 4223 1c1b 4889C7   		movq	%rax, %rdi
 4224 1c1e E8000000 		call	_ZN8UnitTest11TestDetailsC1ERKS0_i
 4224      00
 4225              		.loc 6 113 0 discriminator 36
 4226 1c23 E8000000 		call	_ZN8UnitTest11CurrentTest7ResultsEv
 4226      00
 4227 1c28 488B00   		movq	(%rax), %rax
 4228 1c2b 488D8D30 		leaq	-464(%rbp), %rcx
 4228      FEFFFF
 4229 1c32 BA000000 		movl	$.LC45, %edx
 4229      00
 4230 1c37 4889CE   		movq	%rcx, %rsi
 4231 1c3a 4889C7   		movq	%rax, %rdi
 4232 1c3d E8000000 		call	_ZN8UnitTest11TestResults13OnTestFailureERKNS_11TestDetailsEPKc
 4232      00
 4233              	.LEHE91:
 4234              	.L207:
 4235              	.LEHB92:
 4236              		.loc 6 113 0 discriminator 41
 4237 1c42 E8000000 		call	__cxa_end_catch
 4237      00
 4238 1c47 EB4D     		jmp	.L200
 4239              	.L214:
 4240 1c49 4889C3   		movq	%rax, %rbx
 4241              	.LBB63:
 4242              		.loc 6 113 0
 4243 1c4c E8000000 		call	__cxa_end_catch
 4243      00
 4244 1c51 4889D8   		movq	%rbx, %rax
 4245 1c54 4889C7   		movq	%rax, %rdi
 4246 1c57 E8000000 		call	_Unwind_Resume
 4246      00
 4247              	.LEHE92:
 4248              	.L216:
 4249 1c5c 4889C3   		movq	%rax, %rbx
 4250              	.LBE63:
 4251              	.LBB64:
 4252              	.LBB62:
 4253 1c5f 488D8550 		leaq	-432(%rbp), %rax
 4253      FEFFFF
 4254 1c66 4889C7   		movq	%rax, %rdi
 4255 1c69 E8000000 		call	_ZN8UnitTest15MemoryOutStreamD1Ev
 4255      00
 4256 1c6e EB03     		jmp	.L210
 4257              	.L215:
 4258 1c70 4889C3   		movq	%rax, %rbx
 4259              	.L210:
 4260              	.LBE62:
 4261 1c73 E8000000 		call	__cxa_end_catch
 4261      00
 4262 1c78 4889D8   		movq	%rbx, %rax
 4263 1c7b 4889C7   		movq	%rax, %rdi
 4264              	.LEHB93:
 4265 1c7e E8000000 		call	_Unwind_Resume
 4265      00
 4266              	.LEHE93:
 4267              	.L217:
 4268 1c83 4889C3   		movq	%rax, %rbx
 4269              	.LBE64:
 4270 1c86 E8000000 		call	__cxa_end_catch
 4270      00
 4271 1c8b 4889D8   		movq	%rbx, %rax
 4272 1c8e 4889C7   		movq	%rax, %rdi
 4273              	.LEHB94:
 4274 1c91 E8000000 		call	_Unwind_Resume
 4274      00
 4275              	.LEHE94:
 4276              	.L200:
 4277 1c96 488B45E8 		movq	-24(%rbp), %rax
 4278 1c9a 64483304 		xorq	%fs:40, %rax
 4278      25280000 
 4278      00
 4279 1ca3 7405     		je	.L212
 4280 1ca5 E8000000 		call	__stack_chk_fail
 4280      00
 4281              	.L212:
 4282 1caa 4881C4F0 		addq	$496, %rsp
 4282      010000
 4283 1cb1 5B       		popq	%rbx
 4284 1cb2 415C     		popq	%r12
 4285 1cb4 5D       		popq	%rbp
 4286              		.cfi_def_cfa 7, 8
 4287 1cb5 C3       		ret
 4288              		.cfi_endproc
 4289              	.LFE1169:
 4290              		.section	.gcc_except_table
 4291              		.align 4
 4292              	.LLSDA1169:
 4293 024c FF       		.byte	0xff
 4294 024d 03       		.byte	0x3
 4295 024e 45       		.uleb128 .LLSDATT1169-.LLSDATTD1169
 4296              	.LLSDATTD1169:
 4297 024f 01       		.byte	0x1
 4298 0250 31       		.uleb128 .LLSDACSE1169-.LLSDACSB1169
 4299              	.LLSDACSB1169:
 4300 0251 43       		.uleb128 .LEHB86-.LFB1169
 4301 0252 29       		.uleb128 .LEHE86-.LEHB86
 4302 0253 71       		.uleb128 .L213-.LFB1169
 4303 0254 05       		.uleb128 0x5
 4304 0255 BF01     		.uleb128 .LEHB87-.LFB1169
 4305 0257 5F       		.uleb128 .LEHE87-.LEHB87
 4306 0258 ED04     		.uleb128 .L214-.LFB1169
 4307 025a 00       		.uleb128 0
 4308 025b C102     		.uleb128 .LEHB88-.LFB1169
 4309 025d 05       		.uleb128 .LEHE88-.LEHB88
 4310 025e 9405     		.uleb128 .L215-.LFB1169
 4311 0260 00       		.uleb128 0
 4312 0261 F502     		.uleb128 .LEHB89-.LFB1169
 4313 0263 43       		.uleb128 .LEHE89-.LEHB89
 4314 0264 8005     		.uleb128 .L216-.LFB1169
 4315 0266 00       		.uleb128 0
 4316 0267 C203     		.uleb128 .LEHB90-.LFB1169
 4317 0269 05       		.uleb128 .LEHE90-.LEHB90
 4318 026a 9405     		.uleb128 .L215-.LFB1169
 4319 026c 00       		.uleb128 0
 4320 026d FF03     		.uleb128 .LEHB91-.LFB1169
 4321 026f 67       		.uleb128 .LEHE91-.LEHB91
 4322 0270 A705     		.uleb128 .L217-.LFB1169
 4323 0272 00       		.uleb128 0
 4324 0273 E604     		.uleb128 .LEHB92-.LFB1169
 4325 0275 1A       		.uleb128 .LEHE92-.LEHB92
 4326 0276 00       		.uleb128 0
 4327 0277 00       		.uleb128 0
 4328 0278 A205     		.uleb128 .LEHB93-.LFB1169
 4329 027a 05       		.uleb128 .LEHE93-.LEHB93
 4330 027b 00       		.uleb128 0
 4331 027c 00       		.uleb128 0
 4332 027d B505     		.uleb128 .LEHB94-.LFB1169
 4333 027f 05       		.uleb128 .LEHE94-.LEHB94
 4334 0280 00       		.uleb128 0
 4335 0281 00       		.uleb128 0
 4336              	.LLSDACSE1169:
 4337 0282 03       		.byte	0x3
 4338 0283 00       		.byte	0
 4339 0284 02       		.byte	0x2
 4340 0285 7D       		.byte	0x7d
 4341 0286 01       		.byte	0x1
 4342 0287 7D       		.byte	0x7d
 4343              		.align 4
 4344 0288 00000000 		.long	0
 4345              	
 4346 028c 00000000 		.long	_ZTISt9exception
 4347 0290 00000000 		.long	_ZTIN8UnitTest15AssertExceptionE
 4348              	.LLSDATT1169:
 4349              		.text
 4351              		.align 2
 4353              	_ZN12_GLOBAL__N_148FixtureCtorThrowsFixtureCtorThrowsTestNameHelper7RunImplEv:
 4354              	.LFB1170:
 114:TestTestMacros.cpp **** {
 4355              		.loc 6 114 0 is_stmt 1
 4356              		.cfi_startproc
 4357 1cb6 55       		pushq	%rbp
 4358              		.cfi_def_cfa_offset 16
 4359              		.cfi_offset 6, -16
 4360 1cb7 4889E5   		movq	%rsp, %rbp
 4361              		.cfi_def_cfa_register 6
 4362 1cba 48897DF8 		movq	%rdi, -8(%rbp)
 115:TestTestMacros.cpp **** }
 4363              		.loc 6 115 0
 4364 1cbe 90       		nop
 4365 1cbf 5D       		popq	%rbp
 4366              		.cfi_def_cfa 7, 8
 4367 1cc0 C3       		ret
 4368              		.cfi_endproc
 4369              	.LFE1170:
 4371              		.section	.rodata
 4372 0819 00000000 		.align 8
 4372      000000
 4373              	.LC46:
 4374 0820 46697874 		.string	"FixturesWithThrowingCtorsAreFailures"
 4374      75726573 
 4374      57697468 
 4374      5468726F 
 4374      77696E67 
 4375              		.text
 4376 1cc1 90       		.align 2
 4378              	_ZN12_GLOBAL__N_140TestFixturesWithThrowingCtorsAreFailuresC2Ev:
 4379              	.LFB1172:
 116:TestTestMacros.cpp **** 
 117:TestTestMacros.cpp **** TEST(FixturesWithThrowingCtorsAreFailures)
 4380              		.loc 6 117 0
 4381              		.cfi_startproc
 4382 1cc2 55       		pushq	%rbp
 4383              		.cfi_def_cfa_offset 16
 4384              		.cfi_offset 6, -16
 4385 1cc3 4889E5   		movq	%rsp, %rbp
 4386              		.cfi_def_cfa_register 6
 4387 1cc6 4883EC10 		subq	$16, %rsp
 4388 1cca 48897DF8 		movq	%rdi, -8(%rbp)
 4389              	.LBB65:
 4390              		.loc 6 117 0
 4391 1cce E8000000 		call	_ZN13UnitTestSuite12GetSuiteNameEv
 4391      00
 4392 1cd3 4889C2   		movq	%rax, %rdx
 4393 1cd6 488B45F8 		movq	-8(%rbp), %rax
 4394 1cda 41B87500 		movl	$117, %r8d
 4394      0000
 4395 1ce0 B9000000 		movl	$.LC2, %ecx
 4395      00
 4396 1ce5 BE000000 		movl	$.LC46, %esi
 4396      00
 4397 1cea 4889C7   		movq	%rax, %rdi
 4398 1ced E8000000 		call	_ZN8UnitTest4TestC2EPKcS2_S2_i
 4398      00
 4399 1cf2 BA000000 		movl	$_ZTVN12_GLOBAL__N_140TestFixturesWithThrowingCtorsAreFailuresE+16, %edx
 4399      00
 4400 1cf7 488B45F8 		movq	-8(%rbp), %rax
 4401 1cfb 488910   		movq	%rdx, (%rax)
 4402              	.LBE65:
 4403 1cfe 90       		nop
 4404 1cff C9       		leave
 4405              		.cfi_def_cfa 7, 8
 4406 1d00 C3       		ret
 4407              		.cfi_endproc
 4408              	.LFE1172:
 4410              		.set	_ZN12_GLOBAL__N_140TestFixturesWithThrowingCtorsAreFailuresC1Ev,_ZN12_GLOBAL__N_140TestFixtur
 4411              		.local	_ZN12_GLOBAL__N_148testFixturesWithThrowingCtorsAreFailuresInstanceE
 4412              		.comm	_ZN12_GLOBAL__N_148testFixturesWithThrowingCtorsAreFailuresInstanceE,56,32
 4413              		.local	_ZN12_GLOBAL__N_141adderFixturesWithThrowingCtorsAreFailuresE
 4414              		.comm	_ZN12_GLOBAL__N_141adderFixturesWithThrowingCtorsAreFailuresE,1,1
 4415              		.section	.rodata
 4416 0845 000000   		.align 8
 4417              	.LC47:
 4418 0848 7468726F 		.string	"throwingFixtureTestList1.GetHead() != NULL"
 4418      77696E67 
 4418      46697874 
 4418      75726554 
 4418      6573744C 
 4419              	.LC48:
 4420 0873 7768696C 		.string	"while constructing fixture"
 4420      6520636F 
 4420      6E737472 
 4420      75637469 
 4420      6E672066 
 4421 088e 0000     		.align 8
 4422              	.LC49:
 4423 0890 73747273 		.string	"strstr(reporter.lastFailedMessage, \"while constructing fixture\")"
 4423      74722872 
 4423      65706F72 
 4423      7465722E 
 4423      6C617374 
 4424 08d1 00000000 		.align 8
 4424      000000
 4425              	.LC50:
 4426 08d8 556E6861 		.string	"Unhandled exception in CHECK(throwingFixtureTestList1.GetHead() != NULL)"
 4426      6E646C65 
 4426      64206578 
 4426      63657074 
 4426      696F6E20 
 4427 0921 00000000 		.align 8
 4427      000000
 4428              	.LC51:
 4429 0928 556E6861 		.string	"Unhandled exception in CHECK_EQUAL(1, failureCount)"
 4429      6E646C65 
 4429      64206578 
 4429      63657074 
 4429      696F6E20 
 4430 095c 00000000 		.align 8
 4431              	.LC52:
 4432 0960 556E6861 		.string	"Unhandled exception in CHECK(strstr(reporter.lastFailedMessage, \"while constructing fixt
 4432      6E646C65 
 4432      64206578 
 4432      63657074 
 4432      696F6E20 
 4433              		.text
 4434 1d01 90       		.align 2
 4436              	_ZNK12_GLOBAL__N_140TestFixturesWithThrowingCtorsAreFailures7RunImplEv:
 4437              	.LFB1174:
 118:TestTestMacros.cpp **** {
 4438              		.loc 6 118 0
 4439              		.cfi_startproc
 4440              		.cfi_personality 0x3,__gxx_personality_v0
 4441              		.cfi_lsda 0x3,.LLSDA1174
 4442 1d02 55       		pushq	%rbp
 4443              		.cfi_def_cfa_offset 16
 4444              		.cfi_offset 6, -16
 4445 1d03 4889E5   		movq	%rsp, %rbp
 4446              		.cfi_def_cfa_register 6
 4447 1d06 53       		pushq	%rbx
 4448 1d07 4881ECA8 		subq	$2216, %rsp
 4448      080000
 4449              		.cfi_offset 3, -24
 4450 1d0e 4889BD58 		movq	%rdi, -2216(%rbp)
 4450      F7FFFF
 4451              		.loc 6 118 0
 4452 1d15 64488B04 		movq	%fs:40, %rax
 4452      25280000 
 4452      00
 4453 1d1e 488945E8 		movq	%rax, -24(%rbp)
 4454 1d22 31C0     		xorl	%eax, %eax
 119:TestTestMacros.cpp **** 	CHECK(throwingFixtureTestList1.GetHead() != NULL);
 4455              		.loc 6 119 0
 4456 1d24 BF000000 		movl	$_ZN12_GLOBAL__N_124throwingFixtureTestList1E, %edi
 4456      00
 4457              	.LEHB95:
 4458 1d29 E8000000 		call	_ZNK8UnitTest8TestList7GetHeadEv
 4458      00
 4459 1d2e 4885C0   		testq	%rax, %rax
 4460 1d31 0F95C0   		setne	%al
 4461 1d34 0FB6C0   		movzbl	%al, %eax
 4462 1d37 89C7     		movl	%eax, %edi
 4463 1d39 E8000000 		call	_ZN8UnitTest5CheckIbEEbT_
 4463      00
 4464 1d3e 83F001   		xorl	$1, %eax
 4465 1d41 84C0     		testb	%al, %al
 4466 1d43 743E     		je	.L222
 4467              		.loc 6 119 0 is_stmt 0 discriminator 2
 4468 1d45 E8000000 		call	_ZN8UnitTest11CurrentTest7DetailsEv
 4468      00
 4469 1d4a 488B08   		movq	(%rax), %rcx
 4470 1d4d 488D8590 		leaq	-2160(%rbp), %rax
 4470      F7FFFF
 4471 1d54 BA770000 		movl	$119, %edx
 4471      00
 4472 1d59 4889CE   		movq	%rcx, %rsi
 4473 1d5c 4889C7   		movq	%rax, %rdi
 4474 1d5f E8000000 		call	_ZN8UnitTest11TestDetailsC1ERKS0_i
 4474      00
 4475              		.loc 6 119 0 discriminator 4
 4476 1d64 E8000000 		call	_ZN8UnitTest11CurrentTest7ResultsEv
 4476      00
 4477 1d69 488B00   		movq	(%rax), %rax
 4478 1d6c 488D8D90 		leaq	-2160(%rbp), %rcx
 4478      F7FFFF
 4479 1d73 BA000000 		movl	$.LC47, %edx
 4479      00
 4480 1d78 4889CE   		movq	%rcx, %rsi
 4481 1d7b 4889C7   		movq	%rax, %rdi
 4482 1d7e E8000000 		call	_ZN8UnitTest11TestResults13OnTestFailureERKNS_11TestDetailsEPKc
 4482      00
 4483              	.LEHE95:
 4484              	.L222:
 120:TestTestMacros.cpp **** 	RecordingReporter reporter;
 4485              		.loc 6 120 0 is_stmt 1
 4486 1d83 488D85B0 		leaq	-2128(%rbp), %rax
 4486      F7FFFF
 4487 1d8a 4889C7   		movq	%rax, %rdi
 4488 1d8d E8000000 		call	_ZN17RecordingReporterC1Ev
 4488      00
 121:TestTestMacros.cpp **** 	TestResults result(&reporter);
 4489              		.loc 6 121 0
 4490 1d92 488D95B0 		leaq	-2128(%rbp), %rdx
 4490      F7FFFF
 4491 1d99 488D8570 		leaq	-2192(%rbp), %rax
 4491      F7FFFF
 4492 1da0 4889D6   		movq	%rdx, %rsi
 4493 1da3 4889C7   		movq	%rax, %rdi
 4494              	.LEHB96:
 4495 1da6 E8000000 		call	_ZN8UnitTest11TestResultsC1EPNS_12TestReporterE
 4495      00
 4496              	.LBB66:
 122:TestTestMacros.cpp **** 	{
 123:TestTestMacros.cpp **** 		ScopedCurrentTest scopedResult(result);
 4497              		.loc 6 123 0
 4498 1dab 488D8D70 		leaq	-2192(%rbp), %rcx
 4498      F7FFFF
 4499 1db2 488D8590 		leaq	-2160(%rbp), %rax
 4499      F7FFFF
 4500 1db9 BA000000 		movl	$0, %edx
 4500      00
 4501 1dbe 4889CE   		movq	%rcx, %rsi
 4502 1dc1 4889C7   		movq	%rax, %rdi
 4503 1dc4 E8000000 		call	_ZN17ScopedCurrentTestC1ERN8UnitTest11TestResultsEPKNS0_11TestDetailsE
 4503      00
 4504              	.LEHE96:
 124:TestTestMacros.cpp **** 		throwingFixtureTestList1.GetHead()->Run();
 4505              		.loc 6 124 0
 4506 1dc9 BF000000 		movl	$_ZN12_GLOBAL__N_124throwingFixtureTestList1E, %edi
 4506      00
 4507              	.LEHB97:
 4508 1dce E8000000 		call	_ZNK8UnitTest8TestList7GetHeadEv
 4508      00
 4509 1dd3 4889C7   		movq	%rax, %rdi
 4510 1dd6 E8000000 		call	_ZN8UnitTest4Test3RunEv
 4510      00
 4511              	.LEHE97:
 123:TestTestMacros.cpp **** 		throwingFixtureTestList1.GetHead()->Run();
 4512              		.loc 6 123 0
 4513 1ddb 488D8590 		leaq	-2160(%rbp), %rax
 4513      F7FFFF
 4514 1de2 4889C7   		movq	%rax, %rdi
 4515              	.LEHB98:
 4516 1de5 E8000000 		call	_ZN17ScopedCurrentTestD1Ev
 4516      00
 4517              	.LBE66:
 125:TestTestMacros.cpp **** 	}
 126:TestTestMacros.cpp **** 
 127:TestTestMacros.cpp **** 	int const failureCount = result.GetFailedTestCount();
 4518              		.loc 6 127 0
 4519 1dea 488D8570 		leaq	-2192(%rbp), %rax
 4519      F7FFFF
 4520 1df1 4889C7   		movq	%rax, %rdi
 4521 1df4 E8000000 		call	_ZNK8UnitTest11TestResults18GetFailedTestCountEv
 4521      00
 4522              	.LEHE98:
 4523 1df9 898568F7 		movl	%eax, -2200(%rbp)
 4523      FFFF
 4524              	.LEHB99:
 128:TestTestMacros.cpp **** 	CHECK_EQUAL(1, failureCount);
 4525              		.loc 6 128 0
 4526 1dff E8000000 		call	_ZN8UnitTest11CurrentTest7DetailsEv
 4526      00
 4527              		.loc 6 128 0 is_stmt 0 discriminator 1
 4528 1e04 488B08   		movq	(%rax), %rcx
 4529 1e07 488D8590 		leaq	-2160(%rbp), %rax
 4529      F7FFFF
 4530 1e0e BA800000 		movl	$128, %edx
 4530      00
 4531 1e13 4889CE   		movq	%rcx, %rsi
 4532 1e16 4889C7   		movq	%rax, %rdi
 4533 1e19 E8000000 		call	_ZN8UnitTest11TestDetailsC1ERKS0_i
 4533      00
 4534              	.LEHE99:
 4535              		.loc 6 128 0 discriminator 2
 4536 1e1e C7856CF7 		movl	$1, -2196(%rbp)
 4536      FFFF0100 
 4536      0000
 4537              	.LEHB100:
 4538 1e28 E8000000 		call	_ZN8UnitTest11CurrentTest7ResultsEv
 4538      00
 4539 1e2d 488B00   		movq	(%rax), %rax
 4540 1e30 488D8D90 		leaq	-2160(%rbp), %rcx
 4540      F7FFFF
 4541 1e37 488D9568 		leaq	-2200(%rbp), %rdx
 4541      F7FFFF
 4542 1e3e 488DB56C 		leaq	-2196(%rbp), %rsi
 4542      F7FFFF
 4543 1e45 4889C7   		movq	%rax, %rdi
 4544 1e48 E8000000 		call	_ZN8UnitTest10CheckEqualIiiEEvRNS_11TestResultsERKT_RKT0_RKNS_11TestDetailsE
 4544      00
 4545              	.LEHE100:
 4546              	.L230:
 129:TestTestMacros.cpp **** 	CHECK(strstr(reporter.lastFailedMessage, "while constructing fixture"));
 4547              		.loc 6 129 0 is_stmt 1
 4548 1e4d 488D85B0 		leaq	-2128(%rbp), %rax
 4548      F7FFFF
 4549 1e54 48051405 		addq	$1300, %rax
 4549      0000
 4550 1e5a BE000000 		movl	$.LC48, %esi
 4550      00
 4551 1e5f 4889C7   		movq	%rax, %rdi
 4552 1e62 E8000000 		call	strstr
 4552      00
 4553 1e67 4889C7   		movq	%rax, %rdi
 4554 1e6a E8000000 		call	_ZN8UnitTest5CheckIPcEEbT_
 4554      00
 4555 1e6f 83F001   		xorl	$1, %eax
 4556 1e72 84C0     		testb	%al, %al
 4557 1e74 743E     		je	.L223
 4558              	.LEHB101:
 4559              		.loc 6 129 0 is_stmt 0 discriminator 1
 4560 1e76 E8000000 		call	_ZN8UnitTest11CurrentTest7DetailsEv
 4560      00
 4561 1e7b 488B08   		movq	(%rax), %rcx
 4562 1e7e 488D8590 		leaq	-2160(%rbp), %rax
 4562      F7FFFF
 4563 1e85 BA810000 		movl	$129, %edx
 4563      00
 4564 1e8a 4889CE   		movq	%rcx, %rsi
 4565 1e8d 4889C7   		movq	%rax, %rdi
 4566 1e90 E8000000 		call	_ZN8UnitTest11TestDetailsC1ERKS0_i
 4566      00
 4567              		.loc 6 129 0 discriminator 3
 4568 1e95 E8000000 		call	_ZN8UnitTest11CurrentTest7ResultsEv
 4568      00
 4569 1e9a 488B00   		movq	(%rax), %rax
 4570 1e9d 488D8D90 		leaq	-2160(%rbp), %rcx
 4570      F7FFFF
 4571 1ea4 BA000000 		movl	$.LC49, %edx
 4571      00
 4572 1ea9 4889CE   		movq	%rcx, %rsi
 4573 1eac 4889C7   		movq	%rax, %rdi
 4574 1eaf E8000000 		call	_ZN8UnitTest11TestResults13OnTestFailureERKNS_11TestDetailsEPKc
 4574      00
 4575              	.LEHE101:
 4576              	.L223:
 120:TestTestMacros.cpp **** 	TestResults result(&reporter);
 4577              		.loc 6 120 0 is_stmt 1
 4578 1eb4 488D85B0 		leaq	-2128(%rbp), %rax
 4578      F7FFFF
 4579 1ebb 4889C7   		movq	%rax, %rdi
 4580              	.LEHB102:
 4581 1ebe E8000000 		call	_ZN17RecordingReporterD1Ev
 4581      00
 4582              	.LEHE102:
 130:TestTestMacros.cpp **** }
 4583              		.loc 6 130 0
 4584 1ec3 90       		nop
 4585 1ec4 488B45E8 		movq	-24(%rbp), %rax
 4586 1ec8 64483304 		xorq	%fs:40, %rax
 4586      25280000 
 4586      00
 4587 1ed1 0F845701 		je	.L234
 4587      0000
 4588 1ed7 E94D0100 		jmp	.L244
 4588      00
 4589              	.L235:
 119:TestTestMacros.cpp **** 	RecordingReporter reporter;
 4590              		.loc 6 119 0
 4591 1edc 4889C7   		movq	%rax, %rdi
 4592 1edf E8000000 		call	__cxa_begin_catch
 4592      00
 4593              	.LEHB103:
 4594 1ee4 E8000000 		call	_ZN8UnitTest11CurrentTest7DetailsEv
 4594      00
 4595 1ee9 488B08   		movq	(%rax), %rcx
 4596 1eec 488D8590 		leaq	-2160(%rbp), %rax
 4596      F7FFFF
 4597 1ef3 BA770000 		movl	$119, %edx
 4597      00
 4598 1ef8 4889CE   		movq	%rcx, %rsi
 4599 1efb 4889C7   		movq	%rax, %rdi
 4600 1efe E8000000 		call	_ZN8UnitTest11TestDetailsC1ERKS0_i
 4600      00
 119:TestTestMacros.cpp **** 	RecordingReporter reporter;
 4601              		.loc 6 119 0 is_stmt 0 discriminator 12
 4602 1f03 E8000000 		call	_ZN8UnitTest11CurrentTest7ResultsEv
 4602      00
 4603 1f08 488B00   		movq	(%rax), %rax
 4604 1f0b 488D8D90 		leaq	-2160(%rbp), %rcx
 4604      F7FFFF
 4605 1f12 BA000000 		movl	$.LC50, %edx
 4605      00
 4606 1f17 4889CE   		movq	%rcx, %rsi
 4607 1f1a 4889C7   		movq	%rax, %rdi
 4608 1f1d E8000000 		call	_ZN8UnitTest11TestResults13OnTestFailureERKNS_11TestDetailsEPKc
 4608      00
 4609              	.LEHE103:
 4610              	.LEHB104:
 119:TestTestMacros.cpp **** 	RecordingReporter reporter;
 4611              		.loc 6 119 0 discriminator 16
 4612 1f22 E8000000 		call	__cxa_end_catch
 4612      00
 4613              	.LEHE104:
 4614 1f27 E957FEFF 		jmp	.L222
 4614      FF
 4615              	.L236:
 4616 1f2c 4889C3   		movq	%rax, %rbx
 119:TestTestMacros.cpp **** 	RecordingReporter reporter;
 4617              		.loc 6 119 0
 4618 1f2f E8000000 		call	__cxa_end_catch
 4618      00
 4619 1f34 4889D8   		movq	%rbx, %rax
 4620 1f37 4889C7   		movq	%rax, %rdi
 4621              	.LEHB105:
 4622 1f3a E8000000 		call	_Unwind_Resume
 4622      00
 4623              	.LEHE105:
 4624              	.L238:
 4625 1f3f 4889C3   		movq	%rax, %rbx
 4626              	.LBB67:
 123:TestTestMacros.cpp **** 		throwingFixtureTestList1.GetHead()->Run();
 4627              		.loc 6 123 0 is_stmt 1
 4628 1f42 488D8590 		leaq	-2160(%rbp), %rax
 4628      F7FFFF
 4629 1f49 4889C7   		movq	%rax, %rdi
 4630 1f4c E8000000 		call	_ZN17ScopedCurrentTestD1Ev
 4630      00
 4631 1f51 E9B90000 		jmp	.L227
 4631      00
 4632              	.L240:
 4633 1f56 EB00     		jmp	.L229
 4634              	.L239:
 4635              	.L229:
 4636              	.LBE67:
 128:TestTestMacros.cpp **** 	CHECK(strstr(reporter.lastFailedMessage, "while constructing fixture"));
 4637              		.loc 6 128 0
 4638 1f58 4889C7   		movq	%rax, %rdi
 4639 1f5b E8000000 		call	__cxa_begin_catch
 4639      00
 4640              	.LEHB106:
 4641 1f60 E8000000 		call	_ZN8UnitTest11CurrentTest7DetailsEv
 4641      00
 4642 1f65 488B08   		movq	(%rax), %rcx
 4643 1f68 488D8590 		leaq	-2160(%rbp), %rax
 4643      F7FFFF
 4644 1f6f BA800000 		movl	$128, %edx
 4644      00
 4645 1f74 4889CE   		movq	%rcx, %rsi
 4646 1f77 4889C7   		movq	%rax, %rdi
 4647 1f7a E8000000 		call	_ZN8UnitTest11TestDetailsC1ERKS0_i
 4647      00
 128:TestTestMacros.cpp **** 	CHECK(strstr(reporter.lastFailedMessage, "while constructing fixture"));
 4648              		.loc 6 128 0 is_stmt 0 discriminator 10
 4649 1f7f E8000000 		call	_ZN8UnitTest11CurrentTest7ResultsEv
 4649      00
 4650 1f84 488B00   		movq	(%rax), %rax
 4651 1f87 488D8D90 		leaq	-2160(%rbp), %rcx
 4651      F7FFFF
 4652 1f8e BA000000 		movl	$.LC51, %edx
 4652      00
 4653 1f93 4889CE   		movq	%rcx, %rsi
 4654 1f96 4889C7   		movq	%rax, %rdi
 4655 1f99 E8000000 		call	_ZN8UnitTest11TestResults13OnTestFailureERKNS_11TestDetailsEPKc
 4655      00
 4656              	.LEHE106:
 4657              	.LEHB107:
 128:TestTestMacros.cpp **** 	CHECK(strstr(reporter.lastFailedMessage, "while constructing fixture"));
 4658              		.loc 6 128 0 discriminator 14
 4659 1f9e E8000000 		call	__cxa_end_catch
 4659      00
 4660              	.LEHE107:
 128:TestTestMacros.cpp **** 	CHECK(strstr(reporter.lastFailedMessage, "while constructing fixture"));
 4661              		.loc 6 128 0
 4662 1fa3 E9A5FEFF 		jmp	.L230
 4662      FF
 4663              	.L241:
 4664 1fa8 4889C3   		movq	%rax, %rbx
 4665 1fab E8000000 		call	__cxa_end_catch
 4665      00
 4666 1fb0 EB5D     		jmp	.L227
 4667              	.L242:
 129:TestTestMacros.cpp **** }
 4668              		.loc 6 129 0 is_stmt 1
 4669 1fb2 4889C7   		movq	%rax, %rdi
 4670 1fb5 E8000000 		call	__cxa_begin_catch
 4670      00
 4671              	.LEHB108:
 4672 1fba E8000000 		call	_ZN8UnitTest11CurrentTest7DetailsEv
 4672      00
 4673 1fbf 488B08   		movq	(%rax), %rcx
 4674 1fc2 488D8590 		leaq	-2160(%rbp), %rax
 4674      F7FFFF
 4675 1fc9 BA810000 		movl	$129, %edx
 4675      00
 4676 1fce 4889CE   		movq	%rcx, %rsi
 4677 1fd1 4889C7   		movq	%rax, %rdi
 4678 1fd4 E8000000 		call	_ZN8UnitTest11TestDetailsC1ERKS0_i
 4678      00
 129:TestTestMacros.cpp **** }
 4679              		.loc 6 129 0 is_stmt 0 discriminator 11
 4680 1fd9 E8000000 		call	_ZN8UnitTest11CurrentTest7ResultsEv
 4680      00
 4681 1fde 488B00   		movq	(%rax), %rax
 4682 1fe1 488D8D90 		leaq	-2160(%rbp), %rcx
 4682      F7FFFF
 4683 1fe8 BA000000 		movl	$.LC52, %edx
 4683      00
 4684 1fed 4889CE   		movq	%rcx, %rsi
 4685 1ff0 4889C7   		movq	%rax, %rdi
 4686 1ff3 E8000000 		call	_ZN8UnitTest11TestResults13OnTestFailureERKNS_11TestDetailsEPKc
 4686      00
 4687              	.LEHE108:
 4688              	.LEHB109:
 129:TestTestMacros.cpp **** }
 4689              		.loc 6 129 0 discriminator 15
 4690 1ff8 E8000000 		call	__cxa_end_catch
 4690      00
 4691              	.LEHE109:
 129:TestTestMacros.cpp **** }
 4692              		.loc 6 129 0
 4693 1ffd E9B2FEFF 		jmp	.L223
 4693      FF
 4694              	.L243:
 4695 2002 4889C3   		movq	%rax, %rbx
 4696 2005 E8000000 		call	__cxa_end_catch
 4696      00
 4697 200a EB03     		jmp	.L227
 4698              	.L237:
 4699 200c 4889C3   		movq	%rax, %rbx
 4700              	.L227:
 120:TestTestMacros.cpp **** 	TestResults result(&reporter);
 4701              		.loc 6 120 0 is_stmt 1
 4702 200f 488D85B0 		leaq	-2128(%rbp), %rax
 4702      F7FFFF
 4703 2016 4889C7   		movq	%rax, %rdi
 4704 2019 E8000000 		call	_ZN17RecordingReporterD1Ev
 4704      00
 4705 201e 4889D8   		movq	%rbx, %rax
 4706 2021 4889C7   		movq	%rax, %rdi
 4707              	.LEHB110:
 4708 2024 E8000000 		call	_Unwind_Resume
 4708      00
 4709              	.LEHE110:
 4710              	.L244:
 4711              		.loc 6 130 0
 4712 2029 E8000000 		call	__stack_chk_fail
 4712      00
 4713              	.L234:
 4714 202e 4881C4A8 		addq	$2216, %rsp
 4714      080000
 4715 2035 5B       		popq	%rbx
 4716 2036 5D       		popq	%rbp
 4717              		.cfi_def_cfa 7, 8
 4718 2037 C3       		ret
 4719              		.cfi_endproc
 4720              	.LFE1174:
 4721              		.section	.gcc_except_table
 4722              		.align 4
 4723              	.LLSDA1174:
 4724 0294 FF       		.byte	0xff
 4725 0295 03       		.byte	0x3
 4726 0296 65       		.uleb128 .LLSDATT1174-.LLSDATTD1174
 4727              	.LLSDATTD1174:
 4728 0297 01       		.byte	0x1
 4729 0298 5B       		.uleb128 .LLSDACSE1174-.LLSDACSB1174
 4730              	.LLSDACSB1174:
 4731 0299 27       		.uleb128 .LEHB95-.LFB1174
 4732 029a 5A       		.uleb128 .LEHE95-.LEHB95
 4733 029b DA03     		.uleb128 .L235-.LFB1174
 4734 029d 01       		.uleb128 0x1
 4735 029e A401     		.uleb128 .LEHB96-.LFB1174
 4736 02a0 23       		.uleb128 .LEHE96-.LEHB96
 4737 02a1 8A06     		.uleb128 .L237-.LFB1174
 4738 02a3 00       		.uleb128 0
 4739 02a4 CC01     		.uleb128 .LEHB97-.LFB1174
 4740 02a6 0D       		.uleb128 .LEHE97-.LEHB97
 4741 02a7 BD04     		.uleb128 .L238-.LFB1174
 4742 02a9 00       		.uleb128 0
 4743 02aa E301     		.uleb128 .LEHB98-.LFB1174
 4744 02ac 14       		.uleb128 .LEHE98-.LEHB98
 4745 02ad 8A06     		.uleb128 .L237-.LFB1174
 4746 02af 00       		.uleb128 0
 4747 02b0 FD01     		.uleb128 .LEHB99-.LFB1174
 4748 02b2 1F       		.uleb128 .LEHE99-.LEHB99
 4749 02b3 D604     		.uleb128 .L239-.LFB1174
 4750 02b5 01       		.uleb128 0x1
 4751 02b6 A602     		.uleb128 .LEHB100-.LFB1174
 4752 02b8 25       		.uleb128 .LEHE100-.LEHB100
 4753 02b9 D404     		.uleb128 .L240-.LFB1174
 4754 02bb 01       		.uleb128 0x1
 4755 02bc F402     		.uleb128 .LEHB101-.LFB1174
 4756 02be 3E       		.uleb128 .LEHE101-.LEHB101
 4757 02bf B005     		.uleb128 .L242-.LFB1174
 4758 02c1 01       		.uleb128 0x1
 4759 02c2 BC03     		.uleb128 .LEHB102-.LFB1174
 4760 02c4 05       		.uleb128 .LEHE102-.LEHB102
 4761 02c5 00       		.uleb128 0
 4762 02c6 00       		.uleb128 0
 4763 02c7 E203     		.uleb128 .LEHB103-.LFB1174
 4764 02c9 3E       		.uleb128 .LEHE103-.LEHB103
 4765 02ca AA04     		.uleb128 .L236-.LFB1174
 4766 02cc 00       		.uleb128 0
 4767 02cd A004     		.uleb128 .LEHB104-.LFB1174
 4768 02cf 05       		.uleb128 .LEHE104-.LEHB104
 4769 02d0 00       		.uleb128 0
 4770 02d1 00       		.uleb128 0
 4771 02d2 B804     		.uleb128 .LEHB105-.LFB1174
 4772 02d4 05       		.uleb128 .LEHE105-.LEHB105
 4773 02d5 00       		.uleb128 0
 4774 02d6 00       		.uleb128 0
 4775 02d7 DE04     		.uleb128 .LEHB106-.LFB1174
 4776 02d9 3E       		.uleb128 .LEHE106-.LEHB106
 4777 02da A605     		.uleb128 .L241-.LFB1174
 4778 02dc 00       		.uleb128 0
 4779 02dd 9C05     		.uleb128 .LEHB107-.LFB1174
 4780 02df 05       		.uleb128 .LEHE107-.LEHB107
 4781 02e0 8A06     		.uleb128 .L237-.LFB1174
 4782 02e2 00       		.uleb128 0
 4783 02e3 B805     		.uleb128 .LEHB108-.LFB1174
 4784 02e5 3E       		.uleb128 .LEHE108-.LEHB108
 4785 02e6 8006     		.uleb128 .L243-.LFB1174
 4786 02e8 00       		.uleb128 0
 4787 02e9 F605     		.uleb128 .LEHB109-.LFB1174
 4788 02eb 05       		.uleb128 .LEHE109-.LEHB109
 4789 02ec 8A06     		.uleb128 .L237-.LFB1174
 4790 02ee 00       		.uleb128 0
 4791 02ef A206     		.uleb128 .LEHB110-.LFB1174
 4792 02f1 05       		.uleb128 .LEHE110-.LEHB110
 4793 02f2 00       		.uleb128 0
 4794 02f3 00       		.uleb128 0
 4795              	.LLSDACSE1174:
 4796 02f4 01       		.byte	0x1
 4797 02f5 00       		.byte	0
 4798 02f6 0000     		.align 4
 4799 02f8 00000000 		.long	0
 4800              	
 4801              	.LLSDATT1174:
 4802              		.text
 4804              		.align 2
 4806              	_ZN12_GLOBAL__N_117FixtureDtorThrowsD2Ev:
 4807              	.LFB1176:
 131:TestTestMacros.cpp **** 
 132:TestTestMacros.cpp **** struct FixtureDtorThrows
 133:TestTestMacros.cpp **** {
 134:TestTestMacros.cpp **** 	~FixtureDtorThrows() { throw "exception"; }
 4808              		.loc 6 134 0
 4809              		.cfi_startproc
 4810 2038 55       		pushq	%rbp
 4811              		.cfi_def_cfa_offset 16
 4812              		.cfi_offset 6, -16
 4813 2039 4889E5   		movq	%rsp, %rbp
 4814              		.cfi_def_cfa_register 6
 4815 203c 4883EC10 		subq	$16, %rsp
 4816 2040 48897DF8 		movq	%rdi, -8(%rbp)
 4817              	.LBB68:
 4818              		.loc 6 134 0
 4819 2044 BF080000 		movl	$8, %edi
 4819      00
 4820 2049 E8000000 		call	__cxa_allocate_exception
 4820      00
 4821 204e 48C70000 		movq	$.LC42, (%rax)
 4821      000000
 4822 2055 BA000000 		movl	$0, %edx
 4822      00
 4823 205a BE000000 		movl	$_ZTIPKc, %esi
 4823      00
 4824 205f 4889C7   		movq	%rax, %rdi
 4825 2062 E8000000 		call	__cxa_throw
 4825      00
 4826              	.LBE68:
 4827              		.cfi_endproc
 4828              	.LFE1176:
 4830              		.local	_ZN12_GLOBAL__N_124throwingFixtureTestList2E
 4831              		.comm	_ZN12_GLOBAL__N_124throwingFixtureTestList2E,16,16
 4832 2067 90       		.align 2
 4834              	_ZN12_GLOBAL__N_117FixtureDtorThrowsC2Ev:
 4835              	.LFB1180:
 132:TestTestMacros.cpp **** {
 4836              		.loc 6 132 0
 4837              		.cfi_startproc
 4838 2068 55       		pushq	%rbp
 4839              		.cfi_def_cfa_offset 16
 4840              		.cfi_offset 6, -16
 4841 2069 4889E5   		movq	%rsp, %rbp
 4842              		.cfi_def_cfa_register 6
 4843 206c 48897DF8 		movq	%rdi, -8(%rbp)
 132:TestTestMacros.cpp **** {
 4844              		.loc 6 132 0
 4845 2070 90       		nop
 4846 2071 5D       		popq	%rbp
 4847              		.cfi_def_cfa 7, 8
 4848 2072 C3       		ret
 4849              		.cfi_endproc
 4850              	.LFE1180:
 4852 2073 90       		.align 2
 4854              	_ZN12_GLOBAL__N_148FixtureDtorThrowsFixtureDtorThrowsTestNameHelperC2ERKN8UnitTest11TestDetailsE:
 4855              	.LFB1182:
 135:TestTestMacros.cpp **** };
 136:TestTestMacros.cpp **** 
 137:TestTestMacros.cpp **** TestList throwingFixtureTestList2;
 138:TestTestMacros.cpp **** TEST_FIXTURE_EX(FixtureDtorThrows, FixtureDtorThrowsTestName, throwingFixtureTestList2)
 4856              		.loc 6 138 0
 4857              		.cfi_startproc
 4858 2074 55       		pushq	%rbp
 4859              		.cfi_def_cfa_offset 16
 4860              		.cfi_offset 6, -16
 4861 2075 4889E5   		movq	%rsp, %rbp
 4862              		.cfi_def_cfa_register 6
 4863 2078 4883EC10 		subq	$16, %rsp
 4864 207c 48897DF8 		movq	%rdi, -8(%rbp)
 4865 2080 488975F0 		movq	%rsi, -16(%rbp)
 4866              	.LBB69:
 4867              		.loc 6 138 0
 4868 2084 488B45F8 		movq	-8(%rbp), %rax
 4869 2088 4889C7   		movq	%rax, %rdi
 4870 208b E8D8FFFF 		call	_ZN12_GLOBAL__N_117FixtureDtorThrowsC2Ev
 4870      FF
 4871 2090 488B45F8 		movq	-8(%rbp), %rax
 4872 2094 488B55F0 		movq	-16(%rbp), %rdx
 4873 2098 488910   		movq	%rdx, (%rax)
 4874              	.LBE69:
 4875 209b 90       		nop
 4876 209c C9       		leave
 4877              		.cfi_def_cfa 7, 8
 4878 209d C3       		ret
 4879              		.cfi_endproc
 4880              	.LFE1182:
 4882              		.set	_ZN12_GLOBAL__N_148FixtureDtorThrowsFixtureDtorThrowsTestNameHelperC1ERKN8UnitTest11TestDetai
 4883              		.section	.rodata
 4884              	.LC53:
 4885 09bf 46697874 		.string	"FixtureDtorThrowsTestName"
 4885      75726544 
 4885      746F7254 
 4885      68726F77 
 4885      73546573 
 4886              		.text
 4887              		.align 2
 4889              	_ZN12_GLOBAL__N_146TestFixtureDtorThrowsFixtureDtorThrowsTestNameC2Ev:
 4890              	.LFB1185:
 4891              		.loc 6 138 0
 4892              		.cfi_startproc
 4893 209e 55       		pushq	%rbp
 4894              		.cfi_def_cfa_offset 16
 4895              		.cfi_offset 6, -16
 4896 209f 4889E5   		movq	%rsp, %rbp
 4897              		.cfi_def_cfa_register 6
 4898 20a2 4883EC10 		subq	$16, %rsp
 4899 20a6 48897DF8 		movq	%rdi, -8(%rbp)
 4900              	.LBB70:
 4901              		.loc 6 138 0
 4902 20aa E8000000 		call	_ZN13UnitTestSuite12GetSuiteNameEv
 4902      00
 4903 20af 4889C2   		movq	%rax, %rdx
 4904 20b2 488B45F8 		movq	-8(%rbp), %rax
 4905 20b6 41B88A00 		movl	$138, %r8d
 4905      0000
 4906 20bc B9000000 		movl	$.LC2, %ecx
 4906      00
 4907 20c1 BE000000 		movl	$.LC53, %esi
 4907      00
 4908 20c6 4889C7   		movq	%rax, %rdi
 4909 20c9 E8000000 		call	_ZN8UnitTest4TestC2EPKcS2_S2_i
 4909      00
 4910 20ce BA000000 		movl	$_ZTVN12_GLOBAL__N_146TestFixtureDtorThrowsFixtureDtorThrowsTestNameE+16, %edx
 4910      00
 4911 20d3 488B45F8 		movq	-8(%rbp), %rax
 4912 20d7 488910   		movq	%rdx, (%rax)
 4913              	.LBE70:
 4914 20da 90       		nop
 4915 20db C9       		leave
 4916              		.cfi_def_cfa 7, 8
 4917 20dc C3       		ret
 4918              		.cfi_endproc
 4919              	.LFE1185:
 4921              		.set	_ZN12_GLOBAL__N_146TestFixtureDtorThrowsFixtureDtorThrowsTestNameC1Ev,_ZN12_GLOBAL__N_146Test
 4922              		.local	_ZN12_GLOBAL__N_154testFixtureDtorThrowsFixtureDtorThrowsTestNameInstanceE
 4923              		.comm	_ZN12_GLOBAL__N_154testFixtureDtorThrowsFixtureDtorThrowsTestNameInstanceE,56,32
 4924              		.local	_ZN12_GLOBAL__N_147adderFixtureDtorThrowsFixtureDtorThrowsTestNameE
 4925              		.comm	_ZN12_GLOBAL__N_147adderFixtureDtorThrowsFixtureDtorThrowsTestNameE,1,1
 4926 20dd 90       		.align 2
 4928              	_ZN12_GLOBAL__N_148FixtureDtorThrowsFixtureDtorThrowsTestNameHelperD2Ev:
 4929              	.LFB1189:
 4930              		.loc 6 138 0
 4931              		.cfi_startproc
 4932 20de 55       		pushq	%rbp
 4933              		.cfi_def_cfa_offset 16
 4934              		.cfi_offset 6, -16
 4935 20df 4889E5   		movq	%rsp, %rbp
 4936              		.cfi_def_cfa_register 6
 4937 20e2 4883EC10 		subq	$16, %rsp
 4938 20e6 48897DF8 		movq	%rdi, -8(%rbp)
 4939              	.LBB71:
 4940              		.loc 6 138 0
 4941 20ea 488B45F8 		movq	-8(%rbp), %rax
 4942 20ee 4889C7   		movq	%rax, %rdi
 4943 20f1 E842FFFF 		call	_ZN12_GLOBAL__N_117FixtureDtorThrowsD2Ev
 4943      FF
 4944              	.LBE71:
 4945 20f6 90       		nop
 4946 20f7 C9       		leave
 4947              		.cfi_def_cfa 7, 8
 4948 20f8 C3       		ret
 4949              		.cfi_endproc
 4950              	.LFE1189:
 4952              		.set	_ZN12_GLOBAL__N_148FixtureDtorThrowsFixtureDtorThrowsTestNameHelperD1Ev,_ZN12_GLOBAL__N_148Fi
 4953              		.section	.rodata
 4954 09d9 00000000 		.align 8
 4954      000000
 4955              	.LC54:
 4956 09e0 556E6861 		.string	"Unhandled exception while destroying fixture FixtureDtorThrows"
 4956      6E646C65 
 4956      64206578 
 4956      63657074 
 4956      696F6E20 
 4957 0a1f 00       		.align 8
 4958              	.LC55:
 4959 0a20 556E6861 		.string	"Unhandled exception while constructing fixture FixtureDtorThrows"
 4959      6E646C65 
 4959      64206578 
 4959      63657074 
 4959      696F6E20 
 4960              		.text
 4961 20f9 90       		.align 2
 4963              	_ZNK12_GLOBAL__N_146TestFixtureDtorThrowsFixtureDtorThrowsTestName7RunImplEv:
 4964              	.LFB1187:
 4965              		.loc 6 138 0
 4966              		.cfi_startproc
 4967              		.cfi_personality 0x3,__gxx_personality_v0
 4968              		.cfi_lsda 0x3,.LLSDA1187
 4969 20fa 55       		pushq	%rbp
 4970              		.cfi_def_cfa_offset 16
 4971              		.cfi_offset 6, -16
 4972 20fb 4889E5   		movq	%rsp, %rbp
 4973              		.cfi_def_cfa_register 6
 4974 20fe 4154     		pushq	%r12
 4975 2100 53       		pushq	%rbx
 4976 2101 4881ECF0 		subq	$496, %rsp
 4976      010000
 4977              		.cfi_offset 12, -24
 4978              		.cfi_offset 3, -32
 4979 2108 4889BD08 		movq	%rdi, -504(%rbp)
 4979      FEFFFF
 4980              		.loc 6 138 0
 4981 210f 64488B04 		movq	%fs:40, %rax
 4981      25280000 
 4981      00
 4982 2118 488945E8 		movq	%rax, -24(%rbp)
 4983 211c 31C0     		xorl	%eax, %eax
 4984 211e C6851FFE 		movb	$0, -481(%rbp)
 4984      FFFF00
 4985              	.LBB72:
 4986 2125 488B8508 		movq	-504(%rbp), %rax
 4986      FEFFFF
 4987 212c 488D5008 		leaq	8(%rax), %rdx
 4988 2130 488D8530 		leaq	-464(%rbp), %rax
 4988      FEFFFF
 4989 2137 4889D6   		movq	%rdx, %rsi
 4990 213a 4889C7   		movq	%rax, %rdi
 4991 213d E832FFFF 		call	_ZN12_GLOBAL__N_148FixtureDtorThrowsFixtureDtorThrowsTestNameHelperC1ERKN8UnitTest11TestDetai
 4991      FF
 4992 2142 C6851FFE 		movb	$1, -481(%rbp)
 4992      FFFF01
 4993 2149 488B8508 		movq	-504(%rbp), %rax
 4993      FEFFFF
 4994 2150 488D5008 		leaq	8(%rax), %rdx
 4995 2154 488D8530 		leaq	-464(%rbp), %rax
 4995      FEFFFF
 4996 215b 4889D6   		movq	%rdx, %rsi
 4997 215e 4889C7   		movq	%rax, %rdi
 4998              	.LEHB111:
 4999 2161 E8991B00 		call	_ZN8UnitTest11ExecuteTestIN12_GLOBAL__N_148FixtureDtorThrowsFixtureDtorThrowsTestNameHelperEE
 4999      00
 5000              	.LEHE111:
 5001              		.loc 6 138 0 is_stmt 0 discriminator 3
 5002 2166 488D8530 		leaq	-464(%rbp), %rax
 5002      FEFFFF
 5003 216d 4889C7   		movq	%rax, %rdi
 5004              	.LEHB112:
 5005 2170 E869FFFF 		call	_ZN12_GLOBAL__N_148FixtureDtorThrowsFixtureDtorThrowsTestNameHelperD1Ev
 5005      FF
 5006              	.LEHE112:
 5007              	.LBE72:
 5008              		.loc 6 138 0
 5009 2175 E9660200 		jmp	.L250
 5009      00
 5010              	.L265:
 5011 217a 4989C4   		movq	%rax, %r12
 5012 217d 4889D3   		movq	%rdx, %rbx
 5013              	.LBB73:
 5014 2180 488D8530 		leaq	-464(%rbp), %rax
 5014      FEFFFF
 5015 2187 4889C7   		movq	%rax, %rdi
 5016 218a E84FFFFF 		call	_ZN12_GLOBAL__N_148FixtureDtorThrowsFixtureDtorThrowsTestNameHelperD1Ev
 5016      FF
 5017 218f 4C89E0   		movq	%r12, %rax
 5018 2192 4889DA   		movq	%rbx, %rdx
 5019 2195 EB00     		jmp	.L252
 5020              	.L264:
 5021              	.L252:
 5022 2197 4883FA01 		cmpq	$1, %rdx
 5023 219b 740F     		je	.L254
 5024 219d 4883FA02 		cmpq	$2, %rdx
 5025 21a1 0F84A700 		je	.L255
 5025      0000
 5026 21a7 E94B0100 		jmp	.L270
 5026      00
 5027              	.L254:
 5028              	.LBE73:
 5029              	.LBB74:
 5030 21ac 4889C7   		movq	%rax, %rdi
 5031 21af E8000000 		call	__cxa_begin_catch
 5031      00
 5032 21b4 48898520 		movq	%rax, -480(%rbp)
 5032      FEFFFF
 5033 21bb 488B8520 		movq	-480(%rbp), %rax
 5033      FEFFFF
 5034 21c2 488B00   		movq	(%rax), %rax
 5035 21c5 4883C010 		addq	$16, %rax
 5036 21c9 488B00   		movq	(%rax), %rax
 5037 21cc 488B9520 		movq	-480(%rbp), %rdx
 5037      FEFFFF
 5038 21d3 4889D7   		movq	%rdx, %rdi
 5039 21d6 FFD0     		call	*%rax
 5040 21d8 4889C3   		movq	%rax, %rbx
 5041 21db 488B8520 		movq	-480(%rbp), %rax
 5041      FEFFFF
 5042 21e2 4889C7   		movq	%rax, %rdi
 5043              	.LEHB113:
 5044 21e5 E8000000 		call	_ZNK8UnitTest15AssertException10LineNumberEv
 5044      00
 5045 21ea 4189C4   		movl	%eax, %r12d
 5046 21ed 488B8520 		movq	-480(%rbp), %rax
 5046      FEFFFF
 5047 21f4 4889C7   		movq	%rax, %rdi
 5048 21f7 E8000000 		call	_ZNK8UnitTest15AssertException8FilenameEv
 5048      00
 5049              		.loc 6 138 0 discriminator 5
 5050 21fc 4889C1   		movq	%rax, %rcx
 5051 21ff 488B8508 		movq	-504(%rbp), %rax
 5051      FEFFFF
 5052 2206 488B5008 		movq	8(%rax), %rdx
 5053 220a 488B8508 		movq	-504(%rbp), %rax
 5053      FEFFFF
 5054 2211 488B7010 		movq	16(%rax), %rsi
 5055 2215 488D8530 		leaq	-464(%rbp), %rax
 5055      FEFFFF
 5056 221c 4589E0   		movl	%r12d, %r8d
 5057 221f 4889C7   		movq	%rax, %rdi
 5058 2222 E8000000 		call	_ZN8UnitTest11TestDetailsC1EPKcS2_S2_i
 5058      00
 5059              		.loc 6 138 0 discriminator 9
 5060 2227 E8000000 		call	_ZN8UnitTest11CurrentTest7ResultsEv
 5060      00
 5061 222c 488B00   		movq	(%rax), %rax
 5062 222f 488D8D30 		leaq	-464(%rbp), %rcx
 5062      FEFFFF
 5063 2236 4889DA   		movq	%rbx, %rdx
 5064 2239 4889CE   		movq	%rcx, %rsi
 5065 223c 4889C7   		movq	%rax, %rdi
 5066 223f E8000000 		call	_ZN8UnitTest11TestResults13OnTestFailureERKNS_11TestDetailsEPKc
 5066      00
 5067              	.LEHE113:
 5068              		.loc 6 138 0 discriminator 13
 5069 2244 E8000000 		call	__cxa_end_catch
 5069      00
 5070              	.LBE74:
 5071 2249 E9920100 		jmp	.L250
 5071      00
 5072              	.L255:
 5073              	.LBB75:
 5074              		.loc 6 138 0
 5075 224e 4889C7   		movq	%rax, %rdi
 5076 2251 E8000000 		call	__cxa_begin_catch
 5076      00
 5077 2256 48898528 		movq	%rax, -472(%rbp)
 5077      FEFFFF
 5078              	.LBB76:
 5079 225d 488D8550 		leaq	-432(%rbp), %rax
 5079      FEFFFF
 5080 2264 4889C7   		movq	%rax, %rdi
 5081              	.LEHB114:
 5082 2267 E8000000 		call	_ZN8UnitTest15MemoryOutStreamC1Ev
 5082      00
 5083              	.LEHE114:
 5084              		.loc 6 138 0 discriminator 15
 5085 226c 488B8528 		movq	-472(%rbp), %rax
 5085      FEFFFF
 5086 2273 488B00   		movq	(%rax), %rax
 5087 2276 4883C010 		addq	$16, %rax
 5088 227a 488B00   		movq	(%rax), %rax
 5089 227d 488B9528 		movq	-472(%rbp), %rdx
 5089      FEFFFF
 5090 2284 4889D7   		movq	%rdx, %rdi
 5091 2287 FFD0     		call	*%rax
 5092 2289 4889C3   		movq	%rax, %rbx
 5093 228c 488D8550 		leaq	-432(%rbp), %rax
 5093      FEFFFF
 5094 2293 BE000000 		movl	$.LC11, %esi
 5094      00
 5095 2298 4889C7   		movq	%rax, %rdi
 5096              	.LEHB115:
 5097 229b E8000000 		call	_ZStlsISt11char_traitsIcEERSt13basic_ostreamIcT_ES5_PKc
 5097      00
 5098 22a0 4889DE   		movq	%rbx, %rsi
 5099 22a3 4889C7   		movq	%rax, %rdi
 5100 22a6 E8000000 		call	_ZStlsISt11char_traitsIcEERSt13basic_ostreamIcT_ES5_PKc
 5100      00
 5101              		.loc 6 138 0 discriminator 19
 5102 22ab 488D8550 		leaq	-432(%rbp), %rax
 5102      FEFFFF
 5103 22b2 4889C7   		movq	%rax, %rdi
 5104 22b5 E8000000 		call	_ZNK8UnitTest15MemoryOutStream7GetTextEv
 5104      00
 5105 22ba 4989C4   		movq	%rax, %r12
 5106 22bd 488B8508 		movq	-504(%rbp), %rax
 5106      FEFFFF
 5107 22c4 488D5808 		leaq	8(%rax), %rbx
 5108 22c8 E8000000 		call	_ZN8UnitTest11CurrentTest7ResultsEv
 5108      00
 5109              		.loc 6 138 0 discriminator 21
 5110 22cd 488B00   		movq	(%rax), %rax
 5111 22d0 4C89E2   		movq	%r12, %rdx
 5112 22d3 4889DE   		movq	%rbx, %rsi
 5113 22d6 4889C7   		movq	%rax, %rdi
