   1              		.file	"TestCheckMacros.cpp"
   2              		.text
   3              	.Ltext0:
   4              		.section	.rodata
   5              	.LC0:
   6 0000 44656661 		.string	"DefaultSuite"
   6      756C7453 
   6      75697465 
   6      00
   7              		.section	.text._ZN13UnitTestSuite12GetSuiteNameEv,"axG",@progbits,_ZN13UnitTestSuite12GetSuiteName
   8              		.weak	_ZN13UnitTestSuite12GetSuiteNameEv
  10              	_ZN13UnitTestSuite12GetSuiteNameEv:
  11              	.LFB0:
  12              		.file 1 "../TestSuite.h"
   1:../TestSuite.h **** #ifndef UNITTEST_TESTSUITE_H
   2:../TestSuite.h **** #define UNITTEST_TESTSUITE_H
   3:../TestSuite.h **** 
   4:../TestSuite.h **** namespace UnitTestSuite {
   5:../TestSuite.h **** 
   6:../TestSuite.h ****     inline char const* GetSuiteName ()
   7:../TestSuite.h ****     {
  13              		.loc 1 7 0
  14              		.cfi_startproc
  15 0000 55       		pushq	%rbp
  16              		.cfi_def_cfa_offset 16
  17              		.cfi_offset 6, -16
  18 0001 4889E5   		movq	%rsp, %rbp
  19              		.cfi_def_cfa_register 6
   8:../TestSuite.h ****         return "DefaultSuite";
  20              		.loc 1 8 0
  21 0004 B8000000 		movl	$.LC0, %eax
  21      00
   9:../TestSuite.h ****     }
  22              		.loc 1 9 0
  23 0009 5D       		popq	%rbp
  24              		.cfi_def_cfa 7, 8
  25 000a C3       		ret
  26              		.cfi_endproc
  27              	.LFE0:
  29              		.section	.text._ZN8UnitTest15MemoryOutStreamC1Ev,"axG",@progbits,_ZN8UnitTest15MemoryOutStreamC1Ev
  30              		.align 2
  31              		.weak	_ZN8UnitTest15MemoryOutStreamC1Ev
  33              	_ZN8UnitTest15MemoryOutStreamC1Ev:
  34              	.LFB1057:
  35              		.file 2 "../MemoryOutStream.h"
   1:../MemoryOutStream.h **** #ifndef UNITTEST_MEMORYOUTSTREAM_H
   2:../MemoryOutStream.h **** #define UNITTEST_MEMORYOUTSTREAM_H
   3:../MemoryOutStream.h **** 
   4:../MemoryOutStream.h **** #include "Config.h"
   5:../MemoryOutStream.h **** 
   6:../MemoryOutStream.h **** #ifndef UNITTEST_USE_CUSTOM_STREAMS
   7:../MemoryOutStream.h **** 
   8:../MemoryOutStream.h **** #include <sstream>
   9:../MemoryOutStream.h **** 
  10:../MemoryOutStream.h **** namespace UnitTest
  11:../MemoryOutStream.h **** {
  12:../MemoryOutStream.h **** 
  13:../MemoryOutStream.h **** class MemoryOutStream : public std::ostringstream
  14:../MemoryOutStream.h **** {
  15:../MemoryOutStream.h **** public:
  16:../MemoryOutStream.h ****     MemoryOutStream() {}
  36              		.loc 2 16 0
  37              		.cfi_startproc
  38              		.cfi_personality 0x3,__gxx_personality_v0
  39              		.cfi_lsda 0x3,.LLSDA1057
  40 0000 55       		pushq	%rbp
  41              		.cfi_def_cfa_offset 16
  42              		.cfi_offset 6, -16
  43 0001 4889E5   		movq	%rsp, %rbp
  44              		.cfi_def_cfa_register 6
  45 0004 53       		pushq	%rbx
  46 0005 4883EC18 		subq	$24, %rsp
  47              		.cfi_offset 3, -24
  48 0009 48897DE8 		movq	%rdi, -24(%rbp)
  49              	.LBB2:
  50              		.loc 2 16 0
  51 000d 488B45E8 		movq	-24(%rbp), %rax
  52 0011 48059000 		addq	$144, %rax
  52      0000
  53 0017 4889C7   		movq	%rax, %rdi
  54              	.LEHB0:
  55 001a E8000000 		call	_ZNSt9basic_iosIcSt11char_traitsIcEEC2Ev
  55      00
  56              	.LEHE0:
  57 001f B9000000 		movl	$_ZTTN8UnitTest15MemoryOutStreamE+8, %ecx
  57      00
  58 0024 488B45E8 		movq	-24(%rbp), %rax
  59 0028 BA100000 		movl	$16, %edx
  59      00
  60 002d 4889CE   		movq	%rcx, %rsi
  61 0030 4889C7   		movq	%rax, %rdi
  62              	.LEHB1:
  63 0033 E8000000 		call	_ZNSt7__cxx1119basic_ostringstreamIcSt11char_traitsIcESaIcEEC2ESt13_Ios_Openmode
  63      00
  64              	.LEHE1:
  65              		.loc 2 16 0 is_stmt 0 discriminator 9
  66 0038 BA000000 		movl	$_ZTVN8UnitTest15MemoryOutStreamE+24, %edx
  66      00
  67 003d 488B45E8 		movq	-24(%rbp), %rax
  68 0041 488910   		movq	%rdx, (%rax)
  69 0044 BA900000 		movl	$144, %edx
  69      00
  70 0049 488B45E8 		movq	-24(%rbp), %rax
  71 004d 4801D0   		addq	%rdx, %rax
  72 0050 BA000000 		movl	$_ZTVN8UnitTest15MemoryOutStreamE+64, %edx
  72      00
  73 0055 488910   		movq	%rdx, (%rax)
  74 0058 488B45E8 		movq	-24(%rbp), %rax
  75 005c 4883C070 		addq	$112, %rax
  76 0060 4889C7   		movq	%rax, %rdi
  77              	.LEHB2:
  78 0063 E8000000 		call	_ZNSt7__cxx1112basic_stringIcSt11char_traitsIcESaIcEEC1Ev
  78      00
  79              	.LEHE2:
  80              	.LBE2:
  81              		.loc 2 16 0
  82 0068 EB39     		jmp	.L9
  83              	.L7:
  84 006a 4889C3   		movq	%rax, %rbx
  85              	.LBB3:
  86 006d BA000000 		movl	$_ZTTN8UnitTest15MemoryOutStreamE+8, %edx
  86      00
  87 0072 488B45E8 		movq	-24(%rbp), %rax
  88 0076 4889D6   		movq	%rdx, %rsi
  89 0079 4889C7   		movq	%rax, %rdi
  90 007c E8000000 		call	_ZNSt7__cxx1119basic_ostringstreamIcSt11char_traitsIcESaIcEED2Ev
  90      00
  91 0081 EB03     		jmp	.L8
  92              	.L6:
  93 0083 4889C3   		movq	%rax, %rbx
  94              	.L8:
  95              		.loc 2 16 0 discriminator 28
  96 0086 488B45E8 		movq	-24(%rbp), %rax
  97 008a 48059000 		addq	$144, %rax
  97      0000
  98 0090 4889C7   		movq	%rax, %rdi
  99 0093 E8000000 		call	_ZNSt9basic_iosIcSt11char_traitsIcEED2Ev
  99      00
 100 0098 4889D8   		movq	%rbx, %rax
 101 009b 4889C7   		movq	%rax, %rdi
 102              	.LEHB3:
 103 009e E8000000 		call	_Unwind_Resume
 103      00
 104              	.LEHE3:
 105              	.L9:
 106              	.LBE3:
 107              		.loc 2 16 0
 108 00a3 4883C418 		addq	$24, %rsp
 109 00a7 5B       		popq	%rbx
 110 00a8 5D       		popq	%rbp
 111              		.cfi_def_cfa 7, 8
 112 00a9 C3       		ret
 113              		.cfi_endproc
 114              	.LFE1057:
 115              		.globl	__gxx_personality_v0
 116              		.section	.gcc_except_table._ZN8UnitTest15MemoryOutStreamC1Ev,"aG",@progbits,_ZN8UnitTest15MemoryOu
 117              	.LLSDA1057:
 118 0000 FF       		.byte	0xff
 119 0001 FF       		.byte	0xff
 120 0002 01       		.byte	0x1
 121 0003 12       		.uleb128 .LLSDACSE1057-.LLSDACSB1057
 122              	.LLSDACSB1057:
 123 0004 1A       		.uleb128 .LEHB0-.LFB1057
 124 0005 05       		.uleb128 .LEHE0-.LEHB0
 125 0006 00       		.uleb128 0
 126 0007 00       		.uleb128 0
 127 0008 33       		.uleb128 .LEHB1-.LFB1057
 128 0009 05       		.uleb128 .LEHE1-.LEHB1
 129 000a 8301     		.uleb128 .L6-.LFB1057
 130 000c 00       		.uleb128 0
 131 000d 63       		.uleb128 .LEHB2-.LFB1057
 132 000e 05       		.uleb128 .LEHE2-.LEHB2
 133 000f 6A       		.uleb128 .L7-.LFB1057
 134 0010 00       		.uleb128 0
 135 0011 9E01     		.uleb128 .LEHB3-.LFB1057
 136 0013 05       		.uleb128 .LEHE3-.LEHB3
 137 0014 00       		.uleb128 0
 138 0015 00       		.uleb128 0
 139              	.LLSDACSE1057:
 140              		.section	.text._ZN8UnitTest15MemoryOutStreamC1Ev,"axG",@progbits,_ZN8UnitTest15MemoryOutStreamC1Ev
 142              		.section	.text._ZN8UnitTest12TestReporterC2Ev,"axG",@progbits,_ZN8UnitTest12TestReporterC5Ev,comda
 143              		.align 2
 144              		.weak	_ZN8UnitTest12TestReporterC2Ev
 146              	_ZN8UnitTest12TestReporterC2Ev:
 147              	.LFB1071:
 148              		.file 3 "../TestReporter.h"
   1:../TestReporter.h **** #ifndef UNITTEST_TESTREPORTER_H
   2:../TestReporter.h **** #define UNITTEST_TESTREPORTER_H
   3:../TestReporter.h **** 
   4:../TestReporter.h **** namespace UnitTest {
   5:../TestReporter.h **** 
   6:../TestReporter.h **** class TestDetails;
   7:../TestReporter.h **** 
   8:../TestReporter.h **** class TestReporter
 149              		.loc 3 8 0 is_stmt 1
 150              		.cfi_startproc
 151 0000 55       		pushq	%rbp
 152              		.cfi_def_cfa_offset 16
 153              		.cfi_offset 6, -16
 154 0001 4889E5   		movq	%rsp, %rbp
 155              		.cfi_def_cfa_register 6
 156 0004 48897DF8 		movq	%rdi, -8(%rbp)
 157              	.LBB4:
 158              		.loc 3 8 0
 159 0008 BA000000 		movl	$_ZTVN8UnitTest12TestReporterE+16, %edx
 159      00
 160 000d 488B45F8 		movq	-8(%rbp), %rax
 161 0011 488910   		movq	%rdx, (%rax)
 162              	.LBE4:
 163 0014 90       		nop
 164 0015 5D       		popq	%rbp
 165              		.cfi_def_cfa 7, 8
 166 0016 C3       		ret
 167              		.cfi_endproc
 168              	.LFE1071:
 170              		.weak	_ZN8UnitTest12TestReporterC1Ev
 171              		.set	_ZN8UnitTest12TestReporterC1Ev,_ZN8UnitTest12TestReporterC2Ev
 172              		.section	.text._ZN17RecordingReporterC2Ev,"axG",@progbits,_ZN17RecordingReporterC5Ev,comdat
 173              		.align 2
 174              		.weak	_ZN17RecordingReporterC2Ev
 176              	_ZN17RecordingReporterC2Ev:
 177              	.LFB1073:
 178              		.file 4 "RecordingReporter.h"
   1:RecordingReporter.h **** #ifndef UNITTEST_RECORDINGREPORTER_H
   2:RecordingReporter.h **** #define UNITTEST_RECORDINGREPORTER_H
   3:RecordingReporter.h **** 
   4:RecordingReporter.h **** #include "../TestReporter.h"
   5:RecordingReporter.h **** #include <cstring>
   6:RecordingReporter.h **** 
   7:RecordingReporter.h **** #include "../TestDetails.h"
   8:RecordingReporter.h **** 
   9:RecordingReporter.h **** struct RecordingReporter : public UnitTest::TestReporter
  10:RecordingReporter.h **** {
  11:RecordingReporter.h **** private:
  12:RecordingReporter.h ****     enum { kMaxStringLength = 256 };
  13:RecordingReporter.h **** 
  14:RecordingReporter.h **** public:
  15:RecordingReporter.h ****     RecordingReporter()
 179              		.loc 4 15 0
 180              		.cfi_startproc
 181 0000 55       		pushq	%rbp
 182              		.cfi_def_cfa_offset 16
 183              		.cfi_offset 6, -16
 184 0001 4889E5   		movq	%rsp, %rbp
 185              		.cfi_def_cfa_register 6
 186 0004 4883EC10 		subq	$16, %rsp
 187 0008 48897DF8 		movq	%rdi, -8(%rbp)
 188              	.LBB5:
  16:RecordingReporter.h ****         : testRunCount(0)
  17:RecordingReporter.h ****         , testFailedCount(0)
  18:RecordingReporter.h ****         , lastFailedLine(0)
  19:RecordingReporter.h ****         , testFinishedCount(0)
  20:RecordingReporter.h ****         , lastFinishedTestTime(0)
  21:RecordingReporter.h ****         , summaryTotalTestCount(0)
  22:RecordingReporter.h ****         , summaryFailedTestCount(0)
  23:RecordingReporter.h ****         , summaryFailureCount(0)
  24:RecordingReporter.h ****         , summarySecondsElapsed(0)
 189              		.loc 4 24 0
 190 000c 488B45F8 		movq	-8(%rbp), %rax
 191 0010 4889C7   		movq	%rax, %rdi
 192 0013 E8000000 		call	_ZN8UnitTest12TestReporterC2Ev
 192      00
 193 0018 BA000000 		movl	$_ZTV17RecordingReporter+16, %edx
 193      00
 194 001d 488B45F8 		movq	-8(%rbp), %rax
 195 0021 488910   		movq	%rdx, (%rax)
 196 0024 488B45F8 		movq	-8(%rbp), %rax
 197 0028 C7400800 		movl	$0, 8(%rax)
 197      000000
 198 002f 488B45F8 		movq	-8(%rbp), %rax
 199 0033 C7800C02 		movl	$0, 524(%rax)
 199      00000000 
 199      0000
 200 003d 488B45F8 		movq	-8(%rbp), %rax
 201 0041 C7801003 		movl	$0, 784(%rax)
 201      00000000 
 201      0000
 202 004b 488B45F8 		movq	-8(%rbp), %rax
 203 004f C7801406 		movl	$0, 1556(%rax)
 203      00000000 
 203      0000
 204 0059 488B45F8 		movq	-8(%rbp), %rax
 205 005d 660FEFC0 		pxor	%xmm0, %xmm0
 206 0061 F30F1180 		movss	%xmm0, 2072(%rax)
 206      18080000 
 207 0069 488B45F8 		movq	-8(%rbp), %rax
 208 006d C7801C08 		movl	$0, 2076(%rax)
 208      00000000 
 208      0000
 209 0077 488B45F8 		movq	-8(%rbp), %rax
 210 007b C7802008 		movl	$0, 2080(%rax)
 210      00000000 
 210      0000
 211 0085 488B45F8 		movq	-8(%rbp), %rax
 212 0089 C7802408 		movl	$0, 2084(%rax)
 212      00000000 
 212      0000
 213 0093 488B45F8 		movq	-8(%rbp), %rax
 214 0097 660FEFC0 		pxor	%xmm0, %xmm0
 215 009b F30F1180 		movss	%xmm0, 2088(%rax)
 215      28080000 
  25:RecordingReporter.h ****     {
  26:RecordingReporter.h ****         lastStartedSuite[0] = '\0';
 216              		.loc 4 26 0
 217 00a3 488B45F8 		movq	-8(%rbp), %rax
 218 00a7 C6400C00 		movb	$0, 12(%rax)
  27:RecordingReporter.h ****         lastStartedTest[0] = '\0';
 219              		.loc 4 27 0
 220 00ab 488B45F8 		movq	-8(%rbp), %rax
 221 00af C6800C01 		movb	$0, 268(%rax)
 221      000000
  28:RecordingReporter.h ****         lastFailedFile[0] = '\0';
 222              		.loc 4 28 0
 223 00b6 488B45F8 		movq	-8(%rbp), %rax
 224 00ba C6801002 		movb	$0, 528(%rax)
 224      000000
  29:RecordingReporter.h ****         lastFailedSuite[0] = '\0';
 225              		.loc 4 29 0
 226 00c1 488B45F8 		movq	-8(%rbp), %rax
 227 00c5 C6801403 		movb	$0, 788(%rax)
 227      000000
  30:RecordingReporter.h ****         lastFailedTest[0] = '\0';
 228              		.loc 4 30 0
 229 00cc 488B45F8 		movq	-8(%rbp), %rax
 230 00d0 C6801404 		movb	$0, 1044(%rax)
 230      000000
  31:RecordingReporter.h ****         lastFailedMessage[0] = '\0';
 231              		.loc 4 31 0
 232 00d7 488B45F8 		movq	-8(%rbp), %rax
 233 00db C6801405 		movb	$0, 1300(%rax)
 233      000000
  32:RecordingReporter.h ****         lastFinishedSuite[0] = '\0';
 234              		.loc 4 32 0
 235 00e2 488B45F8 		movq	-8(%rbp), %rax
 236 00e6 C6801806 		movb	$0, 1560(%rax)
 236      000000
  33:RecordingReporter.h ****         lastFinishedTest[0] = '\0';
 237              		.loc 4 33 0
 238 00ed 488B45F8 		movq	-8(%rbp), %rax
 239 00f1 C6801807 		movb	$0, 1816(%rax)
 239      000000
 240              	.LBE5:
  34:RecordingReporter.h ****     }
 241              		.loc 4 34 0
 242 00f8 90       		nop
 243 00f9 C9       		leave
 244              		.cfi_def_cfa 7, 8
 245 00fa C3       		ret
 246              		.cfi_endproc
 247              	.LFE1073:
 249              		.weak	_ZN17RecordingReporterC1Ev
 250              		.set	_ZN17RecordingReporterC1Ev,_ZN17RecordingReporterC2Ev
 251              		.section	.text._ZN17RecordingReporter15ReportTestStartERKN8UnitTest11TestDetailsE,"axG",@progbits,
 252              		.align 2
 253              		.weak	_ZN17RecordingReporter15ReportTestStartERKN8UnitTest11TestDetailsE
 255              	_ZN17RecordingReporter15ReportTestStartERKN8UnitTest11TestDetailsE:
 256              	.LFB1075:
  35:RecordingReporter.h **** 
  36:RecordingReporter.h ****     virtual void ReportTestStart(UnitTest::TestDetails const& test)
 257              		.loc 4 36 0
 258              		.cfi_startproc
 259 0000 55       		pushq	%rbp
 260              		.cfi_def_cfa_offset 16
 261              		.cfi_offset 6, -16
 262 0001 4889E5   		movq	%rsp, %rbp
 263              		.cfi_def_cfa_register 6
 264 0004 4883EC10 		subq	$16, %rsp
 265 0008 48897DF8 		movq	%rdi, -8(%rbp)
 266 000c 488975F0 		movq	%rsi, -16(%rbp)
  37:RecordingReporter.h ****     {
  38:RecordingReporter.h **** 		using namespace std;
  39:RecordingReporter.h **** 
  40:RecordingReporter.h ****         ++testRunCount;
 267              		.loc 4 40 0
 268 0010 488B45F8 		movq	-8(%rbp), %rax
 269 0014 8B4008   		movl	8(%rax), %eax
 270 0017 8D5001   		leal	1(%rax), %edx
 271 001a 488B45F8 		movq	-8(%rbp), %rax
 272 001e 895008   		movl	%edx, 8(%rax)
  41:RecordingReporter.h ****         strcpy(lastStartedSuite, test.suiteName);
 273              		.loc 4 41 0
 274 0021 488B45F0 		movq	-16(%rbp), %rax
 275 0025 488B00   		movq	(%rax), %rax
 276 0028 488B55F8 		movq	-8(%rbp), %rdx
 277 002c 4883C20C 		addq	$12, %rdx
 278 0030 4889C6   		movq	%rax, %rsi
 279 0033 4889D7   		movq	%rdx, %rdi
 280 0036 E8000000 		call	strcpy
 280      00
  42:RecordingReporter.h ****         strcpy(lastStartedTest, test.testName);
 281              		.loc 4 42 0
 282 003b 488B45F0 		movq	-16(%rbp), %rax
 283 003f 488B4008 		movq	8(%rax), %rax
 284 0043 488B55F8 		movq	-8(%rbp), %rdx
 285 0047 4881C20C 		addq	$268, %rdx
 285      010000
 286 004e 4889C6   		movq	%rax, %rsi
 287 0051 4889D7   		movq	%rdx, %rdi
 288 0054 E8000000 		call	strcpy
 288      00
  43:RecordingReporter.h ****     }
 289              		.loc 4 43 0
 290 0059 90       		nop
 291 005a C9       		leave
 292              		.cfi_def_cfa 7, 8
 293 005b C3       		ret
 294              		.cfi_endproc
 295              	.LFE1075:
 297              		.section	.text._ZN17RecordingReporter13ReportFailureERKN8UnitTest11TestDetailsEPKc,"axG",@progbits
 298              		.align 2
 299              		.weak	_ZN17RecordingReporter13ReportFailureERKN8UnitTest11TestDetailsEPKc
 301              	_ZN17RecordingReporter13ReportFailureERKN8UnitTest11TestDetailsEPKc:
 302              	.LFB1076:
  44:RecordingReporter.h **** 
  45:RecordingReporter.h ****     virtual void ReportFailure(UnitTest::TestDetails const& test, char const* failure)
 303              		.loc 4 45 0
 304              		.cfi_startproc
 305 0000 55       		pushq	%rbp
 306              		.cfi_def_cfa_offset 16
 307              		.cfi_offset 6, -16
 308 0001 4889E5   		movq	%rsp, %rbp
 309              		.cfi_def_cfa_register 6
 310 0004 4883EC20 		subq	$32, %rsp
 311 0008 48897DF8 		movq	%rdi, -8(%rbp)
 312 000c 488975F0 		movq	%rsi, -16(%rbp)
 313 0010 488955E8 		movq	%rdx, -24(%rbp)
  46:RecordingReporter.h ****     {
  47:RecordingReporter.h **** 		using namespace std;
  48:RecordingReporter.h **** 
  49:RecordingReporter.h **** 		++testFailedCount;
 314              		.loc 4 49 0
 315 0014 488B45F8 		movq	-8(%rbp), %rax
 316 0018 8B800C02 		movl	524(%rax), %eax
 316      0000
 317 001e 8D5001   		leal	1(%rax), %edx
 318 0021 488B45F8 		movq	-8(%rbp), %rax
 319 0025 89900C02 		movl	%edx, 524(%rax)
 319      0000
  50:RecordingReporter.h ****         strcpy(lastFailedFile, test.filename);
 320              		.loc 4 50 0
 321 002b 488B45F0 		movq	-16(%rbp), %rax
 322 002f 488B4010 		movq	16(%rax), %rax
 323 0033 488B55F8 		movq	-8(%rbp), %rdx
 324 0037 4881C210 		addq	$528, %rdx
 324      020000
 325 003e 4889C6   		movq	%rax, %rsi
 326 0041 4889D7   		movq	%rdx, %rdi
 327 0044 E8000000 		call	strcpy
 327      00
  51:RecordingReporter.h ****         lastFailedLine = test.lineNumber;
 328              		.loc 4 51 0
 329 0049 488B45F0 		movq	-16(%rbp), %rax
 330 004d 8B5018   		movl	24(%rax), %edx
 331 0050 488B45F8 		movq	-8(%rbp), %rax
 332 0054 89901003 		movl	%edx, 784(%rax)
 332      0000
  52:RecordingReporter.h ****         strcpy(lastFailedSuite, test.suiteName);
 333              		.loc 4 52 0
 334 005a 488B45F0 		movq	-16(%rbp), %rax
 335 005e 488B00   		movq	(%rax), %rax
 336 0061 488B55F8 		movq	-8(%rbp), %rdx
 337 0065 4881C214 		addq	$788, %rdx
 337      030000
 338 006c 4889C6   		movq	%rax, %rsi
 339 006f 4889D7   		movq	%rdx, %rdi
 340 0072 E8000000 		call	strcpy
 340      00
  53:RecordingReporter.h ****         strcpy(lastFailedTest, test.testName);
 341              		.loc 4 53 0
 342 0077 488B45F0 		movq	-16(%rbp), %rax
 343 007b 488B4008 		movq	8(%rax), %rax
 344 007f 488B55F8 		movq	-8(%rbp), %rdx
 345 0083 4881C214 		addq	$1044, %rdx
 345      040000
 346 008a 4889C6   		movq	%rax, %rsi
 347 008d 4889D7   		movq	%rdx, %rdi
 348 0090 E8000000 		call	strcpy
 348      00
  54:RecordingReporter.h ****         strcpy(lastFailedMessage, failure);
 349              		.loc 4 54 0
 350 0095 488B45F8 		movq	-8(%rbp), %rax
 351 0099 488D9014 		leaq	1300(%rax), %rdx
 351      050000
 352 00a0 488B45E8 		movq	-24(%rbp), %rax
 353 00a4 4889C6   		movq	%rax, %rsi
 354 00a7 4889D7   		movq	%rdx, %rdi
 355 00aa E8000000 		call	strcpy
 355      00
  55:RecordingReporter.h ****     }
 356              		.loc 4 55 0
 357 00af 90       		nop
 358 00b0 C9       		leave
 359              		.cfi_def_cfa 7, 8
 360 00b1 C3       		ret
 361              		.cfi_endproc
 362              	.LFE1076:
 364              		.section	.text._ZN17RecordingReporter16ReportTestFinishERKN8UnitTest11TestDetailsEf,"axG",@progbit
 365              		.align 2
 366              		.weak	_ZN17RecordingReporter16ReportTestFinishERKN8UnitTest11TestDetailsEf
 368              	_ZN17RecordingReporter16ReportTestFinishERKN8UnitTest11TestDetailsEf:
 369              	.LFB1077:
  56:RecordingReporter.h **** 
  57:RecordingReporter.h ****     virtual void ReportTestFinish(UnitTest::TestDetails const& test, float testDuration)
 370              		.loc 4 57 0
 371              		.cfi_startproc
 372 0000 55       		pushq	%rbp
 373              		.cfi_def_cfa_offset 16
 374              		.cfi_offset 6, -16
 375 0001 4889E5   		movq	%rsp, %rbp
 376              		.cfi_def_cfa_register 6
 377 0004 4883EC20 		subq	$32, %rsp
 378 0008 48897DF8 		movq	%rdi, -8(%rbp)
 379 000c 488975F0 		movq	%rsi, -16(%rbp)
 380 0010 F30F1145 		movss	%xmm0, -20(%rbp)
 380      EC
  58:RecordingReporter.h ****     {
  59:RecordingReporter.h **** 		using namespace std;
  60:RecordingReporter.h **** 
  61:RecordingReporter.h **** 		++testFinishedCount;
 381              		.loc 4 61 0
 382 0015 488B45F8 		movq	-8(%rbp), %rax
 383 0019 8B801406 		movl	1556(%rax), %eax
 383      0000
 384 001f 8D5001   		leal	1(%rax), %edx
 385 0022 488B45F8 		movq	-8(%rbp), %rax
 386 0026 89901406 		movl	%edx, 1556(%rax)
 386      0000
  62:RecordingReporter.h ****         strcpy(lastFinishedSuite, test.suiteName);
 387              		.loc 4 62 0
 388 002c 488B45F0 		movq	-16(%rbp), %rax
 389 0030 488B00   		movq	(%rax), %rax
 390 0033 488B55F8 		movq	-8(%rbp), %rdx
 391 0037 4881C218 		addq	$1560, %rdx
 391      060000
 392 003e 4889C6   		movq	%rax, %rsi
 393 0041 4889D7   		movq	%rdx, %rdi
 394 0044 E8000000 		call	strcpy
 394      00
  63:RecordingReporter.h ****         strcpy(lastFinishedTest, test.testName);
 395              		.loc 4 63 0
 396 0049 488B45F0 		movq	-16(%rbp), %rax
 397 004d 488B4008 		movq	8(%rax), %rax
 398 0051 488B55F8 		movq	-8(%rbp), %rdx
 399 0055 4881C218 		addq	$1816, %rdx
 399      070000
 400 005c 4889C6   		movq	%rax, %rsi
 401 005f 4889D7   		movq	%rdx, %rdi
 402 0062 E8000000 		call	strcpy
 402      00
  64:RecordingReporter.h ****         lastFinishedTestTime = testDuration;
 403              		.loc 4 64 0
 404 0067 488B45F8 		movq	-8(%rbp), %rax
 405 006b F30F1045 		movss	-20(%rbp), %xmm0
 405      EC
 406 0070 F30F1180 		movss	%xmm0, 2072(%rax)
 406      18080000 
  65:RecordingReporter.h ****     }
 407              		.loc 4 65 0
 408 0078 90       		nop
 409 0079 C9       		leave
 410              		.cfi_def_cfa 7, 8
 411 007a C3       		ret
 412              		.cfi_endproc
 413              	.LFE1077:
 415              		.section	.text._ZN17RecordingReporter13ReportSummaryEiiif,"axG",@progbits,_ZN17RecordingReporter13
 416              		.align 2
 417              		.weak	_ZN17RecordingReporter13ReportSummaryEiiif
 419              	_ZN17RecordingReporter13ReportSummaryEiiif:
 420              	.LFB1078:
  66:RecordingReporter.h **** 
  67:RecordingReporter.h ****     virtual void ReportSummary(int totalTestCount, int failedTestCount, int failureCount, float sec
 421              		.loc 4 67 0
 422              		.cfi_startproc
 423 0000 55       		pushq	%rbp
 424              		.cfi_def_cfa_offset 16
 425              		.cfi_offset 6, -16
 426 0001 4889E5   		movq	%rsp, %rbp
 427              		.cfi_def_cfa_register 6
 428 0004 48897DF8 		movq	%rdi, -8(%rbp)
 429 0008 8975F4   		movl	%esi, -12(%rbp)
 430 000b 8955F0   		movl	%edx, -16(%rbp)
 431 000e 894DEC   		movl	%ecx, -20(%rbp)
 432 0011 F30F1145 		movss	%xmm0, -24(%rbp)
 432      E8
  68:RecordingReporter.h ****     {
  69:RecordingReporter.h ****         summaryTotalTestCount = totalTestCount;
 433              		.loc 4 69 0
 434 0016 488B45F8 		movq	-8(%rbp), %rax
 435 001a 8B55F4   		movl	-12(%rbp), %edx
 436 001d 89901C08 		movl	%edx, 2076(%rax)
 436      0000
  70:RecordingReporter.h ****         summaryFailedTestCount = failedTestCount;
 437              		.loc 4 70 0
 438 0023 488B45F8 		movq	-8(%rbp), %rax
 439 0027 8B55F0   		movl	-16(%rbp), %edx
 440 002a 89902008 		movl	%edx, 2080(%rax)
 440      0000
  71:RecordingReporter.h ****         summaryFailureCount = failureCount;
 441              		.loc 4 71 0
 442 0030 488B45F8 		movq	-8(%rbp), %rax
 443 0034 8B55EC   		movl	-20(%rbp), %edx
 444 0037 89902408 		movl	%edx, 2084(%rax)
 444      0000
  72:RecordingReporter.h ****         summarySecondsElapsed = secondsElapsed;
 445              		.loc 4 72 0
 446 003d 488B45F8 		movq	-8(%rbp), %rax
 447 0041 F30F1045 		movss	-24(%rbp), %xmm0
 447      E8
 448 0046 F30F1180 		movss	%xmm0, 2088(%rax)
 448      28080000 
  73:RecordingReporter.h ****     }
 449              		.loc 4 73 0
 450 004e 90       		nop
 451 004f 5D       		popq	%rbp
 452              		.cfi_def_cfa 7, 8
 453 0050 C3       		ret
 454              		.cfi_endproc
 455              	.LFE1078:
 457              		.section	.text._ZN17ScopedCurrentTestC2ERN8UnitTest11TestResultsEPKNS0_11TestDetailsE,"axG",@progb
 458              		.align 2
 459              		.weak	_ZN17ScopedCurrentTestC2ERN8UnitTest11TestResultsEPKNS0_11TestDetailsE
 461              	_ZN17ScopedCurrentTestC2ERN8UnitTest11TestResultsEPKNS0_11TestDetailsE:
 462              	.LFB1083:
 463              		.file 5 "ScopedCurrentTest.h"
   1:ScopedCurrentTest.h **** #ifndef UNITTEST_SCOPEDCURRENTTEST_H
   2:ScopedCurrentTest.h **** #define UNITTEST_SCOPEDCURRENTTEST_H
   3:ScopedCurrentTest.h **** 
   4:ScopedCurrentTest.h **** #include "../CurrentTest.h"
   5:ScopedCurrentTest.h **** #include <cstddef>
   6:ScopedCurrentTest.h **** 
   7:ScopedCurrentTest.h **** class ScopedCurrentTest
   8:ScopedCurrentTest.h **** {
   9:ScopedCurrentTest.h **** public:
  10:ScopedCurrentTest.h **** 	ScopedCurrentTest()
  11:ScopedCurrentTest.h **** 		: m_oldTestResults(UnitTest::CurrentTest::Results())
  12:ScopedCurrentTest.h **** 		, m_oldTestDetails(UnitTest::CurrentTest::Details())
  13:ScopedCurrentTest.h **** 	{
  14:ScopedCurrentTest.h **** 	}
  15:ScopedCurrentTest.h **** 
  16:ScopedCurrentTest.h **** 	explicit ScopedCurrentTest(UnitTest::TestResults& newResults, const UnitTest::TestDetails* newDeta
 464              		.loc 5 16 0
 465              		.cfi_startproc
 466 0000 55       		pushq	%rbp
 467              		.cfi_def_cfa_offset 16
 468              		.cfi_offset 6, -16
 469 0001 4889E5   		movq	%rsp, %rbp
 470              		.cfi_def_cfa_register 6
 471 0004 4883EC20 		subq	$32, %rsp
 472 0008 48897DF8 		movq	%rdi, -8(%rbp)
 473 000c 488975F0 		movq	%rsi, -16(%rbp)
 474 0010 488955E8 		movq	%rdx, -24(%rbp)
 475              	.LBB6:
  17:ScopedCurrentTest.h **** 		: m_oldTestResults(UnitTest::CurrentTest::Results())
 476              		.loc 5 17 0
 477 0014 E8000000 		call	_ZN8UnitTest11CurrentTest7ResultsEv
 477      00
 478 0019 488B10   		movq	(%rax), %rdx
  18:ScopedCurrentTest.h **** 		, m_oldTestDetails(UnitTest::CurrentTest::Details())
 479              		.loc 5 18 0
 480 001c 488B45F8 		movq	-8(%rbp), %rax
 481 0020 488910   		movq	%rdx, (%rax)
 482 0023 E8000000 		call	_ZN8UnitTest11CurrentTest7DetailsEv
 482      00
 483 0028 488B10   		movq	(%rax), %rdx
 484 002b 488B45F8 		movq	-8(%rbp), %rax
 485 002f 48895008 		movq	%rdx, 8(%rax)
  19:ScopedCurrentTest.h **** 	{
  20:ScopedCurrentTest.h **** 		UnitTest::CurrentTest::Results() = &newResults;
 486              		.loc 5 20 0
 487 0033 E8000000 		call	_ZN8UnitTest11CurrentTest7ResultsEv
 487      00
 488 0038 4889C2   		movq	%rax, %rdx
 489 003b 488B45F0 		movq	-16(%rbp), %rax
 490 003f 488902   		movq	%rax, (%rdx)
  21:ScopedCurrentTest.h **** 
  22:ScopedCurrentTest.h **** 		if (newDetails != NULL)
 491              		.loc 5 22 0
 492 0042 48837DE8 		cmpq	$0, -24(%rbp)
 492      00
 493 0047 740F     		je	.L18
  23:ScopedCurrentTest.h **** 			UnitTest::CurrentTest::Details() = newDetails;
 494              		.loc 5 23 0
 495 0049 E8000000 		call	_ZN8UnitTest11CurrentTest7DetailsEv
 495      00
 496 004e 4889C2   		movq	%rax, %rdx
 497 0051 488B45E8 		movq	-24(%rbp), %rax
 498 0055 488902   		movq	%rax, (%rdx)
 499              	.L18:
 500              	.LBE6:
  24:ScopedCurrentTest.h **** 	}
 501              		.loc 5 24 0
 502 0058 90       		nop
 503 0059 C9       		leave
 504              		.cfi_def_cfa 7, 8
 505 005a C3       		ret
 506              		.cfi_endproc
 507              	.LFE1083:
 509              		.weak	_ZN17ScopedCurrentTestC1ERN8UnitTest11TestResultsEPKNS0_11TestDetailsE
 510              		.set	_ZN17ScopedCurrentTestC1ERN8UnitTest11TestResultsEPKNS0_11TestDetailsE,_ZN17ScopedCurrentTest
 511              		.section	.text._ZN17ScopedCurrentTestD2Ev,"axG",@progbits,_ZN17ScopedCurrentTestD5Ev,comdat
 512              		.align 2
 513              		.weak	_ZN17ScopedCurrentTestD2Ev
 515              	_ZN17ScopedCurrentTestD2Ev:
 516              	.LFB1086:
  25:ScopedCurrentTest.h **** 
  26:ScopedCurrentTest.h **** 	~ScopedCurrentTest()
 517              		.loc 5 26 0
 518              		.cfi_startproc
 519 0000 55       		pushq	%rbp
 520              		.cfi_def_cfa_offset 16
 521              		.cfi_offset 6, -16
 522 0001 4889E5   		movq	%rsp, %rbp
 523              		.cfi_def_cfa_register 6
 524 0004 4883EC10 		subq	$16, %rsp
 525 0008 48897DF8 		movq	%rdi, -8(%rbp)
 526              	.LBB7:
  27:ScopedCurrentTest.h **** 	{
  28:ScopedCurrentTest.h **** 		UnitTest::CurrentTest::Results() = m_oldTestResults;
 527              		.loc 5 28 0
 528 000c E8000000 		call	_ZN8UnitTest11CurrentTest7ResultsEv
 528      00
 529 0011 4889C2   		movq	%rax, %rdx
 530 0014 488B45F8 		movq	-8(%rbp), %rax
 531 0018 488B00   		movq	(%rax), %rax
 532 001b 488902   		movq	%rax, (%rdx)
  29:ScopedCurrentTest.h **** 		UnitTest::CurrentTest::Details() = m_oldTestDetails;
 533              		.loc 5 29 0
 534 001e E8000000 		call	_ZN8UnitTest11CurrentTest7DetailsEv
 534      00
 535 0023 4889C2   		movq	%rax, %rdx
 536 0026 488B45F8 		movq	-8(%rbp), %rax
 537 002a 488B4008 		movq	8(%rax), %rax
 538 002e 488902   		movq	%rax, (%rdx)
 539              	.LBE7:
  30:ScopedCurrentTest.h **** 	}
 540              		.loc 5 30 0
 541 0031 90       		nop
 542 0032 C9       		leave
 543              		.cfi_def_cfa 7, 8
 544 0033 C3       		ret
 545              		.cfi_endproc
 546              	.LFE1086:
 548              		.weak	_ZN17ScopedCurrentTestD1Ev
 549              		.set	_ZN17ScopedCurrentTestD1Ev,_ZN17ScopedCurrentTestD2Ev
 550              		.section	.rodata
 551              	.LC2:
 552 000d 54657374 		.string	"TestCheckMacros.cpp"
 552      43686563 
 552      6B4D6163 
 552      726F732E 
 552      63707000 
 553              	.LC3:
 554 0021 43686563 		.string	"CheckSucceedsOnTrue"
 554      6B537563 
 554      63656564 
 554      734F6E54 
 554      72756500 
 555              		.text
 556              		.align 2
 558              	_ZN12_GLOBAL__N_123TestCheckSucceedsOnTrueC2Ev:
 559              	.LFB1089:
 560              		.file 6 "TestCheckMacros.cpp"
   1:TestCheckMacros.cpp **** #include "../UnitTest++.h"
   2:TestCheckMacros.cpp **** #include "../CurrentTest.h"
   3:TestCheckMacros.cpp **** #include "RecordingReporter.h"
   4:TestCheckMacros.cpp **** #include "ScopedCurrentTest.h"
   5:TestCheckMacros.cpp **** 
   6:TestCheckMacros.cpp **** using namespace std;
   7:TestCheckMacros.cpp **** 
   8:TestCheckMacros.cpp **** namespace {
   9:TestCheckMacros.cpp **** 
  10:TestCheckMacros.cpp **** TEST(CheckSucceedsOnTrue)
 561              		.loc 6 10 0
 562              		.cfi_startproc
 563 0000 55       		pushq	%rbp
 564              		.cfi_def_cfa_offset 16
 565              		.cfi_offset 6, -16
 566 0001 4889E5   		movq	%rsp, %rbp
 567              		.cfi_def_cfa_register 6
 568 0004 4883EC10 		subq	$16, %rsp
 569 0008 48897DF8 		movq	%rdi, -8(%rbp)
 570              	.LBB8:
 571              		.loc 6 10 0
 572 000c E8000000 		call	_ZN13UnitTestSuite12GetSuiteNameEv
 572      00
 573 0011 4889C2   		movq	%rax, %rdx
 574 0014 488B45F8 		movq	-8(%rbp), %rax
 575 0018 41B80A00 		movl	$10, %r8d
 575      0000
 576 001e B9000000 		movl	$.LC2, %ecx
 576      00
 577 0023 BE000000 		movl	$.LC3, %esi
 577      00
 578 0028 4889C7   		movq	%rax, %rdi
 579 002b E8000000 		call	_ZN8UnitTest4TestC2EPKcS2_S2_i
 579      00
 580 0030 BA000000 		movl	$_ZTVN12_GLOBAL__N_123TestCheckSucceedsOnTrueE+16, %edx
 580      00
 581 0035 488B45F8 		movq	-8(%rbp), %rax
 582 0039 488910   		movq	%rdx, (%rax)
 583              	.LBE8:
 584 003c 90       		nop
 585 003d C9       		leave
 586              		.cfi_def_cfa 7, 8
 587 003e C3       		ret
 588              		.cfi_endproc
 589              	.LFE1089:
 591              		.set	_ZN12_GLOBAL__N_123TestCheckSucceedsOnTrueC1Ev,_ZN12_GLOBAL__N_123TestCheckSucceedsOnTrueC2Ev
 592              		.local	_ZN12_GLOBAL__N_131testCheckSucceedsOnTrueInstanceE
 593              		.comm	_ZN12_GLOBAL__N_131testCheckSucceedsOnTrueInstanceE,56,32
 594              		.local	_ZN12_GLOBAL__N_124adderCheckSucceedsOnTrueE
 595              		.comm	_ZN12_GLOBAL__N_124adderCheckSucceedsOnTrueE,1,1
 596              		.section	.rodata
 597              	.LC4:
 598 0035 74727565 		.string	"true"
 598      00
 599              	.LC5:
 600 003a 21666169 		.string	"!failure"
 600      6C757265 
 600      00
 601 0043 00000000 		.align 8
 601      00
 602              	.LC6:
 603 0048 556E6861 		.string	"Unhandled exception in CHECK(true)"
 603      6E646C65 
 603      64206578 
 603      63657074 
 603      696F6E20 
 604 006b 00000000 		.align 8
 604      00
 605              	.LC7:
 606 0070 556E6861 		.string	"Unhandled exception in CHECK(!failure)"
 606      6E646C65 
 606      64206578 
 606      63657074 
 606      696F6E20 
 607              		.text
 608 003f 90       		.align 2
 610              	_ZNK12_GLOBAL__N_123TestCheckSucceedsOnTrue7RunImplEv:
 611              	.LFB1091:
  11:TestCheckMacros.cpp **** {
 612              		.loc 6 11 0
 613              		.cfi_startproc
 614              		.cfi_personality 0x3,__gxx_personality_v0
 615              		.cfi_lsda 0x3,.LLSDA1091
 616 0040 55       		pushq	%rbp
 617              		.cfi_def_cfa_offset 16
 618              		.cfi_offset 6, -16
 619 0041 4889E5   		movq	%rsp, %rbp
 620              		.cfi_def_cfa_register 6
 621 0044 53       		pushq	%rbx
 622 0045 4881ECB8 		subq	$2232, %rsp
 622      080000
 623              		.cfi_offset 3, -24
 624 004c 4889BD48 		movq	%rdi, -2232(%rbp)
 624      F7FFFF
 625              		.loc 6 11 0
 626 0053 64488B04 		movq	%fs:40, %rax
 626      25280000 
 626      00
 627 005c 488945E8 		movq	%rax, -24(%rbp)
 628 0060 31C0     		xorl	%eax, %eax
  12:TestCheckMacros.cpp ****     bool failure = true;
 629              		.loc 6 12 0
 630 0062 C6855FF7 		movb	$1, -2209(%rbp)
 630      FFFF01
 631              	.LBB9:
  13:TestCheckMacros.cpp ****     {
  14:TestCheckMacros.cpp ****         RecordingReporter reporter;
 632              		.loc 6 14 0
 633 0069 488D85B0 		leaq	-2128(%rbp), %rax
 633      F7FFFF
 634 0070 4889C7   		movq	%rax, %rdi
 635 0073 E8000000 		call	_ZN17RecordingReporterC1Ev
 635      00
  15:TestCheckMacros.cpp ****         UnitTest::TestResults testResults(&reporter);
 636              		.loc 6 15 0
 637 0078 488D95B0 		leaq	-2128(%rbp), %rdx
 637      F7FFFF
 638 007f 488D8570 		leaq	-2192(%rbp), %rax
 638      F7FFFF
 639 0086 4889D6   		movq	%rdx, %rsi
 640 0089 4889C7   		movq	%rax, %rdi
 641              	.LEHB4:
 642 008c E8000000 		call	_ZN8UnitTest11TestResultsC1EPNS_12TestReporterE
 642      00
  16:TestCheckMacros.cpp **** 
  17:TestCheckMacros.cpp **** 		ScopedCurrentTest scopedResults(testResults);
 643              		.loc 6 17 0
 644 0091 488D8D70 		leaq	-2192(%rbp), %rcx
 644      F7FFFF
 645 0098 488D8560 		leaq	-2208(%rbp), %rax
 645      F7FFFF
 646 009f BA000000 		movl	$0, %edx
 646      00
 647 00a4 4889CE   		movq	%rcx, %rsi
 648 00a7 4889C7   		movq	%rax, %rdi
 649 00aa E8000000 		call	_ZN17ScopedCurrentTestC1ERN8UnitTest11TestResultsEPKNS0_11TestDetailsE
 649      00
 650              	.LEHE4:
  18:TestCheckMacros.cpp **** 		CHECK(true);
 651              		.loc 6 18 0
 652 00af BF010000 		movl	$1, %edi
 652      00
 653 00b4 E8000000 		call	_ZN8UnitTest5CheckIbEEbT_
 653      00
 654 00b9 83F001   		xorl	$1, %eax
 655 00bc 84C0     		testb	%al, %al
 656 00be 743E     		je	.L22
 657              	.LEHB5:
 658              		.loc 6 18 0 is_stmt 0 discriminator 1
 659 00c0 E8000000 		call	_ZN8UnitTest11CurrentTest7DetailsEv
 659      00
 660 00c5 488B08   		movq	(%rax), %rcx
 661 00c8 488D8590 		leaq	-2160(%rbp), %rax
 661      F7FFFF
 662 00cf BA120000 		movl	$18, %edx
 662      00
 663 00d4 4889CE   		movq	%rcx, %rsi
 664 00d7 4889C7   		movq	%rax, %rdi
 665 00da E8000000 		call	_ZN8UnitTest11TestDetailsC1ERKS0_i
 665      00
 666              		.loc 6 18 0 discriminator 3
 667 00df E8000000 		call	_ZN8UnitTest11CurrentTest7ResultsEv
 667      00
 668 00e4 488B00   		movq	(%rax), %rax
 669 00e7 488D8D90 		leaq	-2160(%rbp), %rcx
 669      F7FFFF
 670 00ee BA000000 		movl	$.LC4, %edx
 670      00
 671 00f3 4889CE   		movq	%rcx, %rsi
 672 00f6 4889C7   		movq	%rax, %rdi
 673 00f9 E8000000 		call	_ZN8UnitTest11TestResults13OnTestFailureERKNS_11TestDetailsEPKc
 673      00
 674              	.LEHE5:
 675              	.L22:
  19:TestCheckMacros.cpp **** 
  20:TestCheckMacros.cpp **** 		failure = (testResults.GetFailureCount() > 0);
 676              		.loc 6 20 0 is_stmt 1
 677 00fe 488D8570 		leaq	-2192(%rbp), %rax
 677      F7FFFF
 678 0105 4889C7   		movq	%rax, %rdi
 679              	.LEHB6:
 680 0108 E8000000 		call	_ZNK8UnitTest11TestResults15GetFailureCountEv
 680      00
 681              	.LEHE6:
 682 010d 85C0     		testl	%eax, %eax
 683 010f 0F9FC0   		setg	%al
 684 0112 88855FF7 		movb	%al, -2209(%rbp)
 684      FFFF
  17:TestCheckMacros.cpp **** 		CHECK(true);
 685              		.loc 6 17 0
 686 0118 488D8560 		leaq	-2208(%rbp), %rax
 686      F7FFFF
 687 011f 4889C7   		movq	%rax, %rdi
 688              	.LEHB7:
 689 0122 E8000000 		call	_ZN17ScopedCurrentTestD1Ev
 689      00
 690              	.LEHE7:
  14:TestCheckMacros.cpp ****         UnitTest::TestResults testResults(&reporter);
 691              		.loc 6 14 0
 692 0127 488D85B0 		leaq	-2128(%rbp), %rax
 692      F7FFFF
 693 012e 4889C7   		movq	%rax, %rdi
 694              	.LEHB8:
 695 0131 E8000000 		call	_ZN17RecordingReporterD1Ev
 695      00
 696              	.LEHE8:
 697              	.LBE9:
  21:TestCheckMacros.cpp ****     }
  22:TestCheckMacros.cpp **** 
  23:TestCheckMacros.cpp ****     CHECK(!failure);
 698              		.loc 6 23 0
 699 0136 0FB6855F 		movzbl	-2209(%rbp), %eax
 699      F7FFFF
 700 013d 83F001   		xorl	$1, %eax
 701 0140 0FB6C0   		movzbl	%al, %eax
 702 0143 89C7     		movl	%eax, %edi
 703 0145 E8000000 		call	_ZN8UnitTest5CheckIbEEbT_
 703      00
 704 014a 83F001   		xorl	$1, %eax
 705 014d 84C0     		testb	%al, %al
 706 014f 0F842E01 		je	.L37
 706      0000
 707              	.LEHB9:
 708              		.loc 6 23 0 is_stmt 0 discriminator 1
 709 0155 E8000000 		call	_ZN8UnitTest11CurrentTest7DetailsEv
 709      00
 710 015a 488B08   		movq	(%rax), %rcx
 711 015d 488D8590 		leaq	-2160(%rbp), %rax
 711      F7FFFF
 712 0164 BA170000 		movl	$23, %edx
 712      00
 713 0169 4889CE   		movq	%rcx, %rsi
 714 016c 4889C7   		movq	%rax, %rdi
 715 016f E8000000 		call	_ZN8UnitTest11TestDetailsC1ERKS0_i
 715      00
 716              		.loc 6 23 0 discriminator 3
 717 0174 E8000000 		call	_ZN8UnitTest11CurrentTest7ResultsEv
 717      00
 718 0179 488B00   		movq	(%rax), %rax
 719 017c 488D8D90 		leaq	-2160(%rbp), %rcx
 719      F7FFFF
 720 0183 BA000000 		movl	$.LC5, %edx
 720      00
 721 0188 4889CE   		movq	%rcx, %rsi
 722 018b 4889C7   		movq	%rax, %rdi
 723 018e E8000000 		call	_ZN8UnitTest11TestResults13OnTestFailureERKNS_11TestDetailsEPKc
 723      00
 724              	.LEHE9:
  24:TestCheckMacros.cpp **** }
 725              		.loc 6 24 0 is_stmt 1
 726 0193 E9EB0000 		jmp	.L37
 726      00
 727              	.L32:
 728              	.LBB10:
  18:TestCheckMacros.cpp **** 
 729              		.loc 6 18 0
 730 0198 4889C7   		movq	%rax, %rdi
 731 019b E8000000 		call	__cxa_begin_catch
 731      00
 732              	.LEHB10:
 733 01a0 E8000000 		call	_ZN8UnitTest11CurrentTest7DetailsEv
 733      00
 734 01a5 488B08   		movq	(%rax), %rcx
 735 01a8 488D8590 		leaq	-2160(%rbp), %rax
 735      F7FFFF
 736 01af BA120000 		movl	$18, %edx
 736      00
 737 01b4 4889CE   		movq	%rcx, %rsi
 738 01b7 4889C7   		movq	%rax, %rdi
 739 01ba E8000000 		call	_ZN8UnitTest11TestDetailsC1ERKS0_i
 739      00
  18:TestCheckMacros.cpp **** 
 740              		.loc 6 18 0 is_stmt 0 discriminator 11
 741 01bf E8000000 		call	_ZN8UnitTest11CurrentTest7ResultsEv
 741      00
 742 01c4 488B00   		movq	(%rax), %rax
 743 01c7 488D8D90 		leaq	-2160(%rbp), %rcx
 743      F7FFFF
 744 01ce BA000000 		movl	$.LC6, %edx
 744      00
 745 01d3 4889CE   		movq	%rcx, %rsi
 746 01d6 4889C7   		movq	%rax, %rdi
 747 01d9 E8000000 		call	_ZN8UnitTest11TestResults13OnTestFailureERKNS_11TestDetailsEPKc
 747      00
 748              	.LEHE10:
 749              	.LEHB11:
  18:TestCheckMacros.cpp **** 
 750              		.loc 6 18 0 discriminator 15
 751 01de E8000000 		call	__cxa_end_catch
 751      00
 752              	.LEHE11:
  18:TestCheckMacros.cpp **** 
 753              		.loc 6 18 0
 754 01e3 E916FFFF 		jmp	.L22
 754      FF
 755              	.L34:
 756 01e8 4889C3   		movq	%rax, %rbx
 757 01eb E8000000 		call	__cxa_end_catch
 757      00
 758 01f0 EB03     		jmp	.L26
 759              	.L33:
 760 01f2 4889C3   		movq	%rax, %rbx
 761              	.L26:
  17:TestCheckMacros.cpp **** 		CHECK(true);
 762              		.loc 6 17 0 is_stmt 1
 763 01f5 488D8560 		leaq	-2208(%rbp), %rax
 763      F7FFFF
 764 01fc 4889C7   		movq	%rax, %rdi
 765 01ff E8000000 		call	_ZN17ScopedCurrentTestD1Ev
 765      00
 766 0204 EB03     		jmp	.L27
 767              	.L31:
 768 0206 4889C3   		movq	%rax, %rbx
 769              	.L27:
  14:TestCheckMacros.cpp ****         UnitTest::TestResults testResults(&reporter);
 770              		.loc 6 14 0
 771 0209 488D85B0 		leaq	-2128(%rbp), %rax
 771      F7FFFF
 772 0210 4889C7   		movq	%rax, %rdi
 773 0213 E8000000 		call	_ZN17RecordingReporterD1Ev
 773      00
 774 0218 4889D8   		movq	%rbx, %rax
 775 021b 4889C7   		movq	%rax, %rdi
 776              	.LEHB12:
 777 021e E8000000 		call	_Unwind_Resume
 777      00
 778              	.LEHE12:
 779              	.L35:
 780              	.LBE10:
  23:TestCheckMacros.cpp **** }
 781              		.loc 6 23 0
 782 0223 4889C7   		movq	%rax, %rdi
 783 0226 E8000000 		call	__cxa_begin_catch
 783      00
 784              	.LEHB13:
 785 022b E8000000 		call	_ZN8UnitTest11CurrentTest7DetailsEv
 785      00
 786 0230 488B08   		movq	(%rax), %rcx
 787 0233 488D8590 		leaq	-2160(%rbp), %rax
 787      F7FFFF
 788 023a BA170000 		movl	$23, %edx
 788      00
 789 023f 4889CE   		movq	%rcx, %rsi
 790 0242 4889C7   		movq	%rax, %rdi
 791 0245 E8000000 		call	_ZN8UnitTest11TestDetailsC1ERKS0_i
 791      00
  23:TestCheckMacros.cpp **** }
 792              		.loc 6 23 0 is_stmt 0 discriminator 11
 793 024a E8000000 		call	_ZN8UnitTest11CurrentTest7ResultsEv
 793      00
 794 024f 488B00   		movq	(%rax), %rax
 795 0252 488D8D90 		leaq	-2160(%rbp), %rcx
 795      F7FFFF
 796 0259 BA000000 		movl	$.LC7, %edx
 796      00
 797 025e 4889CE   		movq	%rcx, %rsi
 798 0261 4889C7   		movq	%rax, %rdi
 799 0264 E8000000 		call	_ZN8UnitTest11TestResults13OnTestFailureERKNS_11TestDetailsEPKc
 799      00
 800              	.LEHE13:
 801              	.LEHB14:
  23:TestCheckMacros.cpp **** }
 802              		.loc 6 23 0 discriminator 15
 803 0269 E8000000 		call	__cxa_end_catch
 803      00
 804              	.LEHE14:
 805              		.loc 6 24 0 is_stmt 1 discriminator 15
 806 026e EB13     		jmp	.L37
 807              	.L36:
 808 0270 4889C3   		movq	%rax, %rbx
  23:TestCheckMacros.cpp **** }
 809              		.loc 6 23 0
 810 0273 E8000000 		call	__cxa_end_catch
 810      00
 811 0278 4889D8   		movq	%rbx, %rax
 812 027b 4889C7   		movq	%rax, %rdi
 813              	.LEHB15:
 814 027e E8000000 		call	_Unwind_Resume
 814      00
 815              	.LEHE15:
 816              	.L37:
 817              		.loc 6 24 0
 818 0283 90       		nop
 819 0284 488B45E8 		movq	-24(%rbp), %rax
 820 0288 64483304 		xorq	%fs:40, %rax
 820      25280000 
 820      00
 821 0291 7405     		je	.L30
 822 0293 E8000000 		call	__stack_chk_fail
 822      00
 823              	.L30:
 824 0298 4881C4B8 		addq	$2232, %rsp
 824      080000
 825 029f 5B       		popq	%rbx
 826 02a0 5D       		popq	%rbp
 827              		.cfi_def_cfa 7, 8
 828 02a1 C3       		ret
 829              		.cfi_endproc
 830              	.LFE1091:
 831              		.section	.gcc_except_table,"a",@progbits
 832              		.align 4
 833              	.LLSDA1091:
 834 0000 FF       		.byte	0xff
 835 0001 03       		.byte	0x3
 836 0002 4D       		.uleb128 .LLSDATT1091-.LLSDATTD1091
 837              	.LLSDATTD1091:
 838 0003 01       		.byte	0x1
 839 0004 43       		.uleb128 .LLSDACSE1091-.LLSDACSB1091
 840              	.LLSDACSB1091:
 841 0005 4C       		.uleb128 .LEHB4-.LFB1091
 842 0006 23       		.uleb128 .LEHE4-.LEHB4
 843 0007 C603     		.uleb128 .L31-.LFB1091
 844 0009 00       		.uleb128 0
 845 000a 8001     		.uleb128 .LEHB5-.LFB1091
 846 000c 3E       		.uleb128 .LEHE5-.LEHB5
 847 000d D802     		.uleb128 .L32-.LFB1091
 848 000f 01       		.uleb128 0x1
 849 0010 C801     		.uleb128 .LEHB6-.LFB1091
 850 0012 05       		.uleb128 .LEHE6-.LEHB6
 851 0013 B203     		.uleb128 .L33-.LFB1091
 852 0015 00       		.uleb128 0
 853 0016 E201     		.uleb128 .LEHB7-.LFB1091
 854 0018 05       		.uleb128 .LEHE7-.LEHB7
 855 0019 C603     		.uleb128 .L31-.LFB1091
 856 001b 00       		.uleb128 0
 857 001c F101     		.uleb128 .LEHB8-.LFB1091
 858 001e 05       		.uleb128 .LEHE8-.LEHB8
 859 001f 00       		.uleb128 0
 860 0020 00       		.uleb128 0
 861 0021 9502     		.uleb128 .LEHB9-.LFB1091
 862 0023 3E       		.uleb128 .LEHE9-.LEHB9
 863 0024 E303     		.uleb128 .L35-.LFB1091
 864 0026 01       		.uleb128 0x1
 865 0027 E002     		.uleb128 .LEHB10-.LFB1091
 866 0029 3E       		.uleb128 .LEHE10-.LEHB10
 867 002a A803     		.uleb128 .L34-.LFB1091
 868 002c 00       		.uleb128 0
 869 002d 9E03     		.uleb128 .LEHB11-.LFB1091
 870 002f 05       		.uleb128 .LEHE11-.LEHB11
 871 0030 B203     		.uleb128 .L33-.LFB1091
 872 0032 00       		.uleb128 0
 873 0033 DE03     		.uleb128 .LEHB12-.LFB1091
 874 0035 05       		.uleb128 .LEHE12-.LEHB12
 875 0036 00       		.uleb128 0
 876 0037 00       		.uleb128 0
 877 0038 EB03     		.uleb128 .LEHB13-.LFB1091
 878 003a 3E       		.uleb128 .LEHE13-.LEHB13
 879 003b B004     		.uleb128 .L36-.LFB1091
 880 003d 00       		.uleb128 0
 881 003e A904     		.uleb128 .LEHB14-.LFB1091
 882 0040 05       		.uleb128 .LEHE14-.LEHB14
 883 0041 00       		.uleb128 0
 884 0042 00       		.uleb128 0
 885 0043 BE04     		.uleb128 .LEHB15-.LFB1091
 886 0045 05       		.uleb128 .LEHE15-.LEHB15
 887 0046 00       		.uleb128 0
 888 0047 00       		.uleb128 0
 889              	.LLSDACSE1091:
 890 0048 01       		.byte	0x1
 891 0049 00       		.byte	0
 892 004a 0000     		.align 4
 893 004c 00000000 		.long	0
 894              	
 895              	.LLSDATT1091:
 896              		.text
 898              		.section	.rodata
 899              	.LC8:
 900 0097 43686563 		.string	"CheckFailsOnFalse"
 900      6B466169 
 900      6C734F6E 
 900      46616C73 
 900      6500
 901              		.text
 902              		.align 2
 904              	_ZN12_GLOBAL__N_121TestCheckFailsOnFalseC2Ev:
 905              	.LFB1093:
  25:TestCheckMacros.cpp **** 
  26:TestCheckMacros.cpp **** TEST(CheckFailsOnFalse)
 906              		.loc 6 26 0
 907              		.cfi_startproc
 908 02a2 55       		pushq	%rbp
 909              		.cfi_def_cfa_offset 16
 910              		.cfi_offset 6, -16
 911 02a3 4889E5   		movq	%rsp, %rbp
 912              		.cfi_def_cfa_register 6
 913 02a6 4883EC10 		subq	$16, %rsp
 914 02aa 48897DF8 		movq	%rdi, -8(%rbp)
 915              	.LBB11:
 916              		.loc 6 26 0
 917 02ae E8000000 		call	_ZN13UnitTestSuite12GetSuiteNameEv
 917      00
 918 02b3 4889C2   		movq	%rax, %rdx
 919 02b6 488B45F8 		movq	-8(%rbp), %rax
 920 02ba 41B81A00 		movl	$26, %r8d
 920      0000
 921 02c0 B9000000 		movl	$.LC2, %ecx
 921      00
 922 02c5 BE000000 		movl	$.LC8, %esi
 922      00
 923 02ca 4889C7   		movq	%rax, %rdi
 924 02cd E8000000 		call	_ZN8UnitTest4TestC2EPKcS2_S2_i
 924      00
 925 02d2 BA000000 		movl	$_ZTVN12_GLOBAL__N_121TestCheckFailsOnFalseE+16, %edx
 925      00
 926 02d7 488B45F8 		movq	-8(%rbp), %rax
 927 02db 488910   		movq	%rdx, (%rax)
 928              	.LBE11:
 929 02de 90       		nop
 930 02df C9       		leave
 931              		.cfi_def_cfa 7, 8
 932 02e0 C3       		ret
 933              		.cfi_endproc
 934              	.LFE1093:
 936              		.set	_ZN12_GLOBAL__N_121TestCheckFailsOnFalseC1Ev,_ZN12_GLOBAL__N_121TestCheckFailsOnFalseC2Ev
 937              		.local	_ZN12_GLOBAL__N_129testCheckFailsOnFalseInstanceE
 938              		.comm	_ZN12_GLOBAL__N_129testCheckFailsOnFalseInstanceE,56,32
 939              		.local	_ZN12_GLOBAL__N_122adderCheckFailsOnFalseE
 940              		.comm	_ZN12_GLOBAL__N_122adderCheckFailsOnFalseE,1,1
 941              		.section	.rodata
 942              	.LC9:
 943 00a9 66616C73 		.string	"false"
 943      6500
 944              	.LC10:
 945 00af 6661696C 		.string	"failure"
 945      75726500 
 946 00b7 00       		.align 8
 947              	.LC11:
 948 00b8 556E6861 		.string	"Unhandled exception in CHECK(false)"
 948      6E646C65 
 948      64206578 
 948      63657074 
 948      696F6E20 
 949 00dc 00000000 		.align 8
 950              	.LC12:
 951 00e0 556E6861 		.string	"Unhandled exception in CHECK(failure)"
 951      6E646C65 
 951      64206578 
 951      63657074 
 951      696F6E20 
 952              		.text
 953 02e1 90       		.align 2
 955              	_ZNK12_GLOBAL__N_121TestCheckFailsOnFalse7RunImplEv:
 956              	.LFB1095:
  27:TestCheckMacros.cpp **** {
 957              		.loc 6 27 0
 958              		.cfi_startproc
 959              		.cfi_personality 0x3,__gxx_personality_v0
 960              		.cfi_lsda 0x3,.LLSDA1095
 961 02e2 55       		pushq	%rbp
 962              		.cfi_def_cfa_offset 16
 963              		.cfi_offset 6, -16
 964 02e3 4889E5   		movq	%rsp, %rbp
 965              		.cfi_def_cfa_register 6
 966 02e6 53       		pushq	%rbx
 967 02e7 4881ECB8 		subq	$2232, %rsp
 967      080000
 968              		.cfi_offset 3, -24
 969 02ee 4889BD48 		movq	%rdi, -2232(%rbp)
 969      F7FFFF
 970              		.loc 6 27 0
 971 02f5 64488B04 		movq	%fs:40, %rax
 971      25280000 
 971      00
 972 02fe 488945E8 		movq	%rax, -24(%rbp)
 973 0302 31C0     		xorl	%eax, %eax
  28:TestCheckMacros.cpp ****     bool failure = false;
 974              		.loc 6 28 0
 975 0304 C6855FF7 		movb	$0, -2209(%rbp)
 975      FFFF00
 976              	.LBB12:
  29:TestCheckMacros.cpp ****     {
  30:TestCheckMacros.cpp ****         RecordingReporter reporter;
 977              		.loc 6 30 0
 978 030b 488D85B0 		leaq	-2128(%rbp), %rax
 978      F7FFFF
 979 0312 4889C7   		movq	%rax, %rdi
 980 0315 E8000000 		call	_ZN17RecordingReporterC1Ev
 980      00
  31:TestCheckMacros.cpp ****         UnitTest::TestResults testResults(&reporter);
 981              		.loc 6 31 0
 982 031a 488D95B0 		leaq	-2128(%rbp), %rdx
 982      F7FFFF
 983 0321 488D8570 		leaq	-2192(%rbp), %rax
 983      F7FFFF
 984 0328 4889D6   		movq	%rdx, %rsi
 985 032b 4889C7   		movq	%rax, %rdi
 986              	.LEHB16:
 987 032e E8000000 		call	_ZN8UnitTest11TestResultsC1EPNS_12TestReporterE
 987      00
  32:TestCheckMacros.cpp **** 		ScopedCurrentTest scopedResults(testResults);
 988              		.loc 6 32 0
 989 0333 488D8D70 		leaq	-2192(%rbp), %rcx
 989      F7FFFF
 990 033a 488D8560 		leaq	-2208(%rbp), %rax
 990      F7FFFF
 991 0341 BA000000 		movl	$0, %edx
 991      00
 992 0346 4889CE   		movq	%rcx, %rsi
 993 0349 4889C7   		movq	%rax, %rdi
 994 034c E8000000 		call	_ZN17ScopedCurrentTestC1ERN8UnitTest11TestResultsEPKNS0_11TestDetailsE
 994      00
 995              	.LEHE16:
  33:TestCheckMacros.cpp ****         CHECK(false);
 996              		.loc 6 33 0
 997 0351 BF000000 		movl	$0, %edi
 997      00
 998 0356 E8000000 		call	_ZN8UnitTest5CheckIbEEbT_
 998      00
 999 035b 83F001   		xorl	$1, %eax
 1000 035e 84C0     		testb	%al, %al
 1001 0360 743E     		je	.L40
 1002              	.LEHB17:
 1003              		.loc 6 33 0 is_stmt 0 discriminator 1
 1004 0362 E8000000 		call	_ZN8UnitTest11CurrentTest7DetailsEv
 1004      00
 1005 0367 488B08   		movq	(%rax), %rcx
 1006 036a 488D8590 		leaq	-2160(%rbp), %rax
 1006      F7FFFF
 1007 0371 BA210000 		movl	$33, %edx
 1007      00
 1008 0376 4889CE   		movq	%rcx, %rsi
 1009 0379 4889C7   		movq	%rax, %rdi
 1010 037c E8000000 		call	_ZN8UnitTest11TestDetailsC1ERKS0_i
 1010      00
 1011              		.loc 6 33 0 discriminator 3
 1012 0381 E8000000 		call	_ZN8UnitTest11CurrentTest7ResultsEv
 1012      00
 1013 0386 488B00   		movq	(%rax), %rax
 1014 0389 488D8D90 		leaq	-2160(%rbp), %rcx
 1014      F7FFFF
 1015 0390 BA000000 		movl	$.LC9, %edx
 1015      00
 1016 0395 4889CE   		movq	%rcx, %rsi
 1017 0398 4889C7   		movq	%rax, %rdi
 1018 039b E8000000 		call	_ZN8UnitTest11TestResults13OnTestFailureERKNS_11TestDetailsEPKc
 1018      00
 1019              	.LEHE17:
 1020              	.L40:
  34:TestCheckMacros.cpp ****         failure = (testResults.GetFailureCount() > 0);
 1021              		.loc 6 34 0 is_stmt 1
 1022 03a0 488D8570 		leaq	-2192(%rbp), %rax
 1022      F7FFFF
 1023 03a7 4889C7   		movq	%rax, %rdi
 1024              	.LEHB18:
 1025 03aa E8000000 		call	_ZNK8UnitTest11TestResults15GetFailureCountEv
 1025      00
 1026              	.LEHE18:
 1027 03af 85C0     		testl	%eax, %eax
 1028 03b1 0F9FC0   		setg	%al
 1029 03b4 88855FF7 		movb	%al, -2209(%rbp)
 1029      FFFF
  32:TestCheckMacros.cpp **** 		ScopedCurrentTest scopedResults(testResults);
 1030              		.loc 6 32 0
 1031 03ba 488D8560 		leaq	-2208(%rbp), %rax
 1031      F7FFFF
 1032 03c1 4889C7   		movq	%rax, %rdi
 1033              	.LEHB19:
 1034 03c4 E8000000 		call	_ZN17ScopedCurrentTestD1Ev
 1034      00
 1035              	.LEHE19:
  30:TestCheckMacros.cpp ****         UnitTest::TestResults testResults(&reporter);
 1036              		.loc 6 30 0
 1037 03c9 488D85B0 		leaq	-2128(%rbp), %rax
 1037      F7FFFF
 1038 03d0 4889C7   		movq	%rax, %rdi
 1039              	.LEHB20:
 1040 03d3 E8000000 		call	_ZN17RecordingReporterD1Ev
 1040      00
 1041              	.LEHE20:
 1042              	.LBE12:
  35:TestCheckMacros.cpp ****     }
  36:TestCheckMacros.cpp **** 
  37:TestCheckMacros.cpp ****     CHECK(failure);
 1043              		.loc 6 37 0
 1044 03d8 0FB6855F 		movzbl	-2209(%rbp), %eax
 1044      F7FFFF
 1045 03df 89C7     		movl	%eax, %edi
 1046 03e1 E8000000 		call	_ZN8UnitTest5CheckIbEEbT_
 1046      00
 1047 03e6 83F001   		xorl	$1, %eax
 1048 03e9 84C0     		testb	%al, %al
 1049 03eb 0F842E01 		je	.L55
 1049      0000
 1050              	.LEHB21:
 1051              		.loc 6 37 0 is_stmt 0 discriminator 1
 1052 03f1 E8000000 		call	_ZN8UnitTest11CurrentTest7DetailsEv
 1052      00
 1053 03f6 488B08   		movq	(%rax), %rcx
 1054 03f9 488D8590 		leaq	-2160(%rbp), %rax
 1054      F7FFFF
 1055 0400 BA250000 		movl	$37, %edx
 1055      00
 1056 0405 4889CE   		movq	%rcx, %rsi
 1057 0408 4889C7   		movq	%rax, %rdi
 1058 040b E8000000 		call	_ZN8UnitTest11TestDetailsC1ERKS0_i
 1058      00
 1059              		.loc 6 37 0 discriminator 3
 1060 0410 E8000000 		call	_ZN8UnitTest11CurrentTest7ResultsEv
 1060      00
 1061 0415 488B00   		movq	(%rax), %rax
 1062 0418 488D8D90 		leaq	-2160(%rbp), %rcx
 1062      F7FFFF
 1063 041f BA000000 		movl	$.LC10, %edx
 1063      00
 1064 0424 4889CE   		movq	%rcx, %rsi
 1065 0427 4889C7   		movq	%rax, %rdi
 1066 042a E8000000 		call	_ZN8UnitTest11TestResults13OnTestFailureERKNS_11TestDetailsEPKc
 1066      00
 1067              	.LEHE21:
  38:TestCheckMacros.cpp **** }
 1068              		.loc 6 38 0 is_stmt 1
 1069 042f E9EB0000 		jmp	.L55
 1069      00
 1070              	.L50:
 1071              	.LBB13:
  33:TestCheckMacros.cpp ****         failure = (testResults.GetFailureCount() > 0);
 1072              		.loc 6 33 0
 1073 0434 4889C7   		movq	%rax, %rdi
 1074 0437 E8000000 		call	__cxa_begin_catch
 1074      00
 1075              	.LEHB22:
 1076 043c E8000000 		call	_ZN8UnitTest11CurrentTest7DetailsEv
 1076      00
 1077 0441 488B08   		movq	(%rax), %rcx
 1078 0444 488D8590 		leaq	-2160(%rbp), %rax
 1078      F7FFFF
 1079 044b BA210000 		movl	$33, %edx
 1079      00
 1080 0450 4889CE   		movq	%rcx, %rsi
 1081 0453 4889C7   		movq	%rax, %rdi
 1082 0456 E8000000 		call	_ZN8UnitTest11TestDetailsC1ERKS0_i
 1082      00
  33:TestCheckMacros.cpp ****         failure = (testResults.GetFailureCount() > 0);
 1083              		.loc 6 33 0 is_stmt 0 discriminator 11
 1084 045b E8000000 		call	_ZN8UnitTest11CurrentTest7ResultsEv
 1084      00
 1085 0460 488B00   		movq	(%rax), %rax
 1086 0463 488D8D90 		leaq	-2160(%rbp), %rcx
 1086      F7FFFF
 1087 046a BA000000 		movl	$.LC11, %edx
 1087      00
 1088 046f 4889CE   		movq	%rcx, %rsi
 1089 0472 4889C7   		movq	%rax, %rdi
 1090 0475 E8000000 		call	_ZN8UnitTest11TestResults13OnTestFailureERKNS_11TestDetailsEPKc
 1090      00
 1091              	.LEHE22:
 1092              	.LEHB23:
  33:TestCheckMacros.cpp ****         failure = (testResults.GetFailureCount() > 0);
 1093              		.loc 6 33 0 discriminator 15
 1094 047a E8000000 		call	__cxa_end_catch
 1094      00
 1095              	.LEHE23:
  33:TestCheckMacros.cpp ****         failure = (testResults.GetFailureCount() > 0);
 1096              		.loc 6 33 0
 1097 047f E91CFFFF 		jmp	.L40
 1097      FF
 1098              	.L52:
 1099 0484 4889C3   		movq	%rax, %rbx
 1100 0487 E8000000 		call	__cxa_end_catch
 1100      00
 1101 048c EB03     		jmp	.L44
 1102              	.L51:
 1103 048e 4889C3   		movq	%rax, %rbx
 1104              	.L44:
  32:TestCheckMacros.cpp ****         CHECK(false);
 1105              		.loc 6 32 0 is_stmt 1
 1106 0491 488D8560 		leaq	-2208(%rbp), %rax
 1106      F7FFFF
 1107 0498 4889C7   		movq	%rax, %rdi
 1108 049b E8000000 		call	_ZN17ScopedCurrentTestD1Ev
 1108      00
 1109 04a0 EB03     		jmp	.L45
 1110              	.L49:
 1111 04a2 4889C3   		movq	%rax, %rbx
 1112              	.L45:
  30:TestCheckMacros.cpp ****         UnitTest::TestResults testResults(&reporter);
 1113              		.loc 6 30 0
 1114 04a5 488D85B0 		leaq	-2128(%rbp), %rax
 1114      F7FFFF
 1115 04ac 4889C7   		movq	%rax, %rdi
 1116 04af E8000000 		call	_ZN17RecordingReporterD1Ev
 1116      00
 1117 04b4 4889D8   		movq	%rbx, %rax
 1118 04b7 4889C7   		movq	%rax, %rdi
 1119              	.LEHB24:
 1120 04ba E8000000 		call	_Unwind_Resume
 1120      00
 1121              	.LEHE24:
 1122              	.L53:
 1123              	.LBE13:
  37:TestCheckMacros.cpp **** }
 1124              		.loc 6 37 0
 1125 04bf 4889C7   		movq	%rax, %rdi
 1126 04c2 E8000000 		call	__cxa_begin_catch
 1126      00
 1127              	.LEHB25:
 1128 04c7 E8000000 		call	_ZN8UnitTest11CurrentTest7DetailsEv
 1128      00
 1129 04cc 488B08   		movq	(%rax), %rcx
 1130 04cf 488D8590 		leaq	-2160(%rbp), %rax
 1130      F7FFFF
 1131 04d6 BA250000 		movl	$37, %edx
 1131      00
 1132 04db 4889CE   		movq	%rcx, %rsi
 1133 04de 4889C7   		movq	%rax, %rdi
 1134 04e1 E8000000 		call	_ZN8UnitTest11TestDetailsC1ERKS0_i
 1134      00
  37:TestCheckMacros.cpp **** }
 1135              		.loc 6 37 0 is_stmt 0 discriminator 11
 1136 04e6 E8000000 		call	_ZN8UnitTest11CurrentTest7ResultsEv
 1136      00
 1137 04eb 488B00   		movq	(%rax), %rax
 1138 04ee 488D8D90 		leaq	-2160(%rbp), %rcx
 1138      F7FFFF
 1139 04f5 BA000000 		movl	$.LC12, %edx
 1139      00
 1140 04fa 4889CE   		movq	%rcx, %rsi
 1141 04fd 4889C7   		movq	%rax, %rdi
 1142 0500 E8000000 		call	_ZN8UnitTest11TestResults13OnTestFailureERKNS_11TestDetailsEPKc
 1142      00
 1143              	.LEHE25:
 1144              	.LEHB26:
  37:TestCheckMacros.cpp **** }
 1145              		.loc 6 37 0 discriminator 15
 1146 0505 E8000000 		call	__cxa_end_catch
 1146      00
 1147              	.LEHE26:
 1148              		.loc 6 38 0 is_stmt 1 discriminator 15
 1149 050a EB13     		jmp	.L55
 1150              	.L54:
 1151 050c 4889C3   		movq	%rax, %rbx
  37:TestCheckMacros.cpp **** }
 1152              		.loc 6 37 0
 1153 050f E8000000 		call	__cxa_end_catch
 1153      00
 1154 0514 4889D8   		movq	%rbx, %rax
 1155 0517 4889C7   		movq	%rax, %rdi
 1156              	.LEHB27:
 1157 051a E8000000 		call	_Unwind_Resume
 1157      00
 1158              	.LEHE27:
 1159              	.L55:
 1160              		.loc 6 38 0
 1161 051f 90       		nop
 1162 0520 488B45E8 		movq	-24(%rbp), %rax
 1163 0524 64483304 		xorq	%fs:40, %rax
 1163      25280000 
 1163      00
 1164 052d 7405     		je	.L48
 1165 052f E8000000 		call	__stack_chk_fail
 1165      00
 1166              	.L48:
 1167 0534 4881C4B8 		addq	$2232, %rsp
 1167      080000
 1168 053b 5B       		popq	%rbx
 1169 053c 5D       		popq	%rbp
 1170              		.cfi_def_cfa 7, 8
 1171 053d C3       		ret
 1172              		.cfi_endproc
 1173              	.LFE1095:
 1174              		.section	.gcc_except_table
 1175              		.align 4
 1176              	.LLSDA1095:
 1177 0050 FF       		.byte	0xff
 1178 0051 03       		.byte	0x3
 1179 0052 4D       		.uleb128 .LLSDATT1095-.LLSDATTD1095
 1180              	.LLSDATTD1095:
 1181 0053 01       		.byte	0x1
 1182 0054 43       		.uleb128 .LLSDACSE1095-.LLSDACSB1095
 1183              	.LLSDACSB1095:
 1184 0055 4C       		.uleb128 .LEHB16-.LFB1095
 1185 0056 23       		.uleb128 .LEHE16-.LEHB16
 1186 0057 C003     		.uleb128 .L49-.LFB1095
 1187 0059 00       		.uleb128 0
 1188 005a 8001     		.uleb128 .LEHB17-.LFB1095
 1189 005c 3E       		.uleb128 .LEHE17-.LEHB17
 1190 005d D202     		.uleb128 .L50-.LFB1095
 1191 005f 01       		.uleb128 0x1
 1192 0060 C801     		.uleb128 .LEHB18-.LFB1095
 1193 0062 05       		.uleb128 .LEHE18-.LEHB18
 1194 0063 AC03     		.uleb128 .L51-.LFB1095
 1195 0065 00       		.uleb128 0
 1196 0066 E201     		.uleb128 .LEHB19-.LFB1095
 1197 0068 05       		.uleb128 .LEHE19-.LEHB19
 1198 0069 C003     		.uleb128 .L49-.LFB1095
 1199 006b 00       		.uleb128 0
 1200 006c F101     		.uleb128 .LEHB20-.LFB1095
 1201 006e 05       		.uleb128 .LEHE20-.LEHB20
 1202 006f 00       		.uleb128 0
 1203 0070 00       		.uleb128 0
 1204 0071 8F02     		.uleb128 .LEHB21-.LFB1095
 1205 0073 3E       		.uleb128 .LEHE21-.LEHB21
 1206 0074 DD03     		.uleb128 .L53-.LFB1095
 1207 0076 01       		.uleb128 0x1
 1208 0077 DA02     		.uleb128 .LEHB22-.LFB1095
 1209 0079 3E       		.uleb128 .LEHE22-.LEHB22
 1210 007a A203     		.uleb128 .L52-.LFB1095
 1211 007c 00       		.uleb128 0
 1212 007d 9803     		.uleb128 .LEHB23-.LFB1095
 1213 007f 05       		.uleb128 .LEHE23-.LEHB23
 1214 0080 AC03     		.uleb128 .L51-.LFB1095
 1215 0082 00       		.uleb128 0
 1216 0083 D803     		.uleb128 .LEHB24-.LFB1095
 1217 0085 05       		.uleb128 .LEHE24-.LEHB24
 1218 0086 00       		.uleb128 0
 1219 0087 00       		.uleb128 0
 1220 0088 E503     		.uleb128 .LEHB25-.LFB1095
 1221 008a 3E       		.uleb128 .LEHE25-.LEHB25
 1222 008b AA04     		.uleb128 .L54-.LFB1095
 1223 008d 00       		.uleb128 0
 1224 008e A304     		.uleb128 .LEHB26-.LFB1095
 1225 0090 05       		.uleb128 .LEHE26-.LEHB26
 1226 0091 00       		.uleb128 0
 1227 0092 00       		.uleb128 0
 1228 0093 B804     		.uleb128 .LEHB27-.LFB1095
 1229 0095 05       		.uleb128 .LEHE27-.LEHB27
 1230 0096 00       		.uleb128 0
 1231 0097 00       		.uleb128 0
 1232              	.LLSDACSE1095:
 1233 0098 01       		.byte	0x1
 1234 0099 00       		.byte	0
 1235 009a 0000     		.align 4
 1236 009c 00000000 		.long	0
 1237              	
 1238              	.LLSDATT1095:
 1239              		.text
 1241              		.section	.rodata
 1242              	.LC13:
 1243 0106 4661696C 		.string	"FailureReportsCorrectTestName"
 1243      75726552 
 1243      65706F72 
 1243      7473436F 
 1243      72726563 
 1244              		.text
 1245              		.align 2
 1247              	_ZN12_GLOBAL__N_133TestFailureReportsCorrectTestNameC2Ev:
 1248              	.LFB1097:
  39:TestCheckMacros.cpp **** 
  40:TestCheckMacros.cpp **** TEST(FailureReportsCorrectTestName)
 1249              		.loc 6 40 0
 1250              		.cfi_startproc
 1251 053e 55       		pushq	%rbp
 1252              		.cfi_def_cfa_offset 16
 1253              		.cfi_offset 6, -16
 1254 053f 4889E5   		movq	%rsp, %rbp
 1255              		.cfi_def_cfa_register 6
 1256 0542 4883EC10 		subq	$16, %rsp
 1257 0546 48897DF8 		movq	%rdi, -8(%rbp)
 1258              	.LBB14:
 1259              		.loc 6 40 0
 1260 054a E8000000 		call	_ZN13UnitTestSuite12GetSuiteNameEv
 1260      00
 1261 054f 4889C2   		movq	%rax, %rdx
 1262 0552 488B45F8 		movq	-8(%rbp), %rax
 1263 0556 41B82800 		movl	$40, %r8d
 1263      0000
 1264 055c B9000000 		movl	$.LC2, %ecx
 1264      00
 1265 0561 BE000000 		movl	$.LC13, %esi
 1265      00
 1266 0566 4889C7   		movq	%rax, %rdi
 1267 0569 E8000000 		call	_ZN8UnitTest4TestC2EPKcS2_S2_i
 1267      00
 1268 056e BA000000 		movl	$_ZTVN12_GLOBAL__N_133TestFailureReportsCorrectTestNameE+16, %edx
 1268      00
 1269 0573 488B45F8 		movq	-8(%rbp), %rax
 1270 0577 488910   		movq	%rdx, (%rax)
 1271              	.LBE14:
 1272 057a 90       		nop
 1273 057b C9       		leave
 1274              		.cfi_def_cfa 7, 8
 1275 057c C3       		ret
 1276              		.cfi_endproc
 1277              	.LFE1097:
 1279              		.set	_ZN12_GLOBAL__N_133TestFailureReportsCorrectTestNameC1Ev,_ZN12_GLOBAL__N_133TestFailureReport
 1280              		.local	_ZN12_GLOBAL__N_141testFailureReportsCorrectTestNameInstanceE
 1281              		.comm	_ZN12_GLOBAL__N_141testFailureReportsCorrectTestNameInstanceE,56,32
 1282              		.local	_ZN12_GLOBAL__N_134adderFailureReportsCorrectTestNameE
 1283              		.comm	_ZN12_GLOBAL__N_134adderFailureReportsCorrectTestNameE,1,1
 1284              		.section	.rodata
 1285 0124 00000000 		.align 8
 1286              	.LC14:
 1287 0128 556E6861 		.string	"Unhandled exception in CHECK_EQUAL(m_details.testName, reporter.lastFailedTest)"
 1287      6E646C65 
 1287      64206578 
 1287      63657074 
 1287      696F6E20 
 1288              		.text
 1289 057d 90       		.align 2
 1291              	_ZNK12_GLOBAL__N_133TestFailureReportsCorrectTestName7RunImplEv:
 1292              	.LFB1099:
  41:TestCheckMacros.cpp **** {
 1293              		.loc 6 41 0
 1294              		.cfi_startproc
 1295              		.cfi_personality 0x3,__gxx_personality_v0
 1296              		.cfi_lsda 0x3,.LLSDA1099
 1297 057e 55       		pushq	%rbp
 1298              		.cfi_def_cfa_offset 16
 1299              		.cfi_offset 6, -16
 1300 057f 4889E5   		movq	%rsp, %rbp
 1301              		.cfi_def_cfa_register 6
 1302 0582 53       		pushq	%rbx
 1303 0583 4881ECA8 		subq	$2216, %rsp
 1303      080000
 1304              		.cfi_offset 3, -24
 1305 058a 4889BD58 		movq	%rdi, -2216(%rbp)
 1305      F7FFFF
 1306              		.loc 6 41 0
 1307 0591 64488B04 		movq	%fs:40, %rax
 1307      25280000 
 1307      00
 1308 059a 488945E8 		movq	%rax, -24(%rbp)
 1309 059e 31C0     		xorl	%eax, %eax
  42:TestCheckMacros.cpp ****     RecordingReporter reporter;
 1310              		.loc 6 42 0
 1311 05a0 488D85B0 		leaq	-2128(%rbp), %rax
 1311      F7FFFF
 1312 05a7 4889C7   		movq	%rax, %rdi
 1313 05aa E8000000 		call	_ZN17RecordingReporterC1Ev
 1313      00
 1314              	.LBB15:
  43:TestCheckMacros.cpp ****     {
  44:TestCheckMacros.cpp ****         UnitTest::TestResults testResults(&reporter);
 1315              		.loc 6 44 0
 1316 05af 488D95B0 		leaq	-2128(%rbp), %rdx
 1316      F7FFFF
 1317 05b6 488D8570 		leaq	-2192(%rbp), %rax
 1317      F7FFFF
 1318 05bd 4889D6   		movq	%rdx, %rsi
 1319 05c0 4889C7   		movq	%rax, %rdi
 1320              	.LEHB28:
 1321 05c3 E8000000 		call	_ZN8UnitTest11TestResultsC1EPNS_12TestReporterE
 1321      00
  45:TestCheckMacros.cpp **** 		ScopedCurrentTest scopedResults(testResults);
 1322              		.loc 6 45 0
 1323 05c8 488D8D70 		leaq	-2192(%rbp), %rcx
 1323      F7FFFF
 1324 05cf 488D8560 		leaq	-2208(%rbp), %rax
 1324      F7FFFF
 1325 05d6 BA000000 		movl	$0, %edx
 1325      00
 1326 05db 4889CE   		movq	%rcx, %rsi
 1327 05de 4889C7   		movq	%rax, %rdi
 1328 05e1 E8000000 		call	_ZN17ScopedCurrentTestC1ERN8UnitTest11TestResultsEPKNS0_11TestDetailsE
 1328      00
 1329              	.LEHE28:
  46:TestCheckMacros.cpp ****         CHECK(false);
 1330              		.loc 6 46 0
 1331 05e6 BF000000 		movl	$0, %edi
 1331      00
 1332 05eb E8000000 		call	_ZN8UnitTest5CheckIbEEbT_
 1332      00
 1333 05f0 83F001   		xorl	$1, %eax
 1334 05f3 84C0     		testb	%al, %al
 1335 05f5 743E     		je	.L58
 1336              	.LEHB29:
 1337              		.loc 6 46 0 is_stmt 0 discriminator 1
 1338 05f7 E8000000 		call	_ZN8UnitTest11CurrentTest7DetailsEv
 1338      00
 1339 05fc 488B08   		movq	(%rax), %rcx
 1340 05ff 488D8590 		leaq	-2160(%rbp), %rax
 1340      F7FFFF
 1341 0606 BA2E0000 		movl	$46, %edx
 1341      00
 1342 060b 4889CE   		movq	%rcx, %rsi
 1343 060e 4889C7   		movq	%rax, %rdi
 1344 0611 E8000000 		call	_ZN8UnitTest11TestDetailsC1ERKS0_i
 1344      00
 1345              		.loc 6 46 0 discriminator 3
 1346 0616 E8000000 		call	_ZN8UnitTest11CurrentTest7ResultsEv
 1346      00
 1347 061b 488B00   		movq	(%rax), %rax
 1348 061e 488D8D90 		leaq	-2160(%rbp), %rcx
 1348      F7FFFF
 1349 0625 BA000000 		movl	$.LC9, %edx
 1349      00
 1350 062a 4889CE   		movq	%rcx, %rsi
 1351 062d 4889C7   		movq	%rax, %rdi
 1352 0630 E8000000 		call	_ZN8UnitTest11TestResults13OnTestFailureERKNS_11TestDetailsEPKc
 1352      00
 1353              	.LEHE29:
 1354              	.L58:
  45:TestCheckMacros.cpp **** 		ScopedCurrentTest scopedResults(testResults);
 1355              		.loc 6 45 0 is_stmt 1
 1356 0635 488D8560 		leaq	-2208(%rbp), %rax
 1356      F7FFFF
 1357 063c 4889C7   		movq	%rax, %rdi
 1358              	.LEHB30:
 1359 063f E8000000 		call	_ZN17ScopedCurrentTestD1Ev
 1359      00
 1360              	.LEHE30:
 1361              	.LEHB31:
 1362              	.LBE15:
  47:TestCheckMacros.cpp ****     }
  48:TestCheckMacros.cpp **** 
  49:TestCheckMacros.cpp ****     CHECK_EQUAL(m_details.testName, reporter.lastFailedTest);
 1363              		.loc 6 49 0
 1364 0644 E8000000 		call	_ZN8UnitTest11CurrentTest7DetailsEv
 1364      00
 1365 0649 488B08   		movq	(%rax), %rcx
 1366 064c 488D8590 		leaq	-2160(%rbp), %rax
 1366      F7FFFF
 1367 0653 BA310000 		movl	$49, %edx
 1367      00
 1368 0658 4889CE   		movq	%rcx, %rsi
 1369 065b 4889C7   		movq	%rax, %rdi
 1370 065e E8000000 		call	_ZN8UnitTest11TestDetailsC1ERKS0_i
 1370      00
 1371              		.loc 6 49 0 is_stmt 0 discriminator 2
 1372 0663 488B8558 		movq	-2216(%rbp), %rax
 1372      F7FFFF
 1373 066a 488B5810 		movq	16(%rax), %rbx
 1374 066e E8000000 		call	_ZN8UnitTest11CurrentTest7ResultsEv
 1374      00
 1375 0673 488B00   		movq	(%rax), %rax
 1376 0676 488D9590 		leaq	-2160(%rbp), %rdx
 1376      F7FFFF
 1377 067d 488D8DB0 		leaq	-2128(%rbp), %rcx
 1377      F7FFFF
 1378 0684 488DB114 		leaq	1044(%rcx), %rsi
 1378      040000
 1379 068b 4889D1   		movq	%rdx, %rcx
 1380 068e 4889F2   		movq	%rsi, %rdx
 1381 0691 4889DE   		movq	%rbx, %rsi
 1382 0694 4889C7   		movq	%rax, %rdi
 1383 0697 E8000000 		call	_ZN8UnitTest10CheckEqualERNS_11TestResultsEPKcPcRKNS_11TestDetailsE
 1383      00
 1384              	.LEHE31:
 1385              	.L64:
  42:TestCheckMacros.cpp ****     {
 1386              		.loc 6 42 0 is_stmt 1
 1387 069c 488D85B0 		leaq	-2128(%rbp), %rax
 1387      F7FFFF
 1388 06a3 4889C7   		movq	%rax, %rdi
 1389              	.LEHB32:
 1390 06a6 E8000000 		call	_ZN17RecordingReporterD1Ev
 1390      00
 1391              	.LEHE32:
  50:TestCheckMacros.cpp **** }
 1392              		.loc 6 50 0
 1393 06ab 90       		nop
 1394 06ac 488B45E8 		movq	-24(%rbp), %rax
 1395 06b0 64483304 		xorq	%fs:40, %rax
 1395      25280000 
 1395      00
 1396 06b9 0F84EF00 		je	.L66
 1396      0000
 1397 06bf E9E50000 		jmp	.L73
 1397      00
 1398              	.L67:
 1399              	.LBB16:
  46:TestCheckMacros.cpp ****     }
 1400              		.loc 6 46 0
 1401 06c4 4889C7   		movq	%rax, %rdi
 1402 06c7 E8000000 		call	__cxa_begin_catch
 1402      00
 1403              	.LEHB33:
 1404 06cc E8000000 		call	_ZN8UnitTest11CurrentTest7DetailsEv
 1404      00
 1405 06d1 488B08   		movq	(%rax), %rcx
 1406 06d4 488D8590 		leaq	-2160(%rbp), %rax
 1406      F7FFFF
 1407 06db BA2E0000 		movl	$46, %edx
 1407      00
 1408 06e0 4889CE   		movq	%rcx, %rsi
 1409 06e3 4889C7   		movq	%rax, %rdi
 1410 06e6 E8000000 		call	_ZN8UnitTest11TestDetailsC1ERKS0_i
 1410      00
  46:TestCheckMacros.cpp ****     }
 1411              		.loc 6 46 0 is_stmt 0 discriminator 11
 1412 06eb E8000000 		call	_ZN8UnitTest11CurrentTest7ResultsEv
 1412      00
 1413 06f0 488B00   		movq	(%rax), %rax
 1414 06f3 488D8D90 		leaq	-2160(%rbp), %rcx
 1414      F7FFFF
 1415 06fa BA000000 		movl	$.LC11, %edx
 1415      00
 1416 06ff 4889CE   		movq	%rcx, %rsi
 1417 0702 4889C7   		movq	%rax, %rdi
 1418 0705 E8000000 		call	_ZN8UnitTest11TestResults13OnTestFailureERKNS_11TestDetailsEPKc
 1418      00
 1419              	.LEHE33:
 1420              	.LEHB34:
  46:TestCheckMacros.cpp ****     }
 1421              		.loc 6 46 0 discriminator 15
 1422 070a E8000000 		call	__cxa_end_catch
 1422      00
 1423              	.LEHE34:
  46:TestCheckMacros.cpp ****     }
 1424              		.loc 6 46 0
 1425 070f E921FFFF 		jmp	.L58
 1425      FF
 1426              	.L69:
 1427 0714 4889C3   		movq	%rax, %rbx
 1428 0717 E8000000 		call	__cxa_end_catch
 1428      00
 1429 071c EB03     		jmp	.L61
 1430              	.L68:
 1431 071e 4889C3   		movq	%rax, %rbx
 1432              	.L61:
  45:TestCheckMacros.cpp ****         CHECK(false);
 1433              		.loc 6 45 0 is_stmt 1
 1434 0721 488D8560 		leaq	-2208(%rbp), %rax
 1434      F7FFFF
 1435 0728 4889C7   		movq	%rax, %rdi
 1436 072b E8000000 		call	_ZN17ScopedCurrentTestD1Ev
 1436      00
 1437 0730 EB5D     		jmp	.L62
 1438              	.L71:
 1439              	.LBE16:
  49:TestCheckMacros.cpp **** }
 1440              		.loc 6 49 0
 1441 0732 4889C7   		movq	%rax, %rdi
 1442 0735 E8000000 		call	__cxa_begin_catch
 1442      00
 1443              	.LEHB35:
 1444 073a E8000000 		call	_ZN8UnitTest11CurrentTest7DetailsEv
 1444      00
 1445 073f 488B08   		movq	(%rax), %rcx
 1446 0742 488D8590 		leaq	-2160(%rbp), %rax
 1446      F7FFFF
 1447 0749 BA310000 		movl	$49, %edx
 1447      00
 1448 074e 4889CE   		movq	%rcx, %rsi
 1449 0751 4889C7   		movq	%rax, %rdi
 1450 0754 E8000000 		call	_ZN8UnitTest11TestDetailsC1ERKS0_i
 1450      00
  49:TestCheckMacros.cpp **** }
 1451              		.loc 6 49 0 is_stmt 0 discriminator 10
 1452 0759 E8000000 		call	_ZN8UnitTest11CurrentTest7ResultsEv
 1452      00
 1453 075e 488B00   		movq	(%rax), %rax
 1454 0761 488D8D90 		leaq	-2160(%rbp), %rcx
 1454      F7FFFF
 1455 0768 BA000000 		movl	$.LC14, %edx
 1455      00
 1456 076d 4889CE   		movq	%rcx, %rsi
 1457 0770 4889C7   		movq	%rax, %rdi
 1458 0773 E8000000 		call	_ZN8UnitTest11TestResults13OnTestFailureERKNS_11TestDetailsEPKc
 1458      00
 1459              	.LEHE35:
 1460              	.LEHB36:
  49:TestCheckMacros.cpp **** }
 1461              		.loc 6 49 0 discriminator 14
 1462 0778 E8000000 		call	__cxa_end_catch
 1462      00
 1463              	.LEHE36:
  49:TestCheckMacros.cpp **** }
 1464              		.loc 6 49 0
 1465 077d E91AFFFF 		jmp	.L64
 1465      FF
 1466              	.L72:
 1467 0782 4889C3   		movq	%rax, %rbx
 1468 0785 E8000000 		call	__cxa_end_catch
 1468      00
 1469 078a EB03     		jmp	.L62
 1470              	.L70:
 1471 078c 4889C3   		movq	%rax, %rbx
 1472              	.L62:
  42:TestCheckMacros.cpp ****     {
 1473              		.loc 6 42 0 is_stmt 1
 1474 078f 488D85B0 		leaq	-2128(%rbp), %rax
 1474      F7FFFF
 1475 0796 4889C7   		movq	%rax, %rdi
 1476 0799 E8000000 		call	_ZN17RecordingReporterD1Ev
 1476      00
 1477 079e 4889D8   		movq	%rbx, %rax
 1478 07a1 4889C7   		movq	%rax, %rdi
 1479              	.LEHB37:
 1480 07a4 E8000000 		call	_Unwind_Resume
 1480      00
 1481              	.LEHE37:
 1482              	.L73:
 1483              		.loc 6 50 0
 1484 07a9 E8000000 		call	__stack_chk_fail
 1484      00
 1485              	.L66:
 1486 07ae 4881C4A8 		addq	$2216, %rsp
 1486      080000
 1487 07b5 5B       		popq	%rbx
 1488 07b6 5D       		popq	%rbp
 1489              		.cfi_def_cfa 7, 8
 1490 07b7 C3       		ret
 1491              		.cfi_endproc
 1492              	.LFE1099:
 1493              		.section	.gcc_except_table
 1494              		.align 4
 1495              	.LLSDA1099:
 1496 00a0 FF       		.byte	0xff
 1497 00a1 03       		.byte	0x3
 1498 00a2 41       		.uleb128 .LLSDATT1099-.LLSDATTD1099
 1499              	.LLSDATTD1099:
 1500 00a3 01       		.byte	0x1
 1501 00a4 38       		.uleb128 .LLSDACSE1099-.LLSDACSB1099
 1502              	.LLSDACSB1099:
 1503 00a5 45       		.uleb128 .LEHB28-.LFB1099
 1504 00a6 23       		.uleb128 .LEHE28-.LEHB28
 1505 00a7 8E04     		.uleb128 .L70-.LFB1099
 1506 00a9 00       		.uleb128 0
 1507 00aa 79       		.uleb128 .LEHB29-.LFB1099
 1508 00ab 3E       		.uleb128 .LEHE29-.LEHB29
 1509 00ac C602     		.uleb128 .L67-.LFB1099
 1510 00ae 01       		.uleb128 0x1
 1511 00af C101     		.uleb128 .LEHB30-.LFB1099
 1512 00b1 05       		.uleb128 .LEHE30-.LEHB30
 1513 00b2 8E04     		.uleb128 .L70-.LFB1099
 1514 00b4 00       		.uleb128 0
 1515 00b5 C601     		.uleb128 .LEHB31-.LFB1099
 1516 00b7 58       		.uleb128 .LEHE31-.LEHB31
 1517 00b8 B403     		.uleb128 .L71-.LFB1099
 1518 00ba 01       		.uleb128 0x1
 1519 00bb A802     		.uleb128 .LEHB32-.LFB1099
 1520 00bd 05       		.uleb128 .LEHE32-.LEHB32
 1521 00be 00       		.uleb128 0
 1522 00bf 00       		.uleb128 0
 1523 00c0 CE02     		.uleb128 .LEHB33-.LFB1099
 1524 00c2 3E       		.uleb128 .LEHE33-.LEHB33
 1525 00c3 9603     		.uleb128 .L69-.LFB1099
 1526 00c5 00       		.uleb128 0
 1527 00c6 8C03     		.uleb128 .LEHB34-.LFB1099
 1528 00c8 05       		.uleb128 .LEHE34-.LEHB34
 1529 00c9 A003     		.uleb128 .L68-.LFB1099
 1530 00cb 00       		.uleb128 0
 1531 00cc BC03     		.uleb128 .LEHB35-.LFB1099
 1532 00ce 3E       		.uleb128 .LEHE35-.LEHB35
 1533 00cf 8404     		.uleb128 .L72-.LFB1099
 1534 00d1 00       		.uleb128 0
 1535 00d2 FA03     		.uleb128 .LEHB36-.LFB1099
 1536 00d4 05       		.uleb128 .LEHE36-.LEHB36
 1537 00d5 8E04     		.uleb128 .L70-.LFB1099
 1538 00d7 00       		.uleb128 0
 1539 00d8 A604     		.uleb128 .LEHB37-.LFB1099
 1540 00da 05       		.uleb128 .LEHE37-.LEHB37
 1541 00db 00       		.uleb128 0
 1542 00dc 00       		.uleb128 0
 1543              	.LLSDACSE1099:
 1544 00dd 01       		.byte	0x1
 1545 00de 00       		.byte	0
 1546 00df 00       		.align 4
 1547 00e0 00000000 		.long	0
 1548              	
 1549              	.LLSDATT1099:
 1550              		.text
 1552              		.section	.rodata
 1553              		.align 8
 1554              	.LC15:
 1555 0178 43686563 		.string	"CheckFailureIncludesCheckContents"
 1555      6B466169 
 1555      6C757265 
 1555      496E636C 
 1555      75646573 
 1556              		.text
 1557              		.align 2
 1559              	_ZN12_GLOBAL__N_137TestCheckFailureIncludesCheckContentsC2Ev:
 1560              	.LFB1101:
  51:TestCheckMacros.cpp **** 
  52:TestCheckMacros.cpp **** TEST(CheckFailureIncludesCheckContents)
 1561              		.loc 6 52 0
 1562              		.cfi_startproc
 1563 07b8 55       		pushq	%rbp
 1564              		.cfi_def_cfa_offset 16
 1565              		.cfi_offset 6, -16
 1566 07b9 4889E5   		movq	%rsp, %rbp
 1567              		.cfi_def_cfa_register 6
 1568 07bc 4883EC10 		subq	$16, %rsp
 1569 07c0 48897DF8 		movq	%rdi, -8(%rbp)
 1570              	.LBB17:
 1571              		.loc 6 52 0
 1572 07c4 E8000000 		call	_ZN13UnitTestSuite12GetSuiteNameEv
 1572      00
 1573 07c9 4889C2   		movq	%rax, %rdx
 1574 07cc 488B45F8 		movq	-8(%rbp), %rax
 1575 07d0 41B83400 		movl	$52, %r8d
 1575      0000
 1576 07d6 B9000000 		movl	$.LC2, %ecx
 1576      00
 1577 07db BE000000 		movl	$.LC15, %esi
 1577      00
 1578 07e0 4889C7   		movq	%rax, %rdi
 1579 07e3 E8000000 		call	_ZN8UnitTest4TestC2EPKcS2_S2_i
 1579      00
 1580 07e8 BA000000 		movl	$_ZTVN12_GLOBAL__N_137TestCheckFailureIncludesCheckContentsE+16, %edx
 1580      00
 1581 07ed 488B45F8 		movq	-8(%rbp), %rax
 1582 07f1 488910   		movq	%rdx, (%rax)
 1583              	.LBE17:
 1584 07f4 90       		nop
 1585 07f5 C9       		leave
 1586              		.cfi_def_cfa 7, 8
 1587 07f6 C3       		ret
 1588              		.cfi_endproc
 1589              	.LFE1101:
 1591              		.set	_ZN12_GLOBAL__N_137TestCheckFailureIncludesCheckContentsC1Ev,_ZN12_GLOBAL__N_137TestCheckFail
 1592              		.local	_ZN12_GLOBAL__N_145testCheckFailureIncludesCheckContentsInstanceE
 1593              		.comm	_ZN12_GLOBAL__N_145testCheckFailureIncludesCheckContentsInstanceE,56,32
 1594              		.local	_ZN12_GLOBAL__N_138adderCheckFailureIncludesCheckContentsE
 1595              		.comm	_ZN12_GLOBAL__N_138adderCheckFailureIncludesCheckContentsE,1,1
 1596              		.section	.rodata
 1597              	.LC16:
 1598 019a 79616464 		.string	"yaddayadda"
 1598      61796164 
 1598      646100
 1599 01a5 000000   		.align 8
 1600              	.LC17:
 1601 01a8 73747273 		.string	"strstr(reporter.lastFailedMessage, \"yaddayadda\")"
 1601      74722872 
 1601      65706F72 
 1601      7465722E 
 1601      6C617374 
 1602 01d9 00000000 		.align 8
 1602      000000
 1603              	.LC18:
 1604 01e0 556E6861 		.string	"Unhandled exception in CHECK(yaddayadda)"
 1604      6E646C65 
 1604      64206578 
 1604      63657074 
 1604      696F6E20 
 1605 0209 00000000 		.align 8
 1605      000000
 1606              	.LC19:
 1607 0210 556E6861 		.string	"Unhandled exception in CHECK(strstr(reporter.lastFailedMessage, \"yaddayadda\"))"
 1607      6E646C65 
 1607      64206578 
 1607      63657074 
 1607      696F6E20 
 1608              		.text
 1609 07f7 90       		.align 2
 1611              	_ZNK12_GLOBAL__N_137TestCheckFailureIncludesCheckContents7RunImplEv:
 1612              	.LFB1103:
  53:TestCheckMacros.cpp **** {
 1613              		.loc 6 53 0
 1614              		.cfi_startproc
 1615              		.cfi_personality 0x3,__gxx_personality_v0
 1616              		.cfi_lsda 0x3,.LLSDA1103
 1617 07f8 55       		pushq	%rbp
 1618              		.cfi_def_cfa_offset 16
 1619              		.cfi_offset 6, -16
 1620 07f9 4889E5   		movq	%rsp, %rbp
 1621              		.cfi_def_cfa_register 6
 1622 07fc 53       		pushq	%rbx
 1623 07fd 4881ECB8 		subq	$2232, %rsp
 1623      080000
 1624              		.cfi_offset 3, -24
 1625 0804 4889BD48 		movq	%rdi, -2232(%rbp)
 1625      F7FFFF
 1626              		.loc 6 53 0
 1627 080b 64488B04 		movq	%fs:40, %rax
 1627      25280000 
 1627      00
 1628 0814 488945E8 		movq	%rax, -24(%rbp)
 1629 0818 31C0     		xorl	%eax, %eax
  54:TestCheckMacros.cpp ****     RecordingReporter reporter;
 1630              		.loc 6 54 0
 1631 081a 488D85B0 		leaq	-2128(%rbp), %rax
 1631      F7FFFF
 1632 0821 4889C7   		movq	%rax, %rdi
 1633 0824 E8000000 		call	_ZN17RecordingReporterC1Ev
 1633      00
 1634              	.LBB18:
  55:TestCheckMacros.cpp ****     {
  56:TestCheckMacros.cpp ****         UnitTest::TestResults testResults(&reporter);
 1635              		.loc 6 56 0
 1636 0829 488D95B0 		leaq	-2128(%rbp), %rdx
 1636      F7FFFF
 1637 0830 488D8570 		leaq	-2192(%rbp), %rax
 1637      F7FFFF
 1638 0837 4889D6   		movq	%rdx, %rsi
 1639 083a 4889C7   		movq	%rax, %rdi
 1640              	.LEHB38:
 1641 083d E8000000 		call	_ZN8UnitTest11TestResultsC1EPNS_12TestReporterE
 1641      00
  57:TestCheckMacros.cpp **** 		ScopedCurrentTest scopedResults(testResults);
 1642              		.loc 6 57 0
 1643 0842 488D8D70 		leaq	-2192(%rbp), %rcx
 1643      F7FFFF
 1644 0849 488D8560 		leaq	-2208(%rbp), %rax
 1644      F7FFFF
 1645 0850 BA000000 		movl	$0, %edx
 1645      00
 1646 0855 4889CE   		movq	%rcx, %rsi
 1647 0858 4889C7   		movq	%rax, %rdi
 1648 085b E8000000 		call	_ZN17ScopedCurrentTestC1ERN8UnitTest11TestResultsEPKNS0_11TestDetailsE
 1648      00
 1649              	.LEHE38:
  58:TestCheckMacros.cpp ****         const bool yaddayadda = false;
 1650              		.loc 6 58 0
 1651 0860 C6855FF7 		movb	$0, -2209(%rbp)
 1651      FFFF00
  59:TestCheckMacros.cpp ****         CHECK(yaddayadda);
 1652              		.loc 6 59 0
 1653 0867 BF000000 		movl	$0, %edi
 1653      00
 1654 086c E8000000 		call	_ZN8UnitTest5CheckIbEEbT_
 1654      00
 1655 0871 83F001   		xorl	$1, %eax
 1656 0874 84C0     		testb	%al, %al
 1657 0876 743E     		je	.L76
 1658              	.LEHB39:
 1659              		.loc 6 59 0 is_stmt 0 discriminator 1
 1660 0878 E8000000 		call	_ZN8UnitTest11CurrentTest7DetailsEv
 1660      00
 1661 087d 488B08   		movq	(%rax), %rcx
 1662 0880 488D8590 		leaq	-2160(%rbp), %rax
 1662      F7FFFF
 1663 0887 BA3B0000 		movl	$59, %edx
 1663      00
 1664 088c 4889CE   		movq	%rcx, %rsi
 1665 088f 4889C7   		movq	%rax, %rdi
 1666 0892 E8000000 		call	_ZN8UnitTest11TestDetailsC1ERKS0_i
 1666      00
 1667              		.loc 6 59 0 discriminator 3
 1668 0897 E8000000 		call	_ZN8UnitTest11CurrentTest7ResultsEv
 1668      00
 1669 089c 488B00   		movq	(%rax), %rax
 1670 089f 488D8D90 		leaq	-2160(%rbp), %rcx
 1670      F7FFFF
 1671 08a6 BA000000 		movl	$.LC16, %edx
 1671      00
 1672 08ab 4889CE   		movq	%rcx, %rsi
 1673 08ae 4889C7   		movq	%rax, %rdi
 1674 08b1 E8000000 		call	_ZN8UnitTest11TestResults13OnTestFailureERKNS_11TestDetailsEPKc
 1674      00
 1675              	.LEHE39:
 1676              	.L76:
  57:TestCheckMacros.cpp **** 		ScopedCurrentTest scopedResults(testResults);
 1677              		.loc 6 57 0 is_stmt 1
 1678 08b6 488D8560 		leaq	-2208(%rbp), %rax
 1678      F7FFFF
 1679 08bd 4889C7   		movq	%rax, %rdi
 1680              	.LEHB40:
 1681 08c0 E8000000 		call	_ZN17ScopedCurrentTestD1Ev
 1681      00
 1682              	.LEHE40:
 1683              	.LBE18:
  60:TestCheckMacros.cpp ****     }
  61:TestCheckMacros.cpp **** 
  62:TestCheckMacros.cpp ****     CHECK(strstr(reporter.lastFailedMessage, "yaddayadda"));
 1684              		.loc 6 62 0
 1685 08c5 488D85B0 		leaq	-2128(%rbp), %rax
 1685      F7FFFF
 1686 08cc 48051405 		addq	$1300, %rax
 1686      0000
 1687 08d2 BE000000 		movl	$.LC16, %esi
 1687      00
 1688 08d7 4889C7   		movq	%rax, %rdi
 1689 08da E8000000 		call	strstr
 1689      00
 1690 08df 4889C7   		movq	%rax, %rdi
 1691 08e2 E8000000 		call	_ZN8UnitTest5CheckIPcEEbT_
 1691      00
 1692 08e7 83F001   		xorl	$1, %eax
 1693 08ea 84C0     		testb	%al, %al
 1694 08ec 743E     		je	.L77
 1695              	.LEHB41:
 1696              		.loc 6 62 0 is_stmt 0 discriminator 1
 1697 08ee E8000000 		call	_ZN8UnitTest11CurrentTest7DetailsEv
 1697      00
 1698 08f3 488B08   		movq	(%rax), %rcx
 1699 08f6 488D8590 		leaq	-2160(%rbp), %rax
 1699      F7FFFF
 1700 08fd BA3E0000 		movl	$62, %edx
 1700      00
 1701 0902 4889CE   		movq	%rcx, %rsi
 1702 0905 4889C7   		movq	%rax, %rdi
 1703 0908 E8000000 		call	_ZN8UnitTest11TestDetailsC1ERKS0_i
 1703      00
 1704              		.loc 6 62 0 discriminator 3
 1705 090d E8000000 		call	_ZN8UnitTest11CurrentTest7ResultsEv
 1705      00
 1706 0912 488B00   		movq	(%rax), %rax
 1707 0915 488D8D90 		leaq	-2160(%rbp), %rcx
 1707      F7FFFF
 1708 091c BA000000 		movl	$.LC17, %edx
 1708      00
 1709 0921 4889CE   		movq	%rcx, %rsi
 1710 0924 4889C7   		movq	%rax, %rdi
 1711 0927 E8000000 		call	_ZN8UnitTest11TestResults13OnTestFailureERKNS_11TestDetailsEPKc
 1711      00
 1712              	.LEHE41:
 1713              	.L77:
  54:TestCheckMacros.cpp ****     {
 1714              		.loc 6 54 0 is_stmt 1
 1715 092c 488D85B0 		leaq	-2128(%rbp), %rax
 1715      F7FFFF
 1716 0933 4889C7   		movq	%rax, %rdi
 1717              	.LEHB42:
 1718 0936 E8000000 		call	_ZN17RecordingReporterD1Ev
 1718      00
 1719              	.LEHE42:
  63:TestCheckMacros.cpp **** }
 1720              		.loc 6 63 0
 1721 093b 90       		nop
 1722 093c 488B45E8 		movq	-24(%rbp), %rax
 1723 0940 64483304 		xorq	%fs:40, %rax
 1723      25280000 
 1723      00
 1724 0949 0F84EF00 		je	.L84
 1724      0000
 1725 094f E9E50000 		jmp	.L91
 1725      00
 1726              	.L85:
 1727              	.LBB19:
  59:TestCheckMacros.cpp ****     }
 1728              		.loc 6 59 0
 1729 0954 4889C7   		movq	%rax, %rdi
 1730 0957 E8000000 		call	__cxa_begin_catch
 1730      00
 1731              	.LEHB43:
 1732 095c E8000000 		call	_ZN8UnitTest11CurrentTest7DetailsEv
 1732      00
 1733 0961 488B08   		movq	(%rax), %rcx
 1734 0964 488D8590 		leaq	-2160(%rbp), %rax
 1734      F7FFFF
 1735 096b BA3B0000 		movl	$59, %edx
 1735      00
 1736 0970 4889CE   		movq	%rcx, %rsi
 1737 0973 4889C7   		movq	%rax, %rdi
 1738 0976 E8000000 		call	_ZN8UnitTest11TestDetailsC1ERKS0_i
 1738      00
  59:TestCheckMacros.cpp ****     }
 1739              		.loc 6 59 0 is_stmt 0 discriminator 11
 1740 097b E8000000 		call	_ZN8UnitTest11CurrentTest7ResultsEv
 1740      00
 1741 0980 488B00   		movq	(%rax), %rax
 1742 0983 488D8D90 		leaq	-2160(%rbp), %rcx
 1742      F7FFFF
 1743 098a BA000000 		movl	$.LC18, %edx
 1743      00
 1744 098f 4889CE   		movq	%rcx, %rsi
 1745 0992 4889C7   		movq	%rax, %rdi
 1746 0995 E8000000 		call	_ZN8UnitTest11TestResults13OnTestFailureERKNS_11TestDetailsEPKc
 1746      00
 1747              	.LEHE43:
 1748              	.LEHB44:
  59:TestCheckMacros.cpp ****     }
 1749              		.loc 6 59 0 discriminator 15
 1750 099a E8000000 		call	__cxa_end_catch
 1750      00
 1751              	.LEHE44:
  59:TestCheckMacros.cpp ****     }
 1752              		.loc 6 59 0
 1753 099f E912FFFF 		jmp	.L76
 1753      FF
 1754              	.L87:
 1755 09a4 4889C3   		movq	%rax, %rbx
 1756 09a7 E8000000 		call	__cxa_end_catch
 1756      00
 1757 09ac EB03     		jmp	.L80
 1758              	.L86:
 1759 09ae 4889C3   		movq	%rax, %rbx
 1760              	.L80:
  57:TestCheckMacros.cpp ****         const bool yaddayadda = false;
 1761              		.loc 6 57 0 is_stmt 1
 1762 09b1 488D8560 		leaq	-2208(%rbp), %rax
 1762      F7FFFF
 1763 09b8 4889C7   		movq	%rax, %rdi
 1764 09bb E8000000 		call	_ZN17ScopedCurrentTestD1Ev
 1764      00
 1765 09c0 EB5D     		jmp	.L81
 1766              	.L89:
 1767              	.LBE19:
  62:TestCheckMacros.cpp **** }
 1768              		.loc 6 62 0
 1769 09c2 4889C7   		movq	%rax, %rdi
 1770 09c5 E8000000 		call	__cxa_begin_catch
 1770      00
 1771              	.LEHB45:
 1772 09ca E8000000 		call	_ZN8UnitTest11CurrentTest7DetailsEv
 1772      00
 1773 09cf 488B08   		movq	(%rax), %rcx
 1774 09d2 488D8590 		leaq	-2160(%rbp), %rax
 1774      F7FFFF
 1775 09d9 BA3E0000 		movl	$62, %edx
 1775      00
 1776 09de 4889CE   		movq	%rcx, %rsi
 1777 09e1 4889C7   		movq	%rax, %rdi
 1778 09e4 E8000000 		call	_ZN8UnitTest11TestDetailsC1ERKS0_i
 1778      00
  62:TestCheckMacros.cpp **** }
 1779              		.loc 6 62 0 is_stmt 0 discriminator 11
 1780 09e9 E8000000 		call	_ZN8UnitTest11CurrentTest7ResultsEv
 1780      00
 1781 09ee 488B00   		movq	(%rax), %rax
 1782 09f1 488D8D90 		leaq	-2160(%rbp), %rcx
 1782      F7FFFF
 1783 09f8 BA000000 		movl	$.LC19, %edx
 1783      00
 1784 09fd 4889CE   		movq	%rcx, %rsi
 1785 0a00 4889C7   		movq	%rax, %rdi
 1786 0a03 E8000000 		call	_ZN8UnitTest11TestResults13OnTestFailureERKNS_11TestDetailsEPKc
 1786      00
 1787              	.LEHE45:
 1788              	.LEHB46:
  62:TestCheckMacros.cpp **** }
 1789              		.loc 6 62 0 discriminator 15
 1790 0a08 E8000000 		call	__cxa_end_catch
 1790      00
 1791              	.LEHE46:
  62:TestCheckMacros.cpp **** }
 1792              		.loc 6 62 0
 1793 0a0d E91AFFFF 		jmp	.L77
 1793      FF
 1794              	.L90:
 1795 0a12 4889C3   		movq	%rax, %rbx
 1796 0a15 E8000000 		call	__cxa_end_catch
 1796      00
 1797 0a1a EB03     		jmp	.L81
 1798              	.L88:
 1799 0a1c 4889C3   		movq	%rax, %rbx
 1800              	.L81:
  54:TestCheckMacros.cpp ****     {
 1801              		.loc 6 54 0 is_stmt 1
 1802 0a1f 488D85B0 		leaq	-2128(%rbp), %rax
 1802      F7FFFF
 1803 0a26 4889C7   		movq	%rax, %rdi
 1804 0a29 E8000000 		call	_ZN17RecordingReporterD1Ev
 1804      00
 1805 0a2e 4889D8   		movq	%rbx, %rax
 1806 0a31 4889C7   		movq	%rax, %rdi
 1807              	.LEHB47:
 1808 0a34 E8000000 		call	_Unwind_Resume
 1808      00
 1809              	.LEHE47:
 1810              	.L91:
 1811              		.loc 6 63 0
 1812 0a39 E8000000 		call	__stack_chk_fail
 1812      00
 1813              	.L84:
 1814 0a3e 4881C4B8 		addq	$2232, %rsp
 1814      080000
 1815 0a45 5B       		popq	%rbx
 1816 0a46 5D       		popq	%rbp
 1817              		.cfi_def_cfa 7, 8
 1818 0a47 C3       		ret
 1819              		.cfi_endproc
 1820              	.LFE1103:
 1821              		.section	.gcc_except_table
 1822              		.align 4
 1823              	.LLSDA1103:
 1824 00e4 FF       		.byte	0xff
 1825 00e5 03       		.byte	0x3
 1826 00e6 41       		.uleb128 .LLSDATT1103-.LLSDATTD1103
 1827              	.LLSDATTD1103:
 1828 00e7 01       		.byte	0x1
 1829 00e8 39       		.uleb128 .LLSDACSE1103-.LLSDACSB1103
 1830              	.LLSDACSB1103:
 1831 00e9 45       		.uleb128 .LEHB38-.LFB1103
 1832 00ea 23       		.uleb128 .LEHE38-.LEHB38
 1833 00eb A404     		.uleb128 .L88-.LFB1103
 1834 00ed 00       		.uleb128 0
 1835 00ee 8001     		.uleb128 .LEHB39-.LFB1103
 1836 00f0 3E       		.uleb128 .LEHE39-.LEHB39
 1837 00f1 DC02     		.uleb128 .L85-.LFB1103
 1838 00f3 01       		.uleb128 0x1
 1839 00f4 C801     		.uleb128 .LEHB40-.LFB1103
 1840 00f6 05       		.uleb128 .LEHE40-.LEHB40
 1841 00f7 A404     		.uleb128 .L88-.LFB1103
 1842 00f9 00       		.uleb128 0
 1843 00fa F601     		.uleb128 .LEHB41-.LFB1103
 1844 00fc 3E       		.uleb128 .LEHE41-.LEHB41
 1845 00fd CA03     		.uleb128 .L89-.LFB1103
 1846 00ff 01       		.uleb128 0x1
 1847 0100 BE02     		.uleb128 .LEHB42-.LFB1103
 1848 0102 05       		.uleb128 .LEHE42-.LEHB42
 1849 0103 00       		.uleb128 0
 1850 0104 00       		.uleb128 0
 1851 0105 E402     		.uleb128 .LEHB43-.LFB1103
 1852 0107 3E       		.uleb128 .LEHE43-.LEHB43
 1853 0108 AC03     		.uleb128 .L87-.LFB1103
 1854 010a 00       		.uleb128 0
 1855 010b A203     		.uleb128 .LEHB44-.LFB1103
 1856 010d 05       		.uleb128 .LEHE44-.LEHB44
 1857 010e B603     		.uleb128 .L86-.LFB1103
 1858 0110 00       		.uleb128 0
 1859 0111 D203     		.uleb128 .LEHB45-.LFB1103
 1860 0113 3E       		.uleb128 .LEHE45-.LEHB45
 1861 0114 9A04     		.uleb128 .L90-.LFB1103
 1862 0116 00       		.uleb128 0
 1863 0117 9004     		.uleb128 .LEHB46-.LFB1103
 1864 0119 05       		.uleb128 .LEHE46-.LEHB46
 1865 011a A404     		.uleb128 .L88-.LFB1103
 1866 011c 00       		.uleb128 0
 1867 011d BC04     		.uleb128 .LEHB47-.LFB1103
 1868 011f 05       		.uleb128 .LEHE47-.LEHB47
 1869 0120 00       		.uleb128 0
 1870 0121 00       		.uleb128 0
 1871              	.LLSDACSE1103:
 1872 0122 01       		.byte	0x1
 1873 0123 00       		.byte	0
 1874              		.align 4
 1875 0124 00000000 		.long	0
 1876              	
 1877              	.LLSDATT1103:
 1878              		.text
 1880              		.section	.rodata
 1881              	.LC20:
 1882 025f 446F6800 		.string	"Doh"
 1883              		.text
 1885              	_ZN12_GLOBAL__N_116ThrowingFunctionEv:
 1886              	.LFB1104:
  64:TestCheckMacros.cpp **** 
  65:TestCheckMacros.cpp **** int ThrowingFunction()
  66:TestCheckMacros.cpp **** {
 1887              		.loc 6 66 0
 1888              		.cfi_startproc
 1889 0a48 55       		pushq	%rbp
 1890              		.cfi_def_cfa_offset 16
 1891              		.cfi_offset 6, -16
 1892 0a49 4889E5   		movq	%rsp, %rbp
 1893              		.cfi_def_cfa_register 6
  67:TestCheckMacros.cpp ****     throw "Doh";
 1894              		.loc 6 67 0
 1895 0a4c BF080000 		movl	$8, %edi
 1895      00
 1896 0a51 E8000000 		call	__cxa_allocate_exception
 1896      00
 1897 0a56 48C70000 		movq	$.LC20, (%rax)
 1897      000000
 1898 0a5d BA000000 		movl	$0, %edx
 1898      00
 1899 0a62 BE000000 		movl	$_ZTIPKc, %esi
 1899      00
 1900 0a67 4889C7   		movq	%rax, %rdi
 1901 0a6a E8000000 		call	__cxa_throw
 1901      00
 1902              		.cfi_endproc
 1903              	.LFE1104:
 1905              		.section	.rodata
 1906              	.LC21:
 1907 0263 43686563 		.string	"CheckFailsOnException"
 1907      6B466169 
 1907      6C734F6E 
 1907      45786365 
 1907      7074696F 
 1908              		.text
 1909 0a6f 90       		.align 2
 1911              	_ZN12_GLOBAL__N_125TestCheckFailsOnExceptionC2Ev:
 1912              	.LFB1106:
  68:TestCheckMacros.cpp **** }
  69:TestCheckMacros.cpp **** 
  70:TestCheckMacros.cpp **** TEST(CheckFailsOnException)
 1913              		.loc 6 70 0
 1914              		.cfi_startproc
 1915 0a70 55       		pushq	%rbp
 1916              		.cfi_def_cfa_offset 16
 1917              		.cfi_offset 6, -16
 1918 0a71 4889E5   		movq	%rsp, %rbp
 1919              		.cfi_def_cfa_register 6
 1920 0a74 4883EC10 		subq	$16, %rsp
 1921 0a78 48897DF8 		movq	%rdi, -8(%rbp)
 1922              	.LBB20:
 1923              		.loc 6 70 0
 1924 0a7c E8000000 		call	_ZN13UnitTestSuite12GetSuiteNameEv
 1924      00
 1925 0a81 4889C2   		movq	%rax, %rdx
 1926 0a84 488B45F8 		movq	-8(%rbp), %rax
 1927 0a88 41B84600 		movl	$70, %r8d
 1927      0000
 1928 0a8e B9000000 		movl	$.LC2, %ecx
 1928      00
 1929 0a93 BE000000 		movl	$.LC21, %esi
 1929      00
 1930 0a98 4889C7   		movq	%rax, %rdi
 1931 0a9b E8000000 		call	_ZN8UnitTest4TestC2EPKcS2_S2_i
 1931      00
 1932 0aa0 BA000000 		movl	$_ZTVN12_GLOBAL__N_125TestCheckFailsOnExceptionE+16, %edx
 1932      00
 1933 0aa5 488B45F8 		movq	-8(%rbp), %rax
 1934 0aa9 488910   		movq	%rdx, (%rax)
 1935              	.LBE20:
 1936 0aac 90       		nop
 1937 0aad C9       		leave
 1938              		.cfi_def_cfa 7, 8
 1939 0aae C3       		ret
 1940              		.cfi_endproc
 1941              	.LFE1106:
 1943              		.set	_ZN12_GLOBAL__N_125TestCheckFailsOnExceptionC1Ev,_ZN12_GLOBAL__N_125TestCheckFailsOnException
 1944              		.local	_ZN12_GLOBAL__N_133testCheckFailsOnExceptionInstanceE
 1945              		.comm	_ZN12_GLOBAL__N_133testCheckFailsOnExceptionInstanceE,56,32
 1946              		.local	_ZN12_GLOBAL__N_126adderCheckFailsOnExceptionE
 1947              		.comm	_ZN12_GLOBAL__N_126adderCheckFailsOnExceptionE,1,1
 1948              		.section	.rodata
 1949              	.LC22:
 1950 0279 5468726F 		.string	"ThrowingFunction() == 1"
 1950      77696E67 
 1950      46756E63 
 1950      74696F6E 
 1950      2829203D 
 1951 0291 00000000 		.align 8
 1951      000000
 1952              	.LC23:
 1953 0298 556E6861 		.string	"Unhandled exception in CHECK(ThrowingFunction() == 1)"
 1953      6E646C65 
 1953      64206578 
 1953      63657074 
 1953      696F6E20 
 1954              		.text
 1955 0aaf 90       		.align 2
 1957              	_ZNK12_GLOBAL__N_125TestCheckFailsOnException7RunImplEv:
 1958              	.LFB1108:
  71:TestCheckMacros.cpp **** {
 1959              		.loc 6 71 0
 1960              		.cfi_startproc
 1961              		.cfi_personality 0x3,__gxx_personality_v0
 1962              		.cfi_lsda 0x3,.LLSDA1108
 1963 0ab0 55       		pushq	%rbp
 1964              		.cfi_def_cfa_offset 16
 1965              		.cfi_offset 6, -16
 1966 0ab1 4889E5   		movq	%rsp, %rbp
 1967              		.cfi_def_cfa_register 6
 1968 0ab4 53       		pushq	%rbx
 1969 0ab5 4881ECB8 		subq	$2232, %rsp
 1969      080000
 1970              		.cfi_offset 3, -24
 1971 0abc 4889BD48 		movq	%rdi, -2232(%rbp)
 1971      F7FFFF
 1972              		.loc 6 71 0
 1973 0ac3 64488B04 		movq	%fs:40, %rax
 1973      25280000 
 1973      00
 1974 0acc 488945E8 		movq	%rax, -24(%rbp)
 1975 0ad0 31C0     		xorl	%eax, %eax
  72:TestCheckMacros.cpp ****     bool failure = false;
 1976              		.loc 6 72 0
 1977 0ad2 C6855FF7 		movb	$0, -2209(%rbp)
 1977      FFFF00
 1978              	.LBB21:
  73:TestCheckMacros.cpp ****     {
  74:TestCheckMacros.cpp ****         RecordingReporter reporter;
 1979              		.loc 6 74 0
 1980 0ad9 488D85B0 		leaq	-2128(%rbp), %rax
 1980      F7FFFF
 1981 0ae0 4889C7   		movq	%rax, %rdi
 1982 0ae3 E8000000 		call	_ZN17RecordingReporterC1Ev
 1982      00
  75:TestCheckMacros.cpp ****         UnitTest::TestResults testResults(&reporter);
 1983              		.loc 6 75 0
 1984 0ae8 488D95B0 		leaq	-2128(%rbp), %rdx
 1984      F7FFFF
 1985 0aef 488D8570 		leaq	-2192(%rbp), %rax
 1985      F7FFFF
 1986 0af6 4889D6   		movq	%rdx, %rsi
 1987 0af9 4889C7   		movq	%rax, %rdi
 1988              	.LEHB48:
 1989 0afc E8000000 		call	_ZN8UnitTest11TestResultsC1EPNS_12TestReporterE
 1989      00
  76:TestCheckMacros.cpp **** 		ScopedCurrentTest scopedResults(testResults);
 1990              		.loc 6 76 0
 1991 0b01 488D8D70 		leaq	-2192(%rbp), %rcx
 1991      F7FFFF
 1992 0b08 488D8560 		leaq	-2208(%rbp), %rax
 1992      F7FFFF
 1993 0b0f BA000000 		movl	$0, %edx
 1993      00
 1994 0b14 4889CE   		movq	%rcx, %rsi
 1995 0b17 4889C7   		movq	%rax, %rdi
 1996 0b1a E8000000 		call	_ZN17ScopedCurrentTestC1ERN8UnitTest11TestResultsEPKNS0_11TestDetailsE
 1996      00
 1997              	.LEHE48:
 1998              	.LEHB49:
  77:TestCheckMacros.cpp ****         CHECK(ThrowingFunction() == 1);
 1999              		.loc 6 77 0
 2000 0b1f E824FFFF 		call	_ZN12_GLOBAL__N_116ThrowingFunctionEv
 2000      FF
 2001 0b24 83F801   		cmpl	$1, %eax
 2002 0b27 0F94C0   		sete	%al
 2003 0b2a 0FB6C0   		movzbl	%al, %eax
 2004 0b2d 89C7     		movl	%eax, %edi
 2005 0b2f E8000000 		call	_ZN8UnitTest5CheckIbEEbT_
 2005      00
 2006 0b34 83F001   		xorl	$1, %eax
 2007 0b37 84C0     		testb	%al, %al
 2008 0b39 743E     		je	.L95
 2009              		.loc 6 77 0 is_stmt 0 discriminator 2
 2010 0b3b E8000000 		call	_ZN8UnitTest11CurrentTest7DetailsEv
 2010      00
 2011 0b40 488B08   		movq	(%rax), %rcx
 2012 0b43 488D8590 		leaq	-2160(%rbp), %rax
 2012      F7FFFF
 2013 0b4a BA4D0000 		movl	$77, %edx
 2013      00
 2014 0b4f 4889CE   		movq	%rcx, %rsi
 2015 0b52 4889C7   		movq	%rax, %rdi
 2016 0b55 E8000000 		call	_ZN8UnitTest11TestDetailsC1ERKS0_i
 2016      00
 2017              		.loc 6 77 0 discriminator 4
 2018 0b5a E8000000 		call	_ZN8UnitTest11CurrentTest7ResultsEv
 2018      00
 2019 0b5f 488B00   		movq	(%rax), %rax
 2020 0b62 488D8D90 		leaq	-2160(%rbp), %rcx
 2020      F7FFFF
 2021 0b69 BA000000 		movl	$.LC22, %edx
 2021      00
 2022 0b6e 4889CE   		movq	%rcx, %rsi
 2023 0b71 4889C7   		movq	%rax, %rdi
 2024 0b74 E8000000 		call	_ZN8UnitTest11TestResults13OnTestFailureERKNS_11TestDetailsEPKc
 2024      00
 2025              	.LEHE49:
 2026              	.L95:
  78:TestCheckMacros.cpp ****         failure = (testResults.GetFailureCount() > 0);
 2027              		.loc 6 78 0 is_stmt 1
 2028 0b79 488D8570 		leaq	-2192(%rbp), %rax
 2028      F7FFFF
 2029 0b80 4889C7   		movq	%rax, %rdi
 2030              	.LEHB50:
 2031 0b83 E8000000 		call	_ZNK8UnitTest11TestResults15GetFailureCountEv
 2031      00
 2032              	.LEHE50:
 2033 0b88 85C0     		testl	%eax, %eax
 2034 0b8a 0F9FC0   		setg	%al
 2035 0b8d 88855FF7 		movb	%al, -2209(%rbp)
 2035      FFFF
  76:TestCheckMacros.cpp **** 		ScopedCurrentTest scopedResults(testResults);
 2036              		.loc 6 76 0
 2037 0b93 488D8560 		leaq	-2208(%rbp), %rax
 2037      F7FFFF
 2038 0b9a 4889C7   		movq	%rax, %rdi
 2039              	.LEHB51:
 2040 0b9d E8000000 		call	_ZN17ScopedCurrentTestD1Ev
 2040      00
 2041              	.LEHE51:
  74:TestCheckMacros.cpp ****         UnitTest::TestResults testResults(&reporter);
 2042              		.loc 6 74 0
 2043 0ba2 488D85B0 		leaq	-2128(%rbp), %rax
 2043      F7FFFF
 2044 0ba9 4889C7   		movq	%rax, %rdi
 2045              	.LEHB52:
 2046 0bac E8000000 		call	_ZN17RecordingReporterD1Ev
 2046      00
 2047              	.LEHE52:
 2048              	.LBE21:
  79:TestCheckMacros.cpp ****     }
  80:TestCheckMacros.cpp **** 
  81:TestCheckMacros.cpp ****     CHECK(failure);
 2049              		.loc 6 81 0
 2050 0bb1 0FB6855F 		movzbl	-2209(%rbp), %eax
 2050      F7FFFF
 2051 0bb8 89C7     		movl	%eax, %edi
 2052 0bba E8000000 		call	_ZN8UnitTest5CheckIbEEbT_
 2052      00
 2053 0bbf 83F001   		xorl	$1, %eax
 2054 0bc2 84C0     		testb	%al, %al
 2055 0bc4 0F842E01 		je	.L110
 2055      0000
 2056              	.LEHB53:
 2057              		.loc 6 81 0 is_stmt 0 discriminator 1
 2058 0bca E8000000 		call	_ZN8UnitTest11CurrentTest7DetailsEv
 2058      00
 2059 0bcf 488B08   		movq	(%rax), %rcx
 2060 0bd2 488D8590 		leaq	-2160(%rbp), %rax
 2060      F7FFFF
 2061 0bd9 BA510000 		movl	$81, %edx
 2061      00
 2062 0bde 4889CE   		movq	%rcx, %rsi
 2063 0be1 4889C7   		movq	%rax, %rdi
 2064 0be4 E8000000 		call	_ZN8UnitTest11TestDetailsC1ERKS0_i
 2064      00
 2065              		.loc 6 81 0 discriminator 3
 2066 0be9 E8000000 		call	_ZN8UnitTest11CurrentTest7ResultsEv
 2066      00
 2067 0bee 488B00   		movq	(%rax), %rax
 2068 0bf1 488D8D90 		leaq	-2160(%rbp), %rcx
 2068      F7FFFF
 2069 0bf8 BA000000 		movl	$.LC10, %edx
 2069      00
 2070 0bfd 4889CE   		movq	%rcx, %rsi
 2071 0c00 4889C7   		movq	%rax, %rdi
 2072 0c03 E8000000 		call	_ZN8UnitTest11TestResults13OnTestFailureERKNS_11TestDetailsEPKc
 2072      00
 2073              	.LEHE53:
  82:TestCheckMacros.cpp **** }
 2074              		.loc 6 82 0 is_stmt 1
 2075 0c08 E9EB0000 		jmp	.L110
 2075      00
 2076              	.L105:
 2077              	.LBB22:
  77:TestCheckMacros.cpp ****         failure = (testResults.GetFailureCount() > 0);
 2078              		.loc 6 77 0
 2079 0c0d 4889C7   		movq	%rax, %rdi
 2080 0c10 E8000000 		call	__cxa_begin_catch
 2080      00
 2081              	.LEHB54:
 2082 0c15 E8000000 		call	_ZN8UnitTest11CurrentTest7DetailsEv
 2082      00
 2083 0c1a 488B08   		movq	(%rax), %rcx
 2084 0c1d 488D8590 		leaq	-2160(%rbp), %rax
 2084      F7FFFF
 2085 0c24 BA4D0000 		movl	$77, %edx
 2085      00
 2086 0c29 4889CE   		movq	%rcx, %rsi
 2087 0c2c 4889C7   		movq	%rax, %rdi
 2088 0c2f E8000000 		call	_ZN8UnitTest11TestDetailsC1ERKS0_i
 2088      00
  77:TestCheckMacros.cpp ****         failure = (testResults.GetFailureCount() > 0);
 2089              		.loc 6 77 0 is_stmt 0 discriminator 12
 2090 0c34 E8000000 		call	_ZN8UnitTest11CurrentTest7ResultsEv
 2090      00
 2091 0c39 488B00   		movq	(%rax), %rax
 2092 0c3c 488D8D90 		leaq	-2160(%rbp), %rcx
 2092      F7FFFF
 2093 0c43 BA000000 		movl	$.LC23, %edx
 2093      00
 2094 0c48 4889CE   		movq	%rcx, %rsi
 2095 0c4b 4889C7   		movq	%rax, %rdi
 2096 0c4e E8000000 		call	_ZN8UnitTest11TestResults13OnTestFailureERKNS_11TestDetailsEPKc
 2096      00
 2097              	.LEHE54:
 2098              	.LEHB55:
  77:TestCheckMacros.cpp ****         failure = (testResults.GetFailureCount() > 0);
 2099              		.loc 6 77 0 discriminator 16
 2100 0c53 E8000000 		call	__cxa_end_catch
 2100      00
 2101              	.LEHE55:
  77:TestCheckMacros.cpp ****         failure = (testResults.GetFailureCount() > 0);
 2102              		.loc 6 77 0
 2103 0c58 E91CFFFF 		jmp	.L95
 2103      FF
 2104              	.L107:
 2105 0c5d 4889C3   		movq	%rax, %rbx
 2106 0c60 E8000000 		call	__cxa_end_catch
 2106      00
 2107 0c65 EB03     		jmp	.L99
 2108              	.L106:
 2109 0c67 4889C3   		movq	%rax, %rbx
 2110              	.L99:
  76:TestCheckMacros.cpp ****         CHECK(ThrowingFunction() == 1);
 2111              		.loc 6 76 0 is_stmt 1
 2112 0c6a 488D8560 		leaq	-2208(%rbp), %rax
 2112      F7FFFF
 2113 0c71 4889C7   		movq	%rax, %rdi
 2114 0c74 E8000000 		call	_ZN17ScopedCurrentTestD1Ev
 2114      00
 2115 0c79 EB03     		jmp	.L100
 2116              	.L104:
 2117 0c7b 4889C3   		movq	%rax, %rbx
 2118              	.L100:
  74:TestCheckMacros.cpp ****         UnitTest::TestResults testResults(&reporter);
 2119              		.loc 6 74 0
 2120 0c7e 488D85B0 		leaq	-2128(%rbp), %rax
 2120      F7FFFF
 2121 0c85 4889C7   		movq	%rax, %rdi
 2122 0c88 E8000000 		call	_ZN17RecordingReporterD1Ev
 2122      00
 2123 0c8d 4889D8   		movq	%rbx, %rax
 2124 0c90 4889C7   		movq	%rax, %rdi
 2125              	.LEHB56:
 2126 0c93 E8000000 		call	_Unwind_Resume
 2126      00
 2127              	.LEHE56:
 2128              	.L108:
 2129              	.LBE22:
  81:TestCheckMacros.cpp **** }
 2130              		.loc 6 81 0
 2131 0c98 4889C7   		movq	%rax, %rdi
 2132 0c9b E8000000 		call	__cxa_begin_catch
 2132      00
 2133              	.LEHB57:
 2134 0ca0 E8000000 		call	_ZN8UnitTest11CurrentTest7DetailsEv
 2134      00
 2135 0ca5 488B08   		movq	(%rax), %rcx
 2136 0ca8 488D8590 		leaq	-2160(%rbp), %rax
 2136      F7FFFF
 2137 0caf BA510000 		movl	$81, %edx
 2137      00
 2138 0cb4 4889CE   		movq	%rcx, %rsi
 2139 0cb7 4889C7   		movq	%rax, %rdi
 2140 0cba E8000000 		call	_ZN8UnitTest11TestDetailsC1ERKS0_i
 2140      00
  81:TestCheckMacros.cpp **** }
 2141              		.loc 6 81 0 is_stmt 0 discriminator 11
 2142 0cbf E8000000 		call	_ZN8UnitTest11CurrentTest7ResultsEv
 2142      00
 2143 0cc4 488B00   		movq	(%rax), %rax
 2144 0cc7 488D8D90 		leaq	-2160(%rbp), %rcx
 2144      F7FFFF
 2145 0cce BA000000 		movl	$.LC12, %edx
 2145      00
 2146 0cd3 4889CE   		movq	%rcx, %rsi
 2147 0cd6 4889C7   		movq	%rax, %rdi
 2148 0cd9 E8000000 		call	_ZN8UnitTest11TestResults13OnTestFailureERKNS_11TestDetailsEPKc
 2148      00
 2149              	.LEHE57:
 2150              	.LEHB58:
  81:TestCheckMacros.cpp **** }
 2151              		.loc 6 81 0 discriminator 15
 2152 0cde E8000000 		call	__cxa_end_catch
 2152      00
 2153              	.LEHE58:
 2154              		.loc 6 82 0 is_stmt 1 discriminator 15
 2155 0ce3 EB13     		jmp	.L110
 2156              	.L109:
 2157 0ce5 4889C3   		movq	%rax, %rbx
  81:TestCheckMacros.cpp **** }
 2158              		.loc 6 81 0
 2159 0ce8 E8000000 		call	__cxa_end_catch
 2159      00
 2160 0ced 4889D8   		movq	%rbx, %rax
 2161 0cf0 4889C7   		movq	%rax, %rdi
 2162              	.LEHB59:
 2163 0cf3 E8000000 		call	_Unwind_Resume
 2163      00
 2164              	.LEHE59:
 2165              	.L110:
 2166              		.loc 6 82 0
 2167 0cf8 90       		nop
 2168 0cf9 488B45E8 		movq	-24(%rbp), %rax
 2169 0cfd 64483304 		xorq	%fs:40, %rax
 2169      25280000 
 2169      00
 2170 0d06 7405     		je	.L103
 2171 0d08 E8000000 		call	__stack_chk_fail
 2171      00
 2172              	.L103:
 2173 0d0d 4881C4B8 		addq	$2232, %rsp
 2173      080000
 2174 0d14 5B       		popq	%rbx
 2175 0d15 5D       		popq	%rbp
 2176              		.cfi_def_cfa 7, 8
 2177 0d16 C3       		ret
 2178              		.cfi_endproc
 2179              	.LFE1108:
 2180              		.section	.gcc_except_table
 2181              		.align 4
 2182              	.LLSDA1108:
 2183 0128 FF       		.byte	0xff
 2184 0129 03       		.byte	0x3
 2185 012a 4D       		.uleb128 .LLSDATT1108-.LLSDATTD1108
 2186              	.LLSDATTD1108:
 2187 012b 01       		.byte	0x1
 2188 012c 42       		.uleb128 .LLSDACSE1108-.LLSDACSB1108
 2189              	.LLSDACSB1108:
 2190 012d 4C       		.uleb128 .LEHB48-.LFB1108
 2191 012e 23       		.uleb128 .LEHE48-.LEHB48
 2192 012f CB03     		.uleb128 .L104-.LFB1108
 2193 0131 00       		.uleb128 0
 2194 0132 6F       		.uleb128 .LEHB49-.LFB1108
 2195 0133 5A       		.uleb128 .LEHE49-.LEHB49
 2196 0134 DD02     		.uleb128 .L105-.LFB1108
 2197 0136 01       		.uleb128 0x1
 2198 0137 D301     		.uleb128 .LEHB50-.LFB1108
 2199 0139 05       		.uleb128 .LEHE50-.LEHB50
 2200 013a B703     		.uleb128 .L106-.LFB1108
 2201 013c 00       		.uleb128 0
 2202 013d ED01     		.uleb128 .LEHB51-.LFB1108
 2203 013f 05       		.uleb128 .LEHE51-.LEHB51
 2204 0140 CB03     		.uleb128 .L104-.LFB1108
 2205 0142 00       		.uleb128 0
 2206 0143 FC01     		.uleb128 .LEHB52-.LFB1108
 2207 0145 05       		.uleb128 .LEHE52-.LEHB52
 2208 0146 00       		.uleb128 0
 2209 0147 00       		.uleb128 0
 2210 0148 9A02     		.uleb128 .LEHB53-.LFB1108
 2211 014a 3E       		.uleb128 .LEHE53-.LEHB53
 2212 014b E803     		.uleb128 .L108-.LFB1108
 2213 014d 01       		.uleb128 0x1
 2214 014e E502     		.uleb128 .LEHB54-.LFB1108
 2215 0150 3E       		.uleb128 .LEHE54-.LEHB54
 2216 0151 AD03     		.uleb128 .L107-.LFB1108
 2217 0153 00       		.uleb128 0
 2218 0154 A303     		.uleb128 .LEHB55-.LFB1108
 2219 0156 05       		.uleb128 .LEHE55-.LEHB55
 2220 0157 B703     		.uleb128 .L106-.LFB1108
 2221 0159 00       		.uleb128 0
 2222 015a E303     		.uleb128 .LEHB56-.LFB1108
 2223 015c 05       		.uleb128 .LEHE56-.LEHB56
 2224 015d 00       		.uleb128 0
 2225 015e 00       		.uleb128 0
 2226 015f F003     		.uleb128 .LEHB57-.LFB1108
 2227 0161 3E       		.uleb128 .LEHE57-.LEHB57
 2228 0162 B504     		.uleb128 .L109-.LFB1108
 2229 0164 00       		.uleb128 0
 2230 0165 AE04     		.uleb128 .LEHB58-.LFB1108
 2231 0167 05       		.uleb128 .LEHE58-.LEHB58
 2232 0168 00       		.uleb128 0
 2233 0169 00       		.uleb128 0
 2234 016a C304     		.uleb128 .LEHB59-.LFB1108
 2235 016c 05       		.uleb128 .LEHE59-.LEHB59
 2236 016d 00       		.uleb128 0
 2237 016e 00       		.uleb128 0
 2238              	.LLSDACSE1108:
 2239 016f 01       		.byte	0x1
 2240 0170 00       		.byte	0
 2241 0171 000000   		.align 4
 2242 0174 00000000 		.long	0
 2243              	
 2244              	.LLSDATT1108:
 2245              		.text
 2247              		.section	.rodata
 2248 02ce 0000     		.align 8
 2249              	.LC24:
 2250 02d0 43686563 		.string	"CheckFailureBecauseOfExceptionIncludesCheckContents"
 2250      6B466169 
 2250      6C757265 
 2250      42656361 
 2250      7573654F 
 2251              		.text
 2252 0d17 90       		.align 2
 2254              	_ZN12_GLOBAL__N_155TestCheckFailureBecauseOfExceptionIncludesCheckContentsC2Ev:
 2255              	.LFB1110:
  83:TestCheckMacros.cpp **** 
  84:TestCheckMacros.cpp **** TEST(CheckFailureBecauseOfExceptionIncludesCheckContents)
 2256              		.loc 6 84 0
 2257              		.cfi_startproc
 2258 0d18 55       		pushq	%rbp
 2259              		.cfi_def_cfa_offset 16
 2260              		.cfi_offset 6, -16
 2261 0d19 4889E5   		movq	%rsp, %rbp
 2262              		.cfi_def_cfa_register 6
 2263 0d1c 4883EC10 		subq	$16, %rsp
 2264 0d20 48897DF8 		movq	%rdi, -8(%rbp)
 2265              	.LBB23:
 2266              		.loc 6 84 0
 2267 0d24 E8000000 		call	_ZN13UnitTestSuite12GetSuiteNameEv
 2267      00
 2268 0d29 4889C2   		movq	%rax, %rdx
 2269 0d2c 488B45F8 		movq	-8(%rbp), %rax
 2270 0d30 41B85400 		movl	$84, %r8d
 2270      0000
 2271 0d36 B9000000 		movl	$.LC2, %ecx
 2271      00
 2272 0d3b BE000000 		movl	$.LC24, %esi
 2272      00
 2273 0d40 4889C7   		movq	%rax, %rdi
 2274 0d43 E8000000 		call	_ZN8UnitTest4TestC2EPKcS2_S2_i
 2274      00
 2275 0d48 BA000000 		movl	$_ZTVN12_GLOBAL__N_155TestCheckFailureBecauseOfExceptionIncludesCheckContentsE+16, %edx
 2275      00
 2276 0d4d 488B45F8 		movq	-8(%rbp), %rax
 2277 0d51 488910   		movq	%rdx, (%rax)
 2278              	.LBE23:
 2279 0d54 90       		nop
 2280 0d55 C9       		leave
 2281              		.cfi_def_cfa 7, 8
 2282 0d56 C3       		ret
 2283              		.cfi_endproc
 2284              	.LFE1110:
 2286              		.set	_ZN12_GLOBAL__N_155TestCheckFailureBecauseOfExceptionIncludesCheckContentsC1Ev,_ZN12_GLOBAL__
 2287              		.local	_ZN12_GLOBAL__N_163testCheckFailureBecauseOfExceptionIncludesCheckContentsInstanceE
 2288              		.comm	_ZN12_GLOBAL__N_163testCheckFailureBecauseOfExceptionIncludesCheckContentsInstanceE,56,32
 2289              		.local	_ZN12_GLOBAL__N_156adderCheckFailureBecauseOfExceptionIncludesCheckContentsE
 2290              		.comm	_ZN12_GLOBAL__N_156adderCheckFailureBecauseOfExceptionIncludesCheckContentsE,1,1
 2291              		.section	.rodata
 2292 0304 00000000 		.align 8
 2293              	.LC25:
 2294 0308 73747273 		.string	"strstr(reporter.lastFailedMessage, \"ThrowingFunction() == 1\")"
 2294      74722872 
 2294      65706F72 
 2294      7465722E 
 2294      6C617374 
 2295 0346 0000     		.align 8
 2296              	.LC26:
 2297 0348 556E6861 		.string	"Unhandled exception in CHECK(strstr(reporter.lastFailedMessage, \"ThrowingFunction() == 1
 2297      6E646C65 
 2297      64206578 
 2297      63657074 
 2297      696F6E20 
 2298              		.text
 2299 0d57 90       		.align 2
 2301              	_ZNK12_GLOBAL__N_155TestCheckFailureBecauseOfExceptionIncludesCheckContents7RunImplEv:
 2302              	.LFB1112:
  85:TestCheckMacros.cpp **** {
 2303              		.loc 6 85 0
 2304              		.cfi_startproc
 2305              		.cfi_personality 0x3,__gxx_personality_v0
 2306              		.cfi_lsda 0x3,.LLSDA1112
 2307 0d58 55       		pushq	%rbp
 2308              		.cfi_def_cfa_offset 16
 2309              		.cfi_offset 6, -16
 2310 0d59 4889E5   		movq	%rsp, %rbp
 2311              		.cfi_def_cfa_register 6
 2312 0d5c 53       		pushq	%rbx
 2313 0d5d 4881ECA8 		subq	$2216, %rsp
 2313      080000
 2314              		.cfi_offset 3, -24
 2315 0d64 4889BD58 		movq	%rdi, -2216(%rbp)
 2315      F7FFFF
 2316              		.loc 6 85 0
 2317 0d6b 64488B04 		movq	%fs:40, %rax
 2317      25280000 
 2317      00
 2318 0d74 488945E8 		movq	%rax, -24(%rbp)
 2319 0d78 31C0     		xorl	%eax, %eax
  86:TestCheckMacros.cpp ****     RecordingReporter reporter;
 2320              		.loc 6 86 0
 2321 0d7a 488D85B0 		leaq	-2128(%rbp), %rax
 2321      F7FFFF
 2322 0d81 4889C7   		movq	%rax, %rdi
 2323 0d84 E8000000 		call	_ZN17RecordingReporterC1Ev
 2323      00
 2324              	.LBB24:
  87:TestCheckMacros.cpp ****     {
  88:TestCheckMacros.cpp ****         UnitTest::TestResults testResults(&reporter);
 2325              		.loc 6 88 0
 2326 0d89 488D95B0 		leaq	-2128(%rbp), %rdx
 2326      F7FFFF
 2327 0d90 488D8570 		leaq	-2192(%rbp), %rax
 2327      F7FFFF
 2328 0d97 4889D6   		movq	%rdx, %rsi
 2329 0d9a 4889C7   		movq	%rax, %rdi
 2330              	.LEHB60:
 2331 0d9d E8000000 		call	_ZN8UnitTest11TestResultsC1EPNS_12TestReporterE
 2331      00
  89:TestCheckMacros.cpp **** 		ScopedCurrentTest scopedResults(testResults);
 2332              		.loc 6 89 0
 2333 0da2 488D8D70 		leaq	-2192(%rbp), %rcx
 2333      F7FFFF
 2334 0da9 488D8560 		leaq	-2208(%rbp), %rax
 2334      F7FFFF
 2335 0db0 BA000000 		movl	$0, %edx
 2335      00
 2336 0db5 4889CE   		movq	%rcx, %rsi
 2337 0db8 4889C7   		movq	%rax, %rdi
 2338 0dbb E8000000 		call	_ZN17ScopedCurrentTestC1ERN8UnitTest11TestResultsEPKNS0_11TestDetailsE
 2338      00
 2339              	.LEHE60:
 2340              	.LEHB61:
  90:TestCheckMacros.cpp ****         CHECK(ThrowingFunction() == 1);
 2341              		.loc 6 90 0
 2342 0dc0 E883FCFF 		call	_ZN12_GLOBAL__N_116ThrowingFunctionEv
 2342      FF
 2343 0dc5 83F801   		cmpl	$1, %eax
 2344 0dc8 0F94C0   		sete	%al
 2345 0dcb 0FB6C0   		movzbl	%al, %eax
 2346 0dce 89C7     		movl	%eax, %edi
 2347 0dd0 E8000000 		call	_ZN8UnitTest5CheckIbEEbT_
 2347      00
 2348 0dd5 83F001   		xorl	$1, %eax
 2349 0dd8 84C0     		testb	%al, %al
 2350 0dda 743E     		je	.L113
 2351              		.loc 6 90 0 is_stmt 0 discriminator 2
 2352 0ddc E8000000 		call	_ZN8UnitTest11CurrentTest7DetailsEv
 2352      00
 2353 0de1 488B08   		movq	(%rax), %rcx
 2354 0de4 488D8590 		leaq	-2160(%rbp), %rax
 2354      F7FFFF
 2355 0deb BA5A0000 		movl	$90, %edx
 2355      00
 2356 0df0 4889CE   		movq	%rcx, %rsi
 2357 0df3 4889C7   		movq	%rax, %rdi
 2358 0df6 E8000000 		call	_ZN8UnitTest11TestDetailsC1ERKS0_i
 2358      00
 2359              		.loc 6 90 0 discriminator 4
 2360 0dfb E8000000 		call	_ZN8UnitTest11CurrentTest7ResultsEv
 2360      00
 2361 0e00 488B00   		movq	(%rax), %rax
 2362 0e03 488D8D90 		leaq	-2160(%rbp), %rcx
 2362      F7FFFF
 2363 0e0a BA000000 		movl	$.LC22, %edx
 2363      00
 2364 0e0f 4889CE   		movq	%rcx, %rsi
 2365 0e12 4889C7   		movq	%rax, %rdi
 2366 0e15 E8000000 		call	_ZN8UnitTest11TestResults13OnTestFailureERKNS_11TestDetailsEPKc
 2366      00
 2367              	.LEHE61:
 2368              	.L113:
  89:TestCheckMacros.cpp **** 		ScopedCurrentTest scopedResults(testResults);
 2369              		.loc 6 89 0 is_stmt 1
 2370 0e1a 488D8560 		leaq	-2208(%rbp), %rax
 2370      F7FFFF
 2371 0e21 4889C7   		movq	%rax, %rdi
 2372              	.LEHB62:
 2373 0e24 E8000000 		call	_ZN17ScopedCurrentTestD1Ev
 2373      00
 2374              	.LEHE62:
 2375              	.LBE24:
  91:TestCheckMacros.cpp ****     }
  92:TestCheckMacros.cpp **** 
  93:TestCheckMacros.cpp ****     CHECK(strstr(reporter.lastFailedMessage, "ThrowingFunction() == 1"));
 2376              		.loc 6 93 0
 2377 0e29 488D85B0 		leaq	-2128(%rbp), %rax
 2377      F7FFFF
 2378 0e30 48051405 		addq	$1300, %rax
 2378      0000
 2379 0e36 BE000000 		movl	$.LC22, %esi
 2379      00
 2380 0e3b 4889C7   		movq	%rax, %rdi
 2381 0e3e E8000000 		call	strstr
 2381      00
 2382 0e43 4889C7   		movq	%rax, %rdi
 2383 0e46 E8000000 		call	_ZN8UnitTest5CheckIPcEEbT_
 2383      00
 2384 0e4b 83F001   		xorl	$1, %eax
 2385 0e4e 84C0     		testb	%al, %al
 2386 0e50 743E     		je	.L114
 2387              	.LEHB63:
 2388              		.loc 6 93 0 is_stmt 0 discriminator 1
 2389 0e52 E8000000 		call	_ZN8UnitTest11CurrentTest7DetailsEv
 2389      00
 2390 0e57 488B08   		movq	(%rax), %rcx
 2391 0e5a 488D8590 		leaq	-2160(%rbp), %rax
 2391      F7FFFF
 2392 0e61 BA5D0000 		movl	$93, %edx
 2392      00
 2393 0e66 4889CE   		movq	%rcx, %rsi
 2394 0e69 4889C7   		movq	%rax, %rdi
 2395 0e6c E8000000 		call	_ZN8UnitTest11TestDetailsC1ERKS0_i
 2395      00
 2396              		.loc 6 93 0 discriminator 3
 2397 0e71 E8000000 		call	_ZN8UnitTest11CurrentTest7ResultsEv
 2397      00
 2398 0e76 488B00   		movq	(%rax), %rax
 2399 0e79 488D8D90 		leaq	-2160(%rbp), %rcx
 2399      F7FFFF
 2400 0e80 BA000000 		movl	$.LC25, %edx
 2400      00
 2401 0e85 4889CE   		movq	%rcx, %rsi
 2402 0e88 4889C7   		movq	%rax, %rdi
 2403 0e8b E8000000 		call	_ZN8UnitTest11TestResults13OnTestFailureERKNS_11TestDetailsEPKc
 2403      00
 2404              	.LEHE63:
 2405              	.L114:
  86:TestCheckMacros.cpp ****     {
 2406              		.loc 6 86 0 is_stmt 1
 2407 0e90 488D85B0 		leaq	-2128(%rbp), %rax
 2407      F7FFFF
 2408 0e97 4889C7   		movq	%rax, %rdi
 2409              	.LEHB64:
 2410 0e9a E8000000 		call	_ZN17RecordingReporterD1Ev
 2410      00
 2411              	.LEHE64:
  94:TestCheckMacros.cpp **** }
 2412              		.loc 6 94 0
 2413 0e9f 90       		nop
 2414 0ea0 488B45E8 		movq	-24(%rbp), %rax
 2415 0ea4 64483304 		xorq	%fs:40, %rax
 2415      25280000 
 2415      00
 2416 0ead 0F84EF00 		je	.L121
 2416      0000
 2417 0eb3 E9E50000 		jmp	.L128
 2417      00
 2418              	.L122:
 2419              	.LBB25:
  90:TestCheckMacros.cpp ****     }
 2420              		.loc 6 90 0
 2421 0eb8 4889C7   		movq	%rax, %rdi
 2422 0ebb E8000000 		call	__cxa_begin_catch
 2422      00
 2423              	.LEHB65:
 2424 0ec0 E8000000 		call	_ZN8UnitTest11CurrentTest7DetailsEv
 2424      00
 2425 0ec5 488B08   		movq	(%rax), %rcx
 2426 0ec8 488D8590 		leaq	-2160(%rbp), %rax
 2426      F7FFFF
 2427 0ecf BA5A0000 		movl	$90, %edx
 2427      00
 2428 0ed4 4889CE   		movq	%rcx, %rsi
 2429 0ed7 4889C7   		movq	%rax, %rdi
 2430 0eda E8000000 		call	_ZN8UnitTest11TestDetailsC1ERKS0_i
 2430      00
  90:TestCheckMacros.cpp ****     }
 2431              		.loc 6 90 0 is_stmt 0 discriminator 12
 2432 0edf E8000000 		call	_ZN8UnitTest11CurrentTest7ResultsEv
 2432      00
 2433 0ee4 488B00   		movq	(%rax), %rax
 2434 0ee7 488D8D90 		leaq	-2160(%rbp), %rcx
 2434      F7FFFF
 2435 0eee BA000000 		movl	$.LC23, %edx
 2435      00
 2436 0ef3 4889CE   		movq	%rcx, %rsi
 2437 0ef6 4889C7   		movq	%rax, %rdi
 2438 0ef9 E8000000 		call	_ZN8UnitTest11TestResults13OnTestFailureERKNS_11TestDetailsEPKc
 2438      00
 2439              	.LEHE65:
 2440              	.LEHB66:
  90:TestCheckMacros.cpp ****     }
 2441              		.loc 6 90 0 discriminator 16
 2442 0efe E8000000 		call	__cxa_end_catch
 2442      00
 2443              	.LEHE66:
  90:TestCheckMacros.cpp ****     }
 2444              		.loc 6 90 0
 2445 0f03 E912FFFF 		jmp	.L113
 2445      FF
 2446              	.L124:
 2447 0f08 4889C3   		movq	%rax, %rbx
 2448 0f0b E8000000 		call	__cxa_end_catch
 2448      00
 2449 0f10 EB03     		jmp	.L117
 2450              	.L123:
 2451 0f12 4889C3   		movq	%rax, %rbx
 2452              	.L117:
  89:TestCheckMacros.cpp ****         CHECK(ThrowingFunction() == 1);
 2453              		.loc 6 89 0 is_stmt 1
 2454 0f15 488D8560 		leaq	-2208(%rbp), %rax
 2454      F7FFFF
 2455 0f1c 4889C7   		movq	%rax, %rdi
 2456 0f1f E8000000 		call	_ZN17ScopedCurrentTestD1Ev
 2456      00
 2457 0f24 EB5D     		jmp	.L118
 2458              	.L126:
 2459              	.LBE25:
  93:TestCheckMacros.cpp **** }
 2460              		.loc 6 93 0
 2461 0f26 4889C7   		movq	%rax, %rdi
 2462 0f29 E8000000 		call	__cxa_begin_catch
 2462      00
 2463              	.LEHB67:
 2464 0f2e E8000000 		call	_ZN8UnitTest11CurrentTest7DetailsEv
 2464      00
 2465 0f33 488B08   		movq	(%rax), %rcx
 2466 0f36 488D8590 		leaq	-2160(%rbp), %rax
 2466      F7FFFF
 2467 0f3d BA5D0000 		movl	$93, %edx
 2467      00
 2468 0f42 4889CE   		movq	%rcx, %rsi
 2469 0f45 4889C7   		movq	%rax, %rdi
 2470 0f48 E8000000 		call	_ZN8UnitTest11TestDetailsC1ERKS0_i
 2470      00
  93:TestCheckMacros.cpp **** }
 2471              		.loc 6 93 0 is_stmt 0 discriminator 11
 2472 0f4d E8000000 		call	_ZN8UnitTest11CurrentTest7ResultsEv
 2472      00
 2473 0f52 488B00   		movq	(%rax), %rax
 2474 0f55 488D8D90 		leaq	-2160(%rbp), %rcx
 2474      F7FFFF
 2475 0f5c BA000000 		movl	$.LC26, %edx
 2475      00
 2476 0f61 4889CE   		movq	%rcx, %rsi
 2477 0f64 4889C7   		movq	%rax, %rdi
 2478 0f67 E8000000 		call	_ZN8UnitTest11TestResults13OnTestFailureERKNS_11TestDetailsEPKc
 2478      00
 2479              	.LEHE67:
 2480              	.LEHB68:
  93:TestCheckMacros.cpp **** }
 2481              		.loc 6 93 0 discriminator 15
 2482 0f6c E8000000 		call	__cxa_end_catch
 2482      00
 2483              	.LEHE68:
  93:TestCheckMacros.cpp **** }
 2484              		.loc 6 93 0
 2485 0f71 E91AFFFF 		jmp	.L114
 2485      FF
 2486              	.L127:
 2487 0f76 4889C3   		movq	%rax, %rbx
 2488 0f79 E8000000 		call	__cxa_end_catch
 2488      00
 2489 0f7e EB03     		jmp	.L118
 2490              	.L125:
 2491 0f80 4889C3   		movq	%rax, %rbx
 2492              	.L118:
  86:TestCheckMacros.cpp ****     {
 2493              		.loc 6 86 0 is_stmt 1
 2494 0f83 488D85B0 		leaq	-2128(%rbp), %rax
 2494      F7FFFF
 2495 0f8a 4889C7   		movq	%rax, %rdi
 2496 0f8d E8000000 		call	_ZN17RecordingReporterD1Ev
 2496      00
 2497 0f92 4889D8   		movq	%rbx, %rax
 2498 0f95 4889C7   		movq	%rax, %rdi
 2499              	.LEHB69:
 2500 0f98 E8000000 		call	_Unwind_Resume
 2500      00
 2501              	.LEHE69:
 2502              	.L128:
 2503              		.loc 6 94 0
 2504 0f9d E8000000 		call	__stack_chk_fail
 2504      00
 2505              	.L121:
 2506 0fa2 4881C4A8 		addq	$2216, %rsp
 2506      080000
 2507 0fa9 5B       		popq	%rbx
 2508 0faa 5D       		popq	%rbp
 2509              		.cfi_def_cfa 7, 8
 2510 0fab C3       		ret
 2511              		.cfi_endproc
 2512              	.LFE1112:
 2513              		.section	.gcc_except_table
 2514              		.align 4
 2515              	.LLSDA1112:
 2516 0178 FF       		.byte	0xff
 2517 0179 03       		.byte	0x3
 2518 017a 41       		.uleb128 .LLSDATT1112-.LLSDATTD1112
 2519              	.LLSDATTD1112:
 2520 017b 01       		.byte	0x1
 2521 017c 38       		.uleb128 .LLSDACSE1112-.LLSDACSB1112
 2522              	.LLSDACSB1112:
 2523 017d 45       		.uleb128 .LEHB60-.LFB1112
 2524 017e 23       		.uleb128 .LEHE60-.LEHB60
 2525 017f A804     		.uleb128 .L125-.LFB1112
 2526 0181 00       		.uleb128 0
 2527 0182 68       		.uleb128 .LEHB61-.LFB1112
 2528 0183 5A       		.uleb128 .LEHE61-.LEHB61
 2529 0184 E002     		.uleb128 .L122-.LFB1112
 2530 0186 01       		.uleb128 0x1
 2531 0187 CC01     		.uleb128 .LEHB62-.LFB1112
 2532 0189 05       		.uleb128 .LEHE62-.LEHB62
 2533 018a A804     		.uleb128 .L125-.LFB1112
 2534 018c 00       		.uleb128 0
 2535 018d FA01     		.uleb128 .LEHB63-.LFB1112
 2536 018f 3E       		.uleb128 .LEHE63-.LEHB63
 2537 0190 CE03     		.uleb128 .L126-.LFB1112
 2538 0192 01       		.uleb128 0x1
 2539 0193 C202     		.uleb128 .LEHB64-.LFB1112
 2540 0195 05       		.uleb128 .LEHE64-.LEHB64
 2541 0196 00       		.uleb128 0
 2542 0197 00       		.uleb128 0
 2543 0198 E802     		.uleb128 .LEHB65-.LFB1112
 2544 019a 3E       		.uleb128 .LEHE65-.LEHB65
 2545 019b B003     		.uleb128 .L124-.LFB1112
 2546 019d 00       		.uleb128 0
 2547 019e A603     		.uleb128 .LEHB66-.LFB1112
 2548 01a0 05       		.uleb128 .LEHE66-.LEHB66
 2549 01a1 BA03     		.uleb128 .L123-.LFB1112
 2550 01a3 00       		.uleb128 0
 2551 01a4 D603     		.uleb128 .LEHB67-.LFB1112
 2552 01a6 3E       		.uleb128 .LEHE67-.LEHB67
 2553 01a7 9E04     		.uleb128 .L127-.LFB1112
 2554 01a9 00       		.uleb128 0
 2555 01aa 9404     		.uleb128 .LEHB68-.LFB1112
 2556 01ac 05       		.uleb128 .LEHE68-.LEHB68
 2557 01ad A804     		.uleb128 .L125-.LFB1112
 2558 01af 00       		.uleb128 0
 2559 01b0 C004     		.uleb128 .LEHB69-.LFB1112
 2560 01b2 05       		.uleb128 .LEHE69-.LEHB69
 2561 01b3 00       		.uleb128 0
 2562 01b4 00       		.uleb128 0
 2563              	.LLSDACSE1112:
 2564 01b5 01       		.byte	0x1
 2565 01b6 00       		.byte	0
 2566 01b7 00       		.align 4
 2567 01b8 00000000 		.long	0
 2568              	
 2569              	.LLSDATT1112:
 2570              		.text
 2572              		.section	.rodata
 2573              	.LC27:
 2574 03a4 43686563 		.string	"CheckEqualSucceedsOnEqual"
 2574      6B457175 
 2574      616C5375 
 2574      63636565 
 2574      64734F6E 
 2575              		.text
 2576              		.align 2
 2578              	_ZN12_GLOBAL__N_129TestCheckEqualSucceedsOnEqualC2Ev:
 2579              	.LFB1114:
  95:TestCheckMacros.cpp **** 
  96:TestCheckMacros.cpp **** TEST(CheckEqualSucceedsOnEqual)
 2580              		.loc 6 96 0
 2581              		.cfi_startproc
 2582 0fac 55       		pushq	%rbp
 2583              		.cfi_def_cfa_offset 16
 2584              		.cfi_offset 6, -16
 2585 0fad 4889E5   		movq	%rsp, %rbp
 2586              		.cfi_def_cfa_register 6
 2587 0fb0 4883EC10 		subq	$16, %rsp
 2588 0fb4 48897DF8 		movq	%rdi, -8(%rbp)
 2589              	.LBB26:
 2590              		.loc 6 96 0
 2591 0fb8 E8000000 		call	_ZN13UnitTestSuite12GetSuiteNameEv
 2591      00
 2592 0fbd 4889C2   		movq	%rax, %rdx
 2593 0fc0 488B45F8 		movq	-8(%rbp), %rax
 2594 0fc4 41B86000 		movl	$96, %r8d
 2594      0000
 2595 0fca B9000000 		movl	$.LC2, %ecx
 2595      00
 2596 0fcf BE000000 		movl	$.LC27, %esi
 2596      00
 2597 0fd4 4889C7   		movq	%rax, %rdi
 2598 0fd7 E8000000 		call	_ZN8UnitTest4TestC2EPKcS2_S2_i
 2598      00
 2599 0fdc BA000000 		movl	$_ZTVN12_GLOBAL__N_129TestCheckEqualSucceedsOnEqualE+16, %edx
 2599      00
 2600 0fe1 488B45F8 		movq	-8(%rbp), %rax
 2601 0fe5 488910   		movq	%rdx, (%rax)
 2602              	.LBE26:
 2603 0fe8 90       		nop
 2604 0fe9 C9       		leave
 2605              		.cfi_def_cfa 7, 8
 2606 0fea C3       		ret
 2607              		.cfi_endproc
 2608              	.LFE1114:
 2610              		.set	_ZN12_GLOBAL__N_129TestCheckEqualSucceedsOnEqualC1Ev,_ZN12_GLOBAL__N_129TestCheckEqualSucceed
 2611              		.local	_ZN12_GLOBAL__N_137testCheckEqualSucceedsOnEqualInstanceE
 2612              		.comm	_ZN12_GLOBAL__N_137testCheckEqualSucceedsOnEqualInstanceE,56,32
 2613              		.local	_ZN12_GLOBAL__N_130adderCheckEqualSucceedsOnEqualE
 2614              		.comm	_ZN12_GLOBAL__N_130adderCheckEqualSucceedsOnEqualE,1,1
 2615              		.section	.rodata
 2616 03be 0000     		.align 8
 2617              	.LC28:
 2618 03c0 556E6861 		.string	"Unhandled exception in CHECK_EQUAL(1, 1)"
 2618      6E646C65 
 2618      64206578 
 2618      63657074 
 2618      696F6E20 
 2619              		.text
 2620 0feb 90       		.align 2
 2622              	_ZNK12_GLOBAL__N_129TestCheckEqualSucceedsOnEqual7RunImplEv:
 2623              	.LFB1116:
  97:TestCheckMacros.cpp **** {
 2624              		.loc 6 97 0
 2625              		.cfi_startproc
 2626              		.cfi_personality 0x3,__gxx_personality_v0
 2627              		.cfi_lsda 0x3,.LLSDA1116
 2628 0fec 55       		pushq	%rbp
 2629              		.cfi_def_cfa_offset 16
 2630              		.cfi_offset 6, -16
 2631 0fed 4889E5   		movq	%rsp, %rbp
 2632              		.cfi_def_cfa_register 6
 2633 0ff0 53       		pushq	%rbx
 2634 0ff1 4881ECB8 		subq	$2232, %rsp
 2634      080000
 2635              		.cfi_offset 3, -24
 2636 0ff8 4889BD48 		movq	%rdi, -2232(%rbp)
 2636      F7FFFF
 2637              		.loc 6 97 0
 2638 0fff 64488B04 		movq	%fs:40, %rax
 2638      25280000 
 2638      00
 2639 1008 488945E8 		movq	%rax, -24(%rbp)
 2640 100c 31C0     		xorl	%eax, %eax
  98:TestCheckMacros.cpp ****     bool failure = true;
 2641              		.loc 6 98 0
 2642 100e C68557F7 		movb	$1, -2217(%rbp)
 2642      FFFF01
 2643              	.LBB27:
  99:TestCheckMacros.cpp ****     {
 100:TestCheckMacros.cpp ****         RecordingReporter reporter;
 2644              		.loc 6 100 0
 2645 1015 488D85B0 		leaq	-2128(%rbp), %rax
 2645      F7FFFF
 2646 101c 4889C7   		movq	%rax, %rdi
 2647 101f E8000000 		call	_ZN17RecordingReporterC1Ev
 2647      00
 101:TestCheckMacros.cpp ****         UnitTest::TestResults testResults(&reporter);
 2648              		.loc 6 101 0
 2649 1024 488D95B0 		leaq	-2128(%rbp), %rdx
 2649      F7FFFF
 2650 102b 488D8570 		leaq	-2192(%rbp), %rax
 2650      F7FFFF
 2651 1032 4889D6   		movq	%rdx, %rsi
 2652 1035 4889C7   		movq	%rax, %rdi
 2653              	.LEHB70:
 2654 1038 E8000000 		call	_ZN8UnitTest11TestResultsC1EPNS_12TestReporterE
 2654      00
 102:TestCheckMacros.cpp **** 		ScopedCurrentTest scopedResults(testResults);
 2655              		.loc 6 102 0
 2656 103d 488D8D70 		leaq	-2192(%rbp), %rcx
 2656      F7FFFF
 2657 1044 488D8560 		leaq	-2208(%rbp), %rax
 2657      F7FFFF
 2658 104b BA000000 		movl	$0, %edx
 2658      00
 2659 1050 4889CE   		movq	%rcx, %rsi
 2660 1053 4889C7   		movq	%rax, %rdi
 2661 1056 E8000000 		call	_ZN17ScopedCurrentTestC1ERN8UnitTest11TestResultsEPKNS0_11TestDetailsE
 2661      00
 2662              	.LEHE70:
 2663              	.LEHB71:
 103:TestCheckMacros.cpp ****         CHECK_EQUAL(1, 1);
 2664              		.loc 6 103 0
 2665 105b E8000000 		call	_ZN8UnitTest11CurrentTest7DetailsEv
 2665      00
 2666 1060 488B08   		movq	(%rax), %rcx
 2667 1063 488D8590 		leaq	-2160(%rbp), %rax
 2667      F7FFFF
 2668 106a BA670000 		movl	$103, %edx
 2668      00
 2669 106f 4889CE   		movq	%rcx, %rsi
 2670 1072 4889C7   		movq	%rax, %rdi
 2671 1075 E8000000 		call	_ZN8UnitTest11TestDetailsC1ERKS0_i
 2671      00
 2672              	.LEHE71:
 2673              		.loc 6 103 0 is_stmt 0 discriminator 2
 2674 107a C7855CF7 		movl	$1, -2212(%rbp)
 2674      FFFF0100 
 2674      0000
 2675 1084 C78558F7 		movl	$1, -2216(%rbp)
 2675      FFFF0100 
 2675      0000
 2676              	.LEHB72:
 2677 108e E8000000 		call	_ZN8UnitTest11CurrentTest7ResultsEv
 2677      00
 2678 1093 488B00   		movq	(%rax), %rax
 2679 1096 488D8D90 		leaq	-2160(%rbp), %rcx
 2679      F7FFFF
 2680 109d 488D955C 		leaq	-2212(%rbp), %rdx
 2680      F7FFFF
 2681 10a4 488DB558 		leaq	-2216(%rbp), %rsi
 2681      F7FFFF
 2682 10ab 4889C7   		movq	%rax, %rdi
 2683 10ae E8000000 		call	_ZN8UnitTest10CheckEqualIiiEEvRNS_11TestResultsERKT_RKT0_RKNS_11TestDetailsE
 2683      00
 2684              	.LEHE72:
 2685              	.L134:
 104:TestCheckMacros.cpp ****         failure = (testResults.GetFailureCount() > 0);
 2686              		.loc 6 104 0 is_stmt 1
 2687 10b3 488D8570 		leaq	-2192(%rbp), %rax
 2687      F7FFFF
 2688 10ba 4889C7   		movq	%rax, %rdi
 2689              	.LEHB73:
 2690 10bd E8000000 		call	_ZNK8UnitTest11TestResults15GetFailureCountEv
 2690      00
 2691              	.LEHE73:
 2692 10c2 85C0     		testl	%eax, %eax
 2693 10c4 0F9FC0   		setg	%al
 2694 10c7 888557F7 		movb	%al, -2217(%rbp)
 2694      FFFF
 102:TestCheckMacros.cpp **** 		ScopedCurrentTest scopedResults(testResults);
 2695              		.loc 6 102 0
 2696 10cd 488D8560 		leaq	-2208(%rbp), %rax
 2696      F7FFFF
 2697 10d4 4889C7   		movq	%rax, %rdi
 2698              	.LEHB74:
 2699 10d7 E8000000 		call	_ZN17ScopedCurrentTestD1Ev
 2699      00
 2700              	.LEHE74:
 100:TestCheckMacros.cpp ****         UnitTest::TestResults testResults(&reporter);
 2701              		.loc 6 100 0
 2702 10dc 488D85B0 		leaq	-2128(%rbp), %rax
 2702      F7FFFF
 2703 10e3 4889C7   		movq	%rax, %rdi
 2704              	.LEHB75:
 2705 10e6 E8000000 		call	_ZN17RecordingReporterD1Ev
 2705      00
 2706              	.LEHE75:
 2707              	.LBE27:
 105:TestCheckMacros.cpp ****     }
 106:TestCheckMacros.cpp **** 
 107:TestCheckMacros.cpp ****     CHECK(!failure);
 2708              		.loc 6 107 0
 2709 10eb 0FB68557 		movzbl	-2217(%rbp), %eax
 2709      F7FFFF
 2710 10f2 83F001   		xorl	$1, %eax
 2711 10f5 0FB6C0   		movzbl	%al, %eax
 2712 10f8 89C7     		movl	%eax, %edi
 2713 10fa E8000000 		call	_ZN8UnitTest5CheckIbEEbT_
 2713      00
 2714 10ff 83F001   		xorl	$1, %eax
 2715 1102 84C0     		testb	%al, %al
 2716 1104 0F843001 		je	.L148
 2716      0000
 2717              	.LEHB76:
 2718              		.loc 6 107 0 is_stmt 0 discriminator 1
 2719 110a E8000000 		call	_ZN8UnitTest11CurrentTest7DetailsEv
 2719      00
 2720 110f 488B08   		movq	(%rax), %rcx
 2721 1112 488D8590 		leaq	-2160(%rbp), %rax
 2721      F7FFFF
 2722 1119 BA6B0000 		movl	$107, %edx
 2722      00
 2723 111e 4889CE   		movq	%rcx, %rsi
 2724 1121 4889C7   		movq	%rax, %rdi
 2725 1124 E8000000 		call	_ZN8UnitTest11TestDetailsC1ERKS0_i
 2725      00
 2726              		.loc 6 107 0 discriminator 3
 2727 1129 E8000000 		call	_ZN8UnitTest11CurrentTest7ResultsEv
 2727      00
 2728 112e 488B00   		movq	(%rax), %rax
 2729 1131 488D8D90 		leaq	-2160(%rbp), %rcx
 2729      F7FFFF
 2730 1138 BA000000 		movl	$.LC5, %edx
 2730      00
 2731 113d 4889CE   		movq	%rcx, %rsi
 2732 1140 4889C7   		movq	%rax, %rdi
 2733 1143 E8000000 		call	_ZN8UnitTest11TestResults13OnTestFailureERKNS_11TestDetailsEPKc
 2733      00
 2734              	.LEHE76:
 108:TestCheckMacros.cpp **** }
 2735              		.loc 6 108 0 is_stmt 1
 2736 1148 E9ED0000 		jmp	.L148
 2736      00
 2737              	.L143:
 2738 114d EB00     		jmp	.L133
 2739              	.L142:
 2740              	.L133:
 2741              	.LBB28:
 103:TestCheckMacros.cpp ****         failure = (testResults.GetFailureCount() > 0);
 2742              		.loc 6 103 0
 2743 114f 4889C7   		movq	%rax, %rdi
 2744 1152 E8000000 		call	__cxa_begin_catch
 2744      00
 2745              	.LEHB77:
 2746 1157 E8000000 		call	_ZN8UnitTest11CurrentTest7DetailsEv
 2746      00
 2747 115c 488B08   		movq	(%rax), %rcx
 2748 115f 488D8590 		leaq	-2160(%rbp), %rax
 2748      F7FFFF
 2749 1166 BA670000 		movl	$103, %edx
 2749      00
 2750 116b 4889CE   		movq	%rcx, %rsi
 2751 116e 4889C7   		movq	%rax, %rdi
 2752 1171 E8000000 		call	_ZN8UnitTest11TestDetailsC1ERKS0_i
 2752      00
 103:TestCheckMacros.cpp ****         failure = (testResults.GetFailureCount() > 0);
 2753              		.loc 6 103 0 is_stmt 0 discriminator 10
 2754 1176 E8000000 		call	_ZN8UnitTest11CurrentTest7ResultsEv
 2754      00
 2755 117b 488B00   		movq	(%rax), %rax
 2756 117e 488D8D90 		leaq	-2160(%rbp), %rcx
 2756      F7FFFF
 2757 1185 BA000000 		movl	$.LC28, %edx
 2757      00
 2758 118a 4889CE   		movq	%rcx, %rsi
 2759 118d 4889C7   		movq	%rax, %rdi
 2760 1190 E8000000 		call	_ZN8UnitTest11TestResults13OnTestFailureERKNS_11TestDetailsEPKc
 2760      00
 2761              	.LEHE77:
 2762              	.LEHB78:
 103:TestCheckMacros.cpp ****         failure = (testResults.GetFailureCount() > 0);
 2763              		.loc 6 103 0 discriminator 14
 2764 1195 E8000000 		call	__cxa_end_catch
 2764      00
 2765              	.LEHE78:
 103:TestCheckMacros.cpp ****         failure = (testResults.GetFailureCount() > 0);
 2766              		.loc 6 103 0
 2767 119a E914FFFF 		jmp	.L134
 2767      FF
 2768              	.L145:
 2769 119f 4889C3   		movq	%rax, %rbx
 2770 11a2 E8000000 		call	__cxa_end_catch
 2770      00
 2771 11a7 EB03     		jmp	.L136
 2772              	.L144:
 2773 11a9 4889C3   		movq	%rax, %rbx
 2774              	.L136:
 102:TestCheckMacros.cpp ****         CHECK_EQUAL(1, 1);
 2775              		.loc 6 102 0 is_stmt 1
 2776 11ac 488D8560 		leaq	-2208(%rbp), %rax
 2776      F7FFFF
 2777 11b3 4889C7   		movq	%rax, %rdi
 2778 11b6 E8000000 		call	_ZN17ScopedCurrentTestD1Ev
 2778      00
 2779 11bb EB03     		jmp	.L137
 2780              	.L141:
 2781 11bd 4889C3   		movq	%rax, %rbx
 2782              	.L137:
 100:TestCheckMacros.cpp ****         UnitTest::TestResults testResults(&reporter);
 2783              		.loc 6 100 0
 2784 11c0 488D85B0 		leaq	-2128(%rbp), %rax
 2784      F7FFFF
 2785 11c7 4889C7   		movq	%rax, %rdi
 2786 11ca E8000000 		call	_ZN17RecordingReporterD1Ev
 2786      00
 2787 11cf 4889D8   		movq	%rbx, %rax
 2788 11d2 4889C7   		movq	%rax, %rdi
 2789              	.LEHB79:
 2790 11d5 E8000000 		call	_Unwind_Resume
 2790      00
 2791              	.LEHE79:
 2792              	.L146:
 2793              	.LBE28:
 107:TestCheckMacros.cpp **** }
 2794              		.loc 6 107 0
 2795 11da 4889C7   		movq	%rax, %rdi
 2796 11dd E8000000 		call	__cxa_begin_catch
 2796      00
 2797              	.LEHB80:
 2798 11e2 E8000000 		call	_ZN8UnitTest11CurrentTest7DetailsEv
 2798      00
 2799 11e7 488B08   		movq	(%rax), %rcx
 2800 11ea 488D8590 		leaq	-2160(%rbp), %rax
 2800      F7FFFF
 2801 11f1 BA6B0000 		movl	$107, %edx
 2801      00
 2802 11f6 4889CE   		movq	%rcx, %rsi
 2803 11f9 4889C7   		movq	%rax, %rdi
 2804 11fc E8000000 		call	_ZN8UnitTest11TestDetailsC1ERKS0_i
 2804      00
 107:TestCheckMacros.cpp **** }
 2805              		.loc 6 107 0 is_stmt 0 discriminator 11
 2806 1201 E8000000 		call	_ZN8UnitTest11CurrentTest7ResultsEv
 2806      00
 2807 1206 488B00   		movq	(%rax), %rax
 2808 1209 488D8D90 		leaq	-2160(%rbp), %rcx
 2808      F7FFFF
 2809 1210 BA000000 		movl	$.LC7, %edx
 2809      00
 2810 1215 4889CE   		movq	%rcx, %rsi
 2811 1218 4889C7   		movq	%rax, %rdi
 2812 121b E8000000 		call	_ZN8UnitTest11TestResults13OnTestFailureERKNS_11TestDetailsEPKc
 2812      00
 2813              	.LEHE80:
 2814              	.LEHB81:
 107:TestCheckMacros.cpp **** }
 2815              		.loc 6 107 0 discriminator 15
 2816 1220 E8000000 		call	__cxa_end_catch
 2816      00
 2817              	.LEHE81:
 2818              		.loc 6 108 0 is_stmt 1 discriminator 15
 2819 1225 EB13     		jmp	.L148
 2820              	.L147:
 2821 1227 4889C3   		movq	%rax, %rbx
 107:TestCheckMacros.cpp **** }
 2822              		.loc 6 107 0
 2823 122a E8000000 		call	__cxa_end_catch
 2823      00
 2824 122f 4889D8   		movq	%rbx, %rax
 2825 1232 4889C7   		movq	%rax, %rdi
 2826              	.LEHB82:
 2827 1235 E8000000 		call	_Unwind_Resume
 2827      00
 2828              	.LEHE82:
 2829              	.L148:
 2830              		.loc 6 108 0
 2831 123a 90       		nop
 2832 123b 488B45E8 		movq	-24(%rbp), %rax
 2833 123f 64483304 		xorq	%fs:40, %rax
 2833      25280000 
 2833      00
 2834 1248 7405     		je	.L140
 2835 124a E8000000 		call	__stack_chk_fail
 2835      00
 2836              	.L140:
 2837 124f 4881C4B8 		addq	$2232, %rsp
 2837      080000
 2838 1256 5B       		popq	%rbx
 2839 1257 5D       		popq	%rbp
 2840              		.cfi_def_cfa 7, 8
 2841 1258 C3       		ret
 2842              		.cfi_endproc
 2843              	.LFE1116:
 2844              		.section	.gcc_except_table
 2845              		.align 4
 2846              	.LLSDA1116:
 2847 01bc FF       		.byte	0xff
 2848 01bd 03       		.byte	0x3
 2849 01be 51       		.uleb128 .LLSDATT1116-.LLSDATTD1116
 2850              	.LLSDATTD1116:
 2851 01bf 01       		.byte	0x1
 2852 01c0 48       		.uleb128 .LLSDACSE1116-.LLSDACSB1116
 2853              	.LLSDACSB1116:
 2854 01c1 4C       		.uleb128 .LEHB70-.LFB1116
 2855 01c2 23       		.uleb128 .LEHE70-.LEHB70
 2856 01c3 D103     		.uleb128 .L141-.LFB1116
 2857 01c5 00       		.uleb128 0
 2858 01c6 6F       		.uleb128 .LEHB71-.LFB1116
 2859 01c7 1F       		.uleb128 .LEHE71-.LEHB71
 2860 01c8 E302     		.uleb128 .L142-.LFB1116
 2861 01ca 01       		.uleb128 0x1
 2862 01cb A201     		.uleb128 .LEHB72-.LFB1116
 2863 01cd 25       		.uleb128 .LEHE72-.LEHB72
 2864 01ce E102     		.uleb128 .L143-.LFB1116
 2865 01d0 01       		.uleb128 0x1
 2866 01d1 D101     		.uleb128 .LEHB73-.LFB1116
 2867 01d3 05       		.uleb128 .LEHE73-.LEHB73
 2868 01d4 BD03     		.uleb128 .L144-.LFB1116
 2869 01d6 00       		.uleb128 0
 2870 01d7 EB01     		.uleb128 .LEHB74-.LFB1116
 2871 01d9 05       		.uleb128 .LEHE74-.LEHB74
 2872 01da D103     		.uleb128 .L141-.LFB1116
 2873 01dc 00       		.uleb128 0
 2874 01dd FA01     		.uleb128 .LEHB75-.LFB1116
 2875 01df 05       		.uleb128 .LEHE75-.LEHB75
 2876 01e0 00       		.uleb128 0
 2877 01e1 00       		.uleb128 0
 2878 01e2 9E02     		.uleb128 .LEHB76-.LFB1116
 2879 01e4 3E       		.uleb128 .LEHE76-.LEHB76
 2880 01e5 EE03     		.uleb128 .L146-.LFB1116
 2881 01e7 01       		.uleb128 0x1
 2882 01e8 EB02     		.uleb128 .LEHB77-.LFB1116
 2883 01ea 3E       		.uleb128 .LEHE77-.LEHB77
 2884 01eb B303     		.uleb128 .L145-.LFB1116
 2885 01ed 00       		.uleb128 0
 2886 01ee A903     		.uleb128 .LEHB78-.LFB1116
 2887 01f0 05       		.uleb128 .LEHE78-.LEHB78
 2888 01f1 BD03     		.uleb128 .L144-.LFB1116
 2889 01f3 00       		.uleb128 0
 2890 01f4 E903     		.uleb128 .LEHB79-.LFB1116
 2891 01f6 05       		.uleb128 .LEHE79-.LEHB79
 2892 01f7 00       		.uleb128 0
 2893 01f8 00       		.uleb128 0
 2894 01f9 F603     		.uleb128 .LEHB80-.LFB1116
 2895 01fb 3E       		.uleb128 .LEHE80-.LEHB80
 2896 01fc BB04     		.uleb128 .L147-.LFB1116
 2897 01fe 00       		.uleb128 0
 2898 01ff B404     		.uleb128 .LEHB81-.LFB1116
 2899 0201 05       		.uleb128 .LEHE81-.LEHB81
 2900 0202 00       		.uleb128 0
 2901 0203 00       		.uleb128 0
 2902 0204 C904     		.uleb128 .LEHB82-.LFB1116
 2903 0206 05       		.uleb128 .LEHE82-.LEHB82
 2904 0207 00       		.uleb128 0
 2905 0208 00       		.uleb128 0
 2906              	.LLSDACSE1116:
 2907 0209 01       		.byte	0x1
 2908 020a 00       		.byte	0
 2909 020b 00       		.align 4
 2910 020c 00000000 		.long	0
 2911              	
 2912              	.LLSDATT1116:
 2913              		.text
 2915              		.section	.rodata
 2916              	.LC29:
 2917 03e9 43686563 		.string	"CheckEqualFailsOnNotEqual"
 2917      6B457175 
 2917      616C4661 
 2917      696C734F 
 2917      6E4E6F74 
 2918              		.text
 2919 1259 90       		.align 2
 2921              	_ZN12_GLOBAL__N_129TestCheckEqualFailsOnNotEqualC2Ev:
 2922              	.LFB1118:
 109:TestCheckMacros.cpp **** 
 110:TestCheckMacros.cpp **** TEST(CheckEqualFailsOnNotEqual)
 2923              		.loc 6 110 0
 2924              		.cfi_startproc
 2925 125a 55       		pushq	%rbp
 2926              		.cfi_def_cfa_offset 16
 2927              		.cfi_offset 6, -16
 2928 125b 4889E5   		movq	%rsp, %rbp
 2929              		.cfi_def_cfa_register 6
 2930 125e 4883EC10 		subq	$16, %rsp
 2931 1262 48897DF8 		movq	%rdi, -8(%rbp)
 2932              	.LBB29:
 2933              		.loc 6 110 0
 2934 1266 E8000000 		call	_ZN13UnitTestSuite12GetSuiteNameEv
 2934      00
 2935 126b 4889C2   		movq	%rax, %rdx
 2936 126e 488B45F8 		movq	-8(%rbp), %rax
 2937 1272 41B86E00 		movl	$110, %r8d
 2937      0000
 2938 1278 B9000000 		movl	$.LC2, %ecx
 2938      00
 2939 127d BE000000 		movl	$.LC29, %esi
 2939      00
 2940 1282 4889C7   		movq	%rax, %rdi
 2941 1285 E8000000 		call	_ZN8UnitTest4TestC2EPKcS2_S2_i
 2941      00
 2942 128a BA000000 		movl	$_ZTVN12_GLOBAL__N_129TestCheckEqualFailsOnNotEqualE+16, %edx
 2942      00
 2943 128f 488B45F8 		movq	-8(%rbp), %rax
 2944 1293 488910   		movq	%rdx, (%rax)
 2945              	.LBE29:
 2946 1296 90       		nop
 2947 1297 C9       		leave
 2948              		.cfi_def_cfa 7, 8
 2949 1298 C3       		ret
 2950              		.cfi_endproc
 2951              	.LFE1118:
 2953              		.set	_ZN12_GLOBAL__N_129TestCheckEqualFailsOnNotEqualC1Ev,_ZN12_GLOBAL__N_129TestCheckEqualFailsOn
 2954              		.local	_ZN12_GLOBAL__N_137testCheckEqualFailsOnNotEqualInstanceE
 2955              		.comm	_ZN12_GLOBAL__N_137testCheckEqualFailsOnNotEqualInstanceE,56,32
 2956              		.local	_ZN12_GLOBAL__N_130adderCheckEqualFailsOnNotEqualE
 2957              		.comm	_ZN12_GLOBAL__N_130adderCheckEqualFailsOnNotEqualE,1,1
 2958              		.section	.rodata
 2959 0403 00000000 		.align 8
 2959      00
 2960              	.LC30:
 2961 0408 556E6861 		.string	"Unhandled exception in CHECK_EQUAL(1, 2)"
 2961      6E646C65 
 2961      64206578 
 2961      63657074 
 2961      696F6E20 
 2962              		.text
 2963 1299 90       		.align 2
 2965              	_ZNK12_GLOBAL__N_129TestCheckEqualFailsOnNotEqual7RunImplEv:
 2966              	.LFB1120:
 111:TestCheckMacros.cpp **** {
 2967              		.loc 6 111 0
 2968              		.cfi_startproc
 2969              		.cfi_personality 0x3,__gxx_personality_v0
 2970              		.cfi_lsda 0x3,.LLSDA1120
 2971 129a 55       		pushq	%rbp
 2972              		.cfi_def_cfa_offset 16
 2973              		.cfi_offset 6, -16
 2974 129b 4889E5   		movq	%rsp, %rbp
 2975              		.cfi_def_cfa_register 6
 2976 129e 53       		pushq	%rbx
 2977 129f 4881ECB8 		subq	$2232, %rsp
 2977      080000
 2978              		.cfi_offset 3, -24
 2979 12a6 4889BD48 		movq	%rdi, -2232(%rbp)
 2979      F7FFFF
 2980              		.loc 6 111 0
 2981 12ad 64488B04 		movq	%fs:40, %rax
 2981      25280000 
 2981      00
 2982 12b6 488945E8 		movq	%rax, -24(%rbp)
 2983 12ba 31C0     		xorl	%eax, %eax
 112:TestCheckMacros.cpp ****     bool failure = false;
 2984              		.loc 6 112 0
 2985 12bc C68557F7 		movb	$0, -2217(%rbp)
 2985      FFFF00
 2986              	.LBB30:
 113:TestCheckMacros.cpp ****     {
 114:TestCheckMacros.cpp ****         RecordingReporter reporter;
 2987              		.loc 6 114 0
 2988 12c3 488D85B0 		leaq	-2128(%rbp), %rax
 2988      F7FFFF
 2989 12ca 4889C7   		movq	%rax, %rdi
 2990 12cd E8000000 		call	_ZN17RecordingReporterC1Ev
 2990      00
 115:TestCheckMacros.cpp ****         UnitTest::TestResults testResults(&reporter);
 2991              		.loc 6 115 0
 2992 12d2 488D95B0 		leaq	-2128(%rbp), %rdx
 2992      F7FFFF
 2993 12d9 488D8570 		leaq	-2192(%rbp), %rax
 2993      F7FFFF
 2994 12e0 4889D6   		movq	%rdx, %rsi
 2995 12e3 4889C7   		movq	%rax, %rdi
 2996              	.LEHB83:
 2997 12e6 E8000000 		call	_ZN8UnitTest11TestResultsC1EPNS_12TestReporterE
 2997      00
 116:TestCheckMacros.cpp **** 		ScopedCurrentTest scopedResults(testResults);
 2998              		.loc 6 116 0
 2999 12eb 488D8D70 		leaq	-2192(%rbp), %rcx
 2999      F7FFFF
 3000 12f2 488D8560 		leaq	-2208(%rbp), %rax
 3000      F7FFFF
 3001 12f9 BA000000 		movl	$0, %edx
 3001      00
 3002 12fe 4889CE   		movq	%rcx, %rsi
 3003 1301 4889C7   		movq	%rax, %rdi
 3004 1304 E8000000 		call	_ZN17ScopedCurrentTestC1ERN8UnitTest11TestResultsEPKNS0_11TestDetailsE
 3004      00
 3005              	.LEHE83:
 3006              	.LEHB84:
 117:TestCheckMacros.cpp ****         CHECK_EQUAL(1, 2);
 3007              		.loc 6 117 0
 3008 1309 E8000000 		call	_ZN8UnitTest11CurrentTest7DetailsEv
 3008      00
 3009 130e 488B08   		movq	(%rax), %rcx
 3010 1311 488D8590 		leaq	-2160(%rbp), %rax
 3010      F7FFFF
 3011 1318 BA750000 		movl	$117, %edx
 3011      00
 3012 131d 4889CE   		movq	%rcx, %rsi
 3013 1320 4889C7   		movq	%rax, %rdi
 3014 1323 E8000000 		call	_ZN8UnitTest11TestDetailsC1ERKS0_i
 3014      00
 3015              	.LEHE84:
 3016              		.loc 6 117 0 is_stmt 0 discriminator 2
 3017 1328 C7855CF7 		movl	$2, -2212(%rbp)
 3017      FFFF0200 
 3017      0000
 3018 1332 C78558F7 		movl	$1, -2216(%rbp)
 3018      FFFF0100 
 3018      0000
 3019              	.LEHB85:
 3020 133c E8000000 		call	_ZN8UnitTest11CurrentTest7ResultsEv
 3020      00
 3021 1341 488B00   		movq	(%rax), %rax
 3022 1344 488D8D90 		leaq	-2160(%rbp), %rcx
 3022      F7FFFF
 3023 134b 488D955C 		leaq	-2212(%rbp), %rdx
 3023      F7FFFF
 3024 1352 488DB558 		leaq	-2216(%rbp), %rsi
 3024      F7FFFF
 3025 1359 4889C7   		movq	%rax, %rdi
 3026 135c E8000000 		call	_ZN8UnitTest10CheckEqualIiiEEvRNS_11TestResultsERKT_RKT0_RKNS_11TestDetailsE
 3026      00
 3027              	.LEHE85:
 3028              	.L154:
 118:TestCheckMacros.cpp ****         failure = (testResults.GetFailureCount() > 0);
 3029              		.loc 6 118 0 is_stmt 1
 3030 1361 488D8570 		leaq	-2192(%rbp), %rax
 3030      F7FFFF
 3031 1368 4889C7   		movq	%rax, %rdi
 3032              	.LEHB86:
 3033 136b E8000000 		call	_ZNK8UnitTest11TestResults15GetFailureCountEv
 3033      00
 3034              	.LEHE86:
 3035 1370 85C0     		testl	%eax, %eax
 3036 1372 0F9FC0   		setg	%al
 3037 1375 888557F7 		movb	%al, -2217(%rbp)
 3037      FFFF
 116:TestCheckMacros.cpp **** 		ScopedCurrentTest scopedResults(testResults);
 3038              		.loc 6 116 0
 3039 137b 488D8560 		leaq	-2208(%rbp), %rax
 3039      F7FFFF
 3040 1382 4889C7   		movq	%rax, %rdi
 3041              	.LEHB87:
 3042 1385 E8000000 		call	_ZN17ScopedCurrentTestD1Ev
 3042      00
 3043              	.LEHE87:
 114:TestCheckMacros.cpp ****         UnitTest::TestResults testResults(&reporter);
 3044              		.loc 6 114 0
 3045 138a 488D85B0 		leaq	-2128(%rbp), %rax
 3045      F7FFFF
 3046 1391 4889C7   		movq	%rax, %rdi
 3047              	.LEHB88:
 3048 1394 E8000000 		call	_ZN17RecordingReporterD1Ev
 3048      00
 3049              	.LEHE88:
 3050              	.LBE30:
 119:TestCheckMacros.cpp ****     }
 120:TestCheckMacros.cpp **** 
 121:TestCheckMacros.cpp ****     CHECK(failure);
 3051              		.loc 6 121 0
 3052 1399 0FB68557 		movzbl	-2217(%rbp), %eax
 3052      F7FFFF
 3053 13a0 89C7     		movl	%eax, %edi
 3054 13a2 E8000000 		call	_ZN8UnitTest5CheckIbEEbT_
 3054      00
 3055 13a7 83F001   		xorl	$1, %eax
 3056 13aa 84C0     		testb	%al, %al
 3057 13ac 0F843001 		je	.L168
 3057      0000
 3058              	.LEHB89:
 3059              		.loc 6 121 0 is_stmt 0 discriminator 1
 3060 13b2 E8000000 		call	_ZN8UnitTest11CurrentTest7DetailsEv
 3060      00
 3061 13b7 488B08   		movq	(%rax), %rcx
 3062 13ba 488D8590 		leaq	-2160(%rbp), %rax
 3062      F7FFFF
 3063 13c1 BA790000 		movl	$121, %edx
 3063      00
 3064 13c6 4889CE   		movq	%rcx, %rsi
 3065 13c9 4889C7   		movq	%rax, %rdi
 3066 13cc E8000000 		call	_ZN8UnitTest11TestDetailsC1ERKS0_i
 3066      00
 3067              		.loc 6 121 0 discriminator 3
 3068 13d1 E8000000 		call	_ZN8UnitTest11CurrentTest7ResultsEv
 3068      00
 3069 13d6 488B00   		movq	(%rax), %rax
 3070 13d9 488D8D90 		leaq	-2160(%rbp), %rcx
 3070      F7FFFF
 3071 13e0 BA000000 		movl	$.LC10, %edx
 3071      00
 3072 13e5 4889CE   		movq	%rcx, %rsi
 3073 13e8 4889C7   		movq	%rax, %rdi
 3074 13eb E8000000 		call	_ZN8UnitTest11TestResults13OnTestFailureERKNS_11TestDetailsEPKc
 3074      00
 3075              	.LEHE89:
 122:TestCheckMacros.cpp **** }
 3076              		.loc 6 122 0 is_stmt 1
 3077 13f0 E9ED0000 		jmp	.L168
 3077      00
 3078              	.L163:
 3079 13f5 EB00     		jmp	.L153
 3080              	.L162:
 3081              	.L153:
 3082              	.LBB31:
 117:TestCheckMacros.cpp ****         failure = (testResults.GetFailureCount() > 0);
 3083              		.loc 6 117 0
 3084 13f7 4889C7   		movq	%rax, %rdi
 3085 13fa E8000000 		call	__cxa_begin_catch
 3085      00
 3086              	.LEHB90:
 3087 13ff E8000000 		call	_ZN8UnitTest11CurrentTest7DetailsEv
 3087      00
 3088 1404 488B08   		movq	(%rax), %rcx
 3089 1407 488D8590 		leaq	-2160(%rbp), %rax
 3089      F7FFFF
 3090 140e BA750000 		movl	$117, %edx
 3090      00
 3091 1413 4889CE   		movq	%rcx, %rsi
 3092 1416 4889C7   		movq	%rax, %rdi
 3093 1419 E8000000 		call	_ZN8UnitTest11TestDetailsC1ERKS0_i
 3093      00
 117:TestCheckMacros.cpp ****         failure = (testResults.GetFailureCount() > 0);
 3094              		.loc 6 117 0 is_stmt 0 discriminator 10
 3095 141e E8000000 		call	_ZN8UnitTest11CurrentTest7ResultsEv
 3095      00
 3096 1423 488B00   		movq	(%rax), %rax
 3097 1426 488D8D90 		leaq	-2160(%rbp), %rcx
 3097      F7FFFF
 3098 142d BA000000 		movl	$.LC30, %edx
 3098      00
 3099 1432 4889CE   		movq	%rcx, %rsi
 3100 1435 4889C7   		movq	%rax, %rdi
 3101 1438 E8000000 		call	_ZN8UnitTest11TestResults13OnTestFailureERKNS_11TestDetailsEPKc
 3101      00
 3102              	.LEHE90:
 3103              	.LEHB91:
 117:TestCheckMacros.cpp ****         failure = (testResults.GetFailureCount() > 0);
 3104              		.loc 6 117 0 discriminator 14
 3105 143d E8000000 		call	__cxa_end_catch
 3105      00
 3106              	.LEHE91:
 117:TestCheckMacros.cpp ****         failure = (testResults.GetFailureCount() > 0);
 3107              		.loc 6 117 0
 3108 1442 E91AFFFF 		jmp	.L154
 3108      FF
 3109              	.L165:
 3110 1447 4889C3   		movq	%rax, %rbx
 3111 144a E8000000 		call	__cxa_end_catch
 3111      00
 3112 144f EB03     		jmp	.L156
 3113              	.L164:
 3114 1451 4889C3   		movq	%rax, %rbx
 3115              	.L156:
 116:TestCheckMacros.cpp ****         CHECK_EQUAL(1, 2);
 3116              		.loc 6 116 0 is_stmt 1
 3117 1454 488D8560 		leaq	-2208(%rbp), %rax
 3117      F7FFFF
 3118 145b 4889C7   		movq	%rax, %rdi
 3119 145e E8000000 		call	_ZN17ScopedCurrentTestD1Ev
 3119      00
 3120 1463 EB03     		jmp	.L157
 3121              	.L161:
 3122 1465 4889C3   		movq	%rax, %rbx
 3123              	.L157:
 114:TestCheckMacros.cpp ****         UnitTest::TestResults testResults(&reporter);
 3124              		.loc 6 114 0
 3125 1468 488D85B0 		leaq	-2128(%rbp), %rax
 3125      F7FFFF
 3126 146f 4889C7   		movq	%rax, %rdi
 3127 1472 E8000000 		call	_ZN17RecordingReporterD1Ev
 3127      00
 3128 1477 4889D8   		movq	%rbx, %rax
 3129 147a 4889C7   		movq	%rax, %rdi
 3130              	.LEHB92:
 3131 147d E8000000 		call	_Unwind_Resume
 3131      00
 3132              	.LEHE92:
 3133              	.L166:
 3134              	.LBE31:
 121:TestCheckMacros.cpp **** }
 3135              		.loc 6 121 0
 3136 1482 4889C7   		movq	%rax, %rdi
 3137 1485 E8000000 		call	__cxa_begin_catch
 3137      00
 3138              	.LEHB93:
 3139 148a E8000000 		call	_ZN8UnitTest11CurrentTest7DetailsEv
 3139      00
 3140 148f 488B08   		movq	(%rax), %rcx
 3141 1492 488D8590 		leaq	-2160(%rbp), %rax
 3141      F7FFFF
 3142 1499 BA790000 		movl	$121, %edx
 3142      00
 3143 149e 4889CE   		movq	%rcx, %rsi
 3144 14a1 4889C7   		movq	%rax, %rdi
 3145 14a4 E8000000 		call	_ZN8UnitTest11TestDetailsC1ERKS0_i
 3145      00
 121:TestCheckMacros.cpp **** }
 3146              		.loc 6 121 0 is_stmt 0 discriminator 11
 3147 14a9 E8000000 		call	_ZN8UnitTest11CurrentTest7ResultsEv
 3147      00
 3148 14ae 488B00   		movq	(%rax), %rax
 3149 14b1 488D8D90 		leaq	-2160(%rbp), %rcx
 3149      F7FFFF
 3150 14b8 BA000000 		movl	$.LC12, %edx
 3150      00
 3151 14bd 4889CE   		movq	%rcx, %rsi
 3152 14c0 4889C7   		movq	%rax, %rdi
 3153 14c3 E8000000 		call	_ZN8UnitTest11TestResults13OnTestFailureERKNS_11TestDetailsEPKc
 3153      00
 3154              	.LEHE93:
 3155              	.LEHB94:
 121:TestCheckMacros.cpp **** }
 3156              		.loc 6 121 0 discriminator 15
 3157 14c8 E8000000 		call	__cxa_end_catch
 3157      00
 3158              	.LEHE94:
 3159              		.loc 6 122 0 is_stmt 1 discriminator 15
 3160 14cd EB13     		jmp	.L168
 3161              	.L167:
 3162 14cf 4889C3   		movq	%rax, %rbx
 121:TestCheckMacros.cpp **** }
 3163              		.loc 6 121 0
 3164 14d2 E8000000 		call	__cxa_end_catch
 3164      00
 3165 14d7 4889D8   		movq	%rbx, %rax
 3166 14da 4889C7   		movq	%rax, %rdi
 3167              	.LEHB95:
 3168 14dd E8000000 		call	_Unwind_Resume
 3168      00
 3169              	.LEHE95:
 3170              	.L168:
 3171              		.loc 6 122 0
 3172 14e2 90       		nop
 3173 14e3 488B45E8 		movq	-24(%rbp), %rax
 3174 14e7 64483304 		xorq	%fs:40, %rax
 3174      25280000 
 3174      00
 3175 14f0 7405     		je	.L160
 3176 14f2 E8000000 		call	__stack_chk_fail
 3176      00
 3177              	.L160:
 3178 14f7 4881C4B8 		addq	$2232, %rsp
 3178      080000
 3179 14fe 5B       		popq	%rbx
 3180 14ff 5D       		popq	%rbp
 3181              		.cfi_def_cfa 7, 8
 3182 1500 C3       		ret
 3183              		.cfi_endproc
 3184              	.LFE1120:
 3185              		.section	.gcc_except_table
 3186              		.align 4
 3187              	.LLSDA1120:
 3188 0210 FF       		.byte	0xff
 3189 0211 03       		.byte	0x3
 3190 0212 51       		.uleb128 .LLSDATT1120-.LLSDATTD1120
 3191              	.LLSDATTD1120:
 3192 0213 01       		.byte	0x1
 3193 0214 48       		.uleb128 .LLSDACSE1120-.LLSDACSB1120
 3194              	.LLSDACSB1120:
 3195 0215 4C       		.uleb128 .LEHB83-.LFB1120
 3196 0216 23       		.uleb128 .LEHE83-.LEHB83
 3197 0217 CB03     		.uleb128 .L161-.LFB1120
 3198 0219 00       		.uleb128 0
 3199 021a 6F       		.uleb128 .LEHB84-.LFB1120
 3200 021b 1F       		.uleb128 .LEHE84-.LEHB84
 3201 021c DD02     		.uleb128 .L162-.LFB1120
 3202 021e 01       		.uleb128 0x1
 3203 021f A201     		.uleb128 .LEHB85-.LFB1120
 3204 0221 25       		.uleb128 .LEHE85-.LEHB85
 3205 0222 DB02     		.uleb128 .L163-.LFB1120
 3206 0224 01       		.uleb128 0x1
 3207 0225 D101     		.uleb128 .LEHB86-.LFB1120
 3208 0227 05       		.uleb128 .LEHE86-.LEHB86
 3209 0228 B703     		.uleb128 .L164-.LFB1120
 3210 022a 00       		.uleb128 0
 3211 022b EB01     		.uleb128 .LEHB87-.LFB1120
 3212 022d 05       		.uleb128 .LEHE87-.LEHB87
 3213 022e CB03     		.uleb128 .L161-.LFB1120
 3214 0230 00       		.uleb128 0
 3215 0231 FA01     		.uleb128 .LEHB88-.LFB1120
 3216 0233 05       		.uleb128 .LEHE88-.LEHB88
 3217 0234 00       		.uleb128 0
 3218 0235 00       		.uleb128 0
 3219 0236 9802     		.uleb128 .LEHB89-.LFB1120
 3220 0238 3E       		.uleb128 .LEHE89-.LEHB89
 3221 0239 E803     		.uleb128 .L166-.LFB1120
 3222 023b 01       		.uleb128 0x1
 3223 023c E502     		.uleb128 .LEHB90-.LFB1120
 3224 023e 3E       		.uleb128 .LEHE90-.LEHB90
 3225 023f AD03     		.uleb128 .L165-.LFB1120
 3226 0241 00       		.uleb128 0
 3227 0242 A303     		.uleb128 .LEHB91-.LFB1120
 3228 0244 05       		.uleb128 .LEHE91-.LEHB91
 3229 0245 B703     		.uleb128 .L164-.LFB1120
 3230 0247 00       		.uleb128 0
 3231 0248 E303     		.uleb128 .LEHB92-.LFB1120
 3232 024a 05       		.uleb128 .LEHE92-.LEHB92
 3233 024b 00       		.uleb128 0
 3234 024c 00       		.uleb128 0
 3235 024d F003     		.uleb128 .LEHB93-.LFB1120
 3236 024f 3E       		.uleb128 .LEHE93-.LEHB93
 3237 0250 B504     		.uleb128 .L167-.LFB1120
 3238 0252 00       		.uleb128 0
 3239 0253 AE04     		.uleb128 .LEHB94-.LFB1120
 3240 0255 05       		.uleb128 .LEHE94-.LEHB94
 3241 0256 00       		.uleb128 0
 3242 0257 00       		.uleb128 0
 3243 0258 C304     		.uleb128 .LEHB95-.LFB1120
 3244 025a 05       		.uleb128 .LEHE95-.LEHB95
 3245 025b 00       		.uleb128 0
 3246 025c 00       		.uleb128 0
 3247              	.LLSDACSE1120:
 3248 025d 01       		.byte	0x1
 3249 025e 00       		.byte	0
 3250 025f 00       		.align 4
 3251 0260 00000000 		.long	0
 3252              	
 3253              	.LLSDATT1120:
 3254              		.text
 3256              		.section	.rodata
 3257              	.LC31:
 3258 0431 43686563 		.string	"CheckEqualFailsOnException"
 3258      6B457175 
 3258      616C4661 
 3258      696C734F 
 3258      6E457863 
 3259              		.text
 3260 1501 90       		.align 2
 3262              	_ZN12_GLOBAL__N_130TestCheckEqualFailsOnExceptionC2Ev:
 3263              	.LFB1122:
 123:TestCheckMacros.cpp **** 
 124:TestCheckMacros.cpp **** TEST(CheckEqualFailsOnException)
 3264              		.loc 6 124 0
 3265              		.cfi_startproc
 3266 1502 55       		pushq	%rbp
 3267              		.cfi_def_cfa_offset 16
 3268              		.cfi_offset 6, -16
 3269 1503 4889E5   		movq	%rsp, %rbp
 3270              		.cfi_def_cfa_register 6
 3271 1506 4883EC10 		subq	$16, %rsp
 3272 150a 48897DF8 		movq	%rdi, -8(%rbp)
 3273              	.LBB32:
 3274              		.loc 6 124 0
 3275 150e E8000000 		call	_ZN13UnitTestSuite12GetSuiteNameEv
 3275      00
 3276 1513 4889C2   		movq	%rax, %rdx
 3277 1516 488B45F8 		movq	-8(%rbp), %rax
 3278 151a 41B87C00 		movl	$124, %r8d
 3278      0000
 3279 1520 B9000000 		movl	$.LC2, %ecx
 3279      00
 3280 1525 BE000000 		movl	$.LC31, %esi
 3280      00
 3281 152a 4889C7   		movq	%rax, %rdi
 3282 152d E8000000 		call	_ZN8UnitTest4TestC2EPKcS2_S2_i
 3282      00
 3283 1532 BA000000 		movl	$_ZTVN12_GLOBAL__N_130TestCheckEqualFailsOnExceptionE+16, %edx
 3283      00
 3284 1537 488B45F8 		movq	-8(%rbp), %rax
 3285 153b 488910   		movq	%rdx, (%rax)
 3286              	.LBE32:
 3287 153e 90       		nop
 3288 153f C9       		leave
 3289              		.cfi_def_cfa 7, 8
 3290 1540 C3       		ret
 3291              		.cfi_endproc
 3292              	.LFE1122:
 3294              		.set	_ZN12_GLOBAL__N_130TestCheckEqualFailsOnExceptionC1Ev,_ZN12_GLOBAL__N_130TestCheckEqualFailsO
 3295              		.local	_ZN12_GLOBAL__N_138testCheckEqualFailsOnExceptionInstanceE
 3296              		.comm	_ZN12_GLOBAL__N_138testCheckEqualFailsOnExceptionInstanceE,56,32
 3297              		.local	_ZN12_GLOBAL__N_131adderCheckEqualFailsOnExceptionE
 3298              		.comm	_ZN12_GLOBAL__N_131adderCheckEqualFailsOnExceptionE,1,1
 3299              		.section	.rodata
 3300 044c 00000000 		.align 8
 3301              	.LC32:
 3302 0450 556E6861 		.string	"Unhandled exception in CHECK_EQUAL(ThrowingFunction(), 1)"
 3302      6E646C65 
 3302      64206578 
 3302      63657074 
 3302      696F6E20 
 3303              		.text
 3304 1541 90       		.align 2
 3306              	_ZNK12_GLOBAL__N_130TestCheckEqualFailsOnException7RunImplEv:
 3307              	.LFB1124:
 125:TestCheckMacros.cpp **** {
 3308              		.loc 6 125 0
 3309              		.cfi_startproc
 3310              		.cfi_personality 0x3,__gxx_personality_v0
 3311              		.cfi_lsda 0x3,.LLSDA1124
 3312 1542 55       		pushq	%rbp
 3313              		.cfi_def_cfa_offset 16
 3314              		.cfi_offset 6, -16
 3315 1543 4889E5   		movq	%rsp, %rbp
 3316              		.cfi_def_cfa_register 6
 3317 1546 53       		pushq	%rbx
 3318 1547 4881ECB8 		subq	$2232, %rsp
 3318      080000
 3319              		.cfi_offset 3, -24
 3320 154e 4889BD48 		movq	%rdi, -2232(%rbp)
 3320      F7FFFF
 3321              		.loc 6 125 0
 3322 1555 64488B04 		movq	%fs:40, %rax
 3322      25280000 
 3322      00
 3323 155e 488945E8 		movq	%rax, -24(%rbp)
 3324 1562 31C0     		xorl	%eax, %eax
 126:TestCheckMacros.cpp ****     bool failure = false;
 3325              		.loc 6 126 0
 3326 1564 C68557F7 		movb	$0, -2217(%rbp)
 3326      FFFF00
 3327              	.LBB33:
 127:TestCheckMacros.cpp ****     {
 128:TestCheckMacros.cpp ****         RecordingReporter reporter;
 3328              		.loc 6 128 0
 3329 156b 488D85B0 		leaq	-2128(%rbp), %rax
 3329      F7FFFF
 3330 1572 4889C7   		movq	%rax, %rdi
 3331 1575 E8000000 		call	_ZN17RecordingReporterC1Ev
 3331      00
 129:TestCheckMacros.cpp ****         UnitTest::TestResults testResults(&reporter);
 3332              		.loc 6 129 0
 3333 157a 488D95B0 		leaq	-2128(%rbp), %rdx
 3333      F7FFFF
 3334 1581 488D8570 		leaq	-2192(%rbp), %rax
 3334      F7FFFF
 3335 1588 4889D6   		movq	%rdx, %rsi
 3336 158b 4889C7   		movq	%rax, %rdi
 3337              	.LEHB96:
 3338 158e E8000000 		call	_ZN8UnitTest11TestResultsC1EPNS_12TestReporterE
 3338      00
 130:TestCheckMacros.cpp **** 		ScopedCurrentTest scopedResults(testResults);
 3339              		.loc 6 130 0
 3340 1593 488D8D70 		leaq	-2192(%rbp), %rcx
 3340      F7FFFF
 3341 159a 488D8560 		leaq	-2208(%rbp), %rax
 3341      F7FFFF
 3342 15a1 BA000000 		movl	$0, %edx
 3342      00
 3343 15a6 4889CE   		movq	%rcx, %rsi
 3344 15a9 4889C7   		movq	%rax, %rdi
 3345 15ac E8000000 		call	_ZN17ScopedCurrentTestC1ERN8UnitTest11TestResultsEPKNS0_11TestDetailsE
 3345      00
 3346              	.LEHE96:
 3347              	.LEHB97:
 131:TestCheckMacros.cpp ****         CHECK_EQUAL(ThrowingFunction(), 1);
 3348              		.loc 6 131 0
 3349 15b1 E8000000 		call	_ZN8UnitTest11CurrentTest7DetailsEv
 3349      00
 3350 15b6 488B08   		movq	(%rax), %rcx
 3351 15b9 488D8590 		leaq	-2160(%rbp), %rax
 3351      F7FFFF
 3352 15c0 BA830000 		movl	$131, %edx
 3352      00
 3353 15c5 4889CE   		movq	%rcx, %rsi
 3354 15c8 4889C7   		movq	%rax, %rdi
 3355 15cb E8000000 		call	_ZN8UnitTest11TestDetailsC1ERKS0_i
 3355      00
 3356              	.LEHE97:
 3357              		.loc 6 131 0 is_stmt 0 discriminator 2
 3358 15d0 C7855CF7 		movl	$1, -2212(%rbp)
 3358      FFFF0100 
 3358      0000
 3359              	.LEHB98:
 3360 15da E869F4FF 		call	_ZN12_GLOBAL__N_116ThrowingFunctionEv
 3360      FF
 3361 15df 898558F7 		movl	%eax, -2216(%rbp)
 3361      FFFF
 3362 15e5 E8000000 		call	_ZN8UnitTest11CurrentTest7ResultsEv
 3362      00
 3363              		.loc 6 131 0 discriminator 4
 3364 15ea 488B00   		movq	(%rax), %rax
 3365 15ed 488D8D90 		leaq	-2160(%rbp), %rcx
 3365      F7FFFF
 3366 15f4 488D955C 		leaq	-2212(%rbp), %rdx
 3366      F7FFFF
 3367 15fb 488DB558 		leaq	-2216(%rbp), %rsi
 3367      F7FFFF
 3368 1602 4889C7   		movq	%rax, %rdi
 3369 1605 E8000000 		call	_ZN8UnitTest10CheckEqualIiiEEvRNS_11TestResultsERKT_RKT0_RKNS_11TestDetailsE
 3369      00
 3370              	.LEHE98:
 3371              	.L174:
 132:TestCheckMacros.cpp ****         failure = (testResults.GetFailureCount() > 0);
 3372              		.loc 6 132 0 is_stmt 1
 3373 160a 488D8570 		leaq	-2192(%rbp), %rax
 3373      F7FFFF
 3374 1611 4889C7   		movq	%rax, %rdi
 3375              	.LEHB99:
 3376 1614 E8000000 		call	_ZNK8UnitTest11TestResults15GetFailureCountEv
 3376      00
 3377              	.LEHE99:
 3378 1619 85C0     		testl	%eax, %eax
 3379 161b 0F9FC0   		setg	%al
 3380 161e 888557F7 		movb	%al, -2217(%rbp)
 3380      FFFF
 130:TestCheckMacros.cpp **** 		ScopedCurrentTest scopedResults(testResults);
 3381              		.loc 6 130 0
 3382 1624 488D8560 		leaq	-2208(%rbp), %rax
 3382      F7FFFF
 3383 162b 4889C7   		movq	%rax, %rdi
 3384              	.LEHB100:
 3385 162e E8000000 		call	_ZN17ScopedCurrentTestD1Ev
 3385      00
 3386              	.LEHE100:
 128:TestCheckMacros.cpp ****         UnitTest::TestResults testResults(&reporter);
 3387              		.loc 6 128 0
 3388 1633 488D85B0 		leaq	-2128(%rbp), %rax
 3388      F7FFFF
 3389 163a 4889C7   		movq	%rax, %rdi
 3390              	.LEHB101:
 3391 163d E8000000 		call	_ZN17RecordingReporterD1Ev
 3391      00
 3392              	.LEHE101:
 3393              	.LBE33:
 133:TestCheckMacros.cpp ****     }
 134:TestCheckMacros.cpp **** 
 135:TestCheckMacros.cpp ****     CHECK(failure);
 3394              		.loc 6 135 0
 3395 1642 0FB68557 		movzbl	-2217(%rbp), %eax
 3395      F7FFFF
 3396 1649 89C7     		movl	%eax, %edi
 3397 164b E8000000 		call	_ZN8UnitTest5CheckIbEEbT_
 3397      00
 3398 1650 83F001   		xorl	$1, %eax
 3399 1653 84C0     		testb	%al, %al
 3400 1655 0F843001 		je	.L188
 3400      0000
 3401              	.LEHB102:
 3402              		.loc 6 135 0 is_stmt 0 discriminator 1
 3403 165b E8000000 		call	_ZN8UnitTest11CurrentTest7DetailsEv
 3403      00
 3404 1660 488B08   		movq	(%rax), %rcx
 3405 1663 488D8590 		leaq	-2160(%rbp), %rax
 3405      F7FFFF
 3406 166a BA870000 		movl	$135, %edx
 3406      00
 3407 166f 4889CE   		movq	%rcx, %rsi
 3408 1672 4889C7   		movq	%rax, %rdi
 3409 1675 E8000000 		call	_ZN8UnitTest11TestDetailsC1ERKS0_i
 3409      00
 3410              		.loc 6 135 0 discriminator 3
 3411 167a E8000000 		call	_ZN8UnitTest11CurrentTest7ResultsEv
 3411      00
 3412 167f 488B00   		movq	(%rax), %rax
 3413 1682 488D8D90 		leaq	-2160(%rbp), %rcx
 3413      F7FFFF
 3414 1689 BA000000 		movl	$.LC10, %edx
 3414      00
 3415 168e 4889CE   		movq	%rcx, %rsi
 3416 1691 4889C7   		movq	%rax, %rdi
 3417 1694 E8000000 		call	_ZN8UnitTest11TestResults13OnTestFailureERKNS_11TestDetailsEPKc
 3417      00
 3418              	.LEHE102:
 136:TestCheckMacros.cpp **** }
 3419              		.loc 6 136 0 is_stmt 1
 3420 1699 E9ED0000 		jmp	.L188
 3420      00
 3421              	.L183:
 3422 169e EB00     		jmp	.L173
 3423              	.L182:
 3424              	.L173:
 3425              	.LBB34:
 131:TestCheckMacros.cpp ****         failure = (testResults.GetFailureCount() > 0);
 3426              		.loc 6 131 0
 3427 16a0 4889C7   		movq	%rax, %rdi
 3428 16a3 E8000000 		call	__cxa_begin_catch
 3428      00
 3429              	.LEHB103:
 3430 16a8 E8000000 		call	_ZN8UnitTest11CurrentTest7DetailsEv
 3430      00
 3431 16ad 488B08   		movq	(%rax), %rcx
 3432 16b0 488D8590 		leaq	-2160(%rbp), %rax
 3432      F7FFFF
 3433 16b7 BA830000 		movl	$131, %edx
 3433      00
 3434 16bc 4889CE   		movq	%rcx, %rsi
 3435 16bf 4889C7   		movq	%rax, %rdi
 3436 16c2 E8000000 		call	_ZN8UnitTest11TestDetailsC1ERKS0_i
 3436      00
 131:TestCheckMacros.cpp ****         failure = (testResults.GetFailureCount() > 0);
 3437              		.loc 6 131 0 is_stmt 0 discriminator 12
 3438 16c7 E8000000 		call	_ZN8UnitTest11CurrentTest7ResultsEv
 3438      00
 3439 16cc 488B00   		movq	(%rax), %rax
 3440 16cf 488D8D90 		leaq	-2160(%rbp), %rcx
 3440      F7FFFF
 3441 16d6 BA000000 		movl	$.LC32, %edx
 3441      00
 3442 16db 4889CE   		movq	%rcx, %rsi
 3443 16de 4889C7   		movq	%rax, %rdi
 3444 16e1 E8000000 		call	_ZN8UnitTest11TestResults13OnTestFailureERKNS_11TestDetailsEPKc
 3444      00
 3445              	.LEHE103:
 3446              	.LEHB104:
 131:TestCheckMacros.cpp ****         failure = (testResults.GetFailureCount() > 0);
 3447              		.loc 6 131 0 discriminator 16
 3448 16e6 E8000000 		call	__cxa_end_catch
 3448      00
 3449              	.LEHE104:
 131:TestCheckMacros.cpp ****         failure = (testResults.GetFailureCount() > 0);
 3450              		.loc 6 131 0
 3451 16eb E91AFFFF 		jmp	.L174
 3451      FF
 3452              	.L185:
 3453 16f0 4889C3   		movq	%rax, %rbx
 3454 16f3 E8000000 		call	__cxa_end_catch
 3454      00
 3455 16f8 EB03     		jmp	.L176
 3456              	.L184:
 3457 16fa 4889C3   		movq	%rax, %rbx
 3458              	.L176:
 130:TestCheckMacros.cpp ****         CHECK_EQUAL(ThrowingFunction(), 1);
 3459              		.loc 6 130 0 is_stmt 1
 3460 16fd 488D8560 		leaq	-2208(%rbp), %rax
 3460      F7FFFF
 3461 1704 4889C7   		movq	%rax, %rdi
 3462 1707 E8000000 		call	_ZN17ScopedCurrentTestD1Ev
 3462      00
 3463 170c EB03     		jmp	.L177
 3464              	.L181:
 3465 170e 4889C3   		movq	%rax, %rbx
 3466              	.L177:
 128:TestCheckMacros.cpp ****         UnitTest::TestResults testResults(&reporter);
 3467              		.loc 6 128 0
 3468 1711 488D85B0 		leaq	-2128(%rbp), %rax
 3468      F7FFFF
 3469 1718 4889C7   		movq	%rax, %rdi
 3470 171b E8000000 		call	_ZN17RecordingReporterD1Ev
 3470      00
 3471 1720 4889D8   		movq	%rbx, %rax
 3472 1723 4889C7   		movq	%rax, %rdi
 3473              	.LEHB105:
 3474 1726 E8000000 		call	_Unwind_Resume
 3474      00
 3475              	.LEHE105:
 3476              	.L186:
 3477              	.LBE34:
 135:TestCheckMacros.cpp **** }
 3478              		.loc 6 135 0
 3479 172b 4889C7   		movq	%rax, %rdi
 3480 172e E8000000 		call	__cxa_begin_catch
 3480      00
 3481              	.LEHB106:
 3482 1733 E8000000 		call	_ZN8UnitTest11CurrentTest7DetailsEv
 3482      00
 3483 1738 488B08   		movq	(%rax), %rcx
 3484 173b 488D8590 		leaq	-2160(%rbp), %rax
 3484      F7FFFF
 3485 1742 BA870000 		movl	$135, %edx
 3485      00
 3486 1747 4889CE   		movq	%rcx, %rsi
 3487 174a 4889C7   		movq	%rax, %rdi
 3488 174d E8000000 		call	_ZN8UnitTest11TestDetailsC1ERKS0_i
 3488      00
 135:TestCheckMacros.cpp **** }
 3489              		.loc 6 135 0 is_stmt 0 discriminator 11
 3490 1752 E8000000 		call	_ZN8UnitTest11CurrentTest7ResultsEv
 3490      00
 3491 1757 488B00   		movq	(%rax), %rax
 3492 175a 488D8D90 		leaq	-2160(%rbp), %rcx
 3492      F7FFFF
 3493 1761 BA000000 		movl	$.LC12, %edx
 3493      00
 3494 1766 4889CE   		movq	%rcx, %rsi
 3495 1769 4889C7   		movq	%rax, %rdi
 3496 176c E8000000 		call	_ZN8UnitTest11TestResults13OnTestFailureERKNS_11TestDetailsEPKc
 3496      00
 3497              	.LEHE106:
 3498              	.LEHB107:
 135:TestCheckMacros.cpp **** }
 3499              		.loc 6 135 0 discriminator 15
 3500 1771 E8000000 		call	__cxa_end_catch
 3500      00
 3501              	.LEHE107:
 3502              		.loc 6 136 0 is_stmt 1 discriminator 15
 3503 1776 EB13     		jmp	.L188
 3504              	.L187:
 3505 1778 4889C3   		movq	%rax, %rbx
 135:TestCheckMacros.cpp **** }
 3506              		.loc 6 135 0
 3507 177b E8000000 		call	__cxa_end_catch
 3507      00
 3508 1780 4889D8   		movq	%rbx, %rax
 3509 1783 4889C7   		movq	%rax, %rdi
 3510              	.LEHB108:
 3511 1786 E8000000 		call	_Unwind_Resume
 3511      00
 3512              	.LEHE108:
 3513              	.L188:
 3514              		.loc 6 136 0
 3515 178b 90       		nop
 3516 178c 488B45E8 		movq	-24(%rbp), %rax
 3517 1790 64483304 		xorq	%fs:40, %rax
 3517      25280000 
 3517      00
 3518 1799 7405     		je	.L180
 3519 179b E8000000 		call	__stack_chk_fail
 3519      00
 3520              	.L180:
 3521 17a0 4881C4B8 		addq	$2232, %rsp
 3521      080000
 3522 17a7 5B       		popq	%rbx
 3523 17a8 5D       		popq	%rbp
 3524              		.cfi_def_cfa 7, 8
 3525 17a9 C3       		ret
 3526              		.cfi_endproc
 3527              	.LFE1124:
 3528              		.section	.gcc_except_table
 3529              		.align 4
 3530              	.LLSDA1124:
 3531 0264 FF       		.byte	0xff
 3532 0265 03       		.byte	0x3
 3533 0266 51       		.uleb128 .LLSDATT1124-.LLSDATTD1124
 3534              	.LLSDATTD1124:
 3535 0267 01       		.byte	0x1
 3536 0268 48       		.uleb128 .LLSDACSE1124-.LLSDACSB1124
 3537              	.LLSDACSB1124:
 3538 0269 4C       		.uleb128 .LEHB96-.LFB1124
 3539 026a 23       		.uleb128 .LEHE96-.LEHB96
 3540 026b CC03     		.uleb128 .L181-.LFB1124
 3541 026d 00       		.uleb128 0
 3542 026e 6F       		.uleb128 .LEHB97-.LFB1124
 3543 026f 1F       		.uleb128 .LEHE97-.LEHB97
 3544 0270 DE02     		.uleb128 .L182-.LFB1124
 3545 0272 01       		.uleb128 0x1
 3546 0273 9801     		.uleb128 .LEHB98-.LFB1124
 3547 0275 30       		.uleb128 .LEHE98-.LEHB98
 3548 0276 DC02     		.uleb128 .L183-.LFB1124
 3549 0278 01       		.uleb128 0x1
 3550 0279 D201     		.uleb128 .LEHB99-.LFB1124
 3551 027b 05       		.uleb128 .LEHE99-.LEHB99
 3552 027c B803     		.uleb128 .L184-.LFB1124
 3553 027e 00       		.uleb128 0
 3554 027f EC01     		.uleb128 .LEHB100-.LFB1124
 3555 0281 05       		.uleb128 .LEHE100-.LEHB100
 3556 0282 CC03     		.uleb128 .L181-.LFB1124
 3557 0284 00       		.uleb128 0
 3558 0285 FB01     		.uleb128 .LEHB101-.LFB1124
 3559 0287 05       		.uleb128 .LEHE101-.LEHB101
 3560 0288 00       		.uleb128 0
 3561 0289 00       		.uleb128 0
 3562 028a 9902     		.uleb128 .LEHB102-.LFB1124
 3563 028c 3E       		.uleb128 .LEHE102-.LEHB102
 3564 028d E903     		.uleb128 .L186-.LFB1124
 3565 028f 01       		.uleb128 0x1
 3566 0290 E602     		.uleb128 .LEHB103-.LFB1124
 3567 0292 3E       		.uleb128 .LEHE103-.LEHB103
 3568 0293 AE03     		.uleb128 .L185-.LFB1124
 3569 0295 00       		.uleb128 0
 3570 0296 A403     		.uleb128 .LEHB104-.LFB1124
 3571 0298 05       		.uleb128 .LEHE104-.LEHB104
 3572 0299 B803     		.uleb128 .L184-.LFB1124
 3573 029b 00       		.uleb128 0
 3574 029c E403     		.uleb128 .LEHB105-.LFB1124
 3575 029e 05       		.uleb128 .LEHE105-.LEHB105
 3576 029f 00       		.uleb128 0
 3577 02a0 00       		.uleb128 0
 3578 02a1 F103     		.uleb128 .LEHB106-.LFB1124
 3579 02a3 3E       		.uleb128 .LEHE106-.LEHB106
 3580 02a4 B604     		.uleb128 .L187-.LFB1124
 3581 02a6 00       		.uleb128 0
 3582 02a7 AF04     		.uleb128 .LEHB107-.LFB1124
 3583 02a9 05       		.uleb128 .LEHE107-.LEHB107
 3584 02aa 00       		.uleb128 0
 3585 02ab 00       		.uleb128 0
 3586 02ac C404     		.uleb128 .LEHB108-.LFB1124
 3587 02ae 05       		.uleb128 .LEHE108-.LEHB108
 3588 02af 00       		.uleb128 0
 3589 02b0 00       		.uleb128 0
 3590              	.LLSDACSE1124:
 3591 02b1 01       		.byte	0x1
 3592 02b2 00       		.byte	0
 3593 02b3 00       		.align 4
 3594 02b4 00000000 		.long	0
 3595              	
 3596              	.LLSDATT1124:
 3597              		.text
 3599              		.section	.rodata
 3600 048a 00000000 		.align 8
 3600      0000
 3601              	.LC33:
 3602 0490 43686563 		.string	"CheckEqualFailureContainsCorrectDetails"
 3602      6B457175 
 3602      616C4661 
 3602      696C7572 
 3602      65436F6E 
 3603              		.text
 3604              		.align 2
 3606              	_ZN12_GLOBAL__N_143TestCheckEqualFailureContainsCorrectDetailsC2Ev:
 3607              	.LFB1126:
 137:TestCheckMacros.cpp **** 
 138:TestCheckMacros.cpp **** TEST(CheckEqualFailureContainsCorrectDetails)
 3608              		.loc 6 138 0
 3609              		.cfi_startproc
 3610 17aa 55       		pushq	%rbp
 3611              		.cfi_def_cfa_offset 16
 3612              		.cfi_offset 6, -16
 3613 17ab 4889E5   		movq	%rsp, %rbp
 3614              		.cfi_def_cfa_register 6
 3615 17ae 4883EC10 		subq	$16, %rsp
 3616 17b2 48897DF8 		movq	%rdi, -8(%rbp)
 3617              	.LBB35:
 3618              		.loc 6 138 0
 3619 17b6 E8000000 		call	_ZN13UnitTestSuite12GetSuiteNameEv
 3619      00
 3620 17bb 4889C2   		movq	%rax, %rdx
 3621 17be 488B45F8 		movq	-8(%rbp), %rax
 3622 17c2 41B88A00 		movl	$138, %r8d
 3622      0000
 3623 17c8 B9000000 		movl	$.LC2, %ecx
 3623      00
 3624 17cd BE000000 		movl	$.LC33, %esi
 3624      00
 3625 17d2 4889C7   		movq	%rax, %rdi
 3626 17d5 E8000000 		call	_ZN8UnitTest4TestC2EPKcS2_S2_i
 3626      00
 3627 17da BA000000 		movl	$_ZTVN12_GLOBAL__N_143TestCheckEqualFailureContainsCorrectDetailsE+16, %edx
 3627      00
 3628 17df 488B45F8 		movq	-8(%rbp), %rax
 3629 17e3 488910   		movq	%rdx, (%rax)
 3630              	.LBE35:
 3631 17e6 90       		nop
 3632 17e7 C9       		leave
 3633              		.cfi_def_cfa 7, 8
 3634 17e8 C3       		ret
 3635              		.cfi_endproc
 3636              	.LFE1126:
 3638              		.set	_ZN12_GLOBAL__N_143TestCheckEqualFailureContainsCorrectDetailsC1Ev,_ZN12_GLOBAL__N_143TestChe
 3639              		.local	_ZN12_GLOBAL__N_151testCheckEqualFailureContainsCorrectDetailsInstanceE
 3640              		.comm	_ZN12_GLOBAL__N_151testCheckEqualFailureContainsCorrectDetailsInstanceE,56,32
 3641              		.local	_ZN12_GLOBAL__N_144adderCheckEqualFailureContainsCorrectDetailsE
 3642              		.comm	_ZN12_GLOBAL__N_144adderCheckEqualFailureContainsCorrectDetailsE,1,1
 3643              		.section	.rodata
 3644              	.LC34:
 3645 04b8 66696C65 		.string	"filename"
 3645      6E616D65 
 3645      00
 3646              	.LC35:
 3647 04c1 73756974 		.string	"suiteName"
 3647      654E616D 
 3647      6500
 3648              	.LC36:
 3649 04cb 74657374 		.string	"testName"
 3649      4E616D65 
 3649      00
 3650 04d4 00000000 		.align 8
 3651              	.LC37:
 3652 04d8 556E6861 		.string	"Unhandled exception in CHECK_EQUAL(1, 123)"
 3652      6E646C65 
 3652      64206578 
 3652      63657074 
 3652      696F6E20 
 3653 0503 00000000 		.align 8
 3653      00
 3654              	.LC38:
 3655 0508 556E6861 		.string	"Unhandled exception in CHECK_EQUAL(\"testName\", reporter.lastFailedTest)"
 3655      6E646C65 
 3655      64206578 
 3655      63657074 
 3655      696F6E20 
 3656              		.align 8
 3657              	.LC39:
 3658 0550 556E6861 		.string	"Unhandled exception in CHECK_EQUAL(\"suiteName\", reporter.lastFailedSuite)"
 3658      6E646C65 
 3658      64206578 
 3658      63657074 
 3658      696F6E20 
 3659 059a 00000000 		.align 8
 3659      0000
 3660              	.LC40:
 3661 05a0 556E6861 		.string	"Unhandled exception in CHECK_EQUAL(\"filename\", reporter.lastFailedFile)"
 3661      6E646C65 
 3661      64206578 
 3661      63657074 
 3661      696F6E20 
 3662              		.align 8
 3663              	.LC41:
 3664 05e8 556E6861 		.string	"Unhandled exception in CHECK_EQUAL(line, reporter.lastFailedLine)"
 3664      6E646C65 
 3664      64206578 
 3664      63657074 
 3664      696F6E20 
 3665              		.text
 3666 17e9 90       		.align 2
 3668              	_ZNK12_GLOBAL__N_143TestCheckEqualFailureContainsCorrectDetails7RunImplEv:
 3669              	.LFB1128:
 139:TestCheckMacros.cpp **** {
 3670              		.loc 6 139 0
 3671              		.cfi_startproc
 3672              		.cfi_personality 0x3,__gxx_personality_v0
 3673              		.cfi_lsda 0x3,.LLSDA1128
 3674 17ea 55       		pushq	%rbp
 3675              		.cfi_def_cfa_offset 16
 3676              		.cfi_offset 6, -16
 3677 17eb 4889E5   		movq	%rsp, %rbp
 3678              		.cfi_def_cfa_register 6
 3679 17ee 53       		pushq	%rbx
 3680 17ef 4881ECD8 		subq	$2264, %rsp
 3680      080000
 3681              		.cfi_offset 3, -24
 3682 17f6 4889BD28 		movq	%rdi, -2264(%rbp)
 3682      F7FFFF
 3683              		.loc 6 139 0
 3684 17fd 64488B04 		movq	%fs:40, %rax
 3684      25280000 
 3684      00
 3685 1806 488945E8 		movq	%rax, -24(%rbp)
 3686 180a 31C0     		xorl	%eax, %eax
 140:TestCheckMacros.cpp ****     int line = 0;
 3687              		.loc 6 140 0
 3688 180c C78534F7 		movl	$0, -2252(%rbp)
 3688      FFFF0000 
 3688      0000
 141:TestCheckMacros.cpp ****     RecordingReporter reporter;
 3689              		.loc 6 141 0
 3690 1816 488D85B0 		leaq	-2128(%rbp), %rax
 3690      F7FFFF
 3691 181d 4889C7   		movq	%rax, %rdi
 3692 1820 E8000000 		call	_ZN17RecordingReporterC1Ev
 3692      00
 3693              	.LBB36:
 142:TestCheckMacros.cpp ****     {
 143:TestCheckMacros.cpp ****         UnitTest::TestResults testResults(&reporter);
 3694              		.loc 6 143 0
 3695 1825 488D95B0 		leaq	-2128(%rbp), %rdx
 3695      F7FFFF
 3696 182c 488D8550 		leaq	-2224(%rbp), %rax
 3696      F7FFFF
 3697 1833 4889D6   		movq	%rdx, %rsi
 3698 1836 4889C7   		movq	%rax, %rdi
 3699              	.LEHB109:
 3700 1839 E8000000 		call	_ZN8UnitTest11TestResultsC1EPNS_12TestReporterE
 3700      00
 144:TestCheckMacros.cpp **** 		UnitTest::TestDetails const testDetails("testName", "suiteName", "filename", -1);
 3701              		.loc 6 144 0
 3702 183e 488D8570 		leaq	-2192(%rbp), %rax
 3702      F7FFFF
 3703 1845 41B8FFFF 		movl	$-1, %r8d
 3703      FFFF
 3704 184b B9000000 		movl	$.LC34, %ecx
 3704      00
 3705 1850 BA000000 		movl	$.LC35, %edx
 3705      00
 3706 1855 BE000000 		movl	$.LC36, %esi
 3706      00
 3707 185a 4889C7   		movq	%rax, %rdi
 3708 185d E8000000 		call	_ZN8UnitTest11TestDetailsC1EPKcS2_S2_i
 3708      00
 145:TestCheckMacros.cpp **** 		ScopedCurrentTest scopedResults(testResults, &testDetails);
 3709              		.loc 6 145 0
 3710 1862 488D9570 		leaq	-2192(%rbp), %rdx
 3710      F7FFFF
 3711 1869 488D8D50 		leaq	-2224(%rbp), %rcx
 3711      F7FFFF
 3712 1870 488D8540 		leaq	-2240(%rbp), %rax
 3712      F7FFFF
 3713 1877 4889CE   		movq	%rcx, %rsi
 3714 187a 4889C7   		movq	%rax, %rdi
 3715 187d E8000000 		call	_ZN17ScopedCurrentTestC1ERN8UnitTest11TestResultsEPKNS0_11TestDetailsE
 3715      00
 3716              	.LEHE109:
 3717              	.LEHB110:
 146:TestCheckMacros.cpp **** 
 147:TestCheckMacros.cpp **** 		CHECK_EQUAL(1, 123);    line = __LINE__;
 3718              		.loc 6 147 0
 3719 1882 E8000000 		call	_ZN8UnitTest11CurrentTest7DetailsEv
 3719      00
 3720 1887 488B08   		movq	(%rax), %rcx
 3721 188a 488D8590 		leaq	-2160(%rbp), %rax
 3721      F7FFFF
 3722 1891 BA930000 		movl	$147, %edx
 3722      00
 3723 1896 4889CE   		movq	%rcx, %rsi
 3724 1899 4889C7   		movq	%rax, %rdi
 3725 189c E8000000 		call	_ZN8UnitTest11TestDetailsC1ERKS0_i
 3725      00
 3726              	.LEHE110:
 3727              		.loc 6 147 0 is_stmt 0 discriminator 2
 3728 18a1 C7853CF7 		movl	$123, -2244(%rbp)
 3728      FFFF7B00 
 3728      0000
 3729 18ab C78538F7 		movl	$1, -2248(%rbp)
 3729      FFFF0100 
 3729      0000
 3730              	.LEHB111:
 3731 18b5 E8000000 		call	_ZN8UnitTest11CurrentTest7ResultsEv
 3731      00
 3732 18ba 488B00   		movq	(%rax), %rax
 3733 18bd 488D8D90 		leaq	-2160(%rbp), %rcx
 3733      F7FFFF
 3734 18c4 488D953C 		leaq	-2244(%rbp), %rdx
 3734      F7FFFF
 3735 18cb 488DB538 		leaq	-2248(%rbp), %rsi
 3735      F7FFFF
 3736 18d2 4889C7   		movq	%rax, %rdi
 3737 18d5 E8000000 		call	_ZN8UnitTest10CheckEqualIiiEEvRNS_11TestResultsERKT_RKT0_RKNS_11TestDetailsE
 3737      00
 3738              	.LEHE111:
 3739              	.L193:
 3740              		.loc 6 147 0 discriminator 7
 3741 18da C78534F7 		movl	$147, -2252(%rbp)
 3741      FFFF9300 
 3741      0000
 145:TestCheckMacros.cpp **** 		ScopedCurrentTest scopedResults(testResults, &testDetails);
 3742              		.loc 6 145 0 is_stmt 1 discriminator 7
 3743 18e4 488D8540 		leaq	-2240(%rbp), %rax
 3743      F7FFFF
 3744 18eb 4889C7   		movq	%rax, %rdi
 3745              	.LEHB112:
 3746 18ee E8000000 		call	_ZN17ScopedCurrentTestD1Ev
 3746      00
 3747              	.LEHE112:
 3748              	.LEHB113:
 3749              	.LBE36:
 148:TestCheckMacros.cpp ****     }
 149:TestCheckMacros.cpp **** 
 150:TestCheckMacros.cpp ****     CHECK_EQUAL("testName", reporter.lastFailedTest);
 3750              		.loc 6 150 0
 3751 18f3 E8000000 		call	_ZN8UnitTest11CurrentTest7DetailsEv
 3751      00
 3752 18f8 488B08   		movq	(%rax), %rcx
 3753 18fb 488D8590 		leaq	-2160(%rbp), %rax
 3753      F7FFFF
 3754 1902 BA960000 		movl	$150, %edx
 3754      00
 3755 1907 4889CE   		movq	%rcx, %rsi
 3756 190a 4889C7   		movq	%rax, %rdi
 3757 190d E8000000 		call	_ZN8UnitTest11TestDetailsC1ERKS0_i
 3757      00
 3758              		.loc 6 150 0 is_stmt 0 discriminator 2
 3759 1912 E8000000 		call	_ZN8UnitTest11CurrentTest7ResultsEv
 3759      00
 3760 1917 488B00   		movq	(%rax), %rax
 3761 191a 488D9590 		leaq	-2160(%rbp), %rdx
 3761      F7FFFF
 3762 1921 488D8DB0 		leaq	-2128(%rbp), %rcx
 3762      F7FFFF
 3763 1928 488DB114 		leaq	1044(%rcx), %rsi
 3763      040000
 3764 192f 4889D1   		movq	%rdx, %rcx
 3765 1932 4889F2   		movq	%rsi, %rdx
 3766 1935 BE000000 		movl	$.LC36, %esi
 3766      00
 3767 193a 4889C7   		movq	%rax, %rdi
 3768 193d E8000000 		call	_ZN8UnitTest10CheckEqualERNS_11TestResultsEPKcPcRKNS_11TestDetailsE
 3768      00
 3769              	.LEHE113:
 3770              	.L198:
 3771              	.LEHB114:
 151:TestCheckMacros.cpp ****     CHECK_EQUAL("suiteName", reporter.lastFailedSuite);
 3772              		.loc 6 151 0 is_stmt 1
 3773 1942 E8000000 		call	_ZN8UnitTest11CurrentTest7DetailsEv
 3773      00
 3774 1947 488B08   		movq	(%rax), %rcx
 3775 194a 488D8590 		leaq	-2160(%rbp), %rax
 3775      F7FFFF
 3776 1951 BA970000 		movl	$151, %edx
 3776      00
 3777 1956 4889CE   		movq	%rcx, %rsi
 3778 1959 4889C7   		movq	%rax, %rdi
 3779 195c E8000000 		call	_ZN8UnitTest11TestDetailsC1ERKS0_i
 3779      00
 3780              		.loc 6 151 0 is_stmt 0 discriminator 2
 3781 1961 E8000000 		call	_ZN8UnitTest11CurrentTest7ResultsEv
 3781      00
 3782 1966 488B00   		movq	(%rax), %rax
 3783 1969 488D9590 		leaq	-2160(%rbp), %rdx
 3783      F7FFFF
 3784 1970 488D8DB0 		leaq	-2128(%rbp), %rcx
 3784      F7FFFF
 3785 1977 488DB114 		leaq	788(%rcx), %rsi
 3785      030000
 3786 197e 4889D1   		movq	%rdx, %rcx
 3787 1981 4889F2   		movq	%rsi, %rdx
 3788 1984 BE000000 		movl	$.LC35, %esi
 3788      00
 3789 1989 4889C7   		movq	%rax, %rdi
 3790 198c E8000000 		call	_ZN8UnitTest10CheckEqualERNS_11TestResultsEPKcPcRKNS_11TestDetailsE
 3790      00
 3791              	.LEHE114:
 3792              	.L201:
 3793              	.LEHB115:
 152:TestCheckMacros.cpp ****     CHECK_EQUAL("filename", reporter.lastFailedFile);
 3794              		.loc 6 152 0 is_stmt 1
 3795 1991 E8000000 		call	_ZN8UnitTest11CurrentTest7DetailsEv
 3795      00
 3796 1996 488B08   		movq	(%rax), %rcx
 3797 1999 488D8590 		leaq	-2160(%rbp), %rax
 3797      F7FFFF
 3798 19a0 BA980000 		movl	$152, %edx
 3798      00
 3799 19a5 4889CE   		movq	%rcx, %rsi
 3800 19a8 4889C7   		movq	%rax, %rdi
 3801 19ab E8000000 		call	_ZN8UnitTest11TestDetailsC1ERKS0_i
 3801      00
 3802              		.loc 6 152 0 is_stmt 0 discriminator 2
 3803 19b0 E8000000 		call	_ZN8UnitTest11CurrentTest7ResultsEv
 3803      00
 3804 19b5 488B00   		movq	(%rax), %rax
 3805 19b8 488D9590 		leaq	-2160(%rbp), %rdx
 3805      F7FFFF
 3806 19bf 488D8DB0 		leaq	-2128(%rbp), %rcx
 3806      F7FFFF
 3807 19c6 488DB110 		leaq	528(%rcx), %rsi
 3807      020000
 3808 19cd 4889D1   		movq	%rdx, %rcx
 3809 19d0 4889F2   		movq	%rsi, %rdx
 3810 19d3 BE000000 		movl	$.LC34, %esi
 3810      00
 3811 19d8 4889C7   		movq	%rax, %rdi
 3812 19db E8000000 		call	_ZN8UnitTest10CheckEqualERNS_11TestResultsEPKcPcRKNS_11TestDetailsE
 3812      00
 3813              	.LEHE115:
 3814              	.L204:
 3815              	.LEHB116:
 153:TestCheckMacros.cpp ****     CHECK_EQUAL(line, reporter.lastFailedLine);
 3816              		.loc 6 153 0 is_stmt 1
 3817 19e0 E8000000 		call	_ZN8UnitTest11CurrentTest7DetailsEv
 3817      00
 3818 19e5 488B08   		movq	(%rax), %rcx
 3819 19e8 488D8590 		leaq	-2160(%rbp), %rax
 3819      F7FFFF
 3820 19ef BA990000 		movl	$153, %edx
 3820      00
 3821 19f4 4889CE   		movq	%rcx, %rsi
 3822 19f7 4889C7   		movq	%rax, %rdi
 3823 19fa E8000000 		call	_ZN8UnitTest11TestDetailsC1ERKS0_i
 3823      00
 3824              		.loc 6 153 0 is_stmt 0 discriminator 2
 3825 19ff E8000000 		call	_ZN8UnitTest11CurrentTest7ResultsEv
 3825      00
 3826 1a04 488B00   		movq	(%rax), %rax
 3827 1a07 488D9590 		leaq	-2160(%rbp), %rdx
 3827      F7FFFF
 3828 1a0e 488D8DB0 		leaq	-2128(%rbp), %rcx
 3828      F7FFFF
 3829 1a15 488DB910 		leaq	784(%rcx), %rdi
 3829      030000
 3830 1a1c 488DB534 		leaq	-2252(%rbp), %rsi
 3830      F7FFFF
 3831 1a23 4889D1   		movq	%rdx, %rcx
 3832 1a26 4889FA   		movq	%rdi, %rdx
 3833 1a29 4889C7   		movq	%rax, %rdi
 3834 1a2c E8000000 		call	_ZN8UnitTest10CheckEqualIiiEEvRNS_11TestResultsERKT_RKT0_RKNS_11TestDetailsE
 3834      00
 3835              	.LEHE116:
 3836              	.L207:
 141:TestCheckMacros.cpp ****     {
 3837              		.loc 6 141 0 is_stmt 1
 3838 1a31 488D85B0 		leaq	-2128(%rbp), %rax
 3838      F7FFFF
 3839 1a38 4889C7   		movq	%rax, %rdi
 3840              	.LEHB117:
 3841 1a3b E8000000 		call	_ZN17RecordingReporterD1Ev
 3841      00
 3842              	.LEHE117:
 154:TestCheckMacros.cpp **** }
 3843              		.loc 6 154 0
 3844 1a40 90       		nop
 3845 1a41 488B45E8 		movq	-24(%rbp), %rax
 3846 1a45 64483304 		xorq	%fs:40, %rax
 3846      25280000 
 3846      00
 3847 1a4e 0F840802 		je	.L209
 3847      0000
 3848 1a54 E9FE0100 		jmp	.L223
 3848      00
 3849              	.L211:
 3850 1a59 EB00     		jmp	.L192
 3851              	.L210:
 3852              	.L192:
 3853              	.LBB37:
 147:TestCheckMacros.cpp ****     }
 3854              		.loc 6 147 0
 3855 1a5b 4889C7   		movq	%rax, %rdi
 3856 1a5e E8000000 		call	__cxa_begin_catch
 3856      00
 3857              	.LEHB118:
 3858 1a63 E8000000 		call	_ZN8UnitTest11CurrentTest7DetailsEv
 3858      00
 3859 1a68 488B08   		movq	(%rax), %rcx
 3860 1a6b 488D8590 		leaq	-2160(%rbp), %rax
 3860      F7FFFF
 3861 1a72 BA930000 		movl	$147, %edx
 3861      00
 3862 1a77 4889CE   		movq	%rcx, %rsi
 3863 1a7a 4889C7   		movq	%rax, %rdi
 3864 1a7d E8000000 		call	_ZN8UnitTest11TestDetailsC1ERKS0_i
 3864      00
 147:TestCheckMacros.cpp ****     }
 3865              		.loc 6 147 0 is_stmt 0 discriminator 11
 3866 1a82 E8000000 		call	_ZN8UnitTest11CurrentTest7ResultsEv
 3866      00
 3867 1a87 488B00   		movq	(%rax), %rax
 3868 1a8a 488D8D90 		leaq	-2160(%rbp), %rcx
 3868      F7FFFF
 3869 1a91 BA000000 		movl	$.LC37, %edx
 3869      00
 3870 1a96 4889CE   		movq	%rcx, %rsi
 3871 1a99 4889C7   		movq	%rax, %rdi
 3872 1a9c E8000000 		call	_ZN8UnitTest11TestResults13OnTestFailureERKNS_11TestDetailsEPKc
 3872      00
 3873              	.LEHE118:
 3874              	.LEHB119:
 147:TestCheckMacros.cpp ****     }
 3875              		.loc 6 147 0 discriminator 15
 3876 1aa1 E8000000 		call	__cxa_end_catch
 3876      00
 3877              	.LEHE119:
 147:TestCheckMacros.cpp ****     }
 3878              		.loc 6 147 0
 3879 1aa6 E92FFEFF 		jmp	.L193
 3879      FF
 3880              	.L213:
 3881 1aab 4889C3   		movq	%rax, %rbx
 3882 1aae E8000000 		call	__cxa_end_catch
 3882      00
 3883 1ab3 EB03     		jmp	.L195
 3884              	.L212:
 3885 1ab5 4889C3   		movq	%rax, %rbx
 3886              	.L195:
 145:TestCheckMacros.cpp **** 
 3887              		.loc 6 145 0 is_stmt 1
 3888 1ab8 488D8540 		leaq	-2240(%rbp), %rax
 3888      F7FFFF
 3889 1abf 4889C7   		movq	%rax, %rdi
 3890 1ac2 E8000000 		call	_ZN17ScopedCurrentTestD1Ev
 3890      00
 3891 1ac7 E9710100 		jmp	.L196
 3891      00
 3892              	.L215:
 3893              	.LBE37:
 150:TestCheckMacros.cpp ****     CHECK_EQUAL("suiteName", reporter.lastFailedSuite);
 3894              		.loc 6 150 0
 3895 1acc 4889C7   		movq	%rax, %rdi
 3896 1acf E8000000 		call	__cxa_begin_catch
 3896      00
 3897              	.LEHB120:
 3898 1ad4 E8000000 		call	_ZN8UnitTest11CurrentTest7DetailsEv
 3898      00
 3899 1ad9 488B08   		movq	(%rax), %rcx
 3900 1adc 488D8590 		leaq	-2160(%rbp), %rax
 3900      F7FFFF
 3901 1ae3 BA960000 		movl	$150, %edx
 3901      00
 3902 1ae8 4889CE   		movq	%rcx, %rsi
 3903 1aeb 4889C7   		movq	%rax, %rdi
 3904 1aee E8000000 		call	_ZN8UnitTest11TestDetailsC1ERKS0_i
 3904      00
 150:TestCheckMacros.cpp ****     CHECK_EQUAL("suiteName", reporter.lastFailedSuite);
 3905              		.loc 6 150 0 is_stmt 0 discriminator 10
 3906 1af3 E8000000 		call	_ZN8UnitTest11CurrentTest7ResultsEv
 3906      00
 3907 1af8 488B00   		movq	(%rax), %rax
 3908 1afb 488D8D90 		leaq	-2160(%rbp), %rcx
 3908      F7FFFF
 3909 1b02 BA000000 		movl	$.LC38, %edx
 3909      00
 3910 1b07 4889CE   		movq	%rcx, %rsi
 3911 1b0a 4889C7   		movq	%rax, %rdi
 3912 1b0d E8000000 		call	_ZN8UnitTest11TestResults13OnTestFailureERKNS_11TestDetailsEPKc
 3912      00
 3913              	.LEHE120:
 3914              	.LEHB121:
 150:TestCheckMacros.cpp ****     CHECK_EQUAL("suiteName", reporter.lastFailedSuite);
 3915              		.loc 6 150 0 discriminator 14
 3916 1b12 E8000000 		call	__cxa_end_catch
 3916      00
 3917              	.LEHE121:
 150:TestCheckMacros.cpp ****     CHECK_EQUAL("suiteName", reporter.lastFailedSuite);
 3918              		.loc 6 150 0
 3919 1b17 E926FEFF 		jmp	.L198
 3919      FF
 3920              	.L216:
 3921 1b1c 4889C3   		movq	%rax, %rbx
 3922 1b1f E8000000 		call	__cxa_end_catch
 3922      00
 3923 1b24 E9140100 		jmp	.L196
 3923      00
 3924              	.L217:
 151:TestCheckMacros.cpp ****     CHECK_EQUAL("filename", reporter.lastFailedFile);
 3925              		.loc 6 151 0 is_stmt 1
 3926 1b29 4889C7   		movq	%rax, %rdi
 3927 1b2c E8000000 		call	__cxa_begin_catch
 3927      00
 3928              	.LEHB122:
 3929 1b31 E8000000 		call	_ZN8UnitTest11CurrentTest7DetailsEv
 3929      00
 3930 1b36 488B08   		movq	(%rax), %rcx
 3931 1b39 488D8590 		leaq	-2160(%rbp), %rax
 3931      F7FFFF
 3932 1b40 BA970000 		movl	$151, %edx
 3932      00
 3933 1b45 4889CE   		movq	%rcx, %rsi
 3934 1b48 4889C7   		movq	%rax, %rdi
 3935 1b4b E8000000 		call	_ZN8UnitTest11TestDetailsC1ERKS0_i
 3935      00
 151:TestCheckMacros.cpp ****     CHECK_EQUAL("filename", reporter.lastFailedFile);
 3936              		.loc 6 151 0 is_stmt 0 discriminator 10
 3937 1b50 E8000000 		call	_ZN8UnitTest11CurrentTest7ResultsEv
 3937      00
 3938 1b55 488B00   		movq	(%rax), %rax
 3939 1b58 488D8D90 		leaq	-2160(%rbp), %rcx
 3939      F7FFFF
 3940 1b5f BA000000 		movl	$.LC39, %edx
 3940      00
 3941 1b64 4889CE   		movq	%rcx, %rsi
 3942 1b67 4889C7   		movq	%rax, %rdi
 3943 1b6a E8000000 		call	_ZN8UnitTest11TestResults13OnTestFailureERKNS_11TestDetailsEPKc
 3943      00
 3944              	.LEHE122:
 3945              	.LEHB123:
 151:TestCheckMacros.cpp ****     CHECK_EQUAL("filename", reporter.lastFailedFile);
 3946              		.loc 6 151 0 discriminator 14
 3947 1b6f E8000000 		call	__cxa_end_catch
 3947      00
 3948              	.LEHE123:
 151:TestCheckMacros.cpp ****     CHECK_EQUAL("filename", reporter.lastFailedFile);
 3949              		.loc 6 151 0
 3950 1b74 E918FEFF 		jmp	.L201
 3950      FF
 3951              	.L218:
 3952 1b79 4889C3   		movq	%rax, %rbx
 3953 1b7c E8000000 		call	__cxa_end_catch
 3953      00
 3954 1b81 E9B70000 		jmp	.L196
 3954      00
 3955              	.L219:
 152:TestCheckMacros.cpp ****     CHECK_EQUAL(line, reporter.lastFailedLine);
 3956              		.loc 6 152 0 is_stmt 1
 3957 1b86 4889C7   		movq	%rax, %rdi
 3958 1b89 E8000000 		call	__cxa_begin_catch
 3958      00
 3959              	.LEHB124:
 3960 1b8e E8000000 		call	_ZN8UnitTest11CurrentTest7DetailsEv
 3960      00
 3961 1b93 488B08   		movq	(%rax), %rcx
 3962 1b96 488D8590 		leaq	-2160(%rbp), %rax
 3962      F7FFFF
 3963 1b9d BA980000 		movl	$152, %edx
 3963      00
 3964 1ba2 4889CE   		movq	%rcx, %rsi
 3965 1ba5 4889C7   		movq	%rax, %rdi
 3966 1ba8 E8000000 		call	_ZN8UnitTest11TestDetailsC1ERKS0_i
 3966      00
 152:TestCheckMacros.cpp ****     CHECK_EQUAL(line, reporter.lastFailedLine);
 3967              		.loc 6 152 0 is_stmt 0 discriminator 10
 3968 1bad E8000000 		call	_ZN8UnitTest11CurrentTest7ResultsEv
 3968      00
 3969 1bb2 488B00   		movq	(%rax), %rax
 3970 1bb5 488D8D90 		leaq	-2160(%rbp), %rcx
 3970      F7FFFF
 3971 1bbc BA000000 		movl	$.LC40, %edx
 3971      00
 3972 1bc1 4889CE   		movq	%rcx, %rsi
 3973 1bc4 4889C7   		movq	%rax, %rdi
 3974 1bc7 E8000000 		call	_ZN8UnitTest11TestResults13OnTestFailureERKNS_11TestDetailsEPKc
 3974      00
 3975              	.LEHE124:
 3976              	.LEHB125:
 152:TestCheckMacros.cpp ****     CHECK_EQUAL(line, reporter.lastFailedLine);
 3977              		.loc 6 152 0 discriminator 14
 3978 1bcc E8000000 		call	__cxa_end_catch
 3978      00
 3979              	.LEHE125:
 152:TestCheckMacros.cpp ****     CHECK_EQUAL(line, reporter.lastFailedLine);
 3980              		.loc 6 152 0
 3981 1bd1 E90AFEFF 		jmp	.L204
 3981      FF
 3982              	.L220:
 3983 1bd6 4889C3   		movq	%rax, %rbx
 3984 1bd9 E8000000 		call	__cxa_end_catch
 3984      00
 3985 1bde EB5D     		jmp	.L196
 3986              	.L221:
 153:TestCheckMacros.cpp **** }
 3987              		.loc 6 153 0 is_stmt 1
 3988 1be0 4889C7   		movq	%rax, %rdi
 3989 1be3 E8000000 		call	__cxa_begin_catch
 3989      00
 3990              	.LEHB126:
 3991 1be8 E8000000 		call	_ZN8UnitTest11CurrentTest7DetailsEv
 3991      00
 3992 1bed 488B08   		movq	(%rax), %rcx
 3993 1bf0 488D8590 		leaq	-2160(%rbp), %rax
 3993      F7FFFF
 3994 1bf7 BA990000 		movl	$153, %edx
 3994      00
 3995 1bfc 4889CE   		movq	%rcx, %rsi
 3996 1bff 4889C7   		movq	%rax, %rdi
 3997 1c02 E8000000 		call	_ZN8UnitTest11TestDetailsC1ERKS0_i
 3997      00
 153:TestCheckMacros.cpp **** }
 3998              		.loc 6 153 0 is_stmt 0 discriminator 10
 3999 1c07 E8000000 		call	_ZN8UnitTest11CurrentTest7ResultsEv
 3999      00
 4000 1c0c 488B00   		movq	(%rax), %rax
 4001 1c0f 488D8D90 		leaq	-2160(%rbp), %rcx
 4001      F7FFFF
 4002 1c16 BA000000 		movl	$.LC41, %edx
 4002      00
 4003 1c1b 4889CE   		movq	%rcx, %rsi
 4004 1c1e 4889C7   		movq	%rax, %rdi
 4005 1c21 E8000000 		call	_ZN8UnitTest11TestResults13OnTestFailureERKNS_11TestDetailsEPKc
 4005      00
 4006              	.LEHE126:
 4007              	.LEHB127:
 153:TestCheckMacros.cpp **** }
 4008              		.loc 6 153 0 discriminator 14
 4009 1c26 E8000000 		call	__cxa_end_catch
 4009      00
 4010              	.LEHE127:
 153:TestCheckMacros.cpp **** }
 4011              		.loc 6 153 0
 4012 1c2b E901FEFF 		jmp	.L207
 4012      FF
 4013              	.L222:
 4014 1c30 4889C3   		movq	%rax, %rbx
 4015 1c33 E8000000 		call	__cxa_end_catch
 4015      00
 4016 1c38 EB03     		jmp	.L196
 4017              	.L214:
 4018 1c3a 4889C3   		movq	%rax, %rbx
 4019              	.L196:
 141:TestCheckMacros.cpp ****     {
 4020              		.loc 6 141 0 is_stmt 1
 4021 1c3d 488D85B0 		leaq	-2128(%rbp), %rax
 4021      F7FFFF
 4022 1c44 4889C7   		movq	%rax, %rdi
 4023 1c47 E8000000 		call	_ZN17RecordingReporterD1Ev
 4023      00
 4024 1c4c 4889D8   		movq	%rbx, %rax
 4025 1c4f 4889C7   		movq	%rax, %rdi
 4026              	.LEHB128:
 4027 1c52 E8000000 		call	_Unwind_Resume
 4027      00
 4028              	.LEHE128:
 4029              	.L223:
 4030              		.loc 6 154 0
 4031 1c57 E8000000 		call	__stack_chk_fail
 4031      00
 4032              	.L209:
 4033 1c5c 4881C4D8 		addq	$2264, %rsp
 4033      080000
 4034 1c63 5B       		popq	%rbx
 4035 1c64 5D       		popq	%rbp
 4036              		.cfi_def_cfa 7, 8
 4037 1c65 C3       		ret
 4038              		.cfi_endproc
 4039              	.LFE1128:
 4040              		.section	.gcc_except_table
 4041              		.align 4
 4042              	.LLSDA1128:
 4043 02b8 FF       		.byte	0xff
 4044 02b9 03       		.byte	0x3
 4045 02ba 7D       		.uleb128 .LLSDATT1128-.LLSDATTD1128
 4046              	.LLSDATTD1128:
 4047 02bb 01       		.byte	0x1
 4048 02bc 75       		.uleb128 .LLSDACSE1128-.LLSDACSB1128
 4049              	.LLSDACSB1128:
 4050 02bd 4F       		.uleb128 .LEHB109-.LFB1128
 4051 02be 49       		.uleb128 .LEHE109-.LEHB109
 4052 02bf D008     		.uleb128 .L214-.LFB1128
 4053 02c1 00       		.uleb128 0
 4054 02c2 9801     		.uleb128 .LEHB110-.LFB1128
 4055 02c4 1F       		.uleb128 .LEHE110-.LEHB110
 4056 02c5 F104     		.uleb128 .L210-.LFB1128
 4057 02c7 01       		.uleb128 0x1
 4058 02c8 CB01     		.uleb128 .LEHB111-.LFB1128
 4059 02ca 25       		.uleb128 .LEHE111-.LEHB111
 4060 02cb EF04     		.uleb128 .L211-.LFB1128
 4061 02cd 01       		.uleb128 0x1
 4062 02ce 8402     		.uleb128 .LEHB112-.LFB1128
 4063 02d0 05       		.uleb128 .LEHE112-.LEHB112
 4064 02d1 D008     		.uleb128 .L214-.LFB1128
 4065 02d3 00       		.uleb128 0
 4066 02d4 8902     		.uleb128 .LEHB113-.LFB1128
 4067 02d6 4F       		.uleb128 .LEHE113-.LEHB113
 4068 02d7 E205     		.uleb128 .L215-.LFB1128
 4069 02d9 01       		.uleb128 0x1
 4070 02da D802     		.uleb128 .LEHB114-.LFB1128
 4071 02dc 4F       		.uleb128 .LEHE114-.LEHB114
 4072 02dd BF06     		.uleb128 .L217-.LFB1128
 4073 02df 01       		.uleb128 0x1
 4074 02e0 A703     		.uleb128 .LEHB115-.LFB1128
 4075 02e2 4F       		.uleb128 .LEHE115-.LEHB115
 4076 02e3 9C07     		.uleb128 .L219-.LFB1128
 4077 02e5 01       		.uleb128 0x1
 4078 02e6 F603     		.uleb128 .LEHB116-.LFB1128
 4079 02e8 51       		.uleb128 .LEHE116-.LEHB116
 4080 02e9 F607     		.uleb128 .L221-.LFB1128
 4081 02eb 01       		.uleb128 0x1
 4082 02ec D104     		.uleb128 .LEHB117-.LFB1128
 4083 02ee 05       		.uleb128 .LEHE117-.LEHB117
 4084 02ef 00       		.uleb128 0
 4085 02f0 00       		.uleb128 0
 4086 02f1 F904     		.uleb128 .LEHB118-.LFB1128
 4087 02f3 3E       		.uleb128 .LEHE118-.LEHB118
 4088 02f4 C105     		.uleb128 .L213-.LFB1128
 4089 02f6 00       		.uleb128 0
 4090 02f7 B705     		.uleb128 .LEHB119-.LFB1128
 4091 02f9 05       		.uleb128 .LEHE119-.LEHB119
 4092 02fa CB05     		.uleb128 .L212-.LFB1128
 4093 02fc 00       		.uleb128 0
 4094 02fd EA05     		.uleb128 .LEHB120-.LFB1128
 4095 02ff 3E       		.uleb128 .LEHE120-.LEHB120
 4096 0300 B206     		.uleb128 .L216-.LFB1128
 4097 0302 00       		.uleb128 0
 4098 0303 A806     		.uleb128 .LEHB121-.LFB1128
 4099 0305 05       		.uleb128 .LEHE121-.LEHB121
 4100 0306 D008     		.uleb128 .L214-.LFB1128
 4101 0308 00       		.uleb128 0
 4102 0309 C706     		.uleb128 .LEHB122-.LFB1128
 4103 030b 3E       		.uleb128 .LEHE122-.LEHB122
 4104 030c 8F07     		.uleb128 .L218-.LFB1128
 4105 030e 00       		.uleb128 0
 4106 030f 8507     		.uleb128 .LEHB123-.LFB1128
 4107 0311 05       		.uleb128 .LEHE123-.LEHB123
 4108 0312 D008     		.uleb128 .L214-.LFB1128
 4109 0314 00       		.uleb128 0
 4110 0315 A407     		.uleb128 .LEHB124-.LFB1128
 4111 0317 3E       		.uleb128 .LEHE124-.LEHB124
 4112 0318 EC07     		.uleb128 .L220-.LFB1128
 4113 031a 00       		.uleb128 0
 4114 031b E207     		.uleb128 .LEHB125-.LFB1128
 4115 031d 05       		.uleb128 .LEHE125-.LEHB125
 4116 031e D008     		.uleb128 .L214-.LFB1128
 4117 0320 00       		.uleb128 0
 4118 0321 FE07     		.uleb128 .LEHB126-.LFB1128
 4119 0323 3E       		.uleb128 .LEHE126-.LEHB126
 4120 0324 C608     		.uleb128 .L222-.LFB1128
 4121 0326 00       		.uleb128 0
 4122 0327 BC08     		.uleb128 .LEHB127-.LFB1128
 4123 0329 05       		.uleb128 .LEHE127-.LEHB127
 4124 032a D008     		.uleb128 .L214-.LFB1128
 4125 032c 00       		.uleb128 0
 4126 032d E808     		.uleb128 .LEHB128-.LFB1128
 4127 032f 05       		.uleb128 .LEHE128-.LEHB128
 4128 0330 00       		.uleb128 0
 4129 0331 00       		.uleb128 0
 4130              	.LLSDACSE1128:
 4131 0332 01       		.byte	0x1
 4132 0333 00       		.byte	0
 4133              		.align 4
 4134 0334 00000000 		.long	0
 4135              	
 4136              	.LLSDATT1128:
 4137              		.text
 4139              		.section	.rodata
 4140 062a 00000000 		.align 8
 4140      0000
 4141              	.LC42:
 4142 0630 43686563 		.string	"CheckEqualFailureBecauseOfExceptionContainsCorrectDetails"
 4142      6B457175 
 4142      616C4661 
 4142      696C7572 
 4142      65426563 
 4143              		.text
 4144              		.align 2
 4146              	_ZN12_GLOBAL__N_161TestCheckEqualFailureBecauseOfExceptionContainsCorrectDetailsC2Ev:
 4147              	.LFB1130:
 155:TestCheckMacros.cpp **** 
 156:TestCheckMacros.cpp **** TEST(CheckEqualFailureBecauseOfExceptionContainsCorrectDetails)
 4148              		.loc 6 156 0
 4149              		.cfi_startproc
 4150 1c66 55       		pushq	%rbp
 4151              		.cfi_def_cfa_offset 16
 4152              		.cfi_offset 6, -16
 4153 1c67 4889E5   		movq	%rsp, %rbp
 4154              		.cfi_def_cfa_register 6
 4155 1c6a 4883EC10 		subq	$16, %rsp
 4156 1c6e 48897DF8 		movq	%rdi, -8(%rbp)
 4157              	.LBB38:
 4158              		.loc 6 156 0
 4159 1c72 E8000000 		call	_ZN13UnitTestSuite12GetSuiteNameEv
 4159      00
 4160 1c77 4889C2   		movq	%rax, %rdx
 4161 1c7a 488B45F8 		movq	-8(%rbp), %rax
 4162 1c7e 41B89C00 		movl	$156, %r8d
 4162      0000
 4163 1c84 B9000000 		movl	$.LC2, %ecx
 4163      00
 4164 1c89 BE000000 		movl	$.LC42, %esi
 4164      00
 4165 1c8e 4889C7   		movq	%rax, %rdi
 4166 1c91 E8000000 		call	_ZN8UnitTest4TestC2EPKcS2_S2_i
 4166      00
 4167 1c96 BA000000 		movl	$_ZTVN12_GLOBAL__N_161TestCheckEqualFailureBecauseOfExceptionContainsCorrectDetailsE+16, %edx
 4167      00
 4168 1c9b 488B45F8 		movq	-8(%rbp), %rax
 4169 1c9f 488910   		movq	%rdx, (%rax)
 4170              	.LBE38:
 4171 1ca2 90       		nop
 4172 1ca3 C9       		leave
 4173              		.cfi_def_cfa 7, 8
 4174 1ca4 C3       		ret
 4175              		.cfi_endproc
 4176              	.LFE1130:
 4178              		.set	_ZN12_GLOBAL__N_161TestCheckEqualFailureBecauseOfExceptionContainsCorrectDetailsC1Ev,_ZN12_GL
 4179              		.local	_ZN12_GLOBAL__N_169testCheckEqualFailureBecauseOfExceptionContainsCorrectDetailsInstanceE
 4180              		.comm	_ZN12_GLOBAL__N_169testCheckEqualFailureBecauseOfExceptionContainsCorrectDetailsInstanceE,56
 4181              		.local	_ZN12_GLOBAL__N_162adderCheckEqualFailureBecauseOfExceptionContainsCorrectDetailsE
 4182              		.comm	_ZN12_GLOBAL__N_162adderCheckEqualFailureBecauseOfExceptionContainsCorrectDetailsE,1,1
 4183              		.section	.rodata
 4184 066a 00000000 		.align 8
 4184      0000
 4185              	.LC43:
 4186 0670 556E6861 		.string	"Unhandled exception in CHECK_EQUAL(ThrowingFunction(), 123)"
 4186      6E646C65 
 4186      64206578 
 4186      63657074 
 4186      696F6E20 
 4187              		.text
 4188 1ca5 90       		.align 2
 4190              	_ZNK12_GLOBAL__N_161TestCheckEqualFailureBecauseOfExceptionContainsCorrectDetails7RunImplEv:
 4191              	.LFB1132:
 157:TestCheckMacros.cpp **** {
 4192              		.loc 6 157 0
 4193              		.cfi_startproc
 4194              		.cfi_personality 0x3,__gxx_personality_v0
 4195              		.cfi_lsda 0x3,.LLSDA1132
 4196 1ca6 55       		pushq	%rbp
 4197              		.cfi_def_cfa_offset 16
 4198              		.cfi_offset 6, -16
 4199 1ca7 4889E5   		movq	%rsp, %rbp
 4200              		.cfi_def_cfa_register 6
 4201 1caa 53       		pushq	%rbx
 4202 1cab 4881ECD8 		subq	$2264, %rsp
 4202      080000
 4203              		.cfi_offset 3, -24
 4204 1cb2 4889BD28 		movq	%rdi, -2264(%rbp)
 4204      F7FFFF
 4205              		.loc 6 157 0
 4206 1cb9 64488B04 		movq	%fs:40, %rax
 4206      25280000 
 4206      00
 4207 1cc2 488945E8 		movq	%rax, -24(%rbp)
 4208 1cc6 31C0     		xorl	%eax, %eax
 158:TestCheckMacros.cpp ****     int line = 0;
 4209              		.loc 6 158 0
 4210 1cc8 C78534F7 		movl	$0, -2252(%rbp)
 4210      FFFF0000 
 4210      0000
 159:TestCheckMacros.cpp ****     RecordingReporter reporter;
 4211              		.loc 6 159 0
 4212 1cd2 488D85B0 		leaq	-2128(%rbp), %rax
 4212      F7FFFF
 4213 1cd9 4889C7   		movq	%rax, %rdi
 4214 1cdc E8000000 		call	_ZN17RecordingReporterC1Ev
 4214      00
 4215              	.LBB39:
 160:TestCheckMacros.cpp ****     {
 161:TestCheckMacros.cpp ****         UnitTest::TestResults testResults(&reporter);
 4216              		.loc 6 161 0
 4217 1ce1 488D95B0 		leaq	-2128(%rbp), %rdx
 4217      F7FFFF
 4218 1ce8 488D8550 		leaq	-2224(%rbp), %rax
 4218      F7FFFF
 4219 1cef 4889D6   		movq	%rdx, %rsi
 4220 1cf2 4889C7   		movq	%rax, %rdi
 4221              	.LEHB129:
 4222 1cf5 E8000000 		call	_ZN8UnitTest11TestResultsC1EPNS_12TestReporterE
 4222      00
 162:TestCheckMacros.cpp **** 		UnitTest::TestDetails const testDetails("testName", "suiteName", "filename", -1);
 4223              		.loc 6 162 0
 4224 1cfa 488D8570 		leaq	-2192(%rbp), %rax
 4224      F7FFFF
 4225 1d01 41B8FFFF 		movl	$-1, %r8d
 4225      FFFF
 4226 1d07 B9000000 		movl	$.LC34, %ecx
 4226      00
 4227 1d0c BA000000 		movl	$.LC35, %edx
 4227      00
 4228 1d11 BE000000 		movl	$.LC36, %esi
 4228      00
 4229 1d16 4889C7   		movq	%rax, %rdi
 4230 1d19 E8000000 		call	_ZN8UnitTest11TestDetailsC1EPKcS2_S2_i
 4230      00
 163:TestCheckMacros.cpp **** 		ScopedCurrentTest scopedResults(testResults, &testDetails);
 4231              		.loc 6 163 0
 4232 1d1e 488D9570 		leaq	-2192(%rbp), %rdx
 4232      F7FFFF
 4233 1d25 488D8D50 		leaq	-2224(%rbp), %rcx
 4233      F7FFFF
 4234 1d2c 488D8540 		leaq	-2240(%rbp), %rax
 4234      F7FFFF
 4235 1d33 4889CE   		movq	%rcx, %rsi
 4236 1d36 4889C7   		movq	%rax, %rdi
 4237 1d39 E8000000 		call	_ZN17ScopedCurrentTestC1ERN8UnitTest11TestResultsEPKNS0_11TestDetailsE
 4237      00
 4238              	.LEHE129:
 4239              	.LEHB130:
 164:TestCheckMacros.cpp **** 
 165:TestCheckMacros.cpp **** 		CHECK_EQUAL(ThrowingFunction(), 123);    line = __LINE__;
 4240              		.loc 6 165 0
 4241 1d3e E8000000 		call	_ZN8UnitTest11CurrentTest7DetailsEv
 4241      00
 4242 1d43 488B08   		movq	(%rax), %rcx
 4243 1d46 488D8590 		leaq	-2160(%rbp), %rax
 4243      F7FFFF
 4244 1d4d BAA50000 		movl	$165, %edx
 4244      00
 4245 1d52 4889CE   		movq	%rcx, %rsi
 4246 1d55 4889C7   		movq	%rax, %rdi
 4247 1d58 E8000000 		call	_ZN8UnitTest11TestDetailsC1ERKS0_i
 4247      00
 4248              	.LEHE130:
 4249              		.loc 6 165 0 is_stmt 0 discriminator 2
 4250 1d5d C7853CF7 		movl	$123, -2244(%rbp)
 4250      FFFF7B00 
 4250      0000
 4251              	.LEHB131:
 4252 1d67 E8DCECFF 		call	_ZN12_GLOBAL__N_116ThrowingFunctionEv
 4252      FF
 4253 1d6c 898538F7 		movl	%eax, -2248(%rbp)
 4253      FFFF
 4254 1d72 E8000000 		call	_ZN8UnitTest11CurrentTest7ResultsEv
 4254      00
 4255              		.loc 6 165 0 discriminator 4
 4256 1d77 488B00   		movq	(%rax), %rax
 4257 1d7a 488D8D90 		leaq	-2160(%rbp), %rcx
 4257      F7FFFF
 4258 1d81 488D953C 		leaq	-2244(%rbp), %rdx
 4258      F7FFFF
 4259 1d88 488DB538 		leaq	-2248(%rbp), %rsi
 4259      F7FFFF
 4260 1d8f 4889C7   		movq	%rax, %rdi
 4261 1d92 E8000000 		call	_ZN8UnitTest10CheckEqualIiiEEvRNS_11TestResultsERKT_RKT0_RKNS_11TestDetailsE
 4261      00
 4262              	.LEHE131:
 4263              	.L228:
 4264              		.loc 6 165 0 discriminator 9
 4265 1d97 C78534F7 		movl	$165, -2252(%rbp)
 4265      FFFFA500 
 4265      0000
 163:TestCheckMacros.cpp **** 		ScopedCurrentTest scopedResults(testResults, &testDetails);
 4266              		.loc 6 163 0 is_stmt 1 discriminator 9
 4267 1da1 488D8540 		leaq	-2240(%rbp), %rax
 4267      F7FFFF
 4268 1da8 4889C7   		movq	%rax, %rdi
 4269              	.LEHB132:
 4270 1dab E8000000 		call	_ZN17ScopedCurrentTestD1Ev
 4270      00
 4271              	.LEHE132:
 4272              	.LEHB133:
 4273              	.LBE39:
 166:TestCheckMacros.cpp ****     }
 167:TestCheckMacros.cpp **** 
 168:TestCheckMacros.cpp ****     CHECK_EQUAL("testName", reporter.lastFailedTest);
 4274              		.loc 6 168 0
 4275 1db0 E8000000 		call	_ZN8UnitTest11CurrentTest7DetailsEv
 4275      00
 4276 1db5 488B08   		movq	(%rax), %rcx
 4277 1db8 488D8590 		leaq	-2160(%rbp), %rax
 4277      F7FFFF
 4278 1dbf BAA80000 		movl	$168, %edx
 4278      00
 4279 1dc4 4889CE   		movq	%rcx, %rsi
 4280 1dc7 4889C7   		movq	%rax, %rdi
 4281 1dca E8000000 		call	_ZN8UnitTest11TestDetailsC1ERKS0_i
 4281      00
 4282              		.loc 6 168 0 is_stmt 0 discriminator 2
 4283 1dcf E8000000 		call	_ZN8UnitTest11CurrentTest7ResultsEv
 4283      00
 4284 1dd4 488B00   		movq	(%rax), %rax
 4285 1dd7 488D9590 		leaq	-2160(%rbp), %rdx
 4285      F7FFFF
 4286 1dde 488D8DB0 		leaq	-2128(%rbp), %rcx
 4286      F7FFFF
 4287 1de5 488DB114 		leaq	1044(%rcx), %rsi
 4287      040000
 4288 1dec 4889D1   		movq	%rdx, %rcx
 4289 1def 4889F2   		movq	%rsi, %rdx
 4290 1df2 BE000000 		movl	$.LC36, %esi
 4290      00
 4291 1df7 4889C7   		movq	%rax, %rdi
 4292 1dfa E8000000 		call	_ZN8UnitTest10CheckEqualERNS_11TestResultsEPKcPcRKNS_11TestDetailsE
 4292      00
 4293              	.LEHE133:
 4294              	.L233:
 4295              	.LEHB134:
 169:TestCheckMacros.cpp ****     CHECK_EQUAL("suiteName", reporter.lastFailedSuite);
 4296              		.loc 6 169 0 is_stmt 1
 4297 1dff E8000000 		call	_ZN8UnitTest11CurrentTest7DetailsEv
 4297      00
 4298 1e04 488B08   		movq	(%rax), %rcx
 4299 1e07 488D8590 		leaq	-2160(%rbp), %rax
 4299      F7FFFF
 4300 1e0e BAA90000 		movl	$169, %edx
 4300      00
 4301 1e13 4889CE   		movq	%rcx, %rsi
 4302 1e16 4889C7   		movq	%rax, %rdi
 4303 1e19 E8000000 		call	_ZN8UnitTest11TestDetailsC1ERKS0_i
 4303      00
 4304              		.loc 6 169 0 is_stmt 0 discriminator 2
 4305 1e1e E8000000 		call	_ZN8UnitTest11CurrentTest7ResultsEv
 4305      00
 4306 1e23 488B00   		movq	(%rax), %rax
 4307 1e26 488D9590 		leaq	-2160(%rbp), %rdx
 4307      F7FFFF
 4308 1e2d 488D8DB0 		leaq	-2128(%rbp), %rcx
 4308      F7FFFF
 4309 1e34 488DB114 		leaq	788(%rcx), %rsi
 4309      030000
 4310 1e3b 4889D1   		movq	%rdx, %rcx
 4311 1e3e 4889F2   		movq	%rsi, %rdx
 4312 1e41 BE000000 		movl	$.LC35, %esi
 4312      00
 4313 1e46 4889C7   		movq	%rax, %rdi
 4314 1e49 E8000000 		call	_ZN8UnitTest10CheckEqualERNS_11TestResultsEPKcPcRKNS_11TestDetailsE
 4314      00
 4315              	.LEHE134:
 4316              	.L236:
 4317              	.LEHB135:
 170:TestCheckMacros.cpp ****     CHECK_EQUAL("filename", reporter.lastFailedFile);
 4318              		.loc 6 170 0 is_stmt 1
 4319 1e4e E8000000 		call	_ZN8UnitTest11CurrentTest7DetailsEv
 4319      00
 4320 1e53 488B08   		movq	(%rax), %rcx
 4321 1e56 488D8590 		leaq	-2160(%rbp), %rax
 4321      F7FFFF
 4322 1e5d BAAA0000 		movl	$170, %edx
 4322      00
 4323 1e62 4889CE   		movq	%rcx, %rsi
 4324 1e65 4889C7   		movq	%rax, %rdi
 4325 1e68 E8000000 		call	_ZN8UnitTest11TestDetailsC1ERKS0_i
 4325      00
 4326              		.loc 6 170 0 is_stmt 0 discriminator 2
 4327 1e6d E8000000 		call	_ZN8UnitTest11CurrentTest7ResultsEv
 4327      00
 4328 1e72 488B00   		movq	(%rax), %rax
 4329 1e75 488D9590 		leaq	-2160(%rbp), %rdx
 4329      F7FFFF
 4330 1e7c 488D8DB0 		leaq	-2128(%rbp), %rcx
 4330      F7FFFF
 4331 1e83 488DB110 		leaq	528(%rcx), %rsi
 4331      020000
 4332 1e8a 4889D1   		movq	%rdx, %rcx
 4333 1e8d 4889F2   		movq	%rsi, %rdx
 4334 1e90 BE000000 		movl	$.LC34, %esi
 4334      00
 4335 1e95 4889C7   		movq	%rax, %rdi
 4336 1e98 E8000000 		call	_ZN8UnitTest10CheckEqualERNS_11TestResultsEPKcPcRKNS_11TestDetailsE
 4336      00
 4337              	.LEHE135:
 4338              	.L239:
 4339              	.LEHB136:
 171:TestCheckMacros.cpp ****     CHECK_EQUAL(line, reporter.lastFailedLine);
 4340              		.loc 6 171 0 is_stmt 1
 4341 1e9d E8000000 		call	_ZN8UnitTest11CurrentTest7DetailsEv
 4341      00
 4342 1ea2 488B08   		movq	(%rax), %rcx
 4343 1ea5 488D8590 		leaq	-2160(%rbp), %rax
 4343      F7FFFF
 4344 1eac BAAB0000 		movl	$171, %edx
 4344      00
 4345 1eb1 4889CE   		movq	%rcx, %rsi
 4346 1eb4 4889C7   		movq	%rax, %rdi
 4347 1eb7 E8000000 		call	_ZN8UnitTest11TestDetailsC1ERKS0_i
 4347      00
 4348              		.loc 6 171 0 is_stmt 0 discriminator 2
 4349 1ebc E8000000 		call	_ZN8UnitTest11CurrentTest7ResultsEv
 4349      00
 4350 1ec1 488B00   		movq	(%rax), %rax
 4351 1ec4 488D9590 		leaq	-2160(%rbp), %rdx
 4351      F7FFFF
 4352 1ecb 488D8DB0 		leaq	-2128(%rbp), %rcx
 4352      F7FFFF
 4353 1ed2 488DB910 		leaq	784(%rcx), %rdi
 4353      030000
 4354 1ed9 488DB534 		leaq	-2252(%rbp), %rsi
 4354      F7FFFF
 4355 1ee0 4889D1   		movq	%rdx, %rcx
 4356 1ee3 4889FA   		movq	%rdi, %rdx
 4357 1ee6 4889C7   		movq	%rax, %rdi
 4358 1ee9 E8000000 		call	_ZN8UnitTest10CheckEqualIiiEEvRNS_11TestResultsERKT_RKT0_RKNS_11TestDetailsE
 4358      00
 4359              	.LEHE136:
 4360              	.L242:
 159:TestCheckMacros.cpp ****     {
 4361              		.loc 6 159 0 is_stmt 1
 4362 1eee 488D85B0 		leaq	-2128(%rbp), %rax
 4362      F7FFFF
 4363 1ef5 4889C7   		movq	%rax, %rdi
 4364              	.LEHB137:
 4365 1ef8 E8000000 		call	_ZN17RecordingReporterD1Ev
 4365      00
 4366              	.LEHE137:
 172:TestCheckMacros.cpp **** }
 4367              		.loc 6 172 0
 4368 1efd 90       		nop
 4369 1efe 488B45E8 		movq	-24(%rbp), %rax
 4370 1f02 64483304 		xorq	%fs:40, %rax
 4370      25280000 
 4370      00
 4371 1f0b 0F840802 		je	.L244
 4371      0000
 4372 1f11 E9FE0100 		jmp	.L258
 4372      00
 4373              	.L246:
 4374 1f16 EB00     		jmp	.L227
 4375              	.L245:
 4376              	.L227:
 4377              	.LBB40:
 165:TestCheckMacros.cpp ****     }
 4378              		.loc 6 165 0
 4379 1f18 4889C7   		movq	%rax, %rdi
 4380 1f1b E8000000 		call	__cxa_begin_catch
 4380      00
 4381              	.LEHB138:
 4382 1f20 E8000000 		call	_ZN8UnitTest11CurrentTest7DetailsEv
 4382      00
 4383 1f25 488B08   		movq	(%rax), %rcx
 4384 1f28 488D8590 		leaq	-2160(%rbp), %rax
 4384      F7FFFF
 4385 1f2f BAA50000 		movl	$165, %edx
 4385      00
 4386 1f34 4889CE   		movq	%rcx, %rsi
 4387 1f37 4889C7   		movq	%rax, %rdi
 4388 1f3a E8000000 		call	_ZN8UnitTest11TestDetailsC1ERKS0_i
 4388      00
 165:TestCheckMacros.cpp ****     }
 4389              		.loc 6 165 0 is_stmt 0 discriminator 13
 4390 1f3f E8000000 		call	_ZN8UnitTest11CurrentTest7ResultsEv
 4390      00
 4391 1f44 488B00   		movq	(%rax), %rax
 4392 1f47 488D8D90 		leaq	-2160(%rbp), %rcx
 4392      F7FFFF
 4393 1f4e BA000000 		movl	$.LC43, %edx
 4393      00
 4394 1f53 4889CE   		movq	%rcx, %rsi
 4395 1f56 4889C7   		movq	%rax, %rdi
 4396 1f59 E8000000 		call	_ZN8UnitTest11TestResults13OnTestFailureERKNS_11TestDetailsEPKc
 4396      00
 4397              	.LEHE138:
 4398              	.LEHB139:
 165:TestCheckMacros.cpp ****     }
 4399              		.loc 6 165 0 discriminator 17
 4400 1f5e E8000000 		call	__cxa_end_catch
 4400      00
 4401              	.LEHE139:
 165:TestCheckMacros.cpp ****     }
 4402              		.loc 6 165 0
 4403 1f63 E92FFEFF 		jmp	.L228
 4403      FF
 4404              	.L248:
 4405 1f68 4889C3   		movq	%rax, %rbx
 4406 1f6b E8000000 		call	__cxa_end_catch
 4406      00
 4407 1f70 EB03     		jmp	.L230
 4408              	.L247:
 4409 1f72 4889C3   		movq	%rax, %rbx
 4410              	.L230:
 163:TestCheckMacros.cpp **** 
 4411              		.loc 6 163 0 is_stmt 1
 4412 1f75 488D8540 		leaq	-2240(%rbp), %rax
 4412      F7FFFF
 4413 1f7c 4889C7   		movq	%rax, %rdi
 4414 1f7f E8000000 		call	_ZN17ScopedCurrentTestD1Ev
 4414      00
 4415 1f84 E9710100 		jmp	.L231
 4415      00
 4416              	.L250:
 4417              	.LBE40:
 168:TestCheckMacros.cpp ****     CHECK_EQUAL("suiteName", reporter.lastFailedSuite);
 4418              		.loc 6 168 0
 4419 1f89 4889C7   		movq	%rax, %rdi
 4420 1f8c E8000000 		call	__cxa_begin_catch
 4420      00
 4421              	.LEHB140:
 4422 1f91 E8000000 		call	_ZN8UnitTest11CurrentTest7DetailsEv
 4422      00
 4423 1f96 488B08   		movq	(%rax), %rcx
 4424 1f99 488D8590 		leaq	-2160(%rbp), %rax
 4424      F7FFFF
 4425 1fa0 BAA80000 		movl	$168, %edx
 4425      00
 4426 1fa5 4889CE   		movq	%rcx, %rsi
 4427 1fa8 4889C7   		movq	%rax, %rdi
 4428 1fab E8000000 		call	_ZN8UnitTest11TestDetailsC1ERKS0_i
 4428      00
 168:TestCheckMacros.cpp ****     CHECK_EQUAL("suiteName", reporter.lastFailedSuite);
 4429              		.loc 6 168 0 is_stmt 0 discriminator 10
 4430 1fb0 E8000000 		call	_ZN8UnitTest11CurrentTest7ResultsEv
 4430      00
 4431 1fb5 488B00   		movq	(%rax), %rax
 4432 1fb8 488D8D90 		leaq	-2160(%rbp), %rcx
 4432      F7FFFF
 4433 1fbf BA000000 		movl	$.LC38, %edx
 4433      00
 4434 1fc4 4889CE   		movq	%rcx, %rsi
 4435 1fc7 4889C7   		movq	%rax, %rdi
 4436 1fca E8000000 		call	_ZN8UnitTest11TestResults13OnTestFailureERKNS_11TestDetailsEPKc
 4436      00
 4437              	.LEHE140:
 4438              	.LEHB141:
 168:TestCheckMacros.cpp ****     CHECK_EQUAL("suiteName", reporter.lastFailedSuite);
 4439              		.loc 6 168 0 discriminator 14
 4440 1fcf E8000000 		call	__cxa_end_catch
 4440      00
 4441              	.LEHE141:
 168:TestCheckMacros.cpp ****     CHECK_EQUAL("suiteName", reporter.lastFailedSuite);
 4442              		.loc 6 168 0
 4443 1fd4 E926FEFF 		jmp	.L233
 4443      FF
 4444              	.L251:
 4445 1fd9 4889C3   		movq	%rax, %rbx
 4446 1fdc E8000000 		call	__cxa_end_catch
 4446      00
 4447 1fe1 E9140100 		jmp	.L231
 4447      00
 4448              	.L252:
 169:TestCheckMacros.cpp ****     CHECK_EQUAL("filename", reporter.lastFailedFile);
 4449              		.loc 6 169 0 is_stmt 1
 4450 1fe6 4889C7   		movq	%rax, %rdi
 4451 1fe9 E8000000 		call	__cxa_begin_catch
 4451      00
 4452              	.LEHB142:
 4453 1fee E8000000 		call	_ZN8UnitTest11CurrentTest7DetailsEv
 4453      00
 4454 1ff3 488B08   		movq	(%rax), %rcx
 4455 1ff6 488D8590 		leaq	-2160(%rbp), %rax
 4455      F7FFFF
 4456 1ffd BAA90000 		movl	$169, %edx
 4456      00
 4457 2002 4889CE   		movq	%rcx, %rsi
 4458 2005 4889C7   		movq	%rax, %rdi
 4459 2008 E8000000 		call	_ZN8UnitTest11TestDetailsC1ERKS0_i
 4459      00
 169:TestCheckMacros.cpp ****     CHECK_EQUAL("filename", reporter.lastFailedFile);
 4460              		.loc 6 169 0 is_stmt 0 discriminator 10
 4461 200d E8000000 		call	_ZN8UnitTest11CurrentTest7ResultsEv
 4461      00
 4462 2012 488B00   		movq	(%rax), %rax
 4463 2015 488D8D90 		leaq	-2160(%rbp), %rcx
 4463      F7FFFF
 4464 201c BA000000 		movl	$.LC39, %edx
 4464      00
 4465 2021 4889CE   		movq	%rcx, %rsi
 4466 2024 4889C7   		movq	%rax, %rdi
 4467 2027 E8000000 		call	_ZN8UnitTest11TestResults13OnTestFailureERKNS_11TestDetailsEPKc
 4467      00
 4468              	.LEHE142:
 4469              	.LEHB143:
 169:TestCheckMacros.cpp ****     CHECK_EQUAL("filename", reporter.lastFailedFile);
 4470              		.loc 6 169 0 discriminator 14
 4471 202c E8000000 		call	__cxa_end_catch
 4471      00
 4472              	.LEHE143:
 169:TestCheckMacros.cpp ****     CHECK_EQUAL("filename", reporter.lastFailedFile);
 4473              		.loc 6 169 0
 4474 2031 E918FEFF 		jmp	.L236
 4474      FF
 4475              	.L253:
 4476 2036 4889C3   		movq	%rax, %rbx
 4477 2039 E8000000 		call	__cxa_end_catch
 4477      00
 4478 203e E9B70000 		jmp	.L231
 4478      00
 4479              	.L254:
 170:TestCheckMacros.cpp ****     CHECK_EQUAL(line, reporter.lastFailedLine);
 4480              		.loc 6 170 0 is_stmt 1
 4481 2043 4889C7   		movq	%rax, %rdi
 4482 2046 E8000000 		call	__cxa_begin_catch
 4482      00
 4483              	.LEHB144:
 4484 204b E8000000 		call	_ZN8UnitTest11CurrentTest7DetailsEv
 4484      00
 4485 2050 488B08   		movq	(%rax), %rcx
 4486 2053 488D8590 		leaq	-2160(%rbp), %rax
 4486      F7FFFF
 4487 205a BAAA0000 		movl	$170, %edx
 4487      00
 4488 205f 4889CE   		movq	%rcx, %rsi
 4489 2062 4889C7   		movq	%rax, %rdi
 4490 2065 E8000000 		call	_ZN8UnitTest11TestDetailsC1ERKS0_i
 4490      00
 170:TestCheckMacros.cpp ****     CHECK_EQUAL(line, reporter.lastFailedLine);
 4491              		.loc 6 170 0 is_stmt 0 discriminator 10
 4492 206a E8000000 		call	_ZN8UnitTest11CurrentTest7ResultsEv
 4492      00
 4493 206f 488B00   		movq	(%rax), %rax
 4494 2072 488D8D90 		leaq	-2160(%rbp), %rcx
 4494      F7FFFF
 4495 2079 BA000000 		movl	$.LC40, %edx
 4495      00
 4496 207e 4889CE   		movq	%rcx, %rsi
 4497 2081 4889C7   		movq	%rax, %rdi
 4498 2084 E8000000 		call	_ZN8UnitTest11TestResults13OnTestFailureERKNS_11TestDetailsEPKc
 4498      00
 4499              	.LEHE144:
 4500              	.LEHB145:
 170:TestCheckMacros.cpp ****     CHECK_EQUAL(line, reporter.lastFailedLine);
 4501              		.loc 6 170 0 discriminator 14
 4502 2089 E8000000 		call	__cxa_end_catch
 4502      00
 4503              	.LEHE145:
 170:TestCheckMacros.cpp ****     CHECK_EQUAL(line, reporter.lastFailedLine);
 4504              		.loc 6 170 0
 4505 208e E90AFEFF 		jmp	.L239
 4505      FF
 4506              	.L255:
 4507 2093 4889C3   		movq	%rax, %rbx
 4508 2096 E8000000 		call	__cxa_end_catch
 4508      00
 4509 209b EB5D     		jmp	.L231
 4510              	.L256:
 171:TestCheckMacros.cpp **** }
 4511              		.loc 6 171 0 is_stmt 1
 4512 209d 4889C7   		movq	%rax, %rdi
 4513 20a0 E8000000 		call	__cxa_begin_catch
 4513      00
 4514              	.LEHB146:
 4515 20a5 E8000000 		call	_ZN8UnitTest11CurrentTest7DetailsEv
 4515      00
 4516 20aa 488B08   		movq	(%rax), %rcx
 4517 20ad 488D8590 		leaq	-2160(%rbp), %rax
 4517      F7FFFF
 4518 20b4 BAAB0000 		movl	$171, %edx
 4518      00
 4519 20b9 4889CE   		movq	%rcx, %rsi
 4520 20bc 4889C7   		movq	%rax, %rdi
 4521 20bf E8000000 		call	_ZN8UnitTest11TestDetailsC1ERKS0_i
 4521      00
 171:TestCheckMacros.cpp **** }
 4522              		.loc 6 171 0 is_stmt 0 discriminator 10
 4523 20c4 E8000000 		call	_ZN8UnitTest11CurrentTest7ResultsEv
 4523      00
 4524 20c9 488B00   		movq	(%rax), %rax
 4525 20cc 488D8D90 		leaq	-2160(%rbp), %rcx
 4525      F7FFFF
 4526 20d3 BA000000 		movl	$.LC41, %edx
 4526      00
 4527 20d8 4889CE   		movq	%rcx, %rsi
 4528 20db 4889C7   		movq	%rax, %rdi
 4529 20de E8000000 		call	_ZN8UnitTest11TestResults13OnTestFailureERKNS_11TestDetailsEPKc
 4529      00
 4530              	.LEHE146:
 4531              	.LEHB147:
 171:TestCheckMacros.cpp **** }
 4532              		.loc 6 171 0 discriminator 14
 4533 20e3 E8000000 		call	__cxa_end_catch
 4533      00
 4534              	.LEHE147:
 171:TestCheckMacros.cpp **** }
 4535              		.loc 6 171 0
 4536 20e8 E901FEFF 		jmp	.L242
 4536      FF
 4537              	.L257:
 4538 20ed 4889C3   		movq	%rax, %rbx
 4539 20f0 E8000000 		call	__cxa_end_catch
 4539      00
 4540 20f5 EB03     		jmp	.L231
 4541              	.L249:
 4542 20f7 4889C3   		movq	%rax, %rbx
 4543              	.L231:
 159:TestCheckMacros.cpp ****     {
 4544              		.loc 6 159 0 is_stmt 1
 4545 20fa 488D85B0 		leaq	-2128(%rbp), %rax
 4545      F7FFFF
 4546 2101 4889C7   		movq	%rax, %rdi
 4547 2104 E8000000 		call	_ZN17RecordingReporterD1Ev
 4547      00
 4548 2109 4889D8   		movq	%rbx, %rax
 4549 210c 4889C7   		movq	%rax, %rdi
 4550              	.LEHB148:
 4551 210f E8000000 		call	_Unwind_Resume
 4551      00
 4552              	.LEHE148:
 4553              	.L258:
 4554              		.loc 6 172 0
 4555 2114 E8000000 		call	__stack_chk_fail
 4555      00
 4556              	.L244:
 4557 2119 4881C4D8 		addq	$2264, %rsp
 4557      080000
 4558 2120 5B       		popq	%rbx
 4559 2121 5D       		popq	%rbp
 4560              		.cfi_def_cfa 7, 8
 4561 2122 C3       		ret
 4562              		.cfi_endproc
 4563              	.LFE1132:
 4564              		.section	.gcc_except_table
 4565              		.align 4
 4566              	.LLSDA1132:
 4567 0338 FF       		.byte	0xff
 4568 0339 03       		.byte	0x3
 4569 033a 7D       		.uleb128 .LLSDATT1132-.LLSDATTD1132
 4570              	.LLSDATTD1132:
 4571 033b 01       		.byte	0x1
 4572 033c 75       		.uleb128 .LLSDACSE1132-.LLSDACSB1132
 4573              	.LLSDACSB1132:
 4574 033d 4F       		.uleb128 .LEHB129-.LFB1132
 4575 033e 49       		.uleb128 .LEHE129-.LEHB129
 4576 033f D108     		.uleb128 .L249-.LFB1132
 4577 0341 00       		.uleb128 0
 4578 0342 9801     		.uleb128 .LEHB130-.LFB1132
 4579 0344 1F       		.uleb128 .LEHE130-.LEHB130
 4580 0345 F204     		.uleb128 .L245-.LFB1132
 4581 0347 01       		.uleb128 0x1
 4582 0348 C101     		.uleb128 .LEHB131-.LFB1132
 4583 034a 30       		.uleb128 .LEHE131-.LEHB131
 4584 034b F004     		.uleb128 .L246-.LFB1132
 4585 034d 01       		.uleb128 0x1
 4586 034e 8502     		.uleb128 .LEHB132-.LFB1132
 4587 0350 05       		.uleb128 .LEHE132-.LEHB132
 4588 0351 D108     		.uleb128 .L249-.LFB1132
 4589 0353 00       		.uleb128 0
 4590 0354 8A02     		.uleb128 .LEHB133-.LFB1132
 4591 0356 4F       		.uleb128 .LEHE133-.LEHB133
 4592 0357 E305     		.uleb128 .L250-.LFB1132
 4593 0359 01       		.uleb128 0x1
 4594 035a D902     		.uleb128 .LEHB134-.LFB1132
 4595 035c 4F       		.uleb128 .LEHE134-.LEHB134
 4596 035d C006     		.uleb128 .L252-.LFB1132
 4597 035f 01       		.uleb128 0x1
 4598 0360 A803     		.uleb128 .LEHB135-.LFB1132
 4599 0362 4F       		.uleb128 .LEHE135-.LEHB135
 4600 0363 9D07     		.uleb128 .L254-.LFB1132
 4601 0365 01       		.uleb128 0x1
 4602 0366 F703     		.uleb128 .LEHB136-.LFB1132
 4603 0368 51       		.uleb128 .LEHE136-.LEHB136
 4604 0369 F707     		.uleb128 .L256-.LFB1132
 4605 036b 01       		.uleb128 0x1
 4606 036c D204     		.uleb128 .LEHB137-.LFB1132
 4607 036e 05       		.uleb128 .LEHE137-.LEHB137
 4608 036f 00       		.uleb128 0
 4609 0370 00       		.uleb128 0
 4610 0371 FA04     		.uleb128 .LEHB138-.LFB1132
 4611 0373 3E       		.uleb128 .LEHE138-.LEHB138
 4612 0374 C205     		.uleb128 .L248-.LFB1132
 4613 0376 00       		.uleb128 0
 4614 0377 B805     		.uleb128 .LEHB139-.LFB1132
 4615 0379 05       		.uleb128 .LEHE139-.LEHB139
 4616 037a CC05     		.uleb128 .L247-.LFB1132
 4617 037c 00       		.uleb128 0
 4618 037d EB05     		.uleb128 .LEHB140-.LFB1132
 4619 037f 3E       		.uleb128 .LEHE140-.LEHB140
 4620 0380 B306     		.uleb128 .L251-.LFB1132
 4621 0382 00       		.uleb128 0
 4622 0383 A906     		.uleb128 .LEHB141-.LFB1132
 4623 0385 05       		.uleb128 .LEHE141-.LEHB141
 4624 0386 D108     		.uleb128 .L249-.LFB1132
 4625 0388 00       		.uleb128 0
 4626 0389 C806     		.uleb128 .LEHB142-.LFB1132
 4627 038b 3E       		.uleb128 .LEHE142-.LEHB142
 4628 038c 9007     		.uleb128 .L253-.LFB1132
 4629 038e 00       		.uleb128 0
 4630 038f 8607     		.uleb128 .LEHB143-.LFB1132
 4631 0391 05       		.uleb128 .LEHE143-.LEHB143
 4632 0392 D108     		.uleb128 .L249-.LFB1132
 4633 0394 00       		.uleb128 0
 4634 0395 A507     		.uleb128 .LEHB144-.LFB1132
 4635 0397 3E       		.uleb128 .LEHE144-.LEHB144
 4636 0398 ED07     		.uleb128 .L255-.LFB1132
 4637 039a 00       		.uleb128 0
 4638 039b E307     		.uleb128 .LEHB145-.LFB1132
 4639 039d 05       		.uleb128 .LEHE145-.LEHB145
 4640 039e D108     		.uleb128 .L249-.LFB1132
 4641 03a0 00       		.uleb128 0
 4642 03a1 FF07     		.uleb128 .LEHB146-.LFB1132
 4643 03a3 3E       		.uleb128 .LEHE146-.LEHB146
 4644 03a4 C708     		.uleb128 .L257-.LFB1132
 4645 03a6 00       		.uleb128 0
 4646 03a7 BD08     		.uleb128 .LEHB147-.LFB1132
 4647 03a9 05       		.uleb128 .LEHE147-.LEHB147
 4648 03aa D108     		.uleb128 .L249-.LFB1132
 4649 03ac 00       		.uleb128 0
 4650 03ad E908     		.uleb128 .LEHB148-.LFB1132
 4651 03af 05       		.uleb128 .LEHE148-.LEHB148
 4652 03b0 00       		.uleb128 0
 4653 03b1 00       		.uleb128 0
 4654              	.LLSDACSE1132:
 4655 03b2 01       		.byte	0x1
 4656 03b3 00       		.byte	0
 4657              		.align 4
 4658 03b4 00000000 		.long	0
 4659              	
 4660              	.LLSDATT1132:
 4661              		.text
 4663              		.section	.rodata
 4664 06ac 00000000 		.align 8
 4665              	.LC44:
 4666 06b0 43686563 		.string	"CheckEqualFailureBecauseOfExceptionIncludesCheckContents"
 4666      6B457175 
 4666      616C4661 
 4666      696C7572 
 4666      65426563 
 4667              		.text
 4668 2123 90       		.align 2
 4670              	_ZN12_GLOBAL__N_160TestCheckEqualFailureBecauseOfExceptionIncludesCheckContentsC2Ev:
 4671              	.LFB1134:
 173:TestCheckMacros.cpp **** 
 174:TestCheckMacros.cpp **** TEST(CheckEqualFailureBecauseOfExceptionIncludesCheckContents)
 4672              		.loc 6 174 0
 4673              		.cfi_startproc
 4674 2124 55       		pushq	%rbp
 4675              		.cfi_def_cfa_offset 16
 4676              		.cfi_offset 6, -16
 4677 2125 4889E5   		movq	%rsp, %rbp
 4678              		.cfi_def_cfa_register 6
 4679 2128 4883EC10 		subq	$16, %rsp
 4680 212c 48897DF8 		movq	%rdi, -8(%rbp)
 4681              	.LBB41:
 4682              		.loc 6 174 0
 4683 2130 E8000000 		call	_ZN13UnitTestSuite12GetSuiteNameEv
 4683      00
 4684 2135 4889C2   		movq	%rax, %rdx
 4685 2138 488B45F8 		movq	-8(%rbp), %rax
 4686 213c 41B8AE00 		movl	$174, %r8d
 4686      0000
 4687 2142 B9000000 		movl	$.LC2, %ecx
 4687      00
 4688 2147 BE000000 		movl	$.LC44, %esi
 4688      00
 4689 214c 4889C7   		movq	%rax, %rdi
 4690 214f E8000000 		call	_ZN8UnitTest4TestC2EPKcS2_S2_i
 4690      00
 4691 2154 BA000000 		movl	$_ZTVN12_GLOBAL__N_160TestCheckEqualFailureBecauseOfExceptionIncludesCheckContentsE+16, %edx
 4691      00
 4692 2159 488B45F8 		movq	-8(%rbp), %rax
 4693 215d 488910   		movq	%rdx, (%rax)
 4694              	.LBE41:
 4695 2160 90       		nop
 4696 2161 C9       		leave
 4697              		.cfi_def_cfa 7, 8
 4698 2162 C3       		ret
 4699              		.cfi_endproc
 4700              	.LFE1134:
 4702              		.set	_ZN12_GLOBAL__N_160TestCheckEqualFailureBecauseOfExceptionIncludesCheckContentsC1Ev,_ZN12_GLO
 4703              		.local	_ZN12_GLOBAL__N_168testCheckEqualFailureBecauseOfExceptionIncludesCheckContentsInstanceE
 4704              		.comm	_ZN12_GLOBAL__N_168testCheckEqualFailureBecauseOfExceptionIncludesCheckContentsInstanceE,56,
 4705              		.local	_ZN12_GLOBAL__N_161adderCheckEqualFailureBecauseOfExceptionIncludesCheckContentsE
 4706              		.comm	_ZN12_GLOBAL__N_161adderCheckEqualFailureBecauseOfExceptionIncludesCheckContentsE,1,1
 4707              		.section	.rodata
 4708              	.LC45:
 4709 06e9 5468726F 		.string	"ThrowingFunction()"
 4709      77696E67 
 4709      46756E63 
 4709      74696F6E 
 4709      282900
 4710 06fc 00000000 		.align 8
 4711              	.LC46:
 4712 0700 73747273 		.string	"strstr(reporter.lastFailedMessage, \"ThrowingFunction()\")"
 4712      74722872 
 4712      65706F72 
 4712      7465722E 
 4712      6C617374 
 4713              	.LC47:
 4714 0739 31323300 		.string	"123"
 4715 073d 000000   		.align 8
 4716              	.LC48:
 4717 0740 73747273 		.string	"strstr(reporter.lastFailedMessage, \"123\")"
 4717      74722872 
 4717      65706F72 
 4717      7465722E 
 4717      6C617374 
 4718 076a 00000000 		.align 8
 4718      0000
 4719              	.LC49:
 4720 0770 556E6861 		.string	"Unhandled exception in CHECK(strstr(reporter.lastFailedMessage, \"ThrowingFunction()\"))"
 4720      6E646C65 
 4720      64206578 
 4720      63657074 
 4720      696F6E20 
 4721 07c7 00       		.align 8
 4722              	.LC50:
 4723 07c8 556E6861 		.string	"Unhandled exception in CHECK(strstr(reporter.lastFailedMessage, \"123\"))"
 4723      6E646C65 
 4723      64206578 
 4723      63657074 
 4723      696F6E20 
 4724              		.text
 4725 2163 90       		.align 2
 4727              	_ZNK12_GLOBAL__N_160TestCheckEqualFailureBecauseOfExceptionIncludesCheckContents7RunImplEv:
 4728              	.LFB1136:
 175:TestCheckMacros.cpp **** {
 4729              		.loc 6 175 0
 4730              		.cfi_startproc
 4731              		.cfi_personality 0x3,__gxx_personality_v0
 4732              		.cfi_lsda 0x3,.LLSDA1136
 4733 2164 55       		pushq	%rbp
 4734              		.cfi_def_cfa_offset 16
 4735              		.cfi_offset 6, -16
 4736 2165 4889E5   		movq	%rsp, %rbp
 4737              		.cfi_def_cfa_register 6
 4738 2168 53       		pushq	%rbx
 4739 2169 4881ECB8 		subq	$2232, %rsp
 4739      080000
 4740              		.cfi_offset 3, -24
 4741 2170 4889BD48 		movq	%rdi, -2232(%rbp)
 4741      F7FFFF
 4742              		.loc 6 175 0
 4743 2177 64488B04 		movq	%fs:40, %rax
 4743      25280000 
 4743      00
 4744 2180 488945E8 		movq	%rax, -24(%rbp)
 4745 2184 31C0     		xorl	%eax, %eax
 176:TestCheckMacros.cpp ****     RecordingReporter reporter;
 4746              		.loc 6 176 0
 4747 2186 488D85B0 		leaq	-2128(%rbp), %rax
 4747      F7FFFF
 4748 218d 4889C7   		movq	%rax, %rdi
 4749 2190 E8000000 		call	_ZN17RecordingReporterC1Ev
 4749      00
 4750              	.LBB42:
 177:TestCheckMacros.cpp ****     {
 178:TestCheckMacros.cpp ****         UnitTest::TestResults testResults(&reporter);
 4751              		.loc 6 178 0
 4752 2195 488D95B0 		leaq	-2128(%rbp), %rdx
 4752      F7FFFF
 4753 219c 488D8570 		leaq	-2192(%rbp), %rax
 4753      F7FFFF
 4754 21a3 4889D6   		movq	%rdx, %rsi
 4755 21a6 4889C7   		movq	%rax, %rdi
 4756              	.LEHB149:
 4757 21a9 E8000000 		call	_ZN8UnitTest11TestResultsC1EPNS_12TestReporterE
 4757      00
 179:TestCheckMacros.cpp **** 		ScopedCurrentTest scopedResults(testResults);
 4758              		.loc 6 179 0
 4759 21ae 488D8D70 		leaq	-2192(%rbp), %rcx
 4759      F7FFFF
 4760 21b5 488D8560 		leaq	-2208(%rbp), %rax
 4760      F7FFFF
 4761 21bc BA000000 		movl	$0, %edx
 4761      00
 4762 21c1 4889CE   		movq	%rcx, %rsi
 4763 21c4 4889C7   		movq	%rax, %rdi
 4764 21c7 E8000000 		call	_ZN17ScopedCurrentTestC1ERN8UnitTest11TestResultsEPKNS0_11TestDetailsE
 4764      00
 4765              	.LEHE149:
 4766              	.LEHB150:
 180:TestCheckMacros.cpp ****         CHECK_EQUAL(ThrowingFunction(), 123);
 4767              		.loc 6 180 0
 4768 21cc E8000000 		call	_ZN8UnitTest11CurrentTest7DetailsEv
 4768      00
 4769 21d1 488B08   		movq	(%rax), %rcx
 4770 21d4 488D8590 		leaq	-2160(%rbp), %rax
 4770      F7FFFF
 4771 21db BAB40000 		movl	$180, %edx
 4771      00
 4772 21e0 4889CE   		movq	%rcx, %rsi
 4773 21e3 4889C7   		movq	%rax, %rdi
 4774 21e6 E8000000 		call	_ZN8UnitTest11TestDetailsC1ERKS0_i
 4774      00
 4775              	.LEHE150:
 4776              		.loc 6 180 0 is_stmt 0 discriminator 2
 4777 21eb C7855CF7 		movl	$123, -2212(%rbp)
 4777      FFFF7B00 
 4777      0000
 4778              	.LEHB151:
 4779 21f5 E84EE8FF 		call	_ZN12_GLOBAL__N_116ThrowingFunctionEv
 4779      FF
 4780 21fa 898558F7 		movl	%eax, -2216(%rbp)
 4780      FFFF
 4781 2200 E8000000 		call	_ZN8UnitTest11CurrentTest7ResultsEv
 4781      00
 4782              		.loc 6 180 0 discriminator 4
 4783 2205 488B00   		movq	(%rax), %rax
 4784 2208 488D8D90 		leaq	-2160(%rbp), %rcx
 4784      F7FFFF
 4785 220f 488D955C 		leaq	-2212(%rbp), %rdx
 4785      F7FFFF
 4786 2216 488DB558 		leaq	-2216(%rbp), %rsi
 4786      F7FFFF
 4787 221d 4889C7   		movq	%rax, %rdi
 4788 2220 E8000000 		call	_ZN8UnitTest10CheckEqualIiiEEvRNS_11TestResultsERKT_RKT0_RKNS_11TestDetailsE
 4788      00
 4789              	.LEHE151:
 4790              	.L265:
 179:TestCheckMacros.cpp **** 		ScopedCurrentTest scopedResults(testResults);
 4791              		.loc 6 179 0 is_stmt 1
 4792 2225 488D8560 		leaq	-2208(%rbp), %rax
 4792      F7FFFF
 4793 222c 4889C7   		movq	%rax, %rdi
 4794              	.LEHB152:
 4795 222f E8000000 		call	_ZN17ScopedCurrentTestD1Ev
 4795      00
 4796              	.LEHE152:
 4797              	.LBE42:
 181:TestCheckMacros.cpp ****     }
 182:TestCheckMacros.cpp **** 
 183:TestCheckMacros.cpp ****     CHECK(strstr(reporter.lastFailedMessage, "ThrowingFunction()"));
 4798              		.loc 6 183 0
 4799 2234 488D85B0 		leaq	-2128(%rbp), %rax
 4799      F7FFFF
 4800 223b 48051405 		addq	$1300, %rax
 4800      0000
 4801 2241 BE000000 		movl	$.LC45, %esi
 4801      00
 4802 2246 4889C7   		movq	%rax, %rdi
 4803 2249 E8000000 		call	strstr
 4803      00
 4804 224e 4889C7   		movq	%rax, %rdi
 4805 2251 E8000000 		call	_ZN8UnitTest5CheckIPcEEbT_
 4805      00
 4806 2256 83F001   		xorl	$1, %eax
 4807 2259 84C0     		testb	%al, %al
 4808 225b 743E     		je	.L261
 4809              	.LEHB153:
 4810              		.loc 6 183 0 is_stmt 0 discriminator 1
 4811 225d E8000000 		call	_ZN8UnitTest11CurrentTest7DetailsEv
 4811      00
 4812 2262 488B08   		movq	(%rax), %rcx
 4813 2265 488D8590 		leaq	-2160(%rbp), %rax
 4813      F7FFFF
 4814 226c BAB70000 		movl	$183, %edx
 4814      00
 4815 2271 4889CE   		movq	%rcx, %rsi
 4816 2274 4889C7   		movq	%rax, %rdi
 4817 2277 E8000000 		call	_ZN8UnitTest11TestDetailsC1ERKS0_i
 4817      00
 4818              		.loc 6 183 0 discriminator 3
 4819 227c E8000000 		call	_ZN8UnitTest11CurrentTest7ResultsEv
 4819      00
 4820 2281 488B00   		movq	(%rax), %rax
 4821 2284 488D8D90 		leaq	-2160(%rbp), %rcx
 4821      F7FFFF
 4822 228b BA000000 		movl	$.LC46, %edx
 4822      00
 4823 2290 4889CE   		movq	%rcx, %rsi
 4824 2293 4889C7   		movq	%rax, %rdi
 4825 2296 E8000000 		call	_ZN8UnitTest11TestResults13OnTestFailureERKNS_11TestDetailsEPKc
 4825      00
 4826              	.LEHE153:
 4827              	.L261:
 184:TestCheckMacros.cpp ****     CHECK(strstr(reporter.lastFailedMessage, "123"));
 4828              		.loc 6 184 0 is_stmt 1
 4829 229b 488D85B0 		leaq	-2128(%rbp), %rax
 4829      F7FFFF
 4830 22a2 48051405 		addq	$1300, %rax
 4830      0000
 4831 22a8 BE000000 		movl	$.LC47, %esi
 4831      00
 4832 22ad 4889C7   		movq	%rax, %rdi
 4833 22b0 E8000000 		call	strstr
 4833      00
 4834 22b5 4889C7   		movq	%rax, %rdi
 4835 22b8 E8000000 		call	_ZN8UnitTest5CheckIPcEEbT_
 4835      00
 4836 22bd 83F001   		xorl	$1, %eax
 4837 22c0 84C0     		testb	%al, %al
 4838 22c2 743E     		je	.L262
 4839              	.LEHB154:
 4840              		.loc 6 184 0 is_stmt 0 discriminator 1
 4841 22c4 E8000000 		call	_ZN8UnitTest11CurrentTest7DetailsEv
 4841      00
 4842 22c9 488B08   		movq	(%rax), %rcx
 4843 22cc 488D8590 		leaq	-2160(%rbp), %rax
 4843      F7FFFF
 4844 22d3 BAB80000 		movl	$184, %edx
 4844      00
 4845 22d8 4889CE   		movq	%rcx, %rsi
 4846 22db 4889C7   		movq	%rax, %rdi
 4847 22de E8000000 		call	_ZN8UnitTest11TestDetailsC1ERKS0_i
 4847      00
 4848              		.loc 6 184 0 discriminator 3
 4849 22e3 E8000000 		call	_ZN8UnitTest11CurrentTest7ResultsEv
 4849      00
 4850 22e8 488B00   		movq	(%rax), %rax
 4851 22eb 488D8D90 		leaq	-2160(%rbp), %rcx
 4851      F7FFFF
 4852 22f2 BA000000 		movl	$.LC48, %edx
 4852      00
 4853 22f7 4889CE   		movq	%rcx, %rsi
 4854 22fa 4889C7   		movq	%rax, %rdi
 4855 22fd E8000000 		call	_ZN8UnitTest11TestResults13OnTestFailureERKNS_11TestDetailsEPKc
 4855      00
 4856              	.LEHE154:
 4857              	.L262:
 176:TestCheckMacros.cpp ****     {
 4858              		.loc 6 176 0 is_stmt 1
 4859 2302 488D85B0 		leaq	-2128(%rbp), %rax
 4859      F7FFFF
 4860 2309 4889C7   		movq	%rax, %rdi
 4861              	.LEHB155:
 4862 230c E8000000 		call	_ZN17RecordingReporterD1Ev
 4862      00
 4863              	.LEHE155:
 185:TestCheckMacros.cpp **** }
 4864              		.loc 6 185 0
 4865 2311 90       		nop
 4866 2312 488B45E8 		movq	-24(%rbp), %rax
 4867 2316 64483304 		xorq	%fs:40, %rax
 4867      25280000 
 4867      00
 4868 231f 0F844E01 		je	.L273
 4868      0000
 4869 2325 E9440100 		jmp	.L283
 4869      00
 4870              	.L275:
 4871 232a EB00     		jmp	.L264
 4872              	.L274:
 4873              	.L264:
 4874              	.LBB43:
 180:TestCheckMacros.cpp ****     }
