   1              		.file	"TestTest.cpp"
   2              		.text
   3              	.Ltext0:
   4              		.section	.rodata
   5              	.LC0:
   6 0000 44656661 		.string	"DefaultSuite"
   6      756C7453 
   6      75697465 
   6      00
   7              		.section	.text._ZN13UnitTestSuite12GetSuiteNameEv,"axG",@progbits,_ZN13UnitTestSuite12GetSuiteName
   8              		.weak	_ZN13UnitTestSuite12GetSuiteNameEv
  10              	_ZN13UnitTestSuite12GetSuiteNameEv:
  11              	.LFB0:
  12              		.file 1 "../TestSuite.h"
   1:../TestSuite.h **** #ifndef UNITTEST_TESTSUITE_H
   2:../TestSuite.h **** #define UNITTEST_TESTSUITE_H
   3:../TestSuite.h **** 
   4:../TestSuite.h **** namespace UnitTestSuite {
   5:../TestSuite.h **** 
   6:../TestSuite.h ****     inline char const* GetSuiteName ()
   7:../TestSuite.h ****     {
  13              		.loc 1 7 0
  14              		.cfi_startproc
  15 0000 55       		pushq	%rbp
  16              		.cfi_def_cfa_offset 16
  17              		.cfi_offset 6, -16
  18 0001 4889E5   		movq	%rsp, %rbp
  19              		.cfi_def_cfa_register 6
   8:../TestSuite.h ****         return "DefaultSuite";
  20              		.loc 1 8 0
  21 0004 B8000000 		movl	$.LC0, %eax
  21      00
   9:../TestSuite.h ****     }
  22              		.loc 1 9 0
  23 0009 5D       		popq	%rbp
  24              		.cfi_def_cfa 7, 8
  25 000a C3       		ret
  26              		.cfi_endproc
  27              	.LFE0:
  29              		.section	.text._ZN8UnitTest15MemoryOutStreamC1Ev,"axG",@progbits,_ZN8UnitTest15MemoryOutStreamC1Ev
  30              		.align 2
  31              		.weak	_ZN8UnitTest15MemoryOutStreamC1Ev
  33              	_ZN8UnitTest15MemoryOutStreamC1Ev:
  34              	.LFB1057:
  35              		.file 2 "../MemoryOutStream.h"
   1:../MemoryOutStream.h **** #ifndef UNITTEST_MEMORYOUTSTREAM_H
   2:../MemoryOutStream.h **** #define UNITTEST_MEMORYOUTSTREAM_H
   3:../MemoryOutStream.h **** 
   4:../MemoryOutStream.h **** #include "Config.h"
   5:../MemoryOutStream.h **** 
   6:../MemoryOutStream.h **** #ifndef UNITTEST_USE_CUSTOM_STREAMS
   7:../MemoryOutStream.h **** 
   8:../MemoryOutStream.h **** #include <sstream>
   9:../MemoryOutStream.h **** 
  10:../MemoryOutStream.h **** namespace UnitTest
  11:../MemoryOutStream.h **** {
  12:../MemoryOutStream.h **** 
  13:../MemoryOutStream.h **** class MemoryOutStream : public std::ostringstream
  14:../MemoryOutStream.h **** {
  15:../MemoryOutStream.h **** public:
  16:../MemoryOutStream.h ****     MemoryOutStream() {}
  36              		.loc 2 16 0
  37              		.cfi_startproc
  38              		.cfi_personality 0x3,__gxx_personality_v0
  39              		.cfi_lsda 0x3,.LLSDA1057
  40 0000 55       		pushq	%rbp
  41              		.cfi_def_cfa_offset 16
  42              		.cfi_offset 6, -16
  43 0001 4889E5   		movq	%rsp, %rbp
  44              		.cfi_def_cfa_register 6
  45 0004 53       		pushq	%rbx
  46 0005 4883EC18 		subq	$24, %rsp
  47              		.cfi_offset 3, -24
  48 0009 48897DE8 		movq	%rdi, -24(%rbp)
  49              	.LBB2:
  50              		.loc 2 16 0
  51 000d 488B45E8 		movq	-24(%rbp), %rax
  52 0011 48059000 		addq	$144, %rax
  52      0000
  53 0017 4889C7   		movq	%rax, %rdi
  54              	.LEHB0:
  55 001a E8000000 		call	_ZNSt9basic_iosIcSt11char_traitsIcEEC2Ev
  55      00
  56              	.LEHE0:
  57 001f B9000000 		movl	$_ZTTN8UnitTest15MemoryOutStreamE+8, %ecx
  57      00
  58 0024 488B45E8 		movq	-24(%rbp), %rax
  59 0028 BA100000 		movl	$16, %edx
  59      00
  60 002d 4889CE   		movq	%rcx, %rsi
  61 0030 4889C7   		movq	%rax, %rdi
  62              	.LEHB1:
  63 0033 E8000000 		call	_ZNSt7__cxx1119basic_ostringstreamIcSt11char_traitsIcESaIcEEC2ESt13_Ios_Openmode
  63      00
  64              	.LEHE1:
  65              		.loc 2 16 0 is_stmt 0 discriminator 9
  66 0038 BA000000 		movl	$_ZTVN8UnitTest15MemoryOutStreamE+24, %edx
  66      00
  67 003d 488B45E8 		movq	-24(%rbp), %rax
  68 0041 488910   		movq	%rdx, (%rax)
  69 0044 BA900000 		movl	$144, %edx
  69      00
  70 0049 488B45E8 		movq	-24(%rbp), %rax
  71 004d 4801D0   		addq	%rdx, %rax
  72 0050 BA000000 		movl	$_ZTVN8UnitTest15MemoryOutStreamE+64, %edx
  72      00
  73 0055 488910   		movq	%rdx, (%rax)
  74 0058 488B45E8 		movq	-24(%rbp), %rax
  75 005c 4883C070 		addq	$112, %rax
  76 0060 4889C7   		movq	%rax, %rdi
  77              	.LEHB2:
  78 0063 E8000000 		call	_ZNSt7__cxx1112basic_stringIcSt11char_traitsIcESaIcEEC1Ev
  78      00
  79              	.LEHE2:
  80              	.LBE2:
  81              		.loc 2 16 0
  82 0068 EB39     		jmp	.L9
  83              	.L7:
  84 006a 4889C3   		movq	%rax, %rbx
  85              	.LBB3:
  86 006d BA000000 		movl	$_ZTTN8UnitTest15MemoryOutStreamE+8, %edx
  86      00
  87 0072 488B45E8 		movq	-24(%rbp), %rax
  88 0076 4889D6   		movq	%rdx, %rsi
  89 0079 4889C7   		movq	%rax, %rdi
  90 007c E8000000 		call	_ZNSt7__cxx1119basic_ostringstreamIcSt11char_traitsIcESaIcEED2Ev
  90      00
  91 0081 EB03     		jmp	.L8
  92              	.L6:
  93 0083 4889C3   		movq	%rax, %rbx
  94              	.L8:
  95              		.loc 2 16 0 discriminator 28
  96 0086 488B45E8 		movq	-24(%rbp), %rax
  97 008a 48059000 		addq	$144, %rax
  97      0000
  98 0090 4889C7   		movq	%rax, %rdi
  99 0093 E8000000 		call	_ZNSt9basic_iosIcSt11char_traitsIcEED2Ev
  99      00
 100 0098 4889D8   		movq	%rbx, %rax
 101 009b 4889C7   		movq	%rax, %rdi
 102              	.LEHB3:
 103 009e E8000000 		call	_Unwind_Resume
 103      00
 104              	.LEHE3:
 105              	.L9:
 106              	.LBE3:
 107              		.loc 2 16 0
 108 00a3 4883C418 		addq	$24, %rsp
 109 00a7 5B       		popq	%rbx
 110 00a8 5D       		popq	%rbp
 111              		.cfi_def_cfa 7, 8
 112 00a9 C3       		ret
 113              		.cfi_endproc
 114              	.LFE1057:
 115              		.globl	__gxx_personality_v0
 116              		.section	.gcc_except_table._ZN8UnitTest15MemoryOutStreamC1Ev,"aG",@progbits,_ZN8UnitTest15MemoryOu
 117              	.LLSDA1057:
 118 0000 FF       		.byte	0xff
 119 0001 FF       		.byte	0xff
 120 0002 01       		.byte	0x1
 121 0003 12       		.uleb128 .LLSDACSE1057-.LLSDACSB1057
 122              	.LLSDACSB1057:
 123 0004 1A       		.uleb128 .LEHB0-.LFB1057
 124 0005 05       		.uleb128 .LEHE0-.LEHB0
 125 0006 00       		.uleb128 0
 126 0007 00       		.uleb128 0
 127 0008 33       		.uleb128 .LEHB1-.LFB1057
 128 0009 05       		.uleb128 .LEHE1-.LEHB1
 129 000a 8301     		.uleb128 .L6-.LFB1057
 130 000c 00       		.uleb128 0
 131 000d 63       		.uleb128 .LEHB2-.LFB1057
 132 000e 05       		.uleb128 .LEHE2-.LEHB2
 133 000f 6A       		.uleb128 .L7-.LFB1057
 134 0010 00       		.uleb128 0
 135 0011 9E01     		.uleb128 .LEHB3-.LFB1057
 136 0013 05       		.uleb128 .LEHE3-.LEHB3
 137 0014 00       		.uleb128 0
 138 0015 00       		.uleb128 0
 139              	.LLSDACSE1057:
 140              		.section	.text._ZN8UnitTest15MemoryOutStreamC1Ev,"axG",@progbits,_ZN8UnitTest15MemoryOutStreamC1Ev
 142              		.section	.text._ZN17ScopedCurrentTestC2ERN8UnitTest11TestResultsEPKNS0_11TestDetailsE,"axG",@progb
 143              		.align 2
 144              		.weak	_ZN17ScopedCurrentTestC2ERN8UnitTest11TestResultsEPKNS0_11TestDetailsE
 146              	_ZN17ScopedCurrentTestC2ERN8UnitTest11TestResultsEPKNS0_11TestDetailsE:
 147              	.LFB1073:
 148              		.file 3 "ScopedCurrentTest.h"
   1:ScopedCurrentTest.h **** #ifndef UNITTEST_SCOPEDCURRENTTEST_H
   2:ScopedCurrentTest.h **** #define UNITTEST_SCOPEDCURRENTTEST_H
   3:ScopedCurrentTest.h **** 
   4:ScopedCurrentTest.h **** #include "../CurrentTest.h"
   5:ScopedCurrentTest.h **** #include <cstddef>
   6:ScopedCurrentTest.h **** 
   7:ScopedCurrentTest.h **** class ScopedCurrentTest
   8:ScopedCurrentTest.h **** {
   9:ScopedCurrentTest.h **** public:
  10:ScopedCurrentTest.h **** 	ScopedCurrentTest()
  11:ScopedCurrentTest.h **** 		: m_oldTestResults(UnitTest::CurrentTest::Results())
  12:ScopedCurrentTest.h **** 		, m_oldTestDetails(UnitTest::CurrentTest::Details())
  13:ScopedCurrentTest.h **** 	{
  14:ScopedCurrentTest.h **** 	}
  15:ScopedCurrentTest.h **** 
  16:ScopedCurrentTest.h **** 	explicit ScopedCurrentTest(UnitTest::TestResults& newResults, const UnitTest::TestDetails* newDeta
 149              		.loc 3 16 0 is_stmt 1
 150              		.cfi_startproc
 151 0000 55       		pushq	%rbp
 152              		.cfi_def_cfa_offset 16
 153              		.cfi_offset 6, -16
 154 0001 4889E5   		movq	%rsp, %rbp
 155              		.cfi_def_cfa_register 6
 156 0004 4883EC20 		subq	$32, %rsp
 157 0008 48897DF8 		movq	%rdi, -8(%rbp)
 158 000c 488975F0 		movq	%rsi, -16(%rbp)
 159 0010 488955E8 		movq	%rdx, -24(%rbp)
 160              	.LBB4:
  17:ScopedCurrentTest.h **** 		: m_oldTestResults(UnitTest::CurrentTest::Results())
 161              		.loc 3 17 0
 162 0014 E8000000 		call	_ZN8UnitTest11CurrentTest7ResultsEv
 162      00
 163 0019 488B10   		movq	(%rax), %rdx
  18:ScopedCurrentTest.h **** 		, m_oldTestDetails(UnitTest::CurrentTest::Details())
 164              		.loc 3 18 0
 165 001c 488B45F8 		movq	-8(%rbp), %rax
 166 0020 488910   		movq	%rdx, (%rax)
 167 0023 E8000000 		call	_ZN8UnitTest11CurrentTest7DetailsEv
 167      00
 168 0028 488B10   		movq	(%rax), %rdx
 169 002b 488B45F8 		movq	-8(%rbp), %rax
 170 002f 48895008 		movq	%rdx, 8(%rax)
  19:ScopedCurrentTest.h **** 	{
  20:ScopedCurrentTest.h **** 		UnitTest::CurrentTest::Results() = &newResults;
 171              		.loc 3 20 0
 172 0033 E8000000 		call	_ZN8UnitTest11CurrentTest7ResultsEv
 172      00
 173 0038 4889C2   		movq	%rax, %rdx
 174 003b 488B45F0 		movq	-16(%rbp), %rax
 175 003f 488902   		movq	%rax, (%rdx)
  21:ScopedCurrentTest.h **** 
  22:ScopedCurrentTest.h **** 		if (newDetails != NULL)
 176              		.loc 3 22 0
 177 0042 48837DE8 		cmpq	$0, -24(%rbp)
 177      00
 178 0047 740F     		je	.L12
  23:ScopedCurrentTest.h **** 			UnitTest::CurrentTest::Details() = newDetails;
 179              		.loc 3 23 0
 180 0049 E8000000 		call	_ZN8UnitTest11CurrentTest7DetailsEv
 180      00
 181 004e 4889C2   		movq	%rax, %rdx
 182 0051 488B45E8 		movq	-24(%rbp), %rax
 183 0055 488902   		movq	%rax, (%rdx)
 184              	.L12:
 185              	.LBE4:
  24:ScopedCurrentTest.h **** 	}
 186              		.loc 3 24 0
 187 0058 90       		nop
 188 0059 C9       		leave
 189              		.cfi_def_cfa 7, 8
 190 005a C3       		ret
 191              		.cfi_endproc
 192              	.LFE1073:
 194              		.weak	_ZN17ScopedCurrentTestC1ERN8UnitTest11TestResultsEPKNS0_11TestDetailsE
 195              		.set	_ZN17ScopedCurrentTestC1ERN8UnitTest11TestResultsEPKNS0_11TestDetailsE,_ZN17ScopedCurrentTest
 196              		.section	.text._ZN17ScopedCurrentTestD2Ev,"axG",@progbits,_ZN17ScopedCurrentTestD5Ev,comdat
 197              		.align 2
 198              		.weak	_ZN17ScopedCurrentTestD2Ev
 200              	_ZN17ScopedCurrentTestD2Ev:
 201              	.LFB1076:
  25:ScopedCurrentTest.h **** 
  26:ScopedCurrentTest.h **** 	~ScopedCurrentTest()
 202              		.loc 3 26 0
 203              		.cfi_startproc
 204 0000 55       		pushq	%rbp
 205              		.cfi_def_cfa_offset 16
 206              		.cfi_offset 6, -16
 207 0001 4889E5   		movq	%rsp, %rbp
 208              		.cfi_def_cfa_register 6
 209 0004 4883EC10 		subq	$16, %rsp
 210 0008 48897DF8 		movq	%rdi, -8(%rbp)
 211              	.LBB5:
  27:ScopedCurrentTest.h **** 	{
  28:ScopedCurrentTest.h **** 		UnitTest::CurrentTest::Results() = m_oldTestResults;
 212              		.loc 3 28 0
 213 000c E8000000 		call	_ZN8UnitTest11CurrentTest7ResultsEv
 213      00
 214 0011 4889C2   		movq	%rax, %rdx
 215 0014 488B45F8 		movq	-8(%rbp), %rax
 216 0018 488B00   		movq	(%rax), %rax
 217 001b 488902   		movq	%rax, (%rdx)
  29:ScopedCurrentTest.h **** 		UnitTest::CurrentTest::Details() = m_oldTestDetails;
 218              		.loc 3 29 0
 219 001e E8000000 		call	_ZN8UnitTest11CurrentTest7DetailsEv
 219      00
 220 0023 4889C2   		movq	%rax, %rdx
 221 0026 488B45F8 		movq	-8(%rbp), %rax
 222 002a 488B4008 		movq	8(%rax), %rax
 223 002e 488902   		movq	%rax, (%rdx)
 224              	.LBE5:
  30:ScopedCurrentTest.h **** 	}
 225              		.loc 3 30 0
 226 0031 90       		nop
 227 0032 C9       		leave
 228              		.cfi_def_cfa 7, 8
 229 0033 C3       		ret
 230              		.cfi_endproc
 231              	.LFE1076:
 233              		.weak	_ZN17ScopedCurrentTestD1Ev
 234              		.set	_ZN17ScopedCurrentTestD1Ev,_ZN17ScopedCurrentTestD2Ev
 235              		.section	.rodata
 236              	.LC1:
 237 000d 54657374 		.string	"TestTest.cpp"
 237      54657374 
 237      2E637070 
 237      00
 238              	.LC2:
 239 001a 50617373 		.string	"PassingTestHasNoFailures"
 239      696E6754 
 239      65737448 
 239      61734E6F 
 239      4661696C 
 240              		.text
 241              		.align 2
 243              	_ZN12_GLOBAL__N_128TestPassingTestHasNoFailuresC2Ev:
 244              	.LFB1079:
 245              		.file 4 "TestTest.cpp"
   1:TestTest.cpp  **** #include "../UnitTest++.h"
   2:TestTest.cpp  **** #include "../TestReporter.h"
   3:TestTest.cpp  **** #include "../TimeHelpers.h"
   4:TestTest.cpp  **** #include "ScopedCurrentTest.h"
   5:TestTest.cpp  **** 
   6:TestTest.cpp  **** using namespace UnitTest;
   7:TestTest.cpp  **** 
   8:TestTest.cpp  **** namespace {
   9:TestTest.cpp  **** 
  10:TestTest.cpp  **** TEST(PassingTestHasNoFailures)
 246              		.loc 4 10 0
 247              		.cfi_startproc
 248 0000 55       		pushq	%rbp
 249              		.cfi_def_cfa_offset 16
 250              		.cfi_offset 6, -16
 251 0001 4889E5   		movq	%rsp, %rbp
 252              		.cfi_def_cfa_register 6
 253 0004 4883EC10 		subq	$16, %rsp
 254 0008 48897DF8 		movq	%rdi, -8(%rbp)
 255              	.LBB6:
 256              		.loc 4 10 0
 257 000c E8000000 		call	_ZN13UnitTestSuite12GetSuiteNameEv
 257      00
 258 0011 4889C2   		movq	%rax, %rdx
 259 0014 488B45F8 		movq	-8(%rbp), %rax
 260 0018 41B80A00 		movl	$10, %r8d
 260      0000
 261 001e B9000000 		movl	$.LC1, %ecx
 261      00
 262 0023 BE000000 		movl	$.LC2, %esi
 262      00
 263 0028 4889C7   		movq	%rax, %rdi
 264 002b E8000000 		call	_ZN8UnitTest4TestC2EPKcS2_S2_i
 264      00
 265 0030 BA000000 		movl	$_ZTVN12_GLOBAL__N_128TestPassingTestHasNoFailuresE+16, %edx
 265      00
 266 0035 488B45F8 		movq	-8(%rbp), %rax
 267 0039 488910   		movq	%rdx, (%rax)
 268              	.LBE6:
 269 003c 90       		nop
 270 003d C9       		leave
 271              		.cfi_def_cfa 7, 8
 272 003e C3       		ret
 273              		.cfi_endproc
 274              	.LFE1079:
 276              		.set	_ZN12_GLOBAL__N_128TestPassingTestHasNoFailuresC1Ev,_ZN12_GLOBAL__N_128TestPassingTestHasNoFa
 277              		.local	_ZN12_GLOBAL__N_136testPassingTestHasNoFailuresInstanceE
 278              		.comm	_ZN12_GLOBAL__N_136testPassingTestHasNoFailuresInstanceE,56,32
 279              		.local	_ZN12_GLOBAL__N_129adderPassingTestHasNoFailuresE
 280              		.comm	_ZN12_GLOBAL__N_129adderPassingTestHasNoFailuresE,1,1
 281              		.section	.rodata
 282              	.LC3:
 283 0033 00       		.string	""
 284              	.LC4:
 285 0034 70617373 		.string	"passing"
 285      696E6700 
 286              		.text
 287 003f 90       		.align 2
 289              	_ZZNK12_GLOBAL__N_128TestPassingTestHasNoFailures7RunImplEvEN11PassingTestC2Ev:
 290              	.LFB1083:
  11:TestTest.cpp  **** {
  12:TestTest.cpp  ****     class PassingTest : public Test
  13:TestTest.cpp  ****     {
  14:TestTest.cpp  ****     public:
  15:TestTest.cpp  ****         PassingTest() : Test("passing") {}
 291              		.loc 4 15 0
 292              		.cfi_startproc
 293 0040 55       		pushq	%rbp
 294              		.cfi_def_cfa_offset 16
 295              		.cfi_offset 6, -16
 296 0041 4889E5   		movq	%rsp, %rbp
 297              		.cfi_def_cfa_register 6
 298 0044 4883EC10 		subq	$16, %rsp
 299 0048 48897DF8 		movq	%rdi, -8(%rbp)
 300              	.LBB7:
 301              		.loc 4 15 0
 302 004c 488B45F8 		movq	-8(%rbp), %rax
 303 0050 41B80000 		movl	$0, %r8d
 303      0000
 304 0056 B9000000 		movl	$.LC3, %ecx
 304      00
 305 005b BA000000 		movl	$.LC0, %edx
 305      00
 306 0060 BE000000 		movl	$.LC4, %esi
 306      00
 307 0065 4889C7   		movq	%rax, %rdi
 308 0068 E8000000 		call	_ZN8UnitTest4TestC2EPKcS2_S2_i
 308      00
 309 006d BA000000 		movl	$_ZTVZNK12_GLOBAL__N_128TestPassingTestHasNoFailures7RunImplEvE11PassingTest+16, %edx
 309      00
 310 0072 488B45F8 		movq	-8(%rbp), %rax
 311 0076 488910   		movq	%rdx, (%rax)
 312              	.LBE7:
 313 0079 90       		nop
 314 007a C9       		leave
 315              		.cfi_def_cfa 7, 8
 316 007b C3       		ret
 317              		.cfi_endproc
 318              	.LFE1083:
 320              		.set	_ZZNK12_GLOBAL__N_128TestPassingTestHasNoFailures7RunImplEvEN11PassingTestC1Ev,_ZZNK12_GLOBAL
 321              		.section	.rodata
 322              	.LC5:
 323 003c 74727565 		.string	"true"
 323      00
 324 0041 00000000 		.align 8
 324      000000
 325              	.LC6:
 326 0048 556E6861 		.string	"Unhandled exception in CHECK(true)"
 326      6E646C65 
 326      64206578 
 326      63657074 
 326      696F6E20 
 327              		.text
 328              		.align 2
 330              	_ZZNK12_GLOBAL__N_128TestPassingTestHasNoFailures7RunImplEvENK11PassingTest7RunImplEv:
 331              	.LFB1085:
  16:TestTest.cpp  ****         virtual void RunImpl() const
 332              		.loc 4 16 0
 333              		.cfi_startproc
 334              		.cfi_personality 0x3,__gxx_personality_v0
 335              		.cfi_lsda 0x3,.LLSDA1085
 336 007c 55       		pushq	%rbp
 337              		.cfi_def_cfa_offset 16
 338              		.cfi_offset 6, -16
 339 007d 4889E5   		movq	%rsp, %rbp
 340              		.cfi_def_cfa_register 6
 341 0080 53       		pushq	%rbx
 342 0081 4883EC48 		subq	$72, %rsp
 343              		.cfi_offset 3, -24
 344 0085 48897DB8 		movq	%rdi, -72(%rbp)
 345              		.loc 4 16 0
 346 0089 64488B04 		movq	%fs:40, %rax
 346      25280000 
 346      00
 347 0092 488945E8 		movq	%rax, -24(%rbp)
 348 0096 31C0     		xorl	%eax, %eax
  17:TestTest.cpp  ****         {
  18:TestTest.cpp  ****             CHECK(true);
 349              		.loc 4 18 0
 350 0098 BF010000 		movl	$1, %edi
 350      00
 351 009d E8000000 		call	_ZN8UnitTest5CheckIbEEbT_
 351      00
 352 00a2 83F001   		xorl	$1, %eax
 353 00a5 84C0     		testb	%al, %al
 354 00a7 0F849400 		je	.L23
 354      0000
 355              	.LEHB4:
 356              		.loc 4 18 0 is_stmt 0 discriminator 1
 357 00ad E8000000 		call	_ZN8UnitTest11CurrentTest7DetailsEv
 357      00
 358 00b2 488B08   		movq	(%rax), %rcx
 359 00b5 488D45C0 		leaq	-64(%rbp), %rax
 360 00b9 BA120000 		movl	$18, %edx
 360      00
 361 00be 4889CE   		movq	%rcx, %rsi
 362 00c1 4889C7   		movq	%rax, %rdi
 363 00c4 E8000000 		call	_ZN8UnitTest11TestDetailsC1ERKS0_i
 363      00
 364              		.loc 4 18 0 discriminator 3
 365 00c9 E8000000 		call	_ZN8UnitTest11CurrentTest7ResultsEv
 365      00
 366 00ce 488B00   		movq	(%rax), %rax
 367 00d1 488D4DC0 		leaq	-64(%rbp), %rcx
 368 00d5 BA000000 		movl	$.LC5, %edx
 368      00
 369 00da 4889CE   		movq	%rcx, %rsi
 370 00dd 4889C7   		movq	%rax, %rdi
 371 00e0 E8000000 		call	_ZN8UnitTest11TestResults13OnTestFailureERKNS_11TestDetailsEPKc
 371      00
 372              	.LEHE4:
  19:TestTest.cpp  ****         }
 373              		.loc 4 19 0 is_stmt 1
 374 00e5 EB5A     		jmp	.L23
 375              	.L21:
  18:TestTest.cpp  ****         }
 376              		.loc 4 18 0
 377 00e7 4889C7   		movq	%rax, %rdi
 378 00ea E8000000 		call	__cxa_begin_catch
 378      00
 379              	.LEHB5:
 380 00ef E8000000 		call	_ZN8UnitTest11CurrentTest7DetailsEv
 380      00
 381 00f4 488B08   		movq	(%rax), %rcx
 382 00f7 488D45C0 		leaq	-64(%rbp), %rax
 383 00fb BA120000 		movl	$18, %edx
 383      00
 384 0100 4889CE   		movq	%rcx, %rsi
 385 0103 4889C7   		movq	%rax, %rdi
 386 0106 E8000000 		call	_ZN8UnitTest11TestDetailsC1ERKS0_i
 386      00
  18:TestTest.cpp  ****         }
 387              		.loc 4 18 0 is_stmt 0 discriminator 11
 388 010b E8000000 		call	_ZN8UnitTest11CurrentTest7ResultsEv
 388      00
 389 0110 488B00   		movq	(%rax), %rax
 390 0113 488D4DC0 		leaq	-64(%rbp), %rcx
 391 0117 BA000000 		movl	$.LC6, %edx
 391      00
 392 011c 4889CE   		movq	%rcx, %rsi
 393 011f 4889C7   		movq	%rax, %rdi
 394 0122 E8000000 		call	_ZN8UnitTest11TestResults13OnTestFailureERKNS_11TestDetailsEPKc
 394      00
 395              	.LEHE5:
 396              	.LEHB6:
  18:TestTest.cpp  ****         }
 397              		.loc 4 18 0 discriminator 15
 398 0127 E8000000 		call	__cxa_end_catch
 398      00
 399              	.LEHE6:
 400              		.loc 4 19 0 is_stmt 1 discriminator 15
 401 012c EB13     		jmp	.L23
 402              	.L22:
 403 012e 4889C3   		movq	%rax, %rbx
  18:TestTest.cpp  ****         }
 404              		.loc 4 18 0
 405 0131 E8000000 		call	__cxa_end_catch
 405      00
 406 0136 4889D8   		movq	%rbx, %rax
 407 0139 4889C7   		movq	%rax, %rdi
 408              	.LEHB7:
 409 013c E8000000 		call	_Unwind_Resume
 409      00
 410              	.LEHE7:
 411              	.L23:
 412              		.loc 4 19 0
 413 0141 90       		nop
 414 0142 488B45E8 		movq	-24(%rbp), %rax
 415 0146 64483304 		xorq	%fs:40, %rax
 415      25280000 
 415      00
 416 014f 7405     		je	.L20
 417 0151 E8000000 		call	__stack_chk_fail
 417      00
 418              	.L20:
 419 0156 4883C448 		addq	$72, %rsp
 420 015a 5B       		popq	%rbx
 421 015b 5D       		popq	%rbp
 422              		.cfi_def_cfa 7, 8
 423 015c C3       		ret
 424              		.cfi_endproc
 425              	.LFE1085:
 426              		.section	.gcc_except_table,"a",@progbits
 427              		.align 4
 428              	.LLSDA1085:
 429 0000 FF       		.byte	0xff
 430 0001 03       		.byte	0x3
 431 0002 1D       		.uleb128 .LLSDATT1085-.LLSDATTD1085
 432              	.LLSDATTD1085:
 433 0003 01       		.byte	0x1
 434 0004 13       		.uleb128 .LLSDACSE1085-.LLSDACSB1085
 435              	.LLSDACSB1085:
 436 0005 31       		.uleb128 .LEHB4-.LFB1085
 437 0006 38       		.uleb128 .LEHE4-.LEHB4
 438 0007 6B       		.uleb128 .L21-.LFB1085
 439 0008 01       		.uleb128 0x1
 440 0009 73       		.uleb128 .LEHB5-.LFB1085
 441 000a 38       		.uleb128 .LEHE5-.LEHB5
 442 000b B201     		.uleb128 .L22-.LFB1085
 443 000d 00       		.uleb128 0
 444 000e AB01     		.uleb128 .LEHB6-.LFB1085
 445 0010 05       		.uleb128 .LEHE6-.LEHB6
 446 0011 00       		.uleb128 0
 447 0012 00       		.uleb128 0
 448 0013 C001     		.uleb128 .LEHB7-.LFB1085
 449 0015 05       		.uleb128 .LEHE7-.LEHB7
 450 0016 00       		.uleb128 0
 451 0017 00       		.uleb128 0
 452              	.LLSDACSE1085:
 453 0018 01       		.byte	0x1
 454 0019 00       		.byte	0
 455 001a 0000     		.align 4
 456 001c 00000000 		.long	0
 457              	
 458              	.LLSDATT1085:
 459              		.text
 461              		.section	.rodata
 462 006b 00000000 		.align 8
 462      00
 463              	.LC7:
 464 0070 556E6861 		.string	"Unhandled exception in CHECK_EQUAL(0, results.GetFailureCount())"
 464      6E646C65 
 464      64206578 
 464      63657074 
 464      696F6E20 
 465              		.text
 466 015d 90       		.align 2
 468              	_ZNK12_GLOBAL__N_128TestPassingTestHasNoFailures7RunImplEv:
 469              	.LFB1081:
  11:TestTest.cpp  ****     class PassingTest : public Test
 470              		.loc 4 11 0
 471              		.cfi_startproc
 472              		.cfi_personality 0x3,__gxx_personality_v0
 473              		.cfi_lsda 0x3,.LLSDA1081
 474 015e 55       		pushq	%rbp
 475              		.cfi_def_cfa_offset 16
 476              		.cfi_offset 6, -16
 477 015f 4889E5   		movq	%rsp, %rbp
 478              		.cfi_def_cfa_register 6
 479 0162 53       		pushq	%rbx
 480 0163 4881EC98 		subq	$152, %rsp
 480      000000
 481              		.cfi_offset 3, -24
 482 016a 4889BD68 		movq	%rdi, -152(%rbp)
 482      FFFFFF
  11:TestTest.cpp  ****     class PassingTest : public Test
 483              		.loc 4 11 0
 484 0171 64488B04 		movq	%fs:40, %rax
 484      25280000 
 484      00
 485 017a 488945E8 		movq	%rax, -24(%rbp)
 486 017e 31C0     		xorl	%eax, %eax
  20:TestTest.cpp  ****     };
  21:TestTest.cpp  **** 
  22:TestTest.cpp  ****     TestResults results;
 487              		.loc 4 22 0
 488 0180 488D4590 		leaq	-112(%rbp), %rax
 489 0184 BE000000 		movl	$0, %esi
 489      00
 490 0189 4889C7   		movq	%rax, %rdi
 491              	.LEHB8:
 492 018c E8000000 		call	_ZN8UnitTest11TestResultsC1EPNS_12TestReporterE
 492      00
 493              	.LBB8:
  23:TestTest.cpp  **** 	{
  24:TestTest.cpp  **** 		ScopedCurrentTest scopedResults(results);
 494              		.loc 4 24 0
 495 0191 488D4D90 		leaq	-112(%rbp), %rcx
 496 0195 488D4580 		leaq	-128(%rbp), %rax
 497 0199 BA000000 		movl	$0, %edx
 497      00
 498 019e 4889CE   		movq	%rcx, %rsi
 499 01a1 4889C7   		movq	%rax, %rdi
 500 01a4 E8000000 		call	_ZN17ScopedCurrentTestC1ERN8UnitTest11TestResultsEPKNS0_11TestDetailsE
 500      00
 501              	.LEHE8:
  25:TestTest.cpp  **** 		PassingTest().Run();
 502              		.loc 4 25 0
 503 01a9 488D45B0 		leaq	-80(%rbp), %rax
 504 01ad 4889C7   		movq	%rax, %rdi
 505              	.LEHB9:
 506 01b0 E88BFEFF 		call	_ZZNK12_GLOBAL__N_128TestPassingTestHasNoFailures7RunImplEvEN11PassingTestC1Ev
 506      FF
 507              	.LEHE9:
 508              		.loc 4 25 0 is_stmt 0 discriminator 1
 509 01b5 488D45B0 		leaq	-80(%rbp), %rax
 510 01b9 4889C7   		movq	%rax, %rdi
 511              	.LEHB10:
 512 01bc E8000000 		call	_ZN8UnitTest4Test3RunEv
 512      00
 513              	.LEHE10:
 514              		.loc 4 25 0 discriminator 3
 515 01c1 488D45B0 		leaq	-80(%rbp), %rax
 516 01c5 4889C7   		movq	%rax, %rdi
 517              	.LEHB11:
 518 01c8 E84B1200 		call	_ZZNK12_GLOBAL__N_128TestPassingTestHasNoFailures7RunImplEvEN11PassingTestD1Ev
 518      00
 519              	.LEHE11:
  24:TestTest.cpp  **** 		PassingTest().Run();
 520              		.loc 4 24 0 is_stmt 1 discriminator 4
 521 01cd 488D4580 		leaq	-128(%rbp), %rax
 522 01d1 4889C7   		movq	%rax, %rdi
 523              	.LEHB12:
 524 01d4 E8000000 		call	_ZN17ScopedCurrentTestD1Ev
 524      00
 525              	.LEHE12:
 526              	.LEHB13:
 527              	.LBE8:
  26:TestTest.cpp  **** 	}
  27:TestTest.cpp  **** 
  28:TestTest.cpp  ****     CHECK_EQUAL(0, results.GetFailureCount());
 528              		.loc 4 28 0 discriminator 4
 529 01d9 E8000000 		call	_ZN8UnitTest11CurrentTest7DetailsEv
 529      00
 530 01de 488B08   		movq	(%rax), %rcx
 531 01e1 488D45B0 		leaq	-80(%rbp), %rax
 532 01e5 BA1C0000 		movl	$28, %edx
 532      00
 533 01ea 4889CE   		movq	%rcx, %rsi
 534 01ed 4889C7   		movq	%rax, %rdi
 535 01f0 E8000000 		call	_ZN8UnitTest11TestDetailsC1ERKS0_i
 535      00
 536              		.loc 4 28 0 is_stmt 0 discriminator 2
 537 01f5 488D4590 		leaq	-112(%rbp), %rax
 538 01f9 4889C7   		movq	%rax, %rdi
 539 01fc E8000000 		call	_ZNK8UnitTest11TestResults15GetFailureCountEv
 539      00
 540              	.LEHE13:
 541 0201 894580   		movl	%eax, -128(%rbp)
 542 0204 C7857CFF 		movl	$0, -132(%rbp)
 542      FFFF0000 
 542      0000
 543              	.LEHB14:
 544 020e E8000000 		call	_ZN8UnitTest11CurrentTest7ResultsEv
 544      00
 545              		.loc 4 28 0 discriminator 4
 546 0213 488B00   		movq	(%rax), %rax
 547 0216 488D4DB0 		leaq	-80(%rbp), %rcx
 548 021a 488D5580 		leaq	-128(%rbp), %rdx
 549 021e 488DB57C 		leaq	-132(%rbp), %rsi
 549      FFFFFF
 550 0225 4889C7   		movq	%rax, %rdi
 551 0228 E8000000 		call	_ZN8UnitTest10CheckEqualIiiEEvRNS_11TestResultsERKT_RKT0_RKNS_11TestDetailsE
 551      00
 552              	.LEHE14:
  29:TestTest.cpp  **** }
 553              		.loc 4 29 0 is_stmt 1
 554 022d E9870000 		jmp	.L24
 554      00
 555              	.L33:
 556 0232 4889C3   		movq	%rax, %rbx
 557              	.LBB9:
  25:TestTest.cpp  **** 	}
 558              		.loc 4 25 0
 559 0235 488D45B0 		leaq	-80(%rbp), %rax
 560 0239 4889C7   		movq	%rax, %rdi
 561 023c E8D71100 		call	_ZZNK12_GLOBAL__N_128TestPassingTestHasNoFailures7RunImplEvEN11PassingTestD1Ev
 561      00
 562 0241 EB03     		jmp	.L26
 563              	.L32:
 564 0243 4889C3   		movq	%rax, %rbx
 565              	.L26:
  24:TestTest.cpp  **** 		PassingTest().Run();
 566              		.loc 4 24 0
 567 0246 488D4580 		leaq	-128(%rbp), %rax
 568 024a 4889C7   		movq	%rax, %rdi
 569 024d E8000000 		call	_ZN17ScopedCurrentTestD1Ev
 569      00
 570 0252 4889D8   		movq	%rbx, %rax
 571 0255 4889C7   		movq	%rax, %rdi
 572              	.LEHB15:
 573 0258 E8000000 		call	_Unwind_Resume
 573      00
 574              	.LEHE15:
 575              	.L35:
 576 025d EB00     		jmp	.L28
 577              	.L34:
 578              	.L28:
 579              	.LBE9:
  28:TestTest.cpp  **** }
 580              		.loc 4 28 0
 581 025f 4889C7   		movq	%rax, %rdi
 582 0262 E8000000 		call	__cxa_begin_catch
 582      00
 583              	.LEHB16:
 584 0267 E8000000 		call	_ZN8UnitTest11CurrentTest7DetailsEv
 584      00
 585 026c 488B08   		movq	(%rax), %rcx
 586 026f 488D45B0 		leaq	-80(%rbp), %rax
 587 0273 BA1C0000 		movl	$28, %edx
 587      00
 588 0278 4889CE   		movq	%rcx, %rsi
 589 027b 4889C7   		movq	%rax, %rdi
 590 027e E8000000 		call	_ZN8UnitTest11TestDetailsC1ERKS0_i
 590      00
  28:TestTest.cpp  **** }
 591              		.loc 4 28 0 is_stmt 0 discriminator 12
 592 0283 E8000000 		call	_ZN8UnitTest11CurrentTest7ResultsEv
 592      00
 593 0288 488B00   		movq	(%rax), %rax
 594 028b 488D4DB0 		leaq	-80(%rbp), %rcx
 595 028f BA000000 		movl	$.LC7, %edx
 595      00
 596 0294 4889CE   		movq	%rcx, %rsi
 597 0297 4889C7   		movq	%rax, %rdi
 598 029a E8000000 		call	_ZN8UnitTest11TestResults13OnTestFailureERKNS_11TestDetailsEPKc
 598      00
 599              	.LEHE16:
 600              	.LEHB17:
  28:TestTest.cpp  **** }
 601              		.loc 4 28 0 discriminator 16
 602 029f E8000000 		call	__cxa_end_catch
 602      00
 603              	.LEHE17:
 604              		.loc 4 29 0 is_stmt 1 discriminator 16
 605 02a4 EB13     		jmp	.L24
 606              	.L36:
 607 02a6 4889C3   		movq	%rax, %rbx
  28:TestTest.cpp  **** }
 608              		.loc 4 28 0
 609 02a9 E8000000 		call	__cxa_end_catch
 609      00
 610 02ae 4889D8   		movq	%rbx, %rax
 611 02b1 4889C7   		movq	%rax, %rdi
 612              	.LEHB18:
 613 02b4 E8000000 		call	_Unwind_Resume
 613      00
 614              	.LEHE18:
 615              	.L24:
 616              		.loc 4 29 0
 617 02b9 488B45E8 		movq	-24(%rbp), %rax
 618 02bd 64483304 		xorq	%fs:40, %rax
 618      25280000 
 618      00
 619 02c6 7405     		je	.L31
 620 02c8 E8000000 		call	__stack_chk_fail
 620      00
 621              	.L31:
 622 02cd 4881C498 		addq	$152, %rsp
 622      000000
 623 02d4 5B       		popq	%rbx
 624 02d5 5D       		popq	%rbp
 625              		.cfi_def_cfa 7, 8
 626 02d6 C3       		ret
 627              		.cfi_endproc
 628              	.LFE1081:
 629              		.section	.gcc_except_table
 630              		.align 4
 631              	.LLSDA1081:
 632 0020 FF       		.byte	0xff
 633 0021 03       		.byte	0x3
 634 0022 41       		.uleb128 .LLSDATT1081-.LLSDATTD1081
 635              	.LLSDATTD1081:
 636 0023 01       		.byte	0x1
 637 0024 37       		.uleb128 .LLSDACSE1081-.LLSDACSB1081
 638              	.LLSDACSB1081:
 639 0025 2E       		.uleb128 .LEHB8-.LFB1081
 640 0026 1D       		.uleb128 .LEHE8-.LEHB8
 641 0027 00       		.uleb128 0
 642 0028 00       		.uleb128 0
 643 0029 52       		.uleb128 .LEHB9-.LFB1081
 644 002a 05       		.uleb128 .LEHE9-.LEHB9
 645 002b E501     		.uleb128 .L32-.LFB1081
 646 002d 00       		.uleb128 0
 647 002e 5E       		.uleb128 .LEHB10-.LFB1081
 648 002f 05       		.uleb128 .LEHE10-.LEHB10
 649 0030 D401     		.uleb128 .L33-.LFB1081
 650 0032 00       		.uleb128 0
 651 0033 6A       		.uleb128 .LEHB11-.LFB1081
 652 0034 05       		.uleb128 .LEHE11-.LEHB11
 653 0035 E501     		.uleb128 .L32-.LFB1081
 654 0037 00       		.uleb128 0
 655 0038 76       		.uleb128 .LEHB12-.LFB1081
 656 0039 05       		.uleb128 .LEHE12-.LEHB12
 657 003a 00       		.uleb128 0
 658 003b 00       		.uleb128 0
 659 003c 7B       		.uleb128 .LEHB13-.LFB1081
 660 003d 28       		.uleb128 .LEHE13-.LEHB13
 661 003e 8102     		.uleb128 .L34-.LFB1081
 662 0040 01       		.uleb128 0x1
 663 0041 B001     		.uleb128 .LEHB14-.LFB1081
 664 0043 1F       		.uleb128 .LEHE14-.LEHB14
 665 0044 FF01     		.uleb128 .L35-.LFB1081
 666 0046 03       		.uleb128 0x3
 667 0047 FA01     		.uleb128 .LEHB15-.LFB1081
 668 0049 05       		.uleb128 .LEHE15-.LEHB15
 669 004a 00       		.uleb128 0
 670 004b 00       		.uleb128 0
 671 004c 8902     		.uleb128 .LEHB16-.LFB1081
 672 004e 38       		.uleb128 .LEHE16-.LEHB16
 673 004f C802     		.uleb128 .L36-.LFB1081
 674 0051 00       		.uleb128 0
 675 0052 C102     		.uleb128 .LEHB17-.LFB1081
 676 0054 05       		.uleb128 .LEHE17-.LEHB17
 677 0055 00       		.uleb128 0
 678 0056 00       		.uleb128 0
 679 0057 D602     		.uleb128 .LEHB18-.LFB1081
 680 0059 05       		.uleb128 .LEHE18-.LEHB18
 681 005a 00       		.uleb128 0
 682 005b 00       		.uleb128 0
 683              	.LLSDACSE1081:
 684 005c 01       		.byte	0x1
 685 005d 00       		.byte	0
 686 005e 00       		.byte	0
 687 005f 7D       		.byte	0x7d
 688              		.align 4
 689 0060 00000000 		.long	0
 690              	
 691              	.LLSDATT1081:
 692              		.text
 694              		.section	.rodata
 695              	.LC8:
 696 00b1 4661696C 		.string	"FailingTestHasFailures"
 696      696E6754 
 696      65737448 
 696      61734661 
 696      696C7572 
 697              		.text
 698 02d7 90       		.align 2
 700              	_ZN12_GLOBAL__N_126TestFailingTestHasFailuresC2Ev:
 701              	.LFB1087:
  30:TestTest.cpp  **** 
  31:TestTest.cpp  **** 
  32:TestTest.cpp  **** TEST(FailingTestHasFailures)
 702              		.loc 4 32 0
 703              		.cfi_startproc
 704 02d8 55       		pushq	%rbp
 705              		.cfi_def_cfa_offset 16
 706              		.cfi_offset 6, -16
 707 02d9 4889E5   		movq	%rsp, %rbp
 708              		.cfi_def_cfa_register 6
 709 02dc 4883EC10 		subq	$16, %rsp
 710 02e0 48897DF8 		movq	%rdi, -8(%rbp)
 711              	.LBB10:
 712              		.loc 4 32 0
 713 02e4 E8000000 		call	_ZN13UnitTestSuite12GetSuiteNameEv
 713      00
 714 02e9 4889C2   		movq	%rax, %rdx
 715 02ec 488B45F8 		movq	-8(%rbp), %rax
 716 02f0 41B82000 		movl	$32, %r8d
 716      0000
 717 02f6 B9000000 		movl	$.LC1, %ecx
 717      00
 718 02fb BE000000 		movl	$.LC8, %esi
 718      00
 719 0300 4889C7   		movq	%rax, %rdi
 720 0303 E8000000 		call	_ZN8UnitTest4TestC2EPKcS2_S2_i
 720      00
 721 0308 BA000000 		movl	$_ZTVN12_GLOBAL__N_126TestFailingTestHasFailuresE+16, %edx
 721      00
 722 030d 488B45F8 		movq	-8(%rbp), %rax
 723 0311 488910   		movq	%rdx, (%rax)
 724              	.LBE10:
 725 0314 90       		nop
 726 0315 C9       		leave
 727              		.cfi_def_cfa 7, 8
 728 0316 C3       		ret
 729              		.cfi_endproc
 730              	.LFE1087:
 732              		.set	_ZN12_GLOBAL__N_126TestFailingTestHasFailuresC1Ev,_ZN12_GLOBAL__N_126TestFailingTestHasFailur
 733              		.local	_ZN12_GLOBAL__N_134testFailingTestHasFailuresInstanceE
 734              		.comm	_ZN12_GLOBAL__N_134testFailingTestHasFailuresInstanceE,56,32
 735              		.local	_ZN12_GLOBAL__N_127adderFailingTestHasFailuresE
 736              		.comm	_ZN12_GLOBAL__N_127adderFailingTestHasFailuresE,1,1
 737              		.section	.rodata
 738              	.LC9:
 739 00c8 6661696C 		.string	"failing"
 739      696E6700 
 740              		.text
 741 0317 90       		.align 2
 743              	_ZZNK12_GLOBAL__N_126TestFailingTestHasFailures7RunImplEvEN11FailingTestC2Ev:
 744              	.LFB1091:
  33:TestTest.cpp  **** {
  34:TestTest.cpp  ****     class FailingTest : public Test
  35:TestTest.cpp  ****     {
  36:TestTest.cpp  ****     public:
  37:TestTest.cpp  ****         FailingTest() : Test("failing") {}
 745              		.loc 4 37 0
 746              		.cfi_startproc
 747 0318 55       		pushq	%rbp
 748              		.cfi_def_cfa_offset 16
 749              		.cfi_offset 6, -16
 750 0319 4889E5   		movq	%rsp, %rbp
 751              		.cfi_def_cfa_register 6
 752 031c 4883EC10 		subq	$16, %rsp
 753 0320 48897DF8 		movq	%rdi, -8(%rbp)
 754              	.LBB11:
 755              		.loc 4 37 0
 756 0324 488B45F8 		movq	-8(%rbp), %rax
 757 0328 41B80000 		movl	$0, %r8d
 757      0000
 758 032e B9000000 		movl	$.LC3, %ecx
 758      00
 759 0333 BA000000 		movl	$.LC0, %edx
 759      00
 760 0338 BE000000 		movl	$.LC9, %esi
 760      00
 761 033d 4889C7   		movq	%rax, %rdi
 762 0340 E8000000 		call	_ZN8UnitTest4TestC2EPKcS2_S2_i
 762      00
 763 0345 BA000000 		movl	$_ZTVZNK12_GLOBAL__N_126TestFailingTestHasFailures7RunImplEvE11FailingTest+16, %edx
 763      00
 764 034a 488B45F8 		movq	-8(%rbp), %rax
 765 034e 488910   		movq	%rdx, (%rax)
 766              	.LBE11:
 767 0351 90       		nop
 768 0352 C9       		leave
 769              		.cfi_def_cfa 7, 8
 770 0353 C3       		ret
 771              		.cfi_endproc
 772              	.LFE1091:
 774              		.set	_ZZNK12_GLOBAL__N_126TestFailingTestHasFailures7RunImplEvEN11FailingTestC1Ev,_ZZNK12_GLOBAL__
 775              		.section	.rodata
 776              	.LC10:
 777 00d0 66616C73 		.string	"false"
 777      6500
 778 00d6 0000     		.align 8
 779              	.LC11:
 780 00d8 556E6861 		.string	"Unhandled exception in CHECK(false)"
 780      6E646C65 
 780      64206578 
 780      63657074 
 780      696F6E20 
 781              		.text
 782              		.align 2
 784              	_ZZNK12_GLOBAL__N_126TestFailingTestHasFailures7RunImplEvENK11FailingTest7RunImplEv:
 785              	.LFB1093:
  38:TestTest.cpp  ****         virtual void RunImpl() const
 786              		.loc 4 38 0
 787              		.cfi_startproc
 788              		.cfi_personality 0x3,__gxx_personality_v0
 789              		.cfi_lsda 0x3,.LLSDA1093
 790 0354 55       		pushq	%rbp
 791              		.cfi_def_cfa_offset 16
 792              		.cfi_offset 6, -16
 793 0355 4889E5   		movq	%rsp, %rbp
 794              		.cfi_def_cfa_register 6
 795 0358 53       		pushq	%rbx
 796 0359 4883EC48 		subq	$72, %rsp
 797              		.cfi_offset 3, -24
 798 035d 48897DB8 		movq	%rdi, -72(%rbp)
 799              		.loc 4 38 0
 800 0361 64488B04 		movq	%fs:40, %rax
 800      25280000 
 800      00
 801 036a 488945E8 		movq	%rax, -24(%rbp)
 802 036e 31C0     		xorl	%eax, %eax
  39:TestTest.cpp  ****         {
  40:TestTest.cpp  ****             CHECK(false);
 803              		.loc 4 40 0
 804 0370 BF000000 		movl	$0, %edi
 804      00
 805 0375 E8000000 		call	_ZN8UnitTest5CheckIbEEbT_
 805      00
 806 037a 83F001   		xorl	$1, %eax
 807 037d 84C0     		testb	%al, %al
 808 037f 0F849400 		je	.L46
 808      0000
 809              	.LEHB19:
 810              		.loc 4 40 0 is_stmt 0 discriminator 1
 811 0385 E8000000 		call	_ZN8UnitTest11CurrentTest7DetailsEv
 811      00
 812 038a 488B08   		movq	(%rax), %rcx
 813 038d 488D45C0 		leaq	-64(%rbp), %rax
 814 0391 BA280000 		movl	$40, %edx
 814      00
 815 0396 4889CE   		movq	%rcx, %rsi
 816 0399 4889C7   		movq	%rax, %rdi
 817 039c E8000000 		call	_ZN8UnitTest11TestDetailsC1ERKS0_i
 817      00
 818              		.loc 4 40 0 discriminator 3
 819 03a1 E8000000 		call	_ZN8UnitTest11CurrentTest7ResultsEv
 819      00
 820 03a6 488B00   		movq	(%rax), %rax
 821 03a9 488D4DC0 		leaq	-64(%rbp), %rcx
 822 03ad BA000000 		movl	$.LC10, %edx
 822      00
 823 03b2 4889CE   		movq	%rcx, %rsi
 824 03b5 4889C7   		movq	%rax, %rdi
 825 03b8 E8000000 		call	_ZN8UnitTest11TestResults13OnTestFailureERKNS_11TestDetailsEPKc
 825      00
 826              	.LEHE19:
  41:TestTest.cpp  ****         }
 827              		.loc 4 41 0 is_stmt 1
 828 03bd EB5A     		jmp	.L46
 829              	.L44:
  40:TestTest.cpp  ****         }
 830              		.loc 4 40 0
 831 03bf 4889C7   		movq	%rax, %rdi
 832 03c2 E8000000 		call	__cxa_begin_catch
 832      00
 833              	.LEHB20:
 834 03c7 E8000000 		call	_ZN8UnitTest11CurrentTest7DetailsEv
 834      00
 835 03cc 488B08   		movq	(%rax), %rcx
 836 03cf 488D45C0 		leaq	-64(%rbp), %rax
 837 03d3 BA280000 		movl	$40, %edx
 837      00
 838 03d8 4889CE   		movq	%rcx, %rsi
 839 03db 4889C7   		movq	%rax, %rdi
 840 03de E8000000 		call	_ZN8UnitTest11TestDetailsC1ERKS0_i
 840      00
  40:TestTest.cpp  ****         }
 841              		.loc 4 40 0 is_stmt 0 discriminator 11
 842 03e3 E8000000 		call	_ZN8UnitTest11CurrentTest7ResultsEv
 842      00
 843 03e8 488B00   		movq	(%rax), %rax
 844 03eb 488D4DC0 		leaq	-64(%rbp), %rcx
 845 03ef BA000000 		movl	$.LC11, %edx
 845      00
 846 03f4 4889CE   		movq	%rcx, %rsi
 847 03f7 4889C7   		movq	%rax, %rdi
 848 03fa E8000000 		call	_ZN8UnitTest11TestResults13OnTestFailureERKNS_11TestDetailsEPKc
 848      00
 849              	.LEHE20:
 850              	.LEHB21:
  40:TestTest.cpp  ****         }
 851              		.loc 4 40 0 discriminator 15
 852 03ff E8000000 		call	__cxa_end_catch
 852      00
 853              	.LEHE21:
 854              		.loc 4 41 0 is_stmt 1 discriminator 15
 855 0404 EB13     		jmp	.L46
 856              	.L45:
 857 0406 4889C3   		movq	%rax, %rbx
  40:TestTest.cpp  ****         }
 858              		.loc 4 40 0
 859 0409 E8000000 		call	__cxa_end_catch
 859      00
 860 040e 4889D8   		movq	%rbx, %rax
 861 0411 4889C7   		movq	%rax, %rdi
 862              	.LEHB22:
 863 0414 E8000000 		call	_Unwind_Resume
 863      00
 864              	.LEHE22:
 865              	.L46:
 866              		.loc 4 41 0
 867 0419 90       		nop
 868 041a 488B45E8 		movq	-24(%rbp), %rax
 869 041e 64483304 		xorq	%fs:40, %rax
 869      25280000 
 869      00
 870 0427 7405     		je	.L43
 871 0429 E8000000 		call	__stack_chk_fail
 871      00
 872              	.L43:
 873 042e 4883C448 		addq	$72, %rsp
 874 0432 5B       		popq	%rbx
 875 0433 5D       		popq	%rbp
 876              		.cfi_def_cfa 7, 8
 877 0434 C3       		ret
 878              		.cfi_endproc
 879              	.LFE1093:
 880              		.section	.gcc_except_table
 881              		.align 4
 882              	.LLSDA1093:
 883 0064 FF       		.byte	0xff
 884 0065 03       		.byte	0x3
 885 0066 1D       		.uleb128 .LLSDATT1093-.LLSDATTD1093
 886              	.LLSDATTD1093:
 887 0067 01       		.byte	0x1
 888 0068 13       		.uleb128 .LLSDACSE1093-.LLSDACSB1093
 889              	.LLSDACSB1093:
 890 0069 31       		.uleb128 .LEHB19-.LFB1093
 891 006a 38       		.uleb128 .LEHE19-.LEHB19
 892 006b 6B       		.uleb128 .L44-.LFB1093
 893 006c 01       		.uleb128 0x1
 894 006d 73       		.uleb128 .LEHB20-.LFB1093
 895 006e 38       		.uleb128 .LEHE20-.LEHB20
 896 006f B201     		.uleb128 .L45-.LFB1093
 897 0071 00       		.uleb128 0
 898 0072 AB01     		.uleb128 .LEHB21-.LFB1093
 899 0074 05       		.uleb128 .LEHE21-.LEHB21
 900 0075 00       		.uleb128 0
 901 0076 00       		.uleb128 0
 902 0077 C001     		.uleb128 .LEHB22-.LFB1093
 903 0079 05       		.uleb128 .LEHE22-.LEHB22
 904 007a 00       		.uleb128 0
 905 007b 00       		.uleb128 0
 906              	.LLSDACSE1093:
 907 007c 01       		.byte	0x1
 908 007d 00       		.byte	0
 909 007e 0000     		.align 4
 910 0080 00000000 		.long	0
 911              	
 912              	.LLSDATT1093:
 913              		.text
 915              		.section	.rodata
 916 00fc 00000000 		.align 8
 917              	.LC12:
 918 0100 556E6861 		.string	"Unhandled exception in CHECK_EQUAL(1, results.GetFailureCount())"
 918      6E646C65 
 918      64206578 
 918      63657074 
 918      696F6E20 
 919              		.text
 920 0435 90       		.align 2
 922              	_ZNK12_GLOBAL__N_126TestFailingTestHasFailures7RunImplEv:
 923              	.LFB1089:
  33:TestTest.cpp  ****     class FailingTest : public Test
 924              		.loc 4 33 0
 925              		.cfi_startproc
 926              		.cfi_personality 0x3,__gxx_personality_v0
 927              		.cfi_lsda 0x3,.LLSDA1089
 928 0436 55       		pushq	%rbp
 929              		.cfi_def_cfa_offset 16
 930              		.cfi_offset 6, -16
 931 0437 4889E5   		movq	%rsp, %rbp
 932              		.cfi_def_cfa_register 6
 933 043a 53       		pushq	%rbx
 934 043b 4881EC98 		subq	$152, %rsp
 934      000000
 935              		.cfi_offset 3, -24
 936 0442 4889BD68 		movq	%rdi, -152(%rbp)
 936      FFFFFF
  33:TestTest.cpp  ****     class FailingTest : public Test
 937              		.loc 4 33 0
 938 0449 64488B04 		movq	%fs:40, %rax
 938      25280000 
 938      00
 939 0452 488945E8 		movq	%rax, -24(%rbp)
 940 0456 31C0     		xorl	%eax, %eax
  42:TestTest.cpp  ****     };
  43:TestTest.cpp  **** 
  44:TestTest.cpp  ****     TestResults results;
 941              		.loc 4 44 0
 942 0458 488D4590 		leaq	-112(%rbp), %rax
 943 045c BE000000 		movl	$0, %esi
 943      00
 944 0461 4889C7   		movq	%rax, %rdi
 945              	.LEHB23:
 946 0464 E8000000 		call	_ZN8UnitTest11TestResultsC1EPNS_12TestReporterE
 946      00
 947              	.LBB12:
  45:TestTest.cpp  **** 	{
  46:TestTest.cpp  **** 		ScopedCurrentTest scopedResults(results);
 948              		.loc 4 46 0
 949 0469 488D4D90 		leaq	-112(%rbp), %rcx
 950 046d 488D4580 		leaq	-128(%rbp), %rax
 951 0471 BA000000 		movl	$0, %edx
 951      00
 952 0476 4889CE   		movq	%rcx, %rsi
 953 0479 4889C7   		movq	%rax, %rdi
 954 047c E8000000 		call	_ZN17ScopedCurrentTestC1ERN8UnitTest11TestResultsEPKNS0_11TestDetailsE
 954      00
 955              	.LEHE23:
  47:TestTest.cpp  **** 		FailingTest().Run();
 956              		.loc 4 47 0
 957 0481 488D45B0 		leaq	-80(%rbp), %rax
 958 0485 4889C7   		movq	%rax, %rdi
 959              	.LEHB24:
 960 0488 E88BFEFF 		call	_ZZNK12_GLOBAL__N_126TestFailingTestHasFailures7RunImplEvEN11FailingTestC1Ev
 960      FF
 961              	.LEHE24:
 962              		.loc 4 47 0 is_stmt 0 discriminator 1
 963 048d 488D45B0 		leaq	-80(%rbp), %rax
 964 0491 4889C7   		movq	%rax, %rdi
 965              	.LEHB25:
 966 0494 E8000000 		call	_ZN8UnitTest4Test3RunEv
 966      00
 967              	.LEHE25:
 968              		.loc 4 47 0 discriminator 3
 969 0499 488D45B0 		leaq	-80(%rbp), %rax
 970 049d 4889C7   		movq	%rax, %rdi
 971              	.LEHB26:
 972 04a0 E8AF0E00 		call	_ZZNK12_GLOBAL__N_126TestFailingTestHasFailures7RunImplEvEN11FailingTestD1Ev
 972      00
 973              	.LEHE26:
  46:TestTest.cpp  **** 		FailingTest().Run();
 974              		.loc 4 46 0 is_stmt 1 discriminator 4
 975 04a5 488D4580 		leaq	-128(%rbp), %rax
 976 04a9 4889C7   		movq	%rax, %rdi
 977              	.LEHB27:
 978 04ac E8000000 		call	_ZN17ScopedCurrentTestD1Ev
 978      00
 979              	.LEHE27:
 980              	.LEHB28:
 981              	.LBE12:
  48:TestTest.cpp  **** 	}
  49:TestTest.cpp  **** 
  50:TestTest.cpp  ****     CHECK_EQUAL(1, results.GetFailureCount());
 982              		.loc 4 50 0 discriminator 4
 983 04b1 E8000000 		call	_ZN8UnitTest11CurrentTest7DetailsEv
 983      00
 984 04b6 488B08   		movq	(%rax), %rcx
 985 04b9 488D45B0 		leaq	-80(%rbp), %rax
 986 04bd BA320000 		movl	$50, %edx
 986      00
 987 04c2 4889CE   		movq	%rcx, %rsi
 988 04c5 4889C7   		movq	%rax, %rdi
 989 04c8 E8000000 		call	_ZN8UnitTest11TestDetailsC1ERKS0_i
 989      00
 990              		.loc 4 50 0 is_stmt 0 discriminator 2
 991 04cd 488D4590 		leaq	-112(%rbp), %rax
 992 04d1 4889C7   		movq	%rax, %rdi
 993 04d4 E8000000 		call	_ZNK8UnitTest11TestResults15GetFailureCountEv
 993      00
 994              	.LEHE28:
 995 04d9 894580   		movl	%eax, -128(%rbp)
 996 04dc C7857CFF 		movl	$1, -132(%rbp)
 996      FFFF0100 
 996      0000
 997              	.LEHB29:
 998 04e6 E8000000 		call	_ZN8UnitTest11CurrentTest7ResultsEv
 998      00
 999              		.loc 4 50 0 discriminator 4
 1000 04eb 488B00   		movq	(%rax), %rax
 1001 04ee 488D4DB0 		leaq	-80(%rbp), %rcx
 1002 04f2 488D5580 		leaq	-128(%rbp), %rdx
 1003 04f6 488DB57C 		leaq	-132(%rbp), %rsi
 1003      FFFFFF
 1004 04fd 4889C7   		movq	%rax, %rdi
 1005 0500 E8000000 		call	_ZN8UnitTest10CheckEqualIiiEEvRNS_11TestResultsERKT_RKT0_RKNS_11TestDetailsE
 1005      00
 1006              	.LEHE29:
  51:TestTest.cpp  **** }
 1007              		.loc 4 51 0 is_stmt 1
 1008 0505 E9870000 		jmp	.L47
 1008      00
 1009              	.L56:
 1010 050a 4889C3   		movq	%rax, %rbx
 1011              	.LBB13:
  47:TestTest.cpp  **** 	}
 1012              		.loc 4 47 0
 1013 050d 488D45B0 		leaq	-80(%rbp), %rax
 1014 0511 4889C7   		movq	%rax, %rdi
 1015 0514 E83B0E00 		call	_ZZNK12_GLOBAL__N_126TestFailingTestHasFailures7RunImplEvEN11FailingTestD1Ev
 1015      00
 1016 0519 EB03     		jmp	.L49
 1017              	.L55:
 1018 051b 4889C3   		movq	%rax, %rbx
 1019              	.L49:
  46:TestTest.cpp  **** 		FailingTest().Run();
 1020              		.loc 4 46 0
 1021 051e 488D4580 		leaq	-128(%rbp), %rax
 1022 0522 4889C7   		movq	%rax, %rdi
 1023 0525 E8000000 		call	_ZN17ScopedCurrentTestD1Ev
 1023      00
 1024 052a 4889D8   		movq	%rbx, %rax
 1025 052d 4889C7   		movq	%rax, %rdi
 1026              	.LEHB30:
 1027 0530 E8000000 		call	_Unwind_Resume
 1027      00
 1028              	.LEHE30:
 1029              	.L58:
 1030 0535 EB00     		jmp	.L51
 1031              	.L57:
 1032              	.L51:
 1033              	.LBE13:
  50:TestTest.cpp  **** }
 1034              		.loc 4 50 0
 1035 0537 4889C7   		movq	%rax, %rdi
 1036 053a E8000000 		call	__cxa_begin_catch
 1036      00
 1037              	.LEHB31:
 1038 053f E8000000 		call	_ZN8UnitTest11CurrentTest7DetailsEv
 1038      00
 1039 0544 488B08   		movq	(%rax), %rcx
 1040 0547 488D45B0 		leaq	-80(%rbp), %rax
 1041 054b BA320000 		movl	$50, %edx
 1041      00
 1042 0550 4889CE   		movq	%rcx, %rsi
 1043 0553 4889C7   		movq	%rax, %rdi
 1044 0556 E8000000 		call	_ZN8UnitTest11TestDetailsC1ERKS0_i
 1044      00
  50:TestTest.cpp  **** }
 1045              		.loc 4 50 0 is_stmt 0 discriminator 12
 1046 055b E8000000 		call	_ZN8UnitTest11CurrentTest7ResultsEv
 1046      00
 1047 0560 488B00   		movq	(%rax), %rax
 1048 0563 488D4DB0 		leaq	-80(%rbp), %rcx
 1049 0567 BA000000 		movl	$.LC12, %edx
 1049      00
 1050 056c 4889CE   		movq	%rcx, %rsi
 1051 056f 4889C7   		movq	%rax, %rdi
 1052 0572 E8000000 		call	_ZN8UnitTest11TestResults13OnTestFailureERKNS_11TestDetailsEPKc
 1052      00
 1053              	.LEHE31:
 1054              	.LEHB32:
  50:TestTest.cpp  **** }
 1055              		.loc 4 50 0 discriminator 16
 1056 0577 E8000000 		call	__cxa_end_catch
 1056      00
 1057              	.LEHE32:
 1058              		.loc 4 51 0 is_stmt 1 discriminator 16
 1059 057c EB13     		jmp	.L47
 1060              	.L59:
 1061 057e 4889C3   		movq	%rax, %rbx
  50:TestTest.cpp  **** }
 1062              		.loc 4 50 0
 1063 0581 E8000000 		call	__cxa_end_catch
 1063      00
 1064 0586 4889D8   		movq	%rbx, %rax
 1065 0589 4889C7   		movq	%rax, %rdi
 1066              	.LEHB33:
 1067 058c E8000000 		call	_Unwind_Resume
 1067      00
 1068              	.LEHE33:
 1069              	.L47:
 1070              		.loc 4 51 0
 1071 0591 488B45E8 		movq	-24(%rbp), %rax
 1072 0595 64483304 		xorq	%fs:40, %rax
 1072      25280000 
 1072      00
 1073 059e 7405     		je	.L54
 1074 05a0 E8000000 		call	__stack_chk_fail
 1074      00
 1075              	.L54:
 1076 05a5 4881C498 		addq	$152, %rsp
 1076      000000
 1077 05ac 5B       		popq	%rbx
 1078 05ad 5D       		popq	%rbp
 1079              		.cfi_def_cfa 7, 8
 1080 05ae C3       		ret
 1081              		.cfi_endproc
 1082              	.LFE1089:
 1083              		.section	.gcc_except_table
 1084              		.align 4
 1085              	.LLSDA1089:
 1086 0084 FF       		.byte	0xff
 1087 0085 03       		.byte	0x3
 1088 0086 41       		.uleb128 .LLSDATT1089-.LLSDATTD1089
 1089              	.LLSDATTD1089:
 1090 0087 01       		.byte	0x1
 1091 0088 37       		.uleb128 .LLSDACSE1089-.LLSDACSB1089
 1092              	.LLSDACSB1089:
 1093 0089 2E       		.uleb128 .LEHB23-.LFB1089
 1094 008a 1D       		.uleb128 .LEHE23-.LEHB23
 1095 008b 00       		.uleb128 0
 1096 008c 00       		.uleb128 0
 1097 008d 52       		.uleb128 .LEHB24-.LFB1089
 1098 008e 05       		.uleb128 .LEHE24-.LEHB24
 1099 008f E501     		.uleb128 .L55-.LFB1089
 1100 0091 00       		.uleb128 0
 1101 0092 5E       		.uleb128 .LEHB25-.LFB1089
 1102 0093 05       		.uleb128 .LEHE25-.LEHB25
 1103 0094 D401     		.uleb128 .L56-.LFB1089
 1104 0096 00       		.uleb128 0
 1105 0097 6A       		.uleb128 .LEHB26-.LFB1089
 1106 0098 05       		.uleb128 .LEHE26-.LEHB26
 1107 0099 E501     		.uleb128 .L55-.LFB1089
 1108 009b 00       		.uleb128 0
 1109 009c 76       		.uleb128 .LEHB27-.LFB1089
 1110 009d 05       		.uleb128 .LEHE27-.LEHB27
 1111 009e 00       		.uleb128 0
 1112 009f 00       		.uleb128 0
 1113 00a0 7B       		.uleb128 .LEHB28-.LFB1089
 1114 00a1 28       		.uleb128 .LEHE28-.LEHB28
 1115 00a2 8102     		.uleb128 .L57-.LFB1089
 1116 00a4 01       		.uleb128 0x1
 1117 00a5 B001     		.uleb128 .LEHB29-.LFB1089
 1118 00a7 1F       		.uleb128 .LEHE29-.LEHB29
 1119 00a8 FF01     		.uleb128 .L58-.LFB1089
 1120 00aa 03       		.uleb128 0x3
 1121 00ab FA01     		.uleb128 .LEHB30-.LFB1089
 1122 00ad 05       		.uleb128 .LEHE30-.LEHB30
 1123 00ae 00       		.uleb128 0
 1124 00af 00       		.uleb128 0
 1125 00b0 8902     		.uleb128 .LEHB31-.LFB1089
 1126 00b2 38       		.uleb128 .LEHE31-.LEHB31
 1127 00b3 C802     		.uleb128 .L59-.LFB1089
 1128 00b5 00       		.uleb128 0
 1129 00b6 C102     		.uleb128 .LEHB32-.LFB1089
 1130 00b8 05       		.uleb128 .LEHE32-.LEHB32
 1131 00b9 00       		.uleb128 0
 1132 00ba 00       		.uleb128 0
 1133 00bb D602     		.uleb128 .LEHB33-.LFB1089
 1134 00bd 05       		.uleb128 .LEHE33-.LEHB33
 1135 00be 00       		.uleb128 0
 1136 00bf 00       		.uleb128 0
 1137              	.LLSDACSE1089:
 1138 00c0 01       		.byte	0x1
 1139 00c1 00       		.byte	0
 1140 00c2 00       		.byte	0
 1141 00c3 7D       		.byte	0x7d
 1142              		.align 4
 1143 00c4 00000000 		.long	0
 1144              	
 1145              	.LLSDATT1089:
 1146              		.text
 1148              		.section	.rodata
 1149 0141 00000000 		.align 8
 1149      000000
 1150              	.LC13:
 1151 0148 5468726F 		.string	"ThrowingTestsAreReportedAsFailures"
 1151      77696E67 
 1151      54657374 
 1151      73417265 
 1151      5265706F 
 1152              		.text
 1153 05af 90       		.align 2
 1155              	_ZN12_GLOBAL__N_138TestThrowingTestsAreReportedAsFailuresC2Ev:
 1156              	.LFB1095:
  52:TestTest.cpp  **** 
  53:TestTest.cpp  **** 
  54:TestTest.cpp  **** TEST(ThrowingTestsAreReportedAsFailures)
 1157              		.loc 4 54 0
 1158              		.cfi_startproc
 1159 05b0 55       		pushq	%rbp
 1160              		.cfi_def_cfa_offset 16
 1161              		.cfi_offset 6, -16
 1162 05b1 4889E5   		movq	%rsp, %rbp
 1163              		.cfi_def_cfa_register 6
 1164 05b4 4883EC10 		subq	$16, %rsp
 1165 05b8 48897DF8 		movq	%rdi, -8(%rbp)
 1166              	.LBB14:
 1167              		.loc 4 54 0
 1168 05bc E8000000 		call	_ZN13UnitTestSuite12GetSuiteNameEv
 1168      00
 1169 05c1 4889C2   		movq	%rax, %rdx
 1170 05c4 488B45F8 		movq	-8(%rbp), %rax
 1171 05c8 41B83600 		movl	$54, %r8d
 1171      0000
 1172 05ce B9000000 		movl	$.LC1, %ecx
 1172      00
 1173 05d3 BE000000 		movl	$.LC13, %esi
 1173      00
 1174 05d8 4889C7   		movq	%rax, %rdi
 1175 05db E8000000 		call	_ZN8UnitTest4TestC2EPKcS2_S2_i
 1175      00
 1176 05e0 BA000000 		movl	$_ZTVN12_GLOBAL__N_138TestThrowingTestsAreReportedAsFailuresE+16, %edx
 1176      00
 1177 05e5 488B45F8 		movq	-8(%rbp), %rax
 1178 05e9 488910   		movq	%rdx, (%rax)
 1179              	.LBE14:
 1180 05ec 90       		nop
 1181 05ed C9       		leave
 1182              		.cfi_def_cfa 7, 8
 1183 05ee C3       		ret
 1184              		.cfi_endproc
 1185              	.LFE1095:
 1187              		.set	_ZN12_GLOBAL__N_138TestThrowingTestsAreReportedAsFailuresC1Ev,_ZN12_GLOBAL__N_138TestThrowing
 1188              		.local	_ZN12_GLOBAL__N_146testThrowingTestsAreReportedAsFailuresInstanceE
 1189              		.comm	_ZN12_GLOBAL__N_146testThrowingTestsAreReportedAsFailuresInstanceE,56,32
 1190              		.local	_ZN12_GLOBAL__N_139adderThrowingTestsAreReportedAsFailuresE
 1191              		.comm	_ZN12_GLOBAL__N_139adderThrowingTestsAreReportedAsFailuresE,1,1
 1192              		.section	.rodata
 1193              	.LC14:
 1194 016b 7468726F 		.string	"throwing"
 1194      77696E67 
 1194      00
 1195              		.text
 1196 05ef 90       		.align 2
 1198              	_ZZNK12_GLOBAL__N_138TestThrowingTestsAreReportedAsFailures7RunImplEvEN12CrashingTestC2Ev:
 1199              	.LFB1099:
  55:TestTest.cpp  **** {
  56:TestTest.cpp  ****     class CrashingTest : public Test
  57:TestTest.cpp  ****     {
  58:TestTest.cpp  ****     public:
  59:TestTest.cpp  ****         CrashingTest() : Test("throwing") {}
 1200              		.loc 4 59 0
 1201              		.cfi_startproc
 1202 05f0 55       		pushq	%rbp
 1203              		.cfi_def_cfa_offset 16
 1204              		.cfi_offset 6, -16
 1205 05f1 4889E5   		movq	%rsp, %rbp
 1206              		.cfi_def_cfa_register 6
 1207 05f4 4883EC10 		subq	$16, %rsp
 1208 05f8 48897DF8 		movq	%rdi, -8(%rbp)
 1209              	.LBB15:
 1210              		.loc 4 59 0
 1211 05fc 488B45F8 		movq	-8(%rbp), %rax
 1212 0600 41B80000 		movl	$0, %r8d
 1212      0000
 1213 0606 B9000000 		movl	$.LC3, %ecx
 1213      00
 1214 060b BA000000 		movl	$.LC0, %edx
 1214      00
 1215 0610 BE000000 		movl	$.LC14, %esi
 1215      00
 1216 0615 4889C7   		movq	%rax, %rdi
 1217 0618 E8000000 		call	_ZN8UnitTest4TestC2EPKcS2_S2_i
 1217      00
 1218 061d BA000000 		movl	$_ZTVZNK12_GLOBAL__N_138TestThrowingTestsAreReportedAsFailures7RunImplEvE12CrashingTest+16, %
 1218      00
 1219 0622 488B45F8 		movq	-8(%rbp), %rax
 1220 0626 488910   		movq	%rdx, (%rax)
 1221              	.LBE15:
 1222 0629 90       		nop
 1223 062a C9       		leave
 1224              		.cfi_def_cfa 7, 8
 1225 062b C3       		ret
 1226              		.cfi_endproc
 1227              	.LFE1099:
 1229              		.set	_ZZNK12_GLOBAL__N_138TestThrowingTestsAreReportedAsFailures7RunImplEvEN12CrashingTestC1Ev,_ZZ
 1230              		.section	.rodata
 1231              	.LC15:
 1232 0174 426C6168 		.string	"Blah"
 1232      00
 1233              		.text
 1234              		.align 2
 1236              	_ZZNK12_GLOBAL__N_138TestThrowingTestsAreReportedAsFailures7RunImplEvENK12CrashingTest7RunImplEv:
 1237              	.LFB1101:
  60:TestTest.cpp  ****         virtual void RunImpl() const
 1238              		.loc 4 60 0
 1239              		.cfi_startproc
 1240 062c 55       		pushq	%rbp
 1241              		.cfi_def_cfa_offset 16
 1242              		.cfi_offset 6, -16
 1243 062d 4889E5   		movq	%rsp, %rbp
 1244              		.cfi_def_cfa_register 6
 1245 0630 4883EC10 		subq	$16, %rsp
 1246 0634 48897DF8 		movq	%rdi, -8(%rbp)
  61:TestTest.cpp  ****         {
  62:TestTest.cpp  ****             throw "Blah";
 1247              		.loc 4 62 0
 1248 0638 BF080000 		movl	$8, %edi
 1248      00
 1249 063d E8000000 		call	__cxa_allocate_exception
 1249      00
 1250 0642 48C70000 		movq	$.LC15, (%rax)
 1250      000000
 1251 0649 BA000000 		movl	$0, %edx
 1251      00
 1252 064e BE000000 		movl	$_ZTIPKc, %esi
 1252      00
 1253 0653 4889C7   		movq	%rax, %rdi
 1254 0656 E8000000 		call	__cxa_throw
 1254      00
 1255              		.cfi_endproc
 1256              	.LFE1101:
 1258 065b 90       		.align 2
 1260              	_ZNK12_GLOBAL__N_138TestThrowingTestsAreReportedAsFailures7RunImplEv:
 1261              	.LFB1097:
  55:TestTest.cpp  ****     class CrashingTest : public Test
 1262              		.loc 4 55 0
 1263              		.cfi_startproc
 1264              		.cfi_personality 0x3,__gxx_personality_v0
 1265              		.cfi_lsda 0x3,.LLSDA1097
 1266 065c 55       		pushq	%rbp
 1267              		.cfi_def_cfa_offset 16
 1268              		.cfi_offset 6, -16
 1269 065d 4889E5   		movq	%rsp, %rbp
 1270              		.cfi_def_cfa_register 6
 1271 0660 53       		pushq	%rbx
 1272 0661 4881EC98 		subq	$152, %rsp
 1272      000000
 1273              		.cfi_offset 3, -24
 1274 0668 4889BD68 		movq	%rdi, -152(%rbp)
 1274      FFFFFF
  55:TestTest.cpp  ****     class CrashingTest : public Test
 1275              		.loc 4 55 0
 1276 066f 64488B04 		movq	%fs:40, %rax
 1276      25280000 
 1276      00
 1277 0678 488945E8 		movq	%rax, -24(%rbp)
 1278 067c 31C0     		xorl	%eax, %eax
  63:TestTest.cpp  ****         }
  64:TestTest.cpp  ****     };
  65:TestTest.cpp  ****  
  66:TestTest.cpp  ****     TestResults results;
 1279              		.loc 4 66 0
 1280 067e 488D4590 		leaq	-112(%rbp), %rax
 1281 0682 BE000000 		movl	$0, %esi
 1281      00
 1282 0687 4889C7   		movq	%rax, %rdi
 1283              	.LEHB34:
 1284 068a E8000000 		call	_ZN8UnitTest11TestResultsC1EPNS_12TestReporterE
 1284      00
 1285              	.LBB16:
  67:TestTest.cpp  **** 	{
  68:TestTest.cpp  **** 		ScopedCurrentTest scopedResult(results);
 1286              		.loc 4 68 0
 1287 068f 488D4D90 		leaq	-112(%rbp), %rcx
 1288 0693 488D4580 		leaq	-128(%rbp), %rax
 1289 0697 BA000000 		movl	$0, %edx
 1289      00
 1290 069c 4889CE   		movq	%rcx, %rsi
 1291 069f 4889C7   		movq	%rax, %rdi
 1292 06a2 E8000000 		call	_ZN17ScopedCurrentTestC1ERN8UnitTest11TestResultsEPKNS0_11TestDetailsE
 1292      00
 1293              	.LEHE34:
  69:TestTest.cpp  **** 		CrashingTest().Run();
 1294              		.loc 4 69 0
 1295 06a7 488D45B0 		leaq	-80(%rbp), %rax
 1296 06ab 4889C7   		movq	%rax, %rdi
 1297              	.LEHB35:
 1298 06ae E83DFFFF 		call	_ZZNK12_GLOBAL__N_138TestThrowingTestsAreReportedAsFailures7RunImplEvEN12CrashingTestC1Ev
 1298      FF
 1299              	.LEHE35:
 1300              		.loc 4 69 0 is_stmt 0 discriminator 1
 1301 06b3 488D45B0 		leaq	-80(%rbp), %rax
 1302 06b7 4889C7   		movq	%rax, %rdi
 1303              	.LEHB36:
 1304 06ba E8000000 		call	_ZN8UnitTest4Test3RunEv
 1304      00
 1305              	.LEHE36:
 1306              		.loc 4 69 0 discriminator 3
 1307 06bf 488D45B0 		leaq	-80(%rbp), %rax
 1308 06c3 4889C7   		movq	%rax, %rdi
 1309              	.LEHB37:
 1310 06c6 E8C50B00 		call	_ZZNK12_GLOBAL__N_138TestThrowingTestsAreReportedAsFailures7RunImplEvEN12CrashingTestD1Ev
 1310      00
 1311              	.LEHE37:
  68:TestTest.cpp  **** 		CrashingTest().Run();
 1312              		.loc 4 68 0 is_stmt 1 discriminator 4
 1313 06cb 488D4580 		leaq	-128(%rbp), %rax
 1314 06cf 4889C7   		movq	%rax, %rdi
 1315              	.LEHB38:
 1316 06d2 E8000000 		call	_ZN17ScopedCurrentTestD1Ev
 1316      00
 1317              	.LEHE38:
 1318              	.LEHB39:
 1319              	.LBE16:
  70:TestTest.cpp  **** 	}
  71:TestTest.cpp  **** 
  72:TestTest.cpp  **** 	CHECK_EQUAL(1, results.GetFailureCount());
 1320              		.loc 4 72 0 discriminator 4
 1321 06d7 E8000000 		call	_ZN8UnitTest11CurrentTest7DetailsEv
 1321      00
 1322 06dc 488B08   		movq	(%rax), %rcx
 1323 06df 488D45B0 		leaq	-80(%rbp), %rax
 1324 06e3 BA480000 		movl	$72, %edx
 1324      00
 1325 06e8 4889CE   		movq	%rcx, %rsi
 1326 06eb 4889C7   		movq	%rax, %rdi
 1327 06ee E8000000 		call	_ZN8UnitTest11TestDetailsC1ERKS0_i
 1327      00
 1328              		.loc 4 72 0 is_stmt 0 discriminator 2
 1329 06f3 488D4590 		leaq	-112(%rbp), %rax
 1330 06f7 4889C7   		movq	%rax, %rdi
 1331 06fa E8000000 		call	_ZNK8UnitTest11TestResults15GetFailureCountEv
 1331      00
 1332              	.LEHE39:
 1333 06ff 894580   		movl	%eax, -128(%rbp)
 1334 0702 C7857CFF 		movl	$1, -132(%rbp)
 1334      FFFF0100 
 1334      0000
 1335              	.LEHB40:
 1336 070c E8000000 		call	_ZN8UnitTest11CurrentTest7ResultsEv
 1336      00
 1337              		.loc 4 72 0 discriminator 4
 1338 0711 488B00   		movq	(%rax), %rax
 1339 0714 488D4DB0 		leaq	-80(%rbp), %rcx
 1340 0718 488D5580 		leaq	-128(%rbp), %rdx
 1341 071c 488DB57C 		leaq	-132(%rbp), %rsi
 1341      FFFFFF
 1342 0723 4889C7   		movq	%rax, %rdi
 1343 0726 E8000000 		call	_ZN8UnitTest10CheckEqualIiiEEvRNS_11TestResultsERKT_RKT0_RKNS_11TestDetailsE
 1343      00
 1344              	.LEHE40:
  73:TestTest.cpp  **** }
 1345              		.loc 4 73 0 is_stmt 1
 1346 072b E9870000 		jmp	.L63
 1346      00
 1347              	.L72:
 1348 0730 4889C3   		movq	%rax, %rbx
 1349              	.LBB17:
  69:TestTest.cpp  **** 	}
 1350              		.loc 4 69 0
 1351 0733 488D45B0 		leaq	-80(%rbp), %rax
 1352 0737 4889C7   		movq	%rax, %rdi
 1353 073a E8510B00 		call	_ZZNK12_GLOBAL__N_138TestThrowingTestsAreReportedAsFailures7RunImplEvEN12CrashingTestD1Ev
 1353      00
 1354 073f EB03     		jmp	.L65
 1355              	.L71:
 1356 0741 4889C3   		movq	%rax, %rbx
 1357              	.L65:
  68:TestTest.cpp  **** 		CrashingTest().Run();
 1358              		.loc 4 68 0
 1359 0744 488D4580 		leaq	-128(%rbp), %rax
 1360 0748 4889C7   		movq	%rax, %rdi
 1361 074b E8000000 		call	_ZN17ScopedCurrentTestD1Ev
 1361      00
 1362 0750 4889D8   		movq	%rbx, %rax
 1363 0753 4889C7   		movq	%rax, %rdi
 1364              	.LEHB41:
 1365 0756 E8000000 		call	_Unwind_Resume
 1365      00
 1366              	.LEHE41:
 1367              	.L74:
 1368 075b EB00     		jmp	.L67
 1369              	.L73:
 1370              	.L67:
 1371              	.LBE17:
  72:TestTest.cpp  **** }
 1372              		.loc 4 72 0
 1373 075d 4889C7   		movq	%rax, %rdi
 1374 0760 E8000000 		call	__cxa_begin_catch
 1374      00
 1375              	.LEHB42:
 1376 0765 E8000000 		call	_ZN8UnitTest11CurrentTest7DetailsEv
 1376      00
 1377 076a 488B08   		movq	(%rax), %rcx
 1378 076d 488D45B0 		leaq	-80(%rbp), %rax
 1379 0771 BA480000 		movl	$72, %edx
 1379      00
 1380 0776 4889CE   		movq	%rcx, %rsi
 1381 0779 4889C7   		movq	%rax, %rdi
 1382 077c E8000000 		call	_ZN8UnitTest11TestDetailsC1ERKS0_i
 1382      00
  72:TestTest.cpp  **** }
 1383              		.loc 4 72 0 is_stmt 0 discriminator 12
 1384 0781 E8000000 		call	_ZN8UnitTest11CurrentTest7ResultsEv
 1384      00
 1385 0786 488B00   		movq	(%rax), %rax
 1386 0789 488D4DB0 		leaq	-80(%rbp), %rcx
 1387 078d BA000000 		movl	$.LC12, %edx
 1387      00
 1388 0792 4889CE   		movq	%rcx, %rsi
 1389 0795 4889C7   		movq	%rax, %rdi
 1390 0798 E8000000 		call	_ZN8UnitTest11TestResults13OnTestFailureERKNS_11TestDetailsEPKc
 1390      00
 1391              	.LEHE42:
 1392              	.LEHB43:
  72:TestTest.cpp  **** }
 1393              		.loc 4 72 0 discriminator 16
 1394 079d E8000000 		call	__cxa_end_catch
 1394      00
 1395              	.LEHE43:
 1396              		.loc 4 73 0 is_stmt 1 discriminator 16
 1397 07a2 EB13     		jmp	.L63
 1398              	.L75:
 1399 07a4 4889C3   		movq	%rax, %rbx
  72:TestTest.cpp  **** }
 1400              		.loc 4 72 0
 1401 07a7 E8000000 		call	__cxa_end_catch
 1401      00
 1402 07ac 4889D8   		movq	%rbx, %rax
 1403 07af 4889C7   		movq	%rax, %rdi
 1404              	.LEHB44:
 1405 07b2 E8000000 		call	_Unwind_Resume
 1405      00
 1406              	.LEHE44:
 1407              	.L63:
 1408              		.loc 4 73 0
 1409 07b7 488B45E8 		movq	-24(%rbp), %rax
 1410 07bb 64483304 		xorq	%fs:40, %rax
 1410      25280000 
 1410      00
 1411 07c4 7405     		je	.L70
 1412 07c6 E8000000 		call	__stack_chk_fail
 1412      00
 1413              	.L70:
 1414 07cb 4881C498 		addq	$152, %rsp
 1414      000000
 1415 07d2 5B       		popq	%rbx
 1416 07d3 5D       		popq	%rbp
 1417              		.cfi_def_cfa 7, 8
 1418 07d4 C3       		ret
 1419              		.cfi_endproc
 1420              	.LFE1097:
 1421              		.section	.gcc_except_table
 1422              		.align 4
 1423              	.LLSDA1097:
 1424 00c8 FF       		.byte	0xff
 1425 00c9 03       		.byte	0x3
 1426 00ca 41       		.uleb128 .LLSDATT1097-.LLSDATTD1097
 1427              	.LLSDATTD1097:
 1428 00cb 01       		.byte	0x1
 1429 00cc 37       		.uleb128 .LLSDACSE1097-.LLSDACSB1097
 1430              	.LLSDACSB1097:
 1431 00cd 2E       		.uleb128 .LEHB34-.LFB1097
 1432 00ce 1D       		.uleb128 .LEHE34-.LEHB34
 1433 00cf 00       		.uleb128 0
 1434 00d0 00       		.uleb128 0
 1435 00d1 52       		.uleb128 .LEHB35-.LFB1097
 1436 00d2 05       		.uleb128 .LEHE35-.LEHB35
 1437 00d3 E501     		.uleb128 .L71-.LFB1097
 1438 00d5 00       		.uleb128 0
 1439 00d6 5E       		.uleb128 .LEHB36-.LFB1097
 1440 00d7 05       		.uleb128 .LEHE36-.LEHB36
 1441 00d8 D401     		.uleb128 .L72-.LFB1097
 1442 00da 00       		.uleb128 0
 1443 00db 6A       		.uleb128 .LEHB37-.LFB1097
 1444 00dc 05       		.uleb128 .LEHE37-.LEHB37
 1445 00dd E501     		.uleb128 .L71-.LFB1097
 1446 00df 00       		.uleb128 0
 1447 00e0 76       		.uleb128 .LEHB38-.LFB1097
 1448 00e1 05       		.uleb128 .LEHE38-.LEHB38
 1449 00e2 00       		.uleb128 0
 1450 00e3 00       		.uleb128 0
 1451 00e4 7B       		.uleb128 .LEHB39-.LFB1097
 1452 00e5 28       		.uleb128 .LEHE39-.LEHB39
 1453 00e6 8102     		.uleb128 .L73-.LFB1097
 1454 00e8 01       		.uleb128 0x1
 1455 00e9 B001     		.uleb128 .LEHB40-.LFB1097
 1456 00eb 1F       		.uleb128 .LEHE40-.LEHB40
 1457 00ec FF01     		.uleb128 .L74-.LFB1097
 1458 00ee 03       		.uleb128 0x3
 1459 00ef FA01     		.uleb128 .LEHB41-.LFB1097
 1460 00f1 05       		.uleb128 .LEHE41-.LEHB41
 1461 00f2 00       		.uleb128 0
 1462 00f3 00       		.uleb128 0
 1463 00f4 8902     		.uleb128 .LEHB42-.LFB1097
 1464 00f6 38       		.uleb128 .LEHE42-.LEHB42
 1465 00f7 C802     		.uleb128 .L75-.LFB1097
 1466 00f9 00       		.uleb128 0
 1467 00fa C102     		.uleb128 .LEHB43-.LFB1097
 1468 00fc 05       		.uleb128 .LEHE43-.LEHB43
 1469 00fd 00       		.uleb128 0
 1470 00fe 00       		.uleb128 0
 1471 00ff D602     		.uleb128 .LEHB44-.LFB1097
 1472 0101 05       		.uleb128 .LEHE44-.LEHB44
 1473 0102 00       		.uleb128 0
 1474 0103 00       		.uleb128 0
 1475              	.LLSDACSE1097:
 1476 0104 01       		.byte	0x1
 1477 0105 00       		.byte	0
 1478 0106 00       		.byte	0
 1479 0107 7D       		.byte	0x7d
 1480              		.align 4
 1481 0108 00000000 		.long	0
 1482              	
 1483              	.LLSDATT1097:
 1484              		.text
 1486              		.section	.rodata
 1487 0179 00000000 		.align 8
 1487      000000
 1488              	.LC16:
 1489 0180 43726173 		.string	"CrashingTestsAreReportedAsFailures"
 1489      68696E67 
 1489      54657374 
 1489      73417265 
 1489      5265706F 
 1490              		.text
 1491 07d5 90       		.align 2
 1493              	_ZN12_GLOBAL__N_138TestCrashingTestsAreReportedAsFailuresC2Ev:
 1494              	.LFB1103:
  74:TestTest.cpp  **** 
  75:TestTest.cpp  **** 
  76:TestTest.cpp  **** #ifndef UNITTEST_MINGW
  77:TestTest.cpp  **** TEST(CrashingTestsAreReportedAsFailures)
 1495              		.loc 4 77 0
 1496              		.cfi_startproc
 1497 07d6 55       		pushq	%rbp
 1498              		.cfi_def_cfa_offset 16
 1499              		.cfi_offset 6, -16
 1500 07d7 4889E5   		movq	%rsp, %rbp
 1501              		.cfi_def_cfa_register 6
 1502 07da 4883EC10 		subq	$16, %rsp
 1503 07de 48897DF8 		movq	%rdi, -8(%rbp)
 1504              	.LBB18:
 1505              		.loc 4 77 0
 1506 07e2 E8000000 		call	_ZN13UnitTestSuite12GetSuiteNameEv
 1506      00
 1507 07e7 4889C2   		movq	%rax, %rdx
 1508 07ea 488B45F8 		movq	-8(%rbp), %rax
 1509 07ee 41B84D00 		movl	$77, %r8d
 1509      0000
 1510 07f4 B9000000 		movl	$.LC1, %ecx
 1510      00
 1511 07f9 BE000000 		movl	$.LC16, %esi
 1511      00
 1512 07fe 4889C7   		movq	%rax, %rdi
 1513 0801 E8000000 		call	_ZN8UnitTest4TestC2EPKcS2_S2_i
 1513      00
 1514 0806 BA000000 		movl	$_ZTVN12_GLOBAL__N_138TestCrashingTestsAreReportedAsFailuresE+16, %edx
 1514      00
 1515 080b 488B45F8 		movq	-8(%rbp), %rax
 1516 080f 488910   		movq	%rdx, (%rax)
 1517              	.LBE18:
 1518 0812 90       		nop
 1519 0813 C9       		leave
 1520              		.cfi_def_cfa 7, 8
 1521 0814 C3       		ret
 1522              		.cfi_endproc
 1523              	.LFE1103:
 1525              		.set	_ZN12_GLOBAL__N_138TestCrashingTestsAreReportedAsFailuresC1Ev,_ZN12_GLOBAL__N_138TestCrashing
 1526              		.local	_ZN12_GLOBAL__N_146testCrashingTestsAreReportedAsFailuresInstanceE
 1527              		.comm	_ZN12_GLOBAL__N_146testCrashingTestsAreReportedAsFailuresInstanceE,56,32
 1528              		.local	_ZN12_GLOBAL__N_139adderCrashingTestsAreReportedAsFailuresE
 1529              		.comm	_ZN12_GLOBAL__N_139adderCrashingTestsAreReportedAsFailuresE,1,1
 1530              		.section	.rodata
 1531              	.LC17:
 1532 01a3 63726173 		.string	"crashing"
 1532      68696E67 
 1532      00
 1533              		.text
 1534 0815 90       		.align 2
 1536              	_ZZNK12_GLOBAL__N_138TestCrashingTestsAreReportedAsFailures7RunImplEvEN12CrashingTestC2Ev:
 1537              	.LFB1107:
  78:TestTest.cpp  **** {
  79:TestTest.cpp  ****     class CrashingTest : public Test
  80:TestTest.cpp  ****     {
  81:TestTest.cpp  ****     public:
  82:TestTest.cpp  ****         CrashingTest() : Test("crashing") {}
 1538              		.loc 4 82 0
 1539              		.cfi_startproc
 1540 0816 55       		pushq	%rbp
 1541              		.cfi_def_cfa_offset 16
 1542              		.cfi_offset 6, -16
 1543 0817 4889E5   		movq	%rsp, %rbp
 1544              		.cfi_def_cfa_register 6
 1545 081a 4883EC10 		subq	$16, %rsp
 1546 081e 48897DF8 		movq	%rdi, -8(%rbp)
 1547              	.LBB19:
 1548              		.loc 4 82 0
 1549 0822 488B45F8 		movq	-8(%rbp), %rax
 1550 0826 41B80000 		movl	$0, %r8d
 1550      0000
 1551 082c B9000000 		movl	$.LC3, %ecx
 1551      00
 1552 0831 BA000000 		movl	$.LC0, %edx
 1552      00
 1553 0836 BE000000 		movl	$.LC17, %esi
 1553      00
 1554 083b 4889C7   		movq	%rax, %rdi
 1555 083e E8000000 		call	_ZN8UnitTest4TestC2EPKcS2_S2_i
 1555      00
 1556 0843 BA000000 		movl	$_ZTVZNK12_GLOBAL__N_138TestCrashingTestsAreReportedAsFailures7RunImplEvE12CrashingTest+16, %
 1556      00
 1557 0848 488B45F8 		movq	-8(%rbp), %rax
 1558 084c 488910   		movq	%rdx, (%rax)
 1559              	.LBE19:
 1560 084f 90       		nop
 1561 0850 C9       		leave
 1562              		.cfi_def_cfa 7, 8
 1563 0851 C3       		ret
 1564              		.cfi_endproc
 1565              	.LFE1107:
 1567              		.set	_ZZNK12_GLOBAL__N_138TestCrashingTestsAreReportedAsFailures7RunImplEvEN12CrashingTestC1Ev,_ZZ
 1568              		.align 2
 1570              	_ZZNK12_GLOBAL__N_138TestCrashingTestsAreReportedAsFailures7RunImplEvENK12CrashingTest7RunImplEv:
 1571              	.LFB1109:
  83:TestTest.cpp  ****         virtual void RunImpl() const
 1572              		.loc 4 83 0
 1573              		.cfi_startproc
 1574 0852 55       		pushq	%rbp
 1575              		.cfi_def_cfa_offset 16
 1576              		.cfi_offset 6, -16
 1577 0853 4889E5   		movq	%rsp, %rbp
 1578              		.cfi_def_cfa_register 6
 1579 0856 48897DE8 		movq	%rdi, -24(%rbp)
  84:TestTest.cpp  ****         {
  85:TestTest.cpp  ****             int *p = NULL;
 1580              		.loc 4 85 0
 1581 085a 48C745F8 		movq	$0, -8(%rbp)
 1581      00000000 
  86:TestTest.cpp  ****             *p = 42;
 1582              		.loc 4 86 0
 1583 0862 488B45F8 		movq	-8(%rbp), %rax
 1584 0866 C7002A00 		movl	$42, (%rax)
 1584      0000
  87:TestTest.cpp  ****             // TODO: restore this jump to NULL when QEMU-Linaro fixes hanging issue
  88:TestTest.cpp  ****             // reinterpret_cast< void (*)() >(0)();
  89:TestTest.cpp  ****         }
 1585              		.loc 4 89 0
 1586 086c 90       		nop
 1587 086d 5D       		popq	%rbp
 1588              		.cfi_def_cfa 7, 8
 1589 086e C3       		ret
 1590              		.cfi_endproc
 1591              	.LFE1109:
 1593 086f 90       		.align 2
 1595              	_ZNK12_GLOBAL__N_138TestCrashingTestsAreReportedAsFailures7RunImplEv:
 1596              	.LFB1105:
  78:TestTest.cpp  ****     class CrashingTest : public Test
 1597              		.loc 4 78 0
 1598              		.cfi_startproc
 1599              		.cfi_personality 0x3,__gxx_personality_v0
 1600              		.cfi_lsda 0x3,.LLSDA1105
 1601 0870 55       		pushq	%rbp
 1602              		.cfi_def_cfa_offset 16
 1603              		.cfi_offset 6, -16
 1604 0871 4889E5   		movq	%rsp, %rbp
 1605              		.cfi_def_cfa_register 6
 1606 0874 53       		pushq	%rbx
 1607 0875 4881EC98 		subq	$152, %rsp
 1607      000000
 1608              		.cfi_offset 3, -24
 1609 087c 4889BD68 		movq	%rdi, -152(%rbp)
 1609      FFFFFF
  78:TestTest.cpp  ****     class CrashingTest : public Test
 1610              		.loc 4 78 0
 1611 0883 64488B04 		movq	%fs:40, %rax
 1611      25280000 
 1611      00
 1612 088c 488945E8 		movq	%rax, -24(%rbp)
 1613 0890 31C0     		xorl	%eax, %eax
  90:TestTest.cpp  ****     };
  91:TestTest.cpp  **** 
  92:TestTest.cpp  ****     TestResults results;
 1614              		.loc 4 92 0
 1615 0892 488D4590 		leaq	-112(%rbp), %rax
 1616 0896 BE000000 		movl	$0, %esi
 1616      00
 1617 089b 4889C7   		movq	%rax, %rdi
 1618              	.LEHB45:
 1619 089e E8000000 		call	_ZN8UnitTest11TestResultsC1EPNS_12TestReporterE
 1619      00
 1620              	.LBB20:
  93:TestTest.cpp  **** 	{
  94:TestTest.cpp  **** 		ScopedCurrentTest scopedResult(results);
 1621              		.loc 4 94 0
 1622 08a3 488D4D90 		leaq	-112(%rbp), %rcx
 1623 08a7 488D4580 		leaq	-128(%rbp), %rax
 1624 08ab BA000000 		movl	$0, %edx
 1624      00
 1625 08b0 4889CE   		movq	%rcx, %rsi
 1626 08b3 4889C7   		movq	%rax, %rdi
 1627 08b6 E8000000 		call	_ZN17ScopedCurrentTestC1ERN8UnitTest11TestResultsEPKNS0_11TestDetailsE
 1627      00
 1628              	.LEHE45:
  95:TestTest.cpp  **** 		CrashingTest().Run();
 1629              		.loc 4 95 0
 1630 08bb 488D45B0 		leaq	-80(%rbp), %rax
 1631 08bf 4889C7   		movq	%rax, %rdi
 1632              	.LEHB46:
 1633 08c2 E84FFFFF 		call	_ZZNK12_GLOBAL__N_138TestCrashingTestsAreReportedAsFailures7RunImplEvEN12CrashingTestC1Ev
 1633      FF
 1634              	.LEHE46:
 1635              		.loc 4 95 0 is_stmt 0 discriminator 1
 1636 08c7 488D45B0 		leaq	-80(%rbp), %rax
 1637 08cb 4889C7   		movq	%rax, %rdi
 1638              	.LEHB47:
 1639 08ce E8000000 		call	_ZN8UnitTest4Test3RunEv
 1639      00
 1640              	.LEHE47:
 1641              		.loc 4 95 0 discriminator 3
 1642 08d3 488D45B0 		leaq	-80(%rbp), %rax
 1643 08d7 4889C7   		movq	%rax, %rdi
 1644              	.LEHB48:
 1645 08da E8ED0800 		call	_ZZNK12_GLOBAL__N_138TestCrashingTestsAreReportedAsFailures7RunImplEvEN12CrashingTestD1Ev
 1645      00
 1646              	.LEHE48:
  94:TestTest.cpp  **** 		CrashingTest().Run();
 1647              		.loc 4 94 0 is_stmt 1 discriminator 4
 1648 08df 488D4580 		leaq	-128(%rbp), %rax
 1649 08e3 4889C7   		movq	%rax, %rdi
 1650              	.LEHB49:
 1651 08e6 E8000000 		call	_ZN17ScopedCurrentTestD1Ev
 1651      00
 1652              	.LEHE49:
 1653              	.LEHB50:
 1654              	.LBE20:
  96:TestTest.cpp  **** 	}
  97:TestTest.cpp  **** 
  98:TestTest.cpp  **** 	CHECK_EQUAL(1, results.GetFailureCount());
 1655              		.loc 4 98 0 discriminator 4
 1656 08eb E8000000 		call	_ZN8UnitTest11CurrentTest7DetailsEv
 1656      00
 1657 08f0 488B08   		movq	(%rax), %rcx
 1658 08f3 488D45B0 		leaq	-80(%rbp), %rax
 1659 08f7 BA620000 		movl	$98, %edx
 1659      00
 1660 08fc 4889CE   		movq	%rcx, %rsi
 1661 08ff 4889C7   		movq	%rax, %rdi
 1662 0902 E8000000 		call	_ZN8UnitTest11TestDetailsC1ERKS0_i
 1662      00
 1663              		.loc 4 98 0 is_stmt 0 discriminator 2
 1664 0907 488D4590 		leaq	-112(%rbp), %rax
 1665 090b 4889C7   		movq	%rax, %rdi
 1666 090e E8000000 		call	_ZNK8UnitTest11TestResults15GetFailureCountEv
 1666      00
 1667              	.LEHE50:
 1668 0913 894580   		movl	%eax, -128(%rbp)
 1669 0916 C7857CFF 		movl	$1, -132(%rbp)
 1669      FFFF0100 
 1669      0000
 1670              	.LEHB51:
 1671 0920 E8000000 		call	_ZN8UnitTest11CurrentTest7ResultsEv
 1671      00
 1672              		.loc 4 98 0 discriminator 4
 1673 0925 488B00   		movq	(%rax), %rax
 1674 0928 488D4DB0 		leaq	-80(%rbp), %rcx
 1675 092c 488D5580 		leaq	-128(%rbp), %rdx
 1676 0930 488DB57C 		leaq	-132(%rbp), %rsi
 1676      FFFFFF
 1677 0937 4889C7   		movq	%rax, %rdi
 1678 093a E8000000 		call	_ZN8UnitTest10CheckEqualIiiEEvRNS_11TestResultsERKT_RKT0_RKNS_11TestDetailsE
 1678      00
 1679              	.LEHE51:
  99:TestTest.cpp  **** }
 1680              		.loc 4 99 0 is_stmt 1
 1681 093f E9870000 		jmp	.L79
 1681      00
 1682              	.L88:
 1683 0944 4889C3   		movq	%rax, %rbx
 1684              	.LBB21:
  95:TestTest.cpp  **** 	}
 1685              		.loc 4 95 0
 1686 0947 488D45B0 		leaq	-80(%rbp), %rax
 1687 094b 4889C7   		movq	%rax, %rdi
 1688 094e E8790800 		call	_ZZNK12_GLOBAL__N_138TestCrashingTestsAreReportedAsFailures7RunImplEvEN12CrashingTestD1Ev
 1688      00
 1689 0953 EB03     		jmp	.L81
 1690              	.L87:
 1691 0955 4889C3   		movq	%rax, %rbx
 1692              	.L81:
  94:TestTest.cpp  **** 		CrashingTest().Run();
 1693              		.loc 4 94 0
 1694 0958 488D4580 		leaq	-128(%rbp), %rax
 1695 095c 4889C7   		movq	%rax, %rdi
 1696 095f E8000000 		call	_ZN17ScopedCurrentTestD1Ev
 1696      00
 1697 0964 4889D8   		movq	%rbx, %rax
 1698 0967 4889C7   		movq	%rax, %rdi
 1699              	.LEHB52:
 1700 096a E8000000 		call	_Unwind_Resume
 1700      00
 1701              	.LEHE52:
 1702              	.L90:
 1703 096f EB00     		jmp	.L83
 1704              	.L89:
 1705              	.L83:
 1706              	.LBE21:
  98:TestTest.cpp  **** }
 1707              		.loc 4 98 0
 1708 0971 4889C7   		movq	%rax, %rdi
 1709 0974 E8000000 		call	__cxa_begin_catch
 1709      00
 1710              	.LEHB53:
 1711 0979 E8000000 		call	_ZN8UnitTest11CurrentTest7DetailsEv
 1711      00
 1712 097e 488B08   		movq	(%rax), %rcx
 1713 0981 488D45B0 		leaq	-80(%rbp), %rax
 1714 0985 BA620000 		movl	$98, %edx
 1714      00
 1715 098a 4889CE   		movq	%rcx, %rsi
 1716 098d 4889C7   		movq	%rax, %rdi
 1717 0990 E8000000 		call	_ZN8UnitTest11TestDetailsC1ERKS0_i
 1717      00
  98:TestTest.cpp  **** }
 1718              		.loc 4 98 0 is_stmt 0 discriminator 12
 1719 0995 E8000000 		call	_ZN8UnitTest11CurrentTest7ResultsEv
 1719      00
 1720 099a 488B00   		movq	(%rax), %rax
 1721 099d 488D4DB0 		leaq	-80(%rbp), %rcx
 1722 09a1 BA000000 		movl	$.LC12, %edx
 1722      00
 1723 09a6 4889CE   		movq	%rcx, %rsi
 1724 09a9 4889C7   		movq	%rax, %rdi
 1725 09ac E8000000 		call	_ZN8UnitTest11TestResults13OnTestFailureERKNS_11TestDetailsEPKc
 1725      00
 1726              	.LEHE53:
 1727              	.LEHB54:
  98:TestTest.cpp  **** }
 1728              		.loc 4 98 0 discriminator 16
 1729 09b1 E8000000 		call	__cxa_end_catch
 1729      00
 1730              	.LEHE54:
 1731              		.loc 4 99 0 is_stmt 1 discriminator 16
 1732 09b6 EB13     		jmp	.L79
 1733              	.L91:
 1734 09b8 4889C3   		movq	%rax, %rbx
  98:TestTest.cpp  **** }
 1735              		.loc 4 98 0
 1736 09bb E8000000 		call	__cxa_end_catch
 1736      00
 1737 09c0 4889D8   		movq	%rbx, %rax
 1738 09c3 4889C7   		movq	%rax, %rdi
 1739              	.LEHB55:
 1740 09c6 E8000000 		call	_Unwind_Resume
 1740      00
 1741              	.LEHE55:
 1742              	.L79:
 1743              		.loc 4 99 0
 1744 09cb 488B45E8 		movq	-24(%rbp), %rax
 1745 09cf 64483304 		xorq	%fs:40, %rax
 1745      25280000 
 1745      00
 1746 09d8 7405     		je	.L86
 1747 09da E8000000 		call	__stack_chk_fail
 1747      00
 1748              	.L86:
 1749 09df 4881C498 		addq	$152, %rsp
 1749      000000
 1750 09e6 5B       		popq	%rbx
 1751 09e7 5D       		popq	%rbp
 1752              		.cfi_def_cfa 7, 8
 1753 09e8 C3       		ret
 1754              		.cfi_endproc
 1755              	.LFE1105:
 1756              		.section	.gcc_except_table
 1757              		.align 4
 1758              	.LLSDA1105:
 1759 010c FF       		.byte	0xff
 1760 010d 03       		.byte	0x3
 1761 010e 41       		.uleb128 .LLSDATT1105-.LLSDATTD1105
 1762              	.LLSDATTD1105:
 1763 010f 01       		.byte	0x1
 1764 0110 37       		.uleb128 .LLSDACSE1105-.LLSDACSB1105
 1765              	.LLSDACSB1105:
 1766 0111 2E       		.uleb128 .LEHB45-.LFB1105
 1767 0112 1D       		.uleb128 .LEHE45-.LEHB45
 1768 0113 00       		.uleb128 0
 1769 0114 00       		.uleb128 0
 1770 0115 52       		.uleb128 .LEHB46-.LFB1105
 1771 0116 05       		.uleb128 .LEHE46-.LEHB46
 1772 0117 E501     		.uleb128 .L87-.LFB1105
 1773 0119 00       		.uleb128 0
 1774 011a 5E       		.uleb128 .LEHB47-.LFB1105
 1775 011b 05       		.uleb128 .LEHE47-.LEHB47
 1776 011c D401     		.uleb128 .L88-.LFB1105
 1777 011e 00       		.uleb128 0
 1778 011f 6A       		.uleb128 .LEHB48-.LFB1105
 1779 0120 05       		.uleb128 .LEHE48-.LEHB48
 1780 0121 E501     		.uleb128 .L87-.LFB1105
 1781 0123 00       		.uleb128 0
 1782 0124 76       		.uleb128 .LEHB49-.LFB1105
 1783 0125 05       		.uleb128 .LEHE49-.LEHB49
 1784 0126 00       		.uleb128 0
 1785 0127 00       		.uleb128 0
 1786 0128 7B       		.uleb128 .LEHB50-.LFB1105
 1787 0129 28       		.uleb128 .LEHE50-.LEHB50
 1788 012a 8102     		.uleb128 .L89-.LFB1105
 1789 012c 01       		.uleb128 0x1
 1790 012d B001     		.uleb128 .LEHB51-.LFB1105
 1791 012f 1F       		.uleb128 .LEHE51-.LEHB51
 1792 0130 FF01     		.uleb128 .L90-.LFB1105
 1793 0132 03       		.uleb128 0x3
 1794 0133 FA01     		.uleb128 .LEHB52-.LFB1105
 1795 0135 05       		.uleb128 .LEHE52-.LEHB52
 1796 0136 00       		.uleb128 0
 1797 0137 00       		.uleb128 0
 1798 0138 8902     		.uleb128 .LEHB53-.LFB1105
 1799 013a 38       		.uleb128 .LEHE53-.LEHB53
 1800 013b C802     		.uleb128 .L91-.LFB1105
 1801 013d 00       		.uleb128 0
 1802 013e C102     		.uleb128 .LEHB54-.LFB1105
 1803 0140 05       		.uleb128 .LEHE54-.LEHB54
 1804 0141 00       		.uleb128 0
 1805 0142 00       		.uleb128 0
 1806 0143 D602     		.uleb128 .LEHB55-.LFB1105
 1807 0145 05       		.uleb128 .LEHE55-.LEHB55
 1808 0146 00       		.uleb128 0
 1809 0147 00       		.uleb128 0
 1810              	.LLSDACSE1105:
 1811 0148 01       		.byte	0x1
 1812 0149 00       		.byte	0
 1813 014a 00       		.byte	0
 1814 014b 7D       		.byte	0x7d
 1815              		.align 4
 1816 014c 00000000 		.long	0
 1817              	
 1818              	.LLSDATT1105:
 1819              		.text
 1821              		.section	.rodata
 1822 01ac 00000000 		.align 8
 1823              	.LC18:
 1824 01b0 54657374 		.string	"TestWithUnspecifiedSuiteGetsDefaultSuite"
 1824      57697468 
 1824      556E7370 
 1824      65636966 
 1824      69656453 
 1825              		.text
 1826 09e9 90       		.align 2
 1828              	_ZN12_GLOBAL__N_144TestTestWithUnspecifiedSuiteGetsDefaultSuiteC2Ev:
 1829              	.LFB1111:
 100:TestTest.cpp  **** #endif
 101:TestTest.cpp  **** 
 102:TestTest.cpp  **** TEST(TestWithUnspecifiedSuiteGetsDefaultSuite)
 1830              		.loc 4 102 0
 1831              		.cfi_startproc
 1832 09ea 55       		pushq	%rbp
 1833              		.cfi_def_cfa_offset 16
 1834              		.cfi_offset 6, -16
 1835 09eb 4889E5   		movq	%rsp, %rbp
 1836              		.cfi_def_cfa_register 6
 1837 09ee 4883EC10 		subq	$16, %rsp
 1838 09f2 48897DF8 		movq	%rdi, -8(%rbp)
 1839              	.LBB22:
 1840              		.loc 4 102 0
 1841 09f6 E8000000 		call	_ZN13UnitTestSuite12GetSuiteNameEv
 1841      00
 1842 09fb 4889C2   		movq	%rax, %rdx
 1843 09fe 488B45F8 		movq	-8(%rbp), %rax
 1844 0a02 41B86600 		movl	$102, %r8d
 1844      0000
 1845 0a08 B9000000 		movl	$.LC1, %ecx
 1845      00
 1846 0a0d BE000000 		movl	$.LC18, %esi
 1846      00
 1847 0a12 4889C7   		movq	%rax, %rdi
 1848 0a15 E8000000 		call	_ZN8UnitTest4TestC2EPKcS2_S2_i
 1848      00
 1849 0a1a BA000000 		movl	$_ZTVN12_GLOBAL__N_144TestTestWithUnspecifiedSuiteGetsDefaultSuiteE+16, %edx
 1849      00
 1850 0a1f 488B45F8 		movq	-8(%rbp), %rax
 1851 0a23 488910   		movq	%rdx, (%rax)
 1852              	.LBE22:
 1853 0a26 90       		nop
 1854 0a27 C9       		leave
 1855              		.cfi_def_cfa 7, 8
 1856 0a28 C3       		ret
 1857              		.cfi_endproc
 1858              	.LFE1111:
 1860              		.set	_ZN12_GLOBAL__N_144TestTestWithUnspecifiedSuiteGetsDefaultSuiteC1Ev,_ZN12_GLOBAL__N_144TestTe
 1861              		.local	_ZN12_GLOBAL__N_152testTestWithUnspecifiedSuiteGetsDefaultSuiteInstanceE
 1862              		.comm	_ZN12_GLOBAL__N_152testTestWithUnspecifiedSuiteGetsDefaultSuiteInstanceE,56,32
 1863              		.local	_ZN12_GLOBAL__N_145adderTestWithUnspecifiedSuiteGetsDefaultSuiteE
 1864              		.comm	_ZN12_GLOBAL__N_145adderTestWithUnspecifiedSuiteGetsDefaultSuiteE,1,1
 1865              		.section	.rodata
 1866              	.LC19:
 1867 01d9 74657374 		.string	"test"
 1867      00
 1868 01de 0000     		.align 8
 1869              	.LC20:
 1870 01e0 74657374 		.string	"test.m_details.suiteName != NULL"
 1870      2E6D5F64 
 1870      65746169 
 1870      6C732E73 
 1870      75697465 
 1871 0201 00000000 		.align 8
 1871      000000
 1872              	.LC21:
 1873 0208 556E6861 		.string	"Unhandled exception in CHECK(test.m_details.suiteName != NULL)"
 1873      6E646C65 
 1873      64206578 
 1873      63657074 
 1873      696F6E20 
 1874 0247 00       		.align 8
 1875              	.LC22:
 1876 0248 556E6861 		.string	"Unhandled exception in CHECK_EQUAL(\"DefaultSuite\", test.m_details.suiteName)"
 1876      6E646C65 
 1876      64206578 
 1876      63657074 
 1876      696F6E20 
 1877              		.text
 1878 0a29 90       		.align 2
 1880              	_ZNK12_GLOBAL__N_144TestTestWithUnspecifiedSuiteGetsDefaultSuite7RunImplEv:
 1881              	.LFB1113:
 103:TestTest.cpp  **** {
 1882              		.loc 4 103 0
 1883              		.cfi_startproc
 1884              		.cfi_personality 0x3,__gxx_personality_v0
 1885              		.cfi_lsda 0x3,.LLSDA1113
 1886 0a2a 55       		pushq	%rbp
 1887              		.cfi_def_cfa_offset 16
 1888              		.cfi_offset 6, -16
 1889 0a2b 4889E5   		movq	%rsp, %rbp
 1890              		.cfi_def_cfa_register 6
 1891 0a2e 53       		pushq	%rbx
 1892 0a2f 4883EC78 		subq	$120, %rsp
 1893              		.cfi_offset 3, -24
 1894 0a33 48897D88 		movq	%rdi, -120(%rbp)
 1895              		.loc 4 103 0
 1896 0a37 64488B04 		movq	%fs:40, %rax
 1896      25280000 
 1896      00
 1897 0a40 488945E8 		movq	%rax, -24(%rbp)
 1898 0a44 31C0     		xorl	%eax, %eax
 104:TestTest.cpp  ****     Test test("test");
 1899              		.loc 4 104 0
 1900 0a46 488D45B0 		leaq	-80(%rbp), %rax
 1901 0a4a 41B80000 		movl	$0, %r8d
 1901      0000
 1902 0a50 B9000000 		movl	$.LC3, %ecx
 1902      00
 1903 0a55 BA000000 		movl	$.LC0, %edx
 1903      00
 1904 0a5a BE000000 		movl	$.LC19, %esi
 1904      00
 1905 0a5f 4889C7   		movq	%rax, %rdi
 1906              	.LEHB56:
 1907 0a62 E8000000 		call	_ZN8UnitTest4TestC1EPKcS2_S2_i
 1907      00
 1908              	.LEHE56:
 105:TestTest.cpp  ****     CHECK(test.m_details.suiteName != NULL);
 1909              		.loc 4 105 0
 1910 0a67 488B45B8 		movq	-72(%rbp), %rax
 1911 0a6b 4885C0   		testq	%rax, %rax
 1912 0a6e 0F95C0   		setne	%al
 1913 0a71 0FB6C0   		movzbl	%al, %eax
 1914 0a74 89C7     		movl	%eax, %edi
 1915 0a76 E8000000 		call	_ZN8UnitTest5CheckIbEEbT_
 1915      00
 1916 0a7b 83F001   		xorl	$1, %eax
 1917 0a7e 84C0     		testb	%al, %al
 1918 0a80 7438     		je	.L94
 1919              	.LEHB57:
 1920              		.loc 4 105 0 is_stmt 0 discriminator 1
 1921 0a82 E8000000 		call	_ZN8UnitTest11CurrentTest7DetailsEv
 1921      00
 1922 0a87 488B08   		movq	(%rax), %rcx
 1923 0a8a 488D4590 		leaq	-112(%rbp), %rax
 1924 0a8e BA690000 		movl	$105, %edx
 1924      00
 1925 0a93 4889CE   		movq	%rcx, %rsi
 1926 0a96 4889C7   		movq	%rax, %rdi
 1927 0a99 E8000000 		call	_ZN8UnitTest11TestDetailsC1ERKS0_i
 1927      00
 1928              		.loc 4 105 0 discriminator 3
 1929 0a9e E8000000 		call	_ZN8UnitTest11CurrentTest7ResultsEv
 1929      00
 1930 0aa3 488B00   		movq	(%rax), %rax
 1931 0aa6 488D4D90 		leaq	-112(%rbp), %rcx
 1932 0aaa BA000000 		movl	$.LC20, %edx
 1932      00
 1933 0aaf 4889CE   		movq	%rcx, %rsi
 1934 0ab2 4889C7   		movq	%rax, %rdi
 1935 0ab5 E8000000 		call	_ZN8UnitTest11TestResults13OnTestFailureERKNS_11TestDetailsEPKc
 1935      00
 1936              	.LEHE57:
 1937              	.L94:
 1938              	.LEHB58:
 106:TestTest.cpp  ****     CHECK_EQUAL("DefaultSuite", test.m_details.suiteName);
 1939              		.loc 4 106 0 is_stmt 1
 1940 0aba E8000000 		call	_ZN8UnitTest11CurrentTest7DetailsEv
 1940      00
 1941 0abf 488B08   		movq	(%rax), %rcx
 1942 0ac2 488D4590 		leaq	-112(%rbp), %rax
 1943 0ac6 BA6A0000 		movl	$106, %edx
 1943      00
 1944 0acb 4889CE   		movq	%rcx, %rsi
 1945 0ace 4889C7   		movq	%rax, %rdi
 1946 0ad1 E8000000 		call	_ZN8UnitTest11TestDetailsC1ERKS0_i
 1946      00
 1947              		.loc 4 106 0 is_stmt 0 discriminator 2
 1948 0ad6 488B5DB8 		movq	-72(%rbp), %rbx
 1949 0ada E8000000 		call	_ZN8UnitTest11CurrentTest7ResultsEv
 1949      00
 1950 0adf 488B00   		movq	(%rax), %rax
 1951 0ae2 488D5590 		leaq	-112(%rbp), %rdx
 1952 0ae6 4889D1   		movq	%rdx, %rcx
 1953 0ae9 4889DA   		movq	%rbx, %rdx
 1954 0aec BE000000 		movl	$.LC0, %esi
 1954      00
 1955 0af1 4889C7   		movq	%rax, %rdi
 1956 0af4 E8000000 		call	_ZN8UnitTest10CheckEqualERNS_11TestResultsEPKcS3_RKNS_11TestDetailsE
 1956      00
 1957              	.LEHE58:
 1958              	.L99:
 104:TestTest.cpp  ****     Test test("test");
 1959              		.loc 4 104 0 is_stmt 1
 1960 0af9 488D45B0 		leaq	-80(%rbp), %rax
 1961 0afd 4889C7   		movq	%rax, %rdi
 1962              	.LEHB59:
 1963 0b00 E8000000 		call	_ZN8UnitTest4TestD1Ev
 1963      00
 1964              	.LEHE59:
 107:TestTest.cpp  **** }
 1965              		.loc 4 107 0
 1966 0b05 90       		nop
 1967 0b06 488B45E8 		movq	-24(%rbp), %rax
 1968 0b0a 64483304 		xorq	%fs:40, %rax
 1968      25280000 
 1968      00
 1969 0b13 0F84CC00 		je	.L101
 1969      0000
 1970 0b19 E9C20000 		jmp	.L107
 1970      00
 1971              	.L102:
 105:TestTest.cpp  ****     CHECK(test.m_details.suiteName != NULL);
 1972              		.loc 4 105 0
 1973 0b1e 4889C7   		movq	%rax, %rdi
 1974 0b21 E8000000 		call	__cxa_begin_catch
 1974      00
 1975              	.LEHB60:
 1976 0b26 E8000000 		call	_ZN8UnitTest11CurrentTest7DetailsEv
 1976      00
 1977 0b2b 488B08   		movq	(%rax), %rcx
 1978 0b2e 488D4590 		leaq	-112(%rbp), %rax
 1979 0b32 BA690000 		movl	$105, %edx
 1979      00
 1980 0b37 4889CE   		movq	%rcx, %rsi
 1981 0b3a 4889C7   		movq	%rax, %rdi
 1982 0b3d E8000000 		call	_ZN8UnitTest11TestDetailsC1ERKS0_i
 1982      00
 105:TestTest.cpp  ****     CHECK(test.m_details.suiteName != NULL);
 1983              		.loc 4 105 0 is_stmt 0 discriminator 11
 1984 0b42 E8000000 		call	_ZN8UnitTest11CurrentTest7ResultsEv
 1984      00
 1985 0b47 488B00   		movq	(%rax), %rax
 1986 0b4a 488D4D90 		leaq	-112(%rbp), %rcx
 1987 0b4e BA000000 		movl	$.LC21, %edx
 1987      00
 1988 0b53 4889CE   		movq	%rcx, %rsi
 1989 0b56 4889C7   		movq	%rax, %rdi
 1990 0b59 E8000000 		call	_ZN8UnitTest11TestResults13OnTestFailureERKNS_11TestDetailsEPKc
 1990      00
 1991              	.LEHE60:
 1992              	.LEHB61:
 105:TestTest.cpp  ****     CHECK(test.m_details.suiteName != NULL);
 1993              		.loc 4 105 0 discriminator 15
 1994 0b5e E8000000 		call	__cxa_end_catch
 1994      00
 1995              	.LEHE61:
 105:TestTest.cpp  ****     CHECK(test.m_details.suiteName != NULL);
 1996              		.loc 4 105 0
 1997 0b63 E952FFFF 		jmp	.L94
 1997      FF
 1998              	.L104:
 1999 0b68 4889C3   		movq	%rax, %rbx
 2000 0b6b E8000000 		call	__cxa_end_catch
 2000      00
 2001 0b70 EB57     		jmp	.L97
 2002              	.L105:
 106:TestTest.cpp  ****     CHECK_EQUAL("DefaultSuite", test.m_details.suiteName);
 2003              		.loc 4 106 0 is_stmt 1
 2004 0b72 4889C7   		movq	%rax, %rdi
 2005 0b75 E8000000 		call	__cxa_begin_catch
 2005      00
 2006              	.LEHB62:
 2007 0b7a E8000000 		call	_ZN8UnitTest11CurrentTest7DetailsEv
 2007      00
 2008 0b7f 488B08   		movq	(%rax), %rcx
 2009 0b82 488D4590 		leaq	-112(%rbp), %rax
 2010 0b86 BA6A0000 		movl	$106, %edx
 2010      00
 2011 0b8b 4889CE   		movq	%rcx, %rsi
 2012 0b8e 4889C7   		movq	%rax, %rdi
 2013 0b91 E8000000 		call	_ZN8UnitTest11TestDetailsC1ERKS0_i
 2013      00
 106:TestTest.cpp  ****     CHECK_EQUAL("DefaultSuite", test.m_details.suiteName);
 2014              		.loc 4 106 0 is_stmt 0 discriminator 10
 2015 0b96 E8000000 		call	_ZN8UnitTest11CurrentTest7ResultsEv
 2015      00
 2016 0b9b 488B00   		movq	(%rax), %rax
 2017 0b9e 488D4D90 		leaq	-112(%rbp), %rcx
 2018 0ba2 BA000000 		movl	$.LC22, %edx
 2018      00
 2019 0ba7 4889CE   		movq	%rcx, %rsi
 2020 0baa 4889C7   		movq	%rax, %rdi
 2021 0bad E8000000 		call	_ZN8UnitTest11TestResults13OnTestFailureERKNS_11TestDetailsEPKc
 2021      00
 2022              	.LEHE62:
 2023              	.LEHB63:
 106:TestTest.cpp  ****     CHECK_EQUAL("DefaultSuite", test.m_details.suiteName);
 2024              		.loc 4 106 0 discriminator 14
 2025 0bb2 E8000000 		call	__cxa_end_catch
 2025      00
 2026              	.LEHE63:
 106:TestTest.cpp  ****     CHECK_EQUAL("DefaultSuite", test.m_details.suiteName);
 2027              		.loc 4 106 0
 2028 0bb7 E93DFFFF 		jmp	.L99
 2028      FF
 2029              	.L106:
 2030 0bbc 4889C3   		movq	%rax, %rbx
 2031 0bbf E8000000 		call	__cxa_end_catch
 2031      00
 2032 0bc4 EB03     		jmp	.L97
 2033              	.L103:
 2034 0bc6 4889C3   		movq	%rax, %rbx
 2035              	.L97:
 104:TestTest.cpp  ****     CHECK(test.m_details.suiteName != NULL);
 2036              		.loc 4 104 0 is_stmt 1
 2037 0bc9 488D45B0 		leaq	-80(%rbp), %rax
 2038 0bcd 4889C7   		movq	%rax, %rdi
 2039 0bd0 E8000000 		call	_ZN8UnitTest4TestD1Ev
 2039      00
 2040 0bd5 4889D8   		movq	%rbx, %rax
 2041 0bd8 4889C7   		movq	%rax, %rdi
 2042              	.LEHB64:
 2043 0bdb E8000000 		call	_Unwind_Resume
 2043      00
 2044              	.LEHE64:
 2045              	.L107:
 2046              		.loc 4 107 0
 2047 0be0 E8000000 		call	__stack_chk_fail
 2047      00
 2048              	.L101:
 2049 0be5 4883C478 		addq	$120, %rsp
 2050 0be9 5B       		popq	%rbx
 2051 0bea 5D       		popq	%rbp
 2052              		.cfi_def_cfa 7, 8
 2053 0beb C3       		ret
 2054              		.cfi_endproc
 2055              	.LFE1113:
 2056              		.section	.gcc_except_table
 2057              		.align 4
 2058              	.LLSDA1113:
 2059 0150 FF       		.byte	0xff
 2060 0151 03       		.byte	0x3
 2061 0152 39       		.uleb128 .LLSDATT1113-.LLSDATTD1113
 2062              	.LLSDATTD1113:
 2063 0153 01       		.byte	0x1
 2064 0154 31       		.uleb128 .LLSDACSE1113-.LLSDACSB1113
 2065              	.LLSDACSB1113:
 2066 0155 38       		.uleb128 .LEHB56-.LFB1113
 2067 0156 05       		.uleb128 .LEHE56-.LEHB56
 2068 0157 00       		.uleb128 0
 2069 0158 00       		.uleb128 0
 2070 0159 58       		.uleb128 .LEHB57-.LFB1113
 2071 015a 38       		.uleb128 .LEHE57-.LEHB57
 2072 015b F401     		.uleb128 .L102-.LFB1113
 2073 015d 01       		.uleb128 0x1
 2074 015e 9001     		.uleb128 .LEHB58-.LFB1113
 2075 0160 3F       		.uleb128 .LEHE58-.LEHB58
 2076 0161 C802     		.uleb128 .L105-.LFB1113
 2077 0163 01       		.uleb128 0x1
 2078 0164 D601     		.uleb128 .LEHB59-.LFB1113
 2079 0166 05       		.uleb128 .LEHE59-.LEHB59
 2080 0167 00       		.uleb128 0
 2081 0168 00       		.uleb128 0
 2082 0169 FC01     		.uleb128 .LEHB60-.LFB1113
 2083 016b 38       		.uleb128 .LEHE60-.LEHB60
 2084 016c BE02     		.uleb128 .L104-.LFB1113
 2085 016e 00       		.uleb128 0
 2086 016f B402     		.uleb128 .LEHB61-.LFB1113
 2087 0171 05       		.uleb128 .LEHE61-.LEHB61
 2088 0172 9C03     		.uleb128 .L103-.LFB1113
 2089 0174 00       		.uleb128 0
 2090 0175 D002     		.uleb128 .LEHB62-.LFB1113
 2091 0177 38       		.uleb128 .LEHE62-.LEHB62
 2092 0178 9203     		.uleb128 .L106-.LFB1113
 2093 017a 00       		.uleb128 0
 2094 017b 8803     		.uleb128 .LEHB63-.LFB1113
 2095 017d 05       		.uleb128 .LEHE63-.LEHB63
 2096 017e 9C03     		.uleb128 .L103-.LFB1113
 2097 0180 00       		.uleb128 0
 2098 0181 B103     		.uleb128 .LEHB64-.LFB1113
 2099 0183 05       		.uleb128 .LEHE64-.LEHB64
 2100 0184 00       		.uleb128 0
 2101 0185 00       		.uleb128 0
 2102              	.LLSDACSE1113:
 2103 0186 01       		.byte	0x1
 2104 0187 00       		.byte	0
 2105              		.align 4
 2106 0188 00000000 		.long	0
 2107              	
 2108              	.LLSDATT1113:
 2109              		.text
 2111              		.section	.rodata
 2112 0295 000000   		.align 8
 2113              	.LC23:
 2114 0298 54657374 		.string	"TestReflectsSpecifiedSuiteName"
 2114      5265666C 
 2114      65637473 
 2114      53706563 
 2114      69666965 
 2115              		.text
 2116              		.align 2
 2118              	_ZN12_GLOBAL__N_134TestTestReflectsSpecifiedSuiteNameC2Ev:
 2119              	.LFB1115:
 108:TestTest.cpp  **** 
 109:TestTest.cpp  **** TEST(TestReflectsSpecifiedSuiteName)
 2120              		.loc 4 109 0
 2121              		.cfi_startproc
 2122 0bec 55       		pushq	%rbp
 2123              		.cfi_def_cfa_offset 16
 2124              		.cfi_offset 6, -16
 2125 0bed 4889E5   		movq	%rsp, %rbp
 2126              		.cfi_def_cfa_register 6
 2127 0bf0 4883EC10 		subq	$16, %rsp
 2128 0bf4 48897DF8 		movq	%rdi, -8(%rbp)
 2129              	.LBB23:
 2130              		.loc 4 109 0
 2131 0bf8 E8000000 		call	_ZN13UnitTestSuite12GetSuiteNameEv
 2131      00
 2132 0bfd 4889C2   		movq	%rax, %rdx
 2133 0c00 488B45F8 		movq	-8(%rbp), %rax
 2134 0c04 41B86D00 		movl	$109, %r8d
 2134      0000
 2135 0c0a B9000000 		movl	$.LC1, %ecx
 2135      00
 2136 0c0f BE000000 		movl	$.LC23, %esi
 2136      00
 2137 0c14 4889C7   		movq	%rax, %rdi
 2138 0c17 E8000000 		call	_ZN8UnitTest4TestC2EPKcS2_S2_i
 2138      00
 2139 0c1c BA000000 		movl	$_ZTVN12_GLOBAL__N_134TestTestReflectsSpecifiedSuiteNameE+16, %edx
 2139      00
 2140 0c21 488B45F8 		movq	-8(%rbp), %rax
 2141 0c25 488910   		movq	%rdx, (%rax)
 2142              	.LBE23:
 2143 0c28 90       		nop
 2144 0c29 C9       		leave
 2145              		.cfi_def_cfa 7, 8
 2146 0c2a C3       		ret
 2147              		.cfi_endproc
 2148              	.LFE1115:
 2150              		.set	_ZN12_GLOBAL__N_134TestTestReflectsSpecifiedSuiteNameC1Ev,_ZN12_GLOBAL__N_134TestTestReflects
 2151              		.local	_ZN12_GLOBAL__N_142testTestReflectsSpecifiedSuiteNameInstanceE
 2152              		.comm	_ZN12_GLOBAL__N_142testTestReflectsSpecifiedSuiteNameInstanceE,56,32
 2153              		.local	_ZN12_GLOBAL__N_135adderTestReflectsSpecifiedSuiteNameE
 2154              		.comm	_ZN12_GLOBAL__N_135adderTestReflectsSpecifiedSuiteNameE,1,1
 2155              		.section	.rodata
 2156              	.LC24:
 2157 02b7 74657374 		.string	"testSuite"
 2157      53756974 
 2157      6500
 2158 02c1 00000000 		.align 8
 2158      000000
 2159              	.LC25:
 2160 02c8 556E6861 		.string	"Unhandled exception in CHECK_EQUAL(\"testSuite\", test.m_details.suiteName)"
 2160      6E646C65 
 2160      64206578 
 2160      63657074 
 2160      696F6E20 
 2161              		.text
 2162 0c2b 90       		.align 2
 2164              	_ZNK12_GLOBAL__N_134TestTestReflectsSpecifiedSuiteName7RunImplEv:
 2165              	.LFB1117:
 110:TestTest.cpp  **** {
 2166              		.loc 4 110 0
 2167              		.cfi_startproc
 2168              		.cfi_personality 0x3,__gxx_personality_v0
 2169              		.cfi_lsda 0x3,.LLSDA1117
 2170 0c2c 55       		pushq	%rbp
 2171              		.cfi_def_cfa_offset 16
 2172              		.cfi_offset 6, -16
 2173 0c2d 4889E5   		movq	%rsp, %rbp
 2174              		.cfi_def_cfa_register 6
 2175 0c30 53       		pushq	%rbx
 2176 0c31 4883EC78 		subq	$120, %rsp
 2177              		.cfi_offset 3, -24
 2178 0c35 48897D88 		movq	%rdi, -120(%rbp)
 2179              		.loc 4 110 0
 2180 0c39 64488B04 		movq	%fs:40, %rax
 2180      25280000 
 2180      00
 2181 0c42 488945E8 		movq	%rax, -24(%rbp)
 2182 0c46 31C0     		xorl	%eax, %eax
 111:TestTest.cpp  ****     Test test("test", "testSuite");
 2183              		.loc 4 111 0
 2184 0c48 488D45B0 		leaq	-80(%rbp), %rax
 2185 0c4c 41B80000 		movl	$0, %r8d
 2185      0000
 2186 0c52 B9000000 		movl	$.LC3, %ecx
 2186      00
 2187 0c57 BA000000 		movl	$.LC24, %edx
 2187      00
 2188 0c5c BE000000 		movl	$.LC19, %esi
 2188      00
 2189 0c61 4889C7   		movq	%rax, %rdi
 2190              	.LEHB65:
 2191 0c64 E8000000 		call	_ZN8UnitTest4TestC1EPKcS2_S2_i
 2191      00
 2192              	.LEHE65:
 112:TestTest.cpp  ****     CHECK(test.m_details.suiteName != NULL);
 2193              		.loc 4 112 0
 2194 0c69 488B45B8 		movq	-72(%rbp), %rax
 2195 0c6d 4885C0   		testq	%rax, %rax
 2196 0c70 0F95C0   		setne	%al
 2197 0c73 0FB6C0   		movzbl	%al, %eax
 2198 0c76 89C7     		movl	%eax, %edi
 2199 0c78 E8000000 		call	_ZN8UnitTest5CheckIbEEbT_
 2199      00
 2200 0c7d 83F001   		xorl	$1, %eax
 2201 0c80 84C0     		testb	%al, %al
 2202 0c82 7438     		je	.L110
 2203              	.LEHB66:
 2204              		.loc 4 112 0 is_stmt 0 discriminator 1
 2205 0c84 E8000000 		call	_ZN8UnitTest11CurrentTest7DetailsEv
 2205      00
 2206 0c89 488B08   		movq	(%rax), %rcx
 2207 0c8c 488D4590 		leaq	-112(%rbp), %rax
 2208 0c90 BA700000 		movl	$112, %edx
 2208      00
 2209 0c95 4889CE   		movq	%rcx, %rsi
 2210 0c98 4889C7   		movq	%rax, %rdi
 2211 0c9b E8000000 		call	_ZN8UnitTest11TestDetailsC1ERKS0_i
 2211      00
 2212              		.loc 4 112 0 discriminator 3
 2213 0ca0 E8000000 		call	_ZN8UnitTest11CurrentTest7ResultsEv
 2213      00
 2214 0ca5 488B00   		movq	(%rax), %rax
 2215 0ca8 488D4D90 		leaq	-112(%rbp), %rcx
 2216 0cac BA000000 		movl	$.LC20, %edx
 2216      00
 2217 0cb1 4889CE   		movq	%rcx, %rsi
 2218 0cb4 4889C7   		movq	%rax, %rdi
 2219 0cb7 E8000000 		call	_ZN8UnitTest11TestResults13OnTestFailureERKNS_11TestDetailsEPKc
 2219      00
 2220              	.LEHE66:
 2221              	.L110:
 2222              	.LEHB67:
 113:TestTest.cpp  ****     CHECK_EQUAL("testSuite", test.m_details.suiteName);
 2223              		.loc 4 113 0 is_stmt 1
 2224 0cbc E8000000 		call	_ZN8UnitTest11CurrentTest7DetailsEv
 2224      00
 2225 0cc1 488B08   		movq	(%rax), %rcx
 2226 0cc4 488D4590 		leaq	-112(%rbp), %rax
 2227 0cc8 BA710000 		movl	$113, %edx
 2227      00
 2228 0ccd 4889CE   		movq	%rcx, %rsi
 2229 0cd0 4889C7   		movq	%rax, %rdi
 2230 0cd3 E8000000 		call	_ZN8UnitTest11TestDetailsC1ERKS0_i
 2230      00
 2231              		.loc 4 113 0 is_stmt 0 discriminator 2
 2232 0cd8 488B5DB8 		movq	-72(%rbp), %rbx
 2233 0cdc E8000000 		call	_ZN8UnitTest11CurrentTest7ResultsEv
 2233      00
 2234 0ce1 488B00   		movq	(%rax), %rax
 2235 0ce4 488D5590 		leaq	-112(%rbp), %rdx
 2236 0ce8 4889D1   		movq	%rdx, %rcx
 2237 0ceb 4889DA   		movq	%rbx, %rdx
 2238 0cee BE000000 		movl	$.LC24, %esi
 2238      00
 2239 0cf3 4889C7   		movq	%rax, %rdi
 2240 0cf6 E8000000 		call	_ZN8UnitTest10CheckEqualERNS_11TestResultsEPKcS3_RKNS_11TestDetailsE
 2240      00
 2241              	.LEHE67:
 2242              	.L115:
 111:TestTest.cpp  ****     Test test("test", "testSuite");
 2243              		.loc 4 111 0 is_stmt 1
 2244 0cfb 488D45B0 		leaq	-80(%rbp), %rax
 2245 0cff 4889C7   		movq	%rax, %rdi
 2246              	.LEHB68:
 2247 0d02 E8000000 		call	_ZN8UnitTest4TestD1Ev
 2247      00
 2248              	.LEHE68:
 114:TestTest.cpp  **** }
 2249              		.loc 4 114 0
 2250 0d07 90       		nop
 2251 0d08 488B45E8 		movq	-24(%rbp), %rax
 2252 0d0c 64483304 		xorq	%fs:40, %rax
 2252      25280000 
 2252      00
 2253 0d15 0F84CC00 		je	.L117
 2253      0000
 2254 0d1b E9C20000 		jmp	.L123
 2254      00
 2255              	.L118:
 112:TestTest.cpp  ****     CHECK(test.m_details.suiteName != NULL);
 2256              		.loc 4 112 0
 2257 0d20 4889C7   		movq	%rax, %rdi
 2258 0d23 E8000000 		call	__cxa_begin_catch
 2258      00
 2259              	.LEHB69:
 2260 0d28 E8000000 		call	_ZN8UnitTest11CurrentTest7DetailsEv
 2260      00
 2261 0d2d 488B08   		movq	(%rax), %rcx
 2262 0d30 488D4590 		leaq	-112(%rbp), %rax
 2263 0d34 BA700000 		movl	$112, %edx
 2263      00
 2264 0d39 4889CE   		movq	%rcx, %rsi
 2265 0d3c 4889C7   		movq	%rax, %rdi
 2266 0d3f E8000000 		call	_ZN8UnitTest11TestDetailsC1ERKS0_i
 2266      00
 112:TestTest.cpp  ****     CHECK(test.m_details.suiteName != NULL);
 2267              		.loc 4 112 0 is_stmt 0 discriminator 11
 2268 0d44 E8000000 		call	_ZN8UnitTest11CurrentTest7ResultsEv
 2268      00
 2269 0d49 488B00   		movq	(%rax), %rax
 2270 0d4c 488D4D90 		leaq	-112(%rbp), %rcx
 2271 0d50 BA000000 		movl	$.LC21, %edx
 2271      00
 2272 0d55 4889CE   		movq	%rcx, %rsi
 2273 0d58 4889C7   		movq	%rax, %rdi
 2274 0d5b E8000000 		call	_ZN8UnitTest11TestResults13OnTestFailureERKNS_11TestDetailsEPKc
 2274      00
 2275              	.LEHE69:
 2276              	.LEHB70:
 112:TestTest.cpp  ****     CHECK(test.m_details.suiteName != NULL);
 2277              		.loc 4 112 0 discriminator 15
 2278 0d60 E8000000 		call	__cxa_end_catch
 2278      00
 2279              	.LEHE70:
 112:TestTest.cpp  ****     CHECK(test.m_details.suiteName != NULL);
 2280              		.loc 4 112 0
 2281 0d65 E952FFFF 		jmp	.L110
 2281      FF
 2282              	.L120:
 2283 0d6a 4889C3   		movq	%rax, %rbx
 2284 0d6d E8000000 		call	__cxa_end_catch
 2284      00
 2285 0d72 EB57     		jmp	.L113
 2286              	.L121:
 113:TestTest.cpp  ****     CHECK_EQUAL("testSuite", test.m_details.suiteName);
 2287              		.loc 4 113 0 is_stmt 1
 2288 0d74 4889C7   		movq	%rax, %rdi
 2289 0d77 E8000000 		call	__cxa_begin_catch
 2289      00
 2290              	.LEHB71:
 2291 0d7c E8000000 		call	_ZN8UnitTest11CurrentTest7DetailsEv
 2291      00
 2292 0d81 488B08   		movq	(%rax), %rcx
 2293 0d84 488D4590 		leaq	-112(%rbp), %rax
 2294 0d88 BA710000 		movl	$113, %edx
 2294      00
 2295 0d8d 4889CE   		movq	%rcx, %rsi
 2296 0d90 4889C7   		movq	%rax, %rdi
 2297 0d93 E8000000 		call	_ZN8UnitTest11TestDetailsC1ERKS0_i
 2297      00
 113:TestTest.cpp  ****     CHECK_EQUAL("testSuite", test.m_details.suiteName);
 2298              		.loc 4 113 0 is_stmt 0 discriminator 10
 2299 0d98 E8000000 		call	_ZN8UnitTest11CurrentTest7ResultsEv
 2299      00
 2300 0d9d 488B00   		movq	(%rax), %rax
 2301 0da0 488D4D90 		leaq	-112(%rbp), %rcx
 2302 0da4 BA000000 		movl	$.LC25, %edx
 2302      00
 2303 0da9 4889CE   		movq	%rcx, %rsi
 2304 0dac 4889C7   		movq	%rax, %rdi
 2305 0daf E8000000 		call	_ZN8UnitTest11TestResults13OnTestFailureERKNS_11TestDetailsEPKc
 2305      00
 2306              	.LEHE71:
 2307              	.LEHB72:
 113:TestTest.cpp  ****     CHECK_EQUAL("testSuite", test.m_details.suiteName);
 2308              		.loc 4 113 0 discriminator 14
 2309 0db4 E8000000 		call	__cxa_end_catch
 2309      00
 2310              	.LEHE72:
 113:TestTest.cpp  ****     CHECK_EQUAL("testSuite", test.m_details.suiteName);
 2311              		.loc 4 113 0
 2312 0db9 E93DFFFF 		jmp	.L115
 2312      FF
 2313              	.L122:
 2314 0dbe 4889C3   		movq	%rax, %rbx
 2315 0dc1 E8000000 		call	__cxa_end_catch
 2315      00
 2316 0dc6 EB03     		jmp	.L113
 2317              	.L119:
 2318 0dc8 4889C3   		movq	%rax, %rbx
 2319              	.L113:
 111:TestTest.cpp  ****     CHECK(test.m_details.suiteName != NULL);
 2320              		.loc 4 111 0 is_stmt 1
 2321 0dcb 488D45B0 		leaq	-80(%rbp), %rax
 2322 0dcf 4889C7   		movq	%rax, %rdi
 2323 0dd2 E8000000 		call	_ZN8UnitTest4TestD1Ev
 2323      00
 2324 0dd7 4889D8   		movq	%rbx, %rax
 2325 0dda 4889C7   		movq	%rax, %rdi
 2326              	.LEHB73:
 2327 0ddd E8000000 		call	_Unwind_Resume
 2327      00
 2328              	.LEHE73:
 2329              	.L123:
 2330              		.loc 4 114 0
 2331 0de2 E8000000 		call	__stack_chk_fail
 2331      00
 2332              	.L117:
 2333 0de7 4883C478 		addq	$120, %rsp
 2334 0deb 5B       		popq	%rbx
 2335 0dec 5D       		popq	%rbp
 2336              		.cfi_def_cfa 7, 8
 2337 0ded C3       		ret
 2338              		.cfi_endproc
 2339              	.LFE1117:
 2340              		.section	.gcc_except_table
 2341              		.align 4
 2342              	.LLSDA1117:
 2343 018c FF       		.byte	0xff
 2344 018d 03       		.byte	0x3
 2345 018e 39       		.uleb128 .LLSDATT1117-.LLSDATTD1117
 2346              	.LLSDATTD1117:
 2347 018f 01       		.byte	0x1
 2348 0190 31       		.uleb128 .LLSDACSE1117-.LLSDACSB1117
 2349              	.LLSDACSB1117:
 2350 0191 38       		.uleb128 .LEHB65-.LFB1117
 2351 0192 05       		.uleb128 .LEHE65-.LEHB65
 2352 0193 00       		.uleb128 0
 2353 0194 00       		.uleb128 0
 2354 0195 58       		.uleb128 .LEHB66-.LFB1117
 2355 0196 38       		.uleb128 .LEHE66-.LEHB66
 2356 0197 F401     		.uleb128 .L118-.LFB1117
 2357 0199 01       		.uleb128 0x1
 2358 019a 9001     		.uleb128 .LEHB67-.LFB1117
 2359 019c 3F       		.uleb128 .LEHE67-.LEHB67
 2360 019d C802     		.uleb128 .L121-.LFB1117
 2361 019f 01       		.uleb128 0x1
 2362 01a0 D601     		.uleb128 .LEHB68-.LFB1117
 2363 01a2 05       		.uleb128 .LEHE68-.LEHB68
 2364 01a3 00       		.uleb128 0
 2365 01a4 00       		.uleb128 0
 2366 01a5 FC01     		.uleb128 .LEHB69-.LFB1117
 2367 01a7 38       		.uleb128 .LEHE69-.LEHB69
 2368 01a8 BE02     		.uleb128 .L120-.LFB1117
 2369 01aa 00       		.uleb128 0
 2370 01ab B402     		.uleb128 .LEHB70-.LFB1117
 2371 01ad 05       		.uleb128 .LEHE70-.LEHB70
 2372 01ae 9C03     		.uleb128 .L119-.LFB1117
 2373 01b0 00       		.uleb128 0
 2374 01b1 D002     		.uleb128 .LEHB71-.LFB1117
 2375 01b3 38       		.uleb128 .LEHE71-.LEHB71
 2376 01b4 9203     		.uleb128 .L122-.LFB1117
 2377 01b6 00       		.uleb128 0
 2378 01b7 8803     		.uleb128 .LEHB72-.LFB1117
 2379 01b9 05       		.uleb128 .LEHE72-.LEHB72
 2380 01ba 9C03     		.uleb128 .L119-.LFB1117
 2381 01bc 00       		.uleb128 0
 2382 01bd B103     		.uleb128 .LEHB73-.LFB1117
 2383 01bf 05       		.uleb128 .LEHE73-.LEHB73
 2384 01c0 00       		.uleb128 0
 2385 01c1 00       		.uleb128 0
 2386              	.LLSDACSE1117:
 2387 01c2 01       		.byte	0x1
 2388 01c3 00       		.byte	0
 2389              		.align 4
 2390 01c4 00000000 		.long	0
 2391              	
 2392              	.LLSDATT1117:
 2393              		.text
 2396              	_ZN12_GLOBAL__N_14FailEv:
 2397              	.LFB1118:
 115:TestTest.cpp  **** 
 116:TestTest.cpp  **** void Fail()
 117:TestTest.cpp  **** {
 2398              		.loc 4 117 0
 2399              		.cfi_startproc
 2400              		.cfi_personality 0x3,__gxx_personality_v0
 2401              		.cfi_lsda 0x3,.LLSDA1118
 2402 0dee 55       		pushq	%rbp
 2403              		.cfi_def_cfa_offset 16
 2404              		.cfi_offset 6, -16
 2405 0def 4889E5   		movq	%rsp, %rbp
 2406              		.cfi_def_cfa_register 6
 2407 0df2 53       		pushq	%rbx
 2408 0df3 4883EC38 		subq	$56, %rsp
 2409              		.cfi_offset 3, -24
 2410              		.loc 4 117 0
 2411 0df7 64488B04 		movq	%fs:40, %rax
 2411      25280000 
 2411      00
 2412 0e00 488945E8 		movq	%rax, -24(%rbp)
 2413 0e04 31C0     		xorl	%eax, %eax
 118:TestTest.cpp  **** 	CHECK(false);
 2414              		.loc 4 118 0
 2415 0e06 BF000000 		movl	$0, %edi
 2415      00
 2416 0e0b E8000000 		call	_ZN8UnitTest5CheckIbEEbT_
 2416      00
 2417 0e10 83F001   		xorl	$1, %eax
 2418 0e13 84C0     		testb	%al, %al
 2419 0e15 0F849400 		je	.L131
 2419      0000
 2420              	.LEHB74:
 2421              		.loc 4 118 0 is_stmt 0 discriminator 1
 2422 0e1b E8000000 		call	_ZN8UnitTest11CurrentTest7DetailsEv
 2422      00
 2423 0e20 488B08   		movq	(%rax), %rcx
 2424 0e23 488D45C0 		leaq	-64(%rbp), %rax
 2425 0e27 BA760000 		movl	$118, %edx
 2425      00
 2426 0e2c 4889CE   		movq	%rcx, %rsi
 2427 0e2f 4889C7   		movq	%rax, %rdi
 2428 0e32 E8000000 		call	_ZN8UnitTest11TestDetailsC1ERKS0_i
 2428      00
 2429              		.loc 4 118 0 discriminator 3
 2430 0e37 E8000000 		call	_ZN8UnitTest11CurrentTest7ResultsEv
 2430      00
 2431 0e3c 488B00   		movq	(%rax), %rax
 2432 0e3f 488D4DC0 		leaq	-64(%rbp), %rcx
 2433 0e43 BA000000 		movl	$.LC10, %edx
 2433      00
 2434 0e48 4889CE   		movq	%rcx, %rsi
 2435 0e4b 4889C7   		movq	%rax, %rdi
 2436 0e4e E8000000 		call	_ZN8UnitTest11TestResults13OnTestFailureERKNS_11TestDetailsEPKc
 2436      00
 2437              	.LEHE74:
 119:TestTest.cpp  **** }
 2438              		.loc 4 119 0 is_stmt 1
 2439 0e53 EB5A     		jmp	.L131
 2440              	.L129:
 118:TestTest.cpp  **** 	CHECK(false);
 2441              		.loc 4 118 0
 2442 0e55 4889C7   		movq	%rax, %rdi
 2443 0e58 E8000000 		call	__cxa_begin_catch
 2443      00
 2444              	.LEHB75:
 2445 0e5d E8000000 		call	_ZN8UnitTest11CurrentTest7DetailsEv
 2445      00
 2446 0e62 488B08   		movq	(%rax), %rcx
 2447 0e65 488D45C0 		leaq	-64(%rbp), %rax
 2448 0e69 BA760000 		movl	$118, %edx
 2448      00
 2449 0e6e 4889CE   		movq	%rcx, %rsi
 2450 0e71 4889C7   		movq	%rax, %rdi
 2451 0e74 E8000000 		call	_ZN8UnitTest11TestDetailsC1ERKS0_i
 2451      00
 118:TestTest.cpp  **** 	CHECK(false);
 2452              		.loc 4 118 0 is_stmt 0 discriminator 11
 2453 0e79 E8000000 		call	_ZN8UnitTest11CurrentTest7ResultsEv
 2453      00
 2454 0e7e 488B00   		movq	(%rax), %rax
 2455 0e81 488D4DC0 		leaq	-64(%rbp), %rcx
 2456 0e85 BA000000 		movl	$.LC11, %edx
 2456      00
 2457 0e8a 4889CE   		movq	%rcx, %rsi
 2458 0e8d 4889C7   		movq	%rax, %rdi
 2459 0e90 E8000000 		call	_ZN8UnitTest11TestResults13OnTestFailureERKNS_11TestDetailsEPKc
 2459      00
 2460              	.LEHE75:
 2461              	.LEHB76:
 118:TestTest.cpp  **** 	CHECK(false);
 2462              		.loc 4 118 0 discriminator 15
 2463 0e95 E8000000 		call	__cxa_end_catch
 2463      00
 2464              	.LEHE76:
 2465              		.loc 4 119 0 is_stmt 1 discriminator 15
 2466 0e9a EB13     		jmp	.L131
 2467              	.L130:
 2468 0e9c 4889C3   		movq	%rax, %rbx
 118:TestTest.cpp  **** 	CHECK(false);
 2469              		.loc 4 118 0
 2470 0e9f E8000000 		call	__cxa_end_catch
 2470      00
 2471 0ea4 4889D8   		movq	%rbx, %rax
 2472 0ea7 4889C7   		movq	%rax, %rdi
 2473              	.LEHB77:
 2474 0eaa E8000000 		call	_Unwind_Resume
 2474      00
 2475              	.LEHE77:
 2476              	.L131:
 2477              		.loc 4 119 0
 2478 0eaf 90       		nop
 2479 0eb0 488B45E8 		movq	-24(%rbp), %rax
 2480 0eb4 64483304 		xorq	%fs:40, %rax
 2480      25280000 
 2480      00
 2481 0ebd 7405     		je	.L128
 2482 0ebf E8000000 		call	__stack_chk_fail
 2482      00
 2483              	.L128:
 2484 0ec4 4883C438 		addq	$56, %rsp
 2485 0ec8 5B       		popq	%rbx
 2486 0ec9 5D       		popq	%rbp
 2487              		.cfi_def_cfa 7, 8
 2488 0eca C3       		ret
 2489              		.cfi_endproc
 2490              	.LFE1118:
 2491              		.section	.gcc_except_table
 2492              		.align 4
 2493              	.LLSDA1118:
 2494 01c8 FF       		.byte	0xff
 2495 01c9 03       		.byte	0x3
 2496 01ca 1D       		.uleb128 .LLSDATT1118-.LLSDATTD1118
 2497              	.LLSDATTD1118:
 2498 01cb 01       		.byte	0x1
 2499 01cc 13       		.uleb128 .LLSDACSE1118-.LLSDACSB1118
 2500              	.LLSDACSB1118:
 2501 01cd 2D       		.uleb128 .LEHB74-.LFB1118
 2502 01ce 38       		.uleb128 .LEHE74-.LEHB74
 2503 01cf 67       		.uleb128 .L129-.LFB1118
 2504 01d0 01       		.uleb128 0x1
 2505 01d1 6F       		.uleb128 .LEHB75-.LFB1118
 2506 01d2 38       		.uleb128 .LEHE75-.LEHB75
 2507 01d3 AE01     		.uleb128 .L130-.LFB1118
 2508 01d5 00       		.uleb128 0
 2509 01d6 A701     		.uleb128 .LEHB76-.LFB1118
 2510 01d8 05       		.uleb128 .LEHE76-.LEHB76
 2511 01d9 00       		.uleb128 0
 2512 01da 00       		.uleb128 0
 2513 01db BC01     		.uleb128 .LEHB77-.LFB1118
 2514 01dd 05       		.uleb128 .LEHE77-.LEHB77
 2515 01de 00       		.uleb128 0
 2516 01df 00       		.uleb128 0
 2517              	.LLSDACSE1118:
 2518 01e0 01       		.byte	0x1
 2519 01e1 00       		.byte	0
 2520 01e2 0000     		.align 4
 2521 01e4 00000000 		.long	0
 2522              	
 2523              	.LLSDATT1118:
 2524              		.text
 2526              		.section	.rodata
 2527 0312 00000000 		.align 8
 2527      0000
 2528              	.LC26:
 2529 0318 4F75744F 		.string	"OutOfCoreCHECKMacrosCanFailTests"
 2529      66436F72 
 2529      65434845 
 2529      434B4D61 
 2529      63726F73 
 2530              		.text
 2531 0ecb 90       		.align 2
 2533              	_ZN12_GLOBAL__N_136TestOutOfCoreCHECKMacrosCanFailTestsC2Ev:
 2534              	.LFB1120:
 120:TestTest.cpp  **** 
 121:TestTest.cpp  **** TEST(OutOfCoreCHECKMacrosCanFailTests)
 2535              		.loc 4 121 0
 2536              		.cfi_startproc
 2537 0ecc 55       		pushq	%rbp
 2538              		.cfi_def_cfa_offset 16
 2539              		.cfi_offset 6, -16
 2540 0ecd 4889E5   		movq	%rsp, %rbp
 2541              		.cfi_def_cfa_register 6
 2542 0ed0 4883EC10 		subq	$16, %rsp
 2543 0ed4 48897DF8 		movq	%rdi, -8(%rbp)
 2544              	.LBB24:
 2545              		.loc 4 121 0
 2546 0ed8 E8000000 		call	_ZN13UnitTestSuite12GetSuiteNameEv
 2546      00
 2547 0edd 4889C2   		movq	%rax, %rdx
 2548 0ee0 488B45F8 		movq	-8(%rbp), %rax
 2549 0ee4 41B87900 		movl	$121, %r8d
 2549      0000
 2550 0eea B9000000 		movl	$.LC1, %ecx
 2550      00
 2551 0eef BE000000 		movl	$.LC26, %esi
 2551      00
 2552 0ef4 4889C7   		movq	%rax, %rdi
 2553 0ef7 E8000000 		call	_ZN8UnitTest4TestC2EPKcS2_S2_i
 2553      00
 2554 0efc BA000000 		movl	$_ZTVN12_GLOBAL__N_136TestOutOfCoreCHECKMacrosCanFailTestsE+16, %edx
 2554      00
 2555 0f01 488B45F8 		movq	-8(%rbp), %rax
 2556 0f05 488910   		movq	%rdx, (%rax)
 2557              	.LBE24:
 2558 0f08 90       		nop
 2559 0f09 C9       		leave
 2560              		.cfi_def_cfa 7, 8
 2561 0f0a C3       		ret
 2562              		.cfi_endproc
 2563              	.LFE1120:
 2565              		.set	_ZN12_GLOBAL__N_136TestOutOfCoreCHECKMacrosCanFailTestsC1Ev,_ZN12_GLOBAL__N_136TestOutOfCoreC
 2566              		.local	_ZN12_GLOBAL__N_144testOutOfCoreCHECKMacrosCanFailTestsInstanceE
 2567              		.comm	_ZN12_GLOBAL__N_144testOutOfCoreCHECKMacrosCanFailTestsInstanceE,56,32
 2568              		.local	_ZN12_GLOBAL__N_137adderOutOfCoreCHECKMacrosCanFailTestsE
 2569              		.comm	_ZN12_GLOBAL__N_137adderOutOfCoreCHECKMacrosCanFailTestsE,1,1
 2570 0f0b 90       		.align 2
 2572              	_ZNK12_GLOBAL__N_136TestOutOfCoreCHECKMacrosCanFailTests7RunImplEv:
 2573              	.LFB1122:
 122:TestTest.cpp  **** {
 2574              		.loc 4 122 0
 2575              		.cfi_startproc
 2576              		.cfi_personality 0x3,__gxx_personality_v0
 2577              		.cfi_lsda 0x3,.LLSDA1122
 2578 0f0c 55       		pushq	%rbp
 2579              		.cfi_def_cfa_offset 16
 2580              		.cfi_offset 6, -16
 2581 0f0d 4889E5   		movq	%rsp, %rbp
 2582              		.cfi_def_cfa_register 6
 2583 0f10 53       		pushq	%rbx
 2584 0f11 4883EC78 		subq	$120, %rsp
 2585              		.cfi_offset 3, -24
 2586 0f15 48897D88 		movq	%rdi, -120(%rbp)
 2587              		.loc 4 122 0
 2588 0f19 64488B04 		movq	%fs:40, %rax
 2588      25280000 
 2588      00
 2589 0f22 488945E8 		movq	%rax, -24(%rbp)
 2590 0f26 31C0     		xorl	%eax, %eax
 123:TestTest.cpp  **** 	TestResults results;
 2591              		.loc 4 123 0
 2592 0f28 488D45A0 		leaq	-96(%rbp), %rax
 2593 0f2c BE000000 		movl	$0, %esi
 2593      00
 2594 0f31 4889C7   		movq	%rax, %rdi
 2595              	.LEHB78:
 2596 0f34 E8000000 		call	_ZN8UnitTest11TestResultsC1EPNS_12TestReporterE
 2596      00
 2597              	.LBB25:
 124:TestTest.cpp  **** 	{
 125:TestTest.cpp  **** 		ScopedCurrentTest scopedResult(results);
 2598              		.loc 4 125 0
 2599 0f39 488D4DA0 		leaq	-96(%rbp), %rcx
 2600 0f3d 488D45C0 		leaq	-64(%rbp), %rax
 2601 0f41 BA000000 		movl	$0, %edx
 2601      00
 2602 0f46 4889CE   		movq	%rcx, %rsi
 2603 0f49 4889C7   		movq	%rax, %rdi
 2604 0f4c E8000000 		call	_ZN17ScopedCurrentTestC1ERN8UnitTest11TestResultsEPKNS0_11TestDetailsE
 2604      00
 2605              	.LEHE78:
 2606              	.LEHB79:
 126:TestTest.cpp  **** 		Fail();
 2607              		.loc 4 126 0
 2608 0f51 E898FEFF 		call	_ZN12_GLOBAL__N_14FailEv
 2608      FF
 2609              	.LEHE79:
 125:TestTest.cpp  **** 		Fail();
 2610              		.loc 4 125 0
 2611 0f56 488D45C0 		leaq	-64(%rbp), %rax
 2612 0f5a 4889C7   		movq	%rax, %rdi
 2613              	.LEHB80:
 2614 0f5d E8000000 		call	_ZN17ScopedCurrentTestD1Ev
 2614      00
 2615              	.LEHE80:
 2616              	.LEHB81:
 2617              	.LBE25:
 127:TestTest.cpp  **** 	}
 128:TestTest.cpp  **** 
 129:TestTest.cpp  **** 	CHECK_EQUAL(1, results.GetFailureCount());
 2618              		.loc 4 129 0
 2619 0f62 E8000000 		call	_ZN8UnitTest11CurrentTest7DetailsEv
 2619      00
 2620 0f67 488B08   		movq	(%rax), %rcx
 2621 0f6a 488D45C0 		leaq	-64(%rbp), %rax
 2622 0f6e BA810000 		movl	$129, %edx
 2622      00
 2623 0f73 4889CE   		movq	%rcx, %rsi
 2624 0f76 4889C7   		movq	%rax, %rdi
 2625 0f79 E8000000 		call	_ZN8UnitTest11TestDetailsC1ERKS0_i
 2625      00
 2626              		.loc 4 129 0 is_stmt 0 discriminator 2
 2627 0f7e 488D45A0 		leaq	-96(%rbp), %rax
 2628 0f82 4889C7   		movq	%rax, %rdi
 2629 0f85 E8000000 		call	_ZNK8UnitTest11TestResults15GetFailureCountEv
 2629      00
 2630              	.LEHE81:
 2631 0f8a 89459C   		movl	%eax, -100(%rbp)
 2632 0f8d C7459801 		movl	$1, -104(%rbp)
 2632      000000
 2633              	.LEHB82:
 2634 0f94 E8000000 		call	_ZN8UnitTest11CurrentTest7ResultsEv
 2634      00
 2635              		.loc 4 129 0 discriminator 4
 2636 0f99 488B00   		movq	(%rax), %rax
 2637 0f9c 488D4DC0 		leaq	-64(%rbp), %rcx
 2638 0fa0 488D559C 		leaq	-100(%rbp), %rdx
 2639 0fa4 488D7598 		leaq	-104(%rbp), %rsi
 2640 0fa8 4889C7   		movq	%rax, %rdi
 2641 0fab E8000000 		call	_ZN8UnitTest10CheckEqualIiiEEvRNS_11TestResultsERKT_RKT0_RKNS_11TestDetailsE
 2641      00
 2642              	.LEHE82:
 130:TestTest.cpp  **** }
 2643              		.loc 4 130 0 is_stmt 1
 2644 0fb0 EB76     		jmp	.L133
 2645              	.L140:
 2646 0fb2 4889C3   		movq	%rax, %rbx
 2647              	.LBB26:
 125:TestTest.cpp  **** 		Fail();
 2648              		.loc 4 125 0
 2649 0fb5 488D45C0 		leaq	-64(%rbp), %rax
 2650 0fb9 4889C7   		movq	%rax, %rdi
 2651 0fbc E8000000 		call	_ZN17ScopedCurrentTestD1Ev
 2651      00
 2652 0fc1 4889D8   		movq	%rbx, %rax
 2653 0fc4 4889C7   		movq	%rax, %rdi
 2654              	.LEHB83:
 2655 0fc7 E8000000 		call	_Unwind_Resume
 2655      00
 2656              	.LEHE83:
 2657              	.L142:
 2658 0fcc EB00     		jmp	.L136
 2659              	.L141:
 2660              	.L136:
 2661              	.LBE26:
 129:TestTest.cpp  **** }
 2662              		.loc 4 129 0
 2663 0fce 4889C7   		movq	%rax, %rdi
 2664 0fd1 E8000000 		call	__cxa_begin_catch
 2664      00
 2665              	.LEHB84:
 2666 0fd6 E8000000 		call	_ZN8UnitTest11CurrentTest7DetailsEv
 2666      00
 2667 0fdb 488B08   		movq	(%rax), %rcx
 2668 0fde 488D45C0 		leaq	-64(%rbp), %rax
 2669 0fe2 BA810000 		movl	$129, %edx
 2669      00
 2670 0fe7 4889CE   		movq	%rcx, %rsi
 2671 0fea 4889C7   		movq	%rax, %rdi
 2672 0fed E8000000 		call	_ZN8UnitTest11TestDetailsC1ERKS0_i
 2672      00
 129:TestTest.cpp  **** }
 2673              		.loc 4 129 0 is_stmt 0 discriminator 12
 2674 0ff2 E8000000 		call	_ZN8UnitTest11CurrentTest7ResultsEv
 2674      00
 2675 0ff7 488B00   		movq	(%rax), %rax
 2676 0ffa 488D4DC0 		leaq	-64(%rbp), %rcx
 2677 0ffe BA000000 		movl	$.LC12, %edx
 2677      00
 2678 1003 4889CE   		movq	%rcx, %rsi
 2679 1006 4889C7   		movq	%rax, %rdi
 2680 1009 E8000000 		call	_ZN8UnitTest11TestResults13OnTestFailureERKNS_11TestDetailsEPKc
 2680      00
 2681              	.LEHE84:
 2682              	.LEHB85:
 129:TestTest.cpp  **** }
 2683              		.loc 4 129 0 discriminator 16
 2684 100e E8000000 		call	__cxa_end_catch
 2684      00
 2685              	.LEHE85:
 2686              		.loc 4 130 0 is_stmt 1 discriminator 16
 2687 1013 EB13     		jmp	.L133
 2688              	.L143:
 2689 1015 4889C3   		movq	%rax, %rbx
 129:TestTest.cpp  **** }
 2690              		.loc 4 129 0
 2691 1018 E8000000 		call	__cxa_end_catch
 2691      00
 2692 101d 4889D8   		movq	%rbx, %rax
 2693 1020 4889C7   		movq	%rax, %rdi
 2694              	.LEHB86:
 2695 1023 E8000000 		call	_Unwind_Resume
 2695      00
 2696              	.LEHE86:
 2697              	.L133:
 2698              		.loc 4 130 0
 2699 1028 488B45E8 		movq	-24(%rbp), %rax
 2700 102c 64483304 		xorq	%fs:40, %rax
 2700      25280000 
 2700      00
 2701 1035 7405     		je	.L139
 2702 1037 E8000000 		call	__stack_chk_fail
 2702      00
 2703              	.L139:
 2704 103c 4883C478 		addq	$120, %rsp
 2705 1040 5B       		popq	%rbx
 2706 1041 5D       		popq	%rbp
 2707              		.cfi_def_cfa 7, 8
 2708 1042 C3       		ret
 2709              		.cfi_endproc
 2710              	.LFE1122:
 2711              		.section	.gcc_except_table
 2712              		.align 4
 2713              	.LLSDA1122:
 2714 01e8 FF       		.byte	0xff
 2715 01e9 03       		.byte	0x3
 2716 01ea 39       		.uleb128 .LLSDATT1122-.LLSDATTD1122
 2717              	.LLSDATTD1122:
 2718 01eb 01       		.byte	0x1
 2719 01ec 2D       		.uleb128 .LLSDACSE1122-.LLSDACSB1122
 2720              	.LLSDACSB1122:
 2721 01ed 28       		.uleb128 .LEHB78-.LFB1122
 2722 01ee 1D       		.uleb128 .LEHE78-.LEHB78
 2723 01ef 00       		.uleb128 0
 2724 01f0 00       		.uleb128 0
 2725 01f1 45       		.uleb128 .LEHB79-.LFB1122
 2726 01f2 05       		.uleb128 .LEHE79-.LEHB79
 2727 01f3 A601     		.uleb128 .L140-.LFB1122
 2728 01f5 00       		.uleb128 0
 2729 01f6 51       		.uleb128 .LEHB80-.LFB1122
 2730 01f7 05       		.uleb128 .LEHE80-.LEHB80
 2731 01f8 00       		.uleb128 0
 2732 01f9 00       		.uleb128 0
 2733 01fa 56       		.uleb128 .LEHB81-.LFB1122
 2734 01fb 28       		.uleb128 .LEHE81-.LEHB81
 2735 01fc C201     		.uleb128 .L141-.LFB1122
 2736 01fe 01       		.uleb128 0x1
 2737 01ff 8801     		.uleb128 .LEHB82-.LFB1122
 2738 0201 1C       		.uleb128 .LEHE82-.LEHB82
 2739 0202 C001     		.uleb128 .L142-.LFB1122
 2740 0204 03       		.uleb128 0x3
 2741 0205 BB01     		.uleb128 .LEHB83-.LFB1122
 2742 0207 05       		.uleb128 .LEHE83-.LEHB83
 2743 0208 00       		.uleb128 0
 2744 0209 00       		.uleb128 0
 2745 020a CA01     		.uleb128 .LEHB84-.LFB1122
 2746 020c 38       		.uleb128 .LEHE84-.LEHB84
 2747 020d 8902     		.uleb128 .L143-.LFB1122
 2748 020f 00       		.uleb128 0
 2749 0210 8202     		.uleb128 .LEHB85-.LFB1122
 2750 0212 05       		.uleb128 .LEHE85-.LEHB85
 2751 0213 00       		.uleb128 0
 2752 0214 00       		.uleb128 0
 2753 0215 9702     		.uleb128 .LEHB86-.LFB1122
 2754 0217 05       		.uleb128 .LEHE86-.LEHB86
 2755 0218 00       		.uleb128 0
 2756 0219 00       		.uleb128 0
 2757              	.LLSDACSE1122:
 2758 021a 01       		.byte	0x1
 2759 021b 00       		.byte	0
 2760 021c 00       		.byte	0
 2761 021d 7D       		.byte	0x7d
 2762 021e 0000     		.align 4
 2763 0220 00000000 		.long	0
 2764              	
 2765              	.LLSDATT1122:
 2766              		.text
 2768              		.section	.text._ZN8UnitTest5CheckIbEEbT_,"axG",@progbits,_ZN8UnitTest5CheckIbEEbT_,comdat
 2769              		.weak	_ZN8UnitTest5CheckIbEEbT_
 2771              	_ZN8UnitTest5CheckIbEEbT_:
 2772              	.LFB1150:
 2773              		.file 5 "../Checks.h"
   1:../Checks.h   **** #ifndef UNITTEST_CHECKS_H
   2:../Checks.h   **** #define UNITTEST_CHECKS_H
   3:../Checks.h   **** 
   4:../Checks.h   **** #include "Config.h"
   5:../Checks.h   **** #include "TestResults.h"
   6:../Checks.h   **** #include "MemoryOutStream.h"
   7:../Checks.h   **** 
   8:../Checks.h   **** namespace UnitTest {
   9:../Checks.h   **** 
  10:../Checks.h   **** 
  11:../Checks.h   **** template< typename Value >
  12:../Checks.h   **** bool Check(Value const value)
 2774              		.loc 5 12 0
 2775              		.cfi_startproc
 2776 0000 55       		pushq	%rbp
 2777              		.cfi_def_cfa_offset 16
 2778              		.cfi_offset 6, -16
 2779 0001 4889E5   		movq	%rsp, %rbp
 2780              		.cfi_def_cfa_register 6
 2781 0004 89F8     		movl	%edi, %eax
 2782 0006 8845FC   		movb	%al, -4(%rbp)
  13:../Checks.h   **** {
  14:../Checks.h   ****     return !!value; // doing double negative to avoid silly VS warnings
 2783              		.loc 5 14 0
 2784 0009 0FB645FC 		movzbl	-4(%rbp), %eax
  15:../Checks.h   **** }
 2785              		.loc 5 15 0
 2786 000d 5D       		popq	%rbp
 2787              		.cfi_def_cfa 7, 8
 2788 000e C3       		ret
 2789              		.cfi_endproc
 2790              	.LFE1150:
 2792              		.section	.text._ZN8UnitTest15MemoryOutStreamD1Ev,"axG",@progbits,_ZN8UnitTest15MemoryOutStreamD1Ev
 2793              		.align 2
 2794              		.weak	_ZN8UnitTest15MemoryOutStreamD1Ev
 2796              	_ZN8UnitTest15MemoryOutStreamD1Ev:
 2797              	.LFB1154:
  13:../MemoryOutStream.h **** {
 2798              		.loc 2 13 0
 2799              		.cfi_startproc
 2800              		.cfi_personality 0x3,__gxx_personality_v0
 2801              		.cfi_lsda 0x3,.LLSDA1154
 2802 0000 55       		pushq	%rbp
 2803              		.cfi_def_cfa_offset 16
 2804              		.cfi_offset 6, -16
 2805 0001 4889E5   		movq	%rsp, %rbp
 2806              		.cfi_def_cfa_register 6
 2807 0004 53       		pushq	%rbx
 2808 0005 4883EC18 		subq	$24, %rsp
 2809              		.cfi_offset 3, -24
 2810 0009 48897DE8 		movq	%rdi, -24(%rbp)
 2811              	.LBB27:
  13:../MemoryOutStream.h **** {
 2812              		.loc 2 13 0
 2813 000d BA000000 		movl	$_ZTVN8UnitTest15MemoryOutStreamE+24, %edx
 2813      00
 2814 0012 488B45E8 		movq	-24(%rbp), %rax
 2815 0016 488910   		movq	%rdx, (%rax)
 2816 0019 BA900000 		movl	$144, %edx
 2816      00
 2817 001e 488B45E8 		movq	-24(%rbp), %rax
 2818 0022 4801D0   		addq	%rdx, %rax
 2819 0025 BA000000 		movl	$_ZTVN8UnitTest15MemoryOutStreamE+64, %edx
 2819      00
 2820 002a 488910   		movq	%rdx, (%rax)
 2821 002d 488B45E8 		movq	-24(%rbp), %rax
 2822 0031 4883C070 		addq	$112, %rax
 2823 0035 4889C7   		movq	%rax, %rdi
 2824              	.LEHB87:
 2825 0038 E8000000 		call	_ZNSt7__cxx1112basic_stringIcSt11char_traitsIcESaIcEED1Ev
 2825      00
 2826              	.LEHE87:
  13:../MemoryOutStream.h **** {
 2827              		.loc 2 13 0 is_stmt 0 discriminator 14
 2828 003d BA000000 		movl	$_ZTTN8UnitTest15MemoryOutStreamE+8, %edx
 2828      00
 2829 0042 488B45E8 		movq	-24(%rbp), %rax
 2830 0046 4889D6   		movq	%rdx, %rsi
 2831 0049 4889C7   		movq	%rax, %rdi
 2832              	.LEHB88:
 2833 004c E8000000 		call	_ZNSt7__cxx1119basic_ostringstreamIcSt11char_traitsIcESaIcEED2Ev
 2833      00
 2834              	.LEHE88:
  13:../MemoryOutStream.h **** {
 2835              		.loc 2 13 0 discriminator 20
 2836 0051 B8020000 		movl	$2, %eax
 2836      00
 2837 0056 85C0     		testl	%eax, %eax
 2838 0058 7412     		je	.L147
  13:../MemoryOutStream.h **** {
 2839              		.loc 2 13 0 discriminator 21
 2840 005a 488B45E8 		movq	-24(%rbp), %rax
 2841 005e 48059000 		addq	$144, %rax
 2841      0000
 2842 0064 4889C7   		movq	%rax, %rdi
 2843              	.LEHB89:
 2844 0067 E8000000 		call	_ZNSt9basic_iosIcSt11char_traitsIcEED2Ev
 2844      00
 2845              	.LEHE89:
 2846              	.L147:
 2847              	.LBE27:
  13:../MemoryOutStream.h **** {
 2848              		.loc 2 13 0 discriminator 22
 2849 006c B8000000 		movl	$0, %eax
 2849      00
 2850 0071 85C0     		testl	%eax, %eax
 2851 0073 7450     		je	.L146
  13:../MemoryOutStream.h **** {
 2852              		.loc 2 13 0 discriminator 25
 2853 0075 488B45E8 		movq	-24(%rbp), %rax
 2854 0079 4889C7   		movq	%rax, %rdi
 2855 007c E8000000 		call	_ZdlPv
 2855      00
 2856 0081 EB42     		jmp	.L146
 2857              	.L152:
 2858 0083 4889C3   		movq	%rax, %rbx
 2859              	.LBB28:
  13:../MemoryOutStream.h **** {
 2860              		.loc 2 13 0
 2861 0086 BA000000 		movl	$_ZTTN8UnitTest15MemoryOutStreamE+8, %edx
 2861      00
 2862 008b 488B45E8 		movq	-24(%rbp), %rax
 2863 008f 4889D6   		movq	%rdx, %rsi
 2864 0092 4889C7   		movq	%rax, %rdi
 2865 0095 E8000000 		call	_ZNSt7__cxx1119basic_ostringstreamIcSt11char_traitsIcESaIcEED2Ev
 2865      00
 2866 009a EB03     		jmp	.L150
 2867              	.L153:
 2868 009c 4889C3   		movq	%rax, %rbx
 2869              	.L150:
  13:../MemoryOutStream.h **** {
 2870              		.loc 2 13 0 discriminator 19
 2871 009f B8020000 		movl	$2, %eax
 2871      00
 2872 00a4 85C0     		testl	%eax, %eax
 2873 00a6 7412     		je	.L151
  13:../MemoryOutStream.h **** {
 2874              		.loc 2 13 0 discriminator 32
 2875 00a8 488B45E8 		movq	-24(%rbp), %rax
 2876 00ac 48059000 		addq	$144, %rax
 2876      0000
 2877 00b2 4889C7   		movq	%rax, %rdi
 2878 00b5 E8000000 		call	_ZNSt9basic_iosIcSt11char_traitsIcEED2Ev
 2878      00
 2879              	.L151:
 2880 00ba 4889D8   		movq	%rbx, %rax
 2881 00bd 4889C7   		movq	%rax, %rdi
 2882              	.LEHB90:
 2883 00c0 E8000000 		call	_Unwind_Resume
 2883      00
 2884              	.LEHE90:
 2885              	.L146:
 2886              	.LBE28:
  13:../MemoryOutStream.h **** {
 2887              		.loc 2 13 0
 2888 00c5 4883C418 		addq	$24, %rsp
 2889 00c9 5B       		popq	%rbx
 2890 00ca 5D       		popq	%rbp
 2891              		.cfi_def_cfa 7, 8
 2892 00cb C3       		ret
 2893              		.cfi_endproc
 2894              	.LFE1154:
 2895              		.section	.gcc_except_table
 2896              	.LLSDA1154:
 2897 0224 FF       		.byte	0xff
 2898 0225 FF       		.byte	0xff
 2899 0226 01       		.byte	0x1
 2900 0227 13       		.uleb128 .LLSDACSE1154-.LLSDACSB1154
 2901              	.LLSDACSB1154:
 2902 0228 38       		.uleb128 .LEHB87-.LFB1154
 2903 0229 05       		.uleb128 .LEHE87-.LEHB87
 2904 022a 8301     		.uleb128 .L152-.LFB1154
 2905 022c 00       		.uleb128 0
 2906 022d 4C       		.uleb128 .LEHB88-.LFB1154
 2907 022e 05       		.uleb128 .LEHE88-.LEHB88
 2908 022f 9C01     		.uleb128 .L153-.LFB1154
 2909 0231 00       		.uleb128 0
 2910 0232 67       		.uleb128 .LEHB89-.LFB1154
 2911 0233 05       		.uleb128 .LEHE89-.LEHB89
 2912 0234 00       		.uleb128 0
 2913 0235 00       		.uleb128 0
 2914 0236 C001     		.uleb128 .LEHB90-.LFB1154
 2915 0238 05       		.uleb128 .LEHE90-.LEHB90
 2916 0239 00       		.uleb128 0
 2917 023a 00       		.uleb128 0
 2918              	.LLSDACSE1154:
 2919              		.section	.text._ZN8UnitTest15MemoryOutStreamD1Ev,"axG",@progbits,_ZN8UnitTest15MemoryOutStreamD1Ev
 2921              		.set	.LTHUNK0,_ZN8UnitTest15MemoryOutStreamD1Ev
 2922              		.weak	_ZTv0_n24_N8UnitTest15MemoryOutStreamD1Ev
 2924              	_ZTv0_n24_N8UnitTest15MemoryOutStreamD1Ev:
 2925              	.LFB1254:
  13:../MemoryOutStream.h **** {
 2926              		.loc 2 13 0 is_stmt 1
 2927              		.cfi_startproc
 2928 00cc 4C8B17   		movq	(%rdi), %r10
 2929 00cf 49037AE8 		addq	-24(%r10), %rdi
 2930 00d3 E928FFFF 		jmp	.LTHUNK0
 2930      FF
 2931              		.cfi_endproc
 2932              	.LFE1254:
 2934              		.section	.text._ZN8UnitTest15MemoryOutStreamD0Ev,"axG",@progbits,_ZN8UnitTest15MemoryOutStreamD0Ev
 2935              		.align 2
 2936              		.weak	_ZN8UnitTest15MemoryOutStreamD0Ev
 2938              	_ZN8UnitTest15MemoryOutStreamD0Ev:
 2939              	.LFB1155:
  13:../MemoryOutStream.h **** {
 2940              		.loc 2 13 0
 2941              		.cfi_startproc
 2942 0000 55       		pushq	%rbp
 2943              		.cfi_def_cfa_offset 16
 2944              		.cfi_offset 6, -16
 2945 0001 4889E5   		movq	%rsp, %rbp
 2946              		.cfi_def_cfa_register 6
 2947 0004 4883EC10 		subq	$16, %rsp
 2948 0008 48897DF8 		movq	%rdi, -8(%rbp)
  13:../MemoryOutStream.h **** {
 2949              		.loc 2 13 0
 2950 000c 488B45F8 		movq	-8(%rbp), %rax
 2951 0010 4889C7   		movq	%rax, %rdi
 2952 0013 E8000000 		call	_ZN8UnitTest15MemoryOutStreamD1Ev
 2952      00
 2953 0018 488B45F8 		movq	-8(%rbp), %rax
 2954 001c 4889C7   		movq	%rax, %rdi
 2955 001f E8000000 		call	_ZdlPv
 2955      00
 2956 0024 C9       		leave
 2957              		.cfi_def_cfa 7, 8
 2958 0025 C3       		ret
 2959              		.cfi_endproc
 2960              	.LFE1155:
 2962              		.set	.LTHUNK1,_ZN8UnitTest15MemoryOutStreamD0Ev
 2963              		.weak	_ZTv0_n24_N8UnitTest15MemoryOutStreamD0Ev
 2965              	_ZTv0_n24_N8UnitTest15MemoryOutStreamD0Ev:
 2966              	.LFB1255:
  13:../MemoryOutStream.h **** {
 2967              		.loc 2 13 0
 2968              		.cfi_startproc
 2969 0026 4C8B17   		movq	(%rdi), %r10
 2970 0029 49037AE8 		addq	-24(%r10), %rdi
 2971 002d EBD1     		jmp	.LTHUNK1
 2972              		.cfi_endproc
 2973              	.LFE1255:
 2975              		.section	.rodata
 2976              	.LC27:
 2977 0339 45787065 		.string	"Expected "
 2977      63746564 
 2977      2000
 2978              	.LC28:
 2979 0343 20627574 		.string	" but was "
 2979      20776173 
 2979      2000
 2980              		.section	.text._ZN8UnitTest10CheckEqualIiiEEvRNS_11TestResultsERKT_RKT0_RKNS_11TestDetailsE,"axG",
 2981              		.weak	_ZN8UnitTest10CheckEqualIiiEEvRNS_11TestResultsERKT_RKT0_RKNS_11TestDetailsE
 2983              	_ZN8UnitTest10CheckEqualIiiEEvRNS_11TestResultsERKT_RKT0_RKNS_11TestDetailsE:
 2984              	.LFB1151:
  16:../Checks.h   **** 
  17:../Checks.h   **** 
  18:../Checks.h   **** template< typename Expected, typename Actual >
  19:../Checks.h   **** void CheckEqual(TestResults& results, Expected const& expected, Actual const& actual, TestDetails c
 2985              		.loc 5 19 0
 2986              		.cfi_startproc
 2987              		.cfi_personality 0x3,__gxx_personality_v0
 2988              		.cfi_lsda 0x3,.LLSDA1151
 2989 0000 55       		pushq	%rbp
 2990              		.cfi_def_cfa_offset 16
 2991              		.cfi_offset 6, -16
 2992 0001 4889E5   		movq	%rsp, %rbp
 2993              		.cfi_def_cfa_register 6
 2994 0004 4154     		pushq	%r12
 2995 0006 53       		pushq	%rbx
 2996 0007 4881ECC0 		subq	$448, %rsp
 2996      010000
 2997              		.cfi_offset 12, -24
 2998              		.cfi_offset 3, -32
 2999 000e 4889BD48 		movq	%rdi, -440(%rbp)
 2999      FEFFFF
 3000 0015 4889B540 		movq	%rsi, -448(%rbp)
 3000      FEFFFF
 3001 001c 48899538 		movq	%rdx, -456(%rbp)
 3001      FEFFFF
 3002 0023 48898D30 		movq	%rcx, -464(%rbp)
 3002      FEFFFF
 3003              		.loc 5 19 0
 3004 002a 64488B04 		movq	%fs:40, %rax
 3004      25280000 
 3004      00
 3005 0033 488945E8 		movq	%rax, -24(%rbp)
 3006 0037 31C0     		xorl	%eax, %eax
 3007              	.LBB29:
  20:../Checks.h   **** {
  21:../Checks.h   ****     if (!(expected == actual))
 3008              		.loc 5 21 0
 3009 0039 488B8540 		movq	-448(%rbp), %rax
 3009      FEFFFF
 3010 0040 8B10     		movl	(%rax), %edx
 3011 0042 488B8538 		movq	-456(%rbp), %rax
 3011      FEFFFF
 3012 0049 8B00     		movl	(%rax), %eax
 3013 004b 39C2     		cmpl	%eax, %edx
 3014 004d 0F84B100 		je	.L160
 3014      0000
 3015              	.LBB30:
  22:../Checks.h   ****     {
  23:../Checks.h   ****         UnitTest::MemoryOutStream stream;
 3016              		.loc 5 23 0
 3017 0053 488D8550 		leaq	-432(%rbp), %rax
 3017      FEFFFF
 3018 005a 4889C7   		movq	%rax, %rdi
 3019              	.LEHB91:
 3020 005d E8000000 		call	_ZN8UnitTest15MemoryOutStreamC1Ev
 3020      00
 3021              	.LEHE91:
  24:../Checks.h   ****         stream << "Expected " << expected << " but was " << actual;
 3022              		.loc 5 24 0
 3023 0062 488B8538 		movq	-456(%rbp), %rax
 3023      FEFFFF
 3024 0069 8B18     		movl	(%rax), %ebx
 3025 006b 488B8540 		movq	-448(%rbp), %rax
 3025      FEFFFF
 3026 0072 448B20   		movl	(%rax), %r12d
 3027 0075 488D8550 		leaq	-432(%rbp), %rax
 3027      FEFFFF
 3028 007c BE000000 		movl	$.LC27, %esi
 3028      00
 3029 0081 4889C7   		movq	%rax, %rdi
 3030              	.LEHB92:
 3031 0084 E8000000 		call	_ZStlsISt11char_traitsIcEERSt13basic_ostreamIcT_ES5_PKc
 3031      00
 3032 0089 4489E6   		movl	%r12d, %esi
 3033 008c 4889C7   		movq	%rax, %rdi
 3034 008f E8000000 		call	_ZNSolsEi
 3034      00
 3035              		.loc 5 24 0 is_stmt 0 discriminator 1
 3036 0094 BE000000 		movl	$.LC28, %esi
 3036      00
 3037 0099 4889C7   		movq	%rax, %rdi
 3038 009c E8000000 		call	_ZStlsISt11char_traitsIcEERSt13basic_ostreamIcT_ES5_PKc
 3038      00
 3039              		.loc 5 24 0 discriminator 2
 3040 00a1 89DE     		movl	%ebx, %esi
 3041 00a3 4889C7   		movq	%rax, %rdi
 3042 00a6 E8000000 		call	_ZNSolsEi
 3042      00
  25:../Checks.h   **** 
  26:../Checks.h   ****         results.OnTestFailure(details, stream.GetText());
 3043              		.loc 5 26 0 is_stmt 1
 3044 00ab 488D8550 		leaq	-432(%rbp), %rax
 3044      FEFFFF
 3045 00b2 4889C7   		movq	%rax, %rdi
 3046 00b5 E8000000 		call	_ZNK8UnitTest15MemoryOutStream7GetTextEv
 3046      00
 3047 00ba 4889C2   		movq	%rax, %rdx
 3048 00bd 488B8D30 		movq	-464(%rbp), %rcx
 3048      FEFFFF
 3049 00c4 488B8548 		movq	-440(%rbp), %rax
 3049      FEFFFF
 3050 00cb 4889CE   		movq	%rcx, %rsi
 3051 00ce 4889C7   		movq	%rax, %rdi
 3052 00d1 E8000000 		call	_ZN8UnitTest11TestResults13OnTestFailureERKNS_11TestDetailsEPKc
 3052      00
 3053              	.LEHE92:
  23:../Checks.h   ****         stream << "Expected " << expected << " but was " << actual;
 3054              		.loc 5 23 0
 3055 00d6 488D8550 		leaq	-432(%rbp), %rax
 3055      FEFFFF
 3056 00dd 4889C7   		movq	%rax, %rdi
 3057              	.LEHB93:
 3058 00e0 E8000000 		call	_ZN8UnitTest15MemoryOutStreamD1Ev
 3058      00
 3059              	.LEHE93:
 3060              	.LBE30:
 3061              	.LBE29:
  27:../Checks.h   ****     }
  28:../Checks.h   **** }
 3062              		.loc 5 28 0
 3063 00e5 EB1D     		jmp	.L160
 3064              	.L159:
 3065 00e7 4889C3   		movq	%rax, %rbx
 3066              	.LBB32:
 3067              	.LBB31:
  23:../Checks.h   ****         stream << "Expected " << expected << " but was " << actual;
 3068              		.loc 5 23 0
 3069 00ea 488D8550 		leaq	-432(%rbp), %rax
 3069      FEFFFF
 3070 00f1 4889C7   		movq	%rax, %rdi
 3071 00f4 E8000000 		call	_ZN8UnitTest15MemoryOutStreamD1Ev
 3071      00
 3072 00f9 4889D8   		movq	%rbx, %rax
 3073 00fc 4889C7   		movq	%rax, %rdi
 3074              	.LEHB94:
 3075 00ff E8000000 		call	_Unwind_Resume
 3075      00
 3076              	.LEHE94:
 3077              	.L160:
 3078              	.LBE31:
 3079              	.LBE32:
 3080              		.loc 5 28 0
 3081 0104 90       		nop
 3082 0105 488B45E8 		movq	-24(%rbp), %rax
 3083 0109 64483304 		xorq	%fs:40, %rax
 3083      25280000 
 3083      00
 3084 0112 7405     		je	.L158
 3085 0114 E8000000 		call	__stack_chk_fail
 3085      00
 3086              	.L158:
 3087 0119 4881C4C0 		addq	$448, %rsp
 3087      010000
 3088 0120 5B       		popq	%rbx
 3089 0121 415C     		popq	%r12
 3090 0123 5D       		popq	%rbp
 3091              		.cfi_def_cfa 7, 8
 3092 0124 C3       		ret
 3093              		.cfi_endproc
 3094              	.LFE1151:
 3095              		.section	.gcc_except_table
 3096              	.LLSDA1151:
 3097 023b FF       		.byte	0xff
 3098 023c FF       		.byte	0xff
 3099 023d 01       		.byte	0x1
 3100 023e 14       		.uleb128 .LLSDACSE1151-.LLSDACSB1151
 3101              	.LLSDACSB1151:
 3102 023f 5D       		.uleb128 .LEHB91-.LFB1151
 3103 0240 05       		.uleb128 .LEHE91-.LEHB91
 3104 0241 00       		.uleb128 0
 3105 0242 00       		.uleb128 0
 3106 0243 8401     		.uleb128 .LEHB92-.LFB1151
 3107 0245 52       		.uleb128 .LEHE92-.LEHB92
 3108 0246 E701     		.uleb128 .L159-.LFB1151
 3109 0248 00       		.uleb128 0
 3110 0249 E001     		.uleb128 .LEHB93-.LFB1151
 3111 024b 05       		.uleb128 .LEHE93-.LEHB93
 3112 024c 00       		.uleb128 0
 3113 024d 00       		.uleb128 0
 3114 024e FF01     		.uleb128 .LEHB94-.LFB1151
 3115 0250 05       		.uleb128 .LEHE94-.LEHB94
 3116 0251 00       		.uleb128 0
 3117 0252 00       		.uleb128 0
 3118              	.LLSDACSE1151:
 3119              		.section	.text._ZN8UnitTest10CheckEqualIiiEEvRNS_11TestResultsERKT_RKT0_RKNS_11TestDetailsE,"axG",
 3121              		.section	.rodata
 3122 034d 000000   		.align 8
 3125              	_ZTVN12_GLOBAL__N_136TestOutOfCoreCHECKMacrosCanFailTestsE:
 3126 0350 00000000 		.quad	0
 3126      00000000 
 3127 0358 00000000 		.quad	_ZTIN12_GLOBAL__N_136TestOutOfCoreCHECKMacrosCanFailTestsE
 3127      00000000 
 3128 0360 00000000 		.quad	_ZN12_GLOBAL__N_136TestOutOfCoreCHECKMacrosCanFailTestsD1Ev
 3128      00000000 
 3129 0368 00000000 		.quad	_ZN12_GLOBAL__N_136TestOutOfCoreCHECKMacrosCanFailTestsD0Ev
 3129      00000000 
 3130 0370 00000000 		.quad	_ZNK12_GLOBAL__N_136TestOutOfCoreCHECKMacrosCanFailTests7RunImplEv
 3130      00000000 
 3131              		.text
 3132 1043 90       		.align 2
 3134              	_ZN12_GLOBAL__N_136TestOutOfCoreCHECKMacrosCanFailTestsD2Ev:
 3135              	.LFB1209:
 121:TestTest.cpp  **** {
 3136              		.loc 4 121 0
 3137              		.cfi_startproc
 3138 1044 55       		pushq	%rbp
 3139              		.cfi_def_cfa_offset 16
 3140              		.cfi_offset 6, -16
 3141 1045 4889E5   		movq	%rsp, %rbp
 3142              		.cfi_def_cfa_register 6
 3143 1048 4883EC10 		subq	$16, %rsp
 3144 104c 48897DF8 		movq	%rdi, -8(%rbp)
 3145              	.LBB33:
 121:TestTest.cpp  **** {
 3146              		.loc 4 121 0
 3147 1050 BA000000 		movl	$_ZTVN12_GLOBAL__N_136TestOutOfCoreCHECKMacrosCanFailTestsE+16, %edx
 3147      00
 3148 1055 488B45F8 		movq	-8(%rbp), %rax
 3149 1059 488910   		movq	%rdx, (%rax)
 3150 105c 488B45F8 		movq	-8(%rbp), %rax
 3151 1060 4889C7   		movq	%rax, %rdi
 3152 1063 E8000000 		call	_ZN8UnitTest4TestD2Ev
 3152      00
 3153              	.LBE33:
 3154 1068 B8000000 		movl	$0, %eax
 3154      00
 3155 106d 85C0     		testl	%eax, %eax
 3156 106f 740C     		je	.L161
 121:TestTest.cpp  **** {
 3157              		.loc 4 121 0 is_stmt 0 discriminator 4
 3158 1071 488B45F8 		movq	-8(%rbp), %rax
 3159 1075 4889C7   		movq	%rax, %rdi
 3160 1078 E8000000 		call	_ZdlPv
 3160      00
 3161              	.L161:
 121:TestTest.cpp  **** {
 3162              		.loc 4 121 0
 3163 107d C9       		leave
 3164              		.cfi_def_cfa 7, 8
 3165 107e C3       		ret
 3166              		.cfi_endproc
 3167              	.LFE1209:
 3169              		.set	_ZN12_GLOBAL__N_136TestOutOfCoreCHECKMacrosCanFailTestsD1Ev,_ZN12_GLOBAL__N_136TestOutOfCoreC
 3170 107f 90       		.align 2
 3172              	_ZN12_GLOBAL__N_136TestOutOfCoreCHECKMacrosCanFailTestsD0Ev:
 3173              	.LFB1211:
 121:TestTest.cpp  **** {
 3174              		.loc 4 121 0 is_stmt 1
 3175              		.cfi_startproc
 3176 1080 55       		pushq	%rbp
 3177              		.cfi_def_cfa_offset 16
 3178              		.cfi_offset 6, -16
 3179 1081 4889E5   		movq	%rsp, %rbp
 3180              		.cfi_def_cfa_register 6
 3181 1084 4883EC10 		subq	$16, %rsp
 3182 1088 48897DF8 		movq	%rdi, -8(%rbp)
 121:TestTest.cpp  **** {
 3183              		.loc 4 121 0
 3184 108c 488B45F8 		movq	-8(%rbp), %rax
 3185 1090 4889C7   		movq	%rax, %rdi
 3186 1093 E8ACFFFF 		call	_ZN12_GLOBAL__N_136TestOutOfCoreCHECKMacrosCanFailTestsD1Ev
 3186      FF
 3187 1098 488B45F8 		movq	-8(%rbp), %rax
 3188 109c 4889C7   		movq	%rax, %rdi
 3189 109f E8000000 		call	_ZdlPv
 3189      00
 3190 10a4 C9       		leave
 3191              		.cfi_def_cfa 7, 8
 3192 10a5 C3       		ret
 3193              		.cfi_endproc
 3194              	.LFE1211:
 3196              		.section	.rodata
 3197              		.align 8
 3200              	_ZTVN12_GLOBAL__N_134TestTestReflectsSpecifiedSuiteNameE:
 3201 0378 00000000 		.quad	0
 3201      00000000 
 3202 0380 00000000 		.quad	_ZTIN12_GLOBAL__N_134TestTestReflectsSpecifiedSuiteNameE
 3202      00000000 
 3203 0388 00000000 		.quad	_ZN12_GLOBAL__N_134TestTestReflectsSpecifiedSuiteNameD1Ev
 3203      00000000 
 3204 0390 00000000 		.quad	_ZN12_GLOBAL__N_134TestTestReflectsSpecifiedSuiteNameD0Ev
 3204      00000000 
 3205 0398 00000000 		.quad	_ZNK12_GLOBAL__N_134TestTestReflectsSpecifiedSuiteName7RunImplEv
 3205      00000000 
 3206              		.text
 3207              		.align 2
 3209              	_ZN12_GLOBAL__N_134TestTestReflectsSpecifiedSuiteNameD2Ev:
 3210              	.LFB1213:
 109:TestTest.cpp  **** {
 3211              		.loc 4 109 0
 3212              		.cfi_startproc
 3213 10a6 55       		pushq	%rbp
 3214              		.cfi_def_cfa_offset 16
 3215              		.cfi_offset 6, -16
 3216 10a7 4889E5   		movq	%rsp, %rbp
 3217              		.cfi_def_cfa_register 6
 3218 10aa 4883EC10 		subq	$16, %rsp
 3219 10ae 48897DF8 		movq	%rdi, -8(%rbp)
 3220              	.LBB34:
 109:TestTest.cpp  **** {
 3221              		.loc 4 109 0
 3222 10b2 BA000000 		movl	$_ZTVN12_GLOBAL__N_134TestTestReflectsSpecifiedSuiteNameE+16, %edx
 3222      00
 3223 10b7 488B45F8 		movq	-8(%rbp), %rax
 3224 10bb 488910   		movq	%rdx, (%rax)
 3225 10be 488B45F8 		movq	-8(%rbp), %rax
 3226 10c2 4889C7   		movq	%rax, %rdi
 3227 10c5 E8000000 		call	_ZN8UnitTest4TestD2Ev
 3227      00
 3228              	.LBE34:
 3229 10ca B8000000 		movl	$0, %eax
 3229      00
 3230 10cf 85C0     		testl	%eax, %eax
 3231 10d1 740C     		je	.L164
 109:TestTest.cpp  **** {
 3232              		.loc 4 109 0 is_stmt 0 discriminator 4
 3233 10d3 488B45F8 		movq	-8(%rbp), %rax
 3234 10d7 4889C7   		movq	%rax, %rdi
 3235 10da E8000000 		call	_ZdlPv
 3235      00
 3236              	.L164:
 109:TestTest.cpp  **** {
 3237              		.loc 4 109 0
 3238 10df C9       		leave
 3239              		.cfi_def_cfa 7, 8
 3240 10e0 C3       		ret
 3241              		.cfi_endproc
 3242              	.LFE1213:
 3244              		.set	_ZN12_GLOBAL__N_134TestTestReflectsSpecifiedSuiteNameD1Ev,_ZN12_GLOBAL__N_134TestTestReflects
 3245 10e1 90       		.align 2
 3247              	_ZN12_GLOBAL__N_134TestTestReflectsSpecifiedSuiteNameD0Ev:
 3248              	.LFB1215:
 109:TestTest.cpp  **** {
 3249              		.loc 4 109 0 is_stmt 1
 3250              		.cfi_startproc
 3251 10e2 55       		pushq	%rbp
 3252              		.cfi_def_cfa_offset 16
 3253              		.cfi_offset 6, -16
 3254 10e3 4889E5   		movq	%rsp, %rbp
 3255              		.cfi_def_cfa_register 6
 3256 10e6 4883EC10 		subq	$16, %rsp
 3257 10ea 48897DF8 		movq	%rdi, -8(%rbp)
 109:TestTest.cpp  **** {
 3258              		.loc 4 109 0
 3259 10ee 488B45F8 		movq	-8(%rbp), %rax
 3260 10f2 4889C7   		movq	%rax, %rdi
 3261 10f5 E8ACFFFF 		call	_ZN12_GLOBAL__N_134TestTestReflectsSpecifiedSuiteNameD1Ev
 3261      FF
 3262 10fa 488B45F8 		movq	-8(%rbp), %rax
 3263 10fe 4889C7   		movq	%rax, %rdi
 3264 1101 E8000000 		call	_ZdlPv
 3264      00
 3265 1106 C9       		leave
 3266              		.cfi_def_cfa 7, 8
 3267 1107 C3       		ret
 3268              		.cfi_endproc
 3269              	.LFE1215:
 3271              		.section	.rodata
 3272              		.align 8
 3275              	_ZTVN12_GLOBAL__N_144TestTestWithUnspecifiedSuiteGetsDefaultSuiteE:
 3276 03a0 00000000 		.quad	0
 3276      00000000 
 3277 03a8 00000000 		.quad	_ZTIN12_GLOBAL__N_144TestTestWithUnspecifiedSuiteGetsDefaultSuiteE
 3277      00000000 
 3278 03b0 00000000 		.quad	_ZN12_GLOBAL__N_144TestTestWithUnspecifiedSuiteGetsDefaultSuiteD1Ev
 3278      00000000 
 3279 03b8 00000000 		.quad	_ZN12_GLOBAL__N_144TestTestWithUnspecifiedSuiteGetsDefaultSuiteD0Ev
 3279      00000000 
 3280 03c0 00000000 		.quad	_ZNK12_GLOBAL__N_144TestTestWithUnspecifiedSuiteGetsDefaultSuite7RunImplEv
 3280      00000000 
 3281              		.text
 3282              		.align 2
 3284              	_ZN12_GLOBAL__N_144TestTestWithUnspecifiedSuiteGetsDefaultSuiteD2Ev:
 3285              	.LFB1217:
 102:TestTest.cpp  **** {
 3286              		.loc 4 102 0
 3287              		.cfi_startproc
 3288 1108 55       		pushq	%rbp
 3289              		.cfi_def_cfa_offset 16
 3290              		.cfi_offset 6, -16
 3291 1109 4889E5   		movq	%rsp, %rbp
 3292              		.cfi_def_cfa_register 6
 3293 110c 4883EC10 		subq	$16, %rsp
 3294 1110 48897DF8 		movq	%rdi, -8(%rbp)
 3295              	.LBB35:
 102:TestTest.cpp  **** {
 3296              		.loc 4 102 0
 3297 1114 BA000000 		movl	$_ZTVN12_GLOBAL__N_144TestTestWithUnspecifiedSuiteGetsDefaultSuiteE+16, %edx
 3297      00
 3298 1119 488B45F8 		movq	-8(%rbp), %rax
 3299 111d 488910   		movq	%rdx, (%rax)
 3300 1120 488B45F8 		movq	-8(%rbp), %rax
 3301 1124 4889C7   		movq	%rax, %rdi
 3302 1127 E8000000 		call	_ZN8UnitTest4TestD2Ev
 3302      00
 3303              	.LBE35:
 3304 112c B8000000 		movl	$0, %eax
 3304      00
 3305 1131 85C0     		testl	%eax, %eax
 3306 1133 740C     		je	.L167
 102:TestTest.cpp  **** {
 3307              		.loc 4 102 0 is_stmt 0 discriminator 4
 3308 1135 488B45F8 		movq	-8(%rbp), %rax
 3309 1139 4889C7   		movq	%rax, %rdi
 3310 113c E8000000 		call	_ZdlPv
 3310      00
 3311              	.L167:
 102:TestTest.cpp  **** {
 3312              		.loc 4 102 0
 3313 1141 C9       		leave
 3314              		.cfi_def_cfa 7, 8
 3315 1142 C3       		ret
 3316              		.cfi_endproc
 3317              	.LFE1217:
 3319              		.set	_ZN12_GLOBAL__N_144TestTestWithUnspecifiedSuiteGetsDefaultSuiteD1Ev,_ZN12_GLOBAL__N_144TestTe
 3320 1143 90       		.align 2
 3322              	_ZN12_GLOBAL__N_144TestTestWithUnspecifiedSuiteGetsDefaultSuiteD0Ev:
 3323              	.LFB1219:
 102:TestTest.cpp  **** {
 3324              		.loc 4 102 0 is_stmt 1
 3325              		.cfi_startproc
 3326 1144 55       		pushq	%rbp
 3327              		.cfi_def_cfa_offset 16
 3328              		.cfi_offset 6, -16
 3329 1145 4889E5   		movq	%rsp, %rbp
 3330              		.cfi_def_cfa_register 6
 3331 1148 4883EC10 		subq	$16, %rsp
 3332 114c 48897DF8 		movq	%rdi, -8(%rbp)
 102:TestTest.cpp  **** {
 3333              		.loc 4 102 0
 3334 1150 488B45F8 		movq	-8(%rbp), %rax
 3335 1154 4889C7   		movq	%rax, %rdi
 3336 1157 E8ACFFFF 		call	_ZN12_GLOBAL__N_144TestTestWithUnspecifiedSuiteGetsDefaultSuiteD1Ev
 3336      FF
 3337 115c 488B45F8 		movq	-8(%rbp), %rax
 3338 1160 4889C7   		movq	%rax, %rdi
 3339 1163 E8000000 		call	_ZdlPv
 3339      00
 3340 1168 C9       		leave
 3341              		.cfi_def_cfa 7, 8
 3342 1169 C3       		ret
 3343              		.cfi_endproc
 3344              	.LFE1219:
 3346              		.section	.rodata
 3347              		.align 8
 3350              	_ZTVN12_GLOBAL__N_138TestCrashingTestsAreReportedAsFailuresE:
 3351 03c8 00000000 		.quad	0
 3351      00000000 
 3352 03d0 00000000 		.quad	_ZTIN12_GLOBAL__N_138TestCrashingTestsAreReportedAsFailuresE
 3352      00000000 
 3353 03d8 00000000 		.quad	_ZN12_GLOBAL__N_138TestCrashingTestsAreReportedAsFailuresD1Ev
 3353      00000000 
 3354 03e0 00000000 		.quad	_ZN12_GLOBAL__N_138TestCrashingTestsAreReportedAsFailuresD0Ev
 3354      00000000 
 3355 03e8 00000000 		.quad	_ZNK12_GLOBAL__N_138TestCrashingTestsAreReportedAsFailures7RunImplEv
 3355      00000000 
 3356              		.text
 3357              		.align 2
 3359              	_ZN12_GLOBAL__N_138TestCrashingTestsAreReportedAsFailuresD2Ev:
 3360              	.LFB1221:
  77:TestTest.cpp  **** {
 3361              		.loc 4 77 0
 3362              		.cfi_startproc
 3363 116a 55       		pushq	%rbp
 3364              		.cfi_def_cfa_offset 16
 3365              		.cfi_offset 6, -16
 3366 116b 4889E5   		movq	%rsp, %rbp
 3367              		.cfi_def_cfa_register 6
 3368 116e 4883EC10 		subq	$16, %rsp
 3369 1172 48897DF8 		movq	%rdi, -8(%rbp)
 3370              	.LBB36:
  77:TestTest.cpp  **** {
 3371              		.loc 4 77 0
 3372 1176 BA000000 		movl	$_ZTVN12_GLOBAL__N_138TestCrashingTestsAreReportedAsFailuresE+16, %edx
 3372      00
 3373 117b 488B45F8 		movq	-8(%rbp), %rax
 3374 117f 488910   		movq	%rdx, (%rax)
 3375 1182 488B45F8 		movq	-8(%rbp), %rax
 3376 1186 4889C7   		movq	%rax, %rdi
 3377 1189 E8000000 		call	_ZN8UnitTest4TestD2Ev
 3377      00
 3378              	.LBE36:
 3379 118e B8000000 		movl	$0, %eax
 3379      00
 3380 1193 85C0     		testl	%eax, %eax
 3381 1195 740C     		je	.L170
  77:TestTest.cpp  **** {
 3382              		.loc 4 77 0 is_stmt 0 discriminator 4
 3383 1197 488B45F8 		movq	-8(%rbp), %rax
 3384 119b 4889C7   		movq	%rax, %rdi
 3385 119e E8000000 		call	_ZdlPv
 3385      00
 3386              	.L170:
  77:TestTest.cpp  **** {
 3387              		.loc 4 77 0
 3388 11a3 C9       		leave
 3389              		.cfi_def_cfa 7, 8
 3390 11a4 C3       		ret
 3391              		.cfi_endproc
 3392              	.LFE1221:
 3394              		.set	_ZN12_GLOBAL__N_138TestCrashingTestsAreReportedAsFailuresD1Ev,_ZN12_GLOBAL__N_138TestCrashing
 3395 11a5 90       		.align 2
 3397              	_ZN12_GLOBAL__N_138TestCrashingTestsAreReportedAsFailuresD0Ev:
 3398              	.LFB1223:
  77:TestTest.cpp  **** {
 3399              		.loc 4 77 0 is_stmt 1
 3400              		.cfi_startproc
 3401 11a6 55       		pushq	%rbp
 3402              		.cfi_def_cfa_offset 16
 3403              		.cfi_offset 6, -16
 3404 11a7 4889E5   		movq	%rsp, %rbp
 3405              		.cfi_def_cfa_register 6
 3406 11aa 4883EC10 		subq	$16, %rsp
 3407 11ae 48897DF8 		movq	%rdi, -8(%rbp)
  77:TestTest.cpp  **** {
 3408              		.loc 4 77 0
 3409 11b2 488B45F8 		movq	-8(%rbp), %rax
 3410 11b6 4889C7   		movq	%rax, %rdi
 3411 11b9 E8ACFFFF 		call	_ZN12_GLOBAL__N_138TestCrashingTestsAreReportedAsFailuresD1Ev
 3411      FF
 3412 11be 488B45F8 		movq	-8(%rbp), %rax
 3413 11c2 4889C7   		movq	%rax, %rdi
 3414 11c5 E8000000 		call	_ZdlPv
 3414      00
 3415 11ca C9       		leave
 3416              		.cfi_def_cfa 7, 8
 3417 11cb C3       		ret
 3418              		.cfi_endproc
 3419              	.LFE1223:
 3421              		.section	.rodata
 3422              		.align 8
 3425              	_ZTVZNK12_GLOBAL__N_138TestCrashingTestsAreReportedAsFailures7RunImplEvE12CrashingTest:
 3426 03f0 00000000 		.quad	0
 3426      00000000 
 3427 03f8 00000000 		.quad	_ZTIZNK12_GLOBAL__N_138TestCrashingTestsAreReportedAsFailures7RunImplEvE12CrashingTest
 3427      00000000 
 3428 0400 00000000 		.quad	_ZZNK12_GLOBAL__N_138TestCrashingTestsAreReportedAsFailures7RunImplEvEN12CrashingTestD1Ev
 3428      00000000 
 3429 0408 00000000 		.quad	_ZZNK12_GLOBAL__N_138TestCrashingTestsAreReportedAsFailures7RunImplEvEN12CrashingTestD0Ev
 3429      00000000 
 3430 0410 00000000 		.quad	_ZZNK12_GLOBAL__N_138TestCrashingTestsAreReportedAsFailures7RunImplEvENK12CrashingTest7RunIm
 3430      00000000 
 3431              		.text
 3432              		.align 2
 3434              	_ZZNK12_GLOBAL__N_138TestCrashingTestsAreReportedAsFailures7RunImplEvEN12CrashingTestD2Ev:
 3435              	.LFB1225:
  79:TestTest.cpp  ****     {
 3436              		.loc 4 79 0
 3437              		.cfi_startproc
 3438 11cc 55       		pushq	%rbp
 3439              		.cfi_def_cfa_offset 16
 3440              		.cfi_offset 6, -16
 3441 11cd 4889E5   		movq	%rsp, %rbp
 3442              		.cfi_def_cfa_register 6
 3443 11d0 4883EC10 		subq	$16, %rsp
 3444 11d4 48897DF8 		movq	%rdi, -8(%rbp)
 3445              	.LBB37:
  79:TestTest.cpp  ****     {
 3446              		.loc 4 79 0
 3447 11d8 BA000000 		movl	$_ZTVZNK12_GLOBAL__N_138TestCrashingTestsAreReportedAsFailures7RunImplEvE12CrashingTest+16, %
 3447      00
 3448 11dd 488B45F8 		movq	-8(%rbp), %rax
 3449 11e1 488910   		movq	%rdx, (%rax)
 3450 11e4 488B45F8 		movq	-8(%rbp), %rax
 3451 11e8 4889C7   		movq	%rax, %rdi
 3452 11eb E8000000 		call	_ZN8UnitTest4TestD2Ev
 3452      00
 3453              	.LBE37:
 3454 11f0 B8000000 		movl	$0, %eax
 3454      00
 3455 11f5 85C0     		testl	%eax, %eax
 3456 11f7 740C     		je	.L173
  79:TestTest.cpp  ****     {
 3457              		.loc 4 79 0 is_stmt 0 discriminator 4
 3458 11f9 488B45F8 		movq	-8(%rbp), %rax
 3459 11fd 4889C7   		movq	%rax, %rdi
 3460 1200 E8000000 		call	_ZdlPv
 3460      00
 3461              	.L173:
  79:TestTest.cpp  ****     {
 3462              		.loc 4 79 0
 3463 1205 C9       		leave
 3464              		.cfi_def_cfa 7, 8
 3465 1206 C3       		ret
 3466              		.cfi_endproc
 3467              	.LFE1225:
 3469              		.set	_ZZNK12_GLOBAL__N_138TestCrashingTestsAreReportedAsFailures7RunImplEvEN12CrashingTestD1Ev,_ZZ
 3470 1207 90       		.align 2
 3472              	_ZZNK12_GLOBAL__N_138TestCrashingTestsAreReportedAsFailures7RunImplEvEN12CrashingTestD0Ev:
 3473              	.LFB1227:
  79:TestTest.cpp  ****     {
 3474              		.loc 4 79 0 is_stmt 1
 3475              		.cfi_startproc
 3476 1208 55       		pushq	%rbp
 3477              		.cfi_def_cfa_offset 16
 3478              		.cfi_offset 6, -16
 3479 1209 4889E5   		movq	%rsp, %rbp
 3480              		.cfi_def_cfa_register 6
 3481 120c 4883EC10 		subq	$16, %rsp
 3482 1210 48897DF8 		movq	%rdi, -8(%rbp)
  79:TestTest.cpp  ****     {
 3483              		.loc 4 79 0
 3484 1214 488B45F8 		movq	-8(%rbp), %rax
 3485 1218 4889C7   		movq	%rax, %rdi
 3486 121b E8ACFFFF 		call	_ZZNK12_GLOBAL__N_138TestCrashingTestsAreReportedAsFailures7RunImplEvEN12CrashingTestD1Ev
 3486      FF
 3487 1220 488B45F8 		movq	-8(%rbp), %rax
 3488 1224 4889C7   		movq	%rax, %rdi
 3489 1227 E8000000 		call	_ZdlPv
 3489      00
 3490 122c C9       		leave
 3491              		.cfi_def_cfa 7, 8
 3492 122d C3       		ret
 3493              		.cfi_endproc
 3494              	.LFE1227:
 3496              		.section	.rodata
 3497              		.align 8
 3500              	_ZTVN12_GLOBAL__N_138TestThrowingTestsAreReportedAsFailuresE:
 3501 0418 00000000 		.quad	0
 3501      00000000 
 3502 0420 00000000 		.quad	_ZTIN12_GLOBAL__N_138TestThrowingTestsAreReportedAsFailuresE
 3502      00000000 
 3503 0428 00000000 		.quad	_ZN12_GLOBAL__N_138TestThrowingTestsAreReportedAsFailuresD1Ev
 3503      00000000 
 3504 0430 00000000 		.quad	_ZN12_GLOBAL__N_138TestThrowingTestsAreReportedAsFailuresD0Ev
 3504      00000000 
 3505 0438 00000000 		.quad	_ZNK12_GLOBAL__N_138TestThrowingTestsAreReportedAsFailures7RunImplEv
 3505      00000000 
 3506              		.text
 3507              		.align 2
 3509              	_ZN12_GLOBAL__N_138TestThrowingTestsAreReportedAsFailuresD2Ev:
 3510              	.LFB1229:
  54:TestTest.cpp  **** {
 3511              		.loc 4 54 0
 3512              		.cfi_startproc
 3513 122e 55       		pushq	%rbp
 3514              		.cfi_def_cfa_offset 16
 3515              		.cfi_offset 6, -16
 3516 122f 4889E5   		movq	%rsp, %rbp
 3517              		.cfi_def_cfa_register 6
 3518 1232 4883EC10 		subq	$16, %rsp
 3519 1236 48897DF8 		movq	%rdi, -8(%rbp)
 3520              	.LBB38:
  54:TestTest.cpp  **** {
 3521              		.loc 4 54 0
 3522 123a BA000000 		movl	$_ZTVN12_GLOBAL__N_138TestThrowingTestsAreReportedAsFailuresE+16, %edx
 3522      00
 3523 123f 488B45F8 		movq	-8(%rbp), %rax
 3524 1243 488910   		movq	%rdx, (%rax)
 3525 1246 488B45F8 		movq	-8(%rbp), %rax
 3526 124a 4889C7   		movq	%rax, %rdi
 3527 124d E8000000 		call	_ZN8UnitTest4TestD2Ev
 3527      00
 3528              	.LBE38:
 3529 1252 B8000000 		movl	$0, %eax
 3529      00
 3530 1257 85C0     		testl	%eax, %eax
 3531 1259 740C     		je	.L176
  54:TestTest.cpp  **** {
 3532              		.loc 4 54 0 is_stmt 0 discriminator 4
 3533 125b 488B45F8 		movq	-8(%rbp), %rax
 3534 125f 4889C7   		movq	%rax, %rdi
 3535 1262 E8000000 		call	_ZdlPv
 3535      00
 3536              	.L176:
  54:TestTest.cpp  **** {
 3537              		.loc 4 54 0
 3538 1267 C9       		leave
 3539              		.cfi_def_cfa 7, 8
 3540 1268 C3       		ret
 3541              		.cfi_endproc
 3542              	.LFE1229:
 3544              		.set	_ZN12_GLOBAL__N_138TestThrowingTestsAreReportedAsFailuresD1Ev,_ZN12_GLOBAL__N_138TestThrowing
 3545 1269 90       		.align 2
 3547              	_ZN12_GLOBAL__N_138TestThrowingTestsAreReportedAsFailuresD0Ev:
 3548              	.LFB1231:
  54:TestTest.cpp  **** {
 3549              		.loc 4 54 0 is_stmt 1
 3550              		.cfi_startproc
 3551 126a 55       		pushq	%rbp
 3552              		.cfi_def_cfa_offset 16
 3553              		.cfi_offset 6, -16
 3554 126b 4889E5   		movq	%rsp, %rbp
 3555              		.cfi_def_cfa_register 6
 3556 126e 4883EC10 		subq	$16, %rsp
 3557 1272 48897DF8 		movq	%rdi, -8(%rbp)
  54:TestTest.cpp  **** {
 3558              		.loc 4 54 0
 3559 1276 488B45F8 		movq	-8(%rbp), %rax
 3560 127a 4889C7   		movq	%rax, %rdi
 3561 127d E8ACFFFF 		call	_ZN12_GLOBAL__N_138TestThrowingTestsAreReportedAsFailuresD1Ev
 3561      FF
 3562 1282 488B45F8 		movq	-8(%rbp), %rax
 3563 1286 4889C7   		movq	%rax, %rdi
 3564 1289 E8000000 		call	_ZdlPv
 3564      00
 3565 128e C9       		leave
 3566              		.cfi_def_cfa 7, 8
 3567 128f C3       		ret
 3568              		.cfi_endproc
 3569              	.LFE1231:
 3571              		.section	.rodata
 3572              		.align 8
 3575              	_ZTVZNK12_GLOBAL__N_138TestThrowingTestsAreReportedAsFailures7RunImplEvE12CrashingTest:
 3576 0440 00000000 		.quad	0
 3576      00000000 
 3577 0448 00000000 		.quad	_ZTIZNK12_GLOBAL__N_138TestThrowingTestsAreReportedAsFailures7RunImplEvE12CrashingTest
 3577      00000000 
 3578 0450 00000000 		.quad	_ZZNK12_GLOBAL__N_138TestThrowingTestsAreReportedAsFailures7RunImplEvEN12CrashingTestD1Ev
 3578      00000000 
 3579 0458 00000000 		.quad	_ZZNK12_GLOBAL__N_138TestThrowingTestsAreReportedAsFailures7RunImplEvEN12CrashingTestD0Ev
 3579      00000000 
 3580 0460 00000000 		.quad	_ZZNK12_GLOBAL__N_138TestThrowingTestsAreReportedAsFailures7RunImplEvENK12CrashingTest7RunIm
 3580      00000000 
 3581              		.text
 3582              		.align 2
 3584              	_ZZNK12_GLOBAL__N_138TestThrowingTestsAreReportedAsFailures7RunImplEvEN12CrashingTestD2Ev:
 3585              	.LFB1233:
  56:TestTest.cpp  ****     {
 3586              		.loc 4 56 0
 3587              		.cfi_startproc
 3588 1290 55       		pushq	%rbp
 3589              		.cfi_def_cfa_offset 16
 3590              		.cfi_offset 6, -16
 3591 1291 4889E5   		movq	%rsp, %rbp
 3592              		.cfi_def_cfa_register 6
 3593 1294 4883EC10 		subq	$16, %rsp
 3594 1298 48897DF8 		movq	%rdi, -8(%rbp)
 3595              	.LBB39:
  56:TestTest.cpp  ****     {
 3596              		.loc 4 56 0
 3597 129c BA000000 		movl	$_ZTVZNK12_GLOBAL__N_138TestThrowingTestsAreReportedAsFailures7RunImplEvE12CrashingTest+16, %
 3597      00
 3598 12a1 488B45F8 		movq	-8(%rbp), %rax
 3599 12a5 488910   		movq	%rdx, (%rax)
 3600 12a8 488B45F8 		movq	-8(%rbp), %rax
 3601 12ac 4889C7   		movq	%rax, %rdi
 3602 12af E8000000 		call	_ZN8UnitTest4TestD2Ev
 3602      00
 3603              	.LBE39:
 3604 12b4 B8000000 		movl	$0, %eax
 3604      00
 3605 12b9 85C0     		testl	%eax, %eax
 3606 12bb 740C     		je	.L179
  56:TestTest.cpp  ****     {
 3607              		.loc 4 56 0 is_stmt 0 discriminator 4
 3608 12bd 488B45F8 		movq	-8(%rbp), %rax
 3609 12c1 4889C7   		movq	%rax, %rdi
 3610 12c4 E8000000 		call	_ZdlPv
 3610      00
 3611              	.L179:
  56:TestTest.cpp  ****     {
 3612              		.loc 4 56 0
 3613 12c9 C9       		leave
 3614              		.cfi_def_cfa 7, 8
 3615 12ca C3       		ret
 3616              		.cfi_endproc
 3617              	.LFE1233:
 3619              		.set	_ZZNK12_GLOBAL__N_138TestThrowingTestsAreReportedAsFailures7RunImplEvEN12CrashingTestD1Ev,_ZZ
 3620 12cb 90       		.align 2
 3622              	_ZZNK12_GLOBAL__N_138TestThrowingTestsAreReportedAsFailures7RunImplEvEN12CrashingTestD0Ev:
 3623              	.LFB1235:
  56:TestTest.cpp  ****     {
 3624              		.loc 4 56 0 is_stmt 1
 3625              		.cfi_startproc
 3626 12cc 55       		pushq	%rbp
 3627              		.cfi_def_cfa_offset 16
 3628              		.cfi_offset 6, -16
 3629 12cd 4889E5   		movq	%rsp, %rbp
 3630              		.cfi_def_cfa_register 6
 3631 12d0 4883EC10 		subq	$16, %rsp
 3632 12d4 48897DF8 		movq	%rdi, -8(%rbp)
  56:TestTest.cpp  ****     {
 3633              		.loc 4 56 0
 3634 12d8 488B45F8 		movq	-8(%rbp), %rax
 3635 12dc 4889C7   		movq	%rax, %rdi
 3636 12df E8ACFFFF 		call	_ZZNK12_GLOBAL__N_138TestThrowingTestsAreReportedAsFailures7RunImplEvEN12CrashingTestD1Ev
 3636      FF
 3637 12e4 488B45F8 		movq	-8(%rbp), %rax
 3638 12e8 4889C7   		movq	%rax, %rdi
 3639 12eb E8000000 		call	_ZdlPv
 3639      00
 3640 12f0 C9       		leave
 3641              		.cfi_def_cfa 7, 8
 3642 12f1 C3       		ret
 3643              		.cfi_endproc
 3644              	.LFE1235:
 3646              		.section	.rodata
 3647              		.align 8
 3650              	_ZTVN12_GLOBAL__N_126TestFailingTestHasFailuresE:
 3651 0468 00000000 		.quad	0
 3651      00000000 
 3652 0470 00000000 		.quad	_ZTIN12_GLOBAL__N_126TestFailingTestHasFailuresE
 3652      00000000 
 3653 0478 00000000 		.quad	_ZN12_GLOBAL__N_126TestFailingTestHasFailuresD1Ev
 3653      00000000 
 3654 0480 00000000 		.quad	_ZN12_GLOBAL__N_126TestFailingTestHasFailuresD0Ev
 3654      00000000 
 3655 0488 00000000 		.quad	_ZNK12_GLOBAL__N_126TestFailingTestHasFailures7RunImplEv
 3655      00000000 
 3656              		.text
 3657              		.align 2
 3659              	_ZN12_GLOBAL__N_126TestFailingTestHasFailuresD2Ev:
 3660              	.LFB1237:
  32:TestTest.cpp  **** {
 3661              		.loc 4 32 0
 3662              		.cfi_startproc
 3663 12f2 55       		pushq	%rbp
 3664              		.cfi_def_cfa_offset 16
 3665              		.cfi_offset 6, -16
 3666 12f3 4889E5   		movq	%rsp, %rbp
 3667              		.cfi_def_cfa_register 6
 3668 12f6 4883EC10 		subq	$16, %rsp
 3669 12fa 48897DF8 		movq	%rdi, -8(%rbp)
 3670              	.LBB40:
  32:TestTest.cpp  **** {
 3671              		.loc 4 32 0
 3672 12fe BA000000 		movl	$_ZTVN12_GLOBAL__N_126TestFailingTestHasFailuresE+16, %edx
 3672      00
 3673 1303 488B45F8 		movq	-8(%rbp), %rax
 3674 1307 488910   		movq	%rdx, (%rax)
 3675 130a 488B45F8 		movq	-8(%rbp), %rax
 3676 130e 4889C7   		movq	%rax, %rdi
 3677 1311 E8000000 		call	_ZN8UnitTest4TestD2Ev
 3677      00
 3678              	.LBE40:
 3679 1316 B8000000 		movl	$0, %eax
 3679      00
 3680 131b 85C0     		testl	%eax, %eax
 3681 131d 740C     		je	.L182
  32:TestTest.cpp  **** {
 3682              		.loc 4 32 0 is_stmt 0 discriminator 4
 3683 131f 488B45F8 		movq	-8(%rbp), %rax
 3684 1323 4889C7   		movq	%rax, %rdi
 3685 1326 E8000000 		call	_ZdlPv
 3685      00
 3686              	.L182:
  32:TestTest.cpp  **** {
 3687              		.loc 4 32 0
 3688 132b C9       		leave
 3689              		.cfi_def_cfa 7, 8
 3690 132c C3       		ret
 3691              		.cfi_endproc
 3692              	.LFE1237:
 3694              		.set	_ZN12_GLOBAL__N_126TestFailingTestHasFailuresD1Ev,_ZN12_GLOBAL__N_126TestFailingTestHasFailur
 3695 132d 90       		.align 2
 3697              	_ZN12_GLOBAL__N_126TestFailingTestHasFailuresD0Ev:
 3698              	.LFB1239:
  32:TestTest.cpp  **** {
 3699              		.loc 4 32 0 is_stmt 1
 3700              		.cfi_startproc
 3701 132e 55       		pushq	%rbp
 3702              		.cfi_def_cfa_offset 16
 3703              		.cfi_offset 6, -16
 3704 132f 4889E5   		movq	%rsp, %rbp
 3705              		.cfi_def_cfa_register 6
 3706 1332 4883EC10 		subq	$16, %rsp
 3707 1336 48897DF8 		movq	%rdi, -8(%rbp)
  32:TestTest.cpp  **** {
 3708              		.loc 4 32 0
 3709 133a 488B45F8 		movq	-8(%rbp), %rax
 3710 133e 4889C7   		movq	%rax, %rdi
 3711 1341 E8ACFFFF 		call	_ZN12_GLOBAL__N_126TestFailingTestHasFailuresD1Ev
 3711      FF
 3712 1346 488B45F8 		movq	-8(%rbp), %rax
 3713 134a 4889C7   		movq	%rax, %rdi
 3714 134d E8000000 		call	_ZdlPv
 3714      00
 3715 1352 C9       		leave
 3716              		.cfi_def_cfa 7, 8
 3717 1353 C3       		ret
 3718              		.cfi_endproc
 3719              	.LFE1239:
 3721              		.section	.rodata
 3722              		.align 8
 3725              	_ZTVZNK12_GLOBAL__N_126TestFailingTestHasFailures7RunImplEvE11FailingTest:
 3726 0490 00000000 		.quad	0
 3726      00000000 
 3727 0498 00000000 		.quad	_ZTIZNK12_GLOBAL__N_126TestFailingTestHasFailures7RunImplEvE11FailingTest
 3727      00000000 
 3728 04a0 00000000 		.quad	_ZZNK12_GLOBAL__N_126TestFailingTestHasFailures7RunImplEvEN11FailingTestD1Ev
 3728      00000000 
 3729 04a8 00000000 		.quad	_ZZNK12_GLOBAL__N_126TestFailingTestHasFailures7RunImplEvEN11FailingTestD0Ev
 3729      00000000 
 3730 04b0 00000000 		.quad	_ZZNK12_GLOBAL__N_126TestFailingTestHasFailures7RunImplEvENK11FailingTest7RunImplEv
 3730      00000000 
 3731              		.text
 3732              		.align 2
 3734              	_ZZNK12_GLOBAL__N_126TestFailingTestHasFailures7RunImplEvEN11FailingTestD2Ev:
 3735              	.LFB1241:
  34:TestTest.cpp  ****     {
 3736              		.loc 4 34 0
 3737              		.cfi_startproc
 3738 1354 55       		pushq	%rbp
 3739              		.cfi_def_cfa_offset 16
 3740              		.cfi_offset 6, -16
 3741 1355 4889E5   		movq	%rsp, %rbp
 3742              		.cfi_def_cfa_register 6
 3743 1358 4883EC10 		subq	$16, %rsp
 3744 135c 48897DF8 		movq	%rdi, -8(%rbp)
 3745              	.LBB41:
  34:TestTest.cpp  ****     {
 3746              		.loc 4 34 0
 3747 1360 BA000000 		movl	$_ZTVZNK12_GLOBAL__N_126TestFailingTestHasFailures7RunImplEvE11FailingTest+16, %edx
 3747      00
 3748 1365 488B45F8 		movq	-8(%rbp), %rax
 3749 1369 488910   		movq	%rdx, (%rax)
 3750 136c 488B45F8 		movq	-8(%rbp), %rax
 3751 1370 4889C7   		movq	%rax, %rdi
 3752 1373 E8000000 		call	_ZN8UnitTest4TestD2Ev
 3752      00
 3753              	.LBE41:
 3754 1378 B8000000 		movl	$0, %eax
 3754      00
 3755 137d 85C0     		testl	%eax, %eax
 3756 137f 740C     		je	.L185
  34:TestTest.cpp  ****     {
 3757              		.loc 4 34 0 is_stmt 0 discriminator 4
 3758 1381 488B45F8 		movq	-8(%rbp), %rax
 3759 1385 4889C7   		movq	%rax, %rdi
 3760 1388 E8000000 		call	_ZdlPv
 3760      00
 3761              	.L185:
  34:TestTest.cpp  ****     {
 3762              		.loc 4 34 0
 3763 138d C9       		leave
 3764              		.cfi_def_cfa 7, 8
 3765 138e C3       		ret
 3766              		.cfi_endproc
 3767              	.LFE1241:
 3769              		.set	_ZZNK12_GLOBAL__N_126TestFailingTestHasFailures7RunImplEvEN11FailingTestD1Ev,_ZZNK12_GLOBAL__
 3770 138f 90       		.align 2
 3772              	_ZZNK12_GLOBAL__N_126TestFailingTestHasFailures7RunImplEvEN11FailingTestD0Ev:
 3773              	.LFB1243:
  34:TestTest.cpp  ****     {
 3774              		.loc 4 34 0 is_stmt 1
 3775              		.cfi_startproc
 3776 1390 55       		pushq	%rbp
 3777              		.cfi_def_cfa_offset 16
 3778              		.cfi_offset 6, -16
 3779 1391 4889E5   		movq	%rsp, %rbp
 3780              		.cfi_def_cfa_register 6
 3781 1394 4883EC10 		subq	$16, %rsp
 3782 1398 48897DF8 		movq	%rdi, -8(%rbp)
  34:TestTest.cpp  ****     {
 3783              		.loc 4 34 0
 3784 139c 488B45F8 		movq	-8(%rbp), %rax
 3785 13a0 4889C7   		movq	%rax, %rdi
 3786 13a3 E8ACFFFF 		call	_ZZNK12_GLOBAL__N_126TestFailingTestHasFailures7RunImplEvEN11FailingTestD1Ev
 3786      FF
 3787 13a8 488B45F8 		movq	-8(%rbp), %rax
 3788 13ac 4889C7   		movq	%rax, %rdi
 3789 13af E8000000 		call	_ZdlPv
 3789      00
 3790 13b4 C9       		leave
 3791              		.cfi_def_cfa 7, 8
 3792 13b5 C3       		ret
 3793              		.cfi_endproc
 3794              	.LFE1243:
 3796              		.section	.rodata
 3797              		.align 8
 3800              	_ZTVN12_GLOBAL__N_128TestPassingTestHasNoFailuresE:
 3801 04b8 00000000 		.quad	0
 3801      00000000 
 3802 04c0 00000000 		.quad	_ZTIN12_GLOBAL__N_128TestPassingTestHasNoFailuresE
 3802      00000000 
 3803 04c8 00000000 		.quad	_ZN12_GLOBAL__N_128TestPassingTestHasNoFailuresD1Ev
 3803      00000000 
 3804 04d0 00000000 		.quad	_ZN12_GLOBAL__N_128TestPassingTestHasNoFailuresD0Ev
 3804      00000000 
 3805 04d8 00000000 		.quad	_ZNK12_GLOBAL__N_128TestPassingTestHasNoFailures7RunImplEv
 3805      00000000 
 3806              		.text
 3807              		.align 2
 3809              	_ZN12_GLOBAL__N_128TestPassingTestHasNoFailuresD2Ev:
 3810              	.LFB1245:
  10:TestTest.cpp  **** {
 3811              		.loc 4 10 0
 3812              		.cfi_startproc
 3813 13b6 55       		pushq	%rbp
 3814              		.cfi_def_cfa_offset 16
 3815              		.cfi_offset 6, -16
 3816 13b7 4889E5   		movq	%rsp, %rbp
 3817              		.cfi_def_cfa_register 6
 3818 13ba 4883EC10 		subq	$16, %rsp
 3819 13be 48897DF8 		movq	%rdi, -8(%rbp)
 3820              	.LBB42:
  10:TestTest.cpp  **** {
 3821              		.loc 4 10 0
 3822 13c2 BA000000 		movl	$_ZTVN12_GLOBAL__N_128TestPassingTestHasNoFailuresE+16, %edx
 3822      00
 3823 13c7 488B45F8 		movq	-8(%rbp), %rax
 3824 13cb 488910   		movq	%rdx, (%rax)
 3825 13ce 488B45F8 		movq	-8(%rbp), %rax
 3826 13d2 4889C7   		movq	%rax, %rdi
 3827 13d5 E8000000 		call	_ZN8UnitTest4TestD2Ev
 3827      00
 3828              	.LBE42:
 3829 13da B8000000 		movl	$0, %eax
 3829      00
 3830 13df 85C0     		testl	%eax, %eax
 3831 13e1 740C     		je	.L188
  10:TestTest.cpp  **** {
 3832              		.loc 4 10 0 is_stmt 0 discriminator 4
 3833 13e3 488B45F8 		movq	-8(%rbp), %rax
 3834 13e7 4889C7   		movq	%rax, %rdi
 3835 13ea E8000000 		call	_ZdlPv
 3835      00
 3836              	.L188:
  10:TestTest.cpp  **** {
 3837              		.loc 4 10 0
 3838 13ef C9       		leave
 3839              		.cfi_def_cfa 7, 8
 3840 13f0 C3       		ret
 3841              		.cfi_endproc
 3842              	.LFE1245:
 3844              		.set	_ZN12_GLOBAL__N_128TestPassingTestHasNoFailuresD1Ev,_ZN12_GLOBAL__N_128TestPassingTestHasNoFa
 3845 13f1 90       		.align 2
 3847              	_ZN12_GLOBAL__N_128TestPassingTestHasNoFailuresD0Ev:
 3848              	.LFB1247:
  10:TestTest.cpp  **** {
 3849              		.loc 4 10 0 is_stmt 1
 3850              		.cfi_startproc
 3851 13f2 55       		pushq	%rbp
 3852              		.cfi_def_cfa_offset 16
 3853              		.cfi_offset 6, -16
 3854 13f3 4889E5   		movq	%rsp, %rbp
 3855              		.cfi_def_cfa_register 6
 3856 13f6 4883EC10 		subq	$16, %rsp
 3857 13fa 48897DF8 		movq	%rdi, -8(%rbp)
  10:TestTest.cpp  **** {
 3858              		.loc 4 10 0
 3859 13fe 488B45F8 		movq	-8(%rbp), %rax
 3860 1402 4889C7   		movq	%rax, %rdi
 3861 1405 E8ACFFFF 		call	_ZN12_GLOBAL__N_128TestPassingTestHasNoFailuresD1Ev
 3861      FF
 3862 140a 488B45F8 		movq	-8(%rbp), %rax
 3863 140e 4889C7   		movq	%rax, %rdi
 3864 1411 E8000000 		call	_ZdlPv
 3864      00
 3865 1416 C9       		leave
 3866              		.cfi_def_cfa 7, 8
 3867 1417 C3       		ret
 3868              		.cfi_endproc
 3869              	.LFE1247:
 3871              		.section	.rodata
 3872              		.align 8
 3875              	_ZTVZNK12_GLOBAL__N_128TestPassingTestHasNoFailures7RunImplEvE11PassingTest:
 3876 04e0 00000000 		.quad	0
 3876      00000000 
 3877 04e8 00000000 		.quad	_ZTIZNK12_GLOBAL__N_128TestPassingTestHasNoFailures7RunImplEvE11PassingTest
 3877      00000000 
 3878 04f0 00000000 		.quad	_ZZNK12_GLOBAL__N_128TestPassingTestHasNoFailures7RunImplEvEN11PassingTestD1Ev
 3878      00000000 
 3879 04f8 00000000 		.quad	_ZZNK12_GLOBAL__N_128TestPassingTestHasNoFailures7RunImplEvEN11PassingTestD0Ev
 3879      00000000 
 3880 0500 00000000 		.quad	_ZZNK12_GLOBAL__N_128TestPassingTestHasNoFailures7RunImplEvENK11PassingTest7RunImplEv
 3880      00000000 
 3881              		.text
 3882              		.align 2
 3884              	_ZZNK12_GLOBAL__N_128TestPassingTestHasNoFailures7RunImplEvEN11PassingTestD2Ev:
 3885              	.LFB1249:
  12:TestTest.cpp  ****     {
 3886              		.loc 4 12 0
 3887              		.cfi_startproc
 3888 1418 55       		pushq	%rbp
 3889              		.cfi_def_cfa_offset 16
 3890              		.cfi_offset 6, -16
 3891 1419 4889E5   		movq	%rsp, %rbp
 3892              		.cfi_def_cfa_register 6
 3893 141c 4883EC10 		subq	$16, %rsp
 3894 1420 48897DF8 		movq	%rdi, -8(%rbp)
 3895              	.LBB43:
  12:TestTest.cpp  ****     {
 3896              		.loc 4 12 0
 3897 1424 BA000000 		movl	$_ZTVZNK12_GLOBAL__N_128TestPassingTestHasNoFailures7RunImplEvE11PassingTest+16, %edx
 3897      00
 3898 1429 488B45F8 		movq	-8(%rbp), %rax
 3899 142d 488910   		movq	%rdx, (%rax)
 3900 1430 488B45F8 		movq	-8(%rbp), %rax
 3901 1434 4889C7   		movq	%rax, %rdi
 3902 1437 E8000000 		call	_ZN8UnitTest4TestD2Ev
 3902      00
 3903              	.LBE43:
 3904 143c B8000000 		movl	$0, %eax
 3904      00
 3905 1441 85C0     		testl	%eax, %eax
 3906 1443 740C     		je	.L191
  12:TestTest.cpp  ****     {
 3907              		.loc 4 12 0 is_stmt 0 discriminator 4
 3908 1445 488B45F8 		movq	-8(%rbp), %rax
 3909 1449 4889C7   		movq	%rax, %rdi
 3910 144c E8000000 		call	_ZdlPv
 3910      00
 3911              	.L191:
  12:TestTest.cpp  ****     {
 3912              		.loc 4 12 0
 3913 1451 C9       		leave
 3914              		.cfi_def_cfa 7, 8
 3915 1452 C3       		ret
 3916              		.cfi_endproc
 3917              	.LFE1249:
 3919              		.set	_ZZNK12_GLOBAL__N_128TestPassingTestHasNoFailures7RunImplEvEN11PassingTestD1Ev,_ZZNK12_GLOBAL
 3920 1453 90       		.align 2
 3922              	_ZZNK12_GLOBAL__N_128TestPassingTestHasNoFailures7RunImplEvEN11PassingTestD0Ev:
 3923              	.LFB1251:
  12:TestTest.cpp  ****     {
 3924              		.loc 4 12 0 is_stmt 1
 3925              		.cfi_startproc
 3926 1454 55       		pushq	%rbp
 3927              		.cfi_def_cfa_offset 16
 3928              		.cfi_offset 6, -16
 3929 1455 4889E5   		movq	%rsp, %rbp
 3930              		.cfi_def_cfa_register 6
 3931 1458 4883EC10 		subq	$16, %rsp
 3932 145c 48897DF8 		movq	%rdi, -8(%rbp)
  12:TestTest.cpp  ****     {
 3933              		.loc 4 12 0
 3934 1460 488B45F8 		movq	-8(%rbp), %rax
 3935 1464 4889C7   		movq	%rax, %rdi
 3936 1467 E8ACFFFF 		call	_ZZNK12_GLOBAL__N_128TestPassingTestHasNoFailures7RunImplEvEN11PassingTestD1Ev
 3936      FF
 3937 146c 488B45F8 		movq	-8(%rbp), %rax
 3938 1470 4889C7   		movq	%rax, %rdi
 3939 1473 E8000000 		call	_ZdlPv
 3939      00
 3940 1478 C9       		leave
 3941              		.cfi_def_cfa 7, 8
 3942 1479 C3       		ret
 3943              		.cfi_endproc
 3944              	.LFE1251:
 3946              		.weak	_ZTVN8UnitTest15MemoryOutStreamE
 3947              		.section	.rodata._ZTVN8UnitTest15MemoryOutStreamE,"aG",@progbits,_ZTVN8UnitTest15MemoryOutStreamE,
 3948              		.align 8
 3951              	_ZTVN8UnitTest15MemoryOutStreamE:
 3952 0000 90000000 		.quad	144
 3952      00000000 
 3953 0008 00000000 		.quad	0
 3953      00000000 
 3954 0010 00000000 		.quad	_ZTIN8UnitTest15MemoryOutStreamE
 3954      00000000 
 3955 0018 00000000 		.quad	_ZN8UnitTest15MemoryOutStreamD1Ev
 3955      00000000 
 3956 0020 00000000 		.quad	_ZN8UnitTest15MemoryOutStreamD0Ev
 3956      00000000 
 3957 0028 70FFFFFF 		.quad	-144
 3957      FFFFFFFF 
 3958 0030 70FFFFFF 		.quad	-144
 3958      FFFFFFFF 
 3959 0038 00000000 		.quad	_ZTIN8UnitTest15MemoryOutStreamE
 3959      00000000 
 3960 0040 00000000 		.quad	_ZTv0_n24_N8UnitTest15MemoryOutStreamD1Ev
 3960      00000000 
 3961 0048 00000000 		.quad	_ZTv0_n24_N8UnitTest15MemoryOutStreamD0Ev
 3961      00000000 
 3962              		.weak	_ZTTN8UnitTest15MemoryOutStreamE
 3963              		.section	.rodata._ZTTN8UnitTest15MemoryOutStreamE,"aG",@progbits,_ZTVN8UnitTest15MemoryOutStreamE,
 3964              		.align 8
 3967              	_ZTTN8UnitTest15MemoryOutStreamE:
 3968 0000 00000000 		.quad	_ZTVN8UnitTest15MemoryOutStreamE+24
 3968      00000000 
 3969 0008 00000000 		.quad	_ZTCN8UnitTest15MemoryOutStreamE0_NSt7__cxx1119basic_ostringstreamIcSt11char_traitsIcESaIcEE
 3969      00000000 
 3970 0010 00000000 		.quad	_ZTCN8UnitTest15MemoryOutStreamE0_So+24
 3970      00000000 
 3971 0018 00000000 		.quad	_ZTCN8UnitTest15MemoryOutStreamE0_So+64
 3971      00000000 
 3972 0020 00000000 		.quad	_ZTCN8UnitTest15MemoryOutStreamE0_NSt7__cxx1119basic_ostringstreamIcSt11char_traitsIcESaIcEE
 3972      00000000 
 3973 0028 00000000 		.quad	_ZTVN8UnitTest15MemoryOutStreamE+64
 3973      00000000 
 3974              		.hidden	_ZTCN8UnitTest15MemoryOutStreamE0_NSt7__cxx1119basic_ostringstreamIcSt11char_traitsIcESaIc
 3975              		.weak	_ZTCN8UnitTest15MemoryOutStreamE0_NSt7__cxx1119basic_ostringstreamIcSt11char_traitsIcESaIcEE
 3976              		.section	.rodata._ZTCN8UnitTest15MemoryOutStreamE0_NSt7__cxx1119basic_ostringstreamIcSt11char_trai
 3977              		.align 8
 3980              	_ZTCN8UnitTest15MemoryOutStreamE0_NSt7__cxx1119basic_ostringstreamIcSt11char_traitsIcESaIcEEE:
 3981 0000 90000000 		.quad	144
 3981      00000000 
 3982 0008 00000000 		.quad	0
 3982      00000000 
 3983 0010 00000000 		.quad	_ZTINSt7__cxx1119basic_ostringstreamIcSt11char_traitsIcESaIcEEE
 3983      00000000 
 3984 0018 00000000 		.quad	0
 3984      00000000 
 3985 0020 00000000 		.quad	0
 3985      00000000 
 3986 0028 70FFFFFF 		.quad	-144
 3986      FFFFFFFF 
 3987 0030 70FFFFFF 		.quad	-144
 3987      FFFFFFFF 
 3988 0038 00000000 		.quad	_ZTINSt7__cxx1119basic_ostringstreamIcSt11char_traitsIcESaIcEEE
 3988      00000000 
 3989 0040 00000000 		.quad	0
 3989      00000000 
 3990 0048 00000000 		.quad	0
 3990      00000000 
 3991              		.hidden	_ZTCN8UnitTest15MemoryOutStreamE0_So
 3992              		.weak	_ZTCN8UnitTest15MemoryOutStreamE0_So
 3993              		.section	.rodata._ZTCN8UnitTest15MemoryOutStreamE0_So,"aG",@progbits,_ZTVN8UnitTest15MemoryOutStre
 3994              		.align 8
 3997              	_ZTCN8UnitTest15MemoryOutStreamE0_So:
 3998 0000 90000000 		.quad	144
 3998      00000000 
 3999 0008 00000000 		.quad	0
 3999      00000000 
 4000 0010 00000000 		.quad	_ZTISo
 4000      00000000 
 4001 0018 00000000 		.quad	0
 4001      00000000 
 4002 0020 00000000 		.quad	0
 4002      00000000 
 4003 0028 70FFFFFF 		.quad	-144
 4003      FFFFFFFF 
 4004 0030 70FFFFFF 		.quad	-144
 4004      FFFFFFFF 
 4005 0038 00000000 		.quad	_ZTISo
 4005      00000000 
 4006 0040 00000000 		.quad	0
 4006      00000000 
 4007 0048 00000000 		.quad	0
 4007      00000000 
 4008              		.section	.rodata
 4009 0508 00000000 		.align 32
 4009      00000000 
 4009      00000000 
 4009      00000000 
 4009      00000000 
 4012              	_ZTSN12_GLOBAL__N_136TestOutOfCoreCHECKMacrosCanFailTestsE:
 4013 0520 2A4E3132 		.string	"*N12_GLOBAL__N_136TestOutOfCoreCHECKMacrosCanFailTestsE"
 4013      5F474C4F 
 4013      42414C5F 
 4013      5F4E5F31 
 4013      33365465 
 4014              		.align 8
 4017              	_ZTIN12_GLOBAL__N_136TestOutOfCoreCHECKMacrosCanFailTestsE:
 4018 0558 00000000 		.quad	_ZTVN10__cxxabiv120__si_class_type_infoE+16
 4018      00000000 
 4019 0560 00000000 		.quad	_ZTSN12_GLOBAL__N_136TestOutOfCoreCHECKMacrosCanFailTestsE
 4019      00000000 
 4020 0568 00000000 		.quad	_ZTIN8UnitTest4TestE
 4020      00000000 
 4021 0570 00000000 		.align 32
 4021      00000000 
 4021      00000000 
 4021      00000000 
 4024              	_ZTSN12_GLOBAL__N_134TestTestReflectsSpecifiedSuiteNameE:
 4025 0580 2A4E3132 		.string	"*N12_GLOBAL__N_134TestTestReflectsSpecifiedSuiteNameE"
 4025      5F474C4F 
 4025      42414C5F 
 4025      5F4E5F31 
 4025      33345465 
 4026 05b6 0000     		.align 8
 4029              	_ZTIN12_GLOBAL__N_134TestTestReflectsSpecifiedSuiteNameE:
 4030 05b8 00000000 		.quad	_ZTVN10__cxxabiv120__si_class_type_infoE+16
 4030      00000000 
 4031 05c0 00000000 		.quad	_ZTSN12_GLOBAL__N_134TestTestReflectsSpecifiedSuiteNameE
 4031      00000000 
 4032 05c8 00000000 		.quad	_ZTIN8UnitTest4TestE
 4032      00000000 
 4033 05d0 00000000 		.align 32
 4033      00000000 
 4033      00000000 
 4033      00000000 
 4036              	_ZTSN12_GLOBAL__N_144TestTestWithUnspecifiedSuiteGetsDefaultSuiteE:
 4037 05e0 2A4E3132 		.string	"*N12_GLOBAL__N_144TestTestWithUnspecifiedSuiteGetsDefaultSuiteE"
 4037      5F474C4F 
 4037      42414C5F 
 4037      5F4E5F31 
 4037      34345465 
 4038              		.align 8
 4041              	_ZTIN12_GLOBAL__N_144TestTestWithUnspecifiedSuiteGetsDefaultSuiteE:
 4042 0620 00000000 		.quad	_ZTVN10__cxxabiv120__si_class_type_infoE+16
 4042      00000000 
 4043 0628 00000000 		.quad	_ZTSN12_GLOBAL__N_144TestTestWithUnspecifiedSuiteGetsDefaultSuiteE
 4043      00000000 
 4044 0630 00000000 		.quad	_ZTIN8UnitTest4TestE
 4044      00000000 
 4045 0638 00000000 		.align 32
 4045      00000000 
 4048              	_ZTSZNK12_GLOBAL__N_138TestCrashingTestsAreReportedAsFailures7RunImplEvE12CrashingTest:
 4049 0640 2A5A4E4B 		.string	"*ZNK12_GLOBAL__N_138TestCrashingTestsAreReportedAsFailures7RunImplEvE12CrashingTest"
 4049      31325F47 
 4049      4C4F4241 
 4049      4C5F5F4E 
 4049      5F313338 
 4050 0694 00000000 		.align 8
 4053              	_ZTIZNK12_GLOBAL__N_138TestCrashingTestsAreReportedAsFailures7RunImplEvE12CrashingTest:
 4054 0698 00000000 		.quad	_ZTVN10__cxxabiv120__si_class_type_infoE+16
 4054      00000000 
 4055 06a0 00000000 		.quad	_ZTSZNK12_GLOBAL__N_138TestCrashingTestsAreReportedAsFailures7RunImplEvE12CrashingTest
 4055      00000000 
 4056 06a8 00000000 		.quad	_ZTIN8UnitTest4TestE
 4056      00000000 
 4057 06b0 00000000 		.align 32
 4057      00000000 
 4057      00000000 
 4057      00000000 
 4060              	_ZTSN12_GLOBAL__N_138TestCrashingTestsAreReportedAsFailuresE:
 4061 06c0 2A4E3132 		.string	"*N12_GLOBAL__N_138TestCrashingTestsAreReportedAsFailuresE"
 4061      5F474C4F 
 4061      42414C5F 
 4061      5F4E5F31 
 4061      33385465 
 4062 06fa 00000000 		.align 8
 4062      0000
 4065              	_ZTIN12_GLOBAL__N_138TestCrashingTestsAreReportedAsFailuresE:
 4066 0700 00000000 		.quad	_ZTVN10__cxxabiv120__si_class_type_infoE+16
 4066      00000000 
 4067 0708 00000000 		.quad	_ZTSN12_GLOBAL__N_138TestCrashingTestsAreReportedAsFailuresE
 4067      00000000 
 4068 0710 00000000 		.quad	_ZTIN8UnitTest4TestE
 4068      00000000 
 4069 0718 00000000 		.align 32
 4069      00000000 
 4072              	_ZTSZNK12_GLOBAL__N_138TestThrowingTestsAreReportedAsFailures7RunImplEvE12CrashingTest:
 4073 0720 2A5A4E4B 		.string	"*ZNK12_GLOBAL__N_138TestThrowingTestsAreReportedAsFailures7RunImplEvE12CrashingTest"
 4073      31325F47 
 4073      4C4F4241 
 4073      4C5F5F4E 
 4073      5F313338 
 4074 0774 00000000 		.align 8
 4077              	_ZTIZNK12_GLOBAL__N_138TestThrowingTestsAreReportedAsFailures7RunImplEvE12CrashingTest:
 4078 0778 00000000 		.quad	_ZTVN10__cxxabiv120__si_class_type_infoE+16
 4078      00000000 
 4079 0780 00000000 		.quad	_ZTSZNK12_GLOBAL__N_138TestThrowingTestsAreReportedAsFailures7RunImplEvE12CrashingTest
 4079      00000000 
 4080 0788 00000000 		.quad	_ZTIN8UnitTest4TestE
 4080      00000000 
 4081 0790 00000000 		.align 32
 4081      00000000 
 4081      00000000 
 4081      00000000 
 4084              	_ZTSN12_GLOBAL__N_138TestThrowingTestsAreReportedAsFailuresE:
 4085 07a0 2A4E3132 		.string	"*N12_GLOBAL__N_138TestThrowingTestsAreReportedAsFailuresE"
 4085      5F474C4F 
 4085      42414C5F 
 4085      5F4E5F31 
 4085      33385465 
 4086 07da 00000000 		.align 8
 4086      0000
 4089              	_ZTIN12_GLOBAL__N_138TestThrowingTestsAreReportedAsFailuresE:
 4090 07e0 00000000 		.quad	_ZTVN10__cxxabiv120__si_class_type_infoE+16
 4090      00000000 
 4091 07e8 00000000 		.quad	_ZTSN12_GLOBAL__N_138TestThrowingTestsAreReportedAsFailuresE
 4091      00000000 
 4092 07f0 00000000 		.quad	_ZTIN8UnitTest4TestE
 4092      00000000 
 4093 07f8 00000000 		.align 32
 4093      00000000 
 4096              	_ZTSZNK12_GLOBAL__N_126TestFailingTestHasFailures7RunImplEvE11FailingTest:
 4097 0800 2A5A4E4B 		.string	"*ZNK12_GLOBAL__N_126TestFailingTestHasFailures7RunImplEvE11FailingTest"
 4097      31325F47 
 4097      4C4F4241 
 4097      4C5F5F4E 
 4097      5F313236 
 4098 0847 00       		.align 8
 4101              	_ZTIZNK12_GLOBAL__N_126TestFailingTestHasFailures7RunImplEvE11FailingTest:
 4102 0848 00000000 		.quad	_ZTVN10__cxxabiv120__si_class_type_infoE+16
 4102      00000000 
 4103 0850 00000000 		.quad	_ZTSZNK12_GLOBAL__N_126TestFailingTestHasFailures7RunImplEvE11FailingTest
 4103      00000000 
 4104 0858 00000000 		.quad	_ZTIN8UnitTest4TestE
 4104      00000000 
 4105              		.align 32
 4108              	_ZTSN12_GLOBAL__N_126TestFailingTestHasFailuresE:
 4109 0860 2A4E3132 		.string	"*N12_GLOBAL__N_126TestFailingTestHasFailuresE"
 4109      5F474C4F 
 4109      42414C5F 
 4109      5F4E5F31 
 4109      32365465 
 4110 088e 0000     		.align 8
 4113              	_ZTIN12_GLOBAL__N_126TestFailingTestHasFailuresE:
 4114 0890 00000000 		.quad	_ZTVN10__cxxabiv120__si_class_type_infoE+16
 4114      00000000 
 4115 0898 00000000 		.quad	_ZTSN12_GLOBAL__N_126TestFailingTestHasFailuresE
 4115      00000000 
 4116 08a0 00000000 		.quad	_ZTIN8UnitTest4TestE
 4116      00000000 
 4117 08a8 00000000 		.align 32
 4117      00000000 
 4117      00000000 
 4117      00000000 
 4117      00000000 
 4120              	_ZTSZNK12_GLOBAL__N_128TestPassingTestHasNoFailures7RunImplEvE11PassingTest:
 4121 08c0 2A5A4E4B 		.string	"*ZNK12_GLOBAL__N_128TestPassingTestHasNoFailures7RunImplEvE11PassingTest"
 4121      31325F47 
 4121      4C4F4241 
 4121      4C5F5F4E 
 4121      5F313238 
 4122 0909 00000000 		.align 8
 4122      000000
 4125              	_ZTIZNK12_GLOBAL__N_128TestPassingTestHasNoFailures7RunImplEvE11PassingTest:
 4126 0910 00000000 		.quad	_ZTVN10__cxxabiv120__si_class_type_infoE+16
 4126      00000000 
 4127 0918 00000000 		.quad	_ZTSZNK12_GLOBAL__N_128TestPassingTestHasNoFailures7RunImplEvE11PassingTest
 4127      00000000 
 4128 0920 00000000 		.quad	_ZTIN8UnitTest4TestE
 4128      00000000 
 4129 0928 00000000 		.align 32
 4129      00000000 
 4129      00000000 
 4129      00000000 
 4129      00000000 
 4132              	_ZTSN12_GLOBAL__N_128TestPassingTestHasNoFailuresE:
 4133 0940 2A4E3132 		.string	"*N12_GLOBAL__N_128TestPassingTestHasNoFailuresE"
 4133      5F474C4F 
 4133      42414C5F 
 4133      5F4E5F31 
 4133      32385465 
 4134              		.align 8
 4137              	_ZTIN12_GLOBAL__N_128TestPassingTestHasNoFailuresE:
 4138 0970 00000000 		.quad	_ZTVN10__cxxabiv120__si_class_type_infoE+16
 4138      00000000 
 4139 0978 00000000 		.quad	_ZTSN12_GLOBAL__N_128TestPassingTestHasNoFailuresE
 4139      00000000 
 4140 0980 00000000 		.quad	_ZTIN8UnitTest4TestE
 4140      00000000 
 4141              		.weak	_ZTIN8UnitTest15MemoryOutStreamE
 4142              		.section	.rodata._ZTIN8UnitTest15MemoryOutStreamE,"aG",@progbits,_ZTIN8UnitTest15MemoryOutStreamE,
 4143              		.align 8
 4146              	_ZTIN8UnitTest15MemoryOutStreamE:
 4147 0000 00000000 		.quad	_ZTVN10__cxxabiv120__si_class_type_infoE+16
 4147      00000000 
 4148 0008 00000000 		.quad	_ZTSN8UnitTest15MemoryOutStreamE
 4148      00000000 
 4149 0010 00000000 		.quad	_ZTINSt7__cxx1119basic_ostringstreamIcSt11char_traitsIcESaIcEEE
 4149      00000000 
 4150              		.weak	_ZTSN8UnitTest15MemoryOutStreamE
 4151              		.section	.rodata._ZTSN8UnitTest15MemoryOutStreamE,"aG",@progbits,_ZTSN8UnitTest15MemoryOutStreamE,
 4152              		.align 16
 4155              	_ZTSN8UnitTest15MemoryOutStreamE:
 4156 0000 4E38556E 		.string	"N8UnitTest15MemoryOutStreamE"
 4156      69745465 
 4156      73743135 
 4156      4D656D6F 
 4156      72794F75 
 4157              		.text
 4159              	_Z41__static_initialization_and_destruction_0ii:
 4160              	.LFB1252:
 131:TestTest.cpp  **** 
 132:TestTest.cpp  **** }
 4161              		.loc 4 132 0
 4162              		.cfi_startproc
 4163 147a 55       		pushq	%rbp
 4164              		.cfi_def_cfa_offset 16
 4165              		.cfi_offset 6, -16
 4166 147b 4889E5   		movq	%rsp, %rbp
 4167              		.cfi_def_cfa_register 6
 4168 147e 4883EC10 		subq	$16, %rsp
 4169 1482 897DFC   		movl	%edi, -4(%rbp)
 4170 1485 8975F8   		movl	%esi, -8(%rbp)
 4171              		.loc 4 132 0
 4172 1488 837DFC01 		cmpl	$1, -4(%rbp)
 4173 148c 0F858001 		jne	.L196
 4173      0000
 4174              		.loc 4 132 0 is_stmt 0 discriminator 1
 4175 1492 817DF8FF 		cmpl	$65535, -8(%rbp)
 4175      FF0000
 4176 1499 0F857301 		jne	.L196
 4176      0000
  10:TestTest.cpp  **** {
 4177              		.loc 4 10 0 is_stmt 1
 4178 149f BF000000 		movl	$_ZN12_GLOBAL__N_136testPassingTestHasNoFailuresInstanceE, %edi
 4178      00
 4179 14a4 E857EBFF 		call	_ZN12_GLOBAL__N_128TestPassingTestHasNoFailuresC1Ev
 4179      FF
 4180 14a9 BA000000 		movl	$__dso_handle, %edx
 4180      00
 4181 14ae BE000000 		movl	$_ZN12_GLOBAL__N_136testPassingTestHasNoFailuresInstanceE, %esi
 4181      00
 4182 14b3 BF000000 		movl	$_ZN12_GLOBAL__N_128TestPassingTestHasNoFailuresD1Ev, %edi
 4182      00
 4183 14b8 E8000000 		call	__cxa_atexit
 4183      00
 4184 14bd E8000000 		call	_ZN8UnitTest4Test11GetTestListEv
 4184      00
 4185 14c2 BA000000 		movl	$_ZN12_GLOBAL__N_136testPassingTestHasNoFailuresInstanceE, %edx
 4185      00
 4186 14c7 4889C6   		movq	%rax, %rsi
 4187 14ca BF000000 		movl	$_ZN12_GLOBAL__N_129adderPassingTestHasNoFailuresE, %edi
 4187      00
 4188 14cf E8000000 		call	_ZN8UnitTest9ListAdderC1ERNS_8TestListEPNS_4TestE
 4188      00
  32:TestTest.cpp  **** {
 4189              		.loc 4 32 0
 4190 14d4 BF000000 		movl	$_ZN12_GLOBAL__N_134testFailingTestHasFailuresInstanceE, %edi
 4190      00
 4191 14d9 E8FAEDFF 		call	_ZN12_GLOBAL__N_126TestFailingTestHasFailuresC1Ev
 4191      FF
 4192 14de BA000000 		movl	$__dso_handle, %edx
 4192      00
 4193 14e3 BE000000 		movl	$_ZN12_GLOBAL__N_134testFailingTestHasFailuresInstanceE, %esi
 4193      00
 4194 14e8 BF000000 		movl	$_ZN12_GLOBAL__N_126TestFailingTestHasFailuresD1Ev, %edi
 4194      00
 4195 14ed E8000000 		call	__cxa_atexit
 4195      00
 4196 14f2 E8000000 		call	_ZN8UnitTest4Test11GetTestListEv
 4196      00
 4197 14f7 BA000000 		movl	$_ZN12_GLOBAL__N_134testFailingTestHasFailuresInstanceE, %edx
 4197      00
 4198 14fc 4889C6   		movq	%rax, %rsi
 4199 14ff BF000000 		movl	$_ZN12_GLOBAL__N_127adderFailingTestHasFailuresE, %edi
 4199      00
 4200 1504 E8000000 		call	_ZN8UnitTest9ListAdderC1ERNS_8TestListEPNS_4TestE
 4200      00
  54:TestTest.cpp  **** {
 4201              		.loc 4 54 0
 4202 1509 BF000000 		movl	$_ZN12_GLOBAL__N_146testThrowingTestsAreReportedAsFailuresInstanceE, %edi
 4202      00
 4203 150e E89DF0FF 		call	_ZN12_GLOBAL__N_138TestThrowingTestsAreReportedAsFailuresC1Ev
 4203      FF
 4204 1513 BA000000 		movl	$__dso_handle, %edx
 4204      00
 4205 1518 BE000000 		movl	$_ZN12_GLOBAL__N_146testThrowingTestsAreReportedAsFailuresInstanceE, %esi
 4205      00
 4206 151d BF000000 		movl	$_ZN12_GLOBAL__N_138TestThrowingTestsAreReportedAsFailuresD1Ev, %edi
 4206      00
 4207 1522 E8000000 		call	__cxa_atexit
 4207      00
 4208 1527 E8000000 		call	_ZN8UnitTest4Test11GetTestListEv
 4208      00
 4209 152c BA000000 		movl	$_ZN12_GLOBAL__N_146testThrowingTestsAreReportedAsFailuresInstanceE, %edx
 4209      00
 4210 1531 4889C6   		movq	%rax, %rsi
 4211 1534 BF000000 		movl	$_ZN12_GLOBAL__N_139adderThrowingTestsAreReportedAsFailuresE, %edi
 4211      00
 4212 1539 E8000000 		call	_ZN8UnitTest9ListAdderC1ERNS_8TestListEPNS_4TestE
 4212      00
  77:TestTest.cpp  **** {
 4213              		.loc 4 77 0
 4214 153e BF000000 		movl	$_ZN12_GLOBAL__N_146testCrashingTestsAreReportedAsFailuresInstanceE, %edi
 4214      00
 4215 1543 E88EF2FF 		call	_ZN12_GLOBAL__N_138TestCrashingTestsAreReportedAsFailuresC1Ev
 4215      FF
 4216 1548 BA000000 		movl	$__dso_handle, %edx
 4216      00
 4217 154d BE000000 		movl	$_ZN12_GLOBAL__N_146testCrashingTestsAreReportedAsFailuresInstanceE, %esi
 4217      00
 4218 1552 BF000000 		movl	$_ZN12_GLOBAL__N_138TestCrashingTestsAreReportedAsFailuresD1Ev, %edi
 4218      00
 4219 1557 E8000000 		call	__cxa_atexit
 4219      00
 4220 155c E8000000 		call	_ZN8UnitTest4Test11GetTestListEv
 4220      00
 4221 1561 BA000000 		movl	$_ZN12_GLOBAL__N_146testCrashingTestsAreReportedAsFailuresInstanceE, %edx
 4221      00
 4222 1566 4889C6   		movq	%rax, %rsi
 4223 1569 BF000000 		movl	$_ZN12_GLOBAL__N_139adderCrashingTestsAreReportedAsFailuresE, %edi
 4223      00
 4224 156e E8000000 		call	_ZN8UnitTest9ListAdderC1ERNS_8TestListEPNS_4TestE
 4224      00
 102:TestTest.cpp  **** {
 4225              		.loc 4 102 0
 4226 1573 BF000000 		movl	$_ZN12_GLOBAL__N_152testTestWithUnspecifiedSuiteGetsDefaultSuiteInstanceE, %edi
 4226      00
 4227 1578 E86DF4FF 		call	_ZN12_GLOBAL__N_144TestTestWithUnspecifiedSuiteGetsDefaultSuiteC1Ev
 4227      FF
 4228 157d BA000000 		movl	$__dso_handle, %edx
 4228      00
 4229 1582 BE000000 		movl	$_ZN12_GLOBAL__N_152testTestWithUnspecifiedSuiteGetsDefaultSuiteInstanceE, %esi
 4229      00
 4230 1587 BF000000 		movl	$_ZN12_GLOBAL__N_144TestTestWithUnspecifiedSuiteGetsDefaultSuiteD1Ev, %edi
 4230      00
 4231 158c E8000000 		call	__cxa_atexit
 4231      00
 4232 1591 E8000000 		call	_ZN8UnitTest4Test11GetTestListEv
 4232      00
 4233 1596 BA000000 		movl	$_ZN12_GLOBAL__N_152testTestWithUnspecifiedSuiteGetsDefaultSuiteInstanceE, %edx
 4233      00
 4234 159b 4889C6   		movq	%rax, %rsi
 4235 159e BF000000 		movl	$_ZN12_GLOBAL__N_145adderTestWithUnspecifiedSuiteGetsDefaultSuiteE, %edi
 4235      00
 4236 15a3 E8000000 		call	_ZN8UnitTest9ListAdderC1ERNS_8TestListEPNS_4TestE
 4236      00
 109:TestTest.cpp  **** {
 4237              		.loc 4 109 0
 4238 15a8 BF000000 		movl	$_ZN12_GLOBAL__N_142testTestReflectsSpecifiedSuiteNameInstanceE, %edi
 4238      00
 4239 15ad E83AF6FF 		call	_ZN12_GLOBAL__N_134TestTestReflectsSpecifiedSuiteNameC1Ev
 4239      FF
 4240 15b2 BA000000 		movl	$__dso_handle, %edx
 4240      00
 4241 15b7 BE000000 		movl	$_ZN12_GLOBAL__N_142testTestReflectsSpecifiedSuiteNameInstanceE, %esi
 4241      00
 4242 15bc BF000000 		movl	$_ZN12_GLOBAL__N_134TestTestReflectsSpecifiedSuiteNameD1Ev, %edi
 4242      00
 4243 15c1 E8000000 		call	__cxa_atexit
 4243      00
 4244 15c6 E8000000 		call	_ZN8UnitTest4Test11GetTestListEv
 4244      00
 4245 15cb BA000000 		movl	$_ZN12_GLOBAL__N_142testTestReflectsSpecifiedSuiteNameInstanceE, %edx
 4245      00
 4246 15d0 4889C6   		movq	%rax, %rsi
 4247 15d3 BF000000 		movl	$_ZN12_GLOBAL__N_135adderTestReflectsSpecifiedSuiteNameE, %edi
 4247      00
 4248 15d8 E8000000 		call	_ZN8UnitTest9ListAdderC1ERNS_8TestListEPNS_4TestE
 4248      00
 121:TestTest.cpp  **** {
 4249              		.loc 4 121 0
 4250 15dd BF000000 		movl	$_ZN12_GLOBAL__N_144testOutOfCoreCHECKMacrosCanFailTestsInstanceE, %edi
 4250      00
 4251 15e2 E8E5F8FF 		call	_ZN12_GLOBAL__N_136TestOutOfCoreCHECKMacrosCanFailTestsC1Ev
 4251      FF
 4252 15e7 BA000000 		movl	$__dso_handle, %edx
 4252      00
 4253 15ec BE000000 		movl	$_ZN12_GLOBAL__N_144testOutOfCoreCHECKMacrosCanFailTestsInstanceE, %esi
 4253      00
 4254 15f1 BF000000 		movl	$_ZN12_GLOBAL__N_136TestOutOfCoreCHECKMacrosCanFailTestsD1Ev, %edi
 4254      00
 4255 15f6 E8000000 		call	__cxa_atexit
 4255      00
 4256 15fb E8000000 		call	_ZN8UnitTest4Test11GetTestListEv
 4256      00
 4257 1600 BA000000 		movl	$_ZN12_GLOBAL__N_144testOutOfCoreCHECKMacrosCanFailTestsInstanceE, %edx
 4257      00
 4258 1605 4889C6   		movq	%rax, %rsi
 4259 1608 BF000000 		movl	$_ZN12_GLOBAL__N_137adderOutOfCoreCHECKMacrosCanFailTestsE, %edi
 4259      00
 4260 160d E8000000 		call	_ZN8UnitTest9ListAdderC1ERNS_8TestListEPNS_4TestE
 4260      00
 4261              	.L196:
 4262              		.loc 4 132 0
 4263 1612 90       		nop
 4264 1613 C9       		leave
 4265              		.cfi_def_cfa 7, 8
 4266 1614 C3       		ret
 4267              		.cfi_endproc
 4268              	.LFE1252:
 4271              	_GLOBAL__sub_I_TestTest.cpp:
 4272              	.LFB1253:
 4273              		.loc 4 132 0
 4274              		.cfi_startproc
 4275 1615 55       		pushq	%rbp
 4276              		.cfi_def_cfa_offset 16
 4277              		.cfi_offset 6, -16
 4278 1616 4889E5   		movq	%rsp, %rbp
 4279              		.cfi_def_cfa_register 6
 4280              		.loc 4 132 0
 4281 1619 BEFFFF00 		movl	$65535, %esi
 4281      00
 4282 161e BF010000 		movl	$1, %edi
 4282      00
 4283 1623 E852FEFF 		call	_Z41__static_initialization_and_destruction_0ii
 4283      FF
 4284 1628 5D       		popq	%rbp
 4285              		.cfi_def_cfa 7, 8
 4286 1629 C3       		ret
 4287              		.cfi_endproc
 4288              	.LFE1253:
 4290              		.section	.init_array,"aw"
 4291              		.align 8
 4292 0000 00000000 		.quad	_GLOBAL__sub_I_TestTest.cpp
 4292      00000000 
 4293              		.text
 4294              	.Letext0:
 4295              		.file 6 "../TestDetails.h"
 4296              		.file 7 "../TestList.h"
 4297              		.file 8 "../TestResults.h"
 4298              		.file 9 "/usr/include/x86_64-linux-gnu/c++/5/bits/c++config.h"
 4299              		.file 10 "/usr/include/c++/5/bits/basic_string.h"
 4300              		.file 11 "/usr/include/c++/5/bits/basic_string.tcc"
 4301              		.file 12 "/usr/include/c++/5/bits/stringfwd.h"
 4302              		.file 13 "/usr/include/c++/5/cwchar"
 4303              		.file 14 "/usr/include/c++/5/bits/char_traits.h"
 4304              		.file 15 "/usr/include/c++/5/clocale"
 4305              		.file 16 "/usr/include/c++/5/bits/allocator.h"
 4306              		.file 17 "/usr/include/c++/5/cwctype"
 4307              		.file 18 "/usr/include/c++/5/debug/debug.h"
 4308              		.file 19 "/usr/include/c++/5/bits/predefined_ops.h"
 4309              		.file 20 "/usr/include/c++/5/ext/new_allocator.h"
 4310              		.file 21 "/usr/include/c++/5/ext/numeric_traits.h"
 4311              		.file 22 "/usr/include/c++/5/ext/alloc_traits.h"
 4312              		.file 23 "/usr/include/stdio.h"
 4313              		.file 24 "<built-in>"
 4314              		.file 25 "/usr/lib/gcc/x86_64-linux-gnu/5/include/stddef.h"
 4315              		.file 26 "/usr/include/wchar.h"
 4316              		.file 27 "/usr/include/time.h"
 4317              		.file 28 "/usr/include/locale.h"
 4318              		.file 29 "/usr/include/x86_64-linux-gnu/bits/types.h"
 4319              		.file 30 "/usr/include/wctype.h"
 4320              		.file 31 "/usr/include/x86_64-linux-gnu/sys/time.h"