   1              		.file	"TestTestRunner.cpp"
   2              		.text
   3              	.Ltext0:
   4              		.section	.rodata
   5              	.LC0:
   6 0000 44656661 		.string	"DefaultSuite"
   6      756C7453 
   6      75697465 
   6      00
   7              		.section	.text._ZN13UnitTestSuite12GetSuiteNameEv,"axG",@progbits,_ZN13UnitTestSuite12GetSuiteName
   8              		.weak	_ZN13UnitTestSuite12GetSuiteNameEv
  10              	_ZN13UnitTestSuite12GetSuiteNameEv:
  11              	.LFB0:
  12              		.file 1 "../TestSuite.h"
   1:../TestSuite.h **** #ifndef UNITTEST_TESTSUITE_H
   2:../TestSuite.h **** #define UNITTEST_TESTSUITE_H
   3:../TestSuite.h **** 
   4:../TestSuite.h **** namespace UnitTestSuite {
   5:../TestSuite.h **** 
   6:../TestSuite.h ****     inline char const* GetSuiteName ()
   7:../TestSuite.h ****     {
  13              		.loc 1 7 0
  14              		.cfi_startproc
  15 0000 55       		pushq	%rbp
  16              		.cfi_def_cfa_offset 16
  17              		.cfi_offset 6, -16
  18 0001 4889E5   		movq	%rsp, %rbp
  19              		.cfi_def_cfa_register 6
   8:../TestSuite.h ****         return "DefaultSuite";
  20              		.loc 1 8 0
  21 0004 B8000000 		movl	$.LC0, %eax
  21      00
   9:../TestSuite.h ****     }
  22              		.loc 1 9 0
  23 0009 5D       		popq	%rbp
  24              		.cfi_def_cfa 7, 8
  25 000a C3       		ret
  26              		.cfi_endproc
  27              	.LFE0:
  29              		.section	.text._ZN8UnitTest15MemoryOutStreamC1Ev,"axG",@progbits,_ZN8UnitTest15MemoryOutStreamC1Ev
  30              		.align 2
  31              		.weak	_ZN8UnitTest15MemoryOutStreamC1Ev
  33              	_ZN8UnitTest15MemoryOutStreamC1Ev:
  34              	.LFB1057:
  35              		.file 2 "../MemoryOutStream.h"
   1:../MemoryOutStream.h **** #ifndef UNITTEST_MEMORYOUTSTREAM_H
   2:../MemoryOutStream.h **** #define UNITTEST_MEMORYOUTSTREAM_H
   3:../MemoryOutStream.h **** 
   4:../MemoryOutStream.h **** #include "Config.h"
   5:../MemoryOutStream.h **** 
   6:../MemoryOutStream.h **** #ifndef UNITTEST_USE_CUSTOM_STREAMS
   7:../MemoryOutStream.h **** 
   8:../MemoryOutStream.h **** #include <sstream>
   9:../MemoryOutStream.h **** 
  10:../MemoryOutStream.h **** namespace UnitTest
  11:../MemoryOutStream.h **** {
  12:../MemoryOutStream.h **** 
  13:../MemoryOutStream.h **** class MemoryOutStream : public std::ostringstream
  14:../MemoryOutStream.h **** {
  15:../MemoryOutStream.h **** public:
  16:../MemoryOutStream.h ****     MemoryOutStream() {}
  36              		.loc 2 16 0
  37              		.cfi_startproc
  38              		.cfi_personality 0x3,__gxx_personality_v0
  39              		.cfi_lsda 0x3,.LLSDA1057
  40 0000 55       		pushq	%rbp
  41              		.cfi_def_cfa_offset 16
  42              		.cfi_offset 6, -16
  43 0001 4889E5   		movq	%rsp, %rbp
  44              		.cfi_def_cfa_register 6
  45 0004 53       		pushq	%rbx
  46 0005 4883EC18 		subq	$24, %rsp
  47              		.cfi_offset 3, -24
  48 0009 48897DE8 		movq	%rdi, -24(%rbp)
  49              	.LBB2:
  50              		.loc 2 16 0
  51 000d 488B45E8 		movq	-24(%rbp), %rax
  52 0011 48059000 		addq	$144, %rax
  52      0000
  53 0017 4889C7   		movq	%rax, %rdi
  54              	.LEHB0:
  55 001a E8000000 		call	_ZNSt9basic_iosIcSt11char_traitsIcEEC2Ev
  55      00
  56              	.LEHE0:
  57 001f B9000000 		movl	$_ZTTN8UnitTest15MemoryOutStreamE+8, %ecx
  57      00
  58 0024 488B45E8 		movq	-24(%rbp), %rax
  59 0028 BA100000 		movl	$16, %edx
  59      00
  60 002d 4889CE   		movq	%rcx, %rsi
  61 0030 4889C7   		movq	%rax, %rdi
  62              	.LEHB1:
  63 0033 E8000000 		call	_ZNSt7__cxx1119basic_ostringstreamIcSt11char_traitsIcESaIcEEC2ESt13_Ios_Openmode
  63      00
  64              	.LEHE1:
  65              		.loc 2 16 0 is_stmt 0 discriminator 9
  66 0038 BA000000 		movl	$_ZTVN8UnitTest15MemoryOutStreamE+24, %edx
  66      00
  67 003d 488B45E8 		movq	-24(%rbp), %rax
  68 0041 488910   		movq	%rdx, (%rax)
  69 0044 BA900000 		movl	$144, %edx
  69      00
  70 0049 488B45E8 		movq	-24(%rbp), %rax
  71 004d 4801D0   		addq	%rdx, %rax
  72 0050 BA000000 		movl	$_ZTVN8UnitTest15MemoryOutStreamE+64, %edx
  72      00
  73 0055 488910   		movq	%rdx, (%rax)
  74 0058 488B45E8 		movq	-24(%rbp), %rax
  75 005c 4883C070 		addq	$112, %rax
  76 0060 4889C7   		movq	%rax, %rdi
  77              	.LEHB2:
  78 0063 E8000000 		call	_ZNSt7__cxx1112basic_stringIcSt11char_traitsIcESaIcEEC1Ev
  78      00
  79              	.LEHE2:
  80              	.LBE2:
  81              		.loc 2 16 0
  82 0068 EB39     		jmp	.L9
  83              	.L7:
  84 006a 4889C3   		movq	%rax, %rbx
  85              	.LBB3:
  86 006d BA000000 		movl	$_ZTTN8UnitTest15MemoryOutStreamE+8, %edx
  86      00
  87 0072 488B45E8 		movq	-24(%rbp), %rax
  88 0076 4889D6   		movq	%rdx, %rsi
  89 0079 4889C7   		movq	%rax, %rdi
  90 007c E8000000 		call	_ZNSt7__cxx1119basic_ostringstreamIcSt11char_traitsIcESaIcEED2Ev
  90      00
  91 0081 EB03     		jmp	.L8
  92              	.L6:
  93 0083 4889C3   		movq	%rax, %rbx
  94              	.L8:
  95              		.loc 2 16 0 discriminator 28
  96 0086 488B45E8 		movq	-24(%rbp), %rax
  97 008a 48059000 		addq	$144, %rax
  97      0000
  98 0090 4889C7   		movq	%rax, %rdi
  99 0093 E8000000 		call	_ZNSt9basic_iosIcSt11char_traitsIcEED2Ev
  99      00
 100 0098 4889D8   		movq	%rbx, %rax
 101 009b 4889C7   		movq	%rax, %rdi
 102              	.LEHB3:
 103 009e E8000000 		call	_Unwind_Resume
 103      00
 104              	.LEHE3:
 105              	.L9:
 106              	.LBE3:
 107              		.loc 2 16 0
 108 00a3 4883C418 		addq	$24, %rsp
 109 00a7 5B       		popq	%rbx
 110 00a8 5D       		popq	%rbp
 111              		.cfi_def_cfa 7, 8
 112 00a9 C3       		ret
 113              		.cfi_endproc
 114              	.LFE1057:
 115              		.globl	__gxx_personality_v0
 116              		.section	.gcc_except_table._ZN8UnitTest15MemoryOutStreamC1Ev,"aG",@progbits,_ZN8UnitTest15MemoryOu
 117              	.LLSDA1057:
 118 0000 FF       		.byte	0xff
 119 0001 FF       		.byte	0xff
 120 0002 01       		.byte	0x1
 121 0003 12       		.uleb128 .LLSDACSE1057-.LLSDACSB1057
 122              	.LLSDACSB1057:
 123 0004 1A       		.uleb128 .LEHB0-.LFB1057
 124 0005 05       		.uleb128 .LEHE0-.LEHB0
 125 0006 00       		.uleb128 0
 126 0007 00       		.uleb128 0
 127 0008 33       		.uleb128 .LEHB1-.LFB1057
 128 0009 05       		.uleb128 .LEHE1-.LEHB1
 129 000a 8301     		.uleb128 .L6-.LFB1057
 130 000c 00       		.uleb128 0
 131 000d 63       		.uleb128 .LEHB2-.LFB1057
 132 000e 05       		.uleb128 .LEHE2-.LEHB2
 133 000f 6A       		.uleb128 .L7-.LFB1057
 134 0010 00       		.uleb128 0
 135 0011 9E01     		.uleb128 .LEHB3-.LFB1057
 136 0013 05       		.uleb128 .LEHE3-.LEHB3
 137 0014 00       		.uleb128 0
 138 0015 00       		.uleb128 0
 139              	.LLSDACSE1057:
 140              		.section	.text._ZN8UnitTest15MemoryOutStreamC1Ev,"axG",@progbits,_ZN8UnitTest15MemoryOutStreamC1Ev
 142              		.section	.text._ZNK8UnitTest4TrueclEPKNS_4TestE,"axG",@progbits,_ZNK8UnitTest4TrueclEPKNS_4TestE,c
 143              		.align 2
 144              		.weak	_ZNK8UnitTest4TrueclEPKNS_4TestE
 146              	_ZNK8UnitTest4TrueclEPKNS_4TestE:
 147              	.LFB1067:
 148              		.file 3 "../TestRunner.h"
   1:../TestRunner.h **** #ifndef UNITTEST_TESTRUNNER_H
   2:../TestRunner.h **** #define UNITTEST_TESTRUNNER_H
   3:../TestRunner.h **** 
   4:../TestRunner.h **** #include "Test.h"
   5:../TestRunner.h **** #include "TestList.h"
   6:../TestRunner.h **** #include "CurrentTest.h"
   7:../TestRunner.h **** 
   8:../TestRunner.h **** namespace UnitTest {
   9:../TestRunner.h **** 
  10:../TestRunner.h **** class TestReporter;
  11:../TestRunner.h **** class TestResults;
  12:../TestRunner.h **** class Timer;
  13:../TestRunner.h **** 
  14:../TestRunner.h **** int RunAllTests();
  15:../TestRunner.h **** 
  16:../TestRunner.h **** struct True
  17:../TestRunner.h **** {
  18:../TestRunner.h **** 	bool operator()(const Test* const) const
 149              		.loc 3 18 0 is_stmt 1
 150              		.cfi_startproc
 151 0000 55       		pushq	%rbp
 152              		.cfi_def_cfa_offset 16
 153              		.cfi_offset 6, -16
 154 0001 4889E5   		movq	%rsp, %rbp
 155              		.cfi_def_cfa_register 6
 156 0004 48897DF8 		movq	%rdi, -8(%rbp)
 157 0008 488975F0 		movq	%rsi, -16(%rbp)
  19:../TestRunner.h **** 	{
  20:../TestRunner.h **** 		return true;	
 158              		.loc 3 20 0
 159 000c B8010000 		movl	$1, %eax
 159      00
  21:../TestRunner.h **** 	}
 160              		.loc 3 21 0
 161 0011 5D       		popq	%rbp
 162              		.cfi_def_cfa 7, 8
 163 0012 C3       		ret
 164              		.cfi_endproc
 165              	.LFE1067:
 167              		.section	.text._ZN8UnitTest12TestReporterC2Ev,"axG",@progbits,_ZN8UnitTest12TestReporterC5Ev,comda
 168              		.align 2
 169              		.weak	_ZN8UnitTest12TestReporterC2Ev
 171              	_ZN8UnitTest12TestReporterC2Ev:
 172              	.LFB1071:
 173              		.file 4 "../TestReporter.h"
   1:../TestReporter.h **** #ifndef UNITTEST_TESTREPORTER_H
   2:../TestReporter.h **** #define UNITTEST_TESTREPORTER_H
   3:../TestReporter.h **** 
   4:../TestReporter.h **** namespace UnitTest {
   5:../TestReporter.h **** 
   6:../TestReporter.h **** class TestDetails;
   7:../TestReporter.h **** 
   8:../TestReporter.h **** class TestReporter
 174              		.loc 4 8 0
 175              		.cfi_startproc
 176 0000 55       		pushq	%rbp
 177              		.cfi_def_cfa_offset 16
 178              		.cfi_offset 6, -16
 179 0001 4889E5   		movq	%rsp, %rbp
 180              		.cfi_def_cfa_register 6
 181 0004 48897DF8 		movq	%rdi, -8(%rbp)
 182              	.LBB4:
 183              		.loc 4 8 0
 184 0008 BA000000 		movl	$_ZTVN8UnitTest12TestReporterE+16, %edx
 184      00
 185 000d 488B45F8 		movq	-8(%rbp), %rax
 186 0011 488910   		movq	%rdx, (%rax)
 187              	.LBE4:
 188 0014 90       		nop
 189 0015 5D       		popq	%rbp
 190              		.cfi_def_cfa 7, 8
 191 0016 C3       		ret
 192              		.cfi_endproc
 193              	.LFE1071:
 195              		.weak	_ZN8UnitTest12TestReporterC1Ev
 196              		.set	_ZN8UnitTest12TestReporterC1Ev,_ZN8UnitTest12TestReporterC2Ev
 197              		.section	.text._ZN17RecordingReporterC2Ev,"axG",@progbits,_ZN17RecordingReporterC5Ev,comdat
 198              		.align 2
 199              		.weak	_ZN17RecordingReporterC2Ev
 201              	_ZN17RecordingReporterC2Ev:
 202              	.LFB1073:
 203              		.file 5 "RecordingReporter.h"
   1:RecordingReporter.h **** #ifndef UNITTEST_RECORDINGREPORTER_H
   2:RecordingReporter.h **** #define UNITTEST_RECORDINGREPORTER_H
   3:RecordingReporter.h **** 
   4:RecordingReporter.h **** #include "../TestReporter.h"
   5:RecordingReporter.h **** #include <cstring>
   6:RecordingReporter.h **** 
   7:RecordingReporter.h **** #include "../TestDetails.h"
   8:RecordingReporter.h **** 
   9:RecordingReporter.h **** struct RecordingReporter : public UnitTest::TestReporter
  10:RecordingReporter.h **** {
  11:RecordingReporter.h **** private:
  12:RecordingReporter.h ****     enum { kMaxStringLength = 256 };
  13:RecordingReporter.h **** 
  14:RecordingReporter.h **** public:
  15:RecordingReporter.h ****     RecordingReporter()
 204              		.loc 5 15 0
 205              		.cfi_startproc
 206 0000 55       		pushq	%rbp
 207              		.cfi_def_cfa_offset 16
 208              		.cfi_offset 6, -16
 209 0001 4889E5   		movq	%rsp, %rbp
 210              		.cfi_def_cfa_register 6
 211 0004 4883EC10 		subq	$16, %rsp
 212 0008 48897DF8 		movq	%rdi, -8(%rbp)
 213              	.LBB5:
  16:RecordingReporter.h ****         : testRunCount(0)
  17:RecordingReporter.h ****         , testFailedCount(0)
  18:RecordingReporter.h ****         , lastFailedLine(0)
  19:RecordingReporter.h ****         , testFinishedCount(0)
  20:RecordingReporter.h ****         , lastFinishedTestTime(0)
  21:RecordingReporter.h ****         , summaryTotalTestCount(0)
  22:RecordingReporter.h ****         , summaryFailedTestCount(0)
  23:RecordingReporter.h ****         , summaryFailureCount(0)
  24:RecordingReporter.h ****         , summarySecondsElapsed(0)
 214              		.loc 5 24 0
 215 000c 488B45F8 		movq	-8(%rbp), %rax
 216 0010 4889C7   		movq	%rax, %rdi
 217 0013 E8000000 		call	_ZN8UnitTest12TestReporterC2Ev
 217      00
 218 0018 BA000000 		movl	$_ZTV17RecordingReporter+16, %edx
 218      00
 219 001d 488B45F8 		movq	-8(%rbp), %rax
 220 0021 488910   		movq	%rdx, (%rax)
 221 0024 488B45F8 		movq	-8(%rbp), %rax
 222 0028 C7400800 		movl	$0, 8(%rax)
 222      000000
 223 002f 488B45F8 		movq	-8(%rbp), %rax
 224 0033 C7800C02 		movl	$0, 524(%rax)
 224      00000000 
 224      0000
 225 003d 488B45F8 		movq	-8(%rbp), %rax
 226 0041 C7801003 		movl	$0, 784(%rax)
 226      00000000 
 226      0000
 227 004b 488B45F8 		movq	-8(%rbp), %rax
 228 004f C7801406 		movl	$0, 1556(%rax)
 228      00000000 
 228      0000
 229 0059 488B45F8 		movq	-8(%rbp), %rax
 230 005d 660FEFC0 		pxor	%xmm0, %xmm0
 231 0061 F30F1180 		movss	%xmm0, 2072(%rax)
 231      18080000 
 232 0069 488B45F8 		movq	-8(%rbp), %rax
 233 006d C7801C08 		movl	$0, 2076(%rax)
 233      00000000 
 233      0000
 234 0077 488B45F8 		movq	-8(%rbp), %rax
 235 007b C7802008 		movl	$0, 2080(%rax)
 235      00000000 
 235      0000
 236 0085 488B45F8 		movq	-8(%rbp), %rax
 237 0089 C7802408 		movl	$0, 2084(%rax)
 237      00000000 
 237      0000
 238 0093 488B45F8 		movq	-8(%rbp), %rax
 239 0097 660FEFC0 		pxor	%xmm0, %xmm0
 240 009b F30F1180 		movss	%xmm0, 2088(%rax)
 240      28080000 
  25:RecordingReporter.h ****     {
  26:RecordingReporter.h ****         lastStartedSuite[0] = '\0';
 241              		.loc 5 26 0
 242 00a3 488B45F8 		movq	-8(%rbp), %rax
 243 00a7 C6400C00 		movb	$0, 12(%rax)
  27:RecordingReporter.h ****         lastStartedTest[0] = '\0';
 244              		.loc 5 27 0
 245 00ab 488B45F8 		movq	-8(%rbp), %rax
 246 00af C6800C01 		movb	$0, 268(%rax)
 246      000000
  28:RecordingReporter.h ****         lastFailedFile[0] = '\0';
 247              		.loc 5 28 0
 248 00b6 488B45F8 		movq	-8(%rbp), %rax
 249 00ba C6801002 		movb	$0, 528(%rax)
 249      000000
  29:RecordingReporter.h ****         lastFailedSuite[0] = '\0';
 250              		.loc 5 29 0
 251 00c1 488B45F8 		movq	-8(%rbp), %rax
 252 00c5 C6801403 		movb	$0, 788(%rax)
 252      000000
  30:RecordingReporter.h ****         lastFailedTest[0] = '\0';
 253              		.loc 5 30 0
 254 00cc 488B45F8 		movq	-8(%rbp), %rax
 255 00d0 C6801404 		movb	$0, 1044(%rax)
 255      000000
  31:RecordingReporter.h ****         lastFailedMessage[0] = '\0';
 256              		.loc 5 31 0
 257 00d7 488B45F8 		movq	-8(%rbp), %rax
 258 00db C6801405 		movb	$0, 1300(%rax)
 258      000000
  32:RecordingReporter.h ****         lastFinishedSuite[0] = '\0';
 259              		.loc 5 32 0
 260 00e2 488B45F8 		movq	-8(%rbp), %rax
 261 00e6 C6801806 		movb	$0, 1560(%rax)
 261      000000
  33:RecordingReporter.h ****         lastFinishedTest[0] = '\0';
 262              		.loc 5 33 0
 263 00ed 488B45F8 		movq	-8(%rbp), %rax
 264 00f1 C6801807 		movb	$0, 1816(%rax)
 264      000000
 265              	.LBE5:
  34:RecordingReporter.h ****     }
 266              		.loc 5 34 0
 267 00f8 90       		nop
 268 00f9 C9       		leave
 269              		.cfi_def_cfa 7, 8
 270 00fa C3       		ret
 271              		.cfi_endproc
 272              	.LFE1073:
 274              		.weak	_ZN17RecordingReporterC1Ev
 275              		.set	_ZN17RecordingReporterC1Ev,_ZN17RecordingReporterC2Ev
 276              		.section	.text._ZN17RecordingReporter15ReportTestStartERKN8UnitTest11TestDetailsE,"axG",@progbits,
 277              		.align 2
 278              		.weak	_ZN17RecordingReporter15ReportTestStartERKN8UnitTest11TestDetailsE
 280              	_ZN17RecordingReporter15ReportTestStartERKN8UnitTest11TestDetailsE:
 281              	.LFB1075:
  35:RecordingReporter.h **** 
  36:RecordingReporter.h ****     virtual void ReportTestStart(UnitTest::TestDetails const& test)
 282              		.loc 5 36 0
 283              		.cfi_startproc
 284 0000 55       		pushq	%rbp
 285              		.cfi_def_cfa_offset 16
 286              		.cfi_offset 6, -16
 287 0001 4889E5   		movq	%rsp, %rbp
 288              		.cfi_def_cfa_register 6
 289 0004 4883EC10 		subq	$16, %rsp
 290 0008 48897DF8 		movq	%rdi, -8(%rbp)
 291 000c 488975F0 		movq	%rsi, -16(%rbp)
  37:RecordingReporter.h ****     {
  38:RecordingReporter.h **** 		using namespace std;
  39:RecordingReporter.h **** 
  40:RecordingReporter.h ****         ++testRunCount;
 292              		.loc 5 40 0
 293 0010 488B45F8 		movq	-8(%rbp), %rax
 294 0014 8B4008   		movl	8(%rax), %eax
 295 0017 8D5001   		leal	1(%rax), %edx
 296 001a 488B45F8 		movq	-8(%rbp), %rax
 297 001e 895008   		movl	%edx, 8(%rax)
  41:RecordingReporter.h ****         strcpy(lastStartedSuite, test.suiteName);
 298              		.loc 5 41 0
 299 0021 488B45F0 		movq	-16(%rbp), %rax
 300 0025 488B00   		movq	(%rax), %rax
 301 0028 488B55F8 		movq	-8(%rbp), %rdx
 302 002c 4883C20C 		addq	$12, %rdx
 303 0030 4889C6   		movq	%rax, %rsi
 304 0033 4889D7   		movq	%rdx, %rdi
 305 0036 E8000000 		call	strcpy
 305      00
  42:RecordingReporter.h ****         strcpy(lastStartedTest, test.testName);
 306              		.loc 5 42 0
 307 003b 488B45F0 		movq	-16(%rbp), %rax
 308 003f 488B4008 		movq	8(%rax), %rax
 309 0043 488B55F8 		movq	-8(%rbp), %rdx
 310 0047 4881C20C 		addq	$268, %rdx
 310      010000
 311 004e 4889C6   		movq	%rax, %rsi
 312 0051 4889D7   		movq	%rdx, %rdi
 313 0054 E8000000 		call	strcpy
 313      00
  43:RecordingReporter.h ****     }
 314              		.loc 5 43 0
 315 0059 90       		nop
 316 005a C9       		leave
 317              		.cfi_def_cfa 7, 8
 318 005b C3       		ret
 319              		.cfi_endproc
 320              	.LFE1075:
 322              		.section	.text._ZN17RecordingReporter13ReportFailureERKN8UnitTest11TestDetailsEPKc,"axG",@progbits
 323              		.align 2
 324              		.weak	_ZN17RecordingReporter13ReportFailureERKN8UnitTest11TestDetailsEPKc
 326              	_ZN17RecordingReporter13ReportFailureERKN8UnitTest11TestDetailsEPKc:
 327              	.LFB1076:
  44:RecordingReporter.h **** 
  45:RecordingReporter.h ****     virtual void ReportFailure(UnitTest::TestDetails const& test, char const* failure)
 328              		.loc 5 45 0
 329              		.cfi_startproc
 330 0000 55       		pushq	%rbp
 331              		.cfi_def_cfa_offset 16
 332              		.cfi_offset 6, -16
 333 0001 4889E5   		movq	%rsp, %rbp
 334              		.cfi_def_cfa_register 6
 335 0004 4883EC20 		subq	$32, %rsp
 336 0008 48897DF8 		movq	%rdi, -8(%rbp)
 337 000c 488975F0 		movq	%rsi, -16(%rbp)
 338 0010 488955E8 		movq	%rdx, -24(%rbp)
  46:RecordingReporter.h ****     {
  47:RecordingReporter.h **** 		using namespace std;
  48:RecordingReporter.h **** 
  49:RecordingReporter.h **** 		++testFailedCount;
 339              		.loc 5 49 0
 340 0014 488B45F8 		movq	-8(%rbp), %rax
 341 0018 8B800C02 		movl	524(%rax), %eax
 341      0000
 342 001e 8D5001   		leal	1(%rax), %edx
 343 0021 488B45F8 		movq	-8(%rbp), %rax
 344 0025 89900C02 		movl	%edx, 524(%rax)
 344      0000
  50:RecordingReporter.h ****         strcpy(lastFailedFile, test.filename);
 345              		.loc 5 50 0
 346 002b 488B45F0 		movq	-16(%rbp), %rax
 347 002f 488B4010 		movq	16(%rax), %rax
 348 0033 488B55F8 		movq	-8(%rbp), %rdx
 349 0037 4881C210 		addq	$528, %rdx
 349      020000
 350 003e 4889C6   		movq	%rax, %rsi
 351 0041 4889D7   		movq	%rdx, %rdi
 352 0044 E8000000 		call	strcpy
 352      00
  51:RecordingReporter.h ****         lastFailedLine = test.lineNumber;
 353              		.loc 5 51 0
 354 0049 488B45F0 		movq	-16(%rbp), %rax
 355 004d 8B5018   		movl	24(%rax), %edx
 356 0050 488B45F8 		movq	-8(%rbp), %rax
 357 0054 89901003 		movl	%edx, 784(%rax)
 357      0000
  52:RecordingReporter.h ****         strcpy(lastFailedSuite, test.suiteName);
 358              		.loc 5 52 0
 359 005a 488B45F0 		movq	-16(%rbp), %rax
 360 005e 488B00   		movq	(%rax), %rax
 361 0061 488B55F8 		movq	-8(%rbp), %rdx
 362 0065 4881C214 		addq	$788, %rdx
 362      030000
 363 006c 4889C6   		movq	%rax, %rsi
 364 006f 4889D7   		movq	%rdx, %rdi
 365 0072 E8000000 		call	strcpy
 365      00
  53:RecordingReporter.h ****         strcpy(lastFailedTest, test.testName);
 366              		.loc 5 53 0
 367 0077 488B45F0 		movq	-16(%rbp), %rax
 368 007b 488B4008 		movq	8(%rax), %rax
 369 007f 488B55F8 		movq	-8(%rbp), %rdx
 370 0083 4881C214 		addq	$1044, %rdx
 370      040000
 371 008a 4889C6   		movq	%rax, %rsi
 372 008d 4889D7   		movq	%rdx, %rdi
 373 0090 E8000000 		call	strcpy
 373      00
  54:RecordingReporter.h ****         strcpy(lastFailedMessage, failure);
 374              		.loc 5 54 0
 375 0095 488B45F8 		movq	-8(%rbp), %rax
 376 0099 488D9014 		leaq	1300(%rax), %rdx
 376      050000
 377 00a0 488B45E8 		movq	-24(%rbp), %rax
 378 00a4 4889C6   		movq	%rax, %rsi
 379 00a7 4889D7   		movq	%rdx, %rdi
 380 00aa E8000000 		call	strcpy
 380      00
  55:RecordingReporter.h ****     }
 381              		.loc 5 55 0
 382 00af 90       		nop
 383 00b0 C9       		leave
 384              		.cfi_def_cfa 7, 8
 385 00b1 C3       		ret
 386              		.cfi_endproc
 387              	.LFE1076:
 389              		.section	.text._ZN17RecordingReporter16ReportTestFinishERKN8UnitTest11TestDetailsEf,"axG",@progbit
 390              		.align 2
 391              		.weak	_ZN17RecordingReporter16ReportTestFinishERKN8UnitTest11TestDetailsEf
 393              	_ZN17RecordingReporter16ReportTestFinishERKN8UnitTest11TestDetailsEf:
 394              	.LFB1077:
  56:RecordingReporter.h **** 
  57:RecordingReporter.h ****     virtual void ReportTestFinish(UnitTest::TestDetails const& test, float testDuration)
 395              		.loc 5 57 0
 396              		.cfi_startproc
 397 0000 55       		pushq	%rbp
 398              		.cfi_def_cfa_offset 16
 399              		.cfi_offset 6, -16
 400 0001 4889E5   		movq	%rsp, %rbp
 401              		.cfi_def_cfa_register 6
 402 0004 4883EC20 		subq	$32, %rsp
 403 0008 48897DF8 		movq	%rdi, -8(%rbp)
 404 000c 488975F0 		movq	%rsi, -16(%rbp)
 405 0010 F30F1145 		movss	%xmm0, -20(%rbp)
 405      EC
  58:RecordingReporter.h ****     {
  59:RecordingReporter.h **** 		using namespace std;
  60:RecordingReporter.h **** 
  61:RecordingReporter.h **** 		++testFinishedCount;
 406              		.loc 5 61 0
 407 0015 488B45F8 		movq	-8(%rbp), %rax
 408 0019 8B801406 		movl	1556(%rax), %eax
 408      0000
 409 001f 8D5001   		leal	1(%rax), %edx
 410 0022 488B45F8 		movq	-8(%rbp), %rax
 411 0026 89901406 		movl	%edx, 1556(%rax)
 411      0000
  62:RecordingReporter.h ****         strcpy(lastFinishedSuite, test.suiteName);
 412              		.loc 5 62 0
 413 002c 488B45F0 		movq	-16(%rbp), %rax
 414 0030 488B00   		movq	(%rax), %rax
 415 0033 488B55F8 		movq	-8(%rbp), %rdx
 416 0037 4881C218 		addq	$1560, %rdx
 416      060000
 417 003e 4889C6   		movq	%rax, %rsi
 418 0041 4889D7   		movq	%rdx, %rdi
 419 0044 E8000000 		call	strcpy
 419      00
  63:RecordingReporter.h ****         strcpy(lastFinishedTest, test.testName);
 420              		.loc 5 63 0
 421 0049 488B45F0 		movq	-16(%rbp), %rax
 422 004d 488B4008 		movq	8(%rax), %rax
 423 0051 488B55F8 		movq	-8(%rbp), %rdx
 424 0055 4881C218 		addq	$1816, %rdx
 424      070000
 425 005c 4889C6   		movq	%rax, %rsi
 426 005f 4889D7   		movq	%rdx, %rdi
 427 0062 E8000000 		call	strcpy
 427      00
  64:RecordingReporter.h ****         lastFinishedTestTime = testDuration;
 428              		.loc 5 64 0
 429 0067 488B45F8 		movq	-8(%rbp), %rax
 430 006b F30F1045 		movss	-20(%rbp), %xmm0
 430      EC
 431 0070 F30F1180 		movss	%xmm0, 2072(%rax)
 431      18080000 
  65:RecordingReporter.h ****     }
 432              		.loc 5 65 0
 433 0078 90       		nop
 434 0079 C9       		leave
 435              		.cfi_def_cfa 7, 8
 436 007a C3       		ret
 437              		.cfi_endproc
 438              	.LFE1077:
 440              		.section	.text._ZN17RecordingReporter13ReportSummaryEiiif,"axG",@progbits,_ZN17RecordingReporter13
 441              		.align 2
 442              		.weak	_ZN17RecordingReporter13ReportSummaryEiiif
 444              	_ZN17RecordingReporter13ReportSummaryEiiif:
 445              	.LFB1078:
  66:RecordingReporter.h **** 
  67:RecordingReporter.h ****     virtual void ReportSummary(int totalTestCount, int failedTestCount, int failureCount, float sec
 446              		.loc 5 67 0
 447              		.cfi_startproc
 448 0000 55       		pushq	%rbp
 449              		.cfi_def_cfa_offset 16
 450              		.cfi_offset 6, -16
 451 0001 4889E5   		movq	%rsp, %rbp
 452              		.cfi_def_cfa_register 6
 453 0004 48897DF8 		movq	%rdi, -8(%rbp)
 454 0008 8975F4   		movl	%esi, -12(%rbp)
 455 000b 8955F0   		movl	%edx, -16(%rbp)
 456 000e 894DEC   		movl	%ecx, -20(%rbp)
 457 0011 F30F1145 		movss	%xmm0, -24(%rbp)
 457      E8
  68:RecordingReporter.h ****     {
  69:RecordingReporter.h ****         summaryTotalTestCount = totalTestCount;
 458              		.loc 5 69 0
 459 0016 488B45F8 		movq	-8(%rbp), %rax
 460 001a 8B55F4   		movl	-12(%rbp), %edx
 461 001d 89901C08 		movl	%edx, 2076(%rax)
 461      0000
  70:RecordingReporter.h ****         summaryFailedTestCount = failedTestCount;
 462              		.loc 5 70 0
 463 0023 488B45F8 		movq	-8(%rbp), %rax
 464 0027 8B55F0   		movl	-16(%rbp), %edx
 465 002a 89902008 		movl	%edx, 2080(%rax)
 465      0000
  71:RecordingReporter.h ****         summaryFailureCount = failureCount;
 466              		.loc 5 71 0
 467 0030 488B45F8 		movq	-8(%rbp), %rax
 468 0034 8B55EC   		movl	-20(%rbp), %edx
 469 0037 89902408 		movl	%edx, 2084(%rax)
 469      0000
  72:RecordingReporter.h ****         summarySecondsElapsed = secondsElapsed;
 470              		.loc 5 72 0
 471 003d 488B45F8 		movq	-8(%rbp), %rax
 472 0041 F30F1045 		movss	-24(%rbp), %xmm0
 472      E8
 473 0046 F30F1180 		movss	%xmm0, 2088(%rax)
 473      28080000 
  73:RecordingReporter.h ****     }
 474              		.loc 5 73 0
 475 004e 90       		nop
 476 004f 5D       		popq	%rbp
 477              		.cfi_def_cfa 7, 8
 478 0050 C3       		ret
 479              		.cfi_endproc
 480              	.LFE1078:
 482              		.section	.rodata
 483              	.LC2:
 484 000d 00       		.string	""
 485              		.text
 486              		.align 2
 488              	_ZN12_GLOBAL__N_18MockTestC2EPKcbbi:
 489              	.LFB1080:
 490              		.file 6 "TestTestRunner.cpp"
   1:TestTestRunner.cpp **** #include "../UnitTest++.h"
   2:TestTestRunner.cpp **** #include "RecordingReporter.h"
   3:TestTestRunner.cpp **** #include "../ReportAssert.h"
   4:TestTestRunner.cpp **** #include "../TestList.h"
   5:TestTestRunner.cpp **** #include "../TimeHelpers.h"
   6:TestTestRunner.cpp **** #include "../TimeConstraint.h"
   7:TestTestRunner.cpp **** 
   8:TestTestRunner.cpp **** using namespace UnitTest;
   9:TestTestRunner.cpp **** 
  10:TestTestRunner.cpp **** namespace
  11:TestTestRunner.cpp **** {
  12:TestTestRunner.cpp **** 
  13:TestTestRunner.cpp **** struct MockTest : public Test
  14:TestTestRunner.cpp **** {
  15:TestTestRunner.cpp ****     MockTest(char const* testName, bool const success_, bool const assert_, int const count_ = 1)
 491              		.loc 6 15 0
 492              		.cfi_startproc
 493 0000 55       		pushq	%rbp
 494              		.cfi_def_cfa_offset 16
 495              		.cfi_offset 6, -16
 496 0001 4889E5   		movq	%rsp, %rbp
 497              		.cfi_def_cfa_register 6
 498 0004 4883EC20 		subq	$32, %rsp
 499 0008 48897DF8 		movq	%rdi, -8(%rbp)
 500 000c 488975F0 		movq	%rsi, -16(%rbp)
 501 0010 89C8     		movl	%ecx, %eax
 502 0012 448945E4 		movl	%r8d, -28(%rbp)
 503 0016 8855EC   		movb	%dl, -20(%rbp)
 504 0019 8845E8   		movb	%al, -24(%rbp)
 505              	.LBB6:
  16:TestTestRunner.cpp ****         : Test(testName)
  17:TestTestRunner.cpp ****         , success(success_)
  18:TestTestRunner.cpp ****         , asserted(assert_)
  19:TestTestRunner.cpp ****         , count(count_)
 506              		.loc 6 19 0
 507 001c 488B45F8 		movq	-8(%rbp), %rax
 508 0020 488B75F0 		movq	-16(%rbp), %rsi
 509 0024 41B80000 		movl	$0, %r8d
 509      0000
 510 002a B9000000 		movl	$.LC2, %ecx
 510      00
 511 002f BA000000 		movl	$.LC0, %edx
 511      00
 512 0034 4889C7   		movq	%rax, %rdi
 513 0037 E8000000 		call	_ZN8UnitTest4TestC2EPKcS2_S2_i
 513      00
 514 003c BA000000 		movl	$_ZTVN12_GLOBAL__N_18MockTestE+16, %edx
 514      00
 515 0041 488B45F8 		movq	-8(%rbp), %rax
 516 0045 488910   		movq	%rdx, (%rax)
 517 0048 488B45F8 		movq	-8(%rbp), %rax
 518 004c 0FB655EC 		movzbl	-20(%rbp), %edx
 519 0050 885031   		movb	%dl, 49(%rax)
 520 0053 488B45F8 		movq	-8(%rbp), %rax
 521 0057 0FB655E8 		movzbl	-24(%rbp), %edx
 522 005b 885032   		movb	%dl, 50(%rax)
 523 005e 488B45F8 		movq	-8(%rbp), %rax
 524 0062 8B55E4   		movl	-28(%rbp), %edx
 525 0065 895034   		movl	%edx, 52(%rax)
 526              	.LBE6:
  20:TestTestRunner.cpp ****     {
  21:TestTestRunner.cpp ****     }
 527              		.loc 6 21 0
 528 0068 90       		nop
 529 0069 C9       		leave
 530              		.cfi_def_cfa 7, 8
 531 006a C3       		ret
 532              		.cfi_endproc
 533              	.LFE1080:
 535              		.set	_ZN12_GLOBAL__N_18MockTestC1EPKcbbi,_ZN12_GLOBAL__N_18MockTestC2EPKcbbi
 536              		.section	.rodata
 537              	.LC3:
 538 000e 66696C65 		.string	"file"
 538      00
 539              	.LC4:
 540 0013 64657363 		.string	"desc"
 540      00
 541              	.LC5:
 542 0018 6D657373 		.string	"message"
 542      61676500 
 543              		.text
 544 006b 90       		.align 2
 546              	_ZNK12_GLOBAL__N_18MockTest7RunImplEv:
 547              	.LFB1082:
  22:TestTestRunner.cpp **** 
  23:TestTestRunner.cpp ****     virtual void RunImpl() const
 548              		.loc 6 23 0
 549              		.cfi_startproc
 550 006c 55       		pushq	%rbp
 551              		.cfi_def_cfa_offset 16
 552              		.cfi_offset 6, -16
 553 006d 4889E5   		movq	%rsp, %rbp
 554              		.cfi_def_cfa_register 6
 555 0070 4883EC20 		subq	$32, %rsp
 556 0074 48897DE8 		movq	%rdi, -24(%rbp)
  24:TestTestRunner.cpp ****     {
  25:TestTestRunner.cpp **** 		TestResults& testResults_ = *CurrentTest::Results();
 557              		.loc 6 25 0
 558 0078 E8000000 		call	_ZN8UnitTest11CurrentTest7ResultsEv
 558      00
 559 007d 488B00   		movq	(%rax), %rax
 560 0080 488945F8 		movq	%rax, -8(%rbp)
 561              	.LBB7:
  26:TestTestRunner.cpp ****         for (int i=0; i < count; ++i)
 562              		.loc 6 26 0
 563 0084 C745F400 		movl	$0, -12(%rbp)
 563      000000
 564              	.L23:
 565              		.loc 6 26 0 is_stmt 0 discriminator 1
 566 008b 488B45E8 		movq	-24(%rbp), %rax
 567 008f 8B4034   		movl	52(%rax), %eax
 568 0092 3B45F4   		cmpl	-12(%rbp), %eax
 569 0095 7E53     		jle	.L24
  27:TestTestRunner.cpp ****         {
  28:TestTestRunner.cpp ****             if (asserted)
 570              		.loc 6 28 0 is_stmt 1
 571 0097 488B45E8 		movq	-24(%rbp), %rax
 572 009b 0FB64032 		movzbl	50(%rax), %eax
 573 009f 84C0     		testb	%al, %al
 574 00a1 7416     		je	.L21
  29:TestTestRunner.cpp ****                 ReportAssert("desc", "file", 0);
 575              		.loc 6 29 0
 576 00a3 BA000000 		movl	$0, %edx
 576      00
 577 00a8 BE000000 		movl	$.LC3, %esi
 577      00
 578 00ad BF000000 		movl	$.LC4, %edi
 578      00
 579 00b2 E8000000 		call	_ZN8UnitTest12ReportAssertEPKcS1_i
 579      00
 580 00b7 EB2B     		jmp	.L22
 581              	.L21:
  30:TestTestRunner.cpp ****             else if (!success)
 582              		.loc 6 30 0
 583 00b9 488B45E8 		movq	-24(%rbp), %rax
 584 00bd 0FB64031 		movzbl	49(%rax), %eax
 585 00c1 83F001   		xorl	$1, %eax
 586 00c4 84C0     		testb	%al, %al
 587 00c6 741C     		je	.L22
  31:TestTestRunner.cpp ****                 testResults_.OnTestFailure(m_details, "message");
 588              		.loc 6 31 0
 589 00c8 488B45E8 		movq	-24(%rbp), %rax
 590 00cc 488D4808 		leaq	8(%rax), %rcx
 591 00d0 488B45F8 		movq	-8(%rbp), %rax
 592 00d4 BA000000 		movl	$.LC5, %edx
 592      00
 593 00d9 4889CE   		movq	%rcx, %rsi
 594 00dc 4889C7   		movq	%rax, %rdi
 595 00df E8000000 		call	_ZN8UnitTest11TestResults13OnTestFailureERKNS_11TestDetailsEPKc
 595      00
 596              	.L22:
  26:TestTestRunner.cpp ****         {
 597              		.loc 6 26 0 discriminator 2
 598 00e4 8345F401 		addl	$1, -12(%rbp)
 599 00e8 EBA1     		jmp	.L23
 600              	.L24:
 601              	.LBE7:
  32:TestTestRunner.cpp ****         }
  33:TestTestRunner.cpp ****     }
 602              		.loc 6 33 0
 603 00ea 90       		nop
 604 00eb C9       		leave
 605              		.cfi_def_cfa 7, 8
 606 00ec C3       		ret
 607              		.cfi_endproc
 608              	.LFE1082:
 610 00ed 90       		.align 2
 612              	_ZN12_GLOBAL__N_111FixtureBaseC2Ev:
 613              	.LFB1084:
  34:TestTestRunner.cpp **** 
  35:TestTestRunner.cpp ****     bool const success;
  36:TestTestRunner.cpp ****     bool const asserted;
  37:TestTestRunner.cpp ****     int const count;
  38:TestTestRunner.cpp **** };
  39:TestTestRunner.cpp **** 
  40:TestTestRunner.cpp **** struct FixtureBase {
  41:TestTestRunner.cpp **** 	explicit FixtureBase() : runner(reporter) { }
 614              		.loc 6 41 0
 615              		.cfi_startproc
 616 00ee 55       		pushq	%rbp
 617              		.cfi_def_cfa_offset 16
 618              		.cfi_offset 6, -16
 619 00ef 4889E5   		movq	%rsp, %rbp
 620              		.cfi_def_cfa_register 6
 621 00f2 4883EC10 		subq	$16, %rsp
 622 00f6 48897DF8 		movq	%rdi, -8(%rbp)
 623              	.LBB8:
 624              		.loc 6 41 0
 625 00fa 488B45F8 		movq	-8(%rbp), %rax
 626 00fe 488D5018 		leaq	24(%rax), %rdx
 627 0102 488B45F8 		movq	-8(%rbp), %rax
 628 0106 4889D6   		movq	%rdx, %rsi
 629 0109 4889C7   		movq	%rax, %rdi
 630 010c E8000000 		call	_ZN8UnitTest10TestRunnerC1ERNS_12TestReporterE
 630      00
 631 0111 488B45F8 		movq	-8(%rbp), %rax
 632 0115 4883C018 		addq	$24, %rax
 633 0119 4889C7   		movq	%rax, %rdi
 634 011c E8000000 		call	_ZN17RecordingReporterC1Ev
 634      00
 635              	.LBE8:
 636 0121 90       		nop
 637 0122 C9       		leave
 638              		.cfi_def_cfa 7, 8
 639 0123 C3       		ret
 640              		.cfi_endproc
 641              	.LFE1084:
 643              		.align 2
 645              	_ZN12_GLOBAL__N_111FixtureBaseD2Ev:
 646              	.LFB1090:
  40:TestTestRunner.cpp **** 	explicit FixtureBase() : runner(reporter) { }
 647              		.loc 6 40 0
 648              		.cfi_startproc
 649              		.cfi_personality 0x3,__gxx_personality_v0
 650              		.cfi_lsda 0x3,.LLSDA1090
 651 0124 55       		pushq	%rbp
 652              		.cfi_def_cfa_offset 16
 653              		.cfi_offset 6, -16
 654 0125 4889E5   		movq	%rsp, %rbp
 655              		.cfi_def_cfa_register 6
 656 0128 53       		pushq	%rbx
 657 0129 4883EC18 		subq	$24, %rsp
 658              		.cfi_offset 3, -24
 659 012d 48897DE8 		movq	%rdi, -24(%rbp)
 660              	.LBB9:
  40:TestTestRunner.cpp **** 	explicit FixtureBase() : runner(reporter) { }
 661              		.loc 6 40 0
 662 0131 488B45E8 		movq	-24(%rbp), %rax
 663 0135 4883C018 		addq	$24, %rax
 664 0139 4889C7   		movq	%rax, %rdi
 665              	.LEHB4:
 666 013c E8000000 		call	_ZN17RecordingReporterD1Ev
 666      00
 667              	.LEHE4:
  40:TestTestRunner.cpp **** 	explicit FixtureBase() : runner(reporter) { }
 668              		.loc 6 40 0 is_stmt 0 discriminator 2
 669 0141 488B45E8 		movq	-24(%rbp), %rax
 670 0145 4889C7   		movq	%rax, %rdi
 671              	.LEHB5:
 672 0148 E8000000 		call	_ZN8UnitTest10TestRunnerD1Ev
 672      00
 673              	.LEHE5:
 674              	.LBE9:
 675 014d EB1A     		jmp	.L29
 676              	.L28:
 677 014f 4889C3   		movq	%rax, %rbx
 678              	.LBB10:
  40:TestTestRunner.cpp **** 	explicit FixtureBase() : runner(reporter) { }
 679              		.loc 6 40 0
 680 0152 488B45E8 		movq	-24(%rbp), %rax
 681 0156 4889C7   		movq	%rax, %rdi
 682 0159 E8000000 		call	_ZN8UnitTest10TestRunnerD1Ev
 682      00
 683 015e 4889D8   		movq	%rbx, %rax
 684 0161 4889C7   		movq	%rax, %rdi
 685              	.LEHB6:
 686 0164 E8000000 		call	_Unwind_Resume
 686      00
 687              	.LEHE6:
 688              	.L29:
 689              	.LBE10:
 690 0169 4883C418 		addq	$24, %rsp
 691 016d 5B       		popq	%rbx
 692 016e 5D       		popq	%rbp
 693              		.cfi_def_cfa 7, 8
 694 016f C3       		ret
 695              		.cfi_endproc
 696              	.LFE1090:
 697              		.section	.gcc_except_table,"a",@progbits
 698              	.LLSDA1090:
 699 0000 FF       		.byte	0xff
 700 0001 FF       		.byte	0xff
 701 0002 01       		.byte	0x1
 702 0003 0C       		.uleb128 .LLSDACSE1090-.LLSDACSB1090
 703              	.LLSDACSB1090:
 704 0004 18       		.uleb128 .LEHB4-.LFB1090
 705 0005 05       		.uleb128 .LEHE4-.LEHB4
 706 0006 2B       		.uleb128 .L28-.LFB1090
 707 0007 00       		.uleb128 0
 708 0008 24       		.uleb128 .LEHB5-.LFB1090
 709 0009 05       		.uleb128 .LEHE5-.LEHB5
 710 000a 00       		.uleb128 0
 711 000b 00       		.uleb128 0
 712 000c 40       		.uleb128 .LEHB6-.LFB1090
 713 000d 05       		.uleb128 .LEHE6-.LEHB6
 714 000e 00       		.uleb128 0
 715 000f 00       		.uleb128 0
 716              	.LLSDACSE1090:
 717              		.text
 719              		.align 2
 721              	_ZN12_GLOBAL__N_117TestRunnerFixtureC2Ev:
 722              	.LFB1092:
  42:TestTestRunner.cpp **** 	template <class Predicate>
  43:TestTestRunner.cpp **** 	int RunTestsIf(TestList const& list, char const* suiteName, 
  44:TestTestRunner.cpp **** 				   const Predicate& predicate, int maxTestTimeInMs)
  45:TestTestRunner.cpp **** 	{
  46:TestTestRunner.cpp **** 		TestResults* oldResults = CurrentTest::Results();
  47:TestTestRunner.cpp **** 		const TestDetails* oldDetails = CurrentTest::Details();
  48:TestTestRunner.cpp **** 		int result = runner.RunTestsIf(list, suiteName, predicate, maxTestTimeInMs);
  49:TestTestRunner.cpp **** 		CurrentTest::Results() = oldResults;
  50:TestTestRunner.cpp **** 		CurrentTest::Details() = oldDetails;
  51:TestTestRunner.cpp **** 		return result;
  52:TestTestRunner.cpp **** 	}
  53:TestTestRunner.cpp **** 	TestRunner runner;
  54:TestTestRunner.cpp ****     RecordingReporter reporter;
  55:TestTestRunner.cpp **** };
  56:TestTestRunner.cpp **** 
  57:TestTestRunner.cpp **** struct TestRunnerFixture : public FixtureBase
 723              		.loc 6 57 0 is_stmt 1
 724              		.cfi_startproc
 725              		.cfi_personality 0x3,__gxx_personality_v0
 726              		.cfi_lsda 0x3,.LLSDA1092
 727 0170 55       		pushq	%rbp
 728              		.cfi_def_cfa_offset 16
 729              		.cfi_offset 6, -16
 730 0171 4889E5   		movq	%rsp, %rbp
 731              		.cfi_def_cfa_register 6
 732 0174 53       		pushq	%rbx
 733 0175 4883EC18 		subq	$24, %rsp
 734              		.cfi_offset 3, -24
 735 0179 48897DE8 		movq	%rdi, -24(%rbp)
 736              	.LBB11:
 737              		.loc 6 57 0
 738 017d 488B45E8 		movq	-24(%rbp), %rax
 739 0181 4889C7   		movq	%rax, %rdi
 740              	.LEHB7:
 741 0184 E865FFFF 		call	_ZN12_GLOBAL__N_111FixtureBaseC2Ev
 741      FF
 742              	.LEHE7:
 743 0189 488B45E8 		movq	-24(%rbp), %rax
 744 018d 48054808 		addq	$2120, %rax
 744      0000
 745 0193 4889C7   		movq	%rax, %rdi
 746              	.LEHB8:
 747 0196 E8000000 		call	_ZN8UnitTest8TestListC1Ev
 747      00
 748              	.LEHE8:
 749              	.LBE11:
 750 019b EB1A     		jmp	.L33
 751              	.L32:
 752 019d 4889C3   		movq	%rax, %rbx
 753              	.LBB12:
 754 01a0 488B45E8 		movq	-24(%rbp), %rax
 755 01a4 4889C7   		movq	%rax, %rdi
 756 01a7 E878FFFF 		call	_ZN12_GLOBAL__N_111FixtureBaseD2Ev
 756      FF
 757 01ac 4889D8   		movq	%rbx, %rax
 758 01af 4889C7   		movq	%rax, %rdi
 759              	.LEHB9:
 760 01b2 E8000000 		call	_Unwind_Resume
 760      00
 761              	.LEHE9:
 762              	.L33:
 763              	.LBE12:
 764 01b7 4883C418 		addq	$24, %rsp
 765 01bb 5B       		popq	%rbx
 766 01bc 5D       		popq	%rbp
 767              		.cfi_def_cfa 7, 8
 768 01bd C3       		ret
 769              		.cfi_endproc
 770              	.LFE1092:
 771              		.section	.gcc_except_table
 772              	.LLSDA1092:
 773 0010 FF       		.byte	0xff
 774 0011 FF       		.byte	0xff
 775 0012 01       		.byte	0x1
 776 0013 0C       		.uleb128 .LLSDACSE1092-.LLSDACSB1092
 777              	.LLSDACSB1092:
 778 0014 14       		.uleb128 .LEHB7-.LFB1092
 779 0015 05       		.uleb128 .LEHE7-.LEHB7
 780 0016 00       		.uleb128 0
 781 0017 00       		.uleb128 0
 782 0018 26       		.uleb128 .LEHB8-.LFB1092
 783 0019 05       		.uleb128 .LEHE8-.LEHB8
 784 001a 2D       		.uleb128 .L32-.LFB1092
 785 001b 00       		.uleb128 0
 786 001c 42       		.uleb128 .LEHB9-.LFB1092
 787 001d 05       		.uleb128 .LEHE9-.LEHB9
 788 001e 00       		.uleb128 0
 789 001f 00       		.uleb128 0
 790              	.LLSDACSE1092:
 791              		.text
 793              		.align 2
 795              	_ZN12_GLOBAL__N_117TestRunnerFixtureD2Ev:
 796              	.LFB1095:
 797              		.loc 6 57 0
 798              		.cfi_startproc
 799 01be 55       		pushq	%rbp
 800              		.cfi_def_cfa_offset 16
 801              		.cfi_offset 6, -16
 802 01bf 4889E5   		movq	%rsp, %rbp
 803              		.cfi_def_cfa_register 6
 804 01c2 4883EC10 		subq	$16, %rsp
 805 01c6 48897DF8 		movq	%rdi, -8(%rbp)
 806              	.LBB13:
 807              		.loc 6 57 0
 808 01ca 488B45F8 		movq	-8(%rbp), %rax
 809 01ce 4889C7   		movq	%rax, %rdi
 810 01d1 E84EFFFF 		call	_ZN12_GLOBAL__N_111FixtureBaseD2Ev
 810      FF
 811              	.LBE13:
 812 01d6 90       		nop
 813 01d7 C9       		leave
 814              		.cfi_def_cfa 7, 8
 815 01d8 C3       		ret
 816              		.cfi_endproc
 817              	.LFE1095:
 819 01d9 90       		.align 2
 821              	_ZN12_GLOBAL__N_151TestRunnerFixtureTestStartIsReportedCorrectlyHelperC2ERKN8UnitTest11TestDetailsE
 822              	.LFB1097:
  58:TestTestRunner.cpp **** {
  59:TestTestRunner.cpp ****     TestList list;
  60:TestTestRunner.cpp **** };
  61:TestTestRunner.cpp **** 
  62:TestTestRunner.cpp **** TEST_FIXTURE(TestRunnerFixture, TestStartIsReportedCorrectly)
 823              		.loc 6 62 0
 824              		.cfi_startproc
 825 01da 55       		pushq	%rbp
 826              		.cfi_def_cfa_offset 16
 827              		.cfi_offset 6, -16
 828 01db 4889E5   		movq	%rsp, %rbp
 829              		.cfi_def_cfa_register 6
 830 01de 4883EC10 		subq	$16, %rsp
 831 01e2 48897DF8 		movq	%rdi, -8(%rbp)
 832 01e6 488975F0 		movq	%rsi, -16(%rbp)
 833              	.LBB14:
 834              		.loc 6 62 0
 835 01ea 488B45F8 		movq	-8(%rbp), %rax
 836 01ee 4889C7   		movq	%rax, %rdi
 837 01f1 E87AFFFF 		call	_ZN12_GLOBAL__N_117TestRunnerFixtureC2Ev
 837      FF
 838 01f6 488B45F8 		movq	-8(%rbp), %rax
 839 01fa 488B55F0 		movq	-16(%rbp), %rdx
 840 01fe 48899058 		movq	%rdx, 2136(%rax)
 840      080000
 841              	.LBE14:
 842 0205 90       		nop
 843 0206 C9       		leave
 844              		.cfi_def_cfa 7, 8
 845 0207 C3       		ret
 846              		.cfi_endproc
 847              	.LFE1097:
 849              		.set	_ZN12_GLOBAL__N_151TestRunnerFixtureTestStartIsReportedCorrectlyHelperC1ERKN8UnitTest11TestDe
 850              		.section	.rodata
 851              	.LC6:
 852 0020 54657374 		.string	"TestTestRunner.cpp"
 852      54657374 
 852      52756E6E 
 852      65722E63 
 852      707000
 853              	.LC7:
 854 0033 54657374 		.string	"TestStartIsReportedCorrectly"
 854      53746172 
 854      74497352 
 854      65706F72 
 854      74656443 
 855              		.text
 856              		.align 2
 858              	_ZN12_GLOBAL__N_149TestTestRunnerFixtureTestStartIsReportedCorrectlyC2Ev:
 859              	.LFB1100:
 860              		.loc 6 62 0
 861              		.cfi_startproc
 862 0208 55       		pushq	%rbp
 863              		.cfi_def_cfa_offset 16
 864              		.cfi_offset 6, -16
 865 0209 4889E5   		movq	%rsp, %rbp
 866              		.cfi_def_cfa_register 6
 867 020c 4883EC10 		subq	$16, %rsp
 868 0210 48897DF8 		movq	%rdi, -8(%rbp)
 869              	.LBB15:
 870              		.loc 6 62 0
 871 0214 E8000000 		call	_ZN13UnitTestSuite12GetSuiteNameEv
 871      00
 872 0219 4889C2   		movq	%rax, %rdx
 873 021c 488B45F8 		movq	-8(%rbp), %rax
 874 0220 41B83E00 		movl	$62, %r8d
 874      0000
 875 0226 B9000000 		movl	$.LC6, %ecx
 875      00
 876 022b BE000000 		movl	$.LC7, %esi
 876      00
 877 0230 4889C7   		movq	%rax, %rdi
 878 0233 E8000000 		call	_ZN8UnitTest4TestC2EPKcS2_S2_i
 878      00
 879 0238 BA000000 		movl	$_ZTVN12_GLOBAL__N_149TestTestRunnerFixtureTestStartIsReportedCorrectlyE+16, %edx
 879      00
 880 023d 488B45F8 		movq	-8(%rbp), %rax
 881 0241 488910   		movq	%rdx, (%rax)
 882              	.LBE15:
 883 0244 90       		nop
 884 0245 C9       		leave
 885              		.cfi_def_cfa 7, 8
 886 0246 C3       		ret
 887              		.cfi_endproc
 888              	.LFE1100:
 890              		.set	_ZN12_GLOBAL__N_149TestTestRunnerFixtureTestStartIsReportedCorrectlyC1Ev,_ZN12_GLOBAL__N_149T
 891              		.local	_ZN12_GLOBAL__N_157testTestRunnerFixtureTestStartIsReportedCorrectlyInstanceE
 892              		.comm	_ZN12_GLOBAL__N_157testTestRunnerFixtureTestStartIsReportedCorrectlyInstanceE,56,32
 893              		.local	_ZN12_GLOBAL__N_150adderTestRunnerFixtureTestStartIsReportedCorrectlyE
 894              		.comm	_ZN12_GLOBAL__N_150adderTestRunnerFixtureTestStartIsReportedCorrectlyE,1,1
 895 0247 90       		.align 2
 897              	_ZN12_GLOBAL__N_151TestRunnerFixtureTestStartIsReportedCorrectlyHelperD2Ev:
 898              	.LFB1104:
 899              		.loc 6 62 0
 900              		.cfi_startproc
 901 0248 55       		pushq	%rbp
 902              		.cfi_def_cfa_offset 16
 903              		.cfi_offset 6, -16
 904 0249 4889E5   		movq	%rsp, %rbp
 905              		.cfi_def_cfa_register 6
 906 024c 4883EC10 		subq	$16, %rsp
 907 0250 48897DF8 		movq	%rdi, -8(%rbp)
 908              	.LBB16:
 909              		.loc 6 62 0
 910 0254 488B45F8 		movq	-8(%rbp), %rax
 911 0258 4889C7   		movq	%rax, %rdi
 912 025b E85EFFFF 		call	_ZN12_GLOBAL__N_117TestRunnerFixtureD2Ev
 912      FF
 913              	.LBE16:
 914 0260 90       		nop
 915 0261 C9       		leave
 916              		.cfi_def_cfa 7, 8
 917 0262 C3       		ret
 918              		.cfi_endproc
 919              	.LFE1104:
 921              		.set	_ZN12_GLOBAL__N_151TestRunnerFixtureTestStartIsReportedCorrectlyHelperD1Ev,_ZN12_GLOBAL__N_15
 922              		.section	.rodata
 923              	.LC8:
 924 0050 556E6861 		.string	"Unhandled exception: "
 924      6E646C65 
 924      64206578 
 924      63657074 
 924      696F6E3A 
 925 0066 0000     		.align 8
 926              	.LC9:
 927 0068 556E6861 		.string	"Unhandled exception while destroying fixture TestRunnerFixture"
 927      6E646C65 
 927      64206578 
 927      63657074 
 927      696F6E20 
 928 00a7 00       		.align 8
 929              	.LC10:
 930 00a8 556E6861 		.string	"Unhandled exception while constructing fixture TestRunnerFixture"
 930      6E646C65 
 930      64206578 
 930      63657074 
 930      696F6E20 
 931              		.text
 932 0263 90       		.align 2
 934              	_ZNK12_GLOBAL__N_149TestTestRunnerFixtureTestStartIsReportedCorrectly7RunImplEv:
 935              	.LFB1102:
 936              		.loc 6 62 0
 937              		.cfi_startproc
 938              		.cfi_personality 0x3,__gxx_personality_v0
 939              		.cfi_lsda 0x3,.LLSDA1102
 940 0264 55       		pushq	%rbp
 941              		.cfi_def_cfa_offset 16
 942              		.cfi_offset 6, -16
 943 0265 4889E5   		movq	%rsp, %rbp
 944              		.cfi_def_cfa_register 6
 945 0268 4154     		pushq	%r12
 946 026a 53       		pushq	%rbx
 947 026b 4881ECC0 		subq	$2240, %rsp
 947      080000
 948              		.cfi_offset 12, -24
 949              		.cfi_offset 3, -32
 950 0272 4889BD38 		movq	%rdi, -2248(%rbp)
 950      F7FFFF
 951              		.loc 6 62 0
 952 0279 64488B04 		movq	%fs:40, %rax
 952      25280000 
 952      00
 953 0282 488945E8 		movq	%rax, -24(%rbp)
 954 0286 31C0     		xorl	%eax, %eax
 955 0288 C6854FF7 		movb	$0, -2225(%rbp)
 955      FFFF00
 956              	.LBB17:
 957 028f 488B8538 		movq	-2248(%rbp), %rax
 957      F7FFFF
 958 0296 488D5008 		leaq	8(%rax), %rdx
 959 029a 488D8580 		leaq	-2176(%rbp), %rax
 959      F7FFFF
 960 02a1 4889D6   		movq	%rdx, %rsi
 961 02a4 4889C7   		movq	%rax, %rdi
 962              	.LEHB10:
 963 02a7 E82EFFFF 		call	_ZN12_GLOBAL__N_151TestRunnerFixtureTestStartIsReportedCorrectlyHelperC1ERKN8UnitTest11TestDe
 963      FF
 964              	.LEHE10:
 965              		.loc 6 62 0 is_stmt 0 discriminator 1
 966 02ac C6854FF7 		movb	$1, -2225(%rbp)
 966      FFFF01
 967 02b3 488B8538 		movq	-2248(%rbp), %rax
 967      F7FFFF
 968 02ba 488D5008 		leaq	8(%rax), %rdx
 969 02be 488D8580 		leaq	-2176(%rbp), %rax
 969      F7FFFF
 970 02c5 4889D6   		movq	%rdx, %rsi
 971 02c8 4889C7   		movq	%rax, %rdi
 972              	.LEHB11:
 973 02cb E8EF6600 		call	_ZN8UnitTest11ExecuteTestIN12_GLOBAL__N_151TestRunnerFixtureTestStartIsReportedCorrectlyHelpe
 973      00
 974              	.LEHE11:
 975              		.loc 6 62 0 discriminator 3
 976 02d0 488D8580 		leaq	-2176(%rbp), %rax
 976      F7FFFF
 977 02d7 4889C7   		movq	%rax, %rdi
 978              	.LEHB12:
 979 02da E869FFFF 		call	_ZN12_GLOBAL__N_151TestRunnerFixtureTestStartIsReportedCorrectlyHelperD1Ev
 979      FF
 980              	.LEHE12:
 981              	.LBE17:
 982              		.loc 6 62 0
 983 02df E9660200 		jmp	.L38
 983      00
 984              	.L53:
 985 02e4 4989C4   		movq	%rax, %r12
 986 02e7 4889D3   		movq	%rdx, %rbx
 987              	.LBB18:
 988 02ea 488D8580 		leaq	-2176(%rbp), %rax
 988      F7FFFF
 989 02f1 4889C7   		movq	%rax, %rdi
 990 02f4 E84FFFFF 		call	_ZN12_GLOBAL__N_151TestRunnerFixtureTestStartIsReportedCorrectlyHelperD1Ev
 990      FF
 991 02f9 4C89E0   		movq	%r12, %rax
 992 02fc 4889DA   		movq	%rbx, %rdx
 993 02ff EB00     		jmp	.L40
 994              	.L52:
 995              	.L40:
 996 0301 4883FA01 		cmpq	$1, %rdx
 997 0305 740F     		je	.L42
 998 0307 4883FA02 		cmpq	$2, %rdx
 999 030b 0F84A700 		je	.L43
 999      0000
 1000 0311 E94B0100 		jmp	.L58
 1000      00
 1001              	.L42:
 1002              	.LBE18:
 1003              	.LBB19:
 1004 0316 4889C7   		movq	%rax, %rdi
 1005 0319 E8000000 		call	__cxa_begin_catch
 1005      00
 1006 031e 48898550 		movq	%rax, -2224(%rbp)
 1006      F7FFFF
 1007 0325 488B8550 		movq	-2224(%rbp), %rax
 1007      F7FFFF
 1008 032c 488B00   		movq	(%rax), %rax
 1009 032f 4883C010 		addq	$16, %rax
 1010 0333 488B00   		movq	(%rax), %rax
 1011 0336 488B9550 		movq	-2224(%rbp), %rdx
 1011      F7FFFF
 1012 033d 4889D7   		movq	%rdx, %rdi
 1013 0340 FFD0     		call	*%rax
 1014 0342 4889C3   		movq	%rax, %rbx
 1015 0345 488B8550 		movq	-2224(%rbp), %rax
 1015      F7FFFF
 1016 034c 4889C7   		movq	%rax, %rdi
 1017              	.LEHB13:
 1018 034f E8000000 		call	_ZNK8UnitTest15AssertException10LineNumberEv
 1018      00
 1019 0354 4189C4   		movl	%eax, %r12d
 1020 0357 488B8550 		movq	-2224(%rbp), %rax
 1020      F7FFFF
 1021 035e 4889C7   		movq	%rax, %rdi
 1022 0361 E8000000 		call	_ZNK8UnitTest15AssertException8FilenameEv
 1022      00
 1023              		.loc 6 62 0 discriminator 5
 1024 0366 4889C1   		movq	%rax, %rcx
 1025 0369 488B8538 		movq	-2248(%rbp), %rax
 1025      F7FFFF
 1026 0370 488B5008 		movq	8(%rax), %rdx
 1027 0374 488B8538 		movq	-2248(%rbp), %rax
 1027      F7FFFF
 1028 037b 488B7010 		movq	16(%rax), %rsi
 1029 037f 488D8560 		leaq	-2208(%rbp), %rax
 1029      F7FFFF
 1030 0386 4589E0   		movl	%r12d, %r8d
 1031 0389 4889C7   		movq	%rax, %rdi
 1032 038c E8000000 		call	_ZN8UnitTest11TestDetailsC1EPKcS2_S2_i
 1032      00
 1033              		.loc 6 62 0 discriminator 9
 1034 0391 E8000000 		call	_ZN8UnitTest11CurrentTest7ResultsEv
 1034      00
 1035 0396 488B00   		movq	(%rax), %rax
 1036 0399 488D8D60 		leaq	-2208(%rbp), %rcx
 1036      F7FFFF
 1037 03a0 4889DA   		movq	%rbx, %rdx
 1038 03a3 4889CE   		movq	%rcx, %rsi
 1039 03a6 4889C7   		movq	%rax, %rdi
 1040 03a9 E8000000 		call	_ZN8UnitTest11TestResults13OnTestFailureERKNS_11TestDetailsEPKc
 1040      00
 1041              	.LEHE13:
 1042              		.loc 6 62 0 discriminator 13
 1043 03ae E8000000 		call	__cxa_end_catch
 1043      00
 1044              	.LBE19:
 1045 03b3 E9920100 		jmp	.L38
 1045      00
 1046              	.L43:
 1047              	.LBB20:
 1048              		.loc 6 62 0
 1049 03b8 4889C7   		movq	%rax, %rdi
 1050 03bb E8000000 		call	__cxa_begin_catch
 1050      00
 1051 03c0 48898558 		movq	%rax, -2216(%rbp)
 1051      F7FFFF
 1052              	.LBB21:
 1053 03c7 488D8580 		leaq	-2176(%rbp), %rax
 1053      F7FFFF
 1054 03ce 4889C7   		movq	%rax, %rdi
 1055              	.LEHB14:
 1056 03d1 E8000000 		call	_ZN8UnitTest15MemoryOutStreamC1Ev
 1056      00
 1057              	.LEHE14:
 1058              		.loc 6 62 0 discriminator 15
 1059 03d6 488B8558 		movq	-2216(%rbp), %rax
 1059      F7FFFF
 1060 03dd 488B00   		movq	(%rax), %rax
 1061 03e0 4883C010 		addq	$16, %rax
 1062 03e4 488B00   		movq	(%rax), %rax
 1063 03e7 488B9558 		movq	-2216(%rbp), %rdx
 1063      F7FFFF
 1064 03ee 4889D7   		movq	%rdx, %rdi
 1065 03f1 FFD0     		call	*%rax
 1066 03f3 4889C3   		movq	%rax, %rbx
 1067 03f6 488D8580 		leaq	-2176(%rbp), %rax
 1067      F7FFFF
 1068 03fd BE000000 		movl	$.LC8, %esi
 1068      00
 1069 0402 4889C7   		movq	%rax, %rdi
 1070              	.LEHB15:
 1071 0405 E8000000 		call	_ZStlsISt11char_traitsIcEERSt13basic_ostreamIcT_ES5_PKc
 1071      00
 1072 040a 4889DE   		movq	%rbx, %rsi
 1073 040d 4889C7   		movq	%rax, %rdi
 1074 0410 E8000000 		call	_ZStlsISt11char_traitsIcEERSt13basic_ostreamIcT_ES5_PKc
 1074      00
 1075              		.loc 6 62 0 discriminator 19
 1076 0415 488D8580 		leaq	-2176(%rbp), %rax
 1076      F7FFFF
 1077 041c 4889C7   		movq	%rax, %rdi
 1078 041f E8000000 		call	_ZNK8UnitTest15MemoryOutStream7GetTextEv
 1078      00
 1079 0424 4989C4   		movq	%rax, %r12
 1080 0427 488B8538 		movq	-2248(%rbp), %rax
 1080      F7FFFF
 1081 042e 488D5808 		leaq	8(%rax), %rbx
 1082 0432 E8000000 		call	_ZN8UnitTest11CurrentTest7ResultsEv
 1082      00
 1083              		.loc 6 62 0 discriminator 21
 1084 0437 488B00   		movq	(%rax), %rax
 1085 043a 4C89E2   		movq	%r12, %rdx
 1086 043d 4889DE   		movq	%rbx, %rsi
 1087 0440 4889C7   		movq	%rax, %rdi
 1088 0443 E8000000 		call	_ZN8UnitTest11TestResults13OnTestFailureERKNS_11TestDetailsEPKc
 1088      00
 1089              	.LEHE15:
 1090              		.loc 6 62 0 discriminator 25
 1091 0448 488D8580 		leaq	-2176(%rbp), %rax
 1091      F7FFFF
 1092 044f 4889C7   		movq	%rax, %rdi
 1093              	.LEHB16:
 1094 0452 E8000000 		call	_ZN8UnitTest15MemoryOutStreamD1Ev
 1094      00
 1095              	.LEHE16:
 1096              	.LBE21:
 1097              		.loc 6 62 0 discriminator 26
 1098 0457 E8000000 		call	__cxa_end_catch
 1098      00
 1099              	.LBE20:
 1100 045c E9E90000 		jmp	.L38
 1100      00
 1101              	.L58:
 1102              		.loc 6 62 0
 1103 0461 4889C7   		movq	%rax, %rdi
 1104 0464 E8000000 		call	__cxa_begin_catch
 1104      00
 1105 0469 80BD4FF7 		cmpb	$0, -2225(%rbp)
 1105      FFFF00
 1106 0470 7443     		je	.L45
 1107              		.loc 6 62 0 discriminator 28
 1108 0472 488B8538 		movq	-2248(%rbp), %rax
 1108      F7FFFF
 1109 0479 488D4808 		leaq	8(%rax), %rcx
 1110 047d 488D8560 		leaq	-2208(%rbp), %rax
 1110      F7FFFF
 1111 0484 BA3E0000 		movl	$62, %edx
 1111      00
 1112 0489 4889CE   		movq	%rcx, %rsi
 1113 048c 4889C7   		movq	%rax, %rdi
 1114              	.LEHB17:
 1115 048f E8000000 		call	_ZN8UnitTest11TestDetailsC1ERKS0_i
 1115      00
 1116              		.loc 6 62 0 discriminator 31
 1117 0494 E8000000 		call	_ZN8UnitTest11CurrentTest7ResultsEv
 1117      00
 1118 0499 488B00   		movq	(%rax), %rax
 1119 049c 488D8D60 		leaq	-2208(%rbp), %rcx
 1119      F7FFFF
 1120 04a3 BA000000 		movl	$.LC9, %edx
 1120      00
 1121 04a8 4889CE   		movq	%rcx, %rsi
 1122 04ab 4889C7   		movq	%rax, %rdi
 1123 04ae E8000000 		call	_ZN8UnitTest11TestResults13OnTestFailureERKNS_11TestDetailsEPKc
 1123      00
 1124 04b3 EB41     		jmp	.L46
 1125              	.L45:
 1126              		.loc 6 62 0 discriminator 29
 1127 04b5 488B8538 		movq	-2248(%rbp), %rax
 1127      F7FFFF
 1128 04bc 488D4808 		leaq	8(%rax), %rcx
 1129 04c0 488D8560 		leaq	-2208(%rbp), %rax
 1129      F7FFFF
 1130 04c7 BA3E0000 		movl	$62, %edx
 1130      00
 1131 04cc 4889CE   		movq	%rcx, %rsi
 1132 04cf 4889C7   		movq	%rax, %rdi
 1133 04d2 E8000000 		call	_ZN8UnitTest11TestDetailsC1ERKS0_i
 1133      00
 1134              		.loc 6 62 0 discriminator 38
 1135 04d7 E8000000 		call	_ZN8UnitTest11CurrentTest7ResultsEv
 1135      00
 1136 04dc 488B00   		movq	(%rax), %rax
 1137 04df 488D8D60 		leaq	-2208(%rbp), %rcx
 1137      F7FFFF
 1138 04e6 BA000000 		movl	$.LC10, %edx
 1138      00
 1139 04eb 4889CE   		movq	%rcx, %rsi
 1140 04ee 4889C7   		movq	%rax, %rdi
 1141 04f1 E8000000 		call	_ZN8UnitTest11TestResults13OnTestFailureERKNS_11TestDetailsEPKc
 1141      00
 1142              	.LEHE17:
 1143              	.L46:
 1144              	.LEHB18:
 1145              		.loc 6 62 0 discriminator 43
 1146 04f6 E8000000 		call	__cxa_end_catch
 1146      00
 1147 04fb EB4D     		jmp	.L38
 1148              	.L54:
 1149 04fd 4889C3   		movq	%rax, %rbx
 1150              	.LBB23:
 1151              		.loc 6 62 0
 1152 0500 E8000000 		call	__cxa_end_catch
 1152      00
 1153 0505 4889D8   		movq	%rbx, %rax
 1154 0508 4889C7   		movq	%rax, %rdi
 1155 050b E8000000 		call	_Unwind_Resume
 1155      00
 1156              	.LEHE18:
 1157              	.L56:
 1158 0510 4889C3   		movq	%rax, %rbx
 1159              	.LBE23:
 1160              	.LBB24:
 1161              	.LBB22:
 1162 0513 488D8580 		leaq	-2176(%rbp), %rax
 1162      F7FFFF
 1163 051a 4889C7   		movq	%rax, %rdi
 1164 051d E8000000 		call	_ZN8UnitTest15MemoryOutStreamD1Ev
 1164      00
 1165 0522 EB03     		jmp	.L49
 1166              	.L55:
 1167 0524 4889C3   		movq	%rax, %rbx
 1168              	.L49:
 1169              	.LBE22:
 1170 0527 E8000000 		call	__cxa_end_catch
 1170      00
 1171 052c 4889D8   		movq	%rbx, %rax
 1172 052f 4889C7   		movq	%rax, %rdi
 1173              	.LEHB19:
 1174 0532 E8000000 		call	_Unwind_Resume
 1174      00
 1175              	.LEHE19:
 1176              	.L57:
 1177 0537 4889C3   		movq	%rax, %rbx
 1178              	.LBE24:
 1179 053a E8000000 		call	__cxa_end_catch
 1179      00
 1180 053f 4889D8   		movq	%rbx, %rax
 1181 0542 4889C7   		movq	%rax, %rdi
 1182              	.LEHB20:
 1183 0545 E8000000 		call	_Unwind_Resume
 1183      00
 1184              	.LEHE20:
 1185              	.L38:
 1186 054a 488B45E8 		movq	-24(%rbp), %rax
 1187 054e 64483304 		xorq	%fs:40, %rax
 1187      25280000 
 1187      00
 1188 0557 7405     		je	.L51
 1189 0559 E8000000 		call	__stack_chk_fail
 1189      00
 1190              	.L51:
 1191 055e 4881C4C0 		addq	$2240, %rsp
 1191      080000
 1192 0565 5B       		popq	%rbx
 1193 0566 415C     		popq	%r12
 1194 0568 5D       		popq	%rbp
 1195              		.cfi_def_cfa 7, 8
 1196 0569 C3       		ret
 1197              		.cfi_endproc
 1198              	.LFE1102:
 1199              		.section	.gcc_except_table
 1200              		.align 4
 1201              	.LLSDA1102:
 1202 0020 FF       		.byte	0xff
 1203 0021 03       		.byte	0x3
 1204 0022 55       		.uleb128 .LLSDATT1102-.LLSDATTD1102
 1205              	.LLSDATTD1102:
 1206 0023 01       		.byte	0x1
 1207 0024 3C       		.uleb128 .LLSDACSE1102-.LLSDACSB1102
 1208              	.LLSDACSB1102:
 1209 0025 43       		.uleb128 .LEHB10-.LFB1102
 1210 0026 05       		.uleb128 .LEHE10-.LEHB10
 1211 0027 9D01     		.uleb128 .L52-.LFB1102
 1212 0029 05       		.uleb128 0x5
 1213 002a 67       		.uleb128 .LEHB11-.LFB1102
 1214 002b 05       		.uleb128 .LEHE11-.LEHB11
 1215 002c 8001     		.uleb128 .L53-.LFB1102
 1216 002e 07       		.uleb128 0x7
 1217 002f 76       		.uleb128 .LEHB12-.LFB1102
 1218 0030 05       		.uleb128 .LEHE12-.LEHB12
 1219 0031 9D01     		.uleb128 .L52-.LFB1102
 1220 0033 05       		.uleb128 0x5
 1221 0034 EB01     		.uleb128 .LEHB13-.LFB1102
 1222 0036 5F       		.uleb128 .LEHE13-.LEHB13
 1223 0037 9905     		.uleb128 .L54-.LFB1102
 1224 0039 00       		.uleb128 0
 1225 003a ED02     		.uleb128 .LEHB14-.LFB1102
 1226 003c 05       		.uleb128 .LEHE14-.LEHB14
 1227 003d C005     		.uleb128 .L55-.LFB1102
 1228 003f 00       		.uleb128 0
 1229 0040 A103     		.uleb128 .LEHB15-.LFB1102
 1230 0042 43       		.uleb128 .LEHE15-.LEHB15
 1231 0043 AC05     		.uleb128 .L56-.LFB1102
 1232 0045 00       		.uleb128 0
 1233 0046 EE03     		.uleb128 .LEHB16-.LFB1102
 1234 0048 05       		.uleb128 .LEHE16-.LEHB16
 1235 0049 C005     		.uleb128 .L55-.LFB1102
 1236 004b 00       		.uleb128 0
 1237 004c AB04     		.uleb128 .LEHB17-.LFB1102
 1238 004e 67       		.uleb128 .LEHE17-.LEHB17
 1239 004f D305     		.uleb128 .L57-.LFB1102
 1240 0051 00       		.uleb128 0
 1241 0052 9205     		.uleb128 .LEHB18-.LFB1102
 1242 0054 1A       		.uleb128 .LEHE18-.LEHB18
 1243 0055 00       		.uleb128 0
 1244 0056 00       		.uleb128 0
 1245 0057 CE05     		.uleb128 .LEHB19-.LFB1102
 1246 0059 05       		.uleb128 .LEHE19-.LEHB19
 1247 005a 00       		.uleb128 0
 1248 005b 00       		.uleb128 0
 1249 005c E105     		.uleb128 .LEHB20-.LFB1102
 1250 005e 05       		.uleb128 .LEHE20-.LEHB20
 1251 005f 00       		.uleb128 0
 1252 0060 00       		.uleb128 0
 1253              	.LLSDACSE1102:
 1254 0061 03       		.byte	0x3
 1255 0062 00       		.byte	0
 1256 0063 02       		.byte	0x2
 1257 0064 7D       		.byte	0x7d
 1258 0065 01       		.byte	0x1
 1259 0066 7D       		.byte	0x7d
 1260 0067 00       		.byte	0
 1261 0068 7D       		.byte	0x7d
 1262 0069 000000   		.align 4
 1263 006c 00000000 		.long	0
 1264              	
 1265 0070 00000000 		.long	_ZTISt9exception
 1266 0074 00000000 		.long	_ZTIN8UnitTest15AssertExceptionE
 1267              	.LLSDATT1102:
 1268              		.text
 1270              		.section	.rodata
 1271              	.LC11:
 1272 00e9 676F6F64 		.string	"goodtest"
 1272      74657374 
 1272      00
 1273 00f2 00000000 		.align 8
 1273      0000
 1274              	.LC12:
 1275 00f8 556E6861 		.string	"Unhandled exception in CHECK_EQUAL(1, reporter.testRunCount)"
 1275      6E646C65 
 1275      64206578 
 1275      63657074 
 1275      696F6E20 
 1276 0135 000000   		.align 8
 1277              	.LC13:
 1278 0138 556E6861 		.string	"Unhandled exception in CHECK_EQUAL(\"goodtest\", reporter.lastStartedTest)"
 1278      6E646C65 
 1278      64206578 
 1278      63657074 
 1278      696F6E20 
 1279              		.text
 1280              		.align 2
 1282              	_ZN12_GLOBAL__N_151TestRunnerFixtureTestStartIsReportedCorrectlyHelper7RunImplEv:
 1283              	.LFB1106:
  63:TestTestRunner.cpp **** {
 1284              		.loc 6 63 0 is_stmt 1
 1285              		.cfi_startproc
 1286              		.cfi_personality 0x3,__gxx_personality_v0
 1287              		.cfi_lsda 0x3,.LLSDA1106
 1288 056a 55       		pushq	%rbp
 1289              		.cfi_def_cfa_offset 16
 1290              		.cfi_offset 6, -16
 1291 056b 4889E5   		movq	%rsp, %rbp
 1292              		.cfi_def_cfa_register 6
 1293 056e 53       		pushq	%rbx
 1294 056f 4881EC88 		subq	$136, %rsp
 1294      000000
 1295              		.cfi_offset 3, -24
 1296 0576 4889BD78 		movq	%rdi, -136(%rbp)
 1296      FFFFFF
 1297              		.loc 6 63 0
 1298 057d 64488B04 		movq	%fs:40, %rax
 1298      25280000 
 1298      00
 1299 0586 488945E8 		movq	%rax, -24(%rbp)
 1300 058a 31C0     		xorl	%eax, %eax
  64:TestTestRunner.cpp ****     MockTest test("goodtest", true, false);
 1301              		.loc 6 64 0
 1302 058c 488D45B0 		leaq	-80(%rbp), %rax
 1303 0590 41B80100 		movl	$1, %r8d
 1303      0000
 1304 0596 B9000000 		movl	$0, %ecx
 1304      00
 1305 059b BA010000 		movl	$1, %edx
 1305      00
 1306 05a0 BE000000 		movl	$.LC11, %esi
 1306      00
 1307 05a5 4889C7   		movq	%rax, %rdi
 1308              	.LEHB21:
 1309 05a8 E853FAFF 		call	_ZN12_GLOBAL__N_18MockTestC1EPKcbbi
 1309      FF
 1310              	.LEHE21:
  65:TestTestRunner.cpp ****     list.Add(&test);
 1311              		.loc 6 65 0
 1312 05ad 488B8578 		movq	-136(%rbp), %rax
 1312      FFFFFF
 1313 05b4 488D9048 		leaq	2120(%rax), %rdx
 1313      080000
 1314 05bb 488D45B0 		leaq	-80(%rbp), %rax
 1315 05bf 4889C6   		movq	%rax, %rsi
 1316 05c2 4889D7   		movq	%rdx, %rdi
 1317              	.LEHB22:
 1318 05c5 E8000000 		call	_ZN8UnitTest8TestList3AddEPNS_4TestE
 1318      00
  66:TestTestRunner.cpp **** 
  67:TestTestRunner.cpp **** 	RunTestsIf(list, NULL, True(), 0);
 1319              		.loc 6 67 0
 1320 05ca 488B8578 		movq	-136(%rbp), %rax
 1320      FFFFFF
 1321 05d1 488DB048 		leaq	2120(%rax), %rsi
 1321      080000
 1322 05d8 488B8578 		movq	-136(%rbp), %rax
 1322      FFFFFF
 1323 05df 488D5590 		leaq	-112(%rbp), %rdx
 1324 05e3 41B80000 		movl	$0, %r8d
 1324      0000
 1325 05e9 4889D1   		movq	%rdx, %rcx
 1326 05ec BA000000 		movl	$0, %edx
 1326      00
 1327 05f1 4889C7   		movq	%rax, %rdi
 1328 05f4 E8856600 		call	_ZN12_GLOBAL__N_111FixtureBase10RunTestsIfIN8UnitTest4TrueEEEiRKNS2_8TestListEPKcRKT_i
 1328      00
 1329              	.LEHE22:
 1330              	.LEHB23:
  68:TestTestRunner.cpp ****     CHECK_EQUAL(1, reporter.testRunCount);
 1331              		.loc 6 68 0 discriminator 2
 1332 05f9 E8000000 		call	_ZN8UnitTest11CurrentTest7DetailsEv
 1332      00
 1333 05fe 488B08   		movq	(%rax), %rcx
 1334 0601 488D4590 		leaq	-112(%rbp), %rax
 1335 0605 BA440000 		movl	$68, %edx
 1335      00
 1336 060a 4889CE   		movq	%rcx, %rsi
 1337 060d 4889C7   		movq	%rax, %rdi
 1338 0610 E8000000 		call	_ZN8UnitTest11TestDetailsC1ERKS0_i
 1338      00
 1339              	.LEHE23:
 1340 0615 488B8578 		movq	-136(%rbp), %rax
 1340      FFFFFF
 1341 061c 488D5820 		leaq	32(%rax), %rbx
 1342 0620 C7458C01 		movl	$1, -116(%rbp)
 1342      000000
 1343              	.LEHB24:
 1344 0627 E8000000 		call	_ZN8UnitTest11CurrentTest7ResultsEv
 1344      00
 1345 062c 488B00   		movq	(%rax), %rax
 1346 062f 488D5590 		leaq	-112(%rbp), %rdx
 1347 0633 488D758C 		leaq	-116(%rbp), %rsi
 1348 0637 4889D1   		movq	%rdx, %rcx
 1349 063a 4889DA   		movq	%rbx, %rdx
 1350 063d 4889C7   		movq	%rax, %rdi
 1351 0640 E8000000 		call	_ZN8UnitTest10CheckEqualIiiEEvRNS_11TestResultsERKT_RKT0_RKNS_11TestDetailsE
 1351      00
 1352              	.LEHE24:
 1353              	.L62:
 1354              	.LEHB25:
  69:TestTestRunner.cpp ****     CHECK_EQUAL("goodtest", reporter.lastStartedTest);
 1355              		.loc 6 69 0
 1356 0645 E8000000 		call	_ZN8UnitTest11CurrentTest7DetailsEv
 1356      00
 1357 064a 488B08   		movq	(%rax), %rcx
 1358 064d 488D4590 		leaq	-112(%rbp), %rax
 1359 0651 BA450000 		movl	$69, %edx
 1359      00
 1360 0656 4889CE   		movq	%rcx, %rsi
 1361 0659 4889C7   		movq	%rax, %rdi
 1362 065c E8000000 		call	_ZN8UnitTest11TestDetailsC1ERKS0_i
 1362      00
 1363              		.loc 6 69 0 is_stmt 0 discriminator 2
 1364 0661 488B8578 		movq	-136(%rbp), %rax
 1364      FFFFFF
 1365 0668 488D9824 		leaq	292(%rax), %rbx
 1365      010000
 1366 066f E8000000 		call	_ZN8UnitTest11CurrentTest7ResultsEv
 1366      00
 1367 0674 488B00   		movq	(%rax), %rax
 1368 0677 488D5590 		leaq	-112(%rbp), %rdx
 1369 067b 4889D1   		movq	%rdx, %rcx
 1370 067e 4889DA   		movq	%rbx, %rdx
 1371 0681 BE000000 		movl	$.LC11, %esi
 1371      00
 1372 0686 4889C7   		movq	%rax, %rdi
 1373 0689 E8000000 		call	_ZN8UnitTest10CheckEqualERNS_11TestResultsEPKcPcRKNS_11TestDetailsE
 1373      00
 1374              	.LEHE25:
 1375              	.L66:
  64:TestTestRunner.cpp ****     list.Add(&test);
 1376              		.loc 6 64 0 is_stmt 1
 1377 068e 488D45B0 		leaq	-80(%rbp), %rax
 1378 0692 4889C7   		movq	%rax, %rdi
 1379              	.LEHB26:
 1380 0695 E81A9B00 		call	_ZN12_GLOBAL__N_18MockTestD1Ev
 1380      00
 1381              	.LEHE26:
  70:TestTestRunner.cpp **** }
 1382              		.loc 6 70 0
 1383 069a 90       		nop
 1384 069b 488B45E8 		movq	-24(%rbp), %rax
 1385 069f 64483304 		xorq	%fs:40, %rax
 1385      25280000 
 1385      00
 1386 06a8 0F84CE00 		je	.L68
 1386      0000
 1387 06ae E9C40000 		jmp	.L75
 1387      00
 1388              	.L71:
 1389 06b3 EB00     		jmp	.L61
 1390              	.L70:
 1391              	.L61:
  68:TestTestRunner.cpp ****     CHECK_EQUAL("goodtest", reporter.lastStartedTest);
 1392              		.loc 6 68 0
 1393 06b5 4889C7   		movq	%rax, %rdi
 1394 06b8 E8000000 		call	__cxa_begin_catch
 1394      00
 1395              	.LEHB27:
 1396 06bd E8000000 		call	_ZN8UnitTest11CurrentTest7DetailsEv
 1396      00
 1397 06c2 488B08   		movq	(%rax), %rcx
 1398 06c5 488D4590 		leaq	-112(%rbp), %rax
 1399 06c9 BA440000 		movl	$68, %edx
 1399      00
 1400 06ce 4889CE   		movq	%rcx, %rsi
 1401 06d1 4889C7   		movq	%rax, %rdi
 1402 06d4 E8000000 		call	_ZN8UnitTest11TestDetailsC1ERKS0_i
 1402      00
  68:TestTestRunner.cpp ****     CHECK_EQUAL("goodtest", reporter.lastStartedTest);
 1403              		.loc 6 68 0 is_stmt 0 discriminator 10
 1404 06d9 E8000000 		call	_ZN8UnitTest11CurrentTest7ResultsEv
 1404      00
 1405 06de 488B00   		movq	(%rax), %rax
 1406 06e1 488D4D90 		leaq	-112(%rbp), %rcx
 1407 06e5 BA000000 		movl	$.LC12, %edx
 1407      00
 1408 06ea 4889CE   		movq	%rcx, %rsi
 1409 06ed 4889C7   		movq	%rax, %rdi
 1410 06f0 E8000000 		call	_ZN8UnitTest11TestResults13OnTestFailureERKNS_11TestDetailsEPKc
 1410      00
 1411              	.LEHE27:
 1412              	.LEHB28:
  68:TestTestRunner.cpp ****     CHECK_EQUAL("goodtest", reporter.lastStartedTest);
 1413              		.loc 6 68 0 discriminator 14
 1414 06f5 E8000000 		call	__cxa_end_catch
 1414      00
 1415              	.LEHE28:
  68:TestTestRunner.cpp ****     CHECK_EQUAL("goodtest", reporter.lastStartedTest);
 1416              		.loc 6 68 0
 1417 06fa E946FFFF 		jmp	.L62
 1417      FF
 1418              	.L72:
 1419 06ff 4889C3   		movq	%rax, %rbx
 1420 0702 E8000000 		call	__cxa_end_catch
 1420      00
 1421 0707 EB57     		jmp	.L64
 1422              	.L73:
  69:TestTestRunner.cpp **** }
 1423              		.loc 6 69 0 is_stmt 1
 1424 0709 4889C7   		movq	%rax, %rdi
 1425 070c E8000000 		call	__cxa_begin_catch
 1425      00
 1426              	.LEHB29:
 1427 0711 E8000000 		call	_ZN8UnitTest11CurrentTest7DetailsEv
 1427      00
 1428 0716 488B08   		movq	(%rax), %rcx
 1429 0719 488D4590 		leaq	-112(%rbp), %rax
 1430 071d BA450000 		movl	$69, %edx
 1430      00
 1431 0722 4889CE   		movq	%rcx, %rsi
 1432 0725 4889C7   		movq	%rax, %rdi
 1433 0728 E8000000 		call	_ZN8UnitTest11TestDetailsC1ERKS0_i
 1433      00
  69:TestTestRunner.cpp **** }
 1434              		.loc 6 69 0 is_stmt 0 discriminator 10
 1435 072d E8000000 		call	_ZN8UnitTest11CurrentTest7ResultsEv
 1435      00
 1436 0732 488B00   		movq	(%rax), %rax
 1437 0735 488D4D90 		leaq	-112(%rbp), %rcx
 1438 0739 BA000000 		movl	$.LC13, %edx
 1438      00
 1439 073e 4889CE   		movq	%rcx, %rsi
 1440 0741 4889C7   		movq	%rax, %rdi
 1441 0744 E8000000 		call	_ZN8UnitTest11TestResults13OnTestFailureERKNS_11TestDetailsEPKc
 1441      00
 1442              	.LEHE29:
 1443              	.LEHB30:
  69:TestTestRunner.cpp **** }
 1444              		.loc 6 69 0 discriminator 14
 1445 0749 E8000000 		call	__cxa_end_catch
 1445      00
 1446              	.LEHE30:
  69:TestTestRunner.cpp **** }
 1447              		.loc 6 69 0
 1448 074e E93BFFFF 		jmp	.L66
 1448      FF
 1449              	.L74:
 1450 0753 4889C3   		movq	%rax, %rbx
 1451 0756 E8000000 		call	__cxa_end_catch
 1451      00
 1452 075b EB03     		jmp	.L64
 1453              	.L69:
 1454 075d 4889C3   		movq	%rax, %rbx
 1455              	.L64:
  64:TestTestRunner.cpp ****     list.Add(&test);
 1456              		.loc 6 64 0 is_stmt 1
 1457 0760 488D45B0 		leaq	-80(%rbp), %rax
 1458 0764 4889C7   		movq	%rax, %rdi
 1459 0767 E8489A00 		call	_ZN12_GLOBAL__N_18MockTestD1Ev
 1459      00
 1460 076c 4889D8   		movq	%rbx, %rax
 1461 076f 4889C7   		movq	%rax, %rdi
 1462              	.LEHB31:
 1463 0772 E8000000 		call	_Unwind_Resume
 1463      00
 1464              	.LEHE31:
 1465              	.L75:
 1466              		.loc 6 70 0
 1467 0777 E8000000 		call	__stack_chk_fail
 1467      00
 1468              	.L68:
 1469 077c 4881C488 		addq	$136, %rsp
 1469      000000
 1470 0783 5B       		popq	%rbx
 1471 0784 5D       		popq	%rbp
 1472              		.cfi_def_cfa 7, 8
 1473 0785 C3       		ret
 1474              		.cfi_endproc
 1475              	.LFE1106:
 1476              		.section	.gcc_except_table
 1477              		.align 4
 1478              	.LLSDA1106:
 1479 0078 FF       		.byte	0xff
 1480 0079 03       		.byte	0x3
 1481 007a 45       		.uleb128 .LLSDATT1106-.LLSDATTD1106
 1482              	.LLSDATTD1106:
 1483 007b 01       		.byte	0x1
 1484 007c 3D       		.uleb128 .LLSDACSE1106-.LLSDACSB1106
 1485              	.LLSDACSB1106:
 1486 007d 3E       		.uleb128 .LEHB21-.LFB1106
 1487 007e 05       		.uleb128 .LEHE21-.LEHB21
 1488 007f 00       		.uleb128 0
 1489 0080 00       		.uleb128 0
 1490 0081 5B       		.uleb128 .LEHB22-.LFB1106
 1491 0082 34       		.uleb128 .LEHE22-.LEHB22
 1492 0083 F303     		.uleb128 .L69-.LFB1106
 1493 0085 00       		.uleb128 0
 1494 0086 8F01     		.uleb128 .LEHB23-.LFB1106
 1495 0088 1C       		.uleb128 .LEHE23-.LEHB23
 1496 0089 CB02     		.uleb128 .L70-.LFB1106
 1497 008b 01       		.uleb128 0x1
 1498 008c BD01     		.uleb128 .LEHB24-.LFB1106
 1499 008e 1E       		.uleb128 .LEHE24-.LEHB24
 1500 008f C902     		.uleb128 .L71-.LFB1106
 1501 0091 01       		.uleb128 0x1
 1502 0092 DB01     		.uleb128 .LEHB25-.LFB1106
 1503 0094 49       		.uleb128 .LEHE25-.LEHB25
 1504 0095 9F03     		.uleb128 .L73-.LFB1106
 1505 0097 01       		.uleb128 0x1
 1506 0098 AB02     		.uleb128 .LEHB26-.LFB1106
 1507 009a 05       		.uleb128 .LEHE26-.LEHB26
 1508 009b 00       		.uleb128 0
 1509 009c 00       		.uleb128 0
 1510 009d D302     		.uleb128 .LEHB27-.LFB1106
 1511 009f 38       		.uleb128 .LEHE27-.LEHB27
 1512 00a0 9503     		.uleb128 .L72-.LFB1106
 1513 00a2 00       		.uleb128 0
 1514 00a3 8B03     		.uleb128 .LEHB28-.LFB1106
 1515 00a5 05       		.uleb128 .LEHE28-.LEHB28
 1516 00a6 F303     		.uleb128 .L69-.LFB1106
 1517 00a8 00       		.uleb128 0
 1518 00a9 A703     		.uleb128 .LEHB29-.LFB1106
 1519 00ab 38       		.uleb128 .LEHE29-.LEHB29
 1520 00ac E903     		.uleb128 .L74-.LFB1106
 1521 00ae 00       		.uleb128 0
 1522 00af DF03     		.uleb128 .LEHB30-.LFB1106
 1523 00b1 05       		.uleb128 .LEHE30-.LEHB30
 1524 00b2 F303     		.uleb128 .L69-.LFB1106
 1525 00b4 00       		.uleb128 0
 1526 00b5 8804     		.uleb128 .LEHB31-.LFB1106
 1527 00b7 05       		.uleb128 .LEHE31-.LEHB31
 1528 00b8 00       		.uleb128 0
 1529 00b9 00       		.uleb128 0
 1530              	.LLSDACSE1106:
 1531 00ba 01       		.byte	0x1
 1532 00bb 00       		.byte	0
 1533              		.align 4
 1534 00bc 00000000 		.long	0
 1535              	
 1536              	.LLSDATT1106:
 1537              		.text
 1539              		.align 2
 1541              	_ZN12_GLOBAL__N_152TestRunnerFixtureTestFinishIsReportedCorrectlyHelperC2ERKN8UnitTest11TestDetails
 1542              	.LFB1108:
  71:TestTestRunner.cpp **** 
  72:TestTestRunner.cpp **** TEST_FIXTURE(TestRunnerFixture, TestFinishIsReportedCorrectly)
 1543              		.loc 6 72 0
 1544              		.cfi_startproc
 1545 0786 55       		pushq	%rbp
 1546              		.cfi_def_cfa_offset 16
 1547              		.cfi_offset 6, -16
 1548 0787 4889E5   		movq	%rsp, %rbp
 1549              		.cfi_def_cfa_register 6
 1550 078a 4883EC10 		subq	$16, %rsp
 1551 078e 48897DF8 		movq	%rdi, -8(%rbp)
 1552 0792 488975F0 		movq	%rsi, -16(%rbp)
 1553              	.LBB25:
 1554              		.loc 6 72 0
 1555 0796 488B45F8 		movq	-8(%rbp), %rax
 1556 079a 4889C7   		movq	%rax, %rdi
 1557 079d E8CEF9FF 		call	_ZN12_GLOBAL__N_117TestRunnerFixtureC2Ev
 1557      FF
 1558 07a2 488B45F8 		movq	-8(%rbp), %rax
 1559 07a6 488B55F0 		movq	-16(%rbp), %rdx
 1560 07aa 48899058 		movq	%rdx, 2136(%rax)
 1560      080000
 1561              	.LBE25:
 1562 07b1 90       		nop
 1563 07b2 C9       		leave
 1564              		.cfi_def_cfa 7, 8
 1565 07b3 C3       		ret
 1566              		.cfi_endproc
 1567              	.LFE1108:
 1569              		.set	_ZN12_GLOBAL__N_152TestRunnerFixtureTestFinishIsReportedCorrectlyHelperC1ERKN8UnitTest11TestD
 1570              		.section	.rodata
 1571              	.LC14:
 1572 0181 54657374 		.string	"TestFinishIsReportedCorrectly"
 1572      46696E69 
 1572      73684973 
 1572      5265706F 
 1572      72746564 
 1573              		.text
 1574              		.align 2
 1576              	_ZN12_GLOBAL__N_150TestTestRunnerFixtureTestFinishIsReportedCorrectlyC2Ev:
 1577              	.LFB1111:
 1578              		.loc 6 72 0
 1579              		.cfi_startproc
 1580 07b4 55       		pushq	%rbp
 1581              		.cfi_def_cfa_offset 16
 1582              		.cfi_offset 6, -16
 1583 07b5 4889E5   		movq	%rsp, %rbp
 1584              		.cfi_def_cfa_register 6
 1585 07b8 4883EC10 		subq	$16, %rsp
 1586 07bc 48897DF8 		movq	%rdi, -8(%rbp)
 1587              	.LBB26:
 1588              		.loc 6 72 0
 1589 07c0 E8000000 		call	_ZN13UnitTestSuite12GetSuiteNameEv
 1589      00
 1590 07c5 4889C2   		movq	%rax, %rdx
 1591 07c8 488B45F8 		movq	-8(%rbp), %rax
 1592 07cc 41B84800 		movl	$72, %r8d
 1592      0000
 1593 07d2 B9000000 		movl	$.LC6, %ecx
 1593      00
 1594 07d7 BE000000 		movl	$.LC14, %esi
 1594      00
 1595 07dc 4889C7   		movq	%rax, %rdi
 1596 07df E8000000 		call	_ZN8UnitTest4TestC2EPKcS2_S2_i
 1596      00
 1597 07e4 BA000000 		movl	$_ZTVN12_GLOBAL__N_150TestTestRunnerFixtureTestFinishIsReportedCorrectlyE+16, %edx
 1597      00
 1598 07e9 488B45F8 		movq	-8(%rbp), %rax
 1599 07ed 488910   		movq	%rdx, (%rax)
 1600              	.LBE26:
 1601 07f0 90       		nop
 1602 07f1 C9       		leave
 1603              		.cfi_def_cfa 7, 8
 1604 07f2 C3       		ret
 1605              		.cfi_endproc
 1606              	.LFE1111:
 1608              		.set	_ZN12_GLOBAL__N_150TestTestRunnerFixtureTestFinishIsReportedCorrectlyC1Ev,_ZN12_GLOBAL__N_150
 1609              		.local	_ZN12_GLOBAL__N_158testTestRunnerFixtureTestFinishIsReportedCorrectlyInstanceE
 1610              		.comm	_ZN12_GLOBAL__N_158testTestRunnerFixtureTestFinishIsReportedCorrectlyInstanceE,56,32
 1611              		.local	_ZN12_GLOBAL__N_151adderTestRunnerFixtureTestFinishIsReportedCorrectlyE
 1612              		.comm	_ZN12_GLOBAL__N_151adderTestRunnerFixtureTestFinishIsReportedCorrectlyE,1,1
 1613 07f3 90       		.align 2
 1615              	_ZN12_GLOBAL__N_152TestRunnerFixtureTestFinishIsReportedCorrectlyHelperD2Ev:
 1616              	.LFB1115:
 1617              		.loc 6 72 0
 1618              		.cfi_startproc
 1619 07f4 55       		pushq	%rbp
 1620              		.cfi_def_cfa_offset 16
 1621              		.cfi_offset 6, -16
 1622 07f5 4889E5   		movq	%rsp, %rbp
 1623              		.cfi_def_cfa_register 6
 1624 07f8 4883EC10 		subq	$16, %rsp
 1625 07fc 48897DF8 		movq	%rdi, -8(%rbp)
 1626              	.LBB27:
 1627              		.loc 6 72 0
 1628 0800 488B45F8 		movq	-8(%rbp), %rax
 1629 0804 4889C7   		movq	%rax, %rdi
 1630 0807 E8B2F9FF 		call	_ZN12_GLOBAL__N_117TestRunnerFixtureD2Ev
 1630      FF
 1631              	.LBE27:
 1632 080c 90       		nop
 1633 080d C9       		leave
 1634              		.cfi_def_cfa 7, 8
 1635 080e C3       		ret
 1636              		.cfi_endproc
 1637              	.LFE1115:
 1639              		.set	_ZN12_GLOBAL__N_152TestRunnerFixtureTestFinishIsReportedCorrectlyHelperD1Ev,_ZN12_GLOBAL__N_1
 1640 080f 90       		.align 2
 1642              	_ZNK12_GLOBAL__N_150TestTestRunnerFixtureTestFinishIsReportedCorrectly7RunImplEv:
 1643              	.LFB1113:
 1644              		.loc 6 72 0
 1645              		.cfi_startproc
 1646              		.cfi_personality 0x3,__gxx_personality_v0
 1647              		.cfi_lsda 0x3,.LLSDA1113
 1648 0810 55       		pushq	%rbp
 1649              		.cfi_def_cfa_offset 16
 1650              		.cfi_offset 6, -16
 1651 0811 4889E5   		movq	%rsp, %rbp
 1652              		.cfi_def_cfa_register 6
 1653 0814 4154     		pushq	%r12
 1654 0816 53       		pushq	%rbx
 1655 0817 4881ECC0 		subq	$2240, %rsp
 1655      080000
 1656              		.cfi_offset 12, -24
 1657              		.cfi_offset 3, -32
 1658 081e 4889BD38 		movq	%rdi, -2248(%rbp)
 1658      F7FFFF
 1659              		.loc 6 72 0
 1660 0825 64488B04 		movq	%fs:40, %rax
 1660      25280000 
 1660      00
 1661 082e 488945E8 		movq	%rax, -24(%rbp)
 1662 0832 31C0     		xorl	%eax, %eax
 1663 0834 C6854FF7 		movb	$0, -2225(%rbp)
 1663      FFFF00
 1664              	.LBB28:
 1665 083b 488B8538 		movq	-2248(%rbp), %rax
 1665      F7FFFF
 1666 0842 488D5008 		leaq	8(%rax), %rdx
 1667 0846 488D8580 		leaq	-2176(%rbp), %rax
 1667      F7FFFF
 1668 084d 4889D6   		movq	%rdx, %rsi
 1669 0850 4889C7   		movq	%rax, %rdi
 1670              	.LEHB32:
 1671 0853 E82EFFFF 		call	_ZN12_GLOBAL__N_152TestRunnerFixtureTestFinishIsReportedCorrectlyHelperC1ERKN8UnitTest11TestD
 1671      FF
 1672              	.LEHE32:
 1673              		.loc 6 72 0 is_stmt 0 discriminator 1
 1674 0858 C6854FF7 		movb	$1, -2225(%rbp)
 1674      FFFF01
 1675 085f 488B8538 		movq	-2248(%rbp), %rax
 1675      F7FFFF
 1676 0866 488D5008 		leaq	8(%rax), %rdx
 1677 086a 488D8580 		leaq	-2176(%rbp), %rax
 1677      F7FFFF
 1678 0871 4889D6   		movq	%rdx, %rsi
 1679 0874 4889C7   		movq	%rax, %rdi
 1680              	.LEHB33:
 1681 0877 E87A6400 		call	_ZN8UnitTest11ExecuteTestIN12_GLOBAL__N_152TestRunnerFixtureTestFinishIsReportedCorrectlyHelp
 1681      00
 1682              	.LEHE33:
 1683              		.loc 6 72 0 discriminator 3
 1684 087c 488D8580 		leaq	-2176(%rbp), %rax
 1684      F7FFFF
 1685 0883 4889C7   		movq	%rax, %rdi
 1686              	.LEHB34:
 1687 0886 E869FFFF 		call	_ZN12_GLOBAL__N_152TestRunnerFixtureTestFinishIsReportedCorrectlyHelperD1Ev
 1687      FF
 1688              	.LEHE34:
 1689              	.LBE28:
 1690              		.loc 6 72 0
 1691 088b E9660200 		jmp	.L79
 1691      00
 1692              	.L94:
 1693 0890 4989C4   		movq	%rax, %r12
 1694 0893 4889D3   		movq	%rdx, %rbx
 1695              	.LBB29:
 1696 0896 488D8580 		leaq	-2176(%rbp), %rax
 1696      F7FFFF
 1697 089d 4889C7   		movq	%rax, %rdi
 1698 08a0 E84FFFFF 		call	_ZN12_GLOBAL__N_152TestRunnerFixtureTestFinishIsReportedCorrectlyHelperD1Ev
 1698      FF
 1699 08a5 4C89E0   		movq	%r12, %rax
 1700 08a8 4889DA   		movq	%rbx, %rdx
 1701 08ab EB00     		jmp	.L81
 1702              	.L93:
 1703              	.L81:
 1704 08ad 4883FA01 		cmpq	$1, %rdx
 1705 08b1 740F     		je	.L83
 1706 08b3 4883FA02 		cmpq	$2, %rdx
 1707 08b7 0F84A700 		je	.L84
 1707      0000
 1708 08bd E94B0100 		jmp	.L99
 1708      00
 1709              	.L83:
 1710              	.LBE29:
 1711              	.LBB30:
 1712 08c2 4889C7   		movq	%rax, %rdi
 1713 08c5 E8000000 		call	__cxa_begin_catch
 1713      00
 1714 08ca 48898550 		movq	%rax, -2224(%rbp)
 1714      F7FFFF
 1715 08d1 488B8550 		movq	-2224(%rbp), %rax
 1715      F7FFFF
 1716 08d8 488B00   		movq	(%rax), %rax
 1717 08db 4883C010 		addq	$16, %rax
 1718 08df 488B00   		movq	(%rax), %rax
 1719 08e2 488B9550 		movq	-2224(%rbp), %rdx
 1719      F7FFFF
 1720 08e9 4889D7   		movq	%rdx, %rdi
 1721 08ec FFD0     		call	*%rax
 1722 08ee 4889C3   		movq	%rax, %rbx
 1723 08f1 488B8550 		movq	-2224(%rbp), %rax
 1723      F7FFFF
 1724 08f8 4889C7   		movq	%rax, %rdi
 1725              	.LEHB35:
 1726 08fb E8000000 		call	_ZNK8UnitTest15AssertException10LineNumberEv
 1726      00
 1727 0900 4189C4   		movl	%eax, %r12d
 1728 0903 488B8550 		movq	-2224(%rbp), %rax
 1728      F7FFFF
 1729 090a 4889C7   		movq	%rax, %rdi
 1730 090d E8000000 		call	_ZNK8UnitTest15AssertException8FilenameEv
 1730      00
 1731              		.loc 6 72 0 discriminator 5
 1732 0912 4889C1   		movq	%rax, %rcx
 1733 0915 488B8538 		movq	-2248(%rbp), %rax
 1733      F7FFFF
 1734 091c 488B5008 		movq	8(%rax), %rdx
 1735 0920 488B8538 		movq	-2248(%rbp), %rax
 1735      F7FFFF
 1736 0927 488B7010 		movq	16(%rax), %rsi
 1737 092b 488D8560 		leaq	-2208(%rbp), %rax
 1737      F7FFFF
 1738 0932 4589E0   		movl	%r12d, %r8d
 1739 0935 4889C7   		movq	%rax, %rdi
 1740 0938 E8000000 		call	_ZN8UnitTest11TestDetailsC1EPKcS2_S2_i
 1740      00
 1741              		.loc 6 72 0 discriminator 9
 1742 093d E8000000 		call	_ZN8UnitTest11CurrentTest7ResultsEv
 1742      00
 1743 0942 488B00   		movq	(%rax), %rax
 1744 0945 488D8D60 		leaq	-2208(%rbp), %rcx
 1744      F7FFFF
 1745 094c 4889DA   		movq	%rbx, %rdx
 1746 094f 4889CE   		movq	%rcx, %rsi
 1747 0952 4889C7   		movq	%rax, %rdi
 1748 0955 E8000000 		call	_ZN8UnitTest11TestResults13OnTestFailureERKNS_11TestDetailsEPKc
 1748      00
 1749              	.LEHE35:
 1750              		.loc 6 72 0 discriminator 13
 1751 095a E8000000 		call	__cxa_end_catch
 1751      00
 1752              	.LBE30:
 1753 095f E9920100 		jmp	.L79
 1753      00
 1754              	.L84:
 1755              	.LBB31:
 1756              		.loc 6 72 0
 1757 0964 4889C7   		movq	%rax, %rdi
 1758 0967 E8000000 		call	__cxa_begin_catch
 1758      00
 1759 096c 48898558 		movq	%rax, -2216(%rbp)
 1759      F7FFFF
 1760              	.LBB32:
 1761 0973 488D8580 		leaq	-2176(%rbp), %rax
 1761      F7FFFF
 1762 097a 4889C7   		movq	%rax, %rdi
 1763              	.LEHB36:
 1764 097d E8000000 		call	_ZN8UnitTest15MemoryOutStreamC1Ev
 1764      00
 1765              	.LEHE36:
 1766              		.loc 6 72 0 discriminator 15
 1767 0982 488B8558 		movq	-2216(%rbp), %rax
 1767      F7FFFF
 1768 0989 488B00   		movq	(%rax), %rax
 1769 098c 4883C010 		addq	$16, %rax
 1770 0990 488B00   		movq	(%rax), %rax
 1771 0993 488B9558 		movq	-2216(%rbp), %rdx
 1771      F7FFFF
 1772 099a 4889D7   		movq	%rdx, %rdi
 1773 099d FFD0     		call	*%rax
 1774 099f 4889C3   		movq	%rax, %rbx
 1775 09a2 488D8580 		leaq	-2176(%rbp), %rax
 1775      F7FFFF
 1776 09a9 BE000000 		movl	$.LC8, %esi
 1776      00
 1777 09ae 4889C7   		movq	%rax, %rdi
 1778              	.LEHB37:
 1779 09b1 E8000000 		call	_ZStlsISt11char_traitsIcEERSt13basic_ostreamIcT_ES5_PKc
 1779      00
 1780 09b6 4889DE   		movq	%rbx, %rsi
 1781 09b9 4889C7   		movq	%rax, %rdi
 1782 09bc E8000000 		call	_ZStlsISt11char_traitsIcEERSt13basic_ostreamIcT_ES5_PKc
 1782      00
 1783              		.loc 6 72 0 discriminator 19
 1784 09c1 488D8580 		leaq	-2176(%rbp), %rax
 1784      F7FFFF
 1785 09c8 4889C7   		movq	%rax, %rdi
 1786 09cb E8000000 		call	_ZNK8UnitTest15MemoryOutStream7GetTextEv
 1786      00
 1787 09d0 4989C4   		movq	%rax, %r12
 1788 09d3 488B8538 		movq	-2248(%rbp), %rax
 1788      F7FFFF
 1789 09da 488D5808 		leaq	8(%rax), %rbx
 1790 09de E8000000 		call	_ZN8UnitTest11CurrentTest7ResultsEv
 1790      00
 1791              		.loc 6 72 0 discriminator 21
 1792 09e3 488B00   		movq	(%rax), %rax
 1793 09e6 4C89E2   		movq	%r12, %rdx
 1794 09e9 4889DE   		movq	%rbx, %rsi
 1795 09ec 4889C7   		movq	%rax, %rdi
 1796 09ef E8000000 		call	_ZN8UnitTest11TestResults13OnTestFailureERKNS_11TestDetailsEPKc
 1796      00
 1797              	.LEHE37:
 1798              		.loc 6 72 0 discriminator 25
 1799 09f4 488D8580 		leaq	-2176(%rbp), %rax
 1799      F7FFFF
 1800 09fb 4889C7   		movq	%rax, %rdi
 1801              	.LEHB38:
 1802 09fe E8000000 		call	_ZN8UnitTest15MemoryOutStreamD1Ev
 1802      00
 1803              	.LEHE38:
 1804              	.LBE32:
 1805              		.loc 6 72 0 discriminator 26
 1806 0a03 E8000000 		call	__cxa_end_catch
 1806      00
 1807              	.LBE31:
 1808 0a08 E9E90000 		jmp	.L79
 1808      00
 1809              	.L99:
 1810              		.loc 6 72 0
 1811 0a0d 4889C7   		movq	%rax, %rdi
 1812 0a10 E8000000 		call	__cxa_begin_catch
 1812      00
 1813 0a15 80BD4FF7 		cmpb	$0, -2225(%rbp)
 1813      FFFF00
 1814 0a1c 7443     		je	.L86
 1815              		.loc 6 72 0 discriminator 28
 1816 0a1e 488B8538 		movq	-2248(%rbp), %rax
 1816      F7FFFF
 1817 0a25 488D4808 		leaq	8(%rax), %rcx
 1818 0a29 488D8560 		leaq	-2208(%rbp), %rax
 1818      F7FFFF
 1819 0a30 BA480000 		movl	$72, %edx
 1819      00
 1820 0a35 4889CE   		movq	%rcx, %rsi
 1821 0a38 4889C7   		movq	%rax, %rdi
 1822              	.LEHB39:
 1823 0a3b E8000000 		call	_ZN8UnitTest11TestDetailsC1ERKS0_i
 1823      00
 1824              		.loc 6 72 0 discriminator 31
 1825 0a40 E8000000 		call	_ZN8UnitTest11CurrentTest7ResultsEv
 1825      00
 1826 0a45 488B00   		movq	(%rax), %rax
 1827 0a48 488D8D60 		leaq	-2208(%rbp), %rcx
 1827      F7FFFF
 1828 0a4f BA000000 		movl	$.LC9, %edx
 1828      00
 1829 0a54 4889CE   		movq	%rcx, %rsi
 1830 0a57 4889C7   		movq	%rax, %rdi
 1831 0a5a E8000000 		call	_ZN8UnitTest11TestResults13OnTestFailureERKNS_11TestDetailsEPKc
 1831      00
 1832 0a5f EB41     		jmp	.L87
 1833              	.L86:
 1834              		.loc 6 72 0 discriminator 29
 1835 0a61 488B8538 		movq	-2248(%rbp), %rax
 1835      F7FFFF
 1836 0a68 488D4808 		leaq	8(%rax), %rcx
 1837 0a6c 488D8560 		leaq	-2208(%rbp), %rax
 1837      F7FFFF
 1838 0a73 BA480000 		movl	$72, %edx
 1838      00
 1839 0a78 4889CE   		movq	%rcx, %rsi
 1840 0a7b 4889C7   		movq	%rax, %rdi
 1841 0a7e E8000000 		call	_ZN8UnitTest11TestDetailsC1ERKS0_i
 1841      00
 1842              		.loc 6 72 0 discriminator 38
 1843 0a83 E8000000 		call	_ZN8UnitTest11CurrentTest7ResultsEv
 1843      00
 1844 0a88 488B00   		movq	(%rax), %rax
 1845 0a8b 488D8D60 		leaq	-2208(%rbp), %rcx
 1845      F7FFFF
 1846 0a92 BA000000 		movl	$.LC10, %edx
 1846      00
 1847 0a97 4889CE   		movq	%rcx, %rsi
 1848 0a9a 4889C7   		movq	%rax, %rdi
 1849 0a9d E8000000 		call	_ZN8UnitTest11TestResults13OnTestFailureERKNS_11TestDetailsEPKc
 1849      00
 1850              	.LEHE39:
 1851              	.L87:
 1852              	.LEHB40:
 1853              		.loc 6 72 0 discriminator 43
 1854 0aa2 E8000000 		call	__cxa_end_catch
 1854      00
 1855 0aa7 EB4D     		jmp	.L79
 1856              	.L95:
 1857 0aa9 4889C3   		movq	%rax, %rbx
 1858              	.LBB34:
 1859              		.loc 6 72 0
 1860 0aac E8000000 		call	__cxa_end_catch
 1860      00
 1861 0ab1 4889D8   		movq	%rbx, %rax
 1862 0ab4 4889C7   		movq	%rax, %rdi
 1863 0ab7 E8000000 		call	_Unwind_Resume
 1863      00
 1864              	.LEHE40:
 1865              	.L97:
 1866 0abc 4889C3   		movq	%rax, %rbx
 1867              	.LBE34:
 1868              	.LBB35:
 1869              	.LBB33:
 1870 0abf 488D8580 		leaq	-2176(%rbp), %rax
 1870      F7FFFF
 1871 0ac6 4889C7   		movq	%rax, %rdi
 1872 0ac9 E8000000 		call	_ZN8UnitTest15MemoryOutStreamD1Ev
 1872      00
 1873 0ace EB03     		jmp	.L90
 1874              	.L96:
 1875 0ad0 4889C3   		movq	%rax, %rbx
 1876              	.L90:
 1877              	.LBE33:
 1878 0ad3 E8000000 		call	__cxa_end_catch
 1878      00
 1879 0ad8 4889D8   		movq	%rbx, %rax
 1880 0adb 4889C7   		movq	%rax, %rdi
 1881              	.LEHB41:
 1882 0ade E8000000 		call	_Unwind_Resume
 1882      00
 1883              	.LEHE41:
 1884              	.L98:
 1885 0ae3 4889C3   		movq	%rax, %rbx
 1886              	.LBE35:
 1887 0ae6 E8000000 		call	__cxa_end_catch
 1887      00
 1888 0aeb 4889D8   		movq	%rbx, %rax
 1889 0aee 4889C7   		movq	%rax, %rdi
 1890              	.LEHB42:
 1891 0af1 E8000000 		call	_Unwind_Resume
 1891      00
 1892              	.LEHE42:
 1893              	.L79:
 1894 0af6 488B45E8 		movq	-24(%rbp), %rax
 1895 0afa 64483304 		xorq	%fs:40, %rax
 1895      25280000 
 1895      00
 1896 0b03 7405     		je	.L92
 1897 0b05 E8000000 		call	__stack_chk_fail
 1897      00
 1898              	.L92:
 1899 0b0a 4881C4C0 		addq	$2240, %rsp
 1899      080000
 1900 0b11 5B       		popq	%rbx
 1901 0b12 415C     		popq	%r12
 1902 0b14 5D       		popq	%rbp
 1903              		.cfi_def_cfa 7, 8
 1904 0b15 C3       		ret
 1905              		.cfi_endproc
 1906              	.LFE1113:
 1907              		.section	.gcc_except_table
 1908              		.align 4
 1909              	.LLSDA1113:
 1910 00c0 FF       		.byte	0xff
 1911 00c1 03       		.byte	0x3
 1912 00c2 55       		.uleb128 .LLSDATT1113-.LLSDATTD1113
 1913              	.LLSDATTD1113:
 1914 00c3 01       		.byte	0x1
 1915 00c4 3C       		.uleb128 .LLSDACSE1113-.LLSDACSB1113
 1916              	.LLSDACSB1113:
 1917 00c5 43       		.uleb128 .LEHB32-.LFB1113
 1918 00c6 05       		.uleb128 .LEHE32-.LEHB32
 1919 00c7 9D01     		.uleb128 .L93-.LFB1113
 1920 00c9 05       		.uleb128 0x5
 1921 00ca 67       		.uleb128 .LEHB33-.LFB1113
 1922 00cb 05       		.uleb128 .LEHE33-.LEHB33
 1923 00cc 8001     		.uleb128 .L94-.LFB1113
 1924 00ce 07       		.uleb128 0x7
 1925 00cf 76       		.uleb128 .LEHB34-.LFB1113
 1926 00d0 05       		.uleb128 .LEHE34-.LEHB34
 1927 00d1 9D01     		.uleb128 .L93-.LFB1113
 1928 00d3 05       		.uleb128 0x5
 1929 00d4 EB01     		.uleb128 .LEHB35-.LFB1113
 1930 00d6 5F       		.uleb128 .LEHE35-.LEHB35
 1931 00d7 9905     		.uleb128 .L95-.LFB1113
 1932 00d9 00       		.uleb128 0
 1933 00da ED02     		.uleb128 .LEHB36-.LFB1113
 1934 00dc 05       		.uleb128 .LEHE36-.LEHB36
 1935 00dd C005     		.uleb128 .L96-.LFB1113
 1936 00df 00       		.uleb128 0
 1937 00e0 A103     		.uleb128 .LEHB37-.LFB1113
 1938 00e2 43       		.uleb128 .LEHE37-.LEHB37
 1939 00e3 AC05     		.uleb128 .L97-.LFB1113
 1940 00e5 00       		.uleb128 0
 1941 00e6 EE03     		.uleb128 .LEHB38-.LFB1113
 1942 00e8 05       		.uleb128 .LEHE38-.LEHB38
 1943 00e9 C005     		.uleb128 .L96-.LFB1113
 1944 00eb 00       		.uleb128 0
 1945 00ec AB04     		.uleb128 .LEHB39-.LFB1113
 1946 00ee 67       		.uleb128 .LEHE39-.LEHB39
 1947 00ef D305     		.uleb128 .L98-.LFB1113
 1948 00f1 00       		.uleb128 0
 1949 00f2 9205     		.uleb128 .LEHB40-.LFB1113
 1950 00f4 1A       		.uleb128 .LEHE40-.LEHB40
 1951 00f5 00       		.uleb128 0
 1952 00f6 00       		.uleb128 0
 1953 00f7 CE05     		.uleb128 .LEHB41-.LFB1113
 1954 00f9 05       		.uleb128 .LEHE41-.LEHB41
 1955 00fa 00       		.uleb128 0
 1956 00fb 00       		.uleb128 0
 1957 00fc E105     		.uleb128 .LEHB42-.LFB1113
 1958 00fe 05       		.uleb128 .LEHE42-.LEHB42
 1959 00ff 00       		.uleb128 0
 1960 0100 00       		.uleb128 0
 1961              	.LLSDACSE1113:
 1962 0101 03       		.byte	0x3
 1963 0102 00       		.byte	0
 1964 0103 02       		.byte	0x2
 1965 0104 7D       		.byte	0x7d
 1966 0105 01       		.byte	0x1
 1967 0106 7D       		.byte	0x7d
 1968 0107 00       		.byte	0
 1969 0108 7D       		.byte	0x7d
 1970 0109 000000   		.align 4
 1971 010c 00000000 		.long	0
 1972              	
 1973 0110 00000000 		.long	_ZTISt9exception
 1974 0114 00000000 		.long	_ZTIN8UnitTest15AssertExceptionE
 1975              	.LLSDATT1113:
 1976              		.text
 1978              		.section	.rodata
 1979 019f 00       		.align 8
 1980              	.LC15:
 1981 01a0 556E6861 		.string	"Unhandled exception in CHECK_EQUAL(1, reporter.testFinishedCount)"
 1981      6E646C65 
 1981      64206578 
 1981      63657074 
 1981      696F6E20 
 1982 01e2 00000000 		.align 8
 1982      0000
 1983              	.LC16:
 1984 01e8 556E6861 		.string	"Unhandled exception in CHECK_EQUAL(\"goodtest\", reporter.lastFinishedTest)"
 1984      6E646C65 
 1984      64206578 
 1984      63657074 
 1984      696F6E20 
 1985              		.text
 1986              		.align 2
 1988              	_ZN12_GLOBAL__N_152TestRunnerFixtureTestFinishIsReportedCorrectlyHelper7RunImplEv:
 1989              	.LFB1117:
  73:TestTestRunner.cpp **** {
 1990              		.loc 6 73 0 is_stmt 1
 1991              		.cfi_startproc
 1992              		.cfi_personality 0x3,__gxx_personality_v0
 1993              		.cfi_lsda 0x3,.LLSDA1117
 1994 0b16 55       		pushq	%rbp
 1995              		.cfi_def_cfa_offset 16
 1996              		.cfi_offset 6, -16
 1997 0b17 4889E5   		movq	%rsp, %rbp
 1998              		.cfi_def_cfa_register 6
 1999 0b1a 53       		pushq	%rbx
 2000 0b1b 4881EC88 		subq	$136, %rsp
 2000      000000
 2001              		.cfi_offset 3, -24
 2002 0b22 4889BD78 		movq	%rdi, -136(%rbp)
 2002      FFFFFF
 2003              		.loc 6 73 0
 2004 0b29 64488B04 		movq	%fs:40, %rax
 2004      25280000 
 2004      00
 2005 0b32 488945E8 		movq	%rax, -24(%rbp)
 2006 0b36 31C0     		xorl	%eax, %eax
  74:TestTestRunner.cpp ****     MockTest test("goodtest", true, false);
 2007              		.loc 6 74 0
 2008 0b38 488D45B0 		leaq	-80(%rbp), %rax
 2009 0b3c 41B80100 		movl	$1, %r8d
 2009      0000
 2010 0b42 B9000000 		movl	$0, %ecx
 2010      00
 2011 0b47 BA010000 		movl	$1, %edx
 2011      00
 2012 0b4c BE000000 		movl	$.LC11, %esi
 2012      00
 2013 0b51 4889C7   		movq	%rax, %rdi
 2014              	.LEHB43:
 2015 0b54 E8A7F4FF 		call	_ZN12_GLOBAL__N_18MockTestC1EPKcbbi
 2015      FF
 2016              	.LEHE43:
  75:TestTestRunner.cpp ****     list.Add(&test);
 2017              		.loc 6 75 0
 2018 0b59 488B8578 		movq	-136(%rbp), %rax
 2018      FFFFFF
 2019 0b60 488D9048 		leaq	2120(%rax), %rdx
 2019      080000
 2020 0b67 488D45B0 		leaq	-80(%rbp), %rax
 2021 0b6b 4889C6   		movq	%rax, %rsi
 2022 0b6e 4889D7   		movq	%rdx, %rdi
 2023              	.LEHB44:
 2024 0b71 E8000000 		call	_ZN8UnitTest8TestList3AddEPNS_4TestE
 2024      00
  76:TestTestRunner.cpp **** 
  77:TestTestRunner.cpp **** 	RunTestsIf(list, NULL, True(), 0);
 2025              		.loc 6 77 0
 2026 0b76 488B8578 		movq	-136(%rbp), %rax
 2026      FFFFFF
 2027 0b7d 488DB048 		leaq	2120(%rax), %rsi
 2027      080000
 2028 0b84 488B8578 		movq	-136(%rbp), %rax
 2028      FFFFFF
 2029 0b8b 488D5590 		leaq	-112(%rbp), %rdx
 2030 0b8f 41B80000 		movl	$0, %r8d
 2030      0000
 2031 0b95 4889D1   		movq	%rdx, %rcx
 2032 0b98 BA000000 		movl	$0, %edx
 2032      00
 2033 0b9d 4889C7   		movq	%rax, %rdi
 2034 0ba0 E8D96000 		call	_ZN12_GLOBAL__N_111FixtureBase10RunTestsIfIN8UnitTest4TrueEEEiRKNS2_8TestListEPKcRKT_i
 2034      00
 2035              	.LEHE44:
 2036              	.LEHB45:
  78:TestTestRunner.cpp ****     CHECK_EQUAL(1, reporter.testFinishedCount);
 2037              		.loc 6 78 0 discriminator 2
 2038 0ba5 E8000000 		call	_ZN8UnitTest11CurrentTest7DetailsEv
 2038      00
 2039 0baa 488B08   		movq	(%rax), %rcx
 2040 0bad 488D4590 		leaq	-112(%rbp), %rax
 2041 0bb1 BA4E0000 		movl	$78, %edx
 2041      00
 2042 0bb6 4889CE   		movq	%rcx, %rsi
 2043 0bb9 4889C7   		movq	%rax, %rdi
 2044 0bbc E8000000 		call	_ZN8UnitTest11TestDetailsC1ERKS0_i
 2044      00
 2045              	.LEHE45:
 2046 0bc1 488B8578 		movq	-136(%rbp), %rax
 2046      FFFFFF
 2047 0bc8 488D982C 		leaq	1580(%rax), %rbx
 2047      060000
 2048 0bcf C7458C01 		movl	$1, -116(%rbp)
 2048      000000
 2049              	.LEHB46:
 2050 0bd6 E8000000 		call	_ZN8UnitTest11CurrentTest7ResultsEv
 2050      00
 2051 0bdb 488B00   		movq	(%rax), %rax
 2052 0bde 488D5590 		leaq	-112(%rbp), %rdx
 2053 0be2 488D758C 		leaq	-116(%rbp), %rsi
 2054 0be6 4889D1   		movq	%rdx, %rcx
 2055 0be9 4889DA   		movq	%rbx, %rdx
 2056 0bec 4889C7   		movq	%rax, %rdi
 2057 0bef E8000000 		call	_ZN8UnitTest10CheckEqualIiiEEvRNS_11TestResultsERKT_RKT0_RKNS_11TestDetailsE
 2057      00
 2058              	.LEHE46:
 2059              	.L103:
 2060              	.LEHB47:
  79:TestTestRunner.cpp ****     CHECK_EQUAL("goodtest", reporter.lastFinishedTest);
 2061              		.loc 6 79 0
 2062 0bf4 E8000000 		call	_ZN8UnitTest11CurrentTest7DetailsEv
 2062      00
 2063 0bf9 488B08   		movq	(%rax), %rcx
 2064 0bfc 488D4590 		leaq	-112(%rbp), %rax
 2065 0c00 BA4F0000 		movl	$79, %edx
 2065      00
 2066 0c05 4889CE   		movq	%rcx, %rsi
 2067 0c08 4889C7   		movq	%rax, %rdi
 2068 0c0b E8000000 		call	_ZN8UnitTest11TestDetailsC1ERKS0_i
 2068      00
 2069              		.loc 6 79 0 is_stmt 0 discriminator 2
 2070 0c10 488B8578 		movq	-136(%rbp), %rax
 2070      FFFFFF
 2071 0c17 488D9830 		leaq	1840(%rax), %rbx
 2071      070000
 2072 0c1e E8000000 		call	_ZN8UnitTest11CurrentTest7ResultsEv
 2072      00
 2073 0c23 488B00   		movq	(%rax), %rax
 2074 0c26 488D5590 		leaq	-112(%rbp), %rdx
 2075 0c2a 4889D1   		movq	%rdx, %rcx
 2076 0c2d 4889DA   		movq	%rbx, %rdx
 2077 0c30 BE000000 		movl	$.LC11, %esi
 2077      00
 2078 0c35 4889C7   		movq	%rax, %rdi
 2079 0c38 E8000000 		call	_ZN8UnitTest10CheckEqualERNS_11TestResultsEPKcPcRKNS_11TestDetailsE
 2079      00
 2080              	.LEHE47:
 2081              	.L107:
  74:TestTestRunner.cpp ****     list.Add(&test);
 2082              		.loc 6 74 0 is_stmt 1
 2083 0c3d 488D45B0 		leaq	-80(%rbp), %rax
 2084 0c41 4889C7   		movq	%rax, %rdi
 2085              	.LEHB48:
 2086 0c44 E86B9500 		call	_ZN12_GLOBAL__N_18MockTestD1Ev
 2086      00
 2087              	.LEHE48:
  80:TestTestRunner.cpp **** }
 2088              		.loc 6 80 0
 2089 0c49 90       		nop
 2090 0c4a 488B45E8 		movq	-24(%rbp), %rax
 2091 0c4e 64483304 		xorq	%fs:40, %rax
 2091      25280000 
 2091      00
 2092 0c57 0F84CE00 		je	.L109
 2092      0000
 2093 0c5d E9C40000 		jmp	.L116
 2093      00
 2094              	.L112:
 2095 0c62 EB00     		jmp	.L102
 2096              	.L111:
 2097              	.L102:
  78:TestTestRunner.cpp ****     CHECK_EQUAL("goodtest", reporter.lastFinishedTest);
 2098              		.loc 6 78 0
 2099 0c64 4889C7   		movq	%rax, %rdi
 2100 0c67 E8000000 		call	__cxa_begin_catch
 2100      00
 2101              	.LEHB49:
 2102 0c6c E8000000 		call	_ZN8UnitTest11CurrentTest7DetailsEv
 2102      00
 2103 0c71 488B08   		movq	(%rax), %rcx
 2104 0c74 488D4590 		leaq	-112(%rbp), %rax
 2105 0c78 BA4E0000 		movl	$78, %edx
 2105      00
 2106 0c7d 4889CE   		movq	%rcx, %rsi
 2107 0c80 4889C7   		movq	%rax, %rdi
 2108 0c83 E8000000 		call	_ZN8UnitTest11TestDetailsC1ERKS0_i
 2108      00
  78:TestTestRunner.cpp ****     CHECK_EQUAL("goodtest", reporter.lastFinishedTest);
 2109              		.loc 6 78 0 is_stmt 0 discriminator 10
 2110 0c88 E8000000 		call	_ZN8UnitTest11CurrentTest7ResultsEv
 2110      00
 2111 0c8d 488B00   		movq	(%rax), %rax
 2112 0c90 488D4D90 		leaq	-112(%rbp), %rcx
 2113 0c94 BA000000 		movl	$.LC15, %edx
 2113      00
 2114 0c99 4889CE   		movq	%rcx, %rsi
 2115 0c9c 4889C7   		movq	%rax, %rdi
 2116 0c9f E8000000 		call	_ZN8UnitTest11TestResults13OnTestFailureERKNS_11TestDetailsEPKc
 2116      00
 2117              	.LEHE49:
 2118              	.LEHB50:
  78:TestTestRunner.cpp ****     CHECK_EQUAL("goodtest", reporter.lastFinishedTest);
 2119              		.loc 6 78 0 discriminator 14
 2120 0ca4 E8000000 		call	__cxa_end_catch
 2120      00
 2121              	.LEHE50:
  78:TestTestRunner.cpp ****     CHECK_EQUAL("goodtest", reporter.lastFinishedTest);
 2122              		.loc 6 78 0
 2123 0ca9 E946FFFF 		jmp	.L103
 2123      FF
 2124              	.L113:
 2125 0cae 4889C3   		movq	%rax, %rbx
 2126 0cb1 E8000000 		call	__cxa_end_catch
 2126      00
 2127 0cb6 EB57     		jmp	.L105
 2128              	.L114:
  79:TestTestRunner.cpp **** }
 2129              		.loc 6 79 0 is_stmt 1
 2130 0cb8 4889C7   		movq	%rax, %rdi
 2131 0cbb E8000000 		call	__cxa_begin_catch
 2131      00
 2132              	.LEHB51:
 2133 0cc0 E8000000 		call	_ZN8UnitTest11CurrentTest7DetailsEv
 2133      00
 2134 0cc5 488B08   		movq	(%rax), %rcx
 2135 0cc8 488D4590 		leaq	-112(%rbp), %rax
 2136 0ccc BA4F0000 		movl	$79, %edx
 2136      00
 2137 0cd1 4889CE   		movq	%rcx, %rsi
 2138 0cd4 4889C7   		movq	%rax, %rdi
 2139 0cd7 E8000000 		call	_ZN8UnitTest11TestDetailsC1ERKS0_i
 2139      00
  79:TestTestRunner.cpp **** }
 2140              		.loc 6 79 0 is_stmt 0 discriminator 10
 2141 0cdc E8000000 		call	_ZN8UnitTest11CurrentTest7ResultsEv
 2141      00
 2142 0ce1 488B00   		movq	(%rax), %rax
 2143 0ce4 488D4D90 		leaq	-112(%rbp), %rcx
 2144 0ce8 BA000000 		movl	$.LC16, %edx
 2144      00
 2145 0ced 4889CE   		movq	%rcx, %rsi
 2146 0cf0 4889C7   		movq	%rax, %rdi
 2147 0cf3 E8000000 		call	_ZN8UnitTest11TestResults13OnTestFailureERKNS_11TestDetailsEPKc
 2147      00
 2148              	.LEHE51:
 2149              	.LEHB52:
  79:TestTestRunner.cpp **** }
 2150              		.loc 6 79 0 discriminator 14
 2151 0cf8 E8000000 		call	__cxa_end_catch
 2151      00
 2152              	.LEHE52:
  79:TestTestRunner.cpp **** }
 2153              		.loc 6 79 0
 2154 0cfd E93BFFFF 		jmp	.L107
 2154      FF
 2155              	.L115:
 2156 0d02 4889C3   		movq	%rax, %rbx
 2157 0d05 E8000000 		call	__cxa_end_catch
 2157      00
 2158 0d0a EB03     		jmp	.L105
 2159              	.L110:
 2160 0d0c 4889C3   		movq	%rax, %rbx
 2161              	.L105:
  74:TestTestRunner.cpp ****     list.Add(&test);
 2162              		.loc 6 74 0 is_stmt 1
 2163 0d0f 488D45B0 		leaq	-80(%rbp), %rax
 2164 0d13 4889C7   		movq	%rax, %rdi
 2165 0d16 E8999400 		call	_ZN12_GLOBAL__N_18MockTestD1Ev
 2165      00
 2166 0d1b 4889D8   		movq	%rbx, %rax
 2167 0d1e 4889C7   		movq	%rax, %rdi
 2168              	.LEHB53:
 2169 0d21 E8000000 		call	_Unwind_Resume
 2169      00
 2170              	.LEHE53:
 2171              	.L116:
 2172              		.loc 6 80 0
 2173 0d26 E8000000 		call	__stack_chk_fail
 2173      00
 2174              	.L109:
 2175 0d2b 4881C488 		addq	$136, %rsp
 2175      000000
 2176 0d32 5B       		popq	%rbx
 2177 0d33 5D       		popq	%rbp
 2178              		.cfi_def_cfa 7, 8
 2179 0d34 C3       		ret
 2180              		.cfi_endproc
 2181              	.LFE1117:
 2182              		.section	.gcc_except_table
 2183              		.align 4
 2184              	.LLSDA1117:
 2185 0118 FF       		.byte	0xff
 2186 0119 03       		.byte	0x3
 2187 011a 45       		.uleb128 .LLSDATT1117-.LLSDATTD1117
 2188              	.LLSDATTD1117:
 2189 011b 01       		.byte	0x1
 2190 011c 3D       		.uleb128 .LLSDACSE1117-.LLSDACSB1117
 2191              	.LLSDACSB1117:
 2192 011d 3E       		.uleb128 .LEHB43-.LFB1117
 2193 011e 05       		.uleb128 .LEHE43-.LEHB43
 2194 011f 00       		.uleb128 0
 2195 0120 00       		.uleb128 0
 2196 0121 5B       		.uleb128 .LEHB44-.LFB1117
 2197 0122 34       		.uleb128 .LEHE44-.LEHB44
 2198 0123 F603     		.uleb128 .L110-.LFB1117
 2199 0125 00       		.uleb128 0
 2200 0126 8F01     		.uleb128 .LEHB45-.LFB1117
 2201 0128 1C       		.uleb128 .LEHE45-.LEHB45
 2202 0129 CE02     		.uleb128 .L111-.LFB1117
 2203 012b 01       		.uleb128 0x1
 2204 012c C001     		.uleb128 .LEHB46-.LFB1117
 2205 012e 1E       		.uleb128 .LEHE46-.LEHB46
 2206 012f CC02     		.uleb128 .L112-.LFB1117
 2207 0131 01       		.uleb128 0x1
 2208 0132 DE01     		.uleb128 .LEHB47-.LFB1117
 2209 0134 49       		.uleb128 .LEHE47-.LEHB47
 2210 0135 A203     		.uleb128 .L114-.LFB1117
 2211 0137 01       		.uleb128 0x1
 2212 0138 AE02     		.uleb128 .LEHB48-.LFB1117
 2213 013a 05       		.uleb128 .LEHE48-.LEHB48
 2214 013b 00       		.uleb128 0
 2215 013c 00       		.uleb128 0
 2216 013d D602     		.uleb128 .LEHB49-.LFB1117
 2217 013f 38       		.uleb128 .LEHE49-.LEHB49
 2218 0140 9803     		.uleb128 .L113-.LFB1117
 2219 0142 00       		.uleb128 0
 2220 0143 8E03     		.uleb128 .LEHB50-.LFB1117
 2221 0145 05       		.uleb128 .LEHE50-.LEHB50
 2222 0146 F603     		.uleb128 .L110-.LFB1117
 2223 0148 00       		.uleb128 0
 2224 0149 AA03     		.uleb128 .LEHB51-.LFB1117
 2225 014b 38       		.uleb128 .LEHE51-.LEHB51
 2226 014c EC03     		.uleb128 .L115-.LFB1117
 2227 014e 00       		.uleb128 0
 2228 014f E203     		.uleb128 .LEHB52-.LFB1117
 2229 0151 05       		.uleb128 .LEHE52-.LEHB52
 2230 0152 F603     		.uleb128 .L110-.LFB1117
 2231 0154 00       		.uleb128 0
 2232 0155 8B04     		.uleb128 .LEHB53-.LFB1117
 2233 0157 05       		.uleb128 .LEHE53-.LEHB53
 2234 0158 00       		.uleb128 0
 2235 0159 00       		.uleb128 0
 2236              	.LLSDACSE1117:
 2237 015a 01       		.byte	0x1
 2238 015b 00       		.byte	0
 2239              		.align 4
 2240 015c 00000000 		.long	0
 2241              	
 2242              	.LLSDATT1117:
 2243              		.text
 2245              		.section	.rodata
 2246              	.LC17:
 2247 0232 66696C65 		.string	"filename"
 2247      6E616D65 
 2247      00
 2248              	.LC18:
 2249 023b 736F6D65 		.string	"somesuite"
 2249      73756974 
 2249      6500
 2250              	.LC19:
 2251 0245 736C6F77 		.string	"slow"
 2251      00
 2252              		.text
 2253 0d35 90       		.align 2
 2255              	_ZN12_GLOBAL__N_18SlowTestC2Ev:
 2256              	.LFB1119:
  81:TestTestRunner.cpp **** 
  82:TestTestRunner.cpp **** class SlowTest : public Test
  83:TestTestRunner.cpp **** {
  84:TestTestRunner.cpp **** public:
  85:TestTestRunner.cpp ****     SlowTest() : Test("slow", "somesuite", "filename", 123) {}
 2257              		.loc 6 85 0
 2258              		.cfi_startproc
 2259 0d36 55       		pushq	%rbp
 2260              		.cfi_def_cfa_offset 16
 2261              		.cfi_offset 6, -16
 2262 0d37 4889E5   		movq	%rsp, %rbp
 2263              		.cfi_def_cfa_register 6
 2264 0d3a 4883EC10 		subq	$16, %rsp
 2265 0d3e 48897DF8 		movq	%rdi, -8(%rbp)
 2266              	.LBB36:
 2267              		.loc 6 85 0
 2268 0d42 488B45F8 		movq	-8(%rbp), %rax
 2269 0d46 41B87B00 		movl	$123, %r8d
 2269      0000
 2270 0d4c B9000000 		movl	$.LC17, %ecx
 2270      00
 2271 0d51 BA000000 		movl	$.LC18, %edx
 2271      00
 2272 0d56 BE000000 		movl	$.LC19, %esi
 2272      00
 2273 0d5b 4889C7   		movq	%rax, %rdi
 2274 0d5e E8000000 		call	_ZN8UnitTest4TestC2EPKcS2_S2_i
 2274      00
 2275 0d63 BA000000 		movl	$_ZTVN12_GLOBAL__N_18SlowTestE+16, %edx
 2275      00
 2276 0d68 488B45F8 		movq	-8(%rbp), %rax
 2277 0d6c 488910   		movq	%rdx, (%rax)
 2278              	.LBE36:
 2279 0d6f 90       		nop
 2280 0d70 C9       		leave
 2281              		.cfi_def_cfa 7, 8
 2282 0d71 C3       		ret
 2283              		.cfi_endproc
 2284              	.LFE1119:
 2286              		.set	_ZN12_GLOBAL__N_18SlowTestC1Ev,_ZN12_GLOBAL__N_18SlowTestC2Ev
 2287              		.align 2
 2289              	_ZNK12_GLOBAL__N_18SlowTest7RunImplEv:
 2290              	.LFB1121:
  86:TestTestRunner.cpp ****     virtual void RunImpl() const
 2291              		.loc 6 86 0
 2292              		.cfi_startproc
 2293 0d72 55       		pushq	%rbp
 2294              		.cfi_def_cfa_offset 16
 2295              		.cfi_offset 6, -16
 2296 0d73 4889E5   		movq	%rsp, %rbp
 2297              		.cfi_def_cfa_register 6
 2298 0d76 4883EC10 		subq	$16, %rsp
 2299 0d7a 48897DF8 		movq	%rdi, -8(%rbp)
  87:TestTestRunner.cpp ****     {
  88:TestTestRunner.cpp ****         TimeHelpers::SleepMs(20);
 2300              		.loc 6 88 0
 2301 0d7e BF140000 		movl	$20, %edi
 2301      00
 2302 0d83 E8000000 		call	_ZN8UnitTest11TimeHelpers7SleepMsEi
 2302      00
  89:TestTestRunner.cpp ****     }
 2303              		.loc 6 89 0
 2304 0d88 90       		nop
 2305 0d89 C9       		leave
 2306              		.cfi_def_cfa 7, 8
 2307 0d8a C3       		ret
 2308              		.cfi_endproc
 2309              	.LFE1121:
 2311 0d8b 90       		.align 2
 2313              	_ZN12_GLOBAL__N_156TestRunnerFixtureTestFinishIsCalledWithCorrectTimeHelperC2ERKN8UnitTest11TestDet
 2314              	.LFB1123:
  90:TestTestRunner.cpp **** };
  91:TestTestRunner.cpp **** 
  92:TestTestRunner.cpp **** TEST_FIXTURE(TestRunnerFixture, TestFinishIsCalledWithCorrectTime)
 2315              		.loc 6 92 0
 2316              		.cfi_startproc
 2317 0d8c 55       		pushq	%rbp
 2318              		.cfi_def_cfa_offset 16
 2319              		.cfi_offset 6, -16
 2320 0d8d 4889E5   		movq	%rsp, %rbp
 2321              		.cfi_def_cfa_register 6
 2322 0d90 4883EC10 		subq	$16, %rsp
 2323 0d94 48897DF8 		movq	%rdi, -8(%rbp)
 2324 0d98 488975F0 		movq	%rsi, -16(%rbp)
 2325              	.LBB37:
 2326              		.loc 6 92 0
 2327 0d9c 488B45F8 		movq	-8(%rbp), %rax
 2328 0da0 4889C7   		movq	%rax, %rdi
 2329 0da3 E8C8F3FF 		call	_ZN12_GLOBAL__N_117TestRunnerFixtureC2Ev
 2329      FF
 2330 0da8 488B45F8 		movq	-8(%rbp), %rax
 2331 0dac 488B55F0 		movq	-16(%rbp), %rdx
 2332 0db0 48899058 		movq	%rdx, 2136(%rax)
 2332      080000
 2333              	.LBE37:
 2334 0db7 90       		nop
 2335 0db8 C9       		leave
 2336              		.cfi_def_cfa 7, 8
 2337 0db9 C3       		ret
 2338              		.cfi_endproc
 2339              	.LFE1123:
 2341              		.set	_ZN12_GLOBAL__N_156TestRunnerFixtureTestFinishIsCalledWithCorrectTimeHelperC1ERKN8UnitTest11T
 2342              		.section	.rodata
 2343 024a 00000000 		.align 8
 2343      0000
 2344              	.LC20:
 2345 0250 54657374 		.string	"TestFinishIsCalledWithCorrectTime"
 2345      46696E69 
 2345      73684973 
 2345      43616C6C 
 2345      65645769 
 2346              		.text
 2347              		.align 2
 2349              	_ZN12_GLOBAL__N_154TestTestRunnerFixtureTestFinishIsCalledWithCorrectTimeC2Ev:
 2350              	.LFB1126:
 2351              		.loc 6 92 0
 2352              		.cfi_startproc
 2353 0dba 55       		pushq	%rbp
 2354              		.cfi_def_cfa_offset 16
 2355              		.cfi_offset 6, -16
 2356 0dbb 4889E5   		movq	%rsp, %rbp
 2357              		.cfi_def_cfa_register 6
 2358 0dbe 4883EC10 		subq	$16, %rsp
 2359 0dc2 48897DF8 		movq	%rdi, -8(%rbp)
 2360              	.LBB38:
 2361              		.loc 6 92 0
 2362 0dc6 E8000000 		call	_ZN13UnitTestSuite12GetSuiteNameEv
 2362      00
 2363 0dcb 4889C2   		movq	%rax, %rdx
 2364 0dce 488B45F8 		movq	-8(%rbp), %rax
 2365 0dd2 41B85C00 		movl	$92, %r8d
 2365      0000
 2366 0dd8 B9000000 		movl	$.LC6, %ecx
 2366      00
 2367 0ddd BE000000 		movl	$.LC20, %esi
 2367      00
 2368 0de2 4889C7   		movq	%rax, %rdi
 2369 0de5 E8000000 		call	_ZN8UnitTest4TestC2EPKcS2_S2_i
 2369      00
 2370 0dea BA000000 		movl	$_ZTVN12_GLOBAL__N_154TestTestRunnerFixtureTestFinishIsCalledWithCorrectTimeE+16, %edx
 2370      00
 2371 0def 488B45F8 		movq	-8(%rbp), %rax
 2372 0df3 488910   		movq	%rdx, (%rax)
 2373              	.LBE38:
 2374 0df6 90       		nop
 2375 0df7 C9       		leave
 2376              		.cfi_def_cfa 7, 8
 2377 0df8 C3       		ret
 2378              		.cfi_endproc
 2379              	.LFE1126:
 2381              		.set	_ZN12_GLOBAL__N_154TestTestRunnerFixtureTestFinishIsCalledWithCorrectTimeC1Ev,_ZN12_GLOBAL__N
 2382              		.local	_ZN12_GLOBAL__N_162testTestRunnerFixtureTestFinishIsCalledWithCorrectTimeInstanceE
 2383              		.comm	_ZN12_GLOBAL__N_162testTestRunnerFixtureTestFinishIsCalledWithCorrectTimeInstanceE,56,32
 2384              		.local	_ZN12_GLOBAL__N_155adderTestRunnerFixtureTestFinishIsCalledWithCorrectTimeE
 2385              		.comm	_ZN12_GLOBAL__N_155adderTestRunnerFixtureTestFinishIsCalledWithCorrectTimeE,1,1
 2386 0df9 90       		.align 2
 2388              	_ZN12_GLOBAL__N_156TestRunnerFixtureTestFinishIsCalledWithCorrectTimeHelperD2Ev:
 2389              	.LFB1130:
 2390              		.loc 6 92 0
 2391              		.cfi_startproc
 2392 0dfa 55       		pushq	%rbp
 2393              		.cfi_def_cfa_offset 16
 2394              		.cfi_offset 6, -16
 2395 0dfb 4889E5   		movq	%rsp, %rbp
 2396              		.cfi_def_cfa_register 6
 2397 0dfe 4883EC10 		subq	$16, %rsp
 2398 0e02 48897DF8 		movq	%rdi, -8(%rbp)
 2399              	.LBB39:
 2400              		.loc 6 92 0
 2401 0e06 488B45F8 		movq	-8(%rbp), %rax
 2402 0e0a 4889C7   		movq	%rax, %rdi
 2403 0e0d E8ACF3FF 		call	_ZN12_GLOBAL__N_117TestRunnerFixtureD2Ev
 2403      FF
 2404              	.LBE39:
 2405 0e12 90       		nop
 2406 0e13 C9       		leave
 2407              		.cfi_def_cfa 7, 8
 2408 0e14 C3       		ret
 2409              		.cfi_endproc
 2410              	.LFE1130:
 2412              		.set	_ZN12_GLOBAL__N_156TestRunnerFixtureTestFinishIsCalledWithCorrectTimeHelperD1Ev,_ZN12_GLOBAL_
 2413 0e15 90       		.align 2
 2415              	_ZNK12_GLOBAL__N_154TestTestRunnerFixtureTestFinishIsCalledWithCorrectTime7RunImplEv:
 2416              	.LFB1128:
 2417              		.loc 6 92 0
 2418              		.cfi_startproc
 2419              		.cfi_personality 0x3,__gxx_personality_v0
 2420              		.cfi_lsda 0x3,.LLSDA1128
 2421 0e16 55       		pushq	%rbp
 2422              		.cfi_def_cfa_offset 16
 2423              		.cfi_offset 6, -16
 2424 0e17 4889E5   		movq	%rsp, %rbp
 2425              		.cfi_def_cfa_register 6
 2426 0e1a 4154     		pushq	%r12
 2427 0e1c 53       		pushq	%rbx
 2428 0e1d 4881ECC0 		subq	$2240, %rsp
 2428      080000
 2429              		.cfi_offset 12, -24
 2430              		.cfi_offset 3, -32
 2431 0e24 4889BD38 		movq	%rdi, -2248(%rbp)
 2431      F7FFFF
 2432              		.loc 6 92 0
 2433 0e2b 64488B04 		movq	%fs:40, %rax
 2433      25280000 
 2433      00
 2434 0e34 488945E8 		movq	%rax, -24(%rbp)
 2435 0e38 31C0     		xorl	%eax, %eax
 2436 0e3a C6854FF7 		movb	$0, -2225(%rbp)
 2436      FFFF00
 2437              	.LBB40:
 2438 0e41 488B8538 		movq	-2248(%rbp), %rax
 2438      F7FFFF
 2439 0e48 488D5008 		leaq	8(%rax), %rdx
 2440 0e4c 488D8580 		leaq	-2176(%rbp), %rax
 2440      F7FFFF
 2441 0e53 4889D6   		movq	%rdx, %rsi
 2442 0e56 4889C7   		movq	%rax, %rdi
 2443              	.LEHB54:
 2444 0e59 E82EFFFF 		call	_ZN12_GLOBAL__N_156TestRunnerFixtureTestFinishIsCalledWithCorrectTimeHelperC1ERKN8UnitTest11T
 2444      FF
 2445              	.LEHE54:
 2446              		.loc 6 92 0 is_stmt 0 discriminator 1
 2447 0e5e C6854FF7 		movb	$1, -2225(%rbp)
 2447      FFFF01
 2448 0e65 488B8538 		movq	-2248(%rbp), %rax
 2448      F7FFFF
 2449 0e6c 488D5008 		leaq	8(%rax), %rdx
 2450 0e70 488D8580 		leaq	-2176(%rbp), %rax
 2450      F7FFFF
 2451 0e77 4889D6   		movq	%rdx, %rsi
 2452 0e7a 4889C7   		movq	%rax, %rdi
 2453              	.LEHB55:
 2454 0e7d E8336100 		call	_ZN8UnitTest11ExecuteTestIN12_GLOBAL__N_156TestRunnerFixtureTestFinishIsCalledWithCorrectTime
 2454      00
 2455              	.LEHE55:
 2456              		.loc 6 92 0 discriminator 3
 2457 0e82 488D8580 		leaq	-2176(%rbp), %rax
 2457      F7FFFF
 2458 0e89 4889C7   		movq	%rax, %rdi
 2459              	.LEHB56:
 2460 0e8c E869FFFF 		call	_ZN12_GLOBAL__N_156TestRunnerFixtureTestFinishIsCalledWithCorrectTimeHelperD1Ev
 2460      FF
 2461              	.LEHE56:
 2462              	.LBE40:
 2463              		.loc 6 92 0
 2464 0e91 E9660200 		jmp	.L122
 2464      00
 2465              	.L137:
 2466 0e96 4989C4   		movq	%rax, %r12
 2467 0e99 4889D3   		movq	%rdx, %rbx
 2468              	.LBB41:
 2469 0e9c 488D8580 		leaq	-2176(%rbp), %rax
 2469      F7FFFF
 2470 0ea3 4889C7   		movq	%rax, %rdi
 2471 0ea6 E84FFFFF 		call	_ZN12_GLOBAL__N_156TestRunnerFixtureTestFinishIsCalledWithCorrectTimeHelperD1Ev
 2471      FF
 2472 0eab 4C89E0   		movq	%r12, %rax
 2473 0eae 4889DA   		movq	%rbx, %rdx
 2474 0eb1 EB00     		jmp	.L124
 2475              	.L136:
 2476              	.L124:
 2477 0eb3 4883FA01 		cmpq	$1, %rdx
 2478 0eb7 740F     		je	.L126
 2479 0eb9 4883FA02 		cmpq	$2, %rdx
 2480 0ebd 0F84A700 		je	.L127
 2480      0000
 2481 0ec3 E94B0100 		jmp	.L142
 2481      00
 2482              	.L126:
 2483              	.LBE41:
 2484              	.LBB42:
 2485 0ec8 4889C7   		movq	%rax, %rdi
 2486 0ecb E8000000 		call	__cxa_begin_catch
 2486      00
 2487 0ed0 48898550 		movq	%rax, -2224(%rbp)
 2487      F7FFFF
 2488 0ed7 488B8550 		movq	-2224(%rbp), %rax
 2488      F7FFFF
 2489 0ede 488B00   		movq	(%rax), %rax
 2490 0ee1 4883C010 		addq	$16, %rax
 2491 0ee5 488B00   		movq	(%rax), %rax
 2492 0ee8 488B9550 		movq	-2224(%rbp), %rdx
 2492      F7FFFF
 2493 0eef 4889D7   		movq	%rdx, %rdi
 2494 0ef2 FFD0     		call	*%rax
 2495 0ef4 4889C3   		movq	%rax, %rbx
 2496 0ef7 488B8550 		movq	-2224(%rbp), %rax
 2496      F7FFFF
 2497 0efe 4889C7   		movq	%rax, %rdi
 2498              	.LEHB57:
 2499 0f01 E8000000 		call	_ZNK8UnitTest15AssertException10LineNumberEv
 2499      00
 2500 0f06 4189C4   		movl	%eax, %r12d
 2501 0f09 488B8550 		movq	-2224(%rbp), %rax
 2501      F7FFFF
 2502 0f10 4889C7   		movq	%rax, %rdi
 2503 0f13 E8000000 		call	_ZNK8UnitTest15AssertException8FilenameEv
 2503      00
 2504              		.loc 6 92 0 discriminator 5
 2505 0f18 4889C1   		movq	%rax, %rcx
 2506 0f1b 488B8538 		movq	-2248(%rbp), %rax
 2506      F7FFFF
 2507 0f22 488B5008 		movq	8(%rax), %rdx
 2508 0f26 488B8538 		movq	-2248(%rbp), %rax
 2508      F7FFFF
 2509 0f2d 488B7010 		movq	16(%rax), %rsi
 2510 0f31 488D8560 		leaq	-2208(%rbp), %rax
 2510      F7FFFF
 2511 0f38 4589E0   		movl	%r12d, %r8d
 2512 0f3b 4889C7   		movq	%rax, %rdi
 2513 0f3e E8000000 		call	_ZN8UnitTest11TestDetailsC1EPKcS2_S2_i
 2513      00
 2514              		.loc 6 92 0 discriminator 9
 2515 0f43 E8000000 		call	_ZN8UnitTest11CurrentTest7ResultsEv
 2515      00
 2516 0f48 488B00   		movq	(%rax), %rax
 2517 0f4b 488D8D60 		leaq	-2208(%rbp), %rcx
 2517      F7FFFF
 2518 0f52 4889DA   		movq	%rbx, %rdx
 2519 0f55 4889CE   		movq	%rcx, %rsi
 2520 0f58 4889C7   		movq	%rax, %rdi
 2521 0f5b E8000000 		call	_ZN8UnitTest11TestResults13OnTestFailureERKNS_11TestDetailsEPKc
 2521      00
 2522              	.LEHE57:
 2523              		.loc 6 92 0 discriminator 13
 2524 0f60 E8000000 		call	__cxa_end_catch
 2524      00
 2525              	.LBE42:
 2526 0f65 E9920100 		jmp	.L122
 2526      00
 2527              	.L127:
 2528              	.LBB43:
 2529              		.loc 6 92 0
 2530 0f6a 4889C7   		movq	%rax, %rdi
 2531 0f6d E8000000 		call	__cxa_begin_catch
 2531      00
 2532 0f72 48898558 		movq	%rax, -2216(%rbp)
 2532      F7FFFF
 2533              	.LBB44:
 2534 0f79 488D8580 		leaq	-2176(%rbp), %rax
 2534      F7FFFF
 2535 0f80 4889C7   		movq	%rax, %rdi
 2536              	.LEHB58:
 2537 0f83 E8000000 		call	_ZN8UnitTest15MemoryOutStreamC1Ev
 2537      00
 2538              	.LEHE58:
 2539              		.loc 6 92 0 discriminator 15
 2540 0f88 488B8558 		movq	-2216(%rbp), %rax
 2540      F7FFFF
 2541 0f8f 488B00   		movq	(%rax), %rax
 2542 0f92 4883C010 		addq	$16, %rax
 2543 0f96 488B00   		movq	(%rax), %rax
 2544 0f99 488B9558 		movq	-2216(%rbp), %rdx
 2544      F7FFFF
 2545 0fa0 4889D7   		movq	%rdx, %rdi
 2546 0fa3 FFD0     		call	*%rax
 2547 0fa5 4889C3   		movq	%rax, %rbx
 2548 0fa8 488D8580 		leaq	-2176(%rbp), %rax
 2548      F7FFFF
 2549 0faf BE000000 		movl	$.LC8, %esi
 2549      00
 2550 0fb4 4889C7   		movq	%rax, %rdi
 2551              	.LEHB59:
 2552 0fb7 E8000000 		call	_ZStlsISt11char_traitsIcEERSt13basic_ostreamIcT_ES5_PKc
 2552      00
 2553 0fbc 4889DE   		movq	%rbx, %rsi
 2554 0fbf 4889C7   		movq	%rax, %rdi
 2555 0fc2 E8000000 		call	_ZStlsISt11char_traitsIcEERSt13basic_ostreamIcT_ES5_PKc
 2555      00
 2556              		.loc 6 92 0 discriminator 19
 2557 0fc7 488D8580 		leaq	-2176(%rbp), %rax
 2557      F7FFFF
 2558 0fce 4889C7   		movq	%rax, %rdi
 2559 0fd1 E8000000 		call	_ZNK8UnitTest15MemoryOutStream7GetTextEv
 2559      00
 2560 0fd6 4989C4   		movq	%rax, %r12
 2561 0fd9 488B8538 		movq	-2248(%rbp), %rax
 2561      F7FFFF
 2562 0fe0 488D5808 		leaq	8(%rax), %rbx
 2563 0fe4 E8000000 		call	_ZN8UnitTest11CurrentTest7ResultsEv
 2563      00
 2564              		.loc 6 92 0 discriminator 21
 2565 0fe9 488B00   		movq	(%rax), %rax
 2566 0fec 4C89E2   		movq	%r12, %rdx
 2567 0fef 4889DE   		movq	%rbx, %rsi
 2568 0ff2 4889C7   		movq	%rax, %rdi
 2569 0ff5 E8000000 		call	_ZN8UnitTest11TestResults13OnTestFailureERKNS_11TestDetailsEPKc
 2569      00
 2570              	.LEHE59:
 2571              		.loc 6 92 0 discriminator 25
 2572 0ffa 488D8580 		leaq	-2176(%rbp), %rax
 2572      F7FFFF
 2573 1001 4889C7   		movq	%rax, %rdi
 2574              	.LEHB60:
 2575 1004 E8000000 		call	_ZN8UnitTest15MemoryOutStreamD1Ev
 2575      00
 2576              	.LEHE60:
 2577              	.LBE44:
 2578              		.loc 6 92 0 discriminator 26
 2579 1009 E8000000 		call	__cxa_end_catch
 2579      00
 2580              	.LBE43:
 2581 100e E9E90000 		jmp	.L122
 2581      00
 2582              	.L142:
 2583              		.loc 6 92 0
 2584 1013 4889C7   		movq	%rax, %rdi
 2585 1016 E8000000 		call	__cxa_begin_catch
 2585      00
 2586 101b 80BD4FF7 		cmpb	$0, -2225(%rbp)
 2586      FFFF00
 2587 1022 7443     		je	.L129
 2588              		.loc 6 92 0 discriminator 28
 2589 1024 488B8538 		movq	-2248(%rbp), %rax
 2589      F7FFFF
 2590 102b 488D4808 		leaq	8(%rax), %rcx
 2591 102f 488D8560 		leaq	-2208(%rbp), %rax
 2591      F7FFFF
 2592 1036 BA5C0000 		movl	$92, %edx
 2592      00
 2593 103b 4889CE   		movq	%rcx, %rsi
 2594 103e 4889C7   		movq	%rax, %rdi
 2595              	.LEHB61:
 2596 1041 E8000000 		call	_ZN8UnitTest11TestDetailsC1ERKS0_i
 2596      00
 2597              		.loc 6 92 0 discriminator 31
 2598 1046 E8000000 		call	_ZN8UnitTest11CurrentTest7ResultsEv
 2598      00
 2599 104b 488B00   		movq	(%rax), %rax
 2600 104e 488D8D60 		leaq	-2208(%rbp), %rcx
 2600      F7FFFF
 2601 1055 BA000000 		movl	$.LC9, %edx
 2601      00
 2602 105a 4889CE   		movq	%rcx, %rsi
 2603 105d 4889C7   		movq	%rax, %rdi
 2604 1060 E8000000 		call	_ZN8UnitTest11TestResults13OnTestFailureERKNS_11TestDetailsEPKc
 2604      00
 2605 1065 EB41     		jmp	.L130
 2606              	.L129:
 2607              		.loc 6 92 0 discriminator 29
 2608 1067 488B8538 		movq	-2248(%rbp), %rax
 2608      F7FFFF
 2609 106e 488D4808 		leaq	8(%rax), %rcx
 2610 1072 488D8560 		leaq	-2208(%rbp), %rax
 2610      F7FFFF
 2611 1079 BA5C0000 		movl	$92, %edx
 2611      00
 2612 107e 4889CE   		movq	%rcx, %rsi
 2613 1081 4889C7   		movq	%rax, %rdi
 2614 1084 E8000000 		call	_ZN8UnitTest11TestDetailsC1ERKS0_i
 2614      00
 2615              		.loc 6 92 0 discriminator 38
 2616 1089 E8000000 		call	_ZN8UnitTest11CurrentTest7ResultsEv
 2616      00
 2617 108e 488B00   		movq	(%rax), %rax
 2618 1091 488D8D60 		leaq	-2208(%rbp), %rcx
 2618      F7FFFF
 2619 1098 BA000000 		movl	$.LC10, %edx
 2619      00
 2620 109d 4889CE   		movq	%rcx, %rsi
 2621 10a0 4889C7   		movq	%rax, %rdi
 2622 10a3 E8000000 		call	_ZN8UnitTest11TestResults13OnTestFailureERKNS_11TestDetailsEPKc
 2622      00
 2623              	.LEHE61:
 2624              	.L130:
 2625              	.LEHB62:
 2626              		.loc 6 92 0 discriminator 43
 2627 10a8 E8000000 		call	__cxa_end_catch
 2627      00
 2628 10ad EB4D     		jmp	.L122
 2629              	.L138:
 2630 10af 4889C3   		movq	%rax, %rbx
 2631              	.LBB46:
 2632              		.loc 6 92 0
 2633 10b2 E8000000 		call	__cxa_end_catch
 2633      00
 2634 10b7 4889D8   		movq	%rbx, %rax
 2635 10ba 4889C7   		movq	%rax, %rdi
 2636 10bd E8000000 		call	_Unwind_Resume
 2636      00
 2637              	.LEHE62:
 2638              	.L140:
 2639 10c2 4889C3   		movq	%rax, %rbx
 2640              	.LBE46:
 2641              	.LBB47:
 2642              	.LBB45:
 2643 10c5 488D8580 		leaq	-2176(%rbp), %rax
 2643      F7FFFF
 2644 10cc 4889C7   		movq	%rax, %rdi
 2645 10cf E8000000 		call	_ZN8UnitTest15MemoryOutStreamD1Ev
 2645      00
 2646 10d4 EB03     		jmp	.L133
 2647              	.L139:
 2648 10d6 4889C3   		movq	%rax, %rbx
 2649              	.L133:
 2650              	.LBE45:
 2651 10d9 E8000000 		call	__cxa_end_catch
 2651      00
 2652 10de 4889D8   		movq	%rbx, %rax
 2653 10e1 4889C7   		movq	%rax, %rdi
 2654              	.LEHB63:
 2655 10e4 E8000000 		call	_Unwind_Resume
 2655      00
 2656              	.LEHE63:
 2657              	.L141:
 2658 10e9 4889C3   		movq	%rax, %rbx
 2659              	.LBE47:
 2660 10ec E8000000 		call	__cxa_end_catch
 2660      00
 2661 10f1 4889D8   		movq	%rbx, %rax
 2662 10f4 4889C7   		movq	%rax, %rdi
 2663              	.LEHB64:
 2664 10f7 E8000000 		call	_Unwind_Resume
 2664      00
 2665              	.LEHE64:
 2666              	.L122:
 2667 10fc 488B45E8 		movq	-24(%rbp), %rax
 2668 1100 64483304 		xorq	%fs:40, %rax
 2668      25280000 
 2668      00
 2669 1109 7405     		je	.L135
 2670 110b E8000000 		call	__stack_chk_fail
 2670      00
 2671              	.L135:
 2672 1110 4881C4C0 		addq	$2240, %rsp
 2672      080000
 2673 1117 5B       		popq	%rbx
 2674 1118 415C     		popq	%r12
 2675 111a 5D       		popq	%rbp
 2676              		.cfi_def_cfa 7, 8
 2677 111b C3       		ret
 2678              		.cfi_endproc
 2679              	.LFE1128:
 2680              		.section	.gcc_except_table
 2681              		.align 4
 2682              	.LLSDA1128:
 2683 0160 FF       		.byte	0xff
 2684 0161 03       		.byte	0x3
 2685 0162 55       		.uleb128 .LLSDATT1128-.LLSDATTD1128
 2686              	.LLSDATTD1128:
 2687 0163 01       		.byte	0x1
 2688 0164 3C       		.uleb128 .LLSDACSE1128-.LLSDACSB1128
 2689              	.LLSDACSB1128:
 2690 0165 43       		.uleb128 .LEHB54-.LFB1128
 2691 0166 05       		.uleb128 .LEHE54-.LEHB54
 2692 0167 9D01     		.uleb128 .L136-.LFB1128
 2693 0169 05       		.uleb128 0x5
 2694 016a 67       		.uleb128 .LEHB55-.LFB1128
 2695 016b 05       		.uleb128 .LEHE55-.LEHB55
 2696 016c 8001     		.uleb128 .L137-.LFB1128
 2697 016e 07       		.uleb128 0x7
 2698 016f 76       		.uleb128 .LEHB56-.LFB1128
 2699 0170 05       		.uleb128 .LEHE56-.LEHB56
 2700 0171 9D01     		.uleb128 .L136-.LFB1128
 2701 0173 05       		.uleb128 0x5
 2702 0174 EB01     		.uleb128 .LEHB57-.LFB1128
 2703 0176 5F       		.uleb128 .LEHE57-.LEHB57
 2704 0177 9905     		.uleb128 .L138-.LFB1128
 2705 0179 00       		.uleb128 0
 2706 017a ED02     		.uleb128 .LEHB58-.LFB1128
 2707 017c 05       		.uleb128 .LEHE58-.LEHB58
 2708 017d C005     		.uleb128 .L139-.LFB1128
 2709 017f 00       		.uleb128 0
 2710 0180 A103     		.uleb128 .LEHB59-.LFB1128
 2711 0182 43       		.uleb128 .LEHE59-.LEHB59
 2712 0183 AC05     		.uleb128 .L140-.LFB1128
 2713 0185 00       		.uleb128 0
 2714 0186 EE03     		.uleb128 .LEHB60-.LFB1128
 2715 0188 05       		.uleb128 .LEHE60-.LEHB60
 2716 0189 C005     		.uleb128 .L139-.LFB1128
 2717 018b 00       		.uleb128 0
 2718 018c AB04     		.uleb128 .LEHB61-.LFB1128
 2719 018e 67       		.uleb128 .LEHE61-.LEHB61
 2720 018f D305     		.uleb128 .L141-.LFB1128
 2721 0191 00       		.uleb128 0
 2722 0192 9205     		.uleb128 .LEHB62-.LFB1128
 2723 0194 1A       		.uleb128 .LEHE62-.LEHB62
 2724 0195 00       		.uleb128 0
 2725 0196 00       		.uleb128 0
 2726 0197 CE05     		.uleb128 .LEHB63-.LFB1128
 2727 0199 05       		.uleb128 .LEHE63-.LEHB63
 2728 019a 00       		.uleb128 0
 2729 019b 00       		.uleb128 0
 2730 019c E105     		.uleb128 .LEHB64-.LFB1128
 2731 019e 05       		.uleb128 .LEHE64-.LEHB64
 2732 019f 00       		.uleb128 0
 2733 01a0 00       		.uleb128 0
 2734              	.LLSDACSE1128:
 2735 01a1 03       		.byte	0x3
 2736 01a2 00       		.byte	0
 2737 01a3 02       		.byte	0x2
 2738 01a4 7D       		.byte	0x7d
 2739 01a5 01       		.byte	0x1
 2740 01a6 7D       		.byte	0x7d
 2741 01a7 00       		.byte	0
 2742 01a8 7D       		.byte	0x7d
 2743 01a9 000000   		.align 4
 2744 01ac 00000000 		.long	0
 2745              	
 2746 01b0 00000000 		.long	_ZTISt9exception
 2747 01b4 00000000 		.long	_ZTIN8UnitTest15AssertExceptionE
 2748              	.LLSDATT1128:
 2749              		.text
 2751              		.section	.rodata
 2752 0272 00000000 		.align 8
 2752      0000
 2753              	.LC23:
 2754 0278 7265706F 		.string	"reporter.lastFinishedTestTime >= 0.005f && reporter.lastFinishedTestTime <= 0.050f"
 2754      72746572 
 2754      2E6C6173 
 2754      7446696E 
 2754      69736865 
 2755 02cb 00000000 		.align 8
 2755      00
 2756              	.LC24:
 2757 02d0 556E6861 		.string	"Unhandled exception in CHECK(reporter.lastFinishedTestTime >= 0.005f && reporter.lastFini
 2757      6E646C65 
 2757      64206578 
 2757      63657074 
 2757      696F6E20 
 2758              		.text
 2759              		.align 2
 2761              	_ZN12_GLOBAL__N_156TestRunnerFixtureTestFinishIsCalledWithCorrectTimeHelper7RunImplEv:
 2762              	.LFB1132:
  93:TestTestRunner.cpp **** {
 2763              		.loc 6 93 0 is_stmt 1
 2764              		.cfi_startproc
 2765              		.cfi_personality 0x3,__gxx_personality_v0
 2766              		.cfi_lsda 0x3,.LLSDA1132
 2767 111c 55       		pushq	%rbp
 2768              		.cfi_def_cfa_offset 16
 2769              		.cfi_offset 6, -16
 2770 111d 4889E5   		movq	%rsp, %rbp
 2771              		.cfi_def_cfa_register 6
 2772 1120 53       		pushq	%rbx
 2773 1121 4883EC78 		subq	$120, %rsp
 2774              		.cfi_offset 3, -24
 2775 1125 48897D88 		movq	%rdi, -120(%rbp)
 2776              		.loc 6 93 0
 2777 1129 64488B04 		movq	%fs:40, %rax
 2777      25280000 
 2777      00
 2778 1132 488945E8 		movq	%rax, -24(%rbp)
 2779 1136 31C0     		xorl	%eax, %eax
  94:TestTestRunner.cpp ****     SlowTest test;
 2780              		.loc 6 94 0
 2781 1138 488D45B0 		leaq	-80(%rbp), %rax
 2782 113c 4889C7   		movq	%rax, %rdi
 2783              	.LEHB65:
 2784 113f E8F2FBFF 		call	_ZN12_GLOBAL__N_18SlowTestC1Ev
 2784      FF
 2785              	.LEHE65:
  95:TestTestRunner.cpp ****     list.Add(&test);
 2786              		.loc 6 95 0
 2787 1144 488B4588 		movq	-120(%rbp), %rax
 2788 1148 488D9048 		leaq	2120(%rax), %rdx
 2788      080000
 2789 114f 488D45B0 		leaq	-80(%rbp), %rax
 2790 1153 4889C6   		movq	%rax, %rsi
 2791 1156 4889D7   		movq	%rdx, %rdi
 2792              	.LEHB66:
 2793 1159 E8000000 		call	_ZN8UnitTest8TestList3AddEPNS_4TestE
 2793      00
  96:TestTestRunner.cpp **** 
  97:TestTestRunner.cpp **** 	RunTestsIf(list, NULL, True(), 0);
 2794              		.loc 6 97 0
 2795 115e 488B4588 		movq	-120(%rbp), %rax
 2796 1162 488DB048 		leaq	2120(%rax), %rsi
 2796      080000
 2797 1169 488B4588 		movq	-120(%rbp), %rax
 2798 116d 488D5590 		leaq	-112(%rbp), %rdx
 2799 1171 41B80000 		movl	$0, %r8d
 2799      0000
 2800 1177 4889D1   		movq	%rdx, %rcx
 2801 117a BA000000 		movl	$0, %edx
 2801      00
 2802 117f 4889C7   		movq	%rax, %rdi
 2803 1182 E8F75A00 		call	_ZN12_GLOBAL__N_111FixtureBase10RunTestsIfIN8UnitTest4TrueEEEiRKNS2_8TestListEPKcRKT_i
 2803      00
 2804              	.LEHE66:
  98:TestTestRunner.cpp ****     CHECK(reporter.lastFinishedTestTime >= 0.005f && reporter.lastFinishedTestTime <= 0.050f);
 2805              		.loc 6 98 0 discriminator 2
 2806 1187 488B4588 		movq	-120(%rbp), %rax
 2807 118b F30F1080 		movss	2096(%rax), %xmm0
 2807      30080000 
 2808 1193 0F2E0500 		ucomiss	.LC21(%rip), %xmm0
 2808      000000
 2809 119a 7220     		jb	.L144
 2810              		.loc 6 98 0 is_stmt 0 discriminator 1
 2811 119c 488B4588 		movq	-120(%rbp), %rax
 2812 11a0 F30F1088 		movss	2096(%rax), %xmm1
 2812      30080000 
 2813 11a8 F30F1005 		movss	.LC22(%rip), %xmm0
 2813      00000000 
 2814 11b0 0F2EC1   		ucomiss	%xmm1, %xmm0
 2815 11b3 7207     		jb	.L144
 2816              		.loc 6 98 0 discriminator 3
 2817 11b5 B8010000 		movl	$1, %eax
 2817      00
 2818 11ba EB05     		jmp	.L147
 2819              	.L144:
 2820              		.loc 6 98 0 discriminator 4
 2821 11bc B8000000 		movl	$0, %eax
 2821      00
 2822              	.L147:
 2823              		.loc 6 98 0 discriminator 6
 2824 11c1 0FB6C0   		movzbl	%al, %eax
 2825 11c4 89C7     		movl	%eax, %edi
 2826 11c6 E8000000 		call	_ZN8UnitTest5CheckIbEEbT_
 2826      00
 2827 11cb 83F001   		xorl	$1, %eax
 2828 11ce 84C0     		testb	%al, %al
 2829 11d0 7438     		je	.L148
 2830              	.LEHB67:
 2831              		.loc 6 98 0 discriminator 7
 2832 11d2 E8000000 		call	_ZN8UnitTest11CurrentTest7DetailsEv
 2832      00
 2833 11d7 488B08   		movq	(%rax), %rcx
 2834 11da 488D4590 		leaq	-112(%rbp), %rax
 2835 11de BA620000 		movl	$98, %edx
 2835      00
 2836 11e3 4889CE   		movq	%rcx, %rsi
 2837 11e6 4889C7   		movq	%rax, %rdi
 2838 11e9 E8000000 		call	_ZN8UnitTest11TestDetailsC1ERKS0_i
 2838      00
 2839              		.loc 6 98 0 discriminator 9
 2840 11ee E8000000 		call	_ZN8UnitTest11CurrentTest7ResultsEv
 2840      00
 2841 11f3 488B00   		movq	(%rax), %rax
 2842 11f6 488D4D90 		leaq	-112(%rbp), %rcx
 2843 11fa BA000000 		movl	$.LC23, %edx
 2843      00
 2844 11ff 4889CE   		movq	%rcx, %rsi
 2845 1202 4889C7   		movq	%rax, %rdi
 2846 1205 E8000000 		call	_ZN8UnitTest11TestResults13OnTestFailureERKNS_11TestDetailsEPKc
 2846      00
 2847              	.LEHE67:
 2848              	.L148:
  94:TestTestRunner.cpp ****     list.Add(&test);
 2849              		.loc 6 94 0 is_stmt 1
 2850 120a 488D45B0 		leaq	-80(%rbp), %rax
 2851 120e 4889C7   		movq	%rax, %rdi
 2852              	.LEHB68:
 2853 1211 E8788E00 		call	_ZN12_GLOBAL__N_18SlowTestD1Ev
 2853      00
 2854              	.LEHE68:
  99:TestTestRunner.cpp **** }
 2855              		.loc 6 99 0
 2856 1216 90       		nop
 2857 1217 488B45E8 		movq	-24(%rbp), %rax
 2858 121b 64483304 		xorq	%fs:40, %rax
 2858      25280000 
 2858      00
 2859 1224 7472     		je	.L152
 2860 1226 EB6B     		jmp	.L158
 2861              	.L154:
  98:TestTestRunner.cpp ****     CHECK(reporter.lastFinishedTestTime >= 0.005f && reporter.lastFinishedTestTime <= 0.050f);
 2862              		.loc 6 98 0
 2863 1228 4889C7   		movq	%rax, %rdi
 2864 122b E8000000 		call	__cxa_begin_catch
 2864      00
 2865              	.LEHB69:
 2866 1230 E8000000 		call	_ZN8UnitTest11CurrentTest7DetailsEv
 2866      00
 2867 1235 488B08   		movq	(%rax), %rcx
 2868 1238 488D4590 		leaq	-112(%rbp), %rax
 2869 123c BA620000 		movl	$98, %edx
 2869      00
 2870 1241 4889CE   		movq	%rcx, %rsi
 2871 1244 4889C7   		movq	%rax, %rdi
 2872 1247 E8000000 		call	_ZN8UnitTest11TestDetailsC1ERKS0_i
 2872      00
  98:TestTestRunner.cpp ****     CHECK(reporter.lastFinishedTestTime >= 0.005f && reporter.lastFinishedTestTime <= 0.050f);
 2873              		.loc 6 98 0 is_stmt 0 discriminator 17
 2874 124c E8000000 		call	_ZN8UnitTest11CurrentTest7ResultsEv
 2874      00
 2875 1251 488B00   		movq	(%rax), %rax
 2876 1254 488D4D90 		leaq	-112(%rbp), %rcx
 2877 1258 BA000000 		movl	$.LC24, %edx
 2877      00
 2878 125d 4889CE   		movq	%rcx, %rsi
 2879 1260 4889C7   		movq	%rax, %rdi
 2880 1263 E8000000 		call	_ZN8UnitTest11TestResults13OnTestFailureERKNS_11TestDetailsEPKc
 2880      00
 2881              	.LEHE69:
 2882              	.LEHB70:
  98:TestTestRunner.cpp ****     CHECK(reporter.lastFinishedTestTime >= 0.005f && reporter.lastFinishedTestTime <= 0.050f);
 2883              		.loc 6 98 0 discriminator 21
 2884 1268 E8000000 		call	__cxa_end_catch
 2884      00
 2885              	.LEHE70:
  98:TestTestRunner.cpp ****     CHECK(reporter.lastFinishedTestTime >= 0.005f && reporter.lastFinishedTestTime <= 0.050f);
 2886              		.loc 6 98 0
 2887 126d EB9B     		jmp	.L148
 2888              	.L155:
 2889 126f 4889C3   		movq	%rax, %rbx
 2890 1272 E8000000 		call	__cxa_end_catch
 2890      00
 2891 1277 EB03     		jmp	.L151
 2892              	.L153:
 2893 1279 4889C3   		movq	%rax, %rbx
 2894              	.L151:
  94:TestTestRunner.cpp ****     list.Add(&test);
 2895              		.loc 6 94 0 is_stmt 1
 2896 127c 488D45B0 		leaq	-80(%rbp), %rax
 2897 1280 4889C7   		movq	%rax, %rdi
 2898 1283 E8068E00 		call	_ZN12_GLOBAL__N_18SlowTestD1Ev
 2898      00
 2899 1288 4889D8   		movq	%rbx, %rax
 2900 128b 4889C7   		movq	%rax, %rdi
 2901              	.LEHB71:
 2902 128e E8000000 		call	_Unwind_Resume
 2902      00
 2903              	.LEHE71:
 2904              	.L158:
 2905              		.loc 6 99 0
 2906 1293 E8000000 		call	__stack_chk_fail
 2906      00
 2907              	.L152:
 2908 1298 4883C478 		addq	$120, %rsp
 2909 129c 5B       		popq	%rbx
 2910 129d 5D       		popq	%rbp
 2911              		.cfi_def_cfa 7, 8
 2912 129e C3       		ret
 2913              		.cfi_endproc
 2914              	.LFE1132:
 2915              		.section	.gcc_except_table
 2916              		.align 4
 2917              	.LLSDA1132:
 2918 01b8 FF       		.byte	0xff
 2919 01b9 03       		.byte	0x3
 2920 01ba 2D       		.uleb128 .LLSDATT1132-.LLSDATTD1132
 2921              	.LLSDATTD1132:
 2922 01bb 01       		.byte	0x1
 2923 01bc 25       		.uleb128 .LLSDACSE1132-.LLSDACSB1132
 2924              	.LLSDACSB1132:
 2925 01bd 23       		.uleb128 .LEHB65-.LFB1132
 2926 01be 05       		.uleb128 .LEHE65-.LEHB65
 2927 01bf 00       		.uleb128 0
 2928 01c0 00       		.uleb128 0
 2929 01c1 3D       		.uleb128 .LEHB66-.LFB1132
 2930 01c2 2E       		.uleb128 .LEHE66-.LEHB66
 2931 01c3 DD02     		.uleb128 .L153-.LFB1132
 2932 01c5 00       		.uleb128 0
 2933 01c6 B601     		.uleb128 .LEHB67-.LFB1132
 2934 01c8 38       		.uleb128 .LEHE67-.LEHB67
 2935 01c9 8C02     		.uleb128 .L154-.LFB1132
 2936 01cb 01       		.uleb128 0x1
 2937 01cc F501     		.uleb128 .LEHB68-.LFB1132
 2938 01ce 05       		.uleb128 .LEHE68-.LEHB68
 2939 01cf 00       		.uleb128 0
 2940 01d0 00       		.uleb128 0
 2941 01d1 9402     		.uleb128 .LEHB69-.LFB1132
 2942 01d3 38       		.uleb128 .LEHE69-.LEHB69
 2943 01d4 D302     		.uleb128 .L155-.LFB1132
 2944 01d6 00       		.uleb128 0
 2945 01d7 CC02     		.uleb128 .LEHB70-.LFB1132
 2946 01d9 05       		.uleb128 .LEHE70-.LEHB70
 2947 01da DD02     		.uleb128 .L153-.LFB1132
 2948 01dc 00       		.uleb128 0
 2949 01dd F202     		.uleb128 .LEHB71-.LFB1132
 2950 01df 05       		.uleb128 .LEHE71-.LEHB71
 2951 01e0 00       		.uleb128 0
 2952 01e1 00       		.uleb128 0
 2953              	.LLSDACSE1132:
 2954 01e2 01       		.byte	0x1
 2955 01e3 00       		.byte	0
 2956              		.align 4
 2957 01e4 00000000 		.long	0
 2958              	
 2959              	.LLSDATT1132:
 2960              		.text
 2962 129f 90       		.align 2
 2964              	_ZN12_GLOBAL__N_158TestRunnerFixtureFailureCountIsZeroWhenNoTestsAreRunHelperC2ERKN8UnitTest11TestD
 2965              	.LFB1134:
 100:TestTestRunner.cpp **** 
 101:TestTestRunner.cpp **** TEST_FIXTURE(TestRunnerFixture, FailureCountIsZeroWhenNoTestsAreRun)
 2966              		.loc 6 101 0
 2967              		.cfi_startproc
 2968 12a0 55       		pushq	%rbp
 2969              		.cfi_def_cfa_offset 16
 2970              		.cfi_offset 6, -16
 2971 12a1 4889E5   		movq	%rsp, %rbp
 2972              		.cfi_def_cfa_register 6
 2973 12a4 4883EC10 		subq	$16, %rsp
 2974 12a8 48897DF8 		movq	%rdi, -8(%rbp)
 2975 12ac 488975F0 		movq	%rsi, -16(%rbp)
 2976              	.LBB48:
 2977              		.loc 6 101 0
 2978 12b0 488B45F8 		movq	-8(%rbp), %rax
 2979 12b4 4889C7   		movq	%rax, %rdi
 2980 12b7 E8B4EEFF 		call	_ZN12_GLOBAL__N_117TestRunnerFixtureC2Ev
 2980      FF
 2981 12bc 488B45F8 		movq	-8(%rbp), %rax
 2982 12c0 488B55F0 		movq	-16(%rbp), %rdx
 2983 12c4 48899058 		movq	%rdx, 2136(%rax)
 2983      080000
 2984              	.LBE48:
 2985 12cb 90       		nop
 2986 12cc C9       		leave
 2987              		.cfi_def_cfa 7, 8
 2988 12cd C3       		ret
 2989              		.cfi_endproc
 2990              	.LFE1134:
 2992              		.set	_ZN12_GLOBAL__N_158TestRunnerFixtureFailureCountIsZeroWhenNoTestsAreRunHelperC1ERKN8UnitTest1
 2993              		.section	.rodata
 2994 0341 00000000 		.align 8
 2994      000000
 2995              	.LC25:
 2996 0348 4661696C 		.string	"FailureCountIsZeroWhenNoTestsAreRun"
 2996      75726543 
 2996      6F756E74 
 2996      49735A65 
 2996      726F5768 
 2997              		.text
 2998              		.align 2
 3000              	_ZN12_GLOBAL__N_156TestTestRunnerFixtureFailureCountIsZeroWhenNoTestsAreRunC2Ev:
 3001              	.LFB1137:
 3002              		.loc 6 101 0
 3003              		.cfi_startproc
 3004 12ce 55       		pushq	%rbp
 3005              		.cfi_def_cfa_offset 16
 3006              		.cfi_offset 6, -16
 3007 12cf 4889E5   		movq	%rsp, %rbp
 3008              		.cfi_def_cfa_register 6
 3009 12d2 4883EC10 		subq	$16, %rsp
 3010 12d6 48897DF8 		movq	%rdi, -8(%rbp)
 3011              	.LBB49:
 3012              		.loc 6 101 0
 3013 12da E8000000 		call	_ZN13UnitTestSuite12GetSuiteNameEv
 3013      00
 3014 12df 4889C2   		movq	%rax, %rdx
 3015 12e2 488B45F8 		movq	-8(%rbp), %rax
 3016 12e6 41B86500 		movl	$101, %r8d
 3016      0000
 3017 12ec B9000000 		movl	$.LC6, %ecx
 3017      00
 3018 12f1 BE000000 		movl	$.LC25, %esi
 3018      00
 3019 12f6 4889C7   		movq	%rax, %rdi
 3020 12f9 E8000000 		call	_ZN8UnitTest4TestC2EPKcS2_S2_i
 3020      00
 3021 12fe BA000000 		movl	$_ZTVN12_GLOBAL__N_156TestTestRunnerFixtureFailureCountIsZeroWhenNoTestsAreRunE+16, %edx
 3021      00
 3022 1303 488B45F8 		movq	-8(%rbp), %rax
 3023 1307 488910   		movq	%rdx, (%rax)
 3024              	.LBE49:
 3025 130a 90       		nop
 3026 130b C9       		leave
 3027              		.cfi_def_cfa 7, 8
 3028 130c C3       		ret
 3029              		.cfi_endproc
 3030              	.LFE1137:
 3032              		.set	_ZN12_GLOBAL__N_156TestTestRunnerFixtureFailureCountIsZeroWhenNoTestsAreRunC1Ev,_ZN12_GLOBAL_
 3033              		.local	_ZN12_GLOBAL__N_164testTestRunnerFixtureFailureCountIsZeroWhenNoTestsAreRunInstanceE
 3034              		.comm	_ZN12_GLOBAL__N_164testTestRunnerFixtureFailureCountIsZeroWhenNoTestsAreRunInstanceE,56,32
 3035              		.local	_ZN12_GLOBAL__N_157adderTestRunnerFixtureFailureCountIsZeroWhenNoTestsAreRunE
 3036              		.comm	_ZN12_GLOBAL__N_157adderTestRunnerFixtureFailureCountIsZeroWhenNoTestsAreRunE,1,1
 3037 130d 90       		.align 2
 3039              	_ZN12_GLOBAL__N_158TestRunnerFixtureFailureCountIsZeroWhenNoTestsAreRunHelperD2Ev:
 3040              	.LFB1141:
 3041              		.loc 6 101 0
 3042              		.cfi_startproc
 3043 130e 55       		pushq	%rbp
 3044              		.cfi_def_cfa_offset 16
 3045              		.cfi_offset 6, -16
 3046 130f 4889E5   		movq	%rsp, %rbp
 3047              		.cfi_def_cfa_register 6
 3048 1312 4883EC10 		subq	$16, %rsp
 3049 1316 48897DF8 		movq	%rdi, -8(%rbp)
 3050              	.LBB50:
 3051              		.loc 6 101 0
 3052 131a 488B45F8 		movq	-8(%rbp), %rax
 3053 131e 4889C7   		movq	%rax, %rdi
 3054 1321 E898EEFF 		call	_ZN12_GLOBAL__N_117TestRunnerFixtureD2Ev
 3054      FF
 3055              	.LBE50:
 3056 1326 90       		nop
 3057 1327 C9       		leave
 3058              		.cfi_def_cfa 7, 8
 3059 1328 C3       		ret
 3060              		.cfi_endproc
 3061              	.LFE1141:
 3063              		.set	_ZN12_GLOBAL__N_158TestRunnerFixtureFailureCountIsZeroWhenNoTestsAreRunHelperD1Ev,_ZN12_GLOBA
 3064 1329 90       		.align 2
 3066              	_ZNK12_GLOBAL__N_156TestTestRunnerFixtureFailureCountIsZeroWhenNoTestsAreRun7RunImplEv:
 3067              	.LFB1139:
 3068              		.loc 6 101 0
 3069              		.cfi_startproc
 3070              		.cfi_personality 0x3,__gxx_personality_v0
 3071              		.cfi_lsda 0x3,.LLSDA1139
 3072 132a 55       		pushq	%rbp
 3073              		.cfi_def_cfa_offset 16
 3074              		.cfi_offset 6, -16
 3075 132b 4889E5   		movq	%rsp, %rbp
 3076              		.cfi_def_cfa_register 6
 3077 132e 4154     		pushq	%r12
 3078 1330 53       		pushq	%rbx
 3079 1331 4881ECC0 		subq	$2240, %rsp
 3079      080000
 3080              		.cfi_offset 12, -24
 3081              		.cfi_offset 3, -32
 3082 1338 4889BD38 		movq	%rdi, -2248(%rbp)
 3082      F7FFFF
 3083              		.loc 6 101 0
 3084 133f 64488B04 		movq	%fs:40, %rax
 3084      25280000 
 3084      00
 3085 1348 488945E8 		movq	%rax, -24(%rbp)
 3086 134c 31C0     		xorl	%eax, %eax
 3087 134e C6854FF7 		movb	$0, -2225(%rbp)
 3087      FFFF00
 3088              	.LBB51:
 3089 1355 488B8538 		movq	-2248(%rbp), %rax
 3089      F7FFFF
 3090 135c 488D5008 		leaq	8(%rax), %rdx
 3091 1360 488D8580 		leaq	-2176(%rbp), %rax
 3091      F7FFFF
 3092 1367 4889D6   		movq	%rdx, %rsi
 3093 136a 4889C7   		movq	%rax, %rdi
 3094              	.LEHB72:
 3095 136d E82EFFFF 		call	_ZN12_GLOBAL__N_158TestRunnerFixtureFailureCountIsZeroWhenNoTestsAreRunHelperC1ERKN8UnitTest1
 3095      FF
 3096              	.LEHE72:
 3097              		.loc 6 101 0 is_stmt 0 discriminator 1
 3098 1372 C6854FF7 		movb	$1, -2225(%rbp)
 3098      FFFF01
 3099 1379 488B8538 		movq	-2248(%rbp), %rax
 3099      F7FFFF
 3100 1380 488D5008 		leaq	8(%rax), %rdx
 3101 1384 488D8580 		leaq	-2176(%rbp), %rax
 3101      F7FFFF
 3102 138b 4889D6   		movq	%rdx, %rsi
 3103 138e 4889C7   		movq	%rax, %rdi
 3104              	.LEHB73:
 3105 1391 E8DE5E00 		call	_ZN8UnitTest11ExecuteTestIN12_GLOBAL__N_158TestRunnerFixtureFailureCountIsZeroWhenNoTestsAreR
 3105      00
 3106              	.LEHE73:
 3107              		.loc 6 101 0 discriminator 3
 3108 1396 488D8580 		leaq	-2176(%rbp), %rax
 3108      F7FFFF
 3109 139d 4889C7   		movq	%rax, %rdi
 3110              	.LEHB74:
 3111 13a0 E869FFFF 		call	_ZN12_GLOBAL__N_158TestRunnerFixtureFailureCountIsZeroWhenNoTestsAreRunHelperD1Ev
 3111      FF
 3112              	.LEHE74:
 3113              	.LBE51:
 3114              		.loc 6 101 0
 3115 13a5 E9660200 		jmp	.L162
 3115      00
 3116              	.L177:
 3117 13aa 4989C4   		movq	%rax, %r12
 3118 13ad 4889D3   		movq	%rdx, %rbx
 3119              	.LBB52:
 3120 13b0 488D8580 		leaq	-2176(%rbp), %rax
 3120      F7FFFF
 3121 13b7 4889C7   		movq	%rax, %rdi
 3122 13ba E84FFFFF 		call	_ZN12_GLOBAL__N_158TestRunnerFixtureFailureCountIsZeroWhenNoTestsAreRunHelperD1Ev
 3122      FF
 3123 13bf 4C89E0   		movq	%r12, %rax
 3124 13c2 4889DA   		movq	%rbx, %rdx
 3125 13c5 EB00     		jmp	.L164
 3126              	.L176:
 3127              	.L164:
 3128 13c7 4883FA01 		cmpq	$1, %rdx
 3129 13cb 740F     		je	.L166
 3130 13cd 4883FA02 		cmpq	$2, %rdx
 3131 13d1 0F84A700 		je	.L167
 3131      0000
 3132 13d7 E94B0100 		jmp	.L182
 3132      00
 3133              	.L166:
 3134              	.LBE52:
 3135              	.LBB53:
 3136 13dc 4889C7   		movq	%rax, %rdi
 3137 13df E8000000 		call	__cxa_begin_catch
 3137      00
 3138 13e4 48898550 		movq	%rax, -2224(%rbp)
 3138      F7FFFF
 3139 13eb 488B8550 		movq	-2224(%rbp), %rax
 3139      F7FFFF
 3140 13f2 488B00   		movq	(%rax), %rax
 3141 13f5 4883C010 		addq	$16, %rax
 3142 13f9 488B00   		movq	(%rax), %rax
 3143 13fc 488B9550 		movq	-2224(%rbp), %rdx
 3143      F7FFFF
 3144 1403 4889D7   		movq	%rdx, %rdi
 3145 1406 FFD0     		call	*%rax
 3146 1408 4889C3   		movq	%rax, %rbx
 3147 140b 488B8550 		movq	-2224(%rbp), %rax
 3147      F7FFFF
 3148 1412 4889C7   		movq	%rax, %rdi
 3149              	.LEHB75:
 3150 1415 E8000000 		call	_ZNK8UnitTest15AssertException10LineNumberEv
 3150      00
 3151 141a 4189C4   		movl	%eax, %r12d
 3152 141d 488B8550 		movq	-2224(%rbp), %rax
 3152      F7FFFF
 3153 1424 4889C7   		movq	%rax, %rdi
 3154 1427 E8000000 		call	_ZNK8UnitTest15AssertException8FilenameEv
 3154      00
 3155              		.loc 6 101 0 discriminator 5
 3156 142c 4889C1   		movq	%rax, %rcx
 3157 142f 488B8538 		movq	-2248(%rbp), %rax
 3157      F7FFFF
 3158 1436 488B5008 		movq	8(%rax), %rdx
 3159 143a 488B8538 		movq	-2248(%rbp), %rax
 3159      F7FFFF
 3160 1441 488B7010 		movq	16(%rax), %rsi
 3161 1445 488D8560 		leaq	-2208(%rbp), %rax
 3161      F7FFFF
 3162 144c 4589E0   		movl	%r12d, %r8d
 3163 144f 4889C7   		movq	%rax, %rdi
 3164 1452 E8000000 		call	_ZN8UnitTest11TestDetailsC1EPKcS2_S2_i
 3164      00
 3165              		.loc 6 101 0 discriminator 9
 3166 1457 E8000000 		call	_ZN8UnitTest11CurrentTest7ResultsEv
 3166      00
 3167 145c 488B00   		movq	(%rax), %rax
 3168 145f 488D8D60 		leaq	-2208(%rbp), %rcx
 3168      F7FFFF
 3169 1466 4889DA   		movq	%rbx, %rdx
 3170 1469 4889CE   		movq	%rcx, %rsi
 3171 146c 4889C7   		movq	%rax, %rdi
 3172 146f E8000000 		call	_ZN8UnitTest11TestResults13OnTestFailureERKNS_11TestDetailsEPKc
 3172      00
 3173              	.LEHE75:
 3174              		.loc 6 101 0 discriminator 13
 3175 1474 E8000000 		call	__cxa_end_catch
 3175      00
 3176              	.LBE53:
 3177 1479 E9920100 		jmp	.L162
 3177      00
 3178              	.L167:
 3179              	.LBB54:
 3180              		.loc 6 101 0
 3181 147e 4889C7   		movq	%rax, %rdi
 3182 1481 E8000000 		call	__cxa_begin_catch
 3182      00
 3183 1486 48898558 		movq	%rax, -2216(%rbp)
 3183      F7FFFF
 3184              	.LBB55:
 3185 148d 488D8580 		leaq	-2176(%rbp), %rax
 3185      F7FFFF
 3186 1494 4889C7   		movq	%rax, %rdi
 3187              	.LEHB76:
 3188 1497 E8000000 		call	_ZN8UnitTest15MemoryOutStreamC1Ev
 3188      00
 3189              	.LEHE76:
 3190              		.loc 6 101 0 discriminator 15
 3191 149c 488B8558 		movq	-2216(%rbp), %rax
 3191      F7FFFF
 3192 14a3 488B00   		movq	(%rax), %rax
 3193 14a6 4883C010 		addq	$16, %rax
 3194 14aa 488B00   		movq	(%rax), %rax
 3195 14ad 488B9558 		movq	-2216(%rbp), %rdx
 3195      F7FFFF
 3196 14b4 4889D7   		movq	%rdx, %rdi
 3197 14b7 FFD0     		call	*%rax
 3198 14b9 4889C3   		movq	%rax, %rbx
 3199 14bc 488D8580 		leaq	-2176(%rbp), %rax
 3199      F7FFFF
 3200 14c3 BE000000 		movl	$.LC8, %esi
 3200      00
 3201 14c8 4889C7   		movq	%rax, %rdi
 3202              	.LEHB77:
 3203 14cb E8000000 		call	_ZStlsISt11char_traitsIcEERSt13basic_ostreamIcT_ES5_PKc
 3203      00
 3204 14d0 4889DE   		movq	%rbx, %rsi
 3205 14d3 4889C7   		movq	%rax, %rdi
 3206 14d6 E8000000 		call	_ZStlsISt11char_traitsIcEERSt13basic_ostreamIcT_ES5_PKc
 3206      00
 3207              		.loc 6 101 0 discriminator 19
 3208 14db 488D8580 		leaq	-2176(%rbp), %rax
 3208      F7FFFF
 3209 14e2 4889C7   		movq	%rax, %rdi
 3210 14e5 E8000000 		call	_ZNK8UnitTest15MemoryOutStream7GetTextEv
 3210      00
 3211 14ea 4989C4   		movq	%rax, %r12
 3212 14ed 488B8538 		movq	-2248(%rbp), %rax
 3212      F7FFFF
 3213 14f4 488D5808 		leaq	8(%rax), %rbx
 3214 14f8 E8000000 		call	_ZN8UnitTest11CurrentTest7ResultsEv
 3214      00
 3215              		.loc 6 101 0 discriminator 21
 3216 14fd 488B00   		movq	(%rax), %rax
 3217 1500 4C89E2   		movq	%r12, %rdx
 3218 1503 4889DE   		movq	%rbx, %rsi
 3219 1506 4889C7   		movq	%rax, %rdi
 3220 1509 E8000000 		call	_ZN8UnitTest11TestResults13OnTestFailureERKNS_11TestDetailsEPKc
 3220      00
 3221              	.LEHE77:
 3222              		.loc 6 101 0 discriminator 25
 3223 150e 488D8580 		leaq	-2176(%rbp), %rax
 3223      F7FFFF
 3224 1515 4889C7   		movq	%rax, %rdi
 3225              	.LEHB78:
 3226 1518 E8000000 		call	_ZN8UnitTest15MemoryOutStreamD1Ev
 3226      00
 3227              	.LEHE78:
 3228              	.LBE55:
 3229              		.loc 6 101 0 discriminator 26
 3230 151d E8000000 		call	__cxa_end_catch
 3230      00
 3231              	.LBE54:
 3232 1522 E9E90000 		jmp	.L162
 3232      00
 3233              	.L182:
 3234              		.loc 6 101 0
 3235 1527 4889C7   		movq	%rax, %rdi
 3236 152a E8000000 		call	__cxa_begin_catch
 3236      00
 3237 152f 80BD4FF7 		cmpb	$0, -2225(%rbp)
 3237      FFFF00
 3238 1536 7443     		je	.L169
 3239              		.loc 6 101 0 discriminator 28
 3240 1538 488B8538 		movq	-2248(%rbp), %rax
 3240      F7FFFF
 3241 153f 488D4808 		leaq	8(%rax), %rcx
 3242 1543 488D8560 		leaq	-2208(%rbp), %rax
 3242      F7FFFF
 3243 154a BA650000 		movl	$101, %edx
 3243      00
 3244 154f 4889CE   		movq	%rcx, %rsi
 3245 1552 4889C7   		movq	%rax, %rdi
 3246              	.LEHB79:
 3247 1555 E8000000 		call	_ZN8UnitTest11TestDetailsC1ERKS0_i
 3247      00
 3248              		.loc 6 101 0 discriminator 31
 3249 155a E8000000 		call	_ZN8UnitTest11CurrentTest7ResultsEv
 3249      00
 3250 155f 488B00   		movq	(%rax), %rax
 3251 1562 488D8D60 		leaq	-2208(%rbp), %rcx
 3251      F7FFFF
 3252 1569 BA000000 		movl	$.LC9, %edx
 3252      00
 3253 156e 4889CE   		movq	%rcx, %rsi
 3254 1571 4889C7   		movq	%rax, %rdi
 3255 1574 E8000000 		call	_ZN8UnitTest11TestResults13OnTestFailureERKNS_11TestDetailsEPKc
 3255      00
 3256 1579 EB41     		jmp	.L170
 3257              	.L169:
 3258              		.loc 6 101 0 discriminator 29
 3259 157b 488B8538 		movq	-2248(%rbp), %rax
 3259      F7FFFF
 3260 1582 488D4808 		leaq	8(%rax), %rcx
 3261 1586 488D8560 		leaq	-2208(%rbp), %rax
 3261      F7FFFF
 3262 158d BA650000 		movl	$101, %edx
 3262      00
 3263 1592 4889CE   		movq	%rcx, %rsi
 3264 1595 4889C7   		movq	%rax, %rdi
 3265 1598 E8000000 		call	_ZN8UnitTest11TestDetailsC1ERKS0_i
 3265      00
 3266              		.loc 6 101 0 discriminator 38
 3267 159d E8000000 		call	_ZN8UnitTest11CurrentTest7ResultsEv
 3267      00
 3268 15a2 488B00   		movq	(%rax), %rax
 3269 15a5 488D8D60 		leaq	-2208(%rbp), %rcx
 3269      F7FFFF
 3270 15ac BA000000 		movl	$.LC10, %edx
 3270      00
 3271 15b1 4889CE   		movq	%rcx, %rsi
 3272 15b4 4889C7   		movq	%rax, %rdi
 3273 15b7 E8000000 		call	_ZN8UnitTest11TestResults13OnTestFailureERKNS_11TestDetailsEPKc
 3273      00
 3274              	.LEHE79:
 3275              	.L170:
 3276              	.LEHB80:
 3277              		.loc 6 101 0 discriminator 43
 3278 15bc E8000000 		call	__cxa_end_catch
 3278      00
 3279 15c1 EB4D     		jmp	.L162
 3280              	.L178:
 3281 15c3 4889C3   		movq	%rax, %rbx
 3282              	.LBB57:
 3283              		.loc 6 101 0
 3284 15c6 E8000000 		call	__cxa_end_catch
 3284      00
 3285 15cb 4889D8   		movq	%rbx, %rax
 3286 15ce 4889C7   		movq	%rax, %rdi
 3287 15d1 E8000000 		call	_Unwind_Resume
 3287      00
 3288              	.LEHE80:
 3289              	.L180:
 3290 15d6 4889C3   		movq	%rax, %rbx
 3291              	.LBE57:
 3292              	.LBB58:
 3293              	.LBB56:
 3294 15d9 488D8580 		leaq	-2176(%rbp), %rax
 3294      F7FFFF
 3295 15e0 4889C7   		movq	%rax, %rdi
 3296 15e3 E8000000 		call	_ZN8UnitTest15MemoryOutStreamD1Ev
 3296      00
 3297 15e8 EB03     		jmp	.L173
 3298              	.L179:
 3299 15ea 4889C3   		movq	%rax, %rbx
 3300              	.L173:
 3301              	.LBE56:
 3302 15ed E8000000 		call	__cxa_end_catch
 3302      00
 3303 15f2 4889D8   		movq	%rbx, %rax
 3304 15f5 4889C7   		movq	%rax, %rdi
 3305              	.LEHB81:
 3306 15f8 E8000000 		call	_Unwind_Resume
 3306      00
 3307              	.LEHE81:
 3308              	.L181:
 3309 15fd 4889C3   		movq	%rax, %rbx
 3310              	.LBE58:
 3311 1600 E8000000 		call	__cxa_end_catch
 3311      00
 3312 1605 4889D8   		movq	%rbx, %rax
 3313 1608 4889C7   		movq	%rax, %rdi
 3314              	.LEHB82:
 3315 160b E8000000 		call	_Unwind_Resume
 3315      00
 3316              	.LEHE82:
 3317              	.L162:
 3318 1610 488B45E8 		movq	-24(%rbp), %rax
 3319 1614 64483304 		xorq	%fs:40, %rax
 3319      25280000 
 3319      00
 3320 161d 7405     		je	.L175
 3321 161f E8000000 		call	__stack_chk_fail
 3321      00
 3322              	.L175:
 3323 1624 4881C4C0 		addq	$2240, %rsp
 3323      080000
 3324 162b 5B       		popq	%rbx
 3325 162c 415C     		popq	%r12
 3326 162e 5D       		popq	%rbp
 3327              		.cfi_def_cfa 7, 8
 3328 162f C3       		ret
 3329              		.cfi_endproc
 3330              	.LFE1139:
 3331              		.section	.gcc_except_table
 3332              		.align 4
 3333              	.LLSDA1139:
 3334 01e8 FF       		.byte	0xff
 3335 01e9 03       		.byte	0x3
 3336 01ea 55       		.uleb128 .LLSDATT1139-.LLSDATTD1139
 3337              	.LLSDATTD1139:
 3338 01eb 01       		.byte	0x1
 3339 01ec 3C       		.uleb128 .LLSDACSE1139-.LLSDACSB1139
 3340              	.LLSDACSB1139:
 3341 01ed 43       		.uleb128 .LEHB72-.LFB1139
 3342 01ee 05       		.uleb128 .LEHE72-.LEHB72
 3343 01ef 9D01     		.uleb128 .L176-.LFB1139
 3344 01f1 05       		.uleb128 0x5
 3345 01f2 67       		.uleb128 .LEHB73-.LFB1139
 3346 01f3 05       		.uleb128 .LEHE73-.LEHB73
 3347 01f4 8001     		.uleb128 .L177-.LFB1139
 3348 01f6 07       		.uleb128 0x7
 3349 01f7 76       		.uleb128 .LEHB74-.LFB1139
 3350 01f8 05       		.uleb128 .LEHE74-.LEHB74
 3351 01f9 9D01     		.uleb128 .L176-.LFB1139
 3352 01fb 05       		.uleb128 0x5
 3353 01fc EB01     		.uleb128 .LEHB75-.LFB1139
 3354 01fe 5F       		.uleb128 .LEHE75-.LEHB75
 3355 01ff 9905     		.uleb128 .L178-.LFB1139
 3356 0201 00       		.uleb128 0
 3357 0202 ED02     		.uleb128 .LEHB76-.LFB1139
 3358 0204 05       		.uleb128 .LEHE76-.LEHB76
 3359 0205 C005     		.uleb128 .L179-.LFB1139
 3360 0207 00       		.uleb128 0
 3361 0208 A103     		.uleb128 .LEHB77-.LFB1139
 3362 020a 43       		.uleb128 .LEHE77-.LEHB77
 3363 020b AC05     		.uleb128 .L180-.LFB1139
 3364 020d 00       		.uleb128 0
 3365 020e EE03     		.uleb128 .LEHB78-.LFB1139
 3366 0210 05       		.uleb128 .LEHE78-.LEHB78
 3367 0211 C005     		.uleb128 .L179-.LFB1139
 3368 0213 00       		.uleb128 0
 3369 0214 AB04     		.uleb128 .LEHB79-.LFB1139
 3370 0216 67       		.uleb128 .LEHE79-.LEHB79
 3371 0217 D305     		.uleb128 .L181-.LFB1139
 3372 0219 00       		.uleb128 0
 3373 021a 9205     		.uleb128 .LEHB80-.LFB1139
 3374 021c 1A       		.uleb128 .LEHE80-.LEHB80
 3375 021d 00       		.uleb128 0
 3376 021e 00       		.uleb128 0
 3377 021f CE05     		.uleb128 .LEHB81-.LFB1139
 3378 0221 05       		.uleb128 .LEHE81-.LEHB81
 3379 0222 00       		.uleb128 0
 3380 0223 00       		.uleb128 0
 3381 0224 E105     		.uleb128 .LEHB82-.LFB1139
 3382 0226 05       		.uleb128 .LEHE82-.LEHB82
 3383 0227 00       		.uleb128 0
 3384 0228 00       		.uleb128 0
 3385              	.LLSDACSE1139:
 3386 0229 03       		.byte	0x3
 3387 022a 00       		.byte	0
 3388 022b 02       		.byte	0x2
 3389 022c 7D       		.byte	0x7d
 3390 022d 01       		.byte	0x1
 3391 022e 7D       		.byte	0x7d
 3392 022f 00       		.byte	0
 3393 0230 7D       		.byte	0x7d
 3394 0231 000000   		.align 4
 3395 0234 00000000 		.long	0
 3396              	
 3397 0238 00000000 		.long	_ZTISt9exception
 3398 023c 00000000 		.long	_ZTIN8UnitTest15AssertExceptionE
 3399              	.LLSDATT1139:
 3400              		.text
 3402              		.section	.rodata
 3403 036c 00000000 		.align 8
 3404              	.LC26:
 3405 0370 556E6861 		.string	"Unhandled exception in CHECK_EQUAL(0, RunTestsIf(list, NULL, True(), 0))"
 3405      6E646C65 
 3405      64206578 
 3405      63657074 
 3405      696F6E20 
 3406 03b9 00000000 		.align 8
 3406      000000
 3407              	.LC27:
 3408 03c0 556E6861 		.string	"Unhandled exception in CHECK_EQUAL(0, reporter.testRunCount)"
 3408      6E646C65 
 3408      64206578 
 3408      63657074 
 3408      696F6E20 
 3409 03fd 000000   		.align 8
 3410              	.LC28:
 3411 0400 556E6861 		.string	"Unhandled exception in CHECK_EQUAL(0, reporter.testFailedCount)"
 3411      6E646C65 
 3411      64206578 
 3411      63657074 
 3411      696F6E20 
 3412              		.text
 3413              		.align 2
 3415              	_ZN12_GLOBAL__N_158TestRunnerFixtureFailureCountIsZeroWhenNoTestsAreRunHelper7RunImplEv:
 3416              	.LFB1143:
 102:TestTestRunner.cpp **** {
 3417              		.loc 6 102 0 is_stmt 1
 3418              		.cfi_startproc
 3419              		.cfi_personality 0x3,__gxx_personality_v0
 3420              		.cfi_lsda 0x3,.LLSDA1143
 3421 1630 55       		pushq	%rbp
 3422              		.cfi_def_cfa_offset 16
 3423              		.cfi_offset 6, -16
 3424 1631 4889E5   		movq	%rsp, %rbp
 3425              		.cfi_def_cfa_register 6
 3426 1634 53       		pushq	%rbx
 3427 1635 4883EC58 		subq	$88, %rsp
 3428              		.cfi_offset 3, -24
 3429 1639 48897DA8 		movq	%rdi, -88(%rbp)
 3430              		.loc 6 102 0
 3431 163d 64488B04 		movq	%fs:40, %rax
 3431      25280000 
 3431      00
 3432 1646 488945E8 		movq	%rax, -24(%rbp)
 3433 164a 31C0     		xorl	%eax, %eax
 3434              	.LEHB83:
 103:TestTestRunner.cpp **** 	CHECK_EQUAL(0, RunTestsIf(list, NULL, True(), 0));
 3435              		.loc 6 103 0
 3436 164c E8000000 		call	_ZN8UnitTest11CurrentTest7DetailsEv
 3436      00
 3437 1651 488B08   		movq	(%rax), %rcx
 3438 1654 488D45C0 		leaq	-64(%rbp), %rax
 3439 1658 BA670000 		movl	$103, %edx
 3439      00
 3440 165d 4889CE   		movq	%rcx, %rsi
 3441 1660 4889C7   		movq	%rax, %rdi
 3442 1663 E8000000 		call	_ZN8UnitTest11TestDetailsC1ERKS0_i
 3442      00
 3443              	.LEHE83:
 3444              		.loc 6 103 0 is_stmt 0 discriminator 2
 3445 1668 488B45A8 		movq	-88(%rbp), %rax
 3446 166c 488DB048 		leaq	2120(%rax), %rsi
 3446      080000
 3447 1673 488B45A8 		movq	-88(%rbp), %rax
 3448 1677 488D55B7 		leaq	-73(%rbp), %rdx
 3449 167b 41B80000 		movl	$0, %r8d
 3449      0000
 3450 1681 4889D1   		movq	%rdx, %rcx
 3451 1684 BA000000 		movl	$0, %edx
 3451      00
 3452 1689 4889C7   		movq	%rax, %rdi
 3453              	.LEHB84:
 3454 168c E8ED5500 		call	_ZN12_GLOBAL__N_111FixtureBase10RunTestsIfIN8UnitTest4TrueEEEiRKNS2_8TestListEPKcRKT_i
 3454      00
 3455              	.LEHE84:
 3456 1691 8945BC   		movl	%eax, -68(%rbp)
 3457 1694 C745B800 		movl	$0, -72(%rbp)
 3457      000000
 3458              	.LEHB85:
 3459 169b E8000000 		call	_ZN8UnitTest11CurrentTest7ResultsEv
 3459      00
 3460              		.loc 6 103 0 discriminator 4
 3461 16a0 488B00   		movq	(%rax), %rax
 3462 16a3 488D4DC0 		leaq	-64(%rbp), %rcx
 3463 16a7 488D55BC 		leaq	-68(%rbp), %rdx
 3464 16ab 488D75B8 		leaq	-72(%rbp), %rsi
 3465 16af 4889C7   		movq	%rax, %rdi
 3466 16b2 E8000000 		call	_ZN8UnitTest10CheckEqualIiiEEvRNS_11TestResultsERKT_RKT0_RKNS_11TestDetailsE
 3466      00
 3467              	.LEHE85:
 3468              	.L187:
 3469              	.LEHB86:
 104:TestTestRunner.cpp ****     CHECK_EQUAL(0, reporter.testRunCount);
 3470              		.loc 6 104 0 is_stmt 1
 3471 16b7 E8000000 		call	_ZN8UnitTest11CurrentTest7DetailsEv
 3471      00
 3472 16bc 488B08   		movq	(%rax), %rcx
 3473 16bf 488D45C0 		leaq	-64(%rbp), %rax
 3474 16c3 BA680000 		movl	$104, %edx
 3474      00
 3475 16c8 4889CE   		movq	%rcx, %rsi
 3476 16cb 4889C7   		movq	%rax, %rdi
 3477 16ce E8000000 		call	_ZN8UnitTest11TestDetailsC1ERKS0_i
 3477      00
 3478              	.LEHE86:
 3479              		.loc 6 104 0 is_stmt 0 discriminator 2
 3480 16d3 488B45A8 		movq	-88(%rbp), %rax
 3481 16d7 488D5820 		leaq	32(%rax), %rbx
 3482 16db C745BC00 		movl	$0, -68(%rbp)
 3482      000000
 3483              	.LEHB87:
 3484 16e2 E8000000 		call	_ZN8UnitTest11CurrentTest7ResultsEv
 3484      00
 3485 16e7 488B00   		movq	(%rax), %rax
 3486 16ea 488D55C0 		leaq	-64(%rbp), %rdx
 3487 16ee 488D75BC 		leaq	-68(%rbp), %rsi
 3488 16f2 4889D1   		movq	%rdx, %rcx
 3489 16f5 4889DA   		movq	%rbx, %rdx
 3490 16f8 4889C7   		movq	%rax, %rdi
 3491 16fb E8000000 		call	_ZN8UnitTest10CheckEqualIiiEEvRNS_11TestResultsERKT_RKT0_RKNS_11TestDetailsE
 3491      00
 3492              	.LEHE87:
 3493              	.L191:
 3494              	.LEHB88:
 105:TestTestRunner.cpp ****     CHECK_EQUAL(0, reporter.testFailedCount);
 3495              		.loc 6 105 0 is_stmt 1
 3496 1700 E8000000 		call	_ZN8UnitTest11CurrentTest7DetailsEv
 3496      00
 3497 1705 488B08   		movq	(%rax), %rcx
 3498 1708 488D45C0 		leaq	-64(%rbp), %rax
 3499 170c BA690000 		movl	$105, %edx
 3499      00
 3500 1711 4889CE   		movq	%rcx, %rsi
 3501 1714 4889C7   		movq	%rax, %rdi
 3502 1717 E8000000 		call	_ZN8UnitTest11TestDetailsC1ERKS0_i
 3502      00
 3503              	.LEHE88:
 3504              		.loc 6 105 0 is_stmt 0 discriminator 2
 3505 171c 488B45A8 		movq	-88(%rbp), %rax
 3506 1720 488D9824 		leaq	548(%rax), %rbx
 3506      020000
 3507 1727 C745BC00 		movl	$0, -68(%rbp)
 3507      000000
 3508              	.LEHB89:
 3509 172e E8000000 		call	_ZN8UnitTest11CurrentTest7ResultsEv
 3509      00
 3510 1733 488B00   		movq	(%rax), %rax
 3511 1736 488D55C0 		leaq	-64(%rbp), %rdx
 3512 173a 488D75BC 		leaq	-68(%rbp), %rsi
 3513 173e 4889D1   		movq	%rdx, %rcx
 3514 1741 4889DA   		movq	%rbx, %rdx
 3515 1744 4889C7   		movq	%rax, %rdi
 3516 1747 E8000000 		call	_ZN8UnitTest10CheckEqualIiiEEvRNS_11TestResultsERKT_RKT0_RKNS_11TestDetailsE
 3516      00
 3517              	.LEHE89:
 106:TestTestRunner.cpp **** }
 3518              		.loc 6 106 0 is_stmt 1
 3519 174c E91C0100 		jmp	.L183
 3519      00
 3520              	.L200:
 3521 1751 EB02     		jmp	.L186
 3522              	.L199:
 3523 1753 EB00     		jmp	.L186
 3524              	.L198:
 3525              	.L186:
 103:TestTestRunner.cpp ****     CHECK_EQUAL(0, reporter.testRunCount);
 3526              		.loc 6 103 0
 3527 1755 4889C7   		movq	%rax, %rdi
 3528 1758 E8000000 		call	__cxa_begin_catch
 3528      00
 3529              	.LEHB90:
 3530 175d E8000000 		call	_ZN8UnitTest11CurrentTest7DetailsEv
 3530      00
 3531 1762 488B08   		movq	(%rax), %rcx
 3532 1765 488D45C0 		leaq	-64(%rbp), %rax
 3533 1769 BA670000 		movl	$103, %edx
 3533      00
 3534 176e 4889CE   		movq	%rcx, %rsi
 3535 1771 4889C7   		movq	%rax, %rdi
 3536 1774 E8000000 		call	_ZN8UnitTest11TestDetailsC1ERKS0_i
 3536      00
 103:TestTestRunner.cpp ****     CHECK_EQUAL(0, reporter.testRunCount);
 3537              		.loc 6 103 0 is_stmt 0 discriminator 12
 3538 1779 E8000000 		call	_ZN8UnitTest11CurrentTest7ResultsEv
 3538      00
 3539 177e 488B00   		movq	(%rax), %rax
 3540 1781 488D4DC0 		leaq	-64(%rbp), %rcx
 3541 1785 BA000000 		movl	$.LC26, %edx
 3541      00
 3542 178a 4889CE   		movq	%rcx, %rsi
 3543 178d 4889C7   		movq	%rax, %rdi
 3544 1790 E8000000 		call	_ZN8UnitTest11TestResults13OnTestFailureERKNS_11TestDetailsEPKc
 3544      00
 3545              	.LEHE90:
 3546              	.LEHB91:
 103:TestTestRunner.cpp ****     CHECK_EQUAL(0, reporter.testRunCount);
 3547              		.loc 6 103 0 discriminator 16
 3548 1795 E8000000 		call	__cxa_end_catch
 3548      00
 3549              	.LEHE91:
 3550 179a E918FFFF 		jmp	.L187
 3550      FF
 3551              	.L201:
 3552 179f 4889C3   		movq	%rax, %rbx
 103:TestTestRunner.cpp ****     CHECK_EQUAL(0, reporter.testRunCount);
 3553              		.loc 6 103 0
 3554 17a2 E8000000 		call	__cxa_end_catch
 3554      00
 3555 17a7 4889D8   		movq	%rbx, %rax
 3556 17aa 4889C7   		movq	%rax, %rdi
 3557              	.LEHB92:
 3558 17ad E8000000 		call	_Unwind_Resume
 3558      00
 3559              	.LEHE92:
 3560              	.L203:
 3561 17b2 EB00     		jmp	.L190
 3562              	.L202:
 3563              	.L190:
 104:TestTestRunner.cpp ****     CHECK_EQUAL(0, reporter.testFailedCount);
 3564              		.loc 6 104 0 is_stmt 1
 3565 17b4 4889C7   		movq	%rax, %rdi
 3566 17b7 E8000000 		call	__cxa_begin_catch
 3566      00
 3567              	.LEHB93:
 3568 17bc E8000000 		call	_ZN8UnitTest11CurrentTest7DetailsEv
 3568      00
 3569 17c1 488B08   		movq	(%rax), %rcx
 3570 17c4 488D45C0 		leaq	-64(%rbp), %rax
 3571 17c8 BA680000 		movl	$104, %edx
 3571      00
 3572 17cd 4889CE   		movq	%rcx, %rsi
 3573 17d0 4889C7   		movq	%rax, %rdi
 3574 17d3 E8000000 		call	_ZN8UnitTest11TestDetailsC1ERKS0_i
 3574      00
 104:TestTestRunner.cpp ****     CHECK_EQUAL(0, reporter.testFailedCount);
 3575              		.loc 6 104 0 is_stmt 0 discriminator 10
 3576 17d8 E8000000 		call	_ZN8UnitTest11CurrentTest7ResultsEv
 3576      00
 3577 17dd 488B00   		movq	(%rax), %rax
 3578 17e0 488D4DC0 		leaq	-64(%rbp), %rcx
 3579 17e4 BA000000 		movl	$.LC27, %edx
 3579      00
 3580 17e9 4889CE   		movq	%rcx, %rsi
 3581 17ec 4889C7   		movq	%rax, %rdi
 3582 17ef E8000000 		call	_ZN8UnitTest11TestResults13OnTestFailureERKNS_11TestDetailsEPKc
 3582      00
 3583              	.LEHE93:
 3584              	.LEHB94:
 104:TestTestRunner.cpp ****     CHECK_EQUAL(0, reporter.testFailedCount);
 3585              		.loc 6 104 0 discriminator 14
 3586 17f4 E8000000 		call	__cxa_end_catch
 3586      00
 3587              	.LEHE94:
 3588 17f9 E902FFFF 		jmp	.L191
 3588      FF
 3589              	.L204:
 3590 17fe 4889C3   		movq	%rax, %rbx
 104:TestTestRunner.cpp ****     CHECK_EQUAL(0, reporter.testFailedCount);
 3591              		.loc 6 104 0
 3592 1801 E8000000 		call	__cxa_end_catch
 3592      00
 3593 1806 4889D8   		movq	%rbx, %rax
 3594 1809 4889C7   		movq	%rax, %rdi
 3595              	.LEHB95:
 3596 180c E8000000 		call	_Unwind_Resume
 3596      00
 3597              	.LEHE95:
 3598              	.L206:
 3599 1811 EB00     		jmp	.L194
 3600              	.L205:
 3601              	.L194:
 105:TestTestRunner.cpp **** }
 3602              		.loc 6 105 0 is_stmt 1
 3603 1813 4889C7   		movq	%rax, %rdi
 3604 1816 E8000000 		call	__cxa_begin_catch
 3604      00
 3605              	.LEHB96:
 3606 181b E8000000 		call	_ZN8UnitTest11CurrentTest7DetailsEv
 3606      00
 3607 1820 488B08   		movq	(%rax), %rcx
 3608 1823 488D45C0 		leaq	-64(%rbp), %rax
 3609 1827 BA690000 		movl	$105, %edx
 3609      00
 3610 182c 4889CE   		movq	%rcx, %rsi
 3611 182f 4889C7   		movq	%rax, %rdi
 3612 1832 E8000000 		call	_ZN8UnitTest11TestDetailsC1ERKS0_i
 3612      00
 105:TestTestRunner.cpp **** }
 3613              		.loc 6 105 0 is_stmt 0 discriminator 10
 3614 1837 E8000000 		call	_ZN8UnitTest11CurrentTest7ResultsEv
 3614      00
 3615 183c 488B00   		movq	(%rax), %rax
 3616 183f 488D4DC0 		leaq	-64(%rbp), %rcx
 3617 1843 BA000000 		movl	$.LC28, %edx
 3617      00
 3618 1848 4889CE   		movq	%rcx, %rsi
 3619 184b 4889C7   		movq	%rax, %rdi
 3620 184e E8000000 		call	_ZN8UnitTest11TestResults13OnTestFailureERKNS_11TestDetailsEPKc
 3620      00
 3621              	.LEHE96:
 3622              	.LEHB97:
 105:TestTestRunner.cpp **** }
 3623              		.loc 6 105 0 discriminator 14
 3624 1853 E8000000 		call	__cxa_end_catch
 3624      00
 3625              	.LEHE97:
 3626              		.loc 6 106 0 is_stmt 1 discriminator 14
 3627 1858 EB13     		jmp	.L183
 3628              	.L207:
 3629 185a 4889C3   		movq	%rax, %rbx
 105:TestTestRunner.cpp **** }
 3630              		.loc 6 105 0
 3631 185d E8000000 		call	__cxa_end_catch
 3631      00
 3632 1862 4889D8   		movq	%rbx, %rax
 3633 1865 4889C7   		movq	%rax, %rdi
 3634              	.LEHB98:
 3635 1868 E8000000 		call	_Unwind_Resume
 3635      00
 3636              	.LEHE98:
 3637              	.L183:
 3638              		.loc 6 106 0
 3639 186d 488B45E8 		movq	-24(%rbp), %rax
 3640 1871 64483304 		xorq	%fs:40, %rax
 3640      25280000 
 3640      00
 3641 187a 7405     		je	.L197
 3642 187c E8000000 		call	__stack_chk_fail
 3642      00
 3643              	.L197:
 3644 1881 4883C458 		addq	$88, %rsp
 3645 1885 5B       		popq	%rbx
 3646 1886 5D       		popq	%rbp
 3647              		.cfi_def_cfa 7, 8
 3648 1887 C3       		ret
 3649              		.cfi_endproc
 3650              	.LFE1143:
 3651              		.section	.gcc_except_table
 3652              		.align 4
 3653              	.LLSDA1143:
 3654 0240 FF       		.byte	0xff
 3655 0241 03       		.byte	0x3
 3656 0242 61       		.uleb128 .LLSDATT1143-.LLSDATTD1143
 3657              	.LLSDATTD1143:
 3658 0243 01       		.byte	0x1
 3659 0244 57       		.uleb128 .LLSDACSE1143-.LLSDACSB1143
 3660              	.LLSDACSB1143:
 3661 0245 1C       		.uleb128 .LEHB83-.LFB1143
 3662 0246 1C       		.uleb128 .LEHE83-.LEHB83
 3663 0247 A502     		.uleb128 .L198-.LFB1143
 3664 0249 01       		.uleb128 0x1
 3665 024a 5C       		.uleb128 .LEHB84-.LFB1143
 3666 024b 05       		.uleb128 .LEHE84-.LEHB84
 3667 024c A302     		.uleb128 .L199-.LFB1143
 3668 024e 03       		.uleb128 0x3
 3669 024f 6B       		.uleb128 .LEHB85-.LFB1143
 3670 0250 1C       		.uleb128 .LEHE85-.LEHB85
 3671 0251 A102     		.uleb128 .L200-.LFB1143
 3672 0253 03       		.uleb128 0x3
 3673 0254 8701     		.uleb128 .LEHB86-.LFB1143
 3674 0256 1C       		.uleb128 .LEHE86-.LEHB86
 3675 0257 8403     		.uleb128 .L202-.LFB1143
 3676 0259 01       		.uleb128 0x1
 3677 025a B201     		.uleb128 .LEHB87-.LFB1143
 3678 025c 1E       		.uleb128 .LEHE87-.LEHB87
 3679 025d 8203     		.uleb128 .L203-.LFB1143
 3680 025f 03       		.uleb128 0x3
 3681 0260 D001     		.uleb128 .LEHB88-.LFB1143
 3682 0262 1C       		.uleb128 .LEHE88-.LEHB88
 3683 0263 E303     		.uleb128 .L205-.LFB1143
 3684 0265 01       		.uleb128 0x1
 3685 0266 FE01     		.uleb128 .LEHB89-.LFB1143
 3686 0268 1E       		.uleb128 .LEHE89-.LEHB89
 3687 0269 E103     		.uleb128 .L206-.LFB1143
 3688 026b 03       		.uleb128 0x3
 3689 026c AD02     		.uleb128 .LEHB90-.LFB1143
 3690 026e 38       		.uleb128 .LEHE90-.LEHB90
 3691 026f EF02     		.uleb128 .L201-.LFB1143
 3692 0271 00       		.uleb128 0
 3693 0272 E502     		.uleb128 .LEHB91-.LFB1143
 3694 0274 05       		.uleb128 .LEHE91-.LEHB91
 3695 0275 00       		.uleb128 0
 3696 0276 00       		.uleb128 0
 3697 0277 FD02     		.uleb128 .LEHB92-.LFB1143
 3698 0279 05       		.uleb128 .LEHE92-.LEHB92
 3699 027a 00       		.uleb128 0
 3700 027b 00       		.uleb128 0
 3701 027c 8C03     		.uleb128 .LEHB93-.LFB1143
 3702 027e 38       		.uleb128 .LEHE93-.LEHB93
 3703 027f CE03     		.uleb128 .L204-.LFB1143
 3704 0281 00       		.uleb128 0
 3705 0282 C403     		.uleb128 .LEHB94-.LFB1143
 3706 0284 05       		.uleb128 .LEHE94-.LEHB94
 3707 0285 00       		.uleb128 0
 3708 0286 00       		.uleb128 0
 3709 0287 DC03     		.uleb128 .LEHB95-.LFB1143
 3710 0289 05       		.uleb128 .LEHE95-.LEHB95
 3711 028a 00       		.uleb128 0
 3712 028b 00       		.uleb128 0
 3713 028c EB03     		.uleb128 .LEHB96-.LFB1143
 3714 028e 38       		.uleb128 .LEHE96-.LEHB96
 3715 028f AA04     		.uleb128 .L207-.LFB1143
 3716 0291 00       		.uleb128 0
 3717 0292 A304     		.uleb128 .LEHB97-.LFB1143
 3718 0294 05       		.uleb128 .LEHE97-.LEHB97
 3719 0295 00       		.uleb128 0
 3720 0296 00       		.uleb128 0
 3721 0297 B804     		.uleb128 .LEHB98-.LFB1143
 3722 0299 05       		.uleb128 .LEHE98-.LEHB98
 3723 029a 00       		.uleb128 0
 3724 029b 00       		.uleb128 0
 3725              	.LLSDACSE1143:
 3726 029c 01       		.byte	0x1
 3727 029d 00       		.byte	0
 3728 029e 00       		.byte	0
 3729 029f 7D       		.byte	0x7d
 3730              		.align 4
 3731 02a0 00000000 		.long	0
 3732              	
 3733              	.LLSDATT1143:
 3734              		.text
 3736              		.align 2
 3738              	_ZN12_GLOBAL__N_159TestRunnerFixtureCallsReportFailureOncePerFailingTestHelperC2ERKN8UnitTest11Test
 3739              	.LFB1145:
 107:TestTestRunner.cpp **** 
 108:TestTestRunner.cpp **** TEST_FIXTURE(TestRunnerFixture, CallsReportFailureOncePerFailingTest)
 3740              		.loc 6 108 0
 3741              		.cfi_startproc
 3742 1888 55       		pushq	%rbp
 3743              		.cfi_def_cfa_offset 16
 3744              		.cfi_offset 6, -16
 3745 1889 4889E5   		movq	%rsp, %rbp
 3746              		.cfi_def_cfa_register 6
 3747 188c 4883EC10 		subq	$16, %rsp
 3748 1890 48897DF8 		movq	%rdi, -8(%rbp)
 3749 1894 488975F0 		movq	%rsi, -16(%rbp)
 3750              	.LBB59:
 3751              		.loc 6 108 0
 3752 1898 488B45F8 		movq	-8(%rbp), %rax
 3753 189c 4889C7   		movq	%rax, %rdi
 3754 189f E8CCE8FF 		call	_ZN12_GLOBAL__N_117TestRunnerFixtureC2Ev
 3754      FF
 3755 18a4 488B45F8 		movq	-8(%rbp), %rax
 3756 18a8 488B55F0 		movq	-16(%rbp), %rdx
 3757 18ac 48899058 		movq	%rdx, 2136(%rax)
 3757      080000
 3758              	.LBE59:
 3759 18b3 90       		nop
 3760 18b4 C9       		leave
 3761              		.cfi_def_cfa 7, 8
 3762 18b5 C3       		ret
 3763              		.cfi_endproc
 3764              	.LFE1145:
 3766              		.set	_ZN12_GLOBAL__N_159TestRunnerFixtureCallsReportFailureOncePerFailingTestHelperC1ERKN8UnitTest
 3767              		.section	.rodata
 3768              		.align 8
 3769              	.LC29:
 3770 0440 43616C6C 		.string	"CallsReportFailureOncePerFailingTest"
 3770      73526570 
 3770      6F727446 
 3770      61696C75 
 3770      72654F6E 
 3771              		.text
 3772              		.align 2
 3774              	_ZN12_GLOBAL__N_157TestTestRunnerFixtureCallsReportFailureOncePerFailingTestC2Ev:
 3775              	.LFB1148:
 3776              		.loc 6 108 0
 3777              		.cfi_startproc
 3778 18b6 55       		pushq	%rbp
 3779              		.cfi_def_cfa_offset 16
 3780              		.cfi_offset 6, -16
 3781 18b7 4889E5   		movq	%rsp, %rbp
 3782              		.cfi_def_cfa_register 6
 3783 18ba 4883EC10 		subq	$16, %rsp
 3784 18be 48897DF8 		movq	%rdi, -8(%rbp)
 3785              	.LBB60:
 3786              		.loc 6 108 0
 3787 18c2 E8000000 		call	_ZN13UnitTestSuite12GetSuiteNameEv
 3787      00
 3788 18c7 4889C2   		movq	%rax, %rdx
 3789 18ca 488B45F8 		movq	-8(%rbp), %rax
 3790 18ce 41B86C00 		movl	$108, %r8d
 3790      0000
 3791 18d4 B9000000 		movl	$.LC6, %ecx
 3791      00
 3792 18d9 BE000000 		movl	$.LC29, %esi
 3792      00
 3793 18de 4889C7   		movq	%rax, %rdi
 3794 18e1 E8000000 		call	_ZN8UnitTest4TestC2EPKcS2_S2_i
 3794      00
 3795 18e6 BA000000 		movl	$_ZTVN12_GLOBAL__N_157TestTestRunnerFixtureCallsReportFailureOncePerFailingTestE+16, %edx
 3795      00
 3796 18eb 488B45F8 		movq	-8(%rbp), %rax
 3797 18ef 488910   		movq	%rdx, (%rax)
 3798              	.LBE60:
 3799 18f2 90       		nop
 3800 18f3 C9       		leave
 3801              		.cfi_def_cfa 7, 8
 3802 18f4 C3       		ret
 3803              		.cfi_endproc
 3804              	.LFE1148:
 3806              		.set	_ZN12_GLOBAL__N_157TestTestRunnerFixtureCallsReportFailureOncePerFailingTestC1Ev,_ZN12_GLOBAL
 3807              		.local	_ZN12_GLOBAL__N_165testTestRunnerFixtureCallsReportFailureOncePerFailingTestInstanceE
 3808              		.comm	_ZN12_GLOBAL__N_165testTestRunnerFixtureCallsReportFailureOncePerFailingTestInstanceE,56,32
 3809              		.local	_ZN12_GLOBAL__N_158adderTestRunnerFixtureCallsReportFailureOncePerFailingTestE
 3810              		.comm	_ZN12_GLOBAL__N_158adderTestRunnerFixtureCallsReportFailureOncePerFailingTestE,1,1
 3811 18f5 90       		.align 2
 3813              	_ZN12_GLOBAL__N_159TestRunnerFixtureCallsReportFailureOncePerFailingTestHelperD2Ev:
 3814              	.LFB1152:
 3815              		.loc 6 108 0
 3816              		.cfi_startproc
 3817 18f6 55       		pushq	%rbp
 3818              		.cfi_def_cfa_offset 16
 3819              		.cfi_offset 6, -16
 3820 18f7 4889E5   		movq	%rsp, %rbp
 3821              		.cfi_def_cfa_register 6
 3822 18fa 4883EC10 		subq	$16, %rsp
 3823 18fe 48897DF8 		movq	%rdi, -8(%rbp)
 3824              	.LBB61:
 3825              		.loc 6 108 0
 3826 1902 488B45F8 		movq	-8(%rbp), %rax
 3827 1906 4889C7   		movq	%rax, %rdi
 3828 1909 E8B0E8FF 		call	_ZN12_GLOBAL__N_117TestRunnerFixtureD2Ev
 3828      FF
 3829              	.LBE61:
 3830 190e 90       		nop
 3831 190f C9       		leave
 3832              		.cfi_def_cfa 7, 8
 3833 1910 C3       		ret
 3834              		.cfi_endproc
 3835              	.LFE1152:
 3837              		.set	_ZN12_GLOBAL__N_159TestRunnerFixtureCallsReportFailureOncePerFailingTestHelperD1Ev,_ZN12_GLOB
 3838 1911 90       		.align 2
 3840              	_ZNK12_GLOBAL__N_157TestTestRunnerFixtureCallsReportFailureOncePerFailingTest7RunImplEv:
 3841              	.LFB1150:
 3842              		.loc 6 108 0
 3843              		.cfi_startproc
 3844              		.cfi_personality 0x3,__gxx_personality_v0
 3845              		.cfi_lsda 0x3,.LLSDA1150
 3846 1912 55       		pushq	%rbp
 3847              		.cfi_def_cfa_offset 16
 3848              		.cfi_offset 6, -16
 3849 1913 4889E5   		movq	%rsp, %rbp
 3850              		.cfi_def_cfa_register 6
 3851 1916 4154     		pushq	%r12
 3852 1918 53       		pushq	%rbx
 3853 1919 4881ECC0 		subq	$2240, %rsp
 3853      080000
 3854              		.cfi_offset 12, -24
 3855              		.cfi_offset 3, -32
 3856 1920 4889BD38 		movq	%rdi, -2248(%rbp)
 3856      F7FFFF
 3857              		.loc 6 108 0
 3858 1927 64488B04 		movq	%fs:40, %rax
 3858      25280000 
 3858      00
 3859 1930 488945E8 		movq	%rax, -24(%rbp)
 3860 1934 31C0     		xorl	%eax, %eax
 3861 1936 C6854FF7 		movb	$0, -2225(%rbp)
 3861      FFFF00
 3862              	.LBB62:
 3863 193d 488B8538 		movq	-2248(%rbp), %rax
 3863      F7FFFF
 3864 1944 488D5008 		leaq	8(%rax), %rdx
 3865 1948 488D8580 		leaq	-2176(%rbp), %rax
 3865      F7FFFF
 3866 194f 4889D6   		movq	%rdx, %rsi
 3867 1952 4889C7   		movq	%rax, %rdi
 3868              	.LEHB99:
 3869 1955 E82EFFFF 		call	_ZN12_GLOBAL__N_159TestRunnerFixtureCallsReportFailureOncePerFailingTestHelperC1ERKN8UnitTest
 3869      FF
 3870              	.LEHE99:
 3871              		.loc 6 108 0 is_stmt 0 discriminator 1
 3872 195a C6854FF7 		movb	$1, -2225(%rbp)
 3872      FFFF01
 3873 1961 488B8538 		movq	-2248(%rbp), %rax
 3873      F7FFFF
 3874 1968 488D5008 		leaq	8(%rax), %rdx
 3875 196c 488D8580 		leaq	-2176(%rbp), %rax
 3875      F7FFFF
 3876 1973 4889D6   		movq	%rdx, %rsi
 3877 1976 4889C7   		movq	%rax, %rdi
 3878              	.LEHB100:
 3879 1979 E8B55B00 		call	_ZN8UnitTest11ExecuteTestIN12_GLOBAL__N_159TestRunnerFixtureCallsReportFailureOncePerFailingT
 3879      00
 3880              	.LEHE100:
 3881              		.loc 6 108 0 discriminator 3
 3882 197e 488D8580 		leaq	-2176(%rbp), %rax
 3882      F7FFFF
 3883 1985 4889C7   		movq	%rax, %rdi
 3884              	.LEHB101:
 3885 1988 E869FFFF 		call	_ZN12_GLOBAL__N_159TestRunnerFixtureCallsReportFailureOncePerFailingTestHelperD1Ev
 3885      FF
 3886              	.LEHE101:
 3887              	.LBE62:
 3888              		.loc 6 108 0
 3889 198d E9660200 		jmp	.L211
 3889      00
 3890              	.L226:
 3891 1992 4989C4   		movq	%rax, %r12
 3892 1995 4889D3   		movq	%rdx, %rbx
 3893              	.LBB63:
 3894 1998 488D8580 		leaq	-2176(%rbp), %rax
 3894      F7FFFF
 3895 199f 4889C7   		movq	%rax, %rdi
 3896 19a2 E84FFFFF 		call	_ZN12_GLOBAL__N_159TestRunnerFixtureCallsReportFailureOncePerFailingTestHelperD1Ev
 3896      FF
 3897 19a7 4C89E0   		movq	%r12, %rax
 3898 19aa 4889DA   		movq	%rbx, %rdx
 3899 19ad EB00     		jmp	.L213
 3900              	.L225:
 3901              	.L213:
 3902 19af 4883FA01 		cmpq	$1, %rdx
 3903 19b3 740F     		je	.L215
 3904 19b5 4883FA02 		cmpq	$2, %rdx
 3905 19b9 0F84A700 		je	.L216
 3905      0000
 3906 19bf E94B0100 		jmp	.L231
 3906      00
 3907              	.L215:
 3908              	.LBE63:
 3909              	.LBB64:
 3910 19c4 4889C7   		movq	%rax, %rdi
 3911 19c7 E8000000 		call	__cxa_begin_catch
 3911      00
 3912 19cc 48898550 		movq	%rax, -2224(%rbp)
 3912      F7FFFF
 3913 19d3 488B8550 		movq	-2224(%rbp), %rax
 3913      F7FFFF
 3914 19da 488B00   		movq	(%rax), %rax
 3915 19dd 4883C010 		addq	$16, %rax
 3916 19e1 488B00   		movq	(%rax), %rax
 3917 19e4 488B9550 		movq	-2224(%rbp), %rdx
 3917      F7FFFF
 3918 19eb 4889D7   		movq	%rdx, %rdi
 3919 19ee FFD0     		call	*%rax
 3920 19f0 4889C3   		movq	%rax, %rbx
 3921 19f3 488B8550 		movq	-2224(%rbp), %rax
 3921      F7FFFF
 3922 19fa 4889C7   		movq	%rax, %rdi
 3923              	.LEHB102:
 3924 19fd E8000000 		call	_ZNK8UnitTest15AssertException10LineNumberEv
 3924      00
 3925 1a02 4189C4   		movl	%eax, %r12d
 3926 1a05 488B8550 		movq	-2224(%rbp), %rax
 3926      F7FFFF
 3927 1a0c 4889C7   		movq	%rax, %rdi
 3928 1a0f E8000000 		call	_ZNK8UnitTest15AssertException8FilenameEv
 3928      00
 3929              		.loc 6 108 0 discriminator 5
 3930 1a14 4889C1   		movq	%rax, %rcx
 3931 1a17 488B8538 		movq	-2248(%rbp), %rax
 3931      F7FFFF
 3932 1a1e 488B5008 		movq	8(%rax), %rdx
 3933 1a22 488B8538 		movq	-2248(%rbp), %rax
 3933      F7FFFF
 3934 1a29 488B7010 		movq	16(%rax), %rsi
 3935 1a2d 488D8560 		leaq	-2208(%rbp), %rax
 3935      F7FFFF
 3936 1a34 4589E0   		movl	%r12d, %r8d
 3937 1a37 4889C7   		movq	%rax, %rdi
 3938 1a3a E8000000 		call	_ZN8UnitTest11TestDetailsC1EPKcS2_S2_i
 3938      00
 3939              		.loc 6 108 0 discriminator 9
 3940 1a3f E8000000 		call	_ZN8UnitTest11CurrentTest7ResultsEv
 3940      00
 3941 1a44 488B00   		movq	(%rax), %rax
 3942 1a47 488D8D60 		leaq	-2208(%rbp), %rcx
 3942      F7FFFF
 3943 1a4e 4889DA   		movq	%rbx, %rdx
 3944 1a51 4889CE   		movq	%rcx, %rsi
 3945 1a54 4889C7   		movq	%rax, %rdi
 3946 1a57 E8000000 		call	_ZN8UnitTest11TestResults13OnTestFailureERKNS_11TestDetailsEPKc
 3946      00
 3947              	.LEHE102:
 3948              		.loc 6 108 0 discriminator 13
 3949 1a5c E8000000 		call	__cxa_end_catch
 3949      00
 3950              	.LBE64:
 3951 1a61 E9920100 		jmp	.L211
 3951      00
 3952              	.L216:
 3953              	.LBB65:
 3954              		.loc 6 108 0
 3955 1a66 4889C7   		movq	%rax, %rdi
 3956 1a69 E8000000 		call	__cxa_begin_catch
 3956      00
 3957 1a6e 48898558 		movq	%rax, -2216(%rbp)
 3957      F7FFFF
 3958              	.LBB66:
 3959 1a75 488D8580 		leaq	-2176(%rbp), %rax
 3959      F7FFFF
 3960 1a7c 4889C7   		movq	%rax, %rdi
 3961              	.LEHB103:
 3962 1a7f E8000000 		call	_ZN8UnitTest15MemoryOutStreamC1Ev
 3962      00
 3963              	.LEHE103:
 3964              		.loc 6 108 0 discriminator 15
 3965 1a84 488B8558 		movq	-2216(%rbp), %rax
 3965      F7FFFF
 3966 1a8b 488B00   		movq	(%rax), %rax
 3967 1a8e 4883C010 		addq	$16, %rax
 3968 1a92 488B00   		movq	(%rax), %rax
 3969 1a95 488B9558 		movq	-2216(%rbp), %rdx
 3969      F7FFFF
 3970 1a9c 4889D7   		movq	%rdx, %rdi
 3971 1a9f FFD0     		call	*%rax
 3972 1aa1 4889C3   		movq	%rax, %rbx
 3973 1aa4 488D8580 		leaq	-2176(%rbp), %rax
 3973      F7FFFF
 3974 1aab BE000000 		movl	$.LC8, %esi
 3974      00
 3975 1ab0 4889C7   		movq	%rax, %rdi
 3976              	.LEHB104:
 3977 1ab3 E8000000 		call	_ZStlsISt11char_traitsIcEERSt13basic_ostreamIcT_ES5_PKc
 3977      00
 3978 1ab8 4889DE   		movq	%rbx, %rsi
 3979 1abb 4889C7   		movq	%rax, %rdi
 3980 1abe E8000000 		call	_ZStlsISt11char_traitsIcEERSt13basic_ostreamIcT_ES5_PKc
 3980      00
 3981              		.loc 6 108 0 discriminator 19
 3982 1ac3 488D8580 		leaq	-2176(%rbp), %rax
 3982      F7FFFF
 3983 1aca 4889C7   		movq	%rax, %rdi
 3984 1acd E8000000 		call	_ZNK8UnitTest15MemoryOutStream7GetTextEv
 3984      00
 3985 1ad2 4989C4   		movq	%rax, %r12
 3986 1ad5 488B8538 		movq	-2248(%rbp), %rax
 3986      F7FFFF
 3987 1adc 488D5808 		leaq	8(%rax), %rbx
 3988 1ae0 E8000000 		call	_ZN8UnitTest11CurrentTest7ResultsEv
 3988      00
 3989              		.loc 6 108 0 discriminator 21
 3990 1ae5 488B00   		movq	(%rax), %rax
 3991 1ae8 4C89E2   		movq	%r12, %rdx
 3992 1aeb 4889DE   		movq	%rbx, %rsi
 3993 1aee 4889C7   		movq	%rax, %rdi
 3994 1af1 E8000000 		call	_ZN8UnitTest11TestResults13OnTestFailureERKNS_11TestDetailsEPKc
 3994      00
 3995              	.LEHE104:
 3996              		.loc 6 108 0 discriminator 25
 3997 1af6 488D8580 		leaq	-2176(%rbp), %rax
 3997      F7FFFF
 3998 1afd 4889C7   		movq	%rax, %rdi
 3999              	.LEHB105:
 4000 1b00 E8000000 		call	_ZN8UnitTest15MemoryOutStreamD1Ev
 4000      00
 4001              	.LEHE105:
 4002              	.LBE66:
 4003              		.loc 6 108 0 discriminator 26
 4004 1b05 E8000000 		call	__cxa_end_catch
 4004      00
 4005              	.LBE65:
 4006 1b0a E9E90000 		jmp	.L211
 4006      00
 4007              	.L231:
 4008              		.loc 6 108 0
 4009 1b0f 4889C7   		movq	%rax, %rdi
 4010 1b12 E8000000 		call	__cxa_begin_catch
 4010      00
 4011 1b17 80BD4FF7 		cmpb	$0, -2225(%rbp)
 4011      FFFF00
 4012 1b1e 7443     		je	.L218
 4013              		.loc 6 108 0 discriminator 28
 4014 1b20 488B8538 		movq	-2248(%rbp), %rax
 4014      F7FFFF
 4015 1b27 488D4808 		leaq	8(%rax), %rcx
 4016 1b2b 488D8560 		leaq	-2208(%rbp), %rax
 4016      F7FFFF
 4017 1b32 BA6C0000 		movl	$108, %edx
 4017      00
 4018 1b37 4889CE   		movq	%rcx, %rsi
 4019 1b3a 4889C7   		movq	%rax, %rdi
 4020              	.LEHB106:
 4021 1b3d E8000000 		call	_ZN8UnitTest11TestDetailsC1ERKS0_i
 4021      00
 4022              		.loc 6 108 0 discriminator 31
 4023 1b42 E8000000 		call	_ZN8UnitTest11CurrentTest7ResultsEv
 4023      00
 4024 1b47 488B00   		movq	(%rax), %rax
 4025 1b4a 488D8D60 		leaq	-2208(%rbp), %rcx
 4025      F7FFFF
 4026 1b51 BA000000 		movl	$.LC9, %edx
 4026      00
 4027 1b56 4889CE   		movq	%rcx, %rsi
 4028 1b59 4889C7   		movq	%rax, %rdi
 4029 1b5c E8000000 		call	_ZN8UnitTest11TestResults13OnTestFailureERKNS_11TestDetailsEPKc
 4029      00
 4030 1b61 EB41     		jmp	.L219
 4031              	.L218:
 4032              		.loc 6 108 0 discriminator 29
 4033 1b63 488B8538 		movq	-2248(%rbp), %rax
 4033      F7FFFF
 4034 1b6a 488D4808 		leaq	8(%rax), %rcx
 4035 1b6e 488D8560 		leaq	-2208(%rbp), %rax
 4035      F7FFFF
 4036 1b75 BA6C0000 		movl	$108, %edx
 4036      00
 4037 1b7a 4889CE   		movq	%rcx, %rsi
 4038 1b7d 4889C7   		movq	%rax, %rdi
 4039 1b80 E8000000 		call	_ZN8UnitTest11TestDetailsC1ERKS0_i
 4039      00
 4040              		.loc 6 108 0 discriminator 38
 4041 1b85 E8000000 		call	_ZN8UnitTest11CurrentTest7ResultsEv
 4041      00
 4042 1b8a 488B00   		movq	(%rax), %rax
 4043 1b8d 488D8D60 		leaq	-2208(%rbp), %rcx
 4043      F7FFFF
 4044 1b94 BA000000 		movl	$.LC10, %edx
 4044      00
 4045 1b99 4889CE   		movq	%rcx, %rsi
 4046 1b9c 4889C7   		movq	%rax, %rdi
 4047 1b9f E8000000 		call	_ZN8UnitTest11TestResults13OnTestFailureERKNS_11TestDetailsEPKc
 4047      00
 4048              	.LEHE106:
 4049              	.L219:
 4050              	.LEHB107:
 4051              		.loc 6 108 0 discriminator 43
 4052 1ba4 E8000000 		call	__cxa_end_catch
 4052      00
 4053 1ba9 EB4D     		jmp	.L211
 4054              	.L227:
 4055 1bab 4889C3   		movq	%rax, %rbx
 4056              	.LBB68:
 4057              		.loc 6 108 0
 4058 1bae E8000000 		call	__cxa_end_catch
 4058      00
 4059 1bb3 4889D8   		movq	%rbx, %rax
 4060 1bb6 4889C7   		movq	%rax, %rdi
 4061 1bb9 E8000000 		call	_Unwind_Resume
 4061      00
 4062              	.LEHE107:
 4063              	.L229:
 4064 1bbe 4889C3   		movq	%rax, %rbx
 4065              	.LBE68:
 4066              	.LBB69:
 4067              	.LBB67:
 4068 1bc1 488D8580 		leaq	-2176(%rbp), %rax
 4068      F7FFFF
 4069 1bc8 4889C7   		movq	%rax, %rdi
 4070 1bcb E8000000 		call	_ZN8UnitTest15MemoryOutStreamD1Ev
 4070      00
 4071 1bd0 EB03     		jmp	.L222
 4072              	.L228:
 4073 1bd2 4889C3   		movq	%rax, %rbx
 4074              	.L222:
 4075              	.LBE67:
 4076 1bd5 E8000000 		call	__cxa_end_catch
 4076      00
 4077 1bda 4889D8   		movq	%rbx, %rax
 4078 1bdd 4889C7   		movq	%rax, %rdi
 4079              	.LEHB108:
 4080 1be0 E8000000 		call	_Unwind_Resume
 4080      00
 4081              	.LEHE108:
 4082              	.L230:
 4083 1be5 4889C3   		movq	%rax, %rbx
 4084              	.LBE69:
 4085 1be8 E8000000 		call	__cxa_end_catch
 4085      00
 4086 1bed 4889D8   		movq	%rbx, %rax
 4087 1bf0 4889C7   		movq	%rax, %rdi
 4088              	.LEHB109:
 4089 1bf3 E8000000 		call	_Unwind_Resume
 4089      00
 4090              	.LEHE109:
 4091              	.L211:
 4092 1bf8 488B45E8 		movq	-24(%rbp), %rax
 4093 1bfc 64483304 		xorq	%fs:40, %rax
 4093      25280000 
 4093      00
 4094 1c05 7405     		je	.L224
 4095 1c07 E8000000 		call	__stack_chk_fail
 4095      00
 4096              	.L224:
 4097 1c0c 4881C4C0 		addq	$2240, %rsp
 4097      080000
 4098 1c13 5B       		popq	%rbx
 4099 1c14 415C     		popq	%r12
 4100 1c16 5D       		popq	%rbp
 4101              		.cfi_def_cfa 7, 8
 4102 1c17 C3       		ret
 4103              		.cfi_endproc
 4104              	.LFE1150:
 4105              		.section	.gcc_except_table
 4106              		.align 4
 4107              	.LLSDA1150:
 4108 02a4 FF       		.byte	0xff
 4109 02a5 03       		.byte	0x3
 4110 02a6 55       		.uleb128 .LLSDATT1150-.LLSDATTD1150
 4111              	.LLSDATTD1150:
 4112 02a7 01       		.byte	0x1
 4113 02a8 3C       		.uleb128 .LLSDACSE1150-.LLSDACSB1150
 4114              	.LLSDACSB1150:
 4115 02a9 43       		.uleb128 .LEHB99-.LFB1150
 4116 02aa 05       		.uleb128 .LEHE99-.LEHB99
 4117 02ab 9D01     		.uleb128 .L225-.LFB1150
 4118 02ad 05       		.uleb128 0x5
 4119 02ae 67       		.uleb128 .LEHB100-.LFB1150
 4120 02af 05       		.uleb128 .LEHE100-.LEHB100
 4121 02b0 8001     		.uleb128 .L226-.LFB1150
 4122 02b2 07       		.uleb128 0x7
 4123 02b3 76       		.uleb128 .LEHB101-.LFB1150
 4124 02b4 05       		.uleb128 .LEHE101-.LEHB101
 4125 02b5 9D01     		.uleb128 .L225-.LFB1150
 4126 02b7 05       		.uleb128 0x5
 4127 02b8 EB01     		.uleb128 .LEHB102-.LFB1150
 4128 02ba 5F       		.uleb128 .LEHE102-.LEHB102
 4129 02bb 9905     		.uleb128 .L227-.LFB1150
 4130 02bd 00       		.uleb128 0
 4131 02be ED02     		.uleb128 .LEHB103-.LFB1150
 4132 02c0 05       		.uleb128 .LEHE103-.LEHB103
 4133 02c1 C005     		.uleb128 .L228-.LFB1150
 4134 02c3 00       		.uleb128 0
 4135 02c4 A103     		.uleb128 .LEHB104-.LFB1150
 4136 02c6 43       		.uleb128 .LEHE104-.LEHB104
 4137 02c7 AC05     		.uleb128 .L229-.LFB1150
 4138 02c9 00       		.uleb128 0
 4139 02ca EE03     		.uleb128 .LEHB105-.LFB1150
 4140 02cc 05       		.uleb128 .LEHE105-.LEHB105
 4141 02cd C005     		.uleb128 .L228-.LFB1150
 4142 02cf 00       		.uleb128 0
 4143 02d0 AB04     		.uleb128 .LEHB106-.LFB1150
 4144 02d2 67       		.uleb128 .LEHE106-.LEHB106
 4145 02d3 D305     		.uleb128 .L230-.LFB1150
 4146 02d5 00       		.uleb128 0
 4147 02d6 9205     		.uleb128 .LEHB107-.LFB1150
 4148 02d8 1A       		.uleb128 .LEHE107-.LEHB107
 4149 02d9 00       		.uleb128 0
 4150 02da 00       		.uleb128 0
 4151 02db CE05     		.uleb128 .LEHB108-.LFB1150
 4152 02dd 05       		.uleb128 .LEHE108-.LEHB108
 4153 02de 00       		.uleb128 0
 4154 02df 00       		.uleb128 0
 4155 02e0 E105     		.uleb128 .LEHB109-.LFB1150
 4156 02e2 05       		.uleb128 .LEHE109-.LEHB109
 4157 02e3 00       		.uleb128 0
 4158 02e4 00       		.uleb128 0
 4159              	.LLSDACSE1150:
 4160 02e5 03       		.byte	0x3
 4161 02e6 00       		.byte	0
 4162 02e7 02       		.byte	0x2
 4163 02e8 7D       		.byte	0x7d
 4164 02e9 01       		.byte	0x1
 4165 02ea 7D       		.byte	0x7d
 4166 02eb 00       		.byte	0
 4167 02ec 7D       		.byte	0x7d
 4168 02ed 000000   		.align 4
 4169 02f0 00000000 		.long	0
 4170              	
 4171 02f4 00000000 		.long	_ZTISt9exception
 4172 02f8 00000000 		.long	_ZTIN8UnitTest15AssertExceptionE
 4173              	.LLSDATT1150:
 4174              		.text
 4176              		.section	.rodata
 4177              	.LC30:
 4178 0465 74657374 		.string	"test"
 4178      00
 4179 046a 00000000 		.align 8
 4179      0000
 4180              	.LC31:
 4181 0470 556E6861 		.string	"Unhandled exception in CHECK_EQUAL(2, RunTestsIf(list, NULL, True(), 0))"
 4181      6E646C65 
 4181      64206578 
 4181      63657074 
 4181      696F6E20 
 4182 04b9 00000000 		.align 8
 4182      000000
 4183              	.LC32:
 4184 04c0 556E6861 		.string	"Unhandled exception in CHECK_EQUAL(2, reporter.testFailedCount)"
 4184      6E646C65 
 4184      64206578 
 4184      63657074 
 4184      696F6E20 
 4185              		.text
 4186              		.align 2
 4188              	_ZN12_GLOBAL__N_159TestRunnerFixtureCallsReportFailureOncePerFailingTestHelper7RunImplEv:
 4189              	.LFB1154:
 109:TestTestRunner.cpp **** {
 4190              		.loc 6 109 0 is_stmt 1
 4191              		.cfi_startproc
 4192              		.cfi_personality 0x3,__gxx_personality_v0
 4193              		.cfi_lsda 0x3,.LLSDA1154
 4194 1c18 55       		pushq	%rbp
 4195              		.cfi_def_cfa_offset 16
 4196              		.cfi_offset 6, -16
 4197 1c19 4889E5   		movq	%rsp, %rbp
 4198              		.cfi_def_cfa_register 6
 4199 1c1c 53       		pushq	%rbx
 4200 1c1d 4881EC08 		subq	$264, %rsp
 4200      010000
 4201              		.cfi_offset 3, -24
 4202 1c24 4889BDF8 		movq	%rdi, -264(%rbp)
 4202      FEFFFF
 4203              		.loc 6 109 0
 4204 1c2b 64488B04 		movq	%fs:40, %rax
 4204      25280000 
 4204      00
 4205 1c34 488945E8 		movq	%rax, -24(%rbp)
 4206 1c38 31C0     		xorl	%eax, %eax
 110:TestTestRunner.cpp ****     MockTest test1("test", false, false);
 4207              		.loc 6 110 0
 4208 1c3a 488D8530 		leaq	-208(%rbp), %rax
 4208      FFFFFF
 4209 1c41 41B80100 		movl	$1, %r8d
 4209      0000
 4210 1c47 B9000000 		movl	$0, %ecx
 4210      00
 4211 1c4c BA000000 		movl	$0, %edx
 4211      00
 4212 1c51 BE000000 		movl	$.LC30, %esi
 4212      00
 4213 1c56 4889C7   		movq	%rax, %rdi
 4214              	.LEHB110:
 4215 1c59 E8A2E3FF 		call	_ZN12_GLOBAL__N_18MockTestC1EPKcbbi
 4215      FF
 4216              	.LEHE110:
 111:TestTestRunner.cpp ****     list.Add(&test1);
 4217              		.loc 6 111 0
 4218 1c5e 488B85F8 		movq	-264(%rbp), %rax
 4218      FEFFFF
 4219 1c65 488D9048 		leaq	2120(%rax), %rdx
 4219      080000
 4220 1c6c 488D8530 		leaq	-208(%rbp), %rax
 4220      FFFFFF
 4221 1c73 4889C6   		movq	%rax, %rsi
 4222 1c76 4889D7   		movq	%rdx, %rdi
 4223              	.LEHB111:
 4224 1c79 E8000000 		call	_ZN8UnitTest8TestList3AddEPNS_4TestE
 4224      00
 112:TestTestRunner.cpp ****     MockTest test2("test", true, false);
 4225              		.loc 6 112 0
 4226 1c7e 488D8570 		leaq	-144(%rbp), %rax
 4226      FFFFFF
 4227 1c85 41B80100 		movl	$1, %r8d
 4227      0000
 4228 1c8b B9000000 		movl	$0, %ecx
 4228      00
 4229 1c90 BA010000 		movl	$1, %edx
 4229      00
 4230 1c95 BE000000 		movl	$.LC30, %esi
 4230      00
 4231 1c9a 4889C7   		movq	%rax, %rdi
 4232 1c9d E85EE3FF 		call	_ZN12_GLOBAL__N_18MockTestC1EPKcbbi
 4232      FF
 4233              	.LEHE111:
 113:TestTestRunner.cpp ****     list.Add(&test2);
 4234              		.loc 6 113 0
 4235 1ca2 488B85F8 		movq	-264(%rbp), %rax
 4235      FEFFFF
 4236 1ca9 488D9048 		leaq	2120(%rax), %rdx
 4236      080000
 4237 1cb0 488D8570 		leaq	-144(%rbp), %rax
 4237      FFFFFF
 4238 1cb7 4889C6   		movq	%rax, %rsi
 4239 1cba 4889D7   		movq	%rdx, %rdi
 4240              	.LEHB112:
 4241 1cbd E8000000 		call	_ZN8UnitTest8TestList3AddEPNS_4TestE
 4241      00
 114:TestTestRunner.cpp ****     MockTest test3("test", false, false);
 4242              		.loc 6 114 0
 4243 1cc2 488D45B0 		leaq	-80(%rbp), %rax
 4244 1cc6 41B80100 		movl	$1, %r8d
 4244      0000
 4245 1ccc B9000000 		movl	$0, %ecx
 4245      00
 4246 1cd1 BA000000 		movl	$0, %edx
 4246      00
 4247 1cd6 BE000000 		movl	$.LC30, %esi
 4247      00
 4248 1cdb 4889C7   		movq	%rax, %rdi
 4249 1cde E81DE3FF 		call	_ZN12_GLOBAL__N_18MockTestC1EPKcbbi
 4249      FF
 4250              	.LEHE112:
 115:TestTestRunner.cpp ****     list.Add(&test3);
 4251              		.loc 6 115 0
 4252 1ce3 488B85F8 		movq	-264(%rbp), %rax
 4252      FEFFFF
 4253 1cea 488D9048 		leaq	2120(%rax), %rdx
 4253      080000
 4254 1cf1 488D45B0 		leaq	-80(%rbp), %rax
 4255 1cf5 4889C6   		movq	%rax, %rsi
 4256 1cf8 4889D7   		movq	%rdx, %rdi
 4257              	.LEHB113:
 4258 1cfb E8000000 		call	_ZN8UnitTest8TestList3AddEPNS_4TestE
 4258      00
 4259              	.LEHE113:
 4260              	.LEHB114:
 116:TestTestRunner.cpp **** 
 117:TestTestRunner.cpp **** 	CHECK_EQUAL(2, 	RunTestsIf(list, NULL, True(), 0));
 4261              		.loc 6 117 0
 4262 1d00 E8000000 		call	_ZN8UnitTest11CurrentTest7DetailsEv
 4262      00
 4263 1d05 488B08   		movq	(%rax), %rcx
 4264 1d08 488D8510 		leaq	-240(%rbp), %rax
 4264      FFFFFF
 4265 1d0f BA750000 		movl	$117, %edx
 4265      00
 4266 1d14 4889CE   		movq	%rcx, %rsi
 4267 1d17 4889C7   		movq	%rax, %rdi
 4268 1d1a E8000000 		call	_ZN8UnitTest11TestDetailsC1ERKS0_i
 4268      00
 4269              	.LEHE114:
 4270              		.loc 6 117 0 is_stmt 0 discriminator 2
 4271 1d1f 488B85F8 		movq	-264(%rbp), %rax
 4271      FEFFFF
 4272 1d26 488DB048 		leaq	2120(%rax), %rsi
 4272      080000
 4273 1d2d 488B85F8 		movq	-264(%rbp), %rax
 4273      FEFFFF
 4274 1d34 488D9507 		leaq	-249(%rbp), %rdx
 4274      FFFFFF
 4275 1d3b 41B80000 		movl	$0, %r8d
 4275      0000
 4276 1d41 4889D1   		movq	%rdx, %rcx
 4277 1d44 BA000000 		movl	$0, %edx
 4277      00
 4278 1d49 4889C7   		movq	%rax, %rdi
 4279              	.LEHB115:
 4280 1d4c E82D4F00 		call	_ZN12_GLOBAL__N_111FixtureBase10RunTestsIfIN8UnitTest4TrueEEEiRKNS2_8TestListEPKcRKT_i
 4280      00
 4281              	.LEHE115:
 4282 1d51 89850CFF 		movl	%eax, -244(%rbp)
 4282      FFFF
 4283 1d57 C78508FF 		movl	$2, -248(%rbp)
 4283      FFFF0200 
 4283      0000
 4284              	.LEHB116:
 4285 1d61 E8000000 		call	_ZN8UnitTest11CurrentTest7ResultsEv
 4285      00
 4286              		.loc 6 117 0 discriminator 4
 4287 1d66 488B00   		movq	(%rax), %rax
 4288 1d69 488D8D10 		leaq	-240(%rbp), %rcx
 4288      FFFFFF
 4289 1d70 488D950C 		leaq	-244(%rbp), %rdx
 4289      FFFFFF
 4290 1d77 488DB508 		leaq	-248(%rbp), %rsi
 4290      FFFFFF
 4291 1d7e 4889C7   		movq	%rax, %rdi
 4292 1d81 E8000000 		call	_ZN8UnitTest10CheckEqualIiiEEvRNS_11TestResultsERKT_RKT0_RKNS_11TestDetailsE
 4292      00
 4293              	.LEHE116:
 4294              	.L236:
 4295              	.LEHB117:
 118:TestTestRunner.cpp ****     CHECK_EQUAL(2, reporter.testFailedCount);
 4296              		.loc 6 118 0 is_stmt 1
 4297 1d86 E8000000 		call	_ZN8UnitTest11CurrentTest7DetailsEv
 4297      00
 4298 1d8b 488B08   		movq	(%rax), %rcx
 4299 1d8e 488D8510 		leaq	-240(%rbp), %rax
 4299      FFFFFF
 4300 1d95 BA760000 		movl	$118, %edx
 4300      00
 4301 1d9a 4889CE   		movq	%rcx, %rsi
 4302 1d9d 4889C7   		movq	%rax, %rdi
 4303 1da0 E8000000 		call	_ZN8UnitTest11TestDetailsC1ERKS0_i
 4303      00
 4304              	.LEHE117:
 4305              		.loc 6 118 0 is_stmt 0 discriminator 2
 4306 1da5 488B85F8 		movq	-264(%rbp), %rax
 4306      FEFFFF
 4307 1dac 488D9824 		leaq	548(%rax), %rbx
 4307      020000
 4308 1db3 C7850CFF 		movl	$2, -244(%rbp)
 4308      FFFF0200 
 4308      0000
 4309              	.LEHB118:
 4310 1dbd E8000000 		call	_ZN8UnitTest11CurrentTest7ResultsEv
 4310      00
 4311 1dc2 488B00   		movq	(%rax), %rax
 4312 1dc5 488D9510 		leaq	-240(%rbp), %rdx
 4312      FFFFFF
 4313 1dcc 488DB50C 		leaq	-244(%rbp), %rsi
 4313      FFFFFF
 4314 1dd3 4889D1   		movq	%rdx, %rcx
 4315 1dd6 4889DA   		movq	%rbx, %rdx
 4316 1dd9 4889C7   		movq	%rax, %rdi
 4317 1ddc E8000000 		call	_ZN8UnitTest10CheckEqualIiiEEvRNS_11TestResultsERKT_RKT0_RKNS_11TestDetailsE
 4317      00
 4318              	.LEHE118:
 4319              	.L241:
 114:TestTestRunner.cpp ****     list.Add(&test3);
 4320              		.loc 6 114 0 is_stmt 1
 4321 1de1 488D45B0 		leaq	-80(%rbp), %rax
 4322 1de5 4889C7   		movq	%rax, %rdi
 4323              	.LEHB119:
 4324 1de8 E8C78300 		call	_ZN12_GLOBAL__N_18MockTestD1Ev
 4324      00
 4325              	.LEHE119:
 112:TestTestRunner.cpp ****     list.Add(&test2);
 4326              		.loc 6 112 0
 4327 1ded 488D8570 		leaq	-144(%rbp), %rax
 4327      FFFFFF
 4328 1df4 4889C7   		movq	%rax, %rdi
 4329              	.LEHB120:
 4330 1df7 E8B88300 		call	_ZN12_GLOBAL__N_18MockTestD1Ev
 4330      00
 4331              	.LEHE120:
 110:TestTestRunner.cpp ****     list.Add(&test1);
 4332              		.loc 6 110 0
 4333 1dfc 488D8530 		leaq	-208(%rbp), %rax
 4333      FFFFFF
 4334 1e03 4889C7   		movq	%rax, %rdi
 4335              	.LEHB121:
 4336 1e06 E8A98300 		call	_ZN12_GLOBAL__N_18MockTestD1Ev
 4336      00
 4337              	.LEHE121:
 119:TestTestRunner.cpp **** }
 4338              		.loc 6 119 0
 4339 1e0b 90       		nop
 4340 1e0c 488B45E8 		movq	-24(%rbp), %rax
 4341 1e10 64483304 		xorq	%fs:40, %rax
 4341      25280000 
 4341      00
 4342 1e19 0F840601 		je	.L245
 4342      0000
 4343 1e1f E9FC0000 		jmp	.L256
 4343      00
 4344              	.L251:
 4345 1e24 EB02     		jmp	.L235
 4346              	.L250:
 4347 1e26 EB00     		jmp	.L235
 4348              	.L249:
 4349              	.L235:
 117:TestTestRunner.cpp ****     CHECK_EQUAL(2, reporter.testFailedCount);
 4350              		.loc 6 117 0
 4351 1e28 4889C7   		movq	%rax, %rdi
 4352 1e2b E8000000 		call	__cxa_begin_catch
 4352      00
 4353              	.LEHB122:
 4354 1e30 E8000000 		call	_ZN8UnitTest11CurrentTest7DetailsEv
 4354      00
 4355 1e35 488B08   		movq	(%rax), %rcx
 4356 1e38 488D8510 		leaq	-240(%rbp), %rax
 4356      FFFFFF
 4357 1e3f BA750000 		movl	$117, %edx
 4357      00
 4358 1e44 4889CE   		movq	%rcx, %rsi
 4359 1e47 4889C7   		movq	%rax, %rdi
 4360 1e4a E8000000 		call	_ZN8UnitTest11TestDetailsC1ERKS0_i
 4360      00
 117:TestTestRunner.cpp ****     CHECK_EQUAL(2, reporter.testFailedCount);
 4361              		.loc 6 117 0 is_stmt 0 discriminator 12
 4362 1e4f E8000000 		call	_ZN8UnitTest11CurrentTest7ResultsEv
 4362      00
 4363 1e54 488B00   		movq	(%rax), %rax
 4364 1e57 488D8D10 		leaq	-240(%rbp), %rcx
 4364      FFFFFF
 4365 1e5e BA000000 		movl	$.LC31, %edx
 4365      00
 4366 1e63 4889CE   		movq	%rcx, %rsi
 4367 1e66 4889C7   		movq	%rax, %rdi
 4368 1e69 E8000000 		call	_ZN8UnitTest11TestResults13OnTestFailureERKNS_11TestDetailsEPKc
 4368      00
 4369              	.LEHE122:
 4370              	.LEHB123:
 117:TestTestRunner.cpp ****     CHECK_EQUAL(2, reporter.testFailedCount);
 4371              		.loc 6 117 0 discriminator 16
 4372 1e6e E8000000 		call	__cxa_end_catch
 4372      00
 4373              	.LEHE123:
 117:TestTestRunner.cpp ****     CHECK_EQUAL(2, reporter.testFailedCount);
 4374              		.loc 6 117 0
 4375 1e73 E90EFFFF 		jmp	.L236
 4375      FF
 4376              	.L252:
 4377 1e78 4889C3   		movq	%rax, %rbx
 4378 1e7b E8000000 		call	__cxa_end_catch
 4378      00
 4379 1e80 EB5F     		jmp	.L238
 4380              	.L254:
 4381 1e82 EB00     		jmp	.L240
 4382              	.L253:
 4383              	.L240:
 118:TestTestRunner.cpp **** }
 4384              		.loc 6 118 0 is_stmt 1
 4385 1e84 4889C7   		movq	%rax, %rdi
 4386 1e87 E8000000 		call	__cxa_begin_catch
 4386      00
 4387              	.LEHB124:
 4388 1e8c E8000000 		call	_ZN8UnitTest11CurrentTest7DetailsEv
 4388      00
 4389 1e91 488B08   		movq	(%rax), %rcx
 4390 1e94 488D8510 		leaq	-240(%rbp), %rax
 4390      FFFFFF
 4391 1e9b BA760000 		movl	$118, %edx
 4391      00
 4392 1ea0 4889CE   		movq	%rcx, %rsi
 4393 1ea3 4889C7   		movq	%rax, %rdi
 4394 1ea6 E8000000 		call	_ZN8UnitTest11TestDetailsC1ERKS0_i
 4394      00
 118:TestTestRunner.cpp **** }
 4395              		.loc 6 118 0 is_stmt 0 discriminator 10
 4396 1eab E8000000 		call	_ZN8UnitTest11CurrentTest7ResultsEv
 4396      00
 4397 1eb0 488B00   		movq	(%rax), %rax
 4398 1eb3 488D8D10 		leaq	-240(%rbp), %rcx
 4398      FFFFFF
 4399 1eba BA000000 		movl	$.LC32, %edx
 4399      00
 4400 1ebf 4889CE   		movq	%rcx, %rsi
 4401 1ec2 4889C7   		movq	%rax, %rdi
 4402 1ec5 E8000000 		call	_ZN8UnitTest11TestResults13OnTestFailureERKNS_11TestDetailsEPKc
 4402      00
 4403              	.LEHE124:
 4404              	.LEHB125:
 118:TestTestRunner.cpp **** }
 4405              		.loc 6 118 0 discriminator 14
 4406 1eca E8000000 		call	__cxa_end_catch
 4406      00
 4407              	.LEHE125:
 118:TestTestRunner.cpp **** }
 4408              		.loc 6 118 0
 4409 1ecf E90DFFFF 		jmp	.L241
 4409      FF
 4410              	.L255:
 4411 1ed4 4889C3   		movq	%rax, %rbx
 4412 1ed7 E8000000 		call	__cxa_end_catch
 4412      00
 4413 1edc EB03     		jmp	.L238
 4414              	.L248:
 4415 1ede 4889C3   		movq	%rax, %rbx
 4416              	.L238:
 114:TestTestRunner.cpp ****     list.Add(&test3);
 4417              		.loc 6 114 0 is_stmt 1
 4418 1ee1 488D45B0 		leaq	-80(%rbp), %rax
 4419 1ee5 4889C7   		movq	%rax, %rdi
 4420 1ee8 E8C78200 		call	_ZN12_GLOBAL__N_18MockTestD1Ev
 4420      00
 4421 1eed EB03     		jmp	.L243
 4422              	.L247:
 4423 1eef 4889C3   		movq	%rax, %rbx
 4424              	.L243:
 112:TestTestRunner.cpp ****     list.Add(&test2);
 4425              		.loc 6 112 0
 4426 1ef2 488D8570 		leaq	-144(%rbp), %rax
 4426      FFFFFF
 4427 1ef9 4889C7   		movq	%rax, %rdi
 4428 1efc E8B38200 		call	_ZN12_GLOBAL__N_18MockTestD1Ev
 4428      00
 4429 1f01 EB03     		jmp	.L244
 4430              	.L246:
 4431 1f03 4889C3   		movq	%rax, %rbx
 4432              	.L244:
 110:TestTestRunner.cpp ****     list.Add(&test1);
 4433              		.loc 6 110 0
 4434 1f06 488D8530 		leaq	-208(%rbp), %rax
 4434      FFFFFF
 4435 1f0d 4889C7   		movq	%rax, %rdi
 4436 1f10 E89F8200 		call	_ZN12_GLOBAL__N_18MockTestD1Ev
 4436      00
 4437 1f15 4889D8   		movq	%rbx, %rax
 4438 1f18 4889C7   		movq	%rax, %rdi
 4439              	.LEHB126:
 4440 1f1b E8000000 		call	_Unwind_Resume
 4440      00
 4441              	.LEHE126:
 4442              	.L256:
 4443              		.loc 6 119 0
 4444 1f20 E8000000 		call	__stack_chk_fail
 4444      00
 4445              	.L245:
 4446 1f25 4881C408 		addq	$264, %rsp
 4446      010000
 4447 1f2c 5B       		popq	%rbx
 4448 1f2d 5D       		popq	%rbp
 4449              		.cfi_def_cfa 7, 8
 4450 1f2e C3       		ret
 4451              		.cfi_endproc
 4452              	.LFE1154:
 4453              		.section	.gcc_except_table
 4454              		.align 4
 4455              	.LLSDA1154:
 4456 02fc FF       		.byte	0xff
 4457 02fd 03       		.byte	0x3
 4458 02fe 69       		.uleb128 .LLSDATT1154-.LLSDATTD1154
 4459              	.LLSDATTD1154:
 4460 02ff 01       		.byte	0x1
 4461 0300 61       		.uleb128 .LLSDACSE1154-.LLSDACSB1154
 4462              	.LLSDACSB1154:
 4463 0301 41       		.uleb128 .LEHB110-.LFB1154
 4464 0302 05       		.uleb128 .LEHE110-.LEHB110
 4465 0303 00       		.uleb128 0
 4466 0304 00       		.uleb128 0
 4467 0305 61       		.uleb128 .LEHB111-.LFB1154
 4468 0306 29       		.uleb128 .LEHE111-.LEHB111
 4469 0307 EB05     		.uleb128 .L246-.LFB1154
 4470 0309 00       		.uleb128 0
 4471 030a A501     		.uleb128 .LEHB112-.LFB1154
 4472 030c 26       		.uleb128 .LEHE112-.LEHB112
 4473 030d D705     		.uleb128 .L247-.LFB1154
 4474 030f 00       		.uleb128 0
 4475 0310 E301     		.uleb128 .LEHB113-.LFB1154
 4476 0312 05       		.uleb128 .LEHE113-.LEHB113
 4477 0313 C605     		.uleb128 .L248-.LFB1154
 4478 0315 00       		.uleb128 0
 4479 0316 E801     		.uleb128 .LEHB114-.LFB1154
 4480 0318 1F       		.uleb128 .LEHE114-.LEHB114
 4481 0319 9004     		.uleb128 .L249-.LFB1154
 4482 031b 01       		.uleb128 0x1
 4483 031c B402     		.uleb128 .LEHB115-.LFB1154
 4484 031e 05       		.uleb128 .LEHE115-.LEHB115
 4485 031f 8E04     		.uleb128 .L250-.LFB1154
 4486 0321 01       		.uleb128 0x1
 4487 0322 C902     		.uleb128 .LEHB116-.LFB1154
 4488 0324 25       		.uleb128 .LEHE116-.LEHB116
 4489 0325 8C04     		.uleb128 .L251-.LFB1154
 4490 0327 01       		.uleb128 0x1
 4491 0328 EE02     		.uleb128 .LEHB117-.LFB1154
 4492 032a 1F       		.uleb128 .LEHE117-.LEHB117
 4493 032b EC04     		.uleb128 .L253-.LFB1154
 4494 032d 01       		.uleb128 0x1
 4495 032e A503     		.uleb128 .LEHB118-.LFB1154
 4496 0330 24       		.uleb128 .LEHE118-.LEHB118
 4497 0331 EA04     		.uleb128 .L254-.LFB1154
 4498 0333 01       		.uleb128 0x1
 4499 0334 D003     		.uleb128 .LEHB119-.LFB1154
 4500 0336 05       		.uleb128 .LEHE119-.LEHB119
 4501 0337 D705     		.uleb128 .L247-.LFB1154
 4502 0339 00       		.uleb128 0
 4503 033a DF03     		.uleb128 .LEHB120-.LFB1154
 4504 033c 05       		.uleb128 .LEHE120-.LEHB120
 4505 033d EB05     		.uleb128 .L246-.LFB1154
 4506 033f 00       		.uleb128 0
 4507 0340 EE03     		.uleb128 .LEHB121-.LFB1154
 4508 0342 05       		.uleb128 .LEHE121-.LEHB121
 4509 0343 00       		.uleb128 0
 4510 0344 00       		.uleb128 0
 4511 0345 9804     		.uleb128 .LEHB122-.LFB1154
 4512 0347 3E       		.uleb128 .LEHE122-.LEHB122
 4513 0348 E004     		.uleb128 .L252-.LFB1154
 4514 034a 00       		.uleb128 0
 4515 034b D604     		.uleb128 .LEHB123-.LFB1154
 4516 034d 05       		.uleb128 .LEHE123-.LEHB123
 4517 034e C605     		.uleb128 .L248-.LFB1154
 4518 0350 00       		.uleb128 0
 4519 0351 F404     		.uleb128 .LEHB124-.LFB1154
 4520 0353 3E       		.uleb128 .LEHE124-.LEHB124
 4521 0354 BC05     		.uleb128 .L255-.LFB1154
 4522 0356 00       		.uleb128 0
 4523 0357 B205     		.uleb128 .LEHB125-.LFB1154
 4524 0359 05       		.uleb128 .LEHE125-.LEHB125
 4525 035a C605     		.uleb128 .L248-.LFB1154
 4526 035c 00       		.uleb128 0
 4527 035d 8306     		.uleb128 .LEHB126-.LFB1154
 4528 035f 05       		.uleb128 .LEHE126-.LEHB126
 4529 0360 00       		.uleb128 0
 4530 0361 00       		.uleb128 0
 4531              	.LLSDACSE1154:
 4532 0362 01       		.byte	0x1
 4533 0363 00       		.byte	0
 4534              		.align 4
 4535 0364 00000000 		.long	0
 4536              	
 4537              	.LLSDATT1154:
 4538              		.text
 4540 1f2f 90       		.align 2
 4542              	_ZN12_GLOBAL__N_158TestRunnerFixtureTestsThatAssertAreReportedAsFailingHelperC2ERKN8UnitTest11TestD
 4543              	.LFB1156:
 120:TestTestRunner.cpp **** 
 121:TestTestRunner.cpp **** TEST_FIXTURE(TestRunnerFixture, TestsThatAssertAreReportedAsFailing)
 4544              		.loc 6 121 0
 4545              		.cfi_startproc
 4546 1f30 55       		pushq	%rbp
 4547              		.cfi_def_cfa_offset 16
 4548              		.cfi_offset 6, -16
 4549 1f31 4889E5   		movq	%rsp, %rbp
 4550              		.cfi_def_cfa_register 6
 4551 1f34 4883EC10 		subq	$16, %rsp
 4552 1f38 48897DF8 		movq	%rdi, -8(%rbp)
 4553 1f3c 488975F0 		movq	%rsi, -16(%rbp)
 4554              	.LBB70:
 4555              		.loc 6 121 0
 4556 1f40 488B45F8 		movq	-8(%rbp), %rax
 4557 1f44 4889C7   		movq	%rax, %rdi
 4558 1f47 E824E2FF 		call	_ZN12_GLOBAL__N_117TestRunnerFixtureC2Ev
 4558      FF
 4559 1f4c 488B45F8 		movq	-8(%rbp), %rax
 4560 1f50 488B55F0 		movq	-16(%rbp), %rdx
 4561 1f54 48899058 		movq	%rdx, 2136(%rax)
 4561      080000
 4562              	.LBE70:
 4563 1f5b 90       		nop
 4564 1f5c C9       		leave
 4565              		.cfi_def_cfa 7, 8
 4566 1f5d C3       		ret
 4567              		.cfi_endproc
 4568              	.LFE1156:
 4570              		.set	_ZN12_GLOBAL__N_158TestRunnerFixtureTestsThatAssertAreReportedAsFailingHelperC1ERKN8UnitTest1
 4571              		.section	.rodata
 4572              		.align 8
 4573              	.LC33:
 4574 0500 54657374 		.string	"TestsThatAssertAreReportedAsFailing"
 4574      73546861 
 4574      74417373 
 4574      65727441 
 4574      72655265 
 4575              		.text
 4576              		.align 2
 4578              	_ZN12_GLOBAL__N_156TestTestRunnerFixtureTestsThatAssertAreReportedAsFailingC2Ev:
 4579              	.LFB1159:
 4580              		.loc 6 121 0
 4581              		.cfi_startproc
 4582 1f5e 55       		pushq	%rbp
 4583              		.cfi_def_cfa_offset 16
 4584              		.cfi_offset 6, -16
 4585 1f5f 4889E5   		movq	%rsp, %rbp
 4586              		.cfi_def_cfa_register 6
 4587 1f62 4883EC10 		subq	$16, %rsp
 4588 1f66 48897DF8 		movq	%rdi, -8(%rbp)
 4589              	.LBB71:
 4590              		.loc 6 121 0
 4591 1f6a E8000000 		call	_ZN13UnitTestSuite12GetSuiteNameEv
 4591      00
 4592 1f6f 4889C2   		movq	%rax, %rdx
 4593 1f72 488B45F8 		movq	-8(%rbp), %rax
 4594 1f76 41B87900 		movl	$121, %r8d
 4594      0000
 4595 1f7c B9000000 		movl	$.LC6, %ecx
 4595      00
 4596 1f81 BE000000 		movl	$.LC33, %esi
 4596      00
 4597 1f86 4889C7   		movq	%rax, %rdi
 4598 1f89 E8000000 		call	_ZN8UnitTest4TestC2EPKcS2_S2_i
 4598      00
 4599 1f8e BA000000 		movl	$_ZTVN12_GLOBAL__N_156TestTestRunnerFixtureTestsThatAssertAreReportedAsFailingE+16, %edx
 4599      00
 4600 1f93 488B45F8 		movq	-8(%rbp), %rax
 4601 1f97 488910   		movq	%rdx, (%rax)
 4602              	.LBE71:
 4603 1f9a 90       		nop
 4604 1f9b C9       		leave
 4605              		.cfi_def_cfa 7, 8
 4606 1f9c C3       		ret
 4607              		.cfi_endproc
 4608              	.LFE1159:
 4610              		.set	_ZN12_GLOBAL__N_156TestTestRunnerFixtureTestsThatAssertAreReportedAsFailingC1Ev,_ZN12_GLOBAL_
 4611              		.local	_ZN12_GLOBAL__N_164testTestRunnerFixtureTestsThatAssertAreReportedAsFailingInstanceE
 4612              		.comm	_ZN12_GLOBAL__N_164testTestRunnerFixtureTestsThatAssertAreReportedAsFailingInstanceE,56,32
 4613              		.local	_ZN12_GLOBAL__N_157adderTestRunnerFixtureTestsThatAssertAreReportedAsFailingE
 4614              		.comm	_ZN12_GLOBAL__N_157adderTestRunnerFixtureTestsThatAssertAreReportedAsFailingE,1,1
 4615 1f9d 90       		.align 2
 4617              	_ZN12_GLOBAL__N_158TestRunnerFixtureTestsThatAssertAreReportedAsFailingHelperD2Ev:
 4618              	.LFB1163:
 4619              		.loc 6 121 0
 4620              		.cfi_startproc
 4621 1f9e 55       		pushq	%rbp
 4622              		.cfi_def_cfa_offset 16
 4623              		.cfi_offset 6, -16
 4624 1f9f 4889E5   		movq	%rsp, %rbp
 4625              		.cfi_def_cfa_register 6
 4626 1fa2 4883EC10 		subq	$16, %rsp
 4627 1fa6 48897DF8 		movq	%rdi, -8(%rbp)
 4628              	.LBB72:
 4629              		.loc 6 121 0
 4630 1faa 488B45F8 		movq	-8(%rbp), %rax
 4631 1fae 4889C7   		movq	%rax, %rdi
 4632 1fb1 E808E2FF 		call	_ZN12_GLOBAL__N_117TestRunnerFixtureD2Ev
 4632      FF
 4633              	.LBE72:
 4634 1fb6 90       		nop
 4635 1fb7 C9       		leave
 4636              		.cfi_def_cfa 7, 8
 4637 1fb8 C3       		ret
 4638              		.cfi_endproc
 4639              	.LFE1163:
 4641              		.set	_ZN12_GLOBAL__N_158TestRunnerFixtureTestsThatAssertAreReportedAsFailingHelperD1Ev,_ZN12_GLOBA
 4642 1fb9 90       		.align 2
 4644              	_ZNK12_GLOBAL__N_156TestTestRunnerFixtureTestsThatAssertAreReportedAsFailing7RunImplEv:
 4645              	.LFB1161:
 4646              		.loc 6 121 0
 4647              		.cfi_startproc
 4648              		.cfi_personality 0x3,__gxx_personality_v0
 4649              		.cfi_lsda 0x3,.LLSDA1161
 4650 1fba 55       		pushq	%rbp
 4651              		.cfi_def_cfa_offset 16
 4652              		.cfi_offset 6, -16
 4653 1fbb 4889E5   		movq	%rsp, %rbp
 4654              		.cfi_def_cfa_register 6
 4655 1fbe 4154     		pushq	%r12
 4656 1fc0 53       		pushq	%rbx
 4657 1fc1 4881ECC0 		subq	$2240, %rsp
 4657      080000
 4658              		.cfi_offset 12, -24
 4659              		.cfi_offset 3, -32
 4660 1fc8 4889BD38 		movq	%rdi, -2248(%rbp)
 4660      F7FFFF
 4661              		.loc 6 121 0
 4662 1fcf 64488B04 		movq	%fs:40, %rax
 4662      25280000 
 4662      00
 4663 1fd8 488945E8 		movq	%rax, -24(%rbp)
 4664 1fdc 31C0     		xorl	%eax, %eax
 4665 1fde C6854FF7 		movb	$0, -2225(%rbp)
 4665      FFFF00
 4666              	.LBB73:
 4667 1fe5 488B8538 		movq	-2248(%rbp), %rax
 4667      F7FFFF
 4668 1fec 488D5008 		leaq	8(%rax), %rdx
 4669 1ff0 488D8580 		leaq	-2176(%rbp), %rax
 4669      F7FFFF
 4670 1ff7 4889D6   		movq	%rdx, %rsi
 4671 1ffa 4889C7   		movq	%rax, %rdi
 4672              	.LEHB127:
 4673 1ffd E82EFFFF 		call	_ZN12_GLOBAL__N_158TestRunnerFixtureTestsThatAssertAreReportedAsFailingHelperC1ERKN8UnitTest1
 4673      FF
 4674              	.LEHE127:
 4675              		.loc 6 121 0 is_stmt 0 discriminator 1
 4676 2002 C6854FF7 		movb	$1, -2225(%rbp)
 4676      FFFF01
 4677 2009 488B8538 		movq	-2248(%rbp), %rax
 4677      F7FFFF
 4678 2010 488D5008 		leaq	8(%rax), %rdx
 4679 2014 488D8580 		leaq	-2176(%rbp), %rax
 4679      F7FFFF
 4680 201b 4889D6   		movq	%rdx, %rsi
 4681 201e 4889C7   		movq	%rax, %rdi
 4682              	.LEHB128:
 4683 2021 E8CC5700 		call	_ZN8UnitTest11ExecuteTestIN12_GLOBAL__N_158TestRunnerFixtureTestsThatAssertAreReportedAsFaili
 4683      00
 4684              	.LEHE128:
 4685              		.loc 6 121 0 discriminator 3
 4686 2026 488D8580 		leaq	-2176(%rbp), %rax
 4686      F7FFFF
 4687 202d 4889C7   		movq	%rax, %rdi
 4688              	.LEHB129:
 4689 2030 E869FFFF 		call	_ZN12_GLOBAL__N_158TestRunnerFixtureTestsThatAssertAreReportedAsFailingHelperD1Ev
 4689      FF
 4690              	.LEHE129:
 4691              	.LBE73:
 4692              		.loc 6 121 0
 4693 2035 E9660200 		jmp	.L260
 4693      00
 4694              	.L275:
 4695 203a 4989C4   		movq	%rax, %r12
 4696 203d 4889D3   		movq	%rdx, %rbx
 4697              	.LBB74:
 4698 2040 488D8580 		leaq	-2176(%rbp), %rax
 4698      F7FFFF
 4699 2047 4889C7   		movq	%rax, %rdi
 4700 204a E84FFFFF 		call	_ZN12_GLOBAL__N_158TestRunnerFixtureTestsThatAssertAreReportedAsFailingHelperD1Ev
 4700      FF
 4701 204f 4C89E0   		movq	%r12, %rax
 4702 2052 4889DA   		movq	%rbx, %rdx
 4703 2055 EB00     		jmp	.L262
 4704              	.L274:
 4705              	.L262:
 4706 2057 4883FA01 		cmpq	$1, %rdx
 4707 205b 740F     		je	.L264
 4708 205d 4883FA02 		cmpq	$2, %rdx
 4709 2061 0F84A700 		je	.L265
 4709      0000
 4710 2067 E94B0100 		jmp	.L280
 4710      00
 4711              	.L264:
 4712              	.LBE74:
 4713              	.LBB75:
 4714 206c 4889C7   		movq	%rax, %rdi
 4715 206f E8000000 		call	__cxa_begin_catch
 4715      00
 4716 2074 48898550 		movq	%rax, -2224(%rbp)
 4716      F7FFFF
 4717 207b 488B8550 		movq	-2224(%rbp), %rax
 4717      F7FFFF
 4718 2082 488B00   		movq	(%rax), %rax
 4719 2085 4883C010 		addq	$16, %rax
 4720 2089 488B00   		movq	(%rax), %rax
 4721 208c 488B9550 		movq	-2224(%rbp), %rdx
 4721      F7FFFF
 4722 2093 4889D7   		movq	%rdx, %rdi
 4723 2096 FFD0     		call	*%rax
 4724 2098 4889C3   		movq	%rax, %rbx
 4725 209b 488B8550 		movq	-2224(%rbp), %rax
 4725      F7FFFF
 4726 20a2 4889C7   		movq	%rax, %rdi
 4727              	.LEHB130:
 4728 20a5 E8000000 		call	_ZNK8UnitTest15AssertException10LineNumberEv
 4728      00
 4729 20aa 4189C4   		movl	%eax, %r12d
 4730 20ad 488B8550 		movq	-2224(%rbp), %rax
 4730      F7FFFF
 4731 20b4 4889C7   		movq	%rax, %rdi
 4732 20b7 E8000000 		call	_ZNK8UnitTest15AssertException8FilenameEv
 4732      00
 4733              		.loc 6 121 0 discriminator 5
 4734 20bc 4889C1   		movq	%rax, %rcx
 4735 20bf 488B8538 		movq	-2248(%rbp), %rax
 4735      F7FFFF
 4736 20c6 488B5008 		movq	8(%rax), %rdx
 4737 20ca 488B8538 		movq	-2248(%rbp), %rax
 4737      F7FFFF
 4738 20d1 488B7010 		movq	16(%rax), %rsi
 4739 20d5 488D8560 		leaq	-2208(%rbp), %rax
 4739      F7FFFF
 4740 20dc 4589E0   		movl	%r12d, %r8d
 4741 20df 4889C7   		movq	%rax, %rdi
 4742 20e2 E8000000 		call	_ZN8UnitTest11TestDetailsC1EPKcS2_S2_i
 4742      00
 4743              		.loc 6 121 0 discriminator 9
 4744 20e7 E8000000 		call	_ZN8UnitTest11CurrentTest7ResultsEv
 4744      00
 4745 20ec 488B00   		movq	(%rax), %rax
 4746 20ef 488D8D60 		leaq	-2208(%rbp), %rcx
 4746      F7FFFF
 4747 20f6 4889DA   		movq	%rbx, %rdx
 4748 20f9 4889CE   		movq	%rcx, %rsi
 4749 20fc 4889C7   		movq	%rax, %rdi
 4750 20ff E8000000 		call	_ZN8UnitTest11TestResults13OnTestFailureERKNS_11TestDetailsEPKc
 4750      00
 4751              	.LEHE130:
 4752              		.loc 6 121 0 discriminator 13
 4753 2104 E8000000 		call	__cxa_end_catch
 4753      00
 4754              	.LBE75:
 4755 2109 E9920100 		jmp	.L260
 4755      00
 4756              	.L265:
 4757              	.LBB76:
 4758              		.loc 6 121 0
 4759 210e 4889C7   		movq	%rax, %rdi
 4760 2111 E8000000 		call	__cxa_begin_catch
 4760      00
 4761 2116 48898558 		movq	%rax, -2216(%rbp)
 4761      F7FFFF
 4762              	.LBB77:
 4763 211d 488D8580 		leaq	-2176(%rbp), %rax
 4763      F7FFFF
 4764 2124 4889C7   		movq	%rax, %rdi
 4765              	.LEHB131:
 4766 2127 E8000000 		call	_ZN8UnitTest15MemoryOutStreamC1Ev
 4766      00
 4767              	.LEHE131:
 4768              		.loc 6 121 0 discriminator 15
 4769 212c 488B8558 		movq	-2216(%rbp), %rax
 4769      F7FFFF
 4770 2133 488B00   		movq	(%rax), %rax
 4771 2136 4883C010 		addq	$16, %rax
 4772 213a 488B00   		movq	(%rax), %rax
 4773 213d 488B9558 		movq	-2216(%rbp), %rdx
 4773      F7FFFF
 4774 2144 4889D7   		movq	%rdx, %rdi
 4775 2147 FFD0     		call	*%rax
 4776 2149 4889C3   		movq	%rax, %rbx
 4777 214c 488D8580 		leaq	-2176(%rbp), %rax
 4777      F7FFFF
 4778 2153 BE000000 		movl	$.LC8, %esi
 4778      00
 4779 2158 4889C7   		movq	%rax, %rdi
 4780              	.LEHB132:
 4781 215b E8000000 		call	_ZStlsISt11char_traitsIcEERSt13basic_ostreamIcT_ES5_PKc
 4781      00
 4782 2160 4889DE   		movq	%rbx, %rsi
 4783 2163 4889C7   		movq	%rax, %rdi
 4784 2166 E8000000 		call	_ZStlsISt11char_traitsIcEERSt13basic_ostreamIcT_ES5_PKc
 4784      00
 4785              		.loc 6 121 0 discriminator 19
 4786 216b 488D8580 		leaq	-2176(%rbp), %rax
 4786      F7FFFF
 4787 2172 4889C7   		movq	%rax, %rdi
 4788 2175 E8000000 		call	_ZNK8UnitTest15MemoryOutStream7GetTextEv
 4788      00
 4789 217a 4989C4   		movq	%rax, %r12
 4790 217d 488B8538 		movq	-2248(%rbp), %rax
 4790      F7FFFF
 4791 2184 488D5808 		leaq	8(%rax), %rbx
 4792 2188 E8000000 		call	_ZN8UnitTest11CurrentTest7ResultsEv
 4792      00
 4793              		.loc 6 121 0 discriminator 21
 4794 218d 488B00   		movq	(%rax), %rax
 4795 2190 4C89E2   		movq	%r12, %rdx
 4796 2193 4889DE   		movq	%rbx, %rsi
 4797 2196 4889C7   		movq	%rax, %rdi
 4798 2199 E8000000 		call	_ZN8UnitTest11TestResults13OnTestFailureERKNS_11TestDetailsEPKc
 4798      00
 4799              	.LEHE132:
 4800              		.loc 6 121 0 discriminator 25
 4801 219e 488D8580 		leaq	-2176(%rbp), %rax
 4801      F7FFFF
 4802 21a5 4889C7   		movq	%rax, %rdi
 4803              	.LEHB133:
 4804 21a8 E8000000 		call	_ZN8UnitTest15MemoryOutStreamD1Ev
 4804      00
 4805              	.LEHE133:
 4806              	.LBE77:
 4807              		.loc 6 121 0 discriminator 26
 4808 21ad E8000000 		call	__cxa_end_catch
 4808      00
 4809              	.LBE76:
 4810 21b2 E9E90000 		jmp	.L260
 4810      00
 4811              	.L280:
 4812              		.loc 6 121 0
 4813 21b7 4889C7   		movq	%rax, %rdi
 4814 21ba E8000000 		call	__cxa_begin_catch
 4814      00
 4815 21bf 80BD4FF7 		cmpb	$0, -2225(%rbp)
 4815      FFFF00
 4816 21c6 7443     		je	.L267
 4817              		.loc 6 121 0 discriminator 28
 4818 21c8 488B8538 		movq	-2248(%rbp), %rax
 4818      F7FFFF
 4819 21cf 488D4808 		leaq	8(%rax), %rcx
 4820 21d3 488D8560 		leaq	-2208(%rbp), %rax
 4820      F7FFFF
 4821 21da BA790000 		movl	$121, %edx
 4821      00
 4822 21df 4889CE   		movq	%rcx, %rsi
 4823 21e2 4889C7   		movq	%rax, %rdi
 4824              	.LEHB134:
 4825 21e5 E8000000 		call	_ZN8UnitTest11TestDetailsC1ERKS0_i
 4825      00
 4826              		.loc 6 121 0 discriminator 31
 4827 21ea E8000000 		call	_ZN8UnitTest11CurrentTest7ResultsEv
 4827      00
 4828 21ef 488B00   		movq	(%rax), %rax
 4829 21f2 488D8D60 		leaq	-2208(%rbp), %rcx
 4829      F7FFFF
 4830 21f9 BA000000 		movl	$.LC9, %edx
 4830      00
 4831 21fe 4889CE   		movq	%rcx, %rsi
 4832 2201 4889C7   		movq	%rax, %rdi
 4833 2204 E8000000 		call	_ZN8UnitTest11TestResults13OnTestFailureERKNS_11TestDetailsEPKc
 4833      00
 4834 2209 EB41     		jmp	.L268
 4835              	.L267:
 4836              		.loc 6 121 0 discriminator 29
 4837 220b 488B8538 		movq	-2248(%rbp), %rax
 4837      F7FFFF
 4838 2212 488D4808 		leaq	8(%rax), %rcx
 4839 2216 488D8560 		leaq	-2208(%rbp), %rax
 4839      F7FFFF
 4840 221d BA790000 		movl	$121, %edx
 4840      00
 4841 2222 4889CE   		movq	%rcx, %rsi
 4842 2225 4889C7   		movq	%rax, %rdi
 4843 2228 E8000000 		call	_ZN8UnitTest11TestDetailsC1ERKS0_i
 4843      00
 4844              		.loc 6 121 0 discriminator 38
 4845 222d E8000000 		call	_ZN8UnitTest11CurrentTest7ResultsEv
 4845      00
 4846 2232 488B00   		movq	(%rax), %rax
 4847 2235 488D8D60 		leaq	-2208(%rbp), %rcx
 4847      F7FFFF
 4848 223c BA000000 		movl	$.LC10, %edx
 4848      00
 4849 2241 4889CE   		movq	%rcx, %rsi
 4850 2244 4889C7   		movq	%rax, %rdi
 4851 2247 E8000000 		call	_ZN8UnitTest11TestResults13OnTestFailureERKNS_11TestDetailsEPKc
 4851      00
 4852              	.LEHE134:
 4853              	.L268:
 4854              	.LEHB135:
 4855              		.loc 6 121 0 discriminator 43
 4856 224c E8000000 		call	__cxa_end_catch
 4856      00
 4857 2251 EB4D     		jmp	.L260
 4858              	.L276:
 4859 2253 4889C3   		movq	%rax, %rbx
 4860              	.LBB79:
 4861              		.loc 6 121 0
 4862 2256 E8000000 		call	__cxa_end_catch
 4862      00
 4863 225b 4889D8   		movq	%rbx, %rax
 4864 225e 4889C7   		movq	%rax, %rdi
 4865 2261 E8000000 		call	_Unwind_Resume
 4865      00
 4866              	.LEHE135:
 4867              	.L278:
 4868 2266 4889C3   		movq	%rax, %rbx
 4869              	.LBE79:
 4870              	.LBB80:
 4871              	.LBB78:
 4872 2269 488D8580 		leaq	-2176(%rbp), %rax
 4872      F7FFFF
 4873 2270 4889C7   		movq	%rax, %rdi
 4874 2273 E8000000 		call	_ZN8UnitTest15MemoryOutStreamD1Ev
 4874      00
 4875 2278 EB03     		jmp	.L271
 4876              	.L277:
 4877 227a 4889C3   		movq	%rax, %rbx
 4878              	.L271:
 4879              	.LBE78:
 4880 227d E8000000 		call	__cxa_end_catch
 4880      00
 4881 2282 4889D8   		movq	%rbx, %rax
 4882 2285 4889C7   		movq	%rax, %rdi
 4883              	.LEHB136:
 4884 2288 E8000000 		call	_Unwind_Resume
 4884      00
 4885              	.LEHE136:
 4886              	.L279:
 4887 228d 4889C3   		movq	%rax, %rbx
 4888              	.LBE80:
 4889 2290 E8000000 		call	__cxa_end_catch
 4889      00
 4890 2295 4889D8   		movq	%rbx, %rax
 4891 2298 4889C7   		movq	%rax, %rdi
 4892              	.LEHB137:
 4893 229b E8000000 		call	_Unwind_Resume
 4893      00
 4894              	.LEHE137:
 4895              	.L260:
 4896 22a0 488B45E8 		movq	-24(%rbp), %rax
 4897 22a4 64483304 		xorq	%fs:40, %rax
 4897      25280000 
 4897      00
 4898 22ad 7405     		je	.L273
 4899 22af E8000000 		call	__stack_chk_fail
 4899      00
 4900              	.L273:
 4901 22b4 4881C4C0 		addq	$2240, %rsp
 4901      080000
 4902 22bb 5B       		popq	%rbx
 4903 22bc 415C     		popq	%r12
 4904 22be 5D       		popq	%rbp
 4905              		.cfi_def_cfa 7, 8
 4906 22bf C3       		ret
 4907              		.cfi_endproc
 4908              	.LFE1161:
 4909              		.section	.gcc_except_table
 4910              		.align 4
 4911              	.LLSDA1161:
 4912 0368 FF       		.byte	0xff
 4913 0369 03       		.byte	0x3
 4914 036a 55       		.uleb128 .LLSDATT1161-.LLSDATTD1161
 4915              	.LLSDATTD1161:
 4916 036b 01       		.byte	0x1
 4917 036c 3C       		.uleb128 .LLSDACSE1161-.LLSDACSB1161
 4918              	.LLSDACSB1161:
 4919 036d 43       		.uleb128 .LEHB127-.LFB1161
 4920 036e 05       		.uleb128 .LEHE127-.LEHB127
 4921 036f 9D01     		.uleb128 .L274-.LFB1161
 4922 0371 05       		.uleb128 0x5
 4923 0372 67       		.uleb128 .LEHB128-.LFB1161
 4924 0373 05       		.uleb128 .LEHE128-.LEHB128
 4925 0374 8001     		.uleb128 .L275-.LFB1161
 4926 0376 07       		.uleb128 0x7
 4927 0377 76       		.uleb128 .LEHB129-.LFB1161
 4928 0378 05       		.uleb128 .LEHE129-.LEHB129
 4929 0379 9D01     		.uleb128 .L274-.LFB1161
 4930 037b 05       		.uleb128 0x5
 4931 037c EB01     		.uleb128 .LEHB130-.LFB1161
 4932 037e 5F       		.uleb128 .LEHE130-.LEHB130
 4933 037f 9905     		.uleb128 .L276-.LFB1161
 4934 0381 00       		.uleb128 0
 4935 0382 ED02     		.uleb128 .LEHB131-.LFB1161
 4936 0384 05       		.uleb128 .LEHE131-.LEHB131
 4937 0385 C005     		.uleb128 .L277-.LFB1161
 4938 0387 00       		.uleb128 0
 4939 0388 A103     		.uleb128 .LEHB132-.LFB1161
 4940 038a 43       		.uleb128 .LEHE132-.LEHB132
 4941 038b AC05     		.uleb128 .L278-.LFB1161
 4942 038d 00       		.uleb128 0
 4943 038e EE03     		.uleb128 .LEHB133-.LFB1161
 4944 0390 05       		.uleb128 .LEHE133-.LEHB133
 4945 0391 C005     		.uleb128 .L277-.LFB1161
 4946 0393 00       		.uleb128 0
 4947 0394 AB04     		.uleb128 .LEHB134-.LFB1161
 4948 0396 67       		.uleb128 .LEHE134-.LEHB134
 4949 0397 D305     		.uleb128 .L279-.LFB1161
 4950 0399 00       		.uleb128 0
 4951 039a 9205     		.uleb128 .LEHB135-.LFB1161
 4952 039c 1A       		.uleb128 .LEHE135-.LEHB135
 4953 039d 00       		.uleb128 0
 4954 039e 00       		.uleb128 0
 4955 039f CE05     		.uleb128 .LEHB136-.LFB1161
 4956 03a1 05       		.uleb128 .LEHE136-.LEHB136
 4957 03a2 00       		.uleb128 0
 4958 03a3 00       		.uleb128 0
 4959 03a4 E105     		.uleb128 .LEHB137-.LFB1161
 4960 03a6 05       		.uleb128 .LEHE137-.LEHB137
 4961 03a7 00       		.uleb128 0
 4962 03a8 00       		.uleb128 0
 4963              	.LLSDACSE1161:
 4964 03a9 03       		.byte	0x3
 4965 03aa 00       		.byte	0
 4966 03ab 02       		.byte	0x2
 4967 03ac 7D       		.byte	0x7d
 4968 03ad 01       		.byte	0x1
 4969 03ae 7D       		.byte	0x7d
 4970 03af 00       		.byte	0
 4971 03b0 7D       		.byte	0x7d
 4972 03b1 000000   		.align 4
 4973 03b4 00000000 		.long	0
 4974              	
 4975 03b8 00000000 		.long	_ZTISt9exception
 4976 03bc 00000000 		.long	_ZTIN8UnitTest15AssertExceptionE
 4977              	.LLSDATT1161:
 4978              		.text
 4980              		.section	.rodata
 4981 0524 00000000 		.align 8
 4982              	.LC34:
 4983 0528 556E6861 		.string	"Unhandled exception in CHECK_EQUAL(1, reporter.testFailedCount)"
 4983      6E646C65 
 4983      64206578 
 4983      63657074 
 4983      696F6E20 
 4984              		.text
 4985              		.align 2
 4987              	_ZN12_GLOBAL__N_158TestRunnerFixtureTestsThatAssertAreReportedAsFailingHelper7RunImplEv:
 4988              	.LFB1165:
 122:TestTestRunner.cpp **** {
 4989              		.loc 6 122 0 is_stmt 1
 4990              		.cfi_startproc
 4991              		.cfi_personality 0x3,__gxx_personality_v0
 4992              		.cfi_lsda 0x3,.LLSDA1165
 4993 22c0 55       		pushq	%rbp
 4994              		.cfi_def_cfa_offset 16
 4995              		.cfi_offset 6, -16
 4996 22c1 4889E5   		movq	%rsp, %rbp
 4997              		.cfi_def_cfa_register 6
 4998 22c4 53       		pushq	%rbx
 4999 22c5 4881EC88 		subq	$136, %rsp
 4999      000000
 5000              		.cfi_offset 3, -24
 5001 22cc 4889BD78 		movq	%rdi, -136(%rbp)
 5001      FFFFFF
 5002              		.loc 6 122 0
 5003 22d3 64488B04 		movq	%fs:40, %rax
 5003      25280000 
 5003      00
 5004 22dc 488945E8 		movq	%rax, -24(%rbp)
 5005 22e0 31C0     		xorl	%eax, %eax
 123:TestTestRunner.cpp ****     MockTest test("test", true, true);
 5006              		.loc 6 123 0
 5007 22e2 488D45B0 		leaq	-80(%rbp), %rax
 5008 22e6 41B80100 		movl	$1, %r8d
 5008      0000
 5009 22ec B9010000 		movl	$1, %ecx
 5009      00
 5010 22f1 BA010000 		movl	$1, %edx
 5010      00
 5011 22f6 BE000000 		movl	$.LC30, %esi
 5011      00
 5012 22fb 4889C7   		movq	%rax, %rdi
 5013              	.LEHB138:
 5014 22fe E8FDDCFF 		call	_ZN12_GLOBAL__N_18MockTestC1EPKcbbi
 5014      FF
 5015              	.LEHE138:
 124:TestTestRunner.cpp ****     list.Add(&test);
 5016              		.loc 6 124 0
 5017 2303 488B8578 		movq	-136(%rbp), %rax
 5017      FFFFFF
 5018 230a 488D9048 		leaq	2120(%rax), %rdx
 5018      080000
 5019 2311 488D45B0 		leaq	-80(%rbp), %rax
 5020 2315 4889C6   		movq	%rax, %rsi
 5021 2318 4889D7   		movq	%rdx, %rdi
 5022              	.LEHB139:
 5023 231b E8000000 		call	_ZN8UnitTest8TestList3AddEPNS_4TestE
 5023      00
 125:TestTestRunner.cpp **** 
 126:TestTestRunner.cpp **** 	RunTestsIf(list, NULL, True(), 0);
 5024              		.loc 6 126 0
 5025 2320 488B8578 		movq	-136(%rbp), %rax
 5025      FFFFFF
 5026 2327 488DB048 		leaq	2120(%rax), %rsi
 5026      080000
 5027 232e 488B8578 		movq	-136(%rbp), %rax
 5027      FFFFFF
 5028 2335 488D5590 		leaq	-112(%rbp), %rdx
 5029 2339 41B80000 		movl	$0, %r8d
 5029      0000
 5030 233f 4889D1   		movq	%rdx, %rcx
 5031 2342 BA000000 		movl	$0, %edx
 5031      00
 5032 2347 4889C7   		movq	%rax, %rdi
 5033 234a E82F4900 		call	_ZN12_GLOBAL__N_111FixtureBase10RunTestsIfIN8UnitTest4TrueEEEiRKNS2_8TestListEPKcRKT_i
 5033      00
 5034              	.LEHE139:
 5035              	.LEHB140:
 127:TestTestRunner.cpp ****     CHECK_EQUAL(1, reporter.testFailedCount);
 5036              		.loc 6 127 0 discriminator 2
 5037 234f E8000000 		call	_ZN8UnitTest11CurrentTest7DetailsEv
 5037      00
 5038 2354 488B08   		movq	(%rax), %rcx
 5039 2357 488D4590 		leaq	-112(%rbp), %rax
 5040 235b BA7F0000 		movl	$127, %edx
 5040      00
 5041 2360 4889CE   		movq	%rcx, %rsi
 5042 2363 4889C7   		movq	%rax, %rdi
 5043 2366 E8000000 		call	_ZN8UnitTest11TestDetailsC1ERKS0_i
 5043      00
 5044              	.LEHE140:
 5045 236b 488B8578 		movq	-136(%rbp), %rax
 5045      FFFFFF
 5046 2372 488D9824 		leaq	548(%rax), %rbx
 5046      020000
 5047 2379 C7458C01 		movl	$1, -116(%rbp)
 5047      000000
 5048              	.LEHB141:
 5049 2380 E8000000 		call	_ZN8UnitTest11CurrentTest7ResultsEv
 5049      00
 5050 2385 488B00   		movq	(%rax), %rax
 5051 2388 488D5590 		leaq	-112(%rbp), %rdx
 5052 238c 488D758C 		leaq	-116(%rbp), %rsi
 5053 2390 4889D1   		movq	%rdx, %rcx
 5054 2393 4889DA   		movq	%rbx, %rdx
 5055 2396 4889C7   		movq	%rax, %rdi
 5056 2399 E8000000 		call	_ZN8UnitTest10CheckEqualIiiEEvRNS_11TestResultsERKT_RKT0_RKNS_11TestDetailsE
 5056      00
 5057              	.LEHE141:
 5058              	.L284:
 123:TestTestRunner.cpp ****     list.Add(&test);
 5059              		.loc 6 123 0
 5060 239e 488D45B0 		leaq	-80(%rbp), %rax
 5061 23a2 4889C7   		movq	%rax, %rdi
 5062              	.LEHB142:
 5063 23a5 E80A7E00 		call	_ZN12_GLOBAL__N_18MockTestD1Ev
 5063      00
 5064              	.LEHE142:
 128:TestTestRunner.cpp **** }
 5065              		.loc 6 128 0
 5066 23aa 90       		nop
 5067 23ab 488B45E8 		movq	-24(%rbp), %rax
 5068 23af 64483304 		xorq	%fs:40, %rax
 5068      25280000 
 5068      00
 5069 23b8 7474     		je	.L287
 5070 23ba EB6D     		jmp	.L292
 5071              	.L290:
 5072 23bc EB00     		jmp	.L283
 5073              	.L289:
 5074              	.L283:
 127:TestTestRunner.cpp ****     CHECK_EQUAL(1, reporter.testFailedCount);
 5075              		.loc 6 127 0
 5076 23be 4889C7   		movq	%rax, %rdi
 5077 23c1 E8000000 		call	__cxa_begin_catch
 5077      00
 5078              	.LEHB143:
 5079 23c6 E8000000 		call	_ZN8UnitTest11CurrentTest7DetailsEv
 5079      00
 5080 23cb 488B08   		movq	(%rax), %rcx
 5081 23ce 488D4590 		leaq	-112(%rbp), %rax
 5082 23d2 BA7F0000 		movl	$127, %edx
 5082      00
 5083 23d7 4889CE   		movq	%rcx, %rsi
 5084 23da 4889C7   		movq	%rax, %rdi
 5085 23dd E8000000 		call	_ZN8UnitTest11TestDetailsC1ERKS0_i
 5085      00
 127:TestTestRunner.cpp ****     CHECK_EQUAL(1, reporter.testFailedCount);
 5086              		.loc 6 127 0 is_stmt 0 discriminator 10
 5087 23e2 E8000000 		call	_ZN8UnitTest11CurrentTest7ResultsEv
 5087      00
 5088 23e7 488B00   		movq	(%rax), %rax
 5089 23ea 488D4D90 		leaq	-112(%rbp), %rcx
 5090 23ee BA000000 		movl	$.LC34, %edx
 5090      00
 5091 23f3 4889CE   		movq	%rcx, %rsi
 5092 23f6 4889C7   		movq	%rax, %rdi
 5093 23f9 E8000000 		call	_ZN8UnitTest11TestResults13OnTestFailureERKNS_11TestDetailsEPKc
 5093      00
 5094              	.LEHE143:
 5095              	.LEHB144:
 127:TestTestRunner.cpp ****     CHECK_EQUAL(1, reporter.testFailedCount);
 5096              		.loc 6 127 0 discriminator 14
 5097 23fe E8000000 		call	__cxa_end_catch
 5097      00
 5098              	.LEHE144:
 127:TestTestRunner.cpp ****     CHECK_EQUAL(1, reporter.testFailedCount);
 5099              		.loc 6 127 0
 5100 2403 EB99     		jmp	.L284
 5101              	.L291:
 5102 2405 4889C3   		movq	%rax, %rbx
 5103 2408 E8000000 		call	__cxa_end_catch
 5103      00
 5104 240d EB03     		jmp	.L286
 5105              	.L288:
 5106 240f 4889C3   		movq	%rax, %rbx
 5107              	.L286:
 123:TestTestRunner.cpp ****     list.Add(&test);
 5108              		.loc 6 123 0 is_stmt 1
 5109 2412 488D45B0 		leaq	-80(%rbp), %rax
 5110 2416 4889C7   		movq	%rax, %rdi
 5111 2419 E8967D00 		call	_ZN12_GLOBAL__N_18MockTestD1Ev
 5111      00
 5112 241e 4889D8   		movq	%rbx, %rax
 5113 2421 4889C7   		movq	%rax, %rdi
 5114              	.LEHB145:
 5115 2424 E8000000 		call	_Unwind_Resume
 5115      00
 5116              	.LEHE145:
 5117              	.L292:
 5118              		.loc 6 128 0
 5119 2429 E8000000 		call	__stack_chk_fail
 5119      00
 5120              	.L287:
 5121 242e 4881C488 		addq	$136, %rsp
 5121      000000
 5122 2435 5B       		popq	%rbx
 5123 2436 5D       		popq	%rbp
 5124              		.cfi_def_cfa 7, 8
 5125 2437 C3       		ret
 5126              		.cfi_endproc
 5127              	.LFE1165:
 5128              		.section	.gcc_except_table
 5129              		.align 4
 5130              	.LLSDA1165:
 5131 03c0 FF       		.byte	0xff
 5132 03c1 03       		.byte	0x3
 5133 03c2 35       		.uleb128 .LLSDATT1165-.LLSDATTD1165
 5134              	.LLSDATTD1165:
 5135 03c3 01       		.byte	0x1
 5136 03c4 2B       		.uleb128 .LLSDACSE1165-.LLSDACSB1165
 5137              	.LLSDACSB1165:
 5138 03c5 3E       		.uleb128 .LEHB138-.LFB1165
 5139 03c6 05       		.uleb128 .LEHE138-.LEHB138
 5140 03c7 00       		.uleb128 0
 5141 03c8 00       		.uleb128 0
 5142 03c9 5B       		.uleb128 .LEHB139-.LFB1165
 5143 03ca 34       		.uleb128 .LEHE139-.LEHB139
 5144 03cb CF02     		.uleb128 .L288-.LFB1165
 5145 03cd 00       		.uleb128 0
 5146 03ce 8F01     		.uleb128 .LEHB140-.LFB1165
 5147 03d0 1C       		.uleb128 .LEHE140-.LEHB140
 5148 03d1 FE01     		.uleb128 .L289-.LFB1165
 5149 03d3 01       		.uleb128 0x1
 5150 03d4 C001     		.uleb128 .LEHB141-.LFB1165
 5151 03d6 1E       		.uleb128 .LEHE141-.LEHB141
 5152 03d7 FC01     		.uleb128 .L290-.LFB1165
 5153 03d9 01       		.uleb128 0x1
 5154 03da E501     		.uleb128 .LEHB142-.LFB1165
 5155 03dc 05       		.uleb128 .LEHE142-.LEHB142
 5156 03dd 00       		.uleb128 0
 5157 03de 00       		.uleb128 0
 5158 03df 8602     		.uleb128 .LEHB143-.LFB1165
 5159 03e1 38       		.uleb128 .LEHE143-.LEHB143
 5160 03e2 C502     		.uleb128 .L291-.LFB1165
 5161 03e4 00       		.uleb128 0
 5162 03e5 BE02     		.uleb128 .LEHB144-.LFB1165
 5163 03e7 05       		.uleb128 .LEHE144-.LEHB144
 5164 03e8 CF02     		.uleb128 .L288-.LFB1165
 5165 03ea 00       		.uleb128 0
 5166 03eb E402     		.uleb128 .LEHB145-.LFB1165
 5167 03ed 05       		.uleb128 .LEHE145-.LEHB145
 5168 03ee 00       		.uleb128 0
 5169 03ef 00       		.uleb128 0
 5170              	.LLSDACSE1165:
 5171 03f0 01       		.byte	0x1
 5172 03f1 00       		.byte	0
 5173 03f2 0000     		.align 4
 5174 03f4 00000000 		.long	0
 5175              	
 5176              	.LLSDATT1165:
 5177              		.text
 5179              		.align 2
 5181              	_ZN12_GLOBAL__N_150TestRunnerFixtureReporterNotifiedOfTestCountHelperC2ERKN8UnitTest11TestDetailsE:
 5182              	.LFB1167:
 129:TestTestRunner.cpp **** 
 130:TestTestRunner.cpp **** 
 131:TestTestRunner.cpp **** TEST_FIXTURE(TestRunnerFixture, ReporterNotifiedOfTestCount)
 5183              		.loc 6 131 0
 5184              		.cfi_startproc
 5185 2438 55       		pushq	%rbp
 5186              		.cfi_def_cfa_offset 16
 5187              		.cfi_offset 6, -16
 5188 2439 4889E5   		movq	%rsp, %rbp
 5189              		.cfi_def_cfa_register 6
 5190 243c 4883EC10 		subq	$16, %rsp
 5191 2440 48897DF8 		movq	%rdi, -8(%rbp)
 5192 2444 488975F0 		movq	%rsi, -16(%rbp)
 5193              	.LBB81:
 5194              		.loc 6 131 0
 5195 2448 488B45F8 		movq	-8(%rbp), %rax
 5196 244c 4889C7   		movq	%rax, %rdi
 5197 244f E81CDDFF 		call	_ZN12_GLOBAL__N_117TestRunnerFixtureC2Ev
 5197      FF
 5198 2454 488B45F8 		movq	-8(%rbp), %rax
 5199 2458 488B55F0 		movq	-16(%rbp), %rdx
 5200 245c 48899058 		movq	%rdx, 2136(%rax)
 5200      080000
 5201              	.LBE81:
 5202 2463 90       		nop
 5203 2464 C9       		leave
 5204              		.cfi_def_cfa 7, 8
 5205 2465 C3       		ret
 5206              		.cfi_endproc
 5207              	.LFE1167:
 5209              		.set	_ZN12_GLOBAL__N_150TestRunnerFixtureReporterNotifiedOfTestCountHelperC1ERKN8UnitTest11TestDet
 5210              		.section	.rodata
 5211              	.LC35:
 5212 0568 5265706F 		.string	"ReporterNotifiedOfTestCount"
 5212      72746572 
 5212      4E6F7469 
 5212      66696564 
 5212      4F665465 
 5213              		.text
 5214              		.align 2
 5216              	_ZN12_GLOBAL__N_148TestTestRunnerFixtureReporterNotifiedOfTestCountC2Ev:
 5217              	.LFB1170:
 5218              		.loc 6 131 0
 5219              		.cfi_startproc
 5220 2466 55       		pushq	%rbp
 5221              		.cfi_def_cfa_offset 16
 5222              		.cfi_offset 6, -16
 5223 2467 4889E5   		movq	%rsp, %rbp
 5224              		.cfi_def_cfa_register 6
 5225 246a 4883EC10 		subq	$16, %rsp
 5226 246e 48897DF8 		movq	%rdi, -8(%rbp)
 5227              	.LBB82:
 5228              		.loc 6 131 0
 5229 2472 E8000000 		call	_ZN13UnitTestSuite12GetSuiteNameEv
 5229      00
 5230 2477 4889C2   		movq	%rax, %rdx
 5231 247a 488B45F8 		movq	-8(%rbp), %rax
 5232 247e 41B88300 		movl	$131, %r8d
 5232      0000
 5233 2484 B9000000 		movl	$.LC6, %ecx
 5233      00
 5234 2489 BE000000 		movl	$.LC35, %esi
 5234      00
 5235 248e 4889C7   		movq	%rax, %rdi
 5236 2491 E8000000 		call	_ZN8UnitTest4TestC2EPKcS2_S2_i
 5236      00
 5237 2496 BA000000 		movl	$_ZTVN12_GLOBAL__N_148TestTestRunnerFixtureReporterNotifiedOfTestCountE+16, %edx
 5237      00
 5238 249b 488B45F8 		movq	-8(%rbp), %rax
 5239 249f 488910   		movq	%rdx, (%rax)
 5240              	.LBE82:
 5241 24a2 90       		nop
 5242 24a3 C9       		leave
 5243              		.cfi_def_cfa 7, 8
 5244 24a4 C3       		ret
 5245              		.cfi_endproc
 5246              	.LFE1170:
 5248              		.set	_ZN12_GLOBAL__N_148TestTestRunnerFixtureReporterNotifiedOfTestCountC1Ev,_ZN12_GLOBAL__N_148Te
 5249              		.local	_ZN12_GLOBAL__N_156testTestRunnerFixtureReporterNotifiedOfTestCountInstanceE
 5250              		.comm	_ZN12_GLOBAL__N_156testTestRunnerFixtureReporterNotifiedOfTestCountInstanceE,56,32
 5251              		.local	_ZN12_GLOBAL__N_149adderTestRunnerFixtureReporterNotifiedOfTestCountE
 5252              		.comm	_ZN12_GLOBAL__N_149adderTestRunnerFixtureReporterNotifiedOfTestCountE,1,1
 5253 24a5 90       		.align 2
 5255              	_ZN12_GLOBAL__N_150TestRunnerFixtureReporterNotifiedOfTestCountHelperD2Ev:
 5256              	.LFB1174:
 5257              		.loc 6 131 0
 5258              		.cfi_startproc
 5259 24a6 55       		pushq	%rbp
 5260              		.cfi_def_cfa_offset 16
 5261              		.cfi_offset 6, -16
 5262 24a7 4889E5   		movq	%rsp, %rbp
 5263              		.cfi_def_cfa_register 6
 5264 24aa 4883EC10 		subq	$16, %rsp
 5265 24ae 48897DF8 		movq	%rdi, -8(%rbp)
