   1              		.file	"TestTimeConstraint.cpp"
   2              		.text
   3              	.Ltext0:
   4              		.section	.rodata
   5              	.LC0:
   6 0000 44656661 		.string	"DefaultSuite"
   6      756C7453 
   6      75697465 
   6      00
   7              		.section	.text._ZN13UnitTestSuite12GetSuiteNameEv,"axG",@progbits,_ZN13UnitTestSuite12GetSuiteName
   8              		.weak	_ZN13UnitTestSuite12GetSuiteNameEv
  10              	_ZN13UnitTestSuite12GetSuiteNameEv:
  11              	.LFB0:
  12              		.file 1 "../TestSuite.h"
   1:../TestSuite.h **** #ifndef UNITTEST_TESTSUITE_H
   2:../TestSuite.h **** #define UNITTEST_TESTSUITE_H
   3:../TestSuite.h **** 
   4:../TestSuite.h **** namespace UnitTestSuite {
   5:../TestSuite.h **** 
   6:../TestSuite.h ****     inline char const* GetSuiteName ()
   7:../TestSuite.h ****     {
  13              		.loc 1 7 0
  14              		.cfi_startproc
  15 0000 55       		pushq	%rbp
  16              		.cfi_def_cfa_offset 16
  17              		.cfi_offset 6, -16
  18 0001 4889E5   		movq	%rsp, %rbp
  19              		.cfi_def_cfa_register 6
   8:../TestSuite.h ****         return "DefaultSuite";
  20              		.loc 1 8 0
  21 0004 B8000000 		movl	$.LC0, %eax
  21      00
   9:../TestSuite.h ****     }
  22              		.loc 1 9 0
  23 0009 5D       		popq	%rbp
  24              		.cfi_def_cfa 7, 8
  25 000a C3       		ret
  26              		.cfi_endproc
  27              	.LFE0:
  29              		.section	.text._ZN8UnitTest15MemoryOutStreamC1Ev,"axG",@progbits,_ZN8UnitTest15MemoryOutStreamC1Ev
  30              		.align 2
  31              		.weak	_ZN8UnitTest15MemoryOutStreamC1Ev
  33              	_ZN8UnitTest15MemoryOutStreamC1Ev:
  34              	.LFB1057:
  35              		.file 2 "../MemoryOutStream.h"
   1:../MemoryOutStream.h **** #ifndef UNITTEST_MEMORYOUTSTREAM_H
   2:../MemoryOutStream.h **** #define UNITTEST_MEMORYOUTSTREAM_H
   3:../MemoryOutStream.h **** 
   4:../MemoryOutStream.h **** #include "Config.h"
   5:../MemoryOutStream.h **** 
   6:../MemoryOutStream.h **** #ifndef UNITTEST_USE_CUSTOM_STREAMS
   7:../MemoryOutStream.h **** 
   8:../MemoryOutStream.h **** #include <sstream>
   9:../MemoryOutStream.h **** 
  10:../MemoryOutStream.h **** namespace UnitTest
  11:../MemoryOutStream.h **** {
  12:../MemoryOutStream.h **** 
  13:../MemoryOutStream.h **** class MemoryOutStream : public std::ostringstream
  14:../MemoryOutStream.h **** {
  15:../MemoryOutStream.h **** public:
  16:../MemoryOutStream.h ****     MemoryOutStream() {}
  36              		.loc 2 16 0
  37              		.cfi_startproc
  38              		.cfi_personality 0x3,__gxx_personality_v0
  39              		.cfi_lsda 0x3,.LLSDA1057
  40 0000 55       		pushq	%rbp
  41              		.cfi_def_cfa_offset 16
  42              		.cfi_offset 6, -16
  43 0001 4889E5   		movq	%rsp, %rbp
  44              		.cfi_def_cfa_register 6
  45 0004 53       		pushq	%rbx
  46 0005 4883EC18 		subq	$24, %rsp
  47              		.cfi_offset 3, -24
  48 0009 48897DE8 		movq	%rdi, -24(%rbp)
  49              	.LBB2:
  50              		.loc 2 16 0
  51 000d 488B45E8 		movq	-24(%rbp), %rax
  52 0011 48059000 		addq	$144, %rax
  52      0000
  53 0017 4889C7   		movq	%rax, %rdi
  54              	.LEHB0:
  55 001a E8000000 		call	_ZNSt9basic_iosIcSt11char_traitsIcEEC2Ev
  55      00
  56              	.LEHE0:
  57 001f B9000000 		movl	$_ZTTN8UnitTest15MemoryOutStreamE+8, %ecx
  57      00
  58 0024 488B45E8 		movq	-24(%rbp), %rax
  59 0028 BA100000 		movl	$16, %edx
  59      00
  60 002d 4889CE   		movq	%rcx, %rsi
  61 0030 4889C7   		movq	%rax, %rdi
  62              	.LEHB1:
  63 0033 E8000000 		call	_ZNSt7__cxx1119basic_ostringstreamIcSt11char_traitsIcESaIcEEC2ESt13_Ios_Openmode
  63      00
  64              	.LEHE1:
  65              		.loc 2 16 0 is_stmt 0 discriminator 9
  66 0038 BA000000 		movl	$_ZTVN8UnitTest15MemoryOutStreamE+24, %edx
  66      00
  67 003d 488B45E8 		movq	-24(%rbp), %rax
  68 0041 488910   		movq	%rdx, (%rax)
  69 0044 BA900000 		movl	$144, %edx
  69      00
  70 0049 488B45E8 		movq	-24(%rbp), %rax
  71 004d 4801D0   		addq	%rdx, %rax
  72 0050 BA000000 		movl	$_ZTVN8UnitTest15MemoryOutStreamE+64, %edx
  72      00
  73 0055 488910   		movq	%rdx, (%rax)
  74 0058 488B45E8 		movq	-24(%rbp), %rax
  75 005c 4883C070 		addq	$112, %rax
  76 0060 4889C7   		movq	%rax, %rdi
  77              	.LEHB2:
  78 0063 E8000000 		call	_ZNSt7__cxx1112basic_stringIcSt11char_traitsIcESaIcEEC1Ev
  78      00
  79              	.LEHE2:
  80              	.LBE2:
  81              		.loc 2 16 0
  82 0068 EB39     		jmp	.L9
  83              	.L7:
  84 006a 4889C3   		movq	%rax, %rbx
  85              	.LBB3:
  86 006d BA000000 		movl	$_ZTTN8UnitTest15MemoryOutStreamE+8, %edx
  86      00
  87 0072 488B45E8 		movq	-24(%rbp), %rax
  88 0076 4889D6   		movq	%rdx, %rsi
  89 0079 4889C7   		movq	%rax, %rdi
  90 007c E8000000 		call	_ZNSt7__cxx1119basic_ostringstreamIcSt11char_traitsIcESaIcEED2Ev
  90      00
  91 0081 EB03     		jmp	.L8
  92              	.L6:
  93 0083 4889C3   		movq	%rax, %rbx
  94              	.L8:
  95              		.loc 2 16 0 discriminator 28
  96 0086 488B45E8 		movq	-24(%rbp), %rax
  97 008a 48059000 		addq	$144, %rax
  97      0000
  98 0090 4889C7   		movq	%rax, %rdi
  99 0093 E8000000 		call	_ZNSt9basic_iosIcSt11char_traitsIcEED2Ev
  99      00
 100 0098 4889D8   		movq	%rbx, %rax
 101 009b 4889C7   		movq	%rax, %rdi
 102              	.LEHB3:
 103 009e E8000000 		call	_Unwind_Resume
 103      00
 104              	.LEHE3:
 105              	.L9:
 106              	.LBE3:
 107              		.loc 2 16 0
 108 00a3 4883C418 		addq	$24, %rsp
 109 00a7 5B       		popq	%rbx
 110 00a8 5D       		popq	%rbp
 111              		.cfi_def_cfa 7, 8
 112 00a9 C3       		ret
 113              		.cfi_endproc
 114              	.LFE1057:
 115              		.globl	__gxx_personality_v0
 116              		.section	.gcc_except_table._ZN8UnitTest15MemoryOutStreamC1Ev,"aG",@progbits,_ZN8UnitTest15MemoryOu
 117              	.LLSDA1057:
 118 0000 FF       		.byte	0xff
 119 0001 FF       		.byte	0xff
 120 0002 01       		.byte	0x1
 121 0003 12       		.uleb128 .LLSDACSE1057-.LLSDACSB1057
 122              	.LLSDACSB1057:
 123 0004 1A       		.uleb128 .LEHB0-.LFB1057
 124 0005 05       		.uleb128 .LEHE0-.LEHB0
 125 0006 00       		.uleb128 0
 126 0007 00       		.uleb128 0
 127 0008 33       		.uleb128 .LEHB1-.LFB1057
 128 0009 05       		.uleb128 .LEHE1-.LEHB1
 129 000a 8301     		.uleb128 .L6-.LFB1057
 130 000c 00       		.uleb128 0
 131 000d 63       		.uleb128 .LEHB2-.LFB1057
 132 000e 05       		.uleb128 .LEHE2-.LEHB2
 133 000f 6A       		.uleb128 .L7-.LFB1057
 134 0010 00       		.uleb128 0
 135 0011 9E01     		.uleb128 .LEHB3-.LFB1057
 136 0013 05       		.uleb128 .LEHE3-.LEHB3
 137 0014 00       		.uleb128 0
 138 0015 00       		.uleb128 0
 139              	.LLSDACSE1057:
 140              		.section	.text._ZN8UnitTest15MemoryOutStreamC1Ev,"axG",@progbits,_ZN8UnitTest15MemoryOutStreamC1Ev
 142              		.section	.text._ZN8UnitTest12TestReporterC2Ev,"axG",@progbits,_ZN8UnitTest12TestReporterC5Ev,comda
 143              		.align 2
 144              		.weak	_ZN8UnitTest12TestReporterC2Ev
 146              	_ZN8UnitTest12TestReporterC2Ev:
 147              	.LFB1071:
 148              		.file 3 "../TestReporter.h"
   1:../TestReporter.h **** #ifndef UNITTEST_TESTREPORTER_H
   2:../TestReporter.h **** #define UNITTEST_TESTREPORTER_H
   3:../TestReporter.h **** 
   4:../TestReporter.h **** namespace UnitTest {
   5:../TestReporter.h **** 
   6:../TestReporter.h **** class TestDetails;
   7:../TestReporter.h **** 
   8:../TestReporter.h **** class TestReporter
 149              		.loc 3 8 0 is_stmt 1
 150              		.cfi_startproc
 151 0000 55       		pushq	%rbp
 152              		.cfi_def_cfa_offset 16
 153              		.cfi_offset 6, -16
 154 0001 4889E5   		movq	%rsp, %rbp
 155              		.cfi_def_cfa_register 6
 156 0004 48897DF8 		movq	%rdi, -8(%rbp)
 157              	.LBB4:
 158              		.loc 3 8 0
 159 0008 BA000000 		movl	$_ZTVN8UnitTest12TestReporterE+16, %edx
 159      00
 160 000d 488B45F8 		movq	-8(%rbp), %rax
 161 0011 488910   		movq	%rdx, (%rax)
 162              	.LBE4:
 163 0014 90       		nop
 164 0015 5D       		popq	%rbp
 165              		.cfi_def_cfa 7, 8
 166 0016 C3       		ret
 167              		.cfi_endproc
 168              	.LFE1071:
 170              		.weak	_ZN8UnitTest12TestReporterC1Ev
 171              		.set	_ZN8UnitTest12TestReporterC1Ev,_ZN8UnitTest12TestReporterC2Ev
 172              		.section	.text._ZN17RecordingReporterC2Ev,"axG",@progbits,_ZN17RecordingReporterC5Ev,comdat
 173              		.align 2
 174              		.weak	_ZN17RecordingReporterC2Ev
 176              	_ZN17RecordingReporterC2Ev:
 177              	.LFB1073:
 178              		.file 4 "RecordingReporter.h"
   1:RecordingReporter.h **** #ifndef UNITTEST_RECORDINGREPORTER_H
   2:RecordingReporter.h **** #define UNITTEST_RECORDINGREPORTER_H
   3:RecordingReporter.h **** 
   4:RecordingReporter.h **** #include "../TestReporter.h"
   5:RecordingReporter.h **** #include <cstring>
   6:RecordingReporter.h **** 
   7:RecordingReporter.h **** #include "../TestDetails.h"
   8:RecordingReporter.h **** 
   9:RecordingReporter.h **** struct RecordingReporter : public UnitTest::TestReporter
  10:RecordingReporter.h **** {
  11:RecordingReporter.h **** private:
  12:RecordingReporter.h ****     enum { kMaxStringLength = 256 };
  13:RecordingReporter.h **** 
  14:RecordingReporter.h **** public:
  15:RecordingReporter.h ****     RecordingReporter()
 179              		.loc 4 15 0
 180              		.cfi_startproc
 181 0000 55       		pushq	%rbp
 182              		.cfi_def_cfa_offset 16
 183              		.cfi_offset 6, -16
 184 0001 4889E5   		movq	%rsp, %rbp
 185              		.cfi_def_cfa_register 6
 186 0004 4883EC10 		subq	$16, %rsp
 187 0008 48897DF8 		movq	%rdi, -8(%rbp)
 188              	.LBB5:
  16:RecordingReporter.h ****         : testRunCount(0)
  17:RecordingReporter.h ****         , testFailedCount(0)
  18:RecordingReporter.h ****         , lastFailedLine(0)
  19:RecordingReporter.h ****         , testFinishedCount(0)
  20:RecordingReporter.h ****         , lastFinishedTestTime(0)
  21:RecordingReporter.h ****         , summaryTotalTestCount(0)
  22:RecordingReporter.h ****         , summaryFailedTestCount(0)
  23:RecordingReporter.h ****         , summaryFailureCount(0)
  24:RecordingReporter.h ****         , summarySecondsElapsed(0)
 189              		.loc 4 24 0
 190 000c 488B45F8 		movq	-8(%rbp), %rax
 191 0010 4889C7   		movq	%rax, %rdi
 192 0013 E8000000 		call	_ZN8UnitTest12TestReporterC2Ev
 192      00
 193 0018 BA000000 		movl	$_ZTV17RecordingReporter+16, %edx
 193      00
 194 001d 488B45F8 		movq	-8(%rbp), %rax
 195 0021 488910   		movq	%rdx, (%rax)
 196 0024 488B45F8 		movq	-8(%rbp), %rax
 197 0028 C7400800 		movl	$0, 8(%rax)
 197      000000
 198 002f 488B45F8 		movq	-8(%rbp), %rax
 199 0033 C7800C02 		movl	$0, 524(%rax)
 199      00000000 
 199      0000
 200 003d 488B45F8 		movq	-8(%rbp), %rax
 201 0041 C7801003 		movl	$0, 784(%rax)
 201      00000000 
 201      0000
 202 004b 488B45F8 		movq	-8(%rbp), %rax
 203 004f C7801406 		movl	$0, 1556(%rax)
 203      00000000 
 203      0000
 204 0059 488B45F8 		movq	-8(%rbp), %rax
 205 005d 660FEFC0 		pxor	%xmm0, %xmm0
 206 0061 F30F1180 		movss	%xmm0, 2072(%rax)
 206      18080000 
 207 0069 488B45F8 		movq	-8(%rbp), %rax
 208 006d C7801C08 		movl	$0, 2076(%rax)
 208      00000000 
 208      0000
 209 0077 488B45F8 		movq	-8(%rbp), %rax
 210 007b C7802008 		movl	$0, 2080(%rax)
 210      00000000 
 210      0000
 211 0085 488B45F8 		movq	-8(%rbp), %rax
 212 0089 C7802408 		movl	$0, 2084(%rax)
 212      00000000 
 212      0000
 213 0093 488B45F8 		movq	-8(%rbp), %rax
 214 0097 660FEFC0 		pxor	%xmm0, %xmm0
 215 009b F30F1180 		movss	%xmm0, 2088(%rax)
 215      28080000 
  25:RecordingReporter.h ****     {
  26:RecordingReporter.h ****         lastStartedSuite[0] = '\0';
 216              		.loc 4 26 0
 217 00a3 488B45F8 		movq	-8(%rbp), %rax
 218 00a7 C6400C00 		movb	$0, 12(%rax)
  27:RecordingReporter.h ****         lastStartedTest[0] = '\0';
 219              		.loc 4 27 0
 220 00ab 488B45F8 		movq	-8(%rbp), %rax
 221 00af C6800C01 		movb	$0, 268(%rax)
 221      000000
  28:RecordingReporter.h ****         lastFailedFile[0] = '\0';
 222              		.loc 4 28 0
 223 00b6 488B45F8 		movq	-8(%rbp), %rax
 224 00ba C6801002 		movb	$0, 528(%rax)
 224      000000
  29:RecordingReporter.h ****         lastFailedSuite[0] = '\0';
 225              		.loc 4 29 0
 226 00c1 488B45F8 		movq	-8(%rbp), %rax
 227 00c5 C6801403 		movb	$0, 788(%rax)
 227      000000
  30:RecordingReporter.h ****         lastFailedTest[0] = '\0';
 228              		.loc 4 30 0
 229 00cc 488B45F8 		movq	-8(%rbp), %rax
 230 00d0 C6801404 		movb	$0, 1044(%rax)
 230      000000
  31:RecordingReporter.h ****         lastFailedMessage[0] = '\0';
 231              		.loc 4 31 0
 232 00d7 488B45F8 		movq	-8(%rbp), %rax
 233 00db C6801405 		movb	$0, 1300(%rax)
 233      000000
  32:RecordingReporter.h ****         lastFinishedSuite[0] = '\0';
 234              		.loc 4 32 0
 235 00e2 488B45F8 		movq	-8(%rbp), %rax
 236 00e6 C6801806 		movb	$0, 1560(%rax)
 236      000000
  33:RecordingReporter.h ****         lastFinishedTest[0] = '\0';
 237              		.loc 4 33 0
 238 00ed 488B45F8 		movq	-8(%rbp), %rax
 239 00f1 C6801807 		movb	$0, 1816(%rax)
 239      000000
 240              	.LBE5:
  34:RecordingReporter.h ****     }
 241              		.loc 4 34 0
 242 00f8 90       		nop
 243 00f9 C9       		leave
 244              		.cfi_def_cfa 7, 8
 245 00fa C3       		ret
 246              		.cfi_endproc
 247              	.LFE1073:
 249              		.weak	_ZN17RecordingReporterC1Ev
 250              		.set	_ZN17RecordingReporterC1Ev,_ZN17RecordingReporterC2Ev
 251              		.section	.text._ZN17RecordingReporter15ReportTestStartERKN8UnitTest11TestDetailsE,"axG",@progbits,
 252              		.align 2
 253              		.weak	_ZN17RecordingReporter15ReportTestStartERKN8UnitTest11TestDetailsE
 255              	_ZN17RecordingReporter15ReportTestStartERKN8UnitTest11TestDetailsE:
 256              	.LFB1075:
  35:RecordingReporter.h **** 
  36:RecordingReporter.h ****     virtual void ReportTestStart(UnitTest::TestDetails const& test)
 257              		.loc 4 36 0
 258              		.cfi_startproc
 259 0000 55       		pushq	%rbp
 260              		.cfi_def_cfa_offset 16
 261              		.cfi_offset 6, -16
 262 0001 4889E5   		movq	%rsp, %rbp
 263              		.cfi_def_cfa_register 6
 264 0004 4883EC10 		subq	$16, %rsp
 265 0008 48897DF8 		movq	%rdi, -8(%rbp)
 266 000c 488975F0 		movq	%rsi, -16(%rbp)
  37:RecordingReporter.h ****     {
  38:RecordingReporter.h **** 		using namespace std;
  39:RecordingReporter.h **** 
  40:RecordingReporter.h ****         ++testRunCount;
 267              		.loc 4 40 0
 268 0010 488B45F8 		movq	-8(%rbp), %rax
 269 0014 8B4008   		movl	8(%rax), %eax
 270 0017 8D5001   		leal	1(%rax), %edx
 271 001a 488B45F8 		movq	-8(%rbp), %rax
 272 001e 895008   		movl	%edx, 8(%rax)
  41:RecordingReporter.h ****         strcpy(lastStartedSuite, test.suiteName);
 273              		.loc 4 41 0
 274 0021 488B45F0 		movq	-16(%rbp), %rax
 275 0025 488B00   		movq	(%rax), %rax
 276 0028 488B55F8 		movq	-8(%rbp), %rdx
 277 002c 4883C20C 		addq	$12, %rdx
 278 0030 4889C6   		movq	%rax, %rsi
 279 0033 4889D7   		movq	%rdx, %rdi
 280 0036 E8000000 		call	strcpy
 280      00
  42:RecordingReporter.h ****         strcpy(lastStartedTest, test.testName);
 281              		.loc 4 42 0
 282 003b 488B45F0 		movq	-16(%rbp), %rax
 283 003f 488B4008 		movq	8(%rax), %rax
 284 0043 488B55F8 		movq	-8(%rbp), %rdx
 285 0047 4881C20C 		addq	$268, %rdx
 285      010000
 286 004e 4889C6   		movq	%rax, %rsi
 287 0051 4889D7   		movq	%rdx, %rdi
 288 0054 E8000000 		call	strcpy
 288      00
  43:RecordingReporter.h ****     }
 289              		.loc 4 43 0
 290 0059 90       		nop
 291 005a C9       		leave
 292              		.cfi_def_cfa 7, 8
 293 005b C3       		ret
 294              		.cfi_endproc
 295              	.LFE1075:
 297              		.section	.text._ZN17RecordingReporter13ReportFailureERKN8UnitTest11TestDetailsEPKc,"axG",@progbits
 298              		.align 2
 299              		.weak	_ZN17RecordingReporter13ReportFailureERKN8UnitTest11TestDetailsEPKc
 301              	_ZN17RecordingReporter13ReportFailureERKN8UnitTest11TestDetailsEPKc:
 302              	.LFB1076:
  44:RecordingReporter.h **** 
  45:RecordingReporter.h ****     virtual void ReportFailure(UnitTest::TestDetails const& test, char const* failure)
 303              		.loc 4 45 0
 304              		.cfi_startproc
 305 0000 55       		pushq	%rbp
 306              		.cfi_def_cfa_offset 16
 307              		.cfi_offset 6, -16
 308 0001 4889E5   		movq	%rsp, %rbp
 309              		.cfi_def_cfa_register 6
 310 0004 4883EC20 		subq	$32, %rsp
 311 0008 48897DF8 		movq	%rdi, -8(%rbp)
 312 000c 488975F0 		movq	%rsi, -16(%rbp)
 313 0010 488955E8 		movq	%rdx, -24(%rbp)
  46:RecordingReporter.h ****     {
  47:RecordingReporter.h **** 		using namespace std;
  48:RecordingReporter.h **** 
  49:RecordingReporter.h **** 		++testFailedCount;
 314              		.loc 4 49 0
 315 0014 488B45F8 		movq	-8(%rbp), %rax
 316 0018 8B800C02 		movl	524(%rax), %eax
 316      0000
 317 001e 8D5001   		leal	1(%rax), %edx
 318 0021 488B45F8 		movq	-8(%rbp), %rax
 319 0025 89900C02 		movl	%edx, 524(%rax)
 319      0000
  50:RecordingReporter.h ****         strcpy(lastFailedFile, test.filename);
 320              		.loc 4 50 0
 321 002b 488B45F0 		movq	-16(%rbp), %rax
 322 002f 488B4010 		movq	16(%rax), %rax
 323 0033 488B55F8 		movq	-8(%rbp), %rdx
 324 0037 4881C210 		addq	$528, %rdx
 324      020000
 325 003e 4889C6   		movq	%rax, %rsi
 326 0041 4889D7   		movq	%rdx, %rdi
 327 0044 E8000000 		call	strcpy
 327      00
  51:RecordingReporter.h ****         lastFailedLine = test.lineNumber;
 328              		.loc 4 51 0
 329 0049 488B45F0 		movq	-16(%rbp), %rax
 330 004d 8B5018   		movl	24(%rax), %edx
 331 0050 488B45F8 		movq	-8(%rbp), %rax
 332 0054 89901003 		movl	%edx, 784(%rax)
 332      0000
  52:RecordingReporter.h ****         strcpy(lastFailedSuite, test.suiteName);
 333              		.loc 4 52 0
 334 005a 488B45F0 		movq	-16(%rbp), %rax
 335 005e 488B00   		movq	(%rax), %rax
 336 0061 488B55F8 		movq	-8(%rbp), %rdx
 337 0065 4881C214 		addq	$788, %rdx
 337      030000
 338 006c 4889C6   		movq	%rax, %rsi
 339 006f 4889D7   		movq	%rdx, %rdi
 340 0072 E8000000 		call	strcpy
 340      00
  53:RecordingReporter.h ****         strcpy(lastFailedTest, test.testName);
 341              		.loc 4 53 0
 342 0077 488B45F0 		movq	-16(%rbp), %rax
 343 007b 488B4008 		movq	8(%rax), %rax
 344 007f 488B55F8 		movq	-8(%rbp), %rdx
 345 0083 4881C214 		addq	$1044, %rdx
 345      040000
 346 008a 4889C6   		movq	%rax, %rsi
 347 008d 4889D7   		movq	%rdx, %rdi
 348 0090 E8000000 		call	strcpy
 348      00
  54:RecordingReporter.h ****         strcpy(lastFailedMessage, failure);
 349              		.loc 4 54 0
 350 0095 488B45F8 		movq	-8(%rbp), %rax
 351 0099 488D9014 		leaq	1300(%rax), %rdx
 351      050000
 352 00a0 488B45E8 		movq	-24(%rbp), %rax
 353 00a4 4889C6   		movq	%rax, %rsi
 354 00a7 4889D7   		movq	%rdx, %rdi
 355 00aa E8000000 		call	strcpy
 355      00
  55:RecordingReporter.h ****     }
 356              		.loc 4 55 0
 357 00af 90       		nop
 358 00b0 C9       		leave
 359              		.cfi_def_cfa 7, 8
 360 00b1 C3       		ret
 361              		.cfi_endproc
 362              	.LFE1076:
 364              		.section	.text._ZN17RecordingReporter16ReportTestFinishERKN8UnitTest11TestDetailsEf,"axG",@progbit
 365              		.align 2
 366              		.weak	_ZN17RecordingReporter16ReportTestFinishERKN8UnitTest11TestDetailsEf
 368              	_ZN17RecordingReporter16ReportTestFinishERKN8UnitTest11TestDetailsEf:
 369              	.LFB1077:
  56:RecordingReporter.h **** 
  57:RecordingReporter.h ****     virtual void ReportTestFinish(UnitTest::TestDetails const& test, float testDuration)
 370              		.loc 4 57 0
 371              		.cfi_startproc
 372 0000 55       		pushq	%rbp
 373              		.cfi_def_cfa_offset 16
 374              		.cfi_offset 6, -16
 375 0001 4889E5   		movq	%rsp, %rbp
 376              		.cfi_def_cfa_register 6
 377 0004 4883EC20 		subq	$32, %rsp
 378 0008 48897DF8 		movq	%rdi, -8(%rbp)
 379 000c 488975F0 		movq	%rsi, -16(%rbp)
 380 0010 F30F1145 		movss	%xmm0, -20(%rbp)
 380      EC
  58:RecordingReporter.h ****     {
  59:RecordingReporter.h **** 		using namespace std;
  60:RecordingReporter.h **** 
  61:RecordingReporter.h **** 		++testFinishedCount;
 381              		.loc 4 61 0
 382 0015 488B45F8 		movq	-8(%rbp), %rax
 383 0019 8B801406 		movl	1556(%rax), %eax
 383      0000
 384 001f 8D5001   		leal	1(%rax), %edx
 385 0022 488B45F8 		movq	-8(%rbp), %rax
 386 0026 89901406 		movl	%edx, 1556(%rax)
 386      0000
  62:RecordingReporter.h ****         strcpy(lastFinishedSuite, test.suiteName);
 387              		.loc 4 62 0
 388 002c 488B45F0 		movq	-16(%rbp), %rax
 389 0030 488B00   		movq	(%rax), %rax
 390 0033 488B55F8 		movq	-8(%rbp), %rdx
 391 0037 4881C218 		addq	$1560, %rdx
 391      060000
 392 003e 4889C6   		movq	%rax, %rsi
 393 0041 4889D7   		movq	%rdx, %rdi
 394 0044 E8000000 		call	strcpy
 394      00
  63:RecordingReporter.h ****         strcpy(lastFinishedTest, test.testName);
 395              		.loc 4 63 0
 396 0049 488B45F0 		movq	-16(%rbp), %rax
 397 004d 488B4008 		movq	8(%rax), %rax
 398 0051 488B55F8 		movq	-8(%rbp), %rdx
 399 0055 4881C218 		addq	$1816, %rdx
 399      070000
 400 005c 4889C6   		movq	%rax, %rsi
 401 005f 4889D7   		movq	%rdx, %rdi
 402 0062 E8000000 		call	strcpy
 402      00
  64:RecordingReporter.h ****         lastFinishedTestTime = testDuration;
 403              		.loc 4 64 0
 404 0067 488B45F8 		movq	-8(%rbp), %rax
 405 006b F30F1045 		movss	-20(%rbp), %xmm0
 405      EC
 406 0070 F30F1180 		movss	%xmm0, 2072(%rax)
 406      18080000 
  65:RecordingReporter.h ****     }
 407              		.loc 4 65 0
 408 0078 90       		nop
 409 0079 C9       		leave
 410              		.cfi_def_cfa 7, 8
 411 007a C3       		ret
 412              		.cfi_endproc
 413              	.LFE1077:
 415              		.section	.text._ZN17RecordingReporter13ReportSummaryEiiif,"axG",@progbits,_ZN17RecordingReporter13
 416              		.align 2
 417              		.weak	_ZN17RecordingReporter13ReportSummaryEiiif
 419              	_ZN17RecordingReporter13ReportSummaryEiiif:
 420              	.LFB1078:
  66:RecordingReporter.h **** 
  67:RecordingReporter.h ****     virtual void ReportSummary(int totalTestCount, int failedTestCount, int failureCount, float sec
 421              		.loc 4 67 0
 422              		.cfi_startproc
 423 0000 55       		pushq	%rbp
 424              		.cfi_def_cfa_offset 16
 425              		.cfi_offset 6, -16
 426 0001 4889E5   		movq	%rsp, %rbp
 427              		.cfi_def_cfa_register 6
 428 0004 48897DF8 		movq	%rdi, -8(%rbp)
 429 0008 8975F4   		movl	%esi, -12(%rbp)
 430 000b 8955F0   		movl	%edx, -16(%rbp)
 431 000e 894DEC   		movl	%ecx, -20(%rbp)
 432 0011 F30F1145 		movss	%xmm0, -24(%rbp)
 432      E8
  68:RecordingReporter.h ****     {
  69:RecordingReporter.h ****         summaryTotalTestCount = totalTestCount;
 433              		.loc 4 69 0
 434 0016 488B45F8 		movq	-8(%rbp), %rax
 435 001a 8B55F4   		movl	-12(%rbp), %edx
 436 001d 89901C08 		movl	%edx, 2076(%rax)
 436      0000
  70:RecordingReporter.h ****         summaryFailedTestCount = failedTestCount;
 437              		.loc 4 70 0
 438 0023 488B45F8 		movq	-8(%rbp), %rax
 439 0027 8B55F0   		movl	-16(%rbp), %edx
 440 002a 89902008 		movl	%edx, 2080(%rax)
 440      0000
  71:RecordingReporter.h ****         summaryFailureCount = failureCount;
 441              		.loc 4 71 0
 442 0030 488B45F8 		movq	-8(%rbp), %rax
 443 0034 8B55EC   		movl	-20(%rbp), %edx
 444 0037 89902408 		movl	%edx, 2084(%rax)
 444      0000
  72:RecordingReporter.h ****         summarySecondsElapsed = secondsElapsed;
 445              		.loc 4 72 0
 446 003d 488B45F8 		movq	-8(%rbp), %rax
 447 0041 F30F1045 		movss	-24(%rbp), %xmm0
 447      E8
 448 0046 F30F1180 		movss	%xmm0, 2088(%rax)
 448      28080000 
  73:RecordingReporter.h ****     }
 449              		.loc 4 73 0
 450 004e 90       		nop
 451 004f 5D       		popq	%rbp
 452              		.cfi_def_cfa 7, 8
 453 0050 C3       		ret
 454              		.cfi_endproc
 455              	.LFE1078:
 457              		.section	.text._ZN17ScopedCurrentTestC2ERN8UnitTest11TestResultsEPKNS0_11TestDetailsE,"axG",@progb
 458              		.align 2
 459              		.weak	_ZN17ScopedCurrentTestC2ERN8UnitTest11TestResultsEPKNS0_11TestDetailsE
 461              	_ZN17ScopedCurrentTestC2ERN8UnitTest11TestResultsEPKNS0_11TestDetailsE:
 462              	.LFB1083:
 463              		.file 5 "ScopedCurrentTest.h"
   1:ScopedCurrentTest.h **** #ifndef UNITTEST_SCOPEDCURRENTTEST_H
   2:ScopedCurrentTest.h **** #define UNITTEST_SCOPEDCURRENTTEST_H
   3:ScopedCurrentTest.h **** 
   4:ScopedCurrentTest.h **** #include "../CurrentTest.h"
   5:ScopedCurrentTest.h **** #include <cstddef>
   6:ScopedCurrentTest.h **** 
   7:ScopedCurrentTest.h **** class ScopedCurrentTest
   8:ScopedCurrentTest.h **** {
   9:ScopedCurrentTest.h **** public:
  10:ScopedCurrentTest.h **** 	ScopedCurrentTest()
  11:ScopedCurrentTest.h **** 		: m_oldTestResults(UnitTest::CurrentTest::Results())
  12:ScopedCurrentTest.h **** 		, m_oldTestDetails(UnitTest::CurrentTest::Details())
  13:ScopedCurrentTest.h **** 	{
  14:ScopedCurrentTest.h **** 	}
  15:ScopedCurrentTest.h **** 
  16:ScopedCurrentTest.h **** 	explicit ScopedCurrentTest(UnitTest::TestResults& newResults, const UnitTest::TestDetails* newDeta
 464              		.loc 5 16 0
 465              		.cfi_startproc
 466 0000 55       		pushq	%rbp
 467              		.cfi_def_cfa_offset 16
 468              		.cfi_offset 6, -16
 469 0001 4889E5   		movq	%rsp, %rbp
 470              		.cfi_def_cfa_register 6
 471 0004 4883EC20 		subq	$32, %rsp
 472 0008 48897DF8 		movq	%rdi, -8(%rbp)
 473 000c 488975F0 		movq	%rsi, -16(%rbp)
 474 0010 488955E8 		movq	%rdx, -24(%rbp)
 475              	.LBB6:
  17:ScopedCurrentTest.h **** 		: m_oldTestResults(UnitTest::CurrentTest::Results())
 476              		.loc 5 17 0
 477 0014 E8000000 		call	_ZN8UnitTest11CurrentTest7ResultsEv
 477      00
 478 0019 488B10   		movq	(%rax), %rdx
  18:ScopedCurrentTest.h **** 		, m_oldTestDetails(UnitTest::CurrentTest::Details())
 479              		.loc 5 18 0
 480 001c 488B45F8 		movq	-8(%rbp), %rax
 481 0020 488910   		movq	%rdx, (%rax)
 482 0023 E8000000 		call	_ZN8UnitTest11CurrentTest7DetailsEv
 482      00
 483 0028 488B10   		movq	(%rax), %rdx
 484 002b 488B45F8 		movq	-8(%rbp), %rax
 485 002f 48895008 		movq	%rdx, 8(%rax)
  19:ScopedCurrentTest.h **** 	{
  20:ScopedCurrentTest.h **** 		UnitTest::CurrentTest::Results() = &newResults;
 486              		.loc 5 20 0
 487 0033 E8000000 		call	_ZN8UnitTest11CurrentTest7ResultsEv
 487      00
 488 0038 4889C2   		movq	%rax, %rdx
 489 003b 488B45F0 		movq	-16(%rbp), %rax
 490 003f 488902   		movq	%rax, (%rdx)
  21:ScopedCurrentTest.h **** 
  22:ScopedCurrentTest.h **** 		if (newDetails != NULL)
 491              		.loc 5 22 0
 492 0042 48837DE8 		cmpq	$0, -24(%rbp)
 492      00
 493 0047 740F     		je	.L18
  23:ScopedCurrentTest.h **** 			UnitTest::CurrentTest::Details() = newDetails;
 494              		.loc 5 23 0
 495 0049 E8000000 		call	_ZN8UnitTest11CurrentTest7DetailsEv
 495      00
 496 004e 4889C2   		movq	%rax, %rdx
 497 0051 488B45E8 		movq	-24(%rbp), %rax
 498 0055 488902   		movq	%rax, (%rdx)
 499              	.L18:
 500              	.LBE6:
  24:ScopedCurrentTest.h **** 	}
 501              		.loc 5 24 0
 502 0058 90       		nop
 503 0059 C9       		leave
 504              		.cfi_def_cfa 7, 8
 505 005a C3       		ret
 506              		.cfi_endproc
 507              	.LFE1083:
 509              		.weak	_ZN17ScopedCurrentTestC1ERN8UnitTest11TestResultsEPKNS0_11TestDetailsE
 510              		.set	_ZN17ScopedCurrentTestC1ERN8UnitTest11TestResultsEPKNS0_11TestDetailsE,_ZN17ScopedCurrentTest
 511              		.section	.text._ZN17ScopedCurrentTestD2Ev,"axG",@progbits,_ZN17ScopedCurrentTestD5Ev,comdat
 512              		.align 2
 513              		.weak	_ZN17ScopedCurrentTestD2Ev
 515              	_ZN17ScopedCurrentTestD2Ev:
 516              	.LFB1086:
  25:ScopedCurrentTest.h **** 
  26:ScopedCurrentTest.h **** 	~ScopedCurrentTest()
 517              		.loc 5 26 0
 518              		.cfi_startproc
 519 0000 55       		pushq	%rbp
 520              		.cfi_def_cfa_offset 16
 521              		.cfi_offset 6, -16
 522 0001 4889E5   		movq	%rsp, %rbp
 523              		.cfi_def_cfa_register 6
 524 0004 4883EC10 		subq	$16, %rsp
 525 0008 48897DF8 		movq	%rdi, -8(%rbp)
 526              	.LBB7:
  27:ScopedCurrentTest.h **** 	{
  28:ScopedCurrentTest.h **** 		UnitTest::CurrentTest::Results() = m_oldTestResults;
 527              		.loc 5 28 0
 528 000c E8000000 		call	_ZN8UnitTest11CurrentTest7ResultsEv
 528      00
 529 0011 4889C2   		movq	%rax, %rdx
 530 0014 488B45F8 		movq	-8(%rbp), %rax
 531 0018 488B00   		movq	(%rax), %rax
 532 001b 488902   		movq	%rax, (%rdx)
  29:ScopedCurrentTest.h **** 		UnitTest::CurrentTest::Details() = m_oldTestDetails;
 533              		.loc 5 29 0
 534 001e E8000000 		call	_ZN8UnitTest11CurrentTest7DetailsEv
 534      00
 535 0023 4889C2   		movq	%rax, %rdx
 536 0026 488B45F8 		movq	-8(%rbp), %rax
 537 002a 488B4008 		movq	8(%rax), %rax
 538 002e 488902   		movq	%rax, (%rdx)
 539              	.LBE7:
  30:ScopedCurrentTest.h **** 	}
 540              		.loc 5 30 0
 541 0031 90       		nop
 542 0032 C9       		leave
 543              		.cfi_def_cfa 7, 8
 544 0033 C3       		ret
 545              		.cfi_endproc
 546              	.LFE1086:
 548              		.weak	_ZN17ScopedCurrentTestD1Ev
 549              		.set	_ZN17ScopedCurrentTestD1Ev,_ZN17ScopedCurrentTestD2Ev
 550              		.section	.rodata
 551              	.LC2:
 552 000d 54657374 		.string	"TestTimeConstraint.cpp"
 552      54696D65 
 552      436F6E73 
 552      74726169 
 552      6E742E63 
 553 0024 00000000 		.align 8
 554              	.LC3:
 555 0028 54696D65 		.string	"TimeConstraintSucceedsWithFastTest"
 555      436F6E73 
 555      74726169 
 555      6E745375 
 555      63636565 
 556              		.text
 557              		.align 2
 559              	_ZN12_GLOBAL__N_138TestTimeConstraintSucceedsWithFastTestC2Ev:
 560              	.LFB1089:
 561              		.file 6 "TestTimeConstraint.cpp"
   1:TestTimeConstraint.cpp **** #include "../UnitTest++.h"
   2:TestTimeConstraint.cpp **** #include "../TestResults.h"
   3:TestTimeConstraint.cpp **** #include "../TimeHelpers.h"
   4:TestTimeConstraint.cpp **** #include "RecordingReporter.h"
   5:TestTimeConstraint.cpp **** #include "ScopedCurrentTest.h"
   6:TestTimeConstraint.cpp **** 
   7:TestTimeConstraint.cpp **** using namespace UnitTest;
   8:TestTimeConstraint.cpp **** 
   9:TestTimeConstraint.cpp **** namespace
  10:TestTimeConstraint.cpp **** {
  11:TestTimeConstraint.cpp **** 
  12:TestTimeConstraint.cpp **** TEST(TimeConstraintSucceedsWithFastTest)
 562              		.loc 6 12 0
 563              		.cfi_startproc
 564 0000 55       		pushq	%rbp
 565              		.cfi_def_cfa_offset 16
 566              		.cfi_offset 6, -16
 567 0001 4889E5   		movq	%rsp, %rbp
 568              		.cfi_def_cfa_register 6
 569 0004 4883EC10 		subq	$16, %rsp
 570 0008 48897DF8 		movq	%rdi, -8(%rbp)
 571              	.LBB8:
 572              		.loc 6 12 0
 573 000c E8000000 		call	_ZN13UnitTestSuite12GetSuiteNameEv
 573      00
 574 0011 4889C2   		movq	%rax, %rdx
 575 0014 488B45F8 		movq	-8(%rbp), %rax
 576 0018 41B80C00 		movl	$12, %r8d
 576      0000
 577 001e B9000000 		movl	$.LC2, %ecx
 577      00
 578 0023 BE000000 		movl	$.LC3, %esi
 578      00
 579 0028 4889C7   		movq	%rax, %rdi
 580 002b E8000000 		call	_ZN8UnitTest4TestC2EPKcS2_S2_i
 580      00
 581 0030 BA000000 		movl	$_ZTVN12_GLOBAL__N_138TestTimeConstraintSucceedsWithFastTestE+16, %edx
 581      00
 582 0035 488B45F8 		movq	-8(%rbp), %rax
 583 0039 488910   		movq	%rdx, (%rax)
 584              	.LBE8:
 585 003c 90       		nop
 586 003d C9       		leave
 587              		.cfi_def_cfa 7, 8
 588 003e C3       		ret
 589              		.cfi_endproc
 590              	.LFE1089:
 592              		.set	_ZN12_GLOBAL__N_138TestTimeConstraintSucceedsWithFastTestC1Ev,_ZN12_GLOBAL__N_138TestTimeCons
 593              		.local	_ZN12_GLOBAL__N_146testTimeConstraintSucceedsWithFastTestInstanceE
 594              		.comm	_ZN12_GLOBAL__N_146testTimeConstraintSucceedsWithFastTestInstanceE,56,32
 595              		.local	_ZN12_GLOBAL__N_139adderTimeConstraintSucceedsWithFastTestE
 596              		.comm	_ZN12_GLOBAL__N_139adderTimeConstraintSucceedsWithFastTestE,1,1
 597              		.section	.rodata
 598              	.LC4:
 599 004b 00       		.string	""
 600 004c 00000000 		.align 8
 601              	.LC5:
 602 0050 556E6861 		.string	"Unhandled exception in CHECK_EQUAL(0, result.GetFailureCount())"
 602      6E646C65 
 602      64206578 
 602      63657074 
 602      696F6E20 
 603              		.text
 604 003f 90       		.align 2
 606              	_ZNK12_GLOBAL__N_138TestTimeConstraintSucceedsWithFastTest7RunImplEv:
 607              	.LFB1091:
  13:TestTimeConstraint.cpp **** {
 608              		.loc 6 13 0
 609              		.cfi_startproc
 610              		.cfi_personality 0x3,__gxx_personality_v0
 611              		.cfi_lsda 0x3,.LLSDA1091
 612 0040 55       		pushq	%rbp
 613              		.cfi_def_cfa_offset 16
 614              		.cfi_offset 6, -16
 615 0041 4889E5   		movq	%rsp, %rbp
 616              		.cfi_def_cfa_register 6
 617 0044 53       		pushq	%rbx
 618 0045 4881EC98 		subq	$152, %rsp
 618      000000
 619              		.cfi_offset 3, -24
 620 004c 4889BD68 		movq	%rdi, -152(%rbp)
 620      FFFFFF
 621              		.loc 6 13 0
 622 0053 64488B04 		movq	%fs:40, %rax
 622      25280000 
 622      00
 623 005c 488945E8 		movq	%rax, -24(%rbp)
 624 0060 31C0     		xorl	%eax, %eax
  14:TestTimeConstraint.cpp ****     TestResults result;
 625              		.loc 6 14 0
 626 0062 488D4580 		leaq	-128(%rbp), %rax
 627 0066 BE000000 		movl	$0, %esi
 627      00
 628 006b 4889C7   		movq	%rax, %rdi
 629              	.LEHB4:
 630 006e E8000000 		call	_ZN8UnitTest11TestResultsC1EPNS_12TestReporterE
 630      00
 631              	.LBB9:
  15:TestTimeConstraint.cpp ****     {
  16:TestTimeConstraint.cpp **** 		ScopedCurrentTest scopedResult(result);
 632              		.loc 6 16 0
 633 0073 488D4D80 		leaq	-128(%rbp), %rcx
 634 0077 488D8570 		leaq	-144(%rbp), %rax
 634      FFFFFF
 635 007e BA000000 		movl	$0, %edx
 635      00
 636 0083 4889CE   		movq	%rcx, %rsi
 637 0086 4889C7   		movq	%rax, %rdi
 638 0089 E8000000 		call	_ZN17ScopedCurrentTestC1ERN8UnitTest11TestResultsEPKNS0_11TestDetailsE
 638      00
 639              	.LEHE4:
  17:TestTimeConstraint.cpp ****         TimeConstraint t(200, TestDetails("", "", "", 0));
 640              		.loc 6 17 0
 641 008e 488D45C0 		leaq	-64(%rbp), %rax
 642 0092 41B80000 		movl	$0, %r8d
 642      0000
 643 0098 B9000000 		movl	$.LC4, %ecx
 643      00
 644 009d BA000000 		movl	$.LC4, %edx
 644      00
 645 00a2 BE000000 		movl	$.LC4, %esi
 645      00
 646 00a7 4889C7   		movq	%rax, %rdi
 647              	.LEHB5:
 648 00aa E8000000 		call	_ZN8UnitTest11TestDetailsC1EPKcS2_S2_i
 648      00
 649              		.loc 6 17 0 is_stmt 0 discriminator 1
 650 00af 488D55C0 		leaq	-64(%rbp), %rdx
 651 00b3 488D45A0 		leaq	-96(%rbp), %rax
 652 00b7 BEC80000 		movl	$200, %esi
 652      00
 653 00bc 4889C7   		movq	%rax, %rdi
 654 00bf E8000000 		call	_ZN8UnitTest14TimeConstraintC1EiRKNS_11TestDetailsE
 654      00
 655              	.LEHE5:
  18:TestTimeConstraint.cpp ****         TimeHelpers::SleepMs(5);
 656              		.loc 6 18 0 is_stmt 1 discriminator 3
 657 00c4 BF050000 		movl	$5, %edi
 657      00
 658              	.LEHB6:
 659 00c9 E8000000 		call	_ZN8UnitTest11TimeHelpers7SleepMsEi
 659      00
 660              	.LEHE6:
  17:TestTimeConstraint.cpp ****         TimeConstraint t(200, TestDetails("", "", "", 0));
 661              		.loc 6 17 0
 662 00ce 488D45A0 		leaq	-96(%rbp), %rax
 663 00d2 4889C7   		movq	%rax, %rdi
 664              	.LEHB7:
 665 00d5 E8000000 		call	_ZN8UnitTest14TimeConstraintD1Ev
 665      00
 666              	.LEHE7:
  16:TestTimeConstraint.cpp ****         TimeConstraint t(200, TestDetails("", "", "", 0));
 667              		.loc 6 16 0
 668 00da 488D8570 		leaq	-144(%rbp), %rax
 668      FFFFFF
 669 00e1 4889C7   		movq	%rax, %rdi
 670              	.LEHB8:
 671 00e4 E8000000 		call	_ZN17ScopedCurrentTestD1Ev
 671      00
 672              	.LEHE8:
 673              	.LEHB9:
 674              	.LBE9:
  19:TestTimeConstraint.cpp ****     }
  20:TestTimeConstraint.cpp ****     CHECK_EQUAL(0, result.GetFailureCount());
 675              		.loc 6 20 0
 676 00e9 E8000000 		call	_ZN8UnitTest11CurrentTest7DetailsEv
 676      00
 677 00ee 488B08   		movq	(%rax), %rcx
 678 00f1 488D45C0 		leaq	-64(%rbp), %rax
 679 00f5 BA140000 		movl	$20, %edx
 679      00
 680 00fa 4889CE   		movq	%rcx, %rsi
 681 00fd 4889C7   		movq	%rax, %rdi
 682 0100 E8000000 		call	_ZN8UnitTest11TestDetailsC1ERKS0_i
 682      00
 683              		.loc 6 20 0 is_stmt 0 discriminator 2
 684 0105 488D4580 		leaq	-128(%rbp), %rax
 685 0109 4889C7   		movq	%rax, %rdi
 686 010c E8000000 		call	_ZNK8UnitTest11TestResults15GetFailureCountEv
 686      00
 687              	.LEHE9:
 688 0111 8945A0   		movl	%eax, -96(%rbp)
 689 0114 C78570FF 		movl	$0, -144(%rbp)
 689      FFFF0000 
 689      0000
 690              	.LEHB10:
 691 011e E8000000 		call	_ZN8UnitTest11CurrentTest7ResultsEv
 691      00
 692              		.loc 6 20 0 discriminator 4
 693 0123 488B00   		movq	(%rax), %rax
 694 0126 488D4DC0 		leaq	-64(%rbp), %rcx
 695 012a 488D55A0 		leaq	-96(%rbp), %rdx
 696 012e 488DB570 		leaq	-144(%rbp), %rsi
 696      FFFFFF
 697 0135 4889C7   		movq	%rax, %rdi
 698 0138 E8000000 		call	_ZN8UnitTest10CheckEqualIiiEEvRNS_11TestResultsERKT_RKT0_RKNS_11TestDetailsE
 698      00
 699              	.LEHE10:
  21:TestTimeConstraint.cpp **** }
 700              		.loc 6 21 0 is_stmt 1
 701 013d E98A0000 		jmp	.L21
 701      00
 702              	.L30:
 703 0142 4889C3   		movq	%rax, %rbx
 704              	.LBB10:
  17:TestTimeConstraint.cpp ****         TimeHelpers::SleepMs(5);
 705              		.loc 6 17 0
 706 0145 488D45A0 		leaq	-96(%rbp), %rax
 707 0149 4889C7   		movq	%rax, %rdi
 708 014c E8000000 		call	_ZN8UnitTest14TimeConstraintD1Ev
 708      00
 709 0151 EB03     		jmp	.L23
 710              	.L29:
 711 0153 4889C3   		movq	%rax, %rbx
 712              	.L23:
  16:TestTimeConstraint.cpp ****         TimeConstraint t(200, TestDetails("", "", "", 0));
 713              		.loc 6 16 0
 714 0156 488D8570 		leaq	-144(%rbp), %rax
 714      FFFFFF
 715 015d 4889C7   		movq	%rax, %rdi
 716 0160 E8000000 		call	_ZN17ScopedCurrentTestD1Ev
 716      00
 717 0165 4889D8   		movq	%rbx, %rax
 718 0168 4889C7   		movq	%rax, %rdi
 719              	.LEHB11:
 720 016b E8000000 		call	_Unwind_Resume
 720      00
 721              	.LEHE11:
 722              	.L32:
 723 0170 EB00     		jmp	.L25
 724              	.L31:
 725              	.L25:
 726              	.LBE10:
  20:TestTimeConstraint.cpp **** }
 727              		.loc 6 20 0
 728 0172 4889C7   		movq	%rax, %rdi
 729 0175 E8000000 		call	__cxa_begin_catch
 729      00
 730              	.LEHB12:
 731 017a E8000000 		call	_ZN8UnitTest11CurrentTest7DetailsEv
 731      00
 732 017f 488B08   		movq	(%rax), %rcx
 733 0182 488D45C0 		leaq	-64(%rbp), %rax
 734 0186 BA140000 		movl	$20, %edx
 734      00
 735 018b 4889CE   		movq	%rcx, %rsi
 736 018e 4889C7   		movq	%rax, %rdi
 737 0191 E8000000 		call	_ZN8UnitTest11TestDetailsC1ERKS0_i
 737      00
  20:TestTimeConstraint.cpp **** }
 738              		.loc 6 20 0 is_stmt 0 discriminator 12
 739 0196 E8000000 		call	_ZN8UnitTest11CurrentTest7ResultsEv
 739      00
 740 019b 488B00   		movq	(%rax), %rax
 741 019e 488D4DC0 		leaq	-64(%rbp), %rcx
 742 01a2 BA000000 		movl	$.LC5, %edx
 742      00
 743 01a7 4889CE   		movq	%rcx, %rsi
 744 01aa 4889C7   		movq	%rax, %rdi
 745 01ad E8000000 		call	_ZN8UnitTest11TestResults13OnTestFailureERKNS_11TestDetailsEPKc
 745      00
 746              	.LEHE12:
 747              	.LEHB13:
  20:TestTimeConstraint.cpp **** }
 748              		.loc 6 20 0 discriminator 16
 749 01b2 E8000000 		call	__cxa_end_catch
 749      00
 750              	.LEHE13:
 751              		.loc 6 21 0 is_stmt 1 discriminator 16
 752 01b7 EB13     		jmp	.L21
 753              	.L33:
 754 01b9 4889C3   		movq	%rax, %rbx
  20:TestTimeConstraint.cpp **** }
 755              		.loc 6 20 0
 756 01bc E8000000 		call	__cxa_end_catch
 756      00
 757 01c1 4889D8   		movq	%rbx, %rax
 758 01c4 4889C7   		movq	%rax, %rdi
 759              	.LEHB14:
 760 01c7 E8000000 		call	_Unwind_Resume
 760      00
 761              	.LEHE14:
 762              	.L21:
 763              		.loc 6 21 0
 764 01cc 488B45E8 		movq	-24(%rbp), %rax
 765 01d0 64483304 		xorq	%fs:40, %rax
 765      25280000 
 765      00
 766 01d9 7405     		je	.L28
 767 01db E8000000 		call	__stack_chk_fail
 767      00
 768              	.L28:
 769 01e0 4881C498 		addq	$152, %rsp
 769      000000
 770 01e7 5B       		popq	%rbx
 771 01e8 5D       		popq	%rbp
 772              		.cfi_def_cfa 7, 8
 773 01e9 C3       		ret
 774              		.cfi_endproc
 775              	.LFE1091:
 776              		.section	.gcc_except_table,"a",@progbits
 777              		.align 4
 778              	.LLSDA1091:
 779 0000 FF       		.byte	0xff
 780 0001 03       		.byte	0x3
 781 0002 45       		.uleb128 .LLSDATT1091-.LLSDATTD1091
 782              	.LLSDATTD1091:
 783 0003 01       		.byte	0x1
 784 0004 3B       		.uleb128 .LLSDACSE1091-.LLSDACSB1091
 785              	.LLSDACSB1091:
 786 0005 2E       		.uleb128 .LEHB4-.LFB1091
 787 0006 20       		.uleb128 .LEHE4-.LEHB4
 788 0007 00       		.uleb128 0
 789 0008 00       		.uleb128 0
 790 0009 6A       		.uleb128 .LEHB5-.LFB1091
 791 000a 1A       		.uleb128 .LEHE5-.LEHB5
 792 000b 9302     		.uleb128 .L29-.LFB1091
 793 000d 00       		.uleb128 0
 794 000e 8901     		.uleb128 .LEHB6-.LFB1091
 795 0010 05       		.uleb128 .LEHE6-.LEHB6
 796 0011 8202     		.uleb128 .L30-.LFB1091
 797 0013 00       		.uleb128 0
 798 0014 9501     		.uleb128 .LEHB7-.LFB1091
 799 0016 05       		.uleb128 .LEHE7-.LEHB7
 800 0017 9302     		.uleb128 .L29-.LFB1091
 801 0019 00       		.uleb128 0
 802 001a A401     		.uleb128 .LEHB8-.LFB1091
 803 001c 05       		.uleb128 .LEHE8-.LEHB8
 804 001d 00       		.uleb128 0
 805 001e 00       		.uleb128 0
 806 001f A901     		.uleb128 .LEHB9-.LFB1091
 807 0021 28       		.uleb128 .LEHE9-.LEHB9
 808 0022 B202     		.uleb128 .L31-.LFB1091
 809 0024 01       		.uleb128 0x1
 810 0025 DE01     		.uleb128 .LEHB10-.LFB1091
 811 0027 1F       		.uleb128 .LEHE10-.LEHB10
 812 0028 B002     		.uleb128 .L32-.LFB1091
 813 002a 03       		.uleb128 0x3
 814 002b AB02     		.uleb128 .LEHB11-.LFB1091
 815 002d 05       		.uleb128 .LEHE11-.LEHB11
 816 002e 00       		.uleb128 0
 817 002f 00       		.uleb128 0
 818 0030 BA02     		.uleb128 .LEHB12-.LFB1091
 819 0032 38       		.uleb128 .LEHE12-.LEHB12
 820 0033 F902     		.uleb128 .L33-.LFB1091
 821 0035 00       		.uleb128 0
 822 0036 F202     		.uleb128 .LEHB13-.LFB1091
 823 0038 05       		.uleb128 .LEHE13-.LEHB13
 824 0039 00       		.uleb128 0
 825 003a 00       		.uleb128 0
 826 003b 8703     		.uleb128 .LEHB14-.LFB1091
 827 003d 05       		.uleb128 .LEHE14-.LEHB14
 828 003e 00       		.uleb128 0
 829 003f 00       		.uleb128 0
 830              	.LLSDACSE1091:
 831 0040 01       		.byte	0x1
 832 0041 00       		.byte	0
 833 0042 00       		.byte	0
 834 0043 7D       		.byte	0x7d
 835              		.align 4
 836 0044 00000000 		.long	0
 837              	
 838              	.LLSDATT1091:
 839              		.text
 841              		.section	.rodata
 842              		.align 8
 843              	.LC6:
 844 0090 54696D65 		.string	"TimeConstraintFailsWithSlowTest"
 844      436F6E73 
 844      74726169 
 844      6E744661 
 844      696C7357 
 845              		.text
 846              		.align 2
 848              	_ZN12_GLOBAL__N_135TestTimeConstraintFailsWithSlowTestC2Ev:
 849              	.LFB1093:
  22:TestTimeConstraint.cpp **** 
  23:TestTimeConstraint.cpp **** TEST(TimeConstraintFailsWithSlowTest)
 850              		.loc 6 23 0
 851              		.cfi_startproc
 852 01ea 55       		pushq	%rbp
 853              		.cfi_def_cfa_offset 16
 854              		.cfi_offset 6, -16
 855 01eb 4889E5   		movq	%rsp, %rbp
 856              		.cfi_def_cfa_register 6
 857 01ee 4883EC10 		subq	$16, %rsp
 858 01f2 48897DF8 		movq	%rdi, -8(%rbp)
 859              	.LBB11:
 860              		.loc 6 23 0
 861 01f6 E8000000 		call	_ZN13UnitTestSuite12GetSuiteNameEv
 861      00
 862 01fb 4889C2   		movq	%rax, %rdx
 863 01fe 488B45F8 		movq	-8(%rbp), %rax
 864 0202 41B81700 		movl	$23, %r8d
 864      0000
 865 0208 B9000000 		movl	$.LC2, %ecx
 865      00
 866 020d BE000000 		movl	$.LC6, %esi
 866      00
 867 0212 4889C7   		movq	%rax, %rdi
 868 0215 E8000000 		call	_ZN8UnitTest4TestC2EPKcS2_S2_i
 868      00
 869 021a BA000000 		movl	$_ZTVN12_GLOBAL__N_135TestTimeConstraintFailsWithSlowTestE+16, %edx
 869      00
 870 021f 488B45F8 		movq	-8(%rbp), %rax
 871 0223 488910   		movq	%rdx, (%rax)
 872              	.LBE11:
 873 0226 90       		nop
 874 0227 C9       		leave
 875              		.cfi_def_cfa 7, 8
 876 0228 C3       		ret
 877              		.cfi_endproc
 878              	.LFE1093:
 880              		.set	_ZN12_GLOBAL__N_135TestTimeConstraintFailsWithSlowTestC1Ev,_ZN12_GLOBAL__N_135TestTimeConstra
 881              		.local	_ZN12_GLOBAL__N_143testTimeConstraintFailsWithSlowTestInstanceE
 882              		.comm	_ZN12_GLOBAL__N_143testTimeConstraintFailsWithSlowTestInstanceE,56,32
 883              		.local	_ZN12_GLOBAL__N_136adderTimeConstraintFailsWithSlowTestE
 884              		.comm	_ZN12_GLOBAL__N_136adderTimeConstraintFailsWithSlowTestE,1,1
 885              		.section	.rodata
 886              		.align 8
 887              	.LC7:
 888 00b0 556E6861 		.string	"Unhandled exception in CHECK_EQUAL(1, result.GetFailureCount())"
 888      6E646C65 
 888      64206578 
 888      63657074 
 888      696F6E20 
 889              		.text
 890 0229 90       		.align 2
 892              	_ZNK12_GLOBAL__N_135TestTimeConstraintFailsWithSlowTest7RunImplEv:
 893              	.LFB1095:
  24:TestTimeConstraint.cpp **** {
 894              		.loc 6 24 0
 895              		.cfi_startproc
 896              		.cfi_personality 0x3,__gxx_personality_v0
 897              		.cfi_lsda 0x3,.LLSDA1095
 898 022a 55       		pushq	%rbp
 899              		.cfi_def_cfa_offset 16
 900              		.cfi_offset 6, -16
 901 022b 4889E5   		movq	%rsp, %rbp
 902              		.cfi_def_cfa_register 6
 903 022e 53       		pushq	%rbx
 904 022f 4881EC98 		subq	$152, %rsp
 904      000000
 905              		.cfi_offset 3, -24
 906 0236 4889BD68 		movq	%rdi, -152(%rbp)
 906      FFFFFF
 907              		.loc 6 24 0
 908 023d 64488B04 		movq	%fs:40, %rax
 908      25280000 
 908      00
 909 0246 488945E8 		movq	%rax, -24(%rbp)
 910 024a 31C0     		xorl	%eax, %eax
  25:TestTimeConstraint.cpp ****     TestResults result;
 911              		.loc 6 25 0
 912 024c 488D4580 		leaq	-128(%rbp), %rax
 913 0250 BE000000 		movl	$0, %esi
 913      00
 914 0255 4889C7   		movq	%rax, %rdi
 915              	.LEHB15:
 916 0258 E8000000 		call	_ZN8UnitTest11TestResultsC1EPNS_12TestReporterE
 916      00
 917              	.LBB12:
  26:TestTimeConstraint.cpp ****     {
  27:TestTimeConstraint.cpp **** 		ScopedCurrentTest scopedResult(result);
 918              		.loc 6 27 0
 919 025d 488D4D80 		leaq	-128(%rbp), %rcx
 920 0261 488D8570 		leaq	-144(%rbp), %rax
 920      FFFFFF
 921 0268 BA000000 		movl	$0, %edx
 921      00
 922 026d 4889CE   		movq	%rcx, %rsi
 923 0270 4889C7   		movq	%rax, %rdi
 924 0273 E8000000 		call	_ZN17ScopedCurrentTestC1ERN8UnitTest11TestResultsEPKNS0_11TestDetailsE
 924      00
 925              	.LEHE15:
  28:TestTimeConstraint.cpp ****         TimeConstraint t(10, TestDetails("", "", "", 0));
 926              		.loc 6 28 0
 927 0278 488D45C0 		leaq	-64(%rbp), %rax
 928 027c 41B80000 		movl	$0, %r8d
 928      0000
 929 0282 B9000000 		movl	$.LC4, %ecx
 929      00
 930 0287 BA000000 		movl	$.LC4, %edx
 930      00
 931 028c BE000000 		movl	$.LC4, %esi
 931      00
 932 0291 4889C7   		movq	%rax, %rdi
 933              	.LEHB16:
 934 0294 E8000000 		call	_ZN8UnitTest11TestDetailsC1EPKcS2_S2_i
 934      00
 935              		.loc 6 28 0 is_stmt 0 discriminator 1
 936 0299 488D55C0 		leaq	-64(%rbp), %rdx
 937 029d 488D45A0 		leaq	-96(%rbp), %rax
 938 02a1 BE0A0000 		movl	$10, %esi
 938      00
 939 02a6 4889C7   		movq	%rax, %rdi
 940 02a9 E8000000 		call	_ZN8UnitTest14TimeConstraintC1EiRKNS_11TestDetailsE
 940      00
 941              	.LEHE16:
  29:TestTimeConstraint.cpp ****         TimeHelpers::SleepMs(20);
 942              		.loc 6 29 0 is_stmt 1 discriminator 3
 943 02ae BF140000 		movl	$20, %edi
 943      00
 944              	.LEHB17:
 945 02b3 E8000000 		call	_ZN8UnitTest11TimeHelpers7SleepMsEi
 945      00
 946              	.LEHE17:
  28:TestTimeConstraint.cpp ****         TimeConstraint t(10, TestDetails("", "", "", 0));
 947              		.loc 6 28 0
 948 02b8 488D45A0 		leaq	-96(%rbp), %rax
 949 02bc 4889C7   		movq	%rax, %rdi
 950              	.LEHB18:
 951 02bf E8000000 		call	_ZN8UnitTest14TimeConstraintD1Ev
 951      00
 952              	.LEHE18:
  27:TestTimeConstraint.cpp ****         TimeConstraint t(10, TestDetails("", "", "", 0));
 953              		.loc 6 27 0
 954 02c4 488D8570 		leaq	-144(%rbp), %rax
 954      FFFFFF
 955 02cb 4889C7   		movq	%rax, %rdi
 956              	.LEHB19:
 957 02ce E8000000 		call	_ZN17ScopedCurrentTestD1Ev
 957      00
 958              	.LEHE19:
 959              	.LEHB20:
 960              	.LBE12:
  30:TestTimeConstraint.cpp ****     }
  31:TestTimeConstraint.cpp ****     CHECK_EQUAL(1, result.GetFailureCount());
 961              		.loc 6 31 0
 962 02d3 E8000000 		call	_ZN8UnitTest11CurrentTest7DetailsEv
 962      00
 963 02d8 488B08   		movq	(%rax), %rcx
 964 02db 488D45C0 		leaq	-64(%rbp), %rax
 965 02df BA1F0000 		movl	$31, %edx
 965      00
 966 02e4 4889CE   		movq	%rcx, %rsi
 967 02e7 4889C7   		movq	%rax, %rdi
 968 02ea E8000000 		call	_ZN8UnitTest11TestDetailsC1ERKS0_i
 968      00
 969              		.loc 6 31 0 is_stmt 0 discriminator 2
 970 02ef 488D4580 		leaq	-128(%rbp), %rax
 971 02f3 4889C7   		movq	%rax, %rdi
 972 02f6 E8000000 		call	_ZNK8UnitTest11TestResults15GetFailureCountEv
 972      00
 973              	.LEHE20:
 974 02fb 8945A0   		movl	%eax, -96(%rbp)
 975 02fe C78570FF 		movl	$1, -144(%rbp)
 975      FFFF0100 
 975      0000
 976              	.LEHB21:
 977 0308 E8000000 		call	_ZN8UnitTest11CurrentTest7ResultsEv
 977      00
 978              		.loc 6 31 0 discriminator 4
 979 030d 488B00   		movq	(%rax), %rax
 980 0310 488D4DC0 		leaq	-64(%rbp), %rcx
 981 0314 488D55A0 		leaq	-96(%rbp), %rdx
 982 0318 488DB570 		leaq	-144(%rbp), %rsi
 982      FFFFFF
 983 031f 4889C7   		movq	%rax, %rdi
 984 0322 E8000000 		call	_ZN8UnitTest10CheckEqualIiiEEvRNS_11TestResultsERKT_RKT0_RKNS_11TestDetailsE
 984      00
 985              	.LEHE21:
  32:TestTimeConstraint.cpp **** }
 986              		.loc 6 32 0 is_stmt 1
 987 0327 E98A0000 		jmp	.L35
 987      00
 988              	.L44:
 989 032c 4889C3   		movq	%rax, %rbx
 990              	.LBB13:
  28:TestTimeConstraint.cpp ****         TimeHelpers::SleepMs(20);
 991              		.loc 6 28 0
 992 032f 488D45A0 		leaq	-96(%rbp), %rax
 993 0333 4889C7   		movq	%rax, %rdi
 994 0336 E8000000 		call	_ZN8UnitTest14TimeConstraintD1Ev
 994      00
 995 033b EB03     		jmp	.L37
 996              	.L43:
 997 033d 4889C3   		movq	%rax, %rbx
 998              	.L37:
  27:TestTimeConstraint.cpp ****         TimeConstraint t(10, TestDetails("", "", "", 0));
 999              		.loc 6 27 0
 1000 0340 488D8570 		leaq	-144(%rbp), %rax
 1000      FFFFFF
 1001 0347 4889C7   		movq	%rax, %rdi
 1002 034a E8000000 		call	_ZN17ScopedCurrentTestD1Ev
 1002      00
 1003 034f 4889D8   		movq	%rbx, %rax
 1004 0352 4889C7   		movq	%rax, %rdi
 1005              	.LEHB22:
 1006 0355 E8000000 		call	_Unwind_Resume
 1006      00
 1007              	.LEHE22:
 1008              	.L46:
 1009 035a EB00     		jmp	.L39
 1010              	.L45:
 1011              	.L39:
 1012              	.LBE13:
  31:TestTimeConstraint.cpp **** }
 1013              		.loc 6 31 0
 1014 035c 4889C7   		movq	%rax, %rdi
 1015 035f E8000000 		call	__cxa_begin_catch
 1015      00
 1016              	.LEHB23:
 1017 0364 E8000000 		call	_ZN8UnitTest11CurrentTest7DetailsEv
 1017      00
 1018 0369 488B08   		movq	(%rax), %rcx
 1019 036c 488D45C0 		leaq	-64(%rbp), %rax
 1020 0370 BA1F0000 		movl	$31, %edx
 1020      00
 1021 0375 4889CE   		movq	%rcx, %rsi
 1022 0378 4889C7   		movq	%rax, %rdi
 1023 037b E8000000 		call	_ZN8UnitTest11TestDetailsC1ERKS0_i
 1023      00
  31:TestTimeConstraint.cpp **** }
 1024              		.loc 6 31 0 is_stmt 0 discriminator 12
 1025 0380 E8000000 		call	_ZN8UnitTest11CurrentTest7ResultsEv
 1025      00
 1026 0385 488B00   		movq	(%rax), %rax
 1027 0388 488D4DC0 		leaq	-64(%rbp), %rcx
 1028 038c BA000000 		movl	$.LC7, %edx
 1028      00
 1029 0391 4889CE   		movq	%rcx, %rsi
 1030 0394 4889C7   		movq	%rax, %rdi
 1031 0397 E8000000 		call	_ZN8UnitTest11TestResults13OnTestFailureERKNS_11TestDetailsEPKc
 1031      00
 1032              	.LEHE23:
 1033              	.LEHB24:
  31:TestTimeConstraint.cpp **** }
 1034              		.loc 6 31 0 discriminator 16
 1035 039c E8000000 		call	__cxa_end_catch
 1035      00
 1036              	.LEHE24:
 1037              		.loc 6 32 0 is_stmt 1 discriminator 16
 1038 03a1 EB13     		jmp	.L35
 1039              	.L47:
 1040 03a3 4889C3   		movq	%rax, %rbx
  31:TestTimeConstraint.cpp **** }
 1041              		.loc 6 31 0
 1042 03a6 E8000000 		call	__cxa_end_catch
 1042      00
 1043 03ab 4889D8   		movq	%rbx, %rax
 1044 03ae 4889C7   		movq	%rax, %rdi
 1045              	.LEHB25:
 1046 03b1 E8000000 		call	_Unwind_Resume
 1046      00
 1047              	.LEHE25:
 1048              	.L35:
 1049              		.loc 6 32 0
 1050 03b6 488B45E8 		movq	-24(%rbp), %rax
 1051 03ba 64483304 		xorq	%fs:40, %rax
 1051      25280000 
 1051      00
 1052 03c3 7405     		je	.L42
 1053 03c5 E8000000 		call	__stack_chk_fail
 1053      00
 1054              	.L42:
 1055 03ca 4881C498 		addq	$152, %rsp
 1055      000000
 1056 03d1 5B       		popq	%rbx
 1057 03d2 5D       		popq	%rbp
 1058              		.cfi_def_cfa 7, 8
 1059 03d3 C3       		ret
 1060              		.cfi_endproc
 1061              	.LFE1095:
 1062              		.section	.gcc_except_table
 1063              		.align 4
 1064              	.LLSDA1095:
 1065 0048 FF       		.byte	0xff
 1066 0049 03       		.byte	0x3
 1067 004a 45       		.uleb128 .LLSDATT1095-.LLSDATTD1095
 1068              	.LLSDATTD1095:
 1069 004b 01       		.byte	0x1
 1070 004c 3B       		.uleb128 .LLSDACSE1095-.LLSDACSB1095
 1071              	.LLSDACSB1095:
 1072 004d 2E       		.uleb128 .LEHB15-.LFB1095
 1073 004e 20       		.uleb128 .LEHE15-.LEHB15
 1074 004f 00       		.uleb128 0
 1075 0050 00       		.uleb128 0
 1076 0051 6A       		.uleb128 .LEHB16-.LFB1095
 1077 0052 1A       		.uleb128 .LEHE16-.LEHB16
 1078 0053 9302     		.uleb128 .L43-.LFB1095
 1079 0055 00       		.uleb128 0
 1080 0056 8901     		.uleb128 .LEHB17-.LFB1095
 1081 0058 05       		.uleb128 .LEHE17-.LEHB17
 1082 0059 8202     		.uleb128 .L44-.LFB1095
 1083 005b 00       		.uleb128 0
 1084 005c 9501     		.uleb128 .LEHB18-.LFB1095
 1085 005e 05       		.uleb128 .LEHE18-.LEHB18
 1086 005f 9302     		.uleb128 .L43-.LFB1095
 1087 0061 00       		.uleb128 0
 1088 0062 A401     		.uleb128 .LEHB19-.LFB1095
 1089 0064 05       		.uleb128 .LEHE19-.LEHB19
 1090 0065 00       		.uleb128 0
 1091 0066 00       		.uleb128 0
 1092 0067 A901     		.uleb128 .LEHB20-.LFB1095
 1093 0069 28       		.uleb128 .LEHE20-.LEHB20
 1094 006a B202     		.uleb128 .L45-.LFB1095
 1095 006c 01       		.uleb128 0x1
 1096 006d DE01     		.uleb128 .LEHB21-.LFB1095
 1097 006f 1F       		.uleb128 .LEHE21-.LEHB21
 1098 0070 B002     		.uleb128 .L46-.LFB1095
 1099 0072 03       		.uleb128 0x3
 1100 0073 AB02     		.uleb128 .LEHB22-.LFB1095
 1101 0075 05       		.uleb128 .LEHE22-.LEHB22
 1102 0076 00       		.uleb128 0
 1103 0077 00       		.uleb128 0
 1104 0078 BA02     		.uleb128 .LEHB23-.LFB1095
 1105 007a 38       		.uleb128 .LEHE23-.LEHB23
 1106 007b F902     		.uleb128 .L47-.LFB1095
 1107 007d 00       		.uleb128 0
 1108 007e F202     		.uleb128 .LEHB24-.LFB1095
 1109 0080 05       		.uleb128 .LEHE24-.LEHB24
 1110 0081 00       		.uleb128 0
 1111 0082 00       		.uleb128 0
 1112 0083 8703     		.uleb128 .LEHB25-.LFB1095
 1113 0085 05       		.uleb128 .LEHE25-.LEHB25
 1114 0086 00       		.uleb128 0
 1115 0087 00       		.uleb128 0
 1116              	.LLSDACSE1095:
 1117 0088 01       		.byte	0x1
 1118 0089 00       		.byte	0
 1119 008a 00       		.byte	0
 1120 008b 7D       		.byte	0x7d
 1121              		.align 4
 1122 008c 00000000 		.long	0
 1123              	
 1124              	.LLSDATT1095:
 1125              		.text
 1127              		.section	.rodata
 1128              		.align 8
 1129              	.LC8:
 1130 00f0 54696D65 		.string	"TimeConstraintFailureIncludesCorrectData"
 1130      436F6E73 
 1130      74726169 
 1130      6E744661 
 1130      696C7572 
 1131              		.text
 1132              		.align 2
 1134              	_ZN12_GLOBAL__N_144TestTimeConstraintFailureIncludesCorrectDataC2Ev:
 1135              	.LFB1097:
  33:TestTimeConstraint.cpp **** 
  34:TestTimeConstraint.cpp **** TEST(TimeConstraintFailureIncludesCorrectData)
 1136              		.loc 6 34 0
 1137              		.cfi_startproc
 1138 03d4 55       		pushq	%rbp
 1139              		.cfi_def_cfa_offset 16
 1140              		.cfi_offset 6, -16
 1141 03d5 4889E5   		movq	%rsp, %rbp
 1142              		.cfi_def_cfa_register 6
 1143 03d8 4883EC10 		subq	$16, %rsp
 1144 03dc 48897DF8 		movq	%rdi, -8(%rbp)
 1145              	.LBB14:
 1146              		.loc 6 34 0
 1147 03e0 E8000000 		call	_ZN13UnitTestSuite12GetSuiteNameEv
 1147      00
 1148 03e5 4889C2   		movq	%rax, %rdx
 1149 03e8 488B45F8 		movq	-8(%rbp), %rax
 1150 03ec 41B82200 		movl	$34, %r8d
 1150      0000
 1151 03f2 B9000000 		movl	$.LC2, %ecx
 1151      00
 1152 03f7 BE000000 		movl	$.LC8, %esi
 1152      00
 1153 03fc 4889C7   		movq	%rax, %rdi
 1154 03ff E8000000 		call	_ZN8UnitTest4TestC2EPKcS2_S2_i
 1154      00
 1155 0404 BA000000 		movl	$_ZTVN12_GLOBAL__N_144TestTimeConstraintFailureIncludesCorrectDataE+16, %edx
 1155      00
 1156 0409 488B45F8 		movq	-8(%rbp), %rax
 1157 040d 488910   		movq	%rdx, (%rax)
 1158              	.LBE14:
 1159 0410 90       		nop
 1160 0411 C9       		leave
 1161              		.cfi_def_cfa 7, 8
 1162 0412 C3       		ret
 1163              		.cfi_endproc
 1164              	.LFE1097:
 1166              		.set	_ZN12_GLOBAL__N_144TestTimeConstraintFailureIncludesCorrectDataC1Ev,_ZN12_GLOBAL__N_144TestTi
 1167              		.local	_ZN12_GLOBAL__N_152testTimeConstraintFailureIncludesCorrectDataInstanceE
 1168              		.comm	_ZN12_GLOBAL__N_152testTimeConstraintFailureIncludesCorrectDataInstanceE,56,32
 1169              		.local	_ZN12_GLOBAL__N_145adderTimeConstraintFailureIncludesCorrectDataE
 1170              		.comm	_ZN12_GLOBAL__N_145adderTimeConstraintFailureIncludesCorrectDataE,1,1
 1171              		.section	.rodata
 1172              	.LC9:
 1173 0119 66696C65 		.string	"filename"
 1173      6E616D65 
 1173      00
 1174              	.LC10:
 1175 0122 73756974 		.string	"suitename"
 1175      656E616D 
 1175      6500
 1176              	.LC11:
 1177 012c 74657374 		.string	"testname"
 1177      6E616D65 
 1177      00
 1178 0135 000000   		.align 8
 1179              	.LC12:
 1180 0138 73747273 		.string	"strstr(reporter.lastFailedFile, \"filename\")"
 1180      74722872 
 1180      65706F72 
 1180      7465722E 
 1180      6C617374 
 1181 0164 00000000 		.align 8
 1182              	.LC13:
 1183 0168 73747273 		.string	"strstr(reporter.lastFailedTest, \"testname\")"
 1183      74722872 
 1183      65706F72 
 1183      7465722E 
 1183      6C617374 
 1184 0194 00000000 		.align 8
 1185              	.LC14:
 1186 0198 556E6861 		.string	"Unhandled exception in CHECK(strstr(reporter.lastFailedFile, \"filename\"))"
 1186      6E646C65 
 1186      64206578 
 1186      63657074 
 1186      696F6E20 
 1187 01e2 00000000 		.align 8
 1187      0000
 1188              	.LC15:
 1189 01e8 556E6861 		.string	"Unhandled exception in CHECK_EQUAL(10, reporter.lastFailedLine)"
 1189      6E646C65 
 1189      64206578 
 1189      63657074 
 1189      696F6E20 
 1190              		.align 8
 1191              	.LC16:
 1192 0228 556E6861 		.string	"Unhandled exception in CHECK(strstr(reporter.lastFailedTest, \"testname\"))"
 1192      6E646C65 
 1192      64206578 
 1192      63657074 
 1192      696F6E20 
 1193              		.text
 1194 0413 90       		.align 2
 1196              	_ZNK12_GLOBAL__N_144TestTimeConstraintFailureIncludesCorrectData7RunImplEv:
 1197              	.LFB1099:
  35:TestTimeConstraint.cpp **** {
 1198              		.loc 6 35 0
 1199              		.cfi_startproc
 1200              		.cfi_personality 0x3,__gxx_personality_v0
 1201              		.cfi_lsda 0x3,.LLSDA1099
 1202 0414 55       		pushq	%rbp
 1203              		.cfi_def_cfa_offset 16
 1204              		.cfi_offset 6, -16
 1205 0415 4889E5   		movq	%rsp, %rbp
 1206              		.cfi_def_cfa_register 6
 1207 0418 53       		pushq	%rbx
 1208 0419 4881ECC8 		subq	$2248, %rsp
 1208      080000
 1209              		.cfi_offset 3, -24
 1210 0420 4889BD38 		movq	%rdi, -2248(%rbp)
 1210      F7FFFF
 1211              		.loc 6 35 0
 1212 0427 64488B04 		movq	%fs:40, %rax
 1212      25280000 
 1212      00
 1213 0430 488945E8 		movq	%rax, -24(%rbp)
 1214 0434 31C0     		xorl	%eax, %eax
  36:TestTimeConstraint.cpp ****     RecordingReporter reporter;
 1215              		.loc 6 36 0
 1216 0436 488D85B0 		leaq	-2128(%rbp), %rax
 1216      F7FFFF
 1217 043d 4889C7   		movq	%rax, %rdi
 1218 0440 E8000000 		call	_ZN17RecordingReporterC1Ev
 1218      00
  37:TestTimeConstraint.cpp ****     TestResults result(&reporter);
 1219              		.loc 6 37 0
 1220 0445 488D95B0 		leaq	-2128(%rbp), %rdx
 1220      F7FFFF
 1221 044c 488D8550 		leaq	-2224(%rbp), %rax
 1221      F7FFFF
 1222 0453 4889D6   		movq	%rdx, %rsi
 1223 0456 4889C7   		movq	%rax, %rdi
 1224              	.LEHB26:
 1225 0459 E8000000 		call	_ZN8UnitTest11TestResultsC1EPNS_12TestReporterE
 1225      00
 1226              	.LBB15:
  38:TestTimeConstraint.cpp ****     {
  39:TestTimeConstraint.cpp **** 		ScopedCurrentTest scopedResult(result);
 1227              		.loc 6 39 0
 1228 045e 488D8D50 		leaq	-2224(%rbp), %rcx
 1228      F7FFFF
 1229 0465 488D8540 		leaq	-2240(%rbp), %rax
 1229      F7FFFF
 1230 046c BA000000 		movl	$0, %edx
 1230      00
 1231 0471 4889CE   		movq	%rcx, %rsi
 1232 0474 4889C7   		movq	%rax, %rdi
 1233 0477 E8000000 		call	_ZN17ScopedCurrentTestC1ERN8UnitTest11TestResultsEPKNS0_11TestDetailsE
 1233      00
 1234              	.LEHE26:
  40:TestTimeConstraint.cpp **** 
  41:TestTimeConstraint.cpp **** 		TestDetails const details("testname", "suitename", "filename", 10);
 1235              		.loc 6 41 0
 1236 047c 488D8570 		leaq	-2192(%rbp), %rax
 1236      F7FFFF
 1237 0483 41B80A00 		movl	$10, %r8d
 1237      0000
 1238 0489 B9000000 		movl	$.LC9, %ecx
 1238      00
 1239 048e BA000000 		movl	$.LC10, %edx
 1239      00
 1240 0493 BE000000 		movl	$.LC11, %esi
 1240      00
 1241 0498 4889C7   		movq	%rax, %rdi
 1242              	.LEHB27:
 1243 049b E8000000 		call	_ZN8UnitTest11TestDetailsC1EPKcS2_S2_i
 1243      00
  42:TestTimeConstraint.cpp ****         TimeConstraint t(10, details);
 1244              		.loc 6 42 0
 1245 04a0 488D9570 		leaq	-2192(%rbp), %rdx
 1245      F7FFFF
 1246 04a7 488D8590 		leaq	-2160(%rbp), %rax
 1246      F7FFFF
 1247 04ae BE0A0000 		movl	$10, %esi
 1247      00
 1248 04b3 4889C7   		movq	%rax, %rdi
 1249 04b6 E8000000 		call	_ZN8UnitTest14TimeConstraintC1EiRKNS_11TestDetailsE
 1249      00
 1250              	.LEHE27:
  43:TestTimeConstraint.cpp ****         TimeHelpers::SleepMs(20);
 1251              		.loc 6 43 0
 1252 04bb BF140000 		movl	$20, %edi
 1252      00
 1253              	.LEHB28:
 1254 04c0 E8000000 		call	_ZN8UnitTest11TimeHelpers7SleepMsEi
 1254      00
 1255              	.LEHE28:
  42:TestTimeConstraint.cpp ****         TimeConstraint t(10, details);
 1256              		.loc 6 42 0
 1257 04c5 488D8590 		leaq	-2160(%rbp), %rax
 1257      F7FFFF
 1258 04cc 4889C7   		movq	%rax, %rdi
 1259              	.LEHB29:
 1260 04cf E8000000 		call	_ZN8UnitTest14TimeConstraintD1Ev
 1260      00
 1261              	.LEHE29:
  39:TestTimeConstraint.cpp **** 
 1262              		.loc 6 39 0
 1263 04d4 488D8540 		leaq	-2240(%rbp), %rax
 1263      F7FFFF
 1264 04db 4889C7   		movq	%rax, %rdi
 1265              	.LEHB30:
 1266 04de E8000000 		call	_ZN17ScopedCurrentTestD1Ev
 1266      00
 1267              	.LEHE30:
 1268              	.LBE15:
  44:TestTimeConstraint.cpp ****     }
  45:TestTimeConstraint.cpp **** 
  46:TestTimeConstraint.cpp **** 	using namespace std;
  47:TestTimeConstraint.cpp **** 
  48:TestTimeConstraint.cpp **** 	CHECK(strstr(reporter.lastFailedFile, "filename"));
 1269              		.loc 6 48 0
 1270 04e3 488D85B0 		leaq	-2128(%rbp), %rax
 1270      F7FFFF
 1271 04ea 48051002 		addq	$528, %rax
 1271      0000
 1272 04f0 BE000000 		movl	$.LC9, %esi
 1272      00
 1273 04f5 4889C7   		movq	%rax, %rdi
 1274 04f8 E8000000 		call	strstr
 1274      00
 1275 04fd 4889C7   		movq	%rax, %rdi
 1276 0500 E8000000 		call	_ZN8UnitTest5CheckIPcEEbT_
 1276      00
 1277 0505 83F001   		xorl	$1, %eax
 1278 0508 84C0     		testb	%al, %al
 1279 050a 743E     		je	.L50
 1280              	.LEHB31:
 1281              		.loc 6 48 0 is_stmt 0 discriminator 1
 1282 050c E8000000 		call	_ZN8UnitTest11CurrentTest7DetailsEv
 1282      00
 1283 0511 488B08   		movq	(%rax), %rcx
 1284 0514 488D8590 		leaq	-2160(%rbp), %rax
 1284      F7FFFF
 1285 051b BA300000 		movl	$48, %edx
 1285      00
 1286 0520 4889CE   		movq	%rcx, %rsi
 1287 0523 4889C7   		movq	%rax, %rdi
 1288 0526 E8000000 		call	_ZN8UnitTest11TestDetailsC1ERKS0_i
 1288      00
 1289              		.loc 6 48 0 discriminator 3
 1290 052b E8000000 		call	_ZN8UnitTest11CurrentTest7ResultsEv
 1290      00
 1291 0530 488B00   		movq	(%rax), %rax
 1292 0533 488D8D90 		leaq	-2160(%rbp), %rcx
 1292      F7FFFF
 1293 053a BA000000 		movl	$.LC12, %edx
 1293      00
 1294 053f 4889CE   		movq	%rcx, %rsi
 1295 0542 4889C7   		movq	%rax, %rdi
 1296 0545 E8000000 		call	_ZN8UnitTest11TestResults13OnTestFailureERKNS_11TestDetailsEPKc
 1296      00
 1297              	.LEHE31:
 1298              	.L50:
 1299              	.LEHB32:
  49:TestTimeConstraint.cpp ****     CHECK_EQUAL(10, reporter.lastFailedLine);
 1300              		.loc 6 49 0 is_stmt 1
 1301 054a E8000000 		call	_ZN8UnitTest11CurrentTest7DetailsEv
 1301      00
 1302 054f 488B08   		movq	(%rax), %rcx
 1303 0552 488D8590 		leaq	-2160(%rbp), %rax
 1303      F7FFFF
 1304 0559 BA310000 		movl	$49, %edx
 1304      00
 1305 055e 4889CE   		movq	%rcx, %rsi
 1306 0561 4889C7   		movq	%rax, %rdi
 1307 0564 E8000000 		call	_ZN8UnitTest11TestDetailsC1ERKS0_i
 1307      00
 1308              	.LEHE32:
 1309              		.loc 6 49 0 is_stmt 0 discriminator 2
 1310 0569 C78570F7 		movl	$10, -2192(%rbp)
 1310      FFFF0A00 
 1310      0000
 1311              	.LEHB33:
 1312 0573 E8000000 		call	_ZN8UnitTest11CurrentTest7ResultsEv
 1312      00
 1313 0578 488B00   		movq	(%rax), %rax
 1314 057b 488D9590 		leaq	-2160(%rbp), %rdx
 1314      F7FFFF
 1315 0582 488D8DB0 		leaq	-2128(%rbp), %rcx
 1315      F7FFFF
 1316 0589 488DB910 		leaq	784(%rcx), %rdi
 1316      030000
 1317 0590 488DB570 		leaq	-2192(%rbp), %rsi
 1317      F7FFFF
 1318 0597 4889D1   		movq	%rdx, %rcx
 1319 059a 4889FA   		movq	%rdi, %rdx
 1320 059d 4889C7   		movq	%rax, %rdi
 1321 05a0 E8000000 		call	_ZN8UnitTest10CheckEqualIiiEEvRNS_11TestResultsERKT_RKT0_RKNS_11TestDetailsE
 1321      00
 1322              	.LEHE33:
 1323              	.L59:
  50:TestTimeConstraint.cpp ****     CHECK(strstr(reporter.lastFailedTest, "testname"));
 1324              		.loc 6 50 0 is_stmt 1
 1325 05a5 488D85B0 		leaq	-2128(%rbp), %rax
 1325      F7FFFF
 1326 05ac 48051404 		addq	$1044, %rax
 1326      0000
 1327 05b2 BE000000 		movl	$.LC11, %esi
 1327      00
 1328 05b7 4889C7   		movq	%rax, %rdi
 1329 05ba E8000000 		call	strstr
 1329      00
 1330 05bf 4889C7   		movq	%rax, %rdi
 1331 05c2 E8000000 		call	_ZN8UnitTest5CheckIPcEEbT_
 1331      00
 1332 05c7 83F001   		xorl	$1, %eax
 1333 05ca 84C0     		testb	%al, %al
 1334 05cc 743E     		je	.L51
 1335              	.LEHB34:
 1336              		.loc 6 50 0 is_stmt 0 discriminator 1
 1337 05ce E8000000 		call	_ZN8UnitTest11CurrentTest7DetailsEv
 1337      00
 1338 05d3 488B08   		movq	(%rax), %rcx
 1339 05d6 488D8590 		leaq	-2160(%rbp), %rax
 1339      F7FFFF
 1340 05dd BA320000 		movl	$50, %edx
 1340      00
 1341 05e2 4889CE   		movq	%rcx, %rsi
 1342 05e5 4889C7   		movq	%rax, %rdi
 1343 05e8 E8000000 		call	_ZN8UnitTest11TestDetailsC1ERKS0_i
 1343      00
 1344              		.loc 6 50 0 discriminator 3
 1345 05ed E8000000 		call	_ZN8UnitTest11CurrentTest7ResultsEv
 1345      00
 1346 05f2 488B00   		movq	(%rax), %rax
 1347 05f5 488D8D90 		leaq	-2160(%rbp), %rcx
 1347      F7FFFF
 1348 05fc BA000000 		movl	$.LC13, %edx
 1348      00
 1349 0601 4889CE   		movq	%rcx, %rsi
 1350 0604 4889C7   		movq	%rax, %rdi
 1351 0607 E8000000 		call	_ZN8UnitTest11TestResults13OnTestFailureERKNS_11TestDetailsEPKc
 1351      00
 1352              	.LEHE34:
 1353              	.L51:
  36:TestTimeConstraint.cpp ****     TestResults result(&reporter);
 1354              		.loc 6 36 0 is_stmt 1
 1355 060c 488D85B0 		leaq	-2128(%rbp), %rax
 1355      F7FFFF
 1356 0613 4889C7   		movq	%rax, %rdi
 1357              	.LEHB35:
 1358 0616 E8000000 		call	_ZN17RecordingReporterD1Ev
 1358      00
 1359              	.LEHE35:
  51:TestTimeConstraint.cpp **** }
 1360              		.loc 6 51 0
 1361 061b 90       		nop
 1362 061c 488B45E8 		movq	-24(%rbp), %rax
 1363 0620 64483304 		xorq	%fs:40, %rax
 1363      25280000 
 1363      00
 1364 0629 0F846501 		je	.L63
 1364      0000
 1365 062f E95B0100 		jmp	.L74
 1365      00
 1366              	.L66:
 1367 0634 4889C3   		movq	%rax, %rbx
 1368              	.LBB16:
  42:TestTimeConstraint.cpp ****         TimeHelpers::SleepMs(20);
 1369              		.loc 6 42 0
 1370 0637 488D8590 		leaq	-2160(%rbp), %rax
 1370      F7FFFF
 1371 063e 4889C7   		movq	%rax, %rdi
 1372 0641 E8000000 		call	_ZN8UnitTest14TimeConstraintD1Ev
 1372      00
 1373 0646 EB03     		jmp	.L53
 1374              	.L65:
 1375 0648 4889C3   		movq	%rax, %rbx
 1376              	.L53:
  39:TestTimeConstraint.cpp **** 
 1377              		.loc 6 39 0
 1378 064b 488D8540 		leaq	-2240(%rbp), %rax
 1378      F7FFFF
 1379 0652 4889C7   		movq	%rax, %rdi
 1380 0655 E8000000 		call	_ZN17ScopedCurrentTestD1Ev
 1380      00
 1381 065a E9160100 		jmp	.L54
 1381      00
 1382              	.L67:
 1383              	.LBE16:
  48:TestTimeConstraint.cpp ****     CHECK_EQUAL(10, reporter.lastFailedLine);
 1384              		.loc 6 48 0
 1385 065f 4889C7   		movq	%rax, %rdi
 1386 0662 E8000000 		call	__cxa_begin_catch
 1386      00
 1387              	.LEHB36:
 1388 0667 E8000000 		call	_ZN8UnitTest11CurrentTest7DetailsEv
 1388      00
 1389 066c 488B08   		movq	(%rax), %rcx
 1390 066f 488D8590 		leaq	-2160(%rbp), %rax
 1390      F7FFFF
 1391 0676 BA300000 		movl	$48, %edx
 1391      00
 1392 067b 4889CE   		movq	%rcx, %rsi
 1393 067e 4889C7   		movq	%rax, %rdi
 1394 0681 E8000000 		call	_ZN8UnitTest11TestDetailsC1ERKS0_i
 1394      00
  48:TestTimeConstraint.cpp ****     CHECK_EQUAL(10, reporter.lastFailedLine);
 1395              		.loc 6 48 0 is_stmt 0 discriminator 11
 1396 0686 E8000000 		call	_ZN8UnitTest11CurrentTest7ResultsEv
 1396      00
 1397 068b 488B00   		movq	(%rax), %rax
 1398 068e 488D8D90 		leaq	-2160(%rbp), %rcx
 1398      F7FFFF
 1399 0695 BA000000 		movl	$.LC14, %edx
 1399      00
 1400 069a 4889CE   		movq	%rcx, %rsi
 1401 069d 4889C7   		movq	%rax, %rdi
 1402 06a0 E8000000 		call	_ZN8UnitTest11TestResults13OnTestFailureERKNS_11TestDetailsEPKc
 1402      00
 1403              	.LEHE36:
 1404              	.LEHB37:
  48:TestTimeConstraint.cpp ****     CHECK_EQUAL(10, reporter.lastFailedLine);
 1405              		.loc 6 48 0 discriminator 15
 1406 06a5 E8000000 		call	__cxa_end_catch
 1406      00
 1407              	.LEHE37:
  48:TestTimeConstraint.cpp ****     CHECK_EQUAL(10, reporter.lastFailedLine);
 1408              		.loc 6 48 0
 1409 06aa E99BFEFF 		jmp	.L50
 1409      FF
 1410              	.L68:
 1411 06af 4889C3   		movq	%rax, %rbx
 1412 06b2 E8000000 		call	__cxa_end_catch
 1412      00
 1413 06b7 E9B90000 		jmp	.L54
 1413      00
 1414              	.L70:
 1415 06bc EB00     		jmp	.L58
 1416              	.L69:
 1417              	.L58:
  49:TestTimeConstraint.cpp ****     CHECK(strstr(reporter.lastFailedTest, "testname"));
 1418              		.loc 6 49 0 is_stmt 1
 1419 06be 4889C7   		movq	%rax, %rdi
 1420 06c1 E8000000 		call	__cxa_begin_catch
 1420      00
 1421              	.LEHB38:
 1422 06c6 E8000000 		call	_ZN8UnitTest11CurrentTest7DetailsEv
 1422      00
 1423 06cb 488B08   		movq	(%rax), %rcx
 1424 06ce 488D8590 		leaq	-2160(%rbp), %rax
 1424      F7FFFF
 1425 06d5 BA310000 		movl	$49, %edx
 1425      00
 1426 06da 4889CE   		movq	%rcx, %rsi
 1427 06dd 4889C7   		movq	%rax, %rdi
 1428 06e0 E8000000 		call	_ZN8UnitTest11TestDetailsC1ERKS0_i
 1428      00
  49:TestTimeConstraint.cpp ****     CHECK(strstr(reporter.lastFailedTest, "testname"));
 1429              		.loc 6 49 0 is_stmt 0 discriminator 10
 1430 06e5 E8000000 		call	_ZN8UnitTest11CurrentTest7ResultsEv
 1430      00
 1431 06ea 488B00   		movq	(%rax), %rax
 1432 06ed 488D8D90 		leaq	-2160(%rbp), %rcx
 1432      F7FFFF
 1433 06f4 BA000000 		movl	$.LC15, %edx
 1433      00
 1434 06f9 4889CE   		movq	%rcx, %rsi
 1435 06fc 4889C7   		movq	%rax, %rdi
 1436 06ff E8000000 		call	_ZN8UnitTest11TestResults13OnTestFailureERKNS_11TestDetailsEPKc
 1436      00
 1437              	.LEHE38:
 1438              	.LEHB39:
  49:TestTimeConstraint.cpp ****     CHECK(strstr(reporter.lastFailedTest, "testname"));
 1439              		.loc 6 49 0 discriminator 14
 1440 0704 E8000000 		call	__cxa_end_catch
 1440      00
 1441              	.LEHE39:
  49:TestTimeConstraint.cpp ****     CHECK(strstr(reporter.lastFailedTest, "testname"));
 1442              		.loc 6 49 0
 1443 0709 E997FEFF 		jmp	.L59
 1443      FF
 1444              	.L71:
 1445 070e 4889C3   		movq	%rax, %rbx
 1446 0711 E8000000 		call	__cxa_end_catch
 1446      00
 1447 0716 EB5D     		jmp	.L54
 1448              	.L72:
  50:TestTimeConstraint.cpp **** }
 1449              		.loc 6 50 0 is_stmt 1
 1450 0718 4889C7   		movq	%rax, %rdi
 1451 071b E8000000 		call	__cxa_begin_catch
 1451      00
 1452              	.LEHB40:
 1453 0720 E8000000 		call	_ZN8UnitTest11CurrentTest7DetailsEv
 1453      00
 1454 0725 488B08   		movq	(%rax), %rcx
 1455 0728 488D8590 		leaq	-2160(%rbp), %rax
 1455      F7FFFF
 1456 072f BA320000 		movl	$50, %edx
 1456      00
 1457 0734 4889CE   		movq	%rcx, %rsi
 1458 0737 4889C7   		movq	%rax, %rdi
 1459 073a E8000000 		call	_ZN8UnitTest11TestDetailsC1ERKS0_i
 1459      00
  50:TestTimeConstraint.cpp **** }
 1460              		.loc 6 50 0 is_stmt 0 discriminator 11
 1461 073f E8000000 		call	_ZN8UnitTest11CurrentTest7ResultsEv
 1461      00
 1462 0744 488B00   		movq	(%rax), %rax
 1463 0747 488D8D90 		leaq	-2160(%rbp), %rcx
 1463      F7FFFF
 1464 074e BA000000 		movl	$.LC16, %edx
 1464      00
 1465 0753 4889CE   		movq	%rcx, %rsi
 1466 0756 4889C7   		movq	%rax, %rdi
 1467 0759 E8000000 		call	_ZN8UnitTest11TestResults13OnTestFailureERKNS_11TestDetailsEPKc
 1467      00
 1468              	.LEHE40:
 1469              	.LEHB41:
  50:TestTimeConstraint.cpp **** }
 1470              		.loc 6 50 0 discriminator 15
 1471 075e E8000000 		call	__cxa_end_catch
 1471      00
 1472              	.LEHE41:
  50:TestTimeConstraint.cpp **** }
 1473              		.loc 6 50 0
 1474 0763 E9A4FEFF 		jmp	.L51
 1474      FF
 1475              	.L73:
 1476 0768 4889C3   		movq	%rax, %rbx
 1477 076b E8000000 		call	__cxa_end_catch
 1477      00
 1478 0770 EB03     		jmp	.L54
 1479              	.L64:
 1480 0772 4889C3   		movq	%rax, %rbx
 1481              	.L54:
  36:TestTimeConstraint.cpp ****     TestResults result(&reporter);
 1482              		.loc 6 36 0 is_stmt 1
 1483 0775 488D85B0 		leaq	-2128(%rbp), %rax
 1483      F7FFFF
 1484 077c 4889C7   		movq	%rax, %rdi
 1485 077f E8000000 		call	_ZN17RecordingReporterD1Ev
 1485      00
 1486 0784 4889D8   		movq	%rbx, %rax
 1487 0787 4889C7   		movq	%rax, %rdi
 1488              	.LEHB42:
 1489 078a E8000000 		call	_Unwind_Resume
 1489      00
 1490              	.LEHE42:
 1491              	.L74:
 1492              		.loc 6 51 0
 1493 078f E8000000 		call	__stack_chk_fail
 1493      00
 1494              	.L63:
 1495 0794 4881C4C8 		addq	$2248, %rsp
 1495      080000
 1496 079b 5B       		popq	%rbx
 1497 079c 5D       		popq	%rbp
 1498              		.cfi_def_cfa 7, 8
 1499 079d C3       		ret
 1500              		.cfi_endproc
 1501              	.LFE1099:
 1502              		.section	.gcc_except_table
 1503              		.align 4
 1504              	.LLSDA1099:
 1505 0090 FF       		.byte	0xff
 1506 0091 03       		.byte	0x3
 1507 0092 6D       		.uleb128 .LLSDATT1099-.LLSDATTD1099
 1508              	.LLSDATTD1099:
 1509 0093 01       		.byte	0x1
 1510 0094 63       		.uleb128 .LLSDACSE1099-.LLSDACSB1099
 1511              	.LLSDACSB1099:
 1512 0095 45       		.uleb128 .LEHB26-.LFB1099
 1513 0096 23       		.uleb128 .LEHE26-.LEHB26
 1514 0097 DE06     		.uleb128 .L64-.LFB1099
 1515 0099 00       		.uleb128 0
 1516 009a 8701     		.uleb128 .LEHB27-.LFB1099
 1517 009c 20       		.uleb128 .LEHE27-.LEHB27
 1518 009d B404     		.uleb128 .L65-.LFB1099
 1519 009f 00       		.uleb128 0
 1520 00a0 AC01     		.uleb128 .LEHB28-.LFB1099
 1521 00a2 05       		.uleb128 .LEHE28-.LEHB28
 1522 00a3 A004     		.uleb128 .L66-.LFB1099
 1523 00a5 00       		.uleb128 0
 1524 00a6 BB01     		.uleb128 .LEHB29-.LFB1099
 1525 00a8 05       		.uleb128 .LEHE29-.LEHB29
 1526 00a9 B404     		.uleb128 .L65-.LFB1099
 1527 00ab 00       		.uleb128 0
 1528 00ac CA01     		.uleb128 .LEHB30-.LFB1099
 1529 00ae 05       		.uleb128 .LEHE30-.LEHB30
 1530 00af DE06     		.uleb128 .L64-.LFB1099
 1531 00b1 00       		.uleb128 0
 1532 00b2 F801     		.uleb128 .LEHB31-.LFB1099
 1533 00b4 3E       		.uleb128 .LEHE31-.LEHB31
 1534 00b5 CB04     		.uleb128 .L67-.LFB1099
 1535 00b7 01       		.uleb128 0x1
 1536 00b8 B602     		.uleb128 .LEHB32-.LFB1099
 1537 00ba 1F       		.uleb128 .LEHE32-.LEHB32
 1538 00bb AA05     		.uleb128 .L69-.LFB1099
 1539 00bd 01       		.uleb128 0x1
 1540 00be DF02     		.uleb128 .LEHB33-.LFB1099
 1541 00c0 32       		.uleb128 .LEHE33-.LEHB33
 1542 00c1 A805     		.uleb128 .L70-.LFB1099
 1543 00c3 01       		.uleb128 0x1
 1544 00c4 BA03     		.uleb128 .LEHB34-.LFB1099
 1545 00c6 3E       		.uleb128 .LEHE34-.LEHB34
 1546 00c7 8406     		.uleb128 .L72-.LFB1099
 1547 00c9 01       		.uleb128 0x1
 1548 00ca 8204     		.uleb128 .LEHB35-.LFB1099
 1549 00cc 05       		.uleb128 .LEHE35-.LEHB35
 1550 00cd 00       		.uleb128 0
 1551 00ce 00       		.uleb128 0
 1552 00cf D304     		.uleb128 .LEHB36-.LFB1099
 1553 00d1 3E       		.uleb128 .LEHE36-.LEHB36
 1554 00d2 9B05     		.uleb128 .L68-.LFB1099
 1555 00d4 00       		.uleb128 0
 1556 00d5 9105     		.uleb128 .LEHB37-.LFB1099
 1557 00d7 05       		.uleb128 .LEHE37-.LEHB37
 1558 00d8 DE06     		.uleb128 .L64-.LFB1099
 1559 00da 00       		.uleb128 0
 1560 00db B205     		.uleb128 .LEHB38-.LFB1099
 1561 00dd 3E       		.uleb128 .LEHE38-.LEHB38
 1562 00de FA05     		.uleb128 .L71-.LFB1099
 1563 00e0 00       		.uleb128 0
 1564 00e1 F005     		.uleb128 .LEHB39-.LFB1099
 1565 00e3 05       		.uleb128 .LEHE39-.LEHB39
 1566 00e4 DE06     		.uleb128 .L64-.LFB1099
 1567 00e6 00       		.uleb128 0
 1568 00e7 8C06     		.uleb128 .LEHB40-.LFB1099
 1569 00e9 3E       		.uleb128 .LEHE40-.LEHB40
 1570 00ea D406     		.uleb128 .L73-.LFB1099
 1571 00ec 00       		.uleb128 0
 1572 00ed CA06     		.uleb128 .LEHB41-.LFB1099
 1573 00ef 05       		.uleb128 .LEHE41-.LEHB41
 1574 00f0 DE06     		.uleb128 .L64-.LFB1099
 1575 00f2 00       		.uleb128 0
 1576 00f3 F606     		.uleb128 .LEHB42-.LFB1099
 1577 00f5 05       		.uleb128 .LEHE42-.LEHB42
 1578 00f6 00       		.uleb128 0
 1579 00f7 00       		.uleb128 0
 1580              	.LLSDACSE1099:
 1581 00f8 01       		.byte	0x1
 1582 00f9 00       		.byte	0
 1583 00fa 0000     		.align 4
 1584 00fc 00000000 		.long	0
 1585              	
 1586              	.LLSDATT1099:
 1587              		.text
 1589              		.section	.rodata
 1590 0272 00000000 		.align 8
 1590      0000
 1591              	.LC17:
 1592 0278 54696D65 		.string	"TimeConstraintFailureIncludesTimeoutInformation"
 1592      436F6E73 
 1592      74726169 
 1592      6E744661 
 1592      696C7572 
 1593              		.text
 1594              		.align 2
 1596              	_ZN12_GLOBAL__N_151TestTimeConstraintFailureIncludesTimeoutInformationC2Ev:
 1597              	.LFB1101:
  52:TestTimeConstraint.cpp **** 
  53:TestTimeConstraint.cpp **** TEST(TimeConstraintFailureIncludesTimeoutInformation)
 1598              		.loc 6 53 0
 1599              		.cfi_startproc
 1600 079e 55       		pushq	%rbp
 1601              		.cfi_def_cfa_offset 16
 1602              		.cfi_offset 6, -16
 1603 079f 4889E5   		movq	%rsp, %rbp
 1604              		.cfi_def_cfa_register 6
 1605 07a2 4883EC10 		subq	$16, %rsp
 1606 07a6 48897DF8 		movq	%rdi, -8(%rbp)
 1607              	.LBB17:
 1608              		.loc 6 53 0
 1609 07aa E8000000 		call	_ZN13UnitTestSuite12GetSuiteNameEv
 1609      00
 1610 07af 4889C2   		movq	%rax, %rdx
 1611 07b2 488B45F8 		movq	-8(%rbp), %rax
 1612 07b6 41B83500 		movl	$53, %r8d
 1612      0000
 1613 07bc B9000000 		movl	$.LC2, %ecx
 1613      00
 1614 07c1 BE000000 		movl	$.LC17, %esi
 1614      00
 1615 07c6 4889C7   		movq	%rax, %rdi
 1616 07c9 E8000000 		call	_ZN8UnitTest4TestC2EPKcS2_S2_i
 1616      00
 1617 07ce BA000000 		movl	$_ZTVN12_GLOBAL__N_151TestTimeConstraintFailureIncludesTimeoutInformationE+16, %edx
 1617      00
 1618 07d3 488B45F8 		movq	-8(%rbp), %rax
 1619 07d7 488910   		movq	%rdx, (%rax)
 1620              	.LBE17:
 1621 07da 90       		nop
 1622 07db C9       		leave
 1623              		.cfi_def_cfa 7, 8
 1624 07dc C3       		ret
 1625              		.cfi_endproc
 1626              	.LFE1101:
 1628              		.set	_ZN12_GLOBAL__N_151TestTimeConstraintFailureIncludesTimeoutInformationC1Ev,_ZN12_GLOBAL__N_15
 1629              		.local	_ZN12_GLOBAL__N_159testTimeConstraintFailureIncludesTimeoutInformationInstanceE
 1630              		.comm	_ZN12_GLOBAL__N_159testTimeConstraintFailureIncludesTimeoutInformationInstanceE,56,32
 1631              		.local	_ZN12_GLOBAL__N_152adderTimeConstraintFailureIncludesTimeoutInformationE
 1632              		.comm	_ZN12_GLOBAL__N_152adderTimeConstraintFailureIncludesTimeoutInformationE,1,1
 1633              		.section	.rodata
 1634              	.LC18:
 1635 02a8 696D6520 		.string	"ime constraint"
 1635      636F6E73 
 1635      74726169 
 1635      6E7400
 1636 02b7 00       		.align 8
 1637              	.LC19:
 1638 02b8 73747273 		.string	"strstr(reporter.lastFailedMessage, \"ime constraint\")"
 1638      74722872 
 1638      65706F72 
 1638      7465722E 
 1638      6C617374 
 1639              	.LC20:
 1640 02ed 756E6465 		.string	"under 10ms"
 1640      72203130 
 1640      6D7300
 1641              		.align 8
 1642              	.LC21:
 1643 02f8 73747273 		.string	"strstr(reporter.lastFailedMessage, \"under 10ms\")"
 1643      74722872 
 1643      65706F72 
 1643      7465722E 
 1643      6C617374 
 1644 0329 00000000 		.align 8
 1644      000000
 1645              	.LC22:
 1646 0330 556E6861 		.string	"Unhandled exception in CHECK(strstr(reporter.lastFailedMessage, \"ime constraint\"))"
 1646      6E646C65 
 1646      64206578 
 1646      63657074 
 1646      696F6E20 
 1647 0383 00000000 		.align 8
 1647      00
 1648              	.LC23:
 1649 0388 556E6861 		.string	"Unhandled exception in CHECK(strstr(reporter.lastFailedMessage, \"under 10ms\"))"
 1649      6E646C65 
 1649      64206578 
 1649      63657074 
 1649      696F6E20 
 1650              		.text
 1651 07dd 90       		.align 2
 1653              	_ZNK12_GLOBAL__N_151TestTimeConstraintFailureIncludesTimeoutInformation7RunImplEv:
 1654              	.LFB1103:
  54:TestTimeConstraint.cpp **** {
 1655              		.loc 6 54 0
 1656              		.cfi_startproc
 1657              		.cfi_personality 0x3,__gxx_personality_v0
 1658              		.cfi_lsda 0x3,.LLSDA1103
 1659 07de 55       		pushq	%rbp
 1660              		.cfi_def_cfa_offset 16
 1661              		.cfi_offset 6, -16
 1662 07df 4889E5   		movq	%rsp, %rbp
 1663              		.cfi_def_cfa_register 6
 1664 07e2 53       		pushq	%rbx
 1665 07e3 4881ECC8 		subq	$2248, %rsp
 1665      080000
 1666              		.cfi_offset 3, -24
 1667 07ea 4889BD38 		movq	%rdi, -2248(%rbp)
 1667      F7FFFF
 1668              		.loc 6 54 0
 1669 07f1 64488B04 		movq	%fs:40, %rax
 1669      25280000 
 1669      00
 1670 07fa 488945E8 		movq	%rax, -24(%rbp)
 1671 07fe 31C0     		xorl	%eax, %eax
  55:TestTimeConstraint.cpp ****     RecordingReporter reporter;
 1672              		.loc 6 55 0
 1673 0800 488D85B0 		leaq	-2128(%rbp), %rax
 1673      F7FFFF
 1674 0807 4889C7   		movq	%rax, %rdi
 1675 080a E8000000 		call	_ZN17RecordingReporterC1Ev
 1675      00
  56:TestTimeConstraint.cpp ****     TestResults result(&reporter);
 1676              		.loc 6 56 0
 1677 080f 488D95B0 		leaq	-2128(%rbp), %rdx
 1677      F7FFFF
 1678 0816 488D8550 		leaq	-2224(%rbp), %rax
 1678      F7FFFF
 1679 081d 4889D6   		movq	%rdx, %rsi
 1680 0820 4889C7   		movq	%rax, %rdi
 1681              	.LEHB43:
 1682 0823 E8000000 		call	_ZN8UnitTest11TestResultsC1EPNS_12TestReporterE
 1682      00
 1683              	.LBB18:
  57:TestTimeConstraint.cpp ****     {
  58:TestTimeConstraint.cpp **** 		ScopedCurrentTest scopedResult(result);
 1684              		.loc 6 58 0
 1685 0828 488D8D50 		leaq	-2224(%rbp), %rcx
 1685      F7FFFF
 1686 082f 488D8540 		leaq	-2240(%rbp), %rax
 1686      F7FFFF
 1687 0836 BA000000 		movl	$0, %edx
 1687      00
 1688 083b 4889CE   		movq	%rcx, %rsi
 1689 083e 4889C7   		movq	%rax, %rdi
 1690 0841 E8000000 		call	_ZN17ScopedCurrentTestC1ERN8UnitTest11TestResultsEPKNS0_11TestDetailsE
 1690      00
 1691              	.LEHE43:
  59:TestTimeConstraint.cpp ****         TimeConstraint t(10, TestDetails("", "", "", 0));
 1692              		.loc 6 59 0
 1693 0846 488D8590 		leaq	-2160(%rbp), %rax
 1693      F7FFFF
 1694 084d 41B80000 		movl	$0, %r8d
 1694      0000
 1695 0853 B9000000 		movl	$.LC4, %ecx
 1695      00
 1696 0858 BA000000 		movl	$.LC4, %edx
 1696      00
 1697 085d BE000000 		movl	$.LC4, %esi
 1697      00
 1698 0862 4889C7   		movq	%rax, %rdi
 1699              	.LEHB44:
 1700 0865 E8000000 		call	_ZN8UnitTest11TestDetailsC1EPKcS2_S2_i
 1700      00
 1701              		.loc 6 59 0 is_stmt 0 discriminator 1
 1702 086a 488D9590 		leaq	-2160(%rbp), %rdx
 1702      F7FFFF
 1703 0871 488D8570 		leaq	-2192(%rbp), %rax
 1703      F7FFFF
 1704 0878 BE0A0000 		movl	$10, %esi
 1704      00
 1705 087d 4889C7   		movq	%rax, %rdi
 1706 0880 E8000000 		call	_ZN8UnitTest14TimeConstraintC1EiRKNS_11TestDetailsE
 1706      00
 1707              	.LEHE44:
  60:TestTimeConstraint.cpp ****         TimeHelpers::SleepMs(20);
 1708              		.loc 6 60 0 is_stmt 1 discriminator 3
 1709 0885 BF140000 		movl	$20, %edi
 1709      00
 1710              	.LEHB45:
 1711 088a E8000000 		call	_ZN8UnitTest11TimeHelpers7SleepMsEi
 1711      00
 1712              	.LEHE45:
  59:TestTimeConstraint.cpp ****         TimeConstraint t(10, TestDetails("", "", "", 0));
 1713              		.loc 6 59 0
 1714 088f 488D8570 		leaq	-2192(%rbp), %rax
 1714      F7FFFF
 1715 0896 4889C7   		movq	%rax, %rdi
 1716              	.LEHB46:
 1717 0899 E8000000 		call	_ZN8UnitTest14TimeConstraintD1Ev
 1717      00
 1718              	.LEHE46:
  58:TestTimeConstraint.cpp ****         TimeConstraint t(10, TestDetails("", "", "", 0));
 1719              		.loc 6 58 0
 1720 089e 488D8540 		leaq	-2240(%rbp), %rax
 1720      F7FFFF
 1721 08a5 4889C7   		movq	%rax, %rdi
 1722              	.LEHB47:
 1723 08a8 E8000000 		call	_ZN17ScopedCurrentTestD1Ev
 1723      00
 1724              	.LEHE47:
 1725              	.LBE18:
  61:TestTimeConstraint.cpp ****     }
  62:TestTimeConstraint.cpp **** 
  63:TestTimeConstraint.cpp **** 	using namespace std;
  64:TestTimeConstraint.cpp **** 
  65:TestTimeConstraint.cpp **** 	CHECK(strstr(reporter.lastFailedMessage, "ime constraint"));
 1726              		.loc 6 65 0
 1727 08ad 488D85B0 		leaq	-2128(%rbp), %rax
 1727      F7FFFF
 1728 08b4 48051405 		addq	$1300, %rax
 1728      0000
 1729 08ba BE000000 		movl	$.LC18, %esi
 1729      00
 1730 08bf 4889C7   		movq	%rax, %rdi
 1731 08c2 E8000000 		call	strstr
 1731      00
 1732 08c7 4889C7   		movq	%rax, %rdi
 1733 08ca E8000000 		call	_ZN8UnitTest5CheckIPcEEbT_
 1733      00
 1734 08cf 83F001   		xorl	$1, %eax
 1735 08d2 84C0     		testb	%al, %al
 1736 08d4 743E     		je	.L77
 1737              	.LEHB48:
 1738              		.loc 6 65 0 is_stmt 0 discriminator 1
 1739 08d6 E8000000 		call	_ZN8UnitTest11CurrentTest7DetailsEv
 1739      00
 1740 08db 488B08   		movq	(%rax), %rcx
 1741 08de 488D8590 		leaq	-2160(%rbp), %rax
 1741      F7FFFF
 1742 08e5 BA410000 		movl	$65, %edx
 1742      00
 1743 08ea 4889CE   		movq	%rcx, %rsi
 1744 08ed 4889C7   		movq	%rax, %rdi
 1745 08f0 E8000000 		call	_ZN8UnitTest11TestDetailsC1ERKS0_i
 1745      00
 1746              		.loc 6 65 0 discriminator 3
 1747 08f5 E8000000 		call	_ZN8UnitTest11CurrentTest7ResultsEv
 1747      00
 1748 08fa 488B00   		movq	(%rax), %rax
 1749 08fd 488D8D90 		leaq	-2160(%rbp), %rcx
 1749      F7FFFF
 1750 0904 BA000000 		movl	$.LC19, %edx
 1750      00
 1751 0909 4889CE   		movq	%rcx, %rsi
 1752 090c 4889C7   		movq	%rax, %rdi
 1753 090f E8000000 		call	_ZN8UnitTest11TestResults13OnTestFailureERKNS_11TestDetailsEPKc
 1753      00
 1754              	.LEHE48:
 1755              	.L77:
  66:TestTimeConstraint.cpp ****     CHECK(strstr(reporter.lastFailedMessage, "under 10ms"));
 1756              		.loc 6 66 0 is_stmt 1
 1757 0914 488D85B0 		leaq	-2128(%rbp), %rax
 1757      F7FFFF
 1758 091b 48051405 		addq	$1300, %rax
 1758      0000
 1759 0921 BE000000 		movl	$.LC20, %esi
 1759      00
 1760 0926 4889C7   		movq	%rax, %rdi
 1761 0929 E8000000 		call	strstr
 1761      00
 1762 092e 4889C7   		movq	%rax, %rdi
 1763 0931 E8000000 		call	_ZN8UnitTest5CheckIPcEEbT_
 1763      00
 1764 0936 83F001   		xorl	$1, %eax
 1765 0939 84C0     		testb	%al, %al
 1766 093b 743E     		je	.L78
 1767              	.LEHB49:
 1768              		.loc 6 66 0 is_stmt 0 discriminator 1
 1769 093d E8000000 		call	_ZN8UnitTest11CurrentTest7DetailsEv
 1769      00
 1770 0942 488B08   		movq	(%rax), %rcx
 1771 0945 488D8590 		leaq	-2160(%rbp), %rax
 1771      F7FFFF
 1772 094c BA420000 		movl	$66, %edx
 1772      00
 1773 0951 4889CE   		movq	%rcx, %rsi
 1774 0954 4889C7   		movq	%rax, %rdi
 1775 0957 E8000000 		call	_ZN8UnitTest11TestDetailsC1ERKS0_i
 1775      00
 1776              		.loc 6 66 0 discriminator 3
 1777 095c E8000000 		call	_ZN8UnitTest11CurrentTest7ResultsEv
 1777      00
 1778 0961 488B00   		movq	(%rax), %rax
 1779 0964 488D8D90 		leaq	-2160(%rbp), %rcx
 1779      F7FFFF
 1780 096b BA000000 		movl	$.LC21, %edx
 1780      00
 1781 0970 4889CE   		movq	%rcx, %rsi
 1782 0973 4889C7   		movq	%rax, %rdi
 1783 0976 E8000000 		call	_ZN8UnitTest11TestResults13OnTestFailureERKNS_11TestDetailsEPKc
 1783      00
 1784              	.LEHE49:
 1785              	.L78:
  55:TestTimeConstraint.cpp ****     TestResults result(&reporter);
 1786              		.loc 6 55 0 is_stmt 1
 1787 097b 488D85B0 		leaq	-2128(%rbp), %rax
 1787      F7FFFF
 1788 0982 4889C7   		movq	%rax, %rdi
 1789              	.LEHB50:
 1790 0985 E8000000 		call	_ZN17RecordingReporterD1Ev
 1790      00
 1791              	.LEHE50:
  67:TestTimeConstraint.cpp **** }
 1792              		.loc 6 67 0
 1793 098a 90       		nop
 1794 098b 488B45E8 		movq	-24(%rbp), %rax
 1795 098f 64483304 		xorq	%fs:40, %rax
 1795      25280000 
 1795      00
 1796 0998 0F840601 		je	.L86
 1796      0000
 1797 099e E9FC0000 		jmp	.L94
 1797      00
 1798              	.L89:
 1799 09a3 4889C3   		movq	%rax, %rbx
 1800              	.LBB19:
  59:TestTimeConstraint.cpp ****         TimeHelpers::SleepMs(20);
 1801              		.loc 6 59 0
 1802 09a6 488D8570 		leaq	-2192(%rbp), %rax
 1802      F7FFFF
 1803 09ad 4889C7   		movq	%rax, %rdi
 1804 09b0 E8000000 		call	_ZN8UnitTest14TimeConstraintD1Ev
 1804      00
 1805 09b5 EB03     		jmp	.L80
 1806              	.L88:
 1807 09b7 4889C3   		movq	%rax, %rbx
 1808              	.L80:
  58:TestTimeConstraint.cpp ****         TimeConstraint t(10, TestDetails("", "", "", 0));
 1809              		.loc 6 58 0
 1810 09ba 488D8540 		leaq	-2240(%rbp), %rax
 1810      F7FFFF
 1811 09c1 4889C7   		movq	%rax, %rdi
 1812 09c4 E8000000 		call	_ZN17ScopedCurrentTestD1Ev
 1812      00
 1813 09c9 E9B70000 		jmp	.L81
 1813      00
 1814              	.L90:
 1815              	.LBE19:
  65:TestTimeConstraint.cpp ****     CHECK(strstr(reporter.lastFailedMessage, "under 10ms"));
 1816              		.loc 6 65 0
 1817 09ce 4889C7   		movq	%rax, %rdi
 1818 09d1 E8000000 		call	__cxa_begin_catch
 1818      00
 1819              	.LEHB51:
 1820 09d6 E8000000 		call	_ZN8UnitTest11CurrentTest7DetailsEv
 1820      00
 1821 09db 488B08   		movq	(%rax), %rcx
 1822 09de 488D8590 		leaq	-2160(%rbp), %rax
 1822      F7FFFF
 1823 09e5 BA410000 		movl	$65, %edx
 1823      00
 1824 09ea 4889CE   		movq	%rcx, %rsi
 1825 09ed 4889C7   		movq	%rax, %rdi
 1826 09f0 E8000000 		call	_ZN8UnitTest11TestDetailsC1ERKS0_i
 1826      00
  65:TestTimeConstraint.cpp ****     CHECK(strstr(reporter.lastFailedMessage, "under 10ms"));
 1827              		.loc 6 65 0 is_stmt 0 discriminator 11
 1828 09f5 E8000000 		call	_ZN8UnitTest11CurrentTest7ResultsEv
 1828      00
 1829 09fa 488B00   		movq	(%rax), %rax
 1830 09fd 488D8D90 		leaq	-2160(%rbp), %rcx
 1830      F7FFFF
 1831 0a04 BA000000 		movl	$.LC22, %edx
 1831      00
 1832 0a09 4889CE   		movq	%rcx, %rsi
 1833 0a0c 4889C7   		movq	%rax, %rdi
 1834 0a0f E8000000 		call	_ZN8UnitTest11TestResults13OnTestFailureERKNS_11TestDetailsEPKc
 1834      00
 1835              	.LEHE51:
 1836              	.LEHB52:
  65:TestTimeConstraint.cpp ****     CHECK(strstr(reporter.lastFailedMessage, "under 10ms"));
 1837              		.loc 6 65 0 discriminator 15
 1838 0a14 E8000000 		call	__cxa_end_catch
 1838      00
 1839              	.LEHE52:
  65:TestTimeConstraint.cpp ****     CHECK(strstr(reporter.lastFailedMessage, "under 10ms"));
 1840              		.loc 6 65 0
 1841 0a19 E9F6FEFF 		jmp	.L77
 1841      FF
 1842              	.L91:
 1843 0a1e 4889C3   		movq	%rax, %rbx
 1844 0a21 E8000000 		call	__cxa_end_catch
 1844      00
 1845 0a26 EB5D     		jmp	.L81
 1846              	.L92:
  66:TestTimeConstraint.cpp **** }
 1847              		.loc 6 66 0 is_stmt 1
 1848 0a28 4889C7   		movq	%rax, %rdi
 1849 0a2b E8000000 		call	__cxa_begin_catch
 1849      00
 1850              	.LEHB53:
 1851 0a30 E8000000 		call	_ZN8UnitTest11CurrentTest7DetailsEv
 1851      00
 1852 0a35 488B08   		movq	(%rax), %rcx
 1853 0a38 488D8590 		leaq	-2160(%rbp), %rax
 1853      F7FFFF
 1854 0a3f BA420000 		movl	$66, %edx
 1854      00
 1855 0a44 4889CE   		movq	%rcx, %rsi
 1856 0a47 4889C7   		movq	%rax, %rdi
 1857 0a4a E8000000 		call	_ZN8UnitTest11TestDetailsC1ERKS0_i
 1857      00
  66:TestTimeConstraint.cpp **** }
 1858              		.loc 6 66 0 is_stmt 0 discriminator 11
 1859 0a4f E8000000 		call	_ZN8UnitTest11CurrentTest7ResultsEv
 1859      00
 1860 0a54 488B00   		movq	(%rax), %rax
 1861 0a57 488D8D90 		leaq	-2160(%rbp), %rcx
 1861      F7FFFF
 1862 0a5e BA000000 		movl	$.LC23, %edx
 1862      00
 1863 0a63 4889CE   		movq	%rcx, %rsi
 1864 0a66 4889C7   		movq	%rax, %rdi
 1865 0a69 E8000000 		call	_ZN8UnitTest11TestResults13OnTestFailureERKNS_11TestDetailsEPKc
 1865      00
 1866              	.LEHE53:
 1867              	.LEHB54:
  66:TestTimeConstraint.cpp **** }
 1868              		.loc 6 66 0 discriminator 15
 1869 0a6e E8000000 		call	__cxa_end_catch
 1869      00
 1870              	.LEHE54:
  66:TestTimeConstraint.cpp **** }
 1871              		.loc 6 66 0
 1872 0a73 E903FFFF 		jmp	.L78
 1872      FF
 1873              	.L93:
 1874 0a78 4889C3   		movq	%rax, %rbx
 1875 0a7b E8000000 		call	__cxa_end_catch
 1875      00
 1876 0a80 EB03     		jmp	.L81
 1877              	.L87:
 1878 0a82 4889C3   		movq	%rax, %rbx
 1879              	.L81:
  55:TestTimeConstraint.cpp ****     TestResults result(&reporter);
 1880              		.loc 6 55 0 is_stmt 1
 1881 0a85 488D85B0 		leaq	-2128(%rbp), %rax
 1881      F7FFFF
 1882 0a8c 4889C7   		movq	%rax, %rdi
 1883 0a8f E8000000 		call	_ZN17RecordingReporterD1Ev
 1883      00
 1884 0a94 4889D8   		movq	%rbx, %rax
 1885 0a97 4889C7   		movq	%rax, %rdi
 1886              	.LEHB55:
 1887 0a9a E8000000 		call	_Unwind_Resume
 1887      00
 1888              	.LEHE55:
 1889              	.L94:
 1890              		.loc 6 67 0
 1891 0a9f E8000000 		call	__stack_chk_fail
 1891      00
 1892              	.L86:
 1893 0aa4 4881C4C8 		addq	$2248, %rsp
 1893      080000
 1894 0aab 5B       		popq	%rbx
 1895 0aac 5D       		popq	%rbp
 1896              		.cfi_def_cfa 7, 8
 1897 0aad C3       		ret
 1898              		.cfi_endproc
 1899              	.LFE1103:
 1900              		.section	.gcc_except_table
 1901              		.align 4
 1902              	.LLSDA1103:
 1903 0100 FF       		.byte	0xff
 1904 0101 03       		.byte	0x3
 1905 0102 55       		.uleb128 .LLSDATT1103-.LLSDATTD1103
 1906              	.LLSDATTD1103:
 1907 0103 01       		.byte	0x1
 1908 0104 4B       		.uleb128 .LLSDACSE1103-.LLSDACSB1103
 1909              	.LLSDACSB1103:
 1910 0105 45       		.uleb128 .LEHB43-.LFB1103
 1911 0106 23       		.uleb128 .LEHE43-.LEHB43
 1912 0107 A405     		.uleb128 .L87-.LFB1103
 1913 0109 00       		.uleb128 0
 1914 010a 8701     		.uleb128 .LEHB44-.LFB1103
 1915 010c 20       		.uleb128 .LEHE44-.LEHB44
 1916 010d D903     		.uleb128 .L88-.LFB1103
 1917 010f 00       		.uleb128 0
 1918 0110 AC01     		.uleb128 .LEHB45-.LFB1103
 1919 0112 05       		.uleb128 .LEHE45-.LEHB45
 1920 0113 C503     		.uleb128 .L89-.LFB1103
 1921 0115 00       		.uleb128 0
 1922 0116 BB01     		.uleb128 .LEHB46-.LFB1103
 1923 0118 05       		.uleb128 .LEHE46-.LEHB46
 1924 0119 D903     		.uleb128 .L88-.LFB1103
 1925 011b 00       		.uleb128 0
 1926 011c CA01     		.uleb128 .LEHB47-.LFB1103
 1927 011e 05       		.uleb128 .LEHE47-.LEHB47
 1928 011f A405     		.uleb128 .L87-.LFB1103
 1929 0121 00       		.uleb128 0
 1930 0122 F801     		.uleb128 .LEHB48-.LFB1103
 1931 0124 3E       		.uleb128 .LEHE48-.LEHB48
 1932 0125 F003     		.uleb128 .L90-.LFB1103
 1933 0127 01       		.uleb128 0x1
 1934 0128 DF02     		.uleb128 .LEHB49-.LFB1103
 1935 012a 3E       		.uleb128 .LEHE49-.LEHB49
 1936 012b CA04     		.uleb128 .L92-.LFB1103
 1937 012d 01       		.uleb128 0x1
 1938 012e A703     		.uleb128 .LEHB50-.LFB1103
 1939 0130 05       		.uleb128 .LEHE50-.LEHB50
 1940 0131 00       		.uleb128 0
 1941 0132 00       		.uleb128 0
 1942 0133 F803     		.uleb128 .LEHB51-.LFB1103
 1943 0135 3E       		.uleb128 .LEHE51-.LEHB51
 1944 0136 C004     		.uleb128 .L91-.LFB1103
 1945 0138 00       		.uleb128 0
 1946 0139 B604     		.uleb128 .LEHB52-.LFB1103
 1947 013b 05       		.uleb128 .LEHE52-.LEHB52
 1948 013c A405     		.uleb128 .L87-.LFB1103
 1949 013e 00       		.uleb128 0
 1950 013f D204     		.uleb128 .LEHB53-.LFB1103
 1951 0141 3E       		.uleb128 .LEHE53-.LEHB53
 1952 0142 9A05     		.uleb128 .L93-.LFB1103
 1953 0144 00       		.uleb128 0
 1954 0145 9005     		.uleb128 .LEHB54-.LFB1103
 1955 0147 05       		.uleb128 .LEHE54-.LEHB54
 1956 0148 A405     		.uleb128 .L87-.LFB1103
 1957 014a 00       		.uleb128 0
 1958 014b BC05     		.uleb128 .LEHB55-.LFB1103
 1959 014d 05       		.uleb128 .LEHE55-.LEHB55
 1960 014e 00       		.uleb128 0
 1961 014f 00       		.uleb128 0
 1962              	.LLSDACSE1103:
 1963 0150 01       		.byte	0x1
 1964 0151 00       		.byte	0
 1965 0152 0000     		.align 4
 1966 0154 00000000 		.long	0
 1967              	
 1968              	.LLSDATT1103:
 1969              		.text
 1971              		.section	.text._ZN8UnitTest15MemoryOutStreamD1Ev,"axG",@progbits,_ZN8UnitTest15MemoryOutStreamD1Ev
 1972              		.align 2
 1973              		.weak	_ZN8UnitTest15MemoryOutStreamD1Ev
 1975              	_ZN8UnitTest15MemoryOutStreamD1Ev:
 1976              	.LFB1134:
  13:../MemoryOutStream.h **** {
 1977              		.loc 2 13 0
 1978              		.cfi_startproc
 1979              		.cfi_personality 0x3,__gxx_personality_v0
 1980              		.cfi_lsda 0x3,.LLSDA1134
 1981 0000 55       		pushq	%rbp
 1982              		.cfi_def_cfa_offset 16
 1983              		.cfi_offset 6, -16
 1984 0001 4889E5   		movq	%rsp, %rbp
 1985              		.cfi_def_cfa_register 6
 1986 0004 53       		pushq	%rbx
 1987 0005 4883EC18 		subq	$24, %rsp
 1988              		.cfi_offset 3, -24
 1989 0009 48897DE8 		movq	%rdi, -24(%rbp)
 1990              	.LBB20:
  13:../MemoryOutStream.h **** {
 1991              		.loc 2 13 0
 1992 000d BA000000 		movl	$_ZTVN8UnitTest15MemoryOutStreamE+24, %edx
 1992      00
 1993 0012 488B45E8 		movq	-24(%rbp), %rax
 1994 0016 488910   		movq	%rdx, (%rax)
 1995 0019 BA900000 		movl	$144, %edx
 1995      00
 1996 001e 488B45E8 		movq	-24(%rbp), %rax
 1997 0022 4801D0   		addq	%rdx, %rax
 1998 0025 BA000000 		movl	$_ZTVN8UnitTest15MemoryOutStreamE+64, %edx
 1998      00
 1999 002a 488910   		movq	%rdx, (%rax)
 2000 002d 488B45E8 		movq	-24(%rbp), %rax
 2001 0031 4883C070 		addq	$112, %rax
 2002 0035 4889C7   		movq	%rax, %rdi
 2003              	.LEHB56:
 2004 0038 E8000000 		call	_ZNSt7__cxx1112basic_stringIcSt11char_traitsIcESaIcEED1Ev
 2004      00
 2005              	.LEHE56:
  13:../MemoryOutStream.h **** {
 2006              		.loc 2 13 0 is_stmt 0 discriminator 14
 2007 003d BA000000 		movl	$_ZTTN8UnitTest15MemoryOutStreamE+8, %edx
 2007      00
 2008 0042 488B45E8 		movq	-24(%rbp), %rax
 2009 0046 4889D6   		movq	%rdx, %rsi
 2010 0049 4889C7   		movq	%rax, %rdi
 2011              	.LEHB57:
 2012 004c E8000000 		call	_ZNSt7__cxx1119basic_ostringstreamIcSt11char_traitsIcESaIcEED2Ev
 2012      00
 2013              	.LEHE57:
  13:../MemoryOutStream.h **** {
 2014              		.loc 2 13 0 discriminator 20
 2015 0051 B8020000 		movl	$2, %eax
 2015      00
 2016 0056 85C0     		testl	%eax, %eax
 2017 0058 7412     		je	.L96
  13:../MemoryOutStream.h **** {
 2018              		.loc 2 13 0 discriminator 21
 2019 005a 488B45E8 		movq	-24(%rbp), %rax
 2020 005e 48059000 		addq	$144, %rax
 2020      0000
 2021 0064 4889C7   		movq	%rax, %rdi
 2022              	.LEHB58:
 2023 0067 E8000000 		call	_ZNSt9basic_iosIcSt11char_traitsIcEED2Ev
 2023      00
 2024              	.LEHE58:
 2025              	.L96:
 2026              	.LBE20:
  13:../MemoryOutStream.h **** {
 2027              		.loc 2 13 0 discriminator 22
 2028 006c B8000000 		movl	$0, %eax
 2028      00
 2029 0071 85C0     		testl	%eax, %eax
 2030 0073 7450     		je	.L95
  13:../MemoryOutStream.h **** {
 2031              		.loc 2 13 0 discriminator 25
 2032 0075 488B45E8 		movq	-24(%rbp), %rax
 2033 0079 4889C7   		movq	%rax, %rdi
 2034 007c E8000000 		call	_ZdlPv
 2034      00
 2035 0081 EB42     		jmp	.L95
 2036              	.L101:
 2037 0083 4889C3   		movq	%rax, %rbx
 2038              	.LBB21:
  13:../MemoryOutStream.h **** {
 2039              		.loc 2 13 0
 2040 0086 BA000000 		movl	$_ZTTN8UnitTest15MemoryOutStreamE+8, %edx
 2040      00
 2041 008b 488B45E8 		movq	-24(%rbp), %rax
 2042 008f 4889D6   		movq	%rdx, %rsi
 2043 0092 4889C7   		movq	%rax, %rdi
 2044 0095 E8000000 		call	_ZNSt7__cxx1119basic_ostringstreamIcSt11char_traitsIcESaIcEED2Ev
 2044      00
 2045 009a EB03     		jmp	.L99
 2046              	.L102:
 2047 009c 4889C3   		movq	%rax, %rbx
 2048              	.L99:
  13:../MemoryOutStream.h **** {
 2049              		.loc 2 13 0 discriminator 19
 2050 009f B8020000 		movl	$2, %eax
 2050      00
 2051 00a4 85C0     		testl	%eax, %eax
 2052 00a6 7412     		je	.L100
  13:../MemoryOutStream.h **** {
 2053              		.loc 2 13 0 discriminator 32
 2054 00a8 488B45E8 		movq	-24(%rbp), %rax
 2055 00ac 48059000 		addq	$144, %rax
 2055      0000
 2056 00b2 4889C7   		movq	%rax, %rdi
 2057 00b5 E8000000 		call	_ZNSt9basic_iosIcSt11char_traitsIcEED2Ev
 2057      00
 2058              	.L100:
 2059 00ba 4889D8   		movq	%rbx, %rax
 2060 00bd 4889C7   		movq	%rax, %rdi
 2061              	.LEHB59:
 2062 00c0 E8000000 		call	_Unwind_Resume
 2062      00
 2063              	.LEHE59:
 2064              	.L95:
 2065              	.LBE21:
  13:../MemoryOutStream.h **** {
 2066              		.loc 2 13 0
 2067 00c5 4883C418 		addq	$24, %rsp
 2068 00c9 5B       		popq	%rbx
 2069 00ca 5D       		popq	%rbp
 2070              		.cfi_def_cfa 7, 8
 2071 00cb C3       		ret
 2072              		.cfi_endproc
 2073              	.LFE1134:
 2074              		.section	.gcc_except_table
 2075              	.LLSDA1134:
 2076 0158 FF       		.byte	0xff
 2077 0159 FF       		.byte	0xff
 2078 015a 01       		.byte	0x1
 2079 015b 13       		.uleb128 .LLSDACSE1134-.LLSDACSB1134
 2080              	.LLSDACSB1134:
 2081 015c 38       		.uleb128 .LEHB56-.LFB1134
 2082 015d 05       		.uleb128 .LEHE56-.LEHB56
 2083 015e 8301     		.uleb128 .L101-.LFB1134
 2084 0160 00       		.uleb128 0
 2085 0161 4C       		.uleb128 .LEHB57-.LFB1134
 2086 0162 05       		.uleb128 .LEHE57-.LEHB57
 2087 0163 9C01     		.uleb128 .L102-.LFB1134
 2088 0165 00       		.uleb128 0
 2089 0166 67       		.uleb128 .LEHB58-.LFB1134
 2090 0167 05       		.uleb128 .LEHE58-.LEHB58
 2091 0168 00       		.uleb128 0
 2092 0169 00       		.uleb128 0
 2093 016a C001     		.uleb128 .LEHB59-.LFB1134
 2094 016c 05       		.uleb128 .LEHE59-.LEHB59
 2095 016d 00       		.uleb128 0
 2096 016e 00       		.uleb128 0
 2097              	.LLSDACSE1134:
 2098              		.section	.text._ZN8UnitTest15MemoryOutStreamD1Ev,"axG",@progbits,_ZN8UnitTest15MemoryOutStreamD1Ev
 2100              		.set	.LTHUNK0,_ZN8UnitTest15MemoryOutStreamD1Ev
 2101              		.weak	_ZTv0_n24_N8UnitTest15MemoryOutStreamD1Ev
 2103              	_ZTv0_n24_N8UnitTest15MemoryOutStreamD1Ev:
 2104              	.LFB1211:
  13:../MemoryOutStream.h **** {
 2105              		.loc 2 13 0 is_stmt 1
 2106              		.cfi_startproc
 2107 00cc 4C8B17   		movq	(%rdi), %r10
 2108 00cf 49037AE8 		addq	-24(%r10), %rdi
 2109 00d3 E928FFFF 		jmp	.LTHUNK0
 2109      FF
 2110              		.cfi_endproc
 2111              	.LFE1211:
 2113              		.section	.text._ZN8UnitTest15MemoryOutStreamD0Ev,"axG",@progbits,_ZN8UnitTest15MemoryOutStreamD0Ev
 2114              		.align 2
 2115              		.weak	_ZN8UnitTest15MemoryOutStreamD0Ev
 2117              	_ZN8UnitTest15MemoryOutStreamD0Ev:
 2118              	.LFB1135:
  13:../MemoryOutStream.h **** {
 2119              		.loc 2 13 0
 2120              		.cfi_startproc
 2121 0000 55       		pushq	%rbp
 2122              		.cfi_def_cfa_offset 16
 2123              		.cfi_offset 6, -16
 2124 0001 4889E5   		movq	%rsp, %rbp
 2125              		.cfi_def_cfa_register 6
 2126 0004 4883EC10 		subq	$16, %rsp
 2127 0008 48897DF8 		movq	%rdi, -8(%rbp)
  13:../MemoryOutStream.h **** {
 2128              		.loc 2 13 0
 2129 000c 488B45F8 		movq	-8(%rbp), %rax
 2130 0010 4889C7   		movq	%rax, %rdi
 2131 0013 E8000000 		call	_ZN8UnitTest15MemoryOutStreamD1Ev
 2131      00
 2132 0018 488B45F8 		movq	-8(%rbp), %rax
 2133 001c 4889C7   		movq	%rax, %rdi
 2134 001f E8000000 		call	_ZdlPv
 2134      00
 2135 0024 C9       		leave
 2136              		.cfi_def_cfa 7, 8
 2137 0025 C3       		ret
 2138              		.cfi_endproc
 2139              	.LFE1135:
 2141              		.set	.LTHUNK1,_ZN8UnitTest15MemoryOutStreamD0Ev
 2142              		.weak	_ZTv0_n24_N8UnitTest15MemoryOutStreamD0Ev
 2144              	_ZTv0_n24_N8UnitTest15MemoryOutStreamD0Ev:
 2145              	.LFB1212:
  13:../MemoryOutStream.h **** {
 2146              		.loc 2 13 0
 2147              		.cfi_startproc
 2148 0026 4C8B17   		movq	(%rdi), %r10
 2149 0029 49037AE8 		addq	-24(%r10), %rdi
 2150 002d EBD1     		jmp	.LTHUNK1
 2151              		.cfi_endproc
 2152              	.LFE1212:
 2154              		.section	.rodata
 2155              	.LC24:
 2156 03d7 45787065 		.string	"Expected "
 2156      63746564 
 2156      2000
 2157              	.LC25:
 2158 03e1 20627574 		.string	" but was "
 2158      20776173 
 2158      2000
 2159              		.section	.text._ZN8UnitTest10CheckEqualIiiEEvRNS_11TestResultsERKT_RKT0_RKNS_11TestDetailsE,"axG",
 2160              		.weak	_ZN8UnitTest10CheckEqualIiiEEvRNS_11TestResultsERKT_RKT0_RKNS_11TestDetailsE
 2162              	_ZN8UnitTest10CheckEqualIiiEEvRNS_11TestResultsERKT_RKT0_RKNS_11TestDetailsE:
 2163              	.LFB1131:
 2164              		.file 7 "../Checks.h"
   1:../Checks.h   **** #ifndef UNITTEST_CHECKS_H
   2:../Checks.h   **** #define UNITTEST_CHECKS_H
   3:../Checks.h   **** 
   4:../Checks.h   **** #include "Config.h"
   5:../Checks.h   **** #include "TestResults.h"
   6:../Checks.h   **** #include "MemoryOutStream.h"
   7:../Checks.h   **** 
   8:../Checks.h   **** namespace UnitTest {
   9:../Checks.h   **** 
  10:../Checks.h   **** 
  11:../Checks.h   **** template< typename Value >
  12:../Checks.h   **** bool Check(Value const value)
  13:../Checks.h   **** {
  14:../Checks.h   ****     return !!value; // doing double negative to avoid silly VS warnings
  15:../Checks.h   **** }
  16:../Checks.h   **** 
  17:../Checks.h   **** 
  18:../Checks.h   **** template< typename Expected, typename Actual >
  19:../Checks.h   **** void CheckEqual(TestResults& results, Expected const& expected, Actual const& actual, TestDetails c
 2165              		.loc 7 19 0
 2166              		.cfi_startproc
 2167              		.cfi_personality 0x3,__gxx_personality_v0
 2168              		.cfi_lsda 0x3,.LLSDA1131
 2169 0000 55       		pushq	%rbp
 2170              		.cfi_def_cfa_offset 16
 2171              		.cfi_offset 6, -16
 2172 0001 4889E5   		movq	%rsp, %rbp
 2173              		.cfi_def_cfa_register 6
 2174 0004 4154     		pushq	%r12
 2175 0006 53       		pushq	%rbx
 2176 0007 4881ECC0 		subq	$448, %rsp
 2176      010000
 2177              		.cfi_offset 12, -24
 2178              		.cfi_offset 3, -32
 2179 000e 4889BD48 		movq	%rdi, -440(%rbp)
 2179      FEFFFF
 2180 0015 4889B540 		movq	%rsi, -448(%rbp)
 2180      FEFFFF
 2181 001c 48899538 		movq	%rdx, -456(%rbp)
 2181      FEFFFF
 2182 0023 48898D30 		movq	%rcx, -464(%rbp)
 2182      FEFFFF
 2183              		.loc 7 19 0
 2184 002a 64488B04 		movq	%fs:40, %rax
 2184      25280000 
 2184      00
 2185 0033 488945E8 		movq	%rax, -24(%rbp)
 2186 0037 31C0     		xorl	%eax, %eax
 2187              	.LBB22:
  20:../Checks.h   **** {
  21:../Checks.h   ****     if (!(expected == actual))
 2188              		.loc 7 21 0
 2189 0039 488B8540 		movq	-448(%rbp), %rax
 2189      FEFFFF
 2190 0040 8B10     		movl	(%rax), %edx
 2191 0042 488B8538 		movq	-456(%rbp), %rax
 2191      FEFFFF
 2192 0049 8B00     		movl	(%rax), %eax
 2193 004b 39C2     		cmpl	%eax, %edx
 2194 004d 0F84B100 		je	.L109
 2194      0000
 2195              	.LBB23:
  22:../Checks.h   ****     {
  23:../Checks.h   ****         UnitTest::MemoryOutStream stream;
 2196              		.loc 7 23 0
 2197 0053 488D8550 		leaq	-432(%rbp), %rax
 2197      FEFFFF
 2198 005a 4889C7   		movq	%rax, %rdi
 2199              	.LEHB60:
 2200 005d E8000000 		call	_ZN8UnitTest15MemoryOutStreamC1Ev
 2200      00
 2201              	.LEHE60:
  24:../Checks.h   ****         stream << "Expected " << expected << " but was " << actual;
 2202              		.loc 7 24 0
 2203 0062 488B8538 		movq	-456(%rbp), %rax
 2203      FEFFFF
 2204 0069 8B18     		movl	(%rax), %ebx
 2205 006b 488B8540 		movq	-448(%rbp), %rax
 2205      FEFFFF
 2206 0072 448B20   		movl	(%rax), %r12d
 2207 0075 488D8550 		leaq	-432(%rbp), %rax
 2207      FEFFFF
 2208 007c BE000000 		movl	$.LC24, %esi
 2208      00
 2209 0081 4889C7   		movq	%rax, %rdi
 2210              	.LEHB61:
 2211 0084 E8000000 		call	_ZStlsISt11char_traitsIcEERSt13basic_ostreamIcT_ES5_PKc
 2211      00
 2212 0089 4489E6   		movl	%r12d, %esi
 2213 008c 4889C7   		movq	%rax, %rdi
 2214 008f E8000000 		call	_ZNSolsEi
 2214      00
 2215              		.loc 7 24 0 is_stmt 0 discriminator 1
 2216 0094 BE000000 		movl	$.LC25, %esi
 2216      00
 2217 0099 4889C7   		movq	%rax, %rdi
 2218 009c E8000000 		call	_ZStlsISt11char_traitsIcEERSt13basic_ostreamIcT_ES5_PKc
 2218      00
 2219              		.loc 7 24 0 discriminator 2
 2220 00a1 89DE     		movl	%ebx, %esi
 2221 00a3 4889C7   		movq	%rax, %rdi
 2222 00a6 E8000000 		call	_ZNSolsEi
 2222      00
  25:../Checks.h   **** 
  26:../Checks.h   ****         results.OnTestFailure(details, stream.GetText());
 2223              		.loc 7 26 0 is_stmt 1
 2224 00ab 488D8550 		leaq	-432(%rbp), %rax
 2224      FEFFFF
 2225 00b2 4889C7   		movq	%rax, %rdi
 2226 00b5 E8000000 		call	_ZNK8UnitTest15MemoryOutStream7GetTextEv
 2226      00
 2227 00ba 4889C2   		movq	%rax, %rdx
 2228 00bd 488B8D30 		movq	-464(%rbp), %rcx
 2228      FEFFFF
 2229 00c4 488B8548 		movq	-440(%rbp), %rax
 2229      FEFFFF
 2230 00cb 4889CE   		movq	%rcx, %rsi
 2231 00ce 4889C7   		movq	%rax, %rdi
 2232 00d1 E8000000 		call	_ZN8UnitTest11TestResults13OnTestFailureERKNS_11TestDetailsEPKc
 2232      00
 2233              	.LEHE61:
  23:../Checks.h   ****         stream << "Expected " << expected << " but was " << actual;
 2234              		.loc 7 23 0
 2235 00d6 488D8550 		leaq	-432(%rbp), %rax
 2235      FEFFFF
 2236 00dd 4889C7   		movq	%rax, %rdi
 2237              	.LEHB62:
 2238 00e0 E8000000 		call	_ZN8UnitTest15MemoryOutStreamD1Ev
 2238      00
 2239              	.LEHE62:
 2240              	.LBE23:
 2241              	.LBE22:
  27:../Checks.h   ****     }
  28:../Checks.h   **** }
 2242              		.loc 7 28 0
 2243 00e5 EB1D     		jmp	.L109
 2244              	.L108:
 2245 00e7 4889C3   		movq	%rax, %rbx
 2246              	.LBB25:
 2247              	.LBB24:
  23:../Checks.h   ****         stream << "Expected " << expected << " but was " << actual;
 2248              		.loc 7 23 0
 2249 00ea 488D8550 		leaq	-432(%rbp), %rax
 2249      FEFFFF
 2250 00f1 4889C7   		movq	%rax, %rdi
 2251 00f4 E8000000 		call	_ZN8UnitTest15MemoryOutStreamD1Ev
 2251      00
 2252 00f9 4889D8   		movq	%rbx, %rax
 2253 00fc 4889C7   		movq	%rax, %rdi
 2254              	.LEHB63:
 2255 00ff E8000000 		call	_Unwind_Resume
 2255      00
 2256              	.LEHE63:
 2257              	.L109:
 2258              	.LBE24:
 2259              	.LBE25:
 2260              		.loc 7 28 0
 2261 0104 90       		nop
 2262 0105 488B45E8 		movq	-24(%rbp), %rax
 2263 0109 64483304 		xorq	%fs:40, %rax
 2263      25280000 
 2263      00
 2264 0112 7405     		je	.L107
 2265 0114 E8000000 		call	__stack_chk_fail
 2265      00
 2266              	.L107:
 2267 0119 4881C4C0 		addq	$448, %rsp
 2267      010000
 2268 0120 5B       		popq	%rbx
 2269 0121 415C     		popq	%r12
 2270 0123 5D       		popq	%rbp
 2271              		.cfi_def_cfa 7, 8
 2272 0124 C3       		ret
 2273              		.cfi_endproc
 2274              	.LFE1131:
 2275              		.section	.gcc_except_table
 2276              	.LLSDA1131:
 2277 016f FF       		.byte	0xff
 2278 0170 FF       		.byte	0xff
 2279 0171 01       		.byte	0x1
 2280 0172 14       		.uleb128 .LLSDACSE1131-.LLSDACSB1131
 2281              	.LLSDACSB1131:
 2282 0173 5D       		.uleb128 .LEHB60-.LFB1131
 2283 0174 05       		.uleb128 .LEHE60-.LEHB60
 2284 0175 00       		.uleb128 0
 2285 0176 00       		.uleb128 0
 2286 0177 8401     		.uleb128 .LEHB61-.LFB1131
 2287 0179 52       		.uleb128 .LEHE61-.LEHB61
 2288 017a E701     		.uleb128 .L108-.LFB1131
 2289 017c 00       		.uleb128 0
 2290 017d E001     		.uleb128 .LEHB62-.LFB1131
 2291 017f 05       		.uleb128 .LEHE62-.LEHB62
 2292 0180 00       		.uleb128 0
 2293 0181 00       		.uleb128 0
 2294 0182 FF01     		.uleb128 .LEHB63-.LFB1131
 2295 0184 05       		.uleb128 .LEHE63-.LEHB63
 2296 0185 00       		.uleb128 0
 2297 0186 00       		.uleb128 0
 2298              	.LLSDACSE1131:
 2299              		.section	.text._ZN8UnitTest10CheckEqualIiiEEvRNS_11TestResultsERKT_RKT0_RKNS_11TestDetailsE,"axG",
 2301              		.section	.text._ZN8UnitTest5CheckIPcEEbT_,"axG",@progbits,_ZN8UnitTest5CheckIPcEEbT_,comdat
 2302              		.weak	_ZN8UnitTest5CheckIPcEEbT_
 2304              	_ZN8UnitTest5CheckIPcEEbT_:
 2305              	.LFB1136:
  12:../Checks.h   **** {
 2306              		.loc 7 12 0
 2307              		.cfi_startproc
 2308 0000 55       		pushq	%rbp
 2309              		.cfi_def_cfa_offset 16
 2310              		.cfi_offset 6, -16
 2311 0001 4889E5   		movq	%rsp, %rbp
 2312              		.cfi_def_cfa_register 6
 2313 0004 48897DF8 		movq	%rdi, -8(%rbp)
  14:../Checks.h   **** }
 2314              		.loc 7 14 0
 2315 0008 48837DF8 		cmpq	$0, -8(%rbp)
 2315      00
 2316 000d 0F95C0   		setne	%al
  15:../Checks.h   **** 
 2317              		.loc 7 15 0
 2318 0010 5D       		popq	%rbp
 2319              		.cfi_def_cfa 7, 8
 2320 0011 C3       		ret
 2321              		.cfi_endproc
 2322              	.LFE1136:
 2324              		.section	.rodata
 2325 03eb 00000000 		.align 8
 2325      00
 2328              	_ZTVN12_GLOBAL__N_151TestTimeConstraintFailureIncludesTimeoutInformationE:
 2329 03f0 00000000 		.quad	0
 2329      00000000 
 2330 03f8 00000000 		.quad	_ZTIN12_GLOBAL__N_151TestTimeConstraintFailureIncludesTimeoutInformationE
 2330      00000000 
 2331 0400 00000000 		.quad	_ZN12_GLOBAL__N_151TestTimeConstraintFailureIncludesTimeoutInformationD1Ev
 2331      00000000 
 2332 0408 00000000 		.quad	_ZN12_GLOBAL__N_151TestTimeConstraintFailureIncludesTimeoutInformationD0Ev
 2332      00000000 
 2333 0410 00000000 		.quad	_ZNK12_GLOBAL__N_151TestTimeConstraintFailureIncludesTimeoutInformation7RunImplEv
 2333      00000000 
 2334              		.text
 2335              		.align 2
 2337              	_ZN12_GLOBAL__N_151TestTimeConstraintFailureIncludesTimeoutInformationD2Ev:
 2338              	.LFB1190:
  53:TestTimeConstraint.cpp **** {
 2339              		.loc 6 53 0
 2340              		.cfi_startproc
 2341 0aae 55       		pushq	%rbp
 2342              		.cfi_def_cfa_offset 16
 2343              		.cfi_offset 6, -16
 2344 0aaf 4889E5   		movq	%rsp, %rbp
 2345              		.cfi_def_cfa_register 6
 2346 0ab2 4883EC10 		subq	$16, %rsp
 2347 0ab6 48897DF8 		movq	%rdi, -8(%rbp)
 2348              	.LBB26:
  53:TestTimeConstraint.cpp **** {
 2349              		.loc 6 53 0
 2350 0aba BA000000 		movl	$_ZTVN12_GLOBAL__N_151TestTimeConstraintFailureIncludesTimeoutInformationE+16, %edx
 2350      00
 2351 0abf 488B45F8 		movq	-8(%rbp), %rax
 2352 0ac3 488910   		movq	%rdx, (%rax)
 2353 0ac6 488B45F8 		movq	-8(%rbp), %rax
 2354 0aca 4889C7   		movq	%rax, %rdi
 2355 0acd E8000000 		call	_ZN8UnitTest4TestD2Ev
 2355      00
 2356              	.LBE26:
 2357 0ad2 B8000000 		movl	$0, %eax
 2357      00
 2358 0ad7 85C0     		testl	%eax, %eax
 2359 0ad9 740C     		je	.L112
  53:TestTimeConstraint.cpp **** {
 2360              		.loc 6 53 0 is_stmt 0 discriminator 4
 2361 0adb 488B45F8 		movq	-8(%rbp), %rax
 2362 0adf 4889C7   		movq	%rax, %rdi
 2363 0ae2 E8000000 		call	_ZdlPv
 2363      00
 2364              	.L112:
  53:TestTimeConstraint.cpp **** {
 2365              		.loc 6 53 0
 2366 0ae7 C9       		leave
 2367              		.cfi_def_cfa 7, 8
 2368 0ae8 C3       		ret
 2369              		.cfi_endproc
 2370              	.LFE1190:
 2372              		.set	_ZN12_GLOBAL__N_151TestTimeConstraintFailureIncludesTimeoutInformationD1Ev,_ZN12_GLOBAL__N_15
 2373 0ae9 90       		.align 2
 2375              	_ZN12_GLOBAL__N_151TestTimeConstraintFailureIncludesTimeoutInformationD0Ev:
 2376              	.LFB1192:
  53:TestTimeConstraint.cpp **** {
 2377              		.loc 6 53 0 is_stmt 1
 2378              		.cfi_startproc
 2379 0aea 55       		pushq	%rbp
 2380              		.cfi_def_cfa_offset 16
 2381              		.cfi_offset 6, -16
 2382 0aeb 4889E5   		movq	%rsp, %rbp
 2383              		.cfi_def_cfa_register 6
 2384 0aee 4883EC10 		subq	$16, %rsp
 2385 0af2 48897DF8 		movq	%rdi, -8(%rbp)
  53:TestTimeConstraint.cpp **** {
 2386              		.loc 6 53 0
 2387 0af6 488B45F8 		movq	-8(%rbp), %rax
 2388 0afa 4889C7   		movq	%rax, %rdi
 2389 0afd E8ACFFFF 		call	_ZN12_GLOBAL__N_151TestTimeConstraintFailureIncludesTimeoutInformationD1Ev
 2389      FF
 2390 0b02 488B45F8 		movq	-8(%rbp), %rax
 2391 0b06 4889C7   		movq	%rax, %rdi
 2392 0b09 E8000000 		call	_ZdlPv
 2392      00
 2393 0b0e C9       		leave
 2394              		.cfi_def_cfa 7, 8
 2395 0b0f C3       		ret
 2396              		.cfi_endproc
 2397              	.LFE1192:
 2399              		.section	.rodata
 2400              		.align 8
 2403              	_ZTVN12_GLOBAL__N_144TestTimeConstraintFailureIncludesCorrectDataE:
 2404 0418 00000000 		.quad	0
 2404      00000000 
 2405 0420 00000000 		.quad	_ZTIN12_GLOBAL__N_144TestTimeConstraintFailureIncludesCorrectDataE
 2405      00000000 
 2406 0428 00000000 		.quad	_ZN12_GLOBAL__N_144TestTimeConstraintFailureIncludesCorrectDataD1Ev
 2406      00000000 
 2407 0430 00000000 		.quad	_ZN12_GLOBAL__N_144TestTimeConstraintFailureIncludesCorrectDataD0Ev
 2407      00000000 
 2408 0438 00000000 		.quad	_ZNK12_GLOBAL__N_144TestTimeConstraintFailureIncludesCorrectData7RunImplEv
 2408      00000000 
 2409              		.text
 2410              		.align 2
 2412              	_ZN12_GLOBAL__N_144TestTimeConstraintFailureIncludesCorrectDataD2Ev:
 2413              	.LFB1194:
  34:TestTimeConstraint.cpp **** {
 2414              		.loc 6 34 0
 2415              		.cfi_startproc
 2416 0b10 55       		pushq	%rbp
 2417              		.cfi_def_cfa_offset 16
 2418              		.cfi_offset 6, -16
 2419 0b11 4889E5   		movq	%rsp, %rbp
 2420              		.cfi_def_cfa_register 6
 2421 0b14 4883EC10 		subq	$16, %rsp
 2422 0b18 48897DF8 		movq	%rdi, -8(%rbp)
 2423              	.LBB27:
  34:TestTimeConstraint.cpp **** {
 2424              		.loc 6 34 0
 2425 0b1c BA000000 		movl	$_ZTVN12_GLOBAL__N_144TestTimeConstraintFailureIncludesCorrectDataE+16, %edx
 2425      00
 2426 0b21 488B45F8 		movq	-8(%rbp), %rax
 2427 0b25 488910   		movq	%rdx, (%rax)
 2428 0b28 488B45F8 		movq	-8(%rbp), %rax
 2429 0b2c 4889C7   		movq	%rax, %rdi
 2430 0b2f E8000000 		call	_ZN8UnitTest4TestD2Ev
 2430      00
 2431              	.LBE27:
 2432 0b34 B8000000 		movl	$0, %eax
 2432      00
 2433 0b39 85C0     		testl	%eax, %eax
 2434 0b3b 740C     		je	.L115
  34:TestTimeConstraint.cpp **** {
 2435              		.loc 6 34 0 is_stmt 0 discriminator 4
 2436 0b3d 488B45F8 		movq	-8(%rbp), %rax
 2437 0b41 4889C7   		movq	%rax, %rdi
 2438 0b44 E8000000 		call	_ZdlPv
 2438      00
 2439              	.L115:
  34:TestTimeConstraint.cpp **** {
 2440              		.loc 6 34 0
 2441 0b49 C9       		leave
 2442              		.cfi_def_cfa 7, 8
 2443 0b4a C3       		ret
 2444              		.cfi_endproc
 2445              	.LFE1194:
 2447              		.set	_ZN12_GLOBAL__N_144TestTimeConstraintFailureIncludesCorrectDataD1Ev,_ZN12_GLOBAL__N_144TestTi
 2448 0b4b 90       		.align 2
 2450              	_ZN12_GLOBAL__N_144TestTimeConstraintFailureIncludesCorrectDataD0Ev:
 2451              	.LFB1196:
  34:TestTimeConstraint.cpp **** {
 2452              		.loc 6 34 0 is_stmt 1
 2453              		.cfi_startproc
 2454 0b4c 55       		pushq	%rbp
 2455              		.cfi_def_cfa_offset 16
 2456              		.cfi_offset 6, -16
 2457 0b4d 4889E5   		movq	%rsp, %rbp
 2458              		.cfi_def_cfa_register 6
 2459 0b50 4883EC10 		subq	$16, %rsp
 2460 0b54 48897DF8 		movq	%rdi, -8(%rbp)
  34:TestTimeConstraint.cpp **** {
 2461              		.loc 6 34 0
 2462 0b58 488B45F8 		movq	-8(%rbp), %rax
 2463 0b5c 4889C7   		movq	%rax, %rdi
 2464 0b5f E8ACFFFF 		call	_ZN12_GLOBAL__N_144TestTimeConstraintFailureIncludesCorrectDataD1Ev
 2464      FF
 2465 0b64 488B45F8 		movq	-8(%rbp), %rax
 2466 0b68 4889C7   		movq	%rax, %rdi
 2467 0b6b E8000000 		call	_ZdlPv
 2467      00
 2468 0b70 C9       		leave
 2469              		.cfi_def_cfa 7, 8
 2470 0b71 C3       		ret
 2471              		.cfi_endproc
 2472              	.LFE1196:
 2474              		.section	.rodata
 2475              		.align 8
 2478              	_ZTVN12_GLOBAL__N_135TestTimeConstraintFailsWithSlowTestE:
 2479 0440 00000000 		.quad	0
 2479      00000000 
 2480 0448 00000000 		.quad	_ZTIN12_GLOBAL__N_135TestTimeConstraintFailsWithSlowTestE
 2480      00000000 
 2481 0450 00000000 		.quad	_ZN12_GLOBAL__N_135TestTimeConstraintFailsWithSlowTestD1Ev
 2481      00000000 
 2482 0458 00000000 		.quad	_ZN12_GLOBAL__N_135TestTimeConstraintFailsWithSlowTestD0Ev
 2482      00000000 
 2483 0460 00000000 		.quad	_ZNK12_GLOBAL__N_135TestTimeConstraintFailsWithSlowTest7RunImplEv
 2483      00000000 
 2484              		.text
 2485              		.align 2
 2487              	_ZN12_GLOBAL__N_135TestTimeConstraintFailsWithSlowTestD2Ev:
 2488              	.LFB1198:
  23:TestTimeConstraint.cpp **** {
 2489              		.loc 6 23 0
 2490              		.cfi_startproc
 2491 0b72 55       		pushq	%rbp
 2492              		.cfi_def_cfa_offset 16
 2493              		.cfi_offset 6, -16
 2494 0b73 4889E5   		movq	%rsp, %rbp
 2495              		.cfi_def_cfa_register 6
 2496 0b76 4883EC10 		subq	$16, %rsp
 2497 0b7a 48897DF8 		movq	%rdi, -8(%rbp)
 2498              	.LBB28:
  23:TestTimeConstraint.cpp **** {
 2499              		.loc 6 23 0
 2500 0b7e BA000000 		movl	$_ZTVN12_GLOBAL__N_135TestTimeConstraintFailsWithSlowTestE+16, %edx
 2500      00
 2501 0b83 488B45F8 		movq	-8(%rbp), %rax
 2502 0b87 488910   		movq	%rdx, (%rax)
 2503 0b8a 488B45F8 		movq	-8(%rbp), %rax
 2504 0b8e 4889C7   		movq	%rax, %rdi
 2505 0b91 E8000000 		call	_ZN8UnitTest4TestD2Ev
 2505      00
 2506              	.LBE28:
 2507 0b96 B8000000 		movl	$0, %eax
 2507      00
 2508 0b9b 85C0     		testl	%eax, %eax
 2509 0b9d 740C     		je	.L118
  23:TestTimeConstraint.cpp **** {
 2510              		.loc 6 23 0 is_stmt 0 discriminator 4
 2511 0b9f 488B45F8 		movq	-8(%rbp), %rax
 2512 0ba3 4889C7   		movq	%rax, %rdi
 2513 0ba6 E8000000 		call	_ZdlPv
 2513      00
 2514              	.L118:
  23:TestTimeConstraint.cpp **** {
 2515              		.loc 6 23 0
 2516 0bab C9       		leave
 2517              		.cfi_def_cfa 7, 8
 2518 0bac C3       		ret
 2519              		.cfi_endproc
 2520              	.LFE1198:
 2522              		.set	_ZN12_GLOBAL__N_135TestTimeConstraintFailsWithSlowTestD1Ev,_ZN12_GLOBAL__N_135TestTimeConstra
 2523 0bad 90       		.align 2
 2525              	_ZN12_GLOBAL__N_135TestTimeConstraintFailsWithSlowTestD0Ev:
 2526              	.LFB1200:
  23:TestTimeConstraint.cpp **** {
 2527              		.loc 6 23 0 is_stmt 1
 2528              		.cfi_startproc
 2529 0bae 55       		pushq	%rbp
 2530              		.cfi_def_cfa_offset 16
 2531              		.cfi_offset 6, -16
 2532 0baf 4889E5   		movq	%rsp, %rbp
 2533              		.cfi_def_cfa_register 6
 2534 0bb2 4883EC10 		subq	$16, %rsp
 2535 0bb6 48897DF8 		movq	%rdi, -8(%rbp)
  23:TestTimeConstraint.cpp **** {
 2536              		.loc 6 23 0
 2537 0bba 488B45F8 		movq	-8(%rbp), %rax
 2538 0bbe 4889C7   		movq	%rax, %rdi
 2539 0bc1 E8ACFFFF 		call	_ZN12_GLOBAL__N_135TestTimeConstraintFailsWithSlowTestD1Ev
 2539      FF
 2540 0bc6 488B45F8 		movq	-8(%rbp), %rax
 2541 0bca 4889C7   		movq	%rax, %rdi
 2542 0bcd E8000000 		call	_ZdlPv
 2542      00
 2543 0bd2 C9       		leave
 2544              		.cfi_def_cfa 7, 8
 2545 0bd3 C3       		ret
 2546              		.cfi_endproc
 2547              	.LFE1200:
 2549              		.section	.rodata
 2550              		.align 8
 2553              	_ZTVN12_GLOBAL__N_138TestTimeConstraintSucceedsWithFastTestE:
 2554 0468 00000000 		.quad	0
 2554      00000000 
 2555 0470 00000000 		.quad	_ZTIN12_GLOBAL__N_138TestTimeConstraintSucceedsWithFastTestE
 2555      00000000 
 2556 0478 00000000 		.quad	_ZN12_GLOBAL__N_138TestTimeConstraintSucceedsWithFastTestD1Ev
 2556      00000000 
 2557 0480 00000000 		.quad	_ZN12_GLOBAL__N_138TestTimeConstraintSucceedsWithFastTestD0Ev
 2557      00000000 
 2558 0488 00000000 		.quad	_ZNK12_GLOBAL__N_138TestTimeConstraintSucceedsWithFastTest7RunImplEv
 2558      00000000 
 2559              		.text
 2560              		.align 2
 2562              	_ZN12_GLOBAL__N_138TestTimeConstraintSucceedsWithFastTestD2Ev:
 2563              	.LFB1202:
  12:TestTimeConstraint.cpp **** {
 2564              		.loc 6 12 0
 2565              		.cfi_startproc
 2566 0bd4 55       		pushq	%rbp
 2567              		.cfi_def_cfa_offset 16
 2568              		.cfi_offset 6, -16
 2569 0bd5 4889E5   		movq	%rsp, %rbp
 2570              		.cfi_def_cfa_register 6
 2571 0bd8 4883EC10 		subq	$16, %rsp
 2572 0bdc 48897DF8 		movq	%rdi, -8(%rbp)
 2573              	.LBB29:
  12:TestTimeConstraint.cpp **** {
 2574              		.loc 6 12 0
 2575 0be0 BA000000 		movl	$_ZTVN12_GLOBAL__N_138TestTimeConstraintSucceedsWithFastTestE+16, %edx
 2575      00
 2576 0be5 488B45F8 		movq	-8(%rbp), %rax
 2577 0be9 488910   		movq	%rdx, (%rax)
 2578 0bec 488B45F8 		movq	-8(%rbp), %rax
 2579 0bf0 4889C7   		movq	%rax, %rdi
 2580 0bf3 E8000000 		call	_ZN8UnitTest4TestD2Ev
 2580      00
 2581              	.LBE29:
 2582 0bf8 B8000000 		movl	$0, %eax
 2582      00
 2583 0bfd 85C0     		testl	%eax, %eax
 2584 0bff 740C     		je	.L121
  12:TestTimeConstraint.cpp **** {
 2585              		.loc 6 12 0 is_stmt 0 discriminator 4
 2586 0c01 488B45F8 		movq	-8(%rbp), %rax
 2587 0c05 4889C7   		movq	%rax, %rdi
 2588 0c08 E8000000 		call	_ZdlPv
 2588      00
 2589              	.L121:
  12:TestTimeConstraint.cpp **** {
 2590              		.loc 6 12 0
 2591 0c0d C9       		leave
 2592              		.cfi_def_cfa 7, 8
 2593 0c0e C3       		ret
 2594              		.cfi_endproc
 2595              	.LFE1202:
 2597              		.set	_ZN12_GLOBAL__N_138TestTimeConstraintSucceedsWithFastTestD1Ev,_ZN12_GLOBAL__N_138TestTimeCons
 2598 0c0f 90       		.align 2
 2600              	_ZN12_GLOBAL__N_138TestTimeConstraintSucceedsWithFastTestD0Ev:
 2601              	.LFB1204:
  12:TestTimeConstraint.cpp **** {
 2602              		.loc 6 12 0 is_stmt 1
 2603              		.cfi_startproc
 2604 0c10 55       		pushq	%rbp
 2605              		.cfi_def_cfa_offset 16
 2606              		.cfi_offset 6, -16
 2607 0c11 4889E5   		movq	%rsp, %rbp
 2608              		.cfi_def_cfa_register 6
 2609 0c14 4883EC10 		subq	$16, %rsp
 2610 0c18 48897DF8 		movq	%rdi, -8(%rbp)
  12:TestTimeConstraint.cpp **** {
 2611              		.loc 6 12 0
 2612 0c1c 488B45F8 		movq	-8(%rbp), %rax
 2613 0c20 4889C7   		movq	%rax, %rdi
 2614 0c23 E8ACFFFF 		call	_ZN12_GLOBAL__N_138TestTimeConstraintSucceedsWithFastTestD1Ev
 2614      FF
 2615 0c28 488B45F8 		movq	-8(%rbp), %rax
 2616 0c2c 4889C7   		movq	%rax, %rdi
 2617 0c2f E8000000 		call	_ZdlPv
 2617      00
 2618 0c34 C9       		leave
 2619              		.cfi_def_cfa 7, 8
 2620 0c35 C3       		ret
 2621              		.cfi_endproc
 2622              	.LFE1204:
 2624              		.weak	_ZTV17RecordingReporter
 2625              		.section	.rodata._ZTV17RecordingReporter,"aG",@progbits,_ZTV17RecordingReporter,comdat
 2626              		.align 8
 2629              	_ZTV17RecordingReporter:
 2630 0000 00000000 		.quad	0
 2630      00000000 
 2631 0008 00000000 		.quad	_ZTI17RecordingReporter
 2631      00000000 
 2632 0010 00000000 		.quad	_ZN17RecordingReporterD1Ev
 2632      00000000 
 2633 0018 00000000 		.quad	_ZN17RecordingReporterD0Ev
 2633      00000000 
 2634 0020 00000000 		.quad	_ZN17RecordingReporter15ReportTestStartERKN8UnitTest11TestDetailsE
 2634      00000000 
 2635 0028 00000000 		.quad	_ZN17RecordingReporter13ReportFailureERKN8UnitTest11TestDetailsEPKc
 2635      00000000 
 2636 0030 00000000 		.quad	_ZN17RecordingReporter16ReportTestFinishERKN8UnitTest11TestDetailsEf
 2636      00000000 
 2637 0038 00000000 		.quad	_ZN17RecordingReporter13ReportSummaryEiiif
 2637      00000000 
 2638              		.section	.text._ZN17RecordingReporterD2Ev,"axG",@progbits,_ZN17RecordingReporterD5Ev,comdat
 2639              		.align 2
 2640              		.weak	_ZN17RecordingReporterD2Ev
 2642              	_ZN17RecordingReporterD2Ev:
 2643              	.LFB1206:
   9:RecordingReporter.h **** {
 2644              		.loc 4 9 0
 2645              		.cfi_startproc
 2646 0000 55       		pushq	%rbp
 2647              		.cfi_def_cfa_offset 16
 2648              		.cfi_offset 6, -16
 2649 0001 4889E5   		movq	%rsp, %rbp
 2650              		.cfi_def_cfa_register 6
 2651 0004 4883EC10 		subq	$16, %rsp
 2652 0008 48897DF8 		movq	%rdi, -8(%rbp)
 2653              	.LBB30:
   9:RecordingReporter.h **** {
 2654              		.loc 4 9 0
 2655 000c BA000000 		movl	$_ZTV17RecordingReporter+16, %edx
 2655      00
 2656 0011 488B45F8 		movq	-8(%rbp), %rax
 2657 0015 488910   		movq	%rdx, (%rax)
 2658 0018 488B45F8 		movq	-8(%rbp), %rax
 2659 001c 4889C7   		movq	%rax, %rdi
 2660 001f E8000000 		call	_ZN8UnitTest12TestReporterD2Ev
 2660      00
 2661              	.LBE30:
 2662 0024 B8000000 		movl	$0, %eax
 2662      00
 2663 0029 85C0     		testl	%eax, %eax
 2664 002b 740C     		je	.L124
   9:RecordingReporter.h **** {
 2665              		.loc 4 9 0 is_stmt 0 discriminator 4
 2666 002d 488B45F8 		movq	-8(%rbp), %rax
 2667 0031 4889C7   		movq	%rax, %rdi
 2668 0034 E8000000 		call	_ZdlPv
 2668      00
 2669              	.L124:
   9:RecordingReporter.h **** {
 2670              		.loc 4 9 0
 2671 0039 C9       		leave
 2672              		.cfi_def_cfa 7, 8
 2673 003a C3       		ret
 2674              		.cfi_endproc
 2675              	.LFE1206:
 2677              		.weak	_ZN17RecordingReporterD1Ev
 2678              		.set	_ZN17RecordingReporterD1Ev,_ZN17RecordingReporterD2Ev
 2679              		.section	.text._ZN17RecordingReporterD0Ev,"axG",@progbits,_ZN17RecordingReporterD5Ev,comdat
 2680              		.align 2
 2681              		.weak	_ZN17RecordingReporterD0Ev
 2683              	_ZN17RecordingReporterD0Ev:
 2684              	.LFB1208:
   9:RecordingReporter.h **** {
 2685              		.loc 4 9 0 is_stmt 1
 2686              		.cfi_startproc
 2687 0000 55       		pushq	%rbp
 2688              		.cfi_def_cfa_offset 16
 2689              		.cfi_offset 6, -16
 2690 0001 4889E5   		movq	%rsp, %rbp
 2691              		.cfi_def_cfa_register 6
 2692 0004 4883EC10 		subq	$16, %rsp
 2693 0008 48897DF8 		movq	%rdi, -8(%rbp)
   9:RecordingReporter.h **** {
 2694              		.loc 4 9 0
 2695 000c 488B45F8 		movq	-8(%rbp), %rax
 2696 0010 4889C7   		movq	%rax, %rdi
 2697 0013 E8000000 		call	_ZN17RecordingReporterD1Ev
 2697      00
 2698 0018 488B45F8 		movq	-8(%rbp), %rax
 2699 001c 4889C7   		movq	%rax, %rdi
 2700 001f E8000000 		call	_ZdlPv
 2700      00
 2701 0024 C9       		leave
 2702              		.cfi_def_cfa 7, 8
 2703 0025 C3       		ret
 2704              		.cfi_endproc
 2705              	.LFE1208:
 2707              		.weak	_ZTVN8UnitTest15MemoryOutStreamE
 2708              		.section	.rodata._ZTVN8UnitTest15MemoryOutStreamE,"aG",@progbits,_ZTVN8UnitTest15MemoryOutStreamE,
 2709              		.align 8
 2712              	_ZTVN8UnitTest15MemoryOutStreamE:
 2713 0000 90000000 		.quad	144
 2713      00000000 
 2714 0008 00000000 		.quad	0
 2714      00000000 
 2715 0010 00000000 		.quad	_ZTIN8UnitTest15MemoryOutStreamE
 2715      00000000 
 2716 0018 00000000 		.quad	_ZN8UnitTest15MemoryOutStreamD1Ev
 2716      00000000 
 2717 0020 00000000 		.quad	_ZN8UnitTest15MemoryOutStreamD0Ev
 2717      00000000 
 2718 0028 70FFFFFF 		.quad	-144
 2718      FFFFFFFF 
 2719 0030 70FFFFFF 		.quad	-144
 2719      FFFFFFFF 
 2720 0038 00000000 		.quad	_ZTIN8UnitTest15MemoryOutStreamE
 2720      00000000 
 2721 0040 00000000 		.quad	_ZTv0_n24_N8UnitTest15MemoryOutStreamD1Ev
 2721      00000000 
 2722 0048 00000000 		.quad	_ZTv0_n24_N8UnitTest15MemoryOutStreamD0Ev
 2722      00000000 
 2723              		.weak	_ZTTN8UnitTest15MemoryOutStreamE
 2724              		.section	.rodata._ZTTN8UnitTest15MemoryOutStreamE,"aG",@progbits,_ZTVN8UnitTest15MemoryOutStreamE,
 2725              		.align 8
 2728              	_ZTTN8UnitTest15MemoryOutStreamE:
 2729 0000 00000000 		.quad	_ZTVN8UnitTest15MemoryOutStreamE+24
 2729      00000000 
 2730 0008 00000000 		.quad	_ZTCN8UnitTest15MemoryOutStreamE0_NSt7__cxx1119basic_ostringstreamIcSt11char_traitsIcESaIcEE
 2730      00000000 
 2731 0010 00000000 		.quad	_ZTCN8UnitTest15MemoryOutStreamE0_So+24
 2731      00000000 
 2732 0018 00000000 		.quad	_ZTCN8UnitTest15MemoryOutStreamE0_So+64
 2732      00000000 
 2733 0020 00000000 		.quad	_ZTCN8UnitTest15MemoryOutStreamE0_NSt7__cxx1119basic_ostringstreamIcSt11char_traitsIcESaIcEE
 2733      00000000 
 2734 0028 00000000 		.quad	_ZTVN8UnitTest15MemoryOutStreamE+64
 2734      00000000 
 2735              		.hidden	_ZTCN8UnitTest15MemoryOutStreamE0_NSt7__cxx1119basic_ostringstreamIcSt11char_traitsIcESaIc
 2736              		.weak	_ZTCN8UnitTest15MemoryOutStreamE0_NSt7__cxx1119basic_ostringstreamIcSt11char_traitsIcESaIcEE
 2737              		.section	.rodata._ZTCN8UnitTest15MemoryOutStreamE0_NSt7__cxx1119basic_ostringstreamIcSt11char_trai
 2738              		.align 8
 2741              	_ZTCN8UnitTest15MemoryOutStreamE0_NSt7__cxx1119basic_ostringstreamIcSt11char_traitsIcESaIcEEE:
 2742 0000 90000000 		.quad	144
 2742      00000000 
 2743 0008 00000000 		.quad	0
 2743      00000000 
 2744 0010 00000000 		.quad	_ZTINSt7__cxx1119basic_ostringstreamIcSt11char_traitsIcESaIcEEE
 2744      00000000 
 2745 0018 00000000 		.quad	0
 2745      00000000 
 2746 0020 00000000 		.quad	0
 2746      00000000 
 2747 0028 70FFFFFF 		.quad	-144
 2747      FFFFFFFF 
 2748 0030 70FFFFFF 		.quad	-144
 2748      FFFFFFFF 
 2749 0038 00000000 		.quad	_ZTINSt7__cxx1119basic_ostringstreamIcSt11char_traitsIcESaIcEEE
 2749      00000000 
 2750 0040 00000000 		.quad	0
 2750      00000000 
 2751 0048 00000000 		.quad	0
 2751      00000000 
 2752              		.hidden	_ZTCN8UnitTest15MemoryOutStreamE0_So
 2753              		.weak	_ZTCN8UnitTest15MemoryOutStreamE0_So
 2754              		.section	.rodata._ZTCN8UnitTest15MemoryOutStreamE0_So,"aG",@progbits,_ZTVN8UnitTest15MemoryOutStre
 2755              		.align 8
 2758              	_ZTCN8UnitTest15MemoryOutStreamE0_So:
 2759 0000 90000000 		.quad	144
 2759      00000000 
 2760 0008 00000000 		.quad	0
 2760      00000000 
 2761 0010 00000000 		.quad	_ZTISo
 2761      00000000 
 2762 0018 00000000 		.quad	0
 2762      00000000 
 2763 0020 00000000 		.quad	0
 2763      00000000 
 2764 0028 70FFFFFF 		.quad	-144
 2764      FFFFFFFF 
 2765 0030 70FFFFFF 		.quad	-144
 2765      FFFFFFFF 
 2766 0038 00000000 		.quad	_ZTISo
 2766      00000000 
 2767 0040 00000000 		.quad	0
 2767      00000000 
 2768 0048 00000000 		.quad	0
 2768      00000000 
 2769              		.section	.rodata
 2770 0490 00000000 		.align 32
 2770      00000000 
 2770      00000000 
 2770      00000000 
 2773              	_ZTSN12_GLOBAL__N_151TestTimeConstraintFailureIncludesTimeoutInformationE:
 2774 04a0 2A4E3132 		.string	"*N12_GLOBAL__N_151TestTimeConstraintFailureIncludesTimeoutInformationE"
 2774      5F474C4F 
 2774      42414C5F 
 2774      5F4E5F31 
 2774      35315465 
 2775 04e7 00       		.align 8
 2778              	_ZTIN12_GLOBAL__N_151TestTimeConstraintFailureIncludesTimeoutInformationE:
 2779 04e8 00000000 		.quad	_ZTVN10__cxxabiv120__si_class_type_infoE+16
 2779      00000000 
 2780 04f0 00000000 		.quad	_ZTSN12_GLOBAL__N_151TestTimeConstraintFailureIncludesTimeoutInformationE
 2780      00000000 
 2781 04f8 00000000 		.quad	_ZTIN8UnitTest4TestE
 2781      00000000 
 2782              		.align 32
 2785              	_ZTSN12_GLOBAL__N_144TestTimeConstraintFailureIncludesCorrectDataE:
 2786 0500 2A4E3132 		.string	"*N12_GLOBAL__N_144TestTimeConstraintFailureIncludesCorrectDataE"
 2786      5F474C4F 
 2786      42414C5F 
 2786      5F4E5F31 
 2786      34345465 
 2787              		.align 8
 2790              	_ZTIN12_GLOBAL__N_144TestTimeConstraintFailureIncludesCorrectDataE:
 2791 0540 00000000 		.quad	_ZTVN10__cxxabiv120__si_class_type_infoE+16
 2791      00000000 
 2792 0548 00000000 		.quad	_ZTSN12_GLOBAL__N_144TestTimeConstraintFailureIncludesCorrectDataE
 2792      00000000 
 2793 0550 00000000 		.quad	_ZTIN8UnitTest4TestE
 2793      00000000 
 2794 0558 00000000 		.align 32
 2794      00000000 
 2797              	_ZTSN12_GLOBAL__N_135TestTimeConstraintFailsWithSlowTestE:
 2798 0560 2A4E3132 		.string	"*N12_GLOBAL__N_135TestTimeConstraintFailsWithSlowTestE"
 2798      5F474C4F 
 2798      42414C5F 
 2798      5F4E5F31 
 2798      33355465 
 2799 0597 00       		.align 8
 2802              	_ZTIN12_GLOBAL__N_135TestTimeConstraintFailsWithSlowTestE:
 2803 0598 00000000 		.quad	_ZTVN10__cxxabiv120__si_class_type_infoE+16
 2803      00000000 
 2804 05a0 00000000 		.quad	_ZTSN12_GLOBAL__N_135TestTimeConstraintFailsWithSlowTestE
 2804      00000000 
 2805 05a8 00000000 		.quad	_ZTIN8UnitTest4TestE
 2805      00000000 
 2806 05b0 00000000 		.align 32
 2806      00000000 
 2806      00000000 
 2806      00000000 
 2809              	_ZTSN12_GLOBAL__N_138TestTimeConstraintSucceedsWithFastTestE:
 2810 05c0 2A4E3132 		.string	"*N12_GLOBAL__N_138TestTimeConstraintSucceedsWithFastTestE"
 2810      5F474C4F 
 2810      42414C5F 
 2810      5F4E5F31 
 2810      33385465 
 2811 05fa 00000000 		.align 8
 2811      0000
 2814              	_ZTIN12_GLOBAL__N_138TestTimeConstraintSucceedsWithFastTestE:
 2815 0600 00000000 		.quad	_ZTVN10__cxxabiv120__si_class_type_infoE+16
 2815      00000000 
 2816 0608 00000000 		.quad	_ZTSN12_GLOBAL__N_138TestTimeConstraintSucceedsWithFastTestE
 2816      00000000 
 2817 0610 00000000 		.quad	_ZTIN8UnitTest4TestE
 2817      00000000 
 2818              		.weak	_ZTI17RecordingReporter
 2819              		.section	.rodata._ZTI17RecordingReporter,"aG",@progbits,_ZTI17RecordingReporter,comdat
 2820              		.align 8
 2823              	_ZTI17RecordingReporter:
 2824 0000 00000000 		.quad	_ZTVN10__cxxabiv120__si_class_type_infoE+16
 2824      00000000 
 2825 0008 00000000 		.quad	_ZTS17RecordingReporter
 2825      00000000 
 2826 0010 00000000 		.quad	_ZTIN8UnitTest12TestReporterE
 2826      00000000 
 2827              		.weak	_ZTS17RecordingReporter
 2828              		.section	.rodata._ZTS17RecordingReporter,"aG",@progbits,_ZTS17RecordingReporter,comdat
 2829              		.align 16
 2832              	_ZTS17RecordingReporter:
 2833 0000 31375265 		.string	"17RecordingReporter"
 2833      636F7264 
 2833      696E6752 
 2833      65706F72 
 2833      74657200 
 2834              		.weak	_ZTIN8UnitTest15MemoryOutStreamE
 2835              		.section	.rodata._ZTIN8UnitTest15MemoryOutStreamE,"aG",@progbits,_ZTIN8UnitTest15MemoryOutStreamE,
 2836              		.align 8
 2839              	_ZTIN8UnitTest15MemoryOutStreamE:
 2840 0000 00000000 		.quad	_ZTVN10__cxxabiv120__si_class_type_infoE+16
 2840      00000000 
 2841 0008 00000000 		.quad	_ZTSN8UnitTest15MemoryOutStreamE
 2841      00000000 
 2842 0010 00000000 		.quad	_ZTINSt7__cxx1119basic_ostringstreamIcSt11char_traitsIcESaIcEEE
 2842      00000000 
 2843              		.weak	_ZTSN8UnitTest15MemoryOutStreamE
 2844              		.section	.rodata._ZTSN8UnitTest15MemoryOutStreamE,"aG",@progbits,_ZTSN8UnitTest15MemoryOutStreamE,
 2845              		.align 16
 2848              	_ZTSN8UnitTest15MemoryOutStreamE:
 2849 0000 4E38556E 		.string	"N8UnitTest15MemoryOutStreamE"
 2849      69745465 
 2849      73743135 
 2849      4D656D6F 
 2849      72794F75 
 2850              		.text
 2852              	_Z41__static_initialization_and_destruction_0ii:
 2853              	.LFB1209:
  68:TestTimeConstraint.cpp **** 
  69:TestTimeConstraint.cpp **** }
 2854              		.loc 6 69 0
 2855              		.cfi_startproc
 2856 0c36 55       		pushq	%rbp
 2857              		.cfi_def_cfa_offset 16
 2858              		.cfi_offset 6, -16
 2859 0c37 4889E5   		movq	%rsp, %rbp
 2860              		.cfi_def_cfa_register 6
 2861 0c3a 4883EC10 		subq	$16, %rsp
 2862 0c3e 897DFC   		movl	%edi, -4(%rbp)
 2863 0c41 8975F8   		movl	%esi, -8(%rbp)
 2864              		.loc 6 69 0
 2865 0c44 837DFC01 		cmpl	$1, -4(%rbp)
 2866 0c48 0F85E100 		jne	.L129
 2866      0000
 2867              		.loc 6 69 0 is_stmt 0 discriminator 1
 2868 0c4e 817DF8FF 		cmpl	$65535, -8(%rbp)
 2868      FF0000
 2869 0c55 0F85D400 		jne	.L129
 2869      0000
  12:TestTimeConstraint.cpp **** {
 2870              		.loc 6 12 0 is_stmt 1
 2871 0c5b BF000000 		movl	$_ZN12_GLOBAL__N_146testTimeConstraintSucceedsWithFastTestInstanceE, %edi
 2871      00
 2872 0c60 E89BF3FF 		call	_ZN12_GLOBAL__N_138TestTimeConstraintSucceedsWithFastTestC1Ev
 2872      FF
 2873 0c65 BA000000 		movl	$__dso_handle, %edx
 2873      00
 2874 0c6a BE000000 		movl	$_ZN12_GLOBAL__N_146testTimeConstraintSucceedsWithFastTestInstanceE, %esi
 2874      00
 2875 0c6f BF000000 		movl	$_ZN12_GLOBAL__N_138TestTimeConstraintSucceedsWithFastTestD1Ev, %edi
 2875      00
 2876 0c74 E8000000 		call	__cxa_atexit
 2876      00
 2877 0c79 E8000000 		call	_ZN8UnitTest4Test11GetTestListEv
 2877      00
 2878 0c7e BA000000 		movl	$_ZN12_GLOBAL__N_146testTimeConstraintSucceedsWithFastTestInstanceE, %edx
 2878      00
 2879 0c83 4889C6   		movq	%rax, %rsi
 2880 0c86 BF000000 		movl	$_ZN12_GLOBAL__N_139adderTimeConstraintSucceedsWithFastTestE, %edi
 2880      00
 2881 0c8b E8000000 		call	_ZN8UnitTest9ListAdderC1ERNS_8TestListEPNS_4TestE
 2881      00
  23:TestTimeConstraint.cpp **** {
 2882              		.loc 6 23 0
 2883 0c90 BF000000 		movl	$_ZN12_GLOBAL__N_143testTimeConstraintFailsWithSlowTestInstanceE, %edi
 2883      00
 2884 0c95 E850F5FF 		call	_ZN12_GLOBAL__N_135TestTimeConstraintFailsWithSlowTestC1Ev
 2884      FF
 2885 0c9a BA000000 		movl	$__dso_handle, %edx
 2885      00
 2886 0c9f BE000000 		movl	$_ZN12_GLOBAL__N_143testTimeConstraintFailsWithSlowTestInstanceE, %esi
 2886      00
 2887 0ca4 BF000000 		movl	$_ZN12_GLOBAL__N_135TestTimeConstraintFailsWithSlowTestD1Ev, %edi
 2887      00
 2888 0ca9 E8000000 		call	__cxa_atexit
 2888      00
 2889 0cae E8000000 		call	_ZN8UnitTest4Test11GetTestListEv
 2889      00
 2890 0cb3 BA000000 		movl	$_ZN12_GLOBAL__N_143testTimeConstraintFailsWithSlowTestInstanceE, %edx
 2890      00
 2891 0cb8 4889C6   		movq	%rax, %rsi
 2892 0cbb BF000000 		movl	$_ZN12_GLOBAL__N_136adderTimeConstraintFailsWithSlowTestE, %edi
 2892      00
 2893 0cc0 E8000000 		call	_ZN8UnitTest9ListAdderC1ERNS_8TestListEPNS_4TestE
 2893      00
  34:TestTimeConstraint.cpp **** {
 2894              		.loc 6 34 0
 2895 0cc5 BF000000 		movl	$_ZN12_GLOBAL__N_152testTimeConstraintFailureIncludesCorrectDataInstanceE, %edi
 2895      00
 2896 0cca E805F7FF 		call	_ZN12_GLOBAL__N_144TestTimeConstraintFailureIncludesCorrectDataC1Ev
 2896      FF
 2897 0ccf BA000000 		movl	$__dso_handle, %edx
 2897      00
 2898 0cd4 BE000000 		movl	$_ZN12_GLOBAL__N_152testTimeConstraintFailureIncludesCorrectDataInstanceE, %esi
 2898      00
 2899 0cd9 BF000000 		movl	$_ZN12_GLOBAL__N_144TestTimeConstraintFailureIncludesCorrectDataD1Ev, %edi
 2899      00
 2900 0cde E8000000 		call	__cxa_atexit
 2900      00
 2901 0ce3 E8000000 		call	_ZN8UnitTest4Test11GetTestListEv
 2901      00
 2902 0ce8 BA000000 		movl	$_ZN12_GLOBAL__N_152testTimeConstraintFailureIncludesCorrectDataInstanceE, %edx
 2902      00
 2903 0ced 4889C6   		movq	%rax, %rsi
 2904 0cf0 BF000000 		movl	$_ZN12_GLOBAL__N_145adderTimeConstraintFailureIncludesCorrectDataE, %edi
 2904      00
 2905 0cf5 E8000000 		call	_ZN8UnitTest9ListAdderC1ERNS_8TestListEPNS_4TestE
 2905      00
  53:TestTimeConstraint.cpp **** {
 2906              		.loc 6 53 0
 2907 0cfa BF000000 		movl	$_ZN12_GLOBAL__N_159testTimeConstraintFailureIncludesTimeoutInformationInstanceE, %edi
 2907      00
 2908 0cff E89AFAFF 		call	_ZN12_GLOBAL__N_151TestTimeConstraintFailureIncludesTimeoutInformationC1Ev
 2908      FF
 2909 0d04 BA000000 		movl	$__dso_handle, %edx
 2909      00
 2910 0d09 BE000000 		movl	$_ZN12_GLOBAL__N_159testTimeConstraintFailureIncludesTimeoutInformationInstanceE, %esi
 2910      00
 2911 0d0e BF000000 		movl	$_ZN12_GLOBAL__N_151TestTimeConstraintFailureIncludesTimeoutInformationD1Ev, %edi
 2911      00
 2912 0d13 E8000000 		call	__cxa_atexit
 2912      00
 2913 0d18 E8000000 		call	_ZN8UnitTest4Test11GetTestListEv
 2913      00
 2914 0d1d BA000000 		movl	$_ZN12_GLOBAL__N_159testTimeConstraintFailureIncludesTimeoutInformationInstanceE, %edx
 2914      00
 2915 0d22 4889C6   		movq	%rax, %rsi
 2916 0d25 BF000000 		movl	$_ZN12_GLOBAL__N_152adderTimeConstraintFailureIncludesTimeoutInformationE, %edi
 2916      00
 2917 0d2a E8000000 		call	_ZN8UnitTest9ListAdderC1ERNS_8TestListEPNS_4TestE
 2917      00
 2918              	.L129:
 2919              		.loc 6 69 0
 2920 0d2f 90       		nop
 2921 0d30 C9       		leave
 2922              		.cfi_def_cfa 7, 8
 2923 0d31 C3       		ret
 2924              		.cfi_endproc
 2925              	.LFE1209:
 2928              	_GLOBAL__sub_I_TestTimeConstraint.cpp:
 2929              	.LFB1210:
 2930              		.loc 6 69 0
 2931              		.cfi_startproc
 2932 0d32 55       		pushq	%rbp
 2933              		.cfi_def_cfa_offset 16
 2934              		.cfi_offset 6, -16
 2935 0d33 4889E5   		movq	%rsp, %rbp
 2936              		.cfi_def_cfa_register 6
 2937              		.loc 6 69 0
 2938 0d36 BEFFFF00 		movl	$65535, %esi
 2938      00
 2939 0d3b BF010000 		movl	$1, %edi
 2939      00
 2940 0d40 E8F1FEFF 		call	_Z41__static_initialization_and_destruction_0ii
 2940      FF
 2941 0d45 5D       		popq	%rbp
 2942              		.cfi_def_cfa 7, 8
 2943 0d46 C3       		ret
 2944              		.cfi_endproc
 2945              	.LFE1210:
 2947              		.section	.init_array,"aw"
 2948              		.align 8
 2949 0000 00000000 		.quad	_GLOBAL__sub_I_TestTimeConstraint.cpp
 2949      00000000 
 2950              		.text
 2951              	.Letext0:
 2952              		.file 8 "../TestDetails.h"
 2953              		.file 9 "../TestList.h"
 2954              		.file 10 "../TestResults.h"
 2955              		.file 11 "../PosixUtils/TimeHelpers.h"
 2956              		.file 12 "../TimeConstraint.h"
 2957              		.file 13 "/usr/include/x86_64-linux-gnu/c++/5/bits/c++config.h"
 2958              		.file 14 "/usr/include/c++/5/bits/basic_string.h"
 2959              		.file 15 "/usr/include/c++/5/bits/basic_string.tcc"
 2960              		.file 16 "/usr/include/c++/5/bits/stringfwd.h"
 2961              		.file 17 "/usr/include/c++/5/cwchar"
 2962              		.file 18 "/usr/include/c++/5/bits/char_traits.h"
 2963              		.file 19 "/usr/include/c++/5/clocale"
 2964              		.file 20 "/usr/include/c++/5/bits/allocator.h"
 2965              		.file 21 "/usr/include/c++/5/cwctype"
 2966              		.file 22 "/usr/include/c++/5/cstring"
 2967              		.file 23 "/usr/include/c++/5/debug/debug.h"
 2968              		.file 24 "/usr/include/c++/5/bits/predefined_ops.h"
 2969              		.file 25 "/usr/include/c++/5/ext/new_allocator.h"
 2970              		.file 26 "/usr/include/c++/5/ext/numeric_traits.h"
 2971              		.file 27 "/usr/include/c++/5/ext/alloc_traits.h"
 2972              		.file 28 "/usr/include/stdio.h"
 2973              		.file 29 "<built-in>"
 2974              		.file 30 "/usr/lib/gcc/x86_64-linux-gnu/5/include/stddef.h"
 2975              		.file 31 "/usr/include/wchar.h"
 2976              		.file 32 "/usr/include/time.h"
 2977              		.file 33 "/usr/include/locale.h"
 2978              		.file 34 "/usr/include/x86_64-linux-gnu/bits/types.h"
 2979              		.file 35 "/usr/include/x86_64-linux-gnu/bits/time.h"
 2980              		.file 36 "/usr/include/wctype.h"
 2981              		.file 37 "/usr/include/x86_64-linux-gnu/sys/time.h"
 2982              		.file 38 "/usr/include/string.h"
DEFINED SYMBOLS
                            *ABS*:0000000000000000 TestTimeConstraint.cpp
     /tmp/ccYWNUex.s:10     .text._ZN13UnitTestSuite12GetSuiteNameEv:0000000000000000 _ZN13UnitTestSuite12GetSuiteNameEv
     /tmp/ccYWNUex.s:33     .text._ZN8UnitTest15MemoryOutStreamC1Ev:0000000000000000 _ZN8UnitTest15MemoryOutStreamC1Ev
     /tmp/ccYWNUex.s:2728   .rodata._ZTTN8UnitTest15MemoryOutStreamE:0000000000000000 _ZTTN8UnitTest15MemoryOutStreamE
     /tmp/ccYWNUex.s:2712   .rodata._ZTVN8UnitTest15MemoryOutStreamE:0000000000000000 _ZTVN8UnitTest15MemoryOutStreamE
     /tmp/ccYWNUex.s:146    .text._ZN8UnitTest12TestReporterC2Ev:0000000000000000 _ZN8UnitTest12TestReporterC2Ev
     /tmp/ccYWNUex.s:146    .text._ZN8UnitTest12TestReporterC2Ev:0000000000000000 _ZN8UnitTest12TestReporterC1Ev
     /tmp/ccYWNUex.s:176    .text._ZN17RecordingReporterC2Ev:0000000000000000 _ZN17RecordingReporterC2Ev
     /tmp/ccYWNUex.s:2629   .rodata._ZTV17RecordingReporter:0000000000000000 _ZTV17RecordingReporter
     /tmp/ccYWNUex.s:176    .text._ZN17RecordingReporterC2Ev:0000000000000000 _ZN17RecordingReporterC1Ev
     /tmp/ccYWNUex.s:255    .text._ZN17RecordingReporter15ReportTestStartERKN8UnitTest11TestDetailsE:0000000000000000 _ZN17RecordingReporter15ReportTestStartERKN8UnitTest11TestDetailsE
     /tmp/ccYWNUex.s:301    .text._ZN17RecordingReporter13ReportFailureERKN8UnitTest11TestDetailsEPKc:0000000000000000 _ZN17RecordingReporter13ReportFailureERKN8UnitTest11TestDetailsEPKc
     /tmp/ccYWNUex.s:368    .text._ZN17RecordingReporter16ReportTestFinishERKN8UnitTest11TestDetailsEf:0000000000000000 _ZN17RecordingReporter16ReportTestFinishERKN8UnitTest11TestDetailsEf
     /tmp/ccYWNUex.s:419    .text._ZN17RecordingReporter13ReportSummaryEiiif:0000000000000000 _ZN17RecordingReporter13ReportSummaryEiiif
     /tmp/ccYWNUex.s:461    .text._ZN17ScopedCurrentTestC2ERN8UnitTest11TestResultsEPKNS0_11TestDetailsE:0000000000000000 _ZN17ScopedCurrentTestC2ERN8UnitTest11TestResultsEPKNS0_11TestDetailsE
     /tmp/ccYWNUex.s:461    .text._ZN17ScopedCurrentTestC2ERN8UnitTest11TestResultsEPKNS0_11TestDetailsE:0000000000000000 _ZN17ScopedCurrentTestC1ERN8UnitTest11TestResultsEPKNS0_11TestDetailsE
     /tmp/ccYWNUex.s:515    .text._ZN17ScopedCurrentTestD2Ev:0000000000000000 _ZN17ScopedCurrentTestD2Ev
     /tmp/ccYWNUex.s:515    .text._ZN17ScopedCurrentTestD2Ev:0000000000000000 _ZN17ScopedCurrentTestD1Ev
     /tmp/ccYWNUex.s:559    .text:0000000000000000 _ZN12_GLOBAL__N_138TestTimeConstraintSucceedsWithFastTestC2Ev
     /tmp/ccYWNUex.s:2553   .rodata:0000000000000468 _ZTVN12_GLOBAL__N_138TestTimeConstraintSucceedsWithFastTestE
     /tmp/ccYWNUex.s:559    .text:0000000000000000 _ZN12_GLOBAL__N_138TestTimeConstraintSucceedsWithFastTestC1Ev
     /tmp/ccYWNUex.s:594    .bss:0000000000000000 _ZN12_GLOBAL__N_146testTimeConstraintSucceedsWithFastTestInstanceE
     /tmp/ccYWNUex.s:594    .bss:0000000000000038 _ZN12_GLOBAL__N_139adderTimeConstraintSucceedsWithFastTestE
     /tmp/ccYWNUex.s:606    .text:0000000000000040 _ZNK12_GLOBAL__N_138TestTimeConstraintSucceedsWithFastTest7RunImplEv
     /tmp/ccYWNUex.s:2162   .text._ZN8UnitTest10CheckEqualIiiEEvRNS_11TestResultsERKT_RKT0_RKNS_11TestDetailsE:0000000000000000 _ZN8UnitTest10CheckEqualIiiEEvRNS_11TestResultsERKT_RKT0_RKNS_11TestDetailsE
     /tmp/ccYWNUex.s:848    .text:00000000000001ea _ZN12_GLOBAL__N_135TestTimeConstraintFailsWithSlowTestC2Ev
     /tmp/ccYWNUex.s:2478   .rodata:0000000000000440 _ZTVN12_GLOBAL__N_135TestTimeConstraintFailsWithSlowTestE
     /tmp/ccYWNUex.s:848    .text:00000000000001ea _ZN12_GLOBAL__N_135TestTimeConstraintFailsWithSlowTestC1Ev
     /tmp/ccYWNUex.s:882    .bss:0000000000000040 _ZN12_GLOBAL__N_143testTimeConstraintFailsWithSlowTestInstanceE
     /tmp/ccYWNUex.s:882    .bss:0000000000000078 _ZN12_GLOBAL__N_136adderTimeConstraintFailsWithSlowTestE
     /tmp/ccYWNUex.s:892    .text:000000000000022a _ZNK12_GLOBAL__N_135TestTimeConstraintFailsWithSlowTest7RunImplEv
     /tmp/ccYWNUex.s:1134   .text:00000000000003d4 _ZN12_GLOBAL__N_144TestTimeConstraintFailureIncludesCorrectDataC2Ev
     /tmp/ccYWNUex.s:2403   .rodata:0000000000000418 _ZTVN12_GLOBAL__N_144TestTimeConstraintFailureIncludesCorrectDataE
     /tmp/ccYWNUex.s:1134   .text:00000000000003d4 _ZN12_GLOBAL__N_144TestTimeConstraintFailureIncludesCorrectDataC1Ev
     /tmp/ccYWNUex.s:1168   .bss:0000000000000080 _ZN12_GLOBAL__N_152testTimeConstraintFailureIncludesCorrectDataInstanceE
     /tmp/ccYWNUex.s:1168   .bss:00000000000000b8 _ZN12_GLOBAL__N_145adderTimeConstraintFailureIncludesCorrectDataE
     /tmp/ccYWNUex.s:1196   .text:0000000000000414 _ZNK12_GLOBAL__N_144TestTimeConstraintFailureIncludesCorrectData7RunImplEv
     /tmp/ccYWNUex.s:2304   .text._ZN8UnitTest5CheckIPcEEbT_:0000000000000000 _ZN8UnitTest5CheckIPcEEbT_
     /tmp/ccYWNUex.s:2642   .text._ZN17RecordingReporterD2Ev:0000000000000000 _ZN17RecordingReporterD1Ev
     /tmp/ccYWNUex.s:1596   .text:000000000000079e _ZN12_GLOBAL__N_151TestTimeConstraintFailureIncludesTimeoutInformationC2Ev
     /tmp/ccYWNUex.s:2328   .rodata:00000000000003f0 _ZTVN12_GLOBAL__N_151TestTimeConstraintFailureIncludesTimeoutInformationE
     /tmp/ccYWNUex.s:1596   .text:000000000000079e _ZN12_GLOBAL__N_151TestTimeConstraintFailureIncludesTimeoutInformationC1Ev
     /tmp/ccYWNUex.s:1630   .bss:00000000000000c0 _ZN12_GLOBAL__N_159testTimeConstraintFailureIncludesTimeoutInformationInstanceE
     /tmp/ccYWNUex.s:1630   .bss:00000000000000f8 _ZN12_GLOBAL__N_152adderTimeConstraintFailureIncludesTimeoutInformationE
     /tmp/ccYWNUex.s:1653   .text:00000000000007de _ZNK12_GLOBAL__N_151TestTimeConstraintFailureIncludesTimeoutInformation7RunImplEv
     /tmp/ccYWNUex.s:1975   .text._ZN8UnitTest15MemoryOutStreamD1Ev:0000000000000000 _ZN8UnitTest15MemoryOutStreamD1Ev
     /tmp/ccYWNUex.s:2103   .text._ZN8UnitTest15MemoryOutStreamD1Ev:00000000000000cc _ZTv0_n24_N8UnitTest15MemoryOutStreamD1Ev
     /tmp/ccYWNUex.s:2117   .text._ZN8UnitTest15MemoryOutStreamD0Ev:0000000000000000 _ZN8UnitTest15MemoryOutStreamD0Ev
     /tmp/ccYWNUex.s:2144   .text._ZN8UnitTest15MemoryOutStreamD0Ev:0000000000000026 _ZTv0_n24_N8UnitTest15MemoryOutStreamD0Ev
     /tmp/ccYWNUex.s:2778   .rodata:00000000000004e8 _ZTIN12_GLOBAL__N_151TestTimeConstraintFailureIncludesTimeoutInformationE
     /tmp/ccYWNUex.s:2337   .text:0000000000000aae _ZN12_GLOBAL__N_151TestTimeConstraintFailureIncludesTimeoutInformationD1Ev
     /tmp/ccYWNUex.s:2375   .text:0000000000000aea _ZN12_GLOBAL__N_151TestTimeConstraintFailureIncludesTimeoutInformationD0Ev
     /tmp/ccYWNUex.s:2337   .text:0000000000000aae _ZN12_GLOBAL__N_151TestTimeConstraintFailureIncludesTimeoutInformationD2Ev
     /tmp/ccYWNUex.s:2790   .rodata:0000000000000540 _ZTIN12_GLOBAL__N_144TestTimeConstraintFailureIncludesCorrectDataE
     /tmp/ccYWNUex.s:2412   .text:0000000000000b10 _ZN12_GLOBAL__N_144TestTimeConstraintFailureIncludesCorrectDataD1Ev
     /tmp/ccYWNUex.s:2450   .text:0000000000000b4c _ZN12_GLOBAL__N_144TestTimeConstraintFailureIncludesCorrectDataD0Ev
     /tmp/ccYWNUex.s:2412   .text:0000000000000b10 _ZN12_GLOBAL__N_144TestTimeConstraintFailureIncludesCorrectDataD2Ev
     /tmp/ccYWNUex.s:2802   .rodata:0000000000000598 _ZTIN12_GLOBAL__N_135TestTimeConstraintFailsWithSlowTestE
     /tmp/ccYWNUex.s:2487   .text:0000000000000b72 _ZN12_GLOBAL__N_135TestTimeConstraintFailsWithSlowTestD1Ev
     /tmp/ccYWNUex.s:2525   .text:0000000000000bae _ZN12_GLOBAL__N_135TestTimeConstraintFailsWithSlowTestD0Ev
     /tmp/ccYWNUex.s:2487   .text:0000000000000b72 _ZN12_GLOBAL__N_135TestTimeConstraintFailsWithSlowTestD2Ev
     /tmp/ccYWNUex.s:2814   .rodata:0000000000000600 _ZTIN12_GLOBAL__N_138TestTimeConstraintSucceedsWithFastTestE
     /tmp/ccYWNUex.s:2562   .text:0000000000000bd4 _ZN12_GLOBAL__N_138TestTimeConstraintSucceedsWithFastTestD1Ev
     /tmp/ccYWNUex.s:2600   .text:0000000000000c10 _ZN12_GLOBAL__N_138TestTimeConstraintSucceedsWithFastTestD0Ev
     /tmp/ccYWNUex.s:2562   .text:0000000000000bd4 _ZN12_GLOBAL__N_138TestTimeConstraintSucceedsWithFastTestD2Ev
     /tmp/ccYWNUex.s:2823   .rodata._ZTI17RecordingReporter:0000000000000000 _ZTI17RecordingReporter
     /tmp/ccYWNUex.s:2683   .text._ZN17RecordingReporterD0Ev:0000000000000000 _ZN17RecordingReporterD0Ev
     /tmp/ccYWNUex.s:2642   .text._ZN17RecordingReporterD2Ev:0000000000000000 _ZN17RecordingReporterD2Ev
     /tmp/ccYWNUex.s:2839   .rodata._ZTIN8UnitTest15MemoryOutStreamE:0000000000000000 _ZTIN8UnitTest15MemoryOutStreamE
     /tmp/ccYWNUex.s:2741   .rodata._ZTCN8UnitTest15MemoryOutStreamE0_NSt7__cxx1119basic_ostringstreamIcSt11char_traitsIcESaIcEEE:0000000000000000 _ZTCN8UnitTest15MemoryOutStreamE0_NSt7__cxx1119basic_ostringstreamIcSt11char_traitsIcESaIcEEE
     /tmp/ccYWNUex.s:2758   .rodata._ZTCN8UnitTest15MemoryOutStreamE0_So:0000000000000000 _ZTCN8UnitTest15MemoryOutStreamE0_So
     /tmp/ccYWNUex.s:2773   .rodata:00000000000004a0 _ZTSN12_GLOBAL__N_151TestTimeConstraintFailureIncludesTimeoutInformationE
     /tmp/ccYWNUex.s:2785   .rodata:0000000000000500 _ZTSN12_GLOBAL__N_144TestTimeConstraintFailureIncludesCorrectDataE
     /tmp/ccYWNUex.s:2797   .rodata:0000000000000560 _ZTSN12_GLOBAL__N_135TestTimeConstraintFailsWithSlowTestE
     /tmp/ccYWNUex.s:2809   .rodata:00000000000005c0 _ZTSN12_GLOBAL__N_138TestTimeConstraintSucceedsWithFastTestE
     /tmp/ccYWNUex.s:2832   .rodata._ZTS17RecordingReporter:0000000000000000 _ZTS17RecordingReporter
     /tmp/ccYWNUex.s:2848   .rodata._ZTSN8UnitTest15MemoryOutStreamE:0000000000000000 _ZTSN8UnitTest15MemoryOutStreamE
     /tmp/ccYWNUex.s:2852   .text:0000000000000c36 _Z41__static_initialization_and_destruction_0ii
     /tmp/ccYWNUex.s:2928   .text:0000000000000d32 _GLOBAL__sub_I_TestTimeConstraint.cpp
                           .group:0000000000000000 _ZN8UnitTest12TestReporterC5Ev
                           .group:0000000000000000 _ZN17RecordingReporterC5Ev
                           .group:0000000000000000 _ZN17ScopedCurrentTestC5ERN8UnitTest11TestResultsEPKNS0_11TestDetailsE
                           .group:0000000000000000 _ZN17ScopedCurrentTestD5Ev
                           .group:0000000000000000 _ZN17RecordingReporterD5Ev

UNDEFINED SYMBOLS
__gxx_personality_v0
_ZNSt9basic_iosIcSt11char_traitsIcEEC2Ev
_ZNSt7__cxx1119basic_ostringstreamIcSt11char_traitsIcESaIcEEC2ESt13_Ios_Openmode
_ZNSt7__cxx1112basic_stringIcSt11char_traitsIcESaIcEEC1Ev
_ZNSt7__cxx1119basic_ostringstreamIcSt11char_traitsIcESaIcEED2Ev
_ZNSt9basic_iosIcSt11char_traitsIcEED2Ev
_Unwind_Resume
_ZTVN8UnitTest12TestReporterE
strcpy
_ZN8UnitTest11CurrentTest7ResultsEv
_ZN8UnitTest11CurrentTest7DetailsEv
_ZN8UnitTest4TestC2EPKcS2_S2_i
_ZN8UnitTest11TestResultsC1EPNS_12TestReporterE
_ZN8UnitTest11TestDetailsC1EPKcS2_S2_i
_ZN8UnitTest14TimeConstraintC1EiRKNS_11TestDetailsE
_ZN8UnitTest11TimeHelpers7SleepMsEi
_ZN8UnitTest14TimeConstraintD1Ev
_ZN8UnitTest11TestDetailsC1ERKS0_i
_ZNK8UnitTest11TestResults15GetFailureCountEv
__cxa_begin_catch
_ZN8UnitTest11TestResults13OnTestFailureERKNS_11TestDetailsEPKc
__cxa_end_catch
__stack_chk_fail
strstr
_ZNSt7__cxx1112basic_stringIcSt11char_traitsIcESaIcEED1Ev
_ZdlPv
_ZStlsISt11char_traitsIcEERSt13basic_ostreamIcT_ES5_PKc
_ZNSolsEi
_ZNK8UnitTest15MemoryOutStream7GetTextEv
_ZN8UnitTest4TestD2Ev
_ZN8UnitTest12TestReporterD2Ev
_ZTINSt7__cxx1119basic_ostringstreamIcSt11char_traitsIcESaIcEEE
_ZTISo
_ZTVN10__cxxabiv120__si_class_type_infoE
_ZTIN8UnitTest4TestE
_ZTIN8UnitTest12TestReporterE
__dso_handle
__cxa_atexit
_ZN8UnitTest4Test11GetTestListEv
_ZN8UnitTest9ListAdderC1ERNS_8TestListEPNS_4TestE
