   1              		.file	"testSvf2Csvf.cpp"
   2              		.text
   3              	.Ltext0:
   4              		.section	.rodata
   5              	.LC0:
   6 0000 44656661 		.string	"DefaultSuite"
   6      756C7453 
   6      75697465 
   6      00
   7              		.section	.text._ZN13UnitTestSuite12GetSuiteNameEv,"axG",@progbits,_ZN13UnitTestSuite12GetSuiteName
   8              		.weak	_ZN13UnitTestSuite12GetSuiteNameEv
  10              	_ZN13UnitTestSuite12GetSuiteNameEv:
  11              	.LFB0:
  12              		.file 1 "/home/shubham/20140524/makestuff/libs/libutpp/TestSuite.h"
   1:/home/shubham/20140524/makestuff/libs/libutpp/TestSuite.h **** #ifndef UNITTEST_TESTSUITE_H
   2:/home/shubham/20140524/makestuff/libs/libutpp/TestSuite.h **** #define UNITTEST_TESTSUITE_H
   3:/home/shubham/20140524/makestuff/libs/libutpp/TestSuite.h **** 
   4:/home/shubham/20140524/makestuff/libs/libutpp/TestSuite.h **** namespace UnitTestSuite {
   5:/home/shubham/20140524/makestuff/libs/libutpp/TestSuite.h **** 
   6:/home/shubham/20140524/makestuff/libs/libutpp/TestSuite.h ****     inline char const* GetSuiteName ()
   7:/home/shubham/20140524/makestuff/libs/libutpp/TestSuite.h ****     {
  13              		.loc 1 7 0
  14              		.cfi_startproc
  15 0000 55       		pushq	%rbp
  16              		.cfi_def_cfa_offset 16
  17              		.cfi_offset 6, -16
  18 0001 4889E5   		movq	%rsp, %rbp
  19              		.cfi_def_cfa_register 6
   8:/home/shubham/20140524/makestuff/libs/libutpp/TestSuite.h ****         return "DefaultSuite";
  20              		.loc 1 8 0
  21 0004 B8000000 		movl	$.LC0, %eax
  21      00
   9:/home/shubham/20140524/makestuff/libs/libutpp/TestSuite.h ****     }
  22              		.loc 1 9 0
  23 0009 5D       		popq	%rbp
  24              		.cfi_def_cfa 7, 8
  25 000a C3       		ret
  26              		.cfi_endproc
  27              	.LFE0:
  29              		.section	.text._ZN8UnitTest15MemoryOutStreamC1Ev,"axG",@progbits,_ZN8UnitTest15MemoryOutStreamC1Ev
  30              		.align 2
  31              		.weak	_ZN8UnitTest15MemoryOutStreamC1Ev
  33              	_ZN8UnitTest15MemoryOutStreamC1Ev:
  34              	.LFB1057:
  35              		.file 2 "/home/shubham/20140524/makestuff/libs/libutpp/MemoryOutStream.h"
   1:/home/shubham/20140524/makestuff/libs/libutpp/MemoryOutStream.h **** #ifndef UNITTEST_MEMORYOUTSTREAM_H
   2:/home/shubham/20140524/makestuff/libs/libutpp/MemoryOutStream.h **** #define UNITTEST_MEMORYOUTSTREAM_H
   3:/home/shubham/20140524/makestuff/libs/libutpp/MemoryOutStream.h **** 
   4:/home/shubham/20140524/makestuff/libs/libutpp/MemoryOutStream.h **** #include "Config.h"
   5:/home/shubham/20140524/makestuff/libs/libutpp/MemoryOutStream.h **** 
   6:/home/shubham/20140524/makestuff/libs/libutpp/MemoryOutStream.h **** #ifndef UNITTEST_USE_CUSTOM_STREAMS
   7:/home/shubham/20140524/makestuff/libs/libutpp/MemoryOutStream.h **** 
   8:/home/shubham/20140524/makestuff/libs/libutpp/MemoryOutStream.h **** #include <sstream>
   9:/home/shubham/20140524/makestuff/libs/libutpp/MemoryOutStream.h **** 
  10:/home/shubham/20140524/makestuff/libs/libutpp/MemoryOutStream.h **** namespace UnitTest
  11:/home/shubham/20140524/makestuff/libs/libutpp/MemoryOutStream.h **** {
  12:/home/shubham/20140524/makestuff/libs/libutpp/MemoryOutStream.h **** 
  13:/home/shubham/20140524/makestuff/libs/libutpp/MemoryOutStream.h **** class MemoryOutStream : public std::ostringstream
  14:/home/shubham/20140524/makestuff/libs/libutpp/MemoryOutStream.h **** {
  15:/home/shubham/20140524/makestuff/libs/libutpp/MemoryOutStream.h **** public:
  16:/home/shubham/20140524/makestuff/libs/libutpp/MemoryOutStream.h ****     MemoryOutStream() {}
  36              		.loc 2 16 0
  37              		.cfi_startproc
  38              		.cfi_personality 0x3,__gxx_personality_v0
  39              		.cfi_lsda 0x3,.LLSDA1057
  40 0000 55       		pushq	%rbp
  41              		.cfi_def_cfa_offset 16
  42              		.cfi_offset 6, -16
  43 0001 4889E5   		movq	%rsp, %rbp
  44              		.cfi_def_cfa_register 6
  45 0004 53       		pushq	%rbx
  46 0005 4883EC18 		subq	$24, %rsp
  47              		.cfi_offset 3, -24
  48 0009 48897DE8 		movq	%rdi, -24(%rbp)
  49              	.LBB2:
  50              		.loc 2 16 0
  51 000d 488B45E8 		movq	-24(%rbp), %rax
  52 0011 48059000 		addq	$144, %rax
  52      0000
  53 0017 4889C7   		movq	%rax, %rdi
  54              	.LEHB0:
  55 001a E8000000 		call	_ZNSt9basic_iosIcSt11char_traitsIcEEC2Ev
  55      00
  56              	.LEHE0:
  57 001f B9000000 		movl	$_ZTTN8UnitTest15MemoryOutStreamE+8, %ecx
  57      00
  58 0024 488B45E8 		movq	-24(%rbp), %rax
  59 0028 BA100000 		movl	$16, %edx
  59      00
  60 002d 4889CE   		movq	%rcx, %rsi
  61 0030 4889C7   		movq	%rax, %rdi
  62              	.LEHB1:
  63 0033 E8000000 		call	_ZNSt7__cxx1119basic_ostringstreamIcSt11char_traitsIcESaIcEEC2ESt13_Ios_Openmode
  63      00
  64              	.LEHE1:
  65              		.loc 2 16 0 is_stmt 0 discriminator 9
  66 0038 BA000000 		movl	$_ZTVN8UnitTest15MemoryOutStreamE+24, %edx
  66      00
  67 003d 488B45E8 		movq	-24(%rbp), %rax
  68 0041 488910   		movq	%rdx, (%rax)
  69 0044 BA900000 		movl	$144, %edx
  69      00
  70 0049 488B45E8 		movq	-24(%rbp), %rax
  71 004d 4801D0   		addq	%rdx, %rax
  72 0050 BA000000 		movl	$_ZTVN8UnitTest15MemoryOutStreamE+64, %edx
  72      00
  73 0055 488910   		movq	%rdx, (%rax)
  74 0058 488B45E8 		movq	-24(%rbp), %rax
  75 005c 4883C070 		addq	$112, %rax
  76 0060 4889C7   		movq	%rax, %rdi
  77              	.LEHB2:
  78 0063 E8000000 		call	_ZNSt7__cxx1112basic_stringIcSt11char_traitsIcESaIcEEC1Ev
  78      00
  79              	.LEHE2:
  80              	.LBE2:
  81              		.loc 2 16 0
  82 0068 EB39     		jmp	.L9
  83              	.L7:
  84 006a 4889C3   		movq	%rax, %rbx
  85              	.LBB3:
  86 006d BA000000 		movl	$_ZTTN8UnitTest15MemoryOutStreamE+8, %edx
  86      00
  87 0072 488B45E8 		movq	-24(%rbp), %rax
  88 0076 4889D6   		movq	%rdx, %rsi
  89 0079 4889C7   		movq	%rax, %rdi
  90 007c E8000000 		call	_ZNSt7__cxx1119basic_ostringstreamIcSt11char_traitsIcESaIcEED2Ev
  90      00
  91 0081 EB03     		jmp	.L8
  92              	.L6:
  93 0083 4889C3   		movq	%rax, %rbx
  94              	.L8:
  95              		.loc 2 16 0 discriminator 28
  96 0086 488B45E8 		movq	-24(%rbp), %rax
  97 008a 48059000 		addq	$144, %rax
  97      0000
  98 0090 4889C7   		movq	%rax, %rdi
  99 0093 E8000000 		call	_ZNSt9basic_iosIcSt11char_traitsIcEED2Ev
  99      00
 100 0098 4889D8   		movq	%rbx, %rax
 101 009b 4889C7   		movq	%rax, %rdi
 102              	.LEHB3:
 103 009e E8000000 		call	_Unwind_Resume
 103      00
 104              	.LEHE3:
 105              	.L9:
 106              	.LBE3:
 107              		.loc 2 16 0
 108 00a3 4883C418 		addq	$24, %rsp
 109 00a7 5B       		popq	%rbx
 110 00a8 5D       		popq	%rbp
 111              		.cfi_def_cfa 7, 8
 112 00a9 C3       		ret
 113              		.cfi_endproc
 114              	.LFE1057:
 115              		.globl	__gxx_personality_v0
 116              		.section	.gcc_except_table._ZN8UnitTest15MemoryOutStreamC1Ev,"aG",@progbits,_ZN8UnitTest15MemoryOu
 117              	.LLSDA1057:
 118 0000 FF       		.byte	0xff
 119 0001 FF       		.byte	0xff
 120 0002 01       		.byte	0x1
 121 0003 12       		.uleb128 .LLSDACSE1057-.LLSDACSB1057
 122              	.LLSDACSB1057:
 123 0004 1A       		.uleb128 .LEHB0-.LFB1057
 124 0005 05       		.uleb128 .LEHE0-.LEHB0
 125 0006 00       		.uleb128 0
 126 0007 00       		.uleb128 0
 127 0008 33       		.uleb128 .LEHB1-.LFB1057
 128 0009 05       		.uleb128 .LEHE1-.LEHB1
 129 000a 8301     		.uleb128 .L6-.LFB1057
 130 000c 00       		.uleb128 0
 131 000d 63       		.uleb128 .LEHB2-.LFB1057
 132 000e 05       		.uleb128 .LEHE2-.LEHB2
 133 000f 6A       		.uleb128 .L7-.LFB1057
 134 0010 00       		.uleb128 0
 135 0011 9E01     		.uleb128 .LEHB3-.LFB1057
 136 0013 05       		.uleb128 .LEHE3-.LEHB3
 137 0014 00       		.uleb128 0
 138 0015 00       		.uleb128 0
 139              	.LLSDACSE1057:
 140              		.section	.text._ZN8UnitTest15MemoryOutStreamC1Ev,"axG",@progbits,_ZN8UnitTest15MemoryOutStreamC1Ev
 142              		.section	.rodata
 143              	.LC1:
 144 000d 25303258 		.string	"%02X"
 144      00
 145 0012 00000000 		.align 8
 145      0000
 146              	.LC2:
 147 0018 556E6861 		.string	"Unhandled exception in CHECK_EQUAL(FL_SUCCESS, fStatus)"
 147      6E646C65 
 147      64206578 
 147      63657074 
 147      696F6E20 
 148              		.align 8
 149              	.LC3:
 150 0050 556E6861 		.string	"Unhandled exception in CHECK_EQUAL(expectedLength, buf->length)"
 150      6E646C65 
 150      64206578 
 150      63657074 
 150      696F6E20 
 151              		.align 8
 152              	.LC4:
 153 0090 556E6861 		.string	"Unhandled exception in CHECK_EQUAL(expected, result)"
 153      6E646C65 
 153      64206578 
 153      63657074 
 153      696F6E20 
 154              		.text
 155              		.globl	_Z13testReadBytesP6BufferPKc
 157              	_Z13testReadBytesP6BufferPKc:
 158              	.LFB1073:
 159              		.file 3 "testSvf2Csvf.cpp"
   1:testSvf2Csvf.cpp **** /*
   2:testSvf2Csvf.cpp ****  * Copyright (C) 2009-2012 Chris McClelland
   3:testSvf2Csvf.cpp ****  *
   4:testSvf2Csvf.cpp ****  * This program is free software: you can redistribute it and/or modify
   5:testSvf2Csvf.cpp ****  * it under the terms of the GNU Lesser General Public License as published by
   6:testSvf2Csvf.cpp ****  * the Free Software Foundation, either version 3 of the License, or
   7:testSvf2Csvf.cpp ****  * (at your option) any later version.
   8:testSvf2Csvf.cpp ****  *
   9:testSvf2Csvf.cpp ****  * This program is distributed in the hope that it will be useful,
  10:testSvf2Csvf.cpp ****  * but WITHOUT ANY WARRANTY; without even the implied warranty of
  11:testSvf2Csvf.cpp ****  * MERCHANTABILITY or FITNESS FOR A PARTICULAR PURPOSE.  See the
  12:testSvf2Csvf.cpp ****  * GNU Lesser General Public License for more details.
  13:testSvf2Csvf.cpp ****  *
  14:testSvf2Csvf.cpp ****  * You should have received a copy of the GNU Lesser General Public License
  15:testSvf2Csvf.cpp ****  * along with this program.  If not, see <http://www.gnu.org/licenses/>.
  16:testSvf2Csvf.cpp ****  */
  17:testSvf2Csvf.cpp **** #include <cstdio>
  18:testSvf2Csvf.cpp **** #include <cstring>
  19:testSvf2Csvf.cpp **** #include <UnitTest++.h>
  20:testSvf2Csvf.cpp **** #include <makestuff.h>
  21:testSvf2Csvf.cpp **** #include <libbuffer.h>
  22:testSvf2Csvf.cpp **** #include "../svf2csvf.h"
  23:testSvf2Csvf.cpp **** #include "../xsvf.h"
  24:testSvf2Csvf.cpp **** 
  25:testSvf2Csvf.cpp **** using namespace std;
  26:testSvf2Csvf.cpp **** 
  27:testSvf2Csvf.cpp **** void testReadBytes(struct Buffer *buf, const char *expected) {
 160              		.loc 3 27 0 is_stmt 1
 161              		.cfi_startproc
 162              		.cfi_personality 0x3,__gxx_personality_v0
 163              		.cfi_lsda 0x3,.LLSDA1073
 164 0000 55       		pushq	%rbp
 165              		.cfi_def_cfa_offset 16
 166              		.cfi_offset 6, -16
 167 0001 4889E5   		movq	%rsp, %rbp
 168              		.cfi_def_cfa_register 6
 169 0004 53       		pushq	%rbx
 170 0005 4881EC58 		subq	$1112, %rsp
 170      040000
 171              		.cfi_offset 3, -24
 172 000c 4889BDA8 		movq	%rdi, -1112(%rbp)
 172      FBFFFF
 173 0013 4889B5A0 		movq	%rsi, -1120(%rbp)
 173      FBFFFF
 174              		.loc 3 27 0
 175 001a 64488B04 		movq	%fs:40, %rax
 175      25280000 
 175      00
 176 0023 488945E8 		movq	%rax, -24(%rbp)
 177 0027 31C0     		xorl	%eax, %eax
  28:testSvf2Csvf.cpp **** 	FLStatus fStatus;
  29:testSvf2Csvf.cpp **** 	char result[1024];
  30:testSvf2Csvf.cpp **** 	const uint32 expectedLength = (uint32)strlen(expected)/2;
 178              		.loc 3 30 0
 179 0029 488B85A0 		movq	-1120(%rbp), %rax
 179      FBFFFF
 180 0030 4889C7   		movq	%rax, %rdi
 181 0033 E8000000 		call	strlen
 181      00
 182 0038 D1E8     		shrl	%eax
 183 003a 8985B4FB 		movl	%eax, -1100(%rbp)
 183      FFFF
  31:testSvf2Csvf.cpp **** 	bufZeroLength(buf);
 184              		.loc 3 31 0
 185 0040 488B85A8 		movq	-1112(%rbp), %rax
 185      FBFFFF
 186 0047 4889C7   		movq	%rax, %rdi
 187              	.LEHB4:
 188 004a E8000000 		call	bufZeroLength
 188      00
  32:testSvf2Csvf.cpp **** 	fStatus = readBytes(buf, expected, NULL);
 189              		.loc 3 32 0
 190 004f 488B8DA0 		movq	-1120(%rbp), %rcx
 190      FBFFFF
 191 0056 488B85A8 		movq	-1112(%rbp), %rax
 191      FBFFFF
 192 005d BA000000 		movl	$0, %edx
 192      00
 193 0062 4889CE   		movq	%rcx, %rsi
 194 0065 4889C7   		movq	%rax, %rdi
 195 0068 E8000000 		call	readBytes
 195      00
 196              	.LEHE4:
 197 006d 8985B0FB 		movl	%eax, -1104(%rbp)
 197      FFFF
 198              	.LEHB5:
  33:testSvf2Csvf.cpp **** 	CHECK_EQUAL(FL_SUCCESS, fStatus);
 199              		.loc 3 33 0
 200 0073 E8000000 		call	_ZN8UnitTest11CurrentTest7DetailsEv
 200      00
 201 0078 488B08   		movq	(%rax), %rcx
 202 007b 488D85C0 		leaq	-1088(%rbp), %rax
 202      FBFFFF
 203 0082 BA210000 		movl	$33, %edx
 203      00
 204 0087 4889CE   		movq	%rcx, %rsi
 205 008a 4889C7   		movq	%rax, %rdi
 206 008d E8000000 		call	_ZN8UnitTest11TestDetailsC1ERKS0_i
 206      00
 207              	.LEHE5:
 208              		.loc 3 33 0 is_stmt 0 discriminator 2
 209 0092 C785B8FB 		movl	$0, -1096(%rbp)
 209      FFFF0000 
 209      0000
 210              	.LEHB6:
 211 009c E8000000 		call	_ZN8UnitTest11CurrentTest7ResultsEv
 211      00
 212 00a1 488B00   		movq	(%rax), %rax
 213 00a4 488D8DC0 		leaq	-1088(%rbp), %rcx
 213      FBFFFF
 214 00ab 488D95B0 		leaq	-1104(%rbp), %rdx
 214      FBFFFF
 215 00b2 488DB5B8 		leaq	-1096(%rbp), %rsi
 215      FBFFFF
 216 00b9 4889C7   		movq	%rax, %rdi
 217 00bc E8000000 		call	_ZN8UnitTest10CheckEqualI8FLStatusS1_EEvRNS_11TestResultsERKT_RKT0_RKNS_11TestDetailsE
 217      00
 218              	.LEHE6:
 219              	.L15:
 220              	.LEHB7:
  34:testSvf2Csvf.cpp **** 	CHECK_EQUAL(expectedLength, buf->length);
 221              		.loc 3 34 0 is_stmt 1
 222 00c1 E8000000 		call	_ZN8UnitTest11CurrentTest7DetailsEv
 222      00
 223 00c6 488B08   		movq	(%rax), %rcx
 224 00c9 488D85C0 		leaq	-1088(%rbp), %rax
 224      FBFFFF
 225 00d0 BA220000 		movl	$34, %edx
 225      00
 226 00d5 4889CE   		movq	%rcx, %rsi
 227 00d8 4889C7   		movq	%rax, %rdi
 228 00db E8000000 		call	_ZN8UnitTest11TestDetailsC1ERKS0_i
 228      00
 229              		.loc 3 34 0 is_stmt 0 discriminator 2
 230 00e0 488B85A8 		movq	-1112(%rbp), %rax
 230      FBFFFF
 231 00e7 488D5808 		leaq	8(%rax), %rbx
 232 00eb E8000000 		call	_ZN8UnitTest11CurrentTest7ResultsEv
 232      00
 233 00f0 488B00   		movq	(%rax), %rax
 234 00f3 488D95C0 		leaq	-1088(%rbp), %rdx
 234      FBFFFF
 235 00fa 488DB5B4 		leaq	-1100(%rbp), %rsi
 235      FBFFFF
 236 0101 4889D1   		movq	%rdx, %rcx
 237 0104 4889DA   		movq	%rbx, %rdx
 238 0107 4889C7   		movq	%rax, %rdi
 239 010a E8000000 		call	_ZN8UnitTest10CheckEqualIjmEEvRNS_11TestResultsERKT_RKT0_RKNS_11TestDetailsE
 239      00
 240              	.LEHE7:
 241              	.L18:
 242              	.LBB4:
  35:testSvf2Csvf.cpp **** 	for ( uint32 i = 0; i < 2*buf->length; i++ ) {
 243              		.loc 3 35 0 is_stmt 1
 244 010f C785BCFB 		movl	$0, -1092(%rbp)
 244      FFFF0000 
 244      0000
 245              	.L12:
 246              		.loc 3 35 0 is_stmt 0 discriminator 3
 247 0119 8B95BCFB 		movl	-1092(%rbp), %edx
 247      FFFF
 248 011f 488B85A8 		movq	-1112(%rbp), %rax
 248      FBFFFF
 249 0126 488B4008 		movq	8(%rax), %rax
 250 012a 4801C0   		addq	%rax, %rax
 251 012d 4839C2   		cmpq	%rax, %rdx
 252 0130 734A     		jnb	.L11
  36:testSvf2Csvf.cpp **** 		sprintf(result + 2*i, "%02X", buf->data[i]);
 253              		.loc 3 36 0 is_stmt 1 discriminator 2
 254 0132 488B85A8 		movq	-1112(%rbp), %rax
 254      FBFFFF
 255 0139 488B10   		movq	(%rax), %rdx
 256 013c 8B85BCFB 		movl	-1092(%rbp), %eax
 256      FFFF
 257 0142 4801D0   		addq	%rdx, %rax
 258 0145 0FB600   		movzbl	(%rax), %eax
 259 0148 0FB6C0   		movzbl	%al, %eax
 260 014b 8B95BCFB 		movl	-1092(%rbp), %edx
 260      FFFF
 261 0151 01D2     		addl	%edx, %edx
 262 0153 89D1     		movl	%edx, %ecx
 263 0155 488D95E0 		leaq	-1056(%rbp), %rdx
 263      FBFFFF
 264 015c 4801D1   		addq	%rdx, %rcx
 265 015f 89C2     		movl	%eax, %edx
 266 0161 BE000000 		movl	$.LC1, %esi
 266      00
 267 0166 4889CF   		movq	%rcx, %rdi
 268 0169 B8000000 		movl	$0, %eax
 268      00
 269 016e E8000000 		call	sprintf
 269      00
  35:testSvf2Csvf.cpp **** 	for ( uint32 i = 0; i < 2*buf->length; i++ ) {
 270              		.loc 3 35 0 discriminator 2
 271 0173 8385BCFB 		addl	$1, -1092(%rbp)
 271      FFFF01
 272 017a EB9D     		jmp	.L12
 273              	.L11:
 274              	.LBE4:
  37:testSvf2Csvf.cpp **** 	}
  38:testSvf2Csvf.cpp **** 	result[2*buf->length] = '\0';
 275              		.loc 3 38 0
 276 017c 488B85A8 		movq	-1112(%rbp), %rax
 276      FBFFFF
 277 0183 488B4008 		movq	8(%rax), %rax
 278 0187 4801C0   		addq	%rax, %rax
 279 018a C68405E0 		movb	$0, -1056(%rbp,%rax)
 279      FBFFFF00 
 280              	.LEHB8:
  39:testSvf2Csvf.cpp **** 	CHECK_EQUAL(expected, result);
 281              		.loc 3 39 0
 282 0192 E8000000 		call	_ZN8UnitTest11CurrentTest7DetailsEv
 282      00
 283 0197 488B08   		movq	(%rax), %rcx
 284 019a 488D85C0 		leaq	-1088(%rbp), %rax
 284      FBFFFF
 285 01a1 BA270000 		movl	$39, %edx
 285      00
 286 01a6 4889CE   		movq	%rcx, %rsi
 287 01a9 4889C7   		movq	%rax, %rdi
 288 01ac E8000000 		call	_ZN8UnitTest11TestDetailsC1ERKS0_i
 288      00
 289              		.loc 3 39 0 is_stmt 0 discriminator 2
 290 01b1 E8000000 		call	_ZN8UnitTest11CurrentTest7ResultsEv
 290      00
 291 01b6 488B00   		movq	(%rax), %rax
 292 01b9 488D8DC0 		leaq	-1088(%rbp), %rcx
 292      FBFFFF
 293 01c0 488D95E0 		leaq	-1056(%rbp), %rdx
 293      FBFFFF
 294 01c7 488BB5A0 		movq	-1120(%rbp), %rsi
 294      FBFFFF
 295 01ce 4889C7   		movq	%rax, %rdi
 296 01d1 E8000000 		call	_ZN8UnitTest10CheckEqualERNS_11TestResultsEPKcPcRKNS_11TestDetailsE
 296      00
 297              	.LEHE8:
  40:testSvf2Csvf.cpp **** }
 298              		.loc 3 40 0 is_stmt 1
 299 01d6 E9280100 		jmp	.L10
 299      00
 300              	.L25:
 301 01db EB00     		jmp	.L14
 302              	.L24:
 303              	.L14:
  33:testSvf2Csvf.cpp **** 	CHECK_EQUAL(expectedLength, buf->length);
 304              		.loc 3 33 0
 305 01dd 4889C7   		movq	%rax, %rdi
 306 01e0 E8000000 		call	__cxa_begin_catch
 306      00
 307              	.LEHB9:
 308 01e5 E8000000 		call	_ZN8UnitTest11CurrentTest7DetailsEv
 308      00
 309 01ea 488B08   		movq	(%rax), %rcx
 310 01ed 488D85C0 		leaq	-1088(%rbp), %rax
 310      FBFFFF
 311 01f4 BA210000 		movl	$33, %edx
 311      00
 312 01f9 4889CE   		movq	%rcx, %rsi
 313 01fc 4889C7   		movq	%rax, %rdi
 314 01ff E8000000 		call	_ZN8UnitTest11TestDetailsC1ERKS0_i
 314      00
  33:testSvf2Csvf.cpp **** 	CHECK_EQUAL(expectedLength, buf->length);
 315              		.loc 3 33 0 is_stmt 0 discriminator 10
 316 0204 E8000000 		call	_ZN8UnitTest11CurrentTest7ResultsEv
 316      00
 317 0209 488B00   		movq	(%rax), %rax
 318 020c 488D8DC0 		leaq	-1088(%rbp), %rcx
 318      FBFFFF
 319 0213 BA000000 		movl	$.LC2, %edx
 319      00
 320 0218 4889CE   		movq	%rcx, %rsi
 321 021b 4889C7   		movq	%rax, %rdi
 322 021e E8000000 		call	_ZN8UnitTest11TestResults13OnTestFailureERKNS_11TestDetailsEPKc
 322      00
 323              	.LEHE9:
 324              	.LEHB10:
  33:testSvf2Csvf.cpp **** 	CHECK_EQUAL(expectedLength, buf->length);
 325              		.loc 3 33 0 discriminator 14
 326 0223 E8000000 		call	__cxa_end_catch
 326      00
 327              	.LEHE10:
 328 0228 E994FEFF 		jmp	.L15
 328      FF
 329              	.L26:
 330 022d 4889C3   		movq	%rax, %rbx
  33:testSvf2Csvf.cpp **** 	CHECK_EQUAL(expectedLength, buf->length);
 331              		.loc 3 33 0
 332 0230 E8000000 		call	__cxa_end_catch
 332      00
 333 0235 4889D8   		movq	%rbx, %rax
 334 0238 4889C7   		movq	%rax, %rdi
 335              	.LEHB11:
 336 023b E8000000 		call	_Unwind_Resume
 336      00
 337              	.LEHE11:
 338              	.L27:
  34:testSvf2Csvf.cpp **** 	for ( uint32 i = 0; i < 2*buf->length; i++ ) {
 339              		.loc 3 34 0 is_stmt 1
 340 0240 4889C7   		movq	%rax, %rdi
 341 0243 E8000000 		call	__cxa_begin_catch
 341      00
 342              	.LEHB12:
 343 0248 E8000000 		call	_ZN8UnitTest11CurrentTest7DetailsEv
 343      00
 344 024d 488B08   		movq	(%rax), %rcx
 345 0250 488D85C0 		leaq	-1088(%rbp), %rax
 345      FBFFFF
 346 0257 BA220000 		movl	$34, %edx
 346      00
 347 025c 4889CE   		movq	%rcx, %rsi
 348 025f 4889C7   		movq	%rax, %rdi
 349 0262 E8000000 		call	_ZN8UnitTest11TestDetailsC1ERKS0_i
 349      00
  34:testSvf2Csvf.cpp **** 	for ( uint32 i = 0; i < 2*buf->length; i++ ) {
 350              		.loc 3 34 0 is_stmt 0 discriminator 10
 351 0267 E8000000 		call	_ZN8UnitTest11CurrentTest7ResultsEv
 351      00
 352 026c 488B00   		movq	(%rax), %rax
 353 026f 488D8DC0 		leaq	-1088(%rbp), %rcx
 353      FBFFFF
 354 0276 BA000000 		movl	$.LC3, %edx
 354      00
 355 027b 4889CE   		movq	%rcx, %rsi
 356 027e 4889C7   		movq	%rax, %rdi
 357 0281 E8000000 		call	_ZN8UnitTest11TestResults13OnTestFailureERKNS_11TestDetailsEPKc
 357      00
 358              	.LEHE12:
 359              	.LEHB13:
  34:testSvf2Csvf.cpp **** 	for ( uint32 i = 0; i < 2*buf->length; i++ ) {
 360              		.loc 3 34 0 discriminator 14
 361 0286 E8000000 		call	__cxa_end_catch
 361      00
 362              	.LEHE13:
 363 028b E97FFEFF 		jmp	.L18
 363      FF
 364              	.L28:
 365 0290 4889C3   		movq	%rax, %rbx
  34:testSvf2Csvf.cpp **** 	for ( uint32 i = 0; i < 2*buf->length; i++ ) {
 366              		.loc 3 34 0
 367 0293 E8000000 		call	__cxa_end_catch
 367      00
 368 0298 4889D8   		movq	%rbx, %rax
 369 029b 4889C7   		movq	%rax, %rdi
 370              	.LEHB14:
 371 029e E8000000 		call	_Unwind_Resume
 371      00
 372              	.LEHE14:
 373              	.L29:
  39:testSvf2Csvf.cpp **** }
 374              		.loc 3 39 0 is_stmt 1
 375 02a3 4889C7   		movq	%rax, %rdi
 376 02a6 E8000000 		call	__cxa_begin_catch
 376      00
 377              	.LEHB15:
 378 02ab E8000000 		call	_ZN8UnitTest11CurrentTest7DetailsEv
 378      00
 379 02b0 488B08   		movq	(%rax), %rcx
 380 02b3 488D85C0 		leaq	-1088(%rbp), %rax
 380      FBFFFF
 381 02ba BA270000 		movl	$39, %edx
 381      00
 382 02bf 4889CE   		movq	%rcx, %rsi
 383 02c2 4889C7   		movq	%rax, %rdi
 384 02c5 E8000000 		call	_ZN8UnitTest11TestDetailsC1ERKS0_i
 384      00
  39:testSvf2Csvf.cpp **** }
 385              		.loc 3 39 0 is_stmt 0 discriminator 10
 386 02ca E8000000 		call	_ZN8UnitTest11CurrentTest7ResultsEv
 386      00
 387 02cf 488B00   		movq	(%rax), %rax
 388 02d2 488D8DC0 		leaq	-1088(%rbp), %rcx
 388      FBFFFF
 389 02d9 BA000000 		movl	$.LC4, %edx
 389      00
 390 02de 4889CE   		movq	%rcx, %rsi
 391 02e1 4889C7   		movq	%rax, %rdi
 392 02e4 E8000000 		call	_ZN8UnitTest11TestResults13OnTestFailureERKNS_11TestDetailsEPKc
 392      00
 393              	.LEHE15:
 394              	.LEHB16:
  39:testSvf2Csvf.cpp **** }
 395              		.loc 3 39 0 discriminator 14
 396 02e9 E8000000 		call	__cxa_end_catch
 396      00
 397              	.LEHE16:
 398              		.loc 3 40 0 is_stmt 1 discriminator 14
 399 02ee EB13     		jmp	.L10
 400              	.L30:
 401 02f0 4889C3   		movq	%rax, %rbx
  39:testSvf2Csvf.cpp **** }
 402              		.loc 3 39 0
 403 02f3 E8000000 		call	__cxa_end_catch
 403      00
 404 02f8 4889D8   		movq	%rbx, %rax
 405 02fb 4889C7   		movq	%rax, %rdi
 406              	.LEHB17:
 407 02fe E8000000 		call	_Unwind_Resume
 407      00
 408              	.LEHE17:
 409              	.L10:
 410              		.loc 3 40 0
 411 0303 488B45E8 		movq	-24(%rbp), %rax
 412 0307 64483304 		xorq	%fs:40, %rax
 412      25280000 
 412      00
 413 0310 7405     		je	.L23
 414 0312 E8000000 		call	__stack_chk_fail
 414      00
 415              	.L23:
 416 0317 4881C458 		addq	$1112, %rsp
 416      040000
 417 031e 5B       		popq	%rbx
 418 031f 5D       		popq	%rbp
 419              		.cfi_def_cfa 7, 8
 420 0320 C3       		ret
 421              		.cfi_endproc
 422              	.LFE1073:
 423              		.section	.gcc_except_table,"a",@progbits
 424              		.align 4
 425              	.LLSDA1073:
 426 0000 FF       		.byte	0xff
 427 0001 03       		.byte	0x3
 428 0002 55       		.uleb128 .LLSDATT1073-.LLSDATTD1073
 429              	.LLSDATTD1073:
 430 0003 01       		.byte	0x1
 431 0004 4B       		.uleb128 .LLSDACSE1073-.LLSDACSB1073
 432              	.LLSDACSB1073:
 433 0005 4A       		.uleb128 .LEHB4-.LFB1073
 434 0006 23       		.uleb128 .LEHE4-.LEHB4
 435 0007 00       		.uleb128 0
 436 0008 00       		.uleb128 0
 437 0009 73       		.uleb128 .LEHB5-.LFB1073
 438 000a 1F       		.uleb128 .LEHE5-.LEHB5
 439 000b DD03     		.uleb128 .L24-.LFB1073
 440 000d 01       		.uleb128 0x1
 441 000e 9C01     		.uleb128 .LEHB6-.LFB1073
 442 0010 25       		.uleb128 .LEHE6-.LEHB6
 443 0011 DB03     		.uleb128 .L25-.LFB1073
 444 0013 03       		.uleb128 0x3
 445 0014 C101     		.uleb128 .LEHB7-.LFB1073
 446 0016 4E       		.uleb128 .LEHE7-.LEHB7
 447 0017 C004     		.uleb128 .L27-.LFB1073
 448 0019 01       		.uleb128 0x1
 449 001a 9203     		.uleb128 .LEHB8-.LFB1073
 450 001c 44       		.uleb128 .LEHE8-.LEHB8
 451 001d A305     		.uleb128 .L29-.LFB1073
 452 001f 01       		.uleb128 0x1
 453 0020 E503     		.uleb128 .LEHB9-.LFB1073
 454 0022 3E       		.uleb128 .LEHE9-.LEHB9
 455 0023 AD04     		.uleb128 .L26-.LFB1073
 456 0025 00       		.uleb128 0
 457 0026 A304     		.uleb128 .LEHB10-.LFB1073
 458 0028 05       		.uleb128 .LEHE10-.LEHB10
 459 0029 00       		.uleb128 0
 460 002a 00       		.uleb128 0
 461 002b BB04     		.uleb128 .LEHB11-.LFB1073
 462 002d 05       		.uleb128 .LEHE11-.LEHB11
 463 002e 00       		.uleb128 0
 464 002f 00       		.uleb128 0
 465 0030 C804     		.uleb128 .LEHB12-.LFB1073
 466 0032 3E       		.uleb128 .LEHE12-.LEHB12
 467 0033 9005     		.uleb128 .L28-.LFB1073
 468 0035 00       		.uleb128 0
 469 0036 8605     		.uleb128 .LEHB13-.LFB1073
 470 0038 05       		.uleb128 .LEHE13-.LEHB13
 471 0039 00       		.uleb128 0
 472 003a 00       		.uleb128 0
 473 003b 9E05     		.uleb128 .LEHB14-.LFB1073
 474 003d 05       		.uleb128 .LEHE14-.LEHB14
 475 003e 00       		.uleb128 0
 476 003f 00       		.uleb128 0
 477 0040 AB05     		.uleb128 .LEHB15-.LFB1073
 478 0042 3E       		.uleb128 .LEHE15-.LEHB15
 479 0043 F005     		.uleb128 .L30-.LFB1073
 480 0045 00       		.uleb128 0
 481 0046 E905     		.uleb128 .LEHB16-.LFB1073
 482 0048 05       		.uleb128 .LEHE16-.LEHB16
 483 0049 00       		.uleb128 0
 484 004a 00       		.uleb128 0
 485 004b FE05     		.uleb128 .LEHB17-.LFB1073
 486 004d 05       		.uleb128 .LEHE17-.LEHB17
 487 004e 00       		.uleb128 0
 488 004f 00       		.uleb128 0
 489              	.LLSDACSE1073:
 490 0050 01       		.byte	0x1
 491 0051 00       		.byte	0
 492 0052 00       		.byte	0
 493 0053 7D       		.byte	0x7d
 494              		.align 4
 495 0054 00000000 		.long	0
 496              	
 497              	.LLSDATT1073:
 498              		.text
 500              		.section	.rodata
 501              	.LC5:
 502 00c5 74657374 		.string	"testSvf2Csvf.cpp"
 502      53766632 
 502      43737666 
 502      2E637070 
 502      00
 503              	.LC6:
 504 00d6 46504741 		.string	"FPGALink_testReadBytes"
 504      4C696E6B 
 504      5F746573 
 504      74526561 
 504      64427974 
 505              		.section	.text._ZN26TestFPGALink_testReadBytesC2Ev,"axG",@progbits,_ZN26TestFPGALink_testReadBytes
 506              		.align 2
 507              		.weak	_ZN26TestFPGALink_testReadBytesC2Ev
 509              	_ZN26TestFPGALink_testReadBytesC2Ev:
 510              	.LFB1075:
  41:testSvf2Csvf.cpp **** 
  42:testSvf2Csvf.cpp **** TEST(FPGALink_testReadBytes) {
 511              		.loc 3 42 0
 512              		.cfi_startproc
 513 0000 55       		pushq	%rbp
 514              		.cfi_def_cfa_offset 16
 515              		.cfi_offset 6, -16
 516 0001 4889E5   		movq	%rsp, %rbp
 517              		.cfi_def_cfa_register 6
 518 0004 4883EC10 		subq	$16, %rsp
 519 0008 48897DF8 		movq	%rdi, -8(%rbp)
 520              	.LBB5:
 521              		.loc 3 42 0
 522 000c E8000000 		call	_ZN13UnitTestSuite12GetSuiteNameEv
 522      00
 523 0011 4889C2   		movq	%rax, %rdx
 524 0014 488B45F8 		movq	-8(%rbp), %rax
 525 0018 41B82A00 		movl	$42, %r8d
 525      0000
 526 001e B9000000 		movl	$.LC5, %ecx
 526      00
 527 0023 BE000000 		movl	$.LC6, %esi
 527      00
 528 0028 4889C7   		movq	%rax, %rdi
 529 002b E8000000 		call	_ZN8UnitTest4TestC2EPKcS2_S2_i
 529      00
 530 0030 BA000000 		movl	$_ZTV26TestFPGALink_testReadBytes+16, %edx
 530      00
 531 0035 488B45F8 		movq	-8(%rbp), %rax
 532 0039 488910   		movq	%rdx, (%rax)
 533              	.LBE5:
 534 003c 90       		nop
 535 003d C9       		leave
 536              		.cfi_def_cfa 7, 8
 537 003e C3       		ret
 538              		.cfi_endproc
 539              	.LFE1075:
 541              		.weak	_ZN26TestFPGALink_testReadBytesC1Ev
 542              		.set	_ZN26TestFPGALink_testReadBytesC1Ev,_ZN26TestFPGALink_testReadBytesC2Ev
 543              		.globl	testFPGALink_testReadBytesInstance
 544              		.bss
 545              		.align 32
 548              	testFPGALink_testReadBytesInstance:
 549 0000 00000000 		.zero	56
 549      00000000 
 549      00000000 
 549      00000000 
 549      00000000 
 550              		.globl	adderFPGALink_testReadBytes
 553              	adderFPGALink_testReadBytes:
 554 0038 00       		.zero	1
 555              		.section	.rodata
 556              	.LC7:
 557 00ed 464500   		.string	"FE"
 558              	.LC8:
 559 00f0 43414645 		.string	"CAFE"
 559      00
 560              	.LC9:
 561 00f5 46303044 		.string	"F00D1E"
 561      314500
 562              	.LC10:
 563 00fc 44454144 		.string	"DEADF00D"
 563      46303044 
 563      00
 564              	.LC11:
 565 0105 43414645 		.string	"CAFEF00D1E"
 565      46303044 
 565      314500
 566              	.LC12:
 567 0110 44454144 		.string	"DEADCAFEBABE"
 567      43414645 
 567      42414245 
 567      00
 568 011d 000000   		.align 8
 569              	.LC13:
 570 0120 556E6861 		.string	"Unhandled exception in CHECK_EQUAL(BUF_SUCCESS, bStatus)"
 570      6E646C65 
 570      64206578 
 570      63657074 
 570      696F6E20 
 571              		.text
 572 0321 90       		.align 2
 573              		.globl	_ZNK26TestFPGALink_testReadBytes7RunImplEv
 575              	_ZNK26TestFPGALink_testReadBytes7RunImplEv:
 576              	.LFB1077:
 577              		.loc 3 42 0
 578              		.cfi_startproc
 579              		.cfi_personality 0x3,__gxx_personality_v0
 580              		.cfi_lsda 0x3,.LLSDA1077
 581 0322 55       		pushq	%rbp
 582              		.cfi_def_cfa_offset 16
 583              		.cfi_offset 6, -16
 584 0323 4889E5   		movq	%rsp, %rbp
 585              		.cfi_def_cfa_register 6
 586 0326 53       		pushq	%rbx
 587 0327 4883EC78 		subq	$120, %rsp
 588              		.cfi_offset 3, -24
 589 032b 48897D88 		movq	%rdi, -120(%rbp)
 590              		.loc 3 42 0
 591 032f 64488B04 		movq	%fs:40, %rax
 591      25280000 
 591      00
 592 0338 488945E8 		movq	%rax, -24(%rbp)
 593 033c 31C0     		xorl	%eax, %eax
  43:testSvf2Csvf.cpp **** 	struct Buffer lineBuf;
  44:testSvf2Csvf.cpp **** 	BufferStatus bStatus;
  45:testSvf2Csvf.cpp **** 	bStatus = bufInitialise(&lineBuf, 1024, 0x00, NULL);
 594              		.loc 3 45 0
 595 033e 488D45A0 		leaq	-96(%rbp), %rax
 596 0342 B9000000 		movl	$0, %ecx
 596      00
 597 0347 BA000000 		movl	$0, %edx
 597      00
 598 034c BE000400 		movl	$1024, %esi
 598      00
 599 0351 4889C7   		movq	%rax, %rdi
 600              	.LEHB18:
 601 0354 E8000000 		call	bufInitialise
 601      00
 602              	.LEHE18:
 603 0359 894598   		movl	%eax, -104(%rbp)
 604              	.LEHB19:
  46:testSvf2Csvf.cpp **** 	CHECK_EQUAL(BUF_SUCCESS, bStatus);
 605              		.loc 3 46 0
 606 035c E8000000 		call	_ZN8UnitTest11CurrentTest7DetailsEv
 606      00
 607 0361 488B08   		movq	(%rax), %rcx
 608 0364 488D45C0 		leaq	-64(%rbp), %rax
 609 0368 BA2E0000 		movl	$46, %edx
 609      00
 610 036d 4889CE   		movq	%rcx, %rsi
 611 0370 4889C7   		movq	%rax, %rdi
 612 0373 E8000000 		call	_ZN8UnitTest11TestDetailsC1ERKS0_i
 612      00
 613              	.LEHE19:
 614              		.loc 3 46 0 is_stmt 0 discriminator 2
 615 0378 C7459C00 		movl	$0, -100(%rbp)
 615      000000
 616              	.LEHB20:
 617 037f E8000000 		call	_ZN8UnitTest11CurrentTest7ResultsEv
 617      00
 618 0384 488B00   		movq	(%rax), %rax
 619 0387 488D4DC0 		leaq	-64(%rbp), %rcx
 620 038b 488D5598 		leaq	-104(%rbp), %rdx
 621 038f 488D759C 		leaq	-100(%rbp), %rsi
 622 0393 4889C7   		movq	%rax, %rdi
 623 0396 E8000000 		call	_ZN8UnitTest10CheckEqualI12BufferStatusS1_EEvRNS_11TestResultsERKT_RKT0_RKNS_11TestDetailsE
 623      00
 624              	.LEHE20:
 625              	.L35:
  47:testSvf2Csvf.cpp **** 
  48:testSvf2Csvf.cpp **** 	testReadBytes(&lineBuf, "FE");
 626              		.loc 3 48 0 is_stmt 1
 627 039b 488D45A0 		leaq	-96(%rbp), %rax
 628 039f BE000000 		movl	$.LC7, %esi
 628      00
 629 03a4 4889C7   		movq	%rax, %rdi
 630              	.LEHB21:
 631 03a7 E8000000 		call	_Z13testReadBytesP6BufferPKc
 631      00
  49:testSvf2Csvf.cpp **** 	testReadBytes(&lineBuf, "CAFE");
 632              		.loc 3 49 0
 633 03ac 488D45A0 		leaq	-96(%rbp), %rax
 634 03b0 BE000000 		movl	$.LC8, %esi
 634      00
 635 03b5 4889C7   		movq	%rax, %rdi
 636 03b8 E8000000 		call	_Z13testReadBytesP6BufferPKc
 636      00
  50:testSvf2Csvf.cpp **** 	testReadBytes(&lineBuf, "F00D1E");
 637              		.loc 3 50 0
 638 03bd 488D45A0 		leaq	-96(%rbp), %rax
 639 03c1 BE000000 		movl	$.LC9, %esi
 639      00
 640 03c6 4889C7   		movq	%rax, %rdi
 641 03c9 E8000000 		call	_Z13testReadBytesP6BufferPKc
 641      00
  51:testSvf2Csvf.cpp **** 	testReadBytes(&lineBuf, "DEADF00D");
 642              		.loc 3 51 0
 643 03ce 488D45A0 		leaq	-96(%rbp), %rax
 644 03d2 BE000000 		movl	$.LC10, %esi
 644      00
 645 03d7 4889C7   		movq	%rax, %rdi
 646 03da E8000000 		call	_Z13testReadBytesP6BufferPKc
 646      00
  52:testSvf2Csvf.cpp **** 	testReadBytes(&lineBuf, "CAFEF00D1E");
 647              		.loc 3 52 0
 648 03df 488D45A0 		leaq	-96(%rbp), %rax
 649 03e3 BE000000 		movl	$.LC11, %esi
 649      00
 650 03e8 4889C7   		movq	%rax, %rdi
 651 03eb E8000000 		call	_Z13testReadBytesP6BufferPKc
 651      00
  53:testSvf2Csvf.cpp **** 	testReadBytes(&lineBuf, "DEADCAFEBABE");
 652              		.loc 3 53 0
 653 03f0 488D45A0 		leaq	-96(%rbp), %rax
 654 03f4 BE000000 		movl	$.LC12, %esi
 654      00
 655 03f9 4889C7   		movq	%rax, %rdi
 656 03fc E8000000 		call	_Z13testReadBytesP6BufferPKc
 656      00
  54:testSvf2Csvf.cpp **** 
  55:testSvf2Csvf.cpp **** 	bufDestroy(&lineBuf);
 657              		.loc 3 55 0
 658 0401 488D45A0 		leaq	-96(%rbp), %rax
 659 0405 4889C7   		movq	%rax, %rdi
 660 0408 E8000000 		call	bufDestroy
 660      00
 661              	.LEHE21:
  56:testSvf2Csvf.cpp **** }
 662              		.loc 3 56 0
 663 040d 90       		nop
 664 040e 488B45E8 		movq	-24(%rbp), %rax
 665 0412 64483304 		xorq	%fs:40, %rax
 665      25280000 
 665      00
 666 041b 7466     		je	.L37
 667 041d EB5F     		jmp	.L41
 668              	.L39:
 669 041f EB00     		jmp	.L34
 670              	.L38:
 671              	.L34:
  46:testSvf2Csvf.cpp **** 
 672              		.loc 3 46 0
 673 0421 4889C7   		movq	%rax, %rdi
 674 0424 E8000000 		call	__cxa_begin_catch
 674      00
 675              	.LEHB22:
 676 0429 E8000000 		call	_ZN8UnitTest11CurrentTest7DetailsEv
 676      00
 677 042e 488B08   		movq	(%rax), %rcx
 678 0431 488D45C0 		leaq	-64(%rbp), %rax
 679 0435 BA2E0000 		movl	$46, %edx
 679      00
 680 043a 4889CE   		movq	%rcx, %rsi
 681 043d 4889C7   		movq	%rax, %rdi
 682 0440 E8000000 		call	_ZN8UnitTest11TestDetailsC1ERKS0_i
 682      00
  46:testSvf2Csvf.cpp **** 
 683              		.loc 3 46 0 is_stmt 0 discriminator 10
 684 0445 E8000000 		call	_ZN8UnitTest11CurrentTest7ResultsEv
 684      00
 685 044a 488B00   		movq	(%rax), %rax
 686 044d 488D4DC0 		leaq	-64(%rbp), %rcx
 687 0451 BA000000 		movl	$.LC13, %edx
 687      00
 688 0456 4889CE   		movq	%rcx, %rsi
 689 0459 4889C7   		movq	%rax, %rdi
 690 045c E8000000 		call	_ZN8UnitTest11TestResults13OnTestFailureERKNS_11TestDetailsEPKc
 690      00
 691              	.LEHE22:
 692              	.LEHB23:
  46:testSvf2Csvf.cpp **** 
 693              		.loc 3 46 0 discriminator 14
 694 0461 E8000000 		call	__cxa_end_catch
 694      00
 695              	.LEHE23:
 696 0466 E930FFFF 		jmp	.L35
 696      FF
 697              	.L40:
 698 046b 4889C3   		movq	%rax, %rbx
  46:testSvf2Csvf.cpp **** 
 699              		.loc 3 46 0
 700 046e E8000000 		call	__cxa_end_catch
 700      00
 701 0473 4889D8   		movq	%rbx, %rax
 702 0476 4889C7   		movq	%rax, %rdi
 703              	.LEHB24:
 704 0479 E8000000 		call	_Unwind_Resume
 704      00
 705              	.LEHE24:
 706              	.L41:
 707              		.loc 3 56 0 is_stmt 1
 708 047e E8000000 		call	__stack_chk_fail
 708      00
 709              	.L37:
 710 0483 4883C478 		addq	$120, %rsp
 711 0487 5B       		popq	%rbx
 712 0488 5D       		popq	%rbp
 713              		.cfi_def_cfa 7, 8
 714 0489 C3       		ret
 715              		.cfi_endproc
 716              	.LFE1077:
 717              		.section	.gcc_except_table
 718              		.align 4
 719              	.LLSDA1077:
 720 0058 FF       		.byte	0xff
 721 0059 03       		.byte	0x3
 722 005a 2D       		.uleb128 .LLSDATT1077-.LLSDATTD1077
 723              	.LLSDATTD1077:
 724 005b 01       		.byte	0x1
 725 005c 23       		.uleb128 .LLSDACSE1077-.LLSDACSB1077
 726              	.LLSDACSB1077:
 727 005d 32       		.uleb128 .LEHB18-.LFB1077
 728 005e 05       		.uleb128 .LEHE18-.LEHB18
 729 005f 00       		.uleb128 0
 730 0060 00       		.uleb128 0
 731 0061 3A       		.uleb128 .LEHB19-.LFB1077
 732 0062 1C       		.uleb128 .LEHE19-.LEHB19
 733 0063 FF01     		.uleb128 .L38-.LFB1077
 734 0065 01       		.uleb128 0x1
 735 0066 5D       		.uleb128 .LEHB20-.LFB1077
 736 0067 1C       		.uleb128 .LEHE20-.LEHB20
 737 0068 FD01     		.uleb128 .L39-.LFB1077
 738 006a 03       		.uleb128 0x3
 739 006b 8501     		.uleb128 .LEHB21-.LFB1077
 740 006d 66       		.uleb128 .LEHE21-.LEHB21
 741 006e 00       		.uleb128 0
 742 006f 00       		.uleb128 0
 743 0070 8702     		.uleb128 .LEHB22-.LFB1077
 744 0072 38       		.uleb128 .LEHE22-.LEHB22
 745 0073 C902     		.uleb128 .L40-.LFB1077
 746 0075 00       		.uleb128 0
 747 0076 BF02     		.uleb128 .LEHB23-.LFB1077
 748 0078 05       		.uleb128 .LEHE23-.LEHB23
 749 0079 00       		.uleb128 0
 750 007a 00       		.uleb128 0
 751 007b D702     		.uleb128 .LEHB24-.LFB1077
 752 007d 05       		.uleb128 .LEHE24-.LEHB24
 753 007e 00       		.uleb128 0
 754 007f 00       		.uleb128 0
 755              	.LLSDACSE1077:
 756 0080 01       		.byte	0x1
 757 0081 00       		.byte	0
 758 0082 00       		.byte	0
 759 0083 7D       		.byte	0x7d
 760              		.align 4
 761 0084 00000000 		.long	0
 762              	
 763              	.LLSDATT1077:
 764              		.text
 766              		.section	.rodata
 767 0159 00000000 		.align 8
 767      000000
 768              	.LC14:
 769 0160 556E6861 		.string	"Unhandled exception in CHECK_EQUAL(strlen(expectedHex)/2, lineBuf.length)"
 769      6E646C65 
 769      64206578 
 769      63657074 
 769      696F6E20 
 770 01aa 00000000 		.align 8
 770      0000
 771              	.LC15:
 772 01b0 556E6861 		.string	"Unhandled exception in CHECK_EQUAL(expectedHex, resultHex)"
 772      6E646C65 
 772      64206578 
 772      63657074 
 772      696F6E20 
 773              		.text
 774              		.globl	_Z9testShiftPKcjS0_jS0_jS0_
 776              	_Z9testShiftPKcjS0_jS0_jS0_:
 777              	.LFB1078:
  57:testSvf2Csvf.cpp **** 
  58:testSvf2Csvf.cpp **** void testShift(const char *line, uint32 lineBits, const char *head, uint32 headBits, const char *ta
 778              		.loc 3 58 0
 779              		.cfi_startproc
 780              		.cfi_personality 0x3,__gxx_personality_v0
 781              		.cfi_lsda 0x3,.LLSDA1078
 782 048a 55       		pushq	%rbp
 783              		.cfi_def_cfa_offset 16
 784              		.cfi_offset 6, -16
 785 048b 4889E5   		movq	%rsp, %rbp
 786              		.cfi_def_cfa_register 6
 787 048e 53       		pushq	%rbx
 788 048f 4881ECE8 		subq	$1256, %rsp
 788      040000
 789              		.cfi_offset 3, -24
 790 0496 4889BD38 		movq	%rdi, -1224(%rbp)
 790      FBFFFF
 791 049d 89B534FB 		movl	%esi, -1228(%rbp)
 791      FFFF
 792 04a3 48899528 		movq	%rdx, -1240(%rbp)
 792      FBFFFF
 793 04aa 898D30FB 		movl	%ecx, -1232(%rbp)
 793      FFFF
 794 04b0 4C898520 		movq	%r8, -1248(%rbp)
 794      FBFFFF
 795 04b7 44898D1C 		movl	%r9d, -1252(%rbp)
 795      FBFFFF
 796 04be 488B4510 		movq	16(%rbp), %rax
 797 04c2 48898510 		movq	%rax, -1264(%rbp)
 797      FBFFFF
 798              		.loc 3 58 0
 799 04c9 64488B04 		movq	%fs:40, %rax
 799      25280000 
 799      00
 800 04d2 488945E8 		movq	%rax, -24(%rbp)
 801 04d6 31C0     		xorl	%eax, %eax
  59:testSvf2Csvf.cpp **** 	struct Buffer lineBuf;
  60:testSvf2Csvf.cpp **** 	struct Buffer headBuf;
  61:testSvf2Csvf.cpp **** 	struct Buffer tailBuf;
  62:testSvf2Csvf.cpp **** 	BufferStatus bStatus;
  63:testSvf2Csvf.cpp **** 	FLStatus fStatus;
  64:testSvf2Csvf.cpp **** 	char resultHex[1024];
  65:testSvf2Csvf.cpp **** 	bStatus = bufInitialise(&lineBuf, 1024, 0x00, NULL);
 802              		.loc 3 65 0
 803 04d8 488D8560 		leaq	-1184(%rbp), %rax
 803      FBFFFF
 804 04df B9000000 		movl	$0, %ecx
 804      00
 805 04e4 BA000000 		movl	$0, %edx
 805      00
 806 04e9 BE000400 		movl	$1024, %esi
 806      00
 807 04ee 4889C7   		movq	%rax, %rdi
 808              	.LEHB25:
 809 04f1 E8000000 		call	bufInitialise
 809      00
 810              	.LEHE25:
 811 04f6 89854CFB 		movl	%eax, -1204(%rbp)
 811      FFFF
 812              	.LEHB26:
  66:testSvf2Csvf.cpp **** 	CHECK_EQUAL(BUF_SUCCESS, bStatus);
 813              		.loc 3 66 0
 814 04fc E8000000 		call	_ZN8UnitTest11CurrentTest7DetailsEv
 814      00
 815 0501 488B08   		movq	(%rax), %rcx
 816 0504 488D85C0 		leaq	-1088(%rbp), %rax
 816      FBFFFF
 817 050b BA420000 		movl	$66, %edx
 817      00
 818 0510 4889CE   		movq	%rcx, %rsi
 819 0513 4889C7   		movq	%rax, %rdi
 820 0516 E8000000 		call	_ZN8UnitTest11TestDetailsC1ERKS0_i
 820      00
 821              	.LEHE26:
 822              		.loc 3 66 0 is_stmt 0 discriminator 2
 823 051b C785A0FB 		movl	$0, -1120(%rbp)
 823      FFFF0000 
 823      0000
 824              	.LEHB27:
 825 0525 E8000000 		call	_ZN8UnitTest11CurrentTest7ResultsEv
 825      00
 826 052a 488B00   		movq	(%rax), %rax
 827 052d 488D8DC0 		leaq	-1088(%rbp), %rcx
 827      FBFFFF
 828 0534 488D954C 		leaq	-1204(%rbp), %rdx
 828      FBFFFF
 829 053b 488DB5A0 		leaq	-1120(%rbp), %rsi
 829      FBFFFF
 830 0542 4889C7   		movq	%rax, %rdi
 831 0545 E8000000 		call	_ZN8UnitTest10CheckEqualI12BufferStatusS1_EEvRNS_11TestResultsERKT_RKT0_RKNS_11TestDetailsE
 831      00
 832              	.LEHE27:
 833              	.L47:
  67:testSvf2Csvf.cpp **** 	bStatus = bufInitialise(&headBuf, 1024, 0x00, NULL);
 834              		.loc 3 67 0 is_stmt 1
 835 054a 488D8580 		leaq	-1152(%rbp), %rax
 835      FBFFFF
 836 0551 B9000000 		movl	$0, %ecx
 836      00
 837 0556 BA000000 		movl	$0, %edx
 837      00
 838 055b BE000400 		movl	$1024, %esi
 838      00
 839 0560 4889C7   		movq	%rax, %rdi
 840              	.LEHB28:
 841 0563 E8000000 		call	bufInitialise
 841      00
 842              	.LEHE28:
 843 0568 89854CFB 		movl	%eax, -1204(%rbp)
 843      FFFF
 844              	.LEHB29:
  68:testSvf2Csvf.cpp **** 	CHECK_EQUAL(BUF_SUCCESS, bStatus);
 845              		.loc 3 68 0
 846 056e E8000000 		call	_ZN8UnitTest11CurrentTest7DetailsEv
 846      00
 847 0573 488B08   		movq	(%rax), %rcx
 848 0576 488D85C0 		leaq	-1088(%rbp), %rax
 848      FBFFFF
 849 057d BA440000 		movl	$68, %edx
 849      00
 850 0582 4889CE   		movq	%rcx, %rsi
 851 0585 4889C7   		movq	%rax, %rdi
 852 0588 E8000000 		call	_ZN8UnitTest11TestDetailsC1ERKS0_i
 852      00
 853              	.LEHE29:
 854              		.loc 3 68 0 is_stmt 0 discriminator 2
 855 058d C785A0FB 		movl	$0, -1120(%rbp)
 855      FFFF0000 
 855      0000
 856              	.LEHB30:
 857 0597 E8000000 		call	_ZN8UnitTest11CurrentTest7ResultsEv
 857      00
 858 059c 488B00   		movq	(%rax), %rax
 859 059f 488D8DC0 		leaq	-1088(%rbp), %rcx
 859      FBFFFF
 860 05a6 488D954C 		leaq	-1204(%rbp), %rdx
 860      FBFFFF
 861 05ad 488DB5A0 		leaq	-1120(%rbp), %rsi
 861      FBFFFF
 862 05b4 4889C7   		movq	%rax, %rdi
 863 05b7 E8000000 		call	_ZN8UnitTest10CheckEqualI12BufferStatusS1_EEvRNS_11TestResultsERKT_RKT0_RKNS_11TestDetailsE
 863      00
 864              	.LEHE30:
 865              	.L51:
  69:testSvf2Csvf.cpp **** 	bStatus = bufInitialise(&tailBuf, 1024, 0x00, NULL);
 866              		.loc 3 69 0 is_stmt 1
 867 05bc 488D85A0 		leaq	-1120(%rbp), %rax
 867      FBFFFF
 868 05c3 B9000000 		movl	$0, %ecx
 868      00
 869 05c8 BA000000 		movl	$0, %edx
 869      00
 870 05cd BE000400 		movl	$1024, %esi
 870      00
 871 05d2 4889C7   		movq	%rax, %rdi
 872              	.LEHB31:
 873 05d5 E8000000 		call	bufInitialise
 873      00
 874              	.LEHE31:
 875 05da 89854CFB 		movl	%eax, -1204(%rbp)
 875      FFFF
 876              	.LEHB32:
  70:testSvf2Csvf.cpp **** 	CHECK_EQUAL(BUF_SUCCESS, bStatus);
 877              		.loc 3 70 0
 878 05e0 E8000000 		call	_ZN8UnitTest11CurrentTest7DetailsEv
 878      00
 879 05e5 488B08   		movq	(%rax), %rcx
 880 05e8 488D85C0 		leaq	-1088(%rbp), %rax
 880      FBFFFF
 881 05ef BA460000 		movl	$70, %edx
 881      00
 882 05f4 4889CE   		movq	%rcx, %rsi
 883 05f7 4889C7   		movq	%rax, %rdi
 884 05fa E8000000 		call	_ZN8UnitTest11TestDetailsC1ERKS0_i
 884      00
 885              	.LEHE32:
 886              		.loc 3 70 0 is_stmt 0 discriminator 2
 887 05ff C78558FB 		movl	$0, -1192(%rbp)
 887      FFFF0000 
 887      0000
 888              	.LEHB33:
 889 0609 E8000000 		call	_ZN8UnitTest11CurrentTest7ResultsEv
 889      00
 890 060e 488B00   		movq	(%rax), %rax
 891 0611 488D8DC0 		leaq	-1088(%rbp), %rcx
 891      FBFFFF
 892 0618 488D954C 		leaq	-1204(%rbp), %rdx
 892      FBFFFF
 893 061f 488DB558 		leaq	-1192(%rbp), %rsi
 893      FBFFFF
 894 0626 4889C7   		movq	%rax, %rdi
 895 0629 E8000000 		call	_ZN8UnitTest10CheckEqualI12BufferStatusS1_EEvRNS_11TestResultsERKT_RKT0_RKNS_11TestDetailsE
 895      00
 896              	.LEHE33:
 897              	.L55:
  71:testSvf2Csvf.cpp **** 	fStatus = readBytes(&lineBuf, line, NULL);
 898              		.loc 3 71 0 is_stmt 1
 899 062e 488B8D38 		movq	-1224(%rbp), %rcx
 899      FBFFFF
 900 0635 488D8560 		leaq	-1184(%rbp), %rax
 900      FBFFFF
 901 063c BA000000 		movl	$0, %edx
 901      00
 902 0641 4889CE   		movq	%rcx, %rsi
 903 0644 4889C7   		movq	%rax, %rdi
 904              	.LEHB34:
 905 0647 E8000000 		call	readBytes
 905      00
 906              	.LEHE34:
 907 064c 898550FB 		movl	%eax, -1200(%rbp)
 907      FFFF
 908              	.LEHB35:
  72:testSvf2Csvf.cpp **** 	CHECK_EQUAL(FL_SUCCESS, fStatus);
 909              		.loc 3 72 0
 910 0652 E8000000 		call	_ZN8UnitTest11CurrentTest7DetailsEv
 910      00
 911 0657 488B08   		movq	(%rax), %rcx
 912 065a 488D85C0 		leaq	-1088(%rbp), %rax
 912      FBFFFF
 913 0661 BA480000 		movl	$72, %edx
 913      00
 914 0666 4889CE   		movq	%rcx, %rsi
 915 0669 4889C7   		movq	%rax, %rdi
 916 066c E8000000 		call	_ZN8UnitTest11TestDetailsC1ERKS0_i
 916      00
 917              	.LEHE35:
 918              		.loc 3 72 0 is_stmt 0 discriminator 2
 919 0671 C78558FB 		movl	$0, -1192(%rbp)
 919      FFFF0000 
 919      0000
 920              	.LEHB36:
 921 067b E8000000 		call	_ZN8UnitTest11CurrentTest7ResultsEv
 921      00
 922 0680 488B00   		movq	(%rax), %rax
 923 0683 488D8DC0 		leaq	-1088(%rbp), %rcx
 923      FBFFFF
 924 068a 488D9550 		leaq	-1200(%rbp), %rdx
 924      FBFFFF
 925 0691 488DB558 		leaq	-1192(%rbp), %rsi
 925      FBFFFF
 926 0698 4889C7   		movq	%rax, %rdi
 927 069b E8000000 		call	_ZN8UnitTest10CheckEqualI8FLStatusS1_EEvRNS_11TestResultsERKT_RKT0_RKNS_11TestDetailsE
 927      00
 928              	.LEHE36:
 929              	.L59:
  73:testSvf2Csvf.cpp **** 	fStatus = readBytes(&headBuf, head, NULL);
 930              		.loc 3 73 0 is_stmt 1
 931 06a0 488B8D28 		movq	-1240(%rbp), %rcx
 931      FBFFFF
 932 06a7 488D8580 		leaq	-1152(%rbp), %rax
 932      FBFFFF
 933 06ae BA000000 		movl	$0, %edx
 933      00
 934 06b3 4889CE   		movq	%rcx, %rsi
 935 06b6 4889C7   		movq	%rax, %rdi
 936              	.LEHB37:
 937 06b9 E8000000 		call	readBytes
 937      00
 938              	.LEHE37:
 939 06be 898550FB 		movl	%eax, -1200(%rbp)
 939      FFFF
 940              	.LEHB38:
  74:testSvf2Csvf.cpp **** 	CHECK_EQUAL(FL_SUCCESS, fStatus);
 941              		.loc 3 74 0
 942 06c4 E8000000 		call	_ZN8UnitTest11CurrentTest7DetailsEv
 942      00
 943 06c9 488B08   		movq	(%rax), %rcx
 944 06cc 488D85C0 		leaq	-1088(%rbp), %rax
 944      FBFFFF
 945 06d3 BA4A0000 		movl	$74, %edx
 945      00
 946 06d8 4889CE   		movq	%rcx, %rsi
 947 06db 4889C7   		movq	%rax, %rdi
 948 06de E8000000 		call	_ZN8UnitTest11TestDetailsC1ERKS0_i
 948      00
 949              	.LEHE38:
 950              		.loc 3 74 0 is_stmt 0 discriminator 2
 951 06e3 C78558FB 		movl	$0, -1192(%rbp)
 951      FFFF0000 
 951      0000
 952              	.LEHB39:
 953 06ed E8000000 		call	_ZN8UnitTest11CurrentTest7ResultsEv
 953      00
 954 06f2 488B00   		movq	(%rax), %rax
 955 06f5 488D8DC0 		leaq	-1088(%rbp), %rcx
 955      FBFFFF
 956 06fc 488D9550 		leaq	-1200(%rbp), %rdx
 956      FBFFFF
 957 0703 488DB558 		leaq	-1192(%rbp), %rsi
 957      FBFFFF
 958 070a 4889C7   		movq	%rax, %rdi
 959 070d E8000000 		call	_ZN8UnitTest10CheckEqualI8FLStatusS1_EEvRNS_11TestResultsERKT_RKT0_RKNS_11TestDetailsE
 959      00
 960              	.LEHE39:
 961              	.L63:
  75:testSvf2Csvf.cpp **** 	fStatus = readBytes(&tailBuf, tail, NULL);
 962              		.loc 3 75 0 is_stmt 1
 963 0712 488B8D20 		movq	-1248(%rbp), %rcx
 963      FBFFFF
 964 0719 488D85A0 		leaq	-1120(%rbp), %rax
 964      FBFFFF
 965 0720 BA000000 		movl	$0, %edx
 965      00
 966 0725 4889CE   		movq	%rcx, %rsi
 967 0728 4889C7   		movq	%rax, %rdi
 968              	.LEHB40:
 969 072b E8000000 		call	readBytes
 969      00
 970              	.LEHE40:
 971 0730 898550FB 		movl	%eax, -1200(%rbp)
 971      FFFF
 972              	.LEHB41:
  76:testSvf2Csvf.cpp **** 	CHECK_EQUAL(FL_SUCCESS, fStatus);
 973              		.loc 3 76 0
 974 0736 E8000000 		call	_ZN8UnitTest11CurrentTest7DetailsEv
 974      00
 975 073b 488B08   		movq	(%rax), %rcx
 976 073e 488D85C0 		leaq	-1088(%rbp), %rax
 976      FBFFFF
 977 0745 BA4C0000 		movl	$76, %edx
 977      00
 978 074a 4889CE   		movq	%rcx, %rsi
 979 074d 4889C7   		movq	%rax, %rdi
 980 0750 E8000000 		call	_ZN8UnitTest11TestDetailsC1ERKS0_i
 980      00
 981              	.LEHE41:
 982              		.loc 3 76 0 is_stmt 0 discriminator 2
 983 0755 C78558FB 		movl	$0, -1192(%rbp)
 983      FFFF0000 
 983      0000
 984              	.LEHB42:
 985 075f E8000000 		call	_ZN8UnitTest11CurrentTest7ResultsEv
 985      00
 986 0764 488B00   		movq	(%rax), %rax
 987 0767 488D8DC0 		leaq	-1088(%rbp), %rcx
 987      FBFFFF
 988 076e 488D9550 		leaq	-1200(%rbp), %rdx
 988      FBFFFF
 989 0775 488DB558 		leaq	-1192(%rbp), %rsi
 989      FBFFFF
 990 077c 4889C7   		movq	%rax, %rdi
 991 077f E8000000 		call	_ZN8UnitTest10CheckEqualI8FLStatusS1_EEvRNS_11TestResultsERKT_RKT0_RKNS_11TestDetailsE
 991      00
 992              	.LEHE42:
 993              	.L67:
  77:testSvf2Csvf.cpp **** 	fStatus = headTail(&lineBuf, &headBuf, &tailBuf, lineBits, headBits, tailBits, NULL);
 994              		.loc 3 77 0 is_stmt 1
 995 0784 448B851C 		movl	-1252(%rbp), %r8d
 995      FBFFFF
 996 078b 8BBD30FB 		movl	-1232(%rbp), %edi
 996      FFFF
 997 0791 8B8D34FB 		movl	-1228(%rbp), %ecx
 997      FFFF
 998 0797 488D95A0 		leaq	-1120(%rbp), %rdx
 998      FBFFFF
 999 079e 488DB580 		leaq	-1152(%rbp), %rsi
 999      FBFFFF
 1000 07a5 488D8560 		leaq	-1184(%rbp), %rax
 1000      FBFFFF
 1001 07ac 4883EC08 		subq	$8, %rsp
 1002 07b0 6A00     		pushq	$0
 1003 07b2 4589C1   		movl	%r8d, %r9d
 1004 07b5 4189F8   		movl	%edi, %r8d
 1005 07b8 4889C7   		movq	%rax, %rdi
 1006              	.LEHB43:
 1007 07bb E8000000 		call	headTail
 1007      00
 1008              	.LEHE43:
 1009 07c0 4883C410 		addq	$16, %rsp
 1010 07c4 898550FB 		movl	%eax, -1200(%rbp)
 1010      FFFF
 1011              	.LEHB44:
  78:testSvf2Csvf.cpp **** 	CHECK_EQUAL(FL_SUCCESS, fStatus);
 1012              		.loc 3 78 0
 1013 07ca E8000000 		call	_ZN8UnitTest11CurrentTest7DetailsEv
 1013      00
 1014 07cf 488B08   		movq	(%rax), %rcx
 1015 07d2 488D85C0 		leaq	-1088(%rbp), %rax
 1015      FBFFFF
 1016 07d9 BA4E0000 		movl	$78, %edx
 1016      00
 1017 07de 4889CE   		movq	%rcx, %rsi
 1018 07e1 4889C7   		movq	%rax, %rdi
 1019 07e4 E8000000 		call	_ZN8UnitTest11TestDetailsC1ERKS0_i
 1019      00
 1020              	.LEHE44:
 1021              		.loc 3 78 0 is_stmt 0 discriminator 2
 1022 07e9 C78558FB 		movl	$0, -1192(%rbp)
 1022      FFFF0000 
 1022      0000
 1023              	.LEHB45:
 1024 07f3 E8000000 		call	_ZN8UnitTest11CurrentTest7ResultsEv
 1024      00
 1025 07f8 488B00   		movq	(%rax), %rax
 1026 07fb 488D8DC0 		leaq	-1088(%rbp), %rcx
 1026      FBFFFF
 1027 0802 488D9550 		leaq	-1200(%rbp), %rdx
 1027      FBFFFF
 1028 0809 488DB558 		leaq	-1192(%rbp), %rsi
 1028      FBFFFF
 1029 0810 4889C7   		movq	%rax, %rdi
 1030 0813 E8000000 		call	_ZN8UnitTest10CheckEqualI8FLStatusS1_EEvRNS_11TestResultsERKT_RKT0_RKNS_11TestDetailsE
 1030      00
 1031              	.LEHE45:
 1032              	.L71:
 1033              	.LEHB46:
  79:testSvf2Csvf.cpp **** 	CHECK_EQUAL(strlen(expectedHex)/2, lineBuf.length);
 1034              		.loc 3 79 0 is_stmt 1
 1035 0818 E8000000 		call	_ZN8UnitTest11CurrentTest7DetailsEv
 1035      00
 1036 081d 488B08   		movq	(%rax), %rcx
 1037 0820 488D85C0 		leaq	-1088(%rbp), %rax
 1037      FBFFFF
 1038 0827 BA4F0000 		movl	$79, %edx
 1038      00
 1039 082c 4889CE   		movq	%rcx, %rsi
 1040 082f 4889C7   		movq	%rax, %rdi
 1041 0832 E8000000 		call	_ZN8UnitTest11TestDetailsC1ERKS0_i
 1041      00
 1042              	.LEHE46:
 1043              		.loc 3 79 0 is_stmt 0 discriminator 2
 1044 0837 488B8510 		movq	-1264(%rbp), %rax
 1044      FBFFFF
 1045 083e 4889C7   		movq	%rax, %rdi
 1046 0841 E8000000 		call	strlen
 1046      00
 1047 0846 48D1E8   		shrq	%rax
 1048 0849 48898558 		movq	%rax, -1192(%rbp)
 1048      FBFFFF
 1049              	.LEHB47:
 1050 0850 E8000000 		call	_ZN8UnitTest11CurrentTest7ResultsEv
 1050      00
 1051 0855 488B00   		movq	(%rax), %rax
 1052 0858 488D95C0 		leaq	-1088(%rbp), %rdx
 1052      FBFFFF
 1053 085f 488D8D60 		leaq	-1184(%rbp), %rcx
 1053      FBFFFF
 1054 0866 488D7908 		leaq	8(%rcx), %rdi
 1055 086a 488DB558 		leaq	-1192(%rbp), %rsi
 1055      FBFFFF
 1056 0871 4889D1   		movq	%rdx, %rcx
 1057 0874 4889FA   		movq	%rdi, %rdx
 1058 0877 4889C7   		movq	%rax, %rdi
 1059 087a E8000000 		call	_ZN8UnitTest10CheckEqualImmEEvRNS_11TestResultsERKT_RKT0_RKNS_11TestDetailsE
 1059      00
 1060              	.LEHE47:
 1061              	.L75:
 1062              	.LBB6:
  80:testSvf2Csvf.cpp **** 	for ( uint32 i = 0; i < 2*lineBuf.length; i++ ) {
 1063              		.loc 3 80 0 is_stmt 1
 1064 087f C78554FB 		movl	$0, -1196(%rbp)
 1064      FFFF0000 
 1064      0000
 1065              	.L44:
 1066              		.loc 3 80 0 is_stmt 0 discriminator 3
 1067 0889 8B8554FB 		movl	-1196(%rbp), %eax
 1067      FFFF
 1068 088f 488B9568 		movq	-1176(%rbp), %rdx
 1068      FBFFFF
 1069 0896 4801D2   		addq	%rdx, %rdx
 1070 0899 4839D0   		cmpq	%rdx, %rax
 1071 089c 7347     		jnb	.L43
  81:testSvf2Csvf.cpp ****         sprintf(resultHex + 2*i, "%02X", lineBuf.data[i]);
 1072              		.loc 3 81 0 is_stmt 1 discriminator 2
 1073 089e 488B9560 		movq	-1184(%rbp), %rdx
 1073      FBFFFF
 1074 08a5 8B8554FB 		movl	-1196(%rbp), %eax
 1074      FFFF
 1075 08ab 4801D0   		addq	%rdx, %rax
 1076 08ae 0FB600   		movzbl	(%rax), %eax
 1077 08b1 0FB6C0   		movzbl	%al, %eax
 1078 08b4 8B9554FB 		movl	-1196(%rbp), %edx
 1078      FFFF
 1079 08ba 01D2     		addl	%edx, %edx
 1080 08bc 89D1     		movl	%edx, %ecx
 1081 08be 488D95E0 		leaq	-1056(%rbp), %rdx
 1081      FBFFFF
 1082 08c5 4801D1   		addq	%rdx, %rcx
 1083 08c8 89C2     		movl	%eax, %edx
 1084 08ca BE000000 		movl	$.LC1, %esi
 1084      00
 1085 08cf 4889CF   		movq	%rcx, %rdi
 1086 08d2 B8000000 		movl	$0, %eax
 1086      00
 1087 08d7 E8000000 		call	sprintf
 1087      00
  80:testSvf2Csvf.cpp **** 	for ( uint32 i = 0; i < 2*lineBuf.length; i++ ) {
 1088              		.loc 3 80 0 discriminator 2
 1089 08dc 838554FB 		addl	$1, -1196(%rbp)
 1089      FFFF01
 1090 08e3 EBA4     		jmp	.L44
 1091              	.L43:
 1092              	.LBE6:
  82:testSvf2Csvf.cpp ****     }
  83:testSvf2Csvf.cpp ****     resultHex[2*lineBuf.length] = '\0';
 1093              		.loc 3 83 0
 1094 08e5 488B8568 		movq	-1176(%rbp), %rax
 1094      FBFFFF
 1095 08ec 4801C0   		addq	%rax, %rax
 1096 08ef C68405E0 		movb	$0, -1056(%rbp,%rax)
 1096      FBFFFF00 
 1097              	.LEHB48:
  84:testSvf2Csvf.cpp ****     CHECK_EQUAL(expectedHex, resultHex);
 1098              		.loc 3 84 0
 1099 08f7 E8000000 		call	_ZN8UnitTest11CurrentTest7DetailsEv
 1099      00
 1100 08fc 488B08   		movq	(%rax), %rcx
 1101 08ff 488D85C0 		leaq	-1088(%rbp), %rax
 1101      FBFFFF
 1102 0906 BA540000 		movl	$84, %edx
 1102      00
 1103 090b 4889CE   		movq	%rcx, %rsi
 1104 090e 4889C7   		movq	%rax, %rdi
 1105 0911 E8000000 		call	_ZN8UnitTest11TestDetailsC1ERKS0_i
 1105      00
 1106              		.loc 3 84 0 is_stmt 0 discriminator 2
 1107 0916 E8000000 		call	_ZN8UnitTest11CurrentTest7ResultsEv
 1107      00
 1108 091b 488B00   		movq	(%rax), %rax
 1109 091e 488D8DC0 		leaq	-1088(%rbp), %rcx
 1109      FBFFFF
 1110 0925 488D95E0 		leaq	-1056(%rbp), %rdx
 1110      FBFFFF
 1111 092c 488BB510 		movq	-1264(%rbp), %rsi
 1111      FBFFFF
 1112 0933 4889C7   		movq	%rax, %rdi
 1113 0936 E8000000 		call	_ZN8UnitTest10CheckEqualERNS_11TestResultsEPKcPcRKNS_11TestDetailsE
 1113      00
 1114              	.LEHE48:
 1115              	.L78:
  85:testSvf2Csvf.cpp **** 	bufDestroy(&tailBuf);
 1116              		.loc 3 85 0 is_stmt 1
 1117 093b 488D85A0 		leaq	-1120(%rbp), %rax
 1117      FBFFFF
 1118 0942 4889C7   		movq	%rax, %rdi
 1119              	.LEHB49:
 1120 0945 E8000000 		call	bufDestroy
 1120      00
  86:testSvf2Csvf.cpp **** 	bufDestroy(&headBuf);
 1121              		.loc 3 86 0
 1122 094a 488D8580 		leaq	-1152(%rbp), %rax
 1122      FBFFFF
 1123 0951 4889C7   		movq	%rax, %rdi
 1124 0954 E8000000 		call	bufDestroy
 1124      00
  87:testSvf2Csvf.cpp **** 	bufDestroy(&lineBuf);
 1125              		.loc 3 87 0
 1126 0959 488D8560 		leaq	-1184(%rbp), %rax
 1126      FBFFFF
 1127 0960 4889C7   		movq	%rax, %rdi
 1128 0963 E8000000 		call	bufDestroy
 1128      00
 1129              	.LEHE49:
  88:testSvf2Csvf.cpp **** }	
 1130              		.loc 3 88 0
 1131 0968 90       		nop
 1132 0969 488B45E8 		movq	-24(%rbp), %rax
 1133 096d 64483304 		xorq	%fs:40, %rax
 1133      25280000 
 1133      00
 1134 0976 0F849503 		je	.L80
 1134      0000
 1135 097c E98B0300 		jmp	.L107
 1135      00
 1136              	.L82:
 1137 0981 EB00     		jmp	.L46
 1138              	.L81:
 1139              	.L46:
  66:testSvf2Csvf.cpp **** 	bStatus = bufInitialise(&headBuf, 1024, 0x00, NULL);
 1140              		.loc 3 66 0
 1141 0983 4889C7   		movq	%rax, %rdi
 1142 0986 E8000000 		call	__cxa_begin_catch
 1142      00
 1143              	.LEHB50:
 1144 098b E8000000 		call	_ZN8UnitTest11CurrentTest7DetailsEv
 1144      00
 1145 0990 488B08   		movq	(%rax), %rcx
 1146 0993 488D85C0 		leaq	-1088(%rbp), %rax
 1146      FBFFFF
 1147 099a BA420000 		movl	$66, %edx
 1147      00
 1148 099f 4889CE   		movq	%rcx, %rsi
 1149 09a2 4889C7   		movq	%rax, %rdi
 1150 09a5 E8000000 		call	_ZN8UnitTest11TestDetailsC1ERKS0_i
 1150      00
  66:testSvf2Csvf.cpp **** 	bStatus = bufInitialise(&headBuf, 1024, 0x00, NULL);
 1151              		.loc 3 66 0 is_stmt 0 discriminator 10
 1152 09aa E8000000 		call	_ZN8UnitTest11CurrentTest7ResultsEv
 1152      00
 1153 09af 488B00   		movq	(%rax), %rax
 1154 09b2 488D8DC0 		leaq	-1088(%rbp), %rcx
 1154      FBFFFF
 1155 09b9 BA000000 		movl	$.LC13, %edx
 1155      00
 1156 09be 4889CE   		movq	%rcx, %rsi
 1157 09c1 4889C7   		movq	%rax, %rdi
 1158 09c4 E8000000 		call	_ZN8UnitTest11TestResults13OnTestFailureERKNS_11TestDetailsEPKc
 1158      00
 1159              	.LEHE50:
 1160              	.LEHB51:
  66:testSvf2Csvf.cpp **** 	bStatus = bufInitialise(&headBuf, 1024, 0x00, NULL);
 1161              		.loc 3 66 0 discriminator 14
 1162 09c9 E8000000 		call	__cxa_end_catch
 1162      00
 1163              	.LEHE51:
 1164 09ce E977FBFF 		jmp	.L47
 1164      FF
 1165              	.L83:
 1166 09d3 4889C3   		movq	%rax, %rbx
  66:testSvf2Csvf.cpp **** 	bStatus = bufInitialise(&headBuf, 1024, 0x00, NULL);
 1167              		.loc 3 66 0
 1168 09d6 E8000000 		call	__cxa_end_catch
 1168      00
 1169 09db 4889D8   		movq	%rbx, %rax
 1170 09de 4889C7   		movq	%rax, %rdi
 1171              	.LEHB52:
 1172 09e1 E8000000 		call	_Unwind_Resume
 1172      00
 1173              	.LEHE52:
 1174              	.L85:
 1175 09e6 EB00     		jmp	.L50
 1176              	.L84:
 1177              	.L50:
  68:testSvf2Csvf.cpp **** 	bStatus = bufInitialise(&tailBuf, 1024, 0x00, NULL);
 1178              		.loc 3 68 0 is_stmt 1
 1179 09e8 4889C7   		movq	%rax, %rdi
 1180 09eb E8000000 		call	__cxa_begin_catch
 1180      00
 1181              	.LEHB53:
 1182 09f0 E8000000 		call	_ZN8UnitTest11CurrentTest7DetailsEv
 1182      00
 1183 09f5 488B08   		movq	(%rax), %rcx
 1184 09f8 488D85C0 		leaq	-1088(%rbp), %rax
 1184      FBFFFF
 1185 09ff BA440000 		movl	$68, %edx
 1185      00
 1186 0a04 4889CE   		movq	%rcx, %rsi
 1187 0a07 4889C7   		movq	%rax, %rdi
 1188 0a0a E8000000 		call	_ZN8UnitTest11TestDetailsC1ERKS0_i
 1188      00
  68:testSvf2Csvf.cpp **** 	bStatus = bufInitialise(&tailBuf, 1024, 0x00, NULL);
 1189              		.loc 3 68 0 is_stmt 0 discriminator 10
 1190 0a0f E8000000 		call	_ZN8UnitTest11CurrentTest7ResultsEv
 1190      00
 1191 0a14 488B00   		movq	(%rax), %rax
 1192 0a17 488D8DC0 		leaq	-1088(%rbp), %rcx
 1192      FBFFFF
 1193 0a1e BA000000 		movl	$.LC13, %edx
 1193      00
 1194 0a23 4889CE   		movq	%rcx, %rsi
 1195 0a26 4889C7   		movq	%rax, %rdi
 1196 0a29 E8000000 		call	_ZN8UnitTest11TestResults13OnTestFailureERKNS_11TestDetailsEPKc
 1196      00
 1197              	.LEHE53:
 1198              	.LEHB54:
  68:testSvf2Csvf.cpp **** 	bStatus = bufInitialise(&tailBuf, 1024, 0x00, NULL);
 1199              		.loc 3 68 0 discriminator 14
 1200 0a2e E8000000 		call	__cxa_end_catch
 1200      00
 1201              	.LEHE54:
 1202 0a33 E984FBFF 		jmp	.L51
 1202      FF
 1203              	.L86:
 1204 0a38 4889C3   		movq	%rax, %rbx
  68:testSvf2Csvf.cpp **** 	bStatus = bufInitialise(&tailBuf, 1024, 0x00, NULL);
 1205              		.loc 3 68 0
 1206 0a3b E8000000 		call	__cxa_end_catch
 1206      00
 1207 0a40 4889D8   		movq	%rbx, %rax
 1208 0a43 4889C7   		movq	%rax, %rdi
 1209              	.LEHB55:
 1210 0a46 E8000000 		call	_Unwind_Resume
 1210      00
 1211              	.LEHE55:
 1212              	.L88:
 1213 0a4b EB00     		jmp	.L54
 1214              	.L87:
 1215              	.L54:
  70:testSvf2Csvf.cpp **** 	fStatus = readBytes(&lineBuf, line, NULL);
 1216              		.loc 3 70 0 is_stmt 1
 1217 0a4d 4889C7   		movq	%rax, %rdi
 1218 0a50 E8000000 		call	__cxa_begin_catch
 1218      00
 1219              	.LEHB56:
 1220 0a55 E8000000 		call	_ZN8UnitTest11CurrentTest7DetailsEv
 1220      00
 1221 0a5a 488B08   		movq	(%rax), %rcx
 1222 0a5d 488D85C0 		leaq	-1088(%rbp), %rax
 1222      FBFFFF
 1223 0a64 BA460000 		movl	$70, %edx
 1223      00
 1224 0a69 4889CE   		movq	%rcx, %rsi
 1225 0a6c 4889C7   		movq	%rax, %rdi
 1226 0a6f E8000000 		call	_ZN8UnitTest11TestDetailsC1ERKS0_i
 1226      00
  70:testSvf2Csvf.cpp **** 	fStatus = readBytes(&lineBuf, line, NULL);
 1227              		.loc 3 70 0 is_stmt 0 discriminator 10
 1228 0a74 E8000000 		call	_ZN8UnitTest11CurrentTest7ResultsEv
 1228      00
 1229 0a79 488B00   		movq	(%rax), %rax
 1230 0a7c 488D8DC0 		leaq	-1088(%rbp), %rcx
 1230      FBFFFF
 1231 0a83 BA000000 		movl	$.LC13, %edx
 1231      00
 1232 0a88 4889CE   		movq	%rcx, %rsi
 1233 0a8b 4889C7   		movq	%rax, %rdi
 1234 0a8e E8000000 		call	_ZN8UnitTest11TestResults13OnTestFailureERKNS_11TestDetailsEPKc
 1234      00
 1235              	.LEHE56:
 1236              	.LEHB57:
  70:testSvf2Csvf.cpp **** 	fStatus = readBytes(&lineBuf, line, NULL);
 1237              		.loc 3 70 0 discriminator 14
 1238 0a93 E8000000 		call	__cxa_end_catch
 1238      00
 1239              	.LEHE57:
 1240 0a98 E991FBFF 		jmp	.L55
 1240      FF
 1241              	.L89:
 1242 0a9d 4889C3   		movq	%rax, %rbx
  70:testSvf2Csvf.cpp **** 	fStatus = readBytes(&lineBuf, line, NULL);
 1243              		.loc 3 70 0
 1244 0aa0 E8000000 		call	__cxa_end_catch
 1244      00
 1245 0aa5 4889D8   		movq	%rbx, %rax
 1246 0aa8 4889C7   		movq	%rax, %rdi
 1247              	.LEHB58:
 1248 0aab E8000000 		call	_Unwind_Resume
 1248      00
 1249              	.LEHE58:
 1250              	.L91:
 1251 0ab0 EB00     		jmp	.L58
 1252              	.L90:
 1253              	.L58:
  72:testSvf2Csvf.cpp **** 	fStatus = readBytes(&headBuf, head, NULL);
 1254              		.loc 3 72 0 is_stmt 1
 1255 0ab2 4889C7   		movq	%rax, %rdi
 1256 0ab5 E8000000 		call	__cxa_begin_catch
 1256      00
 1257              	.LEHB59:
 1258 0aba E8000000 		call	_ZN8UnitTest11CurrentTest7DetailsEv
 1258      00
 1259 0abf 488B08   		movq	(%rax), %rcx
 1260 0ac2 488D85C0 		leaq	-1088(%rbp), %rax
 1260      FBFFFF
 1261 0ac9 BA480000 		movl	$72, %edx
 1261      00
 1262 0ace 4889CE   		movq	%rcx, %rsi
 1263 0ad1 4889C7   		movq	%rax, %rdi
 1264 0ad4 E8000000 		call	_ZN8UnitTest11TestDetailsC1ERKS0_i
 1264      00
  72:testSvf2Csvf.cpp **** 	fStatus = readBytes(&headBuf, head, NULL);
 1265              		.loc 3 72 0 is_stmt 0 discriminator 10
 1266 0ad9 E8000000 		call	_ZN8UnitTest11CurrentTest7ResultsEv
 1266      00
 1267 0ade 488B00   		movq	(%rax), %rax
 1268 0ae1 488D8DC0 		leaq	-1088(%rbp), %rcx
 1268      FBFFFF
 1269 0ae8 BA000000 		movl	$.LC2, %edx
 1269      00
 1270 0aed 4889CE   		movq	%rcx, %rsi
 1271 0af0 4889C7   		movq	%rax, %rdi
 1272 0af3 E8000000 		call	_ZN8UnitTest11TestResults13OnTestFailureERKNS_11TestDetailsEPKc
 1272      00
 1273              	.LEHE59:
 1274              	.LEHB60:
  72:testSvf2Csvf.cpp **** 	fStatus = readBytes(&headBuf, head, NULL);
 1275              		.loc 3 72 0 discriminator 14
 1276 0af8 E8000000 		call	__cxa_end_catch
 1276      00
 1277              	.LEHE60:
 1278 0afd E99EFBFF 		jmp	.L59
 1278      FF
 1279              	.L92:
 1280 0b02 4889C3   		movq	%rax, %rbx
  72:testSvf2Csvf.cpp **** 	fStatus = readBytes(&headBuf, head, NULL);
 1281              		.loc 3 72 0
 1282 0b05 E8000000 		call	__cxa_end_catch
 1282      00
 1283 0b0a 4889D8   		movq	%rbx, %rax
 1284 0b0d 4889C7   		movq	%rax, %rdi
 1285              	.LEHB61:
 1286 0b10 E8000000 		call	_Unwind_Resume
 1286      00
 1287              	.LEHE61:
 1288              	.L94:
 1289 0b15 EB00     		jmp	.L62
 1290              	.L93:
 1291              	.L62:
  74:testSvf2Csvf.cpp **** 	fStatus = readBytes(&tailBuf, tail, NULL);
 1292              		.loc 3 74 0 is_stmt 1
 1293 0b17 4889C7   		movq	%rax, %rdi
 1294 0b1a E8000000 		call	__cxa_begin_catch
 1294      00
 1295              	.LEHB62:
 1296 0b1f E8000000 		call	_ZN8UnitTest11CurrentTest7DetailsEv
 1296      00
 1297 0b24 488B08   		movq	(%rax), %rcx
 1298 0b27 488D85C0 		leaq	-1088(%rbp), %rax
 1298      FBFFFF
 1299 0b2e BA4A0000 		movl	$74, %edx
 1299      00
 1300 0b33 4889CE   		movq	%rcx, %rsi
 1301 0b36 4889C7   		movq	%rax, %rdi
 1302 0b39 E8000000 		call	_ZN8UnitTest11TestDetailsC1ERKS0_i
 1302      00
  74:testSvf2Csvf.cpp **** 	fStatus = readBytes(&tailBuf, tail, NULL);
 1303              		.loc 3 74 0 is_stmt 0 discriminator 10
 1304 0b3e E8000000 		call	_ZN8UnitTest11CurrentTest7ResultsEv
 1304      00
 1305 0b43 488B00   		movq	(%rax), %rax
 1306 0b46 488D8DC0 		leaq	-1088(%rbp), %rcx
 1306      FBFFFF
 1307 0b4d BA000000 		movl	$.LC2, %edx
 1307      00
 1308 0b52 4889CE   		movq	%rcx, %rsi
 1309 0b55 4889C7   		movq	%rax, %rdi
 1310 0b58 E8000000 		call	_ZN8UnitTest11TestResults13OnTestFailureERKNS_11TestDetailsEPKc
 1310      00
 1311              	.LEHE62:
 1312              	.LEHB63:
  74:testSvf2Csvf.cpp **** 	fStatus = readBytes(&tailBuf, tail, NULL);
 1313              		.loc 3 74 0 discriminator 14
 1314 0b5d E8000000 		call	__cxa_end_catch
 1314      00
 1315              	.LEHE63:
 1316 0b62 E9ABFBFF 		jmp	.L63
 1316      FF
 1317              	.L95:
 1318 0b67 4889C3   		movq	%rax, %rbx
  74:testSvf2Csvf.cpp **** 	fStatus = readBytes(&tailBuf, tail, NULL);
 1319              		.loc 3 74 0
 1320 0b6a E8000000 		call	__cxa_end_catch
 1320      00
 1321 0b6f 4889D8   		movq	%rbx, %rax
 1322 0b72 4889C7   		movq	%rax, %rdi
 1323              	.LEHB64:
 1324 0b75 E8000000 		call	_Unwind_Resume
 1324      00
 1325              	.LEHE64:
 1326              	.L97:
 1327 0b7a EB00     		jmp	.L66
 1328              	.L96:
 1329              	.L66:
  76:testSvf2Csvf.cpp **** 	fStatus = headTail(&lineBuf, &headBuf, &tailBuf, lineBits, headBits, tailBits, NULL);
 1330              		.loc 3 76 0 is_stmt 1
 1331 0b7c 4889C7   		movq	%rax, %rdi
 1332 0b7f E8000000 		call	__cxa_begin_catch
 1332      00
 1333              	.LEHB65:
 1334 0b84 E8000000 		call	_ZN8UnitTest11CurrentTest7DetailsEv
 1334      00
 1335 0b89 488B08   		movq	(%rax), %rcx
 1336 0b8c 488D85C0 		leaq	-1088(%rbp), %rax
 1336      FBFFFF
 1337 0b93 BA4C0000 		movl	$76, %edx
 1337      00
 1338 0b98 4889CE   		movq	%rcx, %rsi
 1339 0b9b 4889C7   		movq	%rax, %rdi
 1340 0b9e E8000000 		call	_ZN8UnitTest11TestDetailsC1ERKS0_i
 1340      00
  76:testSvf2Csvf.cpp **** 	fStatus = headTail(&lineBuf, &headBuf, &tailBuf, lineBits, headBits, tailBits, NULL);
 1341              		.loc 3 76 0 is_stmt 0 discriminator 10
 1342 0ba3 E8000000 		call	_ZN8UnitTest11CurrentTest7ResultsEv
 1342      00
 1343 0ba8 488B00   		movq	(%rax), %rax
 1344 0bab 488D8DC0 		leaq	-1088(%rbp), %rcx
 1344      FBFFFF
 1345 0bb2 BA000000 		movl	$.LC2, %edx
 1345      00
 1346 0bb7 4889CE   		movq	%rcx, %rsi
 1347 0bba 4889C7   		movq	%rax, %rdi
 1348 0bbd E8000000 		call	_ZN8UnitTest11TestResults13OnTestFailureERKNS_11TestDetailsEPKc
 1348      00
 1349              	.LEHE65:
 1350              	.LEHB66:
  76:testSvf2Csvf.cpp **** 	fStatus = headTail(&lineBuf, &headBuf, &tailBuf, lineBits, headBits, tailBits, NULL);
 1351              		.loc 3 76 0 discriminator 14
 1352 0bc2 E8000000 		call	__cxa_end_catch
 1352      00
 1353              	.LEHE66:
 1354 0bc7 E9B8FBFF 		jmp	.L67
 1354      FF
 1355              	.L98:
 1356 0bcc 4889C3   		movq	%rax, %rbx
  76:testSvf2Csvf.cpp **** 	fStatus = headTail(&lineBuf, &headBuf, &tailBuf, lineBits, headBits, tailBits, NULL);
 1357              		.loc 3 76 0
 1358 0bcf E8000000 		call	__cxa_end_catch
 1358      00
 1359 0bd4 4889D8   		movq	%rbx, %rax
 1360 0bd7 4889C7   		movq	%rax, %rdi
 1361              	.LEHB67:
 1362 0bda E8000000 		call	_Unwind_Resume
 1362      00
 1363              	.LEHE67:
 1364              	.L100:
 1365 0bdf EB00     		jmp	.L70
 1366              	.L99:
 1367              	.L70:
  78:testSvf2Csvf.cpp **** 	CHECK_EQUAL(strlen(expectedHex)/2, lineBuf.length);
 1368              		.loc 3 78 0 is_stmt 1
 1369 0be1 4889C7   		movq	%rax, %rdi
 1370 0be4 E8000000 		call	__cxa_begin_catch
 1370      00
 1371              	.LEHB68:
 1372 0be9 E8000000 		call	_ZN8UnitTest11CurrentTest7DetailsEv
 1372      00
 1373 0bee 488B08   		movq	(%rax), %rcx
 1374 0bf1 488D85C0 		leaq	-1088(%rbp), %rax
 1374      FBFFFF
 1375 0bf8 BA4E0000 		movl	$78, %edx
 1375      00
 1376 0bfd 4889CE   		movq	%rcx, %rsi
 1377 0c00 4889C7   		movq	%rax, %rdi
 1378 0c03 E8000000 		call	_ZN8UnitTest11TestDetailsC1ERKS0_i
 1378      00
  78:testSvf2Csvf.cpp **** 	CHECK_EQUAL(strlen(expectedHex)/2, lineBuf.length);
 1379              		.loc 3 78 0 is_stmt 0 discriminator 10
 1380 0c08 E8000000 		call	_ZN8UnitTest11CurrentTest7ResultsEv
 1380      00
 1381 0c0d 488B00   		movq	(%rax), %rax
 1382 0c10 488D8DC0 		leaq	-1088(%rbp), %rcx
 1382      FBFFFF
 1383 0c17 BA000000 		movl	$.LC2, %edx
 1383      00
 1384 0c1c 4889CE   		movq	%rcx, %rsi
 1385 0c1f 4889C7   		movq	%rax, %rdi
 1386 0c22 E8000000 		call	_ZN8UnitTest11TestResults13OnTestFailureERKNS_11TestDetailsEPKc
 1386      00
 1387              	.LEHE68:
 1388              	.LEHB69:
  78:testSvf2Csvf.cpp **** 	CHECK_EQUAL(strlen(expectedHex)/2, lineBuf.length);
 1389              		.loc 3 78 0 discriminator 14
 1390 0c27 E8000000 		call	__cxa_end_catch
 1390      00
 1391              	.LEHE69:
 1392 0c2c E9E7FBFF 		jmp	.L71
 1392      FF
 1393              	.L101:
 1394 0c31 4889C3   		movq	%rax, %rbx
  78:testSvf2Csvf.cpp **** 	CHECK_EQUAL(strlen(expectedHex)/2, lineBuf.length);
 1395              		.loc 3 78 0
 1396 0c34 E8000000 		call	__cxa_end_catch
 1396      00
 1397 0c39 4889D8   		movq	%rbx, %rax
 1398 0c3c 4889C7   		movq	%rax, %rdi
 1399              	.LEHB70:
 1400 0c3f E8000000 		call	_Unwind_Resume
 1400      00
 1401              	.LEHE70:
 1402              	.L103:
 1403 0c44 EB00     		jmp	.L74
 1404              	.L102:
 1405              	.L74:
  79:testSvf2Csvf.cpp **** 	for ( uint32 i = 0; i < 2*lineBuf.length; i++ ) {
 1406              		.loc 3 79 0 is_stmt 1
 1407 0c46 4889C7   		movq	%rax, %rdi
 1408 0c49 E8000000 		call	__cxa_begin_catch
 1408      00
 1409              	.LEHB71:
 1410 0c4e E8000000 		call	_ZN8UnitTest11CurrentTest7DetailsEv
 1410      00
 1411 0c53 488B08   		movq	(%rax), %rcx
 1412 0c56 488D85C0 		leaq	-1088(%rbp), %rax
 1412      FBFFFF
 1413 0c5d BA4F0000 		movl	$79, %edx
 1413      00
 1414 0c62 4889CE   		movq	%rcx, %rsi
 1415 0c65 4889C7   		movq	%rax, %rdi
 1416 0c68 E8000000 		call	_ZN8UnitTest11TestDetailsC1ERKS0_i
 1416      00
  79:testSvf2Csvf.cpp **** 	for ( uint32 i = 0; i < 2*lineBuf.length; i++ ) {
 1417              		.loc 3 79 0 is_stmt 0 discriminator 10
 1418 0c6d E8000000 		call	_ZN8UnitTest11CurrentTest7ResultsEv
 1418      00
 1419 0c72 488B00   		movq	(%rax), %rax
 1420 0c75 488D8DC0 		leaq	-1088(%rbp), %rcx
 1420      FBFFFF
 1421 0c7c BA000000 		movl	$.LC14, %edx
 1421      00
 1422 0c81 4889CE   		movq	%rcx, %rsi
 1423 0c84 4889C7   		movq	%rax, %rdi
 1424 0c87 E8000000 		call	_ZN8UnitTest11TestResults13OnTestFailureERKNS_11TestDetailsEPKc
 1424      00
 1425              	.LEHE71:
 1426              	.LEHB72:
  79:testSvf2Csvf.cpp **** 	for ( uint32 i = 0; i < 2*lineBuf.length; i++ ) {
 1427              		.loc 3 79 0 discriminator 14
 1428 0c8c E8000000 		call	__cxa_end_catch
 1428      00
 1429              	.LEHE72:
 1430 0c91 E9E9FBFF 		jmp	.L75
 1430      FF
 1431              	.L104:
 1432 0c96 4889C3   		movq	%rax, %rbx
  79:testSvf2Csvf.cpp **** 	for ( uint32 i = 0; i < 2*lineBuf.length; i++ ) {
 1433              		.loc 3 79 0
 1434 0c99 E8000000 		call	__cxa_end_catch
 1434      00
 1435 0c9e 4889D8   		movq	%rbx, %rax
 1436 0ca1 4889C7   		movq	%rax, %rdi
 1437              	.LEHB73:
 1438 0ca4 E8000000 		call	_Unwind_Resume
 1438      00
 1439              	.LEHE73:
 1440              	.L105:
  84:testSvf2Csvf.cpp **** 	bufDestroy(&tailBuf);
 1441              		.loc 3 84 0 is_stmt 1
 1442 0ca9 4889C7   		movq	%rax, %rdi
 1443 0cac E8000000 		call	__cxa_begin_catch
 1443      00
 1444              	.LEHB74:
 1445 0cb1 E8000000 		call	_ZN8UnitTest11CurrentTest7DetailsEv
 1445      00
 1446 0cb6 488B08   		movq	(%rax), %rcx
 1447 0cb9 488D85C0 		leaq	-1088(%rbp), %rax
 1447      FBFFFF
 1448 0cc0 BA540000 		movl	$84, %edx
 1448      00
 1449 0cc5 4889CE   		movq	%rcx, %rsi
 1450 0cc8 4889C7   		movq	%rax, %rdi
 1451 0ccb E8000000 		call	_ZN8UnitTest11TestDetailsC1ERKS0_i
 1451      00
  84:testSvf2Csvf.cpp **** 	bufDestroy(&tailBuf);
 1452              		.loc 3 84 0 is_stmt 0 discriminator 10
 1453 0cd0 E8000000 		call	_ZN8UnitTest11CurrentTest7ResultsEv
 1453      00
 1454 0cd5 488B00   		movq	(%rax), %rax
 1455 0cd8 488D8DC0 		leaq	-1088(%rbp), %rcx
 1455      FBFFFF
 1456 0cdf BA000000 		movl	$.LC15, %edx
 1456      00
 1457 0ce4 4889CE   		movq	%rcx, %rsi
 1458 0ce7 4889C7   		movq	%rax, %rdi
 1459 0cea E8000000 		call	_ZN8UnitTest11TestResults13OnTestFailureERKNS_11TestDetailsEPKc
 1459      00
 1460              	.LEHE74:
 1461              	.LEHB75:
  84:testSvf2Csvf.cpp **** 	bufDestroy(&tailBuf);
 1462              		.loc 3 84 0 discriminator 14
 1463 0cef E8000000 		call	__cxa_end_catch
 1463      00
 1464              	.LEHE75:
 1465 0cf4 E942FCFF 		jmp	.L78
 1465      FF
 1466              	.L106:
 1467 0cf9 4889C3   		movq	%rax, %rbx
  84:testSvf2Csvf.cpp **** 	bufDestroy(&tailBuf);
 1468              		.loc 3 84 0
 1469 0cfc E8000000 		call	__cxa_end_catch
 1469      00
 1470 0d01 4889D8   		movq	%rbx, %rax
 1471 0d04 4889C7   		movq	%rax, %rdi
 1472              	.LEHB76:
 1473 0d07 E8000000 		call	_Unwind_Resume
 1473      00
 1474              	.LEHE76:
 1475              	.L107:
 1476              		.loc 3 88 0 is_stmt 1
 1477 0d0c E8000000 		call	__stack_chk_fail
 1477      00
 1478              	.L80:
 1479 0d11 488B5DF8 		movq	-8(%rbp), %rbx
 1480 0d15 C9       		leave
 1481              		.cfi_def_cfa 7, 8
 1482 0d16 C3       		ret
 1483              		.cfi_endproc
 1484              	.LFE1078:
 1485              		.section	.gcc_except_table
 1486              		.align 4
 1487              	.LLSDA1078:
 1488 0088 FF       		.byte	0xff
 1489 0089 03       		.byte	0x3
 1490 008a A802     		.uleb128 .LLSDATT1078-.LLSDATTD1078
 1491              	.LLSDATTD1078:
 1492 008c 01       		.byte	0x1
 1493 008d 9C02     		.uleb128 .LLSDACSE1078-.LLSDACSB1078
 1494              	.LLSDACSB1078:
 1495 008f 67       		.uleb128 .LEHB25-.LFB1078
 1496 0090 05       		.uleb128 .LEHE25-.LEHB25
 1497 0091 00       		.uleb128 0
 1498 0092 00       		.uleb128 0
 1499 0093 72       		.uleb128 .LEHB26-.LFB1078
 1500 0094 1F       		.uleb128 .LEHE26-.LEHB26
 1501 0095 F909     		.uleb128 .L81-.LFB1078
 1502 0097 01       		.uleb128 0x1
 1503 0098 9B01     		.uleb128 .LEHB27-.LFB1078
 1504 009a 25       		.uleb128 .LEHE27-.LEHB27
 1505 009b F709     		.uleb128 .L82-.LFB1078
 1506 009d 03       		.uleb128 0x3
 1507 009e D901     		.uleb128 .LEHB28-.LFB1078
 1508 00a0 05       		.uleb128 .LEHE28-.LEHB28
 1509 00a1 00       		.uleb128 0
 1510 00a2 00       		.uleb128 0
 1511 00a3 E401     		.uleb128 .LEHB29-.LFB1078
 1512 00a5 1F       		.uleb128 .LEHE29-.LEHB29
 1513 00a6 DE0A     		.uleb128 .L84-.LFB1078
 1514 00a8 01       		.uleb128 0x1
 1515 00a9 8D02     		.uleb128 .LEHB30-.LFB1078
 1516 00ab 25       		.uleb128 .LEHE30-.LEHB30
 1517 00ac DC0A     		.uleb128 .L85-.LFB1078
 1518 00ae 03       		.uleb128 0x3
 1519 00af CB02     		.uleb128 .LEHB31-.LFB1078
 1520 00b1 05       		.uleb128 .LEHE31-.LEHB31
 1521 00b2 00       		.uleb128 0
 1522 00b3 00       		.uleb128 0
 1523 00b4 D602     		.uleb128 .LEHB32-.LFB1078
 1524 00b6 1F       		.uleb128 .LEHE32-.LEHB32
 1525 00b7 C30B     		.uleb128 .L87-.LFB1078
 1526 00b9 01       		.uleb128 0x1
 1527 00ba FF02     		.uleb128 .LEHB33-.LFB1078
 1528 00bc 25       		.uleb128 .LEHE33-.LEHB33
 1529 00bd C10B     		.uleb128 .L88-.LFB1078
 1530 00bf 03       		.uleb128 0x3
 1531 00c0 BD03     		.uleb128 .LEHB34-.LFB1078
 1532 00c2 05       		.uleb128 .LEHE34-.LEHB34
 1533 00c3 00       		.uleb128 0
 1534 00c4 00       		.uleb128 0
 1535 00c5 C803     		.uleb128 .LEHB35-.LFB1078
 1536 00c7 1F       		.uleb128 .LEHE35-.LEHB35
 1537 00c8 A80C     		.uleb128 .L90-.LFB1078
 1538 00ca 01       		.uleb128 0x1
 1539 00cb F103     		.uleb128 .LEHB36-.LFB1078
 1540 00cd 25       		.uleb128 .LEHE36-.LEHB36
 1541 00ce A60C     		.uleb128 .L91-.LFB1078
 1542 00d0 03       		.uleb128 0x3
 1543 00d1 AF04     		.uleb128 .LEHB37-.LFB1078
 1544 00d3 05       		.uleb128 .LEHE37-.LEHB37
 1545 00d4 00       		.uleb128 0
 1546 00d5 00       		.uleb128 0
 1547 00d6 BA04     		.uleb128 .LEHB38-.LFB1078
 1548 00d8 1F       		.uleb128 .LEHE38-.LEHB38
 1549 00d9 8D0D     		.uleb128 .L93-.LFB1078
 1550 00db 01       		.uleb128 0x1
 1551 00dc E304     		.uleb128 .LEHB39-.LFB1078
 1552 00de 25       		.uleb128 .LEHE39-.LEHB39
 1553 00df 8B0D     		.uleb128 .L94-.LFB1078
 1554 00e1 03       		.uleb128 0x3
 1555 00e2 A105     		.uleb128 .LEHB40-.LFB1078
 1556 00e4 05       		.uleb128 .LEHE40-.LEHB40
 1557 00e5 00       		.uleb128 0
 1558 00e6 00       		.uleb128 0
 1559 00e7 AC05     		.uleb128 .LEHB41-.LFB1078
 1560 00e9 1F       		.uleb128 .LEHE41-.LEHB41
 1561 00ea F20D     		.uleb128 .L96-.LFB1078
 1562 00ec 01       		.uleb128 0x1
 1563 00ed D505     		.uleb128 .LEHB42-.LFB1078
 1564 00ef 25       		.uleb128 .LEHE42-.LEHB42
 1565 00f0 F00D     		.uleb128 .L97-.LFB1078
 1566 00f2 03       		.uleb128 0x3
 1567 00f3 B106     		.uleb128 .LEHB43-.LFB1078
 1568 00f5 05       		.uleb128 .LEHE43-.LEHB43
 1569 00f6 00       		.uleb128 0
 1570 00f7 00       		.uleb128 0
 1571 00f8 C006     		.uleb128 .LEHB44-.LFB1078
 1572 00fa 1F       		.uleb128 .LEHE44-.LEHB44
 1573 00fb D70E     		.uleb128 .L99-.LFB1078
 1574 00fd 01       		.uleb128 0x1
 1575 00fe E906     		.uleb128 .LEHB45-.LFB1078
 1576 0100 25       		.uleb128 .LEHE45-.LEHB45
 1577 0101 D50E     		.uleb128 .L100-.LFB1078
 1578 0103 03       		.uleb128 0x3
 1579 0104 8E07     		.uleb128 .LEHB46-.LFB1078
 1580 0106 1F       		.uleb128 .LEHE46-.LEHB46
 1581 0107 BC0F     		.uleb128 .L102-.LFB1078
 1582 0109 01       		.uleb128 0x1
 1583 010a C607     		.uleb128 .LEHB47-.LFB1078
 1584 010c 2F       		.uleb128 .LEHE47-.LEHB47
 1585 010d BA0F     		.uleb128 .L103-.LFB1078
 1586 010f 03       		.uleb128 0x3
 1587 0110 ED08     		.uleb128 .LEHB48-.LFB1078
 1588 0112 44       		.uleb128 .LEHE48-.LEHB48
 1589 0113 9F10     		.uleb128 .L105-.LFB1078
 1590 0115 01       		.uleb128 0x1
 1591 0116 BB09     		.uleb128 .LEHB49-.LFB1078
 1592 0118 23       		.uleb128 .LEHE49-.LEHB49
 1593 0119 00       		.uleb128 0
 1594 011a 00       		.uleb128 0
 1595 011b 810A     		.uleb128 .LEHB50-.LFB1078
 1596 011d 3E       		.uleb128 .LEHE50-.LEHB50
 1597 011e C90A     		.uleb128 .L83-.LFB1078
 1598 0120 00       		.uleb128 0
 1599 0121 BF0A     		.uleb128 .LEHB51-.LFB1078
 1600 0123 05       		.uleb128 .LEHE51-.LEHB51
 1601 0124 00       		.uleb128 0
 1602 0125 00       		.uleb128 0
 1603 0126 D70A     		.uleb128 .LEHB52-.LFB1078
 1604 0128 05       		.uleb128 .LEHE52-.LEHB52
 1605 0129 00       		.uleb128 0
 1606 012a 00       		.uleb128 0
 1607 012b E60A     		.uleb128 .LEHB53-.LFB1078
 1608 012d 3E       		.uleb128 .LEHE53-.LEHB53
 1609 012e AE0B     		.uleb128 .L86-.LFB1078
 1610 0130 00       		.uleb128 0
 1611 0131 A40B     		.uleb128 .LEHB54-.LFB1078
 1612 0133 05       		.uleb128 .LEHE54-.LEHB54
 1613 0134 00       		.uleb128 0
 1614 0135 00       		.uleb128 0
 1615 0136 BC0B     		.uleb128 .LEHB55-.LFB1078
 1616 0138 05       		.uleb128 .LEHE55-.LEHB55
 1617 0139 00       		.uleb128 0
 1618 013a 00       		.uleb128 0
 1619 013b CB0B     		.uleb128 .LEHB56-.LFB1078
 1620 013d 3E       		.uleb128 .LEHE56-.LEHB56
 1621 013e 930C     		.uleb128 .L89-.LFB1078
 1622 0140 00       		.uleb128 0
 1623 0141 890C     		.uleb128 .LEHB57-.LFB1078
 1624 0143 05       		.uleb128 .LEHE57-.LEHB57
 1625 0144 00       		.uleb128 0
 1626 0145 00       		.uleb128 0
 1627 0146 A10C     		.uleb128 .LEHB58-.LFB1078
 1628 0148 05       		.uleb128 .LEHE58-.LEHB58
 1629 0149 00       		.uleb128 0
 1630 014a 00       		.uleb128 0
 1631 014b B00C     		.uleb128 .LEHB59-.LFB1078
 1632 014d 3E       		.uleb128 .LEHE59-.LEHB59
 1633 014e F80C     		.uleb128 .L92-.LFB1078
 1634 0150 00       		.uleb128 0
 1635 0151 EE0C     		.uleb128 .LEHB60-.LFB1078
 1636 0153 05       		.uleb128 .LEHE60-.LEHB60
 1637 0154 00       		.uleb128 0
 1638 0155 00       		.uleb128 0
 1639 0156 860D     		.uleb128 .LEHB61-.LFB1078
 1640 0158 05       		.uleb128 .LEHE61-.LEHB61
 1641 0159 00       		.uleb128 0
 1642 015a 00       		.uleb128 0
 1643 015b 950D     		.uleb128 .LEHB62-.LFB1078
 1644 015d 3E       		.uleb128 .LEHE62-.LEHB62
 1645 015e DD0D     		.uleb128 .L95-.LFB1078
 1646 0160 00       		.uleb128 0
 1647 0161 D30D     		.uleb128 .LEHB63-.LFB1078
 1648 0163 05       		.uleb128 .LEHE63-.LEHB63
 1649 0164 00       		.uleb128 0
 1650 0165 00       		.uleb128 0
 1651 0166 EB0D     		.uleb128 .LEHB64-.LFB1078
 1652 0168 05       		.uleb128 .LEHE64-.LEHB64
 1653 0169 00       		.uleb128 0
 1654 016a 00       		.uleb128 0
 1655 016b FA0D     		.uleb128 .LEHB65-.LFB1078
 1656 016d 3E       		.uleb128 .LEHE65-.LEHB65
 1657 016e C20E     		.uleb128 .L98-.LFB1078
 1658 0170 00       		.uleb128 0
 1659 0171 B80E     		.uleb128 .LEHB66-.LFB1078
 1660 0173 05       		.uleb128 .LEHE66-.LEHB66
 1661 0174 00       		.uleb128 0
 1662 0175 00       		.uleb128 0
 1663 0176 D00E     		.uleb128 .LEHB67-.LFB1078
 1664 0178 05       		.uleb128 .LEHE67-.LEHB67
 1665 0179 00       		.uleb128 0
 1666 017a 00       		.uleb128 0
 1667 017b DF0E     		.uleb128 .LEHB68-.LFB1078
 1668 017d 3E       		.uleb128 .LEHE68-.LEHB68
 1669 017e A70F     		.uleb128 .L101-.LFB1078
 1670 0180 00       		.uleb128 0
 1671 0181 9D0F     		.uleb128 .LEHB69-.LFB1078
 1672 0183 05       		.uleb128 .LEHE69-.LEHB69
 1673 0184 00       		.uleb128 0
 1674 0185 00       		.uleb128 0
 1675 0186 B50F     		.uleb128 .LEHB70-.LFB1078
 1676 0188 05       		.uleb128 .LEHE70-.LEHB70
 1677 0189 00       		.uleb128 0
 1678 018a 00       		.uleb128 0
 1679 018b C40F     		.uleb128 .LEHB71-.LFB1078
 1680 018d 3E       		.uleb128 .LEHE71-.LEHB71
 1681 018e 8C10     		.uleb128 .L104-.LFB1078
 1682 0190 00       		.uleb128 0
 1683 0191 8210     		.uleb128 .LEHB72-.LFB1078
 1684 0193 05       		.uleb128 .LEHE72-.LEHB72
 1685 0194 00       		.uleb128 0
 1686 0195 00       		.uleb128 0
 1687 0196 9A10     		.uleb128 .LEHB73-.LFB1078
 1688 0198 05       		.uleb128 .LEHE73-.LEHB73
 1689 0199 00       		.uleb128 0
 1690 019a 00       		.uleb128 0
 1691 019b A710     		.uleb128 .LEHB74-.LFB1078
 1692 019d 3E       		.uleb128 .LEHE74-.LEHB74
 1693 019e EF10     		.uleb128 .L106-.LFB1078
 1694 01a0 00       		.uleb128 0
 1695 01a1 E510     		.uleb128 .LEHB75-.LFB1078
 1696 01a3 05       		.uleb128 .LEHE75-.LEHB75
 1697 01a4 00       		.uleb128 0
 1698 01a5 00       		.uleb128 0
 1699 01a6 FD10     		.uleb128 .LEHB76-.LFB1078
 1700 01a8 05       		.uleb128 .LEHE76-.LEHB76
 1701 01a9 00       		.uleb128 0
 1702 01aa 00       		.uleb128 0
 1703              	.LLSDACSE1078:
 1704 01ab 01       		.byte	0x1
 1705 01ac 00       		.byte	0
 1706 01ad 00       		.byte	0
 1707 01ae 7D       		.byte	0x7d
 1708 01af 00       		.align 4
 1709 01b0 00000000 		.long	0
 1710              	
 1711              	.LLSDATT1078:
 1712              		.text
 1714              		.section	.rodata
 1715              	.LC16:
 1716 01eb 46504741 		.string	"FPGALink_testShift"
 1716      4C696E6B 
 1716      5F746573 
 1716      74536869 
 1716      667400
 1717              		.section	.text._ZN22TestFPGALink_testShiftC2Ev,"axG",@progbits,_ZN22TestFPGALink_testShiftC5Ev,com
 1718              		.align 2
 1719              		.weak	_ZN22TestFPGALink_testShiftC2Ev
 1721              	_ZN22TestFPGALink_testShiftC2Ev:
 1722              	.LFB1080:
  89:testSvf2Csvf.cpp **** 
  90:testSvf2Csvf.cpp **** TEST(FPGALink_testShift) {
 1723              		.loc 3 90 0
 1724              		.cfi_startproc
 1725 0000 55       		pushq	%rbp
 1726              		.cfi_def_cfa_offset 16
 1727              		.cfi_offset 6, -16
 1728 0001 4889E5   		movq	%rsp, %rbp
 1729              		.cfi_def_cfa_register 6
 1730 0004 4883EC10 		subq	$16, %rsp
 1731 0008 48897DF8 		movq	%rdi, -8(%rbp)
 1732              	.LBB7:
 1733              		.loc 3 90 0
 1734 000c E8000000 		call	_ZN13UnitTestSuite12GetSuiteNameEv
 1734      00
 1735 0011 4889C2   		movq	%rax, %rdx
 1736 0014 488B45F8 		movq	-8(%rbp), %rax
 1737 0018 41B85A00 		movl	$90, %r8d
 1737      0000
 1738 001e B9000000 		movl	$.LC5, %ecx
 1738      00
 1739 0023 BE000000 		movl	$.LC16, %esi
 1739      00
 1740 0028 4889C7   		movq	%rax, %rdi
 1741 002b E8000000 		call	_ZN8UnitTest4TestC2EPKcS2_S2_i
 1741      00
 1742 0030 BA000000 		movl	$_ZTV22TestFPGALink_testShift+16, %edx
 1742      00
 1743 0035 488B45F8 		movq	-8(%rbp), %rax
 1744 0039 488910   		movq	%rdx, (%rax)
 1745              	.LBE7:
 1746 003c 90       		nop
 1747 003d C9       		leave
 1748              		.cfi_def_cfa 7, 8
 1749 003e C3       		ret
 1750              		.cfi_endproc
 1751              	.LFE1080:
 1753              		.weak	_ZN22TestFPGALink_testShiftC1Ev
 1754              		.set	_ZN22TestFPGALink_testShiftC1Ev,_ZN22TestFPGALink_testShiftC2Ev
 1755              		.globl	testFPGALink_testShiftInstance
 1756              		.bss
 1757 0039 00000000 		.align 32
 1757      000000
 1760              	testFPGALink_testShiftInstance:
 1761 0040 00000000 		.zero	56
 1761      00000000 
 1761      00000000 
 1761      00000000 
 1761      00000000 
 1762              		.globl	adderFPGALink_testShift
 1765              	adderFPGALink_testShift:
 1766 0078 00       		.zero	1
 1767              		.section	.rodata
 1768              	.LC17:
 1769 01fe 303600   		.string	"06"
 1770              	.LC18:
 1771 0201 303000   		.string	"00"
 1772              	.LC19:
 1773 0204 46314332 		.string	"F1C2E093"
 1773      45303933 
 1773      00
 1774              	.LC20:
 1775 020d 30364631 		.string	"06F1C2E093"
 1775      43324530 
 1775      393300
 1776              	.LC21:
 1777 0218 303100   		.string	"01"
 1778              	.LC22:
 1779 021b 30444533 		.string	"0DE385C127"
 1779      38354331 
 1779      323700
 1780              	.LC23:
 1781 0226 303200   		.string	"02"
 1782              	.LC24:
 1783 0229 31424337 		.string	"1BC70B824E"
 1783      30423832 
 1783      344500
 1784              	.LC25:
 1785 0234 33373845 		.string	"378E17049E"
 1785      31373034 
 1785      394500
 1786              	.LC26:
 1787 023f 304100   		.string	"0A"
 1788              	.LC27:
 1789 0242 36463143 		.string	"6F1C2E093A"
 1789      32453039 
 1789      334100
 1790              	.LC28:
 1791 024d 313500   		.string	"15"
 1792              	.LC29:
 1793 0250 44453338 		.string	"DE385C1275"
 1793      35433132 
 1793      373500
 1794              	.LC30:
 1795 025b 323500   		.string	"25"
 1796              	.LC31:
 1797 025e 30314243 		.string	"01BC70B824E5"
 1797      37304238 
 1797      32344535 
 1797      00
 1798              	.LC32:
 1799 026b 373500   		.string	"75"
 1800              	.LC33:
 1801 026e 30333738 		.string	"0378E17049F5"
 1801      45313730 
 1801      34394635 
 1801      00
 1802              	.LC34:
 1803 027b 653500   		.string	"e5"
 1804              	.LC35:
 1805 027e 30364631 		.string	"06F1C2E093E5"
 1805      43324530 
 1805      39334535 
 1805      00
 1806              	.LC36:
 1807 028b 30313135 		.string	"0115"
 1807      00
 1808              	.LC37:
 1809 0290 30444533 		.string	"0DE385C12715"
 1809      38354331 
 1809      32373135 
 1809      00
 1810              	.LC38:
 1811 029d 30333135 		.string	"0315"
 1811      00
 1812              	.LC39:
 1813 02a2 31424337 		.string	"1BC70B824F15"
 1813      30423832 
 1813      34463135 
 1813      00
 1814              	.LC40:
 1815 02af 30373135 		.string	"0715"
 1815      00
 1816              	.LC41:
 1817 02b4 33373845 		.string	"378E17049F15"
 1817      31373034 
 1817      39463135 
 1817      00
 1818              	.LC42:
 1819 02c1 30633135 		.string	"0c15"
 1819      00
 1820              	.LC43:
 1821 02c6 36463143 		.string	"6F1C2E093C15"
 1821      32453039 
 1821      33433135 
 1821      00
 1822              	.LC44:
 1823 02d3 31633135 		.string	"1c15"
 1823      00
 1824              	.LC45:
 1825 02d8 44453338 		.string	"DE385C127C15"
 1825      35433132 
 1825      37433135 
 1825      00
 1826              	.LC46:
 1827 02e5 32633135 		.string	"2c15"
 1827      00
 1828              	.LC47:
 1829 02ea 30314243 		.string	"01BC70B824EC15"
 1829      37304238 
 1829      32344543 
 1829      313500
 1830              	.LC48:
 1831 02f9 34303135 		.string	"4015"
 1831      00
 1832              	.LC49:
 1833 02fe 30333738 		.string	"0378E17049C015"
 1833      45313730 
 1833      34394330 
 1833      313500
 1834              	.LC50:
 1835 030d 38303135 		.string	"8015"
 1835      00
 1836              	.LC51:
 1837 0312 30364631 		.string	"06F1C2E0938015"
 1837      43324530 
 1837      39333830 
 1837      313500
 1838              	.LC52:
 1839 0321 30313830 		.string	"018015"
 1839      313500
 1840              	.LC53:
 1841 0328 30444533 		.string	"0DE385C1278015"
 1841      38354331 
 1841      32373830 
 1841      313500
 1842              	.LC54:
 1843 0337 30414631 		.string	"0AF1C2E093"
 1843      43324530 
 1843      393300
 1844              	.LC55:
 1845 0342 31354533 		.string	"15E385C127"
 1845      38354331 
 1845      323700
 1846              	.LC56:
 1847 034d 32424337 		.string	"2BC70B824E"
 1847      30423832 
 1847      344500
 1848              	.LC57:
 1849 0358 35373845 		.string	"578E17049E"
 1849      31373034 
 1849      394500
 1850              	.LC58:
 1851 0363 41463143 		.string	"AF1C2E093A"
 1851      32453039 
 1851      334100
 1852              	.LC59:
 1853 036e 30313545 		.string	"015E385C1275"
 1853      33383543 
 1853      31323735 
 1853      00
 1854              	.LC60:
 1855 037b 30324243 		.string	"02BC70B824E5"
 1855      37304238 
 1855      32344535 
 1855      00
 1856              	.LC61:
 1857 0388 30353738 		.string	"0578E17049F5"
 1857      45313730 
 1857      34394635 
 1857      00
 1858              	.LC62:
 1859 0395 30414631 		.string	"0AF1C2E093E5"
 1859      43324530 
 1859      39334535 
 1859      00
 1860              	.LC63:
 1861 03a2 31354533 		.string	"15E385C12715"
 1861      38354331 
 1861      32373135 
 1861      00
 1862              	.LC64:
 1863 03af 32424337 		.string	"2BC70B824F15"
 1863      30423832 
 1863      34463135 
 1863      00
 1864              	.LC65:
 1865 03bc 35373845 		.string	"578E17049F15"
 1865      31373034 
 1865      39463135 
 1865      00
 1866              	.LC66:
 1867 03c9 41463143 		.string	"AF1C2E093C15"
 1867      32453039 
 1867      33433135 
 1867      00
 1868              	.LC67:
 1869 03d6 30313545 		.string	"015E385C127C15"
 1869      33383543 
 1869      31323743 
 1869      313500
 1870              	.LC68:
 1871 03e5 30324243 		.string	"02BC70B824EC15"
 1871      37304238 
 1871      32344543 
 1871      313500
 1872              	.LC69:
 1873 03f4 30353738 		.string	"0578E17049C015"
 1873      45313730 
 1873      34394330 
 1873      313500
 1874              	.LC70:
 1875 0403 30414631 		.string	"0AF1C2E0938015"
 1875      43324530 
 1875      39333830 
 1875      313500
 1876              	.LC71:
 1877 0412 31354533 		.string	"15E385C1278015"
 1877      38354331 
 1877      32373830 
 1877      313500
 1878              	.LC72:
 1879 0421 30313335 		.string	"0135"
 1879      00
 1880              	.LC73:
 1881 0426 30313335 		.string	"0135F1C2E093"
 1881      46314332 
 1881      45303933 
 1881      00
 1882              	.LC74:
 1883 0433 30323642 		.string	"026BE385C127"
 1883      45333835 
 1883      43313237 
 1883      00
 1884              	.LC75:
 1885 0440 30344437 		.string	"04D7C70B824E"
 1885      43373042 
 1885      38323445 
 1885      00
 1886              	.LC76:
 1887 044d 30394146 		.string	"09AF8E17049E"
 1887      38453137 
 1887      30343945 
 1887      00
 1888              	.LC77:
 1889 045a 31333546 		.string	"135F1C2E093A"
 1889      31433245 
 1889      30393341 
 1889      00
 1890              	.LC78:
 1891 0467 32364245 		.string	"26BE385C1275"
 1891      33383543 
 1891      31323735 
 1891      00
 1892              	.LC79:
 1893 0474 34443743 		.string	"4D7C70B824E5"
 1893      37304238 
 1893      32344535 
 1893      00
 1894              	.LC80:
 1895 0481 39414638 		.string	"9AF8E17049F5"
 1895      45313730 
 1895      34394635 
 1895      00
 1896              	.LC81:
 1897 048e 30313335 		.string	"0135F1C2E093E5"
 1897      46314332 
 1897      45303933 
 1897      453500
 1898              	.LC82:
 1899 049d 30323642 		.string	"026BE385C12715"
 1899      45333835 
 1899      43313237 
 1899      313500
 1900              	.LC83:
 1901 04ac 30344437 		.string	"04D7C70B824F15"
 1901      43373042 
 1901      38323446 
 1901      313500
 1902              	.LC84:
 1903 04bb 30394146 		.string	"09AF8E17049F15"
 1903      38453137 
 1903      30343946 
 1903      313500
 1904              	.LC85:
 1905 04ca 31333546 		.string	"135F1C2E093C15"
 1905      31433245 
 1905      30393343 
 1905      313500
 1906              	.LC86:
 1907 04d9 32364245 		.string	"26BE385C127C15"
 1907      33383543 
 1907      31323743 
 1907      313500
 1908              	.LC87:
 1909 04e8 34443743 		.string	"4D7C70B824EC15"
 1909      37304238 
 1909      32344543 
 1909      313500
 1910              	.LC88:
 1911 04f7 39414638 		.string	"9AF8E17049C015"
 1911      45313730 
 1911      34394330 
 1911      313500
 1912              	.LC89:
 1913 0506 30313335 		.string	"0135F1C2E0938015"
 1913      46314332 
 1913      45303933 
 1913      38303135 
 1913      00
 1914              	.LC90:
 1915 0517 30323642 		.string	"026BE385C1278015"
 1915      45333835 
 1915      43313237 
 1915      38303135 
 1915      00
 1916              	.LC91:
 1917 0528 37314332 		.string	"71C2E093"
 1917      45303933 
 1917      00
 1918              	.LC92:
 1919 0531 39414631 		.string	"9AF1C2E093"
 1919      43324530 
 1919      393300
 1920              	.LC93:
 1921 053c 30313335 		.string	"0135E385C127"
 1921      45333835 
 1921      43313237 
 1921      00
 1922              	.LC94:
 1923 0549 30323642 		.string	"026BC70B824E"
 1923      43373042 
 1923      38323445 
 1923      00
 1924              	.LC95:
 1925 0556 30344437 		.string	"04D78E17049E"
 1925      38453137 
 1925      30343945 
 1925      00
 1926              	.LC96:
 1927 0563 30394146 		.string	"09AF1C2E093A"
 1927      31433245 
 1927      30393341 
 1927      00
 1928              	.LC97:
 1929 0570 31333545 		.string	"135E385C1275"
 1929      33383543 
 1929      31323735 
 1929      00
 1930              	.LC98:
 1931 057d 32364243 		.string	"26BC70B824E5"
 1931      37304238 
 1931      32344535 
 1931      00
 1932              	.LC99:
 1933 058a 34443738 		.string	"4D78E17049F5"
 1933      45313730 
 1933      34394635 
 1933      00
 1934              	.LC100:
 1935 0597 39414631 		.string	"9AF1C2E093E5"
 1935      43324530 
 1935      39334535 
 1935      00
 1936              	.LC101:
 1937 05a4 30313335 		.string	"0135E385C12715"
 1937      45333835 
 1937      43313237 
 1937      313500
 1938              	.LC102:
 1939 05b3 30323642 		.string	"026BC70B824F15"
 1939      43373042 
 1939      38323446 
 1939      313500
 1940              	.LC103:
 1941 05c2 30344437 		.string	"04D78E17049F15"
 1941      38453137 
 1941      30343946 
 1941      313500
 1942              	.LC104:
 1943 05d1 30394146 		.string	"09AF1C2E093C15"
 1943      31433245 
 1943      30393343 
 1943      313500
 1944              	.LC105:
 1945 05e0 31333545 		.string	"135E385C127C15"
 1945      33383543 
 1945      31323743 
 1945      313500
 1946              	.LC106:
 1947 05ef 32364243 		.string	"26BC70B824EC15"
 1947      37304238 
 1947      32344543 
 1947      313500
 1948              	.LC107:
 1949 05fe 34443738 		.string	"4D78E17049C015"
 1949      45313730 
 1949      34394330 
 1949      313500
 1950              	.LC108:
 1951 060d 39414631 		.string	"9AF1C2E0938015"
 1951      43324530 
 1951      39333830 
 1951      313500
 1952              	.LC109:
 1953 061c 30313335 		.string	"0135E385C1278015"
 1953      45333835 
 1953      43313237 
 1953      38303135 
 1953      00
 1954              	.LC110:
 1955 062d 00       		.string	""
 1956              	.LC111:
 1957 062e 35343233 		.string	"5423DF3A8F129B2C91B9425D"
 1957      44463341 
 1957      38463132 
 1957      39423243 
 1957      39314239 
 1958              	.LC112:
 1959 0647 44343233 		.string	"D423DF3A8F129B2C91B9425D"
 1959      44463341 
 1959      38463132 
 1959      39423243 
 1959      39314239 
 1960              	.LC113:
 1961 0660 41383437 		.string	"A847BE751E253659237284BB"
 1961      42453735 
 1961      31453235 
 1961      33363539 
 1961      32333732 
 1962              		.text
 1963 0d17 90       		.align 2
 1964              		.globl	_ZNK22TestFPGALink_testShift7RunImplEv
 1966              	_ZNK22TestFPGALink_testShift7RunImplEv:
 1967              	.LFB1082:
 1968              		.loc 3 90 0
 1969              		.cfi_startproc
 1970 0d18 55       		pushq	%rbp
 1971              		.cfi_def_cfa_offset 16
 1972              		.cfi_offset 6, -16
 1973 0d19 4889E5   		movq	%rsp, %rbp
 1974              		.cfi_def_cfa_register 6
 1975 0d1c 4883EC10 		subq	$16, %rsp
 1976 0d20 48897DF8 		movq	%rdi, -8(%rbp)
  91:testSvf2Csvf.cpp **** 	testShift(
  92:testSvf2Csvf.cpp **** 		"F1C2E093", 32,
  93:testSvf2Csvf.cpp **** 		"00", 0,
  94:testSvf2Csvf.cpp **** 		"06", 3,
  95:testSvf2Csvf.cpp **** 		"06F1C2E093"
  96:testSvf2Csvf.cpp **** 	);
 1977              		.loc 3 96 0
 1978 0d24 4883EC08 		subq	$8, %rsp
 1979 0d28 68000000 		pushq	$.LC20
 1979      00
 1980 0d2d 41B90300 		movl	$3, %r9d
 1980      0000
 1981 0d33 41B80000 		movl	$.LC17, %r8d
 1981      0000
 1982 0d39 B9000000 		movl	$0, %ecx
 1982      00
 1983 0d3e BA000000 		movl	$.LC18, %edx
 1983      00
 1984 0d43 BE200000 		movl	$32, %esi
 1984      00
 1985 0d48 BF000000 		movl	$.LC19, %edi
 1985      00
 1986 0d4d E8000000 		call	_Z9testShiftPKcjS0_jS0_jS0_
 1986      00
 1987 0d52 4883C410 		addq	$16, %rsp
  97:testSvf2Csvf.cpp **** 	testShift(
  98:testSvf2Csvf.cpp **** 		"F1C2E093", 32,
  99:testSvf2Csvf.cpp **** 		"01", 1,
 100:testSvf2Csvf.cpp **** 		"06", 3,
 101:testSvf2Csvf.cpp **** 		"0DE385C127"
 102:testSvf2Csvf.cpp **** 	);
 1988              		.loc 3 102 0
 1989 0d56 4883EC08 		subq	$8, %rsp
 1990 0d5a 68000000 		pushq	$.LC22
 1990      00
 1991 0d5f 41B90300 		movl	$3, %r9d
 1991      0000
 1992 0d65 41B80000 		movl	$.LC17, %r8d
 1992      0000
 1993 0d6b B9010000 		movl	$1, %ecx
 1993      00
 1994 0d70 BA000000 		movl	$.LC21, %edx
 1994      00
 1995 0d75 BE200000 		movl	$32, %esi
 1995      00
 1996 0d7a BF000000 		movl	$.LC19, %edi
 1996      00
 1997 0d7f E8000000 		call	_Z9testShiftPKcjS0_jS0_jS0_
 1997      00
 1998 0d84 4883C410 		addq	$16, %rsp
 103:testSvf2Csvf.cpp **** 	testShift(
 104:testSvf2Csvf.cpp **** 		"F1C2E093", 32,
 105:testSvf2Csvf.cpp **** 		"02", 2,
 106:testSvf2Csvf.cpp **** 		"06", 3,
 107:testSvf2Csvf.cpp **** 		"1BC70B824E"
 108:testSvf2Csvf.cpp **** 	);
 1999              		.loc 3 108 0
 2000 0d88 4883EC08 		subq	$8, %rsp
 2001 0d8c 68000000 		pushq	$.LC24
 2001      00
 2002 0d91 41B90300 		movl	$3, %r9d
 2002      0000
 2003 0d97 41B80000 		movl	$.LC17, %r8d
 2003      0000
 2004 0d9d B9020000 		movl	$2, %ecx
 2004      00
 2005 0da2 BA000000 		movl	$.LC23, %edx
 2005      00
 2006 0da7 BE200000 		movl	$32, %esi
 2006      00
 2007 0dac BF000000 		movl	$.LC19, %edi
 2007      00
 2008 0db1 E8000000 		call	_Z9testShiftPKcjS0_jS0_jS0_
 2008      00
 2009 0db6 4883C410 		addq	$16, %rsp
 109:testSvf2Csvf.cpp **** 	testShift(
 110:testSvf2Csvf.cpp **** 		"F1C2E093", 32,
 111:testSvf2Csvf.cpp **** 		"06", 3,
 112:testSvf2Csvf.cpp **** 		"06", 3,
 113:testSvf2Csvf.cpp **** 		"378E17049E"
 114:testSvf2Csvf.cpp **** 	);
 2010              		.loc 3 114 0
 2011 0dba 4883EC08 		subq	$8, %rsp
 2012 0dbe 68000000 		pushq	$.LC25
 2012      00
 2013 0dc3 41B90300 		movl	$3, %r9d
 2013      0000
 2014 0dc9 41B80000 		movl	$.LC17, %r8d
 2014      0000
 2015 0dcf B9030000 		movl	$3, %ecx
 2015      00
 2016 0dd4 BA000000 		movl	$.LC17, %edx
 2016      00
 2017 0dd9 BE200000 		movl	$32, %esi
 2017      00
 2018 0dde BF000000 		movl	$.LC19, %edi
 2018      00
 2019 0de3 E8000000 		call	_Z9testShiftPKcjS0_jS0_jS0_
 2019      00
 2020 0de8 4883C410 		addq	$16, %rsp
 115:testSvf2Csvf.cpp **** 	testShift(
 116:testSvf2Csvf.cpp **** 		"F1C2E093", 32,
 117:testSvf2Csvf.cpp **** 		"0A", 4,
 118:testSvf2Csvf.cpp **** 		"06", 3,
 119:testSvf2Csvf.cpp **** 		"6F1C2E093A"
 120:testSvf2Csvf.cpp **** 	);
 2021              		.loc 3 120 0
 2022 0dec 4883EC08 		subq	$8, %rsp
 2023 0df0 68000000 		pushq	$.LC27
 2023      00
 2024 0df5 41B90300 		movl	$3, %r9d
 2024      0000
 2025 0dfb 41B80000 		movl	$.LC17, %r8d
 2025      0000
 2026 0e01 B9040000 		movl	$4, %ecx
 2026      00
 2027 0e06 BA000000 		movl	$.LC26, %edx
 2027      00
 2028 0e0b BE200000 		movl	$32, %esi
 2028      00
 2029 0e10 BF000000 		movl	$.LC19, %edi
 2029      00
 2030 0e15 E8000000 		call	_Z9testShiftPKcjS0_jS0_jS0_
 2030      00
 2031 0e1a 4883C410 		addq	$16, %rsp
 121:testSvf2Csvf.cpp **** 	testShift(
 122:testSvf2Csvf.cpp **** 		"F1C2E093", 32,
 123:testSvf2Csvf.cpp **** 		"15", 5,
 124:testSvf2Csvf.cpp **** 		"06", 3,
 125:testSvf2Csvf.cpp **** 		"DE385C1275"
 126:testSvf2Csvf.cpp **** 	);
 2032              		.loc 3 126 0
 2033 0e1e 4883EC08 		subq	$8, %rsp
 2034 0e22 68000000 		pushq	$.LC29
 2034      00
 2035 0e27 41B90300 		movl	$3, %r9d
 2035      0000
 2036 0e2d 41B80000 		movl	$.LC17, %r8d
 2036      0000
 2037 0e33 B9050000 		movl	$5, %ecx
 2037      00
 2038 0e38 BA000000 		movl	$.LC28, %edx
 2038      00
 2039 0e3d BE200000 		movl	$32, %esi
 2039      00
 2040 0e42 BF000000 		movl	$.LC19, %edi
 2040      00
 2041 0e47 E8000000 		call	_Z9testShiftPKcjS0_jS0_jS0_
 2041      00
 2042 0e4c 4883C410 		addq	$16, %rsp
 127:testSvf2Csvf.cpp **** 	testShift(
 128:testSvf2Csvf.cpp **** 		"F1C2E093", 32,
 129:testSvf2Csvf.cpp **** 		"25", 6,
 130:testSvf2Csvf.cpp **** 		"06", 3,
 131:testSvf2Csvf.cpp **** 		"01BC70B824E5"
 132:testSvf2Csvf.cpp **** 	);
 2043              		.loc 3 132 0
 2044 0e50 4883EC08 		subq	$8, %rsp
 2045 0e54 68000000 		pushq	$.LC31
 2045      00
 2046 0e59 41B90300 		movl	$3, %r9d
 2046      0000
 2047 0e5f 41B80000 		movl	$.LC17, %r8d
 2047      0000
 2048 0e65 B9060000 		movl	$6, %ecx
 2048      00
 2049 0e6a BA000000 		movl	$.LC30, %edx
 2049      00
 2050 0e6f BE200000 		movl	$32, %esi
 2050      00
 2051 0e74 BF000000 		movl	$.LC19, %edi
 2051      00
 2052 0e79 E8000000 		call	_Z9testShiftPKcjS0_jS0_jS0_
 2052      00
 2053 0e7e 4883C410 		addq	$16, %rsp
 133:testSvf2Csvf.cpp **** 	testShift(
 134:testSvf2Csvf.cpp **** 		"F1C2E093", 32,
 135:testSvf2Csvf.cpp **** 		"75", 7,
 136:testSvf2Csvf.cpp **** 		"06", 3,
 137:testSvf2Csvf.cpp **** 		"0378E17049F5"
 138:testSvf2Csvf.cpp **** 	);
 2054              		.loc 3 138 0
 2055 0e82 4883EC08 		subq	$8, %rsp
 2056 0e86 68000000 		pushq	$.LC33
 2056      00
 2057 0e8b 41B90300 		movl	$3, %r9d
 2057      0000
 2058 0e91 41B80000 		movl	$.LC17, %r8d
 2058      0000
 2059 0e97 B9070000 		movl	$7, %ecx
 2059      00
 2060 0e9c BA000000 		movl	$.LC32, %edx
 2060      00
 2061 0ea1 BE200000 		movl	$32, %esi
 2061      00
 2062 0ea6 BF000000 		movl	$.LC19, %edi
 2062      00
 2063 0eab E8000000 		call	_Z9testShiftPKcjS0_jS0_jS0_
 2063      00
 2064 0eb0 4883C410 		addq	$16, %rsp
 139:testSvf2Csvf.cpp **** 	testShift(
 140:testSvf2Csvf.cpp **** 		"F1C2E093", 32,
 141:testSvf2Csvf.cpp **** 		"e5", 8,
 142:testSvf2Csvf.cpp **** 		"06", 3,
 143:testSvf2Csvf.cpp **** 		"06F1C2E093E5"
 144:testSvf2Csvf.cpp **** 	);
 2065              		.loc 3 144 0
 2066 0eb4 4883EC08 		subq	$8, %rsp
 2067 0eb8 68000000 		pushq	$.LC35
 2067      00
 2068 0ebd 41B90300 		movl	$3, %r9d
 2068      0000
 2069 0ec3 41B80000 		movl	$.LC17, %r8d
 2069      0000
 2070 0ec9 B9080000 		movl	$8, %ecx
 2070      00
 2071 0ece BA000000 		movl	$.LC34, %edx
 2071      00
 2072 0ed3 BE200000 		movl	$32, %esi
 2072      00
 2073 0ed8 BF000000 		movl	$.LC19, %edi
 2073      00
 2074 0edd E8000000 		call	_Z9testShiftPKcjS0_jS0_jS0_
 2074      00
 2075 0ee2 4883C410 		addq	$16, %rsp
 145:testSvf2Csvf.cpp **** 	testShift(
 146:testSvf2Csvf.cpp **** 		"F1C2E093", 32,
 147:testSvf2Csvf.cpp **** 		"0115", 9,
 148:testSvf2Csvf.cpp **** 		"06", 3,
 149:testSvf2Csvf.cpp **** 		"0DE385C12715"
 150:testSvf2Csvf.cpp **** 	);
 2076              		.loc 3 150 0
 2077 0ee6 4883EC08 		subq	$8, %rsp
 2078 0eea 68000000 		pushq	$.LC37
 2078      00
 2079 0eef 41B90300 		movl	$3, %r9d
 2079      0000
 2080 0ef5 41B80000 		movl	$.LC17, %r8d
 2080      0000
 2081 0efb B9090000 		movl	$9, %ecx
 2081      00
 2082 0f00 BA000000 		movl	$.LC36, %edx
 2082      00
 2083 0f05 BE200000 		movl	$32, %esi
 2083      00
 2084 0f0a BF000000 		movl	$.LC19, %edi
 2084      00
 2085 0f0f E8000000 		call	_Z9testShiftPKcjS0_jS0_jS0_
 2085      00
 2086 0f14 4883C410 		addq	$16, %rsp
 151:testSvf2Csvf.cpp **** 	testShift(
 152:testSvf2Csvf.cpp **** 		"F1C2E093", 32,
 153:testSvf2Csvf.cpp **** 		"0315", 10,
 154:testSvf2Csvf.cpp **** 		"06", 3,
 155:testSvf2Csvf.cpp **** 		"1BC70B824F15"
 156:testSvf2Csvf.cpp **** 	);
 2087              		.loc 3 156 0
 2088 0f18 4883EC08 		subq	$8, %rsp
 2089 0f1c 68000000 		pushq	$.LC39
 2089      00
 2090 0f21 41B90300 		movl	$3, %r9d
 2090      0000
 2091 0f27 41B80000 		movl	$.LC17, %r8d
 2091      0000
 2092 0f2d B90A0000 		movl	$10, %ecx
 2092      00
 2093 0f32 BA000000 		movl	$.LC38, %edx
 2093      00
 2094 0f37 BE200000 		movl	$32, %esi
 2094      00
 2095 0f3c BF000000 		movl	$.LC19, %edi
 2095      00
 2096 0f41 E8000000 		call	_Z9testShiftPKcjS0_jS0_jS0_
 2096      00
 2097 0f46 4883C410 		addq	$16, %rsp
 157:testSvf2Csvf.cpp **** 	testShift(
 158:testSvf2Csvf.cpp **** 		"F1C2E093", 32,
 159:testSvf2Csvf.cpp **** 		"0715", 11,
 160:testSvf2Csvf.cpp **** 		"06", 3,
 161:testSvf2Csvf.cpp **** 		"378E17049F15"
 162:testSvf2Csvf.cpp **** 	);
 2098              		.loc 3 162 0
 2099 0f4a 4883EC08 		subq	$8, %rsp
 2100 0f4e 68000000 		pushq	$.LC41
 2100      00
 2101 0f53 41B90300 		movl	$3, %r9d
 2101      0000
 2102 0f59 41B80000 		movl	$.LC17, %r8d
 2102      0000
 2103 0f5f B90B0000 		movl	$11, %ecx
 2103      00
 2104 0f64 BA000000 		movl	$.LC40, %edx
 2104      00
 2105 0f69 BE200000 		movl	$32, %esi
 2105      00
 2106 0f6e BF000000 		movl	$.LC19, %edi
 2106      00
 2107 0f73 E8000000 		call	_Z9testShiftPKcjS0_jS0_jS0_
 2107      00
 2108 0f78 4883C410 		addq	$16, %rsp
 163:testSvf2Csvf.cpp **** 	testShift(
 164:testSvf2Csvf.cpp **** 		"F1C2E093", 32,
 165:testSvf2Csvf.cpp **** 		"0c15", 12,
 166:testSvf2Csvf.cpp **** 		"06", 3,
 167:testSvf2Csvf.cpp **** 		"6F1C2E093C15"
 168:testSvf2Csvf.cpp **** 	);
 2109              		.loc 3 168 0
 2110 0f7c 4883EC08 		subq	$8, %rsp
 2111 0f80 68000000 		pushq	$.LC43
 2111      00
 2112 0f85 41B90300 		movl	$3, %r9d
 2112      0000
 2113 0f8b 41B80000 		movl	$.LC17, %r8d
 2113      0000
 2114 0f91 B90C0000 		movl	$12, %ecx
 2114      00
 2115 0f96 BA000000 		movl	$.LC42, %edx
 2115      00
 2116 0f9b BE200000 		movl	$32, %esi
 2116      00
 2117 0fa0 BF000000 		movl	$.LC19, %edi
 2117      00
 2118 0fa5 E8000000 		call	_Z9testShiftPKcjS0_jS0_jS0_
 2118      00
 2119 0faa 4883C410 		addq	$16, %rsp
 169:testSvf2Csvf.cpp **** 	testShift(
 170:testSvf2Csvf.cpp **** 		"F1C2E093", 32,
 171:testSvf2Csvf.cpp **** 		"1c15", 13,
 172:testSvf2Csvf.cpp **** 		"06", 3,
 173:testSvf2Csvf.cpp **** 		"DE385C127C15"
 174:testSvf2Csvf.cpp **** 	);
 2120              		.loc 3 174 0
 2121 0fae 4883EC08 		subq	$8, %rsp
 2122 0fb2 68000000 		pushq	$.LC45
 2122      00
 2123 0fb7 41B90300 		movl	$3, %r9d
 2123      0000
 2124 0fbd 41B80000 		movl	$.LC17, %r8d
 2124      0000
 2125 0fc3 B90D0000 		movl	$13, %ecx
 2125      00
 2126 0fc8 BA000000 		movl	$.LC44, %edx
 2126      00
 2127 0fcd BE200000 		movl	$32, %esi
 2127      00
 2128 0fd2 BF000000 		movl	$.LC19, %edi
 2128      00
 2129 0fd7 E8000000 		call	_Z9testShiftPKcjS0_jS0_jS0_
 2129      00
 2130 0fdc 4883C410 		addq	$16, %rsp
 175:testSvf2Csvf.cpp **** 	testShift(
 176:testSvf2Csvf.cpp **** 		"F1C2E093", 32,
 177:testSvf2Csvf.cpp **** 		"2c15", 14,
 178:testSvf2Csvf.cpp **** 		"06", 3,
 179:testSvf2Csvf.cpp **** 		"01BC70B824EC15"
 180:testSvf2Csvf.cpp **** 	);
 2131              		.loc 3 180 0
 2132 0fe0 4883EC08 		subq	$8, %rsp
 2133 0fe4 68000000 		pushq	$.LC47
 2133      00
 2134 0fe9 41B90300 		movl	$3, %r9d
 2134      0000
 2135 0fef 41B80000 		movl	$.LC17, %r8d
 2135      0000
 2136 0ff5 B90E0000 		movl	$14, %ecx
 2136      00
 2137 0ffa BA000000 		movl	$.LC46, %edx
 2137      00
 2138 0fff BE200000 		movl	$32, %esi
 2138      00
 2139 1004 BF000000 		movl	$.LC19, %edi
 2139      00
 2140 1009 E8000000 		call	_Z9testShiftPKcjS0_jS0_jS0_
 2140      00
 2141 100e 4883C410 		addq	$16, %rsp
 181:testSvf2Csvf.cpp **** 	testShift(
 182:testSvf2Csvf.cpp **** 		"F1C2E093", 32,
 183:testSvf2Csvf.cpp **** 		"4015", 15,
 184:testSvf2Csvf.cpp **** 		"06", 3,
 185:testSvf2Csvf.cpp **** 		"0378E17049C015"
 186:testSvf2Csvf.cpp **** 	);
 2142              		.loc 3 186 0
 2143 1012 4883EC08 		subq	$8, %rsp
 2144 1016 68000000 		pushq	$.LC49
 2144      00
 2145 101b 41B90300 		movl	$3, %r9d
 2145      0000
 2146 1021 41B80000 		movl	$.LC17, %r8d
 2146      0000
 2147 1027 B90F0000 		movl	$15, %ecx
 2147      00
 2148 102c BA000000 		movl	$.LC48, %edx
 2148      00
 2149 1031 BE200000 		movl	$32, %esi
 2149      00
 2150 1036 BF000000 		movl	$.LC19, %edi
 2150      00
 2151 103b E8000000 		call	_Z9testShiftPKcjS0_jS0_jS0_
 2151      00
 2152 1040 4883C410 		addq	$16, %rsp
 187:testSvf2Csvf.cpp **** 	testShift(
 188:testSvf2Csvf.cpp **** 		"F1C2E093", 32,
 189:testSvf2Csvf.cpp **** 		"8015", 16,
 190:testSvf2Csvf.cpp **** 		"06", 3,
 191:testSvf2Csvf.cpp **** 		"06F1C2E0938015"
 192:testSvf2Csvf.cpp **** 	);
 2153              		.loc 3 192 0
 2154 1044 4883EC08 		subq	$8, %rsp
 2155 1048 68000000 		pushq	$.LC51
 2155      00
 2156 104d 41B90300 		movl	$3, %r9d
 2156      0000
 2157 1053 41B80000 		movl	$.LC17, %r8d
 2157      0000
 2158 1059 B9100000 		movl	$16, %ecx
 2158      00
 2159 105e BA000000 		movl	$.LC50, %edx
 2159      00
 2160 1063 BE200000 		movl	$32, %esi
 2160      00
 2161 1068 BF000000 		movl	$.LC19, %edi
 2161      00
 2162 106d E8000000 		call	_Z9testShiftPKcjS0_jS0_jS0_
 2162      00
 2163 1072 4883C410 		addq	$16, %rsp
 193:testSvf2Csvf.cpp **** 	testShift(
 194:testSvf2Csvf.cpp **** 		"F1C2E093", 32,
 195:testSvf2Csvf.cpp **** 		"018015", 17,
 196:testSvf2Csvf.cpp **** 		"06", 3,
 197:testSvf2Csvf.cpp **** 		"0DE385C1278015"
 198:testSvf2Csvf.cpp **** 	);
 2164              		.loc 3 198 0
 2165 1076 4883EC08 		subq	$8, %rsp
 2166 107a 68000000 		pushq	$.LC53
 2166      00
 2167 107f 41B90300 		movl	$3, %r9d
 2167      0000
 2168 1085 41B80000 		movl	$.LC17, %r8d
 2168      0000
 2169 108b B9110000 		movl	$17, %ecx
 2169      00
 2170 1090 BA000000 		movl	$.LC52, %edx
 2170      00
 2171 1095 BE200000 		movl	$32, %esi
 2171      00
 2172 109a BF000000 		movl	$.LC19, %edi
 2172      00
 2173 109f E8000000 		call	_Z9testShiftPKcjS0_jS0_jS0_
 2173      00
 2174 10a4 4883C410 		addq	$16, %rsp
 199:testSvf2Csvf.cpp **** 	testShift(
 200:testSvf2Csvf.cpp **** 		"F1C2E093", 32,
 201:testSvf2Csvf.cpp **** 		"00", 0,
 202:testSvf2Csvf.cpp **** 		"0A", 4,
 203:testSvf2Csvf.cpp **** 		"0AF1C2E093"
 204:testSvf2Csvf.cpp **** 	);
 2175              		.loc 3 204 0
 2176 10a8 4883EC08 		subq	$8, %rsp
 2177 10ac 68000000 		pushq	$.LC54
 2177      00
 2178 10b1 41B90400 		movl	$4, %r9d
 2178      0000
 2179 10b7 41B80000 		movl	$.LC26, %r8d
 2179      0000
 2180 10bd B9000000 		movl	$0, %ecx
 2180      00
 2181 10c2 BA000000 		movl	$.LC18, %edx
 2181      00
 2182 10c7 BE200000 		movl	$32, %esi
 2182      00
 2183 10cc BF000000 		movl	$.LC19, %edi
 2183      00
 2184 10d1 E8000000 		call	_Z9testShiftPKcjS0_jS0_jS0_
 2184      00
 2185 10d6 4883C410 		addq	$16, %rsp
 205:testSvf2Csvf.cpp **** 	testShift(
 206:testSvf2Csvf.cpp **** 		"F1C2E093", 32,
 207:testSvf2Csvf.cpp **** 		"01", 1,
 208:testSvf2Csvf.cpp **** 		"0A", 4,
 209:testSvf2Csvf.cpp **** 		"15E385C127"
 210:testSvf2Csvf.cpp **** 	);
 2186              		.loc 3 210 0
 2187 10da 4883EC08 		subq	$8, %rsp
 2188 10de 68000000 		pushq	$.LC55
 2188      00
 2189 10e3 41B90400 		movl	$4, %r9d
 2189      0000
 2190 10e9 41B80000 		movl	$.LC26, %r8d
 2190      0000
 2191 10ef B9010000 		movl	$1, %ecx
 2191      00
 2192 10f4 BA000000 		movl	$.LC21, %edx
 2192      00
 2193 10f9 BE200000 		movl	$32, %esi
 2193      00
 2194 10fe BF000000 		movl	$.LC19, %edi
 2194      00
 2195 1103 E8000000 		call	_Z9testShiftPKcjS0_jS0_jS0_
 2195      00
 2196 1108 4883C410 		addq	$16, %rsp
 211:testSvf2Csvf.cpp **** 	testShift(
 212:testSvf2Csvf.cpp **** 		"F1C2E093", 32,
 213:testSvf2Csvf.cpp **** 		"02", 2,
 214:testSvf2Csvf.cpp **** 		"0A", 4,
 215:testSvf2Csvf.cpp **** 		"2BC70B824E"
 216:testSvf2Csvf.cpp **** 	);
 2197              		.loc 3 216 0
 2198 110c 4883EC08 		subq	$8, %rsp
 2199 1110 68000000 		pushq	$.LC56
 2199      00
 2200 1115 41B90400 		movl	$4, %r9d
 2200      0000
 2201 111b 41B80000 		movl	$.LC26, %r8d
 2201      0000
 2202 1121 B9020000 		movl	$2, %ecx
 2202      00
 2203 1126 BA000000 		movl	$.LC23, %edx
 2203      00
 2204 112b BE200000 		movl	$32, %esi
 2204      00
 2205 1130 BF000000 		movl	$.LC19, %edi
 2205      00
 2206 1135 E8000000 		call	_Z9testShiftPKcjS0_jS0_jS0_
 2206      00
 2207 113a 4883C410 		addq	$16, %rsp
 217:testSvf2Csvf.cpp **** 	testShift(
 218:testSvf2Csvf.cpp **** 		"F1C2E093", 32,
 219:testSvf2Csvf.cpp **** 		"06", 3,
 220:testSvf2Csvf.cpp **** 		"0A", 4,
 221:testSvf2Csvf.cpp **** 		"578E17049E"
 222:testSvf2Csvf.cpp **** 	);
 2208              		.loc 3 222 0
 2209 113e 4883EC08 		subq	$8, %rsp
 2210 1142 68000000 		pushq	$.LC57
 2210      00
 2211 1147 41B90400 		movl	$4, %r9d
 2211      0000
 2212 114d 41B80000 		movl	$.LC26, %r8d
 2212      0000
 2213 1153 B9030000 		movl	$3, %ecx
 2213      00
 2214 1158 BA000000 		movl	$.LC17, %edx
 2214      00
 2215 115d BE200000 		movl	$32, %esi
 2215      00
 2216 1162 BF000000 		movl	$.LC19, %edi
 2216      00
 2217 1167 E8000000 		call	_Z9testShiftPKcjS0_jS0_jS0_
 2217      00
 2218 116c 4883C410 		addq	$16, %rsp
 223:testSvf2Csvf.cpp **** 	testShift(
 224:testSvf2Csvf.cpp **** 		"F1C2E093", 32,
 225:testSvf2Csvf.cpp **** 		"0A", 4,
 226:testSvf2Csvf.cpp **** 		"0A", 4,
 227:testSvf2Csvf.cpp **** 		"AF1C2E093A"
 228:testSvf2Csvf.cpp **** 	);
 2219              		.loc 3 228 0
 2220 1170 4883EC08 		subq	$8, %rsp
 2221 1174 68000000 		pushq	$.LC58
 2221      00
 2222 1179 41B90400 		movl	$4, %r9d
 2222      0000
 2223 117f 41B80000 		movl	$.LC26, %r8d
 2223      0000
 2224 1185 B9040000 		movl	$4, %ecx
 2224      00
 2225 118a BA000000 		movl	$.LC26, %edx
 2225      00
 2226 118f BE200000 		movl	$32, %esi
 2226      00
 2227 1194 BF000000 		movl	$.LC19, %edi
 2227      00
 2228 1199 E8000000 		call	_Z9testShiftPKcjS0_jS0_jS0_
 2228      00
 2229 119e 4883C410 		addq	$16, %rsp
 229:testSvf2Csvf.cpp **** 	testShift(
 230:testSvf2Csvf.cpp **** 		"F1C2E093", 32,
 231:testSvf2Csvf.cpp **** 		"15", 5,
 232:testSvf2Csvf.cpp **** 		"0A", 4,
 233:testSvf2Csvf.cpp **** 		"015E385C1275"
 234:testSvf2Csvf.cpp **** 	);
 2230              		.loc 3 234 0
 2231 11a2 4883EC08 		subq	$8, %rsp
 2232 11a6 68000000 		pushq	$.LC59
 2232      00
 2233 11ab 41B90400 		movl	$4, %r9d
 2233      0000
 2234 11b1 41B80000 		movl	$.LC26, %r8d
 2234      0000
 2235 11b7 B9050000 		movl	$5, %ecx
 2235      00
 2236 11bc BA000000 		movl	$.LC28, %edx
 2236      00
 2237 11c1 BE200000 		movl	$32, %esi
 2237      00
 2238 11c6 BF000000 		movl	$.LC19, %edi
 2238      00
 2239 11cb E8000000 		call	_Z9testShiftPKcjS0_jS0_jS0_
 2239      00
 2240 11d0 4883C410 		addq	$16, %rsp
 235:testSvf2Csvf.cpp **** 	testShift(
 236:testSvf2Csvf.cpp **** 		"F1C2E093", 32,
 237:testSvf2Csvf.cpp **** 		"25", 6,
 238:testSvf2Csvf.cpp **** 		"0A", 4,
 239:testSvf2Csvf.cpp **** 		"02BC70B824E5"
 240:testSvf2Csvf.cpp **** 	);
 2241              		.loc 3 240 0
 2242 11d4 4883EC08 		subq	$8, %rsp
 2243 11d8 68000000 		pushq	$.LC60
 2243      00
 2244 11dd 41B90400 		movl	$4, %r9d
 2244      0000
 2245 11e3 41B80000 		movl	$.LC26, %r8d
 2245      0000
 2246 11e9 B9060000 		movl	$6, %ecx
 2246      00
 2247 11ee BA000000 		movl	$.LC30, %edx
 2247      00
 2248 11f3 BE200000 		movl	$32, %esi
 2248      00
 2249 11f8 BF000000 		movl	$.LC19, %edi
 2249      00
 2250 11fd E8000000 		call	_Z9testShiftPKcjS0_jS0_jS0_
 2250      00
 2251 1202 4883C410 		addq	$16, %rsp
 241:testSvf2Csvf.cpp **** 	testShift(
 242:testSvf2Csvf.cpp **** 		"F1C2E093", 32,
 243:testSvf2Csvf.cpp **** 		"75", 7,
 244:testSvf2Csvf.cpp **** 		"0A", 4,
 245:testSvf2Csvf.cpp **** 		"0578E17049F5"
 246:testSvf2Csvf.cpp **** 	);
 2252              		.loc 3 246 0
 2253 1206 4883EC08 		subq	$8, %rsp
 2254 120a 68000000 		pushq	$.LC61
 2254      00
 2255 120f 41B90400 		movl	$4, %r9d
 2255      0000
 2256 1215 41B80000 		movl	$.LC26, %r8d
 2256      0000
 2257 121b B9070000 		movl	$7, %ecx
 2257      00
 2258 1220 BA000000 		movl	$.LC32, %edx
 2258      00
 2259 1225 BE200000 		movl	$32, %esi
 2259      00
 2260 122a BF000000 		movl	$.LC19, %edi
 2260      00
 2261 122f E8000000 		call	_Z9testShiftPKcjS0_jS0_jS0_
 2261      00
 2262 1234 4883C410 		addq	$16, %rsp
 247:testSvf2Csvf.cpp **** 	testShift(
 248:testSvf2Csvf.cpp **** 		"F1C2E093", 32,
 249:testSvf2Csvf.cpp **** 		"e5", 8,
 250:testSvf2Csvf.cpp **** 		"0A", 4,
 251:testSvf2Csvf.cpp **** 		"0AF1C2E093E5"
 252:testSvf2Csvf.cpp **** 	);
 2263              		.loc 3 252 0
 2264 1238 4883EC08 		subq	$8, %rsp
 2265 123c 68000000 		pushq	$.LC62
 2265      00
 2266 1241 41B90400 		movl	$4, %r9d
 2266      0000
 2267 1247 41B80000 		movl	$.LC26, %r8d
 2267      0000
 2268 124d B9080000 		movl	$8, %ecx
 2268      00
 2269 1252 BA000000 		movl	$.LC34, %edx
 2269      00
 2270 1257 BE200000 		movl	$32, %esi
 2270      00
 2271 125c BF000000 		movl	$.LC19, %edi
 2271      00
 2272 1261 E8000000 		call	_Z9testShiftPKcjS0_jS0_jS0_
 2272      00
 2273 1266 4883C410 		addq	$16, %rsp
 253:testSvf2Csvf.cpp **** 	testShift(
 254:testSvf2Csvf.cpp **** 		"F1C2E093", 32,
 255:testSvf2Csvf.cpp **** 		"0115", 9,
 256:testSvf2Csvf.cpp **** 		"0A", 4,
 257:testSvf2Csvf.cpp **** 		"15E385C12715"
 258:testSvf2Csvf.cpp **** 	);
 2274              		.loc 3 258 0
 2275 126a 4883EC08 		subq	$8, %rsp
 2276 126e 68000000 		pushq	$.LC63
 2276      00
 2277 1273 41B90400 		movl	$4, %r9d
 2277      0000
 2278 1279 41B80000 		movl	$.LC26, %r8d
 2278      0000
 2279 127f B9090000 		movl	$9, %ecx
 2279      00
 2280 1284 BA000000 		movl	$.LC36, %edx
 2280      00
 2281 1289 BE200000 		movl	$32, %esi
 2281      00
 2282 128e BF000000 		movl	$.LC19, %edi
 2282      00
 2283 1293 E8000000 		call	_Z9testShiftPKcjS0_jS0_jS0_
 2283      00
 2284 1298 4883C410 		addq	$16, %rsp
 259:testSvf2Csvf.cpp **** 	testShift(
 260:testSvf2Csvf.cpp **** 		"F1C2E093", 32,
 261:testSvf2Csvf.cpp **** 		"0315", 10,
 262:testSvf2Csvf.cpp **** 		"0A", 4,
 263:testSvf2Csvf.cpp **** 		"2BC70B824F15"
 264:testSvf2Csvf.cpp **** 	);
 2285              		.loc 3 264 0
 2286 129c 4883EC08 		subq	$8, %rsp
 2287 12a0 68000000 		pushq	$.LC64
 2287      00
 2288 12a5 41B90400 		movl	$4, %r9d
 2288      0000
 2289 12ab 41B80000 		movl	$.LC26, %r8d
 2289      0000
 2290 12b1 B90A0000 		movl	$10, %ecx
 2290      00
 2291 12b6 BA000000 		movl	$.LC38, %edx
 2291      00
 2292 12bb BE200000 		movl	$32, %esi
 2292      00
 2293 12c0 BF000000 		movl	$.LC19, %edi
 2293      00
 2294 12c5 E8000000 		call	_Z9testShiftPKcjS0_jS0_jS0_
 2294      00
 2295 12ca 4883C410 		addq	$16, %rsp
 265:testSvf2Csvf.cpp **** 	testShift(
 266:testSvf2Csvf.cpp **** 		"F1C2E093", 32,
 267:testSvf2Csvf.cpp **** 		"0715", 11,
 268:testSvf2Csvf.cpp **** 		"0A", 4,
 269:testSvf2Csvf.cpp **** 		"578E17049F15"
 270:testSvf2Csvf.cpp **** 	);
 2296              		.loc 3 270 0
 2297 12ce 4883EC08 		subq	$8, %rsp
 2298 12d2 68000000 		pushq	$.LC65
 2298      00
 2299 12d7 41B90400 		movl	$4, %r9d
 2299      0000
 2300 12dd 41B80000 		movl	$.LC26, %r8d
 2300      0000
 2301 12e3 B90B0000 		movl	$11, %ecx
 2301      00
 2302 12e8 BA000000 		movl	$.LC40, %edx
 2302      00
 2303 12ed BE200000 		movl	$32, %esi
 2303      00
 2304 12f2 BF000000 		movl	$.LC19, %edi
 2304      00
 2305 12f7 E8000000 		call	_Z9testShiftPKcjS0_jS0_jS0_
 2305      00
 2306 12fc 4883C410 		addq	$16, %rsp
 271:testSvf2Csvf.cpp **** 	testShift(
 272:testSvf2Csvf.cpp **** 		"F1C2E093", 32,
 273:testSvf2Csvf.cpp **** 		"0c15", 12,
 274:testSvf2Csvf.cpp **** 		"0A", 4,
 275:testSvf2Csvf.cpp **** 		"AF1C2E093C15"
 276:testSvf2Csvf.cpp **** 	);
 2307              		.loc 3 276 0
 2308 1300 4883EC08 		subq	$8, %rsp
 2309 1304 68000000 		pushq	$.LC66
 2309      00
 2310 1309 41B90400 		movl	$4, %r9d
 2310      0000
 2311 130f 41B80000 		movl	$.LC26, %r8d
 2311      0000
 2312 1315 B90C0000 		movl	$12, %ecx
 2312      00
 2313 131a BA000000 		movl	$.LC42, %edx
 2313      00
 2314 131f BE200000 		movl	$32, %esi
 2314      00
 2315 1324 BF000000 		movl	$.LC19, %edi
 2315      00
 2316 1329 E8000000 		call	_Z9testShiftPKcjS0_jS0_jS0_
 2316      00
 2317 132e 4883C410 		addq	$16, %rsp
 277:testSvf2Csvf.cpp **** 	testShift(
 278:testSvf2Csvf.cpp **** 		"F1C2E093", 32,
 279:testSvf2Csvf.cpp **** 		"1c15", 13,
 280:testSvf2Csvf.cpp **** 		"0A", 4,
 281:testSvf2Csvf.cpp **** 		"015E385C127C15"
 282:testSvf2Csvf.cpp **** 	);
 2318              		.loc 3 282 0
 2319 1332 4883EC08 		subq	$8, %rsp
 2320 1336 68000000 		pushq	$.LC67
 2320      00
 2321 133b 41B90400 		movl	$4, %r9d
 2321      0000
 2322 1341 41B80000 		movl	$.LC26, %r8d
 2322      0000
 2323 1347 B90D0000 		movl	$13, %ecx
 2323      00
 2324 134c BA000000 		movl	$.LC44, %edx
 2324      00
 2325 1351 BE200000 		movl	$32, %esi
 2325      00
 2326 1356 BF000000 		movl	$.LC19, %edi
 2326      00
 2327 135b E8000000 		call	_Z9testShiftPKcjS0_jS0_jS0_
 2327      00
 2328 1360 4883C410 		addq	$16, %rsp
 283:testSvf2Csvf.cpp **** 	testShift(
 284:testSvf2Csvf.cpp **** 		"F1C2E093", 32,
 285:testSvf2Csvf.cpp **** 		"2c15", 14,
 286:testSvf2Csvf.cpp **** 		"0A", 4,
 287:testSvf2Csvf.cpp **** 		"02BC70B824EC15"
 288:testSvf2Csvf.cpp **** 	);
 2329              		.loc 3 288 0
 2330 1364 4883EC08 		subq	$8, %rsp
 2331 1368 68000000 		pushq	$.LC68
 2331      00
 2332 136d 41B90400 		movl	$4, %r9d
 2332      0000
 2333 1373 41B80000 		movl	$.LC26, %r8d
 2333      0000
 2334 1379 B90E0000 		movl	$14, %ecx
 2334      00
 2335 137e BA000000 		movl	$.LC46, %edx
 2335      00
 2336 1383 BE200000 		movl	$32, %esi
 2336      00
 2337 1388 BF000000 		movl	$.LC19, %edi
 2337      00
 2338 138d E8000000 		call	_Z9testShiftPKcjS0_jS0_jS0_
 2338      00
 2339 1392 4883C410 		addq	$16, %rsp
 289:testSvf2Csvf.cpp **** 	testShift(
 290:testSvf2Csvf.cpp **** 		"F1C2E093", 32,
 291:testSvf2Csvf.cpp **** 		"4015", 15,
 292:testSvf2Csvf.cpp **** 		"0A", 4,
 293:testSvf2Csvf.cpp **** 		"0578E17049C015"
 294:testSvf2Csvf.cpp **** 	);
 2340              		.loc 3 294 0
 2341 1396 4883EC08 		subq	$8, %rsp
 2342 139a 68000000 		pushq	$.LC69
 2342      00
 2343 139f 41B90400 		movl	$4, %r9d
 2343      0000
 2344 13a5 41B80000 		movl	$.LC26, %r8d
 2344      0000
 2345 13ab B90F0000 		movl	$15, %ecx
 2345      00
 2346 13b0 BA000000 		movl	$.LC48, %edx
 2346      00
 2347 13b5 BE200000 		movl	$32, %esi
 2347      00
 2348 13ba BF000000 		movl	$.LC19, %edi
 2348      00
 2349 13bf E8000000 		call	_Z9testShiftPKcjS0_jS0_jS0_
 2349      00
 2350 13c4 4883C410 		addq	$16, %rsp
 295:testSvf2Csvf.cpp **** 	testShift(
 296:testSvf2Csvf.cpp **** 		"F1C2E093", 32,
 297:testSvf2Csvf.cpp **** 		"8015", 16,
 298:testSvf2Csvf.cpp **** 		"0A", 4,
 299:testSvf2Csvf.cpp **** 		"0AF1C2E0938015"
 300:testSvf2Csvf.cpp **** 	);
 2351              		.loc 3 300 0
 2352 13c8 4883EC08 		subq	$8, %rsp
 2353 13cc 68000000 		pushq	$.LC70
 2353      00
 2354 13d1 41B90400 		movl	$4, %r9d
 2354      0000
 2355 13d7 41B80000 		movl	$.LC26, %r8d
 2355      0000
 2356 13dd B9100000 		movl	$16, %ecx
 2356      00
 2357 13e2 BA000000 		movl	$.LC50, %edx
 2357      00
 2358 13e7 BE200000 		movl	$32, %esi
 2358      00
 2359 13ec BF000000 		movl	$.LC19, %edi
 2359      00
 2360 13f1 E8000000 		call	_Z9testShiftPKcjS0_jS0_jS0_
 2360      00
 2361 13f6 4883C410 		addq	$16, %rsp
 301:testSvf2Csvf.cpp **** 	testShift(
 302:testSvf2Csvf.cpp **** 		"F1C2E093", 32,
 303:testSvf2Csvf.cpp **** 		"018015", 17,
 304:testSvf2Csvf.cpp **** 		"0A", 4,
 305:testSvf2Csvf.cpp **** 		"15E385C1278015"
 306:testSvf2Csvf.cpp **** 	);
 2362              		.loc 3 306 0
 2363 13fa 4883EC08 		subq	$8, %rsp
 2364 13fe 68000000 		pushq	$.LC71
 2364      00
 2365 1403 41B90400 		movl	$4, %r9d
 2365      0000
 2366 1409 41B80000 		movl	$.LC26, %r8d
 2366      0000
 2367 140f B9110000 		movl	$17, %ecx
 2367      00
 2368 1414 BA000000 		movl	$.LC52, %edx
 2368      00
 2369 1419 BE200000 		movl	$32, %esi
 2369      00
 2370 141e BF000000 		movl	$.LC19, %edi
 2370      00
 2371 1423 E8000000 		call	_Z9testShiftPKcjS0_jS0_jS0_
 2371      00
 2372 1428 4883C410 		addq	$16, %rsp
 307:testSvf2Csvf.cpp **** 	testShift(
 308:testSvf2Csvf.cpp **** 		"F1C2E093", 32,
 309:testSvf2Csvf.cpp **** 		"00", 0,
 310:testSvf2Csvf.cpp **** 		"0135", 9,
 311:testSvf2Csvf.cpp **** 		"0135F1C2E093"
 312:testSvf2Csvf.cpp **** 	);
 2373              		.loc 3 312 0
 2374 142c 4883EC08 		subq	$8, %rsp
 2375 1430 68000000 		pushq	$.LC73
 2375      00
 2376 1435 41B90900 		movl	$9, %r9d
 2376      0000
 2377 143b 41B80000 		movl	$.LC72, %r8d
 2377      0000
 2378 1441 B9000000 		movl	$0, %ecx
 2378      00
 2379 1446 BA000000 		movl	$.LC18, %edx
 2379      00
 2380 144b BE200000 		movl	$32, %esi
 2380      00
 2381 1450 BF000000 		movl	$.LC19, %edi
 2381      00
 2382 1455 E8000000 		call	_Z9testShiftPKcjS0_jS0_jS0_
 2382      00
 2383 145a 4883C410 		addq	$16, %rsp
 313:testSvf2Csvf.cpp **** 	testShift(
 314:testSvf2Csvf.cpp **** 		"F1C2E093", 32,
 315:testSvf2Csvf.cpp **** 		"01", 1,
 316:testSvf2Csvf.cpp **** 		"0135", 9,
 317:testSvf2Csvf.cpp **** 		"026BE385C127"
 318:testSvf2Csvf.cpp **** 	);
 2384              		.loc 3 318 0
 2385 145e 4883EC08 		subq	$8, %rsp
 2386 1462 68000000 		pushq	$.LC74
 2386      00
 2387 1467 41B90900 		movl	$9, %r9d
 2387      0000
 2388 146d 41B80000 		movl	$.LC72, %r8d
 2388      0000
 2389 1473 B9010000 		movl	$1, %ecx
 2389      00
 2390 1478 BA000000 		movl	$.LC21, %edx
 2390      00
 2391 147d BE200000 		movl	$32, %esi
 2391      00
 2392 1482 BF000000 		movl	$.LC19, %edi
 2392      00
 2393 1487 E8000000 		call	_Z9testShiftPKcjS0_jS0_jS0_
 2393      00
 2394 148c 4883C410 		addq	$16, %rsp
 319:testSvf2Csvf.cpp **** 	testShift(
 320:testSvf2Csvf.cpp **** 		"F1C2E093", 32,
 321:testSvf2Csvf.cpp **** 		"02", 2,
 322:testSvf2Csvf.cpp **** 		"0135", 9,
 323:testSvf2Csvf.cpp **** 		"04D7C70B824E"
 324:testSvf2Csvf.cpp **** 	);
 2395              		.loc 3 324 0
 2396 1490 4883EC08 		subq	$8, %rsp
 2397 1494 68000000 		pushq	$.LC75
 2397      00
 2398 1499 41B90900 		movl	$9, %r9d
 2398      0000
 2399 149f 41B80000 		movl	$.LC72, %r8d
 2399      0000
 2400 14a5 B9020000 		movl	$2, %ecx
 2400      00
 2401 14aa BA000000 		movl	$.LC23, %edx
 2401      00
 2402 14af BE200000 		movl	$32, %esi
 2402      00
 2403 14b4 BF000000 		movl	$.LC19, %edi
 2403      00
 2404 14b9 E8000000 		call	_Z9testShiftPKcjS0_jS0_jS0_
 2404      00
 2405 14be 4883C410 		addq	$16, %rsp
 325:testSvf2Csvf.cpp **** 	testShift(
 326:testSvf2Csvf.cpp **** 		"F1C2E093", 32,
 327:testSvf2Csvf.cpp **** 		"06", 3,
 328:testSvf2Csvf.cpp **** 		"0135", 9,
 329:testSvf2Csvf.cpp **** 		"09AF8E17049E"
 330:testSvf2Csvf.cpp **** 	);
 2406              		.loc 3 330 0
 2407 14c2 4883EC08 		subq	$8, %rsp
 2408 14c6 68000000 		pushq	$.LC76
 2408      00
 2409 14cb 41B90900 		movl	$9, %r9d
 2409      0000
 2410 14d1 41B80000 		movl	$.LC72, %r8d
 2410      0000
 2411 14d7 B9030000 		movl	$3, %ecx
 2411      00
 2412 14dc BA000000 		movl	$.LC17, %edx
 2412      00
 2413 14e1 BE200000 		movl	$32, %esi
 2413      00
 2414 14e6 BF000000 		movl	$.LC19, %edi
 2414      00
 2415 14eb E8000000 		call	_Z9testShiftPKcjS0_jS0_jS0_
 2415      00
 2416 14f0 4883C410 		addq	$16, %rsp
 331:testSvf2Csvf.cpp **** 	testShift(
 332:testSvf2Csvf.cpp **** 		"F1C2E093", 32,
 333:testSvf2Csvf.cpp **** 		"0A", 4,
 334:testSvf2Csvf.cpp **** 		"0135", 9,
 335:testSvf2Csvf.cpp **** 		"135F1C2E093A"
 336:testSvf2Csvf.cpp **** 	);
 2417              		.loc 3 336 0
 2418 14f4 4883EC08 		subq	$8, %rsp
 2419 14f8 68000000 		pushq	$.LC77
 2419      00
 2420 14fd 41B90900 		movl	$9, %r9d
 2420      0000
 2421 1503 41B80000 		movl	$.LC72, %r8d
 2421      0000
 2422 1509 B9040000 		movl	$4, %ecx
 2422      00
 2423 150e BA000000 		movl	$.LC26, %edx
 2423      00
 2424 1513 BE200000 		movl	$32, %esi
 2424      00
 2425 1518 BF000000 		movl	$.LC19, %edi
 2425      00
 2426 151d E8000000 		call	_Z9testShiftPKcjS0_jS0_jS0_
 2426      00
 2427 1522 4883C410 		addq	$16, %rsp
 337:testSvf2Csvf.cpp **** 	testShift(
 338:testSvf2Csvf.cpp **** 		"F1C2E093", 32,
 339:testSvf2Csvf.cpp **** 		"15", 5,
 340:testSvf2Csvf.cpp **** 		"0135", 9,
 341:testSvf2Csvf.cpp **** 		"26BE385C1275"
 342:testSvf2Csvf.cpp **** 	);
 2428              		.loc 3 342 0
 2429 1526 4883EC08 		subq	$8, %rsp
 2430 152a 68000000 		pushq	$.LC78
 2430      00
 2431 152f 41B90900 		movl	$9, %r9d
 2431      0000
 2432 1535 41B80000 		movl	$.LC72, %r8d
 2432      0000
 2433 153b B9050000 		movl	$5, %ecx
 2433      00
 2434 1540 BA000000 		movl	$.LC28, %edx
 2434      00
 2435 1545 BE200000 		movl	$32, %esi
 2435      00
 2436 154a BF000000 		movl	$.LC19, %edi
 2436      00
 2437 154f E8000000 		call	_Z9testShiftPKcjS0_jS0_jS0_
 2437      00
 2438 1554 4883C410 		addq	$16, %rsp
 343:testSvf2Csvf.cpp **** 	testShift(
 344:testSvf2Csvf.cpp **** 		"F1C2E093", 32,
 345:testSvf2Csvf.cpp **** 		"25", 6,
 346:testSvf2Csvf.cpp **** 		"0135", 9,
 347:testSvf2Csvf.cpp **** 		"4D7C70B824E5"
 348:testSvf2Csvf.cpp **** 	);
 2439              		.loc 3 348 0
 2440 1558 4883EC08 		subq	$8, %rsp
 2441 155c 68000000 		pushq	$.LC79
 2441      00
 2442 1561 41B90900 		movl	$9, %r9d
 2442      0000
 2443 1567 41B80000 		movl	$.LC72, %r8d
 2443      0000
 2444 156d B9060000 		movl	$6, %ecx
 2444      00
 2445 1572 BA000000 		movl	$.LC30, %edx
 2445      00
 2446 1577 BE200000 		movl	$32, %esi
 2446      00
 2447 157c BF000000 		movl	$.LC19, %edi
 2447      00
 2448 1581 E8000000 		call	_Z9testShiftPKcjS0_jS0_jS0_
 2448      00
 2449 1586 4883C410 		addq	$16, %rsp
 349:testSvf2Csvf.cpp **** 	testShift(
 350:testSvf2Csvf.cpp **** 		"F1C2E093", 32,
 351:testSvf2Csvf.cpp **** 		"75", 7,
 352:testSvf2Csvf.cpp **** 		"0135", 9,
 353:testSvf2Csvf.cpp **** 		"9AF8E17049F5"
 354:testSvf2Csvf.cpp **** 	);
 2450              		.loc 3 354 0
 2451 158a 4883EC08 		subq	$8, %rsp
 2452 158e 68000000 		pushq	$.LC80
 2452      00
 2453 1593 41B90900 		movl	$9, %r9d
 2453      0000
 2454 1599 41B80000 		movl	$.LC72, %r8d
 2454      0000
 2455 159f B9070000 		movl	$7, %ecx
 2455      00
 2456 15a4 BA000000 		movl	$.LC32, %edx
 2456      00
 2457 15a9 BE200000 		movl	$32, %esi
 2457      00
 2458 15ae BF000000 		movl	$.LC19, %edi
 2458      00
 2459 15b3 E8000000 		call	_Z9testShiftPKcjS0_jS0_jS0_
 2459      00
 2460 15b8 4883C410 		addq	$16, %rsp
 355:testSvf2Csvf.cpp **** 	testShift(
 356:testSvf2Csvf.cpp **** 		"F1C2E093", 32,
 357:testSvf2Csvf.cpp **** 		"e5", 8,
 358:testSvf2Csvf.cpp **** 		"0135", 9,
 359:testSvf2Csvf.cpp **** 		"0135F1C2E093E5"
 360:testSvf2Csvf.cpp **** 	);
 2461              		.loc 3 360 0
 2462 15bc 4883EC08 		subq	$8, %rsp
 2463 15c0 68000000 		pushq	$.LC81
 2463      00
 2464 15c5 41B90900 		movl	$9, %r9d
 2464      0000
 2465 15cb 41B80000 		movl	$.LC72, %r8d
 2465      0000
 2466 15d1 B9080000 		movl	$8, %ecx
 2466      00
 2467 15d6 BA000000 		movl	$.LC34, %edx
 2467      00
 2468 15db BE200000 		movl	$32, %esi
 2468      00
 2469 15e0 BF000000 		movl	$.LC19, %edi
 2469      00
 2470 15e5 E8000000 		call	_Z9testShiftPKcjS0_jS0_jS0_
 2470      00
 2471 15ea 4883C410 		addq	$16, %rsp
 361:testSvf2Csvf.cpp **** 	testShift(
 362:testSvf2Csvf.cpp **** 		"F1C2E093", 32,
 363:testSvf2Csvf.cpp **** 		"0115", 9,
 364:testSvf2Csvf.cpp **** 		"0135", 9,
 365:testSvf2Csvf.cpp **** 		"026BE385C12715"
 366:testSvf2Csvf.cpp **** 	);
 2472              		.loc 3 366 0
 2473 15ee 4883EC08 		subq	$8, %rsp
 2474 15f2 68000000 		pushq	$.LC82
 2474      00
 2475 15f7 41B90900 		movl	$9, %r9d
 2475      0000
 2476 15fd 41B80000 		movl	$.LC72, %r8d
 2476      0000
 2477 1603 B9090000 		movl	$9, %ecx
 2477      00
 2478 1608 BA000000 		movl	$.LC36, %edx
 2478      00
 2479 160d BE200000 		movl	$32, %esi
 2479      00
 2480 1612 BF000000 		movl	$.LC19, %edi
 2480      00
 2481 1617 E8000000 		call	_Z9testShiftPKcjS0_jS0_jS0_
 2481      00
 2482 161c 4883C410 		addq	$16, %rsp
 367:testSvf2Csvf.cpp **** 	testShift(
 368:testSvf2Csvf.cpp **** 		"F1C2E093", 32,
 369:testSvf2Csvf.cpp **** 		"0315", 10,
 370:testSvf2Csvf.cpp **** 		"0135", 9,
 371:testSvf2Csvf.cpp **** 		"04D7C70B824F15"
 372:testSvf2Csvf.cpp **** 	);
 2483              		.loc 3 372 0
 2484 1620 4883EC08 		subq	$8, %rsp
 2485 1624 68000000 		pushq	$.LC83
 2485      00
 2486 1629 41B90900 		movl	$9, %r9d
 2486      0000
 2487 162f 41B80000 		movl	$.LC72, %r8d
 2487      0000
 2488 1635 B90A0000 		movl	$10, %ecx
 2488      00
 2489 163a BA000000 		movl	$.LC38, %edx
 2489      00
 2490 163f BE200000 		movl	$32, %esi
 2490      00
 2491 1644 BF000000 		movl	$.LC19, %edi
 2491      00
 2492 1649 E8000000 		call	_Z9testShiftPKcjS0_jS0_jS0_
 2492      00
 2493 164e 4883C410 		addq	$16, %rsp
 373:testSvf2Csvf.cpp **** 	testShift(
 374:testSvf2Csvf.cpp **** 		"F1C2E093", 32,
 375:testSvf2Csvf.cpp **** 		"0715", 11,
 376:testSvf2Csvf.cpp **** 		"0135", 9,
 377:testSvf2Csvf.cpp **** 		"09AF8E17049F15"
 378:testSvf2Csvf.cpp **** 	);
 2494              		.loc 3 378 0
 2495 1652 4883EC08 		subq	$8, %rsp
 2496 1656 68000000 		pushq	$.LC84
 2496      00
 2497 165b 41B90900 		movl	$9, %r9d
 2497      0000
 2498 1661 41B80000 		movl	$.LC72, %r8d
 2498      0000
 2499 1667 B90B0000 		movl	$11, %ecx
 2499      00
 2500 166c BA000000 		movl	$.LC40, %edx
 2500      00
 2501 1671 BE200000 		movl	$32, %esi
 2501      00
 2502 1676 BF000000 		movl	$.LC19, %edi
 2502      00
 2503 167b E8000000 		call	_Z9testShiftPKcjS0_jS0_jS0_
 2503      00
 2504 1680 4883C410 		addq	$16, %rsp
 379:testSvf2Csvf.cpp **** 	testShift(
 380:testSvf2Csvf.cpp **** 		"F1C2E093", 32,
 381:testSvf2Csvf.cpp **** 		"0c15", 12,
 382:testSvf2Csvf.cpp **** 		"0135", 9,
 383:testSvf2Csvf.cpp **** 		"135F1C2E093C15"
 384:testSvf2Csvf.cpp **** 	);
 2505              		.loc 3 384 0
 2506 1684 4883EC08 		subq	$8, %rsp
 2507 1688 68000000 		pushq	$.LC85
 2507      00
 2508 168d 41B90900 		movl	$9, %r9d
 2508      0000
 2509 1693 41B80000 		movl	$.LC72, %r8d
 2509      0000
 2510 1699 B90C0000 		movl	$12, %ecx
 2510      00
 2511 169e BA000000 		movl	$.LC42, %edx
 2511      00
 2512 16a3 BE200000 		movl	$32, %esi
 2512      00
 2513 16a8 BF000000 		movl	$.LC19, %edi
 2513      00
 2514 16ad E8000000 		call	_Z9testShiftPKcjS0_jS0_jS0_
 2514      00
 2515 16b2 4883C410 		addq	$16, %rsp
 385:testSvf2Csvf.cpp **** 	testShift(
 386:testSvf2Csvf.cpp **** 		"F1C2E093", 32,
 387:testSvf2Csvf.cpp **** 		"1c15", 13,
 388:testSvf2Csvf.cpp **** 		"0135", 9,
 389:testSvf2Csvf.cpp **** 		"26BE385C127C15"
 390:testSvf2Csvf.cpp **** 	);
 2516              		.loc 3 390 0
 2517 16b6 4883EC08 		subq	$8, %rsp
 2518 16ba 68000000 		pushq	$.LC86
 2518      00
 2519 16bf 41B90900 		movl	$9, %r9d
 2519      0000
 2520 16c5 41B80000 		movl	$.LC72, %r8d
 2520      0000
 2521 16cb B90D0000 		movl	$13, %ecx
 2521      00
 2522 16d0 BA000000 		movl	$.LC44, %edx
 2522      00
 2523 16d5 BE200000 		movl	$32, %esi
 2523      00
 2524 16da BF000000 		movl	$.LC19, %edi
 2524      00
 2525 16df E8000000 		call	_Z9testShiftPKcjS0_jS0_jS0_
 2525      00
 2526 16e4 4883C410 		addq	$16, %rsp
 391:testSvf2Csvf.cpp **** 	testShift(
 392:testSvf2Csvf.cpp **** 		"F1C2E093", 32,
 393:testSvf2Csvf.cpp **** 		"2c15", 14,
 394:testSvf2Csvf.cpp **** 		"0135", 9,
 395:testSvf2Csvf.cpp **** 		"4D7C70B824EC15"
 396:testSvf2Csvf.cpp **** 	);
 2527              		.loc 3 396 0
 2528 16e8 4883EC08 		subq	$8, %rsp
 2529 16ec 68000000 		pushq	$.LC87
 2529      00
 2530 16f1 41B90900 		movl	$9, %r9d
 2530      0000
 2531 16f7 41B80000 		movl	$.LC72, %r8d
 2531      0000
 2532 16fd B90E0000 		movl	$14, %ecx
 2532      00
 2533 1702 BA000000 		movl	$.LC46, %edx
 2533      00
 2534 1707 BE200000 		movl	$32, %esi
 2534      00
 2535 170c BF000000 		movl	$.LC19, %edi
 2535      00
 2536 1711 E8000000 		call	_Z9testShiftPKcjS0_jS0_jS0_
 2536      00
 2537 1716 4883C410 		addq	$16, %rsp
 397:testSvf2Csvf.cpp **** 	testShift(
 398:testSvf2Csvf.cpp **** 		"F1C2E093", 32,
 399:testSvf2Csvf.cpp **** 		"4015", 15,
 400:testSvf2Csvf.cpp **** 		"0135", 9,
 401:testSvf2Csvf.cpp **** 		"9AF8E17049C015"
 402:testSvf2Csvf.cpp **** 	);
 2538              		.loc 3 402 0
 2539 171a 4883EC08 		subq	$8, %rsp
 2540 171e 68000000 		pushq	$.LC88
 2540      00
 2541 1723 41B90900 		movl	$9, %r9d
 2541      0000
 2542 1729 41B80000 		movl	$.LC72, %r8d
 2542      0000
 2543 172f B90F0000 		movl	$15, %ecx
 2543      00
 2544 1734 BA000000 		movl	$.LC48, %edx
 2544      00
 2545 1739 BE200000 		movl	$32, %esi
 2545      00
 2546 173e BF000000 		movl	$.LC19, %edi
 2546      00
 2547 1743 E8000000 		call	_Z9testShiftPKcjS0_jS0_jS0_
 2547      00
 2548 1748 4883C410 		addq	$16, %rsp
 403:testSvf2Csvf.cpp **** 	testShift(
 404:testSvf2Csvf.cpp **** 		"F1C2E093", 32,
 405:testSvf2Csvf.cpp **** 		"8015", 16,
 406:testSvf2Csvf.cpp **** 		"0135", 9,
 407:testSvf2Csvf.cpp **** 		"0135F1C2E0938015"
 408:testSvf2Csvf.cpp **** 	);
 2549              		.loc 3 408 0
 2550 174c 4883EC08 		subq	$8, %rsp
 2551 1750 68000000 		pushq	$.LC89
 2551      00
 2552 1755 41B90900 		movl	$9, %r9d
 2552      0000
 2553 175b 41B80000 		movl	$.LC72, %r8d
 2553      0000
 2554 1761 B9100000 		movl	$16, %ecx
 2554      00
 2555 1766 BA000000 		movl	$.LC50, %edx
 2555      00
 2556 176b BE200000 		movl	$32, %esi
 2556      00
 2557 1770 BF000000 		movl	$.LC19, %edi
 2557      00
 2558 1775 E8000000 		call	_Z9testShiftPKcjS0_jS0_jS0_
 2558      00
 2559 177a 4883C410 		addq	$16, %rsp
 409:testSvf2Csvf.cpp **** 	testShift(
 410:testSvf2Csvf.cpp **** 		"F1C2E093", 32,
 411:testSvf2Csvf.cpp **** 		"018015", 17,
 412:testSvf2Csvf.cpp **** 		"0135", 9,
 413:testSvf2Csvf.cpp **** 		"026BE385C1278015"
 414:testSvf2Csvf.cpp **** 	);
 2560              		.loc 3 414 0
 2561 177e 4883EC08 		subq	$8, %rsp
 2562 1782 68000000 		pushq	$.LC90
 2562      00
 2563 1787 41B90900 		movl	$9, %r9d
 2563      0000
 2564 178d 41B80000 		movl	$.LC72, %r8d
 2564      0000
 2565 1793 B9110000 		movl	$17, %ecx
 2565      00
 2566 1798 BA000000 		movl	$.LC52, %edx
 2566      00
 2567 179d BE200000 		movl	$32, %esi
 2567      00
 2568 17a2 BF000000 		movl	$.LC19, %edi
 2568      00
 2569 17a7 E8000000 		call	_Z9testShiftPKcjS0_jS0_jS0_
 2569      00
 2570 17ac 4883C410 		addq	$16, %rsp
 415:testSvf2Csvf.cpp **** 	testShift(
 416:testSvf2Csvf.cpp **** 		"71C2E093", 31,
 417:testSvf2Csvf.cpp **** 		"00", 0,
 418:testSvf2Csvf.cpp **** 		"0135", 9,
 419:testSvf2Csvf.cpp **** 		"9AF1C2E093"
 420:testSvf2Csvf.cpp **** 	);
 2571              		.loc 3 420 0
 2572 17b0 4883EC08 		subq	$8, %rsp
 2573 17b4 68000000 		pushq	$.LC92
 2573      00
 2574 17b9 41B90900 		movl	$9, %r9d
 2574      0000
 2575 17bf 41B80000 		movl	$.LC72, %r8d
 2575      0000
 2576 17c5 B9000000 		movl	$0, %ecx
 2576      00
 2577 17ca BA000000 		movl	$.LC18, %edx
 2577      00
 2578 17cf BE1F0000 		movl	$31, %esi
 2578      00
 2579 17d4 BF000000 		movl	$.LC91, %edi
 2579      00
 2580 17d9 E8000000 		call	_Z9testShiftPKcjS0_jS0_jS0_
 2580      00
 2581 17de 4883C410 		addq	$16, %rsp
 421:testSvf2Csvf.cpp **** 	testShift(
 422:testSvf2Csvf.cpp **** 		"71C2E093", 31,
 423:testSvf2Csvf.cpp **** 		"01", 1,
 424:testSvf2Csvf.cpp **** 		"0135", 9,
 425:testSvf2Csvf.cpp **** 		"0135E385C127"
 426:testSvf2Csvf.cpp **** 	);
 2582              		.loc 3 426 0
 2583 17e2 4883EC08 		subq	$8, %rsp
 2584 17e6 68000000 		pushq	$.LC93
 2584      00
 2585 17eb 41B90900 		movl	$9, %r9d
 2585      0000
 2586 17f1 41B80000 		movl	$.LC72, %r8d
 2586      0000
 2587 17f7 B9010000 		movl	$1, %ecx
 2587      00
 2588 17fc BA000000 		movl	$.LC21, %edx
 2588      00
 2589 1801 BE1F0000 		movl	$31, %esi
 2589      00
 2590 1806 BF000000 		movl	$.LC91, %edi
 2590      00
 2591 180b E8000000 		call	_Z9testShiftPKcjS0_jS0_jS0_
 2591      00
 2592 1810 4883C410 		addq	$16, %rsp
 427:testSvf2Csvf.cpp **** 	testShift(
 428:testSvf2Csvf.cpp **** 		"71C2E093", 31,
 429:testSvf2Csvf.cpp **** 		"02", 2,
 430:testSvf2Csvf.cpp **** 		"0135", 9,
 431:testSvf2Csvf.cpp **** 		"026BC70B824E"
 432:testSvf2Csvf.cpp **** 	);
 2593              		.loc 3 432 0
 2594 1814 4883EC08 		subq	$8, %rsp
 2595 1818 68000000 		pushq	$.LC94
 2595      00
 2596 181d 41B90900 		movl	$9, %r9d
 2596      0000
 2597 1823 41B80000 		movl	$.LC72, %r8d
 2597      0000
 2598 1829 B9020000 		movl	$2, %ecx
 2598      00
 2599 182e BA000000 		movl	$.LC23, %edx
 2599      00
 2600 1833 BE1F0000 		movl	$31, %esi
 2600      00
 2601 1838 BF000000 		movl	$.LC91, %edi
 2601      00
 2602 183d E8000000 		call	_Z9testShiftPKcjS0_jS0_jS0_
 2602      00
 2603 1842 4883C410 		addq	$16, %rsp
 433:testSvf2Csvf.cpp **** 	testShift(
 434:testSvf2Csvf.cpp **** 		"71C2E093", 31,
 435:testSvf2Csvf.cpp **** 		"06", 3,
 436:testSvf2Csvf.cpp **** 		"0135", 9,
 437:testSvf2Csvf.cpp **** 		"04D78E17049E"
 438:testSvf2Csvf.cpp **** 	);
 2604              		.loc 3 438 0
 2605 1846 4883EC08 		subq	$8, %rsp
 2606 184a 68000000 		pushq	$.LC95
 2606      00
 2607 184f 41B90900 		movl	$9, %r9d
 2607      0000
 2608 1855 41B80000 		movl	$.LC72, %r8d
 2608      0000
 2609 185b B9030000 		movl	$3, %ecx
 2609      00
 2610 1860 BA000000 		movl	$.LC17, %edx
 2610      00
 2611 1865 BE1F0000 		movl	$31, %esi
 2611      00
 2612 186a BF000000 		movl	$.LC91, %edi
 2612      00
 2613 186f E8000000 		call	_Z9testShiftPKcjS0_jS0_jS0_
 2613      00
 2614 1874 4883C410 		addq	$16, %rsp
 439:testSvf2Csvf.cpp **** 	testShift(
 440:testSvf2Csvf.cpp **** 		"71C2E093", 31,
 441:testSvf2Csvf.cpp **** 		"0A", 4,
 442:testSvf2Csvf.cpp **** 		"0135", 9,
 443:testSvf2Csvf.cpp **** 		"09AF1C2E093A"
 444:testSvf2Csvf.cpp **** 	);
 2615              		.loc 3 444 0
 2616 1878 4883EC08 		subq	$8, %rsp
 2617 187c 68000000 		pushq	$.LC96
 2617      00
 2618 1881 41B90900 		movl	$9, %r9d
 2618      0000
 2619 1887 41B80000 		movl	$.LC72, %r8d
 2619      0000
 2620 188d B9040000 		movl	$4, %ecx
 2620      00
 2621 1892 BA000000 		movl	$.LC26, %edx
 2621      00
 2622 1897 BE1F0000 		movl	$31, %esi
 2622      00
 2623 189c BF000000 		movl	$.LC91, %edi
 2623      00
 2624 18a1 E8000000 		call	_Z9testShiftPKcjS0_jS0_jS0_
 2624      00
 2625 18a6 4883C410 		addq	$16, %rsp
 445:testSvf2Csvf.cpp **** 	testShift(
 446:testSvf2Csvf.cpp **** 		"71C2E093", 31,
 447:testSvf2Csvf.cpp **** 		"15", 5,
 448:testSvf2Csvf.cpp **** 		"0135", 9,
 449:testSvf2Csvf.cpp **** 		"135E385C1275"
 450:testSvf2Csvf.cpp **** 	);
 2626              		.loc 3 450 0
 2627 18aa 4883EC08 		subq	$8, %rsp
 2628 18ae 68000000 		pushq	$.LC97
 2628      00
 2629 18b3 41B90900 		movl	$9, %r9d
 2629      0000
 2630 18b9 41B80000 		movl	$.LC72, %r8d
 2630      0000
 2631 18bf B9050000 		movl	$5, %ecx
 2631      00
 2632 18c4 BA000000 		movl	$.LC28, %edx
 2632      00
 2633 18c9 BE1F0000 		movl	$31, %esi
 2633      00
 2634 18ce BF000000 		movl	$.LC91, %edi
 2634      00
 2635 18d3 E8000000 		call	_Z9testShiftPKcjS0_jS0_jS0_
 2635      00
 2636 18d8 4883C410 		addq	$16, %rsp
 451:testSvf2Csvf.cpp **** 	testShift(
 452:testSvf2Csvf.cpp **** 		"71C2E093", 31,
 453:testSvf2Csvf.cpp **** 		"25", 6,
 454:testSvf2Csvf.cpp **** 		"0135", 9,
 455:testSvf2Csvf.cpp **** 		"26BC70B824E5"
 456:testSvf2Csvf.cpp **** 	);
 2637              		.loc 3 456 0
 2638 18dc 4883EC08 		subq	$8, %rsp
 2639 18e0 68000000 		pushq	$.LC98
 2639      00
 2640 18e5 41B90900 		movl	$9, %r9d
 2640      0000
 2641 18eb 41B80000 		movl	$.LC72, %r8d
 2641      0000
 2642 18f1 B9060000 		movl	$6, %ecx
 2642      00
 2643 18f6 BA000000 		movl	$.LC30, %edx
 2643      00
 2644 18fb BE1F0000 		movl	$31, %esi
 2644      00
 2645 1900 BF000000 		movl	$.LC91, %edi
 2645      00
 2646 1905 E8000000 		call	_Z9testShiftPKcjS0_jS0_jS0_
 2646      00
 2647 190a 4883C410 		addq	$16, %rsp
 457:testSvf2Csvf.cpp **** 	testShift(
 458:testSvf2Csvf.cpp **** 		"71C2E093", 31,
 459:testSvf2Csvf.cpp **** 		"75", 7,
 460:testSvf2Csvf.cpp **** 		"0135", 9,
 461:testSvf2Csvf.cpp **** 		"4D78E17049F5"
 462:testSvf2Csvf.cpp **** 	);
 2648              		.loc 3 462 0
 2649 190e 4883EC08 		subq	$8, %rsp
 2650 1912 68000000 		pushq	$.LC99
 2650      00
 2651 1917 41B90900 		movl	$9, %r9d
 2651      0000
 2652 191d 41B80000 		movl	$.LC72, %r8d
 2652      0000
 2653 1923 B9070000 		movl	$7, %ecx
 2653      00
 2654 1928 BA000000 		movl	$.LC32, %edx
 2654      00
 2655 192d BE1F0000 		movl	$31, %esi
 2655      00
 2656 1932 BF000000 		movl	$.LC91, %edi
 2656      00
 2657 1937 E8000000 		call	_Z9testShiftPKcjS0_jS0_jS0_
 2657      00
 2658 193c 4883C410 		addq	$16, %rsp
 463:testSvf2Csvf.cpp **** 	testShift(
 464:testSvf2Csvf.cpp **** 		"71C2E093", 31,
 465:testSvf2Csvf.cpp **** 		"e5", 8,
 466:testSvf2Csvf.cpp **** 		"0135", 9,
 467:testSvf2Csvf.cpp **** 		"9AF1C2E093E5"
 468:testSvf2Csvf.cpp **** 	);
 2659              		.loc 3 468 0
 2660 1940 4883EC08 		subq	$8, %rsp
 2661 1944 68000000 		pushq	$.LC100
 2661      00
 2662 1949 41B90900 		movl	$9, %r9d
 2662      0000
 2663 194f 41B80000 		movl	$.LC72, %r8d
 2663      0000
 2664 1955 B9080000 		movl	$8, %ecx
 2664      00
 2665 195a BA000000 		movl	$.LC34, %edx
 2665      00
 2666 195f BE1F0000 		movl	$31, %esi
 2666      00
 2667 1964 BF000000 		movl	$.LC91, %edi
 2667      00
 2668 1969 E8000000 		call	_Z9testShiftPKcjS0_jS0_jS0_
 2668      00
 2669 196e 4883C410 		addq	$16, %rsp
 469:testSvf2Csvf.cpp **** 	testShift(
 470:testSvf2Csvf.cpp **** 		"71C2E093", 31,
 471:testSvf2Csvf.cpp **** 		"0115", 9,
 472:testSvf2Csvf.cpp **** 		"0135", 9,
 473:testSvf2Csvf.cpp **** 		"0135E385C12715"
 474:testSvf2Csvf.cpp **** 	);
 2670              		.loc 3 474 0
 2671 1972 4883EC08 		subq	$8, %rsp
 2672 1976 68000000 		pushq	$.LC101
 2672      00
 2673 197b 41B90900 		movl	$9, %r9d
 2673      0000
 2674 1981 41B80000 		movl	$.LC72, %r8d
 2674      0000
 2675 1987 B9090000 		movl	$9, %ecx
 2675      00
 2676 198c BA000000 		movl	$.LC36, %edx
 2676      00
 2677 1991 BE1F0000 		movl	$31, %esi
 2677      00
 2678 1996 BF000000 		movl	$.LC91, %edi
 2678      00
 2679 199b E8000000 		call	_Z9testShiftPKcjS0_jS0_jS0_
 2679      00
 2680 19a0 4883C410 		addq	$16, %rsp
 475:testSvf2Csvf.cpp **** 	testShift(
 476:testSvf2Csvf.cpp **** 		"71C2E093", 31,
 477:testSvf2Csvf.cpp **** 		"0315", 10,
 478:testSvf2Csvf.cpp **** 		"0135", 9,
 479:testSvf2Csvf.cpp **** 		"026BC70B824F15"
 480:testSvf2Csvf.cpp **** 	);
 2681              		.loc 3 480 0
 2682 19a4 4883EC08 		subq	$8, %rsp
 2683 19a8 68000000 		pushq	$.LC102
 2683      00
 2684 19ad 41B90900 		movl	$9, %r9d
 2684      0000
 2685 19b3 41B80000 		movl	$.LC72, %r8d
 2685      0000
 2686 19b9 B90A0000 		movl	$10, %ecx
 2686      00
 2687 19be BA000000 		movl	$.LC38, %edx
 2687      00
 2688 19c3 BE1F0000 		movl	$31, %esi
 2688      00
 2689 19c8 BF000000 		movl	$.LC91, %edi
 2689      00
 2690 19cd E8000000 		call	_Z9testShiftPKcjS0_jS0_jS0_
 2690      00
 2691 19d2 4883C410 		addq	$16, %rsp
 481:testSvf2Csvf.cpp **** 	testShift(
 482:testSvf2Csvf.cpp **** 		"71C2E093", 31,
 483:testSvf2Csvf.cpp **** 		"0715", 11,
 484:testSvf2Csvf.cpp **** 		"0135", 9,
 485:testSvf2Csvf.cpp **** 		"04D78E17049F15"
 486:testSvf2Csvf.cpp **** 	);
 2692              		.loc 3 486 0
 2693 19d6 4883EC08 		subq	$8, %rsp
 2694 19da 68000000 		pushq	$.LC103
 2694      00
 2695 19df 41B90900 		movl	$9, %r9d
 2695      0000
 2696 19e5 41B80000 		movl	$.LC72, %r8d
 2696      0000
 2697 19eb B90B0000 		movl	$11, %ecx
 2697      00
 2698 19f0 BA000000 		movl	$.LC40, %edx
 2698      00
 2699 19f5 BE1F0000 		movl	$31, %esi
 2699      00
 2700 19fa BF000000 		movl	$.LC91, %edi
 2700      00
 2701 19ff E8000000 		call	_Z9testShiftPKcjS0_jS0_jS0_
 2701      00
 2702 1a04 4883C410 		addq	$16, %rsp
 487:testSvf2Csvf.cpp **** 	testShift(
 488:testSvf2Csvf.cpp **** 		"71C2E093", 31,
 489:testSvf2Csvf.cpp **** 		"0c15", 12,
 490:testSvf2Csvf.cpp **** 		"0135", 9,
 491:testSvf2Csvf.cpp **** 		"09AF1C2E093C15"
 492:testSvf2Csvf.cpp **** 	);
 2703              		.loc 3 492 0
 2704 1a08 4883EC08 		subq	$8, %rsp
 2705 1a0c 68000000 		pushq	$.LC104
 2705      00
 2706 1a11 41B90900 		movl	$9, %r9d
 2706      0000
 2707 1a17 41B80000 		movl	$.LC72, %r8d
 2707      0000
 2708 1a1d B90C0000 		movl	$12, %ecx
 2708      00
 2709 1a22 BA000000 		movl	$.LC42, %edx
 2709      00
 2710 1a27 BE1F0000 		movl	$31, %esi
 2710      00
 2711 1a2c BF000000 		movl	$.LC91, %edi
 2711      00
 2712 1a31 E8000000 		call	_Z9testShiftPKcjS0_jS0_jS0_
 2712      00
 2713 1a36 4883C410 		addq	$16, %rsp
 493:testSvf2Csvf.cpp **** 	testShift(
 494:testSvf2Csvf.cpp **** 		"71C2E093", 31,
 495:testSvf2Csvf.cpp **** 		"1c15", 13,
 496:testSvf2Csvf.cpp **** 		"0135", 9,
 497:testSvf2Csvf.cpp **** 		"135E385C127C15"
 498:testSvf2Csvf.cpp **** 	);
 2714              		.loc 3 498 0
 2715 1a3a 4883EC08 		subq	$8, %rsp
 2716 1a3e 68000000 		pushq	$.LC105
 2716      00
 2717 1a43 41B90900 		movl	$9, %r9d
 2717      0000
 2718 1a49 41B80000 		movl	$.LC72, %r8d
 2718      0000
 2719 1a4f B90D0000 		movl	$13, %ecx
 2719      00
 2720 1a54 BA000000 		movl	$.LC44, %edx
 2720      00
 2721 1a59 BE1F0000 		movl	$31, %esi
 2721      00
 2722 1a5e BF000000 		movl	$.LC91, %edi
 2722      00
 2723 1a63 E8000000 		call	_Z9testShiftPKcjS0_jS0_jS0_
 2723      00
 2724 1a68 4883C410 		addq	$16, %rsp
 499:testSvf2Csvf.cpp **** 	testShift(
 500:testSvf2Csvf.cpp **** 		"71C2E093", 31,
 501:testSvf2Csvf.cpp **** 		"2c15", 14,
 502:testSvf2Csvf.cpp **** 		"0135", 9,
 503:testSvf2Csvf.cpp **** 		"26BC70B824EC15"
 504:testSvf2Csvf.cpp **** 	);
 2725              		.loc 3 504 0
 2726 1a6c 4883EC08 		subq	$8, %rsp
 2727 1a70 68000000 		pushq	$.LC106
 2727      00
 2728 1a75 41B90900 		movl	$9, %r9d
 2728      0000
 2729 1a7b 41B80000 		movl	$.LC72, %r8d
 2729      0000
 2730 1a81 B90E0000 		movl	$14, %ecx
 2730      00
 2731 1a86 BA000000 		movl	$.LC46, %edx
 2731      00
 2732 1a8b BE1F0000 		movl	$31, %esi
 2732      00
 2733 1a90 BF000000 		movl	$.LC91, %edi
 2733      00
 2734 1a95 E8000000 		call	_Z9testShiftPKcjS0_jS0_jS0_
 2734      00
 2735 1a9a 4883C410 		addq	$16, %rsp
 505:testSvf2Csvf.cpp **** 	testShift(
 506:testSvf2Csvf.cpp **** 		"71C2E093", 31,
 507:testSvf2Csvf.cpp **** 		"4015", 15,
 508:testSvf2Csvf.cpp **** 		"0135", 9,
 509:testSvf2Csvf.cpp **** 		"4D78E17049C015"
 510:testSvf2Csvf.cpp **** 	);
 2736              		.loc 3 510 0
 2737 1a9e 4883EC08 		subq	$8, %rsp
 2738 1aa2 68000000 		pushq	$.LC107
 2738      00
 2739 1aa7 41B90900 		movl	$9, %r9d
 2739      0000
 2740 1aad 41B80000 		movl	$.LC72, %r8d
 2740      0000
 2741 1ab3 B90F0000 		movl	$15, %ecx
 2741      00
 2742 1ab8 BA000000 		movl	$.LC48, %edx
 2742      00
 2743 1abd BE1F0000 		movl	$31, %esi
 2743      00
 2744 1ac2 BF000000 		movl	$.LC91, %edi
 2744      00
 2745 1ac7 E8000000 		call	_Z9testShiftPKcjS0_jS0_jS0_
 2745      00
 2746 1acc 4883C410 		addq	$16, %rsp
 511:testSvf2Csvf.cpp **** 	testShift(
 512:testSvf2Csvf.cpp **** 		"71C2E093", 31,
 513:testSvf2Csvf.cpp **** 		"8015", 16,
 514:testSvf2Csvf.cpp **** 		"0135", 9,
 515:testSvf2Csvf.cpp **** 		"9AF1C2E0938015"
 516:testSvf2Csvf.cpp **** 	);
 2747              		.loc 3 516 0
 2748 1ad0 4883EC08 		subq	$8, %rsp
 2749 1ad4 68000000 		pushq	$.LC108
 2749      00
 2750 1ad9 41B90900 		movl	$9, %r9d
 2750      0000
 2751 1adf 41B80000 		movl	$.LC72, %r8d
 2751      0000
 2752 1ae5 B9100000 		movl	$16, %ecx
 2752      00
 2753 1aea BA000000 		movl	$.LC50, %edx
 2753      00
 2754 1aef BE1F0000 		movl	$31, %esi
 2754      00
 2755 1af4 BF000000 		movl	$.LC91, %edi
 2755      00
 2756 1af9 E8000000 		call	_Z9testShiftPKcjS0_jS0_jS0_
 2756      00
 2757 1afe 4883C410 		addq	$16, %rsp
 517:testSvf2Csvf.cpp **** 	testShift(
 518:testSvf2Csvf.cpp **** 		"71C2E093", 31,
 519:testSvf2Csvf.cpp **** 		"018015", 17,
 520:testSvf2Csvf.cpp **** 		"0135", 9,
 521:testSvf2Csvf.cpp **** 		"0135E385C1278015"
 522:testSvf2Csvf.cpp **** 	);
 2758              		.loc 3 522 0
 2759 1b02 4883EC08 		subq	$8, %rsp
 2760 1b06 68000000 		pushq	$.LC109
 2760      00
 2761 1b0b 41B90900 		movl	$9, %r9d
 2761      0000
 2762 1b11 41B80000 		movl	$.LC72, %r8d
 2762      0000
 2763 1b17 B9110000 		movl	$17, %ecx
 2763      00
 2764 1b1c BA000000 		movl	$.LC52, %edx
 2764      00
 2765 1b21 BE1F0000 		movl	$31, %esi
 2765      00
 2766 1b26 BF000000 		movl	$.LC91, %edi
 2766      00
 2767 1b2b E8000000 		call	_Z9testShiftPKcjS0_jS0_jS0_
 2767      00
 2768 1b30 4883C410 		addq	$16, %rsp
 523:testSvf2Csvf.cpp **** 	testShift(
 524:testSvf2Csvf.cpp **** 		"5423DF3A8F129B2C91B9425D", 95,
 525:testSvf2Csvf.cpp **** 		"", 0,
 526:testSvf2Csvf.cpp **** 		"01", 1,
 527:testSvf2Csvf.cpp **** 		"D423DF3A8F129B2C91B9425D"
 528:testSvf2Csvf.cpp **** 	);
 2769              		.loc 3 528 0
 2770 1b34 4883EC08 		subq	$8, %rsp
 2771 1b38 68000000 		pushq	$.LC112
 2771      00
 2772 1b3d 41B90100 		movl	$1, %r9d
 2772      0000
 2773 1b43 41B80000 		movl	$.LC21, %r8d
 2773      0000
 2774 1b49 B9000000 		movl	$0, %ecx
 2774      00
 2775 1b4e BA000000 		movl	$.LC110, %edx
 2775      00
 2776 1b53 BE5F0000 		movl	$95, %esi
 2776      00
 2777 1b58 BF000000 		movl	$.LC111, %edi
 2777      00
 2778 1b5d E8000000 		call	_Z9testShiftPKcjS0_jS0_jS0_
 2778      00
 2779 1b62 4883C410 		addq	$16, %rsp
 529:testSvf2Csvf.cpp **** 	testShift(
 530:testSvf2Csvf.cpp **** 		"5423DF3A8F129B2C91B9425D", 95,
 531:testSvf2Csvf.cpp **** 		"01", 1,
 532:testSvf2Csvf.cpp **** 		"", 0,
 533:testSvf2Csvf.cpp **** 		"A847BE751E253659237284BB"
 534:testSvf2Csvf.cpp **** 	);
 2780              		.loc 3 534 0
 2781 1b66 4883EC08 		subq	$8, %rsp
 2782 1b6a 68000000 		pushq	$.LC113
 2782      00
 2783 1b6f 41B90000 		movl	$0, %r9d
 2783      0000
 2784 1b75 41B80000 		movl	$.LC110, %r8d
 2784      0000
 2785 1b7b B9010000 		movl	$1, %ecx
 2785      00
 2786 1b80 BA000000 		movl	$.LC21, %edx
 2786      00
 2787 1b85 BE5F0000 		movl	$95, %esi
 2787      00
 2788 1b8a BF000000 		movl	$.LC111, %edi
 2788      00
 2789 1b8f E8000000 		call	_Z9testShiftPKcjS0_jS0_jS0_
 2789      00
 2790 1b94 4883C410 		addq	$16, %rsp
 535:testSvf2Csvf.cpp **** }
 2791              		.loc 3 535 0
 2792 1b98 90       		nop
 2793 1b99 C9       		leave
 2794              		.cfi_def_cfa 7, 8
 2795 1b9a C3       		ret
 2796              		.cfi_endproc
 2797              	.LFE1082:
 2799              		.globl	_Z11parseStringP12ParseContextPKcP6Buffer
 2801              	_Z11parseStringP12ParseContextPKcP6Buffer:
 2802              	.LFB1083:
 536:testSvf2Csvf.cpp **** 
 537:testSvf2Csvf.cpp **** void parseString(ParseContext *cxt, const char *str, struct Buffer *csvfBuf) {
 2803              		.loc 3 537 0
 2804              		.cfi_startproc
 2805              		.cfi_personality 0x3,__gxx_personality_v0
 2806              		.cfi_lsda 0x3,.LLSDA1083
 2807 1b9b 55       		pushq	%rbp
 2808              		.cfi_def_cfa_offset 16
 2809              		.cfi_offset 6, -16
 2810 1b9c 4889E5   		movq	%rsp, %rbp
 2811              		.cfi_def_cfa_register 6
 2812 1b9f 53       		pushq	%rbx
 2813 1ba0 4881EC88 		subq	$136, %rsp
 2813      000000
 2814              		.cfi_offset 3, -24
 2815 1ba7 48897D88 		movq	%rdi, -120(%rbp)
 2816 1bab 48897580 		movq	%rsi, -128(%rbp)
 2817 1baf 48899578 		movq	%rdx, -136(%rbp)
 2817      FFFFFF
 2818              		.loc 3 537 0
 2819 1bb6 64488B04 		movq	%fs:40, %rax
 2819      25280000 
 2819      00
 2820 1bbf 488945E8 		movq	%rax, -24(%rbp)
 2821 1bc3 31C0     		xorl	%eax, %eax
 538:testSvf2Csvf.cpp **** 	Buffer line;
 539:testSvf2Csvf.cpp **** 	BufferStatus bStatus;
 540:testSvf2Csvf.cpp **** 	FLStatus fStatus;
 541:testSvf2Csvf.cpp **** 	const uint32 lineLen = (uint32)strlen(str) + 1;
 2822              		.loc 3 541 0
 2823 1bc5 488B4580 		movq	-128(%rbp), %rax
 2824 1bc9 4889C7   		movq	%rax, %rdi
 2825 1bcc E8000000 		call	strlen
 2825      00
 2826 1bd1 83C001   		addl	$1, %eax
 2827 1bd4 89459C   		movl	%eax, -100(%rbp)
 542:testSvf2Csvf.cpp **** 	bStatus = bufInitialise(&line, lineLen, 0, NULL);
 2828              		.loc 3 542 0
 2829 1bd7 8B759C   		movl	-100(%rbp), %esi
 2830 1bda 488D45A0 		leaq	-96(%rbp), %rax
 2831 1bde B9000000 		movl	$0, %ecx
 2831      00
 2832 1be3 BA000000 		movl	$0, %edx
 2832      00
 2833 1be8 4889C7   		movq	%rax, %rdi
 2834              	.LEHB77:
 2835 1beb E8000000 		call	bufInitialise
 2835      00
 2836              	.LEHE77:
 2837 1bf0 894590   		movl	%eax, -112(%rbp)
 2838              	.LEHB78:
 543:testSvf2Csvf.cpp **** 	CHECK_EQUAL(BUF_SUCCESS, bStatus);
 2839              		.loc 3 543 0
 2840 1bf3 E8000000 		call	_ZN8UnitTest11CurrentTest7DetailsEv
 2840      00
 2841 1bf8 488B08   		movq	(%rax), %rcx
 2842 1bfb 488D45C0 		leaq	-64(%rbp), %rax
 2843 1bff BA1F0200 		movl	$543, %edx
 2843      00
 2844 1c04 4889CE   		movq	%rcx, %rsi
 2845 1c07 4889C7   		movq	%rax, %rdi
 2846 1c0a E8000000 		call	_ZN8UnitTest11TestDetailsC1ERKS0_i
 2846      00
 2847              	.LEHE78:
 2848              		.loc 3 543 0 is_stmt 0 discriminator 2
 2849 1c0f C7459800 		movl	$0, -104(%rbp)
 2849      000000
 2850              	.LEHB79:
 2851 1c16 E8000000 		call	_ZN8UnitTest11CurrentTest7ResultsEv
 2851      00
 2852 1c1b 488B00   		movq	(%rax), %rax
 2853 1c1e 488D4DC0 		leaq	-64(%rbp), %rcx
 2854 1c22 488D5590 		leaq	-112(%rbp), %rdx
 2855 1c26 488D7598 		leaq	-104(%rbp), %rsi
 2856 1c2a 4889C7   		movq	%rax, %rdi
 2857 1c2d E8000000 		call	_ZN8UnitTest10CheckEqualI12BufferStatusS1_EEvRNS_11TestResultsERKT_RKT0_RKNS_11TestDetailsE
 2857      00
 2858              	.LEHE79:
 2859              	.L113:
 544:testSvf2Csvf.cpp **** 	bStatus = bufAppendBlock(&line, (const uint8 *)str, lineLen, NULL);
 2860              		.loc 3 544 0 is_stmt 1
 2861 1c32 8B559C   		movl	-100(%rbp), %edx
 2862 1c35 488B7580 		movq	-128(%rbp), %rsi
 2863 1c39 488D45A0 		leaq	-96(%rbp), %rax
 2864 1c3d B9000000 		movl	$0, %ecx
 2864      00
 2865 1c42 4889C7   		movq	%rax, %rdi
 2866              	.LEHB80:
 2867 1c45 E8000000 		call	bufAppendBlock
 2867      00
 2868              	.LEHE80:
 2869 1c4a 894590   		movl	%eax, -112(%rbp)
 2870              	.LEHB81:
 545:testSvf2Csvf.cpp **** 	CHECK_EQUAL(BUF_SUCCESS, bStatus);
 2871              		.loc 3 545 0
 2872 1c4d E8000000 		call	_ZN8UnitTest11CurrentTest7DetailsEv
 2872      00
 2873 1c52 488B08   		movq	(%rax), %rcx
 2874 1c55 488D45C0 		leaq	-64(%rbp), %rax
 2875 1c59 BA210200 		movl	$545, %edx
 2875      00
 2876 1c5e 4889CE   		movq	%rcx, %rsi
 2877 1c61 4889C7   		movq	%rax, %rdi
 2878 1c64 E8000000 		call	_ZN8UnitTest11TestDetailsC1ERKS0_i
 2878      00
 2879              	.LEHE81:
 2880              		.loc 3 545 0 is_stmt 0 discriminator 2
 2881 1c69 C7459800 		movl	$0, -104(%rbp)
 2881      000000
 2882              	.LEHB82:
 2883 1c70 E8000000 		call	_ZN8UnitTest11CurrentTest7ResultsEv
 2883      00
 2884 1c75 488B00   		movq	(%rax), %rax
 2885 1c78 488D4DC0 		leaq	-64(%rbp), %rcx
 2886 1c7c 488D5590 		leaq	-112(%rbp), %rdx
 2887 1c80 488D7598 		leaq	-104(%rbp), %rsi
 2888 1c84 4889C7   		movq	%rax, %rdi
 2889 1c87 E8000000 		call	_ZN8UnitTest10CheckEqualI12BufferStatusS1_EEvRNS_11TestResultsERKT_RKT0_RKNS_11TestDetailsE
 2889      00
 2890              	.LEHE82:
 2891              	.L117:
 546:testSvf2Csvf.cpp **** 	fStatus = parseLine(cxt, &line, csvfBuf, NULL, NULL);
 2892              		.loc 3 546 0 is_stmt 1
 2893 1c8c 488B9578 		movq	-136(%rbp), %rdx
 2893      FFFFFF
 2894 1c93 488D75A0 		leaq	-96(%rbp), %rsi
 2895 1c97 488B4588 		movq	-120(%rbp), %rax
 2896 1c9b 41B80000 		movl	$0, %r8d
 2896      0000
 2897 1ca1 B9000000 		movl	$0, %ecx
 2897      00
 2898 1ca6 4889C7   		movq	%rax, %rdi
 2899              	.LEHB83:
 2900 1ca9 E8000000 		call	parseLine
 2900      00
 2901              	.LEHE83:
 2902 1cae 894594   		movl	%eax, -108(%rbp)
 2903              	.LEHB84:
 547:testSvf2Csvf.cpp **** 	CHECK_EQUAL(FL_SUCCESS, fStatus);
 2904              		.loc 3 547 0
 2905 1cb1 E8000000 		call	_ZN8UnitTest11CurrentTest7DetailsEv
 2905      00
 2906 1cb6 488B08   		movq	(%rax), %rcx
 2907 1cb9 488D45C0 		leaq	-64(%rbp), %rax
 2908 1cbd BA230200 		movl	$547, %edx
 2908      00
 2909 1cc2 4889CE   		movq	%rcx, %rsi
 2910 1cc5 4889C7   		movq	%rax, %rdi
 2911 1cc8 E8000000 		call	_ZN8UnitTest11TestDetailsC1ERKS0_i
 2911      00
 2912              	.LEHE84:
 2913              		.loc 3 547 0 is_stmt 0 discriminator 2
 2914 1ccd C7459800 		movl	$0, -104(%rbp)
 2914      000000
 2915              	.LEHB85:
 2916 1cd4 E8000000 		call	_ZN8UnitTest11CurrentTest7ResultsEv
 2916      00
 2917 1cd9 488B00   		movq	(%rax), %rax
 2918 1cdc 488D4DC0 		leaq	-64(%rbp), %rcx
 2919 1ce0 488D5594 		leaq	-108(%rbp), %rdx
 2920 1ce4 488D7598 		leaq	-104(%rbp), %rsi
 2921 1ce8 4889C7   		movq	%rax, %rdi
 2922 1ceb E8000000 		call	_ZN8UnitTest10CheckEqualI8FLStatusS1_EEvRNS_11TestResultsERKT_RKT0_RKNS_11TestDetailsE
 2922      00
 2923              	.LEHE85:
 2924              	.L121:
 548:testSvf2Csvf.cpp **** 	bufDestroy(&line);
 2925              		.loc 3 548 0 is_stmt 1
 2926 1cf0 488D45A0 		leaq	-96(%rbp), %rax
 2927 1cf4 4889C7   		movq	%rax, %rdi
 2928              	.LEHB86:
 2929 1cf7 E8000000 		call	bufDestroy
 2929      00
 2930              	.LEHE86:
 549:testSvf2Csvf.cpp **** }
 2931              		.loc 3 549 0
 2932 1cfc 90       		nop
 2933 1cfd 488B45E8 		movq	-24(%rbp), %rax
 2934 1d01 64483304 		xorq	%fs:40, %rax
 2934      25280000 
 2934      00
 2935 1d0a 0F842701 		je	.L123
 2935      0000
 2936 1d10 E91D0100 		jmp	.L133
 2936      00
 2937              	.L125:
 2938 1d15 EB00     		jmp	.L112
 2939              	.L124:
 2940              	.L112:
 543:testSvf2Csvf.cpp **** 	bStatus = bufAppendBlock(&line, (const uint8 *)str, lineLen, NULL);
 2941              		.loc 3 543 0
 2942 1d17 4889C7   		movq	%rax, %rdi
 2943 1d1a E8000000 		call	__cxa_begin_catch
 2943      00
 2944              	.LEHB87:
 2945 1d1f E8000000 		call	_ZN8UnitTest11CurrentTest7DetailsEv
 2945      00
 2946 1d24 488B08   		movq	(%rax), %rcx
 2947 1d27 488D45C0 		leaq	-64(%rbp), %rax
 2948 1d2b BA1F0200 		movl	$543, %edx
 2948      00
 2949 1d30 4889CE   		movq	%rcx, %rsi
 2950 1d33 4889C7   		movq	%rax, %rdi
 2951 1d36 E8000000 		call	_ZN8UnitTest11TestDetailsC1ERKS0_i
 2951      00
 543:testSvf2Csvf.cpp **** 	bStatus = bufAppendBlock(&line, (const uint8 *)str, lineLen, NULL);
 2952              		.loc 3 543 0 is_stmt 0 discriminator 10
 2953 1d3b E8000000 		call	_ZN8UnitTest11CurrentTest7ResultsEv
 2953      00
 2954 1d40 488B00   		movq	(%rax), %rax
 2955 1d43 488D4DC0 		leaq	-64(%rbp), %rcx
 2956 1d47 BA000000 		movl	$.LC13, %edx
 2956      00
 2957 1d4c 4889CE   		movq	%rcx, %rsi
 2958 1d4f 4889C7   		movq	%rax, %rdi
 2959 1d52 E8000000 		call	_ZN8UnitTest11TestResults13OnTestFailureERKNS_11TestDetailsEPKc
 2959      00
 2960              	.LEHE87:
 2961              	.LEHB88:
 543:testSvf2Csvf.cpp **** 	bStatus = bufAppendBlock(&line, (const uint8 *)str, lineLen, NULL);
 2962              		.loc 3 543 0 discriminator 14
 2963 1d57 E8000000 		call	__cxa_end_catch
 2963      00
 2964              	.LEHE88:
 2965 1d5c E9D1FEFF 		jmp	.L113
 2965      FF
 2966              	.L126:
 2967 1d61 4889C3   		movq	%rax, %rbx
 543:testSvf2Csvf.cpp **** 	bStatus = bufAppendBlock(&line, (const uint8 *)str, lineLen, NULL);
 2968              		.loc 3 543 0
 2969 1d64 E8000000 		call	__cxa_end_catch
 2969      00
 2970 1d69 4889D8   		movq	%rbx, %rax
 2971 1d6c 4889C7   		movq	%rax, %rdi
 2972              	.LEHB89:
 2973 1d6f E8000000 		call	_Unwind_Resume
 2973      00
 2974              	.LEHE89:
 2975              	.L128:
 2976 1d74 EB00     		jmp	.L116
 2977              	.L127:
 2978              	.L116:
 545:testSvf2Csvf.cpp **** 	fStatus = parseLine(cxt, &line, csvfBuf, NULL, NULL);
 2979              		.loc 3 545 0 is_stmt 1
 2980 1d76 4889C7   		movq	%rax, %rdi
 2981 1d79 E8000000 		call	__cxa_begin_catch
 2981      00
 2982              	.LEHB90:
 2983 1d7e E8000000 		call	_ZN8UnitTest11CurrentTest7DetailsEv
 2983      00
 2984 1d83 488B08   		movq	(%rax), %rcx
 2985 1d86 488D45C0 		leaq	-64(%rbp), %rax
 2986 1d8a BA210200 		movl	$545, %edx
 2986      00
 2987 1d8f 4889CE   		movq	%rcx, %rsi
 2988 1d92 4889C7   		movq	%rax, %rdi
 2989 1d95 E8000000 		call	_ZN8UnitTest11TestDetailsC1ERKS0_i
 2989      00
 545:testSvf2Csvf.cpp **** 	fStatus = parseLine(cxt, &line, csvfBuf, NULL, NULL);
 2990              		.loc 3 545 0 is_stmt 0 discriminator 10
 2991 1d9a E8000000 		call	_ZN8UnitTest11CurrentTest7ResultsEv
 2991      00
 2992 1d9f 488B00   		movq	(%rax), %rax
 2993 1da2 488D4DC0 		leaq	-64(%rbp), %rcx
 2994 1da6 BA000000 		movl	$.LC13, %edx
 2994      00
 2995 1dab 4889CE   		movq	%rcx, %rsi
 2996 1dae 4889C7   		movq	%rax, %rdi
 2997 1db1 E8000000 		call	_ZN8UnitTest11TestResults13OnTestFailureERKNS_11TestDetailsEPKc
 2997      00
 2998              	.LEHE90:
 2999              	.LEHB91:
 545:testSvf2Csvf.cpp **** 	fStatus = parseLine(cxt, &line, csvfBuf, NULL, NULL);
 3000              		.loc 3 545 0 discriminator 14
 3001 1db6 E8000000 		call	__cxa_end_catch
 3001      00
 3002              	.LEHE91:
 3003 1dbb E9CCFEFF 		jmp	.L117
 3003      FF
 3004              	.L129:
 3005 1dc0 4889C3   		movq	%rax, %rbx
 545:testSvf2Csvf.cpp **** 	fStatus = parseLine(cxt, &line, csvfBuf, NULL, NULL);
 3006              		.loc 3 545 0
 3007 1dc3 E8000000 		call	__cxa_end_catch
 3007      00
 3008 1dc8 4889D8   		movq	%rbx, %rax
 3009 1dcb 4889C7   		movq	%rax, %rdi
 3010              	.LEHB92:
 3011 1dce E8000000 		call	_Unwind_Resume
 3011      00
 3012              	.LEHE92:
 3013              	.L131:
 3014 1dd3 EB00     		jmp	.L120
 3015              	.L130:
 3016              	.L120:
 547:testSvf2Csvf.cpp **** 	bufDestroy(&line);
 3017              		.loc 3 547 0 is_stmt 1
 3018 1dd5 4889C7   		movq	%rax, %rdi
 3019 1dd8 E8000000 		call	__cxa_begin_catch
 3019      00
 3020              	.LEHB93:
 3021 1ddd E8000000 		call	_ZN8UnitTest11CurrentTest7DetailsEv
 3021      00
 3022 1de2 488B08   		movq	(%rax), %rcx
 3023 1de5 488D45C0 		leaq	-64(%rbp), %rax
 3024 1de9 BA230200 		movl	$547, %edx
 3024      00
 3025 1dee 4889CE   		movq	%rcx, %rsi
 3026 1df1 4889C7   		movq	%rax, %rdi
 3027 1df4 E8000000 		call	_ZN8UnitTest11TestDetailsC1ERKS0_i
 3027      00
 547:testSvf2Csvf.cpp **** 	bufDestroy(&line);
 3028              		.loc 3 547 0 is_stmt 0 discriminator 10
 3029 1df9 E8000000 		call	_ZN8UnitTest11CurrentTest7ResultsEv
 3029      00
 3030 1dfe 488B00   		movq	(%rax), %rax
 3031 1e01 488D4DC0 		leaq	-64(%rbp), %rcx
 3032 1e05 BA000000 		movl	$.LC2, %edx
 3032      00
 3033 1e0a 4889CE   		movq	%rcx, %rsi
 3034 1e0d 4889C7   		movq	%rax, %rdi
 3035 1e10 E8000000 		call	_ZN8UnitTest11TestResults13OnTestFailureERKNS_11TestDetailsEPKc
 3035      00
 3036              	.LEHE93:
 3037              	.LEHB94:
 547:testSvf2Csvf.cpp **** 	bufDestroy(&line);
 3038              		.loc 3 547 0 discriminator 14
 3039 1e15 E8000000 		call	__cxa_end_catch
 3039      00
 3040              	.LEHE94:
 3041 1e1a E9D1FEFF 		jmp	.L121
 3041      FF
 3042              	.L132:
 3043 1e1f 4889C3   		movq	%rax, %rbx
 547:testSvf2Csvf.cpp **** 	bufDestroy(&line);
 3044              		.loc 3 547 0
 3045 1e22 E8000000 		call	__cxa_end_catch
 3045      00
 3046 1e27 4889D8   		movq	%rbx, %rax
 3047 1e2a 4889C7   		movq	%rax, %rdi
 3048              	.LEHB95:
 3049 1e2d E8000000 		call	_Unwind_Resume
 3049      00
 3050              	.LEHE95:
 3051              	.L133:
 3052              		.loc 3 549 0 is_stmt 1
 3053 1e32 E8000000 		call	__stack_chk_fail
 3053      00
 3054              	.L123:
 3055 1e37 4881C488 		addq	$136, %rsp
 3055      000000
 3056 1e3e 5B       		popq	%rbx
 3057 1e3f 5D       		popq	%rbp
 3058              		.cfi_def_cfa 7, 8
 3059 1e40 C3       		ret
 3060              		.cfi_endproc
 3061              	.LFE1083:
 3062              		.section	.gcc_except_table
 3063              		.align 4
 3064              	.LLSDA1083:
 3065 01b4 FF       		.byte	0xff
 3066 01b5 03       		.byte	0x3
 3067 01b6 71       		.uleb128 .LLSDATT1083-.LLSDATTD1083
 3068              	.LLSDATTD1083:
 3069 01b7 01       		.byte	0x1
 3070 01b8 65       		.uleb128 .LLSDACSE1083-.LLSDACSB1083
 3071              	.LLSDACSB1083:
 3072 01b9 50       		.uleb128 .LEHB77-.LFB1083
 3073 01ba 05       		.uleb128 .LEHE77-.LEHB77
 3074 01bb 00       		.uleb128 0
 3075 01bc 00       		.uleb128 0
 3076 01bd 58       		.uleb128 .LEHB78-.LFB1083
 3077 01be 1C       		.uleb128 .LEHE78-.LEHB78
 3078 01bf FC02     		.uleb128 .L124-.LFB1083
 3079 01c1 01       		.uleb128 0x1
 3080 01c2 7B       		.uleb128 .LEHB79-.LFB1083
 3081 01c3 1C       		.uleb128 .LEHE79-.LEHB79
 3082 01c4 FA02     		.uleb128 .L125-.LFB1083
 3083 01c6 03       		.uleb128 0x3
 3084 01c7 AA01     		.uleb128 .LEHB80-.LFB1083
 3085 01c9 05       		.uleb128 .LEHE80-.LEHB80
 3086 01ca 00       		.uleb128 0
 3087 01cb 00       		.uleb128 0
 3088 01cc B201     		.uleb128 .LEHB81-.LFB1083
 3089 01ce 1C       		.uleb128 .LEHE81-.LEHB81
 3090 01cf DB03     		.uleb128 .L127-.LFB1083
 3091 01d1 01       		.uleb128 0x1
 3092 01d2 D501     		.uleb128 .LEHB82-.LFB1083
 3093 01d4 1C       		.uleb128 .LEHE82-.LEHB82
 3094 01d5 D903     		.uleb128 .L128-.LFB1083
 3095 01d7 03       		.uleb128 0x3
 3096 01d8 8E02     		.uleb128 .LEHB83-.LFB1083
 3097 01da 05       		.uleb128 .LEHE83-.LEHB83
 3098 01db 00       		.uleb128 0
 3099 01dc 00       		.uleb128 0
 3100 01dd 9602     		.uleb128 .LEHB84-.LFB1083
 3101 01df 1C       		.uleb128 .LEHE84-.LEHB84
 3102 01e0 BA04     		.uleb128 .L130-.LFB1083
 3103 01e2 01       		.uleb128 0x1
 3104 01e3 B902     		.uleb128 .LEHB85-.LFB1083
 3105 01e5 1C       		.uleb128 .LEHE85-.LEHB85
 3106 01e6 B804     		.uleb128 .L131-.LFB1083
 3107 01e8 03       		.uleb128 0x3
 3108 01e9 DC02     		.uleb128 .LEHB86-.LFB1083
 3109 01eb 05       		.uleb128 .LEHE86-.LEHB86
 3110 01ec 00       		.uleb128 0
 3111 01ed 00       		.uleb128 0
 3112 01ee 8403     		.uleb128 .LEHB87-.LFB1083
 3113 01f0 38       		.uleb128 .LEHE87-.LEHB87
 3114 01f1 C603     		.uleb128 .L126-.LFB1083
 3115 01f3 00       		.uleb128 0
 3116 01f4 BC03     		.uleb128 .LEHB88-.LFB1083
 3117 01f6 05       		.uleb128 .LEHE88-.LEHB88
 3118 01f7 00       		.uleb128 0
 3119 01f8 00       		.uleb128 0
 3120 01f9 D403     		.uleb128 .LEHB89-.LFB1083
 3121 01fb 05       		.uleb128 .LEHE89-.LEHB89
 3122 01fc 00       		.uleb128 0
 3123 01fd 00       		.uleb128 0
 3124 01fe E303     		.uleb128 .LEHB90-.LFB1083
 3125 0200 38       		.uleb128 .LEHE90-.LEHB90
 3126 0201 A504     		.uleb128 .L129-.LFB1083
 3127 0203 00       		.uleb128 0
 3128 0204 9B04     		.uleb128 .LEHB91-.LFB1083
 3129 0206 05       		.uleb128 .LEHE91-.LEHB91
 3130 0207 00       		.uleb128 0
 3131 0208 00       		.uleb128 0
 3132 0209 B304     		.uleb128 .LEHB92-.LFB1083
 3133 020b 05       		.uleb128 .LEHE92-.LEHB92
 3134 020c 00       		.uleb128 0
 3135 020d 00       		.uleb128 0
 3136 020e C204     		.uleb128 .LEHB93-.LFB1083
 3137 0210 38       		.uleb128 .LEHE93-.LEHB93
 3138 0211 8405     		.uleb128 .L132-.LFB1083
 3139 0213 00       		.uleb128 0
 3140 0214 FA04     		.uleb128 .LEHB94-.LFB1083
 3141 0216 05       		.uleb128 .LEHE94-.LEHB94
 3142 0217 00       		.uleb128 0
 3143 0218 00       		.uleb128 0
 3144 0219 9205     		.uleb128 .LEHB95-.LFB1083
 3145 021b 05       		.uleb128 .LEHE95-.LEHB95
 3146 021c 00       		.uleb128 0
 3147 021d 00       		.uleb128 0
 3148              	.LLSDACSE1083:
 3149 021e 01       		.byte	0x1
 3150 021f 00       		.byte	0
 3151 0220 00       		.byte	0
 3152 0221 7D       		.byte	0x7d
 3153 0222 0000     		.align 4
 3154 0224 00000000 		.long	0
 3155              	
 3156              	.LLSDATT1083:
 3157              		.text
 3159              		.globl	_Z12renderBufferRPcPK6Buffer
 3161              	_Z12renderBufferRPcPK6Buffer:
 3162              	.LFB1084:
 550:testSvf2Csvf.cpp **** 
 551:testSvf2Csvf.cpp **** void renderBuffer(char *&p, const Buffer *buf) {
 3163              		.loc 3 551 0
 3164              		.cfi_startproc
 3165 1e41 55       		pushq	%rbp
 3166              		.cfi_def_cfa_offset 16
 3167              		.cfi_offset 6, -16
 3168 1e42 4889E5   		movq	%rsp, %rbp
 3169              		.cfi_def_cfa_register 6
 3170 1e45 4883EC20 		subq	$32, %rsp
 3171 1e49 48897DE8 		movq	%rdi, -24(%rbp)
 3172 1e4d 488975E0 		movq	%rsi, -32(%rbp)
 552:testSvf2Csvf.cpp **** 	const char *src = (const char *)buf->data;
 3173              		.loc 3 552 0
 3174 1e51 488B45E0 		movq	-32(%rbp), %rax
 3175 1e55 488B00   		movq	(%rax), %rax
 3176 1e58 488945F8 		movq	%rax, -8(%rbp)
 553:testSvf2Csvf.cpp **** 	uint32 length = (uint32)buf->length;
 3177              		.loc 3 553 0
 3178 1e5c 488B45E0 		movq	-32(%rbp), %rax
 3179 1e60 488B4008 		movq	8(%rax), %rax
 3180 1e64 8945F4   		movl	%eax, -12(%rbp)
 554:testSvf2Csvf.cpp **** 	*p++ = '{';
 3181              		.loc 3 554 0
 3182 1e67 488B45E8 		movq	-24(%rbp), %rax
 3183 1e6b 488B00   		movq	(%rax), %rax
 3184 1e6e 488D4801 		leaq	1(%rax), %rcx
 3185 1e72 488B55E8 		movq	-24(%rbp), %rdx
 3186 1e76 48890A   		movq	%rcx, (%rdx)
 3187 1e79 C6007B   		movb	$123, (%rax)
 3188              	.L136:
 555:testSvf2Csvf.cpp **** 	while ( length-- ) {
 3189              		.loc 3 555 0
 3190 1e7c 8B45F4   		movl	-12(%rbp), %eax
 3191 1e7f 8D50FF   		leal	-1(%rax), %edx
 3192 1e82 8955F4   		movl	%edx, -12(%rbp)
 3193 1e85 85C0     		testl	%eax, %eax
 3194 1e87 0F95C0   		setne	%al
 3195 1e8a 84C0     		testb	%al, %al
 3196 1e8c 743F     		je	.L135
 556:testSvf2Csvf.cpp **** 		sprintf(p, "%02X", *src & 0xFF);
 3197              		.loc 3 556 0
 3198 1e8e 488B45F8 		movq	-8(%rbp), %rax
 3199 1e92 0FB600   		movzbl	(%rax), %eax
 3200 1e95 0FBEC0   		movsbl	%al, %eax
 3201 1e98 0FB6D0   		movzbl	%al, %edx
 3202 1e9b 488B45E8 		movq	-24(%rbp), %rax
 3203 1e9f 488B00   		movq	(%rax), %rax
 3204 1ea2 BE000000 		movl	$.LC1, %esi
 3204      00
 3205 1ea7 4889C7   		movq	%rax, %rdi
 3206 1eaa B8000000 		movl	$0, %eax
 3206      00
 3207 1eaf E8000000 		call	sprintf
 3207      00
 557:testSvf2Csvf.cpp **** 		src++;
 3208              		.loc 3 557 0
 3209 1eb4 488345F8 		addq	$1, -8(%rbp)
 3209      01
 558:testSvf2Csvf.cpp **** 		p += 2;
 3210              		.loc 3 558 0
 3211 1eb9 488B45E8 		movq	-24(%rbp), %rax
 3212 1ebd 488B00   		movq	(%rax), %rax
 3213 1ec0 488D5002 		leaq	2(%rax), %rdx
 3214 1ec4 488B45E8 		movq	-24(%rbp), %rax
 3215 1ec8 488910   		movq	%rdx, (%rax)
 555:testSvf2Csvf.cpp **** 		sprintf(p, "%02X", *src & 0xFF);
 3216              		.loc 3 555 0
 3217 1ecb EBAF     		jmp	.L136
 3218              	.L135:
 559:testSvf2Csvf.cpp **** 	}
 560:testSvf2Csvf.cpp **** 	*p++ = '}';
 3219              		.loc 3 560 0
 3220 1ecd 488B45E8 		movq	-24(%rbp), %rax
 3221 1ed1 488B00   		movq	(%rax), %rax
 3222 1ed4 488D4801 		leaq	1(%rax), %rcx
 3223 1ed8 488B55E8 		movq	-24(%rbp), %rdx
 3224 1edc 48890A   		movq	%rcx, (%rdx)
 3225 1edf C6007D   		movb	$125, (%rax)
 561:testSvf2Csvf.cpp **** }
 3226              		.loc 3 561 0
 3227 1ee2 90       		nop
 3228 1ee3 C9       		leave
 3229              		.cfi_def_cfa 7, 8
 3230 1ee4 C3       		ret
 3231              		.cfi_endproc
 3232              	.LFE1084:
 3234              		.section	.rodata
 3235              	.LC114:
 3236 0679 25642C20 		.string	"%d, "
 3236      00
 3237              		.text
 3238              		.globl	_Z14renderBitStoreRPcPK8BitStore
 3240              	_Z14renderBitStoreRPcPK8BitStore:
 3241              	.LFB1085:
 562:testSvf2Csvf.cpp **** 
 563:testSvf2Csvf.cpp **** void renderBitStore(char *&p, const BitStore *store) {
 3242              		.loc 3 563 0
 3243              		.cfi_startproc
 3244 1ee5 55       		pushq	%rbp
 3245              		.cfi_def_cfa_offset 16
 3246              		.cfi_offset 6, -16
 3247 1ee6 4889E5   		movq	%rsp, %rbp
 3248              		.cfi_def_cfa_register 6
 3249 1ee9 53       		pushq	%rbx
 3250 1eea 4883EC18 		subq	$24, %rsp
 3251              		.cfi_offset 3, -24
 3252 1eee 48897DE8 		movq	%rdi, -24(%rbp)
 3253 1ef2 488975E0 		movq	%rsi, -32(%rbp)
 564:testSvf2Csvf.cpp **** 	sprintf(p, "%d, ", store->numBits);
 3254              		.loc 3 564 0
 3255 1ef6 488B45E0 		movq	-32(%rbp), %rax
 3256 1efa 8B10     		movl	(%rax), %edx
 3257 1efc 488B45E8 		movq	-24(%rbp), %rax
 3258 1f00 488B00   		movq	(%rax), %rax
 3259 1f03 BE000000 		movl	$.LC114, %esi
 3259      00
 3260 1f08 4889C7   		movq	%rax, %rdi
 3261 1f0b B8000000 		movl	$0, %eax
 3261      00
 3262 1f10 E8000000 		call	sprintf
 3262      00
 565:testSvf2Csvf.cpp **** 	p += strlen(p);
 3263              		.loc 3 565 0
 3264 1f15 488B45E8 		movq	-24(%rbp), %rax
 3265 1f19 488B18   		movq	(%rax), %rbx
 3266 1f1c 488B45E8 		movq	-24(%rbp), %rax
 3267 1f20 488B00   		movq	(%rax), %rax
 3268 1f23 4889C7   		movq	%rax, %rdi
 3269 1f26 E8000000 		call	strlen
 3269      00
 3270 1f2b 488D1403 		leaq	(%rbx,%rax), %rdx
 3271 1f2f 488B45E8 		movq	-24(%rbp), %rax
 3272 1f33 488910   		movq	%rdx, (%rax)
 566:testSvf2Csvf.cpp **** 	renderBuffer(p, &store->tdi);
 3273              		.loc 3 566 0
 3274 1f36 488B45E0 		movq	-32(%rbp), %rax
 3275 1f3a 488D5008 		leaq	8(%rax), %rdx
 3276 1f3e 488B45E8 		movq	-24(%rbp), %rax
 3277 1f42 4889D6   		movq	%rdx, %rsi
 3278 1f45 4889C7   		movq	%rax, %rdi
 3279 1f48 E8000000 		call	_Z12renderBufferRPcPK6Buffer
 3279      00
 567:testSvf2Csvf.cpp **** 	*p++ = ','; *p++ = ' ';
 3280              		.loc 3 567 0
 3281 1f4d 488B45E8 		movq	-24(%rbp), %rax
 3282 1f51 488B00   		movq	(%rax), %rax
 3283 1f54 488D4801 		leaq	1(%rax), %rcx
 3284 1f58 488B55E8 		movq	-24(%rbp), %rdx
 3285 1f5c 48890A   		movq	%rcx, (%rdx)
 3286 1f5f C6002C   		movb	$44, (%rax)
 3287 1f62 488B45E8 		movq	-24(%rbp), %rax
 3288 1f66 488B00   		movq	(%rax), %rax
 3289 1f69 488D4801 		leaq	1(%rax), %rcx
 3290 1f6d 488B55E8 		movq	-24(%rbp), %rdx
 3291 1f71 48890A   		movq	%rcx, (%rdx)
 3292 1f74 C60020   		movb	$32, (%rax)
 568:testSvf2Csvf.cpp **** 	renderBuffer(p, &store->tdo);
 3293              		.loc 3 568 0
 3294 1f77 488B45E0 		movq	-32(%rbp), %rax
 3295 1f7b 488D5028 		leaq	40(%rax), %rdx
 3296 1f7f 488B45E8 		movq	-24(%rbp), %rax
 3297 1f83 4889D6   		movq	%rdx, %rsi
 3298 1f86 4889C7   		movq	%rax, %rdi
 3299 1f89 E8000000 		call	_Z12renderBufferRPcPK6Buffer
 3299      00
 569:testSvf2Csvf.cpp **** 	*p++ = ','; *p++ = ' ';
 3300              		.loc 3 569 0
 3301 1f8e 488B45E8 		movq	-24(%rbp), %rax
 3302 1f92 488B00   		movq	(%rax), %rax
 3303 1f95 488D4801 		leaq	1(%rax), %rcx
 3304 1f99 488B55E8 		movq	-24(%rbp), %rdx
 3305 1f9d 48890A   		movq	%rcx, (%rdx)
 3306 1fa0 C6002C   		movb	$44, (%rax)
 3307 1fa3 488B45E8 		movq	-24(%rbp), %rax
 3308 1fa7 488B00   		movq	(%rax), %rax
 3309 1faa 488D4801 		leaq	1(%rax), %rcx
 3310 1fae 488B55E8 		movq	-24(%rbp), %rdx
 3311 1fb2 48890A   		movq	%rcx, (%rdx)
 3312 1fb5 C60020   		movb	$32, (%rax)
 570:testSvf2Csvf.cpp **** 	renderBuffer(p, &store->mask);
 3313              		.loc 3 570 0
 3314 1fb8 488B45E0 		movq	-32(%rbp), %rax
 3315 1fbc 488D5048 		leaq	72(%rax), %rdx
 3316 1fc0 488B45E8 		movq	-24(%rbp), %rax
 3317 1fc4 4889D6   		movq	%rdx, %rsi
 3318 1fc7 4889C7   		movq	%rax, %rdi
 3319 1fca E8000000 		call	_Z12renderBufferRPcPK6Buffer
 3319      00
 571:testSvf2Csvf.cpp **** }
 3320              		.loc 3 571 0
 3321 1fcf 90       		nop
 3322 1fd0 4883C418 		addq	$24, %rsp
 3323 1fd4 5B       		popq	%rbx
 3324 1fd5 5D       		popq	%rbp
 3325              		.cfi_def_cfa 7, 8
 3326 1fd6 C3       		ret
 3327              		.cfi_endproc
 3328              	.LFE1085:
 3330              		.globl	_Z9renderCxtPK12ParseContext
 3332              	_Z9renderCxtPK12ParseContext:
 3333              	.LFB1086:
 572:testSvf2Csvf.cpp **** 
 573:testSvf2Csvf.cpp **** const char *renderCxt(const ParseContext *cxt) {
 3334              		.loc 3 573 0
 3335              		.cfi_startproc
 3336 1fd7 55       		pushq	%rbp
 3337              		.cfi_def_cfa_offset 16
 3338              		.cfi_offset 6, -16
 3339 1fd8 4889E5   		movq	%rsp, %rbp
 3340              		.cfi_def_cfa_register 6
 3341 1fdb 4883EC20 		subq	$32, %rsp
 3342 1fdf 48897DE8 		movq	%rdi, -24(%rbp)
 3343              		.loc 3 573 0
 3344 1fe3 64488B04 		movq	%fs:40, %rax
 3344      25280000 
 3344      00
 3345 1fec 488945F8 		movq	%rax, -8(%rbp)
 3346 1ff0 31C0     		xorl	%eax, %eax
 574:testSvf2Csvf.cpp **** 	static char result[1024];
 575:testSvf2Csvf.cpp **** 	char *p = result;
 3347              		.loc 3 575 0
 3348 1ff2 48C745F0 		movq	$_ZZ9renderCxtPK12ParseContextE6result, -16(%rbp)
 3348      00000000 
 576:testSvf2Csvf.cpp **** 
 577:testSvf2Csvf.cpp **** 	renderBitStore(p, &cxt->dataHead);
 3349              		.loc 3 577 0
 3350 1ffa 488B55E8 		movq	-24(%rbp), %rdx
 3351 1ffe 488D45F0 		leaq	-16(%rbp), %rax
 3352 2002 4889D6   		movq	%rdx, %rsi
 3353 2005 4889C7   		movq	%rax, %rdi
 3354 2008 E8000000 		call	_Z14renderBitStoreRPcPK8BitStore
 3354      00
 578:testSvf2Csvf.cpp **** 	*p++ = ','; *p++ = ' ';
 3355              		.loc 3 578 0
 3356 200d 488B45F0 		movq	-16(%rbp), %rax
 3357 2011 488D5001 		leaq	1(%rax), %rdx
 3358 2015 488955F0 		movq	%rdx, -16(%rbp)
 3359 2019 C6002C   		movb	$44, (%rax)
 3360 201c 488B45F0 		movq	-16(%rbp), %rax
 3361 2020 488D5001 		leaq	1(%rax), %rdx
 3362 2024 488955F0 		movq	%rdx, -16(%rbp)
 3363 2028 C60020   		movb	$32, (%rax)
 579:testSvf2Csvf.cpp **** 	renderBitStore(p, &cxt->insnHead);
 3364              		.loc 3 579 0
 3365 202b 488B45E8 		movq	-24(%rbp), %rax
 3366 202f 488D5068 		leaq	104(%rax), %rdx
 3367 2033 488D45F0 		leaq	-16(%rbp), %rax
 3368 2037 4889D6   		movq	%rdx, %rsi
 3369 203a 4889C7   		movq	%rax, %rdi
 3370 203d E8000000 		call	_Z14renderBitStoreRPcPK8BitStore
 3370      00
 580:testSvf2Csvf.cpp **** 	*p++ = ','; *p++ = ' ';
 3371              		.loc 3 580 0
 3372 2042 488B45F0 		movq	-16(%rbp), %rax
 3373 2046 488D5001 		leaq	1(%rax), %rdx
 3374 204a 488955F0 		movq	%rdx, -16(%rbp)
 3375 204e C6002C   		movb	$44, (%rax)
 3376 2051 488B45F0 		movq	-16(%rbp), %rax
 3377 2055 488D5001 		leaq	1(%rax), %rdx
 3378 2059 488955F0 		movq	%rdx, -16(%rbp)
 3379 205d C60020   		movb	$32, (%rax)
 581:testSvf2Csvf.cpp **** 
 582:testSvf2Csvf.cpp **** 	renderBitStore(p, &cxt->dataBody);
 3380              		.loc 3 582 0
 3381 2060 488B45E8 		movq	-24(%rbp), %rax
 3382 2064 488D90D0 		leaq	208(%rax), %rdx
 3382      000000
 3383 206b 488D45F0 		leaq	-16(%rbp), %rax
 3384 206f 4889D6   		movq	%rdx, %rsi
 3385 2072 4889C7   		movq	%rax, %rdi
 3386 2075 E8000000 		call	_Z14renderBitStoreRPcPK8BitStore
 3386      00
 583:testSvf2Csvf.cpp **** 	*p++ = ','; *p++ = ' ';
 3387              		.loc 3 583 0
 3388 207a 488B45F0 		movq	-16(%rbp), %rax
 3389 207e 488D5001 		leaq	1(%rax), %rdx
 3390 2082 488955F0 		movq	%rdx, -16(%rbp)
 3391 2086 C6002C   		movb	$44, (%rax)
 3392 2089 488B45F0 		movq	-16(%rbp), %rax
 3393 208d 488D5001 		leaq	1(%rax), %rdx
 3394 2091 488955F0 		movq	%rdx, -16(%rbp)
 3395 2095 C60020   		movb	$32, (%rax)
 584:testSvf2Csvf.cpp **** 	renderBitStore(p, &cxt->insnBody);
 3396              		.loc 3 584 0
 3397 2098 488B45E8 		movq	-24(%rbp), %rax
 3398 209c 488D9038 		leaq	312(%rax), %rdx
 3398      010000
 3399 20a3 488D45F0 		leaq	-16(%rbp), %rax
 3400 20a7 4889D6   		movq	%rdx, %rsi
 3401 20aa 4889C7   		movq	%rax, %rdi
 3402 20ad E8000000 		call	_Z14renderBitStoreRPcPK8BitStore
 3402      00
 585:testSvf2Csvf.cpp **** 	*p++ = ','; *p++ = ' ';
 3403              		.loc 3 585 0
 3404 20b2 488B45F0 		movq	-16(%rbp), %rax
 3405 20b6 488D5001 		leaq	1(%rax), %rdx
 3406 20ba 488955F0 		movq	%rdx, -16(%rbp)
 3407 20be C6002C   		movb	$44, (%rax)
 3408 20c1 488B45F0 		movq	-16(%rbp), %rax
 3409 20c5 488D5001 		leaq	1(%rax), %rdx
 3410 20c9 488955F0 		movq	%rdx, -16(%rbp)
 3411 20cd C60020   		movb	$32, (%rax)
 586:testSvf2Csvf.cpp **** 
 587:testSvf2Csvf.cpp **** 	renderBitStore(p, &cxt->dataTail);
 3412              		.loc 3 587 0
 3413 20d0 488B45E8 		movq	-24(%rbp), %rax
 3414 20d4 488D90A0 		leaq	416(%rax), %rdx
 3414      010000
 3415 20db 488D45F0 		leaq	-16(%rbp), %rax
 3416 20df 4889D6   		movq	%rdx, %rsi
 3417 20e2 4889C7   		movq	%rax, %rdi
 3418 20e5 E8000000 		call	_Z14renderBitStoreRPcPK8BitStore
 3418      00
 588:testSvf2Csvf.cpp **** 	*p++ = ','; *p++ = ' ';
 3419              		.loc 3 588 0
 3420 20ea 488B45F0 		movq	-16(%rbp), %rax
 3421 20ee 488D5001 		leaq	1(%rax), %rdx
 3422 20f2 488955F0 		movq	%rdx, -16(%rbp)
 3423 20f6 C6002C   		movb	$44, (%rax)
 3424 20f9 488B45F0 		movq	-16(%rbp), %rax
 3425 20fd 488D5001 		leaq	1(%rax), %rdx
 3426 2101 488955F0 		movq	%rdx, -16(%rbp)
 3427 2105 C60020   		movb	$32, (%rax)
 589:testSvf2Csvf.cpp **** 	renderBitStore(p, &cxt->insnTail);
 3428              		.loc 3 589 0
 3429 2108 488B45E8 		movq	-24(%rbp), %rax
 3430 210c 488D9008 		leaq	520(%rax), %rdx
 3430      020000
 3431 2113 488D45F0 		leaq	-16(%rbp), %rax
 3432 2117 4889D6   		movq	%rdx, %rsi
 3433 211a 4889C7   		movq	%rax, %rdi
 3434 211d E8000000 		call	_Z14renderBitStoreRPcPK8BitStore
 3434      00
 590:testSvf2Csvf.cpp **** 	
 591:testSvf2Csvf.cpp **** 	*p = '\0';
 3435              		.loc 3 591 0
 3436 2122 488B45F0 		movq	-16(%rbp), %rax
 3437 2126 C60000   		movb	$0, (%rax)
 592:testSvf2Csvf.cpp **** 
 593:testSvf2Csvf.cpp **** 	return result;
 3438              		.loc 3 593 0
 3439 2129 B8000000 		movl	$_ZZ9renderCxtPK12ParseContextE6result, %eax
 3439      00
 594:testSvf2Csvf.cpp **** }
 3440              		.loc 3 594 0
 3441 212e 488B4DF8 		movq	-8(%rbp), %rcx
 3442 2132 6448330C 		xorq	%fs:40, %rcx
 3442      25280000 
 3442      00
 3443 213b 7405     		je	.L140
 3444 213d E8000000 		call	__stack_chk_fail
 3444      00
 3445              	.L140:
 3446 2142 C9       		leave
 3447              		.cfi_def_cfa 7, 8
 3448 2143 C3       		ret
 3449              		.cfi_endproc
 3450              	.LFE1086:
 3452              		.section	.rodata
 3453              	.LC115:
 3454 067e 46504741 		.string	"FPGALink_testParse"
 3454      4C696E6B 
 3454      5F746573 
 3454      74506172 
 3454      736500
 3455              		.section	.text._ZN22TestFPGALink_testParseC2Ev,"axG",@progbits,_ZN22TestFPGALink_testParseC5Ev,com
 3456              		.align 2
 3457              		.weak	_ZN22TestFPGALink_testParseC2Ev
 3459              	_ZN22TestFPGALink_testParseC2Ev:
 3460              	.LFB1088:
 595:testSvf2Csvf.cpp **** 
 596:testSvf2Csvf.cpp **** TEST(FPGALink_testParse) {
 3461              		.loc 3 596 0
 3462              		.cfi_startproc
 3463 0000 55       		pushq	%rbp
 3464              		.cfi_def_cfa_offset 16
 3465              		.cfi_offset 6, -16
 3466 0001 4889E5   		movq	%rsp, %rbp
 3467              		.cfi_def_cfa_register 6
 3468 0004 4883EC10 		subq	$16, %rsp
 3469 0008 48897DF8 		movq	%rdi, -8(%rbp)
 3470              	.LBB8:
 3471              		.loc 3 596 0
 3472 000c E8000000 		call	_ZN13UnitTestSuite12GetSuiteNameEv
 3472      00
 3473 0011 4889C2   		movq	%rax, %rdx
 3474 0014 488B45F8 		movq	-8(%rbp), %rax
 3475 0018 41B85402 		movl	$596, %r8d
 3475      0000
 3476 001e B9000000 		movl	$.LC5, %ecx
 3476      00
 3477 0023 BE000000 		movl	$.LC115, %esi
 3477      00
 3478 0028 4889C7   		movq	%rax, %rdi
 3479 002b E8000000 		call	_ZN8UnitTest4TestC2EPKcS2_S2_i
 3479      00
 3480 0030 BA000000 		movl	$_ZTV22TestFPGALink_testParse+16, %edx
 3480      00
 3481 0035 488B45F8 		movq	-8(%rbp), %rax
 3482 0039 488910   		movq	%rdx, (%rax)
 3483              	.LBE8:
 3484 003c 90       		nop
 3485 003d C9       		leave
 3486              		.cfi_def_cfa 7, 8
 3487 003e C3       		ret
 3488              		.cfi_endproc
 3489              	.LFE1088:
 3491              		.weak	_ZN22TestFPGALink_testParseC1Ev
 3492              		.set	_ZN22TestFPGALink_testParseC1Ev,_ZN22TestFPGALink_testParseC2Ev
 3493              		.globl	testFPGALink_testParseInstance
 3494              		.bss
 3495 0079 00000000 		.align 32
 3495      000000
 3498              	testFPGALink_testParseInstance:
 3499 0080 00000000 		.zero	56
 3499      00000000 
 3499      00000000 
 3499      00000000 
 3499      00000000 
 3500              		.globl	adderFPGALink_testParse
 3503              	adderFPGALink_testParse:
 3504 00b8 00       		.zero	1
 3505              		.section	.rodata
 3506              	.LC116:
 3507 0691 48445220 		.string	"HDR 8 TDI (aa)"
 3507      38205444 
 3507      49202861 
 3507      612900
 3508              		.align 8
 3509              	.LC117:
 3510 06a0 382C207B 		.string	"8, {AA}, {00}, {FF}, 0, {}, {}, {}, 0, {}, {}, {}, 0, {}, {}, {}, 0, {}, {}, {}, 0, {}, {
 3510      41417D2C 
 3510      207B3030 
 3510      7D2C207B 
 3510      46467D2C 
 3511              	.LC118:
 3512 06ff 48445220 		.string	"HDR 8 MASK (55)"
 3512      38204D41 
 3512      534B2028 
 3512      35352900 
 3513 070f 00       		.align 8
 3514              	.LC119:
 3515 0710 382C207B 		.string	"8, {AA}, {00}, {55}, 0, {}, {}, {}, 0, {}, {}, {}, 0, {}, {}, {}, 0, {}, {}, {}, 0, {}, {
 3515      41417D2C 
 3515      207B3030 
 3515      7D2C207B 
 3515      35357D2C 
 3516              	.LC120:
 3517 076f 48445220 		.string	"HDR 6 TDI (3A)"
 3517      36205444 
 3517      49202833 
 3517      412900
 3518 077e 0000     		.align 8
 3519              	.LC121:
 3520 0780 362C207B 		.string	"6, {3A}, {00}, {FF}, 0, {}, {}, {}, 0, {}, {}, {}, 0, {}, {}, {}, 0, {}, {}, {}, 0, {}, {
 3520      33417D2C 
 3520      207B3030 
 3520      7D2C207B 
 3520      46467D2C 
 3521 07df 00       		.align 8
 3522              	.LC122:
 3523 07e0 556E6861 		.string	"Unhandled exception in CHECK_EQUAL(\"8, {AA}, {00}, {FF}, \" \"0, {}, {}, {}, \" \"0, {},
 3523      6E646C65 
 3523      64206578 
 3523      63657074 
 3523      696F6E20 
 3524 0885 000000   		.align 8
 3525              	.LC123:
 3526 0888 556E6861 		.string	"Unhandled exception in CHECK_EQUAL(\"8, {AA}, {00}, {55}, \" \"0, {}, {}, {}, \" \"0, {},
 3526      6E646C65 
 3526      64206578 
 3526      63657074 
 3526      696F6E20 
 3527 092d 000000   		.align 8
 3528              	.LC124:
 3529 0930 556E6861 		.string	"Unhandled exception in CHECK_EQUAL(\"6, {3A}, {00}, {FF}, \" \"0, {}, {}, {}, \" \"0, {},
 3529      6E646C65 
 3529      64206578 
 3529      63657074 
 3529      696F6E20 
 3530              		.text
 3531              		.align 2
 3532              		.globl	_ZNK22TestFPGALink_testParse7RunImplEv
 3534              	_ZNK22TestFPGALink_testParse7RunImplEv:
 3535              	.LFB1090:
 3536              		.loc 3 596 0
 3537              		.cfi_startproc
 3538              		.cfi_personality 0x3,__gxx_personality_v0
 3539              		.cfi_lsda 0x3,.LLSDA1090
 3540 2144 55       		pushq	%rbp
 3541              		.cfi_def_cfa_offset 16
 3542              		.cfi_offset 6, -16
 3543 2145 4889E5   		movq	%rsp, %rbp
 3544              		.cfi_def_cfa_register 6
 3545 2148 53       		pushq	%rbx
 3546 2149 4881EC18 		subq	$792, %rsp
 3546      030000
 3547              		.cfi_offset 3, -24
 3548 2150 4889BDE8 		movq	%rdi, -792(%rbp)
 3548      FCFFFF
 3549              		.loc 3 596 0
 3550 2157 64488B04 		movq	%fs:40, %rax
 3550      25280000 
 3550      00
 3551 2160 488945E8 		movq	%rax, -24(%rbp)
 3552 2164 31C0     		xorl	%eax, %eax
 597:testSvf2Csvf.cpp **** 	FLStatus fStatus;
 598:testSvf2Csvf.cpp **** 	struct ParseContext cxt;
 599:testSvf2Csvf.cpp **** 	struct Buffer csvfBuf;
 600:testSvf2Csvf.cpp **** 	BufferStatus bStatus;
 601:testSvf2Csvf.cpp **** 	bStatus = bufInitialise(&csvfBuf, 1024, 0x00, NULL);
 3553              		.loc 3 601 0
 3554 2166 488D8500 		leaq	-768(%rbp), %rax
 3554      FDFFFF
 3555 216d B9000000 		movl	$0, %ecx
 3555      00
 3556 2172 BA000000 		movl	$0, %edx
 3556      00
 3557 2177 BE000400 		movl	$1024, %esi
 3557      00
 3558 217c 4889C7   		movq	%rax, %rdi
 3559              	.LEHB96:
 3560 217f E8000000 		call	bufInitialise
 3560      00
 3561              	.LEHE96:
 3562 2184 8985F8FC 		movl	%eax, -776(%rbp)
 3562      FFFF
 3563              	.LEHB97:
 602:testSvf2Csvf.cpp **** 	CHECK_EQUAL(BUF_SUCCESS, bStatus);
 3564              		.loc 3 602 0
 3565 218a E8000000 		call	_ZN8UnitTest11CurrentTest7DetailsEv
 3565      00
 3566 218f 488B08   		movq	(%rax), %rcx
 3567 2192 488D8540 		leaq	-704(%rbp), %rax
 3567      FDFFFF
 3568 2199 BA5A0200 		movl	$602, %edx
 3568      00
 3569 219e 4889CE   		movq	%rcx, %rsi
 3570 21a1 4889C7   		movq	%rax, %rdi
 3571 21a4 E8000000 		call	_ZN8UnitTest11TestDetailsC1ERKS0_i
 3571      00
 3572              	.LEHE97:
 3573              		.loc 3 602 0 is_stmt 0 discriminator 2
 3574 21a9 C78520FD 		movl	$0, -736(%rbp)
 3574      FFFF0000 
 3574      0000
 3575              	.LEHB98:
 3576 21b3 E8000000 		call	_ZN8UnitTest11CurrentTest7ResultsEv
 3576      00
 3577 21b8 488B00   		movq	(%rax), %rax
 3578 21bb 488D8D40 		leaq	-704(%rbp), %rcx
 3578      FDFFFF
 3579 21c2 488D95F8 		leaq	-776(%rbp), %rdx
 3579      FCFFFF
 3580 21c9 488DB520 		leaq	-736(%rbp), %rsi
 3580      FDFFFF
 3581 21d0 4889C7   		movq	%rax, %rdi
 3582 21d3 E8000000 		call	_ZN8UnitTest10CheckEqualI12BufferStatusS1_EEvRNS_11TestResultsERKT_RKT0_RKNS_11TestDetailsE
 3582      00
 3583              	.LEHE98:
 3584              	.L145:
 603:testSvf2Csvf.cpp **** 	fStatus = cxtInitialise(&cxt, NULL);
 3585              		.loc 3 603 0 is_stmt 1
 3586 21d8 488D8540 		leaq	-704(%rbp), %rax
 3586      FDFFFF
 3587 21df BE000000 		movl	$0, %esi
 3587      00
 3588 21e4 4889C7   		movq	%rax, %rdi
 3589              	.LEHB99:
 3590 21e7 E8000000 		call	cxtInitialise
 3590      00
 3591              	.LEHE99:
 3592 21ec 8985F4FC 		movl	%eax, -780(%rbp)
 3592      FFFF
 3593              	.LEHB100:
 604:testSvf2Csvf.cpp **** 	CHECK_EQUAL(FL_SUCCESS, fStatus);
 3594              		.loc 3 604 0
 3595 21f2 E8000000 		call	_ZN8UnitTest11CurrentTest7DetailsEv
 3595      00
 3596 21f7 488B08   		movq	(%rax), %rcx
 3597 21fa 488D8520 		leaq	-736(%rbp), %rax
 3597      FDFFFF
 3598 2201 BA5C0200 		movl	$604, %edx
 3598      00
 3599 2206 4889CE   		movq	%rcx, %rsi
 3600 2209 4889C7   		movq	%rax, %rdi
 3601 220c E8000000 		call	_ZN8UnitTest11TestDetailsC1ERKS0_i
 3601      00
 3602              	.LEHE100:
 3603              		.loc 3 604 0 is_stmt 0 discriminator 2
 3604 2211 C785FCFC 		movl	$0, -772(%rbp)
 3604      FFFF0000 
 3604      0000
 3605              	.LEHB101:
 3606 221b E8000000 		call	_ZN8UnitTest11CurrentTest7ResultsEv
 3606      00
 3607 2220 488B00   		movq	(%rax), %rax
 3608 2223 488D8D20 		leaq	-736(%rbp), %rcx
 3608      FDFFFF
 3609 222a 488D95F4 		leaq	-780(%rbp), %rdx
 3609      FCFFFF
 3610 2231 488DB5FC 		leaq	-772(%rbp), %rsi
 3610      FCFFFF
 3611 2238 4889C7   		movq	%rax, %rdi
 3612 223b E8000000 		call	_ZN8UnitTest10CheckEqualI8FLStatusS1_EEvRNS_11TestResultsERKT_RKT0_RKNS_11TestDetailsE
 3612      00
 3613              	.LEHE101:
 3614              	.L149:
 605:testSvf2Csvf.cpp **** 
 606:testSvf2Csvf.cpp **** 	// HDR, HIR, SDR, SIR, TDR, TIR
 607:testSvf2Csvf.cpp **** 	parseString(&cxt, "HDR 8 TDI (aa)", &csvfBuf);
 3615              		.loc 3 607 0 is_stmt 1
 3616 2240 488D9500 		leaq	-768(%rbp), %rdx
 3616      FDFFFF
 3617 2247 488D8540 		leaq	-704(%rbp), %rax
 3617      FDFFFF
 3618 224e BE000000 		movl	$.LC116, %esi
 3618      00
 3619 2253 4889C7   		movq	%rax, %rdi
 3620              	.LEHB102:
 3621 2256 E8000000 		call	_Z11parseStringP12ParseContextPKcP6Buffer
 3621      00
 3622              	.LEHE102:
 3623              	.LEHB103:
 608:testSvf2Csvf.cpp **** 	CHECK_EQUAL(
 3624              		.loc 3 608 0
 3625 225b E8000000 		call	_ZN8UnitTest11CurrentTest7DetailsEv
 3625      00
 3626 2260 488B08   		movq	(%rax), %rcx
 3627 2263 488D8520 		leaq	-736(%rbp), %rax
 3627      FDFFFF
 3628 226a BA670200 		movl	$615, %edx
 3628      00
 3629 226f 4889CE   		movq	%rcx, %rsi
 3630 2272 4889C7   		movq	%rax, %rdi
 3631 2275 E8000000 		call	_ZN8UnitTest11TestDetailsC1ERKS0_i
 3631      00
 3632              		.loc 3 608 0 is_stmt 0 discriminator 2
 3633 227a 488D8540 		leaq	-704(%rbp), %rax
 3633      FDFFFF
 3634 2281 4889C7   		movq	%rax, %rdi
 3635 2284 E8000000 		call	_Z9renderCxtPK12ParseContext
 3635      00
 3636 2289 4889C3   		movq	%rax, %rbx
 3637 228c E8000000 		call	_ZN8UnitTest11CurrentTest7ResultsEv
 3637      00
 3638 2291 488B00   		movq	(%rax), %rax
 3639 2294 488D9520 		leaq	-736(%rbp), %rdx
 3639      FDFFFF
 3640 229b 4889D1   		movq	%rdx, %rcx
 3641 229e 4889DA   		movq	%rbx, %rdx
 3642 22a1 BE000000 		movl	$.LC117, %esi
 3642      00
 3643 22a6 4889C7   		movq	%rax, %rdi
 3644 22a9 E8000000 		call	_ZN8UnitTest10CheckEqualERNS_11TestResultsEPKcS3_RKNS_11TestDetailsE
 3644      00
 3645              	.LEHE103:
 3646              	.L152:
 609:testSvf2Csvf.cpp **** 		"8, {AA}, {00}, {FF}, "    // HDR
 610:testSvf2Csvf.cpp **** 		"0, {}, {}, {}, "          // HIR
 611:testSvf2Csvf.cpp **** 		"0, {}, {}, {}, "          // SDR
 612:testSvf2Csvf.cpp **** 		"0, {}, {}, {}, "          // SIR
 613:testSvf2Csvf.cpp **** 		"0, {}, {}, {}, "          // TDR
 614:testSvf2Csvf.cpp **** 		"0, {}, {}, {}",           // TIR
 615:testSvf2Csvf.cpp **** 		renderCxt(&cxt));
 616:testSvf2Csvf.cpp **** 
 617:testSvf2Csvf.cpp **** 	// HDR, HIR, SDR, SIR, TDR, TIR
 618:testSvf2Csvf.cpp **** 	parseString(&cxt, "HDR 8 MASK (55)", &csvfBuf);
 3647              		.loc 3 618 0 is_stmt 1
 3648 22ae 488D9500 		leaq	-768(%rbp), %rdx
 3648      FDFFFF
 3649 22b5 488D8540 		leaq	-704(%rbp), %rax
 3649      FDFFFF
 3650 22bc BE000000 		movl	$.LC118, %esi
 3650      00
 3651 22c1 4889C7   		movq	%rax, %rdi
 3652              	.LEHB104:
 3653 22c4 E8000000 		call	_Z11parseStringP12ParseContextPKcP6Buffer
 3653      00
 3654              	.LEHE104:
 3655              	.LEHB105:
 619:testSvf2Csvf.cpp **** 	CHECK_EQUAL(
 3656              		.loc 3 619 0
 3657 22c9 E8000000 		call	_ZN8UnitTest11CurrentTest7DetailsEv
 3657      00
 3658 22ce 488B08   		movq	(%rax), %rcx
 3659 22d1 488D8520 		leaq	-736(%rbp), %rax
 3659      FDFFFF
 3660 22d8 BA720200 		movl	$626, %edx
 3660      00
 3661 22dd 4889CE   		movq	%rcx, %rsi
 3662 22e0 4889C7   		movq	%rax, %rdi
 3663 22e3 E8000000 		call	_ZN8UnitTest11TestDetailsC1ERKS0_i
 3663      00
 3664              		.loc 3 619 0 is_stmt 0 discriminator 2
 3665 22e8 488D8540 		leaq	-704(%rbp), %rax
 3665      FDFFFF
 3666 22ef 4889C7   		movq	%rax, %rdi
 3667 22f2 E8000000 		call	_Z9renderCxtPK12ParseContext
 3667      00
 3668 22f7 4889C3   		movq	%rax, %rbx
 3669 22fa E8000000 		call	_ZN8UnitTest11CurrentTest7ResultsEv
 3669      00
 3670 22ff 488B00   		movq	(%rax), %rax
 3671 2302 488D9520 		leaq	-736(%rbp), %rdx
 3671      FDFFFF
 3672 2309 4889D1   		movq	%rdx, %rcx
 3673 230c 4889DA   		movq	%rbx, %rdx
 3674 230f BE000000 		movl	$.LC119, %esi
 3674      00
 3675 2314 4889C7   		movq	%rax, %rdi
 3676 2317 E8000000 		call	_ZN8UnitTest10CheckEqualERNS_11TestResultsEPKcS3_RKNS_11TestDetailsE
 3676      00
 3677              	.LEHE105:
 3678              	.L155:
 620:testSvf2Csvf.cpp **** 		"8, {AA}, {00}, {55}, "    // HDR
 621:testSvf2Csvf.cpp **** 		"0, {}, {}, {}, "          // HIR
 622:testSvf2Csvf.cpp **** 		"0, {}, {}, {}, "          // SDR
 623:testSvf2Csvf.cpp **** 		"0, {}, {}, {}, "          // SIR
 624:testSvf2Csvf.cpp **** 		"0, {}, {}, {}, "          // TDR
 625:testSvf2Csvf.cpp **** 		"0, {}, {}, {}",           // TIR
 626:testSvf2Csvf.cpp **** 		renderCxt(&cxt));
 627:testSvf2Csvf.cpp **** 
 628:testSvf2Csvf.cpp **** 	// HDR, HIR, SDR, SIR, TDR, TIR
 629:testSvf2Csvf.cpp **** 	parseString(&cxt, "HDR 6 TDI (3A)", &csvfBuf);
 3679              		.loc 3 629 0 is_stmt 1
 3680 231c 488D9500 		leaq	-768(%rbp), %rdx
 3680      FDFFFF
 3681 2323 488D8540 		leaq	-704(%rbp), %rax
 3681      FDFFFF
 3682 232a BE000000 		movl	$.LC120, %esi
 3682      00
 3683 232f 4889C7   		movq	%rax, %rdi
 3684              	.LEHB106:
 3685 2332 E8000000 		call	_Z11parseStringP12ParseContextPKcP6Buffer
 3685      00
 3686              	.LEHE106:
 3687              	.LEHB107:
 630:testSvf2Csvf.cpp **** 	CHECK_EQUAL(
 3688              		.loc 3 630 0
 3689 2337 E8000000 		call	_ZN8UnitTest11CurrentTest7DetailsEv
 3689      00
 3690 233c 488B08   		movq	(%rax), %rcx
 3691 233f 488D8520 		leaq	-736(%rbp), %rax
 3691      FDFFFF
 3692 2346 BA7D0200 		movl	$637, %edx
 3692      00
 3693 234b 4889CE   		movq	%rcx, %rsi
 3694 234e 4889C7   		movq	%rax, %rdi
 3695 2351 E8000000 		call	_ZN8UnitTest11TestDetailsC1ERKS0_i
 3695      00
 3696              		.loc 3 630 0 is_stmt 0 discriminator 2
 3697 2356 488D8540 		leaq	-704(%rbp), %rax
 3697      FDFFFF
 3698 235d 4889C7   		movq	%rax, %rdi
 3699 2360 E8000000 		call	_Z9renderCxtPK12ParseContext
 3699      00
 3700 2365 4889C3   		movq	%rax, %rbx
 3701 2368 E8000000 		call	_ZN8UnitTest11CurrentTest7ResultsEv
 3701      00
 3702 236d 488B00   		movq	(%rax), %rax
 3703 2370 488D9520 		leaq	-736(%rbp), %rdx
 3703      FDFFFF
 3704 2377 4889D1   		movq	%rdx, %rcx
 3705 237a 4889DA   		movq	%rbx, %rdx
 3706 237d BE000000 		movl	$.LC121, %esi
 3706      00
 3707 2382 4889C7   		movq	%rax, %rdi
 3708 2385 E8000000 		call	_ZN8UnitTest10CheckEqualERNS_11TestResultsEPKcS3_RKNS_11TestDetailsE
 3708      00
 3709              	.LEHE107:
 3710              	.L158:
 631:testSvf2Csvf.cpp **** 		"6, {3A}, {00}, {FF}, "    // HDR
 632:testSvf2Csvf.cpp **** 		"0, {}, {}, {}, "          // HIR
 633:testSvf2Csvf.cpp **** 		"0, {}, {}, {}, "          // SDR
 634:testSvf2Csvf.cpp **** 		"0, {}, {}, {}, "          // SIR
 635:testSvf2Csvf.cpp **** 		"0, {}, {}, {}, "          // TDR
 636:testSvf2Csvf.cpp **** 		"0, {}, {}, {}",           // TIR
 637:testSvf2Csvf.cpp **** 		renderCxt(&cxt));
 638:testSvf2Csvf.cpp **** 
 639:testSvf2Csvf.cpp **** 	cxtDestroy(&cxt);
 3711              		.loc 3 639 0 is_stmt 1
 3712 238a 488D8540 		leaq	-704(%rbp), %rax
 3712      FDFFFF
 3713 2391 4889C7   		movq	%rax, %rdi
 3714              	.LEHB108:
 3715 2394 E8000000 		call	cxtDestroy
 3715      00
 640:testSvf2Csvf.cpp **** 	bufDestroy(&csvfBuf);
 3716              		.loc 3 640 0
 3717 2399 488D8500 		leaq	-768(%rbp), %rax
 3717      FDFFFF
 3718 23a0 4889C7   		movq	%rax, %rdi
 3719 23a3 E8000000 		call	bufDestroy
 3719      00
 3720              	.LEHE108:
 641:testSvf2Csvf.cpp **** }
 3721              		.loc 3 641 0
 3722 23a8 90       		nop
 3723 23a9 488B45E8 		movq	-24(%rbp), %rax
 3724 23ad 64483304 		xorq	%fs:40, %rax
 3724      25280000 
 3724      00
 3725 23b6 0F84FD01 		je	.L160
 3725      0000
 3726 23bc E9F30100 		jmp	.L173
 3726      00
 3727              	.L162:
 3728 23c1 EB00     		jmp	.L144
 3729              	.L161:
 3730              	.L144:
 602:testSvf2Csvf.cpp **** 	fStatus = cxtInitialise(&cxt, NULL);
 3731              		.loc 3 602 0
 3732 23c3 4889C7   		movq	%rax, %rdi
 3733 23c6 E8000000 		call	__cxa_begin_catch
 3733      00
 3734              	.LEHB109:
 3735 23cb E8000000 		call	_ZN8UnitTest11CurrentTest7DetailsEv
 3735      00
 3736 23d0 488B08   		movq	(%rax), %rcx
 3737 23d3 488D8540 		leaq	-704(%rbp), %rax
 3737      FDFFFF
 3738 23da BA5A0200 		movl	$602, %edx
 3738      00
 3739 23df 4889CE   		movq	%rcx, %rsi
 3740 23e2 4889C7   		movq	%rax, %rdi
 3741 23e5 E8000000 		call	_ZN8UnitTest11TestDetailsC1ERKS0_i
 3741      00
 602:testSvf2Csvf.cpp **** 	fStatus = cxtInitialise(&cxt, NULL);
 3742              		.loc 3 602 0 is_stmt 0 discriminator 10
 3743 23ea E8000000 		call	_ZN8UnitTest11CurrentTest7ResultsEv
 3743      00
 3744 23ef 488B00   		movq	(%rax), %rax
 3745 23f2 488D8D40 		leaq	-704(%rbp), %rcx
 3745      FDFFFF
 3746 23f9 BA000000 		movl	$.LC13, %edx
 3746      00
 3747 23fe 4889CE   		movq	%rcx, %rsi
 3748 2401 4889C7   		movq	%rax, %rdi
 3749 2404 E8000000 		call	_ZN8UnitTest11TestResults13OnTestFailureERKNS_11TestDetailsEPKc
 3749      00
 3750              	.LEHE109:
 3751              	.LEHB110:
 602:testSvf2Csvf.cpp **** 	fStatus = cxtInitialise(&cxt, NULL);
 3752              		.loc 3 602 0 discriminator 14
 3753 2409 E8000000 		call	__cxa_end_catch
 3753      00
 3754              	.LEHE110:
 3755 240e E9C5FDFF 		jmp	.L145
 3755      FF
 3756              	.L163:
 3757 2413 4889C3   		movq	%rax, %rbx
 602:testSvf2Csvf.cpp **** 	fStatus = cxtInitialise(&cxt, NULL);
 3758              		.loc 3 602 0
 3759 2416 E8000000 		call	__cxa_end_catch
 3759      00
 3760 241b 4889D8   		movq	%rbx, %rax
 3761 241e 4889C7   		movq	%rax, %rdi
 3762              	.LEHB111:
 3763 2421 E8000000 		call	_Unwind_Resume
 3763      00
 3764              	.LEHE111:
 3765              	.L165:
 3766 2426 EB00     		jmp	.L148
 3767              	.L164:
 3768              	.L148:
 604:testSvf2Csvf.cpp **** 
 3769              		.loc 3 604 0 is_stmt 1
 3770 2428 4889C7   		movq	%rax, %rdi
 3771 242b E8000000 		call	__cxa_begin_catch
 3771      00
 3772              	.LEHB112:
 3773 2430 E8000000 		call	_ZN8UnitTest11CurrentTest7DetailsEv
 3773      00
 3774 2435 488B08   		movq	(%rax), %rcx
 3775 2438 488D8520 		leaq	-736(%rbp), %rax
 3775      FDFFFF
 3776 243f BA5C0200 		movl	$604, %edx
 3776      00
 3777 2444 4889CE   		movq	%rcx, %rsi
 3778 2447 4889C7   		movq	%rax, %rdi
 3779 244a E8000000 		call	_ZN8UnitTest11TestDetailsC1ERKS0_i
 3779      00
 604:testSvf2Csvf.cpp **** 
 3780              		.loc 3 604 0 is_stmt 0 discriminator 10
 3781 244f E8000000 		call	_ZN8UnitTest11CurrentTest7ResultsEv
 3781      00
 3782 2454 488B00   		movq	(%rax), %rax
 3783 2457 488D8D20 		leaq	-736(%rbp), %rcx
 3783      FDFFFF
 3784 245e BA000000 		movl	$.LC2, %edx
 3784      00
 3785 2463 4889CE   		movq	%rcx, %rsi
 3786 2466 4889C7   		movq	%rax, %rdi
 3787 2469 E8000000 		call	_ZN8UnitTest11TestResults13OnTestFailureERKNS_11TestDetailsEPKc
 3787      00
 3788              	.LEHE112:
 3789              	.LEHB113:
 604:testSvf2Csvf.cpp **** 
 3790              		.loc 3 604 0 discriminator 14
 3791 246e E8000000 		call	__cxa_end_catch
 3791      00
 3792              	.LEHE113:
 3793 2473 E9C8FDFF 		jmp	.L149
 3793      FF
 3794              	.L166:
 3795 2478 4889C3   		movq	%rax, %rbx
 604:testSvf2Csvf.cpp **** 
 3796              		.loc 3 604 0
 3797 247b E8000000 		call	__cxa_end_catch
 3797      00
 3798 2480 4889D8   		movq	%rbx, %rax
 3799 2483 4889C7   		movq	%rax, %rdi
 3800              	.LEHB114:
 3801 2486 E8000000 		call	_Unwind_Resume
 3801      00
 3802              	.LEHE114:
 3803              	.L167:
 608:testSvf2Csvf.cpp **** 		"8, {AA}, {00}, {FF}, "    // HDR
 3804              		.loc 3 608 0 is_stmt 1
 3805 248b 4889C7   		movq	%rax, %rdi
 3806 248e E8000000 		call	__cxa_begin_catch
 3806      00
 3807              	.LEHB115:
 3808 2493 E8000000 		call	_ZN8UnitTest11CurrentTest7DetailsEv
 3808      00
 3809 2498 488B08   		movq	(%rax), %rcx
 3810 249b 488D8520 		leaq	-736(%rbp), %rax
 3810      FDFFFF
 3811 24a2 BA670200 		movl	$615, %edx
 3811      00
 3812 24a7 4889CE   		movq	%rcx, %rsi
 3813 24aa 4889C7   		movq	%rax, %rdi
 3814 24ad E8000000 		call	_ZN8UnitTest11TestDetailsC1ERKS0_i
 3814      00
 608:testSvf2Csvf.cpp **** 		"8, {AA}, {00}, {FF}, "    // HDR
 3815              		.loc 3 608 0 is_stmt 0 discriminator 10
 3816 24b2 E8000000 		call	_ZN8UnitTest11CurrentTest7ResultsEv
 3816      00
 3817 24b7 488B00   		movq	(%rax), %rax
 3818 24ba 488D8D20 		leaq	-736(%rbp), %rcx
 3818      FDFFFF
 3819 24c1 BA000000 		movl	$.LC122, %edx
 3819      00
 3820 24c6 4889CE   		movq	%rcx, %rsi
 3821 24c9 4889C7   		movq	%rax, %rdi
 3822 24cc E8000000 		call	_ZN8UnitTest11TestResults13OnTestFailureERKNS_11TestDetailsEPKc
 3822      00
 3823              	.LEHE115:
 3824              	.LEHB116:
 608:testSvf2Csvf.cpp **** 		"8, {AA}, {00}, {FF}, "    // HDR
 3825              		.loc 3 608 0 discriminator 14
 3826 24d1 E8000000 		call	__cxa_end_catch
 3826      00
 3827              	.LEHE116:
 3828 24d6 E9D3FDFF 		jmp	.L152
 3828      FF
 3829              	.L168:
 3830 24db 4889C3   		movq	%rax, %rbx
 608:testSvf2Csvf.cpp **** 		"8, {AA}, {00}, {FF}, "    // HDR
 3831              		.loc 3 608 0
 3832 24de E8000000 		call	__cxa_end_catch
 3832      00
 3833 24e3 4889D8   		movq	%rbx, %rax
 3834 24e6 4889C7   		movq	%rax, %rdi
 3835              	.LEHB117:
 3836 24e9 E8000000 		call	_Unwind_Resume
 3836      00
 3837              	.LEHE117:
 3838              	.L169:
 619:testSvf2Csvf.cpp **** 		"8, {AA}, {00}, {55}, "    // HDR
 3839              		.loc 3 619 0 is_stmt 1
 3840 24ee 4889C7   		movq	%rax, %rdi
 3841 24f1 E8000000 		call	__cxa_begin_catch
 3841      00
 3842              	.LEHB118:
 3843 24f6 E8000000 		call	_ZN8UnitTest11CurrentTest7DetailsEv
 3843      00
 3844 24fb 488B08   		movq	(%rax), %rcx
 3845 24fe 488D8520 		leaq	-736(%rbp), %rax
 3845      FDFFFF
 3846 2505 BA720200 		movl	$626, %edx
 3846      00
 3847 250a 4889CE   		movq	%rcx, %rsi
 3848 250d 4889C7   		movq	%rax, %rdi
 3849 2510 E8000000 		call	_ZN8UnitTest11TestDetailsC1ERKS0_i
 3849      00
 619:testSvf2Csvf.cpp **** 		"8, {AA}, {00}, {55}, "    // HDR
 3850              		.loc 3 619 0 is_stmt 0 discriminator 10
 3851 2515 E8000000 		call	_ZN8UnitTest11CurrentTest7ResultsEv
 3851      00
 3852 251a 488B00   		movq	(%rax), %rax
 3853 251d 488D8D20 		leaq	-736(%rbp), %rcx
 3853      FDFFFF
 3854 2524 BA000000 		movl	$.LC123, %edx
 3854      00
 3855 2529 4889CE   		movq	%rcx, %rsi
 3856 252c 4889C7   		movq	%rax, %rdi
 3857 252f E8000000 		call	_ZN8UnitTest11TestResults13OnTestFailureERKNS_11TestDetailsEPKc
 3857      00
 3858              	.LEHE118:
 3859              	.LEHB119:
 619:testSvf2Csvf.cpp **** 		"8, {AA}, {00}, {55}, "    // HDR
 3860              		.loc 3 619 0 discriminator 14
 3861 2534 E8000000 		call	__cxa_end_catch
 3861      00
 3862              	.LEHE119:
 3863 2539 E9DEFDFF 		jmp	.L155
 3863      FF
 3864              	.L170:
 3865 253e 4889C3   		movq	%rax, %rbx
 619:testSvf2Csvf.cpp **** 		"8, {AA}, {00}, {55}, "    // HDR
 3866              		.loc 3 619 0
 3867 2541 E8000000 		call	__cxa_end_catch
 3867      00
 3868 2546 4889D8   		movq	%rbx, %rax
 3869 2549 4889C7   		movq	%rax, %rdi
 3870              	.LEHB120:
 3871 254c E8000000 		call	_Unwind_Resume
 3871      00
 3872              	.LEHE120:
 3873              	.L171:
 630:testSvf2Csvf.cpp **** 		"6, {3A}, {00}, {FF}, "    // HDR
 3874              		.loc 3 630 0 is_stmt 1
 3875 2551 4889C7   		movq	%rax, %rdi
 3876 2554 E8000000 		call	__cxa_begin_catch
 3876      00
 3877              	.LEHB121:
 3878 2559 E8000000 		call	_ZN8UnitTest11CurrentTest7DetailsEv
 3878      00
 3879 255e 488B08   		movq	(%rax), %rcx
 3880 2561 488D8520 		leaq	-736(%rbp), %rax
 3880      FDFFFF
 3881 2568 BA7D0200 		movl	$637, %edx
 3881      00
 3882 256d 4889CE   		movq	%rcx, %rsi
 3883 2570 4889C7   		movq	%rax, %rdi
 3884 2573 E8000000 		call	_ZN8UnitTest11TestDetailsC1ERKS0_i
 3884      00
 630:testSvf2Csvf.cpp **** 		"6, {3A}, {00}, {FF}, "    // HDR
 3885              		.loc 3 630 0 is_stmt 0 discriminator 10
 3886 2578 E8000000 		call	_ZN8UnitTest11CurrentTest7ResultsEv
 3886      00
 3887 257d 488B00   		movq	(%rax), %rax
 3888 2580 488D8D20 		leaq	-736(%rbp), %rcx
 3888      FDFFFF
 3889 2587 BA000000 		movl	$.LC124, %edx
 3889      00
 3890 258c 4889CE   		movq	%rcx, %rsi
 3891 258f 4889C7   		movq	%rax, %rdi
 3892 2592 E8000000 		call	_ZN8UnitTest11TestResults13OnTestFailureERKNS_11TestDetailsEPKc
 3892      00
 3893              	.LEHE121:
 3894              	.LEHB122:
 630:testSvf2Csvf.cpp **** 		"6, {3A}, {00}, {FF}, "    // HDR
 3895              		.loc 3 630 0 discriminator 14
 3896 2597 E8000000 		call	__cxa_end_catch
 3896      00
 3897              	.LEHE122:
 3898 259c E9E9FDFF 		jmp	.L158
 3898      FF
 3899              	.L172:
 3900 25a1 4889C3   		movq	%rax, %rbx
 630:testSvf2Csvf.cpp **** 		"6, {3A}, {00}, {FF}, "    // HDR
 3901              		.loc 3 630 0
 3902 25a4 E8000000 		call	__cxa_end_catch
 3902      00
 3903 25a9 4889D8   		movq	%rbx, %rax
 3904 25ac 4889C7   		movq	%rax, %rdi
 3905              	.LEHB123:
 3906 25af E8000000 		call	_Unwind_Resume
 3906      00
 3907              	.LEHE123:
 3908              	.L173:
 3909              		.loc 3 641 0 is_stmt 1
 3910 25b4 E8000000 		call	__stack_chk_fail
 3910      00
 3911              	.L160:
 3912 25b9 4881C418 		addq	$792, %rsp
 3912      030000
 3913 25c0 5B       		popq	%rbx
 3914 25c1 5D       		popq	%rbp
 3915              		.cfi_def_cfa 7, 8
 3916 25c2 C3       		ret
 3917              		.cfi_endproc
 3918              	.LFE1090:
 3919              		.section	.gcc_except_table
 3920              		.align 4
 3921              	.LLSDA1090:
 3922 0228 FF       		.byte	0xff
 3923 0229 03       		.byte	0x3
 3924 022a A001     		.uleb128 .LLSDATT1090-.LLSDATTD1090
 3925              	.LLSDATTD1090:
 3926 022c 01       		.byte	0x1
 3927 022d 9501     		.uleb128 .LLSDACSE1090-.LLSDACSB1090
 3928              	.LLSDACSB1090:
 3929 022f 3B       		.uleb128 .LEHB96-.LFB1090
 3930 0230 05       		.uleb128 .LEHE96-.LEHB96
 3931 0231 00       		.uleb128 0
 3932 0232 00       		.uleb128 0
 3933 0233 46       		.uleb128 .LEHB97-.LFB1090
 3934 0234 1F       		.uleb128 .LEHE97-.LEHB97
 3935 0235 FF04     		.uleb128 .L161-.LFB1090
 3936 0237 01       		.uleb128 0x1
 3937 0238 6F       		.uleb128 .LEHB98-.LFB1090
 3938 0239 25       		.uleb128 .LEHE98-.LEHB98
 3939 023a FD04     		.uleb128 .L162-.LFB1090
 3940 023c 03       		.uleb128 0x3
 3941 023d A301     		.uleb128 .LEHB99-.LFB1090
 3942 023f 05       		.uleb128 .LEHE99-.LEHB99
 3943 0240 00       		.uleb128 0
 3944 0241 00       		.uleb128 0
 3945 0242 AE01     		.uleb128 .LEHB100-.LFB1090
 3946 0244 1F       		.uleb128 .LEHE100-.LEHB100
 3947 0245 E405     		.uleb128 .L164-.LFB1090
 3948 0247 01       		.uleb128 0x1
 3949 0248 D701     		.uleb128 .LEHB101-.LFB1090
 3950 024a 25       		.uleb128 .LEHE101-.LEHB101
 3951 024b E205     		.uleb128 .L165-.LFB1090
 3952 024d 03       		.uleb128 0x3
 3953 024e 9202     		.uleb128 .LEHB102-.LFB1090
 3954 0250 05       		.uleb128 .LEHE102-.LEHB102
 3955 0251 00       		.uleb128 0
 3956 0252 00       		.uleb128 0
 3957 0253 9702     		.uleb128 .LEHB103-.LFB1090
 3958 0255 53       		.uleb128 .LEHE103-.LEHB103
 3959 0256 C706     		.uleb128 .L167-.LFB1090
 3960 0258 01       		.uleb128 0x1
 3961 0259 8003     		.uleb128 .LEHB104-.LFB1090
 3962 025b 05       		.uleb128 .LEHE104-.LEHB104
 3963 025c 00       		.uleb128 0
 3964 025d 00       		.uleb128 0
 3965 025e 8503     		.uleb128 .LEHB105-.LFB1090
 3966 0260 53       		.uleb128 .LEHE105-.LEHB105
 3967 0261 AA07     		.uleb128 .L169-.LFB1090
 3968 0263 01       		.uleb128 0x1
 3969 0264 EE03     		.uleb128 .LEHB106-.LFB1090
 3970 0266 05       		.uleb128 .LEHE106-.LEHB106
 3971 0267 00       		.uleb128 0
 3972 0268 00       		.uleb128 0
 3973 0269 F303     		.uleb128 .LEHB107-.LFB1090
 3974 026b 53       		.uleb128 .LEHE107-.LEHB107
 3975 026c 8D08     		.uleb128 .L171-.LFB1090
 3976 026e 01       		.uleb128 0x1
 3977 026f D004     		.uleb128 .LEHB108-.LFB1090
 3978 0271 14       		.uleb128 .LEHE108-.LEHB108
 3979 0272 00       		.uleb128 0
 3980 0273 00       		.uleb128 0
 3981 0274 8705     		.uleb128 .LEHB109-.LFB1090
 3982 0276 3E       		.uleb128 .LEHE109-.LEHB109
 3983 0277 CF05     		.uleb128 .L163-.LFB1090
 3984 0279 00       		.uleb128 0
 3985 027a C505     		.uleb128 .LEHB110-.LFB1090
 3986 027c 05       		.uleb128 .LEHE110-.LEHB110
 3987 027d 00       		.uleb128 0
 3988 027e 00       		.uleb128 0
 3989 027f DD05     		.uleb128 .LEHB111-.LFB1090
 3990 0281 05       		.uleb128 .LEHE111-.LEHB111
 3991 0282 00       		.uleb128 0
 3992 0283 00       		.uleb128 0
 3993 0284 EC05     		.uleb128 .LEHB112-.LFB1090
 3994 0286 3E       		.uleb128 .LEHE112-.LEHB112
 3995 0287 B406     		.uleb128 .L166-.LFB1090
 3996 0289 00       		.uleb128 0
 3997 028a AA06     		.uleb128 .LEHB113-.LFB1090
 3998 028c 05       		.uleb128 .LEHE113-.LEHB113
 3999 028d 00       		.uleb128 0
 4000 028e 00       		.uleb128 0
 4001 028f C206     		.uleb128 .LEHB114-.LFB1090
 4002 0291 05       		.uleb128 .LEHE114-.LEHB114
 4003 0292 00       		.uleb128 0
 4004 0293 00       		.uleb128 0
 4005 0294 CF06     		.uleb128 .LEHB115-.LFB1090
 4006 0296 3E       		.uleb128 .LEHE115-.LEHB115
 4007 0297 9707     		.uleb128 .L168-.LFB1090
 4008 0299 00       		.uleb128 0
 4009 029a 8D07     		.uleb128 .LEHB116-.LFB1090
 4010 029c 05       		.uleb128 .LEHE116-.LEHB116
 4011 029d 00       		.uleb128 0
 4012 029e 00       		.uleb128 0
 4013 029f A507     		.uleb128 .LEHB117-.LFB1090
 4014 02a1 05       		.uleb128 .LEHE117-.LEHB117
 4015 02a2 00       		.uleb128 0
 4016 02a3 00       		.uleb128 0
 4017 02a4 B207     		.uleb128 .LEHB118-.LFB1090
 4018 02a6 3E       		.uleb128 .LEHE118-.LEHB118
 4019 02a7 FA07     		.uleb128 .L170-.LFB1090
 4020 02a9 00       		.uleb128 0
 4021 02aa F007     		.uleb128 .LEHB119-.LFB1090
 4022 02ac 05       		.uleb128 .LEHE119-.LEHB119
 4023 02ad 00       		.uleb128 0
 4024 02ae 00       		.uleb128 0
 4025 02af 8808     		.uleb128 .LEHB120-.LFB1090
 4026 02b1 05       		.uleb128 .LEHE120-.LEHB120
 4027 02b2 00       		.uleb128 0
 4028 02b3 00       		.uleb128 0
 4029 02b4 9508     		.uleb128 .LEHB121-.LFB1090
 4030 02b6 3E       		.uleb128 .LEHE121-.LEHB121
 4031 02b7 DD08     		.uleb128 .L172-.LFB1090
 4032 02b9 00       		.uleb128 0
 4033 02ba D308     		.uleb128 .LEHB122-.LFB1090
 4034 02bc 05       		.uleb128 .LEHE122-.LEHB122
 4035 02bd 00       		.uleb128 0
 4036 02be 00       		.uleb128 0
 4037 02bf EB08     		.uleb128 .LEHB123-.LFB1090
 4038 02c1 05       		.uleb128 .LEHE123-.LEHB123
 4039 02c2 00       		.uleb128 0
 4040 02c3 00       		.uleb128 0
 4041              	.LLSDACSE1090:
 4042 02c4 01       		.byte	0x1
 4043 02c5 00       		.byte	0
 4044 02c6 00       		.byte	0
 4045 02c7 7D       		.byte	0x7d
 4046              		.align 4
 4047 02c8 00000000 		.long	0
 4048              	
 4049              	.LLSDATT1090:
 4050              		.text
 4052              		.section	.rodata
 4053              	.LC125:
 4054 09d5 20205B25 		.string	"  [%d] %s:%s\n"
 4054      645D2025 
 4054      733A2573 
 4054      0A00
 4055 09e3 00000000 		.align 8
 4055      00
 4056              	.LC126:
 4057 09e8 556E6861 		.string	"Unhandled exception in CHECK_EQUAL(sExpected, sActual)"
 4057      6E646C65 
 4057      64206578 
 4057      63657074 
 4057      696F6E20 
 4058 0a1f 00       		.align 8
 4059              	.LC127:
 4060 0a20 556E6861 		.string	"Unhandled exception in CHECK_EQUAL(expected, actual)"
 4060      6E646C65 
 4060      64206578 
 4060      63657074 
 4060      696F6E20 
 4061              		.text
 4063              	_ZL7compareiPKhS0_:
 4064              	.LFB1091:
 642:testSvf2Csvf.cpp **** 
 643:testSvf2Csvf.cpp **** static void compare(int j, CmdPtr pExpected, CmdPtr pActual) {
 4065              		.loc 3 643 0
 4066              		.cfi_startproc
 4067              		.cfi_personality 0x3,__gxx_personality_v0
 4068              		.cfi_lsda 0x3,.LLSDA1091
 4069 25c3 55       		pushq	%rbp
 4070              		.cfi_def_cfa_offset 16
 4071              		.cfi_offset 6, -16
 4072 25c4 4889E5   		movq	%rsp, %rbp
 4073              		.cfi_def_cfa_register 6
 4074 25c7 53       		pushq	%rbx
 4075 25c8 4883EC78 		subq	$120, %rsp
 4076              		.cfi_offset 3, -24
 4077 25cc 897D9C   		movl	%edi, -100(%rbp)
 4078 25cf 48897590 		movq	%rsi, -112(%rbp)
 4079 25d3 48895588 		movq	%rdx, -120(%rbp)
 4080              		.loc 3 643 0
 4081 25d7 64488B04 		movq	%fs:40, %rax
 4081      25280000 
 4081      00
 4082 25e0 488945E8 		movq	%rax, -24(%rbp)
 4083 25e4 31C0     		xorl	%eax, %eax
 644:testSvf2Csvf.cpp **** 	const char *const sExpected = getCmdName(pExpected);
 4084              		.loc 3 644 0
 4085 25e6 488B4590 		movq	-112(%rbp), %rax
 4086 25ea 4889C7   		movq	%rax, %rdi
 4087              	.LEHB124:
 4088 25ed E8000000 		call	getCmdName
 4088      00
 4089 25f2 488945B0 		movq	%rax, -80(%rbp)
 645:testSvf2Csvf.cpp **** 	const char *const sActual = getCmdName(pActual);
 4090              		.loc 3 645 0
 4091 25f6 488B4588 		movq	-120(%rbp), %rax
 4092 25fa 4889C7   		movq	%rax, %rdi
 4093 25fd E8000000 		call	getCmdName
 4093      00
 4094 2602 488945B8 		movq	%rax, -72(%rbp)
 646:testSvf2Csvf.cpp **** 	uint32 expected = pExpected[0];
 4095              		.loc 3 646 0
 4096 2606 488B4590 		movq	-112(%rbp), %rax
 4097 260a 0FB600   		movzbl	(%rax), %eax
 4098 260d 0FB6C0   		movzbl	%al, %eax
 4099 2610 8945A8   		movl	%eax, -88(%rbp)
 647:testSvf2Csvf.cpp **** 	uint32 actual = pActual[0];
 4100              		.loc 3 647 0
 4101 2613 488B4588 		movq	-120(%rbp), %rax
 4102 2617 0FB600   		movzbl	(%rax), %eax
 4103 261a 0FB6C0   		movzbl	%al, %eax
 4104 261d 8945AC   		movl	%eax, -84(%rbp)
 648:testSvf2Csvf.cpp **** 	printf("  [%d] %s:%s\n", j, sExpected, sActual);
 4105              		.loc 3 648 0
 4106 2620 488B4DB8 		movq	-72(%rbp), %rcx
 4107 2624 488B55B0 		movq	-80(%rbp), %rdx
 4108 2628 8B459C   		movl	-100(%rbp), %eax
 4109 262b 89C6     		movl	%eax, %esi
 4110 262d BF000000 		movl	$.LC125, %edi
 4110      00
 4111 2632 B8000000 		movl	$0, %eax
 4111      00
 4112 2637 E8000000 		call	printf
 4112      00
 4113              	.LEHE124:
 4114              	.LEHB125:
 649:testSvf2Csvf.cpp **** 	CHECK_EQUAL(sExpected, sActual);
 4115              		.loc 3 649 0
 4116 263c E8000000 		call	_ZN8UnitTest11CurrentTest7DetailsEv
 4116      00
 4117 2641 488B08   		movq	(%rax), %rcx
 4118 2644 488D45C0 		leaq	-64(%rbp), %rax
 4119 2648 BA890200 		movl	$649, %edx
 4119      00
 4120 264d 4889CE   		movq	%rcx, %rsi
 4121 2650 4889C7   		movq	%rax, %rdi
 4122 2653 E8000000 		call	_ZN8UnitTest11TestDetailsC1ERKS0_i
 4122      00
 4123              		.loc 3 649 0 is_stmt 0 discriminator 2
 4124 2658 E8000000 		call	_ZN8UnitTest11CurrentTest7ResultsEv
 4124      00
 4125 265d 488B00   		movq	(%rax), %rax
 4126 2660 488D4DC0 		leaq	-64(%rbp), %rcx
 4127 2664 488B55B8 		movq	-72(%rbp), %rdx
 4128 2668 488B75B0 		movq	-80(%rbp), %rsi
 4129 266c 4889C7   		movq	%rax, %rdi
 4130 266f E8000000 		call	_ZN8UnitTest10CheckEqualERNS_11TestResultsEPKcS3_RKNS_11TestDetailsE
 4130      00
 4131              	.LEHE125:
 4132              	.L177:
 650:testSvf2Csvf.cpp **** 	if ( expected == XRUNTEST && actual == XRUNTEST ) {
 4133              		.loc 3 650 0 is_stmt 1
 4134 2674 8B45A8   		movl	-88(%rbp), %eax
 4135 2677 83F804   		cmpl	$4, %eax
 4136 267a 0F852601 		jne	.L187
 4136      0000
 4137              		.loc 3 650 0 is_stmt 0 discriminator 1
 4138 2680 8B45AC   		movl	-84(%rbp), %eax
 4139 2683 83F804   		cmpl	$4, %eax
 4140 2686 0F851A01 		jne	.L187
 4140      0000
 651:testSvf2Csvf.cpp **** 		expected = readLongBE(pExpected + 1);
 4141              		.loc 3 651 0 is_stmt 1
 4142 268c 488B4590 		movq	-112(%rbp), %rax
 4143 2690 4883C001 		addq	$1, %rax
 4144 2694 4889C7   		movq	%rax, %rdi
 4145              	.LEHB126:
 4146 2697 E8000000 		call	readLongBE
 4146      00
 4147 269c 8945A8   		movl	%eax, -88(%rbp)
 652:testSvf2Csvf.cpp **** 		actual = readLongBE(pActual + 1);
 4148              		.loc 3 652 0
 4149 269f 488B4588 		movq	-120(%rbp), %rax
 4150 26a3 4883C001 		addq	$1, %rax
 4151 26a7 4889C7   		movq	%rax, %rdi
 4152 26aa E8000000 		call	readLongBE
 4152      00
 4153              	.LEHE126:
 4154 26af 8945AC   		movl	%eax, -84(%rbp)
 4155              	.LEHB127:
 653:testSvf2Csvf.cpp **** 		CHECK_EQUAL(expected, actual);
 4156              		.loc 3 653 0
 4157 26b2 E8000000 		call	_ZN8UnitTest11CurrentTest7DetailsEv
 4157      00
 4158 26b7 488B08   		movq	(%rax), %rcx
 4159 26ba 488D45C0 		leaq	-64(%rbp), %rax
 4160 26be BA8D0200 		movl	$653, %edx
 4160      00
 4161 26c3 4889CE   		movq	%rcx, %rsi
 4162 26c6 4889C7   		movq	%rax, %rdi
 4163 26c9 E8000000 		call	_ZN8UnitTest11TestDetailsC1ERKS0_i
 4163      00
 4164              		.loc 3 653 0 is_stmt 0 discriminator 2
 4165 26ce E8000000 		call	_ZN8UnitTest11CurrentTest7ResultsEv
 4165      00
 4166 26d3 488B00   		movq	(%rax), %rax
 4167 26d6 488D4DC0 		leaq	-64(%rbp), %rcx
 4168 26da 488D55AC 		leaq	-84(%rbp), %rdx
 4169 26de 488D75A8 		leaq	-88(%rbp), %rsi
 4170 26e2 4889C7   		movq	%rax, %rdi
 4171 26e5 E8000000 		call	_ZN8UnitTest10CheckEqualIjjEEvRNS_11TestResultsERKT_RKT0_RKNS_11TestDetailsE
 4171      00
 4172              	.LEHE127:
 654:testSvf2Csvf.cpp **** 	}
 655:testSvf2Csvf.cpp **** }
 4173              		.loc 3 655 0 is_stmt 1
 4174 26ea E9B70000 		jmp	.L187
 4174      00
 4175              	.L183:
 649:testSvf2Csvf.cpp **** 	if ( expected == XRUNTEST && actual == XRUNTEST ) {
 4176              		.loc 3 649 0
 4177 26ef 4889C7   		movq	%rax, %rdi
 4178 26f2 E8000000 		call	__cxa_begin_catch
 4178      00
 4179              	.LEHB128:
 4180 26f7 E8000000 		call	_ZN8UnitTest11CurrentTest7DetailsEv
 4180      00
 4181 26fc 488B08   		movq	(%rax), %rcx
 4182 26ff 488D45C0 		leaq	-64(%rbp), %rax
 4183 2703 BA890200 		movl	$649, %edx
 4183      00
 4184 2708 4889CE   		movq	%rcx, %rsi
 4185 270b 4889C7   		movq	%rax, %rdi
 4186 270e E8000000 		call	_ZN8UnitTest11TestDetailsC1ERKS0_i
 4186      00
 649:testSvf2Csvf.cpp **** 	if ( expected == XRUNTEST && actual == XRUNTEST ) {
 4187              		.loc 3 649 0 is_stmt 0 discriminator 10
 4188 2713 E8000000 		call	_ZN8UnitTest11CurrentTest7ResultsEv
 4188      00
 4189 2718 488B00   		movq	(%rax), %rax
 4190 271b 488D4DC0 		leaq	-64(%rbp), %rcx
 4191 271f BA000000 		movl	$.LC126, %edx
 4191      00
 4192 2724 4889CE   		movq	%rcx, %rsi
 4193 2727 4889C7   		movq	%rax, %rdi
 4194 272a E8000000 		call	_ZN8UnitTest11TestResults13OnTestFailureERKNS_11TestDetailsEPKc
 4194      00
 4195              	.LEHE128:
 4196              	.LEHB129:
 649:testSvf2Csvf.cpp **** 	if ( expected == XRUNTEST && actual == XRUNTEST ) {
 4197              		.loc 3 649 0 discriminator 14
 4198 272f E8000000 		call	__cxa_end_catch
 4198      00
 4199              	.LEHE129:
 4200 2734 E93BFFFF 		jmp	.L177
 4200      FF
 4201              	.L184:
 4202 2739 4889C3   		movq	%rax, %rbx
 649:testSvf2Csvf.cpp **** 	if ( expected == XRUNTEST && actual == XRUNTEST ) {
 4203              		.loc 3 649 0
 4204 273c E8000000 		call	__cxa_end_catch
 4204      00
 4205 2741 4889D8   		movq	%rbx, %rax
 4206 2744 4889C7   		movq	%rax, %rdi
 4207              	.LEHB130:
 4208 2747 E8000000 		call	_Unwind_Resume
 4208      00
 4209              	.LEHE130:
 4210              	.L185:
 653:testSvf2Csvf.cpp **** 		CHECK_EQUAL(expected, actual);
 4211              		.loc 3 653 0 is_stmt 1
 4212 274c 4889C7   		movq	%rax, %rdi
 4213 274f E8000000 		call	__cxa_begin_catch
 4213      00
 4214              	.LEHB131:
 4215 2754 E8000000 		call	_ZN8UnitTest11CurrentTest7DetailsEv
 4215      00
 4216 2759 488B08   		movq	(%rax), %rcx
 4217 275c 488D45C0 		leaq	-64(%rbp), %rax
 4218 2760 BA8D0200 		movl	$653, %edx
 4218      00
 4219 2765 4889CE   		movq	%rcx, %rsi
 4220 2768 4889C7   		movq	%rax, %rdi
 4221 276b E8000000 		call	_ZN8UnitTest11TestDetailsC1ERKS0_i
 4221      00
 653:testSvf2Csvf.cpp **** 		CHECK_EQUAL(expected, actual);
 4222              		.loc 3 653 0 is_stmt 0 discriminator 10
 4223 2770 E8000000 		call	_ZN8UnitTest11CurrentTest7ResultsEv
 4223      00
 4224 2775 488B00   		movq	(%rax), %rax
 4225 2778 488D4DC0 		leaq	-64(%rbp), %rcx
 4226 277c BA000000 		movl	$.LC127, %edx
 4226      00
 4227 2781 4889CE   		movq	%rcx, %rsi
 4228 2784 4889C7   		movq	%rax, %rdi
 4229 2787 E8000000 		call	_ZN8UnitTest11TestResults13OnTestFailureERKNS_11TestDetailsEPKc
 4229      00
 4230              	.LEHE131:
 4231              	.LEHB132:
 653:testSvf2Csvf.cpp **** 		CHECK_EQUAL(expected, actual);
 4232              		.loc 3 653 0 discriminator 14
 4233 278c E8000000 		call	__cxa_end_catch
 4233      00
 4234              	.LEHE132:
 4235              		.loc 3 655 0 is_stmt 1 discriminator 14
 4236 2791 EB13     		jmp	.L187
 4237              	.L186:
 4238 2793 4889C3   		movq	%rax, %rbx
 653:testSvf2Csvf.cpp **** 		CHECK_EQUAL(expected, actual);
 4239              		.loc 3 653 0
 4240 2796 E8000000 		call	__cxa_end_catch
 4240      00
 4241 279b 4889D8   		movq	%rbx, %rax
 4242 279e 4889C7   		movq	%rax, %rdi
 4243              	.LEHB133:
 4244 27a1 E8000000 		call	_Unwind_Resume
 4244      00
 4245              	.LEHE133:
 4246              	.L187:
 4247              		.loc 3 655 0
 4248 27a6 90       		nop
 4249 27a7 488B45E8 		movq	-24(%rbp), %rax
 4250 27ab 64483304 		xorq	%fs:40, %rax
 4250      25280000 
 4250      00
 4251 27b4 7405     		je	.L182
 4252 27b6 E8000000 		call	__stack_chk_fail
 4252      00
 4253              	.L182:
 4254 27bb 4883C478 		addq	$120, %rsp
 4255 27bf 5B       		popq	%rbx
 4256 27c0 5D       		popq	%rbp
 4257              		.cfi_def_cfa 7, 8
 4258 27c1 C3       		ret
 4259              		.cfi_endproc
 4260              	.LFE1091:
 4261              		.section	.gcc_except_table
 4262              		.align 4
 4263              	.LLSDA1091:
 4264 02cc FF       		.byte	0xff
 4265 02cd 03       		.byte	0x3
 4266 02ce 3D       		.uleb128 .LLSDATT1091-.LLSDATTD1091
 4267              	.LLSDATTD1091:
 4268 02cf 01       		.byte	0x1
 4269 02d0 34       		.uleb128 .LLSDACSE1091-.LLSDACSB1091
 4270              	.LLSDACSB1091:
 4271 02d1 2A       		.uleb128 .LEHB124-.LFB1091
 4272 02d2 4F       		.uleb128 .LEHE124-.LEHB124
 4273 02d3 00       		.uleb128 0
 4274 02d4 00       		.uleb128 0
 4275 02d5 79       		.uleb128 .LEHB125-.LFB1091
 4276 02d6 38       		.uleb128 .LEHE125-.LEHB125
 4277 02d7 AC02     		.uleb128 .L183-.LFB1091
 4278 02d9 01       		.uleb128 0x1
 4279 02da D401     		.uleb128 .LEHB126-.LFB1091
 4280 02dc 18       		.uleb128 .LEHE126-.LEHB126
 4281 02dd 00       		.uleb128 0
 4282 02de 00       		.uleb128 0
 4283 02df EF01     		.uleb128 .LEHB127-.LFB1091
 4284 02e1 38       		.uleb128 .LEHE127-.LEHB127
 4285 02e2 8903     		.uleb128 .L185-.LFB1091
 4286 02e4 01       		.uleb128 0x1
 4287 02e5 B402     		.uleb128 .LEHB128-.LFB1091
 4288 02e7 38       		.uleb128 .LEHE128-.LEHB128
 4289 02e8 F602     		.uleb128 .L184-.LFB1091
 4290 02ea 00       		.uleb128 0
 4291 02eb EC02     		.uleb128 .LEHB129-.LFB1091
 4292 02ed 05       		.uleb128 .LEHE129-.LEHB129
 4293 02ee 00       		.uleb128 0
 4294 02ef 00       		.uleb128 0
 4295 02f0 8403     		.uleb128 .LEHB130-.LFB1091
 4296 02f2 05       		.uleb128 .LEHE130-.LEHB130
 4297 02f3 00       		.uleb128 0
 4298 02f4 00       		.uleb128 0
 4299 02f5 9103     		.uleb128 .LEHB131-.LFB1091
 4300 02f7 38       		.uleb128 .LEHE131-.LEHB131
 4301 02f8 D003     		.uleb128 .L186-.LFB1091
 4302 02fa 00       		.uleb128 0
 4303 02fb C903     		.uleb128 .LEHB132-.LFB1091
 4304 02fd 05       		.uleb128 .LEHE132-.LEHB132
 4305 02fe 00       		.uleb128 0
 4306 02ff 00       		.uleb128 0
 4307 0300 DE03     		.uleb128 .LEHB133-.LFB1091
 4308 0302 05       		.uleb128 .LEHE133-.LEHB133
 4309 0303 00       		.uleb128 0
 4310 0304 00       		.uleb128 0
 4311              	.LLSDACSE1091:
 4312 0305 01       		.byte	0x1
 4313 0306 00       		.byte	0
 4314 0307 00       		.align 4
 4315 0308 00000000 		.long	0
 4316              	
 4317              	.LLSDATT1091:
 4318              		.text
 4320              		.section	.rodata
 4321              	.LC128:
 4322 0a55 46504741 		.string	"FPGALink_testProcessIndex"
 4322      4C696E6B 
 4322      5F746573 
 4322      7450726F 
 4322      63657373 
 4323              		.section	.text._ZN29TestFPGALink_testProcessIndexC2Ev,"axG",@progbits,_ZN29TestFPGALink_testProces
 4324              		.align 2
 4325              		.weak	_ZN29TestFPGALink_testProcessIndexC2Ev
 4327              	_ZN29TestFPGALink_testProcessIndexC2Ev:
 4328              	.LFB1093:
 656:testSvf2Csvf.cpp **** 
 657:testSvf2Csvf.cpp **** TEST(FPGALink_testProcessIndex) {
 4329              		.loc 3 657 0
 4330              		.cfi_startproc
 4331 0000 55       		pushq	%rbp
 4332              		.cfi_def_cfa_offset 16
 4333              		.cfi_offset 6, -16
 4334 0001 4889E5   		movq	%rsp, %rbp
 4335              		.cfi_def_cfa_register 6
 4336 0004 4883EC10 		subq	$16, %rsp
 4337 0008 48897DF8 		movq	%rdi, -8(%rbp)
 4338              	.LBB9:
 4339              		.loc 3 657 0
 4340 000c E8000000 		call	_ZN13UnitTestSuite12GetSuiteNameEv
 4340      00
 4341 0011 4889C2   		movq	%rax, %rdx
 4342 0014 488B45F8 		movq	-8(%rbp), %rax
 4343 0018 41B89102 		movl	$657, %r8d
 4343      0000
 4344 001e B9000000 		movl	$.LC5, %ecx
 4344      00
 4345 0023 BE000000 		movl	$.LC128, %esi
 4345      00
 4346 0028 4889C7   		movq	%rax, %rdi
 4347 002b E8000000 		call	_ZN8UnitTest4TestC2EPKcS2_S2_i
 4347      00
 4348 0030 BA000000 		movl	$_ZTV29TestFPGALink_testProcessIndex+16, %edx
 4348      00
 4349 0035 488B45F8 		movq	-8(%rbp), %rax
 4350 0039 488910   		movq	%rdx, (%rax)
 4351              	.LBE9:
 4352 003c 90       		nop
 4353 003d C9       		leave
 4354              		.cfi_def_cfa 7, 8
 4355 003e C3       		ret
 4356              		.cfi_endproc
 4357              	.LFE1093:
 4359              		.weak	_ZN29TestFPGALink_testProcessIndexC1Ev
 4360              		.set	_ZN29TestFPGALink_testProcessIndexC1Ev,_ZN29TestFPGALink_testProcessIndexC2Ev
 4361              		.globl	testFPGALink_testProcessIndexInstance
 4362              		.bss
 4363 00b9 00000000 		.align 32
 4363      000000
 4366              	testFPGALink_testProcessIndexInstance:
 4367 00c0 00000000 		.zero	56
 4367      00000000 
 4367      00000000 
 4367      00000000 
 4367      00000000 
 4368              		.globl	adderFPGALink_testProcessIndex
 4371              	adderFPGALink_testProcessIndex:
 4372 00f8 00       		.zero	1
 4373              		.section	.rodata
 4374              	.LC129:
 4375 0a6f 44617461 		.string	"Dataset %d\n"
 4375      73657420 
 4375      25640A00 
 4376              	.LC130:
 4377 0a7b 2A2A7045 		.string	"**pExpected == XCOMPLETE"
 4377      78706563 
 4377      74656420 
 4377      3D3D2058 
 4377      434F4D50 
 4378              	.LC131:
 4379 0a94 2A2A7041 		.string	"**pActual == XCOMPLETE"
 4379      63747561 
 4379      6C203D3D 
 4379      2058434F 
 4379      4D504C45 
 4380 0aab 00000000 		.align 8
 4380      00
 4381              	.LC132:
 4382 0ab0 556E6861 		.string	"Unhandled exception in CHECK(**pExpected == XCOMPLETE)"
 4382      6E646C65 
 4382      64206578 
 4382      63657074 
 4382      696F6E20 
 4383 0ae7 00       		.align 8
 4384              	.LC133:
 4385 0ae8 556E6861 		.string	"Unhandled exception in CHECK(**pActual == XCOMPLETE)"
 4385      6E646C65 
 4385      64206578 
 4385      63657074 
 4385      696F6E20 
 4386              		.text
 4387              		.align 2
 4388              		.globl	_ZNK29TestFPGALink_testProcessIndex7RunImplEv
 4390              	_ZNK29TestFPGALink_testProcessIndex7RunImplEv:
 4391              	.LFB1095:
 4392              		.loc 3 657 0
 4393              		.cfi_startproc
 4394              		.cfi_personality 0x3,__gxx_personality_v0
 4395              		.cfi_lsda 0x3,.LLSDA1095
 4396 27c2 55       		pushq	%rbp
 4397              		.cfi_def_cfa_offset 16
 4398              		.cfi_offset 6, -16
 4399 27c3 4889E5   		movq	%rsp, %rbp
 4400              		.cfi_def_cfa_register 6
 4401 27c6 53       		pushq	%rbx
 4402 27c7 4881EC08 		subq	$9480, %rsp
 4402      250000
 4403              		.cfi_offset 3, -24
 4404 27ce 4889BDF8 		movq	%rdi, -9480(%rbp)
 4404      DAFFFF
 4405              		.loc 3 657 0
 4406 27d5 64488B04 		movq	%fs:40, %rax
 4406      25280000 
 4406      00
 4407 27de 488945E8 		movq	%rax, -24(%rbp)
 4408 27e2 31C0     		xorl	%eax, %eax
 658:testSvf2Csvf.cpp **** 	int i, j, num;
 659:testSvf2Csvf.cpp **** 	const CmdPtr *pExpected;
 660:testSvf2Csvf.cpp **** 	const CmdPtr *pActual;
 661:testSvf2Csvf.cpp **** 	CmdArray xruntest0  = {XRUNTEST, 0x00, 0x00, 0x00, 0x00};
 4409              		.loc 3 661 0
 4410 27e4 C645C004 		movb	$4, -64(%rbp)
 4411 27e8 C645C100 		movb	$0, -63(%rbp)
 4412 27ec C645C200 		movb	$0, -62(%rbp)
 4413 27f0 C645C300 		movb	$0, -61(%rbp)
 4414 27f4 C645C400 		movb	$0, -60(%rbp)
 662:testSvf2Csvf.cpp **** 	CmdArray xruntest1  = {XRUNTEST, 0x00, 0x00, 0x00, 0x0A};
 4415              		.loc 3 662 0
 4416 27f8 C645D004 		movb	$4, -48(%rbp)
 4417 27fc C645D100 		movb	$0, -47(%rbp)
 4418 2800 C645D200 		movb	$0, -46(%rbp)
 4419 2804 C645D300 		movb	$0, -45(%rbp)
 4420 2808 C645D40A 		movb	$10, -44(%rbp)
 663:testSvf2Csvf.cpp **** 	CmdArray xruntest2  = {XRUNTEST, 0x00, 0x00, 0x27, 0x10};
 4421              		.loc 3 663 0
 4422 280c C645E004 		movb	$4, -32(%rbp)
 4423 2810 C645E100 		movb	$0, -31(%rbp)
 4424 2814 C645E200 		movb	$0, -30(%rbp)
 4425 2818 C645E327 		movb	$39, -29(%rbp)
 4426 281c C645E410 		movb	$16, -28(%rbp)
 664:testSvf2Csvf.cpp **** 	CmdArray xcomplete = {XCOMPLETE};
 4427              		.loc 3 664 0
 4428 2820 C645BA00 		movb	$0, -70(%rbp)
 665:testSvf2Csvf.cpp **** 	CmdArray xsdr      = {XSDR};
 4429              		.loc 3 665 0
 4430 2824 C645BB03 		movb	$3, -69(%rbp)
 666:testSvf2Csvf.cpp **** 	CmdArray xsdrsize  = {XSDRSIZE};
 4431              		.loc 3 666 0
 4432 2828 C645BC08 		movb	$8, -68(%rbp)
 667:testSvf2Csvf.cpp **** 	CmdArray xsdrtdo   = {XSDRTDO};
 4433              		.loc 3 667 0
 4434 282c C645BD09 		movb	$9, -67(%rbp)
 668:testSvf2Csvf.cpp **** 	CmdArray xsir      = {XSIR};
 4435              		.loc 3 668 0
 4436 2830 C645BE02 		movb	$2, -66(%rbp)
 669:testSvf2Csvf.cpp **** 	CmdArray xtdomask  = {XTDOMASK};
 4437              		.loc 3 669 0
 4438 2834 C645BF01 		movb	$1, -65(%rbp)
 670:testSvf2Csvf.cpp **** 	const CmdPtr src0[] = {
 671:testSvf2Csvf.cpp **** 		xsir,
 672:testSvf2Csvf.cpp **** 		xsdrsize,
 673:testSvf2Csvf.cpp **** 		xtdomask,
 674:testSvf2Csvf.cpp **** 		xsdrtdo,
 675:testSvf2Csvf.cpp **** 		xsir,
 676:testSvf2Csvf.cpp **** 		xsdrtdo,
 677:testSvf2Csvf.cpp **** 		xsir,
 678:testSvf2Csvf.cpp **** 		xsdrtdo,
 679:testSvf2Csvf.cpp **** 		xsir,
 680:testSvf2Csvf.cpp **** 		xsir,
 681:testSvf2Csvf.cpp **** 		xsdrtdo,
 682:testSvf2Csvf.cpp **** 		xsir,
 683:testSvf2Csvf.cpp **** 		xruntest1,
 684:testSvf2Csvf.cpp **** 		xsir,
 685:testSvf2Csvf.cpp **** 		xsir,
 686:testSvf2Csvf.cpp **** 		xruntest2,
 687:testSvf2Csvf.cpp **** 		xsir,
 688:testSvf2Csvf.cpp **** 		xsdrsize,
 689:testSvf2Csvf.cpp **** 		xsdr,
 690:testSvf2Csvf.cpp **** 		xruntest1,
 691:testSvf2Csvf.cpp **** 		xsir,
 692:testSvf2Csvf.cpp **** 		xsdrsize,
 693:testSvf2Csvf.cpp **** 		xsdr,
 694:testSvf2Csvf.cpp **** 		xsdr,
 695:testSvf2Csvf.cpp **** 		xsdr,
 696:testSvf2Csvf.cpp **** 		xsdr,
 697:testSvf2Csvf.cpp **** 		xsdr,
 698:testSvf2Csvf.cpp **** 		xsdr,
 699:testSvf2Csvf.cpp **** 		xsdr,
 700:testSvf2Csvf.cpp **** 		xsdr,
 701:testSvf2Csvf.cpp **** 		xsdr,
 702:testSvf2Csvf.cpp **** 		xsdr,
 703:testSvf2Csvf.cpp **** 		xcomplete
 704:testSvf2Csvf.cpp **** 	};
 4439              		.loc 3 704 0
 4440 2838 488D45BE 		leaq	-66(%rbp), %rax
 4441 283c 48898570 		movq	%rax, -8848(%rbp)
 4441      DDFFFF
 4442 2843 488D45BC 		leaq	-68(%rbp), %rax
 4443 2847 48898578 		movq	%rax, -8840(%rbp)
 4443      DDFFFF
 4444 284e 488D45BF 		leaq	-65(%rbp), %rax
 4445 2852 48898580 		movq	%rax, -8832(%rbp)
 4445      DDFFFF
 4446 2859 488D45BD 		leaq	-67(%rbp), %rax
 4447 285d 48898588 		movq	%rax, -8824(%rbp)
 4447      DDFFFF
 4448 2864 488D45BE 		leaq	-66(%rbp), %rax
 4449 2868 48898590 		movq	%rax, -8816(%rbp)
 4449      DDFFFF
 4450 286f 488D45BD 		leaq	-67(%rbp), %rax
 4451 2873 48898598 		movq	%rax, -8808(%rbp)
 4451      DDFFFF
 4452 287a 488D45BE 		leaq	-66(%rbp), %rax
 4453 287e 488985A0 		movq	%rax, -8800(%rbp)
 4453      DDFFFF
 4454 2885 488D45BD 		leaq	-67(%rbp), %rax
 4455 2889 488985A8 		movq	%rax, -8792(%rbp)
 4455      DDFFFF
 4456 2890 488D45BE 		leaq	-66(%rbp), %rax
 4457 2894 488985B0 		movq	%rax, -8784(%rbp)
 4457      DDFFFF
 4458 289b 488D45BE 		leaq	-66(%rbp), %rax
 4459 289f 488985B8 		movq	%rax, -8776(%rbp)
 4459      DDFFFF
 4460 28a6 488D45BD 		leaq	-67(%rbp), %rax
 4461 28aa 488985C0 		movq	%rax, -8768(%rbp)
 4461      DDFFFF
 4462 28b1 488D45BE 		leaq	-66(%rbp), %rax
 4463 28b5 488985C8 		movq	%rax, -8760(%rbp)
 4463      DDFFFF
 4464 28bc 488D45D0 		leaq	-48(%rbp), %rax
 4465 28c0 488985D0 		movq	%rax, -8752(%rbp)
 4465      DDFFFF
 4466 28c7 488D45BE 		leaq	-66(%rbp), %rax
 4467 28cb 488985D8 		movq	%rax, -8744(%rbp)
 4467      DDFFFF
 4468 28d2 488D45BE 		leaq	-66(%rbp), %rax
 4469 28d6 488985E0 		movq	%rax, -8736(%rbp)
 4469      DDFFFF
 4470 28dd 488D45E0 		leaq	-32(%rbp), %rax
 4471 28e1 488985E8 		movq	%rax, -8728(%rbp)
 4471      DDFFFF
 4472 28e8 488D45BE 		leaq	-66(%rbp), %rax
 4473 28ec 488985F0 		movq	%rax, -8720(%rbp)
 4473      DDFFFF
 4474 28f3 488D45BC 		leaq	-68(%rbp), %rax
 4475 28f7 488985F8 		movq	%rax, -8712(%rbp)
 4475      DDFFFF
 4476 28fe 488D45BB 		leaq	-69(%rbp), %rax
 4477 2902 48898500 		movq	%rax, -8704(%rbp)
 4477      DEFFFF
 4478 2909 488D45D0 		leaq	-48(%rbp), %rax
 4479 290d 48898508 		movq	%rax, -8696(%rbp)
 4479      DEFFFF
 4480 2914 488D45BE 		leaq	-66(%rbp), %rax
 4481 2918 48898510 		movq	%rax, -8688(%rbp)
 4481      DEFFFF
 4482 291f 488D45BC 		leaq	-68(%rbp), %rax
 4483 2923 48898518 		movq	%rax, -8680(%rbp)
 4483      DEFFFF
 4484 292a 488D45BB 		leaq	-69(%rbp), %rax
 4485 292e 48898520 		movq	%rax, -8672(%rbp)
 4485      DEFFFF
 4486 2935 488D45BB 		leaq	-69(%rbp), %rax
 4487 2939 48898528 		movq	%rax, -8664(%rbp)
 4487      DEFFFF
 4488 2940 488D45BB 		leaq	-69(%rbp), %rax
 4489 2944 48898530 		movq	%rax, -8656(%rbp)
 4489      DEFFFF
 4490 294b 488D45BB 		leaq	-69(%rbp), %rax
 4491 294f 48898538 		movq	%rax, -8648(%rbp)
 4491      DEFFFF
 4492 2956 488D45BB 		leaq	-69(%rbp), %rax
 4493 295a 48898540 		movq	%rax, -8640(%rbp)
 4493      DEFFFF
 4494 2961 488D45BB 		leaq	-69(%rbp), %rax
 4495 2965 48898548 		movq	%rax, -8632(%rbp)
 4495      DEFFFF
 4496 296c 488D45BB 		leaq	-69(%rbp), %rax
 4497 2970 48898550 		movq	%rax, -8624(%rbp)
 4497      DEFFFF
 4498 2977 488D45BB 		leaq	-69(%rbp), %rax
 4499 297b 48898558 		movq	%rax, -8616(%rbp)
 4499      DEFFFF
 4500 2982 488D45BB 		leaq	-69(%rbp), %rax
 4501 2986 48898560 		movq	%rax, -8608(%rbp)
 4501      DEFFFF
 4502 298d 488D45BB 		leaq	-69(%rbp), %rax
 4503 2991 48898568 		movq	%rax, -8600(%rbp)
 4503      DEFFFF
 4504 2998 488D45BA 		leaq	-70(%rbp), %rax
 4505 299c 48898570 		movq	%rax, -8592(%rbp)
 4505      DEFFFF
 705:testSvf2Csvf.cpp **** 	const CmdPtr exp0[] = {
 706:testSvf2Csvf.cpp **** 		xruntest0,
 707:testSvf2Csvf.cpp **** 		xsir,
 708:testSvf2Csvf.cpp **** 		xsdrsize,
 709:testSvf2Csvf.cpp **** 		xtdomask,
 710:testSvf2Csvf.cpp **** 		xsdrtdo,
 711:testSvf2Csvf.cpp **** 		xsir,
 712:testSvf2Csvf.cpp **** 		xsdrtdo,
 713:testSvf2Csvf.cpp **** 		xsir,
 714:testSvf2Csvf.cpp **** 		xsdrtdo,
 715:testSvf2Csvf.cpp **** 		xsir,
 716:testSvf2Csvf.cpp **** 		xsir,
 717:testSvf2Csvf.cpp **** 		xsdrtdo,
 718:testSvf2Csvf.cpp **** 		xruntest1,
 719:testSvf2Csvf.cpp **** 		xsir,
 720:testSvf2Csvf.cpp **** 		xruntest0,
 721:testSvf2Csvf.cpp **** 		xsir,
 722:testSvf2Csvf.cpp **** 		xruntest2,
 723:testSvf2Csvf.cpp **** 		xsir,
 724:testSvf2Csvf.cpp **** 		xruntest0,
 725:testSvf2Csvf.cpp **** 		xsir,
 726:testSvf2Csvf.cpp **** 		xruntest1,
 727:testSvf2Csvf.cpp **** 		xsdrsize,
 728:testSvf2Csvf.cpp **** 		xsdr,
 729:testSvf2Csvf.cpp **** 		xruntest0,
 730:testSvf2Csvf.cpp **** 		xsir,
 731:testSvf2Csvf.cpp **** 		xsdrsize,
 732:testSvf2Csvf.cpp **** 		xsdr,
 733:testSvf2Csvf.cpp **** 		xsdr,
 734:testSvf2Csvf.cpp **** 		xsdr,
 735:testSvf2Csvf.cpp **** 		xsdr,
 736:testSvf2Csvf.cpp **** 		xsdr,
 737:testSvf2Csvf.cpp **** 		xsdr,
 738:testSvf2Csvf.cpp **** 		xsdr,
 739:testSvf2Csvf.cpp **** 		xsdr,
 740:testSvf2Csvf.cpp **** 		xsdr,
 741:testSvf2Csvf.cpp **** 		xsdr,
 742:testSvf2Csvf.cpp **** 		xcomplete
 743:testSvf2Csvf.cpp **** 	};
 4506              		.loc 3 743 0
 4507 29a3 488D45C0 		leaq	-64(%rbp), %rax
 4508 29a7 48898580 		movq	%rax, -8576(%rbp)
 4508      DEFFFF
 4509 29ae 488D45BE 		leaq	-66(%rbp), %rax
 4510 29b2 48898588 		movq	%rax, -8568(%rbp)
 4510      DEFFFF
 4511 29b9 488D45BC 		leaq	-68(%rbp), %rax
 4512 29bd 48898590 		movq	%rax, -8560(%rbp)
 4512      DEFFFF
 4513 29c4 488D45BF 		leaq	-65(%rbp), %rax
 4514 29c8 48898598 		movq	%rax, -8552(%rbp)
 4514      DEFFFF
 4515 29cf 488D45BD 		leaq	-67(%rbp), %rax
 4516 29d3 488985A0 		movq	%rax, -8544(%rbp)
 4516      DEFFFF
 4517 29da 488D45BE 		leaq	-66(%rbp), %rax
 4518 29de 488985A8 		movq	%rax, -8536(%rbp)
 4518      DEFFFF
 4519 29e5 488D45BD 		leaq	-67(%rbp), %rax
 4520 29e9 488985B0 		movq	%rax, -8528(%rbp)
 4520      DEFFFF
 4521 29f0 488D45BE 		leaq	-66(%rbp), %rax
 4522 29f4 488985B8 		movq	%rax, -8520(%rbp)
 4522      DEFFFF
 4523 29fb 488D45BD 		leaq	-67(%rbp), %rax
 4524 29ff 488985C0 		movq	%rax, -8512(%rbp)
 4524      DEFFFF
 4525 2a06 488D45BE 		leaq	-66(%rbp), %rax
 4526 2a0a 488985C8 		movq	%rax, -8504(%rbp)
 4526      DEFFFF
 4527 2a11 488D45BE 		leaq	-66(%rbp), %rax
 4528 2a15 488985D0 		movq	%rax, -8496(%rbp)
 4528      DEFFFF
 4529 2a1c 488D45BD 		leaq	-67(%rbp), %rax
 4530 2a20 488985D8 		movq	%rax, -8488(%rbp)
 4530      DEFFFF
 4531 2a27 488D45D0 		leaq	-48(%rbp), %rax
 4532 2a2b 488985E0 		movq	%rax, -8480(%rbp)
 4532      DEFFFF
 4533 2a32 488D45BE 		leaq	-66(%rbp), %rax
 4534 2a36 488985E8 		movq	%rax, -8472(%rbp)
 4534      DEFFFF
 4535 2a3d 488D45C0 		leaq	-64(%rbp), %rax
 4536 2a41 488985F0 		movq	%rax, -8464(%rbp)
 4536      DEFFFF
 4537 2a48 488D45BE 		leaq	-66(%rbp), %rax
 4538 2a4c 488985F8 		movq	%rax, -8456(%rbp)
 4538      DEFFFF
 4539 2a53 488D45E0 		leaq	-32(%rbp), %rax
 4540 2a57 48898500 		movq	%rax, -8448(%rbp)
 4540      DFFFFF
 4541 2a5e 488D45BE 		leaq	-66(%rbp), %rax
 4542 2a62 48898508 		movq	%rax, -8440(%rbp)
 4542      DFFFFF
 4543 2a69 488D45C0 		leaq	-64(%rbp), %rax
 4544 2a6d 48898510 		movq	%rax, -8432(%rbp)
 4544      DFFFFF
 4545 2a74 488D45BE 		leaq	-66(%rbp), %rax
 4546 2a78 48898518 		movq	%rax, -8424(%rbp)
 4546      DFFFFF
 4547 2a7f 488D45D0 		leaq	-48(%rbp), %rax
 4548 2a83 48898520 		movq	%rax, -8416(%rbp)
 4548      DFFFFF
 4549 2a8a 488D45BC 		leaq	-68(%rbp), %rax
 4550 2a8e 48898528 		movq	%rax, -8408(%rbp)
 4550      DFFFFF
 4551 2a95 488D45BB 		leaq	-69(%rbp), %rax
 4552 2a99 48898530 		movq	%rax, -8400(%rbp)
 4552      DFFFFF
 4553 2aa0 488D45C0 		leaq	-64(%rbp), %rax
 4554 2aa4 48898538 		movq	%rax, -8392(%rbp)
 4554      DFFFFF
 4555 2aab 488D45BE 		leaq	-66(%rbp), %rax
 4556 2aaf 48898540 		movq	%rax, -8384(%rbp)
 4556      DFFFFF
 4557 2ab6 488D45BC 		leaq	-68(%rbp), %rax
 4558 2aba 48898548 		movq	%rax, -8376(%rbp)
 4558      DFFFFF
 4559 2ac1 488D45BB 		leaq	-69(%rbp), %rax
 4560 2ac5 48898550 		movq	%rax, -8368(%rbp)
 4560      DFFFFF
 4561 2acc 488D45BB 		leaq	-69(%rbp), %rax
 4562 2ad0 48898558 		movq	%rax, -8360(%rbp)
 4562      DFFFFF
 4563 2ad7 488D45BB 		leaq	-69(%rbp), %rax
 4564 2adb 48898560 		movq	%rax, -8352(%rbp)
 4564      DFFFFF
 4565 2ae2 488D45BB 		leaq	-69(%rbp), %rax
 4566 2ae6 48898568 		movq	%rax, -8344(%rbp)
 4566      DFFFFF
 4567 2aed 488D45BB 		leaq	-69(%rbp), %rax
 4568 2af1 48898570 		movq	%rax, -8336(%rbp)
 4568      DFFFFF
 4569 2af8 488D45BB 		leaq	-69(%rbp), %rax
 4570 2afc 48898578 		movq	%rax, -8328(%rbp)
 4570      DFFFFF
 4571 2b03 488D45BB 		leaq	-69(%rbp), %rax
 4572 2b07 48898580 		movq	%rax, -8320(%rbp)
 4572      DFFFFF
 4573 2b0e 488D45BB 		leaq	-69(%rbp), %rax
 4574 2b12 48898588 		movq	%rax, -8312(%rbp)
 4574      DFFFFF
 4575 2b19 488D45BB 		leaq	-69(%rbp), %rax
 4576 2b1d 48898590 		movq	%rax, -8304(%rbp)
 4576      DFFFFF
 4577 2b24 488D45BB 		leaq	-69(%rbp), %rax
 4578 2b28 48898598 		movq	%rax, -8296(%rbp)
 4578      DFFFFF
 4579 2b2f 488D45BA 		leaq	-70(%rbp), %rax
 4580 2b33 488985A0 		movq	%rax, -8288(%rbp)
 4580      DFFFFF
 744:testSvf2Csvf.cpp **** 	const CmdPtr src1[] = {
 745:testSvf2Csvf.cpp **** 		xsir,
 746:testSvf2Csvf.cpp **** 		xsdrsize,
 747:testSvf2Csvf.cpp **** 		xsdr,
 748:testSvf2Csvf.cpp **** 		xsdr,
 749:testSvf2Csvf.cpp **** 		xcomplete
 750:testSvf2Csvf.cpp **** 	};
 4581              		.loc 3 750 0
 4582 2b3a 488D45BE 		leaq	-66(%rbp), %rax
 4583 2b3e 48898540 		movq	%rax, -9408(%rbp)
 4583      DBFFFF
 4584 2b45 488D45BC 		leaq	-68(%rbp), %rax
 4585 2b49 48898548 		movq	%rax, -9400(%rbp)
 4585      DBFFFF
 4586 2b50 488D45BB 		leaq	-69(%rbp), %rax
 4587 2b54 48898550 		movq	%rax, -9392(%rbp)
 4587      DBFFFF
 4588 2b5b 488D45BB 		leaq	-69(%rbp), %rax
 4589 2b5f 48898558 		movq	%rax, -9384(%rbp)
 4589      DBFFFF
 4590 2b66 488D45BA 		leaq	-70(%rbp), %rax
 4591 2b6a 48898560 		movq	%rax, -9376(%rbp)
 4591      DBFFFF
 751:testSvf2Csvf.cpp **** 	const CmdPtr exp1[] = {
 752:testSvf2Csvf.cpp **** 		xruntest0,
 753:testSvf2Csvf.cpp **** 		xsir,
 754:testSvf2Csvf.cpp **** 		xsdrsize,
 755:testSvf2Csvf.cpp **** 		xsdr,
 756:testSvf2Csvf.cpp **** 		xsdr,
 757:testSvf2Csvf.cpp **** 		xcomplete
 758:testSvf2Csvf.cpp **** 	};
 4592              		.loc 3 758 0
 4593 2b71 488D45C0 		leaq	-64(%rbp), %rax
 4594 2b75 488985D0 		movq	%rax, -9264(%rbp)
 4594      DBFFFF
 4595 2b7c 488D45BE 		leaq	-66(%rbp), %rax
 4596 2b80 488985D8 		movq	%rax, -9256(%rbp)
 4596      DBFFFF
 4597 2b87 488D45BC 		leaq	-68(%rbp), %rax
 4598 2b8b 488985E0 		movq	%rax, -9248(%rbp)
 4598      DBFFFF
 4599 2b92 488D45BB 		leaq	-69(%rbp), %rax
 4600 2b96 488985E8 		movq	%rax, -9240(%rbp)
 4600      DBFFFF
 4601 2b9d 488D45BB 		leaq	-69(%rbp), %rax
 4602 2ba1 488985F0 		movq	%rax, -9232(%rbp)
 4602      DBFFFF
 4603 2ba8 488D45BA 		leaq	-70(%rbp), %rax
 4604 2bac 488985F8 		movq	%rax, -9224(%rbp)
 4604      DBFFFF
 759:testSvf2Csvf.cpp **** 	const CmdPtr src2[] = {
 760:testSvf2Csvf.cpp **** 		xsir,
 761:testSvf2Csvf.cpp **** 		xsdrsize,
 762:testSvf2Csvf.cpp **** 		xsdr,
 763:testSvf2Csvf.cpp **** 		xsdr,
 764:testSvf2Csvf.cpp **** 		xruntest1,
 765:testSvf2Csvf.cpp **** 		xcomplete
 766:testSvf2Csvf.cpp **** 	};
 4605              		.loc 3 766 0
 4606 2bb3 488D45BE 		leaq	-66(%rbp), %rax
 4607 2bb7 48898500 		movq	%rax, -9216(%rbp)
 4607      DCFFFF
 4608 2bbe 488D45BC 		leaq	-68(%rbp), %rax
 4609 2bc2 48898508 		movq	%rax, -9208(%rbp)
 4609      DCFFFF
 4610 2bc9 488D45BB 		leaq	-69(%rbp), %rax
 4611 2bcd 48898510 		movq	%rax, -9200(%rbp)
 4611      DCFFFF
 4612 2bd4 488D45BB 		leaq	-69(%rbp), %rax
 4613 2bd8 48898518 		movq	%rax, -9192(%rbp)
 4613      DCFFFF
 4614 2bdf 488D45D0 		leaq	-48(%rbp), %rax
 4615 2be3 48898520 		movq	%rax, -9184(%rbp)
 4615      DCFFFF
 4616 2bea 488D45BA 		leaq	-70(%rbp), %rax
 4617 2bee 48898528 		movq	%rax, -9176(%rbp)
 4617      DCFFFF
 767:testSvf2Csvf.cpp **** 	const CmdPtr exp2[] = {
 768:testSvf2Csvf.cpp **** 		xruntest0,
 769:testSvf2Csvf.cpp **** 		xsir,
 770:testSvf2Csvf.cpp **** 		xsdrsize,
 771:testSvf2Csvf.cpp **** 		xsdr,
 772:testSvf2Csvf.cpp **** 		xruntest1,
 773:testSvf2Csvf.cpp **** 		xsdr,
 774:testSvf2Csvf.cpp **** 		xcomplete
 775:testSvf2Csvf.cpp **** 	};
 4618              		.loc 3 775 0
 4619 2bf5 488D45C0 		leaq	-64(%rbp), %rax
 4620 2bf9 48898560 		movq	%rax, -9120(%rbp)
 4620      DCFFFF
 4621 2c00 488D45BE 		leaq	-66(%rbp), %rax
 4622 2c04 48898568 		movq	%rax, -9112(%rbp)
 4622      DCFFFF
 4623 2c0b 488D45BC 		leaq	-68(%rbp), %rax
 4624 2c0f 48898570 		movq	%rax, -9104(%rbp)
 4624      DCFFFF
 4625 2c16 488D45BB 		leaq	-69(%rbp), %rax
 4626 2c1a 48898578 		movq	%rax, -9096(%rbp)
 4626      DCFFFF
 4627 2c21 488D45D0 		leaq	-48(%rbp), %rax
 4628 2c25 48898580 		movq	%rax, -9088(%rbp)
 4628      DCFFFF
 4629 2c2c 488D45BB 		leaq	-69(%rbp), %rax
 4630 2c30 48898588 		movq	%rax, -9080(%rbp)
 4630      DCFFFF
 4631 2c37 488D45BA 		leaq	-70(%rbp), %rax
 4632 2c3b 48898590 		movq	%rax, -9072(%rbp)
 4632      DCFFFF
 776:testSvf2Csvf.cpp **** 	const CmdPtr src3[] = {
 777:testSvf2Csvf.cpp **** 		xsir,
 778:testSvf2Csvf.cpp **** 		xsdrsize,
 779:testSvf2Csvf.cpp **** 		xsdr,
 780:testSvf2Csvf.cpp **** 		xruntest1,
 781:testSvf2Csvf.cpp **** 		xsdr,
 782:testSvf2Csvf.cpp **** 		xcomplete
 783:testSvf2Csvf.cpp **** 	};
 4633              		.loc 3 783 0
 4634 2c42 488D45BE 		leaq	-66(%rbp), %rax
 4635 2c46 48898530 		movq	%rax, -9168(%rbp)
 4635      DCFFFF
 4636 2c4d 488D45BC 		leaq	-68(%rbp), %rax
 4637 2c51 48898538 		movq	%rax, -9160(%rbp)
 4637      DCFFFF
 4638 2c58 488D45BB 		leaq	-69(%rbp), %rax
 4639 2c5c 48898540 		movq	%rax, -9152(%rbp)
 4639      DCFFFF
 4640 2c63 488D45D0 		leaq	-48(%rbp), %rax
 4641 2c67 48898548 		movq	%rax, -9144(%rbp)
 4641      DCFFFF
 4642 2c6e 488D45BB 		leaq	-69(%rbp), %rax
 4643 2c72 48898550 		movq	%rax, -9136(%rbp)
 4643      DCFFFF
 4644 2c79 488D45BA 		leaq	-70(%rbp), %rax
 4645 2c7d 48898558 		movq	%rax, -9128(%rbp)
 4645      DCFFFF
 784:testSvf2Csvf.cpp **** 	const CmdPtr exp3[] = {
 785:testSvf2Csvf.cpp **** 		xruntest0,
 786:testSvf2Csvf.cpp **** 		xsir,
 787:testSvf2Csvf.cpp **** 		xruntest1,
 788:testSvf2Csvf.cpp **** 		xsdrsize,
 789:testSvf2Csvf.cpp **** 		xsdr,
 790:testSvf2Csvf.cpp **** 		xruntest0,
 791:testSvf2Csvf.cpp **** 		xsdr,
 792:testSvf2Csvf.cpp **** 		xcomplete
 793:testSvf2Csvf.cpp **** 	};
 4646              		.loc 3 793 0
 4647 2c84 488D45C0 		leaq	-64(%rbp), %rax
 4648 2c88 488985A0 		movq	%rax, -9056(%rbp)
 4648      DCFFFF
 4649 2c8f 488D45BE 		leaq	-66(%rbp), %rax
 4650 2c93 488985A8 		movq	%rax, -9048(%rbp)
 4650      DCFFFF
 4651 2c9a 488D45D0 		leaq	-48(%rbp), %rax
 4652 2c9e 488985B0 		movq	%rax, -9040(%rbp)
 4652      DCFFFF
 4653 2ca5 488D45BC 		leaq	-68(%rbp), %rax
 4654 2ca9 488985B8 		movq	%rax, -9032(%rbp)
 4654      DCFFFF
 4655 2cb0 488D45BB 		leaq	-69(%rbp), %rax
 4656 2cb4 488985C0 		movq	%rax, -9024(%rbp)
 4656      DCFFFF
 4657 2cbb 488D45C0 		leaq	-64(%rbp), %rax
 4658 2cbf 488985C8 		movq	%rax, -9016(%rbp)
 4658      DCFFFF
 4659 2cc6 488D45BB 		leaq	-69(%rbp), %rax
 4660 2cca 488985D0 		movq	%rax, -9008(%rbp)
 4660      DCFFFF
 4661 2cd1 488D45BA 		leaq	-70(%rbp), %rax
 4662 2cd5 488985D8 		movq	%rax, -9000(%rbp)
 4662      DCFFFF
 794:testSvf2Csvf.cpp **** 	const CmdPtr src4[] = {
 795:testSvf2Csvf.cpp **** 		xsir,
 796:testSvf2Csvf.cpp **** 		xsdrsize,
 797:testSvf2Csvf.cpp **** 		xtdomask,
 798:testSvf2Csvf.cpp **** 		xsdrtdo,
 799:testSvf2Csvf.cpp **** 		xsdrsize,
 800:testSvf2Csvf.cpp **** 		xsdr,
 801:testSvf2Csvf.cpp **** 		xruntest1,
 802:testSvf2Csvf.cpp **** 		xcomplete
 803:testSvf2Csvf.cpp **** 	};
 4663              		.loc 3 803 0
 4664 2cdc 488D45BE 		leaq	-66(%rbp), %rax
 4665 2ce0 488985E0 		movq	%rax, -8992(%rbp)
 4665      DCFFFF
 4666 2ce7 488D45BC 		leaq	-68(%rbp), %rax
 4667 2ceb 488985E8 		movq	%rax, -8984(%rbp)
 4667      DCFFFF
 4668 2cf2 488D45BF 		leaq	-65(%rbp), %rax
 4669 2cf6 488985F0 		movq	%rax, -8976(%rbp)
 4669      DCFFFF
 4670 2cfd 488D45BD 		leaq	-67(%rbp), %rax
 4671 2d01 488985F8 		movq	%rax, -8968(%rbp)
 4671      DCFFFF
 4672 2d08 488D45BC 		leaq	-68(%rbp), %rax
 4673 2d0c 48898500 		movq	%rax, -8960(%rbp)
 4673      DDFFFF
 4674 2d13 488D45BB 		leaq	-69(%rbp), %rax
 4675 2d17 48898508 		movq	%rax, -8952(%rbp)
 4675      DDFFFF
 4676 2d1e 488D45D0 		leaq	-48(%rbp), %rax
 4677 2d22 48898510 		movq	%rax, -8944(%rbp)
 4677      DDFFFF
 4678 2d29 488D45BA 		leaq	-70(%rbp), %rax
 4679 2d2d 48898518 		movq	%rax, -8936(%rbp)
 4679      DDFFFF
 804:testSvf2Csvf.cpp **** 	const CmdPtr exp4[] = {
 805:testSvf2Csvf.cpp **** 		xruntest0,
 806:testSvf2Csvf.cpp **** 		xsir,
 807:testSvf2Csvf.cpp **** 		xsdrsize,
 808:testSvf2Csvf.cpp **** 		xtdomask,
 809:testSvf2Csvf.cpp **** 		xsdrtdo,
 810:testSvf2Csvf.cpp **** 		xruntest1,
 811:testSvf2Csvf.cpp **** 		xsdrsize,
 812:testSvf2Csvf.cpp **** 		xsdr,
 813:testSvf2Csvf.cpp **** 		xcomplete
 814:testSvf2Csvf.cpp **** 	};
 4680              		.loc 3 814 0
 4681 2d34 488D45C0 		leaq	-64(%rbp), %rax
 4682 2d38 48898520 		movq	%rax, -8928(%rbp)
 4682      DDFFFF
 4683 2d3f 488D45BE 		leaq	-66(%rbp), %rax
 4684 2d43 48898528 		movq	%rax, -8920(%rbp)
 4684      DDFFFF
 4685 2d4a 488D45BC 		leaq	-68(%rbp), %rax
 4686 2d4e 48898530 		movq	%rax, -8912(%rbp)
 4686      DDFFFF
 4687 2d55 488D45BF 		leaq	-65(%rbp), %rax
 4688 2d59 48898538 		movq	%rax, -8904(%rbp)
 4688      DDFFFF
 4689 2d60 488D45BD 		leaq	-67(%rbp), %rax
 4690 2d64 48898540 		movq	%rax, -8896(%rbp)
 4690      DDFFFF
 4691 2d6b 488D45D0 		leaq	-48(%rbp), %rax
 4692 2d6f 48898548 		movq	%rax, -8888(%rbp)
 4692      DDFFFF
 4693 2d76 488D45BC 		leaq	-68(%rbp), %rax
 4694 2d7a 48898550 		movq	%rax, -8880(%rbp)
 4694      DDFFFF
 4695 2d81 488D45BB 		leaq	-69(%rbp), %rax
 4696 2d85 48898558 		movq	%rax, -8872(%rbp)
 4696      DDFFFF
 4697 2d8c 488D45BA 		leaq	-70(%rbp), %rax
 4698 2d90 48898560 		movq	%rax, -8864(%rbp)
 4698      DDFFFF
 815:testSvf2Csvf.cpp **** 	const CmdPtr *const src[] = {src0, src1, src2, src3, src4};
 4699              		.loc 3 815 0
 4700 2d97 488D8570 		leaq	-8848(%rbp), %rax
 4700      DDFFFF
 4701 2d9e 48898570 		movq	%rax, -9360(%rbp)
 4701      DBFFFF
 4702 2da5 488D8540 		leaq	-9408(%rbp), %rax
 4702      DBFFFF
 4703 2dac 48898578 		movq	%rax, -9352(%rbp)
 4703      DBFFFF
 4704 2db3 488D8500 		leaq	-9216(%rbp), %rax
 4704      DCFFFF
 4705 2dba 48898580 		movq	%rax, -9344(%rbp)
 4705      DBFFFF
 4706 2dc1 488D8530 		leaq	-9168(%rbp), %rax
 4706      DCFFFF
 4707 2dc8 48898588 		movq	%rax, -9336(%rbp)
 4707      DBFFFF
 4708 2dcf 488D85E0 		leaq	-8992(%rbp), %rax
 4708      DCFFFF
 4709 2dd6 48898590 		movq	%rax, -9328(%rbp)
 4709      DBFFFF
 816:testSvf2Csvf.cpp **** 	const CmdPtr *const exp[] = {exp0, exp1, exp2, exp3, exp4};
 4710              		.loc 3 816 0
 4711 2ddd 488D8580 		leaq	-8576(%rbp), %rax
 4711      DEFFFF
 4712 2de4 488985A0 		movq	%rax, -9312(%rbp)
 4712      DBFFFF
 4713 2deb 488D85D0 		leaq	-9264(%rbp), %rax
 4713      DBFFFF
 4714 2df2 488985A8 		movq	%rax, -9304(%rbp)
 4714      DBFFFF
 4715 2df9 488D8560 		leaq	-9120(%rbp), %rax
 4715      DCFFFF
 4716 2e00 488985B0 		movq	%rax, -9296(%rbp)
 4716      DBFFFF
 4717 2e07 488D85A0 		leaq	-9056(%rbp), %rax
 4717      DCFFFF
 4718 2e0e 488985B8 		movq	%rax, -9288(%rbp)
 4718      DBFFFF
 4719 2e15 488D8520 		leaq	-8928(%rbp), %rax
 4719      DDFFFF
 4720 2e1c 488985C0 		movq	%rax, -9280(%rbp)
 4720      DBFFFF
 817:testSvf2Csvf.cpp **** 	const uint8 *dst[1024];  // worst case 2x
 818:testSvf2Csvf.cpp **** 	num = sizeof(src) / sizeof(src[0]);
 4721              		.loc 3 818 0
 4722 2e23 B8050000 		movl	$5, %eax
 4722      00
 4723 2e28 89850CDB 		movl	%eax, -9460(%rbp)
 4723      FFFF
 819:testSvf2Csvf.cpp **** 	for ( i = 0; i < num; i++ ) {
 4724              		.loc 3 819 0
 4725 2e2e C78504DB 		movl	$0, -9468(%rbp)
 4725      FFFF0000 
 4725      0000
 4726              	.L195:
 4727              		.loc 3 819 0 is_stmt 0 discriminator 1
 4728 2e38 8B8504DB 		movl	-9468(%rbp), %eax
 4728      FFFF
 4729 2e3e 3B850CDB 		cmpl	-9460(%rbp), %eax
 4729      FFFF
 4730 2e44 0F8DA702 		jge	.L205
 4730      0000
 820:testSvf2Csvf.cpp **** 		printf("Dataset %d\n", i);
 4731              		.loc 3 820 0 is_stmt 1
 4732 2e4a 8B8504DB 		movl	-9468(%rbp), %eax
 4732      FFFF
 4733 2e50 89C6     		movl	%eax, %esi
 4734 2e52 BF000000 		movl	$.LC129, %edi
 4734      00
 4735 2e57 B8000000 		movl	$0, %eax
 4735      00
 4736              	.LEHB134:
 4737 2e5c E8000000 		call	printf
 4737      00
 821:testSvf2Csvf.cpp **** 		processIndex(src[i], dst);
 4738              		.loc 3 821 0
 4739 2e61 8B8504DB 		movl	-9468(%rbp), %eax
 4739      FFFF
 4740 2e67 4898     		cltq
 4741 2e69 488B84C5 		movq	-9360(%rbp,%rax,8), %rax
 4741      70DBFFFF 
 4742 2e71 488D95B0 		leaq	-8272(%rbp), %rdx
 4742      DFFFFF
 4743 2e78 4889D6   		movq	%rdx, %rsi
 4744 2e7b 4889C7   		movq	%rax, %rdi
 4745 2e7e E8000000 		call	processIndex
 4745      00
 822:testSvf2Csvf.cpp **** 		pExpected = exp[i];
 4746              		.loc 3 822 0
 4747 2e83 8B8504DB 		movl	-9468(%rbp), %eax
 4747      FFFF
 4748 2e89 4898     		cltq
 4749 2e8b 488B84C5 		movq	-9312(%rbp,%rax,8), %rax
 4749      A0DBFFFF 
 4750 2e93 48898510 		movq	%rax, -9456(%rbp)
 4750      DBFFFF
 823:testSvf2Csvf.cpp **** 		pActual = dst;
 4751              		.loc 3 823 0
 4752 2e9a 488D85B0 		leaq	-8272(%rbp), %rax
 4752      DFFFFF
 4753 2ea1 48898518 		movq	%rax, -9448(%rbp)
 4753      DBFFFF
 824:testSvf2Csvf.cpp **** 		j = 0;
 4754              		.loc 3 824 0
 4755 2ea8 C78508DB 		movl	$0, -9464(%rbp)
 4755      FFFF0000 
 4755      0000
 4756              	.L192:
 825:testSvf2Csvf.cpp **** 		while ( **pExpected != XCOMPLETE && **pActual != XCOMPLETE ) {
 4757              		.loc 3 825 0
 4758 2eb2 488B8510 		movq	-9456(%rbp), %rax
 4758      DBFFFF
 4759 2eb9 488B00   		movq	(%rax), %rax
 4760 2ebc 0FB600   		movzbl	(%rax), %eax
 4761 2ebf 84C0     		testb	%al, %al
 4762 2ec1 7456     		je	.L191
 4763              		.loc 3 825 0 is_stmt 0 discriminator 1
 4764 2ec3 488B8518 		movq	-9448(%rbp), %rax
 4764      DBFFFF
 4765 2eca 488B00   		movq	(%rax), %rax
 4766 2ecd 0FB600   		movzbl	(%rax), %eax
 4767 2ed0 84C0     		testb	%al, %al
 4768 2ed2 7445     		je	.L191
 826:testSvf2Csvf.cpp **** 			compare(j++, *pExpected++, *pActual++);
 4769              		.loc 3 826 0 is_stmt 1
 4770 2ed4 488B8518 		movq	-9448(%rbp), %rax
 4770      DBFFFF
 4771 2edb 488D5008 		leaq	8(%rax), %rdx
 4772 2edf 48899518 		movq	%rdx, -9448(%rbp)
 4772      DBFFFF
 4773 2ee6 488B10   		movq	(%rax), %rdx
 4774 2ee9 488B8510 		movq	-9456(%rbp), %rax
 4774      DBFFFF
 4775 2ef0 488D4808 		leaq	8(%rax), %rcx
 4776 2ef4 48898D10 		movq	%rcx, -9456(%rbp)
 4776      DBFFFF
 4777 2efb 488B08   		movq	(%rax), %rcx
 4778 2efe 8B8508DB 		movl	-9464(%rbp), %eax
 4778      FFFF
 4779 2f04 8D7001   		leal	1(%rax), %esi
 4780 2f07 89B508DB 		movl	%esi, -9464(%rbp)
 4780      FFFF
 4781 2f0d 4889CE   		movq	%rcx, %rsi
 4782 2f10 89C7     		movl	%eax, %edi
 4783 2f12 E8ACF6FF 		call	_ZL7compareiPKhS0_
 4783      FF
 825:testSvf2Csvf.cpp **** 		while ( **pExpected != XCOMPLETE && **pActual != XCOMPLETE ) {
 4784              		.loc 3 825 0
 4785 2f17 EB99     		jmp	.L192
 4786              	.L191:
 827:testSvf2Csvf.cpp **** 		}
 828:testSvf2Csvf.cpp **** 		printf("  [%d] %s:%s\n", j, getCmdName(*pExpected), getCmdName(*pActual));
 4787              		.loc 3 828 0
 4788 2f19 488B8518 		movq	-9448(%rbp), %rax
 4788      DBFFFF
 4789 2f20 488B00   		movq	(%rax), %rax
 4790 2f23 4889C7   		movq	%rax, %rdi
 4791 2f26 E8000000 		call	getCmdName
 4791      00
 4792 2f2b 4889C3   		movq	%rax, %rbx
 4793 2f2e 488B8510 		movq	-9456(%rbp), %rax
 4793      DBFFFF
 4794 2f35 488B00   		movq	(%rax), %rax
 4795 2f38 4889C7   		movq	%rax, %rdi
 4796 2f3b E8000000 		call	getCmdName
 4796      00
 4797 2f40 4889C2   		movq	%rax, %rdx
 4798 2f43 8B8508DB 		movl	-9464(%rbp), %eax
 4798      FFFF
 4799 2f49 4889D9   		movq	%rbx, %rcx
 4800 2f4c 89C6     		movl	%eax, %esi
 4801 2f4e BF000000 		movl	$.LC125, %edi
 4801      00
 4802 2f53 B8000000 		movl	$0, %eax
 4802      00
 4803 2f58 E8000000 		call	printf
 4803      00
 4804              	.LEHE134:
 829:testSvf2Csvf.cpp **** 		CHECK(**pExpected == XCOMPLETE);
 4805              		.loc 3 829 0
 4806 2f5d 488B8510 		movq	-9456(%rbp), %rax
 4806      DBFFFF
 4807 2f64 488B00   		movq	(%rax), %rax
 4808 2f67 0FB600   		movzbl	(%rax), %eax
 4809 2f6a 84C0     		testb	%al, %al
 4810 2f6c 0F94C0   		sete	%al
 4811 2f6f 0FB6C0   		movzbl	%al, %eax
 4812 2f72 89C7     		movl	%eax, %edi
 4813 2f74 E8000000 		call	_ZN8UnitTest5CheckIbEEbT_
 4813      00
 4814 2f79 83F001   		xorl	$1, %eax
 4815 2f7c 84C0     		testb	%al, %al
 4816 2f7e 743E     		je	.L193
 4817              	.LEHB135:
 4818              		.loc 3 829 0 is_stmt 0 discriminator 1
 4819 2f80 E8000000 		call	_ZN8UnitTest11CurrentTest7DetailsEv
 4819      00
 4820 2f85 488B08   		movq	(%rax), %rcx
 4821 2f88 488D8520 		leaq	-9440(%rbp), %rax
 4821      DBFFFF
 4822 2f8f BA3D0300 		movl	$829, %edx
 4822      00
 4823 2f94 4889CE   		movq	%rcx, %rsi
 4824 2f97 4889C7   		movq	%rax, %rdi
 4825 2f9a E8000000 		call	_ZN8UnitTest11TestDetailsC1ERKS0_i
 4825      00
 4826              		.loc 3 829 0 discriminator 3
 4827 2f9f E8000000 		call	_ZN8UnitTest11CurrentTest7ResultsEv
 4827      00
 4828 2fa4 488B00   		movq	(%rax), %rax
 4829 2fa7 488D8D20 		leaq	-9440(%rbp), %rcx
 4829      DBFFFF
 4830 2fae BA000000 		movl	$.LC130, %edx
 4830      00
 4831 2fb3 4889CE   		movq	%rcx, %rsi
 4832 2fb6 4889C7   		movq	%rax, %rdi
 4833 2fb9 E8000000 		call	_ZN8UnitTest11TestResults13OnTestFailureERKNS_11TestDetailsEPKc
 4833      00
 4834              	.LEHE135:
 4835              	.L193:
 830:testSvf2Csvf.cpp **** 		CHECK(**pActual == XCOMPLETE);
 4836              		.loc 3 830 0 is_stmt 1
 4837 2fbe 488B8518 		movq	-9448(%rbp), %rax
 4837      DBFFFF
 4838 2fc5 488B00   		movq	(%rax), %rax
 4839 2fc8 0FB600   		movzbl	(%rax), %eax
 4840 2fcb 84C0     		testb	%al, %al
 4841 2fcd 0F94C0   		sete	%al
 4842 2fd0 0FB6C0   		movzbl	%al, %eax
 4843 2fd3 89C7     		movl	%eax, %edi
 4844 2fd5 E8000000 		call	_ZN8UnitTest5CheckIbEEbT_
 4844      00
 4845 2fda 83F001   		xorl	$1, %eax
 4846 2fdd 84C0     		testb	%al, %al
 4847 2fdf 743E     		je	.L194
 4848              	.LEHB136:
 4849              		.loc 3 830 0 is_stmt 0 discriminator 1
 4850 2fe1 E8000000 		call	_ZN8UnitTest11CurrentTest7DetailsEv
 4850      00
 4851 2fe6 488B08   		movq	(%rax), %rcx
 4852 2fe9 488D8520 		leaq	-9440(%rbp), %rax
 4852      DBFFFF
 4853 2ff0 BA3E0300 		movl	$830, %edx
 4853      00
 4854 2ff5 4889CE   		movq	%rcx, %rsi
 4855 2ff8 4889C7   		movq	%rax, %rdi
 4856 2ffb E8000000 		call	_ZN8UnitTest11TestDetailsC1ERKS0_i
 4856      00
 4857              		.loc 3 830 0 discriminator 3
 4858 3000 E8000000 		call	_ZN8UnitTest11CurrentTest7ResultsEv
 4858      00
 4859 3005 488B00   		movq	(%rax), %rax
 4860 3008 488D8D20 		leaq	-9440(%rbp), %rcx
 4860      DBFFFF
 4861 300f BA000000 		movl	$.LC131, %edx
 4861      00
 4862 3014 4889CE   		movq	%rcx, %rsi
 4863 3017 4889C7   		movq	%rax, %rdi
 4864 301a E8000000 		call	_ZN8UnitTest11TestResults13OnTestFailureERKNS_11TestDetailsEPKc
 4864      00
 4865              	.LEHE136:
 4866              	.L194:
 819:testSvf2Csvf.cpp **** 		printf("Dataset %d\n", i);
 4867              		.loc 3 819 0 is_stmt 1 discriminator 2
 4868 301f 838504DB 		addl	$1, -9468(%rbp)
 4868      FFFF01
 4869 3026 E90DFEFF 		jmp	.L195
 4869      FF
 4870              	.L201:
 829:testSvf2Csvf.cpp **** 		CHECK(**pExpected == XCOMPLETE);
 4871              		.loc 3 829 0
 4872 302b 4889C7   		movq	%rax, %rdi
 4873 302e E8000000 		call	__cxa_begin_catch
 4873      00
 4874              	.LEHB137:
 4875 3033 E8000000 		call	_ZN8UnitTest11CurrentTest7DetailsEv
 4875      00
 4876 3038 488B08   		movq	(%rax), %rcx
 4877 303b 488D8520 		leaq	-9440(%rbp), %rax
 4877      DBFFFF
 4878 3042 BA3D0300 		movl	$829, %edx
 4878      00
 4879 3047 4889CE   		movq	%rcx, %rsi
 4880 304a 4889C7   		movq	%rax, %rdi
 4881 304d E8000000 		call	_ZN8UnitTest11TestDetailsC1ERKS0_i
 4881      00
 829:testSvf2Csvf.cpp **** 		CHECK(**pExpected == XCOMPLETE);
 4882              		.loc 3 829 0 is_stmt 0 discriminator 11
 4883 3052 E8000000 		call	_ZN8UnitTest11CurrentTest7ResultsEv
 4883      00
 4884 3057 488B00   		movq	(%rax), %rax
 4885 305a 488D8D20 		leaq	-9440(%rbp), %rcx
 4885      DBFFFF
 4886 3061 BA000000 		movl	$.LC132, %edx
 4886      00
 4887 3066 4889CE   		movq	%rcx, %rsi
 4888 3069 4889C7   		movq	%rax, %rdi
 4889 306c E8000000 		call	_ZN8UnitTest11TestResults13OnTestFailureERKNS_11TestDetailsEPKc
 4889      00
 4890              	.LEHE137:
 4891              	.LEHB138:
 829:testSvf2Csvf.cpp **** 		CHECK(**pExpected == XCOMPLETE);
 4892              		.loc 3 829 0 discriminator 15
 4893 3071 E8000000 		call	__cxa_end_catch
 4893      00
 4894              	.LEHE138:
 4895 3076 E943FFFF 		jmp	.L193
 4895      FF
 4896              	.L202:
 4897 307b 4889C3   		movq	%rax, %rbx
 829:testSvf2Csvf.cpp **** 		CHECK(**pExpected == XCOMPLETE);
 4898              		.loc 3 829 0
 4899 307e E8000000 		call	__cxa_end_catch
 4899      00
 4900 3083 4889D8   		movq	%rbx, %rax
 4901 3086 4889C7   		movq	%rax, %rdi
 4902              	.LEHB139:
 4903 3089 E8000000 		call	_Unwind_Resume
 4903      00
 4904              	.LEHE139:
 4905              	.L203:
 4906              		.loc 3 830 0 is_stmt 1
 4907 308e 4889C7   		movq	%rax, %rdi
 4908 3091 E8000000 		call	__cxa_begin_catch
 4908      00
 4909              	.LEHB140:
 4910 3096 E8000000 		call	_ZN8UnitTest11CurrentTest7DetailsEv
 4910      00
 4911 309b 488B08   		movq	(%rax), %rcx
 4912 309e 488D8520 		leaq	-9440(%rbp), %rax
 4912      DBFFFF
 4913 30a5 BA3E0300 		movl	$830, %edx
 4913      00
 4914 30aa 4889CE   		movq	%rcx, %rsi
 4915 30ad 4889C7   		movq	%rax, %rdi
 4916 30b0 E8000000 		call	_ZN8UnitTest11TestDetailsC1ERKS0_i
 4916      00
 4917              		.loc 3 830 0 is_stmt 0 discriminator 11
 4918 30b5 E8000000 		call	_ZN8UnitTest11CurrentTest7ResultsEv
 4918      00
 4919 30ba 488B00   		movq	(%rax), %rax
 4920 30bd 488D8D20 		leaq	-9440(%rbp), %rcx
 4920      DBFFFF
 4921 30c4 BA000000 		movl	$.LC133, %edx
 4921      00
 4922 30c9 4889CE   		movq	%rcx, %rsi
 4923 30cc 4889C7   		movq	%rax, %rdi
 4924 30cf E8000000 		call	_ZN8UnitTest11TestResults13OnTestFailureERKNS_11TestDetailsEPKc
 4924      00
 4925              	.LEHE140:
 4926              	.LEHB141:
 4927              		.loc 3 830 0 discriminator 15
 4928 30d4 E8000000 		call	__cxa_end_catch
 4928      00
 4929              	.LEHE141:
 4930 30d9 E941FFFF 		jmp	.L194
 4930      FF
 4931              	.L204:
 4932 30de 4889C3   		movq	%rax, %rbx
 4933              		.loc 3 830 0
 4934 30e1 E8000000 		call	__cxa_end_catch
 4934      00
 4935 30e6 4889D8   		movq	%rbx, %rax
 4936 30e9 4889C7   		movq	%rax, %rdi
 4937              	.LEHB142:
 4938 30ec E8000000 		call	_Unwind_Resume
 4938      00
 4939              	.LEHE142:
 4940              	.L205:
 831:testSvf2Csvf.cpp **** 	}
 832:testSvf2Csvf.cpp **** }
 4941              		.loc 3 832 0 is_stmt 1
 4942 30f1 90       		nop
 4943 30f2 488B45E8 		movq	-24(%rbp), %rax
 4944 30f6 64483304 		xorq	%fs:40, %rax
 4944      25280000 
 4944      00
 4945 30ff 7405     		je	.L200
 4946 3101 E8000000 		call	__stack_chk_fail
 4946      00
 4947              	.L200:
 4948 3106 4881C408 		addq	$9480, %rsp
 4948      250000
 4949 310d 5B       		popq	%rbx
 4950 310e 5D       		popq	%rbp
 4951              		.cfi_def_cfa 7, 8
 4952 310f C3       		ret
 4953              		.cfi_endproc
 4954              	.LFE1095:
 4955              		.section	.gcc_except_table
 4956              		.align 4
 4957              	.LLSDA1095:
 4958 030c FF       		.byte	0xff
 4959 030d 03       		.byte	0x3
 4960 030e 3D       		.uleb128 .LLSDATT1095-.LLSDATTD1095
 4961              	.LLSDATTD1095:
 4962 030f 01       		.byte	0x1
 4963 0310 32       		.uleb128 .LLSDACSE1095-.LLSDACSB1095
 4964              	.LLSDACSB1095:
 4965 0311 9A0D     		.uleb128 .LEHB134-.LFB1095
 4966 0313 8102     		.uleb128 .LEHE134-.LEHB134
 4967 0315 00       		.uleb128 0
 4968 0316 00       		.uleb128 0
 4969 0317 BE0F     		.uleb128 .LEHB135-.LFB1095
 4970 0319 3E       		.uleb128 .LEHE135-.LEHB135
 4971 031a E910     		.uleb128 .L201-.LFB1095
 4972 031c 01       		.uleb128 0x1
 4973 031d 9F10     		.uleb128 .LEHB136-.LFB1095
 4974 031f 3E       		.uleb128 .LEHE136-.LEHB136
 4975 0320 CC11     		.uleb128 .L203-.LFB1095
 4976 0322 01       		.uleb128 0x1
 4977 0323 F110     		.uleb128 .LEHB137-.LFB1095
 4978 0325 3E       		.uleb128 .LEHE137-.LEHB137
 4979 0326 B911     		.uleb128 .L202-.LFB1095
 4980 0328 00       		.uleb128 0
 4981 0329 AF11     		.uleb128 .LEHB138-.LFB1095
 4982 032b 05       		.uleb128 .LEHE138-.LEHB138
 4983 032c 00       		.uleb128 0
 4984 032d 00       		.uleb128 0
 4985 032e C711     		.uleb128 .LEHB139-.LFB1095
 4986 0330 05       		.uleb128 .LEHE139-.LEHB139
 4987 0331 00       		.uleb128 0
 4988 0332 00       		.uleb128 0
 4989 0333 D411     		.uleb128 .LEHB140-.LFB1095
 4990 0335 3E       		.uleb128 .LEHE140-.LEHB140
 4991 0336 9C12     		.uleb128 .L204-.LFB1095
 4992 0338 00       		.uleb128 0
 4993 0339 9212     		.uleb128 .LEHB141-.LFB1095
 4994 033b 05       		.uleb128 .LEHE141-.LEHB141
 4995 033c 00       		.uleb128 0
 4996 033d 00       		.uleb128 0
 4997 033e AA12     		.uleb128 .LEHB142-.LFB1095
 4998 0340 05       		.uleb128 .LEHE142-.LEHB142
 4999 0341 00       		.uleb128 0
 5000 0342 00       		.uleb128 0
 5001              	.LLSDACSE1095:
 5002 0343 01       		.byte	0x1
 5003 0344 00       		.byte	0
 5004 0345 000000   		.align 4
 5005 0348 00000000 		.long	0
 5006              	
 5007              	.LLSDATT1095:
 5008              		.text
 5010              		.section	.rodata
 5011              	.LC134:
 5012 0b1d 46504741 		.string	"FPGALink_testBuildIndex"
 5012      4C696E6B 
 5012      5F746573 
 5012      74427569 
 5012      6C64496E 
 5013              		.section	.text._ZN27TestFPGALink_testBuildIndexC2Ev,"axG",@progbits,_ZN27TestFPGALink_testBuildInd
 5014              		.align 2
 5015              		.weak	_ZN27TestFPGALink_testBuildIndexC2Ev
 5017              	_ZN27TestFPGALink_testBuildIndexC2Ev:
 5018              	.LFB1097:
 833:testSvf2Csvf.cpp **** 
 834:testSvf2Csvf.cpp **** TEST(FPGALink_testBuildIndex) {
 5019              		.loc 3 834 0
 5020              		.cfi_startproc
 5021 0000 55       		pushq	%rbp
 5022              		.cfi_def_cfa_offset 16
 5023              		.cfi_offset 6, -16
 5024 0001 4889E5   		movq	%rsp, %rbp
 5025              		.cfi_def_cfa_register 6
 5026 0004 4883EC10 		subq	$16, %rsp
 5027 0008 48897DF8 		movq	%rdi, -8(%rbp)
 5028              	.LBB10:
 5029              		.loc 3 834 0
 5030 000c E8000000 		call	_ZN13UnitTestSuite12GetSuiteNameEv
 5030      00
 5031 0011 4889C2   		movq	%rax, %rdx
 5032 0014 488B45F8 		movq	-8(%rbp), %rax
 5033 0018 41B84203 		movl	$834, %r8d
 5033      0000
 5034 001e B9000000 		movl	$.LC5, %ecx
 5034      00
 5035 0023 BE000000 		movl	$.LC134, %esi
 5035      00
 5036 0028 4889C7   		movq	%rax, %rdi
 5037 002b E8000000 		call	_ZN8UnitTest4TestC2EPKcS2_S2_i
 5037      00
 5038 0030 BA000000 		movl	$_ZTV27TestFPGALink_testBuildIndex+16, %edx
 5038      00
 5039 0035 488B45F8 		movq	-8(%rbp), %rax
 5040 0039 488910   		movq	%rdx, (%rax)
 5041              	.LBE10:
 5042 003c 90       		nop
 5043 003d C9       		leave
 5044              		.cfi_def_cfa 7, 8
 5045 003e C3       		ret
 5046              		.cfi_endproc
 5047              	.LFE1097:
 5049              		.weak	_ZN27TestFPGALink_testBuildIndexC1Ev
 5050              		.set	_ZN27TestFPGALink_testBuildIndexC1Ev,_ZN27TestFPGALink_testBuildIndexC2Ev
 5051              		.globl	testFPGALink_testBuildIndexInstance
 5052              		.bss
 5053 00f9 00000000 		.align 32
 5053      000000
 5056              	testFPGALink_testBuildIndexInstance:
 5057 0100 00000000 		.zero	56
 5057      00000000 
 5057      00000000 
 5057      00000000 
 5057      00000000 
 5058              		.globl	adderFPGALink_testBuildIndex
 5061              	adderFPGALink_testBuildIndex:
 5062 0138 00       		.zero	1
 5063              		.text
 5064              		.align 2
 5065              		.globl	_ZNK27TestFPGALink_testBuildIndex7RunImplEv
 5067              	_ZNK27TestFPGALink_testBuildIndex7RunImplEv:
 5068              	.LFB1099:
 5069              		.loc 3 834 0
 5070              		.cfi_startproc
 5071              		.cfi_personality 0x3,__gxx_personality_v0
 5072              		.cfi_lsda 0x3,.LLSDA1099
 5073 3110 55       		pushq	%rbp
 5074              		.cfi_def_cfa_offset 16
 5075              		.cfi_offset 6, -16
 5076 3111 4889E5   		movq	%rsp, %rbp
 5077              		.cfi_def_cfa_register 6
 5078 3114 53       		pushq	%rbx
 5079 3115 4881EC58 		subq	$856, %rsp
 5079      030000
 5080              		.cfi_offset 3, -24
 5081 311c 4889BDA8 		movq	%rdi, -856(%rbp)
 5081      FCFFFF
 5082              		.loc 3 834 0
 5083 3123 64488B04 		movq	%fs:40, %rax
 5083      25280000 
 5083      00
 5084 312c 488945E8 		movq	%rax, -24(%rbp)
 5085 3130 31C0     		xorl	%eax, %eax
 835:testSvf2Csvf.cpp **** 	const uint8 src[] = {
 836:testSvf2Csvf.cpp **** 		0x02, 0x06, 0x09, 0x08,  0x00, 0x00, 0x00, 0x20,
 837:testSvf2Csvf.cpp **** 		0x01, 0xFF, 0xFF, 0xFF,  0x0F, 0x09, 0x00, 0x93,
 838:testSvf2Csvf.cpp **** 		0x00, 0x80, 0x00, 0x61,  0x00, 0xF2, 0x08, 0x00,
 839:testSvf2Csvf.cpp **** 		0x00, 0x00, 0x05, 0x03,  0x00, 0x04, 0x00, 0x00,
 840:testSvf2Csvf.cpp **** 		0x00, 0x10, 0x00
 841:testSvf2Csvf.cpp **** 	};
 5086              		.loc 3 841 0
 5087 3132 C645C002 		movb	$2, -64(%rbp)
 5088 3136 C645C106 		movb	$6, -63(%rbp)
 5089 313a C645C209 		movb	$9, -62(%rbp)
 5090 313e C645C308 		movb	$8, -61(%rbp)
 5091 3142 C645C400 		movb	$0, -60(%rbp)
 5092 3146 C645C500 		movb	$0, -59(%rbp)
 5093 314a C645C600 		movb	$0, -58(%rbp)
 5094 314e C645C720 		movb	$32, -57(%rbp)
 5095 3152 C645C801 		movb	$1, -56(%rbp)
 5096 3156 C645C9FF 		movb	$-1, -55(%rbp)
 5097 315a C645CAFF 		movb	$-1, -54(%rbp)
 5098 315e C645CBFF 		movb	$-1, -53(%rbp)
 5099 3162 C645CC0F 		movb	$15, -52(%rbp)
 5100 3166 C645CD09 		movb	$9, -51(%rbp)
 5101 316a C645CE00 		movb	$0, -50(%rbp)
 5102 316e C645CF93 		movb	$-109, -49(%rbp)
 5103 3172 C645D000 		movb	$0, -48(%rbp)
 5104 3176 C645D180 		movb	$-128, -47(%rbp)
 5105 317a C645D200 		movb	$0, -46(%rbp)
 5106 317e C645D361 		movb	$97, -45(%rbp)
 5107 3182 C645D400 		movb	$0, -44(%rbp)
 5108 3186 C645D5F2 		movb	$-14, -43(%rbp)
 5109 318a C645D608 		movb	$8, -42(%rbp)
 5110 318e C645D700 		movb	$0, -41(%rbp)
 5111 3192 C645D800 		movb	$0, -40(%rbp)
 5112 3196 C645D900 		movb	$0, -39(%rbp)
 5113 319a C645DA05 		movb	$5, -38(%rbp)
 5114 319e C645DB03 		movb	$3, -37(%rbp)
 5115 31a2 C645DC00 		movb	$0, -36(%rbp)
 5116 31a6 C645DD04 		movb	$4, -35(%rbp)
 5117 31aa C645DE00 		movb	$0, -34(%rbp)
 5118 31ae C645DF00 		movb	$0, -33(%rbp)
 5119 31b2 C645E000 		movb	$0, -32(%rbp)
 5120 31b6 C645E110 		movb	$16, -31(%rbp)
 5121 31ba C645E200 		movb	$0, -30(%rbp)
 842:testSvf2Csvf.cpp **** 	const size_t len = sizeof(src);
 5122              		.loc 3 842 0
 5123 31be 48C785C8 		movq	$35, -824(%rbp)
 5123      FCFFFF23 
 5123      000000
 843:testSvf2Csvf.cpp **** 	struct Buffer csvfBuf;
 844:testSvf2Csvf.cpp **** 	FLStatus fStatus;
 845:testSvf2Csvf.cpp **** 	struct ParseContext cxt;
 846:testSvf2Csvf.cpp **** 	BufferStatus bStatus = bufInitialise(&csvfBuf, len, 0x00, NULL);
 5124              		.loc 3 846 0
 5125 31c9 488D85D0 		leaq	-816(%rbp), %rax
 5125      FCFFFF
 5126 31d0 B9000000 		movl	$0, %ecx
 5126      00
 5127 31d5 BA000000 		movl	$0, %edx
 5127      00
 5128 31da BE230000 		movl	$35, %esi
 5128      00
 5129 31df 4889C7   		movq	%rax, %rdi
 5130              	.LEHB143:
 5131 31e2 E8000000 		call	bufInitialise
 5131      00
 5132              	.LEHE143:
 5133 31e7 8985C0FC 		movl	%eax, -832(%rbp)
 5133      FFFF
 5134              	.LEHB144:
 847:testSvf2Csvf.cpp **** 	CHECK_EQUAL(BUF_SUCCESS, bStatus);
 5135              		.loc 3 847 0
 5136 31ed E8000000 		call	_ZN8UnitTest11CurrentTest7DetailsEv
 5136      00
 5137 31f2 488B08   		movq	(%rax), %rcx
 5138 31f5 488D8510 		leaq	-752(%rbp), %rax
 5138      FDFFFF
 5139 31fc BA4F0300 		movl	$847, %edx
 5139      00
 5140 3201 4889CE   		movq	%rcx, %rsi
 5141 3204 4889C7   		movq	%rax, %rdi
 5142 3207 E8000000 		call	_ZN8UnitTest11TestDetailsC1ERKS0_i
 5142      00
 5143              	.LEHE144:
 5144              		.loc 3 847 0 is_stmt 0 discriminator 2
 5145 320c C785F0FC 		movl	$0, -784(%rbp)
 5145      FFFF0000 
 5145      0000
 5146              	.LEHB145:
 5147 3216 E8000000 		call	_ZN8UnitTest11CurrentTest7ResultsEv
 5147      00
 5148 321b 488B00   		movq	(%rax), %rax
 5149 321e 488D8D10 		leaq	-752(%rbp), %rcx
 5149      FDFFFF
 5150 3225 488D95C0 		leaq	-832(%rbp), %rdx
 5150      FCFFFF
 5151 322c 488DB5F0 		leaq	-784(%rbp), %rsi
 5151      FCFFFF
 5152 3233 4889C7   		movq	%rax, %rdi
 5153 3236 E8000000 		call	_ZN8UnitTest10CheckEqualI12BufferStatusS1_EEvRNS_11TestResultsERKT_RKT0_RKNS_11TestDetailsE
 5153      00
 5154              	.LEHE145:
 5155              	.L210:
 848:testSvf2Csvf.cpp **** 	memset(&cxt, 0, sizeof(cxt));
 5156              		.loc 3 848 0 is_stmt 1
 5157 323b 488D8510 		leaq	-752(%rbp), %rax
 5157      FDFFFF
 5158 3242 BAA80200 		movl	$680, %edx
 5158      00
 5159 3247 BE000000 		movl	$0, %esi
 5159      00
 5160 324c 4889C7   		movq	%rax, %rdi
 5161 324f E8000000 		call	memset
 5161      00
 849:testSvf2Csvf.cpp **** 	cxt.numCommands = 8;
 5162              		.loc 3 849 0
 5163 3254 C745AC08 		movl	$8, -84(%rbp)
 5163      000000
 850:testSvf2Csvf.cpp **** 	bStatus = bufAppendBlock(&csvfBuf, src, len, NULL);
 5164              		.loc 3 850 0
 5165 325b 488D75C0 		leaq	-64(%rbp), %rsi
 5166 325f 488D85D0 		leaq	-816(%rbp), %rax
 5166      FCFFFF
 5167 3266 B9000000 		movl	$0, %ecx
 5167      00
 5168 326b BA230000 		movl	$35, %edx
 5168      00
 5169 3270 4889C7   		movq	%rax, %rdi
 5170              	.LEHB146:
 5171 3273 E8000000 		call	bufAppendBlock
 5171      00
 5172              	.LEHE146:
 5173 3278 8985C0FC 		movl	%eax, -832(%rbp)
 5173      FFFF
 5174              	.LEHB147:
 851:testSvf2Csvf.cpp **** 	CHECK_EQUAL(BUF_SUCCESS, bStatus);
 5175              		.loc 3 851 0
 5176 327e E8000000 		call	_ZN8UnitTest11CurrentTest7DetailsEv
 5176      00
 5177 3283 488B08   		movq	(%rax), %rcx
 5178 3286 488D85F0 		leaq	-784(%rbp), %rax
 5178      FCFFFF
 5179 328d BA530300 		movl	$851, %edx
 5179      00
 5180 3292 4889CE   		movq	%rcx, %rsi
 5181 3295 4889C7   		movq	%rax, %rdi
 5182 3298 E8000000 		call	_ZN8UnitTest11TestDetailsC1ERKS0_i
 5182      00
 5183              	.LEHE147:
 5184              		.loc 3 851 0 is_stmt 0 discriminator 2
 5185 329d C785C4FC 		movl	$0, -828(%rbp)
 5185      FFFF0000 
 5185      0000
 5186              	.LEHB148:
 5187 32a7 E8000000 		call	_ZN8UnitTest11CurrentTest7ResultsEv
 5187      00
 5188 32ac 488B00   		movq	(%rax), %rax
 5189 32af 488D8DF0 		leaq	-784(%rbp), %rcx
 5189      FCFFFF
 5190 32b6 488D95C0 		leaq	-832(%rbp), %rdx
 5190      FCFFFF
 5191 32bd 488DB5C4 		leaq	-828(%rbp), %rsi
 5191      FCFFFF
 5192 32c4 4889C7   		movq	%rax, %rdi
 5193 32c7 E8000000 		call	_ZN8UnitTest10CheckEqualI12BufferStatusS1_EEvRNS_11TestResultsERKT_RKT0_RKNS_11TestDetailsE
 5193      00
 5194              	.LEHE148:
 5195              	.L214:
 852:testSvf2Csvf.cpp **** 	fStatus = buildIndex(&cxt, &csvfBuf, NULL);
 5196              		.loc 3 852 0 is_stmt 1
 5197 32cc 488D8DD0 		leaq	-816(%rbp), %rcx
 5197      FCFFFF
 5198 32d3 488D8510 		leaq	-752(%rbp), %rax
 5198      FDFFFF
 5199 32da BA000000 		movl	$0, %edx
 5199      00
 5200 32df 4889CE   		movq	%rcx, %rsi
 5201 32e2 4889C7   		movq	%rax, %rdi
 5202              	.LEHB149:
 5203 32e5 E8000000 		call	buildIndex
 5203      00
 5204              	.LEHE149:
 5205 32ea 8985BCFC 		movl	%eax, -836(%rbp)
 5205      FFFF
 5206              	.LEHB150:
 853:testSvf2Csvf.cpp **** 	CHECK_EQUAL(FL_SUCCESS, fStatus);
 5207              		.loc 3 853 0
 5208 32f0 E8000000 		call	_ZN8UnitTest11CurrentTest7DetailsEv
 5208      00
 5209 32f5 488B08   		movq	(%rax), %rcx
 5210 32f8 488D85F0 		leaq	-784(%rbp), %rax
 5210      FCFFFF
 5211 32ff BA550300 		movl	$853, %edx
 5211      00
 5212 3304 4889CE   		movq	%rcx, %rsi
 5213 3307 4889C7   		movq	%rax, %rdi
 5214 330a E8000000 		call	_ZN8UnitTest11TestDetailsC1ERKS0_i
 5214      00
 5215              	.LEHE150:
 5216              		.loc 3 853 0 is_stmt 0 discriminator 2
 5217 330f C785C4FC 		movl	$0, -828(%rbp)
 5217      FFFF0000 
 5217      0000
 5218              	.LEHB151:
 5219 3319 E8000000 		call	_ZN8UnitTest11CurrentTest7ResultsEv
 5219      00
 5220 331e 488B00   		movq	(%rax), %rax
 5221 3321 488D8DF0 		leaq	-784(%rbp), %rcx
 5221      FCFFFF
 5222 3328 488D95BC 		leaq	-836(%rbp), %rdx
 5222      FCFFFF
 5223 332f 488DB5C4 		leaq	-828(%rbp), %rsi
 5223      FCFFFF
 5224 3336 4889C7   		movq	%rax, %rdi
 5225 3339 E8000000 		call	_ZN8UnitTest10CheckEqualI8FLStatusS1_EEvRNS_11TestResultsERKT_RKT0_RKNS_11TestDetailsE
 5225      00
 5226              	.LEHE151:
 5227              	.L218:
 854:testSvf2Csvf.cpp **** 	bufDestroy(&csvfBuf);
 5228              		.loc 3 854 0 is_stmt 1
 5229 333e 488D85D0 		leaq	-816(%rbp), %rax
 5229      FCFFFF
 5230 3345 4889C7   		movq	%rax, %rdi
 5231              	.LEHB152:
 5232 3348 E8000000 		call	bufDestroy
 5232      00
 5233              	.LEHE152:
 855:testSvf2Csvf.cpp **** }
 5234              		.loc 3 855 0
 5235 334d 90       		nop
 5236 334e 488B45E8 		movq	-24(%rbp), %rax
 5237 3352 64483304 		xorq	%fs:40, %rax
 5237      25280000 
 5237      00
 5238 335b 0F843901 		je	.L220
 5238      0000
 5239 3361 E92F0100 		jmp	.L230
 5239      00
 5240              	.L222:
 5241 3366 EB00     		jmp	.L209
 5242              	.L221:
 5243              	.L209:
 847:testSvf2Csvf.cpp **** 	memset(&cxt, 0, sizeof(cxt));
 5244              		.loc 3 847 0
 5245 3368 4889C7   		movq	%rax, %rdi
 5246 336b E8000000 		call	__cxa_begin_catch
 5246      00
 5247              	.LEHB153:
 5248 3370 E8000000 		call	_ZN8UnitTest11CurrentTest7DetailsEv
 5248      00
 5249 3375 488B08   		movq	(%rax), %rcx
 5250 3378 488D8510 		leaq	-752(%rbp), %rax
 5250      FDFFFF
 5251 337f BA4F0300 		movl	$847, %edx
 5251      00
 5252 3384 4889CE   		movq	%rcx, %rsi
 5253 3387 4889C7   		movq	%rax, %rdi
 5254 338a E8000000 		call	_ZN8UnitTest11TestDetailsC1ERKS0_i
 5254      00
 847:testSvf2Csvf.cpp **** 	memset(&cxt, 0, sizeof(cxt));
 5255              		.loc 3 847 0 is_stmt 0 discriminator 10
 5256 338f E8000000 		call	_ZN8UnitTest11CurrentTest7ResultsEv
 5256      00
 5257 3394 488B00   		movq	(%rax), %rax
 5258 3397 488D8D10 		leaq	-752(%rbp), %rcx
 5258      FDFFFF
 5259 339e BA000000 		movl	$.LC13, %edx
 5259      00
 5260 33a3 4889CE   		movq	%rcx, %rsi
 5261 33a6 4889C7   		movq	%rax, %rdi
 5262 33a9 E8000000 		call	_ZN8UnitTest11TestResults13OnTestFailureERKNS_11TestDetailsEPKc
 5262      00
 5263              	.LEHE153:
 5264              	.LEHB154:
 847:testSvf2Csvf.cpp **** 	memset(&cxt, 0, sizeof(cxt));
 5265              		.loc 3 847 0 discriminator 14
 5266 33ae E8000000 		call	__cxa_end_catch
 5266      00
 5267              	.LEHE154:
 5268 33b3 E983FEFF 		jmp	.L210
 5268      FF
 5269              	.L223:
 5270 33b8 4889C3   		movq	%rax, %rbx
 847:testSvf2Csvf.cpp **** 	memset(&cxt, 0, sizeof(cxt));
 5271              		.loc 3 847 0
 5272 33bb E8000000 		call	__cxa_end_catch
 5272      00
 5273 33c0 4889D8   		movq	%rbx, %rax
 5274 33c3 4889C7   		movq	%rax, %rdi
 5275              	.LEHB155:
 5276 33c6 E8000000 		call	_Unwind_Resume
 5276      00
 5277              	.LEHE155:
 5278              	.L225:
 5279 33cb EB00     		jmp	.L213
 5280              	.L224:
 5281              	.L213:
 851:testSvf2Csvf.cpp **** 	fStatus = buildIndex(&cxt, &csvfBuf, NULL);
 5282              		.loc 3 851 0 is_stmt 1
 5283 33cd 4889C7   		movq	%rax, %rdi
 5284 33d0 E8000000 		call	__cxa_begin_catch
 5284      00
 5285              	.LEHB156:
 5286 33d5 E8000000 		call	_ZN8UnitTest11CurrentTest7DetailsEv
 5286      00
 5287 33da 488B08   		movq	(%rax), %rcx
 5288 33dd 488D85F0 		leaq	-784(%rbp), %rax
 5288      FCFFFF
 5289 33e4 BA530300 		movl	$851, %edx
 5289      00
 5290 33e9 4889CE   		movq	%rcx, %rsi
 5291 33ec 4889C7   		movq	%rax, %rdi
 5292 33ef E8000000 		call	_ZN8UnitTest11TestDetailsC1ERKS0_i
 5292      00
 851:testSvf2Csvf.cpp **** 	fStatus = buildIndex(&cxt, &csvfBuf, NULL);
 5293              		.loc 3 851 0 is_stmt 0 discriminator 10
 5294 33f4 E8000000 		call	_ZN8UnitTest11CurrentTest7ResultsEv
 5294      00
 5295 33f9 488B00   		movq	(%rax), %rax
 5296 33fc 488D8DF0 		leaq	-784(%rbp), %rcx
 5296      FCFFFF
 5297 3403 BA000000 		movl	$.LC13, %edx
 5297      00
 5298 3408 4889CE   		movq	%rcx, %rsi
 5299 340b 4889C7   		movq	%rax, %rdi
 5300 340e E8000000 		call	_ZN8UnitTest11TestResults13OnTestFailureERKNS_11TestDetailsEPKc
 5300      00
 5301              	.LEHE156:
 5302              	.LEHB157:
 851:testSvf2Csvf.cpp **** 	fStatus = buildIndex(&cxt, &csvfBuf, NULL);
 5303              		.loc 3 851 0 discriminator 14
 5304 3413 E8000000 		call	__cxa_end_catch
 5304      00
 5305              	.LEHE157:
 5306 3418 E9AFFEFF 		jmp	.L214
 5306      FF
 5307              	.L226:
 5308 341d 4889C3   		movq	%rax, %rbx
 851:testSvf2Csvf.cpp **** 	fStatus = buildIndex(&cxt, &csvfBuf, NULL);
 5309              		.loc 3 851 0
 5310 3420 E8000000 		call	__cxa_end_catch
 5310      00
 5311 3425 4889D8   		movq	%rbx, %rax
 5312 3428 4889C7   		movq	%rax, %rdi
 5313              	.LEHB158:
 5314 342b E8000000 		call	_Unwind_Resume
 5314      00
 5315              	.LEHE158:
 5316              	.L228:
 5317 3430 EB00     		jmp	.L217
 5318              	.L227:
 5319              	.L217:
 853:testSvf2Csvf.cpp **** 	bufDestroy(&csvfBuf);
 5320              		.loc 3 853 0 is_stmt 1
 5321 3432 4889C7   		movq	%rax, %rdi
 5322 3435 E8000000 		call	__cxa_begin_catch
 5322      00
 5323              	.LEHB159:
 5324 343a E8000000 		call	_ZN8UnitTest11CurrentTest7DetailsEv
 5324      00
 5325 343f 488B08   		movq	(%rax), %rcx
 5326 3442 488D85F0 		leaq	-784(%rbp), %rax
 5326      FCFFFF
 5327 3449 BA550300 		movl	$853, %edx
 5327      00
 5328 344e 4889CE   		movq	%rcx, %rsi
 5329 3451 4889C7   		movq	%rax, %rdi
 5330 3454 E8000000 		call	_ZN8UnitTest11TestDetailsC1ERKS0_i
 5330      00
 853:testSvf2Csvf.cpp **** 	bufDestroy(&csvfBuf);
 5331              		.loc 3 853 0 is_stmt 0 discriminator 10
 5332 3459 E8000000 		call	_ZN8UnitTest11CurrentTest7ResultsEv
 5332      00
 5333 345e 488B00   		movq	(%rax), %rax
 5334 3461 488D8DF0 		leaq	-784(%rbp), %rcx
 5334      FCFFFF
 5335 3468 BA000000 		movl	$.LC2, %edx
 5335      00
 5336 346d 4889CE   		movq	%rcx, %rsi
 5337 3470 4889C7   		movq	%rax, %rdi
 5338 3473 E8000000 		call	_ZN8UnitTest11TestResults13OnTestFailureERKNS_11TestDetailsEPKc
 5338      00
 5339              	.LEHE159:
 5340              	.LEHB160:
 853:testSvf2Csvf.cpp **** 	bufDestroy(&csvfBuf);
 5341              		.loc 3 853 0 discriminator 14
 5342 3478 E8000000 		call	__cxa_end_catch
 5342      00
 5343              	.LEHE160:
 5344 347d E9BCFEFF 		jmp	.L218
 5344      FF
 5345              	.L229:
 5346 3482 4889C3   		movq	%rax, %rbx
 853:testSvf2Csvf.cpp **** 	bufDestroy(&csvfBuf);
 5347              		.loc 3 853 0
 5348 3485 E8000000 		call	__cxa_end_catch
 5348      00
 5349 348a 4889D8   		movq	%rbx, %rax
 5350 348d 4889C7   		movq	%rax, %rdi
 5351              	.LEHB161:
 5352 3490 E8000000 		call	_Unwind_Resume
 5352      00
 5353              	.LEHE161:
 5354              	.L230:
 5355              		.loc 3 855 0 is_stmt 1
 5356 3495 E8000000 		call	__stack_chk_fail
 5356      00
 5357              	.L220:
 5358 349a 4881C458 		addq	$856, %rsp
 5358      030000
 5359 34a1 5B       		popq	%rbx
 5360 34a2 5D       		popq	%rbp
 5361              		.cfi_def_cfa 7, 8
 5362 34a3 C3       		ret
 5363              		.cfi_endproc
 5364              	.LFE1099:
 5365              		.section	.gcc_except_table
 5366              		.align 4
 5367              	.LLSDA1099:
 5368 034c FF       		.byte	0xff
 5369 034d 03       		.byte	0x3
 5370 034e 75       		.uleb128 .LLSDATT1099-.LLSDATTD1099
 5371              	.LLSDATTD1099:
 5372 034f 01       		.byte	0x1
 5373 0350 68       		.uleb128 .LLSDACSE1099-.LLSDACSB1099
 5374              	.LLSDACSB1099:
 5375 0351 D201     		.uleb128 .LEHB143-.LFB1099
 5376 0353 05       		.uleb128 .LEHE143-.LEHB143
 5377 0354 00       		.uleb128 0
 5378 0355 00       		.uleb128 0
 5379 0356 DD01     		.uleb128 .LEHB144-.LFB1099
 5380 0358 1F       		.uleb128 .LEHE144-.LEHB144
 5381 0359 D804     		.uleb128 .L221-.LFB1099
 5382 035b 01       		.uleb128 0x1
 5383 035c 8602     		.uleb128 .LEHB145-.LFB1099
 5384 035e 25       		.uleb128 .LEHE145-.LEHB145
 5385 035f D604     		.uleb128 .L222-.LFB1099
 5386 0361 03       		.uleb128 0x3
 5387 0362 E302     		.uleb128 .LEHB146-.LFB1099
 5388 0364 05       		.uleb128 .LEHE146-.LEHB146
 5389 0365 00       		.uleb128 0
 5390 0366 00       		.uleb128 0
 5391 0367 EE02     		.uleb128 .LEHB147-.LFB1099
 5392 0369 1F       		.uleb128 .LEHE147-.LEHB147
 5393 036a BD05     		.uleb128 .L224-.LFB1099
 5394 036c 01       		.uleb128 0x1
 5395 036d 9703     		.uleb128 .LEHB148-.LFB1099
 5396 036f 25       		.uleb128 .LEHE148-.LEHB148
 5397 0370 BB05     		.uleb128 .L225-.LFB1099
 5398 0372 03       		.uleb128 0x3
 5399 0373 D503     		.uleb128 .LEHB149-.LFB1099
 5400 0375 05       		.uleb128 .LEHE149-.LEHB149
 5401 0376 00       		.uleb128 0
 5402 0377 00       		.uleb128 0
 5403 0378 E003     		.uleb128 .LEHB150-.LFB1099
 5404 037a 1F       		.uleb128 .LEHE150-.LEHB150
 5405 037b A206     		.uleb128 .L227-.LFB1099
 5406 037d 01       		.uleb128 0x1
 5407 037e 8904     		.uleb128 .LEHB151-.LFB1099
 5408 0380 25       		.uleb128 .LEHE151-.LEHB151
 5409 0381 A006     		.uleb128 .L228-.LFB1099
 5410 0383 03       		.uleb128 0x3
 5411 0384 B804     		.uleb128 .LEHB152-.LFB1099
 5412 0386 05       		.uleb128 .LEHE152-.LEHB152
 5413 0387 00       		.uleb128 0
 5414 0388 00       		.uleb128 0
 5415 0389 E004     		.uleb128 .LEHB153-.LFB1099
 5416 038b 3E       		.uleb128 .LEHE153-.LEHB153
 5417 038c A805     		.uleb128 .L223-.LFB1099
 5418 038e 00       		.uleb128 0
 5419 038f 9E05     		.uleb128 .LEHB154-.LFB1099
 5420 0391 05       		.uleb128 .LEHE154-.LEHB154
 5421 0392 00       		.uleb128 0
 5422 0393 00       		.uleb128 0
 5423 0394 B605     		.uleb128 .LEHB155-.LFB1099
 5424 0396 05       		.uleb128 .LEHE155-.LEHB155
 5425 0397 00       		.uleb128 0
 5426 0398 00       		.uleb128 0
 5427 0399 C505     		.uleb128 .LEHB156-.LFB1099
 5428 039b 3E       		.uleb128 .LEHE156-.LEHB156
 5429 039c 8D06     		.uleb128 .L226-.LFB1099
 5430 039e 00       		.uleb128 0
 5431 039f 8306     		.uleb128 .LEHB157-.LFB1099
 5432 03a1 05       		.uleb128 .LEHE157-.LEHB157
 5433 03a2 00       		.uleb128 0
 5434 03a3 00       		.uleb128 0
 5435 03a4 9B06     		.uleb128 .LEHB158-.LFB1099
 5436 03a6 05       		.uleb128 .LEHE158-.LEHB158
 5437 03a7 00       		.uleb128 0
 5438 03a8 00       		.uleb128 0
 5439 03a9 AA06     		.uleb128 .LEHB159-.LFB1099
 5440 03ab 3E       		.uleb128 .LEHE159-.LEHB159
 5441 03ac F206     		.uleb128 .L229-.LFB1099
 5442 03ae 00       		.uleb128 0
 5443 03af E806     		.uleb128 .LEHB160-.LFB1099
 5444 03b1 05       		.uleb128 .LEHE160-.LEHB160
 5445 03b2 00       		.uleb128 0
 5446 03b3 00       		.uleb128 0
 5447 03b4 8007     		.uleb128 .LEHB161-.LFB1099
 5448 03b6 05       		.uleb128 .LEHE161-.LEHB161
 5449 03b7 00       		.uleb128 0
 5450 03b8 00       		.uleb128 0
 5451              	.LLSDACSE1099:
 5452 03b9 01       		.byte	0x1
 5453 03ba 00       		.byte	0
 5454 03bb 00       		.byte	0
 5455 03bc 7D       		.byte	0x7d
 5456 03bd 000000   		.align 4
 5457 03c0 00000000 		.long	0
 5458              	
 5459              	.LLSDATT1099:
 5460              		.text
 5462              		.section	.text._ZN8UnitTest15MemoryOutStreamD1Ev,"axG",@progbits,_ZN8UnitTest15MemoryOutStreamD1Ev
 5463              		.align 2
 5464              		.weak	_ZN8UnitTest15MemoryOutStreamD1Ev
 5466              	_ZN8UnitTest15MemoryOutStreamD1Ev:
 5467              	.LFB1130:
  13:/home/shubham/20140524/makestuff/libs/libutpp/MemoryOutStream.h **** {
 5468              		.loc 2 13 0
 5469              		.cfi_startproc
 5470              		.cfi_personality 0x3,__gxx_personality_v0
 5471              		.cfi_lsda 0x3,.LLSDA1130
 5472 0000 55       		pushq	%rbp
 5473              		.cfi_def_cfa_offset 16
 5474              		.cfi_offset 6, -16
 5475 0001 4889E5   		movq	%rsp, %rbp
 5476              		.cfi_def_cfa_register 6
 5477 0004 53       		pushq	%rbx
 5478 0005 4883EC18 		subq	$24, %rsp
 5479              		.cfi_offset 3, -24
 5480 0009 48897DE8 		movq	%rdi, -24(%rbp)
 5481              	.LBB11:
  13:/home/shubham/20140524/makestuff/libs/libutpp/MemoryOutStream.h **** {
 5482              		.loc 2 13 0
 5483 000d BA000000 		movl	$_ZTVN8UnitTest15MemoryOutStreamE+24, %edx
 5483      00
 5484 0012 488B45E8 		movq	-24(%rbp), %rax
 5485 0016 488910   		movq	%rdx, (%rax)
 5486 0019 BA900000 		movl	$144, %edx
 5486      00
 5487 001e 488B45E8 		movq	-24(%rbp), %rax
 5488 0022 4801D0   		addq	%rdx, %rax
 5489 0025 BA000000 		movl	$_ZTVN8UnitTest15MemoryOutStreamE+64, %edx
 5489      00
 5490 002a 488910   		movq	%rdx, (%rax)
 5491 002d 488B45E8 		movq	-24(%rbp), %rax
 5492 0031 4883C070 		addq	$112, %rax
 5493 0035 4889C7   		movq	%rax, %rdi
 5494              	.LEHB162:
 5495 0038 E8000000 		call	_ZNSt7__cxx1112basic_stringIcSt11char_traitsIcESaIcEED1Ev
 5495      00
 5496              	.LEHE162:
  13:/home/shubham/20140524/makestuff/libs/libutpp/MemoryOutStream.h **** {
 5497              		.loc 2 13 0 is_stmt 0 discriminator 14
 5498 003d BA000000 		movl	$_ZTTN8UnitTest15MemoryOutStreamE+8, %edx
 5498      00
 5499 0042 488B45E8 		movq	-24(%rbp), %rax
 5500 0046 4889D6   		movq	%rdx, %rsi
 5501 0049 4889C7   		movq	%rax, %rdi
 5502              	.LEHB163:
 5503 004c E8000000 		call	_ZNSt7__cxx1119basic_ostringstreamIcSt11char_traitsIcESaIcEED2Ev
 5503      00
 5504              	.LEHE163:
  13:/home/shubham/20140524/makestuff/libs/libutpp/MemoryOutStream.h **** {
 5505              		.loc 2 13 0 discriminator 20
 5506 0051 B8020000 		movl	$2, %eax
 5506      00
 5507 0056 85C0     		testl	%eax, %eax
 5508 0058 7412     		je	.L232
  13:/home/shubham/20140524/makestuff/libs/libutpp/MemoryOutStream.h **** {
 5509              		.loc 2 13 0 discriminator 21
 5510 005a 488B45E8 		movq	-24(%rbp), %rax
 5511 005e 48059000 		addq	$144, %rax
 5511      0000
 5512 0064 4889C7   		movq	%rax, %rdi
 5513              	.LEHB164:
 5514 0067 E8000000 		call	_ZNSt9basic_iosIcSt11char_traitsIcEED2Ev
 5514      00
 5515              	.LEHE164:
 5516              	.L232:
 5517              	.LBE11:
  13:/home/shubham/20140524/makestuff/libs/libutpp/MemoryOutStream.h **** {
 5518              		.loc 2 13 0 discriminator 22
 5519 006c B8000000 		movl	$0, %eax
 5519      00
 5520 0071 85C0     		testl	%eax, %eax
 5521 0073 7450     		je	.L231
  13:/home/shubham/20140524/makestuff/libs/libutpp/MemoryOutStream.h **** {
 5522              		.loc 2 13 0 discriminator 25
 5523 0075 488B45E8 		movq	-24(%rbp), %rax
 5524 0079 4889C7   		movq	%rax, %rdi
 5525 007c E8000000 		call	_ZdlPv
 5525      00
 5526 0081 EB42     		jmp	.L231
 5527              	.L237:
 5528 0083 4889C3   		movq	%rax, %rbx
 5529              	.LBB12:
  13:/home/shubham/20140524/makestuff/libs/libutpp/MemoryOutStream.h **** {
 5530              		.loc 2 13 0
 5531 0086 BA000000 		movl	$_ZTTN8UnitTest15MemoryOutStreamE+8, %edx
 5531      00
 5532 008b 488B45E8 		movq	-24(%rbp), %rax
 5533 008f 4889D6   		movq	%rdx, %rsi
 5534 0092 4889C7   		movq	%rax, %rdi
 5535 0095 E8000000 		call	_ZNSt7__cxx1119basic_ostringstreamIcSt11char_traitsIcESaIcEED2Ev
 5535      00
 5536 009a EB03     		jmp	.L235
 5537              	.L238:
 5538 009c 4889C3   		movq	%rax, %rbx
 5539              	.L235:
  13:/home/shubham/20140524/makestuff/libs/libutpp/MemoryOutStream.h **** {
 5540              		.loc 2 13 0 discriminator 19
 5541 009f B8020000 		movl	$2, %eax
 5541      00
 5542 00a4 85C0     		testl	%eax, %eax
 5543 00a6 7412     		je	.L236
  13:/home/shubham/20140524/makestuff/libs/libutpp/MemoryOutStream.h **** {
 5544              		.loc 2 13 0 discriminator 32
 5545 00a8 488B45E8 		movq	-24(%rbp), %rax
 5546 00ac 48059000 		addq	$144, %rax
 5546      0000
 5547 00b2 4889C7   		movq	%rax, %rdi
 5548 00b5 E8000000 		call	_ZNSt9basic_iosIcSt11char_traitsIcEED2Ev
 5548      00
 5549              	.L236:
 5550 00ba 4889D8   		movq	%rbx, %rax
 5551 00bd 4889C7   		movq	%rax, %rdi
 5552              	.LEHB165:
 5553 00c0 E8000000 		call	_Unwind_Resume
 5553      00
 5554              	.LEHE165:
 5555              	.L231:
 5556              	.LBE12:
  13:/home/shubham/20140524/makestuff/libs/libutpp/MemoryOutStream.h **** {
 5557              		.loc 2 13 0
 5558 00c5 4883C418 		addq	$24, %rsp
 5559 00c9 5B       		popq	%rbx
 5560 00ca 5D       		popq	%rbp
 5561              		.cfi_def_cfa 7, 8
 5562 00cb C3       		ret
 5563              		.cfi_endproc
 5564              	.LFE1130:
 5565              		.section	.gcc_except_table
 5566              	.LLSDA1130:
 5567 03c4 FF       		.byte	0xff
 5568 03c5 FF       		.byte	0xff
 5569 03c6 01       		.byte	0x1
 5570 03c7 13       		.uleb128 .LLSDACSE1130-.LLSDACSB1130
 5571              	.LLSDACSB1130:
 5572 03c8 38       		.uleb128 .LEHB162-.LFB1130
 5573 03c9 05       		.uleb128 .LEHE162-.LEHB162
 5574 03ca 8301     		.uleb128 .L237-.LFB1130
 5575 03cc 00       		.uleb128 0
 5576 03cd 4C       		.uleb128 .LEHB163-.LFB1130
 5577 03ce 05       		.uleb128 .LEHE163-.LEHB163
 5578 03cf 9C01     		.uleb128 .L238-.LFB1130
 5579 03d1 00       		.uleb128 0
 5580 03d2 67       		.uleb128 .LEHB164-.LFB1130
 5581 03d3 05       		.uleb128 .LEHE164-.LEHB164
 5582 03d4 00       		.uleb128 0
 5583 03d5 00       		.uleb128 0
 5584 03d6 C001     		.uleb128 .LEHB165-.LFB1130
 5585 03d8 05       		.uleb128 .LEHE165-.LEHB165
 5586 03d9 00       		.uleb128 0
 5587 03da 00       		.uleb128 0
 5588              	.LLSDACSE1130:
 5589              		.section	.text._ZN8UnitTest15MemoryOutStreamD1Ev,"axG",@progbits,_ZN8UnitTest15MemoryOutStreamD1Ev
 5591              		.set	.LTHUNK0,_ZN8UnitTest15MemoryOutStreamD1Ev
 5592              		.weak	_ZTv0_n24_N8UnitTest15MemoryOutStreamD1Ev
 5594              	_ZTv0_n24_N8UnitTest15MemoryOutStreamD1Ev:
 5595              	.LFB1213:
  13:/home/shubham/20140524/makestuff/libs/libutpp/MemoryOutStream.h **** {
 5596              		.loc 2 13 0 is_stmt 1
 5597              		.cfi_startproc
 5598 00cc 4C8B17   		movq	(%rdi), %r10
 5599 00cf 49037AE8 		addq	-24(%r10), %rdi
 5600 00d3 E928FFFF 		jmp	.LTHUNK0
 5600      FF
 5601              		.cfi_endproc
 5602              	.LFE1213:
 5604              		.section	.text._ZN8UnitTest15MemoryOutStreamD0Ev,"axG",@progbits,_ZN8UnitTest15MemoryOutStreamD0Ev
 5605              		.align 2
 5606              		.weak	_ZN8UnitTest15MemoryOutStreamD0Ev
 5608              	_ZN8UnitTest15MemoryOutStreamD0Ev:
 5609              	.LFB1131:
  13:/home/shubham/20140524/makestuff/libs/libutpp/MemoryOutStream.h **** {
 5610              		.loc 2 13 0
 5611              		.cfi_startproc
 5612 0000 55       		pushq	%rbp
 5613              		.cfi_def_cfa_offset 16
 5614              		.cfi_offset 6, -16
 5615 0001 4889E5   		movq	%rsp, %rbp
 5616              		.cfi_def_cfa_register 6
 5617 0004 4883EC10 		subq	$16, %rsp
 5618 0008 48897DF8 		movq	%rdi, -8(%rbp)
  13:/home/shubham/20140524/makestuff/libs/libutpp/MemoryOutStream.h **** {
 5619              		.loc 2 13 0
 5620 000c 488B45F8 		movq	-8(%rbp), %rax
 5621 0010 4889C7   		movq	%rax, %rdi
 5622 0013 E8000000 		call	_ZN8UnitTest15MemoryOutStreamD1Ev
 5622      00
 5623 0018 488B45F8 		movq	-8(%rbp), %rax
 5624 001c 4889C7   		movq	%rax, %rdi
 5625 001f E8000000 		call	_ZdlPv
 5625      00
 5626 0024 C9       		leave
 5627              		.cfi_def_cfa 7, 8
 5628 0025 C3       		ret
 5629              		.cfi_endproc
 5630              	.LFE1131:
 5632              		.set	.LTHUNK1,_ZN8UnitTest15MemoryOutStreamD0Ev
 5633              		.weak	_ZTv0_n24_N8UnitTest15MemoryOutStreamD0Ev
 5635              	_ZTv0_n24_N8UnitTest15MemoryOutStreamD0Ev:
 5636              	.LFB1214:
  13:/home/shubham/20140524/makestuff/libs/libutpp/MemoryOutStream.h **** {
 5637              		.loc 2 13 0
 5638              		.cfi_startproc
 5639 0026 4C8B17   		movq	(%rdi), %r10
 5640 0029 49037AE8 		addq	-24(%r10), %rdi
 5641 002d EBD1     		jmp	.LTHUNK1
 5642              		.cfi_endproc
 5643              	.LFE1214:
 5645              		.section	.rodata
 5646              	.LC135:
 5647 0b35 45787065 		.string	"Expected "
 5647      63746564 
 5647      2000
 5648              	.LC136:
 5649 0b3f 20627574 		.string	" but was "
 5649      20776173 
 5649      2000
 5650              		.section	.text._ZN8UnitTest10CheckEqualI8FLStatusS1_EEvRNS_11TestResultsERKT_RKT0_RKNS_11TestDetai
 5651              		.weak	_ZN8UnitTest10CheckEqualI8FLStatusS1_EEvRNS_11TestResultsERKT_RKT0_RKNS_11TestDetailsE
 5653              	_ZN8UnitTest10CheckEqualI8FLStatusS1_EEvRNS_11TestResultsERKT_RKT0_RKNS_11TestDetailsE:
 5654              	.LFB1127:
 5655              		.file 4 "/home/shubham/20140524/makestuff/libs/libutpp/Checks.h"
   1:/home/shubham/20140524/makestuff/libs/libutpp/Checks.h **** #ifndef UNITTEST_CHECKS_H
   2:/home/shubham/20140524/makestuff/libs/libutpp/Checks.h **** #define UNITTEST_CHECKS_H
   3:/home/shubham/20140524/makestuff/libs/libutpp/Checks.h **** 
   4:/home/shubham/20140524/makestuff/libs/libutpp/Checks.h **** #include "Config.h"
   5:/home/shubham/20140524/makestuff/libs/libutpp/Checks.h **** #include "TestResults.h"
   6:/home/shubham/20140524/makestuff/libs/libutpp/Checks.h **** #include "MemoryOutStream.h"
   7:/home/shubham/20140524/makestuff/libs/libutpp/Checks.h **** 
   8:/home/shubham/20140524/makestuff/libs/libutpp/Checks.h **** namespace UnitTest {
   9:/home/shubham/20140524/makestuff/libs/libutpp/Checks.h **** 
  10:/home/shubham/20140524/makestuff/libs/libutpp/Checks.h **** 
  11:/home/shubham/20140524/makestuff/libs/libutpp/Checks.h **** template< typename Value >
  12:/home/shubham/20140524/makestuff/libs/libutpp/Checks.h **** bool Check(Value const value)
  13:/home/shubham/20140524/makestuff/libs/libutpp/Checks.h **** {
  14:/home/shubham/20140524/makestuff/libs/libutpp/Checks.h ****     return !!value; // doing double negative to avoid silly VS warnings
  15:/home/shubham/20140524/makestuff/libs/libutpp/Checks.h **** }
  16:/home/shubham/20140524/makestuff/libs/libutpp/Checks.h **** 
  17:/home/shubham/20140524/makestuff/libs/libutpp/Checks.h **** 
  18:/home/shubham/20140524/makestuff/libs/libutpp/Checks.h **** template< typename Expected, typename Actual >
  19:/home/shubham/20140524/makestuff/libs/libutpp/Checks.h **** void CheckEqual(TestResults& results, Expected const& expected, Actual const& actual, TestDetails c
 5656              		.loc 4 19 0
 5657              		.cfi_startproc
 5658              		.cfi_personality 0x3,__gxx_personality_v0
 5659              		.cfi_lsda 0x3,.LLSDA1127
 5660 0000 55       		pushq	%rbp
 5661              		.cfi_def_cfa_offset 16
 5662              		.cfi_offset 6, -16
 5663 0001 4889E5   		movq	%rsp, %rbp
 5664              		.cfi_def_cfa_register 6
 5665 0004 4154     		pushq	%r12
 5666 0006 53       		pushq	%rbx
 5667 0007 4881ECC0 		subq	$448, %rsp
 5667      010000
 5668              		.cfi_offset 12, -24
 5669              		.cfi_offset 3, -32
 5670 000e 4889BD48 		movq	%rdi, -440(%rbp)
 5670      FEFFFF
 5671 0015 4889B540 		movq	%rsi, -448(%rbp)
 5671      FEFFFF
 5672 001c 48899538 		movq	%rdx, -456(%rbp)
 5672      FEFFFF
 5673 0023 48898D30 		movq	%rcx, -464(%rbp)
 5673      FEFFFF
 5674              		.loc 4 19 0
 5675 002a 64488B04 		movq	%fs:40, %rax
 5675      25280000 
 5675      00
 5676 0033 488945E8 		movq	%rax, -24(%rbp)
 5677 0037 31C0     		xorl	%eax, %eax
 5678              	.LBB13:
  20:/home/shubham/20140524/makestuff/libs/libutpp/Checks.h **** {
  21:/home/shubham/20140524/makestuff/libs/libutpp/Checks.h ****     if (!(expected == actual))
 5679              		.loc 4 21 0
 5680 0039 488B8540 		movq	-448(%rbp), %rax
 5680      FEFFFF
 5681 0040 8B10     		movl	(%rax), %edx
 5682 0042 488B8538 		movq	-456(%rbp), %rax
 5682      FEFFFF
 5683 0049 8B00     		movl	(%rax), %eax
 5684 004b 39C2     		cmpl	%eax, %edx
 5685 004d 0F84B500 		je	.L245
 5685      0000
 5686              	.LBB14:
  22:/home/shubham/20140524/makestuff/libs/libutpp/Checks.h ****     {
  23:/home/shubham/20140524/makestuff/libs/libutpp/Checks.h ****         UnitTest::MemoryOutStream stream;
 5687              		.loc 4 23 0
 5688 0053 488D8550 		leaq	-432(%rbp), %rax
 5688      FEFFFF
 5689 005a 4889C7   		movq	%rax, %rdi
 5690              	.LEHB166:
 5691 005d E8000000 		call	_ZN8UnitTest15MemoryOutStreamC1Ev
 5691      00
 5692              	.LEHE166:
  24:/home/shubham/20140524/makestuff/libs/libutpp/Checks.h ****         stream << "Expected " << expected << " but was " << actual;
 5693              		.loc 4 24 0
 5694 0062 488B8538 		movq	-456(%rbp), %rax
 5694      FEFFFF
 5695 0069 8B00     		movl	(%rax), %eax
 5696 006b 89C3     		movl	%eax, %ebx
 5697 006d 488B8540 		movq	-448(%rbp), %rax
 5697      FEFFFF
 5698 0074 8B00     		movl	(%rax), %eax
 5699 0076 4189C4   		movl	%eax, %r12d
 5700 0079 488D8550 		leaq	-432(%rbp), %rax
 5700      FEFFFF
 5701 0080 BE000000 		movl	$.LC135, %esi
 5701      00
 5702 0085 4889C7   		movq	%rax, %rdi
 5703              	.LEHB167:
 5704 0088 E8000000 		call	_ZStlsISt11char_traitsIcEERSt13basic_ostreamIcT_ES5_PKc
 5704      00
 5705 008d 4489E6   		movl	%r12d, %esi
 5706 0090 4889C7   		movq	%rax, %rdi
 5707 0093 E8000000 		call	_ZNSolsEi
 5707      00
 5708              		.loc 4 24 0 is_stmt 0 discriminator 1
 5709 0098 BE000000 		movl	$.LC136, %esi
 5709      00
 5710 009d 4889C7   		movq	%rax, %rdi
 5711 00a0 E8000000 		call	_ZStlsISt11char_traitsIcEERSt13basic_ostreamIcT_ES5_PKc
 5711      00
 5712              		.loc 4 24 0 discriminator 2
 5713 00a5 89DE     		movl	%ebx, %esi
 5714 00a7 4889C7   		movq	%rax, %rdi
 5715 00aa E8000000 		call	_ZNSolsEi
 5715      00
  25:/home/shubham/20140524/makestuff/libs/libutpp/Checks.h **** 
  26:/home/shubham/20140524/makestuff/libs/libutpp/Checks.h ****         results.OnTestFailure(details, stream.GetText());
 5716              		.loc 4 26 0 is_stmt 1
 5717 00af 488D8550 		leaq	-432(%rbp), %rax
 5717      FEFFFF
 5718 00b6 4889C7   		movq	%rax, %rdi
 5719 00b9 E8000000 		call	_ZNK8UnitTest15MemoryOutStream7GetTextEv
 5719      00
 5720 00be 4889C2   		movq	%rax, %rdx
 5721 00c1 488B8D30 		movq	-464(%rbp), %rcx
 5721      FEFFFF
 5722 00c8 488B8548 		movq	-440(%rbp), %rax
 5722      FEFFFF
 5723 00cf 4889CE   		movq	%rcx, %rsi
 5724 00d2 4889C7   		movq	%rax, %rdi
 5725 00d5 E8000000 		call	_ZN8UnitTest11TestResults13OnTestFailureERKNS_11TestDetailsEPKc
 5725      00
 5726              	.LEHE167:
  23:/home/shubham/20140524/makestuff/libs/libutpp/Checks.h ****         stream << "Expected " << expected << " but was " << actual;
 5727              		.loc 4 23 0
 5728 00da 488D8550 		leaq	-432(%rbp), %rax
 5728      FEFFFF
 5729 00e1 4889C7   		movq	%rax, %rdi
 5730              	.LEHB168:
 5731 00e4 E8000000 		call	_ZN8UnitTest15MemoryOutStreamD1Ev
 5731      00
 5732              	.LEHE168:
 5733              	.LBE14:
 5734              	.LBE13:
  27:/home/shubham/20140524/makestuff/libs/libutpp/Checks.h ****     }
  28:/home/shubham/20140524/makestuff/libs/libutpp/Checks.h **** }
 5735              		.loc 4 28 0
 5736 00e9 EB1D     		jmp	.L245
 5737              	.L244:
 5738 00eb 4889C3   		movq	%rax, %rbx
 5739              	.LBB16:
 5740              	.LBB15:
  23:/home/shubham/20140524/makestuff/libs/libutpp/Checks.h ****         stream << "Expected " << expected << " but was " << actual;
 5741              		.loc 4 23 0
 5742 00ee 488D8550 		leaq	-432(%rbp), %rax
 5742      FEFFFF
 5743 00f5 4889C7   		movq	%rax, %rdi
 5744 00f8 E8000000 		call	_ZN8UnitTest15MemoryOutStreamD1Ev
 5744      00
 5745 00fd 4889D8   		movq	%rbx, %rax
 5746 0100 4889C7   		movq	%rax, %rdi
 5747              	.LEHB169:
 5748 0103 E8000000 		call	_Unwind_Resume
 5748      00
 5749              	.LEHE169:
 5750              	.L245:
 5751              	.LBE15:
 5752              	.LBE16:
 5753              		.loc 4 28 0
 5754 0108 90       		nop
 5755 0109 488B45E8 		movq	-24(%rbp), %rax
 5756 010d 64483304 		xorq	%fs:40, %rax
 5756      25280000 
 5756      00
 5757 0116 7405     		je	.L243
 5758 0118 E8000000 		call	__stack_chk_fail
 5758      00
 5759              	.L243:
 5760 011d 4881C4C0 		addq	$448, %rsp
 5760      010000
 5761 0124 5B       		popq	%rbx
 5762 0125 415C     		popq	%r12
 5763 0127 5D       		popq	%rbp
 5764              		.cfi_def_cfa 7, 8
 5765 0128 C3       		ret
 5766              		.cfi_endproc
 5767              	.LFE1127:
 5768              		.section	.gcc_except_table
 5769              	.LLSDA1127:
 5770 03db FF       		.byte	0xff
 5771 03dc FF       		.byte	0xff
 5772 03dd 01       		.byte	0x1
 5773 03de 14       		.uleb128 .LLSDACSE1127-.LLSDACSB1127
 5774              	.LLSDACSB1127:
 5775 03df 5D       		.uleb128 .LEHB166-.LFB1127
 5776 03e0 05       		.uleb128 .LEHE166-.LEHB166
 5777 03e1 00       		.uleb128 0
 5778 03e2 00       		.uleb128 0
 5779 03e3 8801     		.uleb128 .LEHB167-.LFB1127
 5780 03e5 52       		.uleb128 .LEHE167-.LEHB167
 5781 03e6 EB01     		.uleb128 .L244-.LFB1127
 5782 03e8 00       		.uleb128 0
 5783 03e9 E401     		.uleb128 .LEHB168-.LFB1127
 5784 03eb 05       		.uleb128 .LEHE168-.LEHB168
 5785 03ec 00       		.uleb128 0
 5786 03ed 00       		.uleb128 0
 5787 03ee 8302     		.uleb128 .LEHB169-.LFB1127
 5788 03f0 05       		.uleb128 .LEHE169-.LEHB169
 5789 03f1 00       		.uleb128 0
 5790 03f2 00       		.uleb128 0
 5791              	.LLSDACSE1127:
 5792              		.section	.text._ZN8UnitTest10CheckEqualI8FLStatusS1_EEvRNS_11TestResultsERKT_RKT0_RKNS_11TestDetai
 5794              		.section	.text._ZN8UnitTest10CheckEqualIjmEEvRNS_11TestResultsERKT_RKT0_RKNS_11TestDetailsE,"axG",
 5795              		.weak	_ZN8UnitTest10CheckEqualIjmEEvRNS_11TestResultsERKT_RKT0_RKNS_11TestDetailsE
 5797              	_ZN8UnitTest10CheckEqualIjmEEvRNS_11TestResultsERKT_RKT0_RKNS_11TestDetailsE:
 5798              	.LFB1132:
  19:/home/shubham/20140524/makestuff/libs/libutpp/Checks.h **** {
 5799              		.loc 4 19 0
 5800              		.cfi_startproc
 5801              		.cfi_personality 0x3,__gxx_personality_v0
 5802              		.cfi_lsda 0x3,.LLSDA1132
 5803 0000 55       		pushq	%rbp
 5804              		.cfi_def_cfa_offset 16
 5805              		.cfi_offset 6, -16
 5806 0001 4889E5   		movq	%rsp, %rbp
 5807              		.cfi_def_cfa_register 6
 5808 0004 4154     		pushq	%r12
 5809 0006 53       		pushq	%rbx
 5810 0007 4881ECC0 		subq	$448, %rsp
 5810      010000
 5811              		.cfi_offset 12, -24
 5812              		.cfi_offset 3, -32
 5813 000e 4889BD48 		movq	%rdi, -440(%rbp)
 5813      FEFFFF
 5814 0015 4889B540 		movq	%rsi, -448(%rbp)
 5814      FEFFFF
 5815 001c 48899538 		movq	%rdx, -456(%rbp)
 5815      FEFFFF
 5816 0023 48898D30 		movq	%rcx, -464(%rbp)
 5816      FEFFFF
  19:/home/shubham/20140524/makestuff/libs/libutpp/Checks.h **** {
 5817              		.loc 4 19 0
 5818 002a 64488B04 		movq	%fs:40, %rax
 5818      25280000 
 5818      00
 5819 0033 488945E8 		movq	%rax, -24(%rbp)
 5820 0037 31C0     		xorl	%eax, %eax
 5821              	.LBB17:
  21:/home/shubham/20140524/makestuff/libs/libutpp/Checks.h ****     {
 5822              		.loc 4 21 0
 5823 0039 488B8540 		movq	-448(%rbp), %rax
 5823      FEFFFF
 5824 0040 8B00     		movl	(%rax), %eax
 5825 0042 89C2     		movl	%eax, %edx
 5826 0044 488B8538 		movq	-456(%rbp), %rax
 5826      FEFFFF
 5827 004b 488B00   		movq	(%rax), %rax
 5828 004e 4839C2   		cmpq	%rax, %rdx
 5829 0051 0F84B300 		je	.L251
 5829      0000
 5830              	.LBB18:
  23:/home/shubham/20140524/makestuff/libs/libutpp/Checks.h ****         stream << "Expected " << expected << " but was " << actual;
 5831              		.loc 4 23 0
 5832 0057 488D8550 		leaq	-432(%rbp), %rax
 5832      FEFFFF
 5833 005e 4889C7   		movq	%rax, %rdi
 5834              	.LEHB170:
 5835 0061 E8000000 		call	_ZN8UnitTest15MemoryOutStreamC1Ev
 5835      00
 5836              	.LEHE170:
  24:/home/shubham/20140524/makestuff/libs/libutpp/Checks.h **** 
 5837              		.loc 4 24 0
 5838 0066 488B8538 		movq	-456(%rbp), %rax
 5838      FEFFFF
 5839 006d 488B18   		movq	(%rax), %rbx
 5840 0070 488B8540 		movq	-448(%rbp), %rax
 5840      FEFFFF
 5841 0077 448B20   		movl	(%rax), %r12d
 5842 007a 488D8550 		leaq	-432(%rbp), %rax
 5842      FEFFFF
 5843 0081 BE000000 		movl	$.LC135, %esi
 5843      00
 5844 0086 4889C7   		movq	%rax, %rdi
 5845              	.LEHB171:
 5846 0089 E8000000 		call	_ZStlsISt11char_traitsIcEERSt13basic_ostreamIcT_ES5_PKc
 5846      00
 5847 008e 4489E6   		movl	%r12d, %esi
 5848 0091 4889C7   		movq	%rax, %rdi
 5849 0094 E8000000 		call	_ZNSolsEj
 5849      00
  24:/home/shubham/20140524/makestuff/libs/libutpp/Checks.h **** 
 5850              		.loc 4 24 0 is_stmt 0 discriminator 1
 5851 0099 BE000000 		movl	$.LC136, %esi
 5851      00
 5852 009e 4889C7   		movq	%rax, %rdi
 5853 00a1 E8000000 		call	_ZStlsISt11char_traitsIcEERSt13basic_ostreamIcT_ES5_PKc
 5853      00
  24:/home/shubham/20140524/makestuff/libs/libutpp/Checks.h **** 
 5854              		.loc 4 24 0 discriminator 2
 5855 00a6 4889DE   		movq	%rbx, %rsi
 5856 00a9 4889C7   		movq	%rax, %rdi
 5857 00ac E8000000 		call	_ZNSolsEm
 5857      00
  26:/home/shubham/20140524/makestuff/libs/libutpp/Checks.h ****     }
 5858              		.loc 4 26 0 is_stmt 1
 5859 00b1 488D8550 		leaq	-432(%rbp), %rax
 5859      FEFFFF
 5860 00b8 4889C7   		movq	%rax, %rdi
 5861 00bb E8000000 		call	_ZNK8UnitTest15MemoryOutStream7GetTextEv
 5861      00
 5862 00c0 4889C2   		movq	%rax, %rdx
 5863 00c3 488B8D30 		movq	-464(%rbp), %rcx
 5863      FEFFFF
 5864 00ca 488B8548 		movq	-440(%rbp), %rax
 5864      FEFFFF
 5865 00d1 4889CE   		movq	%rcx, %rsi
 5866 00d4 4889C7   		movq	%rax, %rdi
 5867 00d7 E8000000 		call	_ZN8UnitTest11TestResults13OnTestFailureERKNS_11TestDetailsEPKc
 5867      00
 5868              	.LEHE171:
  23:/home/shubham/20140524/makestuff/libs/libutpp/Checks.h ****         stream << "Expected " << expected << " but was " << actual;
 5869              		.loc 4 23 0
 5870 00dc 488D8550 		leaq	-432(%rbp), %rax
 5870      FEFFFF
 5871 00e3 4889C7   		movq	%rax, %rdi
 5872              	.LEHB172:
 5873 00e6 E8000000 		call	_ZN8UnitTest15MemoryOutStreamD1Ev
 5873      00
 5874              	.LEHE172:
 5875              	.LBE18:
 5876              	.LBE17:
 5877              		.loc 4 28 0
 5878 00eb EB1D     		jmp	.L251
 5879              	.L250:
 5880 00ed 4889C3   		movq	%rax, %rbx
 5881              	.LBB20:
 5882              	.LBB19:
  23:/home/shubham/20140524/makestuff/libs/libutpp/Checks.h ****         stream << "Expected " << expected << " but was " << actual;
 5883              		.loc 4 23 0
 5884 00f0 488D8550 		leaq	-432(%rbp), %rax
 5884      FEFFFF
 5885 00f7 4889C7   		movq	%rax, %rdi
 5886 00fa E8000000 		call	_ZN8UnitTest15MemoryOutStreamD1Ev
 5886      00
 5887 00ff 4889D8   		movq	%rbx, %rax
 5888 0102 4889C7   		movq	%rax, %rdi
 5889              	.LEHB173:
 5890 0105 E8000000 		call	_Unwind_Resume
 5890      00
 5891              	.LEHE173:
 5892              	.L251:
 5893              	.LBE19:
 5894              	.LBE20:
 5895              		.loc 4 28 0
 5896 010a 90       		nop
 5897 010b 488B45E8 		movq	-24(%rbp), %rax
 5898 010f 64483304 		xorq	%fs:40, %rax
 5898      25280000 
 5898      00
 5899 0118 7405     		je	.L249
 5900 011a E8000000 		call	__stack_chk_fail
 5900      00
 5901              	.L249:
 5902 011f 4881C4C0 		addq	$448, %rsp
 5902      010000
 5903 0126 5B       		popq	%rbx
 5904 0127 415C     		popq	%r12
 5905 0129 5D       		popq	%rbp
 5906              		.cfi_def_cfa 7, 8
 5907 012a C3       		ret
 5908              		.cfi_endproc
 5909              	.LFE1132:
 5910              		.section	.gcc_except_table
 5911              	.LLSDA1132:
 5912 03f3 FF       		.byte	0xff
 5913 03f4 FF       		.byte	0xff
 5914 03f5 01       		.byte	0x1
 5915 03f6 14       		.uleb128 .LLSDACSE1132-.LLSDACSB1132
 5916              	.LLSDACSB1132:
 5917 03f7 61       		.uleb128 .LEHB170-.LFB1132
 5918 03f8 05       		.uleb128 .LEHE170-.LEHB170
 5919 03f9 00       		.uleb128 0
 5920 03fa 00       		.uleb128 0
 5921 03fb 8901     		.uleb128 .LEHB171-.LFB1132
 5922 03fd 53       		.uleb128 .LEHE171-.LEHB171
 5923 03fe ED01     		.uleb128 .L250-.LFB1132
 5924 0400 00       		.uleb128 0
 5925 0401 E601     		.uleb128 .LEHB172-.LFB1132
 5926 0403 05       		.uleb128 .LEHE172-.LEHB172
 5927 0404 00       		.uleb128 0
 5928 0405 00       		.uleb128 0
 5929 0406 8502     		.uleb128 .LEHB173-.LFB1132
 5930 0408 05       		.uleb128 .LEHE173-.LEHB173
 5931 0409 00       		.uleb128 0
 5932 040a 00       		.uleb128 0
 5933              	.LLSDACSE1132:
 5934              		.section	.text._ZN8UnitTest10CheckEqualIjmEEvRNS_11TestResultsERKT_RKT0_RKNS_11TestDetailsE,"axG",
 5936              		.section	.text._ZN8UnitTest10CheckEqualI12BufferStatusS1_EEvRNS_11TestResultsERKT_RKT0_RKNS_11Test
 5937              		.weak	_ZN8UnitTest10CheckEqualI12BufferStatusS1_EEvRNS_11TestResultsERKT_RKT0_RKNS_11TestDetailsE
 5939              	_ZN8UnitTest10CheckEqualI12BufferStatusS1_EEvRNS_11TestResultsERKT_RKT0_RKNS_11TestDetailsE:
 5940              	.LFB1133:
  19:/home/shubham/20140524/makestuff/libs/libutpp/Checks.h **** {
 5941              		.loc 4 19 0
 5942              		.cfi_startproc
 5943              		.cfi_personality 0x3,__gxx_personality_v0
 5944              		.cfi_lsda 0x3,.LLSDA1133
 5945 0000 55       		pushq	%rbp
 5946              		.cfi_def_cfa_offset 16
 5947              		.cfi_offset 6, -16
 5948 0001 4889E5   		movq	%rsp, %rbp
 5949              		.cfi_def_cfa_register 6
 5950 0004 4154     		pushq	%r12
 5951 0006 53       		pushq	%rbx
 5952 0007 4881ECC0 		subq	$448, %rsp
 5952      010000
 5953              		.cfi_offset 12, -24
 5954              		.cfi_offset 3, -32
 5955 000e 4889BD48 		movq	%rdi, -440(%rbp)
 5955      FEFFFF
 5956 0015 4889B540 		movq	%rsi, -448(%rbp)
 5956      FEFFFF
 5957 001c 48899538 		movq	%rdx, -456(%rbp)
 5957      FEFFFF
 5958 0023 48898D30 		movq	%rcx, -464(%rbp)
 5958      FEFFFF
  19:/home/shubham/20140524/makestuff/libs/libutpp/Checks.h **** {
 5959              		.loc 4 19 0
 5960 002a 64488B04 		movq	%fs:40, %rax
 5960      25280000 
 5960      00
 5961 0033 488945E8 		movq	%rax, -24(%rbp)
 5962 0037 31C0     		xorl	%eax, %eax
 5963              	.LBB21:
  21:/home/shubham/20140524/makestuff/libs/libutpp/Checks.h ****     {
 5964              		.loc 4 21 0
 5965 0039 488B8540 		movq	-448(%rbp), %rax
 5965      FEFFFF
 5966 0040 8B10     		movl	(%rax), %edx
 5967 0042 488B8538 		movq	-456(%rbp), %rax
 5967      FEFFFF
 5968 0049 8B00     		movl	(%rax), %eax
 5969 004b 39C2     		cmpl	%eax, %edx
 5970 004d 0F84B500 		je	.L257
 5970      0000
 5971              	.LBB22:
  23:/home/shubham/20140524/makestuff/libs/libutpp/Checks.h ****         stream << "Expected " << expected << " but was " << actual;
 5972              		.loc 4 23 0
 5973 0053 488D8550 		leaq	-432(%rbp), %rax
 5973      FEFFFF
 5974 005a 4889C7   		movq	%rax, %rdi
 5975              	.LEHB174:
 5976 005d E8000000 		call	_ZN8UnitTest15MemoryOutStreamC1Ev
 5976      00
 5977              	.LEHE174:
  24:/home/shubham/20140524/makestuff/libs/libutpp/Checks.h **** 
 5978              		.loc 4 24 0
 5979 0062 488B8538 		movq	-456(%rbp), %rax
 5979      FEFFFF
 5980 0069 8B00     		movl	(%rax), %eax
 5981 006b 89C3     		movl	%eax, %ebx
 5982 006d 488B8540 		movq	-448(%rbp), %rax
 5982      FEFFFF
 5983 0074 8B00     		movl	(%rax), %eax
 5984 0076 4189C4   		movl	%eax, %r12d
 5985 0079 488D8550 		leaq	-432(%rbp), %rax
 5985      FEFFFF
 5986 0080 BE000000 		movl	$.LC135, %esi
 5986      00
 5987 0085 4889C7   		movq	%rax, %rdi
 5988              	.LEHB175:
 5989 0088 E8000000 		call	_ZStlsISt11char_traitsIcEERSt13basic_ostreamIcT_ES5_PKc
 5989      00
 5990 008d 4489E6   		movl	%r12d, %esi
 5991 0090 4889C7   		movq	%rax, %rdi
 5992 0093 E8000000 		call	_ZNSolsEi
 5992      00
  24:/home/shubham/20140524/makestuff/libs/libutpp/Checks.h **** 
 5993              		.loc 4 24 0 is_stmt 0 discriminator 1
 5994 0098 BE000000 		movl	$.LC136, %esi
 5994      00
 5995 009d 4889C7   		movq	%rax, %rdi
 5996 00a0 E8000000 		call	_ZStlsISt11char_traitsIcEERSt13basic_ostreamIcT_ES5_PKc
 5996      00
  24:/home/shubham/20140524/makestuff/libs/libutpp/Checks.h **** 
 5997              		.loc 4 24 0 discriminator 2
 5998 00a5 89DE     		movl	%ebx, %esi
 5999 00a7 4889C7   		movq	%rax, %rdi
 6000 00aa E8000000 		call	_ZNSolsEi
 6000      00
  26:/home/shubham/20140524/makestuff/libs/libutpp/Checks.h ****     }
 6001              		.loc 4 26 0 is_stmt 1
 6002 00af 488D8550 		leaq	-432(%rbp), %rax
 6002      FEFFFF
 6003 00b6 4889C7   		movq	%rax, %rdi
 6004 00b9 E8000000 		call	_ZNK8UnitTest15MemoryOutStream7GetTextEv
 6004      00
 6005 00be 4889C2   		movq	%rax, %rdx
 6006 00c1 488B8D30 		movq	-464(%rbp), %rcx
 6006      FEFFFF
 6007 00c8 488B8548 		movq	-440(%rbp), %rax
 6007      FEFFFF
 6008 00cf 4889CE   		movq	%rcx, %rsi
 6009 00d2 4889C7   		movq	%rax, %rdi
 6010 00d5 E8000000 		call	_ZN8UnitTest11TestResults13OnTestFailureERKNS_11TestDetailsEPKc
 6010      00
 6011              	.LEHE175:
  23:/home/shubham/20140524/makestuff/libs/libutpp/Checks.h ****         stream << "Expected " << expected << " but was " << actual;
 6012              		.loc 4 23 0
 6013 00da 488D8550 		leaq	-432(%rbp), %rax
 6013      FEFFFF
 6014 00e1 4889C7   		movq	%rax, %rdi
 6015              	.LEHB176:
 6016 00e4 E8000000 		call	_ZN8UnitTest15MemoryOutStreamD1Ev
 6016      00
 6017              	.LEHE176:
 6018              	.LBE22:
 6019              	.LBE21:
 6020              		.loc 4 28 0
 6021 00e9 EB1D     		jmp	.L257
 6022              	.L256:
 6023 00eb 4889C3   		movq	%rax, %rbx
 6024              	.LBB24:
 6025              	.LBB23:
  23:/home/shubham/20140524/makestuff/libs/libutpp/Checks.h ****         stream << "Expected " << expected << " but was " << actual;
 6026              		.loc 4 23 0
 6027 00ee 488D8550 		leaq	-432(%rbp), %rax
 6027      FEFFFF
 6028 00f5 4889C7   		movq	%rax, %rdi
 6029 00f8 E8000000 		call	_ZN8UnitTest15MemoryOutStreamD1Ev
 6029      00
 6030 00fd 4889D8   		movq	%rbx, %rax
 6031 0100 4889C7   		movq	%rax, %rdi
 6032              	.LEHB177:
 6033 0103 E8000000 		call	_Unwind_Resume
 6033      00
 6034              	.LEHE177:
 6035              	.L257:
 6036              	.LBE23:
 6037              	.LBE24:
 6038              		.loc 4 28 0
 6039 0108 90       		nop
 6040 0109 488B45E8 		movq	-24(%rbp), %rax
 6041 010d 64483304 		xorq	%fs:40, %rax
 6041      25280000 
 6041      00
 6042 0116 7405     		je	.L255
 6043 0118 E8000000 		call	__stack_chk_fail
 6043      00
 6044              	.L255:
 6045 011d 4881C4C0 		addq	$448, %rsp
 6045      010000
 6046 0124 5B       		popq	%rbx
 6047 0125 415C     		popq	%r12
 6048 0127 5D       		popq	%rbp
 6049              		.cfi_def_cfa 7, 8
 6050 0128 C3       		ret
 6051              		.cfi_endproc
 6052              	.LFE1133:
 6053              		.section	.gcc_except_table
 6054              	.LLSDA1133:
 6055 040b FF       		.byte	0xff
 6056 040c FF       		.byte	0xff
 6057 040d 01       		.byte	0x1
 6058 040e 14       		.uleb128 .LLSDACSE1133-.LLSDACSB1133
 6059              	.LLSDACSB1133:
 6060 040f 5D       		.uleb128 .LEHB174-.LFB1133
 6061 0410 05       		.uleb128 .LEHE174-.LEHB174
 6062 0411 00       		.uleb128 0
 6063 0412 00       		.uleb128 0
 6064 0413 8801     		.uleb128 .LEHB175-.LFB1133
 6065 0415 52       		.uleb128 .LEHE175-.LEHB175
 6066 0416 EB01     		.uleb128 .L256-.LFB1133
 6067 0418 00       		.uleb128 0
 6068 0419 E401     		.uleb128 .LEHB176-.LFB1133
 6069 041b 05       		.uleb128 .LEHE176-.LEHB176
 6070 041c 00       		.uleb128 0
 6071 041d 00       		.uleb128 0
 6072 041e 8302     		.uleb128 .LEHB177-.LFB1133
 6073 0420 05       		.uleb128 .LEHE177-.LEHB177
 6074 0421 00       		.uleb128 0
 6075 0422 00       		.uleb128 0
 6076              	.LLSDACSE1133:
 6077              		.section	.text._ZN8UnitTest10CheckEqualI12BufferStatusS1_EEvRNS_11TestResultsERKT_RKT0_RKNS_11Test
 6079              		.section	.text._ZN8UnitTest10CheckEqualImmEEvRNS_11TestResultsERKT_RKT0_RKNS_11TestDetailsE,"axG",
 6080              		.weak	_ZN8UnitTest10CheckEqualImmEEvRNS_11TestResultsERKT_RKT0_RKNS_11TestDetailsE
 6082              	_ZN8UnitTest10CheckEqualImmEEvRNS_11TestResultsERKT_RKT0_RKNS_11TestDetailsE:
 6083              	.LFB1134:
  19:/home/shubham/20140524/makestuff/libs/libutpp/Checks.h **** {
 6084              		.loc 4 19 0
 6085              		.cfi_startproc
 6086              		.cfi_personality 0x3,__gxx_personality_v0
 6087              		.cfi_lsda 0x3,.LLSDA1134
 6088 0000 55       		pushq	%rbp
 6089              		.cfi_def_cfa_offset 16
 6090              		.cfi_offset 6, -16
 6091 0001 4889E5   		movq	%rsp, %rbp
 6092              		.cfi_def_cfa_register 6
 6093 0004 4154     		pushq	%r12
 6094 0006 53       		pushq	%rbx
 6095 0007 4881ECC0 		subq	$448, %rsp
 6095      010000
 6096              		.cfi_offset 12, -24
 6097              		.cfi_offset 3, -32
 6098 000e 4889BD48 		movq	%rdi, -440(%rbp)
 6098      FEFFFF
 6099 0015 4889B540 		movq	%rsi, -448(%rbp)
 6099      FEFFFF
 6100 001c 48899538 		movq	%rdx, -456(%rbp)
 6100      FEFFFF
 6101 0023 48898D30 		movq	%rcx, -464(%rbp)
 6101      FEFFFF
  19:/home/shubham/20140524/makestuff/libs/libutpp/Checks.h **** {
 6102              		.loc 4 19 0
 6103 002a 64488B04 		movq	%fs:40, %rax
 6103      25280000 
 6103      00
 6104 0033 488945E8 		movq	%rax, -24(%rbp)
 6105 0037 31C0     		xorl	%eax, %eax
 6106              	.LBB25:
  21:/home/shubham/20140524/makestuff/libs/libutpp/Checks.h ****     {
 6107              		.loc 4 21 0
 6108 0039 488B8540 		movq	-448(%rbp), %rax
 6108      FEFFFF
 6109 0040 488B10   		movq	(%rax), %rdx
 6110 0043 488B8538 		movq	-456(%rbp), %rax
 6110      FEFFFF
 6111 004a 488B00   		movq	(%rax), %rax
 6112 004d 4839C2   		cmpq	%rax, %rdx
 6113 0050 0F84B300 		je	.L263
 6113      0000
 6114              	.LBB26:
  23:/home/shubham/20140524/makestuff/libs/libutpp/Checks.h ****         stream << "Expected " << expected << " but was " << actual;
 6115              		.loc 4 23 0
 6116 0056 488D8550 		leaq	-432(%rbp), %rax
 6116      FEFFFF
 6117 005d 4889C7   		movq	%rax, %rdi
 6118              	.LEHB178:
 6119 0060 E8000000 		call	_ZN8UnitTest15MemoryOutStreamC1Ev
 6119      00
 6120              	.LEHE178:
  24:/home/shubham/20140524/makestuff/libs/libutpp/Checks.h **** 
 6121              		.loc 4 24 0
 6122 0065 488B8538 		movq	-456(%rbp), %rax
 6122      FEFFFF
 6123 006c 488B18   		movq	(%rax), %rbx
 6124 006f 488B8540 		movq	-448(%rbp), %rax
 6124      FEFFFF
 6125 0076 4C8B20   		movq	(%rax), %r12
 6126 0079 488D8550 		leaq	-432(%rbp), %rax
 6126      FEFFFF
 6127 0080 BE000000 		movl	$.LC135, %esi
 6127      00
 6128 0085 4889C7   		movq	%rax, %rdi
 6129              	.LEHB179:
 6130 0088 E8000000 		call	_ZStlsISt11char_traitsIcEERSt13basic_ostreamIcT_ES5_PKc
 6130      00
 6131 008d 4C89E6   		movq	%r12, %rsi
 6132 0090 4889C7   		movq	%rax, %rdi
 6133 0093 E8000000 		call	_ZNSolsEm
 6133      00
  24:/home/shubham/20140524/makestuff/libs/libutpp/Checks.h **** 
 6134              		.loc 4 24 0 is_stmt 0 discriminator 1
 6135 0098 BE000000 		movl	$.LC136, %esi
 6135      00
 6136 009d 4889C7   		movq	%rax, %rdi
 6137 00a0 E8000000 		call	_ZStlsISt11char_traitsIcEERSt13basic_ostreamIcT_ES5_PKc
 6137      00
  24:/home/shubham/20140524/makestuff/libs/libutpp/Checks.h **** 
 6138              		.loc 4 24 0 discriminator 2
 6139 00a5 4889DE   		movq	%rbx, %rsi
 6140 00a8 4889C7   		movq	%rax, %rdi
 6141 00ab E8000000 		call	_ZNSolsEm
 6141      00
  26:/home/shubham/20140524/makestuff/libs/libutpp/Checks.h ****     }
 6142              		.loc 4 26 0 is_stmt 1
 6143 00b0 488D8550 		leaq	-432(%rbp), %rax
 6143      FEFFFF
 6144 00b7 4889C7   		movq	%rax, %rdi
 6145 00ba E8000000 		call	_ZNK8UnitTest15MemoryOutStream7GetTextEv
 6145      00
 6146 00bf 4889C2   		movq	%rax, %rdx
 6147 00c2 488B8D30 		movq	-464(%rbp), %rcx
 6147      FEFFFF
 6148 00c9 488B8548 		movq	-440(%rbp), %rax
 6148      FEFFFF
 6149 00d0 4889CE   		movq	%rcx, %rsi
 6150 00d3 4889C7   		movq	%rax, %rdi
 6151 00d6 E8000000 		call	_ZN8UnitTest11TestResults13OnTestFailureERKNS_11TestDetailsEPKc
 6151      00
 6152              	.LEHE179:
  23:/home/shubham/20140524/makestuff/libs/libutpp/Checks.h ****         stream << "Expected " << expected << " but was " << actual;
 6153              		.loc 4 23 0
 6154 00db 488D8550 		leaq	-432(%rbp), %rax
 6154      FEFFFF
 6155 00e2 4889C7   		movq	%rax, %rdi
 6156              	.LEHB180:
 6157 00e5 E8000000 		call	_ZN8UnitTest15MemoryOutStreamD1Ev
 6157      00
 6158              	.LEHE180:
 6159              	.LBE26:
 6160              	.LBE25:
 6161              		.loc 4 28 0
 6162 00ea EB1D     		jmp	.L263
 6163              	.L262:
 6164 00ec 4889C3   		movq	%rax, %rbx
 6165              	.LBB28:
 6166              	.LBB27:
  23:/home/shubham/20140524/makestuff/libs/libutpp/Checks.h ****         stream << "Expected " << expected << " but was " << actual;
 6167              		.loc 4 23 0
 6168 00ef 488D8550 		leaq	-432(%rbp), %rax
 6168      FEFFFF
 6169 00f6 4889C7   		movq	%rax, %rdi
 6170 00f9 E8000000 		call	_ZN8UnitTest15MemoryOutStreamD1Ev
 6170      00
 6171 00fe 4889D8   		movq	%rbx, %rax
 6172 0101 4889C7   		movq	%rax, %rdi
 6173              	.LEHB181:
 6174 0104 E8000000 		call	_Unwind_Resume
 6174      00
 6175              	.LEHE181:
 6176              	.L263:
 6177              	.LBE27:
 6178              	.LBE28:
 6179              		.loc 4 28 0
 6180 0109 90       		nop
 6181 010a 488B45E8 		movq	-24(%rbp), %rax
 6182 010e 64483304 		xorq	%fs:40, %rax
 6182      25280000 
 6182      00
 6183 0117 7405     		je	.L261
 6184 0119 E8000000 		call	__stack_chk_fail
 6184      00
 6185              	.L261:
 6186 011e 4881C4C0 		addq	$448, %rsp
 6186      010000
 6187 0125 5B       		popq	%rbx
 6188 0126 415C     		popq	%r12
 6189 0128 5D       		popq	%rbp
 6190              		.cfi_def_cfa 7, 8
 6191 0129 C3       		ret
 6192              		.cfi_endproc
 6193              	.LFE1134:
 6194              		.section	.gcc_except_table
 6195              	.LLSDA1134:
 6196 0423 FF       		.byte	0xff
 6197 0424 FF       		.byte	0xff
 6198 0425 01       		.byte	0x1
 6199 0426 14       		.uleb128 .LLSDACSE1134-.LLSDACSB1134
 6200              	.LLSDACSB1134:
 6201 0427 60       		.uleb128 .LEHB178-.LFB1134
 6202 0428 05       		.uleb128 .LEHE178-.LEHB178
 6203 0429 00       		.uleb128 0
 6204 042a 00       		.uleb128 0
 6205 042b 8801     		.uleb128 .LEHB179-.LFB1134
 6206 042d 53       		.uleb128 .LEHE179-.LEHB179
 6207 042e EC01     		.uleb128 .L262-.LFB1134
 6208 0430 00       		.uleb128 0
 6209 0431 E501     		.uleb128 .LEHB180-.LFB1134
 6210 0433 05       		.uleb128 .LEHE180-.LEHB180
 6211 0434 00       		.uleb128 0
 6212 0435 00       		.uleb128 0
 6213 0436 8402     		.uleb128 .LEHB181-.LFB1134
 6214 0438 05       		.uleb128 .LEHE181-.LEHB181
 6215 0439 00       		.uleb128 0
 6216 043a 00       		.uleb128 0
 6217              	.LLSDACSE1134:
 6218              		.section	.text._ZN8UnitTest10CheckEqualImmEEvRNS_11TestResultsERKT_RKT0_RKNS_11TestDetailsE,"axG",
 6220              		.section	.text._ZN8UnitTest10CheckEqualIjjEEvRNS_11TestResultsERKT_RKT0_RKNS_11TestDetailsE,"axG",
 6221              		.weak	_ZN8UnitTest10CheckEqualIjjEEvRNS_11TestResultsERKT_RKT0_RKNS_11TestDetailsE
 6223              	_ZN8UnitTest10CheckEqualIjjEEvRNS_11TestResultsERKT_RKT0_RKNS_11TestDetailsE:
 6224              	.LFB1135:
  19:/home/shubham/20140524/makestuff/libs/libutpp/Checks.h **** {
 6225              		.loc 4 19 0
 6226              		.cfi_startproc
 6227              		.cfi_personality 0x3,__gxx_personality_v0
 6228              		.cfi_lsda 0x3,.LLSDA1135
 6229 0000 55       		pushq	%rbp
 6230              		.cfi_def_cfa_offset 16
 6231              		.cfi_offset 6, -16
 6232 0001 4889E5   		movq	%rsp, %rbp
 6233              		.cfi_def_cfa_register 6
 6234 0004 4154     		pushq	%r12
 6235 0006 53       		pushq	%rbx
 6236 0007 4881ECC0 		subq	$448, %rsp
 6236      010000
 6237              		.cfi_offset 12, -24
 6238              		.cfi_offset 3, -32
 6239 000e 4889BD48 		movq	%rdi, -440(%rbp)
 6239      FEFFFF
 6240 0015 4889B540 		movq	%rsi, -448(%rbp)
 6240      FEFFFF
 6241 001c 48899538 		movq	%rdx, -456(%rbp)
 6241      FEFFFF
 6242 0023 48898D30 		movq	%rcx, -464(%rbp)
 6242      FEFFFF
  19:/home/shubham/20140524/makestuff/libs/libutpp/Checks.h **** {
 6243              		.loc 4 19 0
 6244 002a 64488B04 		movq	%fs:40, %rax
 6244      25280000 
 6244      00
 6245 0033 488945E8 		movq	%rax, -24(%rbp)
 6246 0037 31C0     		xorl	%eax, %eax
 6247              	.LBB29:
  21:/home/shubham/20140524/makestuff/libs/libutpp/Checks.h ****     {
 6248              		.loc 4 21 0
 6249 0039 488B8540 		movq	-448(%rbp), %rax
 6249      FEFFFF
 6250 0040 8B10     		movl	(%rax), %edx
 6251 0042 488B8538 		movq	-456(%rbp), %rax
 6251      FEFFFF
 6252 0049 8B00     		movl	(%rax), %eax
 6253 004b 39C2     		cmpl	%eax, %edx
 6254 004d 0F84B100 		je	.L269
 6254      0000
 6255              	.LBB30:
  23:/home/shubham/20140524/makestuff/libs/libutpp/Checks.h ****         stream << "Expected " << expected << " but was " << actual;
 6256              		.loc 4 23 0
 6257 0053 488D8550 		leaq	-432(%rbp), %rax
 6257      FEFFFF
 6258 005a 4889C7   		movq	%rax, %rdi
 6259              	.LEHB182:
 6260 005d E8000000 		call	_ZN8UnitTest15MemoryOutStreamC1Ev
 6260      00
 6261              	.LEHE182:
  24:/home/shubham/20140524/makestuff/libs/libutpp/Checks.h **** 
 6262              		.loc 4 24 0
 6263 0062 488B8538 		movq	-456(%rbp), %rax
 6263      FEFFFF
 6264 0069 8B18     		movl	(%rax), %ebx
 6265 006b 488B8540 		movq	-448(%rbp), %rax
 6265      FEFFFF
 6266 0072 448B20   		movl	(%rax), %r12d
 6267 0075 488D8550 		leaq	-432(%rbp), %rax
 6267      FEFFFF
 6268 007c BE000000 		movl	$.LC135, %esi
 6268      00
 6269 0081 4889C7   		movq	%rax, %rdi
 6270              	.LEHB183:
 6271 0084 E8000000 		call	_ZStlsISt11char_traitsIcEERSt13basic_ostreamIcT_ES5_PKc
 6271      00
 6272 0089 4489E6   		movl	%r12d, %esi
 6273 008c 4889C7   		movq	%rax, %rdi
 6274 008f E8000000 		call	_ZNSolsEj
 6274      00
  24:/home/shubham/20140524/makestuff/libs/libutpp/Checks.h **** 
 6275              		.loc 4 24 0 is_stmt 0 discriminator 1
 6276 0094 BE000000 		movl	$.LC136, %esi
 6276      00
 6277 0099 4889C7   		movq	%rax, %rdi
 6278 009c E8000000 		call	_ZStlsISt11char_traitsIcEERSt13basic_ostreamIcT_ES5_PKc
 6278      00
  24:/home/shubham/20140524/makestuff/libs/libutpp/Checks.h **** 
 6279              		.loc 4 24 0 discriminator 2
 6280 00a1 89DE     		movl	%ebx, %esi
 6281 00a3 4889C7   		movq	%rax, %rdi
 6282 00a6 E8000000 		call	_ZNSolsEj
 6282      00
  26:/home/shubham/20140524/makestuff/libs/libutpp/Checks.h ****     }
 6283              		.loc 4 26 0 is_stmt 1
 6284 00ab 488D8550 		leaq	-432(%rbp), %rax
 6284      FEFFFF
 6285 00b2 4889C7   		movq	%rax, %rdi
 6286 00b5 E8000000 		call	_ZNK8UnitTest15MemoryOutStream7GetTextEv
 6286      00
 6287 00ba 4889C2   		movq	%rax, %rdx
 6288 00bd 488B8D30 		movq	-464(%rbp), %rcx
 6288      FEFFFF
 6289 00c4 488B8548 		movq	-440(%rbp), %rax
 6289      FEFFFF
 6290 00cb 4889CE   		movq	%rcx, %rsi
 6291 00ce 4889C7   		movq	%rax, %rdi
 6292 00d1 E8000000 		call	_ZN8UnitTest11TestResults13OnTestFailureERKNS_11TestDetailsEPKc
 6292      00
 6293              	.LEHE183:
  23:/home/shubham/20140524/makestuff/libs/libutpp/Checks.h ****         stream << "Expected " << expected << " but was " << actual;
 6294              		.loc 4 23 0
 6295 00d6 488D8550 		leaq	-432(%rbp), %rax
 6295      FEFFFF
 6296 00dd 4889C7   		movq	%rax, %rdi
 6297              	.LEHB184:
 6298 00e0 E8000000 		call	_ZN8UnitTest15MemoryOutStreamD1Ev
 6298      00
 6299              	.LEHE184:
 6300              	.LBE30:
 6301              	.LBE29:
 6302              		.loc 4 28 0
 6303 00e5 EB1D     		jmp	.L269
 6304              	.L268:
 6305 00e7 4889C3   		movq	%rax, %rbx
 6306              	.LBB32:
 6307              	.LBB31:
  23:/home/shubham/20140524/makestuff/libs/libutpp/Checks.h ****         stream << "Expected " << expected << " but was " << actual;
 6308              		.loc 4 23 0
 6309 00ea 488D8550 		leaq	-432(%rbp), %rax
 6309      FEFFFF
 6310 00f1 4889C7   		movq	%rax, %rdi
 6311 00f4 E8000000 		call	_ZN8UnitTest15MemoryOutStreamD1Ev
 6311      00
 6312 00f9 4889D8   		movq	%rbx, %rax
 6313 00fc 4889C7   		movq	%rax, %rdi
 6314              	.LEHB185:
 6315 00ff E8000000 		call	_Unwind_Resume
 6315      00
 6316              	.LEHE185:
 6317              	.L269:
 6318              	.LBE31:
 6319              	.LBE32:
 6320              		.loc 4 28 0
 6321 0104 90       		nop
 6322 0105 488B45E8 		movq	-24(%rbp), %rax
 6323 0109 64483304 		xorq	%fs:40, %rax
 6323      25280000 
 6323      00
 6324 0112 7405     		je	.L267
 6325 0114 E8000000 		call	__stack_chk_fail
 6325      00
 6326              	.L267:
 6327 0119 4881C4C0 		addq	$448, %rsp
 6327      010000
 6328 0120 5B       		popq	%rbx
 6329 0121 415C     		popq	%r12
 6330 0123 5D       		popq	%rbp
 6331              		.cfi_def_cfa 7, 8
 6332 0124 C3       		ret
 6333              		.cfi_endproc
 6334              	.LFE1135:
 6335              		.section	.gcc_except_table
 6336              	.LLSDA1135:
 6337 043b FF       		.byte	0xff
 6338 043c FF       		.byte	0xff
 6339 043d 01       		.byte	0x1
 6340 043e 14       		.uleb128 .LLSDACSE1135-.LLSDACSB1135
 6341              	.LLSDACSB1135:
 6342 043f 5D       		.uleb128 .LEHB182-.LFB1135
 6343 0440 05       		.uleb128 .LEHE182-.LEHB182
 6344 0441 00       		.uleb128 0
 6345 0442 00       		.uleb128 0
 6346 0443 8401     		.uleb128 .LEHB183-.LFB1135
 6347 0445 52       		.uleb128 .LEHE183-.LEHB183
 6348 0446 E701     		.uleb128 .L268-.LFB1135
 6349 0448 00       		.uleb128 0
 6350 0449 E001     		.uleb128 .LEHB184-.LFB1135
 6351 044b 05       		.uleb128 .LEHE184-.LEHB184
 6352 044c 00       		.uleb128 0
 6353 044d 00       		.uleb128 0
 6354 044e FF01     		.uleb128 .LEHB185-.LFB1135
 6355 0450 05       		.uleb128 .LEHE185-.LEHB185
 6356 0451 00       		.uleb128 0
 6357 0452 00       		.uleb128 0
 6358              	.LLSDACSE1135:
 6359              		.section	.text._ZN8UnitTest10CheckEqualIjjEEvRNS_11TestResultsERKT_RKT0_RKNS_11TestDetailsE,"axG",
 6361              		.section	.text._ZN8UnitTest5CheckIbEEbT_,"axG",@progbits,_ZN8UnitTest5CheckIbEEbT_,comdat
 6362              		.weak	_ZN8UnitTest5CheckIbEEbT_
 6364              	_ZN8UnitTest5CheckIbEEbT_:
 6365              	.LFB1136:
  12:/home/shubham/20140524/makestuff/libs/libutpp/Checks.h **** {
 6366              		.loc 4 12 0
 6367              		.cfi_startproc
 6368 0000 55       		pushq	%rbp
 6369              		.cfi_def_cfa_offset 16
 6370              		.cfi_offset 6, -16
 6371 0001 4889E5   		movq	%rsp, %rbp
 6372              		.cfi_def_cfa_register 6
 6373 0004 89F8     		movl	%edi, %eax
 6374 0006 8845FC   		movb	%al, -4(%rbp)
  14:/home/shubham/20140524/makestuff/libs/libutpp/Checks.h **** }
 6375              		.loc 4 14 0
 6376 0009 0FB645FC 		movzbl	-4(%rbp), %eax
  15:/home/shubham/20140524/makestuff/libs/libutpp/Checks.h **** 
 6377              		.loc 4 15 0
 6378 000d 5D       		popq	%rbp
 6379              		.cfi_def_cfa 7, 8
 6380 000e C3       		ret
 6381              		.cfi_endproc
 6382              	.LFE1136:
 6384              		.weak	_ZTV27TestFPGALink_testBuildIndex
 6385              		.section	.rodata._ZTV27TestFPGALink_testBuildIndex,"aG",@progbits,_ZTV27TestFPGALink_testBuildInde
 6386              		.align 8
 6389              	_ZTV27TestFPGALink_testBuildIndex:
 6390 0000 00000000 		.quad	0
 6390      00000000 
 6391 0008 00000000 		.quad	_ZTI27TestFPGALink_testBuildIndex
 6391      00000000 
 6392 0010 00000000 		.quad	_ZN27TestFPGALink_testBuildIndexD1Ev
 6392      00000000 
 6393 0018 00000000 		.quad	_ZN27TestFPGALink_testBuildIndexD0Ev
 6393      00000000 
 6394 0020 00000000 		.quad	_ZNK27TestFPGALink_testBuildIndex7RunImplEv
 6394      00000000 
 6395              		.section	.text._ZN27TestFPGALink_testBuildIndexD2Ev,"axG",@progbits,_ZN27TestFPGALink_testBuildInd
 6396              		.align 2
 6397              		.weak	_ZN27TestFPGALink_testBuildIndexD2Ev
 6399              	_ZN27TestFPGALink_testBuildIndexD2Ev:
 6400              	.LFB1192:
 834:testSvf2Csvf.cpp **** 	const uint8 src[] = {
 6401              		.loc 3 834 0
 6402              		.cfi_startproc
 6403 0000 55       		pushq	%rbp
 6404              		.cfi_def_cfa_offset 16
 6405              		.cfi_offset 6, -16
 6406 0001 4889E5   		movq	%rsp, %rbp
 6407              		.cfi_def_cfa_register 6
 6408 0004 4883EC10 		subq	$16, %rsp
 6409 0008 48897DF8 		movq	%rdi, -8(%rbp)
 6410              	.LBB33:
 834:testSvf2Csvf.cpp **** 	const uint8 src[] = {
 6411              		.loc 3 834 0
 6412 000c BA000000 		movl	$_ZTV27TestFPGALink_testBuildIndex+16, %edx
 6412      00
 6413 0011 488B45F8 		movq	-8(%rbp), %rax
 6414 0015 488910   		movq	%rdx, (%rax)
 6415 0018 488B45F8 		movq	-8(%rbp), %rax
 6416 001c 4889C7   		movq	%rax, %rdi
 6417 001f E8000000 		call	_ZN8UnitTest4TestD2Ev
 6417      00
 6418              	.LBE33:
 6419 0024 B8000000 		movl	$0, %eax
 6419      00
 6420 0029 85C0     		testl	%eax, %eax
 6421 002b 740C     		je	.L272
 834:testSvf2Csvf.cpp **** 	const uint8 src[] = {
 6422              		.loc 3 834 0 is_stmt 0 discriminator 4
 6423 002d 488B45F8 		movq	-8(%rbp), %rax
 6424 0031 4889C7   		movq	%rax, %rdi
 6425 0034 E8000000 		call	_ZdlPv
 6425      00
 6426              	.L272:
 834:testSvf2Csvf.cpp **** 	const uint8 src[] = {
 6427              		.loc 3 834 0
 6428 0039 C9       		leave
 6429              		.cfi_def_cfa 7, 8
 6430 003a C3       		ret
 6431              		.cfi_endproc
 6432              	.LFE1192:
 6434              		.weak	_ZN27TestFPGALink_testBuildIndexD1Ev
 6435              		.set	_ZN27TestFPGALink_testBuildIndexD1Ev,_ZN27TestFPGALink_testBuildIndexD2Ev
 6436              		.section	.text._ZN27TestFPGALink_testBuildIndexD0Ev,"axG",@progbits,_ZN27TestFPGALink_testBuildInd
 6437              		.align 2
 6438              		.weak	_ZN27TestFPGALink_testBuildIndexD0Ev
 6440              	_ZN27TestFPGALink_testBuildIndexD0Ev:
 6441              	.LFB1194:
 834:testSvf2Csvf.cpp **** 	const uint8 src[] = {
 6442              		.loc 3 834 0 is_stmt 1
 6443              		.cfi_startproc
 6444 0000 55       		pushq	%rbp
 6445              		.cfi_def_cfa_offset 16
 6446              		.cfi_offset 6, -16
 6447 0001 4889E5   		movq	%rsp, %rbp
 6448              		.cfi_def_cfa_register 6
 6449 0004 4883EC10 		subq	$16, %rsp
 6450 0008 48897DF8 		movq	%rdi, -8(%rbp)
 834:testSvf2Csvf.cpp **** 	const uint8 src[] = {
 6451              		.loc 3 834 0
 6452 000c 488B45F8 		movq	-8(%rbp), %rax
 6453 0010 4889C7   		movq	%rax, %rdi
 6454 0013 E8000000 		call	_ZN27TestFPGALink_testBuildIndexD1Ev
 6454      00
 6455 0018 488B45F8 		movq	-8(%rbp), %rax
 6456 001c 4889C7   		movq	%rax, %rdi
 6457 001f E8000000 		call	_ZdlPv
 6457      00
 6458 0024 C9       		leave
 6459              		.cfi_def_cfa 7, 8
 6460 0025 C3       		ret
 6461              		.cfi_endproc
 6462              	.LFE1194:
 6464              		.weak	_ZTV29TestFPGALink_testProcessIndex
 6465              		.section	.rodata._ZTV29TestFPGALink_testProcessIndex,"aG",@progbits,_ZTV29TestFPGALink_testProcess
 6466              		.align 8
 6469              	_ZTV29TestFPGALink_testProcessIndex:
 6470 0000 00000000 		.quad	0
 6470      00000000 
 6471 0008 00000000 		.quad	_ZTI29TestFPGALink_testProcessIndex
 6471      00000000 
 6472 0010 00000000 		.quad	_ZN29TestFPGALink_testProcessIndexD1Ev
 6472      00000000 
 6473 0018 00000000 		.quad	_ZN29TestFPGALink_testProcessIndexD0Ev
 6473      00000000 
 6474 0020 00000000 		.quad	_ZNK29TestFPGALink_testProcessIndex7RunImplEv
 6474      00000000 
 6475              		.section	.text._ZN29TestFPGALink_testProcessIndexD2Ev,"axG",@progbits,_ZN29TestFPGALink_testProces
 6476              		.align 2
 6477              		.weak	_ZN29TestFPGALink_testProcessIndexD2Ev
 6479              	_ZN29TestFPGALink_testProcessIndexD2Ev:
 6480              	.LFB1196:
 657:testSvf2Csvf.cpp **** 	int i, j, num;
 6481              		.loc 3 657 0
 6482              		.cfi_startproc
 6483 0000 55       		pushq	%rbp
 6484              		.cfi_def_cfa_offset 16
 6485              		.cfi_offset 6, -16
 6486 0001 4889E5   		movq	%rsp, %rbp
 6487              		.cfi_def_cfa_register 6
 6488 0004 4883EC10 		subq	$16, %rsp
 6489 0008 48897DF8 		movq	%rdi, -8(%rbp)
 6490              	.LBB34:
 657:testSvf2Csvf.cpp **** 	int i, j, num;
 6491              		.loc 3 657 0
 6492 000c BA000000 		movl	$_ZTV29TestFPGALink_testProcessIndex+16, %edx
 6492      00
 6493 0011 488B45F8 		movq	-8(%rbp), %rax
 6494 0015 488910   		movq	%rdx, (%rax)
 6495 0018 488B45F8 		movq	-8(%rbp), %rax
 6496 001c 4889C7   		movq	%rax, %rdi
 6497 001f E8000000 		call	_ZN8UnitTest4TestD2Ev
 6497      00
 6498              	.LBE34:
 6499 0024 B8000000 		movl	$0, %eax
 6499      00
 6500 0029 85C0     		testl	%eax, %eax
 6501 002b 740C     		je	.L275
 657:testSvf2Csvf.cpp **** 	int i, j, num;
 6502              		.loc 3 657 0 is_stmt 0 discriminator 4
 6503 002d 488B45F8 		movq	-8(%rbp), %rax
 6504 0031 4889C7   		movq	%rax, %rdi
 6505 0034 E8000000 		call	_ZdlPv
 6505      00
 6506              	.L275:
 657:testSvf2Csvf.cpp **** 	int i, j, num;
 6507              		.loc 3 657 0
 6508 0039 C9       		leave
 6509              		.cfi_def_cfa 7, 8
 6510 003a C3       		ret
 6511              		.cfi_endproc
 6512              	.LFE1196:
 6514              		.weak	_ZN29TestFPGALink_testProcessIndexD1Ev
 6515              		.set	_ZN29TestFPGALink_testProcessIndexD1Ev,_ZN29TestFPGALink_testProcessIndexD2Ev
 6516              		.section	.text._ZN29TestFPGALink_testProcessIndexD0Ev,"axG",@progbits,_ZN29TestFPGALink_testProces
 6517              		.align 2
 6518              		.weak	_ZN29TestFPGALink_testProcessIndexD0Ev
 6520              	_ZN29TestFPGALink_testProcessIndexD0Ev:
 6521              	.LFB1198:
 657:testSvf2Csvf.cpp **** 	int i, j, num;
 6522              		.loc 3 657 0 is_stmt 1
 6523              		.cfi_startproc
 6524 0000 55       		pushq	%rbp
 6525              		.cfi_def_cfa_offset 16
 6526              		.cfi_offset 6, -16
 6527 0001 4889E5   		movq	%rsp, %rbp
 6528              		.cfi_def_cfa_register 6
 6529 0004 4883EC10 		subq	$16, %rsp
 6530 0008 48897DF8 		movq	%rdi, -8(%rbp)
 657:testSvf2Csvf.cpp **** 	int i, j, num;
 6531              		.loc 3 657 0
 6532 000c 488B45F8 		movq	-8(%rbp), %rax
 6533 0010 4889C7   		movq	%rax, %rdi
 6534 0013 E8000000 		call	_ZN29TestFPGALink_testProcessIndexD1Ev
 6534      00
 6535 0018 488B45F8 		movq	-8(%rbp), %rax
 6536 001c 4889C7   		movq	%rax, %rdi
 6537 001f E8000000 		call	_ZdlPv
 6537      00
 6538 0024 C9       		leave
 6539              		.cfi_def_cfa 7, 8
 6540 0025 C3       		ret
 6541              		.cfi_endproc
 6542              	.LFE1198:
 6544              		.weak	_ZTV22TestFPGALink_testParse
 6545              		.section	.rodata._ZTV22TestFPGALink_testParse,"aG",@progbits,_ZTV22TestFPGALink_testParse,comdat
 6546              		.align 8
 6549              	_ZTV22TestFPGALink_testParse:
 6550 0000 00000000 		.quad	0
 6550      00000000 
 6551 0008 00000000 		.quad	_ZTI22TestFPGALink_testParse
 6551      00000000 
 6552 0010 00000000 		.quad	_ZN22TestFPGALink_testParseD1Ev
 6552      00000000 
 6553 0018 00000000 		.quad	_ZN22TestFPGALink_testParseD0Ev
 6553      00000000 
 6554 0020 00000000 		.quad	_ZNK22TestFPGALink_testParse7RunImplEv
 6554      00000000 
 6555              		.section	.text._ZN22TestFPGALink_testParseD2Ev,"axG",@progbits,_ZN22TestFPGALink_testParseD5Ev,com
 6556              		.align 2
 6557              		.weak	_ZN22TestFPGALink_testParseD2Ev
 6559              	_ZN22TestFPGALink_testParseD2Ev:
 6560              	.LFB1200:
 596:testSvf2Csvf.cpp **** 	FLStatus fStatus;
 6561              		.loc 3 596 0
 6562              		.cfi_startproc
 6563 0000 55       		pushq	%rbp
 6564              		.cfi_def_cfa_offset 16
 6565              		.cfi_offset 6, -16
 6566 0001 4889E5   		movq	%rsp, %rbp
 6567              		.cfi_def_cfa_register 6
 6568 0004 4883EC10 		subq	$16, %rsp
 6569 0008 48897DF8 		movq	%rdi, -8(%rbp)
 6570              	.LBB35:
 596:testSvf2Csvf.cpp **** 	FLStatus fStatus;
 6571              		.loc 3 596 0
 6572 000c BA000000 		movl	$_ZTV22TestFPGALink_testParse+16, %edx
 6572      00
 6573 0011 488B45F8 		movq	-8(%rbp), %rax
 6574 0015 488910   		movq	%rdx, (%rax)
 6575 0018 488B45F8 		movq	-8(%rbp), %rax
 6576 001c 4889C7   		movq	%rax, %rdi
 6577 001f E8000000 		call	_ZN8UnitTest4TestD2Ev
 6577      00
 6578              	.LBE35:
 6579 0024 B8000000 		movl	$0, %eax
 6579      00
 6580 0029 85C0     		testl	%eax, %eax
 6581 002b 740C     		je	.L278
 596:testSvf2Csvf.cpp **** 	FLStatus fStatus;
 6582              		.loc 3 596 0 is_stmt 0 discriminator 4
 6583 002d 488B45F8 		movq	-8(%rbp), %rax
 6584 0031 4889C7   		movq	%rax, %rdi
 6585 0034 E8000000 		call	_ZdlPv
 6585      00
 6586              	.L278:
 596:testSvf2Csvf.cpp **** 	FLStatus fStatus;
 6587              		.loc 3 596 0
 6588 0039 C9       		leave
 6589              		.cfi_def_cfa 7, 8
 6590 003a C3       		ret
 6591              		.cfi_endproc
 6592              	.LFE1200:
 6594              		.weak	_ZN22TestFPGALink_testParseD1Ev
 6595              		.set	_ZN22TestFPGALink_testParseD1Ev,_ZN22TestFPGALink_testParseD2Ev
 6596              		.section	.text._ZN22TestFPGALink_testParseD0Ev,"axG",@progbits,_ZN22TestFPGALink_testParseD5Ev,com
 6597              		.align 2
 6598              		.weak	_ZN22TestFPGALink_testParseD0Ev
 6600              	_ZN22TestFPGALink_testParseD0Ev:
 6601              	.LFB1202:
 596:testSvf2Csvf.cpp **** 	FLStatus fStatus;
 6602              		.loc 3 596 0 is_stmt 1
 6603              		.cfi_startproc
 6604 0000 55       		pushq	%rbp
 6605              		.cfi_def_cfa_offset 16
 6606              		.cfi_offset 6, -16
 6607 0001 4889E5   		movq	%rsp, %rbp
 6608              		.cfi_def_cfa_register 6
 6609 0004 4883EC10 		subq	$16, %rsp
 6610 0008 48897DF8 		movq	%rdi, -8(%rbp)
 596:testSvf2Csvf.cpp **** 	FLStatus fStatus;
 6611              		.loc 3 596 0
 6612 000c 488B45F8 		movq	-8(%rbp), %rax
 6613 0010 4889C7   		movq	%rax, %rdi
 6614 0013 E8000000 		call	_ZN22TestFPGALink_testParseD1Ev
 6614      00
 6615 0018 488B45F8 		movq	-8(%rbp), %rax
 6616 001c 4889C7   		movq	%rax, %rdi
 6617 001f E8000000 		call	_ZdlPv
 6617      00
 6618 0024 C9       		leave
 6619              		.cfi_def_cfa 7, 8
 6620 0025 C3       		ret
 6621              		.cfi_endproc
 6622              	.LFE1202:
 6624              		.weak	_ZTV22TestFPGALink_testShift
 6625              		.section	.rodata._ZTV22TestFPGALink_testShift,"aG",@progbits,_ZTV22TestFPGALink_testShift,comdat
 6626              		.align 8
 6629              	_ZTV22TestFPGALink_testShift:
 6630 0000 00000000 		.quad	0
 6630      00000000 
 6631 0008 00000000 		.quad	_ZTI22TestFPGALink_testShift
 6631      00000000 
 6632 0010 00000000 		.quad	_ZN22TestFPGALink_testShiftD1Ev
 6632      00000000 
 6633 0018 00000000 		.quad	_ZN22TestFPGALink_testShiftD0Ev
 6633      00000000 
 6634 0020 00000000 		.quad	_ZNK22TestFPGALink_testShift7RunImplEv
 6634      00000000 
 6635              		.section	.text._ZN22TestFPGALink_testShiftD2Ev,"axG",@progbits,_ZN22TestFPGALink_testShiftD5Ev,com
 6636              		.align 2
 6637              		.weak	_ZN22TestFPGALink_testShiftD2Ev
 6639              	_ZN22TestFPGALink_testShiftD2Ev:
 6640              	.LFB1204:
  90:testSvf2Csvf.cpp **** 	testShift(
 6641              		.loc 3 90 0
 6642              		.cfi_startproc
 6643 0000 55       		pushq	%rbp
 6644              		.cfi_def_cfa_offset 16
 6645              		.cfi_offset 6, -16
 6646 0001 4889E5   		movq	%rsp, %rbp
 6647              		.cfi_def_cfa_register 6
 6648 0004 4883EC10 		subq	$16, %rsp
 6649 0008 48897DF8 		movq	%rdi, -8(%rbp)
 6650              	.LBB36:
  90:testSvf2Csvf.cpp **** 	testShift(
 6651              		.loc 3 90 0
 6652 000c BA000000 		movl	$_ZTV22TestFPGALink_testShift+16, %edx
 6652      00
 6653 0011 488B45F8 		movq	-8(%rbp), %rax
 6654 0015 488910   		movq	%rdx, (%rax)
 6655 0018 488B45F8 		movq	-8(%rbp), %rax
 6656 001c 4889C7   		movq	%rax, %rdi
 6657 001f E8000000 		call	_ZN8UnitTest4TestD2Ev
 6657      00
 6658              	.LBE36:
 6659 0024 B8000000 		movl	$0, %eax
 6659      00
 6660 0029 85C0     		testl	%eax, %eax
 6661 002b 740C     		je	.L281
  90:testSvf2Csvf.cpp **** 	testShift(
 6662              		.loc 3 90 0 is_stmt 0 discriminator 4
 6663 002d 488B45F8 		movq	-8(%rbp), %rax
 6664 0031 4889C7   		movq	%rax, %rdi
 6665 0034 E8000000 		call	_ZdlPv
 6665      00
 6666              	.L281:
  90:testSvf2Csvf.cpp **** 	testShift(
 6667              		.loc 3 90 0
 6668 0039 C9       		leave
 6669              		.cfi_def_cfa 7, 8
 6670 003a C3       		ret
 6671              		.cfi_endproc
 6672              	.LFE1204:
 6674              		.weak	_ZN22TestFPGALink_testShiftD1Ev
 6675              		.set	_ZN22TestFPGALink_testShiftD1Ev,_ZN22TestFPGALink_testShiftD2Ev
 6676              		.section	.text._ZN22TestFPGALink_testShiftD0Ev,"axG",@progbits,_ZN22TestFPGALink_testShiftD5Ev,com
 6677              		.align 2
 6678              		.weak	_ZN22TestFPGALink_testShiftD0Ev
 6680              	_ZN22TestFPGALink_testShiftD0Ev:
 6681              	.LFB1206:
  90:testSvf2Csvf.cpp **** 	testShift(
 6682              		.loc 3 90 0 is_stmt 1
 6683              		.cfi_startproc
 6684 0000 55       		pushq	%rbp
 6685              		.cfi_def_cfa_offset 16
 6686              		.cfi_offset 6, -16
 6687 0001 4889E5   		movq	%rsp, %rbp
 6688              		.cfi_def_cfa_register 6
 6689 0004 4883EC10 		subq	$16, %rsp
 6690 0008 48897DF8 		movq	%rdi, -8(%rbp)
  90:testSvf2Csvf.cpp **** 	testShift(
 6691              		.loc 3 90 0
 6692 000c 488B45F8 		movq	-8(%rbp), %rax
 6693 0010 4889C7   		movq	%rax, %rdi
 6694 0013 E8000000 		call	_ZN22TestFPGALink_testShiftD1Ev
 6694      00
 6695 0018 488B45F8 		movq	-8(%rbp), %rax
 6696 001c 4889C7   		movq	%rax, %rdi
 6697 001f E8000000 		call	_ZdlPv
 6697      00
 6698 0024 C9       		leave
 6699              		.cfi_def_cfa 7, 8
 6700 0025 C3       		ret
 6701              		.cfi_endproc
 6702              	.LFE1206:
 6704              		.weak	_ZTV26TestFPGALink_testReadBytes
 6705              		.section	.rodata._ZTV26TestFPGALink_testReadBytes,"aG",@progbits,_ZTV26TestFPGALink_testReadBytes,
 6706              		.align 8
 6709              	_ZTV26TestFPGALink_testReadBytes:
 6710 0000 00000000 		.quad	0
 6710      00000000 
 6711 0008 00000000 		.quad	_ZTI26TestFPGALink_testReadBytes
 6711      00000000 
 6712 0010 00000000 		.quad	_ZN26TestFPGALink_testReadBytesD1Ev
 6712      00000000 
 6713 0018 00000000 		.quad	_ZN26TestFPGALink_testReadBytesD0Ev
 6713      00000000 
 6714 0020 00000000 		.quad	_ZNK26TestFPGALink_testReadBytes7RunImplEv
 6714      00000000 
 6715              		.section	.text._ZN26TestFPGALink_testReadBytesD2Ev,"axG",@progbits,_ZN26TestFPGALink_testReadBytes
 6716              		.align 2
 6717              		.weak	_ZN26TestFPGALink_testReadBytesD2Ev
 6719              	_ZN26TestFPGALink_testReadBytesD2Ev:
 6720              	.LFB1208:
  42:testSvf2Csvf.cpp **** 	struct Buffer lineBuf;
 6721              		.loc 3 42 0
 6722              		.cfi_startproc
 6723 0000 55       		pushq	%rbp
 6724              		.cfi_def_cfa_offset 16
 6725              		.cfi_offset 6, -16
 6726 0001 4889E5   		movq	%rsp, %rbp
 6727              		.cfi_def_cfa_register 6
 6728 0004 4883EC10 		subq	$16, %rsp
 6729 0008 48897DF8 		movq	%rdi, -8(%rbp)
 6730              	.LBB37:
  42:testSvf2Csvf.cpp **** 	struct Buffer lineBuf;
 6731              		.loc 3 42 0
 6732 000c BA000000 		movl	$_ZTV26TestFPGALink_testReadBytes+16, %edx
 6732      00
 6733 0011 488B45F8 		movq	-8(%rbp), %rax
 6734 0015 488910   		movq	%rdx, (%rax)
 6735 0018 488B45F8 		movq	-8(%rbp), %rax
 6736 001c 4889C7   		movq	%rax, %rdi
 6737 001f E8000000 		call	_ZN8UnitTest4TestD2Ev
 6737      00
 6738              	.LBE37:
 6739 0024 B8000000 		movl	$0, %eax
 6739      00
 6740 0029 85C0     		testl	%eax, %eax
 6741 002b 740C     		je	.L284
  42:testSvf2Csvf.cpp **** 	struct Buffer lineBuf;
 6742              		.loc 3 42 0 is_stmt 0 discriminator 4
 6743 002d 488B45F8 		movq	-8(%rbp), %rax
 6744 0031 4889C7   		movq	%rax, %rdi
 6745 0034 E8000000 		call	_ZdlPv
 6745      00
 6746              	.L284:
  42:testSvf2Csvf.cpp **** 	struct Buffer lineBuf;
 6747              		.loc 3 42 0
 6748 0039 C9       		leave
 6749              		.cfi_def_cfa 7, 8
 6750 003a C3       		ret
 6751              		.cfi_endproc
 6752              	.LFE1208:
 6754              		.weak	_ZN26TestFPGALink_testReadBytesD1Ev
 6755              		.set	_ZN26TestFPGALink_testReadBytesD1Ev,_ZN26TestFPGALink_testReadBytesD2Ev
 6756              		.section	.text._ZN26TestFPGALink_testReadBytesD0Ev,"axG",@progbits,_ZN26TestFPGALink_testReadBytes
 6757              		.align 2
 6758              		.weak	_ZN26TestFPGALink_testReadBytesD0Ev
 6760              	_ZN26TestFPGALink_testReadBytesD0Ev:
 6761              	.LFB1210:
  42:testSvf2Csvf.cpp **** 	struct Buffer lineBuf;
 6762              		.loc 3 42 0 is_stmt 1
 6763              		.cfi_startproc
 6764 0000 55       		pushq	%rbp
 6765              		.cfi_def_cfa_offset 16
 6766              		.cfi_offset 6, -16
 6767 0001 4889E5   		movq	%rsp, %rbp
 6768              		.cfi_def_cfa_register 6
 6769 0004 4883EC10 		subq	$16, %rsp
 6770 0008 48897DF8 		movq	%rdi, -8(%rbp)
  42:testSvf2Csvf.cpp **** 	struct Buffer lineBuf;
 6771              		.loc 3 42 0
 6772 000c 488B45F8 		movq	-8(%rbp), %rax
 6773 0010 4889C7   		movq	%rax, %rdi
 6774 0013 E8000000 		call	_ZN26TestFPGALink_testReadBytesD1Ev
 6774      00
 6775 0018 488B45F8 		movq	-8(%rbp), %rax
 6776 001c 4889C7   		movq	%rax, %rdi
 6777 001f E8000000 		call	_ZdlPv
 6777      00
 6778 0024 C9       		leave
 6779              		.cfi_def_cfa 7, 8
 6780 0025 C3       		ret
 6781              		.cfi_endproc
 6782              	.LFE1210:
 6784              		.weak	_ZTVN8UnitTest15MemoryOutStreamE
 6785              		.section	.rodata._ZTVN8UnitTest15MemoryOutStreamE,"aG",@progbits,_ZTVN8UnitTest15MemoryOutStreamE,
 6786              		.align 8
 6789              	_ZTVN8UnitTest15MemoryOutStreamE:
 6790 0000 90000000 		.quad	144
 6790      00000000 
 6791 0008 00000000 		.quad	0
 6791      00000000 
 6792 0010 00000000 		.quad	_ZTIN8UnitTest15MemoryOutStreamE
 6792      00000000 
 6793 0018 00000000 		.quad	_ZN8UnitTest15MemoryOutStreamD1Ev
 6793      00000000 
 6794 0020 00000000 		.quad	_ZN8UnitTest15MemoryOutStreamD0Ev
 6794      00000000 
 6795 0028 70FFFFFF 		.quad	-144
 6795      FFFFFFFF 
 6796 0030 70FFFFFF 		.quad	-144
 6796      FFFFFFFF 
 6797 0038 00000000 		.quad	_ZTIN8UnitTest15MemoryOutStreamE
 6797      00000000 
 6798 0040 00000000 		.quad	_ZTv0_n24_N8UnitTest15MemoryOutStreamD1Ev
 6798      00000000 
 6799 0048 00000000 		.quad	_ZTv0_n24_N8UnitTest15MemoryOutStreamD0Ev
 6799      00000000 
 6800              		.weak	_ZTTN8UnitTest15MemoryOutStreamE
 6801              		.section	.rodata._ZTTN8UnitTest15MemoryOutStreamE,"aG",@progbits,_ZTVN8UnitTest15MemoryOutStreamE,
 6802              		.align 8
 6805              	_ZTTN8UnitTest15MemoryOutStreamE:
 6806 0000 00000000 		.quad	_ZTVN8UnitTest15MemoryOutStreamE+24
 6806      00000000 
 6807 0008 00000000 		.quad	_ZTCN8UnitTest15MemoryOutStreamE0_NSt7__cxx1119basic_ostringstreamIcSt11char_traitsIcESaIcEE
 6807      00000000 
 6808 0010 00000000 		.quad	_ZTCN8UnitTest15MemoryOutStreamE0_So+24
 6808      00000000 
 6809 0018 00000000 		.quad	_ZTCN8UnitTest15MemoryOutStreamE0_So+64
 6809      00000000 
 6810 0020 00000000 		.quad	_ZTCN8UnitTest15MemoryOutStreamE0_NSt7__cxx1119basic_ostringstreamIcSt11char_traitsIcESaIcEE
 6810      00000000 
 6811 0028 00000000 		.quad	_ZTVN8UnitTest15MemoryOutStreamE+64
 6811      00000000 
 6812              		.hidden	_ZTCN8UnitTest15MemoryOutStreamE0_NSt7__cxx1119basic_ostringstreamIcSt11char_traitsIcESaIc
 6813              		.weak	_ZTCN8UnitTest15MemoryOutStreamE0_NSt7__cxx1119basic_ostringstreamIcSt11char_traitsIcESaIcEE
 6814              		.section	.rodata._ZTCN8UnitTest15MemoryOutStreamE0_NSt7__cxx1119basic_ostringstreamIcSt11char_trai
 6815              		.align 8
 6818              	_ZTCN8UnitTest15MemoryOutStreamE0_NSt7__cxx1119basic_ostringstreamIcSt11char_traitsIcESaIcEEE:
 6819 0000 90000000 		.quad	144
 6819      00000000 
 6820 0008 00000000 		.quad	0
 6820      00000000 
 6821 0010 00000000 		.quad	_ZTINSt7__cxx1119basic_ostringstreamIcSt11char_traitsIcESaIcEEE
 6821      00000000 
 6822 0018 00000000 		.quad	0
 6822      00000000 
 6823 0020 00000000 		.quad	0
 6823      00000000 
 6824 0028 70FFFFFF 		.quad	-144
 6824      FFFFFFFF 
 6825 0030 70FFFFFF 		.quad	-144
 6825      FFFFFFFF 
 6826 0038 00000000 		.quad	_ZTINSt7__cxx1119basic_ostringstreamIcSt11char_traitsIcESaIcEEE
 6826      00000000 
 6827 0040 00000000 		.quad	0
 6827      00000000 
 6828 0048 00000000 		.quad	0
 6828      00000000 
 6829              		.hidden	_ZTCN8UnitTest15MemoryOutStreamE0_So
 6830              		.weak	_ZTCN8UnitTest15MemoryOutStreamE0_So
 6831              		.section	.rodata._ZTCN8UnitTest15MemoryOutStreamE0_So,"aG",@progbits,_ZTVN8UnitTest15MemoryOutStre
 6832              		.align 8
 6835              	_ZTCN8UnitTest15MemoryOutStreamE0_So:
 6836 0000 90000000 		.quad	144
 6836      00000000 
 6837 0008 00000000 		.quad	0
 6837      00000000 
 6838 0010 00000000 		.quad	_ZTISo
 6838      00000000 
 6839 0018 00000000 		.quad	0
 6839      00000000 
 6840 0020 00000000 		.quad	0
 6840      00000000 
 6841 0028 70FFFFFF 		.quad	-144
 6841      FFFFFFFF 
 6842 0030 70FFFFFF 		.quad	-144
 6842      FFFFFFFF 
 6843 0038 00000000 		.quad	_ZTISo
 6843      00000000 
 6844 0040 00000000 		.quad	0
 6844      00000000 
 6845 0048 00000000 		.quad	0
 6845      00000000 
 6846              		.weak	_ZTI27TestFPGALink_testBuildIndex
 6847              		.section	.rodata._ZTI27TestFPGALink_testBuildIndex,"aG",@progbits,_ZTI27TestFPGALink_testBuildInde
 6848              		.align 8
 6851              	_ZTI27TestFPGALink_testBuildIndex:
 6852 0000 00000000 		.quad	_ZTVN10__cxxabiv120__si_class_type_infoE+16
 6852      00000000 
 6853 0008 00000000 		.quad	_ZTS27TestFPGALink_testBuildIndex
 6853      00000000 
 6854 0010 00000000 		.quad	_ZTIN8UnitTest4TestE
 6854      00000000 
 6855              		.weak	_ZTS27TestFPGALink_testBuildIndex
 6856              		.section	.rodata._ZTS27TestFPGALink_testBuildIndex,"aG",@progbits,_ZTS27TestFPGALink_testBuildInde
 6857              		.align 16
 6860              	_ZTS27TestFPGALink_testBuildIndex:
 6861 0000 32375465 		.string	"27TestFPGALink_testBuildIndex"
 6861      73744650 
 6861      47414C69 
 6861      6E6B5F74 
 6861      65737442 
 6862              		.weak	_ZTI29TestFPGALink_testProcessIndex
 6863              		.section	.rodata._ZTI29TestFPGALink_testProcessIndex,"aG",@progbits,_ZTI29TestFPGALink_testProcess
 6864              		.align 8
 6867              	_ZTI29TestFPGALink_testProcessIndex:
 6868 0000 00000000 		.quad	_ZTVN10__cxxabiv120__si_class_type_infoE+16
 6868      00000000 
 6869 0008 00000000 		.quad	_ZTS29TestFPGALink_testProcessIndex
 6869      00000000 
 6870 0010 00000000 		.quad	_ZTIN8UnitTest4TestE
 6870      00000000 
 6871              		.weak	_ZTS29TestFPGALink_testProcessIndex
 6872              		.section	.rodata._ZTS29TestFPGALink_testProcessIndex,"aG",@progbits,_ZTS29TestFPGALink_testProcess
 6873              		.align 32
 6876              	_ZTS29TestFPGALink_testProcessIndex:
 6877 0000 32395465 		.string	"29TestFPGALink_testProcessIndex"
 6877      73744650 
 6877      47414C69 
 6877      6E6B5F74 
 6877      65737450 
 6878              		.weak	_ZTI22TestFPGALink_testParse
 6879              		.section	.rodata._ZTI22TestFPGALink_testParse,"aG",@progbits,_ZTI22TestFPGALink_testParse,comdat
 6880              		.align 8
 6883              	_ZTI22TestFPGALink_testParse:
 6884 0000 00000000 		.quad	_ZTVN10__cxxabiv120__si_class_type_infoE+16
 6884      00000000 
 6885 0008 00000000 		.quad	_ZTS22TestFPGALink_testParse
 6885      00000000 
 6886 0010 00000000 		.quad	_ZTIN8UnitTest4TestE
 6886      00000000 
 6887              		.weak	_ZTS22TestFPGALink_testParse
 6888              		.section	.rodata._ZTS22TestFPGALink_testParse,"aG",@progbits,_ZTS22TestFPGALink_testParse,comdat
 6889              		.align 16
 6892              	_ZTS22TestFPGALink_testParse:
 6893 0000 32325465 		.string	"22TestFPGALink_testParse"
 6893      73744650 
 6893      47414C69 
 6893      6E6B5F74 
 6893      65737450 
 6894              		.weak	_ZTI22TestFPGALink_testShift
 6895              		.section	.rodata._ZTI22TestFPGALink_testShift,"aG",@progbits,_ZTI22TestFPGALink_testShift,comdat
 6896              		.align 8
 6899              	_ZTI22TestFPGALink_testShift:
 6900 0000 00000000 		.quad	_ZTVN10__cxxabiv120__si_class_type_infoE+16
 6900      00000000 
 6901 0008 00000000 		.quad	_ZTS22TestFPGALink_testShift
 6901      00000000 
 6902 0010 00000000 		.quad	_ZTIN8UnitTest4TestE
 6902      00000000 
 6903              		.weak	_ZTS22TestFPGALink_testShift
 6904              		.section	.rodata._ZTS22TestFPGALink_testShift,"aG",@progbits,_ZTS22TestFPGALink_testShift,comdat
 6905              		.align 16
 6908              	_ZTS22TestFPGALink_testShift:
 6909 0000 32325465 		.string	"22TestFPGALink_testShift"
 6909      73744650 
 6909      47414C69 
 6909      6E6B5F74 
 6909      65737453 
 6910              		.weak	_ZTI26TestFPGALink_testReadBytes
 6911              		.section	.rodata._ZTI26TestFPGALink_testReadBytes,"aG",@progbits,_ZTI26TestFPGALink_testReadBytes,
 6912              		.align 8
 6915              	_ZTI26TestFPGALink_testReadBytes:
 6916 0000 00000000 		.quad	_ZTVN10__cxxabiv120__si_class_type_infoE+16
 6916      00000000 
 6917 0008 00000000 		.quad	_ZTS26TestFPGALink_testReadBytes
 6917      00000000 
 6918 0010 00000000 		.quad	_ZTIN8UnitTest4TestE
 6918      00000000 
 6919              		.weak	_ZTS26TestFPGALink_testReadBytes
 6920              		.section	.rodata._ZTS26TestFPGALink_testReadBytes,"aG",@progbits,_ZTS26TestFPGALink_testReadBytes,
 6921              		.align 16
 6924              	_ZTS26TestFPGALink_testReadBytes:
 6925 0000 32365465 		.string	"26TestFPGALink_testReadBytes"
 6925      73744650 
 6925      47414C69 
 6925      6E6B5F74 
 6925      65737452 
 6926              		.weak	_ZTIN8UnitTest15MemoryOutStreamE
 6927              		.section	.rodata._ZTIN8UnitTest15MemoryOutStreamE,"aG",@progbits,_ZTIN8UnitTest15MemoryOutStreamE,
 6928              		.align 8
 6931              	_ZTIN8UnitTest15MemoryOutStreamE:
 6932 0000 00000000 		.quad	_ZTVN10__cxxabiv120__si_class_type_infoE+16
 6932      00000000 
 6933 0008 00000000 		.quad	_ZTSN8UnitTest15MemoryOutStreamE
 6933      00000000 
 6934 0010 00000000 		.quad	_ZTINSt7__cxx1119basic_ostringstreamIcSt11char_traitsIcESaIcEEE
 6934      00000000 
 6935              		.weak	_ZTSN8UnitTest15MemoryOutStreamE
 6936              		.section	.rodata._ZTSN8UnitTest15MemoryOutStreamE,"aG",@progbits,_ZTSN8UnitTest15MemoryOutStreamE,
 6937              		.align 16
 6940              	_ZTSN8UnitTest15MemoryOutStreamE:
 6941 0000 4E38556E 		.string	"N8UnitTest15MemoryOutStreamE"
 6941      69745465 
 6941      73743135 
 6941      4D656D6F 
 6941      72794F75 
 6942              		.text
 6944              	_Z41__static_initialization_and_destruction_0ii:
 6945              	.LFB1211:
 6946              		.loc 3 855 0
 6947              		.cfi_startproc
 6948 34a4 55       		pushq	%rbp
 6949              		.cfi_def_cfa_offset 16
 6950              		.cfi_offset 6, -16
 6951 34a5 4889E5   		movq	%rsp, %rbp
 6952              		.cfi_def_cfa_register 6
 6953 34a8 4883EC10 		subq	$16, %rsp
 6954 34ac 897DFC   		movl	%edi, -4(%rbp)
 6955 34af 8975F8   		movl	%esi, -8(%rbp)
 6956              		.loc 3 855 0
 6957 34b2 837DFC01 		cmpl	$1, -4(%rbp)
 6958 34b6 0F851601 		jne	.L289
 6958      0000
 6959              		.loc 3 855 0 is_stmt 0 discriminator 1
 6960 34bc 817DF8FF 		cmpl	$65535, -8(%rbp)
 6960      FF0000
 6961 34c3 0F850901 		jne	.L289
 6961      0000
  42:testSvf2Csvf.cpp **** 	struct Buffer lineBuf;
 6962              		.loc 3 42 0 is_stmt 1
 6963 34c9 BF000000 		movl	$testFPGALink_testReadBytesInstance, %edi
 6963      00
 6964 34ce E8000000 		call	_ZN26TestFPGALink_testReadBytesC1Ev
 6964      00
 6965 34d3 BA000000 		movl	$__dso_handle, %edx
 6965      00
 6966 34d8 BE000000 		movl	$testFPGALink_testReadBytesInstance, %esi
 6966      00
 6967 34dd BF000000 		movl	$_ZN26TestFPGALink_testReadBytesD1Ev, %edi
 6967      00
 6968 34e2 E8000000 		call	__cxa_atexit
 6968      00
 6969 34e7 E8000000 		call	_ZN8UnitTest4Test11GetTestListEv
 6969      00
 6970 34ec BA000000 		movl	$testFPGALink_testReadBytesInstance, %edx
 6970      00
 6971 34f1 4889C6   		movq	%rax, %rsi
 6972 34f4 BF000000 		movl	$adderFPGALink_testReadBytes, %edi
 6972      00
 6973 34f9 E8000000 		call	_ZN8UnitTest9ListAdderC1ERNS_8TestListEPNS_4TestE
 6973      00
  90:testSvf2Csvf.cpp **** 	testShift(
 6974              		.loc 3 90 0
 6975 34fe BF000000 		movl	$testFPGALink_testShiftInstance, %edi
 6975      00
 6976 3503 E8000000 		call	_ZN22TestFPGALink_testShiftC1Ev
 6976      00
 6977 3508 BA000000 		movl	$__dso_handle, %edx
 6977      00
 6978 350d BE000000 		movl	$testFPGALink_testShiftInstance, %esi
 6978      00
 6979 3512 BF000000 		movl	$_ZN22TestFPGALink_testShiftD1Ev, %edi
 6979      00
 6980 3517 E8000000 		call	__cxa_atexit
 6980      00
 6981 351c E8000000 		call	_ZN8UnitTest4Test11GetTestListEv
 6981      00
 6982 3521 BA000000 		movl	$testFPGALink_testShiftInstance, %edx
 6982      00
 6983 3526 4889C6   		movq	%rax, %rsi
 6984 3529 BF000000 		movl	$adderFPGALink_testShift, %edi
 6984      00
 6985 352e E8000000 		call	_ZN8UnitTest9ListAdderC1ERNS_8TestListEPNS_4TestE
 6985      00
 596:testSvf2Csvf.cpp **** 	FLStatus fStatus;
 6986              		.loc 3 596 0
 6987 3533 BF000000 		movl	$testFPGALink_testParseInstance, %edi
 6987      00
 6988 3538 E8000000 		call	_ZN22TestFPGALink_testParseC1Ev
 6988      00
 6989 353d BA000000 		movl	$__dso_handle, %edx
 6989      00
 6990 3542 BE000000 		movl	$testFPGALink_testParseInstance, %esi
 6990      00
 6991 3547 BF000000 		movl	$_ZN22TestFPGALink_testParseD1Ev, %edi
 6991      00
 6992 354c E8000000 		call	__cxa_atexit
 6992      00
 6993 3551 E8000000 		call	_ZN8UnitTest4Test11GetTestListEv
 6993      00
 6994 3556 BA000000 		movl	$testFPGALink_testParseInstance, %edx
 6994      00
 6995 355b 4889C6   		movq	%rax, %rsi
 6996 355e BF000000 		movl	$adderFPGALink_testParse, %edi
 6996      00
 6997 3563 E8000000 		call	_ZN8UnitTest9ListAdderC1ERNS_8TestListEPNS_4TestE
 6997      00
 657:testSvf2Csvf.cpp **** 	int i, j, num;
 6998              		.loc 3 657 0
 6999 3568 BF000000 		movl	$testFPGALink_testProcessIndexInstance, %edi
 6999      00
 7000 356d E8000000 		call	_ZN29TestFPGALink_testProcessIndexC1Ev
 7000      00
 7001 3572 BA000000 		movl	$__dso_handle, %edx
 7001      00
 7002 3577 BE000000 		movl	$testFPGALink_testProcessIndexInstance, %esi
 7002      00
 7003 357c BF000000 		movl	$_ZN29TestFPGALink_testProcessIndexD1Ev, %edi
 7003      00
 7004 3581 E8000000 		call	__cxa_atexit
 7004      00
 7005 3586 E8000000 		call	_ZN8UnitTest4Test11GetTestListEv
 7005      00
 7006 358b BA000000 		movl	$testFPGALink_testProcessIndexInstance, %edx
 7006      00
 7007 3590 4889C6   		movq	%rax, %rsi
 7008 3593 BF000000 		movl	$adderFPGALink_testProcessIndex, %edi
 7008      00
 7009 3598 E8000000 		call	_ZN8UnitTest9ListAdderC1ERNS_8TestListEPNS_4TestE
 7009      00
 834:testSvf2Csvf.cpp **** 	const uint8 src[] = {
 7010              		.loc 3 834 0
 7011 359d BF000000 		movl	$testFPGALink_testBuildIndexInstance, %edi
 7011      00
 7012 35a2 E8000000 		call	_ZN27TestFPGALink_testBuildIndexC1Ev
 7012      00
 7013 35a7 BA000000 		movl	$__dso_handle, %edx
 7013      00
 7014 35ac BE000000 		movl	$testFPGALink_testBuildIndexInstance, %esi
 7014      00
 7015 35b1 BF000000 		movl	$_ZN27TestFPGALink_testBuildIndexD1Ev, %edi
 7015      00
 7016 35b6 E8000000 		call	__cxa_atexit
 7016      00
 7017 35bb E8000000 		call	_ZN8UnitTest4Test11GetTestListEv
 7017      00
 7018 35c0 BA000000 		movl	$testFPGALink_testBuildIndexInstance, %edx
 7018      00
 7019 35c5 4889C6   		movq	%rax, %rsi
 7020 35c8 BF000000 		movl	$adderFPGALink_testBuildIndex, %edi
 7020      00
 7021 35cd E8000000 		call	_ZN8UnitTest9ListAdderC1ERNS_8TestListEPNS_4TestE
 7021      00
 7022              	.L289:
 7023              		.loc 3 855 0
 7024 35d2 90       		nop
 7025 35d3 C9       		leave
 7026              		.cfi_def_cfa 7, 8
 7027 35d4 C3       		ret
 7028              		.cfi_endproc
 7029              	.LFE1211:
 7032              	_GLOBAL__sub_I__Z13testReadBytesP6BufferPKc:
 7033              	.LFB1212:
 7034              		.loc 3 855 0
 7035              		.cfi_startproc
 7036 35d5 55       		pushq	%rbp
 7037              		.cfi_def_cfa_offset 16
 7038              		.cfi_offset 6, -16
 7039 35d6 4889E5   		movq	%rsp, %rbp
 7040              		.cfi_def_cfa_register 6
 7041              		.loc 3 855 0
 7042 35d9 BEFFFF00 		movl	$65535, %esi
 7042      00
 7043 35de BF010000 		movl	$1, %edi
 7043      00
 7044 35e3 E8BCFEFF 		call	_Z41__static_initialization_and_destruction_0ii
 7044      FF
 7045 35e8 5D       		popq	%rbp
 7046              		.cfi_def_cfa 7, 8
 7047 35e9 C3       		ret
 7048              		.cfi_endproc
 7049              	.LFE1212:
 7051              		.section	.init_array,"aw"
 7052              		.align 8
 7053 0000 00000000 		.quad	_GLOBAL__sub_I__Z13testReadBytesP6BufferPKc
 7053      00000000 
 7054              		.local	_ZZ9renderCxtPK12ParseContextE6result
 7055              		.comm	_ZZ9renderCxtPK12ParseContextE6result,1024,32
 7056              		.text
 7057              	.Letext0:
 7058              		.file 5 "/usr/include/c++/5/bits/basic_string.h"
 7059              		.file 6 "/usr/include/c++/5/bits/basic_string.tcc"
 7060              		.file 7 "/usr/include/c++/5/bits/stringfwd.h"
 7061              		.file 8 "/usr/include/c++/5/cstdio"
 7062              		.file 9 "/usr/include/c++/5/cstring"
 7063              		.file 10 "/usr/include/c++/5/cwchar"
 7064              		.file 11 "/usr/include/c++/5/bits/char_traits.h"
 7065              		.file 12 "/usr/include/x86_64-linux-gnu/c++/5/bits/c++config.h"
 7066              		.file 13 "/usr/include/c++/5/clocale"
 7067              		.file 14 "/usr/include/c++/5/bits/allocator.h"
 7068              		.file 15 "/usr/include/c++/5/cwctype"
 7069              		.file 16 "/usr/include/c++/5/debug/debug.h"
 7070              		.file 17 "/usr/include/c++/5/bits/predefined_ops.h"
 7071              		.file 18 "/usr/include/c++/5/ext/new_allocator.h"
 7072              		.file 19 "/usr/include/c++/5/ext/numeric_traits.h"
 7073              		.file 20 "/usr/include/c++/5/ext/alloc_traits.h"
 7074              		.file 21 "/usr/lib/gcc/x86_64-linux-gnu/5/include/stddef.h"
 7075              		.file 22 "/usr/include/x86_64-linux-gnu/bits/types.h"
 7076              		.file 23 "/usr/include/stdio.h"
 7077              		.file 24 "/usr/include/libio.h"
 7078              		.file 25 "/usr/include/wchar.h"
 7079              		.file 26 "/usr/include/_G_config.h"
 7080              		.file 27 "<built-in>"
 7081              		.file 28 "/usr/include/string.h"
 7082              		.file 29 "/home/shubham/20140524/makestuff/libs/libutpp/TestDetails.h"
 7083              		.file 30 "/home/shubham/20140524/makestuff/libs/libutpp/TestList.h"
 7084              		.file 31 "/home/shubham/20140524/makestuff/libs/libutpp/TestResults.h"
 7085              		.file 32 "/usr/include/time.h"
 7086              		.file 33 "/usr/include/locale.h"
 7087              		.file 34 "/usr/include/wctype.h"
 7088              		.file 35 "/usr/include/x86_64-linux-gnu/sys/time.h"
 7089              		.file 36 "/home/shubham/20140524/makestuff/common/makestuff.h"
 7090              		.file 37 "/home/shubham/20140524/makestuff/libs/libbuffer/libbuffer.h"
 7091              		.file 38 "../libfpgalink.h"
 7092              		.file 39 "../svf2csvf.h"
 7093              		.file 40 "../xsvf.h"
DEFINED SYMBOLS
                            *ABS*:0000000000000000 testSvf2Csvf.cpp
     /tmp/ccwxBToa.s:10     .text._ZN13UnitTestSuite12GetSuiteNameEv:0000000000000000 _ZN13UnitTestSuite12GetSuiteNameEv
     /tmp/ccwxBToa.s:33     .text._ZN8UnitTest15MemoryOutStreamC1Ev:0000000000000000 _ZN8UnitTest15MemoryOutStreamC1Ev
     /tmp/ccwxBToa.s:6805   .rodata._ZTTN8UnitTest15MemoryOutStreamE:0000000000000000 _ZTTN8UnitTest15MemoryOutStreamE
     /tmp/ccwxBToa.s:6789   .rodata._ZTVN8UnitTest15MemoryOutStreamE:0000000000000000 _ZTVN8UnitTest15MemoryOutStreamE
     /tmp/ccwxBToa.s:157    .text:0000000000000000 _Z13testReadBytesP6BufferPKc
     /tmp/ccwxBToa.s:5653   .text._ZN8UnitTest10CheckEqualI8FLStatusS1_EEvRNS_11TestResultsERKT_RKT0_RKNS_11TestDetailsE:0000000000000000 _ZN8UnitTest10CheckEqualI8FLStatusS1_EEvRNS_11TestResultsERKT_RKT0_RKNS_11TestDetailsE
     /tmp/ccwxBToa.s:5797   .text._ZN8UnitTest10CheckEqualIjmEEvRNS_11TestResultsERKT_RKT0_RKNS_11TestDetailsE:0000000000000000 _ZN8UnitTest10CheckEqualIjmEEvRNS_11TestResultsERKT_RKT0_RKNS_11TestDetailsE
     /tmp/ccwxBToa.s:509    .text._ZN26TestFPGALink_testReadBytesC2Ev:0000000000000000 _ZN26TestFPGALink_testReadBytesC2Ev
     /tmp/ccwxBToa.s:6709   .rodata._ZTV26TestFPGALink_testReadBytes:0000000000000000 _ZTV26TestFPGALink_testReadBytes
     /tmp/ccwxBToa.s:509    .text._ZN26TestFPGALink_testReadBytesC2Ev:0000000000000000 _ZN26TestFPGALink_testReadBytesC1Ev
     /tmp/ccwxBToa.s:548    .bss:0000000000000000 testFPGALink_testReadBytesInstance
     /tmp/ccwxBToa.s:553    .bss:0000000000000038 adderFPGALink_testReadBytes
     /tmp/ccwxBToa.s:575    .text:0000000000000322 _ZNK26TestFPGALink_testReadBytes7RunImplEv
     /tmp/ccwxBToa.s:5939   .text._ZN8UnitTest10CheckEqualI12BufferStatusS1_EEvRNS_11TestResultsERKT_RKT0_RKNS_11TestDetailsE:0000000000000000 _ZN8UnitTest10CheckEqualI12BufferStatusS1_EEvRNS_11TestResultsERKT_RKT0_RKNS_11TestDetailsE
     /tmp/ccwxBToa.s:776    .text:000000000000048a _Z9testShiftPKcjS0_jS0_jS0_
     /tmp/ccwxBToa.s:6082   .text._ZN8UnitTest10CheckEqualImmEEvRNS_11TestResultsERKT_RKT0_RKNS_11TestDetailsE:0000000000000000 _ZN8UnitTest10CheckEqualImmEEvRNS_11TestResultsERKT_RKT0_RKNS_11TestDetailsE
     /tmp/ccwxBToa.s:1721   .text._ZN22TestFPGALink_testShiftC2Ev:0000000000000000 _ZN22TestFPGALink_testShiftC2Ev
     /tmp/ccwxBToa.s:6629   .rodata._ZTV22TestFPGALink_testShift:0000000000000000 _ZTV22TestFPGALink_testShift
     /tmp/ccwxBToa.s:1721   .text._ZN22TestFPGALink_testShiftC2Ev:0000000000000000 _ZN22TestFPGALink_testShiftC1Ev
     /tmp/ccwxBToa.s:1760   .bss:0000000000000040 testFPGALink_testShiftInstance
     /tmp/ccwxBToa.s:1765   .bss:0000000000000078 adderFPGALink_testShift
     /tmp/ccwxBToa.s:1966   .text:0000000000000d18 _ZNK22TestFPGALink_testShift7RunImplEv
     /tmp/ccwxBToa.s:2801   .text:0000000000001b9b _Z11parseStringP12ParseContextPKcP6Buffer
     /tmp/ccwxBToa.s:3161   .text:0000000000001e41 _Z12renderBufferRPcPK6Buffer
     /tmp/ccwxBToa.s:3240   .text:0000000000001ee5 _Z14renderBitStoreRPcPK8BitStore
     /tmp/ccwxBToa.s:3332   .text:0000000000001fd7 _Z9renderCxtPK12ParseContext
     /tmp/ccwxBToa.s:7055   .bss:0000000000000140 _ZZ9renderCxtPK12ParseContextE6result
     /tmp/ccwxBToa.s:3459   .text._ZN22TestFPGALink_testParseC2Ev:0000000000000000 _ZN22TestFPGALink_testParseC2Ev
     /tmp/ccwxBToa.s:6549   .rodata._ZTV22TestFPGALink_testParse:0000000000000000 _ZTV22TestFPGALink_testParse
     /tmp/ccwxBToa.s:3459   .text._ZN22TestFPGALink_testParseC2Ev:0000000000000000 _ZN22TestFPGALink_testParseC1Ev
     /tmp/ccwxBToa.s:3498   .bss:0000000000000080 testFPGALink_testParseInstance
     /tmp/ccwxBToa.s:3503   .bss:00000000000000b8 adderFPGALink_testParse
     /tmp/ccwxBToa.s:3534   .text:0000000000002144 _ZNK22TestFPGALink_testParse7RunImplEv
     /tmp/ccwxBToa.s:4063   .text:00000000000025c3 _ZL7compareiPKhS0_
     /tmp/ccwxBToa.s:6223   .text._ZN8UnitTest10CheckEqualIjjEEvRNS_11TestResultsERKT_RKT0_RKNS_11TestDetailsE:0000000000000000 _ZN8UnitTest10CheckEqualIjjEEvRNS_11TestResultsERKT_RKT0_RKNS_11TestDetailsE
     /tmp/ccwxBToa.s:4327   .text._ZN29TestFPGALink_testProcessIndexC2Ev:0000000000000000 _ZN29TestFPGALink_testProcessIndexC2Ev
     /tmp/ccwxBToa.s:6469   .rodata._ZTV29TestFPGALink_testProcessIndex:0000000000000000 _ZTV29TestFPGALink_testProcessIndex
     /tmp/ccwxBToa.s:4327   .text._ZN29TestFPGALink_testProcessIndexC2Ev:0000000000000000 _ZN29TestFPGALink_testProcessIndexC1Ev
     /tmp/ccwxBToa.s:4366   .bss:00000000000000c0 testFPGALink_testProcessIndexInstance
     /tmp/ccwxBToa.s:4371   .bss:00000000000000f8 adderFPGALink_testProcessIndex
     /tmp/ccwxBToa.s:4390   .text:00000000000027c2 _ZNK29TestFPGALink_testProcessIndex7RunImplEv
     /tmp/ccwxBToa.s:6364   .text._ZN8UnitTest5CheckIbEEbT_:0000000000000000 _ZN8UnitTest5CheckIbEEbT_
     /tmp/ccwxBToa.s:5017   .text._ZN27TestFPGALink_testBuildIndexC2Ev:0000000000000000 _ZN27TestFPGALink_testBuildIndexC2Ev
     /tmp/ccwxBToa.s:6389   .rodata._ZTV27TestFPGALink_testBuildIndex:0000000000000000 _ZTV27TestFPGALink_testBuildIndex
     /tmp/ccwxBToa.s:5017   .text._ZN27TestFPGALink_testBuildIndexC2Ev:0000000000000000 _ZN27TestFPGALink_testBuildIndexC1Ev
     /tmp/ccwxBToa.s:5056   .bss:0000000000000100 testFPGALink_testBuildIndexInstance
     /tmp/ccwxBToa.s:5061   .bss:0000000000000138 adderFPGALink_testBuildIndex
     /tmp/ccwxBToa.s:5067   .text:0000000000003110 _ZNK27TestFPGALink_testBuildIndex7RunImplEv
     /tmp/ccwxBToa.s:5466   .text._ZN8UnitTest15MemoryOutStreamD1Ev:0000000000000000 _ZN8UnitTest15MemoryOutStreamD1Ev
     /tmp/ccwxBToa.s:5594   .text._ZN8UnitTest15MemoryOutStreamD1Ev:00000000000000cc _ZTv0_n24_N8UnitTest15MemoryOutStreamD1Ev
     /tmp/ccwxBToa.s:5608   .text._ZN8UnitTest15MemoryOutStreamD0Ev:0000000000000000 _ZN8UnitTest15MemoryOutStreamD0Ev
     /tmp/ccwxBToa.s:5635   .text._ZN8UnitTest15MemoryOutStreamD0Ev:0000000000000026 _ZTv0_n24_N8UnitTest15MemoryOutStreamD0Ev
     /tmp/ccwxBToa.s:6851   .rodata._ZTI27TestFPGALink_testBuildIndex:0000000000000000 _ZTI27TestFPGALink_testBuildIndex
     /tmp/ccwxBToa.s:6399   .text._ZN27TestFPGALink_testBuildIndexD2Ev:0000000000000000 _ZN27TestFPGALink_testBuildIndexD1Ev
     /tmp/ccwxBToa.s:6440   .text._ZN27TestFPGALink_testBuildIndexD0Ev:0000000000000000 _ZN27TestFPGALink_testBuildIndexD0Ev
     /tmp/ccwxBToa.s:6399   .text._ZN27TestFPGALink_testBuildIndexD2Ev:0000000000000000 _ZN27TestFPGALink_testBuildIndexD2Ev
     /tmp/ccwxBToa.s:6867   .rodata._ZTI29TestFPGALink_testProcessIndex:0000000000000000 _ZTI29TestFPGALink_testProcessIndex
     /tmp/ccwxBToa.s:6479   .text._ZN29TestFPGALink_testProcessIndexD2Ev:0000000000000000 _ZN29TestFPGALink_testProcessIndexD1Ev
     /tmp/ccwxBToa.s:6520   .text._ZN29TestFPGALink_testProcessIndexD0Ev:0000000000000000 _ZN29TestFPGALink_testProcessIndexD0Ev
     /tmp/ccwxBToa.s:6479   .text._ZN29TestFPGALink_testProcessIndexD2Ev:0000000000000000 _ZN29TestFPGALink_testProcessIndexD2Ev
     /tmp/ccwxBToa.s:6883   .rodata._ZTI22TestFPGALink_testParse:0000000000000000 _ZTI22TestFPGALink_testParse
     /tmp/ccwxBToa.s:6559   .text._ZN22TestFPGALink_testParseD2Ev:0000000000000000 _ZN22TestFPGALink_testParseD1Ev
     /tmp/ccwxBToa.s:6600   .text._ZN22TestFPGALink_testParseD0Ev:0000000000000000 _ZN22TestFPGALink_testParseD0Ev
     /tmp/ccwxBToa.s:6559   .text._ZN22TestFPGALink_testParseD2Ev:0000000000000000 _ZN22TestFPGALink_testParseD2Ev
     /tmp/ccwxBToa.s:6899   .rodata._ZTI22TestFPGALink_testShift:0000000000000000 _ZTI22TestFPGALink_testShift
     /tmp/ccwxBToa.s:6639   .text._ZN22TestFPGALink_testShiftD2Ev:0000000000000000 _ZN22TestFPGALink_testShiftD1Ev
     /tmp/ccwxBToa.s:6680   .text._ZN22TestFPGALink_testShiftD0Ev:0000000000000000 _ZN22TestFPGALink_testShiftD0Ev
     /tmp/ccwxBToa.s:6639   .text._ZN22TestFPGALink_testShiftD2Ev:0000000000000000 _ZN22TestFPGALink_testShiftD2Ev
     /tmp/ccwxBToa.s:6915   .rodata._ZTI26TestFPGALink_testReadBytes:0000000000000000 _ZTI26TestFPGALink_testReadBytes
     /tmp/ccwxBToa.s:6719   .text._ZN26TestFPGALink_testReadBytesD2Ev:0000000000000000 _ZN26TestFPGALink_testReadBytesD1Ev
     /tmp/ccwxBToa.s:6760   .text._ZN26TestFPGALink_testReadBytesD0Ev:0000000000000000 _ZN26TestFPGALink_testReadBytesD0Ev
     /tmp/ccwxBToa.s:6719   .text._ZN26TestFPGALink_testReadBytesD2Ev:0000000000000000 _ZN26TestFPGALink_testReadBytesD2Ev
     /tmp/ccwxBToa.s:6931   .rodata._ZTIN8UnitTest15MemoryOutStreamE:0000000000000000 _ZTIN8UnitTest15MemoryOutStreamE
     /tmp/ccwxBToa.s:6818   .rodata._ZTCN8UnitTest15MemoryOutStreamE0_NSt7__cxx1119basic_ostringstreamIcSt11char_traitsIcESaIcEEE:0000000000000000 _ZTCN8UnitTest15MemoryOutStreamE0_NSt7__cxx1119basic_ostringstreamIcSt11char_traitsIcESaIcEEE
     /tmp/ccwxBToa.s:6835   .rodata._ZTCN8UnitTest15MemoryOutStreamE0_So:0000000000000000 _ZTCN8UnitTest15MemoryOutStreamE0_So
     /tmp/ccwxBToa.s:6860   .rodata._ZTS27TestFPGALink_testBuildIndex:0000000000000000 _ZTS27TestFPGALink_testBuildIndex
     /tmp/ccwxBToa.s:6876   .rodata._ZTS29TestFPGALink_testProcessIndex:0000000000000000 _ZTS29TestFPGALink_testProcessIndex
     /tmp/ccwxBToa.s:6892   .rodata._ZTS22TestFPGALink_testParse:0000000000000000 _ZTS22TestFPGALink_testParse
     /tmp/ccwxBToa.s:6908   .rodata._ZTS22TestFPGALink_testShift:0000000000000000 _ZTS22TestFPGALink_testShift
     /tmp/ccwxBToa.s:6924   .rodata._ZTS26TestFPGALink_testReadBytes:0000000000000000 _ZTS26TestFPGALink_testReadBytes
     /tmp/ccwxBToa.s:6940   .rodata._ZTSN8UnitTest15MemoryOutStreamE:0000000000000000 _ZTSN8UnitTest15MemoryOutStreamE
     /tmp/ccwxBToa.s:6944   .text:00000000000034a4 _Z41__static_initialization_and_destruction_0ii
     /tmp/ccwxBToa.s:7032   .text:00000000000035d5 _GLOBAL__sub_I__Z13testReadBytesP6BufferPKc
                           .group:0000000000000000 _ZN26TestFPGALink_testReadBytesC5Ev
                           .group:0000000000000000 _ZN22TestFPGALink_testShiftC5Ev
                           .group:0000000000000000 _ZN22TestFPGALink_testParseC5Ev
                           .group:0000000000000000 _ZN29TestFPGALink_testProcessIndexC5Ev
                           .group:0000000000000000 _ZN27TestFPGALink_testBuildIndexC5Ev
                           .group:0000000000000000 _ZN27TestFPGALink_testBuildIndexD5Ev
                           .group:0000000000000000 _ZN29TestFPGALink_testProcessIndexD5Ev
                           .group:0000000000000000 _ZN22TestFPGALink_testParseD5Ev
                           .group:0000000000000000 _ZN22TestFPGALink_testShiftD5Ev
                           .group:0000000000000000 _ZN26TestFPGALink_testReadBytesD5Ev

UNDEFINED SYMBOLS
__gxx_personality_v0
_ZNSt9basic_iosIcSt11char_traitsIcEEC2Ev
_ZNSt7__cxx1119basic_ostringstreamIcSt11char_traitsIcESaIcEEC2ESt13_Ios_Openmode
_ZNSt7__cxx1112basic_stringIcSt11char_traitsIcESaIcEEC1Ev
_ZNSt7__cxx1119basic_ostringstreamIcSt11char_traitsIcESaIcEED2Ev
_ZNSt9basic_iosIcSt11char_traitsIcEED2Ev
_Unwind_Resume
strlen
bufZeroLength
readBytes
_ZN8UnitTest11CurrentTest7DetailsEv
_ZN8UnitTest11TestDetailsC1ERKS0_i
_ZN8UnitTest11CurrentTest7ResultsEv
sprintf
_ZN8UnitTest10CheckEqualERNS_11TestResultsEPKcPcRKNS_11TestDetailsE
__cxa_begin_catch
_ZN8UnitTest11TestResults13OnTestFailureERKNS_11TestDetailsEPKc
__cxa_end_catch
__stack_chk_fail
_ZN8UnitTest4TestC2EPKcS2_S2_i
bufInitialise
bufDestroy
headTail
bufAppendBlock
parseLine
cxtInitialise
_ZN8UnitTest10CheckEqualERNS_11TestResultsEPKcS3_RKNS_11TestDetailsE
cxtDestroy
getCmdName
printf
readLongBE
processIndex
memset
buildIndex
_ZNSt7__cxx1112basic_stringIcSt11char_traitsIcESaIcEED1Ev
_ZdlPv
_ZStlsISt11char_traitsIcEERSt13basic_ostreamIcT_ES5_PKc
_ZNSolsEi
_ZNK8UnitTest15MemoryOutStream7GetTextEv
_ZNSolsEj
_ZNSolsEm
_ZN8UnitTest4TestD2Ev
_ZTINSt7__cxx1119basic_ostringstreamIcSt11char_traitsIcESaIcEEE
_ZTISo
_ZTVN10__cxxabiv120__si_class_type_infoE
_ZTIN8UnitTest4TestE
__dso_handle
__cxa_atexit
_ZN8UnitTest4Test11GetTestListEv
_ZN8UnitTest9ListAdderC1ERNS_8TestListEPNS_4TestE
