   1              		.file	"testBinIO.cpp"
   2              		.text
   3              	.Ltext0:
   4              		.section	.text._ZStorSt13_Ios_OpenmodeS_,"axG",@progbits,_ZStorSt13_Ios_OpenmodeS_,comdat
   5              		.weak	_ZStorSt13_Ios_OpenmodeS_
   7              	_ZStorSt13_Ios_OpenmodeS_:
   8              	.LFB644:
   9              		.file 1 "/usr/include/c++/5/bits/ios_base.h"
   1:/usr/include/c++/5/bits/ios_base.h **** // Iostreams base classes -*- C++ -*-
   2:/usr/include/c++/5/bits/ios_base.h **** 
   3:/usr/include/c++/5/bits/ios_base.h **** // Copyright (C) 1997-2015 Free Software Foundation, Inc.
   4:/usr/include/c++/5/bits/ios_base.h **** //
   5:/usr/include/c++/5/bits/ios_base.h **** // This file is part of the GNU ISO C++ Library.  This library is free
   6:/usr/include/c++/5/bits/ios_base.h **** // software; you can redistribute it and/or modify it under the
   7:/usr/include/c++/5/bits/ios_base.h **** // terms of the GNU General Public License as published by the
   8:/usr/include/c++/5/bits/ios_base.h **** // Free Software Foundation; either version 3, or (at your option)
   9:/usr/include/c++/5/bits/ios_base.h **** // any later version.
  10:/usr/include/c++/5/bits/ios_base.h **** 
  11:/usr/include/c++/5/bits/ios_base.h **** // This library is distributed in the hope that it will be useful,
  12:/usr/include/c++/5/bits/ios_base.h **** // but WITHOUT ANY WARRANTY; without even the implied warranty of
  13:/usr/include/c++/5/bits/ios_base.h **** // MERCHANTABILITY or FITNESS FOR A PARTICULAR PURPOSE.  See the
  14:/usr/include/c++/5/bits/ios_base.h **** // GNU General Public License for more details.
  15:/usr/include/c++/5/bits/ios_base.h **** 
  16:/usr/include/c++/5/bits/ios_base.h **** // Under Section 7 of GPL version 3, you are granted additional
  17:/usr/include/c++/5/bits/ios_base.h **** // permissions described in the GCC Runtime Library Exception, version
  18:/usr/include/c++/5/bits/ios_base.h **** // 3.1, as published by the Free Software Foundation.
  19:/usr/include/c++/5/bits/ios_base.h **** 
  20:/usr/include/c++/5/bits/ios_base.h **** // You should have received a copy of the GNU General Public License and
  21:/usr/include/c++/5/bits/ios_base.h **** // a copy of the GCC Runtime Library Exception along with this program;
  22:/usr/include/c++/5/bits/ios_base.h **** // see the files COPYING3 and COPYING.RUNTIME respectively.  If not, see
  23:/usr/include/c++/5/bits/ios_base.h **** // <http://www.gnu.org/licenses/>.
  24:/usr/include/c++/5/bits/ios_base.h **** 
  25:/usr/include/c++/5/bits/ios_base.h **** /** @file bits/ios_base.h
  26:/usr/include/c++/5/bits/ios_base.h ****  *  This is an internal header file, included by other library headers.
  27:/usr/include/c++/5/bits/ios_base.h ****  *  Do not attempt to use it directly. @headername{ios}
  28:/usr/include/c++/5/bits/ios_base.h ****  */
  29:/usr/include/c++/5/bits/ios_base.h **** 
  30:/usr/include/c++/5/bits/ios_base.h **** //
  31:/usr/include/c++/5/bits/ios_base.h **** // ISO C++ 14882: 27.4  Iostreams base classes
  32:/usr/include/c++/5/bits/ios_base.h **** //
  33:/usr/include/c++/5/bits/ios_base.h **** 
  34:/usr/include/c++/5/bits/ios_base.h **** #ifndef _IOS_BASE_H
  35:/usr/include/c++/5/bits/ios_base.h **** #define _IOS_BASE_H 1
  36:/usr/include/c++/5/bits/ios_base.h **** 
  37:/usr/include/c++/5/bits/ios_base.h **** #pragma GCC system_header
  38:/usr/include/c++/5/bits/ios_base.h **** 
  39:/usr/include/c++/5/bits/ios_base.h **** #include <ext/atomicity.h>
  40:/usr/include/c++/5/bits/ios_base.h **** #include <bits/localefwd.h>
  41:/usr/include/c++/5/bits/ios_base.h **** #include <bits/locale_classes.h>
  42:/usr/include/c++/5/bits/ios_base.h **** 
  43:/usr/include/c++/5/bits/ios_base.h **** #if __cplusplus < 201103L
  44:/usr/include/c++/5/bits/ios_base.h **** # include <stdexcept>
  45:/usr/include/c++/5/bits/ios_base.h **** #else
  46:/usr/include/c++/5/bits/ios_base.h **** # include <system_error>
  47:/usr/include/c++/5/bits/ios_base.h **** #endif
  48:/usr/include/c++/5/bits/ios_base.h **** 
  49:/usr/include/c++/5/bits/ios_base.h **** namespace std _GLIBCXX_VISIBILITY(default)
  50:/usr/include/c++/5/bits/ios_base.h **** {
  51:/usr/include/c++/5/bits/ios_base.h **** _GLIBCXX_BEGIN_NAMESPACE_VERSION
  52:/usr/include/c++/5/bits/ios_base.h **** 
  53:/usr/include/c++/5/bits/ios_base.h ****   // The following definitions of bitmask types are enums, not ints,
  54:/usr/include/c++/5/bits/ios_base.h ****   // as permitted (but not required) in the standard, in order to provide
  55:/usr/include/c++/5/bits/ios_base.h ****   // better type safety in iostream calls.  A side effect is that
  56:/usr/include/c++/5/bits/ios_base.h ****   // expressions involving them are no longer compile-time constants.
  57:/usr/include/c++/5/bits/ios_base.h ****   enum _Ios_Fmtflags 
  58:/usr/include/c++/5/bits/ios_base.h ****     { 
  59:/usr/include/c++/5/bits/ios_base.h ****       _S_boolalpha 	= 1L << 0,
  60:/usr/include/c++/5/bits/ios_base.h ****       _S_dec 		= 1L << 1,
  61:/usr/include/c++/5/bits/ios_base.h ****       _S_fixed 		= 1L << 2,
  62:/usr/include/c++/5/bits/ios_base.h ****       _S_hex 		= 1L << 3,
  63:/usr/include/c++/5/bits/ios_base.h ****       _S_internal 	= 1L << 4,
  64:/usr/include/c++/5/bits/ios_base.h ****       _S_left 		= 1L << 5,
  65:/usr/include/c++/5/bits/ios_base.h ****       _S_oct 		= 1L << 6,
  66:/usr/include/c++/5/bits/ios_base.h ****       _S_right 		= 1L << 7,
  67:/usr/include/c++/5/bits/ios_base.h ****       _S_scientific 	= 1L << 8,
  68:/usr/include/c++/5/bits/ios_base.h ****       _S_showbase 	= 1L << 9,
  69:/usr/include/c++/5/bits/ios_base.h ****       _S_showpoint 	= 1L << 10,
  70:/usr/include/c++/5/bits/ios_base.h ****       _S_showpos 	= 1L << 11,
  71:/usr/include/c++/5/bits/ios_base.h ****       _S_skipws 	= 1L << 12,
  72:/usr/include/c++/5/bits/ios_base.h ****       _S_unitbuf 	= 1L << 13,
  73:/usr/include/c++/5/bits/ios_base.h ****       _S_uppercase 	= 1L << 14,
  74:/usr/include/c++/5/bits/ios_base.h ****       _S_adjustfield 	= _S_left | _S_right | _S_internal,
  75:/usr/include/c++/5/bits/ios_base.h ****       _S_basefield 	= _S_dec | _S_oct | _S_hex,
  76:/usr/include/c++/5/bits/ios_base.h ****       _S_floatfield 	= _S_scientific | _S_fixed,
  77:/usr/include/c++/5/bits/ios_base.h ****       _S_ios_fmtflags_end = 1L << 16,
  78:/usr/include/c++/5/bits/ios_base.h ****       _S_ios_fmtflags_max = __INT_MAX__,
  79:/usr/include/c++/5/bits/ios_base.h ****       _S_ios_fmtflags_min = ~__INT_MAX__
  80:/usr/include/c++/5/bits/ios_base.h ****     };
  81:/usr/include/c++/5/bits/ios_base.h **** 
  82:/usr/include/c++/5/bits/ios_base.h ****   inline _GLIBCXX_CONSTEXPR _Ios_Fmtflags
  83:/usr/include/c++/5/bits/ios_base.h ****   operator&(_Ios_Fmtflags __a, _Ios_Fmtflags __b)
  84:/usr/include/c++/5/bits/ios_base.h ****   { return _Ios_Fmtflags(static_cast<int>(__a) & static_cast<int>(__b)); }
  85:/usr/include/c++/5/bits/ios_base.h **** 
  86:/usr/include/c++/5/bits/ios_base.h ****   inline _GLIBCXX_CONSTEXPR _Ios_Fmtflags
  87:/usr/include/c++/5/bits/ios_base.h ****   operator|(_Ios_Fmtflags __a, _Ios_Fmtflags __b)
  88:/usr/include/c++/5/bits/ios_base.h ****   { return _Ios_Fmtflags(static_cast<int>(__a) | static_cast<int>(__b)); }
  89:/usr/include/c++/5/bits/ios_base.h **** 
  90:/usr/include/c++/5/bits/ios_base.h ****   inline _GLIBCXX_CONSTEXPR _Ios_Fmtflags
  91:/usr/include/c++/5/bits/ios_base.h ****   operator^(_Ios_Fmtflags __a, _Ios_Fmtflags __b)
  92:/usr/include/c++/5/bits/ios_base.h ****   { return _Ios_Fmtflags(static_cast<int>(__a) ^ static_cast<int>(__b)); }
  93:/usr/include/c++/5/bits/ios_base.h **** 
  94:/usr/include/c++/5/bits/ios_base.h ****   inline _GLIBCXX_CONSTEXPR _Ios_Fmtflags
  95:/usr/include/c++/5/bits/ios_base.h ****   operator~(_Ios_Fmtflags __a)
  96:/usr/include/c++/5/bits/ios_base.h ****   { return _Ios_Fmtflags(~static_cast<int>(__a)); }
  97:/usr/include/c++/5/bits/ios_base.h **** 
  98:/usr/include/c++/5/bits/ios_base.h ****   inline const _Ios_Fmtflags&
  99:/usr/include/c++/5/bits/ios_base.h ****   operator|=(_Ios_Fmtflags& __a, _Ios_Fmtflags __b)
 100:/usr/include/c++/5/bits/ios_base.h ****   { return __a = __a | __b; }
 101:/usr/include/c++/5/bits/ios_base.h **** 
 102:/usr/include/c++/5/bits/ios_base.h ****   inline const _Ios_Fmtflags&
 103:/usr/include/c++/5/bits/ios_base.h ****   operator&=(_Ios_Fmtflags& __a, _Ios_Fmtflags __b)
 104:/usr/include/c++/5/bits/ios_base.h ****   { return __a = __a & __b; }
 105:/usr/include/c++/5/bits/ios_base.h **** 
 106:/usr/include/c++/5/bits/ios_base.h ****   inline const _Ios_Fmtflags&
 107:/usr/include/c++/5/bits/ios_base.h ****   operator^=(_Ios_Fmtflags& __a, _Ios_Fmtflags __b)
 108:/usr/include/c++/5/bits/ios_base.h ****   { return __a = __a ^ __b; }
 109:/usr/include/c++/5/bits/ios_base.h **** 
 110:/usr/include/c++/5/bits/ios_base.h **** 
 111:/usr/include/c++/5/bits/ios_base.h ****   enum _Ios_Openmode 
 112:/usr/include/c++/5/bits/ios_base.h ****     { 
 113:/usr/include/c++/5/bits/ios_base.h ****       _S_app 		= 1L << 0,
 114:/usr/include/c++/5/bits/ios_base.h ****       _S_ate 		= 1L << 1,
 115:/usr/include/c++/5/bits/ios_base.h ****       _S_bin 		= 1L << 2,
 116:/usr/include/c++/5/bits/ios_base.h ****       _S_in 		= 1L << 3,
 117:/usr/include/c++/5/bits/ios_base.h ****       _S_out 		= 1L << 4,
 118:/usr/include/c++/5/bits/ios_base.h ****       _S_trunc 		= 1L << 5,
 119:/usr/include/c++/5/bits/ios_base.h ****       _S_ios_openmode_end = 1L << 16,
 120:/usr/include/c++/5/bits/ios_base.h ****       _S_ios_openmode_max = __INT_MAX__,
 121:/usr/include/c++/5/bits/ios_base.h ****       _S_ios_openmode_min = ~__INT_MAX__
 122:/usr/include/c++/5/bits/ios_base.h ****     };
 123:/usr/include/c++/5/bits/ios_base.h **** 
 124:/usr/include/c++/5/bits/ios_base.h ****   inline _GLIBCXX_CONSTEXPR _Ios_Openmode
 125:/usr/include/c++/5/bits/ios_base.h ****   operator&(_Ios_Openmode __a, _Ios_Openmode __b)
 126:/usr/include/c++/5/bits/ios_base.h ****   { return _Ios_Openmode(static_cast<int>(__a) & static_cast<int>(__b)); }
 127:/usr/include/c++/5/bits/ios_base.h **** 
 128:/usr/include/c++/5/bits/ios_base.h ****   inline _GLIBCXX_CONSTEXPR _Ios_Openmode
 129:/usr/include/c++/5/bits/ios_base.h ****   operator|(_Ios_Openmode __a, _Ios_Openmode __b)
 130:/usr/include/c++/5/bits/ios_base.h ****   { return _Ios_Openmode(static_cast<int>(__a) | static_cast<int>(__b)); }
  10              		.loc 1 130 0
  11              		.cfi_startproc
  12 0000 55       		pushq	%rbp
  13              		.cfi_def_cfa_offset 16
  14              		.cfi_offset 6, -16
  15 0001 4889E5   		movq	%rsp, %rbp
  16              		.cfi_def_cfa_register 6
  17 0004 897DFC   		movl	%edi, -4(%rbp)
  18 0007 8975F8   		movl	%esi, -8(%rbp)
  19              		.loc 1 130 0
  20 000a 8B45FC   		movl	-4(%rbp), %eax
  21 000d 0B45F8   		orl	-8(%rbp), %eax
  22 0010 5D       		popq	%rbp
  23              		.cfi_def_cfa 7, 8
  24 0011 C3       		ret
  25              		.cfi_endproc
  26              	.LFE644:
  28              		.section	.rodata
  29              	.LC0:
  30 0000 44656661 		.string	"DefaultSuite"
  30      756C7453 
  30      75697465 
  30      00
  31              		.section	.text._ZN13UnitTestSuite12GetSuiteNameEv,"axG",@progbits,_ZN13UnitTestSuite12GetSuiteName
  32              		.weak	_ZN13UnitTestSuite12GetSuiteNameEv
  34              	_ZN13UnitTestSuite12GetSuiteNameEv:
  35              	.LFB1085:
  36              		.file 2 "/home/shubham/20140524/makestuff/libs/libutpp/TestSuite.h"
   1:/home/shubham/20140524/makestuff/libs/libutpp/TestSuite.h **** #ifndef UNITTEST_TESTSUITE_H
   2:/home/shubham/20140524/makestuff/libs/libutpp/TestSuite.h **** #define UNITTEST_TESTSUITE_H
   3:/home/shubham/20140524/makestuff/libs/libutpp/TestSuite.h **** 
   4:/home/shubham/20140524/makestuff/libs/libutpp/TestSuite.h **** namespace UnitTestSuite {
   5:/home/shubham/20140524/makestuff/libs/libutpp/TestSuite.h **** 
   6:/home/shubham/20140524/makestuff/libs/libutpp/TestSuite.h ****     inline char const* GetSuiteName ()
   7:/home/shubham/20140524/makestuff/libs/libutpp/TestSuite.h ****     {
  37              		.loc 2 7 0
  38              		.cfi_startproc
  39 0000 55       		pushq	%rbp
  40              		.cfi_def_cfa_offset 16
  41              		.cfi_offset 6, -16
  42 0001 4889E5   		movq	%rsp, %rbp
  43              		.cfi_def_cfa_register 6
   8:/home/shubham/20140524/makestuff/libs/libutpp/TestSuite.h ****         return "DefaultSuite";
  44              		.loc 2 8 0
  45 0004 B8000000 		movl	$.LC0, %eax
  45      00
   9:/home/shubham/20140524/makestuff/libs/libutpp/TestSuite.h ****     }
  46              		.loc 2 9 0
  47 0009 5D       		popq	%rbp
  48              		.cfi_def_cfa 7, 8
  49 000a C3       		ret
  50              		.cfi_endproc
  51              	.LFE1085:
  53              		.section	.text._ZN8UnitTest15MemoryOutStreamC1Ev,"axG",@progbits,_ZN8UnitTest15MemoryOutStreamC1Ev
  54              		.align 2
  55              		.weak	_ZN8UnitTest15MemoryOutStreamC1Ev
  57              	_ZN8UnitTest15MemoryOutStreamC1Ev:
  58              	.LFB1121:
  59              		.file 3 "/home/shubham/20140524/makestuff/libs/libutpp/MemoryOutStream.h"
   1:/home/shubham/20140524/makestuff/libs/libutpp/MemoryOutStream.h **** #ifndef UNITTEST_MEMORYOUTSTREAM_H
   2:/home/shubham/20140524/makestuff/libs/libutpp/MemoryOutStream.h **** #define UNITTEST_MEMORYOUTSTREAM_H
   3:/home/shubham/20140524/makestuff/libs/libutpp/MemoryOutStream.h **** 
   4:/home/shubham/20140524/makestuff/libs/libutpp/MemoryOutStream.h **** #include "Config.h"
   5:/home/shubham/20140524/makestuff/libs/libutpp/MemoryOutStream.h **** 
   6:/home/shubham/20140524/makestuff/libs/libutpp/MemoryOutStream.h **** #ifndef UNITTEST_USE_CUSTOM_STREAMS
   7:/home/shubham/20140524/makestuff/libs/libutpp/MemoryOutStream.h **** 
   8:/home/shubham/20140524/makestuff/libs/libutpp/MemoryOutStream.h **** #include <sstream>
   9:/home/shubham/20140524/makestuff/libs/libutpp/MemoryOutStream.h **** 
  10:/home/shubham/20140524/makestuff/libs/libutpp/MemoryOutStream.h **** namespace UnitTest
  11:/home/shubham/20140524/makestuff/libs/libutpp/MemoryOutStream.h **** {
  12:/home/shubham/20140524/makestuff/libs/libutpp/MemoryOutStream.h **** 
  13:/home/shubham/20140524/makestuff/libs/libutpp/MemoryOutStream.h **** class MemoryOutStream : public std::ostringstream
  14:/home/shubham/20140524/makestuff/libs/libutpp/MemoryOutStream.h **** {
  15:/home/shubham/20140524/makestuff/libs/libutpp/MemoryOutStream.h **** public:
  16:/home/shubham/20140524/makestuff/libs/libutpp/MemoryOutStream.h ****     MemoryOutStream() {}
  60              		.loc 3 16 0
  61              		.cfi_startproc
  62              		.cfi_personality 0x3,__gxx_personality_v0
  63              		.cfi_lsda 0x3,.LLSDA1121
  64 0000 55       		pushq	%rbp
  65              		.cfi_def_cfa_offset 16
  66              		.cfi_offset 6, -16
  67 0001 4889E5   		movq	%rsp, %rbp
  68              		.cfi_def_cfa_register 6
  69 0004 53       		pushq	%rbx
  70 0005 4883EC18 		subq	$24, %rsp
  71              		.cfi_offset 3, -24
  72 0009 48897DE8 		movq	%rdi, -24(%rbp)
  73              	.LBB2:
  74              		.loc 3 16 0
  75 000d 488B45E8 		movq	-24(%rbp), %rax
  76 0011 48059000 		addq	$144, %rax
  76      0000
  77 0017 4889C7   		movq	%rax, %rdi
  78              	.LEHB0:
  79 001a E8000000 		call	_ZNSt9basic_iosIcSt11char_traitsIcEEC2Ev
  79      00
  80              	.LEHE0:
  81 001f B9000000 		movl	$_ZTTN8UnitTest15MemoryOutStreamE+8, %ecx
  81      00
  82 0024 488B45E8 		movq	-24(%rbp), %rax
  83 0028 BA100000 		movl	$16, %edx
  83      00
  84 002d 4889CE   		movq	%rcx, %rsi
  85 0030 4889C7   		movq	%rax, %rdi
  86              	.LEHB1:
  87 0033 E8000000 		call	_ZNSt7__cxx1119basic_ostringstreamIcSt11char_traitsIcESaIcEEC2ESt13_Ios_Openmode
  87      00
  88              	.LEHE1:
  89              		.loc 3 16 0 is_stmt 0 discriminator 9
  90 0038 BA000000 		movl	$_ZTVN8UnitTest15MemoryOutStreamE+24, %edx
  90      00
  91 003d 488B45E8 		movq	-24(%rbp), %rax
  92 0041 488910   		movq	%rdx, (%rax)
  93 0044 BA900000 		movl	$144, %edx
  93      00
  94 0049 488B45E8 		movq	-24(%rbp), %rax
  95 004d 4801D0   		addq	%rdx, %rax
  96 0050 BA000000 		movl	$_ZTVN8UnitTest15MemoryOutStreamE+64, %edx
  96      00
  97 0055 488910   		movq	%rdx, (%rax)
  98 0058 488B45E8 		movq	-24(%rbp), %rax
  99 005c 4883C070 		addq	$112, %rax
 100 0060 4889C7   		movq	%rax, %rdi
 101              	.LEHB2:
 102 0063 E8000000 		call	_ZNSt7__cxx1112basic_stringIcSt11char_traitsIcESaIcEEC1Ev
 102      00
 103              	.LEHE2:
 104              	.LBE2:
 105              		.loc 3 16 0
 106 0068 EB39     		jmp	.L11
 107              	.L9:
 108 006a 4889C3   		movq	%rax, %rbx
 109              	.LBB3:
 110 006d BA000000 		movl	$_ZTTN8UnitTest15MemoryOutStreamE+8, %edx
 110      00
 111 0072 488B45E8 		movq	-24(%rbp), %rax
 112 0076 4889D6   		movq	%rdx, %rsi
 113 0079 4889C7   		movq	%rax, %rdi
 114 007c E8000000 		call	_ZNSt7__cxx1119basic_ostringstreamIcSt11char_traitsIcESaIcEED2Ev
 114      00
 115 0081 EB03     		jmp	.L10
 116              	.L8:
 117 0083 4889C3   		movq	%rax, %rbx
 118              	.L10:
 119              		.loc 3 16 0 discriminator 28
 120 0086 488B45E8 		movq	-24(%rbp), %rax
 121 008a 48059000 		addq	$144, %rax
 121      0000
 122 0090 4889C7   		movq	%rax, %rdi
 123 0093 E8000000 		call	_ZNSt9basic_iosIcSt11char_traitsIcEED2Ev
 123      00
 124 0098 4889D8   		movq	%rbx, %rax
 125 009b 4889C7   		movq	%rax, %rdi
 126              	.LEHB3:
 127 009e E8000000 		call	_Unwind_Resume
 127      00
 128              	.LEHE3:
 129              	.L11:
 130              	.LBE3:
 131              		.loc 3 16 0
 132 00a3 4883C418 		addq	$24, %rsp
 133 00a7 5B       		popq	%rbx
 134 00a8 5D       		popq	%rbp
 135              		.cfi_def_cfa 7, 8
 136 00a9 C3       		ret
 137              		.cfi_endproc
 138              	.LFE1121:
 139              		.globl	__gxx_personality_v0
 140              		.section	.gcc_except_table._ZN8UnitTest15MemoryOutStreamC1Ev,"aG",@progbits,_ZN8UnitTest15MemoryOu
 141              	.LLSDA1121:
 142 0000 FF       		.byte	0xff
 143 0001 FF       		.byte	0xff
 144 0002 01       		.byte	0x1
 145 0003 12       		.uleb128 .LLSDACSE1121-.LLSDACSB1121
 146              	.LLSDACSB1121:
 147 0004 1A       		.uleb128 .LEHB0-.LFB1121
 148 0005 05       		.uleb128 .LEHE0-.LEHB0
 149 0006 00       		.uleb128 0
 150 0007 00       		.uleb128 0
 151 0008 33       		.uleb128 .LEHB1-.LFB1121
 152 0009 05       		.uleb128 .LEHE1-.LEHB1
 153 000a 8301     		.uleb128 .L8-.LFB1121
 154 000c 00       		.uleb128 0
 155 000d 63       		.uleb128 .LEHB2-.LFB1121
 156 000e 05       		.uleb128 .LEHE2-.LEHB2
 157 000f 6A       		.uleb128 .L9-.LFB1121
 158 0010 00       		.uleb128 0
 159 0011 9E01     		.uleb128 .LEHB3-.LFB1121
 160 0013 05       		.uleb128 .LEHE3-.LEHB3
 161 0014 00       		.uleb128 0
 162 0015 00       		.uleb128 0
 163              	.LLSDACSE1121:
 164              		.section	.text._ZN8UnitTest15MemoryOutStreamC1Ev,"axG",@progbits,_ZN8UnitTest15MemoryOutStreamC1Ev
 166              		.section	.rodata
 167              	.LC1:
 168 000d 74657374 		.string	"testBinIO.cpp"
 168      42696E49 
 168      4F2E6370 
 168      7000
 169              	.LC2:
 170 001b 42696E49 		.string	"BinIO_testReadNonExistentFile"
 170      4F5F7465 
 170      73745265 
 170      61644E6F 
 170      6E457869 
 171              		.section	.text._ZN33TestBinIO_testReadNonExistentFileC2Ev,"axG",@progbits,_ZN33TestBinIO_testReadN
 172              		.align 2
 173              		.weak	_ZN33TestBinIO_testReadNonExistentFileC2Ev
 175              	_ZN33TestBinIO_testReadNonExistentFileC2Ev:
 176              	.LFB1138:
 177              		.file 4 "testBinIO.cpp"
   1:testBinIO.cpp **** /*
   2:testBinIO.cpp ****  * Copyright (C) 2009-2012 Chris McClelland
   3:testBinIO.cpp ****  *
   4:testBinIO.cpp ****  * This program is free software: you can redistribute it and/or modify
   5:testBinIO.cpp ****  * it under the terms of the GNU Lesser General Public License as published by
   6:testBinIO.cpp ****  * the Free Software Foundation, either version 3 of the License, or
   7:testBinIO.cpp ****  * (at your option) any later version.
   8:testBinIO.cpp ****  *
   9:testBinIO.cpp ****  * This program is distributed in the hope that it will be useful,
  10:testBinIO.cpp ****  * but WITHOUT ANY WARRANTY; without even the implied warranty of
  11:testBinIO.cpp ****  * MERCHANTABILITY or FITNESS FOR A PARTICULAR PURPOSE.  See the
  12:testBinIO.cpp ****  * GNU Lesser General Public License for more details.
  13:testBinIO.cpp ****  *
  14:testBinIO.cpp ****  * You should have received a copy of the GNU Lesser General Public License
  15:testBinIO.cpp ****  * along with this program.  If not, see <http://www.gnu.org/licenses/>.
  16:testBinIO.cpp ****  */
  17:testBinIO.cpp **** #include <string.h>
  18:testBinIO.cpp **** #include <fstream>
  19:testBinIO.cpp **** #include <UnitTest++.h>
  20:testBinIO.cpp **** #include "../libbuffer.h"
  21:testBinIO.cpp **** 
  22:testBinIO.cpp **** using namespace std;
  23:testBinIO.cpp **** 
  24:testBinIO.cpp **** TEST(BinIO_testReadNonExistentFile) {
 178              		.loc 4 24 0 is_stmt 1
 179              		.cfi_startproc
 180 0000 55       		pushq	%rbp
 181              		.cfi_def_cfa_offset 16
 182              		.cfi_offset 6, -16
 183 0001 4889E5   		movq	%rsp, %rbp
 184              		.cfi_def_cfa_register 6
 185 0004 4883EC10 		subq	$16, %rsp
 186 0008 48897DF8 		movq	%rdi, -8(%rbp)
 187              	.LBB4:
 188              		.loc 4 24 0
 189 000c E8000000 		call	_ZN13UnitTestSuite12GetSuiteNameEv
 189      00
 190 0011 4889C2   		movq	%rax, %rdx
 191 0014 488B45F8 		movq	-8(%rbp), %rax
 192 0018 41B81800 		movl	$24, %r8d
 192      0000
 193 001e B9000000 		movl	$.LC1, %ecx
 193      00
 194 0023 BE000000 		movl	$.LC2, %esi
 194      00
 195 0028 4889C7   		movq	%rax, %rdi
 196 002b E8000000 		call	_ZN8UnitTest4TestC2EPKcS2_S2_i
 196      00
 197 0030 BA000000 		movl	$_ZTV33TestBinIO_testReadNonExistentFile+16, %edx
 197      00
 198 0035 488B45F8 		movq	-8(%rbp), %rax
 199 0039 488910   		movq	%rdx, (%rax)
 200              	.LBE4:
 201 003c 90       		nop
 202 003d C9       		leave
 203              		.cfi_def_cfa 7, 8
 204 003e C3       		ret
 205              		.cfi_endproc
 206              	.LFE1138:
 208              		.weak	_ZN33TestBinIO_testReadNonExistentFileC1Ev
 209              		.set	_ZN33TestBinIO_testReadNonExistentFileC1Ev,_ZN33TestBinIO_testReadNonExistentFileC2Ev
 210              		.globl	testBinIO_testReadNonExistentFileInstance
 211              		.bss
 212              		.align 32
 215              	testBinIO_testReadNonExistentFileInstance:
 216 0000 00000000 		.zero	56
 216      00000000 
 216      00000000 
 216      00000000 
 216      00000000 
 217              		.globl	adderBinIO_testReadNonExistentFile
 220              	adderBinIO_testReadNonExistentFile:
 221 0038 00       		.zero	1
 222              		.section	.rodata
 223              	.LC3:
 224 0039 6E6F6E45 		.string	"nonExistentFile.bin"
 224      78697374 
 224      656E7446 
 224      696C652E 
 224      62696E00 
 225 004d 000000   		.align 8
 226              	.LC4:
 227 0050 556E6861 		.string	"Unhandled exception in CHECK_EQUAL(BUF_SUCCESS, status)"
 227      6E646C65 
 227      64206578 
 227      63657074 
 227      696F6E20 
 228              		.align 8
 229              	.LC5:
 230 0088 556E6861 		.string	"Unhandled exception in CHECK_EQUAL(BUF_FOPEN, status)"
 230      6E646C65 
 230      64206578 
 230      63657074 
 230      696F6E20 
 231              		.text
 232              		.align 2
 233              		.globl	_ZNK33TestBinIO_testReadNonExistentFile7RunImplEv
 235              	_ZNK33TestBinIO_testReadNonExistentFile7RunImplEv:
 236              	.LFB1140:
 237              		.loc 4 24 0
 238              		.cfi_startproc
 239              		.cfi_personality 0x3,__gxx_personality_v0
 240              		.cfi_lsda 0x3,.LLSDA1140
 241 0000 55       		pushq	%rbp
 242              		.cfi_def_cfa_offset 16
 243              		.cfi_offset 6, -16
 244 0001 4889E5   		movq	%rsp, %rbp
 245              		.cfi_def_cfa_register 6
 246 0004 53       		pushq	%rbx
 247 0005 4883EC78 		subq	$120, %rsp
 248              		.cfi_offset 3, -24
 249 0009 48897D88 		movq	%rdi, -120(%rbp)
 250              		.loc 4 24 0
 251 000d 64488B04 		movq	%fs:40, %rax
 251      25280000 
 251      00
 252 0016 488945E8 		movq	%rax, -24(%rbp)
 253 001a 31C0     		xorl	%eax, %eax
  25:testBinIO.cpp **** 	Buffer buf;
  26:testBinIO.cpp **** 	BufferStatus status = bufInitialise(&buf, 8, 0, NULL);
 254              		.loc 4 26 0
 255 001c 488D45A0 		leaq	-96(%rbp), %rax
 256 0020 B9000000 		movl	$0, %ecx
 256      00
 257 0025 BA000000 		movl	$0, %edx
 257      00
 258 002a BE080000 		movl	$8, %esi
 258      00
 259 002f 4889C7   		movq	%rax, %rdi
 260              	.LEHB4:
 261 0032 E8000000 		call	bufInitialise
 261      00
 262              	.LEHE4:
 263 0037 894598   		movl	%eax, -104(%rbp)
 264              	.LEHB5:
  27:testBinIO.cpp **** 	CHECK_EQUAL(BUF_SUCCESS, status);
 265              		.loc 4 27 0
 266 003a E8000000 		call	_ZN8UnitTest11CurrentTest7DetailsEv
 266      00
 267 003f 488B08   		movq	(%rax), %rcx
 268 0042 488D45C0 		leaq	-64(%rbp), %rax
 269 0046 BA1B0000 		movl	$27, %edx
 269      00
 270 004b 4889CE   		movq	%rcx, %rsi
 271 004e 4889C7   		movq	%rax, %rdi
 272 0051 E8000000 		call	_ZN8UnitTest11TestDetailsC1ERKS0_i
 272      00
 273              	.LEHE5:
 274              		.loc 4 27 0 is_stmt 0 discriminator 2
 275 0056 C7459C00 		movl	$0, -100(%rbp)
 275      000000
 276              	.LEHB6:
 277 005d E8000000 		call	_ZN8UnitTest11CurrentTest7ResultsEv
 277      00
 278 0062 488B00   		movq	(%rax), %rax
 279 0065 488D4DC0 		leaq	-64(%rbp), %rcx
 280 0069 488D5598 		leaq	-104(%rbp), %rdx
 281 006d 488D759C 		leaq	-100(%rbp), %rsi
 282 0071 4889C7   		movq	%rax, %rdi
 283 0074 E8000000 		call	_ZN8UnitTest10CheckEqualI12BufferStatusS1_EEvRNS_11TestResultsERKT_RKT0_RKNS_11TestDetailsE
 283      00
 284              	.LEHE6:
 285              	.L16:
  28:testBinIO.cpp **** 	status = bufAppendFromBinaryFile(&buf, "nonExistentFile.bin", NULL);
 286              		.loc 4 28 0 is_stmt 1
 287 0079 488D45A0 		leaq	-96(%rbp), %rax
 288 007d BA000000 		movl	$0, %edx
 288      00
 289 0082 BE000000 		movl	$.LC3, %esi
 289      00
 290 0087 4889C7   		movq	%rax, %rdi
 291              	.LEHB7:
 292 008a E8000000 		call	bufAppendFromBinaryFile
 292      00
 293              	.LEHE7:
 294 008f 894598   		movl	%eax, -104(%rbp)
 295              	.LEHB8:
  29:testBinIO.cpp **** 	CHECK_EQUAL(BUF_FOPEN, status);
 296              		.loc 4 29 0
 297 0092 E8000000 		call	_ZN8UnitTest11CurrentTest7DetailsEv
 297      00
 298 0097 488B08   		movq	(%rax), %rcx
 299 009a 488D45C0 		leaq	-64(%rbp), %rax
 300 009e BA1D0000 		movl	$29, %edx
 300      00
 301 00a3 4889CE   		movq	%rcx, %rsi
 302 00a6 4889C7   		movq	%rax, %rdi
 303 00a9 E8000000 		call	_ZN8UnitTest11TestDetailsC1ERKS0_i
 303      00
 304              	.LEHE8:
 305              		.loc 4 29 0 is_stmt 0 discriminator 2
 306 00ae C7459C02 		movl	$2, -100(%rbp)
 306      000000
 307              	.LEHB9:
 308 00b5 E8000000 		call	_ZN8UnitTest11CurrentTest7ResultsEv
 308      00
 309 00ba 488B00   		movq	(%rax), %rax
 310 00bd 488D4DC0 		leaq	-64(%rbp), %rcx
 311 00c1 488D5598 		leaq	-104(%rbp), %rdx
 312 00c5 488D759C 		leaq	-100(%rbp), %rsi
 313 00c9 4889C7   		movq	%rax, %rdi
 314 00cc E8000000 		call	_ZN8UnitTest10CheckEqualI12BufferStatusS1_EEvRNS_11TestResultsERKT_RKT0_RKNS_11TestDetailsE
 314      00
 315              	.LEHE9:
 316              	.L20:
  30:testBinIO.cpp **** 	bufDestroy(&buf);
 317              		.loc 4 30 0 is_stmt 1
 318 00d1 488D45A0 		leaq	-96(%rbp), %rax
 319 00d5 4889C7   		movq	%rax, %rdi
 320              	.LEHB10:
 321 00d8 E8000000 		call	bufDestroy
 321      00
 322              	.LEHE10:
  31:testBinIO.cpp **** }
 323              		.loc 4 31 0
 324 00dd 90       		nop
 325 00de 488B45E8 		movq	-24(%rbp), %rax
 326 00e2 64483304 		xorq	%fs:40, %rax
 326      25280000 
 326      00
 327 00eb 0F84C800 		je	.L22
 327      0000
 328 00f1 E9BE0000 		jmp	.L29
 328      00
 329              	.L24:
 330 00f6 EB00     		jmp	.L15
 331              	.L23:
 332              	.L15:
  27:testBinIO.cpp **** 	status = bufAppendFromBinaryFile(&buf, "nonExistentFile.bin", NULL);
 333              		.loc 4 27 0
 334 00f8 4889C7   		movq	%rax, %rdi
 335 00fb E8000000 		call	__cxa_begin_catch
 335      00
 336              	.LEHB11:
 337 0100 E8000000 		call	_ZN8UnitTest11CurrentTest7DetailsEv
 337      00
 338 0105 488B08   		movq	(%rax), %rcx
 339 0108 488D45C0 		leaq	-64(%rbp), %rax
 340 010c BA1B0000 		movl	$27, %edx
 340      00
 341 0111 4889CE   		movq	%rcx, %rsi
 342 0114 4889C7   		movq	%rax, %rdi
 343 0117 E8000000 		call	_ZN8UnitTest11TestDetailsC1ERKS0_i
 343      00
  27:testBinIO.cpp **** 	status = bufAppendFromBinaryFile(&buf, "nonExistentFile.bin", NULL);
 344              		.loc 4 27 0 is_stmt 0 discriminator 10
 345 011c E8000000 		call	_ZN8UnitTest11CurrentTest7ResultsEv
 345      00
 346 0121 488B00   		movq	(%rax), %rax
 347 0124 488D4DC0 		leaq	-64(%rbp), %rcx
 348 0128 BA000000 		movl	$.LC4, %edx
 348      00
 349 012d 4889CE   		movq	%rcx, %rsi
 350 0130 4889C7   		movq	%rax, %rdi
 351 0133 E8000000 		call	_ZN8UnitTest11TestResults13OnTestFailureERKNS_11TestDetailsEPKc
 351      00
 352              	.LEHE11:
 353              	.LEHB12:
  27:testBinIO.cpp **** 	status = bufAppendFromBinaryFile(&buf, "nonExistentFile.bin", NULL);
 354              		.loc 4 27 0 discriminator 14
 355 0138 E8000000 		call	__cxa_end_catch
 355      00
 356              	.LEHE12:
 357 013d E937FFFF 		jmp	.L16
 357      FF
 358              	.L25:
 359 0142 4889C3   		movq	%rax, %rbx
  27:testBinIO.cpp **** 	status = bufAppendFromBinaryFile(&buf, "nonExistentFile.bin", NULL);
 360              		.loc 4 27 0
 361 0145 E8000000 		call	__cxa_end_catch
 361      00
 362 014a 4889D8   		movq	%rbx, %rax
 363 014d 4889C7   		movq	%rax, %rdi
 364              	.LEHB13:
 365 0150 E8000000 		call	_Unwind_Resume
 365      00
 366              	.LEHE13:
 367              	.L27:
 368 0155 EB00     		jmp	.L19
 369              	.L26:
 370              	.L19:
  29:testBinIO.cpp **** 	bufDestroy(&buf);
 371              		.loc 4 29 0 is_stmt 1
 372 0157 4889C7   		movq	%rax, %rdi
 373 015a E8000000 		call	__cxa_begin_catch
 373      00
 374              	.LEHB14:
 375 015f E8000000 		call	_ZN8UnitTest11CurrentTest7DetailsEv
 375      00
 376 0164 488B08   		movq	(%rax), %rcx
 377 0167 488D45C0 		leaq	-64(%rbp), %rax
 378 016b BA1D0000 		movl	$29, %edx
 378      00
 379 0170 4889CE   		movq	%rcx, %rsi
 380 0173 4889C7   		movq	%rax, %rdi
 381 0176 E8000000 		call	_ZN8UnitTest11TestDetailsC1ERKS0_i
 381      00
  29:testBinIO.cpp **** 	bufDestroy(&buf);
 382              		.loc 4 29 0 is_stmt 0 discriminator 10
 383 017b E8000000 		call	_ZN8UnitTest11CurrentTest7ResultsEv
 383      00
 384 0180 488B00   		movq	(%rax), %rax
 385 0183 488D4DC0 		leaq	-64(%rbp), %rcx
 386 0187 BA000000 		movl	$.LC5, %edx
 386      00
 387 018c 4889CE   		movq	%rcx, %rsi
 388 018f 4889C7   		movq	%rax, %rdi
 389 0192 E8000000 		call	_ZN8UnitTest11TestResults13OnTestFailureERKNS_11TestDetailsEPKc
 389      00
 390              	.LEHE14:
 391              	.LEHB15:
  29:testBinIO.cpp **** 	bufDestroy(&buf);
 392              		.loc 4 29 0 discriminator 14
 393 0197 E8000000 		call	__cxa_end_catch
 393      00
 394              	.LEHE15:
 395 019c E930FFFF 		jmp	.L20
 395      FF
 396              	.L28:
 397 01a1 4889C3   		movq	%rax, %rbx
  29:testBinIO.cpp **** 	bufDestroy(&buf);
 398              		.loc 4 29 0
 399 01a4 E8000000 		call	__cxa_end_catch
 399      00
 400 01a9 4889D8   		movq	%rbx, %rax
 401 01ac 4889C7   		movq	%rax, %rdi
 402              	.LEHB16:
 403 01af E8000000 		call	_Unwind_Resume
 403      00
 404              	.LEHE16:
 405              	.L29:
 406              		.loc 4 31 0 is_stmt 1
 407 01b4 E8000000 		call	__stack_chk_fail
 407      00
 408              	.L22:
 409 01b9 4883C478 		addq	$120, %rsp
 410 01bd 5B       		popq	%rbx
 411 01be 5D       		popq	%rbp
 412              		.cfi_def_cfa 7, 8
 413 01bf C3       		ret
 414              		.cfi_endproc
 415              	.LFE1140:
 416              		.section	.gcc_except_table,"a",@progbits
 417              		.align 4
 418              	.LLSDA1140:
 419 0000 FF       		.byte	0xff
 420 0001 03       		.byte	0x3
 421 0002 51       		.uleb128 .LLSDATT1140-.LLSDATTD1140
 422              	.LLSDATTD1140:
 423 0003 01       		.byte	0x1
 424 0004 44       		.uleb128 .LLSDACSE1140-.LLSDACSB1140
 425              	.LLSDACSB1140:
 426 0005 32       		.uleb128 .LEHB4-.LFB1140
 427 0006 05       		.uleb128 .LEHE4-.LEHB4
 428 0007 00       		.uleb128 0
 429 0008 00       		.uleb128 0
 430 0009 3A       		.uleb128 .LEHB5-.LFB1140
 431 000a 1C       		.uleb128 .LEHE5-.LEHB5
 432 000b F801     		.uleb128 .L23-.LFB1140
 433 000d 01       		.uleb128 0x1
 434 000e 5D       		.uleb128 .LEHB6-.LFB1140
 435 000f 1C       		.uleb128 .LEHE6-.LEHB6
 436 0010 F601     		.uleb128 .L24-.LFB1140
 437 0012 03       		.uleb128 0x3
 438 0013 8A01     		.uleb128 .LEHB7-.LFB1140
 439 0015 05       		.uleb128 .LEHE7-.LEHB7
 440 0016 00       		.uleb128 0
 441 0017 00       		.uleb128 0
 442 0018 9201     		.uleb128 .LEHB8-.LFB1140
 443 001a 1C       		.uleb128 .LEHE8-.LEHB8
 444 001b D702     		.uleb128 .L26-.LFB1140
 445 001d 01       		.uleb128 0x1
 446 001e B501     		.uleb128 .LEHB9-.LFB1140
 447 0020 1C       		.uleb128 .LEHE9-.LEHB9
 448 0021 D502     		.uleb128 .L27-.LFB1140
 449 0023 03       		.uleb128 0x3
 450 0024 D801     		.uleb128 .LEHB10-.LFB1140
 451 0026 05       		.uleb128 .LEHE10-.LEHB10
 452 0027 00       		.uleb128 0
 453 0028 00       		.uleb128 0
 454 0029 8002     		.uleb128 .LEHB11-.LFB1140
 455 002b 38       		.uleb128 .LEHE11-.LEHB11
 456 002c C202     		.uleb128 .L25-.LFB1140
 457 002e 00       		.uleb128 0
 458 002f B802     		.uleb128 .LEHB12-.LFB1140
 459 0031 05       		.uleb128 .LEHE12-.LEHB12
 460 0032 00       		.uleb128 0
 461 0033 00       		.uleb128 0
 462 0034 D002     		.uleb128 .LEHB13-.LFB1140
 463 0036 05       		.uleb128 .LEHE13-.LEHB13
 464 0037 00       		.uleb128 0
 465 0038 00       		.uleb128 0
 466 0039 DF02     		.uleb128 .LEHB14-.LFB1140
 467 003b 38       		.uleb128 .LEHE14-.LEHB14
 468 003c A103     		.uleb128 .L28-.LFB1140
 469 003e 00       		.uleb128 0
 470 003f 9703     		.uleb128 .LEHB15-.LFB1140
 471 0041 05       		.uleb128 .LEHE15-.LEHB15
 472 0042 00       		.uleb128 0
 473 0043 00       		.uleb128 0
 474 0044 AF03     		.uleb128 .LEHB16-.LFB1140
 475 0046 05       		.uleb128 .LEHE16-.LEHB16
 476 0047 00       		.uleb128 0
 477 0048 00       		.uleb128 0
 478              	.LLSDACSE1140:
 479 0049 01       		.byte	0x1
 480 004a 00       		.byte	0
 481 004b 00       		.byte	0
 482 004c 7D       		.byte	0x7d
 483 004d 000000   		.align 4
 484 0050 00000000 		.long	0
 485              	
 486              	.LLSDATT1140:
 487              		.text
 489              		.section	.rodata
 490              	.LC6:
 491 00be 42696E49 		.string	"BinIO_testReadExistingFile"
 491      4F5F7465 
 491      73745265 
 491      61644578 
 491      69737469 
 492              		.section	.text._ZN30TestBinIO_testReadExistingFileC2Ev,"axG",@progbits,_ZN30TestBinIO_testReadExis
 493              		.align 2
 494              		.weak	_ZN30TestBinIO_testReadExistingFileC2Ev
 496              	_ZN30TestBinIO_testReadExistingFileC2Ev:
 497              	.LFB1142:
  32:testBinIO.cpp **** 
  33:testBinIO.cpp **** TEST(BinIO_testReadExistingFile) {
 498              		.loc 4 33 0
 499              		.cfi_startproc
 500 0000 55       		pushq	%rbp
 501              		.cfi_def_cfa_offset 16
 502              		.cfi_offset 6, -16
 503 0001 4889E5   		movq	%rsp, %rbp
 504              		.cfi_def_cfa_register 6
 505 0004 4883EC10 		subq	$16, %rsp
 506 0008 48897DF8 		movq	%rdi, -8(%rbp)
 507              	.LBB5:
 508              		.loc 4 33 0
 509 000c E8000000 		call	_ZN13UnitTestSuite12GetSuiteNameEv
 509      00
 510 0011 4889C2   		movq	%rax, %rdx
 511 0014 488B45F8 		movq	-8(%rbp), %rax
 512 0018 41B82100 		movl	$33, %r8d
 512      0000
 513 001e B9000000 		movl	$.LC1, %ecx
 513      00
 514 0023 BE000000 		movl	$.LC6, %esi
 514      00
 515 0028 4889C7   		movq	%rax, %rdi
 516 002b E8000000 		call	_ZN8UnitTest4TestC2EPKcS2_S2_i
 516      00
 517 0030 BA000000 		movl	$_ZTV30TestBinIO_testReadExistingFile+16, %edx
 517      00
 518 0035 488B45F8 		movq	-8(%rbp), %rax
 519 0039 488910   		movq	%rdx, (%rax)
 520              	.LBE5:
 521 003c 90       		nop
 522 003d C9       		leave
 523              		.cfi_def_cfa 7, 8
 524 003e C3       		ret
 525              		.cfi_endproc
 526              	.LFE1142:
 528              		.weak	_ZN30TestBinIO_testReadExistingFileC1Ev
 529              		.set	_ZN30TestBinIO_testReadExistingFileC1Ev,_ZN30TestBinIO_testReadExistingFileC2Ev
 530              		.globl	testBinIO_testReadExistingFileInstance
 531              		.bss
 532 0039 00000000 		.align 32
 532      000000
 535              	testBinIO_testReadExistingFileInstance:
 536 0040 00000000 		.zero	56
 536      00000000 
 536      00000000 
 536      00000000 
 536      00000000 
 537              		.globl	adderBinIO_testReadExistingFile
 540              	adderBinIO_testReadExistingFile:
 541 0078 00       		.zero	1
 542              		.section	.rodata
 543              	.LC7:
 544 00d9 746D7046 		.string	"tmpFile.bin"
 544      696C652E 
 544      62696E00 
 545              	.LC8:
 546 00e5 4A757374 		.string	"Just some test data"
 546      20736F6D 
 546      65207465 
 546      73742064 
 546      61746100 
 547 00f9 00000000 		.align 8
 547      000000
 548              	.LC9:
 549 0100 556E6861 		.string	"Unhandled exception in CHECK_EQUAL(strlen(DATA), buf.length)"
 549      6E646C65 
 549      64206578 
 549      63657074 
 549      696F6E20 
 550 013d 000000   		.align 8
 551              	.LC10:
 552 0140 556E6861 		.string	"Unhandled exception in CHECK_ARRAY_EQUAL(DATA, buf.data)"
 552      6E646C65 
 552      64206578 
 552      63657074 
 552      696F6E20 
 553 0179 00000000 		.align 8
 553      000000
 554              	.LC11:
 555 0180 556E6861 		.string	"Unhandled exception in CHECK_EQUAL(2 * strlen(DATA), buf.length)"
 555      6E646C65 
 555      64206578 
 555      63657074 
 555      696F6E20 
 556 01c1 00000000 		.align 8
 556      000000
 557              	.LC12:
 558 01c8 556E6861 		.string	"Unhandled exception in CHECK_ARRAY_EQUAL(DATA, buf.data + strlen(DATA))"
 558      6E646C65 
 558      64206578 
 558      63657074 
 558      696F6E20 
 559              		.text
 560              		.align 2
 561              		.globl	_ZNK30TestBinIO_testReadExistingFile7RunImplEv
 563              	_ZNK30TestBinIO_testReadExistingFile7RunImplEv:
 564              	.LFB1144:
 565              		.loc 4 33 0
 566              		.cfi_startproc
 567              		.cfi_personality 0x3,__gxx_personality_v0
 568              		.cfi_lsda 0x3,.LLSDA1144
 569 01c0 55       		pushq	%rbp
 570              		.cfi_def_cfa_offset 16
 571              		.cfi_offset 6, -16
 572 01c1 4889E5   		movq	%rsp, %rbp
 573              		.cfi_def_cfa_register 6
 574 01c4 4154     		pushq	%r12
 575 01c6 53       		pushq	%rbx
 576 01c7 4881EC80 		subq	$640, %rsp
 576      020000
 577              		.cfi_offset 12, -24
 578              		.cfi_offset 3, -32
 579 01ce 4889BD78 		movq	%rdi, -648(%rbp)
 579      FDFFFF
 580              		.loc 4 33 0
 581 01d5 64488B04 		movq	%fs:40, %rax
 581      25280000 
 581      00
 582 01de 488945E8 		movq	%rax, -24(%rbp)
 583 01e2 31C0     		xorl	%eax, %eax
  34:testBinIO.cpp **** 	const char *const FILENAME = "tmpFile.bin";
 584              		.loc 4 34 0
 585 01e4 48C78598 		movq	$.LC7, -616(%rbp)
 585      FDFFFF00 
 585      000000
  35:testBinIO.cpp **** 	const char *const DATA = "Just some test data";
 586              		.loc 4 35 0
 587 01ef 48C78588 		movq	$.LC8, -632(%rbp)
 587      FDFFFF00 
 587      000000
  36:testBinIO.cpp **** 	ofstream file;
 588              		.loc 4 36 0
 589 01fa 488D85E0 		leaq	-544(%rbp), %rax
 589      FDFFFF
 590 0201 4889C7   		movq	%rax, %rdi
 591              	.LEHB17:
 592 0204 E8000000 		call	_ZNSt14basic_ofstreamIcSt11char_traitsIcEEC1Ev
 592      00
 593              	.LEHE17:
  37:testBinIO.cpp **** 	Buffer buf;
  38:testBinIO.cpp **** 	BufferStatus status = bufInitialise(&buf, 8, 0, NULL);
 594              		.loc 4 38 0
 595 0209 488D85A0 		leaq	-608(%rbp), %rax
 595      FDFFFF
 596 0210 B9000000 		movl	$0, %ecx
 596      00
 597 0215 BA000000 		movl	$0, %edx
 597      00
 598 021a BE080000 		movl	$8, %esi
 598      00
 599 021f 4889C7   		movq	%rax, %rdi
 600              	.LEHB18:
 601 0222 E8000000 		call	bufInitialise
 601      00
 602              	.LEHE18:
 603 0227 898584FD 		movl	%eax, -636(%rbp)
 603      FFFF
 604              	.LEHB19:
  39:testBinIO.cpp **** 	CHECK_EQUAL(BUF_SUCCESS, status);
 605              		.loc 4 39 0
 606 022d E8000000 		call	_ZN8UnitTest11CurrentTest7DetailsEv
 606      00
 607              		.loc 4 39 0 is_stmt 0 discriminator 1
 608 0232 488B08   		movq	(%rax), %rcx
 609 0235 488D85C0 		leaq	-576(%rbp), %rax
 609      FDFFFF
 610 023c BA270000 		movl	$39, %edx
 610      00
 611 0241 4889CE   		movq	%rcx, %rsi
 612 0244 4889C7   		movq	%rax, %rdi
 613 0247 E8000000 		call	_ZN8UnitTest11TestDetailsC1ERKS0_i
 613      00
 614              	.LEHE19:
 615              		.loc 4 39 0 discriminator 2
 616 024c C78590FD 		movl	$0, -624(%rbp)
 616      FFFF0000 
 616      0000
 617              	.LEHB20:
 618 0256 E8000000 		call	_ZN8UnitTest11CurrentTest7ResultsEv
 618      00
 619 025b 488B00   		movq	(%rax), %rax
 620 025e 488D8DC0 		leaq	-576(%rbp), %rcx
 620      FDFFFF
 621 0265 488D9584 		leaq	-636(%rbp), %rdx
 621      FDFFFF
 622 026c 488DB590 		leaq	-624(%rbp), %rsi
 622      FDFFFF
 623 0273 4889C7   		movq	%rax, %rdi
 624 0276 E8000000 		call	_ZN8UnitTest10CheckEqualI12BufferStatusS1_EEvRNS_11TestResultsERKT_RKT0_RKNS_11TestDetailsE
 624      00
 625              	.LEHE20:
 626              	.L34:
  40:testBinIO.cpp **** 	file.open(FILENAME, ios::out|ios::binary);
 627              		.loc 4 40 0 is_stmt 1
 628 027b BE040000 		movl	$4, %esi
 628      00
 629 0280 BF100000 		movl	$16, %edi
 629      00
 630 0285 E8000000 		call	_ZStorSt13_Ios_OpenmodeS_
 630      00
 631 028a 89C2     		movl	%eax, %edx
 632 028c 488B8D98 		movq	-616(%rbp), %rcx
 632      FDFFFF
 633 0293 488D85E0 		leaq	-544(%rbp), %rax
 633      FDFFFF
 634 029a 4889CE   		movq	%rcx, %rsi
 635 029d 4889C7   		movq	%rax, %rdi
 636              	.LEHB21:
 637 02a0 E8000000 		call	_ZNSt14basic_ofstreamIcSt11char_traitsIcEE4openEPKcSt13_Ios_Openmode
 637      00
  41:testBinIO.cpp **** 	file << DATA;
 638              		.loc 4 41 0
 639 02a5 488B9588 		movq	-632(%rbp), %rdx
 639      FDFFFF
 640 02ac 488D85E0 		leaq	-544(%rbp), %rax
 640      FDFFFF
 641 02b3 4889D6   		movq	%rdx, %rsi
 642 02b6 4889C7   		movq	%rax, %rdi
 643 02b9 E8000000 		call	_ZStlsISt11char_traitsIcEERSt13basic_ostreamIcT_ES5_PKc
 643      00
  42:testBinIO.cpp **** 	file.close();
 644              		.loc 4 42 0
 645 02be 488D85E0 		leaq	-544(%rbp), %rax
 645      FDFFFF
 646 02c5 4889C7   		movq	%rax, %rdi
 647 02c8 E8000000 		call	_ZNSt14basic_ofstreamIcSt11char_traitsIcEE5closeEv
 647      00
  43:testBinIO.cpp **** 	status = bufAppendFromBinaryFile(&buf, FILENAME, NULL);
 648              		.loc 4 43 0
 649 02cd 488B8D98 		movq	-616(%rbp), %rcx
 649      FDFFFF
 650 02d4 488D85A0 		leaq	-608(%rbp), %rax
 650      FDFFFF
 651 02db BA000000 		movl	$0, %edx
 651      00
 652 02e0 4889CE   		movq	%rcx, %rsi
 653 02e3 4889C7   		movq	%rax, %rdi
 654 02e6 E8000000 		call	bufAppendFromBinaryFile
 654      00
 655              	.LEHE21:
 656 02eb 898584FD 		movl	%eax, -636(%rbp)
 656      FFFF
 657              	.LEHB22:
  44:testBinIO.cpp **** 	CHECK_EQUAL(BUF_SUCCESS, status);
 658              		.loc 4 44 0
 659 02f1 E8000000 		call	_ZN8UnitTest11CurrentTest7DetailsEv
 659      00
 660              		.loc 4 44 0 is_stmt 0 discriminator 1
 661 02f6 488B08   		movq	(%rax), %rcx
 662 02f9 488D85C0 		leaq	-576(%rbp), %rax
 662      FDFFFF
 663 0300 BA2C0000 		movl	$44, %edx
 663      00
 664 0305 4889CE   		movq	%rcx, %rsi
 665 0308 4889C7   		movq	%rax, %rdi
 666 030b E8000000 		call	_ZN8UnitTest11TestDetailsC1ERKS0_i
 666      00
 667              	.LEHE22:
 668              		.loc 4 44 0 discriminator 2
 669 0310 C78590FD 		movl	$0, -624(%rbp)
 669      FFFF0000 
 669      0000
 670              	.LEHB23:
 671 031a E8000000 		call	_ZN8UnitTest11CurrentTest7ResultsEv
 671      00
 672 031f 488B00   		movq	(%rax), %rax
 673 0322 488D8DC0 		leaq	-576(%rbp), %rcx
 673      FDFFFF
 674 0329 488D9584 		leaq	-636(%rbp), %rdx
 674      FDFFFF
 675 0330 488DB590 		leaq	-624(%rbp), %rsi
 675      FDFFFF
 676 0337 4889C7   		movq	%rax, %rdi
 677 033a E8000000 		call	_ZN8UnitTest10CheckEqualI12BufferStatusS1_EEvRNS_11TestResultsERKT_RKT0_RKNS_11TestDetailsE
 677      00
 678              	.LEHE23:
 679              	.L39:
 680              	.LEHB24:
  45:testBinIO.cpp **** 	CHECK_EQUAL(strlen(DATA), buf.length);
 681              		.loc 4 45 0 is_stmt 1
 682 033f E8000000 		call	_ZN8UnitTest11CurrentTest7DetailsEv
 682      00
 683 0344 488B08   		movq	(%rax), %rcx
 684 0347 488D85C0 		leaq	-576(%rbp), %rax
 684      FDFFFF
 685 034e BA2D0000 		movl	$45, %edx
 685      00
 686 0353 4889CE   		movq	%rcx, %rsi
 687 0356 4889C7   		movq	%rax, %rdi
 688 0359 E8000000 		call	_ZN8UnitTest11TestDetailsC1ERKS0_i
 688      00
 689              	.LEHE24:
 690              		.loc 4 45 0 is_stmt 0 discriminator 2
 691 035e 488B8588 		movq	-632(%rbp), %rax
 691      FDFFFF
 692 0365 4889C7   		movq	%rax, %rdi
 693 0368 E8000000 		call	strlen
 693      00
 694 036d 48898590 		movq	%rax, -624(%rbp)
 694      FDFFFF
 695              	.LEHB25:
 696 0374 E8000000 		call	_ZN8UnitTest11CurrentTest7ResultsEv
 696      00
 697 0379 488B00   		movq	(%rax), %rax
 698 037c 488D95C0 		leaq	-576(%rbp), %rdx
 698      FDFFFF
 699 0383 488D8DA0 		leaq	-608(%rbp), %rcx
 699      FDFFFF
 700 038a 488D7908 		leaq	8(%rcx), %rdi
 701 038e 488DB590 		leaq	-624(%rbp), %rsi
 701      FDFFFF
 702 0395 4889D1   		movq	%rdx, %rcx
 703 0398 4889FA   		movq	%rdi, %rdx
 704 039b 4889C7   		movq	%rax, %rdi
 705 039e E8000000 		call	_ZN8UnitTest10CheckEqualImmEEvRNS_11TestResultsERKT_RKT0_RKNS_11TestDetailsE
 705      00
 706              	.LEHE25:
 707              	.L43:
 708              	.LEHB26:
  46:testBinIO.cpp **** 	CHECK_ARRAY_EQUAL(DATA, buf.data, (int)buf.length);
 709              		.loc 4 46 0 is_stmt 1
 710 03a3 E8000000 		call	_ZN8UnitTest11CurrentTest7DetailsEv
 710      00
 711 03a8 488B08   		movq	(%rax), %rcx
 712 03ab 488D85C0 		leaq	-576(%rbp), %rax
 712      FDFFFF
 713 03b2 BA2E0000 		movl	$46, %edx
 713      00
 714 03b7 4889CE   		movq	%rcx, %rsi
 715 03ba 4889C7   		movq	%rax, %rdi
 716 03bd E8000000 		call	_ZN8UnitTest11TestDetailsC1ERKS0_i
 716      00
 717              		.loc 4 46 0 is_stmt 0 discriminator 2
 718 03c2 488B85A8 		movq	-600(%rbp), %rax
 718      FDFFFF
 719 03c9 89C3     		movl	%eax, %ebx
 720 03cb E8000000 		call	_ZN8UnitTest11CurrentTest7ResultsEv
 720      00
 721 03d0 488B00   		movq	(%rax), %rax
 722 03d3 488D8DC0 		leaq	-576(%rbp), %rcx
 722      FDFFFF
 723 03da 488D95A0 		leaq	-608(%rbp), %rdx
 723      FDFFFF
 724 03e1 488DB588 		leaq	-632(%rbp), %rsi
 724      FDFFFF
 725 03e8 4989C8   		movq	%rcx, %r8
 726 03eb 89D9     		movl	%ebx, %ecx
 727 03ed 4889C7   		movq	%rax, %rdi
 728 03f0 E8000000 		call	_ZN8UnitTest15CheckArrayEqualIPKcPhEEvRNS_11TestResultsERKT_RKT0_iRKNS_11TestDetailsE
 728      00
 729              	.LEHE26:
 730              	.L46:
  47:testBinIO.cpp **** 	status = bufAppendFromBinaryFile(&buf, FILENAME, NULL);
 731              		.loc 4 47 0 is_stmt 1
 732 03f5 488B8D98 		movq	-616(%rbp), %rcx
 732      FDFFFF
 733 03fc 488D85A0 		leaq	-608(%rbp), %rax
 733      FDFFFF
 734 0403 BA000000 		movl	$0, %edx
 734      00
 735 0408 4889CE   		movq	%rcx, %rsi
 736 040b 4889C7   		movq	%rax, %rdi
 737              	.LEHB27:
 738 040e E8000000 		call	bufAppendFromBinaryFile
 738      00
 739              	.LEHE27:
 740 0413 898584FD 		movl	%eax, -636(%rbp)
 740      FFFF
 741              	.LEHB28:
  48:testBinIO.cpp **** 	CHECK_EQUAL(BUF_SUCCESS, status);
 742              		.loc 4 48 0
 743 0419 E8000000 		call	_ZN8UnitTest11CurrentTest7DetailsEv
 743      00
 744              		.loc 4 48 0 is_stmt 0 discriminator 1
 745 041e 488B08   		movq	(%rax), %rcx
 746 0421 488D85C0 		leaq	-576(%rbp), %rax
 746      FDFFFF
 747 0428 BA300000 		movl	$48, %edx
 747      00
 748 042d 4889CE   		movq	%rcx, %rsi
 749 0430 4889C7   		movq	%rax, %rdi
 750 0433 E8000000 		call	_ZN8UnitTest11TestDetailsC1ERKS0_i
 750      00
 751              	.LEHE28:
 752              		.loc 4 48 0 discriminator 2
 753 0438 C78590FD 		movl	$0, -624(%rbp)
 753      FFFF0000 
 753      0000
 754              	.LEHB29:
 755 0442 E8000000 		call	_ZN8UnitTest11CurrentTest7ResultsEv
 755      00
 756 0447 488B00   		movq	(%rax), %rax
 757 044a 488D8DC0 		leaq	-576(%rbp), %rcx
 757      FDFFFF
 758 0451 488D9584 		leaq	-636(%rbp), %rdx
 758      FDFFFF
 759 0458 488DB590 		leaq	-624(%rbp), %rsi
 759      FDFFFF
 760 045f 4889C7   		movq	%rax, %rdi
 761 0462 E8000000 		call	_ZN8UnitTest10CheckEqualI12BufferStatusS1_EEvRNS_11TestResultsERKT_RKT0_RKNS_11TestDetailsE
 761      00
 762              	.LEHE29:
 763              	.L50:
 764              	.LEHB30:
  49:testBinIO.cpp **** 	CHECK_EQUAL(2 * strlen(DATA), buf.length);
 765              		.loc 4 49 0 is_stmt 1
 766 0467 E8000000 		call	_ZN8UnitTest11CurrentTest7DetailsEv
 766      00
 767 046c 488B08   		movq	(%rax), %rcx
 768 046f 488D85C0 		leaq	-576(%rbp), %rax
 768      FDFFFF
 769 0476 BA310000 		movl	$49, %edx
 769      00
 770 047b 4889CE   		movq	%rcx, %rsi
 771 047e 4889C7   		movq	%rax, %rdi
 772 0481 E8000000 		call	_ZN8UnitTest11TestDetailsC1ERKS0_i
 772      00
 773              	.LEHE30:
 774              		.loc 4 49 0 is_stmt 0 discriminator 2
 775 0486 488B8588 		movq	-632(%rbp), %rax
 775      FDFFFF
 776 048d 4889C7   		movq	%rax, %rdi
 777 0490 E8000000 		call	strlen
 777      00
 778 0495 4801C0   		addq	%rax, %rax
 779 0498 48898590 		movq	%rax, -624(%rbp)
 779      FDFFFF
 780              	.LEHB31:
 781 049f E8000000 		call	_ZN8UnitTest11CurrentTest7ResultsEv
 781      00
 782 04a4 488B00   		movq	(%rax), %rax
 783 04a7 488D95C0 		leaq	-576(%rbp), %rdx
 783      FDFFFF
 784 04ae 488D8DA0 		leaq	-608(%rbp), %rcx
 784      FDFFFF
 785 04b5 488D7908 		leaq	8(%rcx), %rdi
 786 04b9 488DB590 		leaq	-624(%rbp), %rsi
 786      FDFFFF
 787 04c0 4889D1   		movq	%rdx, %rcx
 788 04c3 4889FA   		movq	%rdi, %rdx
 789 04c6 4889C7   		movq	%rax, %rdi
 790 04c9 E8000000 		call	_ZN8UnitTest10CheckEqualImmEEvRNS_11TestResultsERKT_RKT0_RKNS_11TestDetailsE
 790      00
 791              	.LEHE31:
 792              	.L54:
 793              	.LEHB32:
  50:testBinIO.cpp **** 	CHECK_ARRAY_EQUAL(DATA, buf.data + strlen(DATA), (int)strlen(DATA));
 794              		.loc 4 50 0 is_stmt 1
 795 04ce E8000000 		call	_ZN8UnitTest11CurrentTest7DetailsEv
 795      00
 796 04d3 488B08   		movq	(%rax), %rcx
 797 04d6 488D85C0 		leaq	-576(%rbp), %rax
 797      FDFFFF
 798 04dd BA320000 		movl	$50, %edx
 798      00
 799 04e2 4889CE   		movq	%rcx, %rsi
 800 04e5 4889C7   		movq	%rax, %rdi
 801 04e8 E8000000 		call	_ZN8UnitTest11TestDetailsC1ERKS0_i
 801      00
 802              	.LEHE32:
 803              		.loc 4 50 0 is_stmt 0 discriminator 2
 804 04ed 488B8588 		movq	-632(%rbp), %rax
 804      FDFFFF
 805 04f4 4889C7   		movq	%rax, %rdi
 806 04f7 E8000000 		call	strlen
 806      00
 807 04fc 4189C4   		movl	%eax, %r12d
 808 04ff 488B9DA0 		movq	-608(%rbp), %rbx
 808      FDFFFF
 809 0506 488B8588 		movq	-632(%rbp), %rax
 809      FDFFFF
 810 050d 4889C7   		movq	%rax, %rdi
 811 0510 E8000000 		call	strlen
 811      00
 812 0515 4801D8   		addq	%rbx, %rax
 813 0518 48898590 		movq	%rax, -624(%rbp)
 813      FDFFFF
 814              	.LEHB33:
 815 051f E8000000 		call	_ZN8UnitTest11CurrentTest7ResultsEv
 815      00
 816 0524 488B00   		movq	(%rax), %rax
 817 0527 488D8DC0 		leaq	-576(%rbp), %rcx
 817      FDFFFF
 818 052e 488D9590 		leaq	-624(%rbp), %rdx
 818      FDFFFF
 819 0535 488DB588 		leaq	-632(%rbp), %rsi
 819      FDFFFF
 820 053c 4989C8   		movq	%rcx, %r8
 821 053f 4489E1   		movl	%r12d, %ecx
 822 0542 4889C7   		movq	%rax, %rdi
 823 0545 E8000000 		call	_ZN8UnitTest15CheckArrayEqualIPKcPhEEvRNS_11TestResultsERKT_RKT0_iRKNS_11TestDetailsE
 823      00
 824              	.LEHE33:
 825              	.L58:
  51:testBinIO.cpp **** 	bufDestroy(&buf);
 826              		.loc 4 51 0 is_stmt 1
 827 054a 488D85A0 		leaq	-608(%rbp), %rax
 827      FDFFFF
 828 0551 4889C7   		movq	%rax, %rdi
 829              	.LEHB34:
 830 0554 E8000000 		call	bufDestroy
 830      00
 831              	.LEHE34:
  36:testBinIO.cpp **** 	Buffer buf;
 832              		.loc 4 36 0
 833 0559 488D85E0 		leaq	-544(%rbp), %rax
 833      FDFFFF
 834 0560 4889C7   		movq	%rax, %rdi
 835              	.LEHB35:
 836 0563 E8000000 		call	_ZNSt14basic_ofstreamIcSt11char_traitsIcEED1Ev
 836      00
 837              	.LEHE35:
  52:testBinIO.cpp **** }
 838              		.loc 4 52 0
 839 0568 90       		nop
 840 0569 488B45E8 		movq	-24(%rbp), %rax
 841 056d 64483304 		xorq	%fs:40, %rax
 841      25280000 
 841      00
 842 0576 0F84B802 		je	.L60
 842      0000
 843 057c E9AE0200 		jmp	.L82
 843      00
 844              	.L63:
 845 0581 EB00     		jmp	.L33
 846              	.L62:
 847              	.L33:
  39:testBinIO.cpp **** 	file.open(FILENAME, ios::out|ios::binary);
 848              		.loc 4 39 0
 849 0583 4889C7   		movq	%rax, %rdi
 850 0586 E8000000 		call	__cxa_begin_catch
 850      00
 851              	.LEHB36:
 852 058b E8000000 		call	_ZN8UnitTest11CurrentTest7DetailsEv
 852      00
 853 0590 488B08   		movq	(%rax), %rcx
 854 0593 488D85C0 		leaq	-576(%rbp), %rax
 854      FDFFFF
 855 059a BA270000 		movl	$39, %edx
 855      00
 856 059f 4889CE   		movq	%rcx, %rsi
 857 05a2 4889C7   		movq	%rax, %rdi
 858 05a5 E8000000 		call	_ZN8UnitTest11TestDetailsC1ERKS0_i
 858      00
  39:testBinIO.cpp **** 	file.open(FILENAME, ios::out|ios::binary);
 859              		.loc 4 39 0 is_stmt 0 discriminator 10
 860 05aa E8000000 		call	_ZN8UnitTest11CurrentTest7ResultsEv
 860      00
 861 05af 488B00   		movq	(%rax), %rax
 862 05b2 488D8DC0 		leaq	-576(%rbp), %rcx
 862      FDFFFF
 863 05b9 BA000000 		movl	$.LC4, %edx
 863      00
 864 05be 4889CE   		movq	%rcx, %rsi
 865 05c1 4889C7   		movq	%rax, %rdi
 866 05c4 E8000000 		call	_ZN8UnitTest11TestResults13OnTestFailureERKNS_11TestDetailsEPKc
 866      00
 867              	.LEHE36:
 868              	.LEHB37:
  39:testBinIO.cpp **** 	file.open(FILENAME, ios::out|ios::binary);
 869              		.loc 4 39 0 discriminator 14
 870 05c9 E8000000 		call	__cxa_end_catch
 870      00
 871              	.LEHE37:
  39:testBinIO.cpp **** 	file.open(FILENAME, ios::out|ios::binary);
 872              		.loc 4 39 0
 873 05ce E9A8FCFF 		jmp	.L34
 873      FF
 874              	.L64:
 875 05d3 4889C3   		movq	%rax, %rbx
 876 05d6 E8000000 		call	__cxa_end_catch
 876      00
 877 05db E9350200 		jmp	.L36
 877      00
 878              	.L66:
 879 05e0 EB00     		jmp	.L38
 880              	.L65:
 881              	.L38:
  44:testBinIO.cpp **** 	CHECK_EQUAL(strlen(DATA), buf.length);
 882              		.loc 4 44 0 is_stmt 1
 883 05e2 4889C7   		movq	%rax, %rdi
 884 05e5 E8000000 		call	__cxa_begin_catch
 884      00
 885              	.LEHB38:
 886 05ea E8000000 		call	_ZN8UnitTest11CurrentTest7DetailsEv
 886      00
 887 05ef 488B08   		movq	(%rax), %rcx
 888 05f2 488D85C0 		leaq	-576(%rbp), %rax
 888      FDFFFF
 889 05f9 BA2C0000 		movl	$44, %edx
 889      00
 890 05fe 4889CE   		movq	%rcx, %rsi
 891 0601 4889C7   		movq	%rax, %rdi
 892 0604 E8000000 		call	_ZN8UnitTest11TestDetailsC1ERKS0_i
 892      00
  44:testBinIO.cpp **** 	CHECK_EQUAL(strlen(DATA), buf.length);
 893              		.loc 4 44 0 is_stmt 0 discriminator 10
 894 0609 E8000000 		call	_ZN8UnitTest11CurrentTest7ResultsEv
 894      00
 895 060e 488B00   		movq	(%rax), %rax
 896 0611 488D8DC0 		leaq	-576(%rbp), %rcx
 896      FDFFFF
 897 0618 BA000000 		movl	$.LC4, %edx
 897      00
 898 061d 4889CE   		movq	%rcx, %rsi
 899 0620 4889C7   		movq	%rax, %rdi
 900 0623 E8000000 		call	_ZN8UnitTest11TestResults13OnTestFailureERKNS_11TestDetailsEPKc
 900      00
 901              	.LEHE38:
 902              	.LEHB39:
  44:testBinIO.cpp **** 	CHECK_EQUAL(strlen(DATA), buf.length);
 903              		.loc 4 44 0 discriminator 14
 904 0628 E8000000 		call	__cxa_end_catch
 904      00
 905              	.LEHE39:
  44:testBinIO.cpp **** 	CHECK_EQUAL(strlen(DATA), buf.length);
 906              		.loc 4 44 0
 907 062d E90DFDFF 		jmp	.L39
 907      FF
 908              	.L67:
 909 0632 4889C3   		movq	%rax, %rbx
 910 0635 E8000000 		call	__cxa_end_catch
 910      00
 911 063a E9D60100 		jmp	.L36
 911      00
 912              	.L69:
 913 063f EB00     		jmp	.L42
 914              	.L68:
 915              	.L42:
  45:testBinIO.cpp **** 	CHECK_ARRAY_EQUAL(DATA, buf.data, (int)buf.length);
 916              		.loc 4 45 0 is_stmt 1
 917 0641 4889C7   		movq	%rax, %rdi
 918 0644 E8000000 		call	__cxa_begin_catch
 918      00
 919              	.LEHB40:
 920 0649 E8000000 		call	_ZN8UnitTest11CurrentTest7DetailsEv
 920      00
 921 064e 488B08   		movq	(%rax), %rcx
 922 0651 488D85C0 		leaq	-576(%rbp), %rax
 922      FDFFFF
 923 0658 BA2D0000 		movl	$45, %edx
 923      00
 924 065d 4889CE   		movq	%rcx, %rsi
 925 0660 4889C7   		movq	%rax, %rdi
 926 0663 E8000000 		call	_ZN8UnitTest11TestDetailsC1ERKS0_i
 926      00
  45:testBinIO.cpp **** 	CHECK_ARRAY_EQUAL(DATA, buf.data, (int)buf.length);
 927              		.loc 4 45 0 is_stmt 0 discriminator 10
 928 0668 E8000000 		call	_ZN8UnitTest11CurrentTest7ResultsEv
 928      00
 929 066d 488B00   		movq	(%rax), %rax
 930 0670 488D8DC0 		leaq	-576(%rbp), %rcx
 930      FDFFFF
 931 0677 BA000000 		movl	$.LC9, %edx
 931      00
 932 067c 4889CE   		movq	%rcx, %rsi
 933 067f 4889C7   		movq	%rax, %rdi
 934 0682 E8000000 		call	_ZN8UnitTest11TestResults13OnTestFailureERKNS_11TestDetailsEPKc
 934      00
 935              	.LEHE40:
 936              	.LEHB41:
  45:testBinIO.cpp **** 	CHECK_ARRAY_EQUAL(DATA, buf.data, (int)buf.length);
 937              		.loc 4 45 0 discriminator 14
 938 0687 E8000000 		call	__cxa_end_catch
 938      00
 939              	.LEHE41:
  45:testBinIO.cpp **** 	CHECK_ARRAY_EQUAL(DATA, buf.data, (int)buf.length);
 940              		.loc 4 45 0
 941 068c E912FDFF 		jmp	.L43
 941      FF
 942              	.L70:
 943 0691 4889C3   		movq	%rax, %rbx
 944 0694 E8000000 		call	__cxa_end_catch
 944      00
 945 0699 E9770100 		jmp	.L36
 945      00
 946              	.L71:
  46:testBinIO.cpp **** 	status = bufAppendFromBinaryFile(&buf, FILENAME, NULL);
 947              		.loc 4 46 0 is_stmt 1
 948 069e 4889C7   		movq	%rax, %rdi
 949 06a1 E8000000 		call	__cxa_begin_catch
 949      00
 950              	.LEHB42:
 951 06a6 E8000000 		call	_ZN8UnitTest11CurrentTest7DetailsEv
 951      00
 952 06ab 488B08   		movq	(%rax), %rcx
 953 06ae 488D85C0 		leaq	-576(%rbp), %rax
 953      FDFFFF
 954 06b5 BA2E0000 		movl	$46, %edx
 954      00
 955 06ba 4889CE   		movq	%rcx, %rsi
 956 06bd 4889C7   		movq	%rax, %rdi
 957 06c0 E8000000 		call	_ZN8UnitTest11TestDetailsC1ERKS0_i
 957      00
  46:testBinIO.cpp **** 	status = bufAppendFromBinaryFile(&buf, FILENAME, NULL);
 958              		.loc 4 46 0 is_stmt 0 discriminator 10
 959 06c5 E8000000 		call	_ZN8UnitTest11CurrentTest7ResultsEv
 959      00
 960 06ca 488B00   		movq	(%rax), %rax
 961 06cd 488D8DC0 		leaq	-576(%rbp), %rcx
 961      FDFFFF
 962 06d4 BA000000 		movl	$.LC10, %edx
 962      00
 963 06d9 4889CE   		movq	%rcx, %rsi
 964 06dc 4889C7   		movq	%rax, %rdi
 965 06df E8000000 		call	_ZN8UnitTest11TestResults13OnTestFailureERKNS_11TestDetailsEPKc
 965      00
 966              	.LEHE42:
 967              	.LEHB43:
  46:testBinIO.cpp **** 	status = bufAppendFromBinaryFile(&buf, FILENAME, NULL);
 968              		.loc 4 46 0 discriminator 14
 969 06e4 E8000000 		call	__cxa_end_catch
 969      00
 970              	.LEHE43:
  46:testBinIO.cpp **** 	status = bufAppendFromBinaryFile(&buf, FILENAME, NULL);
 971              		.loc 4 46 0
 972 06e9 E907FDFF 		jmp	.L46
 972      FF
 973              	.L72:
 974 06ee 4889C3   		movq	%rax, %rbx
 975 06f1 E8000000 		call	__cxa_end_catch
 975      00
 976 06f6 E91A0100 		jmp	.L36
 976      00
 977              	.L74:
 978 06fb EB00     		jmp	.L49
 979              	.L73:
 980              	.L49:
  48:testBinIO.cpp **** 	CHECK_EQUAL(2 * strlen(DATA), buf.length);
 981              		.loc 4 48 0 is_stmt 1
 982 06fd 4889C7   		movq	%rax, %rdi
 983 0700 E8000000 		call	__cxa_begin_catch
 983      00
 984              	.LEHB44:
 985 0705 E8000000 		call	_ZN8UnitTest11CurrentTest7DetailsEv
 985      00
 986 070a 488B08   		movq	(%rax), %rcx
 987 070d 488D85C0 		leaq	-576(%rbp), %rax
 987      FDFFFF
 988 0714 BA300000 		movl	$48, %edx
 988      00
 989 0719 4889CE   		movq	%rcx, %rsi
 990 071c 4889C7   		movq	%rax, %rdi
 991 071f E8000000 		call	_ZN8UnitTest11TestDetailsC1ERKS0_i
 991      00
  48:testBinIO.cpp **** 	CHECK_EQUAL(2 * strlen(DATA), buf.length);
 992              		.loc 4 48 0 is_stmt 0 discriminator 10
 993 0724 E8000000 		call	_ZN8UnitTest11CurrentTest7ResultsEv
 993      00
 994 0729 488B00   		movq	(%rax), %rax
 995 072c 488D8DC0 		leaq	-576(%rbp), %rcx
 995      FDFFFF
 996 0733 BA000000 		movl	$.LC4, %edx
 996      00
 997 0738 4889CE   		movq	%rcx, %rsi
 998 073b 4889C7   		movq	%rax, %rdi
 999 073e E8000000 		call	_ZN8UnitTest11TestResults13OnTestFailureERKNS_11TestDetailsEPKc
 999      00
 1000              	.LEHE44:
 1001              	.LEHB45:
  48:testBinIO.cpp **** 	CHECK_EQUAL(2 * strlen(DATA), buf.length);
 1002              		.loc 4 48 0 discriminator 14
 1003 0743 E8000000 		call	__cxa_end_catch
 1003      00
 1004              	.LEHE45:
  48:testBinIO.cpp **** 	CHECK_EQUAL(2 * strlen(DATA), buf.length);
 1005              		.loc 4 48 0
 1006 0748 E91AFDFF 		jmp	.L50
 1006      FF
 1007              	.L75:
 1008 074d 4889C3   		movq	%rax, %rbx
 1009 0750 E8000000 		call	__cxa_end_catch
 1009      00
 1010 0755 E9BB0000 		jmp	.L36
 1010      00
 1011              	.L77:
 1012 075a EB00     		jmp	.L53
 1013              	.L76:
 1014              	.L53:
  49:testBinIO.cpp **** 	CHECK_ARRAY_EQUAL(DATA, buf.data + strlen(DATA), (int)strlen(DATA));
 1015              		.loc 4 49 0 is_stmt 1
 1016 075c 4889C7   		movq	%rax, %rdi
 1017 075f E8000000 		call	__cxa_begin_catch
 1017      00
 1018              	.LEHB46:
 1019 0764 E8000000 		call	_ZN8UnitTest11CurrentTest7DetailsEv
 1019      00
 1020 0769 488B08   		movq	(%rax), %rcx
 1021 076c 488D85C0 		leaq	-576(%rbp), %rax
 1021      FDFFFF
 1022 0773 BA310000 		movl	$49, %edx
 1022      00
 1023 0778 4889CE   		movq	%rcx, %rsi
 1024 077b 4889C7   		movq	%rax, %rdi
 1025 077e E8000000 		call	_ZN8UnitTest11TestDetailsC1ERKS0_i
 1025      00
  49:testBinIO.cpp **** 	CHECK_ARRAY_EQUAL(DATA, buf.data + strlen(DATA), (int)strlen(DATA));
 1026              		.loc 4 49 0 is_stmt 0 discriminator 10
 1027 0783 E8000000 		call	_ZN8UnitTest11CurrentTest7ResultsEv
 1027      00
 1028 0788 488B00   		movq	(%rax), %rax
 1029 078b 488D8DC0 		leaq	-576(%rbp), %rcx
 1029      FDFFFF
 1030 0792 BA000000 		movl	$.LC11, %edx
 1030      00
 1031 0797 4889CE   		movq	%rcx, %rsi
 1032 079a 4889C7   		movq	%rax, %rdi
 1033 079d E8000000 		call	_ZN8UnitTest11TestResults13OnTestFailureERKNS_11TestDetailsEPKc
 1033      00
 1034              	.LEHE46:
 1035              	.LEHB47:
  49:testBinIO.cpp **** 	CHECK_ARRAY_EQUAL(DATA, buf.data + strlen(DATA), (int)strlen(DATA));
 1036              		.loc 4 49 0 discriminator 14
 1037 07a2 E8000000 		call	__cxa_end_catch
 1037      00
 1038              	.LEHE47:
  49:testBinIO.cpp **** 	CHECK_ARRAY_EQUAL(DATA, buf.data + strlen(DATA), (int)strlen(DATA));
 1039              		.loc 4 49 0
 1040 07a7 E922FDFF 		jmp	.L54
 1040      FF
 1041              	.L78:
 1042 07ac 4889C3   		movq	%rax, %rbx
 1043 07af E8000000 		call	__cxa_end_catch
 1043      00
 1044 07b4 EB5F     		jmp	.L36
 1045              	.L80:
 1046 07b6 EB00     		jmp	.L57
 1047              	.L79:
 1048              	.L57:
  50:testBinIO.cpp **** 	bufDestroy(&buf);
 1049              		.loc 4 50 0 is_stmt 1
 1050 07b8 4889C7   		movq	%rax, %rdi
 1051 07bb E8000000 		call	__cxa_begin_catch
 1051      00
 1052              	.LEHB48:
 1053 07c0 E8000000 		call	_ZN8UnitTest11CurrentTest7DetailsEv
 1053      00
 1054 07c5 488B08   		movq	(%rax), %rcx
 1055 07c8 488D85C0 		leaq	-576(%rbp), %rax
 1055      FDFFFF
 1056 07cf BA320000 		movl	$50, %edx
 1056      00
 1057 07d4 4889CE   		movq	%rcx, %rsi
 1058 07d7 4889C7   		movq	%rax, %rdi
 1059 07da E8000000 		call	_ZN8UnitTest11TestDetailsC1ERKS0_i
 1059      00
  50:testBinIO.cpp **** 	bufDestroy(&buf);
 1060              		.loc 4 50 0 is_stmt 0 discriminator 10
 1061 07df E8000000 		call	_ZN8UnitTest11CurrentTest7ResultsEv
 1061      00
 1062 07e4 488B00   		movq	(%rax), %rax
 1063 07e7 488D8DC0 		leaq	-576(%rbp), %rcx
 1063      FDFFFF
 1064 07ee BA000000 		movl	$.LC12, %edx
 1064      00
 1065 07f3 4889CE   		movq	%rcx, %rsi
 1066 07f6 4889C7   		movq	%rax, %rdi
 1067 07f9 E8000000 		call	_ZN8UnitTest11TestResults13OnTestFailureERKNS_11TestDetailsEPKc
 1067      00
 1068              	.LEHE48:
 1069              	.LEHB49:
  50:testBinIO.cpp **** 	bufDestroy(&buf);
 1070              		.loc 4 50 0 discriminator 14
 1071 07fe E8000000 		call	__cxa_end_catch
 1071      00
 1072              	.LEHE49:
  50:testBinIO.cpp **** 	bufDestroy(&buf);
 1073              		.loc 4 50 0
 1074 0803 E942FDFF 		jmp	.L58
 1074      FF
 1075              	.L81:
 1076 0808 4889C3   		movq	%rax, %rbx
 1077 080b E8000000 		call	__cxa_end_catch
 1077      00
 1078 0810 EB03     		jmp	.L36
 1079              	.L61:
 1080 0812 4889C3   		movq	%rax, %rbx
 1081              	.L36:
  36:testBinIO.cpp **** 	Buffer buf;
 1082              		.loc 4 36 0 is_stmt 1
 1083 0815 488D85E0 		leaq	-544(%rbp), %rax
 1083      FDFFFF
 1084 081c 4889C7   		movq	%rax, %rdi
 1085 081f E8000000 		call	_ZNSt14basic_ofstreamIcSt11char_traitsIcEED1Ev
 1085      00
 1086 0824 4889D8   		movq	%rbx, %rax
 1087 0827 4889C7   		movq	%rax, %rdi
 1088              	.LEHB50:
 1089 082a E8000000 		call	_Unwind_Resume
 1089      00
 1090              	.LEHE50:
 1091              	.L82:
 1092              		.loc 4 52 0
 1093 082f E8000000 		call	__stack_chk_fail
 1093      00
 1094              	.L60:
 1095 0834 4881C480 		addq	$640, %rsp
 1095      020000
 1096 083b 5B       		popq	%rbx
 1097 083c 415C     		popq	%r12
 1098 083e 5D       		popq	%rbp
 1099              		.cfi_def_cfa 7, 8
 1100 083f C3       		ret
 1101              		.cfi_endproc
 1102              	.LFE1144:
 1103              		.section	.gcc_except_table
 1104              		.align 4
 1105              	.LLSDA1144:
 1106 0054 FF       		.byte	0xff
 1107 0055 03       		.byte	0x3
 1108 0056 D001     		.uleb128 .LLSDATT1144-.LLSDATTD1144
 1109              	.LLSDATTD1144:
 1110 0058 01       		.byte	0x1
 1111 0059 C601     		.uleb128 .LLSDACSE1144-.LLSDACSB1144
 1112              	.LLSDACSB1144:
 1113 005b 44       		.uleb128 .LEHB17-.LFB1144
 1114 005c 05       		.uleb128 .LEHE17-.LEHB17
 1115 005d 00       		.uleb128 0
 1116 005e 00       		.uleb128 0
 1117 005f 62       		.uleb128 .LEHB18-.LFB1144
 1118 0060 05       		.uleb128 .LEHE18-.LEHB18
 1119 0061 D20C     		.uleb128 .L61-.LFB1144
 1120 0063 00       		.uleb128 0
 1121 0064 6D       		.uleb128 .LEHB19-.LFB1144
 1122 0065 1F       		.uleb128 .LEHE19-.LEHB19
 1123 0066 C307     		.uleb128 .L62-.LFB1144
 1124 0068 01       		.uleb128 0x1
 1125 0069 9601     		.uleb128 .LEHB20-.LFB1144
 1126 006b 25       		.uleb128 .LEHE20-.LEHB20
 1127 006c C107     		.uleb128 .L63-.LFB1144
 1128 006e 01       		.uleb128 0x1
 1129 006f E001     		.uleb128 .LEHB21-.LFB1144
 1130 0071 4B       		.uleb128 .LEHE21-.LEHB21
 1131 0072 D20C     		.uleb128 .L61-.LFB1144
 1132 0074 00       		.uleb128 0
 1133 0075 B102     		.uleb128 .LEHB22-.LFB1144
 1134 0077 1F       		.uleb128 .LEHE22-.LEHB22
 1135 0078 A208     		.uleb128 .L65-.LFB1144
 1136 007a 01       		.uleb128 0x1
 1137 007b DA02     		.uleb128 .LEHB23-.LFB1144
 1138 007d 25       		.uleb128 .LEHE23-.LEHB23
 1139 007e A008     		.uleb128 .L66-.LFB1144
 1140 0080 01       		.uleb128 0x1
 1141 0081 FF02     		.uleb128 .LEHB24-.LFB1144
 1142 0083 1F       		.uleb128 .LEHE24-.LEHB24
 1143 0084 8109     		.uleb128 .L68-.LFB1144
 1144 0086 01       		.uleb128 0x1
 1145 0087 B403     		.uleb128 .LEHB25-.LFB1144
 1146 0089 2F       		.uleb128 .LEHE25-.LEHB25
 1147 008a FF08     		.uleb128 .L69-.LFB1144
 1148 008c 01       		.uleb128 0x1
 1149 008d E303     		.uleb128 .LEHB26-.LFB1144
 1150 008f 52       		.uleb128 .LEHE26-.LEHB26
 1151 0090 DE09     		.uleb128 .L71-.LFB1144
 1152 0092 01       		.uleb128 0x1
 1153 0093 CE04     		.uleb128 .LEHB27-.LFB1144
 1154 0095 05       		.uleb128 .LEHE27-.LEHB27
 1155 0096 D20C     		.uleb128 .L61-.LFB1144
 1156 0098 00       		.uleb128 0
 1157 0099 D904     		.uleb128 .LEHB28-.LFB1144
 1158 009b 1F       		.uleb128 .LEHE28-.LEHB28
 1159 009c BD0A     		.uleb128 .L73-.LFB1144
 1160 009e 01       		.uleb128 0x1
 1161 009f 8205     		.uleb128 .LEHB29-.LFB1144
 1162 00a1 25       		.uleb128 .LEHE29-.LEHB29
 1163 00a2 BB0A     		.uleb128 .L74-.LFB1144
 1164 00a4 01       		.uleb128 0x1
 1165 00a5 A705     		.uleb128 .LEHB30-.LFB1144
 1166 00a7 1F       		.uleb128 .LEHE30-.LEHB30
 1167 00a8 9C0B     		.uleb128 .L76-.LFB1144
 1168 00aa 01       		.uleb128 0x1
 1169 00ab DF05     		.uleb128 .LEHB31-.LFB1144
 1170 00ad 2F       		.uleb128 .LEHE31-.LEHB31
 1171 00ae 9A0B     		.uleb128 .L77-.LFB1144
 1172 00b0 01       		.uleb128 0x1
 1173 00b1 8E06     		.uleb128 .LEHB32-.LFB1144
 1174 00b3 1F       		.uleb128 .LEHE32-.LEHB32
 1175 00b4 F80B     		.uleb128 .L79-.LFB1144
 1176 00b6 01       		.uleb128 0x1
 1177 00b7 DF06     		.uleb128 .LEHB33-.LFB1144
 1178 00b9 2B       		.uleb128 .LEHE33-.LEHB33
 1179 00ba F60B     		.uleb128 .L80-.LFB1144
 1180 00bc 01       		.uleb128 0x1
 1181 00bd 9407     		.uleb128 .LEHB34-.LFB1144
 1182 00bf 05       		.uleb128 .LEHE34-.LEHB34
 1183 00c0 D20C     		.uleb128 .L61-.LFB1144
 1184 00c2 00       		.uleb128 0
 1185 00c3 A307     		.uleb128 .LEHB35-.LFB1144
 1186 00c5 05       		.uleb128 .LEHE35-.LEHB35
 1187 00c6 00       		.uleb128 0
 1188 00c7 00       		.uleb128 0
 1189 00c8 CB07     		.uleb128 .LEHB36-.LFB1144
 1190 00ca 3E       		.uleb128 .LEHE36-.LEHB36
 1191 00cb 9308     		.uleb128 .L64-.LFB1144
 1192 00cd 00       		.uleb128 0
 1193 00ce 8908     		.uleb128 .LEHB37-.LFB1144
 1194 00d0 05       		.uleb128 .LEHE37-.LEHB37
 1195 00d1 D20C     		.uleb128 .L61-.LFB1144
 1196 00d3 00       		.uleb128 0
 1197 00d4 AA08     		.uleb128 .LEHB38-.LFB1144
 1198 00d6 3E       		.uleb128 .LEHE38-.LEHB38
 1199 00d7 F208     		.uleb128 .L67-.LFB1144
 1200 00d9 00       		.uleb128 0
 1201 00da E808     		.uleb128 .LEHB39-.LFB1144
 1202 00dc 05       		.uleb128 .LEHE39-.LEHB39
 1203 00dd D20C     		.uleb128 .L61-.LFB1144
 1204 00df 00       		.uleb128 0
 1205 00e0 8909     		.uleb128 .LEHB40-.LFB1144
 1206 00e2 3E       		.uleb128 .LEHE40-.LEHB40
 1207 00e3 D109     		.uleb128 .L70-.LFB1144
 1208 00e5 00       		.uleb128 0
 1209 00e6 C709     		.uleb128 .LEHB41-.LFB1144
 1210 00e8 05       		.uleb128 .LEHE41-.LEHB41
 1211 00e9 D20C     		.uleb128 .L61-.LFB1144
 1212 00eb 00       		.uleb128 0
 1213 00ec E609     		.uleb128 .LEHB42-.LFB1144
 1214 00ee 3E       		.uleb128 .LEHE42-.LEHB42
 1215 00ef AE0A     		.uleb128 .L72-.LFB1144
 1216 00f1 00       		.uleb128 0
 1217 00f2 A40A     		.uleb128 .LEHB43-.LFB1144
 1218 00f4 05       		.uleb128 .LEHE43-.LEHB43
 1219 00f5 D20C     		.uleb128 .L61-.LFB1144
 1220 00f7 00       		.uleb128 0
 1221 00f8 C50A     		.uleb128 .LEHB44-.LFB1144
 1222 00fa 3E       		.uleb128 .LEHE44-.LEHB44
 1223 00fb 8D0B     		.uleb128 .L75-.LFB1144
 1224 00fd 00       		.uleb128 0
 1225 00fe 830B     		.uleb128 .LEHB45-.LFB1144
 1226 0100 05       		.uleb128 .LEHE45-.LEHB45
 1227 0101 D20C     		.uleb128 .L61-.LFB1144
 1228 0103 00       		.uleb128 0
 1229 0104 A40B     		.uleb128 .LEHB46-.LFB1144
 1230 0106 3E       		.uleb128 .LEHE46-.LEHB46
 1231 0107 EC0B     		.uleb128 .L78-.LFB1144
 1232 0109 00       		.uleb128 0
 1233 010a E20B     		.uleb128 .LEHB47-.LFB1144
 1234 010c 05       		.uleb128 .LEHE47-.LEHB47
 1235 010d D20C     		.uleb128 .L61-.LFB1144
 1236 010f 00       		.uleb128 0
 1237 0110 800C     		.uleb128 .LEHB48-.LFB1144
 1238 0112 3E       		.uleb128 .LEHE48-.LEHB48
 1239 0113 C80C     		.uleb128 .L81-.LFB1144
 1240 0115 00       		.uleb128 0
 1241 0116 BE0C     		.uleb128 .LEHB49-.LFB1144
 1242 0118 05       		.uleb128 .LEHE49-.LEHB49
 1243 0119 D20C     		.uleb128 .L61-.LFB1144
 1244 011b 00       		.uleb128 0
 1245 011c EA0C     		.uleb128 .LEHB50-.LFB1144
 1246 011e 05       		.uleb128 .LEHE50-.LEHB50
 1247 011f 00       		.uleb128 0
 1248 0120 00       		.uleb128 0
 1249              	.LLSDACSE1144:
 1250 0121 01       		.byte	0x1
 1251 0122 00       		.byte	0
 1252 0123 00       		.align 4
 1253 0124 00000000 		.long	0
 1254              	
 1255              	.LLSDATT1144:
 1256              		.text
 1258              		.section	.rodata
 1259              	.LC13:
 1260 0210 42696E49 		.string	"BinIO_testWriteFile"
 1260      4F5F7465 
 1260      73745772 
 1260      69746546 
 1260      696C6500 
 1261              		.section	.text._ZN23TestBinIO_testWriteFileC2Ev,"axG",@progbits,_ZN23TestBinIO_testWriteFileC5Ev,c
 1262              		.align 2
 1263              		.weak	_ZN23TestBinIO_testWriteFileC2Ev
 1265              	_ZN23TestBinIO_testWriteFileC2Ev:
 1266              	.LFB1146:
  53:testBinIO.cpp **** 
  54:testBinIO.cpp **** TEST(BinIO_testWriteFile) {
 1267              		.loc 4 54 0
 1268              		.cfi_startproc
 1269 0000 55       		pushq	%rbp
 1270              		.cfi_def_cfa_offset 16
 1271              		.cfi_offset 6, -16
 1272 0001 4889E5   		movq	%rsp, %rbp
 1273              		.cfi_def_cfa_register 6
 1274 0004 4883EC10 		subq	$16, %rsp
 1275 0008 48897DF8 		movq	%rdi, -8(%rbp)
 1276              	.LBB6:
 1277              		.loc 4 54 0
 1278 000c E8000000 		call	_ZN13UnitTestSuite12GetSuiteNameEv
 1278      00
 1279 0011 4889C2   		movq	%rax, %rdx
 1280 0014 488B45F8 		movq	-8(%rbp), %rax
 1281 0018 41B83600 		movl	$54, %r8d
 1281      0000
 1282 001e B9000000 		movl	$.LC1, %ecx
 1282      00
 1283 0023 BE000000 		movl	$.LC13, %esi
 1283      00
 1284 0028 4889C7   		movq	%rax, %rdi
 1285 002b E8000000 		call	_ZN8UnitTest4TestC2EPKcS2_S2_i
 1285      00
 1286 0030 BA000000 		movl	$_ZTV23TestBinIO_testWriteFile+16, %edx
 1286      00
 1287 0035 488B45F8 		movq	-8(%rbp), %rax
 1288 0039 488910   		movq	%rdx, (%rax)
 1289              	.LBE6:
 1290 003c 90       		nop
 1291 003d C9       		leave
 1292              		.cfi_def_cfa 7, 8
 1293 003e C3       		ret
 1294              		.cfi_endproc
 1295              	.LFE1146:
 1297              		.weak	_ZN23TestBinIO_testWriteFileC1Ev
 1298              		.set	_ZN23TestBinIO_testWriteFileC1Ev,_ZN23TestBinIO_testWriteFileC2Ev
 1299              		.globl	testBinIO_testWriteFileInstance
 1300              		.bss
 1301 0079 00000000 		.align 32
 1301      000000
 1304              	testBinIO_testWriteFileInstance:
 1305 0080 00000000 		.zero	56
 1305      00000000 
 1305      00000000 
 1305      00000000 
 1305      00000000 
 1306              		.globl	adderBinIO_testWriteFile
 1309              	adderBinIO_testWriteFile:
 1310 00b8 00       		.zero	1
 1311              		.section	.rodata
 1312              	.LC14:
 1313 0224 66696C65 		.string	"file.is_open()"
 1313      2E69735F 
 1313      6F70656E 
 1313      282900
 1314 0233 00000000 		.align 8
 1314      00
 1315              	.LC15:
 1316 0238 556E6861 		.string	"Unhandled exception in CHECK(file.is_open())"
 1316      6E646C65 
 1316      64206578 
 1316      63657074 
 1316      696F6E20 
 1317 0265 000000   		.align 8
 1318              	.LC16:
 1319 0268 556E6861 		.string	"Unhandled exception in CHECK_EQUAL(strlen(DATA), (size_t)length)"
 1319      6E646C65 
 1319      64206578 
 1319      63657074 
 1319      696F6E20 
 1320 02a9 00000000 		.align 8
 1320      000000
 1321              	.LC17:
 1322 02b0 556E6861 		.string	"Unhandled exception in CHECK_ARRAY_EQUAL(DATA, fileData)"
 1322      6E646C65 
 1322      64206578 
 1322      63657074 
 1322      696F6E20 
 1323 02e9 00000000 		.align 8
 1323      000000
 1324              	.LC18:
 1325 02f0 556E6861 		.string	"Unhandled exception in CHECK_EQUAL(9, length)"
 1325      6E646C65 
 1325      64206578 
 1325      63657074 
 1325      696F6E20 
 1326 031e 0000     		.align 8
 1327              	.LC19:
 1328 0320 556E6861 		.string	"Unhandled exception in CHECK_ARRAY_EQUAL(DATA+5, fileData)"
 1328      6E646C65 
 1328      64206578 
 1328      63657074 
 1328      696F6E20 
 1329              		.text
 1330              		.align 2
 1331              		.globl	_ZNK23TestBinIO_testWriteFile7RunImplEv
 1333              	_ZNK23TestBinIO_testWriteFile7RunImplEv:
 1334              	.LFB1148:
 1335              		.loc 4 54 0
 1336              		.cfi_startproc
 1337              		.cfi_personality 0x3,__gxx_personality_v0
 1338              		.cfi_lsda 0x3,.LLSDA1148
 1339 0840 55       		pushq	%rbp
 1340              		.cfi_def_cfa_offset 16
 1341              		.cfi_offset 6, -16
 1342 0841 4889E5   		movq	%rsp, %rbp
 1343              		.cfi_def_cfa_register 6
 1344 0844 53       		pushq	%rbx
 1345 0845 4881ECB8 		subq	$696, %rsp
 1345      020000
 1346              		.cfi_offset 3, -24
 1347 084c 4889BD48 		movq	%rdi, -696(%rbp)
 1347      FDFFFF
 1348              		.loc 4 54 0
 1349 0853 64488B04 		movq	%fs:40, %rax
 1349      25280000 
 1349      00
 1350 085c 488945E8 		movq	%rax, -24(%rbp)
 1351 0860 31C0     		xorl	%eax, %eax
  55:testBinIO.cpp **** 	const char *const FILENAME = "tmpFile.bin";
 1352              		.loc 4 55 0
 1353 0862 48C78578 		movq	$.LC7, -648(%rbp)
 1353      FDFFFF00 
 1353      000000
  56:testBinIO.cpp **** 	const char *const DATA = "Just some test data";
 1354              		.loc 4 56 0
 1355 086d 48C78558 		movq	$.LC8, -680(%rbp)
 1355      FDFFFF00 
 1355      000000
  57:testBinIO.cpp **** 	ifstream file;
 1356              		.loc 4 57 0
 1357 0878 488D85E0 		leaq	-544(%rbp), %rax
 1357      FDFFFF
 1358 087f 4889C7   		movq	%rax, %rdi
 1359              	.LEHB51:
 1360 0882 E8000000 		call	_ZNSt14basic_ifstreamIcSt11char_traitsIcEEC1Ev
 1360      00
 1361              	.LEHE51:
  58:testBinIO.cpp **** 	streamoff length;
  59:testBinIO.cpp **** 	//ifstream::pos_type length;
  60:testBinIO.cpp **** 	char *fileData;
  61:testBinIO.cpp **** 	Buffer buf;
  62:testBinIO.cpp **** 	BufferStatus status = bufInitialise(&buf, 8, 0, NULL);
 1362              		.loc 4 62 0
 1363 0887 488D8580 		leaq	-640(%rbp), %rax
 1363      FDFFFF
 1364 088e B9000000 		movl	$0, %ecx
 1364      00
 1365 0893 BA000000 		movl	$0, %edx
 1365      00
 1366 0898 BE080000 		movl	$8, %esi
 1366      00
 1367 089d 4889C7   		movq	%rax, %rdi
 1368              	.LEHB52:
 1369 08a0 E8000000 		call	bufInitialise
 1369      00
 1370              	.LEHE52:
 1371 08a5 898554FD 		movl	%eax, -684(%rbp)
 1371      FFFF
 1372              	.LEHB53:
  63:testBinIO.cpp **** 	CHECK_EQUAL(BUF_SUCCESS, status);
 1373              		.loc 4 63 0
 1374 08ab E8000000 		call	_ZN8UnitTest11CurrentTest7DetailsEv
 1374      00
 1375              		.loc 4 63 0 is_stmt 0 discriminator 1
 1376 08b0 488B08   		movq	(%rax), %rcx
 1377 08b3 488D85A0 		leaq	-608(%rbp), %rax
 1377      FDFFFF
 1378 08ba BA3F0000 		movl	$63, %edx
 1378      00
 1379 08bf 4889CE   		movq	%rcx, %rsi
 1380 08c2 4889C7   		movq	%rax, %rdi
 1381 08c5 E8000000 		call	_ZN8UnitTest11TestDetailsC1ERKS0_i
 1381      00
 1382              	.LEHE53:
 1383              		.loc 4 63 0 discriminator 2
 1384 08ca C78570FD 		movl	$0, -656(%rbp)
 1384      FFFF0000 
 1384      0000
 1385              	.LEHB54:
 1386 08d4 E8000000 		call	_ZN8UnitTest11CurrentTest7ResultsEv
 1386      00
 1387 08d9 488B00   		movq	(%rax), %rax
 1388 08dc 488D8DA0 		leaq	-608(%rbp), %rcx
 1388      FDFFFF
 1389 08e3 488D9554 		leaq	-684(%rbp), %rdx
 1389      FDFFFF
 1390 08ea 488DB570 		leaq	-656(%rbp), %rsi
 1390      FDFFFF
 1391 08f1 4889C7   		movq	%rax, %rdi
 1392 08f4 E8000000 		call	_ZN8UnitTest10CheckEqualI12BufferStatusS1_EEvRNS_11TestResultsERKT_RKT0_RKNS_11TestDetailsE
 1392      00
 1393              	.LEHE54:
 1394              	.L90:
  64:testBinIO.cpp **** 	status = bufAppendBlock(&buf, (const uint8 *)DATA, strlen(DATA), NULL);
 1395              		.loc 4 64 0 is_stmt 1
 1396 08f9 488B8558 		movq	-680(%rbp), %rax
 1396      FDFFFF
 1397 0900 4889C7   		movq	%rax, %rdi
 1398 0903 E8000000 		call	strlen
 1398      00
 1399 0908 4889C2   		movq	%rax, %rdx
 1400 090b 488BB558 		movq	-680(%rbp), %rsi
 1400      FDFFFF
 1401 0912 488D8580 		leaq	-640(%rbp), %rax
 1401      FDFFFF
 1402 0919 B9000000 		movl	$0, %ecx
 1402      00
 1403 091e 4889C7   		movq	%rax, %rdi
 1404              	.LEHB55:
 1405 0921 E8000000 		call	bufAppendBlock
 1405      00
 1406              	.LEHE55:
 1407 0926 898554FD 		movl	%eax, -684(%rbp)
 1407      FFFF
 1408              	.LEHB56:
  65:testBinIO.cpp **** 	CHECK_EQUAL(BUF_SUCCESS, status);
 1409              		.loc 4 65 0
 1410 092c E8000000 		call	_ZN8UnitTest11CurrentTest7DetailsEv
 1410      00
 1411              		.loc 4 65 0 is_stmt 0 discriminator 1
 1412 0931 488B08   		movq	(%rax), %rcx
 1413 0934 488D85A0 		leaq	-608(%rbp), %rax
 1413      FDFFFF
 1414 093b BA410000 		movl	$65, %edx
 1414      00
 1415 0940 4889CE   		movq	%rcx, %rsi
 1416 0943 4889C7   		movq	%rax, %rdi
 1417 0946 E8000000 		call	_ZN8UnitTest11TestDetailsC1ERKS0_i
 1417      00
 1418              	.LEHE56:
 1419              		.loc 4 65 0 discriminator 2
 1420 094b C78570FD 		movl	$0, -656(%rbp)
 1420      FFFF0000 
 1420      0000
 1421              	.LEHB57:
 1422 0955 E8000000 		call	_ZN8UnitTest11CurrentTest7ResultsEv
 1422      00
 1423 095a 488B00   		movq	(%rax), %rax
 1424 095d 488D8DA0 		leaq	-608(%rbp), %rcx
 1424      FDFFFF
 1425 0964 488D9554 		leaq	-684(%rbp), %rdx
 1425      FDFFFF
 1426 096b 488DB570 		leaq	-656(%rbp), %rsi
 1426      FDFFFF
 1427 0972 4889C7   		movq	%rax, %rdi
 1428 0975 E8000000 		call	_ZN8UnitTest10CheckEqualI12BufferStatusS1_EEvRNS_11TestResultsERKT_RKT0_RKNS_11TestDetailsE
 1428      00
 1429              	.LEHE57:
 1430              	.L95:
  66:testBinIO.cpp **** 
  67:testBinIO.cpp **** 	status = bufWriteBinaryFile(&buf, FILENAME, 0, buf.length, NULL);
 1431              		.loc 4 67 0 is_stmt 1
 1432 097a 488B9588 		movq	-632(%rbp), %rdx
 1432      FDFFFF
 1433 0981 488BB578 		movq	-648(%rbp), %rsi
 1433      FDFFFF
 1434 0988 488D8580 		leaq	-640(%rbp), %rax
 1434      FDFFFF
 1435 098f 41B80000 		movl	$0, %r8d
 1435      0000
 1436 0995 4889D1   		movq	%rdx, %rcx
 1437 0998 BA000000 		movl	$0, %edx
 1437      00
 1438 099d 4889C7   		movq	%rax, %rdi
 1439              	.LEHB58:
 1440 09a0 E8000000 		call	bufWriteBinaryFile
 1440      00
 1441              	.LEHE58:
 1442 09a5 898554FD 		movl	%eax, -684(%rbp)
 1442      FFFF
 1443              	.LEHB59:
  68:testBinIO.cpp **** 	CHECK_EQUAL(BUF_SUCCESS, status);
 1444              		.loc 4 68 0
 1445 09ab E8000000 		call	_ZN8UnitTest11CurrentTest7DetailsEv
 1445      00
 1446              		.loc 4 68 0 is_stmt 0 discriminator 1
 1447 09b0 488B08   		movq	(%rax), %rcx
 1448 09b3 488D85A0 		leaq	-608(%rbp), %rax
 1448      FDFFFF
 1449 09ba BA440000 		movl	$68, %edx
 1449      00
 1450 09bf 4889CE   		movq	%rcx, %rsi
 1451 09c2 4889C7   		movq	%rax, %rdi
 1452 09c5 E8000000 		call	_ZN8UnitTest11TestDetailsC1ERKS0_i
 1452      00
 1453              	.LEHE59:
 1454              		.loc 4 68 0 discriminator 2
 1455 09ca C78570FD 		movl	$0, -656(%rbp)
 1455      FFFF0000 
 1455      0000
 1456              	.LEHB60:
 1457 09d4 E8000000 		call	_ZN8UnitTest11CurrentTest7ResultsEv
 1457      00
 1458 09d9 488B00   		movq	(%rax), %rax
 1459 09dc 488D8DA0 		leaq	-608(%rbp), %rcx
 1459      FDFFFF
 1460 09e3 488D9554 		leaq	-684(%rbp), %rdx
 1460      FDFFFF
 1461 09ea 488DB570 		leaq	-656(%rbp), %rsi
 1461      FDFFFF
 1462 09f1 4889C7   		movq	%rax, %rdi
 1463 09f4 E8000000 		call	_ZN8UnitTest10CheckEqualI12BufferStatusS1_EEvRNS_11TestResultsERKT_RKT0_RKNS_11TestDetailsE
 1463      00
 1464              	.LEHE60:
 1465              	.L99:
  69:testBinIO.cpp **** 	file.open(FILENAME, ios::in|ios::binary|ios::ate);
 1466              		.loc 4 69 0 is_stmt 1
 1467 09f9 BE040000 		movl	$4, %esi
 1467      00
 1468 09fe BF080000 		movl	$8, %edi
 1468      00
 1469 0a03 E8000000 		call	_ZStorSt13_Ios_OpenmodeS_
 1469      00
 1470 0a08 BE020000 		movl	$2, %esi
 1470      00
 1471 0a0d 89C7     		movl	%eax, %edi
 1472 0a0f E8000000 		call	_ZStorSt13_Ios_OpenmodeS_
 1472      00
 1473 0a14 89C2     		movl	%eax, %edx
 1474 0a16 488B8D78 		movq	-648(%rbp), %rcx
 1474      FDFFFF
 1475 0a1d 488D85E0 		leaq	-544(%rbp), %rax
 1475      FDFFFF
 1476 0a24 4889CE   		movq	%rcx, %rsi
 1477 0a27 4889C7   		movq	%rax, %rdi
 1478              	.LEHB61:
 1479 0a2a E8000000 		call	_ZNSt14basic_ifstreamIcSt11char_traitsIcEE4openEPKcSt13_Ios_Openmode
 1479      00
 1480              	.LEHE61:
  70:testBinIO.cpp **** 	CHECK(file.is_open());
 1481              		.loc 4 70 0
 1482 0a2f 488D85E0 		leaq	-544(%rbp), %rax
 1482      FDFFFF
 1483 0a36 4889C7   		movq	%rax, %rdi
 1484              	.LEHB62:
 1485 0a39 E8000000 		call	_ZNSt14basic_ifstreamIcSt11char_traitsIcEE7is_openEv
 1485      00
 1486 0a3e 0FB6C0   		movzbl	%al, %eax
 1487 0a41 89C7     		movl	%eax, %edi
 1488 0a43 E8000000 		call	_ZN8UnitTest5CheckIbEEbT_
 1488      00
 1489 0a48 83F001   		xorl	$1, %eax
 1490 0a4b 84C0     		testb	%al, %al
 1491 0a4d 743E     		je	.L85
 1492              		.loc 4 70 0 is_stmt 0 discriminator 2
 1493 0a4f E8000000 		call	_ZN8UnitTest11CurrentTest7DetailsEv
 1493      00
 1494 0a54 488B08   		movq	(%rax), %rcx
 1495 0a57 488D85A0 		leaq	-608(%rbp), %rax
 1495      FDFFFF
 1496 0a5e BA460000 		movl	$70, %edx
 1496      00
 1497 0a63 4889CE   		movq	%rcx, %rsi
 1498 0a66 4889C7   		movq	%rax, %rdi
 1499 0a69 E8000000 		call	_ZN8UnitTest11TestDetailsC1ERKS0_i
 1499      00
 1500              		.loc 4 70 0 discriminator 4
 1501 0a6e E8000000 		call	_ZN8UnitTest11CurrentTest7ResultsEv
 1501      00
 1502 0a73 488B00   		movq	(%rax), %rax
 1503 0a76 488D8DA0 		leaq	-608(%rbp), %rcx
 1503      FDFFFF
 1504 0a7d BA000000 		movl	$.LC14, %edx
 1504      00
 1505 0a82 4889CE   		movq	%rcx, %rsi
 1506 0a85 4889C7   		movq	%rax, %rdi
 1507 0a88 E8000000 		call	_ZN8UnitTest11TestResults13OnTestFailureERKNS_11TestDetailsEPKc
 1507      00
 1508              	.LEHE62:
 1509              	.L85:
  71:testBinIO.cpp **** 	length = file.tellg();
 1510              		.loc 4 71 0 is_stmt 1
 1511 0a8d 488D85E0 		leaq	-544(%rbp), %rax
 1511      FDFFFF
 1512 0a94 4889C7   		movq	%rax, %rdi
 1513              	.LEHB63:
 1514 0a97 E8000000 		call	_ZNSi5tellgEv
 1514      00
 1515              	.LEHE63:
 1516 0a9c 488985C0 		movq	%rax, -576(%rbp)
 1516      FDFFFF
 1517 0aa3 488995C8 		movq	%rdx, -568(%rbp)
 1517      FDFFFF
 1518 0aaa 488D85C0 		leaq	-576(%rbp), %rax
 1518      FDFFFF
 1519 0ab1 4889C7   		movq	%rax, %rdi
 1520 0ab4 E8000000 		call	_ZNKSt4fposI11__mbstate_tEcvlEv
 1520      00
 1521 0ab9 48898560 		movq	%rax, -672(%rbp)
 1521      FDFFFF
 1522              	.LEHB64:
  72:testBinIO.cpp **** 	CHECK_EQUAL(strlen(DATA), (size_t)length);
 1523              		.loc 4 72 0
 1524 0ac0 E8000000 		call	_ZN8UnitTest11CurrentTest7DetailsEv
 1524      00
 1525              		.loc 4 72 0 is_stmt 0 discriminator 1
 1526 0ac5 488B08   		movq	(%rax), %rcx
 1527 0ac8 488D85A0 		leaq	-608(%rbp), %rax
 1527      FDFFFF
 1528 0acf BA480000 		movl	$72, %edx
 1528      00
 1529 0ad4 4889CE   		movq	%rcx, %rsi
 1530 0ad7 4889C7   		movq	%rax, %rdi
 1531 0ada E8000000 		call	_ZN8UnitTest11TestDetailsC1ERKS0_i
 1531      00
 1532              	.LEHE64:
 1533              		.loc 4 72 0 discriminator 2
 1534 0adf 488B8560 		movq	-672(%rbp), %rax
 1534      FDFFFF
 1535 0ae6 48898570 		movq	%rax, -656(%rbp)
 1535      FDFFFF
 1536 0aed 488B8558 		movq	-680(%rbp), %rax
 1536      FDFFFF
 1537 0af4 4889C7   		movq	%rax, %rdi
 1538 0af7 E8000000 		call	strlen
 1538      00
 1539 0afc 48898568 		movq	%rax, -664(%rbp)
 1539      FDFFFF
 1540              	.LEHB65:
 1541 0b03 E8000000 		call	_ZN8UnitTest11CurrentTest7ResultsEv
 1541      00
 1542 0b08 488B00   		movq	(%rax), %rax
 1543 0b0b 488D8DA0 		leaq	-608(%rbp), %rcx
 1543      FDFFFF
 1544 0b12 488D9570 		leaq	-656(%rbp), %rdx
 1544      FDFFFF
 1545 0b19 488DB568 		leaq	-664(%rbp), %rsi
 1545      FDFFFF
 1546 0b20 4889C7   		movq	%rax, %rdi
 1547 0b23 E8000000 		call	_ZN8UnitTest10CheckEqualImmEEvRNS_11TestResultsERKT_RKT0_RKNS_11TestDetailsE
 1547      00
 1548              	.LEHE65:
 1549              	.L105:
  73:testBinIO.cpp **** 	fileData = new char[(unsigned int)length];
 1550              		.loc 4 73 0 is_stmt 1
 1551 0b28 488B8560 		movq	-672(%rbp), %rax
 1551      FDFFFF
 1552 0b2f 89C0     		movl	%eax, %eax
 1553 0b31 4889C7   		movq	%rax, %rdi
 1554              	.LEHB66:
 1555 0b34 E8000000 		call	_Znam
 1555      00
 1556 0b39 48898568 		movq	%rax, -664(%rbp)
 1556      FDFFFF
  74:testBinIO.cpp **** 	file.seekg(0, ios::beg);
 1557              		.loc 4 74 0
 1558 0b40 488D85E0 		leaq	-544(%rbp), %rax
 1558      FDFFFF
 1559 0b47 BA000000 		movl	$0, %edx
 1559      00
 1560 0b4c BE000000 		movl	$0, %esi
 1560      00
 1561 0b51 4889C7   		movq	%rax, %rdi
 1562 0b54 E8000000 		call	_ZNSi5seekgElSt12_Ios_Seekdir
 1562      00
  75:testBinIO.cpp **** 	file.read(fileData, (streamsize)length);
 1563              		.loc 4 75 0
 1564 0b59 488B9560 		movq	-672(%rbp), %rdx
 1564      FDFFFF
 1565 0b60 488B8D68 		movq	-664(%rbp), %rcx
 1565      FDFFFF
 1566 0b67 488D85E0 		leaq	-544(%rbp), %rax
 1566      FDFFFF
 1567 0b6e 4889CE   		movq	%rcx, %rsi
 1568 0b71 4889C7   		movq	%rax, %rdi
 1569 0b74 E8000000 		call	_ZNSi4readEPcl
 1569      00
  76:testBinIO.cpp **** 	file.close();
 1570              		.loc 4 76 0
 1571 0b79 488D85E0 		leaq	-544(%rbp), %rax
 1571      FDFFFF
 1572 0b80 4889C7   		movq	%rax, %rdi
 1573 0b83 E8000000 		call	_ZNSt14basic_ifstreamIcSt11char_traitsIcEE5closeEv
 1573      00
 1574              	.LEHE66:
 1575              	.LEHB67:
  77:testBinIO.cpp **** 	CHECK_ARRAY_EQUAL(DATA, fileData, (int)length);
 1576              		.loc 4 77 0
 1577 0b88 E8000000 		call	_ZN8UnitTest11CurrentTest7DetailsEv
 1577      00
 1578 0b8d 488B08   		movq	(%rax), %rcx
 1579 0b90 488D85A0 		leaq	-608(%rbp), %rax
 1579      FDFFFF
 1580 0b97 BA4D0000 		movl	$77, %edx
 1580      00
 1581 0b9c 4889CE   		movq	%rcx, %rsi
 1582 0b9f 4889C7   		movq	%rax, %rdi
 1583 0ba2 E8000000 		call	_ZN8UnitTest11TestDetailsC1ERKS0_i
 1583      00
 1584              		.loc 4 77 0 is_stmt 0 discriminator 2
 1585 0ba7 488B8560 		movq	-672(%rbp), %rax
 1585      FDFFFF
 1586 0bae 89C3     		movl	%eax, %ebx
 1587 0bb0 E8000000 		call	_ZN8UnitTest11CurrentTest7ResultsEv
 1587      00
 1588 0bb5 488B00   		movq	(%rax), %rax
 1589 0bb8 488D8DA0 		leaq	-608(%rbp), %rcx
 1589      FDFFFF
 1590 0bbf 488D9568 		leaq	-664(%rbp), %rdx
 1590      FDFFFF
 1591 0bc6 488DB558 		leaq	-680(%rbp), %rsi
 1591      FDFFFF
 1592 0bcd 4989C8   		movq	%rcx, %r8
 1593 0bd0 89D9     		movl	%ebx, %ecx
 1594 0bd2 4889C7   		movq	%rax, %rdi
 1595 0bd5 E8000000 		call	_ZN8UnitTest15CheckArrayEqualIPKcPcEEvRNS_11TestResultsERKT_RKT0_iRKNS_11TestDetailsE
 1595      00
 1596              	.LEHE67:
 1597              	.L108:
  78:testBinIO.cpp **** 
  79:testBinIO.cpp **** 	status = bufWriteBinaryFile(&buf, FILENAME, 5, 9, NULL);
 1598              		.loc 4 79 0 is_stmt 1
 1599 0bda 488BB578 		movq	-648(%rbp), %rsi
 1599      FDFFFF
 1600 0be1 488D8580 		leaq	-640(%rbp), %rax
 1600      FDFFFF
 1601 0be8 41B80000 		movl	$0, %r8d
 1601      0000
 1602 0bee B9090000 		movl	$9, %ecx
 1602      00
 1603 0bf3 BA050000 		movl	$5, %edx
 1603      00
 1604 0bf8 4889C7   		movq	%rax, %rdi
 1605              	.LEHB68:
 1606 0bfb E8000000 		call	bufWriteBinaryFile
 1606      00
 1607              	.LEHE68:
 1608 0c00 898554FD 		movl	%eax, -684(%rbp)
 1608      FFFF
 1609              	.LEHB69:
  80:testBinIO.cpp **** 	CHECK_EQUAL(BUF_SUCCESS, status);
 1610              		.loc 4 80 0
 1611 0c06 E8000000 		call	_ZN8UnitTest11CurrentTest7DetailsEv
 1611      00
 1612              		.loc 4 80 0 is_stmt 0 discriminator 1
 1613 0c0b 488B08   		movq	(%rax), %rcx
 1614 0c0e 488D85A0 		leaq	-608(%rbp), %rax
 1614      FDFFFF
 1615 0c15 BA500000 		movl	$80, %edx
 1615      00
 1616 0c1a 4889CE   		movq	%rcx, %rsi
 1617 0c1d 4889C7   		movq	%rax, %rdi
 1618 0c20 E8000000 		call	_ZN8UnitTest11TestDetailsC1ERKS0_i
 1618      00
 1619              	.LEHE69:
 1620              		.loc 4 80 0 discriminator 2
 1621 0c25 C78570FD 		movl	$0, -656(%rbp)
 1621      FFFF0000 
 1621      0000
 1622              	.LEHB70:
 1623 0c2f E8000000 		call	_ZN8UnitTest11CurrentTest7ResultsEv
 1623      00
 1624 0c34 488B00   		movq	(%rax), %rax
 1625 0c37 488D8DA0 		leaq	-608(%rbp), %rcx
 1625      FDFFFF
 1626 0c3e 488D9554 		leaq	-684(%rbp), %rdx
 1626      FDFFFF
 1627 0c45 488DB570 		leaq	-656(%rbp), %rsi
 1627      FDFFFF
 1628 0c4c 4889C7   		movq	%rax, %rdi
 1629 0c4f E8000000 		call	_ZN8UnitTest10CheckEqualI12BufferStatusS1_EEvRNS_11TestResultsERKT_RKT0_RKNS_11TestDetailsE
 1629      00
 1630              	.LEHE70:
 1631              	.L112:
  81:testBinIO.cpp **** 	file.open(FILENAME, ios::in|ios::binary|ios::ate);
 1632              		.loc 4 81 0 is_stmt 1
 1633 0c54 BE040000 		movl	$4, %esi
 1633      00
 1634 0c59 BF080000 		movl	$8, %edi
 1634      00
 1635 0c5e E8000000 		call	_ZStorSt13_Ios_OpenmodeS_
 1635      00
 1636 0c63 BE020000 		movl	$2, %esi
 1636      00
 1637 0c68 89C7     		movl	%eax, %edi
 1638 0c6a E8000000 		call	_ZStorSt13_Ios_OpenmodeS_
 1638      00
 1639 0c6f 89C2     		movl	%eax, %edx
 1640 0c71 488B8D78 		movq	-648(%rbp), %rcx
 1640      FDFFFF
 1641 0c78 488D85E0 		leaq	-544(%rbp), %rax
 1641      FDFFFF
 1642 0c7f 4889CE   		movq	%rcx, %rsi
 1643 0c82 4889C7   		movq	%rax, %rdi
 1644              	.LEHB71:
 1645 0c85 E8000000 		call	_ZNSt14basic_ifstreamIcSt11char_traitsIcEE4openEPKcSt13_Ios_Openmode
 1645      00
 1646              	.LEHE71:
  82:testBinIO.cpp **** 	CHECK(file.is_open());
 1647              		.loc 4 82 0
 1648 0c8a 488D85E0 		leaq	-544(%rbp), %rax
 1648      FDFFFF
 1649 0c91 4889C7   		movq	%rax, %rdi
 1650              	.LEHB72:
 1651 0c94 E8000000 		call	_ZNSt14basic_ifstreamIcSt11char_traitsIcEE7is_openEv
 1651      00
 1652 0c99 0FB6C0   		movzbl	%al, %eax
 1653 0c9c 89C7     		movl	%eax, %edi
 1654 0c9e E8000000 		call	_ZN8UnitTest5CheckIbEEbT_
 1654      00
 1655 0ca3 83F001   		xorl	$1, %eax
 1656 0ca6 84C0     		testb	%al, %al
 1657 0ca8 743E     		je	.L86
 1658              		.loc 4 82 0 is_stmt 0 discriminator 2
 1659 0caa E8000000 		call	_ZN8UnitTest11CurrentTest7DetailsEv
 1659      00
 1660 0caf 488B08   		movq	(%rax), %rcx
 1661 0cb2 488D85A0 		leaq	-608(%rbp), %rax
 1661      FDFFFF
 1662 0cb9 BA520000 		movl	$82, %edx
 1662      00
 1663 0cbe 4889CE   		movq	%rcx, %rsi
 1664 0cc1 4889C7   		movq	%rax, %rdi
 1665 0cc4 E8000000 		call	_ZN8UnitTest11TestDetailsC1ERKS0_i
 1665      00
 1666              		.loc 4 82 0 discriminator 4
 1667 0cc9 E8000000 		call	_ZN8UnitTest11CurrentTest7ResultsEv
 1667      00
 1668 0cce 488B00   		movq	(%rax), %rax
 1669 0cd1 488D8DA0 		leaq	-608(%rbp), %rcx
 1669      FDFFFF
 1670 0cd8 BA000000 		movl	$.LC14, %edx
 1670      00
 1671 0cdd 4889CE   		movq	%rcx, %rsi
 1672 0ce0 4889C7   		movq	%rax, %rdi
 1673 0ce3 E8000000 		call	_ZN8UnitTest11TestResults13OnTestFailureERKNS_11TestDetailsEPKc
 1673      00
 1674              	.LEHE72:
 1675              	.L86:
  83:testBinIO.cpp **** 	length = file.tellg();
 1676              		.loc 4 83 0 is_stmt 1
 1677 0ce8 488D85E0 		leaq	-544(%rbp), %rax
 1677      FDFFFF
 1678 0cef 4889C7   		movq	%rax, %rdi
 1679              	.LEHB73:
 1680 0cf2 E8000000 		call	_ZNSi5tellgEv
 1680      00
 1681              	.LEHE73:
 1682 0cf7 488985D0 		movq	%rax, -560(%rbp)
 1682      FDFFFF
 1683 0cfe 488995D8 		movq	%rdx, -552(%rbp)
 1683      FDFFFF
 1684 0d05 488D85D0 		leaq	-560(%rbp), %rax
 1684      FDFFFF
 1685 0d0c 4889C7   		movq	%rax, %rdi
 1686 0d0f E8000000 		call	_ZNKSt4fposI11__mbstate_tEcvlEv
 1686      00
 1687 0d14 48898560 		movq	%rax, -672(%rbp)
 1687      FDFFFF
 1688              	.LEHB74:
  84:testBinIO.cpp **** 	CHECK_EQUAL(9, length);
 1689              		.loc 4 84 0
 1690 0d1b E8000000 		call	_ZN8UnitTest11CurrentTest7DetailsEv
 1690      00
 1691              		.loc 4 84 0 is_stmt 0 discriminator 1
 1692 0d20 488B08   		movq	(%rax), %rcx
 1693 0d23 488D85A0 		leaq	-608(%rbp), %rax
 1693      FDFFFF
 1694 0d2a BA540000 		movl	$84, %edx
 1694      00
 1695 0d2f 4889CE   		movq	%rcx, %rsi
 1696 0d32 4889C7   		movq	%rax, %rdi
 1697 0d35 E8000000 		call	_ZN8UnitTest11TestDetailsC1ERKS0_i
 1697      00
 1698              	.LEHE74:
 1699              		.loc 4 84 0 discriminator 2
 1700 0d3a C78570FD 		movl	$9, -656(%rbp)
 1700      FFFF0900 
 1700      0000
 1701              	.LEHB75:
 1702 0d44 E8000000 		call	_ZN8UnitTest11CurrentTest7ResultsEv
 1702      00
 1703 0d49 488B00   		movq	(%rax), %rax
 1704 0d4c 488D8DA0 		leaq	-608(%rbp), %rcx
 1704      FDFFFF
 1705 0d53 488D9560 		leaq	-672(%rbp), %rdx
 1705      FDFFFF
 1706 0d5a 488DB570 		leaq	-656(%rbp), %rsi
 1706      FDFFFF
 1707 0d61 4889C7   		movq	%rax, %rdi
 1708 0d64 E8000000 		call	_ZN8UnitTest10CheckEqualIilEEvRNS_11TestResultsERKT_RKT0_RKNS_11TestDetailsE
 1708      00
 1709              	.LEHE75:
 1710              	.L118:
  85:testBinIO.cpp **** 	file.seekg(0, ios::beg);
 1711              		.loc 4 85 0 is_stmt 1
 1712 0d69 488D85E0 		leaq	-544(%rbp), %rax
 1712      FDFFFF
 1713 0d70 BA000000 		movl	$0, %edx
 1713      00
 1714 0d75 BE000000 		movl	$0, %esi
 1714      00
 1715 0d7a 4889C7   		movq	%rax, %rdi
 1716              	.LEHB76:
 1717 0d7d E8000000 		call	_ZNSi5seekgElSt12_Ios_Seekdir
 1717      00
  86:testBinIO.cpp **** 	file.read(fileData, (streamsize)length);
 1718              		.loc 4 86 0
 1719 0d82 488B9560 		movq	-672(%rbp), %rdx
 1719      FDFFFF
 1720 0d89 488B8D68 		movq	-664(%rbp), %rcx
 1720      FDFFFF
 1721 0d90 488D85E0 		leaq	-544(%rbp), %rax
 1721      FDFFFF
 1722 0d97 4889CE   		movq	%rcx, %rsi
 1723 0d9a 4889C7   		movq	%rax, %rdi
 1724 0d9d E8000000 		call	_ZNSi4readEPcl
 1724      00
  87:testBinIO.cpp **** 	file.close();
 1725              		.loc 4 87 0
 1726 0da2 488D85E0 		leaq	-544(%rbp), %rax
 1726      FDFFFF
 1727 0da9 4889C7   		movq	%rax, %rdi
 1728 0dac E8000000 		call	_ZNSt14basic_ifstreamIcSt11char_traitsIcEE5closeEv
 1728      00
 1729              	.LEHE76:
 1730              	.LEHB77:
  88:testBinIO.cpp **** 	CHECK_ARRAY_EQUAL(DATA+5, fileData, (int)length);
 1731              		.loc 4 88 0
 1732 0db1 E8000000 		call	_ZN8UnitTest11CurrentTest7DetailsEv
 1732      00
 1733 0db6 488B08   		movq	(%rax), %rcx
 1734 0db9 488D85A0 		leaq	-608(%rbp), %rax
 1734      FDFFFF
 1735 0dc0 BA580000 		movl	$88, %edx
 1735      00
 1736 0dc5 4889CE   		movq	%rcx, %rsi
 1737 0dc8 4889C7   		movq	%rax, %rdi
 1738 0dcb E8000000 		call	_ZN8UnitTest11TestDetailsC1ERKS0_i
 1738      00
 1739              	.LEHE77:
 1740              		.loc 4 88 0 is_stmt 0 discriminator 2
 1741 0dd0 488B8560 		movq	-672(%rbp), %rax
 1741      FDFFFF
 1742 0dd7 89C3     		movl	%eax, %ebx
 1743 0dd9 488B8558 		movq	-680(%rbp), %rax
 1743      FDFFFF
 1744 0de0 4883C005 		addq	$5, %rax
 1745 0de4 48898570 		movq	%rax, -656(%rbp)
 1745      FDFFFF
 1746              	.LEHB78:
 1747 0deb E8000000 		call	_ZN8UnitTest11CurrentTest7ResultsEv
 1747      00
 1748 0df0 488B00   		movq	(%rax), %rax
 1749 0df3 488D8DA0 		leaq	-608(%rbp), %rcx
 1749      FDFFFF
 1750 0dfa 488D9568 		leaq	-664(%rbp), %rdx
 1750      FDFFFF
 1751 0e01 488DB570 		leaq	-656(%rbp), %rsi
 1751      FDFFFF
 1752 0e08 4989C8   		movq	%rcx, %r8
 1753 0e0b 89D9     		movl	%ebx, %ecx
 1754 0e0d 4889C7   		movq	%rax, %rdi
 1755 0e10 E8000000 		call	_ZN8UnitTest15CheckArrayEqualIPKcPcEEvRNS_11TestResultsERKT_RKT0_iRKNS_11TestDetailsE
 1755      00
 1756              	.LEHE78:
 1757              	.L122:
  89:testBinIO.cpp **** 
  90:testBinIO.cpp **** 	delete[] fileData;
 1758              		.loc 4 90 0 is_stmt 1
 1759 0e15 488B8568 		movq	-664(%rbp), %rax
 1759      FDFFFF
 1760 0e1c 4885C0   		testq	%rax, %rax
 1761 0e1f 740F     		je	.L87
 1762              		.loc 4 90 0 is_stmt 0 discriminator 1
 1763 0e21 488B8568 		movq	-664(%rbp), %rax
 1763      FDFFFF
 1764 0e28 4889C7   		movq	%rax, %rdi
 1765 0e2b E8000000 		call	_ZdaPv
 1765      00
 1766              	.L87:
  91:testBinIO.cpp **** 	bufDestroy(&buf);
 1767              		.loc 4 91 0 is_stmt 1
 1768 0e30 488D8580 		leaq	-640(%rbp), %rax
 1768      FDFFFF
 1769 0e37 4889C7   		movq	%rax, %rdi
 1770              	.LEHB79:
 1771 0e3a E8000000 		call	bufDestroy
 1771      00
 1772              	.LEHE79:
  57:testBinIO.cpp **** 	streamoff length;
 1773              		.loc 4 57 0
 1774 0e3f 488D85E0 		leaq	-544(%rbp), %rax
 1774      FDFFFF
 1775 0e46 4889C7   		movq	%rax, %rdi
 1776              	.LEHB80:
 1777 0e49 E8000000 		call	_ZNSt14basic_ifstreamIcSt11char_traitsIcEED1Ev
 1777      00
 1778              	.LEHE80:
  92:testBinIO.cpp **** }
 1779              		.loc 4 92 0
 1780 0e4e 90       		nop
 1781 0e4f 488B45E8 		movq	-24(%rbp), %rax
 1782 0e53 64483304 		xorq	%fs:40, %rax
 1782      25280000 
 1782      00
 1783 0e5c 0F84D103 		je	.L124
 1783      0000
 1784 0e62 E9C70300 		jmp	.L153
 1784      00
 1785              	.L127:
 1786 0e67 EB00     		jmp	.L89
 1787              	.L126:
 1788              	.L89:
  63:testBinIO.cpp **** 	status = bufAppendBlock(&buf, (const uint8 *)DATA, strlen(DATA), NULL);
 1789              		.loc 4 63 0
 1790 0e69 4889C7   		movq	%rax, %rdi
 1791 0e6c E8000000 		call	__cxa_begin_catch
 1791      00
 1792              	.LEHB81:
 1793 0e71 E8000000 		call	_ZN8UnitTest11CurrentTest7DetailsEv
 1793      00
 1794 0e76 488B08   		movq	(%rax), %rcx
 1795 0e79 488D85A0 		leaq	-608(%rbp), %rax
 1795      FDFFFF
 1796 0e80 BA3F0000 		movl	$63, %edx
 1796      00
 1797 0e85 4889CE   		movq	%rcx, %rsi
 1798 0e88 4889C7   		movq	%rax, %rdi
 1799 0e8b E8000000 		call	_ZN8UnitTest11TestDetailsC1ERKS0_i
 1799      00
  63:testBinIO.cpp **** 	status = bufAppendBlock(&buf, (const uint8 *)DATA, strlen(DATA), NULL);
 1800              		.loc 4 63 0 is_stmt 0 discriminator 10
 1801 0e90 E8000000 		call	_ZN8UnitTest11CurrentTest7ResultsEv
 1801      00
 1802 0e95 488B00   		movq	(%rax), %rax
 1803 0e98 488D8DA0 		leaq	-608(%rbp), %rcx
 1803      FDFFFF
 1804 0e9f BA000000 		movl	$.LC4, %edx
 1804      00
 1805 0ea4 4889CE   		movq	%rcx, %rsi
 1806 0ea7 4889C7   		movq	%rax, %rdi
 1807 0eaa E8000000 		call	_ZN8UnitTest11TestResults13OnTestFailureERKNS_11TestDetailsEPKc
 1807      00
 1808              	.LEHE81:
 1809              	.LEHB82:
  63:testBinIO.cpp **** 	status = bufAppendBlock(&buf, (const uint8 *)DATA, strlen(DATA), NULL);
 1810              		.loc 4 63 0 discriminator 14
 1811 0eaf E8000000 		call	__cxa_end_catch
 1811      00
 1812              	.LEHE82:
  63:testBinIO.cpp **** 	status = bufAppendBlock(&buf, (const uint8 *)DATA, strlen(DATA), NULL);
 1813              		.loc 4 63 0
 1814 0eb4 E940FAFF 		jmp	.L90
 1814      FF
 1815              	.L128:
 1816 0eb9 4889C3   		movq	%rax, %rbx
 1817 0ebc E8000000 		call	__cxa_end_catch
 1817      00
 1818 0ec1 E94E0300 		jmp	.L92
 1818      00
 1819              	.L130:
 1820 0ec6 EB00     		jmp	.L94
 1821              	.L129:
 1822              	.L94:
  65:testBinIO.cpp **** 
 1823              		.loc 4 65 0 is_stmt 1
 1824 0ec8 4889C7   		movq	%rax, %rdi
 1825 0ecb E8000000 		call	__cxa_begin_catch
 1825      00
 1826              	.LEHB83:
 1827 0ed0 E8000000 		call	_ZN8UnitTest11CurrentTest7DetailsEv
 1827      00
 1828 0ed5 488B08   		movq	(%rax), %rcx
 1829 0ed8 488D85A0 		leaq	-608(%rbp), %rax
 1829      FDFFFF
 1830 0edf BA410000 		movl	$65, %edx
 1830      00
 1831 0ee4 4889CE   		movq	%rcx, %rsi
 1832 0ee7 4889C7   		movq	%rax, %rdi
 1833 0eea E8000000 		call	_ZN8UnitTest11TestDetailsC1ERKS0_i
 1833      00
  65:testBinIO.cpp **** 
 1834              		.loc 4 65 0 is_stmt 0 discriminator 10
 1835 0eef E8000000 		call	_ZN8UnitTest11CurrentTest7ResultsEv
 1835      00
 1836 0ef4 488B00   		movq	(%rax), %rax
 1837 0ef7 488D8DA0 		leaq	-608(%rbp), %rcx
 1837      FDFFFF
 1838 0efe BA000000 		movl	$.LC4, %edx
 1838      00
 1839 0f03 4889CE   		movq	%rcx, %rsi
 1840 0f06 4889C7   		movq	%rax, %rdi
 1841 0f09 E8000000 		call	_ZN8UnitTest11TestResults13OnTestFailureERKNS_11TestDetailsEPKc
 1841      00
 1842              	.LEHE83:
 1843              	.LEHB84:
  65:testBinIO.cpp **** 
 1844              		.loc 4 65 0 discriminator 14
 1845 0f0e E8000000 		call	__cxa_end_catch
 1845      00
 1846              	.LEHE84:
  65:testBinIO.cpp **** 
 1847              		.loc 4 65 0
 1848 0f13 E962FAFF 		jmp	.L95
 1848      FF
 1849              	.L131:
 1850 0f18 4889C3   		movq	%rax, %rbx
 1851 0f1b E8000000 		call	__cxa_end_catch
 1851      00
 1852 0f20 E9EF0200 		jmp	.L92
 1852      00
 1853              	.L133:
 1854 0f25 EB00     		jmp	.L98
 1855              	.L132:
 1856              	.L98:
  68:testBinIO.cpp **** 	file.open(FILENAME, ios::in|ios::binary|ios::ate);
 1857              		.loc 4 68 0 is_stmt 1
 1858 0f27 4889C7   		movq	%rax, %rdi
 1859 0f2a E8000000 		call	__cxa_begin_catch
 1859      00
 1860              	.LEHB85:
 1861 0f2f E8000000 		call	_ZN8UnitTest11CurrentTest7DetailsEv
 1861      00
 1862 0f34 488B08   		movq	(%rax), %rcx
 1863 0f37 488D85A0 		leaq	-608(%rbp), %rax
 1863      FDFFFF
 1864 0f3e BA440000 		movl	$68, %edx
 1864      00
 1865 0f43 4889CE   		movq	%rcx, %rsi
 1866 0f46 4889C7   		movq	%rax, %rdi
 1867 0f49 E8000000 		call	_ZN8UnitTest11TestDetailsC1ERKS0_i
 1867      00
  68:testBinIO.cpp **** 	file.open(FILENAME, ios::in|ios::binary|ios::ate);
 1868              		.loc 4 68 0 is_stmt 0 discriminator 10
 1869 0f4e E8000000 		call	_ZN8UnitTest11CurrentTest7ResultsEv
 1869      00
 1870 0f53 488B00   		movq	(%rax), %rax
 1871 0f56 488D8DA0 		leaq	-608(%rbp), %rcx
 1871      FDFFFF
 1872 0f5d BA000000 		movl	$.LC4, %edx
 1872      00
 1873 0f62 4889CE   		movq	%rcx, %rsi
 1874 0f65 4889C7   		movq	%rax, %rdi
 1875 0f68 E8000000 		call	_ZN8UnitTest11TestResults13OnTestFailureERKNS_11TestDetailsEPKc
 1875      00
 1876              	.LEHE85:
 1877              	.LEHB86:
  68:testBinIO.cpp **** 	file.open(FILENAME, ios::in|ios::binary|ios::ate);
 1878              		.loc 4 68 0 discriminator 14
 1879 0f6d E8000000 		call	__cxa_end_catch
 1879      00
 1880              	.LEHE86:
  68:testBinIO.cpp **** 	file.open(FILENAME, ios::in|ios::binary|ios::ate);
 1881              		.loc 4 68 0
 1882 0f72 E982FAFF 		jmp	.L99
 1882      FF
 1883              	.L134:
 1884 0f77 4889C3   		movq	%rax, %rbx
 1885 0f7a E8000000 		call	__cxa_end_catch
 1885      00
 1886 0f7f E9900200 		jmp	.L92
 1886      00
 1887              	.L135:
  70:testBinIO.cpp **** 	length = file.tellg();
 1888              		.loc 4 70 0 is_stmt 1
 1889 0f84 4889C7   		movq	%rax, %rdi
 1890 0f87 E8000000 		call	__cxa_begin_catch
 1890      00
 1891              	.LEHB87:
 1892 0f8c E8000000 		call	_ZN8UnitTest11CurrentTest7DetailsEv
 1892      00
 1893 0f91 488B08   		movq	(%rax), %rcx
 1894 0f94 488D85A0 		leaq	-608(%rbp), %rax
 1894      FDFFFF
 1895 0f9b BA460000 		movl	$70, %edx
 1895      00
 1896 0fa0 4889CE   		movq	%rcx, %rsi
 1897 0fa3 4889C7   		movq	%rax, %rdi
 1898 0fa6 E8000000 		call	_ZN8UnitTest11TestDetailsC1ERKS0_i
 1898      00
  70:testBinIO.cpp **** 	length = file.tellg();
 1899              		.loc 4 70 0 is_stmt 0 discriminator 12
 1900 0fab E8000000 		call	_ZN8UnitTest11CurrentTest7ResultsEv
 1900      00
 1901 0fb0 488B00   		movq	(%rax), %rax
 1902 0fb3 488D8DA0 		leaq	-608(%rbp), %rcx
 1902      FDFFFF
 1903 0fba BA000000 		movl	$.LC15, %edx
 1903      00
 1904 0fbf 4889CE   		movq	%rcx, %rsi
 1905 0fc2 4889C7   		movq	%rax, %rdi
 1906 0fc5 E8000000 		call	_ZN8UnitTest11TestResults13OnTestFailureERKNS_11TestDetailsEPKc
 1906      00
 1907              	.LEHE87:
 1908              	.LEHB88:
  70:testBinIO.cpp **** 	length = file.tellg();
 1909              		.loc 4 70 0 discriminator 16
 1910 0fca E8000000 		call	__cxa_end_catch
 1910      00
 1911              	.LEHE88:
  70:testBinIO.cpp **** 	length = file.tellg();
 1912              		.loc 4 70 0
 1913 0fcf E9B9FAFF 		jmp	.L85
 1913      FF
 1914              	.L136:
 1915 0fd4 4889C3   		movq	%rax, %rbx
 1916 0fd7 E8000000 		call	__cxa_end_catch
 1916      00
 1917 0fdc E9330200 		jmp	.L92
 1917      00
 1918              	.L138:
 1919 0fe1 EB00     		jmp	.L104
 1920              	.L137:
 1921              	.L104:
  72:testBinIO.cpp **** 	fileData = new char[(unsigned int)length];
 1922              		.loc 4 72 0 is_stmt 1
 1923 0fe3 4889C7   		movq	%rax, %rdi
 1924 0fe6 E8000000 		call	__cxa_begin_catch
 1924      00
 1925              	.LEHB89:
 1926 0feb E8000000 		call	_ZN8UnitTest11CurrentTest7DetailsEv
 1926      00
 1927 0ff0 488B08   		movq	(%rax), %rcx
 1928 0ff3 488D85A0 		leaq	-608(%rbp), %rax
 1928      FDFFFF
 1929 0ffa BA480000 		movl	$72, %edx
 1929      00
 1930 0fff 4889CE   		movq	%rcx, %rsi
 1931 1002 4889C7   		movq	%rax, %rdi
 1932 1005 E8000000 		call	_ZN8UnitTest11TestDetailsC1ERKS0_i
 1932      00
  72:testBinIO.cpp **** 	fileData = new char[(unsigned int)length];
 1933              		.loc 4 72 0 is_stmt 0 discriminator 10
 1934 100a E8000000 		call	_ZN8UnitTest11CurrentTest7ResultsEv
 1934      00
 1935 100f 488B00   		movq	(%rax), %rax
 1936 1012 488D8DA0 		leaq	-608(%rbp), %rcx
 1936      FDFFFF
 1937 1019 BA000000 		movl	$.LC16, %edx
 1937      00
 1938 101e 4889CE   		movq	%rcx, %rsi
 1939 1021 4889C7   		movq	%rax, %rdi
 1940 1024 E8000000 		call	_ZN8UnitTest11TestResults13OnTestFailureERKNS_11TestDetailsEPKc
 1940      00
 1941              	.LEHE89:
 1942              	.LEHB90:
  72:testBinIO.cpp **** 	fileData = new char[(unsigned int)length];
 1943              		.loc 4 72 0 discriminator 14
 1944 1029 E8000000 		call	__cxa_end_catch
 1944      00
 1945              	.LEHE90:
  72:testBinIO.cpp **** 	fileData = new char[(unsigned int)length];
 1946              		.loc 4 72 0
 1947 102e E9F5FAFF 		jmp	.L105
 1947      FF
 1948              	.L139:
 1949 1033 4889C3   		movq	%rax, %rbx
 1950 1036 E8000000 		call	__cxa_end_catch
 1950      00
 1951 103b E9D40100 		jmp	.L92
 1951      00
 1952              	.L140:
  77:testBinIO.cpp **** 
 1953              		.loc 4 77 0 is_stmt 1
 1954 1040 4889C7   		movq	%rax, %rdi
 1955 1043 E8000000 		call	__cxa_begin_catch
 1955      00
 1956              	.LEHB91:
 1957 1048 E8000000 		call	_ZN8UnitTest11CurrentTest7DetailsEv
 1957      00
 1958 104d 488B08   		movq	(%rax), %rcx
 1959 1050 488D85A0 		leaq	-608(%rbp), %rax
 1959      FDFFFF
 1960 1057 BA4D0000 		movl	$77, %edx
 1960      00
 1961 105c 4889CE   		movq	%rcx, %rsi
 1962 105f 4889C7   		movq	%rax, %rdi
 1963 1062 E8000000 		call	_ZN8UnitTest11TestDetailsC1ERKS0_i
 1963      00
  77:testBinIO.cpp **** 
 1964              		.loc 4 77 0 is_stmt 0 discriminator 10
 1965 1067 E8000000 		call	_ZN8UnitTest11CurrentTest7ResultsEv
 1965      00
 1966 106c 488B00   		movq	(%rax), %rax
 1967 106f 488D8DA0 		leaq	-608(%rbp), %rcx
 1967      FDFFFF
 1968 1076 BA000000 		movl	$.LC17, %edx
 1968      00
 1969 107b 4889CE   		movq	%rcx, %rsi
 1970 107e 4889C7   		movq	%rax, %rdi
 1971 1081 E8000000 		call	_ZN8UnitTest11TestResults13OnTestFailureERKNS_11TestDetailsEPKc
 1971      00
 1972              	.LEHE91:
 1973              	.LEHB92:
  77:testBinIO.cpp **** 
 1974              		.loc 4 77 0 discriminator 14
 1975 1086 E8000000 		call	__cxa_end_catch
 1975      00
 1976              	.LEHE92:
  77:testBinIO.cpp **** 
 1977              		.loc 4 77 0
 1978 108b E94AFBFF 		jmp	.L108
 1978      FF
 1979              	.L141:
 1980 1090 4889C3   		movq	%rax, %rbx
 1981 1093 E8000000 		call	__cxa_end_catch
 1981      00
 1982 1098 E9770100 		jmp	.L92
 1982      00
 1983              	.L143:
 1984 109d EB00     		jmp	.L111
 1985              	.L142:
 1986              	.L111:
  80:testBinIO.cpp **** 	file.open(FILENAME, ios::in|ios::binary|ios::ate);
 1987              		.loc 4 80 0 is_stmt 1
 1988 109f 4889C7   		movq	%rax, %rdi
 1989 10a2 E8000000 		call	__cxa_begin_catch
 1989      00
 1990              	.LEHB93:
 1991 10a7 E8000000 		call	_ZN8UnitTest11CurrentTest7DetailsEv
 1991      00
 1992 10ac 488B08   		movq	(%rax), %rcx
 1993 10af 488D85A0 		leaq	-608(%rbp), %rax
 1993      FDFFFF
 1994 10b6 BA500000 		movl	$80, %edx
 1994      00
 1995 10bb 4889CE   		movq	%rcx, %rsi
 1996 10be 4889C7   		movq	%rax, %rdi
 1997 10c1 E8000000 		call	_ZN8UnitTest11TestDetailsC1ERKS0_i
 1997      00
  80:testBinIO.cpp **** 	file.open(FILENAME, ios::in|ios::binary|ios::ate);
 1998              		.loc 4 80 0 is_stmt 0 discriminator 10
 1999 10c6 E8000000 		call	_ZN8UnitTest11CurrentTest7ResultsEv
 1999      00
 2000 10cb 488B00   		movq	(%rax), %rax
 2001 10ce 488D8DA0 		leaq	-608(%rbp), %rcx
 2001      FDFFFF
 2002 10d5 BA000000 		movl	$.LC4, %edx
 2002      00
 2003 10da 4889CE   		movq	%rcx, %rsi
 2004 10dd 4889C7   		movq	%rax, %rdi
 2005 10e0 E8000000 		call	_ZN8UnitTest11TestResults13OnTestFailureERKNS_11TestDetailsEPKc
 2005      00
 2006              	.LEHE93:
 2007              	.LEHB94:
  80:testBinIO.cpp **** 	file.open(FILENAME, ios::in|ios::binary|ios::ate);
 2008              		.loc 4 80 0 discriminator 14
 2009 10e5 E8000000 		call	__cxa_end_catch
 2009      00
 2010              	.LEHE94:
  80:testBinIO.cpp **** 	file.open(FILENAME, ios::in|ios::binary|ios::ate);
 2011              		.loc 4 80 0
 2012 10ea E965FBFF 		jmp	.L112
 2012      FF
 2013              	.L144:
 2014 10ef 4889C3   		movq	%rax, %rbx
 2015 10f2 E8000000 		call	__cxa_end_catch
 2015      00
 2016 10f7 E9180100 		jmp	.L92
 2016      00
 2017              	.L145:
  82:testBinIO.cpp **** 	length = file.tellg();
 2018              		.loc 4 82 0 is_stmt 1
 2019 10fc 4889C7   		movq	%rax, %rdi
 2020 10ff E8000000 		call	__cxa_begin_catch
 2020      00
 2021              	.LEHB95:
 2022 1104 E8000000 		call	_ZN8UnitTest11CurrentTest7DetailsEv
 2022      00
 2023 1109 488B08   		movq	(%rax), %rcx
 2024 110c 488D85A0 		leaq	-608(%rbp), %rax
 2024      FDFFFF
 2025 1113 BA520000 		movl	$82, %edx
 2025      00
 2026 1118 4889CE   		movq	%rcx, %rsi
 2027 111b 4889C7   		movq	%rax, %rdi
 2028 111e E8000000 		call	_ZN8UnitTest11TestDetailsC1ERKS0_i
 2028      00
  82:testBinIO.cpp **** 	length = file.tellg();
 2029              		.loc 4 82 0 is_stmt 0 discriminator 12
 2030 1123 E8000000 		call	_ZN8UnitTest11CurrentTest7ResultsEv
 2030      00
 2031 1128 488B00   		movq	(%rax), %rax
 2032 112b 488D8DA0 		leaq	-608(%rbp), %rcx
 2032      FDFFFF
 2033 1132 BA000000 		movl	$.LC15, %edx
 2033      00
 2034 1137 4889CE   		movq	%rcx, %rsi
 2035 113a 4889C7   		movq	%rax, %rdi
 2036 113d E8000000 		call	_ZN8UnitTest11TestResults13OnTestFailureERKNS_11TestDetailsEPKc
 2036      00
 2037              	.LEHE95:
 2038              	.LEHB96:
  82:testBinIO.cpp **** 	length = file.tellg();
 2039              		.loc 4 82 0 discriminator 16
 2040 1142 E8000000 		call	__cxa_end_catch
 2040      00
 2041              	.LEHE96:
  82:testBinIO.cpp **** 	length = file.tellg();
 2042              		.loc 4 82 0
 2043 1147 E99CFBFF 		jmp	.L86
 2043      FF
 2044              	.L146:
 2045 114c 4889C3   		movq	%rax, %rbx
 2046 114f E8000000 		call	__cxa_end_catch
 2046      00
 2047 1154 E9BB0000 		jmp	.L92
 2047      00
 2048              	.L148:
 2049 1159 EB00     		jmp	.L117
 2050              	.L147:
 2051              	.L117:
  84:testBinIO.cpp **** 	file.seekg(0, ios::beg);
 2052              		.loc 4 84 0 is_stmt 1
 2053 115b 4889C7   		movq	%rax, %rdi
 2054 115e E8000000 		call	__cxa_begin_catch
 2054      00
 2055              	.LEHB97:
 2056 1163 E8000000 		call	_ZN8UnitTest11CurrentTest7DetailsEv
 2056      00
 2057 1168 488B08   		movq	(%rax), %rcx
 2058 116b 488D85A0 		leaq	-608(%rbp), %rax
 2058      FDFFFF
 2059 1172 BA540000 		movl	$84, %edx
 2059      00
 2060 1177 4889CE   		movq	%rcx, %rsi
 2061 117a 4889C7   		movq	%rax, %rdi
 2062 117d E8000000 		call	_ZN8UnitTest11TestDetailsC1ERKS0_i
 2062      00
  84:testBinIO.cpp **** 	file.seekg(0, ios::beg);
 2063              		.loc 4 84 0 is_stmt 0 discriminator 10
 2064 1182 E8000000 		call	_ZN8UnitTest11CurrentTest7ResultsEv
 2064      00
 2065 1187 488B00   		movq	(%rax), %rax
 2066 118a 488D8DA0 		leaq	-608(%rbp), %rcx
 2066      FDFFFF
 2067 1191 BA000000 		movl	$.LC18, %edx
 2067      00
 2068 1196 4889CE   		movq	%rcx, %rsi
 2069 1199 4889C7   		movq	%rax, %rdi
 2070 119c E8000000 		call	_ZN8UnitTest11TestResults13OnTestFailureERKNS_11TestDetailsEPKc
 2070      00
 2071              	.LEHE97:
 2072              	.LEHB98:
  84:testBinIO.cpp **** 	file.seekg(0, ios::beg);
 2073              		.loc 4 84 0 discriminator 14
 2074 11a1 E8000000 		call	__cxa_end_catch
 2074      00
 2075              	.LEHE98:
  84:testBinIO.cpp **** 	file.seekg(0, ios::beg);
 2076              		.loc 4 84 0
 2077 11a6 E9BEFBFF 		jmp	.L118
 2077      FF
 2078              	.L149:
 2079 11ab 4889C3   		movq	%rax, %rbx
 2080 11ae E8000000 		call	__cxa_end_catch
 2080      00
 2081 11b3 EB5F     		jmp	.L92
 2082              	.L151:
 2083 11b5 EB00     		jmp	.L121
 2084              	.L150:
 2085              	.L121:
  88:testBinIO.cpp **** 
 2086              		.loc 4 88 0 is_stmt 1
 2087 11b7 4889C7   		movq	%rax, %rdi
 2088 11ba E8000000 		call	__cxa_begin_catch
 2088      00
 2089              	.LEHB99:
 2090 11bf E8000000 		call	_ZN8UnitTest11CurrentTest7DetailsEv
 2090      00
 2091 11c4 488B08   		movq	(%rax), %rcx
 2092 11c7 488D85A0 		leaq	-608(%rbp), %rax
 2092      FDFFFF
 2093 11ce BA580000 		movl	$88, %edx
 2093      00
 2094 11d3 4889CE   		movq	%rcx, %rsi
 2095 11d6 4889C7   		movq	%rax, %rdi
 2096 11d9 E8000000 		call	_ZN8UnitTest11TestDetailsC1ERKS0_i
 2096      00
  88:testBinIO.cpp **** 
 2097              		.loc 4 88 0 is_stmt 0 discriminator 10
 2098 11de E8000000 		call	_ZN8UnitTest11CurrentTest7ResultsEv
 2098      00
 2099 11e3 488B00   		movq	(%rax), %rax
 2100 11e6 488D8DA0 		leaq	-608(%rbp), %rcx
 2100      FDFFFF
 2101 11ed BA000000 		movl	$.LC19, %edx
 2101      00
 2102 11f2 4889CE   		movq	%rcx, %rsi
 2103 11f5 4889C7   		movq	%rax, %rdi
 2104 11f8 E8000000 		call	_ZN8UnitTest11TestResults13OnTestFailureERKNS_11TestDetailsEPKc
 2104      00
 2105              	.LEHE99:
 2106              	.LEHB100:
  88:testBinIO.cpp **** 
 2107              		.loc 4 88 0 discriminator 14
 2108 11fd E8000000 		call	__cxa_end_catch
 2108      00
 2109              	.LEHE100:
  88:testBinIO.cpp **** 
 2110              		.loc 4 88 0
 2111 1202 E90EFCFF 		jmp	.L122
 2111      FF
 2112              	.L152:
 2113 1207 4889C3   		movq	%rax, %rbx
 2114 120a E8000000 		call	__cxa_end_catch
 2114      00
 2115 120f EB03     		jmp	.L92
 2116              	.L125:
 2117 1211 4889C3   		movq	%rax, %rbx
 2118              	.L92:
  57:testBinIO.cpp **** 	streamoff length;
 2119              		.loc 4 57 0 is_stmt 1
 2120 1214 488D85E0 		leaq	-544(%rbp), %rax
 2120      FDFFFF
 2121 121b 4889C7   		movq	%rax, %rdi
 2122 121e E8000000 		call	_ZNSt14basic_ifstreamIcSt11char_traitsIcEED1Ev
 2122      00
 2123 1223 4889D8   		movq	%rbx, %rax
 2124 1226 4889C7   		movq	%rax, %rdi
 2125              	.LEHB101:
 2126 1229 E8000000 		call	_Unwind_Resume
 2126      00
 2127              	.LEHE101:
 2128              	.L153:
 2129              		.loc 4 92 0
 2130 122e E8000000 		call	__stack_chk_fail
 2130      00
 2131              	.L124:
 2132 1233 4881C4B8 		addq	$696, %rsp
 2132      020000
 2133 123a 5B       		popq	%rbx
 2134 123b 5D       		popq	%rbp
 2135              		.cfi_def_cfa 7, 8
 2136 123c C3       		ret
 2137              		.cfi_endproc
 2138              	.LFE1148:
 2139              		.section	.gcc_except_table
 2140              		.align 4
 2141              	.LLSDA1148:
 2142 0128 FF       		.byte	0xff
 2143 0129 03       		.byte	0x3
 2144 012a B802     		.uleb128 .LLSDATT1148-.LLSDATTD1148
 2145              	.LLSDATTD1148:
 2146 012c 01       		.byte	0x1
 2147 012d AC02     		.uleb128 .LLSDACSE1148-.LLSDACSB1148
 2148              	.LLSDACSB1148:
 2149 012f 42       		.uleb128 .LEHB51-.LFB1148
 2150 0130 05       		.uleb128 .LEHE51-.LEHB51
 2151 0131 00       		.uleb128 0
 2152 0132 00       		.uleb128 0
 2153 0133 60       		.uleb128 .LEHB52-.LFB1148
 2154 0134 05       		.uleb128 .LEHE52-.LEHB52
 2155 0135 D113     		.uleb128 .L125-.LFB1148
 2156 0137 00       		.uleb128 0
 2157 0138 6B       		.uleb128 .LEHB53-.LFB1148
 2158 0139 1F       		.uleb128 .LEHE53-.LEHB53
 2159 013a A90C     		.uleb128 .L126-.LFB1148
 2160 013c 01       		.uleb128 0x1
 2161 013d 9401     		.uleb128 .LEHB54-.LFB1148
 2162 013f 25       		.uleb128 .LEHE54-.LEHB54
 2163 0140 A70C     		.uleb128 .L127-.LFB1148
 2164 0142 01       		.uleb128 0x1
 2165 0143 E101     		.uleb128 .LEHB55-.LFB1148
 2166 0145 05       		.uleb128 .LEHE55-.LEHB55
 2167 0146 D113     		.uleb128 .L125-.LFB1148
 2168 0148 00       		.uleb128 0
 2169 0149 EC01     		.uleb128 .LEHB56-.LFB1148
 2170 014b 1F       		.uleb128 .LEHE56-.LEHB56
 2171 014c 880D     		.uleb128 .L129-.LFB1148
 2172 014e 01       		.uleb128 0x1
 2173 014f 9502     		.uleb128 .LEHB57-.LFB1148
 2174 0151 25       		.uleb128 .LEHE57-.LEHB57
 2175 0152 860D     		.uleb128 .L130-.LFB1148
 2176 0154 01       		.uleb128 0x1
 2177 0155 E002     		.uleb128 .LEHB58-.LFB1148
 2178 0157 05       		.uleb128 .LEHE58-.LEHB58
 2179 0158 D113     		.uleb128 .L125-.LFB1148
 2180 015a 00       		.uleb128 0
 2181 015b EB02     		.uleb128 .LEHB59-.LFB1148
 2182 015d 1F       		.uleb128 .LEHE59-.LEHB59
 2183 015e E70D     		.uleb128 .L132-.LFB1148
 2184 0160 01       		.uleb128 0x1
 2185 0161 9403     		.uleb128 .LEHB60-.LFB1148
 2186 0163 25       		.uleb128 .LEHE60-.LEHB60
 2187 0164 E50D     		.uleb128 .L133-.LFB1148
 2188 0166 01       		.uleb128 0x1
 2189 0167 EA03     		.uleb128 .LEHB61-.LFB1148
 2190 0169 05       		.uleb128 .LEHE61-.LEHB61
 2191 016a D113     		.uleb128 .L125-.LFB1148
 2192 016c 00       		.uleb128 0
 2193 016d F903     		.uleb128 .LEHB62-.LFB1148
 2194 016f 54       		.uleb128 .LEHE62-.LEHB62
 2195 0170 C40E     		.uleb128 .L135-.LFB1148
 2196 0172 01       		.uleb128 0x1
 2197 0173 D704     		.uleb128 .LEHB63-.LFB1148
 2198 0175 05       		.uleb128 .LEHE63-.LEHB63
 2199 0176 D113     		.uleb128 .L125-.LFB1148
 2200 0178 00       		.uleb128 0
 2201 0179 8005     		.uleb128 .LEHB64-.LFB1148
 2202 017b 1F       		.uleb128 .LEHE64-.LEHB64
 2203 017c A30F     		.uleb128 .L137-.LFB1148
 2204 017e 01       		.uleb128 0x1
 2205 017f C305     		.uleb128 .LEHB65-.LFB1148
 2206 0181 25       		.uleb128 .LEHE65-.LEHB65
 2207 0182 A10F     		.uleb128 .L138-.LFB1148
 2208 0184 01       		.uleb128 0x1
 2209 0185 F405     		.uleb128 .LEHB66-.LFB1148
 2210 0187 54       		.uleb128 .LEHE66-.LEHB66
 2211 0188 D113     		.uleb128 .L125-.LFB1148
 2212 018a 00       		.uleb128 0
 2213 018b C806     		.uleb128 .LEHB67-.LFB1148
 2214 018d 52       		.uleb128 .LEHE67-.LEHB67
 2215 018e 8010     		.uleb128 .L140-.LFB1148
 2216 0190 01       		.uleb128 0x1
 2217 0191 BB07     		.uleb128 .LEHB68-.LFB1148
 2218 0193 05       		.uleb128 .LEHE68-.LEHB68
 2219 0194 D113     		.uleb128 .L125-.LFB1148
 2220 0196 00       		.uleb128 0
 2221 0197 C607     		.uleb128 .LEHB69-.LFB1148
 2222 0199 1F       		.uleb128 .LEHE69-.LEHB69
 2223 019a DF10     		.uleb128 .L142-.LFB1148
 2224 019c 01       		.uleb128 0x1
 2225 019d EF07     		.uleb128 .LEHB70-.LFB1148
 2226 019f 25       		.uleb128 .LEHE70-.LEHB70
 2227 01a0 DD10     		.uleb128 .L143-.LFB1148
 2228 01a2 01       		.uleb128 0x1
 2229 01a3 C508     		.uleb128 .LEHB71-.LFB1148
 2230 01a5 05       		.uleb128 .LEHE71-.LEHB71
 2231 01a6 D113     		.uleb128 .L125-.LFB1148
 2232 01a8 00       		.uleb128 0
 2233 01a9 D408     		.uleb128 .LEHB72-.LFB1148
 2234 01ab 54       		.uleb128 .LEHE72-.LEHB72
 2235 01ac BC11     		.uleb128 .L145-.LFB1148
 2236 01ae 01       		.uleb128 0x1
 2237 01af B209     		.uleb128 .LEHB73-.LFB1148
 2238 01b1 05       		.uleb128 .LEHE73-.LEHB73
 2239 01b2 D113     		.uleb128 .L125-.LFB1148
 2240 01b4 00       		.uleb128 0
 2241 01b5 DB09     		.uleb128 .LEHB74-.LFB1148
 2242 01b7 1F       		.uleb128 .LEHE74-.LEHB74
 2243 01b8 9B12     		.uleb128 .L147-.LFB1148
 2244 01ba 01       		.uleb128 0x1
 2245 01bb 840A     		.uleb128 .LEHB75-.LFB1148
 2246 01bd 25       		.uleb128 .LEHE75-.LEHB75
 2247 01be 9912     		.uleb128 .L148-.LFB1148
 2248 01c0 01       		.uleb128 0x1
 2249 01c1 BD0A     		.uleb128 .LEHB76-.LFB1148
 2250 01c3 34       		.uleb128 .LEHE76-.LEHB76
 2251 01c4 D113     		.uleb128 .L125-.LFB1148
 2252 01c6 00       		.uleb128 0
 2253 01c7 F10A     		.uleb128 .LEHB77-.LFB1148
 2254 01c9 1F       		.uleb128 .LEHE77-.LEHB77
 2255 01ca F712     		.uleb128 .L150-.LFB1148
 2256 01cc 01       		.uleb128 0x1
 2257 01cd AB0B     		.uleb128 .LEHB78-.LFB1148
 2258 01cf 2A       		.uleb128 .LEHE78-.LEHB78
 2259 01d0 F512     		.uleb128 .L151-.LFB1148
 2260 01d2 01       		.uleb128 0x1
 2261 01d3 FA0B     		.uleb128 .LEHB79-.LFB1148
 2262 01d5 05       		.uleb128 .LEHE79-.LEHB79
 2263 01d6 D113     		.uleb128 .L125-.LFB1148
 2264 01d8 00       		.uleb128 0
 2265 01d9 890C     		.uleb128 .LEHB80-.LFB1148
 2266 01db 05       		.uleb128 .LEHE80-.LEHB80
 2267 01dc 00       		.uleb128 0
 2268 01dd 00       		.uleb128 0
 2269 01de B10C     		.uleb128 .LEHB81-.LFB1148
 2270 01e0 3E       		.uleb128 .LEHE81-.LEHB81
 2271 01e1 F90C     		.uleb128 .L128-.LFB1148
 2272 01e3 00       		.uleb128 0
 2273 01e4 EF0C     		.uleb128 .LEHB82-.LFB1148
 2274 01e6 05       		.uleb128 .LEHE82-.LEHB82
 2275 01e7 D113     		.uleb128 .L125-.LFB1148
 2276 01e9 00       		.uleb128 0
 2277 01ea 900D     		.uleb128 .LEHB83-.LFB1148
 2278 01ec 3E       		.uleb128 .LEHE83-.LEHB83
 2279 01ed D80D     		.uleb128 .L131-.LFB1148
 2280 01ef 00       		.uleb128 0
 2281 01f0 CE0D     		.uleb128 .LEHB84-.LFB1148
 2282 01f2 05       		.uleb128 .LEHE84-.LEHB84
 2283 01f3 D113     		.uleb128 .L125-.LFB1148
 2284 01f5 00       		.uleb128 0
 2285 01f6 EF0D     		.uleb128 .LEHB85-.LFB1148
 2286 01f8 3E       		.uleb128 .LEHE85-.LEHB85
 2287 01f9 B70E     		.uleb128 .L134-.LFB1148
 2288 01fb 00       		.uleb128 0
 2289 01fc AD0E     		.uleb128 .LEHB86-.LFB1148
 2290 01fe 05       		.uleb128 .LEHE86-.LEHB86
 2291 01ff D113     		.uleb128 .L125-.LFB1148
 2292 0201 00       		.uleb128 0
 2293 0202 CC0E     		.uleb128 .LEHB87-.LFB1148
 2294 0204 3E       		.uleb128 .LEHE87-.LEHB87
 2295 0205 940F     		.uleb128 .L136-.LFB1148
 2296 0207 00       		.uleb128 0
 2297 0208 8A0F     		.uleb128 .LEHB88-.LFB1148
 2298 020a 05       		.uleb128 .LEHE88-.LEHB88
 2299 020b D113     		.uleb128 .L125-.LFB1148
 2300 020d 00       		.uleb128 0
 2301 020e AB0F     		.uleb128 .LEHB89-.LFB1148
 2302 0210 3E       		.uleb128 .LEHE89-.LEHB89
 2303 0211 F30F     		.uleb128 .L139-.LFB1148
 2304 0213 00       		.uleb128 0
 2305 0214 E90F     		.uleb128 .LEHB90-.LFB1148
 2306 0216 05       		.uleb128 .LEHE90-.LEHB90
 2307 0217 D113     		.uleb128 .L125-.LFB1148
 2308 0219 00       		.uleb128 0
 2309 021a 8810     		.uleb128 .LEHB91-.LFB1148
 2310 021c 3E       		.uleb128 .LEHE91-.LEHB91
 2311 021d D010     		.uleb128 .L141-.LFB1148
 2312 021f 00       		.uleb128 0
 2313 0220 C610     		.uleb128 .LEHB92-.LFB1148
 2314 0222 05       		.uleb128 .LEHE92-.LEHB92
 2315 0223 D113     		.uleb128 .L125-.LFB1148
 2316 0225 00       		.uleb128 0
 2317 0226 E710     		.uleb128 .LEHB93-.LFB1148
 2318 0228 3E       		.uleb128 .LEHE93-.LEHB93
 2319 0229 AF11     		.uleb128 .L144-.LFB1148
 2320 022b 00       		.uleb128 0
 2321 022c A511     		.uleb128 .LEHB94-.LFB1148
 2322 022e 05       		.uleb128 .LEHE94-.LEHB94
 2323 022f D113     		.uleb128 .L125-.LFB1148
 2324 0231 00       		.uleb128 0
 2325 0232 C411     		.uleb128 .LEHB95-.LFB1148
 2326 0234 3E       		.uleb128 .LEHE95-.LEHB95
 2327 0235 8C12     		.uleb128 .L146-.LFB1148
 2328 0237 00       		.uleb128 0
 2329 0238 8212     		.uleb128 .LEHB96-.LFB1148
 2330 023a 05       		.uleb128 .LEHE96-.LEHB96
 2331 023b D113     		.uleb128 .L125-.LFB1148
 2332 023d 00       		.uleb128 0
 2333 023e A312     		.uleb128 .LEHB97-.LFB1148
 2334 0240 3E       		.uleb128 .LEHE97-.LEHB97
 2335 0241 EB12     		.uleb128 .L149-.LFB1148
 2336 0243 00       		.uleb128 0
 2337 0244 E112     		.uleb128 .LEHB98-.LFB1148
 2338 0246 05       		.uleb128 .LEHE98-.LEHB98
 2339 0247 D113     		.uleb128 .L125-.LFB1148
 2340 0249 00       		.uleb128 0
 2341 024a FF12     		.uleb128 .LEHB99-.LFB1148
 2342 024c 3E       		.uleb128 .LEHE99-.LEHB99
 2343 024d C713     		.uleb128 .L152-.LFB1148
 2344 024f 00       		.uleb128 0
 2345 0250 BD13     		.uleb128 .LEHB100-.LFB1148
 2346 0252 05       		.uleb128 .LEHE100-.LEHB100
 2347 0253 D113     		.uleb128 .L125-.LFB1148
 2348 0255 00       		.uleb128 0
 2349 0256 E913     		.uleb128 .LEHB101-.LFB1148
 2350 0258 05       		.uleb128 .LEHE101-.LEHB101
 2351 0259 00       		.uleb128 0
 2352 025a 00       		.uleb128 0
 2353              	.LLSDACSE1148:
 2354 025b 01       		.byte	0x1
 2355 025c 00       		.byte	0
 2356 025d 000000   		.align 4
 2357 0260 00000000 		.long	0
 2358              	
 2359              	.LLSDATT1148:
 2360              		.text
 2362              		.section	.text._ZN8UnitTest15MemoryOutStreamD1Ev,"axG",@progbits,_ZN8UnitTest15MemoryOutStreamD1Ev
 2363              		.align 2
 2364              		.weak	_ZN8UnitTest15MemoryOutStreamD1Ev
 2366              	_ZN8UnitTest15MemoryOutStreamD1Ev:
 2367              	.LFB1179:
  13:/home/shubham/20140524/makestuff/libs/libutpp/MemoryOutStream.h **** {
 2368              		.loc 3 13 0
 2369              		.cfi_startproc
 2370              		.cfi_personality 0x3,__gxx_personality_v0
 2371              		.cfi_lsda 0x3,.LLSDA1179
 2372 0000 55       		pushq	%rbp
 2373              		.cfi_def_cfa_offset 16
 2374              		.cfi_offset 6, -16
 2375 0001 4889E5   		movq	%rsp, %rbp
 2376              		.cfi_def_cfa_register 6
 2377 0004 53       		pushq	%rbx
 2378 0005 4883EC18 		subq	$24, %rsp
 2379              		.cfi_offset 3, -24
 2380 0009 48897DE8 		movq	%rdi, -24(%rbp)
 2381              	.LBB7:
  13:/home/shubham/20140524/makestuff/libs/libutpp/MemoryOutStream.h **** {
 2382              		.loc 3 13 0
 2383 000d BA000000 		movl	$_ZTVN8UnitTest15MemoryOutStreamE+24, %edx
 2383      00
 2384 0012 488B45E8 		movq	-24(%rbp), %rax
 2385 0016 488910   		movq	%rdx, (%rax)
 2386 0019 BA900000 		movl	$144, %edx
 2386      00
 2387 001e 488B45E8 		movq	-24(%rbp), %rax
 2388 0022 4801D0   		addq	%rdx, %rax
 2389 0025 BA000000 		movl	$_ZTVN8UnitTest15MemoryOutStreamE+64, %edx
 2389      00
 2390 002a 488910   		movq	%rdx, (%rax)
 2391 002d 488B45E8 		movq	-24(%rbp), %rax
 2392 0031 4883C070 		addq	$112, %rax
 2393 0035 4889C7   		movq	%rax, %rdi
 2394              	.LEHB102:
 2395 0038 E8000000 		call	_ZNSt7__cxx1112basic_stringIcSt11char_traitsIcESaIcEED1Ev
 2395      00
 2396              	.LEHE102:
  13:/home/shubham/20140524/makestuff/libs/libutpp/MemoryOutStream.h **** {
 2397              		.loc 3 13 0 is_stmt 0 discriminator 14
 2398 003d BA000000 		movl	$_ZTTN8UnitTest15MemoryOutStreamE+8, %edx
 2398      00
 2399 0042 488B45E8 		movq	-24(%rbp), %rax
 2400 0046 4889D6   		movq	%rdx, %rsi
 2401 0049 4889C7   		movq	%rax, %rdi
 2402              	.LEHB103:
 2403 004c E8000000 		call	_ZNSt7__cxx1119basic_ostringstreamIcSt11char_traitsIcESaIcEED2Ev
 2403      00
 2404              	.LEHE103:
  13:/home/shubham/20140524/makestuff/libs/libutpp/MemoryOutStream.h **** {
 2405              		.loc 3 13 0 discriminator 20
 2406 0051 B8020000 		movl	$2, %eax
 2406      00
 2407 0056 85C0     		testl	%eax, %eax
 2408 0058 7412     		je	.L155
  13:/home/shubham/20140524/makestuff/libs/libutpp/MemoryOutStream.h **** {
 2409              		.loc 3 13 0 discriminator 21
 2410 005a 488B45E8 		movq	-24(%rbp), %rax
 2411 005e 48059000 		addq	$144, %rax
 2411      0000
 2412 0064 4889C7   		movq	%rax, %rdi
 2413              	.LEHB104:
 2414 0067 E8000000 		call	_ZNSt9basic_iosIcSt11char_traitsIcEED2Ev
 2414      00
 2415              	.LEHE104:
 2416              	.L155:
 2417              	.LBE7:
  13:/home/shubham/20140524/makestuff/libs/libutpp/MemoryOutStream.h **** {
 2418              		.loc 3 13 0 discriminator 22
 2419 006c B8000000 		movl	$0, %eax
 2419      00
 2420 0071 85C0     		testl	%eax, %eax
 2421 0073 7450     		je	.L154
  13:/home/shubham/20140524/makestuff/libs/libutpp/MemoryOutStream.h **** {
 2422              		.loc 3 13 0 discriminator 25
 2423 0075 488B45E8 		movq	-24(%rbp), %rax
 2424 0079 4889C7   		movq	%rax, %rdi
 2425 007c E8000000 		call	_ZdlPv
 2425      00
 2426 0081 EB42     		jmp	.L154
 2427              	.L160:
 2428 0083 4889C3   		movq	%rax, %rbx
 2429              	.LBB8:
  13:/home/shubham/20140524/makestuff/libs/libutpp/MemoryOutStream.h **** {
 2430              		.loc 3 13 0
 2431 0086 BA000000 		movl	$_ZTTN8UnitTest15MemoryOutStreamE+8, %edx
 2431      00
 2432 008b 488B45E8 		movq	-24(%rbp), %rax
 2433 008f 4889D6   		movq	%rdx, %rsi
 2434 0092 4889C7   		movq	%rax, %rdi
 2435 0095 E8000000 		call	_ZNSt7__cxx1119basic_ostringstreamIcSt11char_traitsIcESaIcEED2Ev
 2435      00
 2436 009a EB03     		jmp	.L158
 2437              	.L161:
 2438 009c 4889C3   		movq	%rax, %rbx
 2439              	.L158:
  13:/home/shubham/20140524/makestuff/libs/libutpp/MemoryOutStream.h **** {
 2440              		.loc 3 13 0 discriminator 19
 2441 009f B8020000 		movl	$2, %eax
 2441      00
 2442 00a4 85C0     		testl	%eax, %eax
 2443 00a6 7412     		je	.L159
  13:/home/shubham/20140524/makestuff/libs/libutpp/MemoryOutStream.h **** {
 2444              		.loc 3 13 0 discriminator 32
 2445 00a8 488B45E8 		movq	-24(%rbp), %rax
 2446 00ac 48059000 		addq	$144, %rax
 2446      0000
 2447 00b2 4889C7   		movq	%rax, %rdi
 2448 00b5 E8000000 		call	_ZNSt9basic_iosIcSt11char_traitsIcEED2Ev
 2448      00
 2449              	.L159:
 2450 00ba 4889D8   		movq	%rbx, %rax
 2451 00bd 4889C7   		movq	%rax, %rdi
 2452              	.LEHB105:
 2453 00c0 E8000000 		call	_Unwind_Resume
 2453      00
 2454              	.LEHE105:
 2455              	.L154:
 2456              	.LBE8:
  13:/home/shubham/20140524/makestuff/libs/libutpp/MemoryOutStream.h **** {
 2457              		.loc 3 13 0
 2458 00c5 4883C418 		addq	$24, %rsp
 2459 00c9 5B       		popq	%rbx
 2460 00ca 5D       		popq	%rbp
 2461              		.cfi_def_cfa 7, 8
 2462 00cb C3       		ret
 2463              		.cfi_endproc
 2464              	.LFE1179:
 2465              		.section	.gcc_except_table
 2466              	.LLSDA1179:
 2467 0264 FF       		.byte	0xff
 2468 0265 FF       		.byte	0xff
 2469 0266 01       		.byte	0x1
 2470 0267 13       		.uleb128 .LLSDACSE1179-.LLSDACSB1179
 2471              	.LLSDACSB1179:
 2472 0268 38       		.uleb128 .LEHB102-.LFB1179
 2473 0269 05       		.uleb128 .LEHE102-.LEHB102
 2474 026a 8301     		.uleb128 .L160-.LFB1179
 2475 026c 00       		.uleb128 0
 2476 026d 4C       		.uleb128 .LEHB103-.LFB1179
 2477 026e 05       		.uleb128 .LEHE103-.LEHB103
 2478 026f 9C01     		.uleb128 .L161-.LFB1179
 2479 0271 00       		.uleb128 0
 2480 0272 67       		.uleb128 .LEHB104-.LFB1179
 2481 0273 05       		.uleb128 .LEHE104-.LEHB104
 2482 0274 00       		.uleb128 0
 2483 0275 00       		.uleb128 0
 2484 0276 C001     		.uleb128 .LEHB105-.LFB1179
 2485 0278 05       		.uleb128 .LEHE105-.LEHB105
 2486 0279 00       		.uleb128 0
 2487 027a 00       		.uleb128 0
 2488              	.LLSDACSE1179:
 2489              		.section	.text._ZN8UnitTest15MemoryOutStreamD1Ev,"axG",@progbits,_ZN8UnitTest15MemoryOutStreamD1Ev
 2491              		.set	.LTHUNK0,_ZN8UnitTest15MemoryOutStreamD1Ev
 2492              		.weak	_ZTv0_n24_N8UnitTest15MemoryOutStreamD1Ev
 2494              	_ZTv0_n24_N8UnitTest15MemoryOutStreamD1Ev:
 2495              	.LFB1288:
  13:/home/shubham/20140524/makestuff/libs/libutpp/MemoryOutStream.h **** {
 2496              		.loc 3 13 0 is_stmt 1
 2497              		.cfi_startproc
 2498 00cc 4C8B17   		movq	(%rdi), %r10
 2499 00cf 49037AE8 		addq	-24(%r10), %rdi
 2500 00d3 E928FFFF 		jmp	.LTHUNK0
 2500      FF
 2501              		.cfi_endproc
 2502              	.LFE1288:
 2504              		.section	.text._ZN8UnitTest15MemoryOutStreamD0Ev,"axG",@progbits,_ZN8UnitTest15MemoryOutStreamD0Ev
 2505              		.align 2
 2506              		.weak	_ZN8UnitTest15MemoryOutStreamD0Ev
 2508              	_ZN8UnitTest15MemoryOutStreamD0Ev:
 2509              	.LFB1180:
  13:/home/shubham/20140524/makestuff/libs/libutpp/MemoryOutStream.h **** {
 2510              		.loc 3 13 0
 2511              		.cfi_startproc
 2512 0000 55       		pushq	%rbp
 2513              		.cfi_def_cfa_offset 16
 2514              		.cfi_offset 6, -16
 2515 0001 4889E5   		movq	%rsp, %rbp
 2516              		.cfi_def_cfa_register 6
 2517 0004 4883EC10 		subq	$16, %rsp
 2518 0008 48897DF8 		movq	%rdi, -8(%rbp)
  13:/home/shubham/20140524/makestuff/libs/libutpp/MemoryOutStream.h **** {
 2519              		.loc 3 13 0
 2520 000c 488B45F8 		movq	-8(%rbp), %rax
 2521 0010 4889C7   		movq	%rax, %rdi
 2522 0013 E8000000 		call	_ZN8UnitTest15MemoryOutStreamD1Ev
 2522      00
 2523 0018 488B45F8 		movq	-8(%rbp), %rax
 2524 001c 4889C7   		movq	%rax, %rdi
 2525 001f E8000000 		call	_ZdlPv
 2525      00
 2526 0024 C9       		leave
 2527              		.cfi_def_cfa 7, 8
 2528 0025 C3       		ret
 2529              		.cfi_endproc
 2530              	.LFE1180:
 2532              		.set	.LTHUNK1,_ZN8UnitTest15MemoryOutStreamD0Ev
 2533              		.weak	_ZTv0_n24_N8UnitTest15MemoryOutStreamD0Ev
 2535              	_ZTv0_n24_N8UnitTest15MemoryOutStreamD0Ev:
 2536              	.LFB1289:
  13:/home/shubham/20140524/makestuff/libs/libutpp/MemoryOutStream.h **** {
 2537              		.loc 3 13 0
 2538              		.cfi_startproc
 2539 0026 4C8B17   		movq	(%rdi), %r10
 2540 0029 49037AE8 		addq	-24(%r10), %rdi
 2541 002d EBD1     		jmp	.LTHUNK1
 2542              		.cfi_endproc
 2543              	.LFE1289:
 2545              		.section	.rodata
 2546              	.LC20:
 2547 035b 45787065 		.string	"Expected "
 2547      63746564 
 2547      2000
 2548              	.LC21:
 2549 0365 20627574 		.string	" but was "
 2549      20776173 
 2549      2000
 2550              		.section	.text._ZN8UnitTest10CheckEqualI12BufferStatusS1_EEvRNS_11TestResultsERKT_RKT0_RKNS_11Test
 2551              		.weak	_ZN8UnitTest10CheckEqualI12BufferStatusS1_EEvRNS_11TestResultsERKT_RKT0_RKNS_11TestDetailsE
 2553              	_ZN8UnitTest10CheckEqualI12BufferStatusS1_EEvRNS_11TestResultsERKT_RKT0_RKNS_11TestDetailsE:
 2554              	.LFB1176:
 2555              		.file 5 "/home/shubham/20140524/makestuff/libs/libutpp/Checks.h"
   1:/home/shubham/20140524/makestuff/libs/libutpp/Checks.h **** #ifndef UNITTEST_CHECKS_H
   2:/home/shubham/20140524/makestuff/libs/libutpp/Checks.h **** #define UNITTEST_CHECKS_H
   3:/home/shubham/20140524/makestuff/libs/libutpp/Checks.h **** 
   4:/home/shubham/20140524/makestuff/libs/libutpp/Checks.h **** #include "Config.h"
   5:/home/shubham/20140524/makestuff/libs/libutpp/Checks.h **** #include "TestResults.h"
   6:/home/shubham/20140524/makestuff/libs/libutpp/Checks.h **** #include "MemoryOutStream.h"
   7:/home/shubham/20140524/makestuff/libs/libutpp/Checks.h **** 
   8:/home/shubham/20140524/makestuff/libs/libutpp/Checks.h **** namespace UnitTest {
   9:/home/shubham/20140524/makestuff/libs/libutpp/Checks.h **** 
  10:/home/shubham/20140524/makestuff/libs/libutpp/Checks.h **** 
  11:/home/shubham/20140524/makestuff/libs/libutpp/Checks.h **** template< typename Value >
  12:/home/shubham/20140524/makestuff/libs/libutpp/Checks.h **** bool Check(Value const value)
  13:/home/shubham/20140524/makestuff/libs/libutpp/Checks.h **** {
  14:/home/shubham/20140524/makestuff/libs/libutpp/Checks.h ****     return !!value; // doing double negative to avoid silly VS warnings
  15:/home/shubham/20140524/makestuff/libs/libutpp/Checks.h **** }
  16:/home/shubham/20140524/makestuff/libs/libutpp/Checks.h **** 
  17:/home/shubham/20140524/makestuff/libs/libutpp/Checks.h **** 
  18:/home/shubham/20140524/makestuff/libs/libutpp/Checks.h **** template< typename Expected, typename Actual >
  19:/home/shubham/20140524/makestuff/libs/libutpp/Checks.h **** void CheckEqual(TestResults& results, Expected const& expected, Actual const& actual, TestDetails c
 2556              		.loc 5 19 0
 2557              		.cfi_startproc
 2558              		.cfi_personality 0x3,__gxx_personality_v0
 2559              		.cfi_lsda 0x3,.LLSDA1176
 2560 0000 55       		pushq	%rbp
 2561              		.cfi_def_cfa_offset 16
 2562              		.cfi_offset 6, -16
 2563 0001 4889E5   		movq	%rsp, %rbp
 2564              		.cfi_def_cfa_register 6
 2565 0004 4154     		pushq	%r12
 2566 0006 53       		pushq	%rbx
 2567 0007 4881ECC0 		subq	$448, %rsp
 2567      010000
 2568              		.cfi_offset 12, -24
 2569              		.cfi_offset 3, -32
 2570 000e 4889BD48 		movq	%rdi, -440(%rbp)
 2570      FEFFFF
 2571 0015 4889B540 		movq	%rsi, -448(%rbp)
 2571      FEFFFF
 2572 001c 48899538 		movq	%rdx, -456(%rbp)
 2572      FEFFFF
 2573 0023 48898D30 		movq	%rcx, -464(%rbp)
 2573      FEFFFF
 2574              		.loc 5 19 0
 2575 002a 64488B04 		movq	%fs:40, %rax
 2575      25280000 
 2575      00
 2576 0033 488945E8 		movq	%rax, -24(%rbp)
 2577 0037 31C0     		xorl	%eax, %eax
 2578              	.LBB9:
  20:/home/shubham/20140524/makestuff/libs/libutpp/Checks.h **** {
  21:/home/shubham/20140524/makestuff/libs/libutpp/Checks.h ****     if (!(expected == actual))
 2579              		.loc 5 21 0
 2580 0039 488B8540 		movq	-448(%rbp), %rax
 2580      FEFFFF
 2581 0040 8B10     		movl	(%rax), %edx
 2582 0042 488B8538 		movq	-456(%rbp), %rax
 2582      FEFFFF
 2583 0049 8B00     		movl	(%rax), %eax
 2584 004b 39C2     		cmpl	%eax, %edx
 2585 004d 0F84B500 		je	.L168
 2585      0000
 2586              	.LBB10:
  22:/home/shubham/20140524/makestuff/libs/libutpp/Checks.h ****     {
  23:/home/shubham/20140524/makestuff/libs/libutpp/Checks.h ****         UnitTest::MemoryOutStream stream;
 2587              		.loc 5 23 0
 2588 0053 488D8550 		leaq	-432(%rbp), %rax
 2588      FEFFFF
 2589 005a 4889C7   		movq	%rax, %rdi
 2590              	.LEHB106:
 2591 005d E8000000 		call	_ZN8UnitTest15MemoryOutStreamC1Ev
 2591      00
 2592              	.LEHE106:
  24:/home/shubham/20140524/makestuff/libs/libutpp/Checks.h ****         stream << "Expected " << expected << " but was " << actual;
 2593              		.loc 5 24 0
 2594 0062 488B8538 		movq	-456(%rbp), %rax
 2594      FEFFFF
 2595 0069 8B00     		movl	(%rax), %eax
 2596 006b 89C3     		movl	%eax, %ebx
 2597 006d 488B8540 		movq	-448(%rbp), %rax
 2597      FEFFFF
 2598 0074 8B00     		movl	(%rax), %eax
 2599 0076 4189C4   		movl	%eax, %r12d
 2600 0079 488D8550 		leaq	-432(%rbp), %rax
 2600      FEFFFF
 2601 0080 BE000000 		movl	$.LC20, %esi
 2601      00
 2602 0085 4889C7   		movq	%rax, %rdi
 2603              	.LEHB107:
 2604 0088 E8000000 		call	_ZStlsISt11char_traitsIcEERSt13basic_ostreamIcT_ES5_PKc
 2604      00
 2605 008d 4489E6   		movl	%r12d, %esi
 2606 0090 4889C7   		movq	%rax, %rdi
 2607 0093 E8000000 		call	_ZNSolsEi
 2607      00
 2608              		.loc 5 24 0 is_stmt 0 discriminator 1
 2609 0098 BE000000 		movl	$.LC21, %esi
 2609      00
 2610 009d 4889C7   		movq	%rax, %rdi
 2611 00a0 E8000000 		call	_ZStlsISt11char_traitsIcEERSt13basic_ostreamIcT_ES5_PKc
 2611      00
 2612              		.loc 5 24 0 discriminator 2
 2613 00a5 89DE     		movl	%ebx, %esi
 2614 00a7 4889C7   		movq	%rax, %rdi
 2615 00aa E8000000 		call	_ZNSolsEi
 2615      00
  25:/home/shubham/20140524/makestuff/libs/libutpp/Checks.h **** 
  26:/home/shubham/20140524/makestuff/libs/libutpp/Checks.h ****         results.OnTestFailure(details, stream.GetText());
 2616              		.loc 5 26 0 is_stmt 1
 2617 00af 488D8550 		leaq	-432(%rbp), %rax
 2617      FEFFFF
 2618 00b6 4889C7   		movq	%rax, %rdi
 2619 00b9 E8000000 		call	_ZNK8UnitTest15MemoryOutStream7GetTextEv
 2619      00
 2620 00be 4889C2   		movq	%rax, %rdx
 2621 00c1 488B8D30 		movq	-464(%rbp), %rcx
 2621      FEFFFF
 2622 00c8 488B8548 		movq	-440(%rbp), %rax
 2622      FEFFFF
 2623 00cf 4889CE   		movq	%rcx, %rsi
 2624 00d2 4889C7   		movq	%rax, %rdi
 2625 00d5 E8000000 		call	_ZN8UnitTest11TestResults13OnTestFailureERKNS_11TestDetailsEPKc
 2625      00
 2626              	.LEHE107:
  23:/home/shubham/20140524/makestuff/libs/libutpp/Checks.h ****         stream << "Expected " << expected << " but was " << actual;
 2627              		.loc 5 23 0
 2628 00da 488D8550 		leaq	-432(%rbp), %rax
 2628      FEFFFF
 2629 00e1 4889C7   		movq	%rax, %rdi
 2630              	.LEHB108:
 2631 00e4 E8000000 		call	_ZN8UnitTest15MemoryOutStreamD1Ev
 2631      00
 2632              	.LEHE108:
 2633              	.LBE10:
 2634              	.LBE9:
  27:/home/shubham/20140524/makestuff/libs/libutpp/Checks.h ****     }
  28:/home/shubham/20140524/makestuff/libs/libutpp/Checks.h **** }
 2635              		.loc 5 28 0
 2636 00e9 EB1D     		jmp	.L168
 2637              	.L167:
 2638 00eb 4889C3   		movq	%rax, %rbx
 2639              	.LBB12:
 2640              	.LBB11:
  23:/home/shubham/20140524/makestuff/libs/libutpp/Checks.h ****         stream << "Expected " << expected << " but was " << actual;
 2641              		.loc 5 23 0
 2642 00ee 488D8550 		leaq	-432(%rbp), %rax
 2642      FEFFFF
 2643 00f5 4889C7   		movq	%rax, %rdi
 2644 00f8 E8000000 		call	_ZN8UnitTest15MemoryOutStreamD1Ev
 2644      00
 2645 00fd 4889D8   		movq	%rbx, %rax
 2646 0100 4889C7   		movq	%rax, %rdi
 2647              	.LEHB109:
 2648 0103 E8000000 		call	_Unwind_Resume
 2648      00
 2649              	.LEHE109:
 2650              	.L168:
 2651              	.LBE11:
 2652              	.LBE12:
 2653              		.loc 5 28 0
 2654 0108 90       		nop
 2655 0109 488B45E8 		movq	-24(%rbp), %rax
 2656 010d 64483304 		xorq	%fs:40, %rax
 2656      25280000 
 2656      00
 2657 0116 7405     		je	.L166
 2658 0118 E8000000 		call	__stack_chk_fail
 2658      00
 2659              	.L166:
 2660 011d 4881C4C0 		addq	$448, %rsp
 2660      010000
 2661 0124 5B       		popq	%rbx
 2662 0125 415C     		popq	%r12
 2663 0127 5D       		popq	%rbp
 2664              		.cfi_def_cfa 7, 8
 2665 0128 C3       		ret
 2666              		.cfi_endproc
 2667              	.LFE1176:
 2668              		.section	.gcc_except_table
 2669              	.LLSDA1176:
 2670 027b FF       		.byte	0xff
 2671 027c FF       		.byte	0xff
 2672 027d 01       		.byte	0x1
 2673 027e 14       		.uleb128 .LLSDACSE1176-.LLSDACSB1176
 2674              	.LLSDACSB1176:
 2675 027f 5D       		.uleb128 .LEHB106-.LFB1176
 2676 0280 05       		.uleb128 .LEHE106-.LEHB106
 2677 0281 00       		.uleb128 0
 2678 0282 00       		.uleb128 0
 2679 0283 8801     		.uleb128 .LEHB107-.LFB1176
 2680 0285 52       		.uleb128 .LEHE107-.LEHB107
 2681 0286 EB01     		.uleb128 .L167-.LFB1176
 2682 0288 00       		.uleb128 0
 2683 0289 E401     		.uleb128 .LEHB108-.LFB1176
 2684 028b 05       		.uleb128 .LEHE108-.LEHB108
 2685 028c 00       		.uleb128 0
 2686 028d 00       		.uleb128 0
 2687 028e 8302     		.uleb128 .LEHB109-.LFB1176
 2688 0290 05       		.uleb128 .LEHE109-.LEHB109
 2689 0291 00       		.uleb128 0
 2690 0292 00       		.uleb128 0
 2691              	.LLSDACSE1176:
 2692              		.section	.text._ZN8UnitTest10CheckEqualI12BufferStatusS1_EEvRNS_11TestResultsERKT_RKT0_RKNS_11Test
 2694              		.section	.text._ZN8UnitTest10CheckEqualImmEEvRNS_11TestResultsERKT_RKT0_RKNS_11TestDetailsE,"axG",
 2695              		.weak	_ZN8UnitTest10CheckEqualImmEEvRNS_11TestResultsERKT_RKT0_RKNS_11TestDetailsE
 2697              	_ZN8UnitTest10CheckEqualImmEEvRNS_11TestResultsERKT_RKT0_RKNS_11TestDetailsE:
 2698              	.LFB1191:
  19:/home/shubham/20140524/makestuff/libs/libutpp/Checks.h **** {
 2699              		.loc 5 19 0
 2700              		.cfi_startproc
 2701              		.cfi_personality 0x3,__gxx_personality_v0
 2702              		.cfi_lsda 0x3,.LLSDA1191
 2703 0000 55       		pushq	%rbp
 2704              		.cfi_def_cfa_offset 16
 2705              		.cfi_offset 6, -16
 2706 0001 4889E5   		movq	%rsp, %rbp
 2707              		.cfi_def_cfa_register 6
 2708 0004 4154     		pushq	%r12
 2709 0006 53       		pushq	%rbx
 2710 0007 4881ECC0 		subq	$448, %rsp
 2710      010000
 2711              		.cfi_offset 12, -24
 2712              		.cfi_offset 3, -32
 2713 000e 4889BD48 		movq	%rdi, -440(%rbp)
 2713      FEFFFF
 2714 0015 4889B540 		movq	%rsi, -448(%rbp)
 2714      FEFFFF
 2715 001c 48899538 		movq	%rdx, -456(%rbp)
 2715      FEFFFF
 2716 0023 48898D30 		movq	%rcx, -464(%rbp)
 2716      FEFFFF
  19:/home/shubham/20140524/makestuff/libs/libutpp/Checks.h **** {
 2717              		.loc 5 19 0
 2718 002a 64488B04 		movq	%fs:40, %rax
 2718      25280000 
 2718      00
 2719 0033 488945E8 		movq	%rax, -24(%rbp)
 2720 0037 31C0     		xorl	%eax, %eax
 2721              	.LBB13:
  21:/home/shubham/20140524/makestuff/libs/libutpp/Checks.h ****     {
 2722              		.loc 5 21 0
 2723 0039 488B8540 		movq	-448(%rbp), %rax
 2723      FEFFFF
 2724 0040 488B10   		movq	(%rax), %rdx
 2725 0043 488B8538 		movq	-456(%rbp), %rax
 2725      FEFFFF
 2726 004a 488B00   		movq	(%rax), %rax
 2727 004d 4839C2   		cmpq	%rax, %rdx
 2728 0050 0F84B300 		je	.L174
 2728      0000
 2729              	.LBB14:
  23:/home/shubham/20140524/makestuff/libs/libutpp/Checks.h ****         stream << "Expected " << expected << " but was " << actual;
 2730              		.loc 5 23 0
 2731 0056 488D8550 		leaq	-432(%rbp), %rax
 2731      FEFFFF
 2732 005d 4889C7   		movq	%rax, %rdi
 2733              	.LEHB110:
 2734 0060 E8000000 		call	_ZN8UnitTest15MemoryOutStreamC1Ev
 2734      00
 2735              	.LEHE110:
  24:/home/shubham/20140524/makestuff/libs/libutpp/Checks.h **** 
 2736              		.loc 5 24 0
 2737 0065 488B8538 		movq	-456(%rbp), %rax
 2737      FEFFFF
 2738 006c 488B18   		movq	(%rax), %rbx
 2739 006f 488B8540 		movq	-448(%rbp), %rax
 2739      FEFFFF
 2740 0076 4C8B20   		movq	(%rax), %r12
 2741 0079 488D8550 		leaq	-432(%rbp), %rax
 2741      FEFFFF
 2742 0080 BE000000 		movl	$.LC20, %esi
 2742      00
 2743 0085 4889C7   		movq	%rax, %rdi
 2744              	.LEHB111:
 2745 0088 E8000000 		call	_ZStlsISt11char_traitsIcEERSt13basic_ostreamIcT_ES5_PKc
 2745      00
 2746 008d 4C89E6   		movq	%r12, %rsi
 2747 0090 4889C7   		movq	%rax, %rdi
 2748 0093 E8000000 		call	_ZNSolsEm
 2748      00
  24:/home/shubham/20140524/makestuff/libs/libutpp/Checks.h **** 
 2749              		.loc 5 24 0 is_stmt 0 discriminator 1
 2750 0098 BE000000 		movl	$.LC21, %esi
 2750      00
 2751 009d 4889C7   		movq	%rax, %rdi
 2752 00a0 E8000000 		call	_ZStlsISt11char_traitsIcEERSt13basic_ostreamIcT_ES5_PKc
 2752      00
  24:/home/shubham/20140524/makestuff/libs/libutpp/Checks.h **** 
 2753              		.loc 5 24 0 discriminator 2
 2754 00a5 4889DE   		movq	%rbx, %rsi
 2755 00a8 4889C7   		movq	%rax, %rdi
 2756 00ab E8000000 		call	_ZNSolsEm
 2756      00
  26:/home/shubham/20140524/makestuff/libs/libutpp/Checks.h ****     }
 2757              		.loc 5 26 0 is_stmt 1
 2758 00b0 488D8550 		leaq	-432(%rbp), %rax
 2758      FEFFFF
 2759 00b7 4889C7   		movq	%rax, %rdi
 2760 00ba E8000000 		call	_ZNK8UnitTest15MemoryOutStream7GetTextEv
 2760      00
 2761 00bf 4889C2   		movq	%rax, %rdx
 2762 00c2 488B8D30 		movq	-464(%rbp), %rcx
 2762      FEFFFF
 2763 00c9 488B8548 		movq	-440(%rbp), %rax
 2763      FEFFFF
 2764 00d0 4889CE   		movq	%rcx, %rsi
 2765 00d3 4889C7   		movq	%rax, %rdi
 2766 00d6 E8000000 		call	_ZN8UnitTest11TestResults13OnTestFailureERKNS_11TestDetailsEPKc
 2766      00
 2767              	.LEHE111:
  23:/home/shubham/20140524/makestuff/libs/libutpp/Checks.h ****         stream << "Expected " << expected << " but was " << actual;
 2768              		.loc 5 23 0
 2769 00db 488D8550 		leaq	-432(%rbp), %rax
 2769      FEFFFF
 2770 00e2 4889C7   		movq	%rax, %rdi
 2771              	.LEHB112:
 2772 00e5 E8000000 		call	_ZN8UnitTest15MemoryOutStreamD1Ev
 2772      00
 2773              	.LEHE112:
 2774              	.LBE14:
 2775              	.LBE13:
 2776              		.loc 5 28 0
 2777 00ea EB1D     		jmp	.L174
 2778              	.L173:
 2779 00ec 4889C3   		movq	%rax, %rbx
 2780              	.LBB16:
 2781              	.LBB15:
  23:/home/shubham/20140524/makestuff/libs/libutpp/Checks.h ****         stream << "Expected " << expected << " but was " << actual;
 2782              		.loc 5 23 0
 2783 00ef 488D8550 		leaq	-432(%rbp), %rax
 2783      FEFFFF
 2784 00f6 4889C7   		movq	%rax, %rdi
 2785 00f9 E8000000 		call	_ZN8UnitTest15MemoryOutStreamD1Ev
 2785      00
 2786 00fe 4889D8   		movq	%rbx, %rax
 2787 0101 4889C7   		movq	%rax, %rdi
 2788              	.LEHB113:
 2789 0104 E8000000 		call	_Unwind_Resume
 2789      00
 2790              	.LEHE113:
 2791              	.L174:
 2792              	.LBE15:
 2793              	.LBE16:
 2794              		.loc 5 28 0
 2795 0109 90       		nop
 2796 010a 488B45E8 		movq	-24(%rbp), %rax
 2797 010e 64483304 		xorq	%fs:40, %rax
 2797      25280000 
 2797      00
 2798 0117 7405     		je	.L172
 2799 0119 E8000000 		call	__stack_chk_fail
 2799      00
 2800              	.L172:
 2801 011e 4881C4C0 		addq	$448, %rsp
 2801      010000
 2802 0125 5B       		popq	%rbx
 2803 0126 415C     		popq	%r12
 2804 0128 5D       		popq	%rbp
 2805              		.cfi_def_cfa 7, 8
 2806 0129 C3       		ret
 2807              		.cfi_endproc
 2808              	.LFE1191:
 2809              		.section	.gcc_except_table
 2810              	.LLSDA1191:
 2811 0293 FF       		.byte	0xff
 2812 0294 FF       		.byte	0xff
 2813 0295 01       		.byte	0x1
 2814 0296 14       		.uleb128 .LLSDACSE1191-.LLSDACSB1191
 2815              	.LLSDACSB1191:
 2816 0297 60       		.uleb128 .LEHB110-.LFB1191
 2817 0298 05       		.uleb128 .LEHE110-.LEHB110
 2818 0299 00       		.uleb128 0
 2819 029a 00       		.uleb128 0
 2820 029b 8801     		.uleb128 .LEHB111-.LFB1191
 2821 029d 53       		.uleb128 .LEHE111-.LEHB111
 2822 029e EC01     		.uleb128 .L173-.LFB1191
 2823 02a0 00       		.uleb128 0
 2824 02a1 E501     		.uleb128 .LEHB112-.LFB1191
 2825 02a3 05       		.uleb128 .LEHE112-.LEHB112
 2826 02a4 00       		.uleb128 0
 2827 02a5 00       		.uleb128 0
 2828 02a6 8402     		.uleb128 .LEHB113-.LFB1191
 2829 02a8 05       		.uleb128 .LEHE113-.LEHB113
 2830 02a9 00       		.uleb128 0
 2831 02aa 00       		.uleb128 0
 2832              	.LLSDACSE1191:
 2833              		.section	.text._ZN8UnitTest10CheckEqualImmEEvRNS_11TestResultsERKT_RKT0_RKNS_11TestDetailsE,"axG",
 2835              		.section	.rodata
 2836              	.LC22:
 2837 036f 45787065 		.string	"Expected [ "
 2837      63746564 
 2837      205B2000 
 2838              	.LC23:
 2839 037b 2000     		.string	" "
 2840              	.LC24:
 2841 037d 5D206275 		.string	"] but was [ "
 2841      74207761 
 2841      73205B20 
 2841      00
 2842              	.LC25:
 2843 038a 5D00     		.string	"]"
 2844              		.section	.text._ZN8UnitTest15CheckArrayEqualIPKcPhEEvRNS_11TestResultsERKT_RKT0_iRKNS_11TestDetail
 2845              		.weak	_ZN8UnitTest15CheckArrayEqualIPKcPhEEvRNS_11TestResultsERKT_RKT0_iRKNS_11TestDetailsE
 2847              	_ZN8UnitTest15CheckArrayEqualIPKcPhEEvRNS_11TestResultsERKT_RKT0_iRKNS_11TestDetailsE:
 2848              	.LFB1192:
  29:/home/shubham/20140524/makestuff/libs/libutpp/Checks.h **** 
  30:/home/shubham/20140524/makestuff/libs/libutpp/Checks.h **** void CheckEqual(TestResults& results, char const* expected, char const* actual, TestDetails const& 
  31:/home/shubham/20140524/makestuff/libs/libutpp/Checks.h **** 
  32:/home/shubham/20140524/makestuff/libs/libutpp/Checks.h **** void CheckEqual(TestResults& results, char* expected, char* actual, TestDetails const& details);
  33:/home/shubham/20140524/makestuff/libs/libutpp/Checks.h **** 
  34:/home/shubham/20140524/makestuff/libs/libutpp/Checks.h **** void CheckEqual(TestResults& results, char* expected, char const* actual, TestDetails const& detail
  35:/home/shubham/20140524/makestuff/libs/libutpp/Checks.h **** 
  36:/home/shubham/20140524/makestuff/libs/libutpp/Checks.h **** void CheckEqual(TestResults& results, char const* expected, char* actual, TestDetails const& detail
  37:/home/shubham/20140524/makestuff/libs/libutpp/Checks.h **** 
  38:/home/shubham/20140524/makestuff/libs/libutpp/Checks.h **** template< typename Expected, typename Actual, typename Tolerance >
  39:/home/shubham/20140524/makestuff/libs/libutpp/Checks.h **** bool AreClose(Expected const& expected, Actual const& actual, Tolerance const& tolerance)
  40:/home/shubham/20140524/makestuff/libs/libutpp/Checks.h **** {
  41:/home/shubham/20140524/makestuff/libs/libutpp/Checks.h ****     return (actual >= (expected - tolerance)) && (actual <= (expected + tolerance));
  42:/home/shubham/20140524/makestuff/libs/libutpp/Checks.h **** }
  43:/home/shubham/20140524/makestuff/libs/libutpp/Checks.h **** 
  44:/home/shubham/20140524/makestuff/libs/libutpp/Checks.h **** template< typename Expected, typename Actual, typename Tolerance >
  45:/home/shubham/20140524/makestuff/libs/libutpp/Checks.h **** void CheckClose(TestResults& results, Expected const& expected, Actual const& actual, Tolerance con
  46:/home/shubham/20140524/makestuff/libs/libutpp/Checks.h ****                 TestDetails const& details)
  47:/home/shubham/20140524/makestuff/libs/libutpp/Checks.h **** {
  48:/home/shubham/20140524/makestuff/libs/libutpp/Checks.h ****     if (!AreClose(expected, actual, tolerance))
  49:/home/shubham/20140524/makestuff/libs/libutpp/Checks.h ****     { 
  50:/home/shubham/20140524/makestuff/libs/libutpp/Checks.h ****         UnitTest::MemoryOutStream stream;
  51:/home/shubham/20140524/makestuff/libs/libutpp/Checks.h ****         stream << "Expected " << expected << " +/- " << tolerance << " but was " << actual;
  52:/home/shubham/20140524/makestuff/libs/libutpp/Checks.h **** 
  53:/home/shubham/20140524/makestuff/libs/libutpp/Checks.h ****         results.OnTestFailure(details, stream.GetText());
  54:/home/shubham/20140524/makestuff/libs/libutpp/Checks.h ****     }
  55:/home/shubham/20140524/makestuff/libs/libutpp/Checks.h **** }
  56:/home/shubham/20140524/makestuff/libs/libutpp/Checks.h **** 
  57:/home/shubham/20140524/makestuff/libs/libutpp/Checks.h **** 
  58:/home/shubham/20140524/makestuff/libs/libutpp/Checks.h **** template< typename Expected, typename Actual >
  59:/home/shubham/20140524/makestuff/libs/libutpp/Checks.h **** void CheckArrayEqual(TestResults& results, Expected const& expected, Actual const& actual,
 2849              		.loc 5 59 0
 2850              		.cfi_startproc
 2851              		.cfi_personality 0x3,__gxx_personality_v0
 2852              		.cfi_lsda 0x3,.LLSDA1192
 2853 0000 55       		pushq	%rbp
 2854              		.cfi_def_cfa_offset 16
 2855              		.cfi_offset 6, -16
 2856 0001 4889E5   		movq	%rsp, %rbp
 2857              		.cfi_def_cfa_register 6
 2858 0004 53       		pushq	%rbx
 2859 0005 4881ECE8 		subq	$488, %rsp
 2859      010000
 2860              		.cfi_offset 3, -24
 2861 000c 4889BD38 		movq	%rdi, -456(%rbp)
 2861      FEFFFF
 2862 0013 4889B530 		movq	%rsi, -464(%rbp)
 2862      FEFFFF
 2863 001a 48899528 		movq	%rdx, -472(%rbp)
 2863      FEFFFF
 2864 0021 898D24FE 		movl	%ecx, -476(%rbp)
 2864      FFFF
 2865 0027 4C898518 		movq	%r8, -488(%rbp)
 2865      FEFFFF
 2866              		.loc 5 59 0
 2867 002e 64488B04 		movq	%fs:40, %rax
 2867      25280000 
 2867      00
 2868 0037 488945E8 		movq	%rax, -24(%rbp)
 2869 003b 31C0     		xorl	%eax, %eax
  60:/home/shubham/20140524/makestuff/libs/libutpp/Checks.h ****                 int const count, TestDetails const& details)
  61:/home/shubham/20140524/makestuff/libs/libutpp/Checks.h **** {
  62:/home/shubham/20140524/makestuff/libs/libutpp/Checks.h ****     bool equal = true;
 2870              		.loc 5 62 0
 2871 003d C68543FE 		movb	$1, -445(%rbp)
 2871      FFFF01
 2872              	.LBB17:
  63:/home/shubham/20140524/makestuff/libs/libutpp/Checks.h ****     for (int i = 0; i < count; ++i)
 2873              		.loc 5 63 0
 2874 0044 C78544FE 		movl	$0, -444(%rbp)
 2874      FFFF0000 
 2874      0000
 2875              	.L177:
 2876              		.loc 5 63 0 is_stmt 0 discriminator 3
 2877 004e 8B8544FE 		movl	-444(%rbp), %eax
 2877      FFFF
 2878 0054 3B8524FE 		cmpl	-476(%rbp), %eax
 2878      FFFF
 2879 005a 7D5B     		jge	.L176
  64:/home/shubham/20140524/makestuff/libs/libutpp/Checks.h ****         equal &= (expected[i] == actual[i]);
 2880              		.loc 5 64 0 is_stmt 1 discriminator 2
 2881 005c 0FB69543 		movzbl	-445(%rbp), %edx
 2881      FEFFFF
 2882 0063 488B8530 		movq	-464(%rbp), %rax
 2882      FEFFFF
 2883 006a 488B08   		movq	(%rax), %rcx
 2884 006d 8B8544FE 		movl	-444(%rbp), %eax
 2884      FFFF
 2885 0073 4898     		cltq
 2886 0075 4801C8   		addq	%rcx, %rax
 2887 0078 0FB600   		movzbl	(%rax), %eax
 2888 007b 0FBEC8   		movsbl	%al, %ecx
 2889 007e 488B8528 		movq	-472(%rbp), %rax
 2889      FEFFFF
 2890 0085 488B30   		movq	(%rax), %rsi
 2891 0088 8B8544FE 		movl	-444(%rbp), %eax
 2891      FFFF
 2892 008e 4898     		cltq
 2893 0090 4801F0   		addq	%rsi, %rax
 2894 0093 0FB600   		movzbl	(%rax), %eax
 2895 0096 0FB6C0   		movzbl	%al, %eax
 2896 0099 39C1     		cmpl	%eax, %ecx
 2897 009b 0F94C0   		sete	%al
 2898 009e 0FB6C0   		movzbl	%al, %eax
 2899 00a1 21D0     		andl	%edx, %eax
 2900 00a3 85C0     		testl	%eax, %eax
 2901 00a5 0F95C0   		setne	%al
 2902 00a8 888543FE 		movb	%al, -445(%rbp)
 2902      FFFF
  63:/home/shubham/20140524/makestuff/libs/libutpp/Checks.h ****     for (int i = 0; i < count; ++i)
 2903              		.loc 5 63 0 discriminator 2
 2904 00ae 838544FE 		addl	$1, -444(%rbp)
 2904      FFFF01
 2905 00b5 EB97     		jmp	.L177
 2906              	.L176:
 2907              	.LBE17:
 2908              	.LBB18:
  65:/home/shubham/20140524/makestuff/libs/libutpp/Checks.h **** 
  66:/home/shubham/20140524/makestuff/libs/libutpp/Checks.h ****     if (!equal)
 2909              		.loc 5 66 0
 2910 00b7 0FB68543 		movzbl	-445(%rbp), %eax
 2910      FEFFFF
 2911 00be 83F001   		xorl	$1, %eax
 2912 00c1 84C0     		testb	%al, %al
 2913 00c3 0F845801 		je	.L186
 2913      0000
 2914              	.LBB19:
  67:/home/shubham/20140524/makestuff/libs/libutpp/Checks.h ****     {
  68:/home/shubham/20140524/makestuff/libs/libutpp/Checks.h ****         UnitTest::MemoryOutStream stream;
 2915              		.loc 5 68 0
 2916 00c9 488D8550 		leaq	-432(%rbp), %rax
 2916      FEFFFF
 2917 00d0 4889C7   		movq	%rax, %rdi
 2918              	.LEHB114:
 2919 00d3 E8000000 		call	_ZN8UnitTest15MemoryOutStreamC1Ev
 2919      00
 2920              	.LEHE114:
  69:/home/shubham/20140524/makestuff/libs/libutpp/Checks.h **** 
  70:/home/shubham/20140524/makestuff/libs/libutpp/Checks.h **** 		stream << "Expected [ ";
 2921              		.loc 5 70 0
 2922 00d8 488D8550 		leaq	-432(%rbp), %rax
 2922      FEFFFF
 2923 00df BE000000 		movl	$.LC22, %esi
 2923      00
 2924 00e4 4889C7   		movq	%rax, %rdi
 2925              	.LEHB115:
 2926 00e7 E8000000 		call	_ZStlsISt11char_traitsIcEERSt13basic_ostreamIcT_ES5_PKc
 2926      00
 2927              	.LBB20:
  71:/home/shubham/20140524/makestuff/libs/libutpp/Checks.h **** 
  72:/home/shubham/20140524/makestuff/libs/libutpp/Checks.h **** 		for (int expectedIndex = 0; expectedIndex < count; ++expectedIndex)
 2928              		.loc 5 72 0
 2929 00ec C78548FE 		movl	$0, -440(%rbp)
 2929      FFFF0000 
 2929      0000
 2930              	.L180:
 2931              		.loc 5 72 0 is_stmt 0 discriminator 1
 2932 00f6 8B8548FE 		movl	-440(%rbp), %eax
 2932      FFFF
 2933 00fc 3B8524FE 		cmpl	-476(%rbp), %eax
 2933      FFFF
 2934 0102 7D42     		jge	.L179
  73:/home/shubham/20140524/makestuff/libs/libutpp/Checks.h ****             stream << expected[expectedIndex] << " ";
 2935              		.loc 5 73 0 is_stmt 1
 2936 0104 488B8530 		movq	-464(%rbp), %rax
 2936      FEFFFF
 2937 010b 488B10   		movq	(%rax), %rdx
 2938 010e 8B8548FE 		movl	-440(%rbp), %eax
 2938      FFFF
 2939 0114 4898     		cltq
 2940 0116 4801D0   		addq	%rdx, %rax
 2941 0119 0FB600   		movzbl	(%rax), %eax
 2942 011c 0FBED0   		movsbl	%al, %edx
 2943 011f 488D8550 		leaq	-432(%rbp), %rax
 2943      FEFFFF
 2944 0126 89D6     		movl	%edx, %esi
 2945 0128 4889C7   		movq	%rax, %rdi
 2946 012b E8000000 		call	_ZStlsISt11char_traitsIcEERSt13basic_ostreamIcT_ES5_c
 2946      00
 2947 0130 BE000000 		movl	$.LC23, %esi
 2947      00
 2948 0135 4889C7   		movq	%rax, %rdi
 2949 0138 E8000000 		call	_ZStlsISt11char_traitsIcEERSt13basic_ostreamIcT_ES5_PKc
 2949      00
  72:/home/shubham/20140524/makestuff/libs/libutpp/Checks.h ****             stream << expected[expectedIndex] << " ";
 2950              		.loc 5 72 0 discriminator 2
 2951 013d 838548FE 		addl	$1, -440(%rbp)
 2951      FFFF01
 2952 0144 EBB0     		jmp	.L180
 2953              	.L179:
 2954              	.LBE20:
  74:/home/shubham/20140524/makestuff/libs/libutpp/Checks.h **** 
  75:/home/shubham/20140524/makestuff/libs/libutpp/Checks.h **** 		stream << "] but was [ ";
 2955              		.loc 5 75 0
 2956 0146 488D8550 		leaq	-432(%rbp), %rax
 2956      FEFFFF
 2957 014d BE000000 		movl	$.LC24, %esi
 2957      00
 2958 0152 4889C7   		movq	%rax, %rdi
 2959 0155 E8000000 		call	_ZStlsISt11char_traitsIcEERSt13basic_ostreamIcT_ES5_PKc
 2959      00
 2960              	.LBB21:
  76:/home/shubham/20140524/makestuff/libs/libutpp/Checks.h **** 
  77:/home/shubham/20140524/makestuff/libs/libutpp/Checks.h **** 		for (int actualIndex = 0; actualIndex < count; ++actualIndex)
 2961              		.loc 5 77 0
 2962 015a C7854CFE 		movl	$0, -436(%rbp)
 2962      FFFF0000 
 2962      0000
 2963              	.L182:
 2964              		.loc 5 77 0 is_stmt 0 discriminator 1
 2965 0164 8B854CFE 		movl	-436(%rbp), %eax
 2965      FFFF
 2966 016a 3B8524FE 		cmpl	-476(%rbp), %eax
 2966      FFFF
 2967 0170 7D42     		jge	.L181
  78:/home/shubham/20140524/makestuff/libs/libutpp/Checks.h ****             stream << actual[actualIndex] << " ";
 2968              		.loc 5 78 0 is_stmt 1
 2969 0172 488B8528 		movq	-472(%rbp), %rax
 2969      FEFFFF
 2970 0179 488B10   		movq	(%rax), %rdx
 2971 017c 8B854CFE 		movl	-436(%rbp), %eax
 2971      FFFF
 2972 0182 4898     		cltq
 2973 0184 4801D0   		addq	%rdx, %rax
 2974 0187 0FB600   		movzbl	(%rax), %eax
 2975 018a 0FB6D0   		movzbl	%al, %edx
 2976 018d 488D8550 		leaq	-432(%rbp), %rax
 2976      FEFFFF
 2977 0194 89D6     		movl	%edx, %esi
 2978 0196 4889C7   		movq	%rax, %rdi
 2979 0199 E8000000 		call	_ZStlsISt11char_traitsIcEERSt13basic_ostreamIcT_ES5_h
 2979      00
 2980 019e BE000000 		movl	$.LC23, %esi
 2980      00
 2981 01a3 4889C7   		movq	%rax, %rdi
 2982 01a6 E8000000 		call	_ZStlsISt11char_traitsIcEERSt13basic_ostreamIcT_ES5_PKc
 2982      00
  77:/home/shubham/20140524/makestuff/libs/libutpp/Checks.h ****             stream << actual[actualIndex] << " ";
 2983              		.loc 5 77 0 discriminator 2
 2984 01ab 83854CFE 		addl	$1, -436(%rbp)
 2984      FFFF01
 2985 01b2 EBB0     		jmp	.L182
 2986              	.L181:
 2987              	.LBE21:
  79:/home/shubham/20140524/makestuff/libs/libutpp/Checks.h **** 
  80:/home/shubham/20140524/makestuff/libs/libutpp/Checks.h **** 		stream << "]";
 2988              		.loc 5 80 0
 2989 01b4 488D8550 		leaq	-432(%rbp), %rax
 2989      FEFFFF
 2990 01bb BE000000 		movl	$.LC25, %esi
 2990      00
 2991 01c0 4889C7   		movq	%rax, %rdi
 2992 01c3 E8000000 		call	_ZStlsISt11char_traitsIcEERSt13basic_ostreamIcT_ES5_PKc
 2992      00
  81:/home/shubham/20140524/makestuff/libs/libutpp/Checks.h **** 
  82:/home/shubham/20140524/makestuff/libs/libutpp/Checks.h ****         results.OnTestFailure(details, stream.GetText());
 2993              		.loc 5 82 0
 2994 01c8 488D8550 		leaq	-432(%rbp), %rax
 2994      FEFFFF
 2995 01cf 4889C7   		movq	%rax, %rdi
 2996 01d2 E8000000 		call	_ZNK8UnitTest15MemoryOutStream7GetTextEv
 2996      00
 2997 01d7 4889C2   		movq	%rax, %rdx
 2998 01da 488B8D18 		movq	-488(%rbp), %rcx
 2998      FEFFFF
 2999 01e1 488B8538 		movq	-456(%rbp), %rax
 2999      FEFFFF
 3000 01e8 4889CE   		movq	%rcx, %rsi
 3001 01eb 4889C7   		movq	%rax, %rdi
 3002 01ee E8000000 		call	_ZN8UnitTest11TestResults13OnTestFailureERKNS_11TestDetailsEPKc
 3002      00
 3003              	.LEHE115:
  68:/home/shubham/20140524/makestuff/libs/libutpp/Checks.h **** 
 3004              		.loc 5 68 0
 3005 01f3 488D8550 		leaq	-432(%rbp), %rax
 3005      FEFFFF
 3006 01fa 4889C7   		movq	%rax, %rdi
 3007              	.LEHB116:
 3008 01fd E8000000 		call	_ZN8UnitTest15MemoryOutStreamD1Ev
 3008      00
 3009              	.LEHE116:
 3010              	.LBE19:
 3011              	.LBE18:
  83:/home/shubham/20140524/makestuff/libs/libutpp/Checks.h ****     }
  84:/home/shubham/20140524/makestuff/libs/libutpp/Checks.h **** }
 3012              		.loc 5 84 0
 3013 0202 EB1D     		jmp	.L186
 3014              	.L185:
 3015 0204 4889C3   		movq	%rax, %rbx
 3016              	.LBB23:
 3017              	.LBB22:
  68:/home/shubham/20140524/makestuff/libs/libutpp/Checks.h **** 
 3018              		.loc 5 68 0
 3019 0207 488D8550 		leaq	-432(%rbp), %rax
 3019      FEFFFF
 3020 020e 4889C7   		movq	%rax, %rdi
 3021 0211 E8000000 		call	_ZN8UnitTest15MemoryOutStreamD1Ev
 3021      00
 3022 0216 4889D8   		movq	%rbx, %rax
 3023 0219 4889C7   		movq	%rax, %rdi
 3024              	.LEHB117:
 3025 021c E8000000 		call	_Unwind_Resume
 3025      00
 3026              	.LEHE117:
 3027              	.L186:
 3028              	.LBE22:
 3029              	.LBE23:
 3030              		.loc 5 84 0
 3031 0221 90       		nop
 3032 0222 488B45E8 		movq	-24(%rbp), %rax
 3033 0226 64483304 		xorq	%fs:40, %rax
 3033      25280000 
 3033      00
 3034 022f 7405     		je	.L184
 3035 0231 E8000000 		call	__stack_chk_fail
 3035      00
 3036              	.L184:
 3037 0236 4881C4E8 		addq	$488, %rsp
 3037      010000
 3038 023d 5B       		popq	%rbx
 3039 023e 5D       		popq	%rbp
 3040              		.cfi_def_cfa 7, 8
 3041 023f C3       		ret
 3042              		.cfi_endproc
 3043              	.LFE1192:
 3044              		.section	.gcc_except_table
 3045              	.LLSDA1192:
 3046 02ab FF       		.byte	0xff
 3047 02ac FF       		.byte	0xff
 3048 02ad 01       		.byte	0x1
 3049 02ae 16       		.uleb128 .LLSDACSE1192-.LLSDACSB1192
 3050              	.LLSDACSB1192:
 3051 02af D301     		.uleb128 .LEHB114-.LFB1192
 3052 02b1 05       		.uleb128 .LEHE114-.LEHB114
 3053 02b2 00       		.uleb128 0
 3054 02b3 00       		.uleb128 0
 3055 02b4 E701     		.uleb128 .LEHB115-.LFB1192
 3056 02b6 8C02     		.uleb128 .LEHE115-.LEHB115
 3057 02b8 8404     		.uleb128 .L185-.LFB1192
 3058 02ba 00       		.uleb128 0
 3059 02bb FD03     		.uleb128 .LEHB116-.LFB1192
 3060 02bd 05       		.uleb128 .LEHE116-.LEHB116
 3061 02be 00       		.uleb128 0
 3062 02bf 00       		.uleb128 0
 3063 02c0 9C04     		.uleb128 .LEHB117-.LFB1192
 3064 02c2 05       		.uleb128 .LEHE117-.LEHB117
 3065 02c3 00       		.uleb128 0
 3066 02c4 00       		.uleb128 0
 3067              	.LLSDACSE1192:
 3068              		.section	.text._ZN8UnitTest15CheckArrayEqualIPKcPhEEvRNS_11TestResultsERKT_RKT0_iRKNS_11TestDetail
 3070              		.section	.text._ZN8UnitTest5CheckIbEEbT_,"axG",@progbits,_ZN8UnitTest5CheckIbEEbT_,comdat
 3071              		.weak	_ZN8UnitTest5CheckIbEEbT_
 3073              	_ZN8UnitTest5CheckIbEEbT_:
 3074              	.LFB1202:
  12:/home/shubham/20140524/makestuff/libs/libutpp/Checks.h **** {
 3075              		.loc 5 12 0
 3076              		.cfi_startproc
 3077 0000 55       		pushq	%rbp
 3078              		.cfi_def_cfa_offset 16
 3079              		.cfi_offset 6, -16
 3080 0001 4889E5   		movq	%rsp, %rbp
 3081              		.cfi_def_cfa_register 6
 3082 0004 89F8     		movl	%edi, %eax
 3083 0006 8845FC   		movb	%al, -4(%rbp)
  14:/home/shubham/20140524/makestuff/libs/libutpp/Checks.h **** }
 3084              		.loc 5 14 0
 3085 0009 0FB645FC 		movzbl	-4(%rbp), %eax
  15:/home/shubham/20140524/makestuff/libs/libutpp/Checks.h **** 
 3086              		.loc 5 15 0
 3087 000d 5D       		popq	%rbp
 3088              		.cfi_def_cfa 7, 8
 3089 000e C3       		ret
 3090              		.cfi_endproc
 3091              	.LFE1202:
 3093              		.section	.text._ZNKSt4fposI11__mbstate_tEcvlEv,"axG",@progbits,_ZNKSt4fposI11__mbstate_tEcvlEv,com
 3094              		.align 2
 3095              		.weak	_ZNKSt4fposI11__mbstate_tEcvlEv
 3097              	_ZNKSt4fposI11__mbstate_tEcvlEv:
 3098              	.LFB1203:
 3099              		.file 6 "/usr/include/c++/5/bits/postypes.h"
   1:/usr/include/c++/5/bits/postypes.h **** // Position types -*- C++ -*-
   2:/usr/include/c++/5/bits/postypes.h **** 
   3:/usr/include/c++/5/bits/postypes.h **** // Copyright (C) 1997-2015 Free Software Foundation, Inc.
   4:/usr/include/c++/5/bits/postypes.h **** //
   5:/usr/include/c++/5/bits/postypes.h **** // This file is part of the GNU ISO C++ Library.  This library is free
   6:/usr/include/c++/5/bits/postypes.h **** // software; you can redistribute it and/or modify it under the
   7:/usr/include/c++/5/bits/postypes.h **** // terms of the GNU General Public License as published by the
   8:/usr/include/c++/5/bits/postypes.h **** // Free Software Foundation; either version 3, or (at your option)
   9:/usr/include/c++/5/bits/postypes.h **** // any later version.
  10:/usr/include/c++/5/bits/postypes.h **** 
  11:/usr/include/c++/5/bits/postypes.h **** // This library is distributed in the hope that it will be useful,
  12:/usr/include/c++/5/bits/postypes.h **** // but WITHOUT ANY WARRANTY; without even the implied warranty of
  13:/usr/include/c++/5/bits/postypes.h **** // MERCHANTABILITY or FITNESS FOR A PARTICULAR PURPOSE.  See the
  14:/usr/include/c++/5/bits/postypes.h **** // GNU General Public License for more details.
  15:/usr/include/c++/5/bits/postypes.h **** 
  16:/usr/include/c++/5/bits/postypes.h **** // Under Section 7 of GPL version 3, you are granted additional
  17:/usr/include/c++/5/bits/postypes.h **** // permissions described in the GCC Runtime Library Exception, version
  18:/usr/include/c++/5/bits/postypes.h **** // 3.1, as published by the Free Software Foundation.
  19:/usr/include/c++/5/bits/postypes.h **** 
  20:/usr/include/c++/5/bits/postypes.h **** // You should have received a copy of the GNU General Public License and
  21:/usr/include/c++/5/bits/postypes.h **** // a copy of the GCC Runtime Library Exception along with this program;
  22:/usr/include/c++/5/bits/postypes.h **** // see the files COPYING3 and COPYING.RUNTIME respectively.  If not, see
  23:/usr/include/c++/5/bits/postypes.h **** // <http://www.gnu.org/licenses/>.
  24:/usr/include/c++/5/bits/postypes.h **** 
  25:/usr/include/c++/5/bits/postypes.h **** /** @file bits/postypes.h
  26:/usr/include/c++/5/bits/postypes.h ****  *  This is an internal header file, included by other library headers.
  27:/usr/include/c++/5/bits/postypes.h ****  *  Do not attempt to use it directly. @headername{iosfwd}
  28:/usr/include/c++/5/bits/postypes.h ****  */
  29:/usr/include/c++/5/bits/postypes.h **** 
  30:/usr/include/c++/5/bits/postypes.h **** //
  31:/usr/include/c++/5/bits/postypes.h **** // ISO C++ 14882: 27.4.1 - Types
  32:/usr/include/c++/5/bits/postypes.h **** // ISO C++ 14882: 27.4.3 - Template class fpos
  33:/usr/include/c++/5/bits/postypes.h **** //
  34:/usr/include/c++/5/bits/postypes.h **** 
  35:/usr/include/c++/5/bits/postypes.h **** #ifndef _GLIBCXX_POSTYPES_H
  36:/usr/include/c++/5/bits/postypes.h **** #define _GLIBCXX_POSTYPES_H 1
  37:/usr/include/c++/5/bits/postypes.h **** 
  38:/usr/include/c++/5/bits/postypes.h **** #pragma GCC system_header
  39:/usr/include/c++/5/bits/postypes.h **** 
  40:/usr/include/c++/5/bits/postypes.h **** #include <cwchar> // For mbstate_t
  41:/usr/include/c++/5/bits/postypes.h **** 
  42:/usr/include/c++/5/bits/postypes.h **** // XXX If <stdint.h> is really needed, make sure to define the macros
  43:/usr/include/c++/5/bits/postypes.h **** // before including it, in order not to break <tr1/cstdint> (and <cstdint>
  44:/usr/include/c++/5/bits/postypes.h **** // in C++0x).  Reconsider all this as soon as possible...
  45:/usr/include/c++/5/bits/postypes.h **** #if (defined(_GLIBCXX_HAVE_INT64_T) && !defined(_GLIBCXX_HAVE_INT64_T_LONG) \
  46:/usr/include/c++/5/bits/postypes.h ****      && !defined(_GLIBCXX_HAVE_INT64_T_LONG_LONG))
  47:/usr/include/c++/5/bits/postypes.h **** 
  48:/usr/include/c++/5/bits/postypes.h **** #ifndef __STDC_LIMIT_MACROS
  49:/usr/include/c++/5/bits/postypes.h **** # define _UNDEF__STDC_LIMIT_MACROS
  50:/usr/include/c++/5/bits/postypes.h **** # define __STDC_LIMIT_MACROS
  51:/usr/include/c++/5/bits/postypes.h **** #endif
  52:/usr/include/c++/5/bits/postypes.h **** #ifndef __STDC_CONSTANT_MACROS
  53:/usr/include/c++/5/bits/postypes.h **** # define _UNDEF__STDC_CONSTANT_MACROS
  54:/usr/include/c++/5/bits/postypes.h **** # define __STDC_CONSTANT_MACROS
  55:/usr/include/c++/5/bits/postypes.h **** #endif
  56:/usr/include/c++/5/bits/postypes.h **** #include <stdint.h> // For int64_t
  57:/usr/include/c++/5/bits/postypes.h **** #ifdef _UNDEF__STDC_LIMIT_MACROS
  58:/usr/include/c++/5/bits/postypes.h **** # undef __STDC_LIMIT_MACROS
  59:/usr/include/c++/5/bits/postypes.h **** # undef _UNDEF__STDC_LIMIT_MACROS
  60:/usr/include/c++/5/bits/postypes.h **** #endif
  61:/usr/include/c++/5/bits/postypes.h **** #ifdef _UNDEF__STDC_CONSTANT_MACROS
  62:/usr/include/c++/5/bits/postypes.h **** # undef __STDC_CONSTANT_MACROS
  63:/usr/include/c++/5/bits/postypes.h **** # undef _UNDEF__STDC_CONSTANT_MACROS
  64:/usr/include/c++/5/bits/postypes.h **** #endif
  65:/usr/include/c++/5/bits/postypes.h **** 
  66:/usr/include/c++/5/bits/postypes.h **** #endif
  67:/usr/include/c++/5/bits/postypes.h **** 
  68:/usr/include/c++/5/bits/postypes.h **** namespace std _GLIBCXX_VISIBILITY(default)
  69:/usr/include/c++/5/bits/postypes.h **** {
  70:/usr/include/c++/5/bits/postypes.h **** _GLIBCXX_BEGIN_NAMESPACE_VERSION
  71:/usr/include/c++/5/bits/postypes.h **** 
  72:/usr/include/c++/5/bits/postypes.h ****   // The types streamoff, streampos and wstreampos and the class
  73:/usr/include/c++/5/bits/postypes.h ****   // template fpos<> are described in clauses 21.1.2, 21.1.3, 27.1.2,
  74:/usr/include/c++/5/bits/postypes.h ****   // 27.2, 27.4.1, 27.4.3 and D.6. Despite all this verbiage, the
  75:/usr/include/c++/5/bits/postypes.h ****   // behaviour of these types is mostly implementation defined or
  76:/usr/include/c++/5/bits/postypes.h ****   // unspecified. The behaviour in this implementation is as noted
  77:/usr/include/c++/5/bits/postypes.h ****   // below.
  78:/usr/include/c++/5/bits/postypes.h **** 
  79:/usr/include/c++/5/bits/postypes.h ****   /**
  80:/usr/include/c++/5/bits/postypes.h ****    *  @brief  Type used by fpos, char_traits<char>, and char_traits<wchar_t>.
  81:/usr/include/c++/5/bits/postypes.h ****    *
  82:/usr/include/c++/5/bits/postypes.h ****    *  In clauses 21.1.3.1 and 27.4.1 streamoff is described as an
  83:/usr/include/c++/5/bits/postypes.h ****    *  implementation defined type.
  84:/usr/include/c++/5/bits/postypes.h ****    *  Note: In versions of GCC up to and including GCC 3.3, streamoff
  85:/usr/include/c++/5/bits/postypes.h ****    *  was typedef long.
  86:/usr/include/c++/5/bits/postypes.h ****   */  
  87:/usr/include/c++/5/bits/postypes.h **** #ifdef _GLIBCXX_HAVE_INT64_T_LONG
  88:/usr/include/c++/5/bits/postypes.h ****   typedef long          streamoff;
  89:/usr/include/c++/5/bits/postypes.h **** #elif defined(_GLIBCXX_HAVE_INT64_T_LONG_LONG)
  90:/usr/include/c++/5/bits/postypes.h ****   typedef long long     streamoff;
  91:/usr/include/c++/5/bits/postypes.h **** #elif defined(_GLIBCXX_HAVE_INT64_T) 
  92:/usr/include/c++/5/bits/postypes.h ****   typedef int64_t       streamoff;
  93:/usr/include/c++/5/bits/postypes.h **** #else
  94:/usr/include/c++/5/bits/postypes.h ****   typedef long long     streamoff;
  95:/usr/include/c++/5/bits/postypes.h **** #endif
  96:/usr/include/c++/5/bits/postypes.h **** 
  97:/usr/include/c++/5/bits/postypes.h ****   /// Integral type for I/O operation counts and buffer sizes.
  98:/usr/include/c++/5/bits/postypes.h ****   typedef ptrdiff_t	streamsize; // Signed integral type
  99:/usr/include/c++/5/bits/postypes.h **** 
 100:/usr/include/c++/5/bits/postypes.h ****   /**
 101:/usr/include/c++/5/bits/postypes.h ****    *  @brief  Class representing stream positions.
 102:/usr/include/c++/5/bits/postypes.h ****    *
 103:/usr/include/c++/5/bits/postypes.h ****    *  The standard places no requirements upon the template parameter StateT.
 104:/usr/include/c++/5/bits/postypes.h ****    *  In this implementation StateT must be DefaultConstructible,
 105:/usr/include/c++/5/bits/postypes.h ****    *  CopyConstructible and Assignable.  The standard only requires that fpos
 106:/usr/include/c++/5/bits/postypes.h ****    *  should contain a member of type StateT. In this implementation it also
 107:/usr/include/c++/5/bits/postypes.h ****    *  contains an offset stored as a signed integer.
 108:/usr/include/c++/5/bits/postypes.h ****    *
 109:/usr/include/c++/5/bits/postypes.h ****    *  @param  StateT  Type passed to and returned from state().
 110:/usr/include/c++/5/bits/postypes.h ****    */
 111:/usr/include/c++/5/bits/postypes.h ****   template<typename _StateT>
 112:/usr/include/c++/5/bits/postypes.h ****     class fpos
 113:/usr/include/c++/5/bits/postypes.h ****     {
 114:/usr/include/c++/5/bits/postypes.h ****     private:
 115:/usr/include/c++/5/bits/postypes.h ****       streamoff	                _M_off;
 116:/usr/include/c++/5/bits/postypes.h ****       _StateT			_M_state;
 117:/usr/include/c++/5/bits/postypes.h **** 
 118:/usr/include/c++/5/bits/postypes.h ****     public:
 119:/usr/include/c++/5/bits/postypes.h ****       // The standard doesn't require that fpos objects can be default
 120:/usr/include/c++/5/bits/postypes.h ****       // constructed. This implementation provides a default
 121:/usr/include/c++/5/bits/postypes.h ****       // constructor that initializes the offset to 0 and default
 122:/usr/include/c++/5/bits/postypes.h ****       // constructs the state.
 123:/usr/include/c++/5/bits/postypes.h ****       fpos()
 124:/usr/include/c++/5/bits/postypes.h ****       : _M_off(0), _M_state() { }
 125:/usr/include/c++/5/bits/postypes.h **** 
 126:/usr/include/c++/5/bits/postypes.h ****       // The standard requires that fpos objects can be constructed
 127:/usr/include/c++/5/bits/postypes.h ****       // from streamoff objects using the constructor syntax, and
 128:/usr/include/c++/5/bits/postypes.h ****       // fails to give any meaningful semantics. In this
 129:/usr/include/c++/5/bits/postypes.h ****       // implementation implicit conversion is also allowed, and this
 130:/usr/include/c++/5/bits/postypes.h ****       // constructor stores the streamoff as the offset and default
 131:/usr/include/c++/5/bits/postypes.h ****       // constructs the state.
 132:/usr/include/c++/5/bits/postypes.h ****       /// Construct position from offset.
 133:/usr/include/c++/5/bits/postypes.h ****       fpos(streamoff __off)
 134:/usr/include/c++/5/bits/postypes.h ****       : _M_off(__off), _M_state() { }
 135:/usr/include/c++/5/bits/postypes.h **** 
 136:/usr/include/c++/5/bits/postypes.h ****       /// Convert to streamoff.
 137:/usr/include/c++/5/bits/postypes.h ****       operator streamoff() const { return _M_off; }
 3100              		.loc 6 137 0
 3101              		.cfi_startproc
 3102 0000 55       		pushq	%rbp
 3103              		.cfi_def_cfa_offset 16
 3104              		.cfi_offset 6, -16
 3105 0001 4889E5   		movq	%rsp, %rbp
 3106              		.cfi_def_cfa_register 6
 3107 0004 48897DF8 		movq	%rdi, -8(%rbp)
 3108              		.loc 6 137 0
 3109 0008 488B45F8 		movq	-8(%rbp), %rax
 3110 000c 488B00   		movq	(%rax), %rax
 3111 000f 5D       		popq	%rbp
 3112              		.cfi_def_cfa 7, 8
 3113 0010 C3       		ret
 3114              		.cfi_endproc
 3115              	.LFE1203:
 3117              		.section	.text._ZN8UnitTest15CheckArrayEqualIPKcPcEEvRNS_11TestResultsERKT_RKT0_iRKNS_11TestDetail
 3118              		.weak	_ZN8UnitTest15CheckArrayEqualIPKcPcEEvRNS_11TestResultsERKT_RKT0_iRKNS_11TestDetailsE
 3120              	_ZN8UnitTest15CheckArrayEqualIPKcPcEEvRNS_11TestResultsERKT_RKT0_iRKNS_11TestDetailsE:
 3121              	.LFB1205:
  59:/home/shubham/20140524/makestuff/libs/libutpp/Checks.h ****                 int const count, TestDetails const& details)
 3122              		.loc 5 59 0
 3123              		.cfi_startproc
 3124              		.cfi_personality 0x3,__gxx_personality_v0
 3125              		.cfi_lsda 0x3,.LLSDA1205
 3126 0000 55       		pushq	%rbp
 3127              		.cfi_def_cfa_offset 16
 3128              		.cfi_offset 6, -16
 3129 0001 4889E5   		movq	%rsp, %rbp
 3130              		.cfi_def_cfa_register 6
 3131 0004 53       		pushq	%rbx
 3132 0005 4881ECE8 		subq	$488, %rsp
 3132      010000
 3133              		.cfi_offset 3, -24
 3134 000c 4889BD38 		movq	%rdi, -456(%rbp)
 3134      FEFFFF
 3135 0013 4889B530 		movq	%rsi, -464(%rbp)
 3135      FEFFFF
 3136 001a 48899528 		movq	%rdx, -472(%rbp)
 3136      FEFFFF
 3137 0021 898D24FE 		movl	%ecx, -476(%rbp)
 3137      FFFF
 3138 0027 4C898518 		movq	%r8, -488(%rbp)
 3138      FEFFFF
  59:/home/shubham/20140524/makestuff/libs/libutpp/Checks.h ****                 int const count, TestDetails const& details)
 3139              		.loc 5 59 0
 3140 002e 64488B04 		movq	%fs:40, %rax
 3140      25280000 
 3140      00
 3141 0037 488945E8 		movq	%rax, -24(%rbp)
 3142 003b 31C0     		xorl	%eax, %eax
  62:/home/shubham/20140524/makestuff/libs/libutpp/Checks.h ****     for (int i = 0; i < count; ++i)
 3143              		.loc 5 62 0
 3144 003d C68543FE 		movb	$1, -445(%rbp)
 3144      FFFF01
 3145              	.LBB24:
  63:/home/shubham/20140524/makestuff/libs/libutpp/Checks.h ****         equal &= (expected[i] == actual[i]);
 3146              		.loc 5 63 0
 3147 0044 C78544FE 		movl	$0, -444(%rbp)
 3147      FFFF0000 
 3147      0000
 3148              	.L193:
  63:/home/shubham/20140524/makestuff/libs/libutpp/Checks.h ****         equal &= (expected[i] == actual[i]);
 3149              		.loc 5 63 0 is_stmt 0 discriminator 3
 3150 004e 8B8544FE 		movl	-444(%rbp), %eax
 3150      FFFF
 3151 0054 3B8524FE 		cmpl	-476(%rbp), %eax
 3151      FFFF
 3152 005a 7D55     		jge	.L192
  64:/home/shubham/20140524/makestuff/libs/libutpp/Checks.h **** 
 3153              		.loc 5 64 0 is_stmt 1 discriminator 2
 3154 005c 0FB69543 		movzbl	-445(%rbp), %edx
 3154      FEFFFF
 3155 0063 488B8530 		movq	-464(%rbp), %rax
 3155      FEFFFF
 3156 006a 488B08   		movq	(%rax), %rcx
 3157 006d 8B8544FE 		movl	-444(%rbp), %eax
 3157      FFFF
 3158 0073 4898     		cltq
 3159 0075 4801C8   		addq	%rcx, %rax
 3160 0078 0FB608   		movzbl	(%rax), %ecx
 3161 007b 488B8528 		movq	-472(%rbp), %rax
 3161      FEFFFF
 3162 0082 488B30   		movq	(%rax), %rsi
 3163 0085 8B8544FE 		movl	-444(%rbp), %eax
 3163      FFFF
 3164 008b 4898     		cltq
 3165 008d 4801F0   		addq	%rsi, %rax
 3166 0090 0FB600   		movzbl	(%rax), %eax
 3167 0093 38C1     		cmpb	%al, %cl
 3168 0095 0F94C0   		sete	%al
 3169 0098 0FB6C0   		movzbl	%al, %eax
 3170 009b 21D0     		andl	%edx, %eax
 3171 009d 85C0     		testl	%eax, %eax
 3172 009f 0F95C0   		setne	%al
 3173 00a2 888543FE 		movb	%al, -445(%rbp)
 3173      FFFF
  63:/home/shubham/20140524/makestuff/libs/libutpp/Checks.h ****         equal &= (expected[i] == actual[i]);
 3174              		.loc 5 63 0 discriminator 2
 3175 00a8 838544FE 		addl	$1, -444(%rbp)
 3175      FFFF01
 3176 00af EB9D     		jmp	.L193
 3177              	.L192:
 3178              	.LBE24:
 3179              	.LBB25:
  66:/home/shubham/20140524/makestuff/libs/libutpp/Checks.h ****     {
 3180              		.loc 5 66 0
 3181 00b1 0FB68543 		movzbl	-445(%rbp), %eax
 3181      FEFFFF
 3182 00b8 83F001   		xorl	$1, %eax
 3183 00bb 84C0     		testb	%al, %al
 3184 00bd 0F845801 		je	.L202
 3184      0000
 3185              	.LBB26:
  68:/home/shubham/20140524/makestuff/libs/libutpp/Checks.h **** 
 3186              		.loc 5 68 0
 3187 00c3 488D8550 		leaq	-432(%rbp), %rax
 3187      FEFFFF
 3188 00ca 4889C7   		movq	%rax, %rdi
 3189              	.LEHB118:
 3190 00cd E8000000 		call	_ZN8UnitTest15MemoryOutStreamC1Ev
 3190      00
 3191              	.LEHE118:
  70:/home/shubham/20140524/makestuff/libs/libutpp/Checks.h **** 
 3192              		.loc 5 70 0
 3193 00d2 488D8550 		leaq	-432(%rbp), %rax
 3193      FEFFFF
 3194 00d9 BE000000 		movl	$.LC22, %esi
 3194      00
 3195 00de 4889C7   		movq	%rax, %rdi
 3196              	.LEHB119:
 3197 00e1 E8000000 		call	_ZStlsISt11char_traitsIcEERSt13basic_ostreamIcT_ES5_PKc
 3197      00
 3198              	.LBB27:
  72:/home/shubham/20140524/makestuff/libs/libutpp/Checks.h ****             stream << expected[expectedIndex] << " ";
 3199              		.loc 5 72 0
 3200 00e6 C78548FE 		movl	$0, -440(%rbp)
 3200      FFFF0000 
 3200      0000
 3201              	.L196:
  72:/home/shubham/20140524/makestuff/libs/libutpp/Checks.h ****             stream << expected[expectedIndex] << " ";
 3202              		.loc 5 72 0 is_stmt 0 discriminator 1
 3203 00f0 8B8548FE 		movl	-440(%rbp), %eax
 3203      FFFF
 3204 00f6 3B8524FE 		cmpl	-476(%rbp), %eax
 3204      FFFF
 3205 00fc 7D42     		jge	.L195
  73:/home/shubham/20140524/makestuff/libs/libutpp/Checks.h **** 
 3206              		.loc 5 73 0 is_stmt 1
 3207 00fe 488B8530 		movq	-464(%rbp), %rax
 3207      FEFFFF
 3208 0105 488B10   		movq	(%rax), %rdx
 3209 0108 8B8548FE 		movl	-440(%rbp), %eax
 3209      FFFF
 3210 010e 4898     		cltq
 3211 0110 4801D0   		addq	%rdx, %rax
 3212 0113 0FB600   		movzbl	(%rax), %eax
 3213 0116 0FBED0   		movsbl	%al, %edx
 3214 0119 488D8550 		leaq	-432(%rbp), %rax
 3214      FEFFFF
 3215 0120 89D6     		movl	%edx, %esi
 3216 0122 4889C7   		movq	%rax, %rdi
 3217 0125 E8000000 		call	_ZStlsISt11char_traitsIcEERSt13basic_ostreamIcT_ES5_c
 3217      00
 3218 012a BE000000 		movl	$.LC23, %esi
 3218      00
 3219 012f 4889C7   		movq	%rax, %rdi
 3220 0132 E8000000 		call	_ZStlsISt11char_traitsIcEERSt13basic_ostreamIcT_ES5_PKc
 3220      00
  72:/home/shubham/20140524/makestuff/libs/libutpp/Checks.h ****             stream << expected[expectedIndex] << " ";
 3221              		.loc 5 72 0 discriminator 2
 3222 0137 838548FE 		addl	$1, -440(%rbp)
 3222      FFFF01
 3223 013e EBB0     		jmp	.L196
 3224              	.L195:
 3225              	.LBE27:
  75:/home/shubham/20140524/makestuff/libs/libutpp/Checks.h **** 
 3226              		.loc 5 75 0
 3227 0140 488D8550 		leaq	-432(%rbp), %rax
 3227      FEFFFF
 3228 0147 BE000000 		movl	$.LC24, %esi
 3228      00
 3229 014c 4889C7   		movq	%rax, %rdi
 3230 014f E8000000 		call	_ZStlsISt11char_traitsIcEERSt13basic_ostreamIcT_ES5_PKc
 3230      00
 3231              	.LBB28:
  77:/home/shubham/20140524/makestuff/libs/libutpp/Checks.h ****             stream << actual[actualIndex] << " ";
 3232              		.loc 5 77 0
 3233 0154 C7854CFE 		movl	$0, -436(%rbp)
 3233      FFFF0000 
 3233      0000
 3234              	.L198:
  77:/home/shubham/20140524/makestuff/libs/libutpp/Checks.h ****             stream << actual[actualIndex] << " ";
 3235              		.loc 5 77 0 is_stmt 0 discriminator 1
 3236 015e 8B854CFE 		movl	-436(%rbp), %eax
 3236      FFFF
 3237 0164 3B8524FE 		cmpl	-476(%rbp), %eax
 3237      FFFF
 3238 016a 7D42     		jge	.L197
  78:/home/shubham/20140524/makestuff/libs/libutpp/Checks.h **** 
 3239              		.loc 5 78 0 is_stmt 1
 3240 016c 488B8528 		movq	-472(%rbp), %rax
 3240      FEFFFF
 3241 0173 488B10   		movq	(%rax), %rdx
 3242 0176 8B854CFE 		movl	-436(%rbp), %eax
 3242      FFFF
 3243 017c 4898     		cltq
 3244 017e 4801D0   		addq	%rdx, %rax
 3245 0181 0FB600   		movzbl	(%rax), %eax
 3246 0184 0FBED0   		movsbl	%al, %edx
 3247 0187 488D8550 		leaq	-432(%rbp), %rax
 3247      FEFFFF
 3248 018e 89D6     		movl	%edx, %esi
 3249 0190 4889C7   		movq	%rax, %rdi
 3250 0193 E8000000 		call	_ZStlsISt11char_traitsIcEERSt13basic_ostreamIcT_ES5_c
 3250      00
 3251 0198 BE000000 		movl	$.LC23, %esi
 3251      00
 3252 019d 4889C7   		movq	%rax, %rdi
 3253 01a0 E8000000 		call	_ZStlsISt11char_traitsIcEERSt13basic_ostreamIcT_ES5_PKc
 3253      00
  77:/home/shubham/20140524/makestuff/libs/libutpp/Checks.h ****             stream << actual[actualIndex] << " ";
 3254              		.loc 5 77 0 discriminator 2
 3255 01a5 83854CFE 		addl	$1, -436(%rbp)
 3255      FFFF01
 3256 01ac EBB0     		jmp	.L198
 3257              	.L197:
 3258              	.LBE28:
  80:/home/shubham/20140524/makestuff/libs/libutpp/Checks.h **** 
 3259              		.loc 5 80 0
 3260 01ae 488D8550 		leaq	-432(%rbp), %rax
 3260      FEFFFF
 3261 01b5 BE000000 		movl	$.LC25, %esi
 3261      00
 3262 01ba 4889C7   		movq	%rax, %rdi
 3263 01bd E8000000 		call	_ZStlsISt11char_traitsIcEERSt13basic_ostreamIcT_ES5_PKc
 3263      00
  82:/home/shubham/20140524/makestuff/libs/libutpp/Checks.h ****     }
 3264              		.loc 5 82 0
 3265 01c2 488D8550 		leaq	-432(%rbp), %rax
 3265      FEFFFF
 3266 01c9 4889C7   		movq	%rax, %rdi
 3267 01cc E8000000 		call	_ZNK8UnitTest15MemoryOutStream7GetTextEv
 3267      00
 3268 01d1 4889C2   		movq	%rax, %rdx
 3269 01d4 488B8D18 		movq	-488(%rbp), %rcx
 3269      FEFFFF
 3270 01db 488B8538 		movq	-456(%rbp), %rax
 3270      FEFFFF
 3271 01e2 4889CE   		movq	%rcx, %rsi
 3272 01e5 4889C7   		movq	%rax, %rdi
 3273 01e8 E8000000 		call	_ZN8UnitTest11TestResults13OnTestFailureERKNS_11TestDetailsEPKc
 3273      00
 3274              	.LEHE119:
  68:/home/shubham/20140524/makestuff/libs/libutpp/Checks.h **** 
 3275              		.loc 5 68 0
 3276 01ed 488D8550 		leaq	-432(%rbp), %rax
 3276      FEFFFF
 3277 01f4 4889C7   		movq	%rax, %rdi
 3278              	.LEHB120:
 3279 01f7 E8000000 		call	_ZN8UnitTest15MemoryOutStreamD1Ev
 3279      00
 3280              	.LEHE120:
 3281              	.LBE26:
 3282              	.LBE25:
 3283              		.loc 5 84 0
 3284 01fc EB1D     		jmp	.L202
 3285              	.L201:
 3286 01fe 4889C3   		movq	%rax, %rbx
 3287              	.LBB30:
 3288              	.LBB29:
  68:/home/shubham/20140524/makestuff/libs/libutpp/Checks.h **** 
 3289              		.loc 5 68 0
 3290 0201 488D8550 		leaq	-432(%rbp), %rax
 3290      FEFFFF
 3291 0208 4889C7   		movq	%rax, %rdi
 3292 020b E8000000 		call	_ZN8UnitTest15MemoryOutStreamD1Ev
 3292      00
 3293 0210 4889D8   		movq	%rbx, %rax
 3294 0213 4889C7   		movq	%rax, %rdi
 3295              	.LEHB121:
 3296 0216 E8000000 		call	_Unwind_Resume
 3296      00
 3297              	.LEHE121:
 3298              	.L202:
 3299              	.LBE29:
 3300              	.LBE30:
 3301              		.loc 5 84 0
 3302 021b 90       		nop
 3303 021c 488B45E8 		movq	-24(%rbp), %rax
 3304 0220 64483304 		xorq	%fs:40, %rax
 3304      25280000 
 3304      00
 3305 0229 7405     		je	.L200
 3306 022b E8000000 		call	__stack_chk_fail
 3306      00
 3307              	.L200:
 3308 0230 4881C4E8 		addq	$488, %rsp
 3308      010000
 3309 0237 5B       		popq	%rbx
 3310 0238 5D       		popq	%rbp
 3311              		.cfi_def_cfa 7, 8
 3312 0239 C3       		ret
 3313              		.cfi_endproc
 3314              	.LFE1205:
 3315              		.section	.gcc_except_table
 3316              	.LLSDA1205:
 3317 02c5 FF       		.byte	0xff
 3318 02c6 FF       		.byte	0xff
 3319 02c7 01       		.byte	0x1
 3320 02c8 16       		.uleb128 .LLSDACSE1205-.LLSDACSB1205
 3321              	.LLSDACSB1205:
 3322 02c9 CD01     		.uleb128 .LEHB118-.LFB1205
 3323 02cb 05       		.uleb128 .LEHE118-.LEHB118
 3324 02cc 00       		.uleb128 0
 3325 02cd 00       		.uleb128 0
 3326 02ce E101     		.uleb128 .LEHB119-.LFB1205
 3327 02d0 8C02     		.uleb128 .LEHE119-.LEHB119
 3328 02d2 FE03     		.uleb128 .L201-.LFB1205
 3329 02d4 00       		.uleb128 0
 3330 02d5 F703     		.uleb128 .LEHB120-.LFB1205
 3331 02d7 05       		.uleb128 .LEHE120-.LEHB120
 3332 02d8 00       		.uleb128 0
 3333 02d9 00       		.uleb128 0
 3334 02da 9604     		.uleb128 .LEHB121-.LFB1205
 3335 02dc 05       		.uleb128 .LEHE121-.LEHB121
 3336 02dd 00       		.uleb128 0
 3337 02de 00       		.uleb128 0
 3338              	.LLSDACSE1205:
 3339              		.section	.text._ZN8UnitTest15CheckArrayEqualIPKcPcEEvRNS_11TestResultsERKT_RKT0_iRKNS_11TestDetail
 3341              		.section	.text._ZN8UnitTest10CheckEqualIilEEvRNS_11TestResultsERKT_RKT0_RKNS_11TestDetailsE,"axG",
 3342              		.weak	_ZN8UnitTest10CheckEqualIilEEvRNS_11TestResultsERKT_RKT0_RKNS_11TestDetailsE
 3344              	_ZN8UnitTest10CheckEqualIilEEvRNS_11TestResultsERKT_RKT0_RKNS_11TestDetailsE:
 3345              	.LFB1206:
  19:/home/shubham/20140524/makestuff/libs/libutpp/Checks.h **** {
 3346              		.loc 5 19 0
 3347              		.cfi_startproc
 3348              		.cfi_personality 0x3,__gxx_personality_v0
 3349              		.cfi_lsda 0x3,.LLSDA1206
 3350 0000 55       		pushq	%rbp
 3351              		.cfi_def_cfa_offset 16
 3352              		.cfi_offset 6, -16
 3353 0001 4889E5   		movq	%rsp, %rbp
 3354              		.cfi_def_cfa_register 6
 3355 0004 4154     		pushq	%r12
 3356 0006 53       		pushq	%rbx
 3357 0007 4881ECC0 		subq	$448, %rsp
 3357      010000
 3358              		.cfi_offset 12, -24
 3359              		.cfi_offset 3, -32
 3360 000e 4889BD48 		movq	%rdi, -440(%rbp)
 3360      FEFFFF
 3361 0015 4889B540 		movq	%rsi, -448(%rbp)
 3361      FEFFFF
 3362 001c 48899538 		movq	%rdx, -456(%rbp)
 3362      FEFFFF
 3363 0023 48898D30 		movq	%rcx, -464(%rbp)
 3363      FEFFFF
  19:/home/shubham/20140524/makestuff/libs/libutpp/Checks.h **** {
 3364              		.loc 5 19 0
 3365 002a 64488B04 		movq	%fs:40, %rax
 3365      25280000 
 3365      00
 3366 0033 488945E8 		movq	%rax, -24(%rbp)
 3367 0037 31C0     		xorl	%eax, %eax
 3368              	.LBB31:
  21:/home/shubham/20140524/makestuff/libs/libutpp/Checks.h ****     {
 3369              		.loc 5 21 0
 3370 0039 488B8540 		movq	-448(%rbp), %rax
 3370      FEFFFF
 3371 0040 8B00     		movl	(%rax), %eax
 3372 0042 4863D0   		movslq	%eax, %rdx
 3373 0045 488B8538 		movq	-456(%rbp), %rax
 3373      FEFFFF
 3374 004c 488B00   		movq	(%rax), %rax
 3375 004f 4839C2   		cmpq	%rax, %rdx
 3376 0052 0F84B300 		je	.L208
 3376      0000
 3377              	.LBB32:
  23:/home/shubham/20140524/makestuff/libs/libutpp/Checks.h ****         stream << "Expected " << expected << " but was " << actual;
 3378              		.loc 5 23 0
 3379 0058 488D8550 		leaq	-432(%rbp), %rax
 3379      FEFFFF
 3380 005f 4889C7   		movq	%rax, %rdi
 3381              	.LEHB122:
 3382 0062 E8000000 		call	_ZN8UnitTest15MemoryOutStreamC1Ev
 3382      00
 3383              	.LEHE122:
  24:/home/shubham/20140524/makestuff/libs/libutpp/Checks.h **** 
 3384              		.loc 5 24 0
 3385 0067 488B8538 		movq	-456(%rbp), %rax
 3385      FEFFFF
 3386 006e 488B18   		movq	(%rax), %rbx
 3387 0071 488B8540 		movq	-448(%rbp), %rax
 3387      FEFFFF
 3388 0078 448B20   		movl	(%rax), %r12d
 3389 007b 488D8550 		leaq	-432(%rbp), %rax
 3389      FEFFFF
 3390 0082 BE000000 		movl	$.LC20, %esi
 3390      00
 3391 0087 4889C7   		movq	%rax, %rdi
 3392              	.LEHB123:
 3393 008a E8000000 		call	_ZStlsISt11char_traitsIcEERSt13basic_ostreamIcT_ES5_PKc
 3393      00
 3394 008f 4489E6   		movl	%r12d, %esi
 3395 0092 4889C7   		movq	%rax, %rdi
 3396 0095 E8000000 		call	_ZNSolsEi
 3396      00
  24:/home/shubham/20140524/makestuff/libs/libutpp/Checks.h **** 
 3397              		.loc 5 24 0 is_stmt 0 discriminator 1
 3398 009a BE000000 		movl	$.LC21, %esi
 3398      00
 3399 009f 4889C7   		movq	%rax, %rdi
 3400 00a2 E8000000 		call	_ZStlsISt11char_traitsIcEERSt13basic_ostreamIcT_ES5_PKc
 3400      00
  24:/home/shubham/20140524/makestuff/libs/libutpp/Checks.h **** 
 3401              		.loc 5 24 0 discriminator 2
 3402 00a7 4889DE   		movq	%rbx, %rsi
 3403 00aa 4889C7   		movq	%rax, %rdi
 3404 00ad E8000000 		call	_ZNSolsEl
 3404      00
  26:/home/shubham/20140524/makestuff/libs/libutpp/Checks.h ****     }
 3405              		.loc 5 26 0 is_stmt 1
 3406 00b2 488D8550 		leaq	-432(%rbp), %rax
 3406      FEFFFF
 3407 00b9 4889C7   		movq	%rax, %rdi
 3408 00bc E8000000 		call	_ZNK8UnitTest15MemoryOutStream7GetTextEv
 3408      00
 3409 00c1 4889C2   		movq	%rax, %rdx
 3410 00c4 488B8D30 		movq	-464(%rbp), %rcx
 3410      FEFFFF
 3411 00cb 488B8548 		movq	-440(%rbp), %rax
 3411      FEFFFF
 3412 00d2 4889CE   		movq	%rcx, %rsi
 3413 00d5 4889C7   		movq	%rax, %rdi
 3414 00d8 E8000000 		call	_ZN8UnitTest11TestResults13OnTestFailureERKNS_11TestDetailsEPKc
 3414      00
 3415              	.LEHE123:
  23:/home/shubham/20140524/makestuff/libs/libutpp/Checks.h ****         stream << "Expected " << expected << " but was " << actual;
 3416              		.loc 5 23 0
 3417 00dd 488D8550 		leaq	-432(%rbp), %rax
 3417      FEFFFF
 3418 00e4 4889C7   		movq	%rax, %rdi
 3419              	.LEHB124:
 3420 00e7 E8000000 		call	_ZN8UnitTest15MemoryOutStreamD1Ev
 3420      00
 3421              	.LEHE124:
 3422              	.LBE32:
 3423              	.LBE31:
  28:/home/shubham/20140524/makestuff/libs/libutpp/Checks.h **** 
 3424              		.loc 5 28 0
 3425 00ec EB1D     		jmp	.L208
 3426              	.L207:
 3427 00ee 4889C3   		movq	%rax, %rbx
 3428              	.LBB34:
 3429              	.LBB33:
  23:/home/shubham/20140524/makestuff/libs/libutpp/Checks.h ****         stream << "Expected " << expected << " but was " << actual;
 3430              		.loc 5 23 0
 3431 00f1 488D8550 		leaq	-432(%rbp), %rax
 3431      FEFFFF
 3432 00f8 4889C7   		movq	%rax, %rdi
 3433 00fb E8000000 		call	_ZN8UnitTest15MemoryOutStreamD1Ev
 3433      00
 3434 0100 4889D8   		movq	%rbx, %rax
 3435 0103 4889C7   		movq	%rax, %rdi
 3436              	.LEHB125:
 3437 0106 E8000000 		call	_Unwind_Resume
 3437      00
 3438              	.LEHE125:
 3439              	.L208:
 3440              	.LBE33:
 3441              	.LBE34:
  28:/home/shubham/20140524/makestuff/libs/libutpp/Checks.h **** 
 3442              		.loc 5 28 0
 3443 010b 90       		nop
 3444 010c 488B45E8 		movq	-24(%rbp), %rax
 3445 0110 64483304 		xorq	%fs:40, %rax
 3445      25280000 
 3445      00
 3446 0119 7405     		je	.L206
 3447 011b E8000000 		call	__stack_chk_fail
 3447      00
 3448              	.L206:
 3449 0120 4881C4C0 		addq	$448, %rsp
 3449      010000
 3450 0127 5B       		popq	%rbx
 3451 0128 415C     		popq	%r12
 3452 012a 5D       		popq	%rbp
 3453              		.cfi_def_cfa 7, 8
 3454 012b C3       		ret
 3455              		.cfi_endproc
 3456              	.LFE1206:
 3457              		.section	.gcc_except_table
 3458              	.LLSDA1206:
 3459 02df FF       		.byte	0xff
 3460 02e0 FF       		.byte	0xff
 3461 02e1 01       		.byte	0x1
 3462 02e2 14       		.uleb128 .LLSDACSE1206-.LLSDACSB1206
 3463              	.LLSDACSB1206:
 3464 02e3 62       		.uleb128 .LEHB122-.LFB1206
 3465 02e4 05       		.uleb128 .LEHE122-.LEHB122
 3466 02e5 00       		.uleb128 0
 3467 02e6 00       		.uleb128 0
 3468 02e7 8A01     		.uleb128 .LEHB123-.LFB1206
 3469 02e9 53       		.uleb128 .LEHE123-.LEHB123
 3470 02ea EE01     		.uleb128 .L207-.LFB1206
 3471 02ec 00       		.uleb128 0
 3472 02ed E701     		.uleb128 .LEHB124-.LFB1206
 3473 02ef 05       		.uleb128 .LEHE124-.LEHB124
 3474 02f0 00       		.uleb128 0
 3475 02f1 00       		.uleb128 0
 3476 02f2 8602     		.uleb128 .LEHB125-.LFB1206
 3477 02f4 05       		.uleb128 .LEHE125-.LEHB125
 3478 02f5 00       		.uleb128 0
 3479 02f6 00       		.uleb128 0
 3480              	.LLSDACSE1206:
 3481              		.section	.text._ZN8UnitTest10CheckEqualIilEEvRNS_11TestResultsERKT_RKT0_RKNS_11TestDetailsE,"axG",
 3483              		.weak	_ZTV23TestBinIO_testWriteFile
 3484              		.section	.rodata._ZTV23TestBinIO_testWriteFile,"aG",@progbits,_ZTV23TestBinIO_testWriteFile,comdat
 3485              		.align 8
 3488              	_ZTV23TestBinIO_testWriteFile:
 3489 0000 00000000 		.quad	0
 3489      00000000 
 3490 0008 00000000 		.quad	_ZTI23TestBinIO_testWriteFile
 3490      00000000 
 3491 0010 00000000 		.quad	_ZN23TestBinIO_testWriteFileD1Ev
 3491      00000000 
 3492 0018 00000000 		.quad	_ZN23TestBinIO_testWriteFileD0Ev
 3492      00000000 
 3493 0020 00000000 		.quad	_ZNK23TestBinIO_testWriteFile7RunImplEv
 3493      00000000 
 3494              		.section	.text._ZN23TestBinIO_testWriteFileD2Ev,"axG",@progbits,_ZN23TestBinIO_testWriteFileD5Ev,c
 3495              		.align 2
 3496              		.weak	_ZN23TestBinIO_testWriteFileD2Ev
 3498              	_ZN23TestBinIO_testWriteFileD2Ev:
 3499              	.LFB1275:
  54:testBinIO.cpp **** 	const char *const FILENAME = "tmpFile.bin";
 3500              		.loc 4 54 0
 3501              		.cfi_startproc
 3502 0000 55       		pushq	%rbp
 3503              		.cfi_def_cfa_offset 16
 3504              		.cfi_offset 6, -16
 3505 0001 4889E5   		movq	%rsp, %rbp
 3506              		.cfi_def_cfa_register 6
 3507 0004 4883EC10 		subq	$16, %rsp
 3508 0008 48897DF8 		movq	%rdi, -8(%rbp)
 3509              	.LBB35:
  54:testBinIO.cpp **** 	const char *const FILENAME = "tmpFile.bin";
 3510              		.loc 4 54 0
 3511 000c BA000000 		movl	$_ZTV23TestBinIO_testWriteFile+16, %edx
 3511      00
 3512 0011 488B45F8 		movq	-8(%rbp), %rax
 3513 0015 488910   		movq	%rdx, (%rax)
 3514 0018 488B45F8 		movq	-8(%rbp), %rax
 3515 001c 4889C7   		movq	%rax, %rdi
 3516 001f E8000000 		call	_ZN8UnitTest4TestD2Ev
 3516      00
 3517              	.LBE35:
 3518 0024 B8000000 		movl	$0, %eax
 3518      00
 3519 0029 85C0     		testl	%eax, %eax
 3520 002b 740C     		je	.L209
  54:testBinIO.cpp **** 	const char *const FILENAME = "tmpFile.bin";
 3521              		.loc 4 54 0 is_stmt 0 discriminator 4
 3522 002d 488B45F8 		movq	-8(%rbp), %rax
 3523 0031 4889C7   		movq	%rax, %rdi
 3524 0034 E8000000 		call	_ZdlPv
 3524      00
 3525              	.L209:
  54:testBinIO.cpp **** 	const char *const FILENAME = "tmpFile.bin";
 3526              		.loc 4 54 0
 3527 0039 C9       		leave
 3528              		.cfi_def_cfa 7, 8
 3529 003a C3       		ret
 3530              		.cfi_endproc
 3531              	.LFE1275:
 3533              		.weak	_ZN23TestBinIO_testWriteFileD1Ev
 3534              		.set	_ZN23TestBinIO_testWriteFileD1Ev,_ZN23TestBinIO_testWriteFileD2Ev
 3535              		.section	.text._ZN23TestBinIO_testWriteFileD0Ev,"axG",@progbits,_ZN23TestBinIO_testWriteFileD5Ev,c
 3536              		.align 2
 3537              		.weak	_ZN23TestBinIO_testWriteFileD0Ev
 3539              	_ZN23TestBinIO_testWriteFileD0Ev:
 3540              	.LFB1277:
  54:testBinIO.cpp **** 	const char *const FILENAME = "tmpFile.bin";
 3541              		.loc 4 54 0 is_stmt 1
 3542              		.cfi_startproc
 3543 0000 55       		pushq	%rbp
 3544              		.cfi_def_cfa_offset 16
 3545              		.cfi_offset 6, -16
 3546 0001 4889E5   		movq	%rsp, %rbp
 3547              		.cfi_def_cfa_register 6
 3548 0004 4883EC10 		subq	$16, %rsp
 3549 0008 48897DF8 		movq	%rdi, -8(%rbp)
  54:testBinIO.cpp **** 	const char *const FILENAME = "tmpFile.bin";
 3550              		.loc 4 54 0
 3551 000c 488B45F8 		movq	-8(%rbp), %rax
 3552 0010 4889C7   		movq	%rax, %rdi
 3553 0013 E8000000 		call	_ZN23TestBinIO_testWriteFileD1Ev
 3553      00
 3554 0018 488B45F8 		movq	-8(%rbp), %rax
 3555 001c 4889C7   		movq	%rax, %rdi
 3556 001f E8000000 		call	_ZdlPv
 3556      00
 3557 0024 C9       		leave
 3558              		.cfi_def_cfa 7, 8
 3559 0025 C3       		ret
 3560              		.cfi_endproc
 3561              	.LFE1277:
 3563              		.weak	_ZTV30TestBinIO_testReadExistingFile
 3564              		.section	.rodata._ZTV30TestBinIO_testReadExistingFile,"aG",@progbits,_ZTV30TestBinIO_testReadExist
 3565              		.align 8
 3568              	_ZTV30TestBinIO_testReadExistingFile:
 3569 0000 00000000 		.quad	0
 3569      00000000 
 3570 0008 00000000 		.quad	_ZTI30TestBinIO_testReadExistingFile
 3570      00000000 
 3571 0010 00000000 		.quad	_ZN30TestBinIO_testReadExistingFileD1Ev
 3571      00000000 
 3572 0018 00000000 		.quad	_ZN30TestBinIO_testReadExistingFileD0Ev
 3572      00000000 
 3573 0020 00000000 		.quad	_ZNK30TestBinIO_testReadExistingFile7RunImplEv
 3573      00000000 
 3574              		.section	.text._ZN30TestBinIO_testReadExistingFileD2Ev,"axG",@progbits,_ZN30TestBinIO_testReadExis
 3575              		.align 2
 3576              		.weak	_ZN30TestBinIO_testReadExistingFileD2Ev
 3578              	_ZN30TestBinIO_testReadExistingFileD2Ev:
 3579              	.LFB1279:
  33:testBinIO.cpp **** 	const char *const FILENAME = "tmpFile.bin";
 3580              		.loc 4 33 0
 3581              		.cfi_startproc
 3582 0000 55       		pushq	%rbp
 3583              		.cfi_def_cfa_offset 16
 3584              		.cfi_offset 6, -16
 3585 0001 4889E5   		movq	%rsp, %rbp
 3586              		.cfi_def_cfa_register 6
 3587 0004 4883EC10 		subq	$16, %rsp
 3588 0008 48897DF8 		movq	%rdi, -8(%rbp)
 3589              	.LBB36:
  33:testBinIO.cpp **** 	const char *const FILENAME = "tmpFile.bin";
 3590              		.loc 4 33 0
 3591 000c BA000000 		movl	$_ZTV30TestBinIO_testReadExistingFile+16, %edx
 3591      00
 3592 0011 488B45F8 		movq	-8(%rbp), %rax
 3593 0015 488910   		movq	%rdx, (%rax)
 3594 0018 488B45F8 		movq	-8(%rbp), %rax
 3595 001c 4889C7   		movq	%rax, %rdi
 3596 001f E8000000 		call	_ZN8UnitTest4TestD2Ev
 3596      00
 3597              	.LBE36:
 3598 0024 B8000000 		movl	$0, %eax
 3598      00
 3599 0029 85C0     		testl	%eax, %eax
 3600 002b 740C     		je	.L212
  33:testBinIO.cpp **** 	const char *const FILENAME = "tmpFile.bin";
 3601              		.loc 4 33 0 is_stmt 0 discriminator 4
 3602 002d 488B45F8 		movq	-8(%rbp), %rax
 3603 0031 4889C7   		movq	%rax, %rdi
 3604 0034 E8000000 		call	_ZdlPv
 3604      00
 3605              	.L212:
  33:testBinIO.cpp **** 	const char *const FILENAME = "tmpFile.bin";
 3606              		.loc 4 33 0
 3607 0039 C9       		leave
 3608              		.cfi_def_cfa 7, 8
 3609 003a C3       		ret
 3610              		.cfi_endproc
 3611              	.LFE1279:
 3613              		.weak	_ZN30TestBinIO_testReadExistingFileD1Ev
 3614              		.set	_ZN30TestBinIO_testReadExistingFileD1Ev,_ZN30TestBinIO_testReadExistingFileD2Ev
 3615              		.section	.text._ZN30TestBinIO_testReadExistingFileD0Ev,"axG",@progbits,_ZN30TestBinIO_testReadExis
 3616              		.align 2
 3617              		.weak	_ZN30TestBinIO_testReadExistingFileD0Ev
 3619              	_ZN30TestBinIO_testReadExistingFileD0Ev:
 3620              	.LFB1281:
  33:testBinIO.cpp **** 	const char *const FILENAME = "tmpFile.bin";
 3621              		.loc 4 33 0 is_stmt 1
 3622              		.cfi_startproc
 3623 0000 55       		pushq	%rbp
 3624              		.cfi_def_cfa_offset 16
 3625              		.cfi_offset 6, -16
 3626 0001 4889E5   		movq	%rsp, %rbp
 3627              		.cfi_def_cfa_register 6
 3628 0004 4883EC10 		subq	$16, %rsp
 3629 0008 48897DF8 		movq	%rdi, -8(%rbp)
  33:testBinIO.cpp **** 	const char *const FILENAME = "tmpFile.bin";
 3630              		.loc 4 33 0
 3631 000c 488B45F8 		movq	-8(%rbp), %rax
 3632 0010 4889C7   		movq	%rax, %rdi
 3633 0013 E8000000 		call	_ZN30TestBinIO_testReadExistingFileD1Ev
 3633      00
 3634 0018 488B45F8 		movq	-8(%rbp), %rax
 3635 001c 4889C7   		movq	%rax, %rdi
 3636 001f E8000000 		call	_ZdlPv
 3636      00
 3637 0024 C9       		leave
 3638              		.cfi_def_cfa 7, 8
 3639 0025 C3       		ret
 3640              		.cfi_endproc
 3641              	.LFE1281:
 3643              		.weak	_ZTV33TestBinIO_testReadNonExistentFile
 3644              		.section	.rodata._ZTV33TestBinIO_testReadNonExistentFile,"aG",@progbits,_ZTV33TestBinIO_testReadNo
 3645              		.align 8
 3648              	_ZTV33TestBinIO_testReadNonExistentFile:
 3649 0000 00000000 		.quad	0
 3649      00000000 
 3650 0008 00000000 		.quad	_ZTI33TestBinIO_testReadNonExistentFile
 3650      00000000 
 3651 0010 00000000 		.quad	_ZN33TestBinIO_testReadNonExistentFileD1Ev
 3651      00000000 
 3652 0018 00000000 		.quad	_ZN33TestBinIO_testReadNonExistentFileD0Ev
 3652      00000000 
 3653 0020 00000000 		.quad	_ZNK33TestBinIO_testReadNonExistentFile7RunImplEv
 3653      00000000 
 3654              		.section	.text._ZN33TestBinIO_testReadNonExistentFileD2Ev,"axG",@progbits,_ZN33TestBinIO_testReadN
 3655              		.align 2
 3656              		.weak	_ZN33TestBinIO_testReadNonExistentFileD2Ev
 3658              	_ZN33TestBinIO_testReadNonExistentFileD2Ev:
 3659              	.LFB1283:
  24:testBinIO.cpp **** 	Buffer buf;
 3660              		.loc 4 24 0
 3661              		.cfi_startproc
 3662 0000 55       		pushq	%rbp
 3663              		.cfi_def_cfa_offset 16
 3664              		.cfi_offset 6, -16
 3665 0001 4889E5   		movq	%rsp, %rbp
 3666              		.cfi_def_cfa_register 6
 3667 0004 4883EC10 		subq	$16, %rsp
 3668 0008 48897DF8 		movq	%rdi, -8(%rbp)
 3669              	.LBB37:
  24:testBinIO.cpp **** 	Buffer buf;
 3670              		.loc 4 24 0
 3671 000c BA000000 		movl	$_ZTV33TestBinIO_testReadNonExistentFile+16, %edx
 3671      00
 3672 0011 488B45F8 		movq	-8(%rbp), %rax
 3673 0015 488910   		movq	%rdx, (%rax)
 3674 0018 488B45F8 		movq	-8(%rbp), %rax
 3675 001c 4889C7   		movq	%rax, %rdi
 3676 001f E8000000 		call	_ZN8UnitTest4TestD2Ev
 3676      00
 3677              	.LBE37:
 3678 0024 B8000000 		movl	$0, %eax
 3678      00
 3679 0029 85C0     		testl	%eax, %eax
 3680 002b 740C     		je	.L215
  24:testBinIO.cpp **** 	Buffer buf;
 3681              		.loc 4 24 0 is_stmt 0 discriminator 4
 3682 002d 488B45F8 		movq	-8(%rbp), %rax
 3683 0031 4889C7   		movq	%rax, %rdi
 3684 0034 E8000000 		call	_ZdlPv
 3684      00
 3685              	.L215:
  24:testBinIO.cpp **** 	Buffer buf;
 3686              		.loc 4 24 0
 3687 0039 C9       		leave
 3688              		.cfi_def_cfa 7, 8
 3689 003a C3       		ret
 3690              		.cfi_endproc
 3691              	.LFE1283:
 3693              		.weak	_ZN33TestBinIO_testReadNonExistentFileD1Ev
 3694              		.set	_ZN33TestBinIO_testReadNonExistentFileD1Ev,_ZN33TestBinIO_testReadNonExistentFileD2Ev
 3695              		.section	.text._ZN33TestBinIO_testReadNonExistentFileD0Ev,"axG",@progbits,_ZN33TestBinIO_testReadN
 3696              		.align 2
 3697              		.weak	_ZN33TestBinIO_testReadNonExistentFileD0Ev
 3699              	_ZN33TestBinIO_testReadNonExistentFileD0Ev:
 3700              	.LFB1285:
  24:testBinIO.cpp **** 	Buffer buf;
 3701              		.loc 4 24 0 is_stmt 1
 3702              		.cfi_startproc
 3703 0000 55       		pushq	%rbp
 3704              		.cfi_def_cfa_offset 16
 3705              		.cfi_offset 6, -16
 3706 0001 4889E5   		movq	%rsp, %rbp
 3707              		.cfi_def_cfa_register 6
 3708 0004 4883EC10 		subq	$16, %rsp
 3709 0008 48897DF8 		movq	%rdi, -8(%rbp)
  24:testBinIO.cpp **** 	Buffer buf;
 3710              		.loc 4 24 0
 3711 000c 488B45F8 		movq	-8(%rbp), %rax
 3712 0010 4889C7   		movq	%rax, %rdi
 3713 0013 E8000000 		call	_ZN33TestBinIO_testReadNonExistentFileD1Ev
 3713      00
 3714 0018 488B45F8 		movq	-8(%rbp), %rax
 3715 001c 4889C7   		movq	%rax, %rdi
 3716 001f E8000000 		call	_ZdlPv
 3716      00
 3717 0024 C9       		leave
 3718              		.cfi_def_cfa 7, 8
 3719 0025 C3       		ret
 3720              		.cfi_endproc
 3721              	.LFE1285:
 3723              		.weak	_ZTVN8UnitTest15MemoryOutStreamE
 3724              		.section	.rodata._ZTVN8UnitTest15MemoryOutStreamE,"aG",@progbits,_ZTVN8UnitTest15MemoryOutStreamE,
 3725              		.align 8
 3728              	_ZTVN8UnitTest15MemoryOutStreamE:
 3729 0000 90000000 		.quad	144
 3729      00000000 
 3730 0008 00000000 		.quad	0
 3730      00000000 
 3731 0010 00000000 		.quad	_ZTIN8UnitTest15MemoryOutStreamE
 3731      00000000 
 3732 0018 00000000 		.quad	_ZN8UnitTest15MemoryOutStreamD1Ev
 3732      00000000 
 3733 0020 00000000 		.quad	_ZN8UnitTest15MemoryOutStreamD0Ev
 3733      00000000 
 3734 0028 70FFFFFF 		.quad	-144
 3734      FFFFFFFF 
 3735 0030 70FFFFFF 		.quad	-144
 3735      FFFFFFFF 
 3736 0038 00000000 		.quad	_ZTIN8UnitTest15MemoryOutStreamE
 3736      00000000 
 3737 0040 00000000 		.quad	_ZTv0_n24_N8UnitTest15MemoryOutStreamD1Ev
 3737      00000000 
 3738 0048 00000000 		.quad	_ZTv0_n24_N8UnitTest15MemoryOutStreamD0Ev
 3738      00000000 
 3739              		.weak	_ZTTN8UnitTest15MemoryOutStreamE
 3740              		.section	.rodata._ZTTN8UnitTest15MemoryOutStreamE,"aG",@progbits,_ZTVN8UnitTest15MemoryOutStreamE,
 3741              		.align 8
 3744              	_ZTTN8UnitTest15MemoryOutStreamE:
 3745 0000 00000000 		.quad	_ZTVN8UnitTest15MemoryOutStreamE+24
 3745      00000000 
 3746 0008 00000000 		.quad	_ZTCN8UnitTest15MemoryOutStreamE0_NSt7__cxx1119basic_ostringstreamIcSt11char_traitsIcESaIcEE
 3746      00000000 
 3747 0010 00000000 		.quad	_ZTCN8UnitTest15MemoryOutStreamE0_So+24
 3747      00000000 
 3748 0018 00000000 		.quad	_ZTCN8UnitTest15MemoryOutStreamE0_So+64
 3748      00000000 
 3749 0020 00000000 		.quad	_ZTCN8UnitTest15MemoryOutStreamE0_NSt7__cxx1119basic_ostringstreamIcSt11char_traitsIcESaIcEE
 3749      00000000 
 3750 0028 00000000 		.quad	_ZTVN8UnitTest15MemoryOutStreamE+64
 3750      00000000 
 3751              		.hidden	_ZTCN8UnitTest15MemoryOutStreamE0_NSt7__cxx1119basic_ostringstreamIcSt11char_traitsIcESaIc
 3752              		.weak	_ZTCN8UnitTest15MemoryOutStreamE0_NSt7__cxx1119basic_ostringstreamIcSt11char_traitsIcESaIcEE
 3753              		.section	.rodata._ZTCN8UnitTest15MemoryOutStreamE0_NSt7__cxx1119basic_ostringstreamIcSt11char_trai
 3754              		.align 8
 3757              	_ZTCN8UnitTest15MemoryOutStreamE0_NSt7__cxx1119basic_ostringstreamIcSt11char_traitsIcESaIcEEE:
 3758 0000 90000000 		.quad	144
 3758      00000000 
 3759 0008 00000000 		.quad	0
 3759      00000000 
 3760 0010 00000000 		.quad	_ZTINSt7__cxx1119basic_ostringstreamIcSt11char_traitsIcESaIcEEE
 3760      00000000 
 3761 0018 00000000 		.quad	0
 3761      00000000 
 3762 0020 00000000 		.quad	0
 3762      00000000 
 3763 0028 70FFFFFF 		.quad	-144
 3763      FFFFFFFF 
 3764 0030 70FFFFFF 		.quad	-144
 3764      FFFFFFFF 
 3765 0038 00000000 		.quad	_ZTINSt7__cxx1119basic_ostringstreamIcSt11char_traitsIcESaIcEEE
 3765      00000000 
 3766 0040 00000000 		.quad	0
 3766      00000000 
 3767 0048 00000000 		.quad	0
 3767      00000000 
 3768              		.hidden	_ZTCN8UnitTest15MemoryOutStreamE0_So
 3769              		.weak	_ZTCN8UnitTest15MemoryOutStreamE0_So
 3770              		.section	.rodata._ZTCN8UnitTest15MemoryOutStreamE0_So,"aG",@progbits,_ZTVN8UnitTest15MemoryOutStre
 3771              		.align 8
 3774              	_ZTCN8UnitTest15MemoryOutStreamE0_So:
 3775 0000 90000000 		.quad	144
 3775      00000000 
 3776 0008 00000000 		.quad	0
 3776      00000000 
 3777 0010 00000000 		.quad	_ZTISo
 3777      00000000 
 3778 0018 00000000 		.quad	0
 3778      00000000 
 3779 0020 00000000 		.quad	0
 3779      00000000 
 3780 0028 70FFFFFF 		.quad	-144
 3780      FFFFFFFF 
 3781 0030 70FFFFFF 		.quad	-144
 3781      FFFFFFFF 
 3782 0038 00000000 		.quad	_ZTISo
 3782      00000000 
 3783 0040 00000000 		.quad	0
 3783      00000000 
 3784 0048 00000000 		.quad	0
 3784      00000000 
 3785              		.weak	_ZTI23TestBinIO_testWriteFile
 3786              		.section	.rodata._ZTI23TestBinIO_testWriteFile,"aG",@progbits,_ZTI23TestBinIO_testWriteFile,comdat
 3787              		.align 8
 3790              	_ZTI23TestBinIO_testWriteFile:
 3791 0000 00000000 		.quad	_ZTVN10__cxxabiv120__si_class_type_infoE+16
 3791      00000000 
 3792 0008 00000000 		.quad	_ZTS23TestBinIO_testWriteFile
 3792      00000000 
 3793 0010 00000000 		.quad	_ZTIN8UnitTest4TestE
 3793      00000000 
 3794              		.weak	_ZTS23TestBinIO_testWriteFile
 3795              		.section	.rodata._ZTS23TestBinIO_testWriteFile,"aG",@progbits,_ZTS23TestBinIO_testWriteFile,comdat
 3796              		.align 16
 3799              	_ZTS23TestBinIO_testWriteFile:
 3800 0000 32335465 		.string	"23TestBinIO_testWriteFile"
 3800      73744269 
 3800      6E494F5F 
 3800      74657374 
 3800      57726974 
 3801              		.weak	_ZTI30TestBinIO_testReadExistingFile
 3802              		.section	.rodata._ZTI30TestBinIO_testReadExistingFile,"aG",@progbits,_ZTI30TestBinIO_testReadExist
 3803              		.align 8
 3806              	_ZTI30TestBinIO_testReadExistingFile:
 3807 0000 00000000 		.quad	_ZTVN10__cxxabiv120__si_class_type_infoE+16
 3807      00000000 
 3808 0008 00000000 		.quad	_ZTS30TestBinIO_testReadExistingFile
 3808      00000000 
 3809 0010 00000000 		.quad	_ZTIN8UnitTest4TestE
 3809      00000000 
 3810              		.weak	_ZTS30TestBinIO_testReadExistingFile
 3811              		.section	.rodata._ZTS30TestBinIO_testReadExistingFile,"aG",@progbits,_ZTS30TestBinIO_testReadExist
 3812              		.align 32
 3815              	_ZTS30TestBinIO_testReadExistingFile:
 3816 0000 33305465 		.string	"30TestBinIO_testReadExistingFile"
 3816      73744269 
 3816      6E494F5F 
 3816      74657374 
 3816      52656164 
 3817              		.weak	_ZTI33TestBinIO_testReadNonExistentFile
 3818              		.section	.rodata._ZTI33TestBinIO_testReadNonExistentFile,"aG",@progbits,_ZTI33TestBinIO_testReadNo
 3819              		.align 8
 3822              	_ZTI33TestBinIO_testReadNonExistentFile:
 3823 0000 00000000 		.quad	_ZTVN10__cxxabiv120__si_class_type_infoE+16
 3823      00000000 
 3824 0008 00000000 		.quad	_ZTS33TestBinIO_testReadNonExistentFile
 3824      00000000 
 3825 0010 00000000 		.quad	_ZTIN8UnitTest4TestE
 3825      00000000 
 3826              		.weak	_ZTS33TestBinIO_testReadNonExistentFile
 3827              		.section	.rodata._ZTS33TestBinIO_testReadNonExistentFile,"aG",@progbits,_ZTS33TestBinIO_testReadNo
 3828              		.align 32
 3831              	_ZTS33TestBinIO_testReadNonExistentFile:
 3832 0000 33335465 		.string	"33TestBinIO_testReadNonExistentFile"
 3832      73744269 
 3832      6E494F5F 
 3832      74657374 
 3832      52656164 
 3833              		.weak	_ZTIN8UnitTest15MemoryOutStreamE
 3834              		.section	.rodata._ZTIN8UnitTest15MemoryOutStreamE,"aG",@progbits,_ZTIN8UnitTest15MemoryOutStreamE,
 3835              		.align 8
 3838              	_ZTIN8UnitTest15MemoryOutStreamE:
 3839 0000 00000000 		.quad	_ZTVN10__cxxabiv120__si_class_type_infoE+16
 3839      00000000 
 3840 0008 00000000 		.quad	_ZTSN8UnitTest15MemoryOutStreamE
 3840      00000000 
 3841 0010 00000000 		.quad	_ZTINSt7__cxx1119basic_ostringstreamIcSt11char_traitsIcESaIcEEE
 3841      00000000 
 3842              		.weak	_ZTSN8UnitTest15MemoryOutStreamE
 3843              		.section	.rodata._ZTSN8UnitTest15MemoryOutStreamE,"aG",@progbits,_ZTSN8UnitTest15MemoryOutStreamE,
 3844              		.align 16
 3847              	_ZTSN8UnitTest15MemoryOutStreamE:
 3848 0000 4E38556E 		.string	"N8UnitTest15MemoryOutStreamE"
 3848      69745465 
 3848      73743135 
 3848      4D656D6F 
 3848      72794F75 
 3849              		.text
 3851              	_Z41__static_initialization_and_destruction_0ii:
 3852              	.LFB1286:
 3853              		.loc 4 92 0
 3854              		.cfi_startproc
 3855 123d 55       		pushq	%rbp
 3856              		.cfi_def_cfa_offset 16
 3857              		.cfi_offset 6, -16
 3858 123e 4889E5   		movq	%rsp, %rbp
 3859              		.cfi_def_cfa_register 6
 3860 1241 4883EC10 		subq	$16, %rsp
 3861 1245 897DFC   		movl	%edi, -4(%rbp)
 3862 1248 8975F8   		movl	%esi, -8(%rbp)
 3863              		.loc 4 92 0
 3864 124b 837DFC01 		cmpl	$1, -4(%rbp)
 3865 124f 0F85AC00 		jne	.L220
 3865      0000
 3866              		.loc 4 92 0 is_stmt 0 discriminator 1
 3867 1255 817DF8FF 		cmpl	$65535, -8(%rbp)
 3867      FF0000
 3868 125c 0F859F00 		jne	.L220
 3868      0000
  24:testBinIO.cpp **** 	Buffer buf;
 3869              		.loc 4 24 0 is_stmt 1
 3870 1262 BF000000 		movl	$testBinIO_testReadNonExistentFileInstance, %edi
 3870      00
 3871 1267 E8000000 		call	_ZN33TestBinIO_testReadNonExistentFileC1Ev
 3871      00
 3872 126c BA000000 		movl	$__dso_handle, %edx
 3872      00
 3873 1271 BE000000 		movl	$testBinIO_testReadNonExistentFileInstance, %esi
 3873      00
 3874 1276 BF000000 		movl	$_ZN33TestBinIO_testReadNonExistentFileD1Ev, %edi
 3874      00
 3875 127b E8000000 		call	__cxa_atexit
 3875      00
 3876 1280 E8000000 		call	_ZN8UnitTest4Test11GetTestListEv
 3876      00
 3877 1285 BA000000 		movl	$testBinIO_testReadNonExistentFileInstance, %edx
 3877      00
 3878 128a 4889C6   		movq	%rax, %rsi
 3879 128d BF000000 		movl	$adderBinIO_testReadNonExistentFile, %edi
 3879      00
 3880 1292 E8000000 		call	_ZN8UnitTest9ListAdderC1ERNS_8TestListEPNS_4TestE
 3880      00
  33:testBinIO.cpp **** 	const char *const FILENAME = "tmpFile.bin";
 3881              		.loc 4 33 0
 3882 1297 BF000000 		movl	$testBinIO_testReadExistingFileInstance, %edi
 3882      00
 3883 129c E8000000 		call	_ZN30TestBinIO_testReadExistingFileC1Ev
 3883      00
 3884 12a1 BA000000 		movl	$__dso_handle, %edx
 3884      00
 3885 12a6 BE000000 		movl	$testBinIO_testReadExistingFileInstance, %esi
 3885      00
 3886 12ab BF000000 		movl	$_ZN30TestBinIO_testReadExistingFileD1Ev, %edi
 3886      00
 3887 12b0 E8000000 		call	__cxa_atexit
 3887      00
 3888 12b5 E8000000 		call	_ZN8UnitTest4Test11GetTestListEv
 3888      00
 3889 12ba BA000000 		movl	$testBinIO_testReadExistingFileInstance, %edx
 3889      00
 3890 12bf 4889C6   		movq	%rax, %rsi
 3891 12c2 BF000000 		movl	$adderBinIO_testReadExistingFile, %edi
 3891      00
 3892 12c7 E8000000 		call	_ZN8UnitTest9ListAdderC1ERNS_8TestListEPNS_4TestE
 3892      00
  54:testBinIO.cpp **** 	const char *const FILENAME = "tmpFile.bin";
 3893              		.loc 4 54 0
 3894 12cc BF000000 		movl	$testBinIO_testWriteFileInstance, %edi
 3894      00
 3895 12d1 E8000000 		call	_ZN23TestBinIO_testWriteFileC1Ev
 3895      00
 3896 12d6 BA000000 		movl	$__dso_handle, %edx
 3896      00
 3897 12db BE000000 		movl	$testBinIO_testWriteFileInstance, %esi
 3897      00
 3898 12e0 BF000000 		movl	$_ZN23TestBinIO_testWriteFileD1Ev, %edi
 3898      00
 3899 12e5 E8000000 		call	__cxa_atexit
 3899      00
 3900 12ea E8000000 		call	_ZN8UnitTest4Test11GetTestListEv
 3900      00
 3901 12ef BA000000 		movl	$testBinIO_testWriteFileInstance, %edx
 3901      00
 3902 12f4 4889C6   		movq	%rax, %rsi
 3903 12f7 BF000000 		movl	$adderBinIO_testWriteFile, %edi
 3903      00
 3904 12fc E8000000 		call	_ZN8UnitTest9ListAdderC1ERNS_8TestListEPNS_4TestE
 3904      00
 3905              	.L220:
 3906              		.loc 4 92 0
 3907 1301 90       		nop
 3908 1302 C9       		leave
 3909              		.cfi_def_cfa 7, 8
 3910 1303 C3       		ret
 3911              		.cfi_endproc
 3912              	.LFE1286:
 3915              	_GLOBAL__sub_I_testBinIO_testReadNonExistentFileInstance:
 3916              	.LFB1287:
 3917              		.loc 4 92 0
 3918              		.cfi_startproc
 3919 1304 55       		pushq	%rbp
 3920              		.cfi_def_cfa_offset 16
 3921              		.cfi_offset 6, -16
 3922 1305 4889E5   		movq	%rsp, %rbp
 3923              		.cfi_def_cfa_register 6
 3924              		.loc 4 92 0
 3925 1308 BEFFFF00 		movl	$65535, %esi
 3925      00
 3926 130d BF010000 		movl	$1, %edi
 3926      00
 3927 1312 E826FFFF 		call	_Z41__static_initialization_and_destruction_0ii
 3927      FF
 3928 1317 5D       		popq	%rbp
 3929              		.cfi_def_cfa 7, 8
 3930 1318 C3       		ret
 3931              		.cfi_endproc
 3932              	.LFE1287:
 3934              		.section	.init_array,"aw"
 3935              		.align 8
 3936 0000 00000000 		.quad	_GLOBAL__sub_I_testBinIO_testReadNonExistentFileInstance
 3936      00000000 
 3937              		.text
 3938              	.Letext0:
 3939              		.file 7 "/usr/include/c++/5/bits/basic_string.h"
 3940              		.file 8 "/usr/lib/gcc/x86_64-linux-gnu/5/include/stddef.h"
 3941              		.file 9 "/usr/include/c++/5/bits/basic_string.tcc"
 3942              		.file 10 "/usr/include/c++/5/bits/stringfwd.h"
 3943              		.file 11 "/usr/include/c++/5/cwchar"
 3944              		.file 12 "/usr/include/c++/5/bits/char_traits.h"
 3945              		.file 13 "/usr/include/x86_64-linux-gnu/c++/5/bits/c++config.h"
 3946              		.file 14 "/usr/include/c++/5/clocale"
 3947              		.file 15 "/usr/include/c++/5/bits/allocator.h"
 3948              		.file 16 "/usr/include/c++/5/cwctype"
 3949              		.file 17 "/usr/include/c++/5/cstdio"
 3950              		.file 18 "/usr/include/c++/5/iosfwd"
 3951              		.file 19 "/usr/include/c++/5/debug/debug.h"
 3952              		.file 20 "/usr/include/c++/5/bits/predefined_ops.h"
 3953              		.file 21 "/usr/include/c++/5/ext/new_allocator.h"
 3954              		.file 22 "/usr/include/c++/5/ext/numeric_traits.h"
 3955              		.file 23 "/usr/include/c++/5/ext/alloc_traits.h"
 3956              		.file 24 "/usr/include/stdio.h"
 3957              		.file 25 "/usr/include/libio.h"
 3958              		.file 26 "<built-in>"
 3959              		.file 27 "/usr/include/wchar.h"
 3960              		.file 28 "/usr/include/time.h"
 3961              		.file 29 "/usr/include/locale.h"
 3962              		.file 30 "/usr/include/x86_64-linux-gnu/bits/types.h"
 3963              		.file 31 "/usr/include/wctype.h"
 3964              		.file 32 "/usr/include/_G_config.h"
 3965              		.file 33 "/home/shubham/20140524/makestuff/libs/libutpp/TestDetails.h"
 3966              		.file 34 "/home/shubham/20140524/makestuff/libs/libutpp/TestList.h"
 3967              		.file 35 "/home/shubham/20140524/makestuff/libs/libutpp/TestResults.h"
 3968              		.file 36 "/usr/include/x86_64-linux-gnu/sys/time.h"
 3969              		.file 37 "/home/shubham/20140524/makestuff/common/makestuff.h"
 3970              		.file 38 "../libbuffer.h"