   1              		.file	"testConv.cpp"
   2              		.text
   3              	.Ltext0:
   4              		.section	.rodata
   5              	.LC0:
   6 0000 44656661 		.string	"DefaultSuite"
   6      756C7453 
   6      75697465 
   6      00
   7              		.section	.text._ZN13UnitTestSuite12GetSuiteNameEv,"axG",@progbits,_ZN13UnitTestSuite12GetSuiteName
   8              		.weak	_ZN13UnitTestSuite12GetSuiteNameEv
  10              	_ZN13UnitTestSuite12GetSuiteNameEv:
  11              	.LFB0:
  12              		.file 1 "/home/shubham/20140524/makestuff/libs/libutpp/TestSuite.h"
   1:/home/shubham/20140524/makestuff/libs/libutpp/TestSuite.h **** #ifndef UNITTEST_TESTSUITE_H
   2:/home/shubham/20140524/makestuff/libs/libutpp/TestSuite.h **** #define UNITTEST_TESTSUITE_H
   3:/home/shubham/20140524/makestuff/libs/libutpp/TestSuite.h **** 
   4:/home/shubham/20140524/makestuff/libs/libutpp/TestSuite.h **** namespace UnitTestSuite {
   5:/home/shubham/20140524/makestuff/libs/libutpp/TestSuite.h **** 
   6:/home/shubham/20140524/makestuff/libs/libutpp/TestSuite.h ****     inline char const* GetSuiteName ()
   7:/home/shubham/20140524/makestuff/libs/libutpp/TestSuite.h ****     {
  13              		.loc 1 7 0
  14              		.cfi_startproc
  15 0000 55       		pushq	%rbp
  16              		.cfi_def_cfa_offset 16
  17              		.cfi_offset 6, -16
  18 0001 4889E5   		movq	%rsp, %rbp
  19              		.cfi_def_cfa_register 6
   8:/home/shubham/20140524/makestuff/libs/libutpp/TestSuite.h ****         return "DefaultSuite";
  20              		.loc 1 8 0
  21 0004 B8000000 		movl	$.LC0, %eax
  21      00
   9:/home/shubham/20140524/makestuff/libs/libutpp/TestSuite.h ****     }
  22              		.loc 1 9 0
  23 0009 5D       		popq	%rbp
  24              		.cfi_def_cfa 7, 8
  25 000a C3       		ret
  26              		.cfi_endproc
  27              	.LFE0:
  29              		.section	.text._ZN8UnitTest15MemoryOutStreamC1Ev,"axG",@progbits,_ZN8UnitTest15MemoryOutStreamC1Ev
  30              		.align 2
  31              		.weak	_ZN8UnitTest15MemoryOutStreamC1Ev
  33              	_ZN8UnitTest15MemoryOutStreamC1Ev:
  34              	.LFB1057:
  35              		.file 2 "/home/shubham/20140524/makestuff/libs/libutpp/MemoryOutStream.h"
   1:/home/shubham/20140524/makestuff/libs/libutpp/MemoryOutStream.h **** #ifndef UNITTEST_MEMORYOUTSTREAM_H
   2:/home/shubham/20140524/makestuff/libs/libutpp/MemoryOutStream.h **** #define UNITTEST_MEMORYOUTSTREAM_H
   3:/home/shubham/20140524/makestuff/libs/libutpp/MemoryOutStream.h **** 
   4:/home/shubham/20140524/makestuff/libs/libutpp/MemoryOutStream.h **** #include "Config.h"
   5:/home/shubham/20140524/makestuff/libs/libutpp/MemoryOutStream.h **** 
   6:/home/shubham/20140524/makestuff/libs/libutpp/MemoryOutStream.h **** #ifndef UNITTEST_USE_CUSTOM_STREAMS
   7:/home/shubham/20140524/makestuff/libs/libutpp/MemoryOutStream.h **** 
   8:/home/shubham/20140524/makestuff/libs/libutpp/MemoryOutStream.h **** #include <sstream>
   9:/home/shubham/20140524/makestuff/libs/libutpp/MemoryOutStream.h **** 
  10:/home/shubham/20140524/makestuff/libs/libutpp/MemoryOutStream.h **** namespace UnitTest
  11:/home/shubham/20140524/makestuff/libs/libutpp/MemoryOutStream.h **** {
  12:/home/shubham/20140524/makestuff/libs/libutpp/MemoryOutStream.h **** 
  13:/home/shubham/20140524/makestuff/libs/libutpp/MemoryOutStream.h **** class MemoryOutStream : public std::ostringstream
  14:/home/shubham/20140524/makestuff/libs/libutpp/MemoryOutStream.h **** {
  15:/home/shubham/20140524/makestuff/libs/libutpp/MemoryOutStream.h **** public:
  16:/home/shubham/20140524/makestuff/libs/libutpp/MemoryOutStream.h ****     MemoryOutStream() {}
  36              		.loc 2 16 0
  37              		.cfi_startproc
  38              		.cfi_personality 0x3,__gxx_personality_v0
  39              		.cfi_lsda 0x3,.LLSDA1057
  40 0000 55       		pushq	%rbp
  41              		.cfi_def_cfa_offset 16
  42              		.cfi_offset 6, -16
  43 0001 4889E5   		movq	%rsp, %rbp
  44              		.cfi_def_cfa_register 6
  45 0004 53       		pushq	%rbx
  46 0005 4883EC18 		subq	$24, %rsp
  47              		.cfi_offset 3, -24
  48 0009 48897DE8 		movq	%rdi, -24(%rbp)
  49              	.LBB2:
  50              		.loc 2 16 0
  51 000d 488B45E8 		movq	-24(%rbp), %rax
  52 0011 48059000 		addq	$144, %rax
  52      0000
  53 0017 4889C7   		movq	%rax, %rdi
  54              	.LEHB0:
  55 001a E8000000 		call	_ZNSt9basic_iosIcSt11char_traitsIcEEC2Ev
  55      00
  56              	.LEHE0:
  57 001f B9000000 		movl	$_ZTTN8UnitTest15MemoryOutStreamE+8, %ecx
  57      00
  58 0024 488B45E8 		movq	-24(%rbp), %rax
  59 0028 BA100000 		movl	$16, %edx
  59      00
  60 002d 4889CE   		movq	%rcx, %rsi
  61 0030 4889C7   		movq	%rax, %rdi
  62              	.LEHB1:
  63 0033 E8000000 		call	_ZNSt7__cxx1119basic_ostringstreamIcSt11char_traitsIcESaIcEEC2ESt13_Ios_Openmode
  63      00
  64              	.LEHE1:
  65              		.loc 2 16 0 is_stmt 0 discriminator 9
  66 0038 BA000000 		movl	$_ZTVN8UnitTest15MemoryOutStreamE+24, %edx
  66      00
  67 003d 488B45E8 		movq	-24(%rbp), %rax
  68 0041 488910   		movq	%rdx, (%rax)
  69 0044 BA900000 		movl	$144, %edx
  69      00
  70 0049 488B45E8 		movq	-24(%rbp), %rax
  71 004d 4801D0   		addq	%rdx, %rax
  72 0050 BA000000 		movl	$_ZTVN8UnitTest15MemoryOutStreamE+64, %edx
  72      00
  73 0055 488910   		movq	%rdx, (%rax)
  74 0058 488B45E8 		movq	-24(%rbp), %rax
  75 005c 4883C070 		addq	$112, %rax
  76 0060 4889C7   		movq	%rax, %rdi
  77              	.LEHB2:
  78 0063 E8000000 		call	_ZNSt7__cxx1112basic_stringIcSt11char_traitsIcESaIcEEC1Ev
  78      00
  79              	.LEHE2:
  80              	.LBE2:
  81              		.loc 2 16 0
  82 0068 EB39     		jmp	.L9
  83              	.L7:
  84 006a 4889C3   		movq	%rax, %rbx
  85              	.LBB3:
  86 006d BA000000 		movl	$_ZTTN8UnitTest15MemoryOutStreamE+8, %edx
  86      00
  87 0072 488B45E8 		movq	-24(%rbp), %rax
  88 0076 4889D6   		movq	%rdx, %rsi
  89 0079 4889C7   		movq	%rax, %rdi
  90 007c E8000000 		call	_ZNSt7__cxx1119basic_ostringstreamIcSt11char_traitsIcESaIcEED2Ev
  90      00
  91 0081 EB03     		jmp	.L8
  92              	.L6:
  93 0083 4889C3   		movq	%rax, %rbx
  94              	.L8:
  95              		.loc 2 16 0 discriminator 28
  96 0086 488B45E8 		movq	-24(%rbp), %rax
  97 008a 48059000 		addq	$144, %rax
  97      0000
  98 0090 4889C7   		movq	%rax, %rdi
  99 0093 E8000000 		call	_ZNSt9basic_iosIcSt11char_traitsIcEED2Ev
  99      00
 100 0098 4889D8   		movq	%rbx, %rax
 101 009b 4889C7   		movq	%rax, %rdi
 102              	.LEHB3:
 103 009e E8000000 		call	_Unwind_Resume
 103      00
 104              	.LEHE3:
 105              	.L9:
 106              	.LBE3:
 107              		.loc 2 16 0
 108 00a3 4883C418 		addq	$24, %rsp
 109 00a7 5B       		popq	%rbx
 110 00a8 5D       		popq	%rbp
 111              		.cfi_def_cfa 7, 8
 112 00a9 C3       		ret
 113              		.cfi_endproc
 114              	.LFE1057:
 115              		.globl	__gxx_personality_v0
 116              		.section	.gcc_except_table._ZN8UnitTest15MemoryOutStreamC1Ev,"aG",@progbits,_ZN8UnitTest15MemoryOu
 117              	.LLSDA1057:
 118 0000 FF       		.byte	0xff
 119 0001 FF       		.byte	0xff
 120 0002 01       		.byte	0x1
 121 0003 12       		.uleb128 .LLSDACSE1057-.LLSDACSB1057
 122              	.LLSDACSB1057:
 123 0004 1A       		.uleb128 .LEHB0-.LFB1057
 124 0005 05       		.uleb128 .LEHE0-.LEHB0
 125 0006 00       		.uleb128 0
 126 0007 00       		.uleb128 0
 127 0008 33       		.uleb128 .LEHB1-.LFB1057
 128 0009 05       		.uleb128 .LEHE1-.LEHB1
 129 000a 8301     		.uleb128 .L6-.LFB1057
 130 000c 00       		.uleb128 0
 131 000d 63       		.uleb128 .LEHB2-.LFB1057
 132 000e 05       		.uleb128 .LEHE2-.LEHB2
 133 000f 6A       		.uleb128 .L7-.LFB1057
 134 0010 00       		.uleb128 0
 135 0011 9E01     		.uleb128 .LEHB3-.LFB1057
 136 0013 05       		.uleb128 .LEHE3-.LEHB3
 137 0014 00       		.uleb128 0
 138 0015 00       		.uleb128 0
 139              	.LLSDACSE1057:
 140              		.section	.text._ZN8UnitTest15MemoryOutStreamC1Ev,"axG",@progbits,_ZN8UnitTest15MemoryOutStreamC1Ev
 142              		.section	.rodata
 143              	.LC1:
 144 000d 74657374 		.string	"testConv.cpp"
 144      436F6E76 
 144      2E637070 
 144      00
 145              	.LC2:
 146 001a 436F6E76 		.string	"Conv_testGetHexNibble"
 146      5F746573 
 146      74476574 
 146      4865784E 
 146      6962626C 
 147              		.section	.text._ZN25TestConv_testGetHexNibbleC2Ev,"axG",@progbits,_ZN25TestConv_testGetHexNibbleC5
 148              		.align 2
 149              		.weak	_ZN25TestConv_testGetHexNibbleC2Ev
 151              	_ZN25TestConv_testGetHexNibbleC2Ev:
 152              	.LFB1074:
 153              		.file 3 "testConv.cpp"
   1:testConv.cpp  **** /*
   2:testConv.cpp  ****  * Copyright (C) 2009-2012 Chris McClelland
   3:testConv.cpp  ****  *
   4:testConv.cpp  ****  * This program is free software: you can redistribute it and/or modify
   5:testConv.cpp  ****  * it under the terms of the GNU Lesser General Public License as published by
   6:testConv.cpp  ****  * the Free Software Foundation, either version 3 of the License, or
   7:testConv.cpp  ****  * (at your option) any later version.
   8:testConv.cpp  ****  *
   9:testConv.cpp  ****  * This program is distributed in the hope that it will be useful,
  10:testConv.cpp  ****  * but WITHOUT ANY WARRANTY; without even the implied warranty of
  11:testConv.cpp  ****  * MERCHANTABILITY or FITNESS FOR A PARTICULAR PURPOSE.  See the
  12:testConv.cpp  ****  * GNU Lesser General Public License for more details.
  13:testConv.cpp  ****  *
  14:testConv.cpp  ****  * You should have received a copy of the GNU Lesser General Public License
  15:testConv.cpp  ****  * along with this program.  If not, see <http://www.gnu.org/licenses/>.
  16:testConv.cpp  ****  */
  17:testConv.cpp  **** #include <UnitTest++.h>
  18:testConv.cpp  **** #include "../conv.h"
  19:testConv.cpp  **** 
  20:testConv.cpp  **** TEST(Conv_testGetHexNibble) {
 154              		.loc 3 20 0 is_stmt 1
 155              		.cfi_startproc
 156 0000 55       		pushq	%rbp
 157              		.cfi_def_cfa_offset 16
 158              		.cfi_offset 6, -16
 159 0001 4889E5   		movq	%rsp, %rbp
 160              		.cfi_def_cfa_register 6
 161 0004 4883EC10 		subq	$16, %rsp
 162 0008 48897DF8 		movq	%rdi, -8(%rbp)
 163              	.LBB4:
 164              		.loc 3 20 0
 165 000c E8000000 		call	_ZN13UnitTestSuite12GetSuiteNameEv
 165      00
 166 0011 4889C2   		movq	%rax, %rdx
 167 0014 488B45F8 		movq	-8(%rbp), %rax
 168 0018 41B81400 		movl	$20, %r8d
 168      0000
 169 001e B9000000 		movl	$.LC1, %ecx
 169      00
 170 0023 BE000000 		movl	$.LC2, %esi
 170      00
 171 0028 4889C7   		movq	%rax, %rdi
 172 002b E8000000 		call	_ZN8UnitTest4TestC2EPKcS2_S2_i
 172      00
 173 0030 BA000000 		movl	$_ZTV25TestConv_testGetHexNibble+16, %edx
 173      00
 174 0035 488B45F8 		movq	-8(%rbp), %rax
 175 0039 488910   		movq	%rdx, (%rax)
 176              	.LBE4:
 177 003c 90       		nop
 178 003d C9       		leave
 179              		.cfi_def_cfa 7, 8
 180 003e C3       		ret
 181              		.cfi_endproc
 182              	.LFE1074:
 184              		.weak	_ZN25TestConv_testGetHexNibbleC1Ev
 185              		.set	_ZN25TestConv_testGetHexNibbleC1Ev,_ZN25TestConv_testGetHexNibbleC2Ev
 186              		.globl	testConv_testGetHexNibbleInstance
 187              		.bss
 188              		.align 32
 191              	testConv_testGetHexNibbleInstance:
 192 0000 00000000 		.zero	56
 192      00000000 
 192      00000000 
 192      00000000 
 192      00000000 
 193              		.globl	adderConv_testGetHexNibble
 196              	adderConv_testGetHexNibble:
 197 0038 00       		.zero	1
 198              		.section	.rodata
 199              		.align 8
 200              	.LC3:
 201 0030 556E6861 		.string	"Unhandled exception in CHECK_EQUAL(false, status)"
 201      6E646C65 
 201      64206578 
 201      63657074 
 201      696F6E20 
 202 0062 00000000 		.align 8
 202      0000
 203              	.LC4:
 204 0068 556E6861 		.string	"Unhandled exception in CHECK_EQUAL(0, nibble)"
 204      6E646C65 
 204      64206578 
 204      63657074 
 204      696F6E20 
 205 0096 0000     		.align 8
 206              	.LC5:
 207 0098 556E6861 		.string	"Unhandled exception in CHECK_EQUAL(1, nibble)"
 207      6E646C65 
 207      64206578 
 207      63657074 
 207      696F6E20 
 208 00c6 0000     		.align 8
 209              	.LC6:
 210 00c8 556E6861 		.string	"Unhandled exception in CHECK_EQUAL(2, nibble)"
 210      6E646C65 
 210      64206578 
 210      63657074 
 210      696F6E20 
 211 00f6 0000     		.align 8
 212              	.LC7:
 213 00f8 556E6861 		.string	"Unhandled exception in CHECK_EQUAL(3, nibble)"
 213      6E646C65 
 213      64206578 
 213      63657074 
 213      696F6E20 
 214 0126 0000     		.align 8
 215              	.LC8:
 216 0128 556E6861 		.string	"Unhandled exception in CHECK_EQUAL(4, nibble)"
 216      6E646C65 
 216      64206578 
 216      63657074 
 216      696F6E20 
 217 0156 0000     		.align 8
 218              	.LC9:
 219 0158 556E6861 		.string	"Unhandled exception in CHECK_EQUAL(5, nibble)"
 219      6E646C65 
 219      64206578 
 219      63657074 
 219      696F6E20 
 220 0186 0000     		.align 8
 221              	.LC10:
 222 0188 556E6861 		.string	"Unhandled exception in CHECK_EQUAL(6, nibble)"
 222      6E646C65 
 222      64206578 
 222      63657074 
 222      696F6E20 
 223 01b6 0000     		.align 8
 224              	.LC11:
 225 01b8 556E6861 		.string	"Unhandled exception in CHECK_EQUAL(7, nibble)"
 225      6E646C65 
 225      64206578 
 225      63657074 
 225      696F6E20 
 226 01e6 0000     		.align 8
 227              	.LC12:
 228 01e8 556E6861 		.string	"Unhandled exception in CHECK_EQUAL(8, nibble)"
 228      6E646C65 
 228      64206578 
 228      63657074 
 228      696F6E20 
 229 0216 0000     		.align 8
 230              	.LC13:
 231 0218 556E6861 		.string	"Unhandled exception in CHECK_EQUAL(9, nibble)"
 231      6E646C65 
 231      64206578 
 231      63657074 
 231      696F6E20 
 232 0246 0000     		.align 8
 233              	.LC14:
 234 0248 556E6861 		.string	"Unhandled exception in CHECK_EQUAL(10, nibble)"
 234      6E646C65 
 234      64206578 
 234      63657074 
 234      696F6E20 
 235 0277 00       		.align 8
 236              	.LC15:
 237 0278 556E6861 		.string	"Unhandled exception in CHECK_EQUAL(11, nibble)"
 237      6E646C65 
 237      64206578 
 237      63657074 
 237      696F6E20 
 238 02a7 00       		.align 8
 239              	.LC16:
 240 02a8 556E6861 		.string	"Unhandled exception in CHECK_EQUAL(12, nibble)"
 240      6E646C65 
 240      64206578 
 240      63657074 
 240      696F6E20 
 241 02d7 00       		.align 8
 242              	.LC17:
 243 02d8 556E6861 		.string	"Unhandled exception in CHECK_EQUAL(13, nibble)"
 243      6E646C65 
 243      64206578 
 243      63657074 
 243      696F6E20 
 244 0307 00       		.align 8
 245              	.LC18:
 246 0308 556E6861 		.string	"Unhandled exception in CHECK_EQUAL(14, nibble)"
 246      6E646C65 
 246      64206578 
 246      63657074 
 246      696F6E20 
 247 0337 00       		.align 8
 248              	.LC19:
 249 0338 556E6861 		.string	"Unhandled exception in CHECK_EQUAL(15, nibble)"
 249      6E646C65 
 249      64206578 
 249      63657074 
 249      696F6E20 
 250 0367 00       		.align 8
 251              	.LC20:
 252 0368 556E6861 		.string	"Unhandled exception in CHECK_EQUAL(true, status)"
 252      6E646C65 
 252      64206578 
 252      63657074 
 252      696F6E20 
 253              		.text
 254              		.align 2
 255              		.globl	_ZNK25TestConv_testGetHexNibble7RunImplEv
 257              	_ZNK25TestConv_testGetHexNibble7RunImplEv:
 258              	.LFB1076:
 259              		.loc 3 20 0
 260              		.cfi_startproc
 261              		.cfi_personality 0x3,__gxx_personality_v0
 262              		.cfi_lsda 0x3,.LLSDA1076
 263 0000 55       		pushq	%rbp
 264              		.cfi_def_cfa_offset 16
 265              		.cfi_offset 6, -16
 266 0001 4889E5   		movq	%rsp, %rbp
 267              		.cfi_def_cfa_register 6
 268 0004 53       		pushq	%rbx
 269 0005 4883EC58 		subq	$88, %rsp
 270              		.cfi_offset 3, -24
 271 0009 48897DA8 		movq	%rdi, -88(%rbp)
 272              		.loc 3 20 0
 273 000d 64488B04 		movq	%fs:40, %rax
 273      25280000 
 273      00
 274 0016 488945E8 		movq	%rax, -24(%rbp)
 275 001a 31C0     		xorl	%eax, %eax
  21:testConv.cpp  **** 	uint8 nibble;
  22:testConv.cpp  **** 	bool status;
  23:testConv.cpp  **** 	status = getHexNibble('0', &nibble);
 276              		.loc 3 23 0
 277 001c 488D45BA 		leaq	-70(%rbp), %rax
 278 0020 4889C6   		movq	%rax, %rsi
 279 0023 BF300000 		movl	$48, %edi
 279      00
 280              	.LEHB4:
 281 0028 E8000000 		call	getHexNibble
 281      00
 282              	.LEHE4:
 283 002d 8845BB   		movb	%al, -69(%rbp)
 284              	.LEHB5:
  24:testConv.cpp  **** 	CHECK_EQUAL(false, status);
 285              		.loc 3 24 0
 286 0030 E8000000 		call	_ZN8UnitTest11CurrentTest7DetailsEv
 286      00
 287 0035 488B08   		movq	(%rax), %rcx
 288 0038 488D45C0 		leaq	-64(%rbp), %rax
 289 003c BA180000 		movl	$24, %edx
 289      00
 290 0041 4889CE   		movq	%rcx, %rsi
 291 0044 4889C7   		movq	%rax, %rdi
 292 0047 E8000000 		call	_ZN8UnitTest11TestDetailsC1ERKS0_i
 292      00
 293              	.LEHE5:
 294              		.loc 3 24 0 is_stmt 0 discriminator 2
 295 004c C645BC00 		movb	$0, -68(%rbp)
 296              	.LEHB6:
 297 0050 E8000000 		call	_ZN8UnitTest11CurrentTest7ResultsEv
 297      00
 298 0055 488B00   		movq	(%rax), %rax
 299 0058 488D4DC0 		leaq	-64(%rbp), %rcx
 300 005c 488D55BB 		leaq	-69(%rbp), %rdx
 301 0060 488D75BC 		leaq	-68(%rbp), %rsi
 302 0064 4889C7   		movq	%rax, %rdi
 303 0067 E8000000 		call	_ZN8UnitTest10CheckEqualIbbEEvRNS_11TestResultsERKT_RKT0_RKNS_11TestDetailsE
 303      00
 304              	.LEHE6:
 305              	.L14:
 306              	.LEHB7:
  25:testConv.cpp  **** 	CHECK_EQUAL(0, nibble);
 307              		.loc 3 25 0 is_stmt 1
 308 006c E8000000 		call	_ZN8UnitTest11CurrentTest7DetailsEv
 308      00
 309 0071 488B08   		movq	(%rax), %rcx
 310 0074 488D45C0 		leaq	-64(%rbp), %rax
 311 0078 BA190000 		movl	$25, %edx
 311      00
 312 007d 4889CE   		movq	%rcx, %rsi
 313 0080 4889C7   		movq	%rax, %rdi
 314 0083 E8000000 		call	_ZN8UnitTest11TestDetailsC1ERKS0_i
 314      00
 315              	.LEHE7:
 316              		.loc 3 25 0 is_stmt 0 discriminator 2
 317 0088 C745BC00 		movl	$0, -68(%rbp)
 317      000000
 318              	.LEHB8:
 319 008f E8000000 		call	_ZN8UnitTest11CurrentTest7ResultsEv
 319      00
 320 0094 488B00   		movq	(%rax), %rax
 321 0097 488D4DC0 		leaq	-64(%rbp), %rcx
 322 009b 488D55BA 		leaq	-70(%rbp), %rdx
 323 009f 488D75BC 		leaq	-68(%rbp), %rsi
 324 00a3 4889C7   		movq	%rax, %rdi
 325 00a6 E8000000 		call	_ZN8UnitTest10CheckEqualIihEEvRNS_11TestResultsERKT_RKT0_RKNS_11TestDetailsE
 325      00
 326              	.LEHE8:
 327              	.L18:
  26:testConv.cpp  **** 	status = getHexNibble('1', &nibble);
 328              		.loc 3 26 0 is_stmt 1
 329 00ab 488D45BA 		leaq	-70(%rbp), %rax
 330 00af 4889C6   		movq	%rax, %rsi
 331 00b2 BF310000 		movl	$49, %edi
 331      00
 332              	.LEHB9:
 333 00b7 E8000000 		call	getHexNibble
 333      00
 334              	.LEHE9:
 335 00bc 8845BB   		movb	%al, -69(%rbp)
 336              	.LEHB10:
  27:testConv.cpp  **** 	CHECK_EQUAL(false, status);
 337              		.loc 3 27 0
 338 00bf E8000000 		call	_ZN8UnitTest11CurrentTest7DetailsEv
 338      00
 339 00c4 488B08   		movq	(%rax), %rcx
 340 00c7 488D45C0 		leaq	-64(%rbp), %rax
 341 00cb BA1B0000 		movl	$27, %edx
 341      00
 342 00d0 4889CE   		movq	%rcx, %rsi
 343 00d3 4889C7   		movq	%rax, %rdi
 344 00d6 E8000000 		call	_ZN8UnitTest11TestDetailsC1ERKS0_i
 344      00
 345              	.LEHE10:
 346              		.loc 3 27 0 is_stmt 0 discriminator 2
 347 00db C645BC00 		movb	$0, -68(%rbp)
 348              	.LEHB11:
 349 00df E8000000 		call	_ZN8UnitTest11CurrentTest7ResultsEv
 349      00
 350 00e4 488B00   		movq	(%rax), %rax
 351 00e7 488D4DC0 		leaq	-64(%rbp), %rcx
 352 00eb 488D55BB 		leaq	-69(%rbp), %rdx
 353 00ef 488D75BC 		leaq	-68(%rbp), %rsi
 354 00f3 4889C7   		movq	%rax, %rdi
 355 00f6 E8000000 		call	_ZN8UnitTest10CheckEqualIbbEEvRNS_11TestResultsERKT_RKT0_RKNS_11TestDetailsE
 355      00
 356              	.LEHE11:
 357              	.L22:
 358              	.LEHB12:
  28:testConv.cpp  **** 	CHECK_EQUAL(1, nibble);
 359              		.loc 3 28 0 is_stmt 1
 360 00fb E8000000 		call	_ZN8UnitTest11CurrentTest7DetailsEv
 360      00
 361 0100 488B08   		movq	(%rax), %rcx
 362 0103 488D45C0 		leaq	-64(%rbp), %rax
 363 0107 BA1C0000 		movl	$28, %edx
 363      00
 364 010c 4889CE   		movq	%rcx, %rsi
 365 010f 4889C7   		movq	%rax, %rdi
 366 0112 E8000000 		call	_ZN8UnitTest11TestDetailsC1ERKS0_i
 366      00
 367              	.LEHE12:
 368              		.loc 3 28 0 is_stmt 0 discriminator 2
 369 0117 C745BC01 		movl	$1, -68(%rbp)
 369      000000
 370              	.LEHB13:
 371 011e E8000000 		call	_ZN8UnitTest11CurrentTest7ResultsEv
 371      00
 372 0123 488B00   		movq	(%rax), %rax
 373 0126 488D4DC0 		leaq	-64(%rbp), %rcx
 374 012a 488D55BA 		leaq	-70(%rbp), %rdx
 375 012e 488D75BC 		leaq	-68(%rbp), %rsi
 376 0132 4889C7   		movq	%rax, %rdi
 377 0135 E8000000 		call	_ZN8UnitTest10CheckEqualIihEEvRNS_11TestResultsERKT_RKT0_RKNS_11TestDetailsE
 377      00
 378              	.LEHE13:
 379              	.L26:
  29:testConv.cpp  **** 	status = getHexNibble('2', &nibble);
 380              		.loc 3 29 0 is_stmt 1
 381 013a 488D45BA 		leaq	-70(%rbp), %rax
 382 013e 4889C6   		movq	%rax, %rsi
 383 0141 BF320000 		movl	$50, %edi
 383      00
 384              	.LEHB14:
 385 0146 E8000000 		call	getHexNibble
 385      00
 386              	.LEHE14:
 387 014b 8845BB   		movb	%al, -69(%rbp)
 388              	.LEHB15:
  30:testConv.cpp  **** 	CHECK_EQUAL(false, status);
 389              		.loc 3 30 0
 390 014e E8000000 		call	_ZN8UnitTest11CurrentTest7DetailsEv
 390      00
 391 0153 488B08   		movq	(%rax), %rcx
 392 0156 488D45C0 		leaq	-64(%rbp), %rax
 393 015a BA1E0000 		movl	$30, %edx
 393      00
 394 015f 4889CE   		movq	%rcx, %rsi
 395 0162 4889C7   		movq	%rax, %rdi
 396 0165 E8000000 		call	_ZN8UnitTest11TestDetailsC1ERKS0_i
 396      00
 397              	.LEHE15:
 398              		.loc 3 30 0 is_stmt 0 discriminator 2
 399 016a C645BC00 		movb	$0, -68(%rbp)
 400              	.LEHB16:
 401 016e E8000000 		call	_ZN8UnitTest11CurrentTest7ResultsEv
 401      00
 402 0173 488B00   		movq	(%rax), %rax
 403 0176 488D4DC0 		leaq	-64(%rbp), %rcx
 404 017a 488D55BB 		leaq	-69(%rbp), %rdx
 405 017e 488D75BC 		leaq	-68(%rbp), %rsi
 406 0182 4889C7   		movq	%rax, %rdi
 407 0185 E8000000 		call	_ZN8UnitTest10CheckEqualIbbEEvRNS_11TestResultsERKT_RKT0_RKNS_11TestDetailsE
 407      00
 408              	.LEHE16:
 409              	.L30:
 410              	.LEHB17:
  31:testConv.cpp  **** 	CHECK_EQUAL(2, nibble);
 411              		.loc 3 31 0 is_stmt 1
 412 018a E8000000 		call	_ZN8UnitTest11CurrentTest7DetailsEv
 412      00
 413 018f 488B08   		movq	(%rax), %rcx
 414 0192 488D45C0 		leaq	-64(%rbp), %rax
 415 0196 BA1F0000 		movl	$31, %edx
 415      00
 416 019b 4889CE   		movq	%rcx, %rsi
 417 019e 4889C7   		movq	%rax, %rdi
 418 01a1 E8000000 		call	_ZN8UnitTest11TestDetailsC1ERKS0_i
 418      00
 419              	.LEHE17:
 420              		.loc 3 31 0 is_stmt 0 discriminator 2
 421 01a6 C745BC02 		movl	$2, -68(%rbp)
 421      000000
 422              	.LEHB18:
 423 01ad E8000000 		call	_ZN8UnitTest11CurrentTest7ResultsEv
 423      00
 424 01b2 488B00   		movq	(%rax), %rax
 425 01b5 488D4DC0 		leaq	-64(%rbp), %rcx
 426 01b9 488D55BA 		leaq	-70(%rbp), %rdx
 427 01bd 488D75BC 		leaq	-68(%rbp), %rsi
 428 01c1 4889C7   		movq	%rax, %rdi
 429 01c4 E8000000 		call	_ZN8UnitTest10CheckEqualIihEEvRNS_11TestResultsERKT_RKT0_RKNS_11TestDetailsE
 429      00
 430              	.LEHE18:
 431              	.L34:
  32:testConv.cpp  **** 	status = getHexNibble('3', &nibble);
 432              		.loc 3 32 0 is_stmt 1
 433 01c9 488D45BA 		leaq	-70(%rbp), %rax
 434 01cd 4889C6   		movq	%rax, %rsi
 435 01d0 BF330000 		movl	$51, %edi
 435      00
 436              	.LEHB19:
 437 01d5 E8000000 		call	getHexNibble
 437      00
 438              	.LEHE19:
 439 01da 8845BB   		movb	%al, -69(%rbp)
 440              	.LEHB20:
  33:testConv.cpp  **** 	CHECK_EQUAL(false, status);
 441              		.loc 3 33 0
 442 01dd E8000000 		call	_ZN8UnitTest11CurrentTest7DetailsEv
 442      00
 443 01e2 488B08   		movq	(%rax), %rcx
 444 01e5 488D45C0 		leaq	-64(%rbp), %rax
 445 01e9 BA210000 		movl	$33, %edx
 445      00
 446 01ee 4889CE   		movq	%rcx, %rsi
 447 01f1 4889C7   		movq	%rax, %rdi
 448 01f4 E8000000 		call	_ZN8UnitTest11TestDetailsC1ERKS0_i
 448      00
 449              	.LEHE20:
 450              		.loc 3 33 0 is_stmt 0 discriminator 2
 451 01f9 C645BC00 		movb	$0, -68(%rbp)
 452              	.LEHB21:
 453 01fd E8000000 		call	_ZN8UnitTest11CurrentTest7ResultsEv
 453      00
 454 0202 488B00   		movq	(%rax), %rax
 455 0205 488D4DC0 		leaq	-64(%rbp), %rcx
 456 0209 488D55BB 		leaq	-69(%rbp), %rdx
 457 020d 488D75BC 		leaq	-68(%rbp), %rsi
 458 0211 4889C7   		movq	%rax, %rdi
 459 0214 E8000000 		call	_ZN8UnitTest10CheckEqualIbbEEvRNS_11TestResultsERKT_RKT0_RKNS_11TestDetailsE
 459      00
 460              	.LEHE21:
 461              	.L38:
 462              	.LEHB22:
  34:testConv.cpp  **** 	CHECK_EQUAL(3, nibble);
 463              		.loc 3 34 0 is_stmt 1
 464 0219 E8000000 		call	_ZN8UnitTest11CurrentTest7DetailsEv
 464      00
 465 021e 488B08   		movq	(%rax), %rcx
 466 0221 488D45C0 		leaq	-64(%rbp), %rax
 467 0225 BA220000 		movl	$34, %edx
 467      00
 468 022a 4889CE   		movq	%rcx, %rsi
 469 022d 4889C7   		movq	%rax, %rdi
 470 0230 E8000000 		call	_ZN8UnitTest11TestDetailsC1ERKS0_i
 470      00
 471              	.LEHE22:
 472              		.loc 3 34 0 is_stmt 0 discriminator 2
 473 0235 C745BC03 		movl	$3, -68(%rbp)
 473      000000
 474              	.LEHB23:
 475 023c E8000000 		call	_ZN8UnitTest11CurrentTest7ResultsEv
 475      00
 476 0241 488B00   		movq	(%rax), %rax
 477 0244 488D4DC0 		leaq	-64(%rbp), %rcx
 478 0248 488D55BA 		leaq	-70(%rbp), %rdx
 479 024c 488D75BC 		leaq	-68(%rbp), %rsi
 480 0250 4889C7   		movq	%rax, %rdi
 481 0253 E8000000 		call	_ZN8UnitTest10CheckEqualIihEEvRNS_11TestResultsERKT_RKT0_RKNS_11TestDetailsE
 481      00
 482              	.LEHE23:
 483              	.L42:
  35:testConv.cpp  **** 	status = getHexNibble('4', &nibble);
 484              		.loc 3 35 0 is_stmt 1
 485 0258 488D45BA 		leaq	-70(%rbp), %rax
 486 025c 4889C6   		movq	%rax, %rsi
 487 025f BF340000 		movl	$52, %edi
 487      00
 488              	.LEHB24:
 489 0264 E8000000 		call	getHexNibble
 489      00
 490              	.LEHE24:
 491 0269 8845BB   		movb	%al, -69(%rbp)
 492              	.LEHB25:
  36:testConv.cpp  **** 	CHECK_EQUAL(false, status);
 493              		.loc 3 36 0
 494 026c E8000000 		call	_ZN8UnitTest11CurrentTest7DetailsEv
 494      00
 495 0271 488B08   		movq	(%rax), %rcx
 496 0274 488D45C0 		leaq	-64(%rbp), %rax
 497 0278 BA240000 		movl	$36, %edx
 497      00
 498 027d 4889CE   		movq	%rcx, %rsi
 499 0280 4889C7   		movq	%rax, %rdi
 500 0283 E8000000 		call	_ZN8UnitTest11TestDetailsC1ERKS0_i
 500      00
 501              	.LEHE25:
 502              		.loc 3 36 0 is_stmt 0 discriminator 2
 503 0288 C645BC00 		movb	$0, -68(%rbp)
 504              	.LEHB26:
 505 028c E8000000 		call	_ZN8UnitTest11CurrentTest7ResultsEv
 505      00
 506 0291 488B00   		movq	(%rax), %rax
 507 0294 488D4DC0 		leaq	-64(%rbp), %rcx
 508 0298 488D55BB 		leaq	-69(%rbp), %rdx
 509 029c 488D75BC 		leaq	-68(%rbp), %rsi
 510 02a0 4889C7   		movq	%rax, %rdi
 511 02a3 E8000000 		call	_ZN8UnitTest10CheckEqualIbbEEvRNS_11TestResultsERKT_RKT0_RKNS_11TestDetailsE
 511      00
 512              	.LEHE26:
 513              	.L46:
 514              	.LEHB27:
  37:testConv.cpp  **** 	CHECK_EQUAL(4, nibble);
 515              		.loc 3 37 0 is_stmt 1
 516 02a8 E8000000 		call	_ZN8UnitTest11CurrentTest7DetailsEv
 516      00
 517 02ad 488B08   		movq	(%rax), %rcx
 518 02b0 488D45C0 		leaq	-64(%rbp), %rax
 519 02b4 BA250000 		movl	$37, %edx
 519      00
 520 02b9 4889CE   		movq	%rcx, %rsi
 521 02bc 4889C7   		movq	%rax, %rdi
 522 02bf E8000000 		call	_ZN8UnitTest11TestDetailsC1ERKS0_i
 522      00
 523              	.LEHE27:
 524              		.loc 3 37 0 is_stmt 0 discriminator 2
 525 02c4 C745BC04 		movl	$4, -68(%rbp)
 525      000000
 526              	.LEHB28:
 527 02cb E8000000 		call	_ZN8UnitTest11CurrentTest7ResultsEv
 527      00
 528 02d0 488B00   		movq	(%rax), %rax
 529 02d3 488D4DC0 		leaq	-64(%rbp), %rcx
 530 02d7 488D55BA 		leaq	-70(%rbp), %rdx
 531 02db 488D75BC 		leaq	-68(%rbp), %rsi
 532 02df 4889C7   		movq	%rax, %rdi
 533 02e2 E8000000 		call	_ZN8UnitTest10CheckEqualIihEEvRNS_11TestResultsERKT_RKT0_RKNS_11TestDetailsE
 533      00
 534              	.LEHE28:
 535              	.L50:
  38:testConv.cpp  **** 	status = getHexNibble('5', &nibble);
 536              		.loc 3 38 0 is_stmt 1
 537 02e7 488D45BA 		leaq	-70(%rbp), %rax
 538 02eb 4889C6   		movq	%rax, %rsi
 539 02ee BF350000 		movl	$53, %edi
 539      00
 540              	.LEHB29:
 541 02f3 E8000000 		call	getHexNibble
 541      00
 542              	.LEHE29:
 543 02f8 8845BB   		movb	%al, -69(%rbp)
 544              	.LEHB30:
  39:testConv.cpp  **** 	CHECK_EQUAL(false, status);
 545              		.loc 3 39 0
 546 02fb E8000000 		call	_ZN8UnitTest11CurrentTest7DetailsEv
 546      00
 547 0300 488B08   		movq	(%rax), %rcx
 548 0303 488D45C0 		leaq	-64(%rbp), %rax
 549 0307 BA270000 		movl	$39, %edx
 549      00
 550 030c 4889CE   		movq	%rcx, %rsi
 551 030f 4889C7   		movq	%rax, %rdi
 552 0312 E8000000 		call	_ZN8UnitTest11TestDetailsC1ERKS0_i
 552      00
 553              	.LEHE30:
 554              		.loc 3 39 0 is_stmt 0 discriminator 2
 555 0317 C645BC00 		movb	$0, -68(%rbp)
 556              	.LEHB31:
 557 031b E8000000 		call	_ZN8UnitTest11CurrentTest7ResultsEv
 557      00
 558 0320 488B00   		movq	(%rax), %rax
 559 0323 488D4DC0 		leaq	-64(%rbp), %rcx
 560 0327 488D55BB 		leaq	-69(%rbp), %rdx
 561 032b 488D75BC 		leaq	-68(%rbp), %rsi
 562 032f 4889C7   		movq	%rax, %rdi
 563 0332 E8000000 		call	_ZN8UnitTest10CheckEqualIbbEEvRNS_11TestResultsERKT_RKT0_RKNS_11TestDetailsE
 563      00
 564              	.LEHE31:
 565              	.L54:
 566              	.LEHB32:
  40:testConv.cpp  **** 	CHECK_EQUAL(5, nibble);
 567              		.loc 3 40 0 is_stmt 1
 568 0337 E8000000 		call	_ZN8UnitTest11CurrentTest7DetailsEv
 568      00
 569 033c 488B08   		movq	(%rax), %rcx
 570 033f 488D45C0 		leaq	-64(%rbp), %rax
 571 0343 BA280000 		movl	$40, %edx
 571      00
 572 0348 4889CE   		movq	%rcx, %rsi
 573 034b 4889C7   		movq	%rax, %rdi
 574 034e E8000000 		call	_ZN8UnitTest11TestDetailsC1ERKS0_i
 574      00
 575              	.LEHE32:
 576              		.loc 3 40 0 is_stmt 0 discriminator 2
 577 0353 C745BC05 		movl	$5, -68(%rbp)
 577      000000
 578              	.LEHB33:
 579 035a E8000000 		call	_ZN8UnitTest11CurrentTest7ResultsEv
 579      00
 580 035f 488B00   		movq	(%rax), %rax
 581 0362 488D4DC0 		leaq	-64(%rbp), %rcx
 582 0366 488D55BA 		leaq	-70(%rbp), %rdx
 583 036a 488D75BC 		leaq	-68(%rbp), %rsi
 584 036e 4889C7   		movq	%rax, %rdi
 585 0371 E8000000 		call	_ZN8UnitTest10CheckEqualIihEEvRNS_11TestResultsERKT_RKT0_RKNS_11TestDetailsE
 585      00
 586              	.LEHE33:
 587              	.L58:
  41:testConv.cpp  **** 	status = getHexNibble('6', &nibble);
 588              		.loc 3 41 0 is_stmt 1
 589 0376 488D45BA 		leaq	-70(%rbp), %rax
 590 037a 4889C6   		movq	%rax, %rsi
 591 037d BF360000 		movl	$54, %edi
 591      00
 592              	.LEHB34:
 593 0382 E8000000 		call	getHexNibble
 593      00
 594              	.LEHE34:
 595 0387 8845BB   		movb	%al, -69(%rbp)
 596              	.LEHB35:
  42:testConv.cpp  **** 	CHECK_EQUAL(false, status);
 597              		.loc 3 42 0
 598 038a E8000000 		call	_ZN8UnitTest11CurrentTest7DetailsEv
 598      00
 599 038f 488B08   		movq	(%rax), %rcx
 600 0392 488D45C0 		leaq	-64(%rbp), %rax
 601 0396 BA2A0000 		movl	$42, %edx
 601      00
 602 039b 4889CE   		movq	%rcx, %rsi
 603 039e 4889C7   		movq	%rax, %rdi
 604 03a1 E8000000 		call	_ZN8UnitTest11TestDetailsC1ERKS0_i
 604      00
 605              	.LEHE35:
 606              		.loc 3 42 0 is_stmt 0 discriminator 2
 607 03a6 C645BC00 		movb	$0, -68(%rbp)
 608              	.LEHB36:
 609 03aa E8000000 		call	_ZN8UnitTest11CurrentTest7ResultsEv
 609      00
 610 03af 488B00   		movq	(%rax), %rax
 611 03b2 488D4DC0 		leaq	-64(%rbp), %rcx
 612 03b6 488D55BB 		leaq	-69(%rbp), %rdx
 613 03ba 488D75BC 		leaq	-68(%rbp), %rsi
 614 03be 4889C7   		movq	%rax, %rdi
 615 03c1 E8000000 		call	_ZN8UnitTest10CheckEqualIbbEEvRNS_11TestResultsERKT_RKT0_RKNS_11TestDetailsE
 615      00
 616              	.LEHE36:
 617              	.L62:
 618              	.LEHB37:
  43:testConv.cpp  **** 	CHECK_EQUAL(6, nibble);
 619              		.loc 3 43 0 is_stmt 1
 620 03c6 E8000000 		call	_ZN8UnitTest11CurrentTest7DetailsEv
 620      00
 621 03cb 488B08   		movq	(%rax), %rcx
 622 03ce 488D45C0 		leaq	-64(%rbp), %rax
 623 03d2 BA2B0000 		movl	$43, %edx
 623      00
 624 03d7 4889CE   		movq	%rcx, %rsi
 625 03da 4889C7   		movq	%rax, %rdi
 626 03dd E8000000 		call	_ZN8UnitTest11TestDetailsC1ERKS0_i
 626      00
 627              	.LEHE37:
 628              		.loc 3 43 0 is_stmt 0 discriminator 2
 629 03e2 C745BC06 		movl	$6, -68(%rbp)
 629      000000
 630              	.LEHB38:
 631 03e9 E8000000 		call	_ZN8UnitTest11CurrentTest7ResultsEv
 631      00
 632 03ee 488B00   		movq	(%rax), %rax
 633 03f1 488D4DC0 		leaq	-64(%rbp), %rcx
 634 03f5 488D55BA 		leaq	-70(%rbp), %rdx
 635 03f9 488D75BC 		leaq	-68(%rbp), %rsi
 636 03fd 4889C7   		movq	%rax, %rdi
 637 0400 E8000000 		call	_ZN8UnitTest10CheckEqualIihEEvRNS_11TestResultsERKT_RKT0_RKNS_11TestDetailsE
 637      00
 638              	.LEHE38:
 639              	.L66:
  44:testConv.cpp  **** 	status = getHexNibble('7', &nibble);
 640              		.loc 3 44 0 is_stmt 1
 641 0405 488D45BA 		leaq	-70(%rbp), %rax
 642 0409 4889C6   		movq	%rax, %rsi
 643 040c BF370000 		movl	$55, %edi
 643      00
 644              	.LEHB39:
 645 0411 E8000000 		call	getHexNibble
 645      00
 646              	.LEHE39:
 647 0416 8845BB   		movb	%al, -69(%rbp)
 648              	.LEHB40:
  45:testConv.cpp  **** 	CHECK_EQUAL(false, status);
 649              		.loc 3 45 0
 650 0419 E8000000 		call	_ZN8UnitTest11CurrentTest7DetailsEv
 650      00
 651 041e 488B08   		movq	(%rax), %rcx
 652 0421 488D45C0 		leaq	-64(%rbp), %rax
 653 0425 BA2D0000 		movl	$45, %edx
 653      00
 654 042a 4889CE   		movq	%rcx, %rsi
 655 042d 4889C7   		movq	%rax, %rdi
 656 0430 E8000000 		call	_ZN8UnitTest11TestDetailsC1ERKS0_i
 656      00
 657              	.LEHE40:
 658              		.loc 3 45 0 is_stmt 0 discriminator 2
 659 0435 C645BC00 		movb	$0, -68(%rbp)
 660              	.LEHB41:
 661 0439 E8000000 		call	_ZN8UnitTest11CurrentTest7ResultsEv
 661      00
 662 043e 488B00   		movq	(%rax), %rax
 663 0441 488D4DC0 		leaq	-64(%rbp), %rcx
 664 0445 488D55BB 		leaq	-69(%rbp), %rdx
 665 0449 488D75BC 		leaq	-68(%rbp), %rsi
 666 044d 4889C7   		movq	%rax, %rdi
 667 0450 E8000000 		call	_ZN8UnitTest10CheckEqualIbbEEvRNS_11TestResultsERKT_RKT0_RKNS_11TestDetailsE
 667      00
 668              	.LEHE41:
 669              	.L70:
 670              	.LEHB42:
  46:testConv.cpp  **** 	CHECK_EQUAL(7, nibble);
 671              		.loc 3 46 0 is_stmt 1
 672 0455 E8000000 		call	_ZN8UnitTest11CurrentTest7DetailsEv
 672      00
 673 045a 488B08   		movq	(%rax), %rcx
 674 045d 488D45C0 		leaq	-64(%rbp), %rax
 675 0461 BA2E0000 		movl	$46, %edx
 675      00
 676 0466 4889CE   		movq	%rcx, %rsi
 677 0469 4889C7   		movq	%rax, %rdi
 678 046c E8000000 		call	_ZN8UnitTest11TestDetailsC1ERKS0_i
 678      00
 679              	.LEHE42:
 680              		.loc 3 46 0 is_stmt 0 discriminator 2
 681 0471 C745BC07 		movl	$7, -68(%rbp)
 681      000000
 682              	.LEHB43:
 683 0478 E8000000 		call	_ZN8UnitTest11CurrentTest7ResultsEv
 683      00
 684 047d 488B00   		movq	(%rax), %rax
 685 0480 488D4DC0 		leaq	-64(%rbp), %rcx
 686 0484 488D55BA 		leaq	-70(%rbp), %rdx
 687 0488 488D75BC 		leaq	-68(%rbp), %rsi
 688 048c 4889C7   		movq	%rax, %rdi
 689 048f E8000000 		call	_ZN8UnitTest10CheckEqualIihEEvRNS_11TestResultsERKT_RKT0_RKNS_11TestDetailsE
 689      00
 690              	.LEHE43:
 691              	.L74:
  47:testConv.cpp  **** 	status = getHexNibble('8', &nibble);
 692              		.loc 3 47 0 is_stmt 1
 693 0494 488D45BA 		leaq	-70(%rbp), %rax
 694 0498 4889C6   		movq	%rax, %rsi
 695 049b BF380000 		movl	$56, %edi
 695      00
 696              	.LEHB44:
 697 04a0 E8000000 		call	getHexNibble
 697      00
 698              	.LEHE44:
 699 04a5 8845BB   		movb	%al, -69(%rbp)
 700              	.LEHB45:
  48:testConv.cpp  **** 	CHECK_EQUAL(false, status);
 701              		.loc 3 48 0
 702 04a8 E8000000 		call	_ZN8UnitTest11CurrentTest7DetailsEv
 702      00
 703 04ad 488B08   		movq	(%rax), %rcx
 704 04b0 488D45C0 		leaq	-64(%rbp), %rax
 705 04b4 BA300000 		movl	$48, %edx
 705      00
 706 04b9 4889CE   		movq	%rcx, %rsi
 707 04bc 4889C7   		movq	%rax, %rdi
 708 04bf E8000000 		call	_ZN8UnitTest11TestDetailsC1ERKS0_i
 708      00
 709              	.LEHE45:
 710              		.loc 3 48 0 is_stmt 0 discriminator 2
 711 04c4 C645BC00 		movb	$0, -68(%rbp)
 712              	.LEHB46:
 713 04c8 E8000000 		call	_ZN8UnitTest11CurrentTest7ResultsEv
 713      00
 714 04cd 488B00   		movq	(%rax), %rax
 715 04d0 488D4DC0 		leaq	-64(%rbp), %rcx
 716 04d4 488D55BB 		leaq	-69(%rbp), %rdx
 717 04d8 488D75BC 		leaq	-68(%rbp), %rsi
 718 04dc 4889C7   		movq	%rax, %rdi
 719 04df E8000000 		call	_ZN8UnitTest10CheckEqualIbbEEvRNS_11TestResultsERKT_RKT0_RKNS_11TestDetailsE
 719      00
 720              	.LEHE46:
 721              	.L78:
 722              	.LEHB47:
  49:testConv.cpp  **** 	CHECK_EQUAL(8, nibble);
 723              		.loc 3 49 0 is_stmt 1
 724 04e4 E8000000 		call	_ZN8UnitTest11CurrentTest7DetailsEv
 724      00
 725 04e9 488B08   		movq	(%rax), %rcx
 726 04ec 488D45C0 		leaq	-64(%rbp), %rax
 727 04f0 BA310000 		movl	$49, %edx
 727      00
 728 04f5 4889CE   		movq	%rcx, %rsi
 729 04f8 4889C7   		movq	%rax, %rdi
 730 04fb E8000000 		call	_ZN8UnitTest11TestDetailsC1ERKS0_i
 730      00
 731              	.LEHE47:
 732              		.loc 3 49 0 is_stmt 0 discriminator 2
 733 0500 C745BC08 		movl	$8, -68(%rbp)
 733      000000
 734              	.LEHB48:
 735 0507 E8000000 		call	_ZN8UnitTest11CurrentTest7ResultsEv
 735      00
 736 050c 488B00   		movq	(%rax), %rax
 737 050f 488D4DC0 		leaq	-64(%rbp), %rcx
 738 0513 488D55BA 		leaq	-70(%rbp), %rdx
 739 0517 488D75BC 		leaq	-68(%rbp), %rsi
 740 051b 4889C7   		movq	%rax, %rdi
 741 051e E8000000 		call	_ZN8UnitTest10CheckEqualIihEEvRNS_11TestResultsERKT_RKT0_RKNS_11TestDetailsE
 741      00
 742              	.LEHE48:
 743              	.L82:
  50:testConv.cpp  **** 	status = getHexNibble('9', &nibble);
 744              		.loc 3 50 0 is_stmt 1
 745 0523 488D45BA 		leaq	-70(%rbp), %rax
 746 0527 4889C6   		movq	%rax, %rsi
 747 052a BF390000 		movl	$57, %edi
 747      00
 748              	.LEHB49:
 749 052f E8000000 		call	getHexNibble
 749      00
 750              	.LEHE49:
 751 0534 8845BB   		movb	%al, -69(%rbp)
 752              	.LEHB50:
  51:testConv.cpp  **** 	CHECK_EQUAL(false, status);
 753              		.loc 3 51 0
 754 0537 E8000000 		call	_ZN8UnitTest11CurrentTest7DetailsEv
 754      00
 755 053c 488B08   		movq	(%rax), %rcx
 756 053f 488D45C0 		leaq	-64(%rbp), %rax
 757 0543 BA330000 		movl	$51, %edx
 757      00
 758 0548 4889CE   		movq	%rcx, %rsi
 759 054b 4889C7   		movq	%rax, %rdi
 760 054e E8000000 		call	_ZN8UnitTest11TestDetailsC1ERKS0_i
 760      00
 761              	.LEHE50:
 762              		.loc 3 51 0 is_stmt 0 discriminator 2
 763 0553 C645BC00 		movb	$0, -68(%rbp)
 764              	.LEHB51:
 765 0557 E8000000 		call	_ZN8UnitTest11CurrentTest7ResultsEv
 765      00
 766 055c 488B00   		movq	(%rax), %rax
 767 055f 488D4DC0 		leaq	-64(%rbp), %rcx
 768 0563 488D55BB 		leaq	-69(%rbp), %rdx
 769 0567 488D75BC 		leaq	-68(%rbp), %rsi
 770 056b 4889C7   		movq	%rax, %rdi
 771 056e E8000000 		call	_ZN8UnitTest10CheckEqualIbbEEvRNS_11TestResultsERKT_RKT0_RKNS_11TestDetailsE
 771      00
 772              	.LEHE51:
 773              	.L86:
 774              	.LEHB52:
  52:testConv.cpp  **** 	CHECK_EQUAL(9, nibble);
 775              		.loc 3 52 0 is_stmt 1
 776 0573 E8000000 		call	_ZN8UnitTest11CurrentTest7DetailsEv
 776      00
 777 0578 488B08   		movq	(%rax), %rcx
 778 057b 488D45C0 		leaq	-64(%rbp), %rax
 779 057f BA340000 		movl	$52, %edx
 779      00
 780 0584 4889CE   		movq	%rcx, %rsi
 781 0587 4889C7   		movq	%rax, %rdi
 782 058a E8000000 		call	_ZN8UnitTest11TestDetailsC1ERKS0_i
 782      00
 783              	.LEHE52:
 784              		.loc 3 52 0 is_stmt 0 discriminator 2
 785 058f C745BC09 		movl	$9, -68(%rbp)
 785      000000
 786              	.LEHB53:
 787 0596 E8000000 		call	_ZN8UnitTest11CurrentTest7ResultsEv
 787      00
 788 059b 488B00   		movq	(%rax), %rax
 789 059e 488D4DC0 		leaq	-64(%rbp), %rcx
 790 05a2 488D55BA 		leaq	-70(%rbp), %rdx
 791 05a6 488D75BC 		leaq	-68(%rbp), %rsi
 792 05aa 4889C7   		movq	%rax, %rdi
 793 05ad E8000000 		call	_ZN8UnitTest10CheckEqualIihEEvRNS_11TestResultsERKT_RKT0_RKNS_11TestDetailsE
 793      00
 794              	.LEHE53:
 795              	.L90:
  53:testConv.cpp  **** 	status = getHexNibble('A', &nibble);
 796              		.loc 3 53 0 is_stmt 1
 797 05b2 488D45BA 		leaq	-70(%rbp), %rax
 798 05b6 4889C6   		movq	%rax, %rsi
 799 05b9 BF410000 		movl	$65, %edi
 799      00
 800              	.LEHB54:
 801 05be E8000000 		call	getHexNibble
 801      00
 802              	.LEHE54:
 803 05c3 8845BB   		movb	%al, -69(%rbp)
 804              	.LEHB55:
  54:testConv.cpp  **** 	CHECK_EQUAL(false, status);
 805              		.loc 3 54 0
 806 05c6 E8000000 		call	_ZN8UnitTest11CurrentTest7DetailsEv
 806      00
 807 05cb 488B08   		movq	(%rax), %rcx
 808 05ce 488D45C0 		leaq	-64(%rbp), %rax
 809 05d2 BA360000 		movl	$54, %edx
 809      00
 810 05d7 4889CE   		movq	%rcx, %rsi
 811 05da 4889C7   		movq	%rax, %rdi
 812 05dd E8000000 		call	_ZN8UnitTest11TestDetailsC1ERKS0_i
 812      00
 813              	.LEHE55:
 814              		.loc 3 54 0 is_stmt 0 discriminator 2
 815 05e2 C645BC00 		movb	$0, -68(%rbp)
 816              	.LEHB56:
 817 05e6 E8000000 		call	_ZN8UnitTest11CurrentTest7ResultsEv
 817      00
 818 05eb 488B00   		movq	(%rax), %rax
 819 05ee 488D4DC0 		leaq	-64(%rbp), %rcx
 820 05f2 488D55BB 		leaq	-69(%rbp), %rdx
 821 05f6 488D75BC 		leaq	-68(%rbp), %rsi
 822 05fa 4889C7   		movq	%rax, %rdi
 823 05fd E8000000 		call	_ZN8UnitTest10CheckEqualIbbEEvRNS_11TestResultsERKT_RKT0_RKNS_11TestDetailsE
 823      00
 824              	.LEHE56:
 825              	.L94:
 826              	.LEHB57:
  55:testConv.cpp  **** 	CHECK_EQUAL(10, nibble);
 827              		.loc 3 55 0 is_stmt 1
 828 0602 E8000000 		call	_ZN8UnitTest11CurrentTest7DetailsEv
 828      00
 829 0607 488B08   		movq	(%rax), %rcx
 830 060a 488D45C0 		leaq	-64(%rbp), %rax
 831 060e BA370000 		movl	$55, %edx
 831      00
 832 0613 4889CE   		movq	%rcx, %rsi
 833 0616 4889C7   		movq	%rax, %rdi
 834 0619 E8000000 		call	_ZN8UnitTest11TestDetailsC1ERKS0_i
 834      00
 835              	.LEHE57:
 836              		.loc 3 55 0 is_stmt 0 discriminator 2
 837 061e C745BC0A 		movl	$10, -68(%rbp)
 837      000000
 838              	.LEHB58:
 839 0625 E8000000 		call	_ZN8UnitTest11CurrentTest7ResultsEv
 839      00
 840 062a 488B00   		movq	(%rax), %rax
 841 062d 488D4DC0 		leaq	-64(%rbp), %rcx
 842 0631 488D55BA 		leaq	-70(%rbp), %rdx
 843 0635 488D75BC 		leaq	-68(%rbp), %rsi
 844 0639 4889C7   		movq	%rax, %rdi
 845 063c E8000000 		call	_ZN8UnitTest10CheckEqualIihEEvRNS_11TestResultsERKT_RKT0_RKNS_11TestDetailsE
 845      00
 846              	.LEHE58:
 847              	.L98:
  56:testConv.cpp  **** 	status = getHexNibble('B', &nibble);
 848              		.loc 3 56 0 is_stmt 1
 849 0641 488D45BA 		leaq	-70(%rbp), %rax
 850 0645 4889C6   		movq	%rax, %rsi
 851 0648 BF420000 		movl	$66, %edi
 851      00
 852              	.LEHB59:
 853 064d E8000000 		call	getHexNibble
 853      00
 854              	.LEHE59:
 855 0652 8845BB   		movb	%al, -69(%rbp)
 856              	.LEHB60:
  57:testConv.cpp  **** 	CHECK_EQUAL(false, status);
 857              		.loc 3 57 0
 858 0655 E8000000 		call	_ZN8UnitTest11CurrentTest7DetailsEv
 858      00
 859 065a 488B08   		movq	(%rax), %rcx
 860 065d 488D45C0 		leaq	-64(%rbp), %rax
 861 0661 BA390000 		movl	$57, %edx
 861      00
 862 0666 4889CE   		movq	%rcx, %rsi
 863 0669 4889C7   		movq	%rax, %rdi
 864 066c E8000000 		call	_ZN8UnitTest11TestDetailsC1ERKS0_i
 864      00
 865              	.LEHE60:
 866              		.loc 3 57 0 is_stmt 0 discriminator 2
 867 0671 C645BC00 		movb	$0, -68(%rbp)
 868              	.LEHB61:
 869 0675 E8000000 		call	_ZN8UnitTest11CurrentTest7ResultsEv
 869      00
 870 067a 488B00   		movq	(%rax), %rax
 871 067d 488D4DC0 		leaq	-64(%rbp), %rcx
 872 0681 488D55BB 		leaq	-69(%rbp), %rdx
 873 0685 488D75BC 		leaq	-68(%rbp), %rsi
 874 0689 4889C7   		movq	%rax, %rdi
 875 068c E8000000 		call	_ZN8UnitTest10CheckEqualIbbEEvRNS_11TestResultsERKT_RKT0_RKNS_11TestDetailsE
 875      00
 876              	.LEHE61:
 877              	.L102:
 878              	.LEHB62:
  58:testConv.cpp  **** 	CHECK_EQUAL(11, nibble);
 879              		.loc 3 58 0 is_stmt 1
 880 0691 E8000000 		call	_ZN8UnitTest11CurrentTest7DetailsEv
 880      00
 881 0696 488B08   		movq	(%rax), %rcx
 882 0699 488D45C0 		leaq	-64(%rbp), %rax
 883 069d BA3A0000 		movl	$58, %edx
 883      00
 884 06a2 4889CE   		movq	%rcx, %rsi
 885 06a5 4889C7   		movq	%rax, %rdi
 886 06a8 E8000000 		call	_ZN8UnitTest11TestDetailsC1ERKS0_i
 886      00
 887              	.LEHE62:
 888              		.loc 3 58 0 is_stmt 0 discriminator 2
 889 06ad C745BC0B 		movl	$11, -68(%rbp)
 889      000000
 890              	.LEHB63:
 891 06b4 E8000000 		call	_ZN8UnitTest11CurrentTest7ResultsEv
 891      00
 892 06b9 488B00   		movq	(%rax), %rax
 893 06bc 488D4DC0 		leaq	-64(%rbp), %rcx
 894 06c0 488D55BA 		leaq	-70(%rbp), %rdx
 895 06c4 488D75BC 		leaq	-68(%rbp), %rsi
 896 06c8 4889C7   		movq	%rax, %rdi
 897 06cb E8000000 		call	_ZN8UnitTest10CheckEqualIihEEvRNS_11TestResultsERKT_RKT0_RKNS_11TestDetailsE
 897      00
 898              	.LEHE63:
 899              	.L106:
  59:testConv.cpp  **** 	status = getHexNibble('C', &nibble);
 900              		.loc 3 59 0 is_stmt 1
 901 06d0 488D45BA 		leaq	-70(%rbp), %rax
 902 06d4 4889C6   		movq	%rax, %rsi
 903 06d7 BF430000 		movl	$67, %edi
 903      00
 904              	.LEHB64:
 905 06dc E8000000 		call	getHexNibble
 905      00
 906              	.LEHE64:
 907 06e1 8845BB   		movb	%al, -69(%rbp)
 908              	.LEHB65:
  60:testConv.cpp  **** 	CHECK_EQUAL(false, status);
 909              		.loc 3 60 0
 910 06e4 E8000000 		call	_ZN8UnitTest11CurrentTest7DetailsEv
 910      00
 911 06e9 488B08   		movq	(%rax), %rcx
 912 06ec 488D45C0 		leaq	-64(%rbp), %rax
 913 06f0 BA3C0000 		movl	$60, %edx
 913      00
 914 06f5 4889CE   		movq	%rcx, %rsi
 915 06f8 4889C7   		movq	%rax, %rdi
 916 06fb E8000000 		call	_ZN8UnitTest11TestDetailsC1ERKS0_i
 916      00
 917              	.LEHE65:
 918              		.loc 3 60 0 is_stmt 0 discriminator 2
 919 0700 C645BC00 		movb	$0, -68(%rbp)
 920              	.LEHB66:
 921 0704 E8000000 		call	_ZN8UnitTest11CurrentTest7ResultsEv
 921      00
 922 0709 488B00   		movq	(%rax), %rax
 923 070c 488D4DC0 		leaq	-64(%rbp), %rcx
 924 0710 488D55BB 		leaq	-69(%rbp), %rdx
 925 0714 488D75BC 		leaq	-68(%rbp), %rsi
 926 0718 4889C7   		movq	%rax, %rdi
 927 071b E8000000 		call	_ZN8UnitTest10CheckEqualIbbEEvRNS_11TestResultsERKT_RKT0_RKNS_11TestDetailsE
 927      00
 928              	.LEHE66:
 929              	.L110:
 930              	.LEHB67:
  61:testConv.cpp  **** 	CHECK_EQUAL(12, nibble);
 931              		.loc 3 61 0 is_stmt 1
 932 0720 E8000000 		call	_ZN8UnitTest11CurrentTest7DetailsEv
 932      00
 933 0725 488B08   		movq	(%rax), %rcx
 934 0728 488D45C0 		leaq	-64(%rbp), %rax
 935 072c BA3D0000 		movl	$61, %edx
 935      00
 936 0731 4889CE   		movq	%rcx, %rsi
 937 0734 4889C7   		movq	%rax, %rdi
 938 0737 E8000000 		call	_ZN8UnitTest11TestDetailsC1ERKS0_i
 938      00
 939              	.LEHE67:
 940              		.loc 3 61 0 is_stmt 0 discriminator 2
 941 073c C745BC0C 		movl	$12, -68(%rbp)
 941      000000
 942              	.LEHB68:
 943 0743 E8000000 		call	_ZN8UnitTest11CurrentTest7ResultsEv
 943      00
 944 0748 488B00   		movq	(%rax), %rax
 945 074b 488D4DC0 		leaq	-64(%rbp), %rcx
 946 074f 488D55BA 		leaq	-70(%rbp), %rdx
 947 0753 488D75BC 		leaq	-68(%rbp), %rsi
 948 0757 4889C7   		movq	%rax, %rdi
 949 075a E8000000 		call	_ZN8UnitTest10CheckEqualIihEEvRNS_11TestResultsERKT_RKT0_RKNS_11TestDetailsE
 949      00
 950              	.LEHE68:
 951              	.L114:
  62:testConv.cpp  **** 	status = getHexNibble('D', &nibble);
 952              		.loc 3 62 0 is_stmt 1
 953 075f 488D45BA 		leaq	-70(%rbp), %rax
 954 0763 4889C6   		movq	%rax, %rsi
 955 0766 BF440000 		movl	$68, %edi
 955      00
 956              	.LEHB69:
 957 076b E8000000 		call	getHexNibble
 957      00
 958              	.LEHE69:
 959 0770 8845BB   		movb	%al, -69(%rbp)
 960              	.LEHB70:
  63:testConv.cpp  **** 	CHECK_EQUAL(false, status);
 961              		.loc 3 63 0
 962 0773 E8000000 		call	_ZN8UnitTest11CurrentTest7DetailsEv
 962      00
 963 0778 488B08   		movq	(%rax), %rcx
 964 077b 488D45C0 		leaq	-64(%rbp), %rax
 965 077f BA3F0000 		movl	$63, %edx
 965      00
 966 0784 4889CE   		movq	%rcx, %rsi
 967 0787 4889C7   		movq	%rax, %rdi
 968 078a E8000000 		call	_ZN8UnitTest11TestDetailsC1ERKS0_i
 968      00
 969              	.LEHE70:
 970              		.loc 3 63 0 is_stmt 0 discriminator 2
 971 078f C645BC00 		movb	$0, -68(%rbp)
 972              	.LEHB71:
 973 0793 E8000000 		call	_ZN8UnitTest11CurrentTest7ResultsEv
 973      00
 974 0798 488B00   		movq	(%rax), %rax
 975 079b 488D4DC0 		leaq	-64(%rbp), %rcx
 976 079f 488D55BB 		leaq	-69(%rbp), %rdx
 977 07a3 488D75BC 		leaq	-68(%rbp), %rsi
 978 07a7 4889C7   		movq	%rax, %rdi
 979 07aa E8000000 		call	_ZN8UnitTest10CheckEqualIbbEEvRNS_11TestResultsERKT_RKT0_RKNS_11TestDetailsE
 979      00
 980              	.LEHE71:
 981              	.L118:
 982              	.LEHB72:
  64:testConv.cpp  **** 	CHECK_EQUAL(13, nibble);
 983              		.loc 3 64 0 is_stmt 1
 984 07af E8000000 		call	_ZN8UnitTest11CurrentTest7DetailsEv
 984      00
 985 07b4 488B08   		movq	(%rax), %rcx
 986 07b7 488D45C0 		leaq	-64(%rbp), %rax
 987 07bb BA400000 		movl	$64, %edx
 987      00
 988 07c0 4889CE   		movq	%rcx, %rsi
 989 07c3 4889C7   		movq	%rax, %rdi
 990 07c6 E8000000 		call	_ZN8UnitTest11TestDetailsC1ERKS0_i
 990      00
 991              	.LEHE72:
 992              		.loc 3 64 0 is_stmt 0 discriminator 2
 993 07cb C745BC0D 		movl	$13, -68(%rbp)
 993      000000
 994              	.LEHB73:
 995 07d2 E8000000 		call	_ZN8UnitTest11CurrentTest7ResultsEv
 995      00
 996 07d7 488B00   		movq	(%rax), %rax
 997 07da 488D4DC0 		leaq	-64(%rbp), %rcx
 998 07de 488D55BA 		leaq	-70(%rbp), %rdx
 999 07e2 488D75BC 		leaq	-68(%rbp), %rsi
 1000 07e6 4889C7   		movq	%rax, %rdi
 1001 07e9 E8000000 		call	_ZN8UnitTest10CheckEqualIihEEvRNS_11TestResultsERKT_RKT0_RKNS_11TestDetailsE
 1001      00
 1002              	.LEHE73:
 1003              	.L122:
  65:testConv.cpp  **** 	status = getHexNibble('E', &nibble);
 1004              		.loc 3 65 0 is_stmt 1
 1005 07ee 488D45BA 		leaq	-70(%rbp), %rax
 1006 07f2 4889C6   		movq	%rax, %rsi
 1007 07f5 BF450000 		movl	$69, %edi
 1007      00
 1008              	.LEHB74:
 1009 07fa E8000000 		call	getHexNibble
 1009      00
 1010              	.LEHE74:
 1011 07ff 8845BB   		movb	%al, -69(%rbp)
 1012              	.LEHB75:
  66:testConv.cpp  **** 	CHECK_EQUAL(false, status);
 1013              		.loc 3 66 0
 1014 0802 E8000000 		call	_ZN8UnitTest11CurrentTest7DetailsEv
 1014      00
 1015 0807 488B08   		movq	(%rax), %rcx
 1016 080a 488D45C0 		leaq	-64(%rbp), %rax
 1017 080e BA420000 		movl	$66, %edx
 1017      00
 1018 0813 4889CE   		movq	%rcx, %rsi
 1019 0816 4889C7   		movq	%rax, %rdi
 1020 0819 E8000000 		call	_ZN8UnitTest11TestDetailsC1ERKS0_i
 1020      00
 1021              	.LEHE75:
 1022              		.loc 3 66 0 is_stmt 0 discriminator 2
 1023 081e C645BC00 		movb	$0, -68(%rbp)
 1024              	.LEHB76:
 1025 0822 E8000000 		call	_ZN8UnitTest11CurrentTest7ResultsEv
 1025      00
 1026 0827 488B00   		movq	(%rax), %rax
 1027 082a 488D4DC0 		leaq	-64(%rbp), %rcx
 1028 082e 488D55BB 		leaq	-69(%rbp), %rdx
 1029 0832 488D75BC 		leaq	-68(%rbp), %rsi
 1030 0836 4889C7   		movq	%rax, %rdi
 1031 0839 E8000000 		call	_ZN8UnitTest10CheckEqualIbbEEvRNS_11TestResultsERKT_RKT0_RKNS_11TestDetailsE
 1031      00
 1032              	.LEHE76:
 1033              	.L126:
 1034              	.LEHB77:
  67:testConv.cpp  **** 	CHECK_EQUAL(14, nibble);
 1035              		.loc 3 67 0 is_stmt 1
 1036 083e E8000000 		call	_ZN8UnitTest11CurrentTest7DetailsEv
 1036      00
 1037 0843 488B08   		movq	(%rax), %rcx
 1038 0846 488D45C0 		leaq	-64(%rbp), %rax
 1039 084a BA430000 		movl	$67, %edx
 1039      00
 1040 084f 4889CE   		movq	%rcx, %rsi
 1041 0852 4889C7   		movq	%rax, %rdi
 1042 0855 E8000000 		call	_ZN8UnitTest11TestDetailsC1ERKS0_i
 1042      00
 1043              	.LEHE77:
 1044              		.loc 3 67 0 is_stmt 0 discriminator 2
 1045 085a C745BC0E 		movl	$14, -68(%rbp)
 1045      000000
 1046              	.LEHB78:
 1047 0861 E8000000 		call	_ZN8UnitTest11CurrentTest7ResultsEv
 1047      00
 1048 0866 488B00   		movq	(%rax), %rax
 1049 0869 488D4DC0 		leaq	-64(%rbp), %rcx
 1050 086d 488D55BA 		leaq	-70(%rbp), %rdx
 1051 0871 488D75BC 		leaq	-68(%rbp), %rsi
 1052 0875 4889C7   		movq	%rax, %rdi
 1053 0878 E8000000 		call	_ZN8UnitTest10CheckEqualIihEEvRNS_11TestResultsERKT_RKT0_RKNS_11TestDetailsE
 1053      00
 1054              	.LEHE78:
 1055              	.L130:
  68:testConv.cpp  **** 	status = getHexNibble('F', &nibble);
 1056              		.loc 3 68 0 is_stmt 1
 1057 087d 488D45BA 		leaq	-70(%rbp), %rax
 1058 0881 4889C6   		movq	%rax, %rsi
 1059 0884 BF460000 		movl	$70, %edi
 1059      00
 1060              	.LEHB79:
 1061 0889 E8000000 		call	getHexNibble
 1061      00
 1062              	.LEHE79:
 1063 088e 8845BB   		movb	%al, -69(%rbp)
 1064              	.LEHB80:
  69:testConv.cpp  **** 	CHECK_EQUAL(false, status);
 1065              		.loc 3 69 0
 1066 0891 E8000000 		call	_ZN8UnitTest11CurrentTest7DetailsEv
 1066      00
 1067 0896 488B08   		movq	(%rax), %rcx
 1068 0899 488D45C0 		leaq	-64(%rbp), %rax
 1069 089d BA450000 		movl	$69, %edx
 1069      00
 1070 08a2 4889CE   		movq	%rcx, %rsi
 1071 08a5 4889C7   		movq	%rax, %rdi
 1072 08a8 E8000000 		call	_ZN8UnitTest11TestDetailsC1ERKS0_i
 1072      00
 1073              	.LEHE80:
 1074              		.loc 3 69 0 is_stmt 0 discriminator 2
 1075 08ad C645BC00 		movb	$0, -68(%rbp)
 1076              	.LEHB81:
 1077 08b1 E8000000 		call	_ZN8UnitTest11CurrentTest7ResultsEv
 1077      00
 1078 08b6 488B00   		movq	(%rax), %rax
 1079 08b9 488D4DC0 		leaq	-64(%rbp), %rcx
 1080 08bd 488D55BB 		leaq	-69(%rbp), %rdx
 1081 08c1 488D75BC 		leaq	-68(%rbp), %rsi
 1082 08c5 4889C7   		movq	%rax, %rdi
 1083 08c8 E8000000 		call	_ZN8UnitTest10CheckEqualIbbEEvRNS_11TestResultsERKT_RKT0_RKNS_11TestDetailsE
 1083      00
 1084              	.LEHE81:
 1085              	.L134:
 1086              	.LEHB82:
  70:testConv.cpp  **** 	CHECK_EQUAL(15, nibble);
 1087              		.loc 3 70 0 is_stmt 1
 1088 08cd E8000000 		call	_ZN8UnitTest11CurrentTest7DetailsEv
 1088      00
 1089 08d2 488B08   		movq	(%rax), %rcx
 1090 08d5 488D45C0 		leaq	-64(%rbp), %rax
 1091 08d9 BA460000 		movl	$70, %edx
 1091      00
 1092 08de 4889CE   		movq	%rcx, %rsi
 1093 08e1 4889C7   		movq	%rax, %rdi
 1094 08e4 E8000000 		call	_ZN8UnitTest11TestDetailsC1ERKS0_i
 1094      00
 1095              	.LEHE82:
 1096              		.loc 3 70 0 is_stmt 0 discriminator 2
 1097 08e9 C745BC0F 		movl	$15, -68(%rbp)
 1097      000000
 1098              	.LEHB83:
 1099 08f0 E8000000 		call	_ZN8UnitTest11CurrentTest7ResultsEv
 1099      00
 1100 08f5 488B00   		movq	(%rax), %rax
 1101 08f8 488D4DC0 		leaq	-64(%rbp), %rcx
 1102 08fc 488D55BA 		leaq	-70(%rbp), %rdx
 1103 0900 488D75BC 		leaq	-68(%rbp), %rsi
 1104 0904 4889C7   		movq	%rax, %rdi
 1105 0907 E8000000 		call	_ZN8UnitTest10CheckEqualIihEEvRNS_11TestResultsERKT_RKT0_RKNS_11TestDetailsE
 1105      00
 1106              	.LEHE83:
 1107              	.L138:
  71:testConv.cpp  **** 	status = getHexNibble('a', &nibble);
 1108              		.loc 3 71 0 is_stmt 1
 1109 090c 488D45BA 		leaq	-70(%rbp), %rax
 1110 0910 4889C6   		movq	%rax, %rsi
 1111 0913 BF610000 		movl	$97, %edi
 1111      00
 1112              	.LEHB84:
 1113 0918 E8000000 		call	getHexNibble
 1113      00
 1114              	.LEHE84:
 1115 091d 8845BB   		movb	%al, -69(%rbp)
 1116              	.LEHB85:
  72:testConv.cpp  **** 	CHECK_EQUAL(false, status);
 1117              		.loc 3 72 0
 1118 0920 E8000000 		call	_ZN8UnitTest11CurrentTest7DetailsEv
 1118      00
 1119 0925 488B08   		movq	(%rax), %rcx
 1120 0928 488D45C0 		leaq	-64(%rbp), %rax
 1121 092c BA480000 		movl	$72, %edx
 1121      00
 1122 0931 4889CE   		movq	%rcx, %rsi
 1123 0934 4889C7   		movq	%rax, %rdi
 1124 0937 E8000000 		call	_ZN8UnitTest11TestDetailsC1ERKS0_i
 1124      00
 1125              	.LEHE85:
 1126              		.loc 3 72 0 is_stmt 0 discriminator 2
 1127 093c C645BC00 		movb	$0, -68(%rbp)
 1128              	.LEHB86:
 1129 0940 E8000000 		call	_ZN8UnitTest11CurrentTest7ResultsEv
 1129      00
 1130 0945 488B00   		movq	(%rax), %rax
 1131 0948 488D4DC0 		leaq	-64(%rbp), %rcx
 1132 094c 488D55BB 		leaq	-69(%rbp), %rdx
 1133 0950 488D75BC 		leaq	-68(%rbp), %rsi
 1134 0954 4889C7   		movq	%rax, %rdi
 1135 0957 E8000000 		call	_ZN8UnitTest10CheckEqualIbbEEvRNS_11TestResultsERKT_RKT0_RKNS_11TestDetailsE
 1135      00
 1136              	.LEHE86:
 1137              	.L142:
 1138              	.LEHB87:
  73:testConv.cpp  **** 	CHECK_EQUAL(10, nibble);
 1139              		.loc 3 73 0 is_stmt 1
 1140 095c E8000000 		call	_ZN8UnitTest11CurrentTest7DetailsEv
 1140      00
 1141 0961 488B08   		movq	(%rax), %rcx
 1142 0964 488D45C0 		leaq	-64(%rbp), %rax
 1143 0968 BA490000 		movl	$73, %edx
 1143      00
 1144 096d 4889CE   		movq	%rcx, %rsi
 1145 0970 4889C7   		movq	%rax, %rdi
 1146 0973 E8000000 		call	_ZN8UnitTest11TestDetailsC1ERKS0_i
 1146      00
 1147              	.LEHE87:
 1148              		.loc 3 73 0 is_stmt 0 discriminator 2
 1149 0978 C745BC0A 		movl	$10, -68(%rbp)
 1149      000000
 1150              	.LEHB88:
 1151 097f E8000000 		call	_ZN8UnitTest11CurrentTest7ResultsEv
 1151      00
 1152 0984 488B00   		movq	(%rax), %rax
 1153 0987 488D4DC0 		leaq	-64(%rbp), %rcx
 1154 098b 488D55BA 		leaq	-70(%rbp), %rdx
 1155 098f 488D75BC 		leaq	-68(%rbp), %rsi
 1156 0993 4889C7   		movq	%rax, %rdi
 1157 0996 E8000000 		call	_ZN8UnitTest10CheckEqualIihEEvRNS_11TestResultsERKT_RKT0_RKNS_11TestDetailsE
 1157      00
 1158              	.LEHE88:
 1159              	.L146:
  74:testConv.cpp  **** 	status = getHexNibble('b', &nibble);
 1160              		.loc 3 74 0 is_stmt 1
 1161 099b 488D45BA 		leaq	-70(%rbp), %rax
 1162 099f 4889C6   		movq	%rax, %rsi
 1163 09a2 BF620000 		movl	$98, %edi
 1163      00
 1164              	.LEHB89:
 1165 09a7 E8000000 		call	getHexNibble
 1165      00
 1166              	.LEHE89:
 1167 09ac 8845BB   		movb	%al, -69(%rbp)
 1168              	.LEHB90:
  75:testConv.cpp  **** 	CHECK_EQUAL(false, status);
 1169              		.loc 3 75 0
 1170 09af E8000000 		call	_ZN8UnitTest11CurrentTest7DetailsEv
 1170      00
 1171 09b4 488B08   		movq	(%rax), %rcx
 1172 09b7 488D45C0 		leaq	-64(%rbp), %rax
 1173 09bb BA4B0000 		movl	$75, %edx
 1173      00
 1174 09c0 4889CE   		movq	%rcx, %rsi
 1175 09c3 4889C7   		movq	%rax, %rdi
 1176 09c6 E8000000 		call	_ZN8UnitTest11TestDetailsC1ERKS0_i
 1176      00
 1177              	.LEHE90:
 1178              		.loc 3 75 0 is_stmt 0 discriminator 2
 1179 09cb C645BC00 		movb	$0, -68(%rbp)
 1180              	.LEHB91:
 1181 09cf E8000000 		call	_ZN8UnitTest11CurrentTest7ResultsEv
 1181      00
 1182 09d4 488B00   		movq	(%rax), %rax
 1183 09d7 488D4DC0 		leaq	-64(%rbp), %rcx
 1184 09db 488D55BB 		leaq	-69(%rbp), %rdx
 1185 09df 488D75BC 		leaq	-68(%rbp), %rsi
 1186 09e3 4889C7   		movq	%rax, %rdi
 1187 09e6 E8000000 		call	_ZN8UnitTest10CheckEqualIbbEEvRNS_11TestResultsERKT_RKT0_RKNS_11TestDetailsE
 1187      00
 1188              	.LEHE91:
 1189              	.L150:
 1190              	.LEHB92:
  76:testConv.cpp  **** 	CHECK_EQUAL(11, nibble);
 1191              		.loc 3 76 0 is_stmt 1
 1192 09eb E8000000 		call	_ZN8UnitTest11CurrentTest7DetailsEv
 1192      00
 1193 09f0 488B08   		movq	(%rax), %rcx
 1194 09f3 488D45C0 		leaq	-64(%rbp), %rax
 1195 09f7 BA4C0000 		movl	$76, %edx
 1195      00
 1196 09fc 4889CE   		movq	%rcx, %rsi
 1197 09ff 4889C7   		movq	%rax, %rdi
 1198 0a02 E8000000 		call	_ZN8UnitTest11TestDetailsC1ERKS0_i
 1198      00
 1199              	.LEHE92:
 1200              		.loc 3 76 0 is_stmt 0 discriminator 2
 1201 0a07 C745BC0B 		movl	$11, -68(%rbp)
 1201      000000
 1202              	.LEHB93:
 1203 0a0e E8000000 		call	_ZN8UnitTest11CurrentTest7ResultsEv
 1203      00
 1204 0a13 488B00   		movq	(%rax), %rax
 1205 0a16 488D4DC0 		leaq	-64(%rbp), %rcx
 1206 0a1a 488D55BA 		leaq	-70(%rbp), %rdx
 1207 0a1e 488D75BC 		leaq	-68(%rbp), %rsi
 1208 0a22 4889C7   		movq	%rax, %rdi
 1209 0a25 E8000000 		call	_ZN8UnitTest10CheckEqualIihEEvRNS_11TestResultsERKT_RKT0_RKNS_11TestDetailsE
 1209      00
 1210              	.LEHE93:
 1211              	.L154:
  77:testConv.cpp  **** 	status = getHexNibble('c', &nibble);
 1212              		.loc 3 77 0 is_stmt 1
 1213 0a2a 488D45BA 		leaq	-70(%rbp), %rax
 1214 0a2e 4889C6   		movq	%rax, %rsi
 1215 0a31 BF630000 		movl	$99, %edi
 1215      00
 1216              	.LEHB94:
 1217 0a36 E8000000 		call	getHexNibble
 1217      00
 1218              	.LEHE94:
 1219 0a3b 8845BB   		movb	%al, -69(%rbp)
 1220              	.LEHB95:
  78:testConv.cpp  **** 	CHECK_EQUAL(false, status);
 1221              		.loc 3 78 0
 1222 0a3e E8000000 		call	_ZN8UnitTest11CurrentTest7DetailsEv
 1222      00
 1223 0a43 488B08   		movq	(%rax), %rcx
 1224 0a46 488D45C0 		leaq	-64(%rbp), %rax
 1225 0a4a BA4E0000 		movl	$78, %edx
 1225      00
 1226 0a4f 4889CE   		movq	%rcx, %rsi
 1227 0a52 4889C7   		movq	%rax, %rdi
 1228 0a55 E8000000 		call	_ZN8UnitTest11TestDetailsC1ERKS0_i
 1228      00
 1229              	.LEHE95:
 1230              		.loc 3 78 0 is_stmt 0 discriminator 2
 1231 0a5a C645BC00 		movb	$0, -68(%rbp)
 1232              	.LEHB96:
 1233 0a5e E8000000 		call	_ZN8UnitTest11CurrentTest7ResultsEv
 1233      00
 1234 0a63 488B00   		movq	(%rax), %rax
 1235 0a66 488D4DC0 		leaq	-64(%rbp), %rcx
 1236 0a6a 488D55BB 		leaq	-69(%rbp), %rdx
 1237 0a6e 488D75BC 		leaq	-68(%rbp), %rsi
 1238 0a72 4889C7   		movq	%rax, %rdi
 1239 0a75 E8000000 		call	_ZN8UnitTest10CheckEqualIbbEEvRNS_11TestResultsERKT_RKT0_RKNS_11TestDetailsE
 1239      00
 1240              	.LEHE96:
 1241              	.L158:
 1242              	.LEHB97:
  79:testConv.cpp  **** 	CHECK_EQUAL(12, nibble);
 1243              		.loc 3 79 0 is_stmt 1
 1244 0a7a E8000000 		call	_ZN8UnitTest11CurrentTest7DetailsEv
 1244      00
 1245 0a7f 488B08   		movq	(%rax), %rcx
 1246 0a82 488D45C0 		leaq	-64(%rbp), %rax
 1247 0a86 BA4F0000 		movl	$79, %edx
 1247      00
 1248 0a8b 4889CE   		movq	%rcx, %rsi
 1249 0a8e 4889C7   		movq	%rax, %rdi
 1250 0a91 E8000000 		call	_ZN8UnitTest11TestDetailsC1ERKS0_i
 1250      00
 1251              	.LEHE97:
 1252              		.loc 3 79 0 is_stmt 0 discriminator 2
 1253 0a96 C745BC0C 		movl	$12, -68(%rbp)
 1253      000000
 1254              	.LEHB98:
 1255 0a9d E8000000 		call	_ZN8UnitTest11CurrentTest7ResultsEv
 1255      00
 1256 0aa2 488B00   		movq	(%rax), %rax
 1257 0aa5 488D4DC0 		leaq	-64(%rbp), %rcx
 1258 0aa9 488D55BA 		leaq	-70(%rbp), %rdx
 1259 0aad 488D75BC 		leaq	-68(%rbp), %rsi
 1260 0ab1 4889C7   		movq	%rax, %rdi
 1261 0ab4 E8000000 		call	_ZN8UnitTest10CheckEqualIihEEvRNS_11TestResultsERKT_RKT0_RKNS_11TestDetailsE
 1261      00
 1262              	.LEHE98:
 1263              	.L162:
  80:testConv.cpp  **** 	status = getHexNibble('d', &nibble);
 1264              		.loc 3 80 0 is_stmt 1
 1265 0ab9 488D45BA 		leaq	-70(%rbp), %rax
 1266 0abd 4889C6   		movq	%rax, %rsi
 1267 0ac0 BF640000 		movl	$100, %edi
 1267      00
 1268              	.LEHB99:
 1269 0ac5 E8000000 		call	getHexNibble
 1269      00
 1270              	.LEHE99:
 1271 0aca 8845BB   		movb	%al, -69(%rbp)
 1272              	.LEHB100:
  81:testConv.cpp  **** 	CHECK_EQUAL(false, status);
 1273              		.loc 3 81 0
 1274 0acd E8000000 		call	_ZN8UnitTest11CurrentTest7DetailsEv
 1274      00
 1275 0ad2 488B08   		movq	(%rax), %rcx
 1276 0ad5 488D45C0 		leaq	-64(%rbp), %rax
 1277 0ad9 BA510000 		movl	$81, %edx
 1277      00
 1278 0ade 4889CE   		movq	%rcx, %rsi
 1279 0ae1 4889C7   		movq	%rax, %rdi
 1280 0ae4 E8000000 		call	_ZN8UnitTest11TestDetailsC1ERKS0_i
 1280      00
 1281              	.LEHE100:
 1282              		.loc 3 81 0 is_stmt 0 discriminator 2
 1283 0ae9 C645BC00 		movb	$0, -68(%rbp)
 1284              	.LEHB101:
 1285 0aed E8000000 		call	_ZN8UnitTest11CurrentTest7ResultsEv
 1285      00
 1286 0af2 488B00   		movq	(%rax), %rax
 1287 0af5 488D4DC0 		leaq	-64(%rbp), %rcx
 1288 0af9 488D55BB 		leaq	-69(%rbp), %rdx
 1289 0afd 488D75BC 		leaq	-68(%rbp), %rsi
 1290 0b01 4889C7   		movq	%rax, %rdi
 1291 0b04 E8000000 		call	_ZN8UnitTest10CheckEqualIbbEEvRNS_11TestResultsERKT_RKT0_RKNS_11TestDetailsE
 1291      00
 1292              	.LEHE101:
 1293              	.L166:
 1294              	.LEHB102:
  82:testConv.cpp  **** 	CHECK_EQUAL(13, nibble);
 1295              		.loc 3 82 0 is_stmt 1
 1296 0b09 E8000000 		call	_ZN8UnitTest11CurrentTest7DetailsEv
 1296      00
 1297 0b0e 488B08   		movq	(%rax), %rcx
 1298 0b11 488D45C0 		leaq	-64(%rbp), %rax
 1299 0b15 BA520000 		movl	$82, %edx
 1299      00
 1300 0b1a 4889CE   		movq	%rcx, %rsi
 1301 0b1d 4889C7   		movq	%rax, %rdi
 1302 0b20 E8000000 		call	_ZN8UnitTest11TestDetailsC1ERKS0_i
 1302      00
 1303              	.LEHE102:
 1304              		.loc 3 82 0 is_stmt 0 discriminator 2
 1305 0b25 C745BC0D 		movl	$13, -68(%rbp)
 1305      000000
 1306              	.LEHB103:
 1307 0b2c E8000000 		call	_ZN8UnitTest11CurrentTest7ResultsEv
 1307      00
 1308 0b31 488B00   		movq	(%rax), %rax
 1309 0b34 488D4DC0 		leaq	-64(%rbp), %rcx
 1310 0b38 488D55BA 		leaq	-70(%rbp), %rdx
 1311 0b3c 488D75BC 		leaq	-68(%rbp), %rsi
 1312 0b40 4889C7   		movq	%rax, %rdi
 1313 0b43 E8000000 		call	_ZN8UnitTest10CheckEqualIihEEvRNS_11TestResultsERKT_RKT0_RKNS_11TestDetailsE
 1313      00
 1314              	.LEHE103:
 1315              	.L170:
  83:testConv.cpp  **** 	status = getHexNibble('e', &nibble);
 1316              		.loc 3 83 0 is_stmt 1
 1317 0b48 488D45BA 		leaq	-70(%rbp), %rax
 1318 0b4c 4889C6   		movq	%rax, %rsi
 1319 0b4f BF650000 		movl	$101, %edi
 1319      00
 1320              	.LEHB104:
 1321 0b54 E8000000 		call	getHexNibble
 1321      00
 1322              	.LEHE104:
 1323 0b59 8845BB   		movb	%al, -69(%rbp)
 1324              	.LEHB105:
  84:testConv.cpp  **** 	CHECK_EQUAL(false, status);
 1325              		.loc 3 84 0
 1326 0b5c E8000000 		call	_ZN8UnitTest11CurrentTest7DetailsEv
 1326      00
 1327 0b61 488B08   		movq	(%rax), %rcx
 1328 0b64 488D45C0 		leaq	-64(%rbp), %rax
 1329 0b68 BA540000 		movl	$84, %edx
 1329      00
 1330 0b6d 4889CE   		movq	%rcx, %rsi
 1331 0b70 4889C7   		movq	%rax, %rdi
 1332 0b73 E8000000 		call	_ZN8UnitTest11TestDetailsC1ERKS0_i
 1332      00
 1333              	.LEHE105:
 1334              		.loc 3 84 0 is_stmt 0 discriminator 2
 1335 0b78 C645BC00 		movb	$0, -68(%rbp)
 1336              	.LEHB106:
 1337 0b7c E8000000 		call	_ZN8UnitTest11CurrentTest7ResultsEv
 1337      00
 1338 0b81 488B00   		movq	(%rax), %rax
 1339 0b84 488D4DC0 		leaq	-64(%rbp), %rcx
 1340 0b88 488D55BB 		leaq	-69(%rbp), %rdx
 1341 0b8c 488D75BC 		leaq	-68(%rbp), %rsi
 1342 0b90 4889C7   		movq	%rax, %rdi
 1343 0b93 E8000000 		call	_ZN8UnitTest10CheckEqualIbbEEvRNS_11TestResultsERKT_RKT0_RKNS_11TestDetailsE
 1343      00
 1344              	.LEHE106:
 1345              	.L174:
 1346              	.LEHB107:
  85:testConv.cpp  **** 	CHECK_EQUAL(14, nibble);
 1347              		.loc 3 85 0 is_stmt 1
 1348 0b98 E8000000 		call	_ZN8UnitTest11CurrentTest7DetailsEv
 1348      00
 1349 0b9d 488B08   		movq	(%rax), %rcx
 1350 0ba0 488D45C0 		leaq	-64(%rbp), %rax
 1351 0ba4 BA550000 		movl	$85, %edx
 1351      00
 1352 0ba9 4889CE   		movq	%rcx, %rsi
 1353 0bac 4889C7   		movq	%rax, %rdi
 1354 0baf E8000000 		call	_ZN8UnitTest11TestDetailsC1ERKS0_i
 1354      00
 1355              	.LEHE107:
 1356              		.loc 3 85 0 is_stmt 0 discriminator 2
 1357 0bb4 C745BC0E 		movl	$14, -68(%rbp)
 1357      000000
 1358              	.LEHB108:
 1359 0bbb E8000000 		call	_ZN8UnitTest11CurrentTest7ResultsEv
 1359      00
 1360 0bc0 488B00   		movq	(%rax), %rax
 1361 0bc3 488D4DC0 		leaq	-64(%rbp), %rcx
 1362 0bc7 488D55BA 		leaq	-70(%rbp), %rdx
 1363 0bcb 488D75BC 		leaq	-68(%rbp), %rsi
 1364 0bcf 4889C7   		movq	%rax, %rdi
 1365 0bd2 E8000000 		call	_ZN8UnitTest10CheckEqualIihEEvRNS_11TestResultsERKT_RKT0_RKNS_11TestDetailsE
 1365      00
 1366              	.LEHE108:
 1367              	.L178:
  86:testConv.cpp  **** 	status = getHexNibble('f', &nibble);
 1368              		.loc 3 86 0 is_stmt 1
 1369 0bd7 488D45BA 		leaq	-70(%rbp), %rax
 1370 0bdb 4889C6   		movq	%rax, %rsi
 1371 0bde BF660000 		movl	$102, %edi
 1371      00
 1372              	.LEHB109:
 1373 0be3 E8000000 		call	getHexNibble
 1373      00
 1374              	.LEHE109:
 1375 0be8 8845BB   		movb	%al, -69(%rbp)
 1376              	.LEHB110:
  87:testConv.cpp  **** 	CHECK_EQUAL(false, status);
 1377              		.loc 3 87 0
 1378 0beb E8000000 		call	_ZN8UnitTest11CurrentTest7DetailsEv
 1378      00
 1379 0bf0 488B08   		movq	(%rax), %rcx
 1380 0bf3 488D45C0 		leaq	-64(%rbp), %rax
 1381 0bf7 BA570000 		movl	$87, %edx
 1381      00
 1382 0bfc 4889CE   		movq	%rcx, %rsi
 1383 0bff 4889C7   		movq	%rax, %rdi
 1384 0c02 E8000000 		call	_ZN8UnitTest11TestDetailsC1ERKS0_i
 1384      00
 1385              	.LEHE110:
 1386              		.loc 3 87 0 is_stmt 0 discriminator 2
 1387 0c07 C645BC00 		movb	$0, -68(%rbp)
 1388              	.LEHB111:
 1389 0c0b E8000000 		call	_ZN8UnitTest11CurrentTest7ResultsEv
 1389      00
 1390 0c10 488B00   		movq	(%rax), %rax
 1391 0c13 488D4DC0 		leaq	-64(%rbp), %rcx
 1392 0c17 488D55BB 		leaq	-69(%rbp), %rdx
 1393 0c1b 488D75BC 		leaq	-68(%rbp), %rsi
 1394 0c1f 4889C7   		movq	%rax, %rdi
 1395 0c22 E8000000 		call	_ZN8UnitTest10CheckEqualIbbEEvRNS_11TestResultsERKT_RKT0_RKNS_11TestDetailsE
 1395      00
 1396              	.LEHE111:
 1397              	.L182:
 1398              	.LEHB112:
  88:testConv.cpp  **** 	CHECK_EQUAL(15, nibble);
 1399              		.loc 3 88 0 is_stmt 1
 1400 0c27 E8000000 		call	_ZN8UnitTest11CurrentTest7DetailsEv
 1400      00
 1401 0c2c 488B08   		movq	(%rax), %rcx
 1402 0c2f 488D45C0 		leaq	-64(%rbp), %rax
 1403 0c33 BA580000 		movl	$88, %edx
 1403      00
 1404 0c38 4889CE   		movq	%rcx, %rsi
 1405 0c3b 4889C7   		movq	%rax, %rdi
 1406 0c3e E8000000 		call	_ZN8UnitTest11TestDetailsC1ERKS0_i
 1406      00
 1407              	.LEHE112:
 1408              		.loc 3 88 0 is_stmt 0 discriminator 2
 1409 0c43 C745BC0F 		movl	$15, -68(%rbp)
 1409      000000
 1410              	.LEHB113:
 1411 0c4a E8000000 		call	_ZN8UnitTest11CurrentTest7ResultsEv
 1411      00
 1412 0c4f 488B00   		movq	(%rax), %rax
 1413 0c52 488D4DC0 		leaq	-64(%rbp), %rcx
 1414 0c56 488D55BA 		leaq	-70(%rbp), %rdx
 1415 0c5a 488D75BC 		leaq	-68(%rbp), %rsi
 1416 0c5e 4889C7   		movq	%rax, %rdi
 1417 0c61 E8000000 		call	_ZN8UnitTest10CheckEqualIihEEvRNS_11TestResultsERKT_RKT0_RKNS_11TestDetailsE
 1417      00
 1418              	.LEHE113:
 1419              	.L186:
  89:testConv.cpp  **** 	status = getHexNibble('.', &nibble);
 1420              		.loc 3 89 0 is_stmt 1
 1421 0c66 488D45BA 		leaq	-70(%rbp), %rax
 1422 0c6a 4889C6   		movq	%rax, %rsi
 1423 0c6d BF2E0000 		movl	$46, %edi
 1423      00
 1424              	.LEHB114:
 1425 0c72 E8000000 		call	getHexNibble
 1425      00
 1426              	.LEHE114:
 1427 0c77 8845BB   		movb	%al, -69(%rbp)
 1428              	.LEHB115:
  90:testConv.cpp  **** 	CHECK_EQUAL(true, status);
 1429              		.loc 3 90 0
 1430 0c7a E8000000 		call	_ZN8UnitTest11CurrentTest7DetailsEv
 1430      00
 1431 0c7f 488B08   		movq	(%rax), %rcx
 1432 0c82 488D45C0 		leaq	-64(%rbp), %rax
 1433 0c86 BA5A0000 		movl	$90, %edx
 1433      00
 1434 0c8b 4889CE   		movq	%rcx, %rsi
 1435 0c8e 4889C7   		movq	%rax, %rdi
 1436 0c91 E8000000 		call	_ZN8UnitTest11TestDetailsC1ERKS0_i
 1436      00
 1437              	.LEHE115:
 1438              		.loc 3 90 0 is_stmt 0 discriminator 2
 1439 0c96 C645BC01 		movb	$1, -68(%rbp)
 1440              	.LEHB116:
 1441 0c9a E8000000 		call	_ZN8UnitTest11CurrentTest7ResultsEv
 1441      00
 1442 0c9f 488B00   		movq	(%rax), %rax
 1443 0ca2 488D4DC0 		leaq	-64(%rbp), %rcx
 1444 0ca6 488D55BB 		leaq	-69(%rbp), %rdx
 1445 0caa 488D75BC 		leaq	-68(%rbp), %rsi
 1446 0cae 4889C7   		movq	%rax, %rdi
 1447 0cb1 E8000000 		call	_ZN8UnitTest10CheckEqualIbbEEvRNS_11TestResultsERKT_RKT0_RKNS_11TestDetailsE
 1447      00
 1448              	.LEHE116:
  91:testConv.cpp  **** }
 1449              		.loc 3 91 0 is_stmt 1
 1450 0cb6 E9B01000 		jmp	.L11
 1450      00
 1451              	.L194:
 1452 0cbb EB00     		jmp	.L13
 1453              	.L193:
 1454              	.L13:
  24:testConv.cpp  **** 	CHECK_EQUAL(0, nibble);
 1455              		.loc 3 24 0
 1456 0cbd 4889C7   		movq	%rax, %rdi
 1457 0cc0 E8000000 		call	__cxa_begin_catch
 1457      00
 1458              	.LEHB117:
 1459 0cc5 E8000000 		call	_ZN8UnitTest11CurrentTest7DetailsEv
 1459      00
 1460 0cca 488B08   		movq	(%rax), %rcx
 1461 0ccd 488D45C0 		leaq	-64(%rbp), %rax
 1462 0cd1 BA180000 		movl	$24, %edx
 1462      00
 1463 0cd6 4889CE   		movq	%rcx, %rsi
 1464 0cd9 4889C7   		movq	%rax, %rdi
 1465 0cdc E8000000 		call	_ZN8UnitTest11TestDetailsC1ERKS0_i
 1465      00
  24:testConv.cpp  **** 	CHECK_EQUAL(0, nibble);
 1466              		.loc 3 24 0 is_stmt 0 discriminator 10
 1467 0ce1 E8000000 		call	_ZN8UnitTest11CurrentTest7ResultsEv
 1467      00
 1468 0ce6 488B00   		movq	(%rax), %rax
 1469 0ce9 488D4DC0 		leaq	-64(%rbp), %rcx
 1470 0ced BA000000 		movl	$.LC3, %edx
 1470      00
 1471 0cf2 4889CE   		movq	%rcx, %rsi
 1472 0cf5 4889C7   		movq	%rax, %rdi
 1473 0cf8 E8000000 		call	_ZN8UnitTest11TestResults13OnTestFailureERKNS_11TestDetailsEPKc
 1473      00
 1474              	.LEHE117:
 1475              	.LEHB118:
  24:testConv.cpp  **** 	CHECK_EQUAL(0, nibble);
 1476              		.loc 3 24 0 discriminator 14
 1477 0cfd E8000000 		call	__cxa_end_catch
 1477      00
 1478              	.LEHE118:
 1479 0d02 E965F3FF 		jmp	.L14
 1479      FF
 1480              	.L195:
 1481 0d07 4889C3   		movq	%rax, %rbx
  24:testConv.cpp  **** 	CHECK_EQUAL(0, nibble);
 1482              		.loc 3 24 0
 1483 0d0a E8000000 		call	__cxa_end_catch
 1483      00
 1484 0d0f 4889D8   		movq	%rbx, %rax
 1485 0d12 4889C7   		movq	%rax, %rdi
 1486              	.LEHB119:
 1487 0d15 E8000000 		call	_Unwind_Resume
 1487      00
 1488              	.LEHE119:
 1489              	.L197:
 1490 0d1a EB00     		jmp	.L17
 1491              	.L196:
 1492              	.L17:
  25:testConv.cpp  **** 	status = getHexNibble('1', &nibble);
 1493              		.loc 3 25 0 is_stmt 1
 1494 0d1c 4889C7   		movq	%rax, %rdi
 1495 0d1f E8000000 		call	__cxa_begin_catch
 1495      00
 1496              	.LEHB120:
 1497 0d24 E8000000 		call	_ZN8UnitTest11CurrentTest7DetailsEv
 1497      00
 1498 0d29 488B08   		movq	(%rax), %rcx
 1499 0d2c 488D45C0 		leaq	-64(%rbp), %rax
 1500 0d30 BA190000 		movl	$25, %edx
 1500      00
 1501 0d35 4889CE   		movq	%rcx, %rsi
 1502 0d38 4889C7   		movq	%rax, %rdi
 1503 0d3b E8000000 		call	_ZN8UnitTest11TestDetailsC1ERKS0_i
 1503      00
  25:testConv.cpp  **** 	status = getHexNibble('1', &nibble);
 1504              		.loc 3 25 0 is_stmt 0 discriminator 10
 1505 0d40 E8000000 		call	_ZN8UnitTest11CurrentTest7ResultsEv
 1505      00
 1506 0d45 488B00   		movq	(%rax), %rax
 1507 0d48 488D4DC0 		leaq	-64(%rbp), %rcx
 1508 0d4c BA000000 		movl	$.LC4, %edx
 1508      00
 1509 0d51 4889CE   		movq	%rcx, %rsi
 1510 0d54 4889C7   		movq	%rax, %rdi
 1511 0d57 E8000000 		call	_ZN8UnitTest11TestResults13OnTestFailureERKNS_11TestDetailsEPKc
 1511      00
 1512              	.LEHE120:
 1513              	.LEHB121:
  25:testConv.cpp  **** 	status = getHexNibble('1', &nibble);
 1514              		.loc 3 25 0 discriminator 14
 1515 0d5c E8000000 		call	__cxa_end_catch
 1515      00
 1516              	.LEHE121:
 1517 0d61 E945F3FF 		jmp	.L18
 1517      FF
 1518              	.L198:
 1519 0d66 4889C3   		movq	%rax, %rbx
  25:testConv.cpp  **** 	status = getHexNibble('1', &nibble);
 1520              		.loc 3 25 0
 1521 0d69 E8000000 		call	__cxa_end_catch
 1521      00
 1522 0d6e 4889D8   		movq	%rbx, %rax
 1523 0d71 4889C7   		movq	%rax, %rdi
 1524              	.LEHB122:
 1525 0d74 E8000000 		call	_Unwind_Resume
 1525      00
 1526              	.LEHE122:
 1527              	.L200:
 1528 0d79 EB00     		jmp	.L21
 1529              	.L199:
 1530              	.L21:
  27:testConv.cpp  **** 	CHECK_EQUAL(1, nibble);
 1531              		.loc 3 27 0 is_stmt 1
 1532 0d7b 4889C7   		movq	%rax, %rdi
 1533 0d7e E8000000 		call	__cxa_begin_catch
 1533      00
 1534              	.LEHB123:
 1535 0d83 E8000000 		call	_ZN8UnitTest11CurrentTest7DetailsEv
 1535      00
 1536 0d88 488B08   		movq	(%rax), %rcx
 1537 0d8b 488D45C0 		leaq	-64(%rbp), %rax
 1538 0d8f BA1B0000 		movl	$27, %edx
 1538      00
 1539 0d94 4889CE   		movq	%rcx, %rsi
 1540 0d97 4889C7   		movq	%rax, %rdi
 1541 0d9a E8000000 		call	_ZN8UnitTest11TestDetailsC1ERKS0_i
 1541      00
  27:testConv.cpp  **** 	CHECK_EQUAL(1, nibble);
 1542              		.loc 3 27 0 is_stmt 0 discriminator 10
 1543 0d9f E8000000 		call	_ZN8UnitTest11CurrentTest7ResultsEv
 1543      00
 1544 0da4 488B00   		movq	(%rax), %rax
 1545 0da7 488D4DC0 		leaq	-64(%rbp), %rcx
 1546 0dab BA000000 		movl	$.LC3, %edx
 1546      00
 1547 0db0 4889CE   		movq	%rcx, %rsi
 1548 0db3 4889C7   		movq	%rax, %rdi
 1549 0db6 E8000000 		call	_ZN8UnitTest11TestResults13OnTestFailureERKNS_11TestDetailsEPKc
 1549      00
 1550              	.LEHE123:
 1551              	.LEHB124:
  27:testConv.cpp  **** 	CHECK_EQUAL(1, nibble);
 1552              		.loc 3 27 0 discriminator 14
 1553 0dbb E8000000 		call	__cxa_end_catch
 1553      00
 1554              	.LEHE124:
 1555 0dc0 E936F3FF 		jmp	.L22
 1555      FF
 1556              	.L201:
 1557 0dc5 4889C3   		movq	%rax, %rbx
  27:testConv.cpp  **** 	CHECK_EQUAL(1, nibble);
 1558              		.loc 3 27 0
 1559 0dc8 E8000000 		call	__cxa_end_catch
 1559      00
 1560 0dcd 4889D8   		movq	%rbx, %rax
 1561 0dd0 4889C7   		movq	%rax, %rdi
 1562              	.LEHB125:
 1563 0dd3 E8000000 		call	_Unwind_Resume
 1563      00
 1564              	.LEHE125:
 1565              	.L203:
 1566 0dd8 EB00     		jmp	.L25
 1567              	.L202:
 1568              	.L25:
  28:testConv.cpp  **** 	status = getHexNibble('2', &nibble);
 1569              		.loc 3 28 0 is_stmt 1
 1570 0dda 4889C7   		movq	%rax, %rdi
 1571 0ddd E8000000 		call	__cxa_begin_catch
 1571      00
 1572              	.LEHB126:
 1573 0de2 E8000000 		call	_ZN8UnitTest11CurrentTest7DetailsEv
 1573      00
 1574 0de7 488B08   		movq	(%rax), %rcx
 1575 0dea 488D45C0 		leaq	-64(%rbp), %rax
 1576 0dee BA1C0000 		movl	$28, %edx
 1576      00
 1577 0df3 4889CE   		movq	%rcx, %rsi
 1578 0df6 4889C7   		movq	%rax, %rdi
 1579 0df9 E8000000 		call	_ZN8UnitTest11TestDetailsC1ERKS0_i
 1579      00
  28:testConv.cpp  **** 	status = getHexNibble('2', &nibble);
 1580              		.loc 3 28 0 is_stmt 0 discriminator 10
 1581 0dfe E8000000 		call	_ZN8UnitTest11CurrentTest7ResultsEv
 1581      00
 1582 0e03 488B00   		movq	(%rax), %rax
 1583 0e06 488D4DC0 		leaq	-64(%rbp), %rcx
 1584 0e0a BA000000 		movl	$.LC5, %edx
 1584      00
 1585 0e0f 4889CE   		movq	%rcx, %rsi
 1586 0e12 4889C7   		movq	%rax, %rdi
 1587 0e15 E8000000 		call	_ZN8UnitTest11TestResults13OnTestFailureERKNS_11TestDetailsEPKc
 1587      00
 1588              	.LEHE126:
 1589              	.LEHB127:
  28:testConv.cpp  **** 	status = getHexNibble('2', &nibble);
 1590              		.loc 3 28 0 discriminator 14
 1591 0e1a E8000000 		call	__cxa_end_catch
 1591      00
 1592              	.LEHE127:
 1593 0e1f E916F3FF 		jmp	.L26
 1593      FF
 1594              	.L204:
 1595 0e24 4889C3   		movq	%rax, %rbx
  28:testConv.cpp  **** 	status = getHexNibble('2', &nibble);
 1596              		.loc 3 28 0
 1597 0e27 E8000000 		call	__cxa_end_catch
 1597      00
 1598 0e2c 4889D8   		movq	%rbx, %rax
 1599 0e2f 4889C7   		movq	%rax, %rdi
 1600              	.LEHB128:
 1601 0e32 E8000000 		call	_Unwind_Resume
 1601      00
 1602              	.LEHE128:
 1603              	.L206:
 1604 0e37 EB00     		jmp	.L29
 1605              	.L205:
 1606              	.L29:
  30:testConv.cpp  **** 	CHECK_EQUAL(2, nibble);
 1607              		.loc 3 30 0 is_stmt 1
 1608 0e39 4889C7   		movq	%rax, %rdi
 1609 0e3c E8000000 		call	__cxa_begin_catch
 1609      00
 1610              	.LEHB129:
 1611 0e41 E8000000 		call	_ZN8UnitTest11CurrentTest7DetailsEv
 1611      00
 1612 0e46 488B08   		movq	(%rax), %rcx
 1613 0e49 488D45C0 		leaq	-64(%rbp), %rax
 1614 0e4d BA1E0000 		movl	$30, %edx
 1614      00
 1615 0e52 4889CE   		movq	%rcx, %rsi
 1616 0e55 4889C7   		movq	%rax, %rdi
 1617 0e58 E8000000 		call	_ZN8UnitTest11TestDetailsC1ERKS0_i
 1617      00
  30:testConv.cpp  **** 	CHECK_EQUAL(2, nibble);
 1618              		.loc 3 30 0 is_stmt 0 discriminator 10
 1619 0e5d E8000000 		call	_ZN8UnitTest11CurrentTest7ResultsEv
 1619      00
 1620 0e62 488B00   		movq	(%rax), %rax
 1621 0e65 488D4DC0 		leaq	-64(%rbp), %rcx
 1622 0e69 BA000000 		movl	$.LC3, %edx
 1622      00
 1623 0e6e 4889CE   		movq	%rcx, %rsi
 1624 0e71 4889C7   		movq	%rax, %rdi
 1625 0e74 E8000000 		call	_ZN8UnitTest11TestResults13OnTestFailureERKNS_11TestDetailsEPKc
 1625      00
 1626              	.LEHE129:
 1627              	.LEHB130:
  30:testConv.cpp  **** 	CHECK_EQUAL(2, nibble);
 1628              		.loc 3 30 0 discriminator 14
 1629 0e79 E8000000 		call	__cxa_end_catch
 1629      00
 1630              	.LEHE130:
 1631 0e7e E907F3FF 		jmp	.L30
 1631      FF
 1632              	.L207:
 1633 0e83 4889C3   		movq	%rax, %rbx
  30:testConv.cpp  **** 	CHECK_EQUAL(2, nibble);
 1634              		.loc 3 30 0
 1635 0e86 E8000000 		call	__cxa_end_catch
 1635      00
 1636 0e8b 4889D8   		movq	%rbx, %rax
 1637 0e8e 4889C7   		movq	%rax, %rdi
 1638              	.LEHB131:
 1639 0e91 E8000000 		call	_Unwind_Resume
 1639      00
 1640              	.LEHE131:
 1641              	.L209:
 1642 0e96 EB00     		jmp	.L33
 1643              	.L208:
 1644              	.L33:
  31:testConv.cpp  **** 	status = getHexNibble('3', &nibble);
 1645              		.loc 3 31 0 is_stmt 1
 1646 0e98 4889C7   		movq	%rax, %rdi
 1647 0e9b E8000000 		call	__cxa_begin_catch
 1647      00
 1648              	.LEHB132:
 1649 0ea0 E8000000 		call	_ZN8UnitTest11CurrentTest7DetailsEv
 1649      00
 1650 0ea5 488B08   		movq	(%rax), %rcx
 1651 0ea8 488D45C0 		leaq	-64(%rbp), %rax
 1652 0eac BA1F0000 		movl	$31, %edx
 1652      00
 1653 0eb1 4889CE   		movq	%rcx, %rsi
 1654 0eb4 4889C7   		movq	%rax, %rdi
 1655 0eb7 E8000000 		call	_ZN8UnitTest11TestDetailsC1ERKS0_i
 1655      00
  31:testConv.cpp  **** 	status = getHexNibble('3', &nibble);
 1656              		.loc 3 31 0 is_stmt 0 discriminator 10
 1657 0ebc E8000000 		call	_ZN8UnitTest11CurrentTest7ResultsEv
 1657      00
 1658 0ec1 488B00   		movq	(%rax), %rax
 1659 0ec4 488D4DC0 		leaq	-64(%rbp), %rcx
 1660 0ec8 BA000000 		movl	$.LC6, %edx
 1660      00
 1661 0ecd 4889CE   		movq	%rcx, %rsi
 1662 0ed0 4889C7   		movq	%rax, %rdi
 1663 0ed3 E8000000 		call	_ZN8UnitTest11TestResults13OnTestFailureERKNS_11TestDetailsEPKc
 1663      00
 1664              	.LEHE132:
 1665              	.LEHB133:
  31:testConv.cpp  **** 	status = getHexNibble('3', &nibble);
 1666              		.loc 3 31 0 discriminator 14
 1667 0ed8 E8000000 		call	__cxa_end_catch
 1667      00
 1668              	.LEHE133:
 1669 0edd E9E7F2FF 		jmp	.L34
 1669      FF
 1670              	.L210:
 1671 0ee2 4889C3   		movq	%rax, %rbx
  31:testConv.cpp  **** 	status = getHexNibble('3', &nibble);
 1672              		.loc 3 31 0
 1673 0ee5 E8000000 		call	__cxa_end_catch
 1673      00
 1674 0eea 4889D8   		movq	%rbx, %rax
 1675 0eed 4889C7   		movq	%rax, %rdi
 1676              	.LEHB134:
 1677 0ef0 E8000000 		call	_Unwind_Resume
 1677      00
 1678              	.LEHE134:
 1679              	.L212:
 1680 0ef5 EB00     		jmp	.L37
 1681              	.L211:
 1682              	.L37:
  33:testConv.cpp  **** 	CHECK_EQUAL(3, nibble);
 1683              		.loc 3 33 0 is_stmt 1
 1684 0ef7 4889C7   		movq	%rax, %rdi
 1685 0efa E8000000 		call	__cxa_begin_catch
 1685      00
 1686              	.LEHB135:
 1687 0eff E8000000 		call	_ZN8UnitTest11CurrentTest7DetailsEv
 1687      00
 1688 0f04 488B08   		movq	(%rax), %rcx
 1689 0f07 488D45C0 		leaq	-64(%rbp), %rax
 1690 0f0b BA210000 		movl	$33, %edx
 1690      00
 1691 0f10 4889CE   		movq	%rcx, %rsi
 1692 0f13 4889C7   		movq	%rax, %rdi
 1693 0f16 E8000000 		call	_ZN8UnitTest11TestDetailsC1ERKS0_i
 1693      00
  33:testConv.cpp  **** 	CHECK_EQUAL(3, nibble);
 1694              		.loc 3 33 0 is_stmt 0 discriminator 10
 1695 0f1b E8000000 		call	_ZN8UnitTest11CurrentTest7ResultsEv
 1695      00
 1696 0f20 488B00   		movq	(%rax), %rax
 1697 0f23 488D4DC0 		leaq	-64(%rbp), %rcx
 1698 0f27 BA000000 		movl	$.LC3, %edx
 1698      00
 1699 0f2c 4889CE   		movq	%rcx, %rsi
 1700 0f2f 4889C7   		movq	%rax, %rdi
 1701 0f32 E8000000 		call	_ZN8UnitTest11TestResults13OnTestFailureERKNS_11TestDetailsEPKc
 1701      00
 1702              	.LEHE135:
 1703              	.LEHB136:
  33:testConv.cpp  **** 	CHECK_EQUAL(3, nibble);
 1704              		.loc 3 33 0 discriminator 14
 1705 0f37 E8000000 		call	__cxa_end_catch
 1705      00
 1706              	.LEHE136:
 1707 0f3c E9D8F2FF 		jmp	.L38
 1707      FF
 1708              	.L213:
 1709 0f41 4889C3   		movq	%rax, %rbx
  33:testConv.cpp  **** 	CHECK_EQUAL(3, nibble);
 1710              		.loc 3 33 0
 1711 0f44 E8000000 		call	__cxa_end_catch
 1711      00
 1712 0f49 4889D8   		movq	%rbx, %rax
 1713 0f4c 4889C7   		movq	%rax, %rdi
 1714              	.LEHB137:
 1715 0f4f E8000000 		call	_Unwind_Resume
 1715      00
 1716              	.LEHE137:
 1717              	.L215:
 1718 0f54 EB00     		jmp	.L41
 1719              	.L214:
 1720              	.L41:
  34:testConv.cpp  **** 	status = getHexNibble('4', &nibble);
 1721              		.loc 3 34 0 is_stmt 1
 1722 0f56 4889C7   		movq	%rax, %rdi
 1723 0f59 E8000000 		call	__cxa_begin_catch
 1723      00
 1724              	.LEHB138:
 1725 0f5e E8000000 		call	_ZN8UnitTest11CurrentTest7DetailsEv
 1725      00
 1726 0f63 488B08   		movq	(%rax), %rcx
 1727 0f66 488D45C0 		leaq	-64(%rbp), %rax
 1728 0f6a BA220000 		movl	$34, %edx
 1728      00
 1729 0f6f 4889CE   		movq	%rcx, %rsi
 1730 0f72 4889C7   		movq	%rax, %rdi
 1731 0f75 E8000000 		call	_ZN8UnitTest11TestDetailsC1ERKS0_i
 1731      00
  34:testConv.cpp  **** 	status = getHexNibble('4', &nibble);
 1732              		.loc 3 34 0 is_stmt 0 discriminator 10
 1733 0f7a E8000000 		call	_ZN8UnitTest11CurrentTest7ResultsEv
 1733      00
 1734 0f7f 488B00   		movq	(%rax), %rax
 1735 0f82 488D4DC0 		leaq	-64(%rbp), %rcx
 1736 0f86 BA000000 		movl	$.LC7, %edx
 1736      00
 1737 0f8b 4889CE   		movq	%rcx, %rsi
 1738 0f8e 4889C7   		movq	%rax, %rdi
 1739 0f91 E8000000 		call	_ZN8UnitTest11TestResults13OnTestFailureERKNS_11TestDetailsEPKc
 1739      00
 1740              	.LEHE138:
 1741              	.LEHB139:
  34:testConv.cpp  **** 	status = getHexNibble('4', &nibble);
 1742              		.loc 3 34 0 discriminator 14
 1743 0f96 E8000000 		call	__cxa_end_catch
 1743      00
 1744              	.LEHE139:
 1745 0f9b E9B8F2FF 		jmp	.L42
 1745      FF
 1746              	.L216:
 1747 0fa0 4889C3   		movq	%rax, %rbx
  34:testConv.cpp  **** 	status = getHexNibble('4', &nibble);
 1748              		.loc 3 34 0
 1749 0fa3 E8000000 		call	__cxa_end_catch
 1749      00
 1750 0fa8 4889D8   		movq	%rbx, %rax
 1751 0fab 4889C7   		movq	%rax, %rdi
 1752              	.LEHB140:
 1753 0fae E8000000 		call	_Unwind_Resume
 1753      00
 1754              	.LEHE140:
 1755              	.L218:
 1756 0fb3 EB00     		jmp	.L45
 1757              	.L217:
 1758              	.L45:
  36:testConv.cpp  **** 	CHECK_EQUAL(4, nibble);
 1759              		.loc 3 36 0 is_stmt 1
 1760 0fb5 4889C7   		movq	%rax, %rdi
 1761 0fb8 E8000000 		call	__cxa_begin_catch
 1761      00
 1762              	.LEHB141:
 1763 0fbd E8000000 		call	_ZN8UnitTest11CurrentTest7DetailsEv
 1763      00
 1764 0fc2 488B08   		movq	(%rax), %rcx
 1765 0fc5 488D45C0 		leaq	-64(%rbp), %rax
 1766 0fc9 BA240000 		movl	$36, %edx
 1766      00
 1767 0fce 4889CE   		movq	%rcx, %rsi
 1768 0fd1 4889C7   		movq	%rax, %rdi
 1769 0fd4 E8000000 		call	_ZN8UnitTest11TestDetailsC1ERKS0_i
 1769      00
  36:testConv.cpp  **** 	CHECK_EQUAL(4, nibble);
 1770              		.loc 3 36 0 is_stmt 0 discriminator 10
 1771 0fd9 E8000000 		call	_ZN8UnitTest11CurrentTest7ResultsEv
 1771      00
 1772 0fde 488B00   		movq	(%rax), %rax
 1773 0fe1 488D4DC0 		leaq	-64(%rbp), %rcx
 1774 0fe5 BA000000 		movl	$.LC3, %edx
 1774      00
 1775 0fea 4889CE   		movq	%rcx, %rsi
 1776 0fed 4889C7   		movq	%rax, %rdi
 1777 0ff0 E8000000 		call	_ZN8UnitTest11TestResults13OnTestFailureERKNS_11TestDetailsEPKc
 1777      00
 1778              	.LEHE141:
 1779              	.LEHB142:
  36:testConv.cpp  **** 	CHECK_EQUAL(4, nibble);
 1780              		.loc 3 36 0 discriminator 14
 1781 0ff5 E8000000 		call	__cxa_end_catch
 1781      00
 1782              	.LEHE142:
 1783 0ffa E9A9F2FF 		jmp	.L46
 1783      FF
 1784              	.L219:
 1785 0fff 4889C3   		movq	%rax, %rbx
  36:testConv.cpp  **** 	CHECK_EQUAL(4, nibble);
 1786              		.loc 3 36 0
 1787 1002 E8000000 		call	__cxa_end_catch
 1787      00
 1788 1007 4889D8   		movq	%rbx, %rax
 1789 100a 4889C7   		movq	%rax, %rdi
 1790              	.LEHB143:
 1791 100d E8000000 		call	_Unwind_Resume
 1791      00
 1792              	.LEHE143:
 1793              	.L221:
 1794 1012 EB00     		jmp	.L49
 1795              	.L220:
 1796              	.L49:
  37:testConv.cpp  **** 	status = getHexNibble('5', &nibble);
 1797              		.loc 3 37 0 is_stmt 1
 1798 1014 4889C7   		movq	%rax, %rdi
 1799 1017 E8000000 		call	__cxa_begin_catch
 1799      00
 1800              	.LEHB144:
 1801 101c E8000000 		call	_ZN8UnitTest11CurrentTest7DetailsEv
 1801      00
 1802 1021 488B08   		movq	(%rax), %rcx
 1803 1024 488D45C0 		leaq	-64(%rbp), %rax
 1804 1028 BA250000 		movl	$37, %edx
 1804      00
 1805 102d 4889CE   		movq	%rcx, %rsi
 1806 1030 4889C7   		movq	%rax, %rdi
 1807 1033 E8000000 		call	_ZN8UnitTest11TestDetailsC1ERKS0_i
 1807      00
  37:testConv.cpp  **** 	status = getHexNibble('5', &nibble);
 1808              		.loc 3 37 0 is_stmt 0 discriminator 10
 1809 1038 E8000000 		call	_ZN8UnitTest11CurrentTest7ResultsEv
 1809      00
 1810 103d 488B00   		movq	(%rax), %rax
 1811 1040 488D4DC0 		leaq	-64(%rbp), %rcx
 1812 1044 BA000000 		movl	$.LC8, %edx
 1812      00
 1813 1049 4889CE   		movq	%rcx, %rsi
 1814 104c 4889C7   		movq	%rax, %rdi
 1815 104f E8000000 		call	_ZN8UnitTest11TestResults13OnTestFailureERKNS_11TestDetailsEPKc
 1815      00
 1816              	.LEHE144:
 1817              	.LEHB145:
  37:testConv.cpp  **** 	status = getHexNibble('5', &nibble);
 1818              		.loc 3 37 0 discriminator 14
 1819 1054 E8000000 		call	__cxa_end_catch
 1819      00
 1820              	.LEHE145:
 1821 1059 E989F2FF 		jmp	.L50
 1821      FF
 1822              	.L222:
 1823 105e 4889C3   		movq	%rax, %rbx
  37:testConv.cpp  **** 	status = getHexNibble('5', &nibble);
 1824              		.loc 3 37 0
 1825 1061 E8000000 		call	__cxa_end_catch
 1825      00
 1826 1066 4889D8   		movq	%rbx, %rax
 1827 1069 4889C7   		movq	%rax, %rdi
 1828              	.LEHB146:
 1829 106c E8000000 		call	_Unwind_Resume
 1829      00
 1830              	.LEHE146:
 1831              	.L224:
 1832 1071 EB00     		jmp	.L53
 1833              	.L223:
 1834              	.L53:
  39:testConv.cpp  **** 	CHECK_EQUAL(5, nibble);
 1835              		.loc 3 39 0 is_stmt 1
 1836 1073 4889C7   		movq	%rax, %rdi
 1837 1076 E8000000 		call	__cxa_begin_catch
 1837      00
 1838              	.LEHB147:
 1839 107b E8000000 		call	_ZN8UnitTest11CurrentTest7DetailsEv
 1839      00
 1840 1080 488B08   		movq	(%rax), %rcx
 1841 1083 488D45C0 		leaq	-64(%rbp), %rax
 1842 1087 BA270000 		movl	$39, %edx
 1842      00
 1843 108c 4889CE   		movq	%rcx, %rsi
 1844 108f 4889C7   		movq	%rax, %rdi
 1845 1092 E8000000 		call	_ZN8UnitTest11TestDetailsC1ERKS0_i
 1845      00
  39:testConv.cpp  **** 	CHECK_EQUAL(5, nibble);
 1846              		.loc 3 39 0 is_stmt 0 discriminator 10
 1847 1097 E8000000 		call	_ZN8UnitTest11CurrentTest7ResultsEv
 1847      00
 1848 109c 488B00   		movq	(%rax), %rax
 1849 109f 488D4DC0 		leaq	-64(%rbp), %rcx
 1850 10a3 BA000000 		movl	$.LC3, %edx
 1850      00
 1851 10a8 4889CE   		movq	%rcx, %rsi
 1852 10ab 4889C7   		movq	%rax, %rdi
 1853 10ae E8000000 		call	_ZN8UnitTest11TestResults13OnTestFailureERKNS_11TestDetailsEPKc
 1853      00
 1854              	.LEHE147:
 1855              	.LEHB148:
  39:testConv.cpp  **** 	CHECK_EQUAL(5, nibble);
 1856              		.loc 3 39 0 discriminator 14
 1857 10b3 E8000000 		call	__cxa_end_catch
 1857      00
 1858              	.LEHE148:
 1859 10b8 E97AF2FF 		jmp	.L54
 1859      FF
 1860              	.L225:
 1861 10bd 4889C3   		movq	%rax, %rbx
  39:testConv.cpp  **** 	CHECK_EQUAL(5, nibble);
 1862              		.loc 3 39 0
 1863 10c0 E8000000 		call	__cxa_end_catch
 1863      00
 1864 10c5 4889D8   		movq	%rbx, %rax
 1865 10c8 4889C7   		movq	%rax, %rdi
 1866              	.LEHB149:
 1867 10cb E8000000 		call	_Unwind_Resume
 1867      00
 1868              	.LEHE149:
 1869              	.L227:
 1870 10d0 EB00     		jmp	.L57
 1871              	.L226:
 1872              	.L57:
  40:testConv.cpp  **** 	status = getHexNibble('6', &nibble);
 1873              		.loc 3 40 0 is_stmt 1
 1874 10d2 4889C7   		movq	%rax, %rdi
 1875 10d5 E8000000 		call	__cxa_begin_catch
 1875      00
 1876              	.LEHB150:
 1877 10da E8000000 		call	_ZN8UnitTest11CurrentTest7DetailsEv
 1877      00
 1878 10df 488B08   		movq	(%rax), %rcx
 1879 10e2 488D45C0 		leaq	-64(%rbp), %rax
 1880 10e6 BA280000 		movl	$40, %edx
 1880      00
 1881 10eb 4889CE   		movq	%rcx, %rsi
 1882 10ee 4889C7   		movq	%rax, %rdi
 1883 10f1 E8000000 		call	_ZN8UnitTest11TestDetailsC1ERKS0_i
 1883      00
  40:testConv.cpp  **** 	status = getHexNibble('6', &nibble);
 1884              		.loc 3 40 0 is_stmt 0 discriminator 10
 1885 10f6 E8000000 		call	_ZN8UnitTest11CurrentTest7ResultsEv
 1885      00
 1886 10fb 488B00   		movq	(%rax), %rax
 1887 10fe 488D4DC0 		leaq	-64(%rbp), %rcx
 1888 1102 BA000000 		movl	$.LC9, %edx
 1888      00
 1889 1107 4889CE   		movq	%rcx, %rsi
 1890 110a 4889C7   		movq	%rax, %rdi
 1891 110d E8000000 		call	_ZN8UnitTest11TestResults13OnTestFailureERKNS_11TestDetailsEPKc
 1891      00
 1892              	.LEHE150:
 1893              	.LEHB151:
  40:testConv.cpp  **** 	status = getHexNibble('6', &nibble);
 1894              		.loc 3 40 0 discriminator 14
 1895 1112 E8000000 		call	__cxa_end_catch
 1895      00
 1896              	.LEHE151:
 1897 1117 E95AF2FF 		jmp	.L58
 1897      FF
 1898              	.L228:
 1899 111c 4889C3   		movq	%rax, %rbx
  40:testConv.cpp  **** 	status = getHexNibble('6', &nibble);
 1900              		.loc 3 40 0
 1901 111f E8000000 		call	__cxa_end_catch
 1901      00
 1902 1124 4889D8   		movq	%rbx, %rax
 1903 1127 4889C7   		movq	%rax, %rdi
 1904              	.LEHB152:
 1905 112a E8000000 		call	_Unwind_Resume
 1905      00
 1906              	.LEHE152:
 1907              	.L230:
 1908 112f EB00     		jmp	.L61
 1909              	.L229:
 1910              	.L61:
  42:testConv.cpp  **** 	CHECK_EQUAL(6, nibble);
 1911              		.loc 3 42 0 is_stmt 1
 1912 1131 4889C7   		movq	%rax, %rdi
 1913 1134 E8000000 		call	__cxa_begin_catch
 1913      00
 1914              	.LEHB153:
 1915 1139 E8000000 		call	_ZN8UnitTest11CurrentTest7DetailsEv
 1915      00
 1916 113e 488B08   		movq	(%rax), %rcx
 1917 1141 488D45C0 		leaq	-64(%rbp), %rax
 1918 1145 BA2A0000 		movl	$42, %edx
 1918      00
 1919 114a 4889CE   		movq	%rcx, %rsi
 1920 114d 4889C7   		movq	%rax, %rdi
 1921 1150 E8000000 		call	_ZN8UnitTest11TestDetailsC1ERKS0_i
 1921      00
  42:testConv.cpp  **** 	CHECK_EQUAL(6, nibble);
 1922              		.loc 3 42 0 is_stmt 0 discriminator 10
 1923 1155 E8000000 		call	_ZN8UnitTest11CurrentTest7ResultsEv
 1923      00
 1924 115a 488B00   		movq	(%rax), %rax
 1925 115d 488D4DC0 		leaq	-64(%rbp), %rcx
 1926 1161 BA000000 		movl	$.LC3, %edx
 1926      00
 1927 1166 4889CE   		movq	%rcx, %rsi
 1928 1169 4889C7   		movq	%rax, %rdi
 1929 116c E8000000 		call	_ZN8UnitTest11TestResults13OnTestFailureERKNS_11TestDetailsEPKc
 1929      00
 1930              	.LEHE153:
 1931              	.LEHB154:
  42:testConv.cpp  **** 	CHECK_EQUAL(6, nibble);
 1932              		.loc 3 42 0 discriminator 14
 1933 1171 E8000000 		call	__cxa_end_catch
 1933      00
 1934              	.LEHE154:
 1935 1176 E94BF2FF 		jmp	.L62
 1935      FF
 1936              	.L231:
 1937 117b 4889C3   		movq	%rax, %rbx
  42:testConv.cpp  **** 	CHECK_EQUAL(6, nibble);
 1938              		.loc 3 42 0
 1939 117e E8000000 		call	__cxa_end_catch
 1939      00
 1940 1183 4889D8   		movq	%rbx, %rax
 1941 1186 4889C7   		movq	%rax, %rdi
 1942              	.LEHB155:
 1943 1189 E8000000 		call	_Unwind_Resume
 1943      00
 1944              	.LEHE155:
 1945              	.L233:
 1946 118e EB00     		jmp	.L65
 1947              	.L232:
 1948              	.L65:
  43:testConv.cpp  **** 	status = getHexNibble('7', &nibble);
 1949              		.loc 3 43 0 is_stmt 1
 1950 1190 4889C7   		movq	%rax, %rdi
 1951 1193 E8000000 		call	__cxa_begin_catch
 1951      00
 1952              	.LEHB156:
 1953 1198 E8000000 		call	_ZN8UnitTest11CurrentTest7DetailsEv
 1953      00
 1954 119d 488B08   		movq	(%rax), %rcx
 1955 11a0 488D45C0 		leaq	-64(%rbp), %rax
 1956 11a4 BA2B0000 		movl	$43, %edx
 1956      00
 1957 11a9 4889CE   		movq	%rcx, %rsi
 1958 11ac 4889C7   		movq	%rax, %rdi
 1959 11af E8000000 		call	_ZN8UnitTest11TestDetailsC1ERKS0_i
 1959      00
  43:testConv.cpp  **** 	status = getHexNibble('7', &nibble);
 1960              		.loc 3 43 0 is_stmt 0 discriminator 10
 1961 11b4 E8000000 		call	_ZN8UnitTest11CurrentTest7ResultsEv
 1961      00
 1962 11b9 488B00   		movq	(%rax), %rax
 1963 11bc 488D4DC0 		leaq	-64(%rbp), %rcx
 1964 11c0 BA000000 		movl	$.LC10, %edx
 1964      00
 1965 11c5 4889CE   		movq	%rcx, %rsi
 1966 11c8 4889C7   		movq	%rax, %rdi
 1967 11cb E8000000 		call	_ZN8UnitTest11TestResults13OnTestFailureERKNS_11TestDetailsEPKc
 1967      00
 1968              	.LEHE156:
 1969              	.LEHB157:
  43:testConv.cpp  **** 	status = getHexNibble('7', &nibble);
 1970              		.loc 3 43 0 discriminator 14
 1971 11d0 E8000000 		call	__cxa_end_catch
 1971      00
 1972              	.LEHE157:
 1973 11d5 E92BF2FF 		jmp	.L66
 1973      FF
 1974              	.L234:
 1975 11da 4889C3   		movq	%rax, %rbx
  43:testConv.cpp  **** 	status = getHexNibble('7', &nibble);
 1976              		.loc 3 43 0
 1977 11dd E8000000 		call	__cxa_end_catch
 1977      00
 1978 11e2 4889D8   		movq	%rbx, %rax
 1979 11e5 4889C7   		movq	%rax, %rdi
 1980              	.LEHB158:
 1981 11e8 E8000000 		call	_Unwind_Resume
 1981      00
 1982              	.LEHE158:
 1983              	.L236:
 1984 11ed EB00     		jmp	.L69
 1985              	.L235:
 1986              	.L69:
  45:testConv.cpp  **** 	CHECK_EQUAL(7, nibble);
 1987              		.loc 3 45 0 is_stmt 1
 1988 11ef 4889C7   		movq	%rax, %rdi
 1989 11f2 E8000000 		call	__cxa_begin_catch
 1989      00
 1990              	.LEHB159:
 1991 11f7 E8000000 		call	_ZN8UnitTest11CurrentTest7DetailsEv
 1991      00
 1992 11fc 488B08   		movq	(%rax), %rcx
 1993 11ff 488D45C0 		leaq	-64(%rbp), %rax
 1994 1203 BA2D0000 		movl	$45, %edx
 1994      00
 1995 1208 4889CE   		movq	%rcx, %rsi
 1996 120b 4889C7   		movq	%rax, %rdi
 1997 120e E8000000 		call	_ZN8UnitTest11TestDetailsC1ERKS0_i
 1997      00
  45:testConv.cpp  **** 	CHECK_EQUAL(7, nibble);
 1998              		.loc 3 45 0 is_stmt 0 discriminator 10
 1999 1213 E8000000 		call	_ZN8UnitTest11CurrentTest7ResultsEv
 1999      00
 2000 1218 488B00   		movq	(%rax), %rax
 2001 121b 488D4DC0 		leaq	-64(%rbp), %rcx
 2002 121f BA000000 		movl	$.LC3, %edx
 2002      00
 2003 1224 4889CE   		movq	%rcx, %rsi
 2004 1227 4889C7   		movq	%rax, %rdi
 2005 122a E8000000 		call	_ZN8UnitTest11TestResults13OnTestFailureERKNS_11TestDetailsEPKc
 2005      00
 2006              	.LEHE159:
 2007              	.LEHB160:
  45:testConv.cpp  **** 	CHECK_EQUAL(7, nibble);
 2008              		.loc 3 45 0 discriminator 14
 2009 122f E8000000 		call	__cxa_end_catch
 2009      00
 2010              	.LEHE160:
 2011 1234 E91CF2FF 		jmp	.L70
 2011      FF
 2012              	.L237:
 2013 1239 4889C3   		movq	%rax, %rbx
  45:testConv.cpp  **** 	CHECK_EQUAL(7, nibble);
 2014              		.loc 3 45 0
 2015 123c E8000000 		call	__cxa_end_catch
 2015      00
 2016 1241 4889D8   		movq	%rbx, %rax
 2017 1244 4889C7   		movq	%rax, %rdi
 2018              	.LEHB161:
 2019 1247 E8000000 		call	_Unwind_Resume
 2019      00
 2020              	.LEHE161:
 2021              	.L239:
 2022 124c EB00     		jmp	.L73
 2023              	.L238:
 2024              	.L73:
  46:testConv.cpp  **** 	status = getHexNibble('8', &nibble);
 2025              		.loc 3 46 0 is_stmt 1
 2026 124e 4889C7   		movq	%rax, %rdi
 2027 1251 E8000000 		call	__cxa_begin_catch
 2027      00
 2028              	.LEHB162:
 2029 1256 E8000000 		call	_ZN8UnitTest11CurrentTest7DetailsEv
 2029      00
 2030 125b 488B08   		movq	(%rax), %rcx
 2031 125e 488D45C0 		leaq	-64(%rbp), %rax
 2032 1262 BA2E0000 		movl	$46, %edx
 2032      00
 2033 1267 4889CE   		movq	%rcx, %rsi
 2034 126a 4889C7   		movq	%rax, %rdi
 2035 126d E8000000 		call	_ZN8UnitTest11TestDetailsC1ERKS0_i
 2035      00
  46:testConv.cpp  **** 	status = getHexNibble('8', &nibble);
 2036              		.loc 3 46 0 is_stmt 0 discriminator 10
 2037 1272 E8000000 		call	_ZN8UnitTest11CurrentTest7ResultsEv
 2037      00
 2038 1277 488B00   		movq	(%rax), %rax
 2039 127a 488D4DC0 		leaq	-64(%rbp), %rcx
 2040 127e BA000000 		movl	$.LC11, %edx
 2040      00
 2041 1283 4889CE   		movq	%rcx, %rsi
 2042 1286 4889C7   		movq	%rax, %rdi
 2043 1289 E8000000 		call	_ZN8UnitTest11TestResults13OnTestFailureERKNS_11TestDetailsEPKc
 2043      00
 2044              	.LEHE162:
 2045              	.LEHB163:
  46:testConv.cpp  **** 	status = getHexNibble('8', &nibble);
 2046              		.loc 3 46 0 discriminator 14
 2047 128e E8000000 		call	__cxa_end_catch
 2047      00
 2048              	.LEHE163:
 2049 1293 E9FCF1FF 		jmp	.L74
 2049      FF
 2050              	.L240:
 2051 1298 4889C3   		movq	%rax, %rbx
  46:testConv.cpp  **** 	status = getHexNibble('8', &nibble);
 2052              		.loc 3 46 0
 2053 129b E8000000 		call	__cxa_end_catch
 2053      00
 2054 12a0 4889D8   		movq	%rbx, %rax
 2055 12a3 4889C7   		movq	%rax, %rdi
 2056              	.LEHB164:
 2057 12a6 E8000000 		call	_Unwind_Resume
 2057      00
 2058              	.LEHE164:
 2059              	.L242:
 2060 12ab EB00     		jmp	.L77
 2061              	.L241:
 2062              	.L77:
  48:testConv.cpp  **** 	CHECK_EQUAL(8, nibble);
 2063              		.loc 3 48 0 is_stmt 1
 2064 12ad 4889C7   		movq	%rax, %rdi
 2065 12b0 E8000000 		call	__cxa_begin_catch
 2065      00
 2066              	.LEHB165:
 2067 12b5 E8000000 		call	_ZN8UnitTest11CurrentTest7DetailsEv
 2067      00
 2068 12ba 488B08   		movq	(%rax), %rcx
 2069 12bd 488D45C0 		leaq	-64(%rbp), %rax
 2070 12c1 BA300000 		movl	$48, %edx
 2070      00
 2071 12c6 4889CE   		movq	%rcx, %rsi
 2072 12c9 4889C7   		movq	%rax, %rdi
 2073 12cc E8000000 		call	_ZN8UnitTest11TestDetailsC1ERKS0_i
 2073      00
  48:testConv.cpp  **** 	CHECK_EQUAL(8, nibble);
 2074              		.loc 3 48 0 is_stmt 0 discriminator 10
 2075 12d1 E8000000 		call	_ZN8UnitTest11CurrentTest7ResultsEv
 2075      00
 2076 12d6 488B00   		movq	(%rax), %rax
 2077 12d9 488D4DC0 		leaq	-64(%rbp), %rcx
 2078 12dd BA000000 		movl	$.LC3, %edx
 2078      00
 2079 12e2 4889CE   		movq	%rcx, %rsi
 2080 12e5 4889C7   		movq	%rax, %rdi
 2081 12e8 E8000000 		call	_ZN8UnitTest11TestResults13OnTestFailureERKNS_11TestDetailsEPKc
 2081      00
 2082              	.LEHE165:
 2083              	.LEHB166:
  48:testConv.cpp  **** 	CHECK_EQUAL(8, nibble);
 2084              		.loc 3 48 0 discriminator 14
 2085 12ed E8000000 		call	__cxa_end_catch
 2085      00
 2086              	.LEHE166:
 2087 12f2 E9EDF1FF 		jmp	.L78
 2087      FF
 2088              	.L243:
 2089 12f7 4889C3   		movq	%rax, %rbx
  48:testConv.cpp  **** 	CHECK_EQUAL(8, nibble);
 2090              		.loc 3 48 0
 2091 12fa E8000000 		call	__cxa_end_catch
 2091      00
 2092 12ff 4889D8   		movq	%rbx, %rax
 2093 1302 4889C7   		movq	%rax, %rdi
 2094              	.LEHB167:
 2095 1305 E8000000 		call	_Unwind_Resume
 2095      00
 2096              	.LEHE167:
 2097              	.L245:
 2098 130a EB00     		jmp	.L81
 2099              	.L244:
 2100              	.L81:
  49:testConv.cpp  **** 	status = getHexNibble('9', &nibble);
 2101              		.loc 3 49 0 is_stmt 1
 2102 130c 4889C7   		movq	%rax, %rdi
 2103 130f E8000000 		call	__cxa_begin_catch
 2103      00
 2104              	.LEHB168:
 2105 1314 E8000000 		call	_ZN8UnitTest11CurrentTest7DetailsEv
 2105      00
 2106 1319 488B08   		movq	(%rax), %rcx
 2107 131c 488D45C0 		leaq	-64(%rbp), %rax
 2108 1320 BA310000 		movl	$49, %edx
 2108      00
 2109 1325 4889CE   		movq	%rcx, %rsi
 2110 1328 4889C7   		movq	%rax, %rdi
 2111 132b E8000000 		call	_ZN8UnitTest11TestDetailsC1ERKS0_i
 2111      00
  49:testConv.cpp  **** 	status = getHexNibble('9', &nibble);
 2112              		.loc 3 49 0 is_stmt 0 discriminator 10
 2113 1330 E8000000 		call	_ZN8UnitTest11CurrentTest7ResultsEv
 2113      00
 2114 1335 488B00   		movq	(%rax), %rax
 2115 1338 488D4DC0 		leaq	-64(%rbp), %rcx
 2116 133c BA000000 		movl	$.LC12, %edx
 2116      00
 2117 1341 4889CE   		movq	%rcx, %rsi
 2118 1344 4889C7   		movq	%rax, %rdi
 2119 1347 E8000000 		call	_ZN8UnitTest11TestResults13OnTestFailureERKNS_11TestDetailsEPKc
 2119      00
 2120              	.LEHE168:
 2121              	.LEHB169:
  49:testConv.cpp  **** 	status = getHexNibble('9', &nibble);
 2122              		.loc 3 49 0 discriminator 14
 2123 134c E8000000 		call	__cxa_end_catch
 2123      00
 2124              	.LEHE169:
 2125 1351 E9CDF1FF 		jmp	.L82
 2125      FF
 2126              	.L246:
 2127 1356 4889C3   		movq	%rax, %rbx
  49:testConv.cpp  **** 	status = getHexNibble('9', &nibble);
 2128              		.loc 3 49 0
 2129 1359 E8000000 		call	__cxa_end_catch
 2129      00
 2130 135e 4889D8   		movq	%rbx, %rax
 2131 1361 4889C7   		movq	%rax, %rdi
 2132              	.LEHB170:
 2133 1364 E8000000 		call	_Unwind_Resume
 2133      00
 2134              	.LEHE170:
 2135              	.L248:
 2136 1369 EB00     		jmp	.L85
 2137              	.L247:
 2138              	.L85:
  51:testConv.cpp  **** 	CHECK_EQUAL(9, nibble);
 2139              		.loc 3 51 0 is_stmt 1
 2140 136b 4889C7   		movq	%rax, %rdi
 2141 136e E8000000 		call	__cxa_begin_catch
 2141      00
 2142              	.LEHB171:
 2143 1373 E8000000 		call	_ZN8UnitTest11CurrentTest7DetailsEv
 2143      00
 2144 1378 488B08   		movq	(%rax), %rcx
 2145 137b 488D45C0 		leaq	-64(%rbp), %rax
 2146 137f BA330000 		movl	$51, %edx
 2146      00
 2147 1384 4889CE   		movq	%rcx, %rsi
 2148 1387 4889C7   		movq	%rax, %rdi
 2149 138a E8000000 		call	_ZN8UnitTest11TestDetailsC1ERKS0_i
 2149      00
  51:testConv.cpp  **** 	CHECK_EQUAL(9, nibble);
 2150              		.loc 3 51 0 is_stmt 0 discriminator 10
 2151 138f E8000000 		call	_ZN8UnitTest11CurrentTest7ResultsEv
 2151      00
 2152 1394 488B00   		movq	(%rax), %rax
 2153 1397 488D4DC0 		leaq	-64(%rbp), %rcx
 2154 139b BA000000 		movl	$.LC3, %edx
 2154      00
 2155 13a0 4889CE   		movq	%rcx, %rsi
 2156 13a3 4889C7   		movq	%rax, %rdi
 2157 13a6 E8000000 		call	_ZN8UnitTest11TestResults13OnTestFailureERKNS_11TestDetailsEPKc
 2157      00
 2158              	.LEHE171:
 2159              	.LEHB172:
  51:testConv.cpp  **** 	CHECK_EQUAL(9, nibble);
 2160              		.loc 3 51 0 discriminator 14
 2161 13ab E8000000 		call	__cxa_end_catch
 2161      00
 2162              	.LEHE172:
 2163 13b0 E9BEF1FF 		jmp	.L86
 2163      FF
 2164              	.L249:
 2165 13b5 4889C3   		movq	%rax, %rbx
  51:testConv.cpp  **** 	CHECK_EQUAL(9, nibble);
 2166              		.loc 3 51 0
 2167 13b8 E8000000 		call	__cxa_end_catch
 2167      00
 2168 13bd 4889D8   		movq	%rbx, %rax
 2169 13c0 4889C7   		movq	%rax, %rdi
 2170              	.LEHB173:
 2171 13c3 E8000000 		call	_Unwind_Resume
 2171      00
 2172              	.LEHE173:
 2173              	.L251:
 2174 13c8 EB00     		jmp	.L89
 2175              	.L250:
 2176              	.L89:
  52:testConv.cpp  **** 	status = getHexNibble('A', &nibble);
 2177              		.loc 3 52 0 is_stmt 1
 2178 13ca 4889C7   		movq	%rax, %rdi
 2179 13cd E8000000 		call	__cxa_begin_catch
 2179      00
 2180              	.LEHB174:
 2181 13d2 E8000000 		call	_ZN8UnitTest11CurrentTest7DetailsEv
 2181      00
 2182 13d7 488B08   		movq	(%rax), %rcx
 2183 13da 488D45C0 		leaq	-64(%rbp), %rax
 2184 13de BA340000 		movl	$52, %edx
 2184      00
 2185 13e3 4889CE   		movq	%rcx, %rsi
 2186 13e6 4889C7   		movq	%rax, %rdi
 2187 13e9 E8000000 		call	_ZN8UnitTest11TestDetailsC1ERKS0_i
 2187      00
  52:testConv.cpp  **** 	status = getHexNibble('A', &nibble);
 2188              		.loc 3 52 0 is_stmt 0 discriminator 10
 2189 13ee E8000000 		call	_ZN8UnitTest11CurrentTest7ResultsEv
 2189      00
 2190 13f3 488B00   		movq	(%rax), %rax
 2191 13f6 488D4DC0 		leaq	-64(%rbp), %rcx
 2192 13fa BA000000 		movl	$.LC13, %edx
 2192      00
 2193 13ff 4889CE   		movq	%rcx, %rsi
 2194 1402 4889C7   		movq	%rax, %rdi
 2195 1405 E8000000 		call	_ZN8UnitTest11TestResults13OnTestFailureERKNS_11TestDetailsEPKc
 2195      00
 2196              	.LEHE174:
 2197              	.LEHB175:
  52:testConv.cpp  **** 	status = getHexNibble('A', &nibble);
 2198              		.loc 3 52 0 discriminator 14
 2199 140a E8000000 		call	__cxa_end_catch
 2199      00
 2200              	.LEHE175:
 2201 140f E99EF1FF 		jmp	.L90
 2201      FF
 2202              	.L252:
 2203 1414 4889C3   		movq	%rax, %rbx
  52:testConv.cpp  **** 	status = getHexNibble('A', &nibble);
 2204              		.loc 3 52 0
 2205 1417 E8000000 		call	__cxa_end_catch
 2205      00
 2206 141c 4889D8   		movq	%rbx, %rax
 2207 141f 4889C7   		movq	%rax, %rdi
 2208              	.LEHB176:
 2209 1422 E8000000 		call	_Unwind_Resume
 2209      00
 2210              	.LEHE176:
 2211              	.L254:
 2212 1427 EB00     		jmp	.L93
 2213              	.L253:
 2214              	.L93:
  54:testConv.cpp  **** 	CHECK_EQUAL(10, nibble);
 2215              		.loc 3 54 0 is_stmt 1
 2216 1429 4889C7   		movq	%rax, %rdi
 2217 142c E8000000 		call	__cxa_begin_catch
 2217      00
 2218              	.LEHB177:
 2219 1431 E8000000 		call	_ZN8UnitTest11CurrentTest7DetailsEv
 2219      00
 2220 1436 488B08   		movq	(%rax), %rcx
 2221 1439 488D45C0 		leaq	-64(%rbp), %rax
 2222 143d BA360000 		movl	$54, %edx
 2222      00
 2223 1442 4889CE   		movq	%rcx, %rsi
 2224 1445 4889C7   		movq	%rax, %rdi
 2225 1448 E8000000 		call	_ZN8UnitTest11TestDetailsC1ERKS0_i
 2225      00
  54:testConv.cpp  **** 	CHECK_EQUAL(10, nibble);
 2226              		.loc 3 54 0 is_stmt 0 discriminator 10
 2227 144d E8000000 		call	_ZN8UnitTest11CurrentTest7ResultsEv
 2227      00
 2228 1452 488B00   		movq	(%rax), %rax
 2229 1455 488D4DC0 		leaq	-64(%rbp), %rcx
 2230 1459 BA000000 		movl	$.LC3, %edx
 2230      00
 2231 145e 4889CE   		movq	%rcx, %rsi
 2232 1461 4889C7   		movq	%rax, %rdi
 2233 1464 E8000000 		call	_ZN8UnitTest11TestResults13OnTestFailureERKNS_11TestDetailsEPKc
 2233      00
 2234              	.LEHE177:
 2235              	.LEHB178:
  54:testConv.cpp  **** 	CHECK_EQUAL(10, nibble);
 2236              		.loc 3 54 0 discriminator 14
 2237 1469 E8000000 		call	__cxa_end_catch
 2237      00
 2238              	.LEHE178:
 2239 146e E98FF1FF 		jmp	.L94
 2239      FF
 2240              	.L255:
 2241 1473 4889C3   		movq	%rax, %rbx
  54:testConv.cpp  **** 	CHECK_EQUAL(10, nibble);
 2242              		.loc 3 54 0
 2243 1476 E8000000 		call	__cxa_end_catch
 2243      00
 2244 147b 4889D8   		movq	%rbx, %rax
 2245 147e 4889C7   		movq	%rax, %rdi
 2246              	.LEHB179:
 2247 1481 E8000000 		call	_Unwind_Resume
 2247      00
 2248              	.LEHE179:
 2249              	.L257:
 2250 1486 EB00     		jmp	.L97
 2251              	.L256:
 2252              	.L97:
  55:testConv.cpp  **** 	status = getHexNibble('B', &nibble);
 2253              		.loc 3 55 0 is_stmt 1
 2254 1488 4889C7   		movq	%rax, %rdi
 2255 148b E8000000 		call	__cxa_begin_catch
 2255      00
 2256              	.LEHB180:
 2257 1490 E8000000 		call	_ZN8UnitTest11CurrentTest7DetailsEv
 2257      00
 2258 1495 488B08   		movq	(%rax), %rcx
 2259 1498 488D45C0 		leaq	-64(%rbp), %rax
 2260 149c BA370000 		movl	$55, %edx
 2260      00
 2261 14a1 4889CE   		movq	%rcx, %rsi
 2262 14a4 4889C7   		movq	%rax, %rdi
 2263 14a7 E8000000 		call	_ZN8UnitTest11TestDetailsC1ERKS0_i
 2263      00
  55:testConv.cpp  **** 	status = getHexNibble('B', &nibble);
 2264              		.loc 3 55 0 is_stmt 0 discriminator 10
 2265 14ac E8000000 		call	_ZN8UnitTest11CurrentTest7ResultsEv
 2265      00
 2266 14b1 488B00   		movq	(%rax), %rax
 2267 14b4 488D4DC0 		leaq	-64(%rbp), %rcx
 2268 14b8 BA000000 		movl	$.LC14, %edx
 2268      00
 2269 14bd 4889CE   		movq	%rcx, %rsi
 2270 14c0 4889C7   		movq	%rax, %rdi
 2271 14c3 E8000000 		call	_ZN8UnitTest11TestResults13OnTestFailureERKNS_11TestDetailsEPKc
 2271      00
 2272              	.LEHE180:
 2273              	.LEHB181:
  55:testConv.cpp  **** 	status = getHexNibble('B', &nibble);
 2274              		.loc 3 55 0 discriminator 14
 2275 14c8 E8000000 		call	__cxa_end_catch
 2275      00
 2276              	.LEHE181:
 2277 14cd E96FF1FF 		jmp	.L98
 2277      FF
 2278              	.L258:
 2279 14d2 4889C3   		movq	%rax, %rbx
  55:testConv.cpp  **** 	status = getHexNibble('B', &nibble);
 2280              		.loc 3 55 0
 2281 14d5 E8000000 		call	__cxa_end_catch
 2281      00
 2282 14da 4889D8   		movq	%rbx, %rax
 2283 14dd 4889C7   		movq	%rax, %rdi
 2284              	.LEHB182:
 2285 14e0 E8000000 		call	_Unwind_Resume
 2285      00
 2286              	.LEHE182:
 2287              	.L260:
 2288 14e5 EB00     		jmp	.L101
 2289              	.L259:
 2290              	.L101:
  57:testConv.cpp  **** 	CHECK_EQUAL(11, nibble);
 2291              		.loc 3 57 0 is_stmt 1
 2292 14e7 4889C7   		movq	%rax, %rdi
 2293 14ea E8000000 		call	__cxa_begin_catch
 2293      00
 2294              	.LEHB183:
 2295 14ef E8000000 		call	_ZN8UnitTest11CurrentTest7DetailsEv
 2295      00
 2296 14f4 488B08   		movq	(%rax), %rcx
 2297 14f7 488D45C0 		leaq	-64(%rbp), %rax
 2298 14fb BA390000 		movl	$57, %edx
 2298      00
 2299 1500 4889CE   		movq	%rcx, %rsi
 2300 1503 4889C7   		movq	%rax, %rdi
 2301 1506 E8000000 		call	_ZN8UnitTest11TestDetailsC1ERKS0_i
 2301      00
  57:testConv.cpp  **** 	CHECK_EQUAL(11, nibble);
 2302              		.loc 3 57 0 is_stmt 0 discriminator 10
 2303 150b E8000000 		call	_ZN8UnitTest11CurrentTest7ResultsEv
 2303      00
 2304 1510 488B00   		movq	(%rax), %rax
 2305 1513 488D4DC0 		leaq	-64(%rbp), %rcx
 2306 1517 BA000000 		movl	$.LC3, %edx
 2306      00
 2307 151c 4889CE   		movq	%rcx, %rsi
 2308 151f 4889C7   		movq	%rax, %rdi
 2309 1522 E8000000 		call	_ZN8UnitTest11TestResults13OnTestFailureERKNS_11TestDetailsEPKc
 2309      00
 2310              	.LEHE183:
 2311              	.LEHB184:
  57:testConv.cpp  **** 	CHECK_EQUAL(11, nibble);
 2312              		.loc 3 57 0 discriminator 14
 2313 1527 E8000000 		call	__cxa_end_catch
 2313      00
 2314              	.LEHE184:
 2315 152c E960F1FF 		jmp	.L102
 2315      FF
 2316              	.L261:
 2317 1531 4889C3   		movq	%rax, %rbx
  57:testConv.cpp  **** 	CHECK_EQUAL(11, nibble);
 2318              		.loc 3 57 0
 2319 1534 E8000000 		call	__cxa_end_catch
 2319      00
 2320 1539 4889D8   		movq	%rbx, %rax
 2321 153c 4889C7   		movq	%rax, %rdi
 2322              	.LEHB185:
 2323 153f E8000000 		call	_Unwind_Resume
 2323      00
 2324              	.LEHE185:
 2325              	.L263:
 2326 1544 EB00     		jmp	.L105
 2327              	.L262:
 2328              	.L105:
  58:testConv.cpp  **** 	status = getHexNibble('C', &nibble);
 2329              		.loc 3 58 0 is_stmt 1
 2330 1546 4889C7   		movq	%rax, %rdi
 2331 1549 E8000000 		call	__cxa_begin_catch
 2331      00
 2332              	.LEHB186:
 2333 154e E8000000 		call	_ZN8UnitTest11CurrentTest7DetailsEv
 2333      00
 2334 1553 488B08   		movq	(%rax), %rcx
 2335 1556 488D45C0 		leaq	-64(%rbp), %rax
 2336 155a BA3A0000 		movl	$58, %edx
 2336      00
 2337 155f 4889CE   		movq	%rcx, %rsi
 2338 1562 4889C7   		movq	%rax, %rdi
 2339 1565 E8000000 		call	_ZN8UnitTest11TestDetailsC1ERKS0_i
 2339      00
  58:testConv.cpp  **** 	status = getHexNibble('C', &nibble);
 2340              		.loc 3 58 0 is_stmt 0 discriminator 10
 2341 156a E8000000 		call	_ZN8UnitTest11CurrentTest7ResultsEv
 2341      00
 2342 156f 488B00   		movq	(%rax), %rax
 2343 1572 488D4DC0 		leaq	-64(%rbp), %rcx
 2344 1576 BA000000 		movl	$.LC15, %edx
 2344      00
 2345 157b 4889CE   		movq	%rcx, %rsi
 2346 157e 4889C7   		movq	%rax, %rdi
 2347 1581 E8000000 		call	_ZN8UnitTest11TestResults13OnTestFailureERKNS_11TestDetailsEPKc
 2347      00
 2348              	.LEHE186:
 2349              	.LEHB187:
  58:testConv.cpp  **** 	status = getHexNibble('C', &nibble);
 2350              		.loc 3 58 0 discriminator 14
 2351 1586 E8000000 		call	__cxa_end_catch
 2351      00
 2352              	.LEHE187:
 2353 158b E940F1FF 		jmp	.L106
 2353      FF
 2354              	.L264:
 2355 1590 4889C3   		movq	%rax, %rbx
  58:testConv.cpp  **** 	status = getHexNibble('C', &nibble);
 2356              		.loc 3 58 0
 2357 1593 E8000000 		call	__cxa_end_catch
 2357      00
 2358 1598 4889D8   		movq	%rbx, %rax
 2359 159b 4889C7   		movq	%rax, %rdi
 2360              	.LEHB188:
 2361 159e E8000000 		call	_Unwind_Resume
 2361      00
 2362              	.LEHE188:
 2363              	.L266:
 2364 15a3 EB00     		jmp	.L109
 2365              	.L265:
 2366              	.L109:
  60:testConv.cpp  **** 	CHECK_EQUAL(12, nibble);
 2367              		.loc 3 60 0 is_stmt 1
 2368 15a5 4889C7   		movq	%rax, %rdi
 2369 15a8 E8000000 		call	__cxa_begin_catch
 2369      00
 2370              	.LEHB189:
 2371 15ad E8000000 		call	_ZN8UnitTest11CurrentTest7DetailsEv
 2371      00
 2372 15b2 488B08   		movq	(%rax), %rcx
 2373 15b5 488D45C0 		leaq	-64(%rbp), %rax
 2374 15b9 BA3C0000 		movl	$60, %edx
 2374      00
 2375 15be 4889CE   		movq	%rcx, %rsi
 2376 15c1 4889C7   		movq	%rax, %rdi
 2377 15c4 E8000000 		call	_ZN8UnitTest11TestDetailsC1ERKS0_i
 2377      00
  60:testConv.cpp  **** 	CHECK_EQUAL(12, nibble);
 2378              		.loc 3 60 0 is_stmt 0 discriminator 10
 2379 15c9 E8000000 		call	_ZN8UnitTest11CurrentTest7ResultsEv
 2379      00
 2380 15ce 488B00   		movq	(%rax), %rax
 2381 15d1 488D4DC0 		leaq	-64(%rbp), %rcx
 2382 15d5 BA000000 		movl	$.LC3, %edx
 2382      00
 2383 15da 4889CE   		movq	%rcx, %rsi
 2384 15dd 4889C7   		movq	%rax, %rdi
 2385 15e0 E8000000 		call	_ZN8UnitTest11TestResults13OnTestFailureERKNS_11TestDetailsEPKc
 2385      00
 2386              	.LEHE189:
 2387              	.LEHB190:
  60:testConv.cpp  **** 	CHECK_EQUAL(12, nibble);
 2388              		.loc 3 60 0 discriminator 14
 2389 15e5 E8000000 		call	__cxa_end_catch
 2389      00
 2390              	.LEHE190:
 2391 15ea E931F1FF 		jmp	.L110
 2391      FF
 2392              	.L267:
 2393 15ef 4889C3   		movq	%rax, %rbx
  60:testConv.cpp  **** 	CHECK_EQUAL(12, nibble);
 2394              		.loc 3 60 0
 2395 15f2 E8000000 		call	__cxa_end_catch
 2395      00
 2396 15f7 4889D8   		movq	%rbx, %rax
 2397 15fa 4889C7   		movq	%rax, %rdi
 2398              	.LEHB191:
 2399 15fd E8000000 		call	_Unwind_Resume
 2399      00
 2400              	.LEHE191:
 2401              	.L269:
 2402 1602 EB00     		jmp	.L113
 2403              	.L268:
 2404              	.L113:
  61:testConv.cpp  **** 	status = getHexNibble('D', &nibble);
 2405              		.loc 3 61 0 is_stmt 1
 2406 1604 4889C7   		movq	%rax, %rdi
 2407 1607 E8000000 		call	__cxa_begin_catch
 2407      00
 2408              	.LEHB192:
 2409 160c E8000000 		call	_ZN8UnitTest11CurrentTest7DetailsEv
 2409      00
 2410 1611 488B08   		movq	(%rax), %rcx
 2411 1614 488D45C0 		leaq	-64(%rbp), %rax
 2412 1618 BA3D0000 		movl	$61, %edx
 2412      00
 2413 161d 4889CE   		movq	%rcx, %rsi
 2414 1620 4889C7   		movq	%rax, %rdi
 2415 1623 E8000000 		call	_ZN8UnitTest11TestDetailsC1ERKS0_i
 2415      00
  61:testConv.cpp  **** 	status = getHexNibble('D', &nibble);
 2416              		.loc 3 61 0 is_stmt 0 discriminator 10
 2417 1628 E8000000 		call	_ZN8UnitTest11CurrentTest7ResultsEv
 2417      00
 2418 162d 488B00   		movq	(%rax), %rax
 2419 1630 488D4DC0 		leaq	-64(%rbp), %rcx
 2420 1634 BA000000 		movl	$.LC16, %edx
 2420      00
 2421 1639 4889CE   		movq	%rcx, %rsi
 2422 163c 4889C7   		movq	%rax, %rdi
 2423 163f E8000000 		call	_ZN8UnitTest11TestResults13OnTestFailureERKNS_11TestDetailsEPKc
 2423      00
 2424              	.LEHE192:
 2425              	.LEHB193:
  61:testConv.cpp  **** 	status = getHexNibble('D', &nibble);
 2426              		.loc 3 61 0 discriminator 14
 2427 1644 E8000000 		call	__cxa_end_catch
 2427      00
 2428              	.LEHE193:
 2429 1649 E911F1FF 		jmp	.L114
 2429      FF
 2430              	.L270:
 2431 164e 4889C3   		movq	%rax, %rbx
  61:testConv.cpp  **** 	status = getHexNibble('D', &nibble);
 2432              		.loc 3 61 0
 2433 1651 E8000000 		call	__cxa_end_catch
 2433      00
 2434 1656 4889D8   		movq	%rbx, %rax
 2435 1659 4889C7   		movq	%rax, %rdi
 2436              	.LEHB194:
 2437 165c E8000000 		call	_Unwind_Resume
 2437      00
 2438              	.LEHE194:
 2439              	.L272:
 2440 1661 EB00     		jmp	.L117
 2441              	.L271:
 2442              	.L117:
  63:testConv.cpp  **** 	CHECK_EQUAL(13, nibble);
 2443              		.loc 3 63 0 is_stmt 1
 2444 1663 4889C7   		movq	%rax, %rdi
 2445 1666 E8000000 		call	__cxa_begin_catch
 2445      00
 2446              	.LEHB195:
 2447 166b E8000000 		call	_ZN8UnitTest11CurrentTest7DetailsEv
 2447      00
 2448 1670 488B08   		movq	(%rax), %rcx
 2449 1673 488D45C0 		leaq	-64(%rbp), %rax
 2450 1677 BA3F0000 		movl	$63, %edx
 2450      00
 2451 167c 4889CE   		movq	%rcx, %rsi
 2452 167f 4889C7   		movq	%rax, %rdi
 2453 1682 E8000000 		call	_ZN8UnitTest11TestDetailsC1ERKS0_i
 2453      00
  63:testConv.cpp  **** 	CHECK_EQUAL(13, nibble);
 2454              		.loc 3 63 0 is_stmt 0 discriminator 10
 2455 1687 E8000000 		call	_ZN8UnitTest11CurrentTest7ResultsEv
 2455      00
 2456 168c 488B00   		movq	(%rax), %rax
 2457 168f 488D4DC0 		leaq	-64(%rbp), %rcx
 2458 1693 BA000000 		movl	$.LC3, %edx
 2458      00
 2459 1698 4889CE   		movq	%rcx, %rsi
 2460 169b 4889C7   		movq	%rax, %rdi
 2461 169e E8000000 		call	_ZN8UnitTest11TestResults13OnTestFailureERKNS_11TestDetailsEPKc
 2461      00
 2462              	.LEHE195:
 2463              	.LEHB196:
  63:testConv.cpp  **** 	CHECK_EQUAL(13, nibble);
 2464              		.loc 3 63 0 discriminator 14
 2465 16a3 E8000000 		call	__cxa_end_catch
 2465      00
 2466              	.LEHE196:
 2467 16a8 E902F1FF 		jmp	.L118
 2467      FF
 2468              	.L273:
 2469 16ad 4889C3   		movq	%rax, %rbx
  63:testConv.cpp  **** 	CHECK_EQUAL(13, nibble);
 2470              		.loc 3 63 0
 2471 16b0 E8000000 		call	__cxa_end_catch
 2471      00
 2472 16b5 4889D8   		movq	%rbx, %rax
 2473 16b8 4889C7   		movq	%rax, %rdi
 2474              	.LEHB197:
 2475 16bb E8000000 		call	_Unwind_Resume
 2475      00
 2476              	.LEHE197:
 2477              	.L275:
 2478 16c0 EB00     		jmp	.L121
 2479              	.L274:
 2480              	.L121:
  64:testConv.cpp  **** 	status = getHexNibble('E', &nibble);
 2481              		.loc 3 64 0 is_stmt 1
 2482 16c2 4889C7   		movq	%rax, %rdi
 2483 16c5 E8000000 		call	__cxa_begin_catch
 2483      00
 2484              	.LEHB198:
 2485 16ca E8000000 		call	_ZN8UnitTest11CurrentTest7DetailsEv
 2485      00
 2486 16cf 488B08   		movq	(%rax), %rcx
 2487 16d2 488D45C0 		leaq	-64(%rbp), %rax
 2488 16d6 BA400000 		movl	$64, %edx
 2488      00
 2489 16db 4889CE   		movq	%rcx, %rsi
 2490 16de 4889C7   		movq	%rax, %rdi
 2491 16e1 E8000000 		call	_ZN8UnitTest11TestDetailsC1ERKS0_i
 2491      00
  64:testConv.cpp  **** 	status = getHexNibble('E', &nibble);
 2492              		.loc 3 64 0 is_stmt 0 discriminator 10
 2493 16e6 E8000000 		call	_ZN8UnitTest11CurrentTest7ResultsEv
 2493      00
 2494 16eb 488B00   		movq	(%rax), %rax
 2495 16ee 488D4DC0 		leaq	-64(%rbp), %rcx
 2496 16f2 BA000000 		movl	$.LC17, %edx
 2496      00
 2497 16f7 4889CE   		movq	%rcx, %rsi
 2498 16fa 4889C7   		movq	%rax, %rdi
 2499 16fd E8000000 		call	_ZN8UnitTest11TestResults13OnTestFailureERKNS_11TestDetailsEPKc
 2499      00
 2500              	.LEHE198:
 2501              	.LEHB199:
  64:testConv.cpp  **** 	status = getHexNibble('E', &nibble);
 2502              		.loc 3 64 0 discriminator 14
 2503 1702 E8000000 		call	__cxa_end_catch
 2503      00
 2504              	.LEHE199:
 2505 1707 E9E2F0FF 		jmp	.L122
 2505      FF
 2506              	.L276:
 2507 170c 4889C3   		movq	%rax, %rbx
  64:testConv.cpp  **** 	status = getHexNibble('E', &nibble);
 2508              		.loc 3 64 0
 2509 170f E8000000 		call	__cxa_end_catch
 2509      00
 2510 1714 4889D8   		movq	%rbx, %rax
 2511 1717 4889C7   		movq	%rax, %rdi
 2512              	.LEHB200:
 2513 171a E8000000 		call	_Unwind_Resume
 2513      00
 2514              	.LEHE200:
 2515              	.L278:
 2516 171f EB00     		jmp	.L125
 2517              	.L277:
 2518              	.L125:
  66:testConv.cpp  **** 	CHECK_EQUAL(14, nibble);
 2519              		.loc 3 66 0 is_stmt 1
 2520 1721 4889C7   		movq	%rax, %rdi
 2521 1724 E8000000 		call	__cxa_begin_catch
 2521      00
 2522              	.LEHB201:
 2523 1729 E8000000 		call	_ZN8UnitTest11CurrentTest7DetailsEv
 2523      00
 2524 172e 488B08   		movq	(%rax), %rcx
 2525 1731 488D45C0 		leaq	-64(%rbp), %rax
 2526 1735 BA420000 		movl	$66, %edx
 2526      00
 2527 173a 4889CE   		movq	%rcx, %rsi
 2528 173d 4889C7   		movq	%rax, %rdi
 2529 1740 E8000000 		call	_ZN8UnitTest11TestDetailsC1ERKS0_i
 2529      00
  66:testConv.cpp  **** 	CHECK_EQUAL(14, nibble);
 2530              		.loc 3 66 0 is_stmt 0 discriminator 10
 2531 1745 E8000000 		call	_ZN8UnitTest11CurrentTest7ResultsEv
 2531      00
 2532 174a 488B00   		movq	(%rax), %rax
 2533 174d 488D4DC0 		leaq	-64(%rbp), %rcx
 2534 1751 BA000000 		movl	$.LC3, %edx
 2534      00
 2535 1756 4889CE   		movq	%rcx, %rsi
 2536 1759 4889C7   		movq	%rax, %rdi
 2537 175c E8000000 		call	_ZN8UnitTest11TestResults13OnTestFailureERKNS_11TestDetailsEPKc
 2537      00
 2538              	.LEHE201:
 2539              	.LEHB202:
  66:testConv.cpp  **** 	CHECK_EQUAL(14, nibble);
 2540              		.loc 3 66 0 discriminator 14
 2541 1761 E8000000 		call	__cxa_end_catch
 2541      00
 2542              	.LEHE202:
 2543 1766 E9D3F0FF 		jmp	.L126
 2543      FF
 2544              	.L279:
 2545 176b 4889C3   		movq	%rax, %rbx
  66:testConv.cpp  **** 	CHECK_EQUAL(14, nibble);
 2546              		.loc 3 66 0
 2547 176e E8000000 		call	__cxa_end_catch
 2547      00
 2548 1773 4889D8   		movq	%rbx, %rax
 2549 1776 4889C7   		movq	%rax, %rdi
 2550              	.LEHB203:
 2551 1779 E8000000 		call	_Unwind_Resume
 2551      00
 2552              	.LEHE203:
 2553              	.L281:
 2554 177e EB00     		jmp	.L129
 2555              	.L280:
 2556              	.L129:
  67:testConv.cpp  **** 	status = getHexNibble('F', &nibble);
 2557              		.loc 3 67 0 is_stmt 1
 2558 1780 4889C7   		movq	%rax, %rdi
 2559 1783 E8000000 		call	__cxa_begin_catch
 2559      00
 2560              	.LEHB204:
 2561 1788 E8000000 		call	_ZN8UnitTest11CurrentTest7DetailsEv
 2561      00
 2562 178d 488B08   		movq	(%rax), %rcx
 2563 1790 488D45C0 		leaq	-64(%rbp), %rax
 2564 1794 BA430000 		movl	$67, %edx
 2564      00
 2565 1799 4889CE   		movq	%rcx, %rsi
 2566 179c 4889C7   		movq	%rax, %rdi
 2567 179f E8000000 		call	_ZN8UnitTest11TestDetailsC1ERKS0_i
 2567      00
  67:testConv.cpp  **** 	status = getHexNibble('F', &nibble);
 2568              		.loc 3 67 0 is_stmt 0 discriminator 10
 2569 17a4 E8000000 		call	_ZN8UnitTest11CurrentTest7ResultsEv
 2569      00
 2570 17a9 488B00   		movq	(%rax), %rax
 2571 17ac 488D4DC0 		leaq	-64(%rbp), %rcx
 2572 17b0 BA000000 		movl	$.LC18, %edx
 2572      00
 2573 17b5 4889CE   		movq	%rcx, %rsi
 2574 17b8 4889C7   		movq	%rax, %rdi
 2575 17bb E8000000 		call	_ZN8UnitTest11TestResults13OnTestFailureERKNS_11TestDetailsEPKc
 2575      00
 2576              	.LEHE204:
 2577              	.LEHB205:
  67:testConv.cpp  **** 	status = getHexNibble('F', &nibble);
 2578              		.loc 3 67 0 discriminator 14
 2579 17c0 E8000000 		call	__cxa_end_catch
 2579      00
 2580              	.LEHE205:
 2581 17c5 E9B3F0FF 		jmp	.L130
 2581      FF
 2582              	.L282:
 2583 17ca 4889C3   		movq	%rax, %rbx
  67:testConv.cpp  **** 	status = getHexNibble('F', &nibble);
 2584              		.loc 3 67 0
 2585 17cd E8000000 		call	__cxa_end_catch
 2585      00
 2586 17d2 4889D8   		movq	%rbx, %rax
 2587 17d5 4889C7   		movq	%rax, %rdi
 2588              	.LEHB206:
 2589 17d8 E8000000 		call	_Unwind_Resume
 2589      00
 2590              	.LEHE206:
 2591              	.L284:
 2592 17dd EB00     		jmp	.L133
 2593              	.L283:
 2594              	.L133:
  69:testConv.cpp  **** 	CHECK_EQUAL(15, nibble);
 2595              		.loc 3 69 0 is_stmt 1
 2596 17df 4889C7   		movq	%rax, %rdi
 2597 17e2 E8000000 		call	__cxa_begin_catch
 2597      00
 2598              	.LEHB207:
 2599 17e7 E8000000 		call	_ZN8UnitTest11CurrentTest7DetailsEv
 2599      00
 2600 17ec 488B08   		movq	(%rax), %rcx
 2601 17ef 488D45C0 		leaq	-64(%rbp), %rax
 2602 17f3 BA450000 		movl	$69, %edx
 2602      00
 2603 17f8 4889CE   		movq	%rcx, %rsi
 2604 17fb 4889C7   		movq	%rax, %rdi
 2605 17fe E8000000 		call	_ZN8UnitTest11TestDetailsC1ERKS0_i
 2605      00
  69:testConv.cpp  **** 	CHECK_EQUAL(15, nibble);
 2606              		.loc 3 69 0 is_stmt 0 discriminator 10
 2607 1803 E8000000 		call	_ZN8UnitTest11CurrentTest7ResultsEv
 2607      00
 2608 1808 488B00   		movq	(%rax), %rax
 2609 180b 488D4DC0 		leaq	-64(%rbp), %rcx
 2610 180f BA000000 		movl	$.LC3, %edx
 2610      00
 2611 1814 4889CE   		movq	%rcx, %rsi
 2612 1817 4889C7   		movq	%rax, %rdi
 2613 181a E8000000 		call	_ZN8UnitTest11TestResults13OnTestFailureERKNS_11TestDetailsEPKc
 2613      00
 2614              	.LEHE207:
 2615              	.LEHB208:
  69:testConv.cpp  **** 	CHECK_EQUAL(15, nibble);
 2616              		.loc 3 69 0 discriminator 14
 2617 181f E8000000 		call	__cxa_end_catch
 2617      00
 2618              	.LEHE208:
 2619 1824 E9A4F0FF 		jmp	.L134
 2619      FF
 2620              	.L285:
 2621 1829 4889C3   		movq	%rax, %rbx
  69:testConv.cpp  **** 	CHECK_EQUAL(15, nibble);
 2622              		.loc 3 69 0
 2623 182c E8000000 		call	__cxa_end_catch
 2623      00
 2624 1831 4889D8   		movq	%rbx, %rax
 2625 1834 4889C7   		movq	%rax, %rdi
 2626              	.LEHB209:
 2627 1837 E8000000 		call	_Unwind_Resume
 2627      00
 2628              	.LEHE209:
 2629              	.L287:
 2630 183c EB00     		jmp	.L137
 2631              	.L286:
 2632              	.L137:
  70:testConv.cpp  **** 	status = getHexNibble('a', &nibble);
 2633              		.loc 3 70 0 is_stmt 1
 2634 183e 4889C7   		movq	%rax, %rdi
 2635 1841 E8000000 		call	__cxa_begin_catch
 2635      00
 2636              	.LEHB210:
 2637 1846 E8000000 		call	_ZN8UnitTest11CurrentTest7DetailsEv
 2637      00
 2638 184b 488B08   		movq	(%rax), %rcx
 2639 184e 488D45C0 		leaq	-64(%rbp), %rax
 2640 1852 BA460000 		movl	$70, %edx
 2640      00
 2641 1857 4889CE   		movq	%rcx, %rsi
 2642 185a 4889C7   		movq	%rax, %rdi
 2643 185d E8000000 		call	_ZN8UnitTest11TestDetailsC1ERKS0_i
 2643      00
  70:testConv.cpp  **** 	status = getHexNibble('a', &nibble);
 2644              		.loc 3 70 0 is_stmt 0 discriminator 10
 2645 1862 E8000000 		call	_ZN8UnitTest11CurrentTest7ResultsEv
 2645      00
 2646 1867 488B00   		movq	(%rax), %rax
 2647 186a 488D4DC0 		leaq	-64(%rbp), %rcx
 2648 186e BA000000 		movl	$.LC19, %edx
 2648      00
 2649 1873 4889CE   		movq	%rcx, %rsi
 2650 1876 4889C7   		movq	%rax, %rdi
 2651 1879 E8000000 		call	_ZN8UnitTest11TestResults13OnTestFailureERKNS_11TestDetailsEPKc
 2651      00
 2652              	.LEHE210:
 2653              	.LEHB211:
  70:testConv.cpp  **** 	status = getHexNibble('a', &nibble);
 2654              		.loc 3 70 0 discriminator 14
 2655 187e E8000000 		call	__cxa_end_catch
 2655      00
 2656              	.LEHE211:
 2657 1883 E984F0FF 		jmp	.L138
 2657      FF
 2658              	.L288:
 2659 1888 4889C3   		movq	%rax, %rbx
  70:testConv.cpp  **** 	status = getHexNibble('a', &nibble);
 2660              		.loc 3 70 0
 2661 188b E8000000 		call	__cxa_end_catch
 2661      00
 2662 1890 4889D8   		movq	%rbx, %rax
 2663 1893 4889C7   		movq	%rax, %rdi
 2664              	.LEHB212:
 2665 1896 E8000000 		call	_Unwind_Resume
 2665      00
 2666              	.LEHE212:
 2667              	.L290:
 2668 189b EB00     		jmp	.L141
 2669              	.L289:
 2670              	.L141:
  72:testConv.cpp  **** 	CHECK_EQUAL(10, nibble);
 2671              		.loc 3 72 0 is_stmt 1
 2672 189d 4889C7   		movq	%rax, %rdi
 2673 18a0 E8000000 		call	__cxa_begin_catch
 2673      00
 2674              	.LEHB213:
 2675 18a5 E8000000 		call	_ZN8UnitTest11CurrentTest7DetailsEv
 2675      00
 2676 18aa 488B08   		movq	(%rax), %rcx
 2677 18ad 488D45C0 		leaq	-64(%rbp), %rax
 2678 18b1 BA480000 		movl	$72, %edx
 2678      00
 2679 18b6 4889CE   		movq	%rcx, %rsi
 2680 18b9 4889C7   		movq	%rax, %rdi
 2681 18bc E8000000 		call	_ZN8UnitTest11TestDetailsC1ERKS0_i
 2681      00
  72:testConv.cpp  **** 	CHECK_EQUAL(10, nibble);
 2682              		.loc 3 72 0 is_stmt 0 discriminator 10
 2683 18c1 E8000000 		call	_ZN8UnitTest11CurrentTest7ResultsEv
 2683      00
 2684 18c6 488B00   		movq	(%rax), %rax
 2685 18c9 488D4DC0 		leaq	-64(%rbp), %rcx
 2686 18cd BA000000 		movl	$.LC3, %edx
 2686      00
 2687 18d2 4889CE   		movq	%rcx, %rsi
 2688 18d5 4889C7   		movq	%rax, %rdi
 2689 18d8 E8000000 		call	_ZN8UnitTest11TestResults13OnTestFailureERKNS_11TestDetailsEPKc
 2689      00
 2690              	.LEHE213:
 2691              	.LEHB214:
  72:testConv.cpp  **** 	CHECK_EQUAL(10, nibble);
 2692              		.loc 3 72 0 discriminator 14
 2693 18dd E8000000 		call	__cxa_end_catch
 2693      00
 2694              	.LEHE214:
 2695 18e2 E975F0FF 		jmp	.L142
 2695      FF
 2696              	.L291:
 2697 18e7 4889C3   		movq	%rax, %rbx
  72:testConv.cpp  **** 	CHECK_EQUAL(10, nibble);
 2698              		.loc 3 72 0
 2699 18ea E8000000 		call	__cxa_end_catch
 2699      00
 2700 18ef 4889D8   		movq	%rbx, %rax
 2701 18f2 4889C7   		movq	%rax, %rdi
 2702              	.LEHB215:
 2703 18f5 E8000000 		call	_Unwind_Resume
 2703      00
 2704              	.LEHE215:
 2705              	.L293:
 2706 18fa EB00     		jmp	.L145
 2707              	.L292:
 2708              	.L145:
  73:testConv.cpp  **** 	status = getHexNibble('b', &nibble);
 2709              		.loc 3 73 0 is_stmt 1
 2710 18fc 4889C7   		movq	%rax, %rdi
 2711 18ff E8000000 		call	__cxa_begin_catch
 2711      00
 2712              	.LEHB216:
 2713 1904 E8000000 		call	_ZN8UnitTest11CurrentTest7DetailsEv
 2713      00
 2714 1909 488B08   		movq	(%rax), %rcx
 2715 190c 488D45C0 		leaq	-64(%rbp), %rax
 2716 1910 BA490000 		movl	$73, %edx
 2716      00
 2717 1915 4889CE   		movq	%rcx, %rsi
 2718 1918 4889C7   		movq	%rax, %rdi
 2719 191b E8000000 		call	_ZN8UnitTest11TestDetailsC1ERKS0_i
 2719      00
  73:testConv.cpp  **** 	status = getHexNibble('b', &nibble);
 2720              		.loc 3 73 0 is_stmt 0 discriminator 10
 2721 1920 E8000000 		call	_ZN8UnitTest11CurrentTest7ResultsEv
 2721      00
 2722 1925 488B00   		movq	(%rax), %rax
 2723 1928 488D4DC0 		leaq	-64(%rbp), %rcx
 2724 192c BA000000 		movl	$.LC14, %edx
 2724      00
 2725 1931 4889CE   		movq	%rcx, %rsi
 2726 1934 4889C7   		movq	%rax, %rdi
 2727 1937 E8000000 		call	_ZN8UnitTest11TestResults13OnTestFailureERKNS_11TestDetailsEPKc
 2727      00
 2728              	.LEHE216:
 2729              	.LEHB217:
  73:testConv.cpp  **** 	status = getHexNibble('b', &nibble);
 2730              		.loc 3 73 0 discriminator 14
 2731 193c E8000000 		call	__cxa_end_catch
 2731      00
 2732              	.LEHE217:
 2733 1941 E955F0FF 		jmp	.L146
 2733      FF
 2734              	.L294:
 2735 1946 4889C3   		movq	%rax, %rbx
  73:testConv.cpp  **** 	status = getHexNibble('b', &nibble);
 2736              		.loc 3 73 0
 2737 1949 E8000000 		call	__cxa_end_catch
 2737      00
 2738 194e 4889D8   		movq	%rbx, %rax
 2739 1951 4889C7   		movq	%rax, %rdi
 2740              	.LEHB218:
 2741 1954 E8000000 		call	_Unwind_Resume
 2741      00
 2742              	.LEHE218:
 2743              	.L296:
 2744 1959 EB00     		jmp	.L149
 2745              	.L295:
 2746              	.L149:
  75:testConv.cpp  **** 	CHECK_EQUAL(11, nibble);
 2747              		.loc 3 75 0 is_stmt 1
 2748 195b 4889C7   		movq	%rax, %rdi
 2749 195e E8000000 		call	__cxa_begin_catch
 2749      00
 2750              	.LEHB219:
 2751 1963 E8000000 		call	_ZN8UnitTest11CurrentTest7DetailsEv
 2751      00
 2752 1968 488B08   		movq	(%rax), %rcx
 2753 196b 488D45C0 		leaq	-64(%rbp), %rax
 2754 196f BA4B0000 		movl	$75, %edx
 2754      00
 2755 1974 4889CE   		movq	%rcx, %rsi
 2756 1977 4889C7   		movq	%rax, %rdi
 2757 197a E8000000 		call	_ZN8UnitTest11TestDetailsC1ERKS0_i
 2757      00
  75:testConv.cpp  **** 	CHECK_EQUAL(11, nibble);
 2758              		.loc 3 75 0 is_stmt 0 discriminator 10
 2759 197f E8000000 		call	_ZN8UnitTest11CurrentTest7ResultsEv
 2759      00
 2760 1984 488B00   		movq	(%rax), %rax
 2761 1987 488D4DC0 		leaq	-64(%rbp), %rcx
 2762 198b BA000000 		movl	$.LC3, %edx
 2762      00
 2763 1990 4889CE   		movq	%rcx, %rsi
 2764 1993 4889C7   		movq	%rax, %rdi
 2765 1996 E8000000 		call	_ZN8UnitTest11TestResults13OnTestFailureERKNS_11TestDetailsEPKc
 2765      00
 2766              	.LEHE219:
 2767              	.LEHB220:
  75:testConv.cpp  **** 	CHECK_EQUAL(11, nibble);
 2768              		.loc 3 75 0 discriminator 14
 2769 199b E8000000 		call	__cxa_end_catch
 2769      00
 2770              	.LEHE220:
 2771 19a0 E946F0FF 		jmp	.L150
 2771      FF
 2772              	.L297:
 2773 19a5 4889C3   		movq	%rax, %rbx
  75:testConv.cpp  **** 	CHECK_EQUAL(11, nibble);
 2774              		.loc 3 75 0
 2775 19a8 E8000000 		call	__cxa_end_catch
 2775      00
 2776 19ad 4889D8   		movq	%rbx, %rax
 2777 19b0 4889C7   		movq	%rax, %rdi
 2778              	.LEHB221:
 2779 19b3 E8000000 		call	_Unwind_Resume
 2779      00
 2780              	.LEHE221:
 2781              	.L299:
 2782 19b8 EB00     		jmp	.L153
 2783              	.L298:
 2784              	.L153:
  76:testConv.cpp  **** 	status = getHexNibble('c', &nibble);
 2785              		.loc 3 76 0 is_stmt 1
 2786 19ba 4889C7   		movq	%rax, %rdi
 2787 19bd E8000000 		call	__cxa_begin_catch
 2787      00
 2788              	.LEHB222:
 2789 19c2 E8000000 		call	_ZN8UnitTest11CurrentTest7DetailsEv
 2789      00
 2790 19c7 488B08   		movq	(%rax), %rcx
 2791 19ca 488D45C0 		leaq	-64(%rbp), %rax
 2792 19ce BA4C0000 		movl	$76, %edx
 2792      00
 2793 19d3 4889CE   		movq	%rcx, %rsi
 2794 19d6 4889C7   		movq	%rax, %rdi
 2795 19d9 E8000000 		call	_ZN8UnitTest11TestDetailsC1ERKS0_i
 2795      00
  76:testConv.cpp  **** 	status = getHexNibble('c', &nibble);
 2796              		.loc 3 76 0 is_stmt 0 discriminator 10
 2797 19de E8000000 		call	_ZN8UnitTest11CurrentTest7ResultsEv
 2797      00
 2798 19e3 488B00   		movq	(%rax), %rax
 2799 19e6 488D4DC0 		leaq	-64(%rbp), %rcx
 2800 19ea BA000000 		movl	$.LC15, %edx
 2800      00
 2801 19ef 4889CE   		movq	%rcx, %rsi
 2802 19f2 4889C7   		movq	%rax, %rdi
 2803 19f5 E8000000 		call	_ZN8UnitTest11TestResults13OnTestFailureERKNS_11TestDetailsEPKc
 2803      00
 2804              	.LEHE222:
 2805              	.LEHB223:
  76:testConv.cpp  **** 	status = getHexNibble('c', &nibble);
 2806              		.loc 3 76 0 discriminator 14
 2807 19fa E8000000 		call	__cxa_end_catch
 2807      00
 2808              	.LEHE223:
 2809 19ff E926F0FF 		jmp	.L154
 2809      FF
 2810              	.L300:
 2811 1a04 4889C3   		movq	%rax, %rbx
  76:testConv.cpp  **** 	status = getHexNibble('c', &nibble);
 2812              		.loc 3 76 0
 2813 1a07 E8000000 		call	__cxa_end_catch
 2813      00
 2814 1a0c 4889D8   		movq	%rbx, %rax
 2815 1a0f 4889C7   		movq	%rax, %rdi
 2816              	.LEHB224:
 2817 1a12 E8000000 		call	_Unwind_Resume
 2817      00
 2818              	.LEHE224:
 2819              	.L302:
 2820 1a17 EB00     		jmp	.L157
 2821              	.L301:
 2822              	.L157:
  78:testConv.cpp  **** 	CHECK_EQUAL(12, nibble);
 2823              		.loc 3 78 0 is_stmt 1
 2824 1a19 4889C7   		movq	%rax, %rdi
 2825 1a1c E8000000 		call	__cxa_begin_catch
 2825      00
 2826              	.LEHB225:
 2827 1a21 E8000000 		call	_ZN8UnitTest11CurrentTest7DetailsEv
 2827      00
 2828 1a26 488B08   		movq	(%rax), %rcx
 2829 1a29 488D45C0 		leaq	-64(%rbp), %rax
 2830 1a2d BA4E0000 		movl	$78, %edx
 2830      00
 2831 1a32 4889CE   		movq	%rcx, %rsi
 2832 1a35 4889C7   		movq	%rax, %rdi
 2833 1a38 E8000000 		call	_ZN8UnitTest11TestDetailsC1ERKS0_i
 2833      00
  78:testConv.cpp  **** 	CHECK_EQUAL(12, nibble);
 2834              		.loc 3 78 0 is_stmt 0 discriminator 10
 2835 1a3d E8000000 		call	_ZN8UnitTest11CurrentTest7ResultsEv
 2835      00
 2836 1a42 488B00   		movq	(%rax), %rax
 2837 1a45 488D4DC0 		leaq	-64(%rbp), %rcx
 2838 1a49 BA000000 		movl	$.LC3, %edx
 2838      00
 2839 1a4e 4889CE   		movq	%rcx, %rsi
 2840 1a51 4889C7   		movq	%rax, %rdi
 2841 1a54 E8000000 		call	_ZN8UnitTest11TestResults13OnTestFailureERKNS_11TestDetailsEPKc
 2841      00
 2842              	.LEHE225:
 2843              	.LEHB226:
  78:testConv.cpp  **** 	CHECK_EQUAL(12, nibble);
 2844              		.loc 3 78 0 discriminator 14
 2845 1a59 E8000000 		call	__cxa_end_catch
 2845      00
 2846              	.LEHE226:
 2847 1a5e E917F0FF 		jmp	.L158
 2847      FF
 2848              	.L303:
 2849 1a63 4889C3   		movq	%rax, %rbx
  78:testConv.cpp  **** 	CHECK_EQUAL(12, nibble);
 2850              		.loc 3 78 0
 2851 1a66 E8000000 		call	__cxa_end_catch
 2851      00
 2852 1a6b 4889D8   		movq	%rbx, %rax
 2853 1a6e 4889C7   		movq	%rax, %rdi
 2854              	.LEHB227:
 2855 1a71 E8000000 		call	_Unwind_Resume
 2855      00
 2856              	.LEHE227:
 2857              	.L305:
 2858 1a76 EB00     		jmp	.L161
 2859              	.L304:
 2860              	.L161:
  79:testConv.cpp  **** 	status = getHexNibble('d', &nibble);
 2861              		.loc 3 79 0 is_stmt 1
 2862 1a78 4889C7   		movq	%rax, %rdi
 2863 1a7b E8000000 		call	__cxa_begin_catch
 2863      00
 2864              	.LEHB228:
 2865 1a80 E8000000 		call	_ZN8UnitTest11CurrentTest7DetailsEv
 2865      00
 2866 1a85 488B08   		movq	(%rax), %rcx
 2867 1a88 488D45C0 		leaq	-64(%rbp), %rax
 2868 1a8c BA4F0000 		movl	$79, %edx
 2868      00
 2869 1a91 4889CE   		movq	%rcx, %rsi
 2870 1a94 4889C7   		movq	%rax, %rdi
 2871 1a97 E8000000 		call	_ZN8UnitTest11TestDetailsC1ERKS0_i
 2871      00
  79:testConv.cpp  **** 	status = getHexNibble('d', &nibble);
 2872              		.loc 3 79 0 is_stmt 0 discriminator 10
 2873 1a9c E8000000 		call	_ZN8UnitTest11CurrentTest7ResultsEv
 2873      00
 2874 1aa1 488B00   		movq	(%rax), %rax
 2875 1aa4 488D4DC0 		leaq	-64(%rbp), %rcx
 2876 1aa8 BA000000 		movl	$.LC16, %edx
 2876      00
 2877 1aad 4889CE   		movq	%rcx, %rsi
 2878 1ab0 4889C7   		movq	%rax, %rdi
 2879 1ab3 E8000000 		call	_ZN8UnitTest11TestResults13OnTestFailureERKNS_11TestDetailsEPKc
 2879      00
 2880              	.LEHE228:
 2881              	.LEHB229:
  79:testConv.cpp  **** 	status = getHexNibble('d', &nibble);
 2882              		.loc 3 79 0 discriminator 14
 2883 1ab8 E8000000 		call	__cxa_end_catch
 2883      00
 2884              	.LEHE229:
 2885 1abd E9F7EFFF 		jmp	.L162
 2885      FF
 2886              	.L306:
 2887 1ac2 4889C3   		movq	%rax, %rbx
  79:testConv.cpp  **** 	status = getHexNibble('d', &nibble);
 2888              		.loc 3 79 0
 2889 1ac5 E8000000 		call	__cxa_end_catch
 2889      00
 2890 1aca 4889D8   		movq	%rbx, %rax
 2891 1acd 4889C7   		movq	%rax, %rdi
 2892              	.LEHB230:
 2893 1ad0 E8000000 		call	_Unwind_Resume
 2893      00
 2894              	.LEHE230:
 2895              	.L308:
 2896 1ad5 EB00     		jmp	.L165
 2897              	.L307:
 2898              	.L165:
  81:testConv.cpp  **** 	CHECK_EQUAL(13, nibble);
 2899              		.loc 3 81 0 is_stmt 1
 2900 1ad7 4889C7   		movq	%rax, %rdi
 2901 1ada E8000000 		call	__cxa_begin_catch
 2901      00
 2902              	.LEHB231:
 2903 1adf E8000000 		call	_ZN8UnitTest11CurrentTest7DetailsEv
 2903      00
 2904 1ae4 488B08   		movq	(%rax), %rcx
 2905 1ae7 488D45C0 		leaq	-64(%rbp), %rax
 2906 1aeb BA510000 		movl	$81, %edx
 2906      00
 2907 1af0 4889CE   		movq	%rcx, %rsi
 2908 1af3 4889C7   		movq	%rax, %rdi
 2909 1af6 E8000000 		call	_ZN8UnitTest11TestDetailsC1ERKS0_i
 2909      00
  81:testConv.cpp  **** 	CHECK_EQUAL(13, nibble);
 2910              		.loc 3 81 0 is_stmt 0 discriminator 10
 2911 1afb E8000000 		call	_ZN8UnitTest11CurrentTest7ResultsEv
 2911      00
 2912 1b00 488B00   		movq	(%rax), %rax
 2913 1b03 488D4DC0 		leaq	-64(%rbp), %rcx
 2914 1b07 BA000000 		movl	$.LC3, %edx
 2914      00
 2915 1b0c 4889CE   		movq	%rcx, %rsi
 2916 1b0f 4889C7   		movq	%rax, %rdi
 2917 1b12 E8000000 		call	_ZN8UnitTest11TestResults13OnTestFailureERKNS_11TestDetailsEPKc
 2917      00
 2918              	.LEHE231:
 2919              	.LEHB232:
  81:testConv.cpp  **** 	CHECK_EQUAL(13, nibble);
 2920              		.loc 3 81 0 discriminator 14
 2921 1b17 E8000000 		call	__cxa_end_catch
 2921      00
 2922              	.LEHE232:
 2923 1b1c E9E8EFFF 		jmp	.L166
 2923      FF
 2924              	.L309:
 2925 1b21 4889C3   		movq	%rax, %rbx
  81:testConv.cpp  **** 	CHECK_EQUAL(13, nibble);
 2926              		.loc 3 81 0
 2927 1b24 E8000000 		call	__cxa_end_catch
 2927      00
 2928 1b29 4889D8   		movq	%rbx, %rax
 2929 1b2c 4889C7   		movq	%rax, %rdi
 2930              	.LEHB233:
 2931 1b2f E8000000 		call	_Unwind_Resume
 2931      00
 2932              	.LEHE233:
 2933              	.L311:
 2934 1b34 EB00     		jmp	.L169
 2935              	.L310:
 2936              	.L169:
  82:testConv.cpp  **** 	status = getHexNibble('e', &nibble);
 2937              		.loc 3 82 0 is_stmt 1
 2938 1b36 4889C7   		movq	%rax, %rdi
 2939 1b39 E8000000 		call	__cxa_begin_catch
 2939      00
 2940              	.LEHB234:
 2941 1b3e E8000000 		call	_ZN8UnitTest11CurrentTest7DetailsEv
 2941      00
 2942 1b43 488B08   		movq	(%rax), %rcx
 2943 1b46 488D45C0 		leaq	-64(%rbp), %rax
 2944 1b4a BA520000 		movl	$82, %edx
 2944      00
 2945 1b4f 4889CE   		movq	%rcx, %rsi
 2946 1b52 4889C7   		movq	%rax, %rdi
 2947 1b55 E8000000 		call	_ZN8UnitTest11TestDetailsC1ERKS0_i
 2947      00
  82:testConv.cpp  **** 	status = getHexNibble('e', &nibble);
 2948              		.loc 3 82 0 is_stmt 0 discriminator 10
 2949 1b5a E8000000 		call	_ZN8UnitTest11CurrentTest7ResultsEv
 2949      00
 2950 1b5f 488B00   		movq	(%rax), %rax
 2951 1b62 488D4DC0 		leaq	-64(%rbp), %rcx
 2952 1b66 BA000000 		movl	$.LC17, %edx
 2952      00
 2953 1b6b 4889CE   		movq	%rcx, %rsi
 2954 1b6e 4889C7   		movq	%rax, %rdi
 2955 1b71 E8000000 		call	_ZN8UnitTest11TestResults13OnTestFailureERKNS_11TestDetailsEPKc
 2955      00
 2956              	.LEHE234:
 2957              	.LEHB235:
  82:testConv.cpp  **** 	status = getHexNibble('e', &nibble);
 2958              		.loc 3 82 0 discriminator 14
 2959 1b76 E8000000 		call	__cxa_end_catch
 2959      00
 2960              	.LEHE235:
 2961 1b7b E9C8EFFF 		jmp	.L170
 2961      FF
 2962              	.L312:
 2963 1b80 4889C3   		movq	%rax, %rbx
  82:testConv.cpp  **** 	status = getHexNibble('e', &nibble);
 2964              		.loc 3 82 0
 2965 1b83 E8000000 		call	__cxa_end_catch
 2965      00
 2966 1b88 4889D8   		movq	%rbx, %rax
 2967 1b8b 4889C7   		movq	%rax, %rdi
 2968              	.LEHB236:
 2969 1b8e E8000000 		call	_Unwind_Resume
 2969      00
 2970              	.LEHE236:
 2971              	.L314:
 2972 1b93 EB00     		jmp	.L173
 2973              	.L313:
 2974              	.L173:
  84:testConv.cpp  **** 	CHECK_EQUAL(14, nibble);
 2975              		.loc 3 84 0 is_stmt 1
 2976 1b95 4889C7   		movq	%rax, %rdi
 2977 1b98 E8000000 		call	__cxa_begin_catch
 2977      00
 2978              	.LEHB237:
 2979 1b9d E8000000 		call	_ZN8UnitTest11CurrentTest7DetailsEv
 2979      00
 2980 1ba2 488B08   		movq	(%rax), %rcx
 2981 1ba5 488D45C0 		leaq	-64(%rbp), %rax
 2982 1ba9 BA540000 		movl	$84, %edx
 2982      00
 2983 1bae 4889CE   		movq	%rcx, %rsi
 2984 1bb1 4889C7   		movq	%rax, %rdi
 2985 1bb4 E8000000 		call	_ZN8UnitTest11TestDetailsC1ERKS0_i
 2985      00
  84:testConv.cpp  **** 	CHECK_EQUAL(14, nibble);
 2986              		.loc 3 84 0 is_stmt 0 discriminator 10
 2987 1bb9 E8000000 		call	_ZN8UnitTest11CurrentTest7ResultsEv
 2987      00
 2988 1bbe 488B00   		movq	(%rax), %rax
 2989 1bc1 488D4DC0 		leaq	-64(%rbp), %rcx
 2990 1bc5 BA000000 		movl	$.LC3, %edx
 2990      00
 2991 1bca 4889CE   		movq	%rcx, %rsi
 2992 1bcd 4889C7   		movq	%rax, %rdi
 2993 1bd0 E8000000 		call	_ZN8UnitTest11TestResults13OnTestFailureERKNS_11TestDetailsEPKc
 2993      00
 2994              	.LEHE237:
 2995              	.LEHB238:
  84:testConv.cpp  **** 	CHECK_EQUAL(14, nibble);
 2996              		.loc 3 84 0 discriminator 14
 2997 1bd5 E8000000 		call	__cxa_end_catch
 2997      00
 2998              	.LEHE238:
 2999 1bda E9B9EFFF 		jmp	.L174
 2999      FF
 3000              	.L315:
 3001 1bdf 4889C3   		movq	%rax, %rbx
  84:testConv.cpp  **** 	CHECK_EQUAL(14, nibble);
 3002              		.loc 3 84 0
 3003 1be2 E8000000 		call	__cxa_end_catch
 3003      00
 3004 1be7 4889D8   		movq	%rbx, %rax
 3005 1bea 4889C7   		movq	%rax, %rdi
 3006              	.LEHB239:
 3007 1bed E8000000 		call	_Unwind_Resume
 3007      00
 3008              	.LEHE239:
 3009              	.L317:
 3010 1bf2 EB00     		jmp	.L177
 3011              	.L316:
 3012              	.L177:
  85:testConv.cpp  **** 	status = getHexNibble('f', &nibble);
 3013              		.loc 3 85 0 is_stmt 1
 3014 1bf4 4889C7   		movq	%rax, %rdi
 3015 1bf7 E8000000 		call	__cxa_begin_catch
 3015      00
 3016              	.LEHB240:
 3017 1bfc E8000000 		call	_ZN8UnitTest11CurrentTest7DetailsEv
 3017      00
 3018 1c01 488B08   		movq	(%rax), %rcx
 3019 1c04 488D45C0 		leaq	-64(%rbp), %rax
 3020 1c08 BA550000 		movl	$85, %edx
 3020      00
 3021 1c0d 4889CE   		movq	%rcx, %rsi
 3022 1c10 4889C7   		movq	%rax, %rdi
 3023 1c13 E8000000 		call	_ZN8UnitTest11TestDetailsC1ERKS0_i
 3023      00
  85:testConv.cpp  **** 	status = getHexNibble('f', &nibble);
 3024              		.loc 3 85 0 is_stmt 0 discriminator 10
 3025 1c18 E8000000 		call	_ZN8UnitTest11CurrentTest7ResultsEv
 3025      00
 3026 1c1d 488B00   		movq	(%rax), %rax
 3027 1c20 488D4DC0 		leaq	-64(%rbp), %rcx
 3028 1c24 BA000000 		movl	$.LC18, %edx
 3028      00
 3029 1c29 4889CE   		movq	%rcx, %rsi
 3030 1c2c 4889C7   		movq	%rax, %rdi
 3031 1c2f E8000000 		call	_ZN8UnitTest11TestResults13OnTestFailureERKNS_11TestDetailsEPKc
 3031      00
 3032              	.LEHE240:
 3033              	.LEHB241:
  85:testConv.cpp  **** 	status = getHexNibble('f', &nibble);
 3034              		.loc 3 85 0 discriminator 14
 3035 1c34 E8000000 		call	__cxa_end_catch
 3035      00
 3036              	.LEHE241:
 3037 1c39 E999EFFF 		jmp	.L178
 3037      FF
 3038              	.L318:
 3039 1c3e 4889C3   		movq	%rax, %rbx
  85:testConv.cpp  **** 	status = getHexNibble('f', &nibble);
 3040              		.loc 3 85 0
 3041 1c41 E8000000 		call	__cxa_end_catch
 3041      00
 3042 1c46 4889D8   		movq	%rbx, %rax
 3043 1c49 4889C7   		movq	%rax, %rdi
 3044              	.LEHB242:
 3045 1c4c E8000000 		call	_Unwind_Resume
 3045      00
 3046              	.LEHE242:
 3047              	.L320:
 3048 1c51 EB00     		jmp	.L181
 3049              	.L319:
 3050              	.L181:
  87:testConv.cpp  **** 	CHECK_EQUAL(15, nibble);
 3051              		.loc 3 87 0 is_stmt 1
 3052 1c53 4889C7   		movq	%rax, %rdi
 3053 1c56 E8000000 		call	__cxa_begin_catch
 3053      00
 3054              	.LEHB243:
 3055 1c5b E8000000 		call	_ZN8UnitTest11CurrentTest7DetailsEv
 3055      00
 3056 1c60 488B08   		movq	(%rax), %rcx
 3057 1c63 488D45C0 		leaq	-64(%rbp), %rax
 3058 1c67 BA570000 		movl	$87, %edx
 3058      00
 3059 1c6c 4889CE   		movq	%rcx, %rsi
 3060 1c6f 4889C7   		movq	%rax, %rdi
 3061 1c72 E8000000 		call	_ZN8UnitTest11TestDetailsC1ERKS0_i
 3061      00
  87:testConv.cpp  **** 	CHECK_EQUAL(15, nibble);
 3062              		.loc 3 87 0 is_stmt 0 discriminator 10
 3063 1c77 E8000000 		call	_ZN8UnitTest11CurrentTest7ResultsEv
 3063      00
 3064 1c7c 488B00   		movq	(%rax), %rax
 3065 1c7f 488D4DC0 		leaq	-64(%rbp), %rcx
 3066 1c83 BA000000 		movl	$.LC3, %edx
 3066      00
 3067 1c88 4889CE   		movq	%rcx, %rsi
 3068 1c8b 4889C7   		movq	%rax, %rdi
 3069 1c8e E8000000 		call	_ZN8UnitTest11TestResults13OnTestFailureERKNS_11TestDetailsEPKc
 3069      00
 3070              	.LEHE243:
 3071              	.LEHB244:
  87:testConv.cpp  **** 	CHECK_EQUAL(15, nibble);
 3072              		.loc 3 87 0 discriminator 14
 3073 1c93 E8000000 		call	__cxa_end_catch
 3073      00
 3074              	.LEHE244:
 3075 1c98 E98AEFFF 		jmp	.L182
 3075      FF
 3076              	.L321:
 3077 1c9d 4889C3   		movq	%rax, %rbx
  87:testConv.cpp  **** 	CHECK_EQUAL(15, nibble);
 3078              		.loc 3 87 0
 3079 1ca0 E8000000 		call	__cxa_end_catch
 3079      00
 3080 1ca5 4889D8   		movq	%rbx, %rax
 3081 1ca8 4889C7   		movq	%rax, %rdi
 3082              	.LEHB245:
 3083 1cab E8000000 		call	_Unwind_Resume
 3083      00
 3084              	.LEHE245:
 3085              	.L323:
 3086 1cb0 EB00     		jmp	.L185
 3087              	.L322:
 3088              	.L185:
  88:testConv.cpp  **** 	status = getHexNibble('.', &nibble);
 3089              		.loc 3 88 0 is_stmt 1
 3090 1cb2 4889C7   		movq	%rax, %rdi
 3091 1cb5 E8000000 		call	__cxa_begin_catch
 3091      00
 3092              	.LEHB246:
 3093 1cba E8000000 		call	_ZN8UnitTest11CurrentTest7DetailsEv
 3093      00
 3094 1cbf 488B08   		movq	(%rax), %rcx
 3095 1cc2 488D45C0 		leaq	-64(%rbp), %rax
 3096 1cc6 BA580000 		movl	$88, %edx
 3096      00
 3097 1ccb 4889CE   		movq	%rcx, %rsi
 3098 1cce 4889C7   		movq	%rax, %rdi
 3099 1cd1 E8000000 		call	_ZN8UnitTest11TestDetailsC1ERKS0_i
 3099      00
  88:testConv.cpp  **** 	status = getHexNibble('.', &nibble);
 3100              		.loc 3 88 0 is_stmt 0 discriminator 10
 3101 1cd6 E8000000 		call	_ZN8UnitTest11CurrentTest7ResultsEv
 3101      00
 3102 1cdb 488B00   		movq	(%rax), %rax
 3103 1cde 488D4DC0 		leaq	-64(%rbp), %rcx
 3104 1ce2 BA000000 		movl	$.LC19, %edx
 3104      00
 3105 1ce7 4889CE   		movq	%rcx, %rsi
 3106 1cea 4889C7   		movq	%rax, %rdi
 3107 1ced E8000000 		call	_ZN8UnitTest11TestResults13OnTestFailureERKNS_11TestDetailsEPKc
 3107      00
 3108              	.LEHE246:
 3109              	.LEHB247:
  88:testConv.cpp  **** 	status = getHexNibble('.', &nibble);
 3110              		.loc 3 88 0 discriminator 14
 3111 1cf2 E8000000 		call	__cxa_end_catch
 3111      00
 3112              	.LEHE247:
 3113 1cf7 E96AEFFF 		jmp	.L186
 3113      FF
 3114              	.L324:
 3115 1cfc 4889C3   		movq	%rax, %rbx
  88:testConv.cpp  **** 	status = getHexNibble('.', &nibble);
 3116              		.loc 3 88 0
 3117 1cff E8000000 		call	__cxa_end_catch
 3117      00
 3118 1d04 4889D8   		movq	%rbx, %rax
 3119 1d07 4889C7   		movq	%rax, %rdi
 3120              	.LEHB248:
 3121 1d0a E8000000 		call	_Unwind_Resume
 3121      00
 3122              	.LEHE248:
 3123              	.L326:
 3124 1d0f EB00     		jmp	.L189
 3125              	.L325:
 3126              	.L189:
  90:testConv.cpp  **** }
 3127              		.loc 3 90 0 is_stmt 1
 3128 1d11 4889C7   		movq	%rax, %rdi
 3129 1d14 E8000000 		call	__cxa_begin_catch
 3129      00
 3130              	.LEHB249:
 3131 1d19 E8000000 		call	_ZN8UnitTest11CurrentTest7DetailsEv
 3131      00
 3132 1d1e 488B08   		movq	(%rax), %rcx
 3133 1d21 488D45C0 		leaq	-64(%rbp), %rax
 3134 1d25 BA5A0000 		movl	$90, %edx
 3134      00
 3135 1d2a 4889CE   		movq	%rcx, %rsi
 3136 1d2d 4889C7   		movq	%rax, %rdi
 3137 1d30 E8000000 		call	_ZN8UnitTest11TestDetailsC1ERKS0_i
 3137      00
  90:testConv.cpp  **** }
 3138              		.loc 3 90 0 is_stmt 0 discriminator 10
 3139 1d35 E8000000 		call	_ZN8UnitTest11CurrentTest7ResultsEv
 3139      00
 3140 1d3a 488B00   		movq	(%rax), %rax
 3141 1d3d 488D4DC0 		leaq	-64(%rbp), %rcx
 3142 1d41 BA000000 		movl	$.LC20, %edx
 3142      00
 3143 1d46 4889CE   		movq	%rcx, %rsi
 3144 1d49 4889C7   		movq	%rax, %rdi
 3145 1d4c E8000000 		call	_ZN8UnitTest11TestResults13OnTestFailureERKNS_11TestDetailsEPKc
 3145      00
 3146              	.LEHE249:
 3147              	.LEHB250:
  90:testConv.cpp  **** }
 3148              		.loc 3 90 0 discriminator 14
 3149 1d51 E8000000 		call	__cxa_end_catch
 3149      00
 3150              	.LEHE250:
 3151              		.loc 3 91 0 is_stmt 1 discriminator 14
 3152 1d56 EB13     		jmp	.L11
 3153              	.L327:
 3154 1d58 4889C3   		movq	%rax, %rbx
  90:testConv.cpp  **** }
 3155              		.loc 3 90 0
 3156 1d5b E8000000 		call	__cxa_end_catch
 3156      00
 3157 1d60 4889D8   		movq	%rbx, %rax
 3158 1d63 4889C7   		movq	%rax, %rdi
 3159              	.LEHB251:
 3160 1d66 E8000000 		call	_Unwind_Resume
 3160      00
 3161              	.LEHE251:
 3162              	.L11:
 3163              		.loc 3 91 0
 3164 1d6b 488B45E8 		movq	-24(%rbp), %rax
 3165 1d6f 64483304 		xorq	%fs:40, %rax
 3165      25280000 
 3165      00
 3166 1d78 7405     		je	.L192
 3167 1d7a E8000000 		call	__stack_chk_fail
 3167      00
 3168              	.L192:
 3169 1d7f 4883C458 		addq	$88, %rsp
 3170 1d83 5B       		popq	%rbx
 3171 1d84 5D       		popq	%rbp
 3172              		.cfi_def_cfa 7, 8
 3173 1d85 C3       		ret
 3174              		.cfi_endproc
 3175              	.LFE1076:
 3176              		.section	.gcc_except_table,"a",@progbits
 3177              		.align 4
 3178              	.LLSDA1076:
 3179 0000 FF       		.byte	0xff
 3180 0001 03       		.byte	0x3
 3181 0002 E80A     		.uleb128 .LLSDATT1076-.LLSDATTD1076
 3182              	.LLSDATTD1076:
 3183 0004 01       		.byte	0x1
 3184 0005 DB0A     		.uleb128 .LLSDACSE1076-.LLSDACSB1076
 3185              	.LLSDACSB1076:
 3186 0007 28       		.uleb128 .LEHB4-.LFB1076
 3187 0008 05       		.uleb128 .LEHE4-.LEHB4
 3188 0009 00       		.uleb128 0
 3189 000a 00       		.uleb128 0
 3190 000b 30       		.uleb128 .LEHB5-.LFB1076
 3191 000c 1C       		.uleb128 .LEHE5-.LEHB5
 3192 000d BD19     		.uleb128 .L193-.LFB1076
 3193 000f 01       		.uleb128 0x1
 3194 0010 50       		.uleb128 .LEHB6-.LFB1076
 3195 0011 1C       		.uleb128 .LEHE6-.LEHB6
 3196 0012 BB19     		.uleb128 .L194-.LFB1076
 3197 0014 03       		.uleb128 0x3
 3198 0015 6C       		.uleb128 .LEHB7-.LFB1076
 3199 0016 1C       		.uleb128 .LEHE7-.LEHB7
 3200 0017 9C1A     		.uleb128 .L196-.LFB1076
 3201 0019 01       		.uleb128 0x1
 3202 001a 8F01     		.uleb128 .LEHB8-.LFB1076
 3203 001c 1C       		.uleb128 .LEHE8-.LEHB8
 3204 001d 9A1A     		.uleb128 .L197-.LFB1076
 3205 001f 03       		.uleb128 0x3
 3206 0020 B701     		.uleb128 .LEHB9-.LFB1076
 3207 0022 05       		.uleb128 .LEHE9-.LEHB9
 3208 0023 00       		.uleb128 0
 3209 0024 00       		.uleb128 0
 3210 0025 BF01     		.uleb128 .LEHB10-.LFB1076
 3211 0027 1C       		.uleb128 .LEHE10-.LEHB10
 3212 0028 FB1A     		.uleb128 .L199-.LFB1076
 3213 002a 01       		.uleb128 0x1
 3214 002b DF01     		.uleb128 .LEHB11-.LFB1076
 3215 002d 1C       		.uleb128 .LEHE11-.LEHB11
 3216 002e F91A     		.uleb128 .L200-.LFB1076
 3217 0030 03       		.uleb128 0x3
 3218 0031 FB01     		.uleb128 .LEHB12-.LFB1076
 3219 0033 1C       		.uleb128 .LEHE12-.LEHB12
 3220 0034 DA1B     		.uleb128 .L202-.LFB1076
 3221 0036 01       		.uleb128 0x1
 3222 0037 9E02     		.uleb128 .LEHB13-.LFB1076
 3223 0039 1C       		.uleb128 .LEHE13-.LEHB13
 3224 003a D81B     		.uleb128 .L203-.LFB1076
 3225 003c 03       		.uleb128 0x3
 3226 003d C602     		.uleb128 .LEHB14-.LFB1076
 3227 003f 05       		.uleb128 .LEHE14-.LEHB14
 3228 0040 00       		.uleb128 0
 3229 0041 00       		.uleb128 0
 3230 0042 CE02     		.uleb128 .LEHB15-.LFB1076
 3231 0044 1C       		.uleb128 .LEHE15-.LEHB15
 3232 0045 B91C     		.uleb128 .L205-.LFB1076
 3233 0047 01       		.uleb128 0x1
 3234 0048 EE02     		.uleb128 .LEHB16-.LFB1076
 3235 004a 1C       		.uleb128 .LEHE16-.LEHB16
 3236 004b B71C     		.uleb128 .L206-.LFB1076
 3237 004d 03       		.uleb128 0x3
 3238 004e 8A03     		.uleb128 .LEHB17-.LFB1076
 3239 0050 1C       		.uleb128 .LEHE17-.LEHB17
 3240 0051 981D     		.uleb128 .L208-.LFB1076
 3241 0053 01       		.uleb128 0x1
 3242 0054 AD03     		.uleb128 .LEHB18-.LFB1076
 3243 0056 1C       		.uleb128 .LEHE18-.LEHB18
 3244 0057 961D     		.uleb128 .L209-.LFB1076
 3245 0059 03       		.uleb128 0x3
 3246 005a D503     		.uleb128 .LEHB19-.LFB1076
 3247 005c 05       		.uleb128 .LEHE19-.LEHB19
 3248 005d 00       		.uleb128 0
 3249 005e 00       		.uleb128 0
 3250 005f DD03     		.uleb128 .LEHB20-.LFB1076
 3251 0061 1C       		.uleb128 .LEHE20-.LEHB20
 3252 0062 F71D     		.uleb128 .L211-.LFB1076
 3253 0064 01       		.uleb128 0x1
 3254 0065 FD03     		.uleb128 .LEHB21-.LFB1076
 3255 0067 1C       		.uleb128 .LEHE21-.LEHB21
 3256 0068 F51D     		.uleb128 .L212-.LFB1076
 3257 006a 03       		.uleb128 0x3
 3258 006b 9904     		.uleb128 .LEHB22-.LFB1076
 3259 006d 1C       		.uleb128 .LEHE22-.LEHB22
 3260 006e D61E     		.uleb128 .L214-.LFB1076
 3261 0070 01       		.uleb128 0x1
 3262 0071 BC04     		.uleb128 .LEHB23-.LFB1076
 3263 0073 1C       		.uleb128 .LEHE23-.LEHB23
 3264 0074 D41E     		.uleb128 .L215-.LFB1076
 3265 0076 03       		.uleb128 0x3
 3266 0077 E404     		.uleb128 .LEHB24-.LFB1076
 3267 0079 05       		.uleb128 .LEHE24-.LEHB24
 3268 007a 00       		.uleb128 0
 3269 007b 00       		.uleb128 0
 3270 007c EC04     		.uleb128 .LEHB25-.LFB1076
 3271 007e 1C       		.uleb128 .LEHE25-.LEHB25
 3272 007f B51F     		.uleb128 .L217-.LFB1076
 3273 0081 01       		.uleb128 0x1
 3274 0082 8C05     		.uleb128 .LEHB26-.LFB1076
 3275 0084 1C       		.uleb128 .LEHE26-.LEHB26
 3276 0085 B31F     		.uleb128 .L218-.LFB1076
 3277 0087 03       		.uleb128 0x3
 3278 0088 A805     		.uleb128 .LEHB27-.LFB1076
 3279 008a 1C       		.uleb128 .LEHE27-.LEHB27
 3280 008b 9420     		.uleb128 .L220-.LFB1076
 3281 008d 01       		.uleb128 0x1
 3282 008e CB05     		.uleb128 .LEHB28-.LFB1076
 3283 0090 1C       		.uleb128 .LEHE28-.LEHB28
 3284 0091 9220     		.uleb128 .L221-.LFB1076
 3285 0093 03       		.uleb128 0x3
 3286 0094 F305     		.uleb128 .LEHB29-.LFB1076
 3287 0096 05       		.uleb128 .LEHE29-.LEHB29
 3288 0097 00       		.uleb128 0
 3289 0098 00       		.uleb128 0
 3290 0099 FB05     		.uleb128 .LEHB30-.LFB1076
 3291 009b 1C       		.uleb128 .LEHE30-.LEHB30
 3292 009c F320     		.uleb128 .L223-.LFB1076
 3293 009e 01       		.uleb128 0x1
 3294 009f 9B06     		.uleb128 .LEHB31-.LFB1076
 3295 00a1 1C       		.uleb128 .LEHE31-.LEHB31
 3296 00a2 F120     		.uleb128 .L224-.LFB1076
 3297 00a4 03       		.uleb128 0x3
 3298 00a5 B706     		.uleb128 .LEHB32-.LFB1076
 3299 00a7 1C       		.uleb128 .LEHE32-.LEHB32
 3300 00a8 D221     		.uleb128 .L226-.LFB1076
 3301 00aa 01       		.uleb128 0x1
 3302 00ab DA06     		.uleb128 .LEHB33-.LFB1076
 3303 00ad 1C       		.uleb128 .LEHE33-.LEHB33
 3304 00ae D021     		.uleb128 .L227-.LFB1076
 3305 00b0 03       		.uleb128 0x3
 3306 00b1 8207     		.uleb128 .LEHB34-.LFB1076
 3307 00b3 05       		.uleb128 .LEHE34-.LEHB34
 3308 00b4 00       		.uleb128 0
 3309 00b5 00       		.uleb128 0
 3310 00b6 8A07     		.uleb128 .LEHB35-.LFB1076
 3311 00b8 1C       		.uleb128 .LEHE35-.LEHB35
 3312 00b9 B122     		.uleb128 .L229-.LFB1076
 3313 00bb 01       		.uleb128 0x1
 3314 00bc AA07     		.uleb128 .LEHB36-.LFB1076
 3315 00be 1C       		.uleb128 .LEHE36-.LEHB36
 3316 00bf AF22     		.uleb128 .L230-.LFB1076
 3317 00c1 03       		.uleb128 0x3
 3318 00c2 C607     		.uleb128 .LEHB37-.LFB1076
 3319 00c4 1C       		.uleb128 .LEHE37-.LEHB37
 3320 00c5 9023     		.uleb128 .L232-.LFB1076
 3321 00c7 01       		.uleb128 0x1
 3322 00c8 E907     		.uleb128 .LEHB38-.LFB1076
 3323 00ca 1C       		.uleb128 .LEHE38-.LEHB38
 3324 00cb 8E23     		.uleb128 .L233-.LFB1076
 3325 00cd 03       		.uleb128 0x3
 3326 00ce 9108     		.uleb128 .LEHB39-.LFB1076
 3327 00d0 05       		.uleb128 .LEHE39-.LEHB39
 3328 00d1 00       		.uleb128 0
 3329 00d2 00       		.uleb128 0
 3330 00d3 9908     		.uleb128 .LEHB40-.LFB1076
 3331 00d5 1C       		.uleb128 .LEHE40-.LEHB40
 3332 00d6 EF23     		.uleb128 .L235-.LFB1076
 3333 00d8 01       		.uleb128 0x1
 3334 00d9 B908     		.uleb128 .LEHB41-.LFB1076
 3335 00db 1C       		.uleb128 .LEHE41-.LEHB41
 3336 00dc ED23     		.uleb128 .L236-.LFB1076
 3337 00de 03       		.uleb128 0x3
 3338 00df D508     		.uleb128 .LEHB42-.LFB1076
 3339 00e1 1C       		.uleb128 .LEHE42-.LEHB42
 3340 00e2 CE24     		.uleb128 .L238-.LFB1076
 3341 00e4 01       		.uleb128 0x1
 3342 00e5 F808     		.uleb128 .LEHB43-.LFB1076
 3343 00e7 1C       		.uleb128 .LEHE43-.LEHB43
 3344 00e8 CC24     		.uleb128 .L239-.LFB1076
 3345 00ea 03       		.uleb128 0x3
 3346 00eb A009     		.uleb128 .LEHB44-.LFB1076
 3347 00ed 05       		.uleb128 .LEHE44-.LEHB44
 3348 00ee 00       		.uleb128 0
 3349 00ef 00       		.uleb128 0
 3350 00f0 A809     		.uleb128 .LEHB45-.LFB1076
 3351 00f2 1C       		.uleb128 .LEHE45-.LEHB45
 3352 00f3 AD25     		.uleb128 .L241-.LFB1076
 3353 00f5 01       		.uleb128 0x1
 3354 00f6 C809     		.uleb128 .LEHB46-.LFB1076
 3355 00f8 1C       		.uleb128 .LEHE46-.LEHB46
 3356 00f9 AB25     		.uleb128 .L242-.LFB1076
 3357 00fb 03       		.uleb128 0x3
 3358 00fc E409     		.uleb128 .LEHB47-.LFB1076
 3359 00fe 1C       		.uleb128 .LEHE47-.LEHB47
 3360 00ff 8C26     		.uleb128 .L244-.LFB1076
 3361 0101 01       		.uleb128 0x1
 3362 0102 870A     		.uleb128 .LEHB48-.LFB1076
 3363 0104 1C       		.uleb128 .LEHE48-.LEHB48
 3364 0105 8A26     		.uleb128 .L245-.LFB1076
 3365 0107 03       		.uleb128 0x3
 3366 0108 AF0A     		.uleb128 .LEHB49-.LFB1076
 3367 010a 05       		.uleb128 .LEHE49-.LEHB49
 3368 010b 00       		.uleb128 0
 3369 010c 00       		.uleb128 0
 3370 010d B70A     		.uleb128 .LEHB50-.LFB1076
 3371 010f 1C       		.uleb128 .LEHE50-.LEHB50
 3372 0110 EB26     		.uleb128 .L247-.LFB1076
 3373 0112 01       		.uleb128 0x1
 3374 0113 D70A     		.uleb128 .LEHB51-.LFB1076
 3375 0115 1C       		.uleb128 .LEHE51-.LEHB51
 3376 0116 E926     		.uleb128 .L248-.LFB1076
 3377 0118 03       		.uleb128 0x3
 3378 0119 F30A     		.uleb128 .LEHB52-.LFB1076
 3379 011b 1C       		.uleb128 .LEHE52-.LEHB52
 3380 011c CA27     		.uleb128 .L250-.LFB1076
 3381 011e 01       		.uleb128 0x1
 3382 011f 960B     		.uleb128 .LEHB53-.LFB1076
 3383 0121 1C       		.uleb128 .LEHE53-.LEHB53
 3384 0122 C827     		.uleb128 .L251-.LFB1076
 3385 0124 03       		.uleb128 0x3
 3386 0125 BE0B     		.uleb128 .LEHB54-.LFB1076
 3387 0127 05       		.uleb128 .LEHE54-.LEHB54
 3388 0128 00       		.uleb128 0
 3389 0129 00       		.uleb128 0
 3390 012a C60B     		.uleb128 .LEHB55-.LFB1076
 3391 012c 1C       		.uleb128 .LEHE55-.LEHB55
 3392 012d A928     		.uleb128 .L253-.LFB1076
 3393 012f 01       		.uleb128 0x1
 3394 0130 E60B     		.uleb128 .LEHB56-.LFB1076
 3395 0132 1C       		.uleb128 .LEHE56-.LEHB56
 3396 0133 A728     		.uleb128 .L254-.LFB1076
 3397 0135 03       		.uleb128 0x3
 3398 0136 820C     		.uleb128 .LEHB57-.LFB1076
 3399 0138 1C       		.uleb128 .LEHE57-.LEHB57
 3400 0139 8829     		.uleb128 .L256-.LFB1076
 3401 013b 01       		.uleb128 0x1
 3402 013c A50C     		.uleb128 .LEHB58-.LFB1076
 3403 013e 1C       		.uleb128 .LEHE58-.LEHB58
 3404 013f 8629     		.uleb128 .L257-.LFB1076
 3405 0141 03       		.uleb128 0x3
 3406 0142 CD0C     		.uleb128 .LEHB59-.LFB1076
 3407 0144 05       		.uleb128 .LEHE59-.LEHB59
 3408 0145 00       		.uleb128 0
 3409 0146 00       		.uleb128 0
 3410 0147 D50C     		.uleb128 .LEHB60-.LFB1076
 3411 0149 1C       		.uleb128 .LEHE60-.LEHB60
 3412 014a E729     		.uleb128 .L259-.LFB1076
 3413 014c 01       		.uleb128 0x1
 3414 014d F50C     		.uleb128 .LEHB61-.LFB1076
 3415 014f 1C       		.uleb128 .LEHE61-.LEHB61
 3416 0150 E529     		.uleb128 .L260-.LFB1076
 3417 0152 03       		.uleb128 0x3
 3418 0153 910D     		.uleb128 .LEHB62-.LFB1076
 3419 0155 1C       		.uleb128 .LEHE62-.LEHB62
 3420 0156 C62A     		.uleb128 .L262-.LFB1076
 3421 0158 01       		.uleb128 0x1
 3422 0159 B40D     		.uleb128 .LEHB63-.LFB1076
 3423 015b 1C       		.uleb128 .LEHE63-.LEHB63
 3424 015c C42A     		.uleb128 .L263-.LFB1076
 3425 015e 03       		.uleb128 0x3
 3426 015f DC0D     		.uleb128 .LEHB64-.LFB1076
 3427 0161 05       		.uleb128 .LEHE64-.LEHB64
 3428 0162 00       		.uleb128 0
 3429 0163 00       		.uleb128 0
 3430 0164 E40D     		.uleb128 .LEHB65-.LFB1076
 3431 0166 1C       		.uleb128 .LEHE65-.LEHB65
 3432 0167 A52B     		.uleb128 .L265-.LFB1076
 3433 0169 01       		.uleb128 0x1
 3434 016a 840E     		.uleb128 .LEHB66-.LFB1076
 3435 016c 1C       		.uleb128 .LEHE66-.LEHB66
 3436 016d A32B     		.uleb128 .L266-.LFB1076
 3437 016f 03       		.uleb128 0x3
 3438 0170 A00E     		.uleb128 .LEHB67-.LFB1076
 3439 0172 1C       		.uleb128 .LEHE67-.LEHB67
 3440 0173 842C     		.uleb128 .L268-.LFB1076
 3441 0175 01       		.uleb128 0x1
 3442 0176 C30E     		.uleb128 .LEHB68-.LFB1076
 3443 0178 1C       		.uleb128 .LEHE68-.LEHB68
 3444 0179 822C     		.uleb128 .L269-.LFB1076
 3445 017b 03       		.uleb128 0x3
 3446 017c EB0E     		.uleb128 .LEHB69-.LFB1076
 3447 017e 05       		.uleb128 .LEHE69-.LEHB69
 3448 017f 00       		.uleb128 0
 3449 0180 00       		.uleb128 0
 3450 0181 F30E     		.uleb128 .LEHB70-.LFB1076
 3451 0183 1C       		.uleb128 .LEHE70-.LEHB70
 3452 0184 E32C     		.uleb128 .L271-.LFB1076
 3453 0186 01       		.uleb128 0x1
 3454 0187 930F     		.uleb128 .LEHB71-.LFB1076
 3455 0189 1C       		.uleb128 .LEHE71-.LEHB71
 3456 018a E12C     		.uleb128 .L272-.LFB1076
 3457 018c 03       		.uleb128 0x3
 3458 018d AF0F     		.uleb128 .LEHB72-.LFB1076
 3459 018f 1C       		.uleb128 .LEHE72-.LEHB72
 3460 0190 C22D     		.uleb128 .L274-.LFB1076
 3461 0192 01       		.uleb128 0x1
 3462 0193 D20F     		.uleb128 .LEHB73-.LFB1076
 3463 0195 1C       		.uleb128 .LEHE73-.LEHB73
 3464 0196 C02D     		.uleb128 .L275-.LFB1076
 3465 0198 03       		.uleb128 0x3
 3466 0199 FA0F     		.uleb128 .LEHB74-.LFB1076
 3467 019b 05       		.uleb128 .LEHE74-.LEHB74
 3468 019c 00       		.uleb128 0
 3469 019d 00       		.uleb128 0
 3470 019e 8210     		.uleb128 .LEHB75-.LFB1076
 3471 01a0 1C       		.uleb128 .LEHE75-.LEHB75
 3472 01a1 A12E     		.uleb128 .L277-.LFB1076
 3473 01a3 01       		.uleb128 0x1
 3474 01a4 A210     		.uleb128 .LEHB76-.LFB1076
 3475 01a6 1C       		.uleb128 .LEHE76-.LEHB76
 3476 01a7 9F2E     		.uleb128 .L278-.LFB1076
 3477 01a9 03       		.uleb128 0x3
 3478 01aa BE10     		.uleb128 .LEHB77-.LFB1076
 3479 01ac 1C       		.uleb128 .LEHE77-.LEHB77
 3480 01ad 802F     		.uleb128 .L280-.LFB1076
 3481 01af 01       		.uleb128 0x1
 3482 01b0 E110     		.uleb128 .LEHB78-.LFB1076
 3483 01b2 1C       		.uleb128 .LEHE78-.LEHB78
 3484 01b3 FE2E     		.uleb128 .L281-.LFB1076
 3485 01b5 03       		.uleb128 0x3
 3486 01b6 8911     		.uleb128 .LEHB79-.LFB1076
 3487 01b8 05       		.uleb128 .LEHE79-.LEHB79
 3488 01b9 00       		.uleb128 0
 3489 01ba 00       		.uleb128 0
 3490 01bb 9111     		.uleb128 .LEHB80-.LFB1076
 3491 01bd 1C       		.uleb128 .LEHE80-.LEHB80
 3492 01be DF2F     		.uleb128 .L283-.LFB1076
 3493 01c0 01       		.uleb128 0x1
 3494 01c1 B111     		.uleb128 .LEHB81-.LFB1076
 3495 01c3 1C       		.uleb128 .LEHE81-.LEHB81
 3496 01c4 DD2F     		.uleb128 .L284-.LFB1076
 3497 01c6 03       		.uleb128 0x3
 3498 01c7 CD11     		.uleb128 .LEHB82-.LFB1076
 3499 01c9 1C       		.uleb128 .LEHE82-.LEHB82
 3500 01ca BE30     		.uleb128 .L286-.LFB1076
 3501 01cc 01       		.uleb128 0x1
 3502 01cd F011     		.uleb128 .LEHB83-.LFB1076
 3503 01cf 1C       		.uleb128 .LEHE83-.LEHB83
 3504 01d0 BC30     		.uleb128 .L287-.LFB1076
 3505 01d2 03       		.uleb128 0x3
 3506 01d3 9812     		.uleb128 .LEHB84-.LFB1076
 3507 01d5 05       		.uleb128 .LEHE84-.LEHB84
 3508 01d6 00       		.uleb128 0
 3509 01d7 00       		.uleb128 0
 3510 01d8 A012     		.uleb128 .LEHB85-.LFB1076
 3511 01da 1C       		.uleb128 .LEHE85-.LEHB85
 3512 01db 9D31     		.uleb128 .L289-.LFB1076
 3513 01dd 01       		.uleb128 0x1
 3514 01de C012     		.uleb128 .LEHB86-.LFB1076
 3515 01e0 1C       		.uleb128 .LEHE86-.LEHB86
 3516 01e1 9B31     		.uleb128 .L290-.LFB1076
 3517 01e3 03       		.uleb128 0x3
 3518 01e4 DC12     		.uleb128 .LEHB87-.LFB1076
 3519 01e6 1C       		.uleb128 .LEHE87-.LEHB87
 3520 01e7 FC31     		.uleb128 .L292-.LFB1076
 3521 01e9 01       		.uleb128 0x1
 3522 01ea FF12     		.uleb128 .LEHB88-.LFB1076
 3523 01ec 1C       		.uleb128 .LEHE88-.LEHB88
 3524 01ed FA31     		.uleb128 .L293-.LFB1076
 3525 01ef 03       		.uleb128 0x3
 3526 01f0 A713     		.uleb128 .LEHB89-.LFB1076
 3527 01f2 05       		.uleb128 .LEHE89-.LEHB89
 3528 01f3 00       		.uleb128 0
 3529 01f4 00       		.uleb128 0
 3530 01f5 AF13     		.uleb128 .LEHB90-.LFB1076
 3531 01f7 1C       		.uleb128 .LEHE90-.LEHB90
 3532 01f8 DB32     		.uleb128 .L295-.LFB1076
 3533 01fa 01       		.uleb128 0x1
 3534 01fb CF13     		.uleb128 .LEHB91-.LFB1076
 3535 01fd 1C       		.uleb128 .LEHE91-.LEHB91
 3536 01fe D932     		.uleb128 .L296-.LFB1076
 3537 0200 03       		.uleb128 0x3
 3538 0201 EB13     		.uleb128 .LEHB92-.LFB1076
 3539 0203 1C       		.uleb128 .LEHE92-.LEHB92
 3540 0204 BA33     		.uleb128 .L298-.LFB1076
 3541 0206 01       		.uleb128 0x1
 3542 0207 8E14     		.uleb128 .LEHB93-.LFB1076
 3543 0209 1C       		.uleb128 .LEHE93-.LEHB93
 3544 020a B833     		.uleb128 .L299-.LFB1076
 3545 020c 03       		.uleb128 0x3
 3546 020d B614     		.uleb128 .LEHB94-.LFB1076
 3547 020f 05       		.uleb128 .LEHE94-.LEHB94
 3548 0210 00       		.uleb128 0
 3549 0211 00       		.uleb128 0
 3550 0212 BE14     		.uleb128 .LEHB95-.LFB1076
 3551 0214 1C       		.uleb128 .LEHE95-.LEHB95
 3552 0215 9934     		.uleb128 .L301-.LFB1076
 3553 0217 01       		.uleb128 0x1
 3554 0218 DE14     		.uleb128 .LEHB96-.LFB1076
 3555 021a 1C       		.uleb128 .LEHE96-.LEHB96
 3556 021b 9734     		.uleb128 .L302-.LFB1076
 3557 021d 03       		.uleb128 0x3
 3558 021e FA14     		.uleb128 .LEHB97-.LFB1076
 3559 0220 1C       		.uleb128 .LEHE97-.LEHB97
 3560 0221 F834     		.uleb128 .L304-.LFB1076
 3561 0223 01       		.uleb128 0x1
 3562 0224 9D15     		.uleb128 .LEHB98-.LFB1076
 3563 0226 1C       		.uleb128 .LEHE98-.LEHB98
 3564 0227 F634     		.uleb128 .L305-.LFB1076
 3565 0229 03       		.uleb128 0x3
 3566 022a C515     		.uleb128 .LEHB99-.LFB1076
 3567 022c 05       		.uleb128 .LEHE99-.LEHB99
 3568 022d 00       		.uleb128 0
 3569 022e 00       		.uleb128 0
 3570 022f CD15     		.uleb128 .LEHB100-.LFB1076
 3571 0231 1C       		.uleb128 .LEHE100-.LEHB100
 3572 0232 D735     		.uleb128 .L307-.LFB1076
 3573 0234 01       		.uleb128 0x1
 3574 0235 ED15     		.uleb128 .LEHB101-.LFB1076
 3575 0237 1C       		.uleb128 .LEHE101-.LEHB101
 3576 0238 D535     		.uleb128 .L308-.LFB1076
 3577 023a 03       		.uleb128 0x3
 3578 023b 8916     		.uleb128 .LEHB102-.LFB1076
 3579 023d 1C       		.uleb128 .LEHE102-.LEHB102
 3580 023e B636     		.uleb128 .L310-.LFB1076
 3581 0240 01       		.uleb128 0x1
 3582 0241 AC16     		.uleb128 .LEHB103-.LFB1076
 3583 0243 1C       		.uleb128 .LEHE103-.LEHB103
 3584 0244 B436     		.uleb128 .L311-.LFB1076
 3585 0246 03       		.uleb128 0x3
 3586 0247 D416     		.uleb128 .LEHB104-.LFB1076
 3587 0249 05       		.uleb128 .LEHE104-.LEHB104
 3588 024a 00       		.uleb128 0
 3589 024b 00       		.uleb128 0
 3590 024c DC16     		.uleb128 .LEHB105-.LFB1076
 3591 024e 1C       		.uleb128 .LEHE105-.LEHB105
 3592 024f 9537     		.uleb128 .L313-.LFB1076
 3593 0251 01       		.uleb128 0x1
 3594 0252 FC16     		.uleb128 .LEHB106-.LFB1076
 3595 0254 1C       		.uleb128 .LEHE106-.LEHB106
 3596 0255 9337     		.uleb128 .L314-.LFB1076
 3597 0257 03       		.uleb128 0x3
 3598 0258 9817     		.uleb128 .LEHB107-.LFB1076
 3599 025a 1C       		.uleb128 .LEHE107-.LEHB107
 3600 025b F437     		.uleb128 .L316-.LFB1076
 3601 025d 01       		.uleb128 0x1
 3602 025e BB17     		.uleb128 .LEHB108-.LFB1076
 3603 0260 1C       		.uleb128 .LEHE108-.LEHB108
 3604 0261 F237     		.uleb128 .L317-.LFB1076
 3605 0263 03       		.uleb128 0x3
 3606 0264 E317     		.uleb128 .LEHB109-.LFB1076
 3607 0266 05       		.uleb128 .LEHE109-.LEHB109
 3608 0267 00       		.uleb128 0
 3609 0268 00       		.uleb128 0
 3610 0269 EB17     		.uleb128 .LEHB110-.LFB1076
 3611 026b 1C       		.uleb128 .LEHE110-.LEHB110
 3612 026c D338     		.uleb128 .L319-.LFB1076
 3613 026e 01       		.uleb128 0x1
 3614 026f 8B18     		.uleb128 .LEHB111-.LFB1076
 3615 0271 1C       		.uleb128 .LEHE111-.LEHB111
 3616 0272 D138     		.uleb128 .L320-.LFB1076
 3617 0274 03       		.uleb128 0x3
 3618 0275 A718     		.uleb128 .LEHB112-.LFB1076
 3619 0277 1C       		.uleb128 .LEHE112-.LEHB112
 3620 0278 B239     		.uleb128 .L322-.LFB1076
 3621 027a 01       		.uleb128 0x1
 3622 027b CA18     		.uleb128 .LEHB113-.LFB1076
 3623 027d 1C       		.uleb128 .LEHE113-.LEHB113
 3624 027e B039     		.uleb128 .L323-.LFB1076
 3625 0280 03       		.uleb128 0x3
 3626 0281 F218     		.uleb128 .LEHB114-.LFB1076
 3627 0283 05       		.uleb128 .LEHE114-.LEHB114
 3628 0284 00       		.uleb128 0
 3629 0285 00       		.uleb128 0
 3630 0286 FA18     		.uleb128 .LEHB115-.LFB1076
 3631 0288 1C       		.uleb128 .LEHE115-.LEHB115
 3632 0289 913A     		.uleb128 .L325-.LFB1076
 3633 028b 01       		.uleb128 0x1
 3634 028c 9A19     		.uleb128 .LEHB116-.LFB1076
 3635 028e 1C       		.uleb128 .LEHE116-.LEHB116
 3636 028f 8F3A     		.uleb128 .L326-.LFB1076
 3637 0291 03       		.uleb128 0x3
 3638 0292 C519     		.uleb128 .LEHB117-.LFB1076
 3639 0294 38       		.uleb128 .LEHE117-.LEHB117
 3640 0295 871A     		.uleb128 .L195-.LFB1076
 3641 0297 00       		.uleb128 0
 3642 0298 FD19     		.uleb128 .LEHB118-.LFB1076
 3643 029a 05       		.uleb128 .LEHE118-.LEHB118
 3644 029b 00       		.uleb128 0
 3645 029c 00       		.uleb128 0
 3646 029d 951A     		.uleb128 .LEHB119-.LFB1076
 3647 029f 05       		.uleb128 .LEHE119-.LEHB119
 3648 02a0 00       		.uleb128 0
 3649 02a1 00       		.uleb128 0
 3650 02a2 A41A     		.uleb128 .LEHB120-.LFB1076
 3651 02a4 38       		.uleb128 .LEHE120-.LEHB120
 3652 02a5 E61A     		.uleb128 .L198-.LFB1076
 3653 02a7 00       		.uleb128 0
 3654 02a8 DC1A     		.uleb128 .LEHB121-.LFB1076
 3655 02aa 05       		.uleb128 .LEHE121-.LEHB121
 3656 02ab 00       		.uleb128 0
 3657 02ac 00       		.uleb128 0
 3658 02ad F41A     		.uleb128 .LEHB122-.LFB1076
 3659 02af 05       		.uleb128 .LEHE122-.LEHB122
 3660 02b0 00       		.uleb128 0
 3661 02b1 00       		.uleb128 0
 3662 02b2 831B     		.uleb128 .LEHB123-.LFB1076
 3663 02b4 38       		.uleb128 .LEHE123-.LEHB123
 3664 02b5 C51B     		.uleb128 .L201-.LFB1076
 3665 02b7 00       		.uleb128 0
 3666 02b8 BB1B     		.uleb128 .LEHB124-.LFB1076
 3667 02ba 05       		.uleb128 .LEHE124-.LEHB124
 3668 02bb 00       		.uleb128 0
 3669 02bc 00       		.uleb128 0
 3670 02bd D31B     		.uleb128 .LEHB125-.LFB1076
 3671 02bf 05       		.uleb128 .LEHE125-.LEHB125
 3672 02c0 00       		.uleb128 0
 3673 02c1 00       		.uleb128 0
 3674 02c2 E21B     		.uleb128 .LEHB126-.LFB1076
 3675 02c4 38       		.uleb128 .LEHE126-.LEHB126
 3676 02c5 A41C     		.uleb128 .L204-.LFB1076
 3677 02c7 00       		.uleb128 0
 3678 02c8 9A1C     		.uleb128 .LEHB127-.LFB1076
 3679 02ca 05       		.uleb128 .LEHE127-.LEHB127
 3680 02cb 00       		.uleb128 0
 3681 02cc 00       		.uleb128 0
 3682 02cd B21C     		.uleb128 .LEHB128-.LFB1076
 3683 02cf 05       		.uleb128 .LEHE128-.LEHB128
 3684 02d0 00       		.uleb128 0
 3685 02d1 00       		.uleb128 0
 3686 02d2 C11C     		.uleb128 .LEHB129-.LFB1076
 3687 02d4 38       		.uleb128 .LEHE129-.LEHB129
 3688 02d5 831D     		.uleb128 .L207-.LFB1076
 3689 02d7 00       		.uleb128 0
 3690 02d8 F91C     		.uleb128 .LEHB130-.LFB1076
 3691 02da 05       		.uleb128 .LEHE130-.LEHB130
 3692 02db 00       		.uleb128 0
 3693 02dc 00       		.uleb128 0
 3694 02dd 911D     		.uleb128 .LEHB131-.LFB1076
 3695 02df 05       		.uleb128 .LEHE131-.LEHB131
 3696 02e0 00       		.uleb128 0
 3697 02e1 00       		.uleb128 0
 3698 02e2 A01D     		.uleb128 .LEHB132-.LFB1076
 3699 02e4 38       		.uleb128 .LEHE132-.LEHB132
 3700 02e5 E21D     		.uleb128 .L210-.LFB1076
 3701 02e7 00       		.uleb128 0
 3702 02e8 D81D     		.uleb128 .LEHB133-.LFB1076
 3703 02ea 05       		.uleb128 .LEHE133-.LEHB133
 3704 02eb 00       		.uleb128 0
 3705 02ec 00       		.uleb128 0
 3706 02ed F01D     		.uleb128 .LEHB134-.LFB1076
 3707 02ef 05       		.uleb128 .LEHE134-.LEHB134
 3708 02f0 00       		.uleb128 0
 3709 02f1 00       		.uleb128 0
 3710 02f2 FF1D     		.uleb128 .LEHB135-.LFB1076
 3711 02f4 38       		.uleb128 .LEHE135-.LEHB135
 3712 02f5 C11E     		.uleb128 .L213-.LFB1076
 3713 02f7 00       		.uleb128 0
 3714 02f8 B71E     		.uleb128 .LEHB136-.LFB1076
 3715 02fa 05       		.uleb128 .LEHE136-.LEHB136
 3716 02fb 00       		.uleb128 0
 3717 02fc 00       		.uleb128 0
 3718 02fd CF1E     		.uleb128 .LEHB137-.LFB1076
 3719 02ff 05       		.uleb128 .LEHE137-.LEHB137
 3720 0300 00       		.uleb128 0
 3721 0301 00       		.uleb128 0
 3722 0302 DE1E     		.uleb128 .LEHB138-.LFB1076
 3723 0304 38       		.uleb128 .LEHE138-.LEHB138
 3724 0305 A01F     		.uleb128 .L216-.LFB1076
 3725 0307 00       		.uleb128 0
 3726 0308 961F     		.uleb128 .LEHB139-.LFB1076
 3727 030a 05       		.uleb128 .LEHE139-.LEHB139
 3728 030b 00       		.uleb128 0
 3729 030c 00       		.uleb128 0
 3730 030d AE1F     		.uleb128 .LEHB140-.LFB1076
 3731 030f 05       		.uleb128 .LEHE140-.LEHB140
 3732 0310 00       		.uleb128 0
 3733 0311 00       		.uleb128 0
 3734 0312 BD1F     		.uleb128 .LEHB141-.LFB1076
 3735 0314 38       		.uleb128 .LEHE141-.LEHB141
 3736 0315 FF1F     		.uleb128 .L219-.LFB1076
 3737 0317 00       		.uleb128 0
 3738 0318 F51F     		.uleb128 .LEHB142-.LFB1076
 3739 031a 05       		.uleb128 .LEHE142-.LEHB142
 3740 031b 00       		.uleb128 0
 3741 031c 00       		.uleb128 0
 3742 031d 8D20     		.uleb128 .LEHB143-.LFB1076
 3743 031f 05       		.uleb128 .LEHE143-.LEHB143
 3744 0320 00       		.uleb128 0
 3745 0321 00       		.uleb128 0
 3746 0322 9C20     		.uleb128 .LEHB144-.LFB1076
 3747 0324 38       		.uleb128 .LEHE144-.LEHB144
 3748 0325 DE20     		.uleb128 .L222-.LFB1076
 3749 0327 00       		.uleb128 0
 3750 0328 D420     		.uleb128 .LEHB145-.LFB1076
 3751 032a 05       		.uleb128 .LEHE145-.LEHB145
 3752 032b 00       		.uleb128 0
 3753 032c 00       		.uleb128 0
 3754 032d EC20     		.uleb128 .LEHB146-.LFB1076
 3755 032f 05       		.uleb128 .LEHE146-.LEHB146
 3756 0330 00       		.uleb128 0
 3757 0331 00       		.uleb128 0
 3758 0332 FB20     		.uleb128 .LEHB147-.LFB1076
 3759 0334 38       		.uleb128 .LEHE147-.LEHB147
 3760 0335 BD21     		.uleb128 .L225-.LFB1076
 3761 0337 00       		.uleb128 0
 3762 0338 B321     		.uleb128 .LEHB148-.LFB1076
 3763 033a 05       		.uleb128 .LEHE148-.LEHB148
 3764 033b 00       		.uleb128 0
 3765 033c 00       		.uleb128 0
 3766 033d CB21     		.uleb128 .LEHB149-.LFB1076
 3767 033f 05       		.uleb128 .LEHE149-.LEHB149
 3768 0340 00       		.uleb128 0
 3769 0341 00       		.uleb128 0
 3770 0342 DA21     		.uleb128 .LEHB150-.LFB1076
 3771 0344 38       		.uleb128 .LEHE150-.LEHB150
 3772 0345 9C22     		.uleb128 .L228-.LFB1076
 3773 0347 00       		.uleb128 0
 3774 0348 9222     		.uleb128 .LEHB151-.LFB1076
 3775 034a 05       		.uleb128 .LEHE151-.LEHB151
 3776 034b 00       		.uleb128 0
 3777 034c 00       		.uleb128 0
 3778 034d AA22     		.uleb128 .LEHB152-.LFB1076
 3779 034f 05       		.uleb128 .LEHE152-.LEHB152
 3780 0350 00       		.uleb128 0
 3781 0351 00       		.uleb128 0
 3782 0352 B922     		.uleb128 .LEHB153-.LFB1076
 3783 0354 38       		.uleb128 .LEHE153-.LEHB153
 3784 0355 FB22     		.uleb128 .L231-.LFB1076
 3785 0357 00       		.uleb128 0
 3786 0358 F122     		.uleb128 .LEHB154-.LFB1076
 3787 035a 05       		.uleb128 .LEHE154-.LEHB154
 3788 035b 00       		.uleb128 0
 3789 035c 00       		.uleb128 0
 3790 035d 8923     		.uleb128 .LEHB155-.LFB1076
 3791 035f 05       		.uleb128 .LEHE155-.LEHB155
 3792 0360 00       		.uleb128 0
 3793 0361 00       		.uleb128 0
 3794 0362 9823     		.uleb128 .LEHB156-.LFB1076
 3795 0364 38       		.uleb128 .LEHE156-.LEHB156
 3796 0365 DA23     		.uleb128 .L234-.LFB1076
 3797 0367 00       		.uleb128 0
 3798 0368 D023     		.uleb128 .LEHB157-.LFB1076
 3799 036a 05       		.uleb128 .LEHE157-.LEHB157
 3800 036b 00       		.uleb128 0
 3801 036c 00       		.uleb128 0
 3802 036d E823     		.uleb128 .LEHB158-.LFB1076
 3803 036f 05       		.uleb128 .LEHE158-.LEHB158
 3804 0370 00       		.uleb128 0
 3805 0371 00       		.uleb128 0
 3806 0372 F723     		.uleb128 .LEHB159-.LFB1076
 3807 0374 38       		.uleb128 .LEHE159-.LEHB159
 3808 0375 B924     		.uleb128 .L237-.LFB1076
 3809 0377 00       		.uleb128 0
 3810 0378 AF24     		.uleb128 .LEHB160-.LFB1076
 3811 037a 05       		.uleb128 .LEHE160-.LEHB160
 3812 037b 00       		.uleb128 0
 3813 037c 00       		.uleb128 0
 3814 037d C724     		.uleb128 .LEHB161-.LFB1076
 3815 037f 05       		.uleb128 .LEHE161-.LEHB161
 3816 0380 00       		.uleb128 0
 3817 0381 00       		.uleb128 0
 3818 0382 D624     		.uleb128 .LEHB162-.LFB1076
 3819 0384 38       		.uleb128 .LEHE162-.LEHB162
 3820 0385 9825     		.uleb128 .L240-.LFB1076
 3821 0387 00       		.uleb128 0
 3822 0388 8E25     		.uleb128 .LEHB163-.LFB1076
 3823 038a 05       		.uleb128 .LEHE163-.LEHB163
 3824 038b 00       		.uleb128 0
 3825 038c 00       		.uleb128 0
 3826 038d A625     		.uleb128 .LEHB164-.LFB1076
 3827 038f 05       		.uleb128 .LEHE164-.LEHB164
 3828 0390 00       		.uleb128 0
 3829 0391 00       		.uleb128 0
 3830 0392 B525     		.uleb128 .LEHB165-.LFB1076
 3831 0394 38       		.uleb128 .LEHE165-.LEHB165
 3832 0395 F725     		.uleb128 .L243-.LFB1076
 3833 0397 00       		.uleb128 0
 3834 0398 ED25     		.uleb128 .LEHB166-.LFB1076
 3835 039a 05       		.uleb128 .LEHE166-.LEHB166
 3836 039b 00       		.uleb128 0
 3837 039c 00       		.uleb128 0
 3838 039d 8526     		.uleb128 .LEHB167-.LFB1076
 3839 039f 05       		.uleb128 .LEHE167-.LEHB167
 3840 03a0 00       		.uleb128 0
 3841 03a1 00       		.uleb128 0
 3842 03a2 9426     		.uleb128 .LEHB168-.LFB1076
 3843 03a4 38       		.uleb128 .LEHE168-.LEHB168
 3844 03a5 D626     		.uleb128 .L246-.LFB1076
 3845 03a7 00       		.uleb128 0
 3846 03a8 CC26     		.uleb128 .LEHB169-.LFB1076
 3847 03aa 05       		.uleb128 .LEHE169-.LEHB169
 3848 03ab 00       		.uleb128 0
 3849 03ac 00       		.uleb128 0
 3850 03ad E426     		.uleb128 .LEHB170-.LFB1076
 3851 03af 05       		.uleb128 .LEHE170-.LEHB170
 3852 03b0 00       		.uleb128 0
 3853 03b1 00       		.uleb128 0
 3854 03b2 F326     		.uleb128 .LEHB171-.LFB1076
 3855 03b4 38       		.uleb128 .LEHE171-.LEHB171
 3856 03b5 B527     		.uleb128 .L249-.LFB1076
 3857 03b7 00       		.uleb128 0
 3858 03b8 AB27     		.uleb128 .LEHB172-.LFB1076
 3859 03ba 05       		.uleb128 .LEHE172-.LEHB172
 3860 03bb 00       		.uleb128 0
 3861 03bc 00       		.uleb128 0
 3862 03bd C327     		.uleb128 .LEHB173-.LFB1076
 3863 03bf 05       		.uleb128 .LEHE173-.LEHB173
 3864 03c0 00       		.uleb128 0
 3865 03c1 00       		.uleb128 0
 3866 03c2 D227     		.uleb128 .LEHB174-.LFB1076
 3867 03c4 38       		.uleb128 .LEHE174-.LEHB174
 3868 03c5 9428     		.uleb128 .L252-.LFB1076
 3869 03c7 00       		.uleb128 0
 3870 03c8 8A28     		.uleb128 .LEHB175-.LFB1076
 3871 03ca 05       		.uleb128 .LEHE175-.LEHB175
 3872 03cb 00       		.uleb128 0
 3873 03cc 00       		.uleb128 0
 3874 03cd A228     		.uleb128 .LEHB176-.LFB1076
 3875 03cf 05       		.uleb128 .LEHE176-.LEHB176
 3876 03d0 00       		.uleb128 0
 3877 03d1 00       		.uleb128 0
 3878 03d2 B128     		.uleb128 .LEHB177-.LFB1076
 3879 03d4 38       		.uleb128 .LEHE177-.LEHB177
 3880 03d5 F328     		.uleb128 .L255-.LFB1076
 3881 03d7 00       		.uleb128 0
 3882 03d8 E928     		.uleb128 .LEHB178-.LFB1076
 3883 03da 05       		.uleb128 .LEHE178-.LEHB178
 3884 03db 00       		.uleb128 0
 3885 03dc 00       		.uleb128 0
 3886 03dd 8129     		.uleb128 .LEHB179-.LFB1076
 3887 03df 05       		.uleb128 .LEHE179-.LEHB179
 3888 03e0 00       		.uleb128 0
 3889 03e1 00       		.uleb128 0
 3890 03e2 9029     		.uleb128 .LEHB180-.LFB1076
 3891 03e4 38       		.uleb128 .LEHE180-.LEHB180
 3892 03e5 D229     		.uleb128 .L258-.LFB1076
 3893 03e7 00       		.uleb128 0
 3894 03e8 C829     		.uleb128 .LEHB181-.LFB1076
 3895 03ea 05       		.uleb128 .LEHE181-.LEHB181
 3896 03eb 00       		.uleb128 0
 3897 03ec 00       		.uleb128 0
 3898 03ed E029     		.uleb128 .LEHB182-.LFB1076
 3899 03ef 05       		.uleb128 .LEHE182-.LEHB182
 3900 03f0 00       		.uleb128 0
 3901 03f1 00       		.uleb128 0
 3902 03f2 EF29     		.uleb128 .LEHB183-.LFB1076
 3903 03f4 38       		.uleb128 .LEHE183-.LEHB183
 3904 03f5 B12A     		.uleb128 .L261-.LFB1076
 3905 03f7 00       		.uleb128 0
 3906 03f8 A72A     		.uleb128 .LEHB184-.LFB1076
 3907 03fa 05       		.uleb128 .LEHE184-.LEHB184
 3908 03fb 00       		.uleb128 0
 3909 03fc 00       		.uleb128 0
 3910 03fd BF2A     		.uleb128 .LEHB185-.LFB1076
 3911 03ff 05       		.uleb128 .LEHE185-.LEHB185
 3912 0400 00       		.uleb128 0
 3913 0401 00       		.uleb128 0
 3914 0402 CE2A     		.uleb128 .LEHB186-.LFB1076
 3915 0404 38       		.uleb128 .LEHE186-.LEHB186
 3916 0405 902B     		.uleb128 .L264-.LFB1076
 3917 0407 00       		.uleb128 0
 3918 0408 862B     		.uleb128 .LEHB187-.LFB1076
 3919 040a 05       		.uleb128 .LEHE187-.LEHB187
 3920 040b 00       		.uleb128 0
 3921 040c 00       		.uleb128 0
 3922 040d 9E2B     		.uleb128 .LEHB188-.LFB1076
 3923 040f 05       		.uleb128 .LEHE188-.LEHB188
 3924 0410 00       		.uleb128 0
 3925 0411 00       		.uleb128 0
 3926 0412 AD2B     		.uleb128 .LEHB189-.LFB1076
 3927 0414 38       		.uleb128 .LEHE189-.LEHB189
 3928 0415 EF2B     		.uleb128 .L267-.LFB1076
 3929 0417 00       		.uleb128 0
 3930 0418 E52B     		.uleb128 .LEHB190-.LFB1076
 3931 041a 05       		.uleb128 .LEHE190-.LEHB190
 3932 041b 00       		.uleb128 0
 3933 041c 00       		.uleb128 0
 3934 041d FD2B     		.uleb128 .LEHB191-.LFB1076
 3935 041f 05       		.uleb128 .LEHE191-.LEHB191
 3936 0420 00       		.uleb128 0
 3937 0421 00       		.uleb128 0
 3938 0422 8C2C     		.uleb128 .LEHB192-.LFB1076
 3939 0424 38       		.uleb128 .LEHE192-.LEHB192
 3940 0425 CE2C     		.uleb128 .L270-.LFB1076
 3941 0427 00       		.uleb128 0
 3942 0428 C42C     		.uleb128 .LEHB193-.LFB1076
 3943 042a 05       		.uleb128 .LEHE193-.LEHB193
 3944 042b 00       		.uleb128 0
 3945 042c 00       		.uleb128 0
 3946 042d DC2C     		.uleb128 .LEHB194-.LFB1076
 3947 042f 05       		.uleb128 .LEHE194-.LEHB194
 3948 0430 00       		.uleb128 0
 3949 0431 00       		.uleb128 0
 3950 0432 EB2C     		.uleb128 .LEHB195-.LFB1076
 3951 0434 38       		.uleb128 .LEHE195-.LEHB195
 3952 0435 AD2D     		.uleb128 .L273-.LFB1076
 3953 0437 00       		.uleb128 0
 3954 0438 A32D     		.uleb128 .LEHB196-.LFB1076
 3955 043a 05       		.uleb128 .LEHE196-.LEHB196
 3956 043b 00       		.uleb128 0
 3957 043c 00       		.uleb128 0
 3958 043d BB2D     		.uleb128 .LEHB197-.LFB1076
 3959 043f 05       		.uleb128 .LEHE197-.LEHB197
 3960 0440 00       		.uleb128 0
 3961 0441 00       		.uleb128 0
 3962 0442 CA2D     		.uleb128 .LEHB198-.LFB1076
 3963 0444 38       		.uleb128 .LEHE198-.LEHB198
 3964 0445 8C2E     		.uleb128 .L276-.LFB1076
 3965 0447 00       		.uleb128 0
 3966 0448 822E     		.uleb128 .LEHB199-.LFB1076
 3967 044a 05       		.uleb128 .LEHE199-.LEHB199
 3968 044b 00       		.uleb128 0
 3969 044c 00       		.uleb128 0
 3970 044d 9A2E     		.uleb128 .LEHB200-.LFB1076
 3971 044f 05       		.uleb128 .LEHE200-.LEHB200
 3972 0450 00       		.uleb128 0
 3973 0451 00       		.uleb128 0
 3974 0452 A92E     		.uleb128 .LEHB201-.LFB1076
 3975 0454 38       		.uleb128 .LEHE201-.LEHB201
 3976 0455 EB2E     		.uleb128 .L279-.LFB1076
 3977 0457 00       		.uleb128 0
 3978 0458 E12E     		.uleb128 .LEHB202-.LFB1076
 3979 045a 05       		.uleb128 .LEHE202-.LEHB202
 3980 045b 00       		.uleb128 0
 3981 045c 00       		.uleb128 0
 3982 045d F92E     		.uleb128 .LEHB203-.LFB1076
 3983 045f 05       		.uleb128 .LEHE203-.LEHB203
 3984 0460 00       		.uleb128 0
 3985 0461 00       		.uleb128 0
 3986 0462 882F     		.uleb128 .LEHB204-.LFB1076
 3987 0464 38       		.uleb128 .LEHE204-.LEHB204
 3988 0465 CA2F     		.uleb128 .L282-.LFB1076
 3989 0467 00       		.uleb128 0
 3990 0468 C02F     		.uleb128 .LEHB205-.LFB1076
 3991 046a 05       		.uleb128 .LEHE205-.LEHB205
 3992 046b 00       		.uleb128 0
 3993 046c 00       		.uleb128 0
 3994 046d D82F     		.uleb128 .LEHB206-.LFB1076
 3995 046f 05       		.uleb128 .LEHE206-.LEHB206
 3996 0470 00       		.uleb128 0
 3997 0471 00       		.uleb128 0
 3998 0472 E72F     		.uleb128 .LEHB207-.LFB1076
 3999 0474 38       		.uleb128 .LEHE207-.LEHB207
 4000 0475 A930     		.uleb128 .L285-.LFB1076
 4001 0477 00       		.uleb128 0
 4002 0478 9F30     		.uleb128 .LEHB208-.LFB1076
 4003 047a 05       		.uleb128 .LEHE208-.LEHB208
 4004 047b 00       		.uleb128 0
 4005 047c 00       		.uleb128 0
 4006 047d B730     		.uleb128 .LEHB209-.LFB1076
 4007 047f 05       		.uleb128 .LEHE209-.LEHB209
 4008 0480 00       		.uleb128 0
 4009 0481 00       		.uleb128 0
 4010 0482 C630     		.uleb128 .LEHB210-.LFB1076
 4011 0484 38       		.uleb128 .LEHE210-.LEHB210
 4012 0485 8831     		.uleb128 .L288-.LFB1076
 4013 0487 00       		.uleb128 0
 4014 0488 FE30     		.uleb128 .LEHB211-.LFB1076
 4015 048a 05       		.uleb128 .LEHE211-.LEHB211
 4016 048b 00       		.uleb128 0
 4017 048c 00       		.uleb128 0
 4018 048d 9631     		.uleb128 .LEHB212-.LFB1076
 4019 048f 05       		.uleb128 .LEHE212-.LEHB212
 4020 0490 00       		.uleb128 0
 4021 0491 00       		.uleb128 0
 4022 0492 A531     		.uleb128 .LEHB213-.LFB1076
 4023 0494 38       		.uleb128 .LEHE213-.LEHB213
 4024 0495 E731     		.uleb128 .L291-.LFB1076
 4025 0497 00       		.uleb128 0
 4026 0498 DD31     		.uleb128 .LEHB214-.LFB1076
 4027 049a 05       		.uleb128 .LEHE214-.LEHB214
 4028 049b 00       		.uleb128 0
 4029 049c 00       		.uleb128 0
 4030 049d F531     		.uleb128 .LEHB215-.LFB1076
 4031 049f 05       		.uleb128 .LEHE215-.LEHB215
 4032 04a0 00       		.uleb128 0
 4033 04a1 00       		.uleb128 0
 4034 04a2 8432     		.uleb128 .LEHB216-.LFB1076
 4035 04a4 38       		.uleb128 .LEHE216-.LEHB216
 4036 04a5 C632     		.uleb128 .L294-.LFB1076
 4037 04a7 00       		.uleb128 0
 4038 04a8 BC32     		.uleb128 .LEHB217-.LFB1076
 4039 04aa 05       		.uleb128 .LEHE217-.LEHB217
 4040 04ab 00       		.uleb128 0
 4041 04ac 00       		.uleb128 0
 4042 04ad D432     		.uleb128 .LEHB218-.LFB1076
 4043 04af 05       		.uleb128 .LEHE218-.LEHB218
 4044 04b0 00       		.uleb128 0
 4045 04b1 00       		.uleb128 0
 4046 04b2 E332     		.uleb128 .LEHB219-.LFB1076
 4047 04b4 38       		.uleb128 .LEHE219-.LEHB219
 4048 04b5 A533     		.uleb128 .L297-.LFB1076
 4049 04b7 00       		.uleb128 0
 4050 04b8 9B33     		.uleb128 .LEHB220-.LFB1076
 4051 04ba 05       		.uleb128 .LEHE220-.LEHB220
 4052 04bb 00       		.uleb128 0
 4053 04bc 00       		.uleb128 0
 4054 04bd B333     		.uleb128 .LEHB221-.LFB1076
 4055 04bf 05       		.uleb128 .LEHE221-.LEHB221
 4056 04c0 00       		.uleb128 0
 4057 04c1 00       		.uleb128 0
 4058 04c2 C233     		.uleb128 .LEHB222-.LFB1076
 4059 04c4 38       		.uleb128 .LEHE222-.LEHB222
 4060 04c5 8434     		.uleb128 .L300-.LFB1076
 4061 04c7 00       		.uleb128 0
 4062 04c8 FA33     		.uleb128 .LEHB223-.LFB1076
 4063 04ca 05       		.uleb128 .LEHE223-.LEHB223
 4064 04cb 00       		.uleb128 0
 4065 04cc 00       		.uleb128 0
 4066 04cd 9234     		.uleb128 .LEHB224-.LFB1076
 4067 04cf 05       		.uleb128 .LEHE224-.LEHB224
 4068 04d0 00       		.uleb128 0
 4069 04d1 00       		.uleb128 0
 4070 04d2 A134     		.uleb128 .LEHB225-.LFB1076
 4071 04d4 38       		.uleb128 .LEHE225-.LEHB225
 4072 04d5 E334     		.uleb128 .L303-.LFB1076
 4073 04d7 00       		.uleb128 0
 4074 04d8 D934     		.uleb128 .LEHB226-.LFB1076
 4075 04da 05       		.uleb128 .LEHE226-.LEHB226
 4076 04db 00       		.uleb128 0
 4077 04dc 00       		.uleb128 0
 4078 04dd F134     		.uleb128 .LEHB227-.LFB1076
 4079 04df 05       		.uleb128 .LEHE227-.LEHB227
 4080 04e0 00       		.uleb128 0
 4081 04e1 00       		.uleb128 0
 4082 04e2 8035     		.uleb128 .LEHB228-.LFB1076
 4083 04e4 38       		.uleb128 .LEHE228-.LEHB228
 4084 04e5 C235     		.uleb128 .L306-.LFB1076
 4085 04e7 00       		.uleb128 0
 4086 04e8 B835     		.uleb128 .LEHB229-.LFB1076
 4087 04ea 05       		.uleb128 .LEHE229-.LEHB229
 4088 04eb 00       		.uleb128 0
 4089 04ec 00       		.uleb128 0
 4090 04ed D035     		.uleb128 .LEHB230-.LFB1076
 4091 04ef 05       		.uleb128 .LEHE230-.LEHB230
 4092 04f0 00       		.uleb128 0
 4093 04f1 00       		.uleb128 0
 4094 04f2 DF35     		.uleb128 .LEHB231-.LFB1076
 4095 04f4 38       		.uleb128 .LEHE231-.LEHB231
 4096 04f5 A136     		.uleb128 .L309-.LFB1076
 4097 04f7 00       		.uleb128 0
 4098 04f8 9736     		.uleb128 .LEHB232-.LFB1076
 4099 04fa 05       		.uleb128 .LEHE232-.LEHB232
 4100 04fb 00       		.uleb128 0
 4101 04fc 00       		.uleb128 0
 4102 04fd AF36     		.uleb128 .LEHB233-.LFB1076
 4103 04ff 05       		.uleb128 .LEHE233-.LEHB233
 4104 0500 00       		.uleb128 0
 4105 0501 00       		.uleb128 0
 4106 0502 BE36     		.uleb128 .LEHB234-.LFB1076
 4107 0504 38       		.uleb128 .LEHE234-.LEHB234
 4108 0505 8037     		.uleb128 .L312-.LFB1076
 4109 0507 00       		.uleb128 0
 4110 0508 F636     		.uleb128 .LEHB235-.LFB1076
 4111 050a 05       		.uleb128 .LEHE235-.LEHB235
 4112 050b 00       		.uleb128 0
 4113 050c 00       		.uleb128 0
 4114 050d 8E37     		.uleb128 .LEHB236-.LFB1076
 4115 050f 05       		.uleb128 .LEHE236-.LEHB236
 4116 0510 00       		.uleb128 0
 4117 0511 00       		.uleb128 0
 4118 0512 9D37     		.uleb128 .LEHB237-.LFB1076
 4119 0514 38       		.uleb128 .LEHE237-.LEHB237
 4120 0515 DF37     		.uleb128 .L315-.LFB1076
 4121 0517 00       		.uleb128 0
 4122 0518 D537     		.uleb128 .LEHB238-.LFB1076
 4123 051a 05       		.uleb128 .LEHE238-.LEHB238
 4124 051b 00       		.uleb128 0
 4125 051c 00       		.uleb128 0
 4126 051d ED37     		.uleb128 .LEHB239-.LFB1076
 4127 051f 05       		.uleb128 .LEHE239-.LEHB239
 4128 0520 00       		.uleb128 0
 4129 0521 00       		.uleb128 0
 4130 0522 FC37     		.uleb128 .LEHB240-.LFB1076
 4131 0524 38       		.uleb128 .LEHE240-.LEHB240
 4132 0525 BE38     		.uleb128 .L318-.LFB1076
 4133 0527 00       		.uleb128 0
 4134 0528 B438     		.uleb128 .LEHB241-.LFB1076
 4135 052a 05       		.uleb128 .LEHE241-.LEHB241
 4136 052b 00       		.uleb128 0
 4137 052c 00       		.uleb128 0
 4138 052d CC38     		.uleb128 .LEHB242-.LFB1076
 4139 052f 05       		.uleb128 .LEHE242-.LEHB242
 4140 0530 00       		.uleb128 0
 4141 0531 00       		.uleb128 0
 4142 0532 DB38     		.uleb128 .LEHB243-.LFB1076
 4143 0534 38       		.uleb128 .LEHE243-.LEHB243
 4144 0535 9D39     		.uleb128 .L321-.LFB1076
 4145 0537 00       		.uleb128 0
 4146 0538 9339     		.uleb128 .LEHB244-.LFB1076
 4147 053a 05       		.uleb128 .LEHE244-.LEHB244
 4148 053b 00       		.uleb128 0
 4149 053c 00       		.uleb128 0
 4150 053d AB39     		.uleb128 .LEHB245-.LFB1076
 4151 053f 05       		.uleb128 .LEHE245-.LEHB245
 4152 0540 00       		.uleb128 0
 4153 0541 00       		.uleb128 0
 4154 0542 BA39     		.uleb128 .LEHB246-.LFB1076
 4155 0544 38       		.uleb128 .LEHE246-.LEHB246
 4156 0545 FC39     		.uleb128 .L324-.LFB1076
 4157 0547 00       		.uleb128 0
 4158 0548 F239     		.uleb128 .LEHB247-.LFB1076
 4159 054a 05       		.uleb128 .LEHE247-.LEHB247
 4160 054b 00       		.uleb128 0
 4161 054c 00       		.uleb128 0
 4162 054d 8A3A     		.uleb128 .LEHB248-.LFB1076
 4163 054f 05       		.uleb128 .LEHE248-.LEHB248
 4164 0550 00       		.uleb128 0
 4165 0551 00       		.uleb128 0
 4166 0552 993A     		.uleb128 .LEHB249-.LFB1076
 4167 0554 38       		.uleb128 .LEHE249-.LEHB249
 4168 0555 D83A     		.uleb128 .L327-.LFB1076
 4169 0557 00       		.uleb128 0
 4170 0558 D13A     		.uleb128 .LEHB250-.LFB1076
 4171 055a 05       		.uleb128 .LEHE250-.LEHB250
 4172 055b 00       		.uleb128 0
 4173 055c 00       		.uleb128 0
 4174 055d E63A     		.uleb128 .LEHB251-.LFB1076
 4175 055f 05       		.uleb128 .LEHE251-.LEHB251
 4176 0560 00       		.uleb128 0
 4177 0561 00       		.uleb128 0
 4178              	.LLSDACSE1076:
 4179 0562 01       		.byte	0x1
 4180 0563 00       		.byte	0
 4181 0564 00       		.byte	0
 4182 0565 7D       		.byte	0x7d
 4183 0566 0000     		.align 4
 4184 0568 00000000 		.long	0
 4185              	
 4186              	.LLSDATT1076:
 4187              		.text
 4189              		.section	.rodata
 4190              	.LC21:
 4191 0399 436F6E76 		.string	"Conv_testGetHexByte"
 4191      5F746573 
 4191      74476574 
 4191      48657842 
 4191      79746500 
 4192              		.section	.text._ZN23TestConv_testGetHexByteC2Ev,"axG",@progbits,_ZN23TestConv_testGetHexByteC5Ev,c
 4193              		.align 2
 4194              		.weak	_ZN23TestConv_testGetHexByteC2Ev
 4196              	_ZN23TestConv_testGetHexByteC2Ev:
 4197              	.LFB1078:
  92:testConv.cpp  **** 
  93:testConv.cpp  **** TEST(Conv_testGetHexByte) {
 4198              		.loc 3 93 0
 4199              		.cfi_startproc
 4200 0000 55       		pushq	%rbp
 4201              		.cfi_def_cfa_offset 16
 4202              		.cfi_offset 6, -16
 4203 0001 4889E5   		movq	%rsp, %rbp
 4204              		.cfi_def_cfa_register 6
 4205 0004 4883EC10 		subq	$16, %rsp
 4206 0008 48897DF8 		movq	%rdi, -8(%rbp)
 4207              	.LBB5:
 4208              		.loc 3 93 0
 4209 000c E8000000 		call	_ZN13UnitTestSuite12GetSuiteNameEv
 4209      00
 4210 0011 4889C2   		movq	%rax, %rdx
 4211 0014 488B45F8 		movq	-8(%rbp), %rax
 4212 0018 41B85D00 		movl	$93, %r8d
 4212      0000
 4213 001e B9000000 		movl	$.LC1, %ecx
 4213      00
 4214 0023 BE000000 		movl	$.LC21, %esi
 4214      00
 4215 0028 4889C7   		movq	%rax, %rdi
 4216 002b E8000000 		call	_ZN8UnitTest4TestC2EPKcS2_S2_i
 4216      00
 4217 0030 BA000000 		movl	$_ZTV23TestConv_testGetHexByte+16, %edx
 4217      00
 4218 0035 488B45F8 		movq	-8(%rbp), %rax
 4219 0039 488910   		movq	%rdx, (%rax)
 4220              	.LBE5:
 4221 003c 90       		nop
 4222 003d C9       		leave
 4223              		.cfi_def_cfa 7, 8
 4224 003e C3       		ret
 4225              		.cfi_endproc
 4226              	.LFE1078:
 4228              		.weak	_ZN23TestConv_testGetHexByteC1Ev
 4229              		.set	_ZN23TestConv_testGetHexByteC1Ev,_ZN23TestConv_testGetHexByteC2Ev
 4230              		.globl	testConv_testGetHexByteInstance
 4231              		.bss
 4232 0039 00000000 		.align 32
 4232      000000
 4235              	testConv_testGetHexByteInstance:
 4236 0040 00000000 		.zero	56
 4236      00000000 
 4236      00000000 
 4236      00000000 
 4236      00000000 
 4237              		.globl	adderConv_testGetHexByte
 4240              	adderConv_testGetHexByte:
 4241 0078 00       		.zero	1
 4242              		.section	.rodata
 4243              	.LC22:
 4244 03ad 303000   		.string	"00"
 4245              	.LC23:
 4246 03b0 413500   		.string	"A5"
 4247              	.LC24:
 4248 03b3 464600   		.string	"FF"
 4249              	.LC25:
 4250 03b6 474600   		.string	"GF"
 4251              	.LC26:
 4252 03b9 464700   		.string	"FG"
 4253 03bc 00000000 		.align 8
 4254              	.LC27:
 4255 03c0 556E6861 		.string	"Unhandled exception in CHECK_EQUAL(0x00, byte)"
 4255      6E646C65 
 4255      64206578 
 4255      63657074 
 4255      696F6E20 
 4256 03ef 00       		.align 8
 4257              	.LC28:
 4258 03f0 556E6861 		.string	"Unhandled exception in CHECK_EQUAL(0xA5, byte)"
 4258      6E646C65 
 4258      64206578 
 4258      63657074 
 4258      696F6E20 
 4259 041f 00       		.align 8
 4260              	.LC29:
 4261 0420 556E6861 		.string	"Unhandled exception in CHECK_EQUAL(0xFF, byte)"
 4261      6E646C65 
 4261      64206578 
 4261      63657074 
 4261      696F6E20 
 4262              		.text
 4263              		.align 2
 4264              		.globl	_ZNK23TestConv_testGetHexByte7RunImplEv
 4266              	_ZNK23TestConv_testGetHexByte7RunImplEv:
 4267              	.LFB1080:
 4268              		.loc 3 93 0
 4269              		.cfi_startproc
 4270              		.cfi_personality 0x3,__gxx_personality_v0
 4271              		.cfi_lsda 0x3,.LLSDA1080
 4272 1d86 55       		pushq	%rbp
 4273              		.cfi_def_cfa_offset 16
 4274              		.cfi_offset 6, -16
 4275 1d87 4889E5   		movq	%rsp, %rbp
 4276              		.cfi_def_cfa_register 6
 4277 1d8a 53       		pushq	%rbx
 4278 1d8b 4883EC58 		subq	$88, %rsp
 4279              		.cfi_offset 3, -24
 4280 1d8f 48897DA8 		movq	%rdi, -88(%rbp)
 4281              		.loc 3 93 0
 4282 1d93 64488B04 		movq	%fs:40, %rax
 4282      25280000 
 4282      00
 4283 1d9c 488945E8 		movq	%rax, -24(%rbp)
 4284 1da0 31C0     		xorl	%eax, %eax
  94:testConv.cpp  **** 	uint8 byte;
  95:testConv.cpp  **** 	bool status;
  96:testConv.cpp  **** 	status = getHexByte("00", &byte);
 4285              		.loc 3 96 0
 4286 1da2 488D45BA 		leaq	-70(%rbp), %rax
 4287 1da6 4889C6   		movq	%rax, %rsi
 4288 1da9 BF000000 		movl	$.LC22, %edi
 4288      00
 4289              	.LEHB252:
 4290 1dae E8000000 		call	getHexByte
 4290      00
 4291              	.LEHE252:
 4292 1db3 8845BB   		movb	%al, -69(%rbp)
 4293              	.LEHB253:
  97:testConv.cpp  **** 	CHECK_EQUAL(false, status);
 4294              		.loc 3 97 0
 4295 1db6 E8000000 		call	_ZN8UnitTest11CurrentTest7DetailsEv
 4295      00
 4296 1dbb 488B08   		movq	(%rax), %rcx
 4297 1dbe 488D45C0 		leaq	-64(%rbp), %rax
 4298 1dc2 BA610000 		movl	$97, %edx
 4298      00
 4299 1dc7 4889CE   		movq	%rcx, %rsi
 4300 1dca 4889C7   		movq	%rax, %rdi
 4301 1dcd E8000000 		call	_ZN8UnitTest11TestDetailsC1ERKS0_i
 4301      00
 4302              	.LEHE253:
 4303              		.loc 3 97 0 is_stmt 0 discriminator 2
 4304 1dd2 C645BC00 		movb	$0, -68(%rbp)
 4305              	.LEHB254:
 4306 1dd6 E8000000 		call	_ZN8UnitTest11CurrentTest7ResultsEv
 4306      00
 4307 1ddb 488B00   		movq	(%rax), %rax
 4308 1dde 488D4DC0 		leaq	-64(%rbp), %rcx
 4309 1de2 488D55BB 		leaq	-69(%rbp), %rdx
 4310 1de6 488D75BC 		leaq	-68(%rbp), %rsi
 4311 1dea 4889C7   		movq	%rax, %rdi
 4312 1ded E8000000 		call	_ZN8UnitTest10CheckEqualIbbEEvRNS_11TestResultsERKT_RKT0_RKNS_11TestDetailsE
 4312      00
 4313              	.LEHE254:
 4314              	.L332:
 4315              	.LEHB255:
  98:testConv.cpp  **** 	CHECK_EQUAL(0x00, byte);
 4316              		.loc 3 98 0 is_stmt 1
 4317 1df2 E8000000 		call	_ZN8UnitTest11CurrentTest7DetailsEv
 4317      00
 4318 1df7 488B08   		movq	(%rax), %rcx
 4319 1dfa 488D45C0 		leaq	-64(%rbp), %rax
 4320 1dfe BA620000 		movl	$98, %edx
 4320      00
 4321 1e03 4889CE   		movq	%rcx, %rsi
 4322 1e06 4889C7   		movq	%rax, %rdi
 4323 1e09 E8000000 		call	_ZN8UnitTest11TestDetailsC1ERKS0_i
 4323      00
 4324              	.LEHE255:
 4325              		.loc 3 98 0 is_stmt 0 discriminator 2
 4326 1e0e C745BC00 		movl	$0, -68(%rbp)
 4326      000000
 4327              	.LEHB256:
 4328 1e15 E8000000 		call	_ZN8UnitTest11CurrentTest7ResultsEv
 4328      00
 4329 1e1a 488B00   		movq	(%rax), %rax
 4330 1e1d 488D4DC0 		leaq	-64(%rbp), %rcx
 4331 1e21 488D55BA 		leaq	-70(%rbp), %rdx
 4332 1e25 488D75BC 		leaq	-68(%rbp), %rsi
 4333 1e29 4889C7   		movq	%rax, %rdi
 4334 1e2c E8000000 		call	_ZN8UnitTest10CheckEqualIihEEvRNS_11TestResultsERKT_RKT0_RKNS_11TestDetailsE
 4334      00
 4335              	.LEHE256:
 4336              	.L336:
  99:testConv.cpp  **** 	status = getHexByte("A5", &byte);
 4337              		.loc 3 99 0 is_stmt 1
 4338 1e31 488D45BA 		leaq	-70(%rbp), %rax
 4339 1e35 4889C6   		movq	%rax, %rsi
 4340 1e38 BF000000 		movl	$.LC23, %edi
 4340      00
 4341              	.LEHB257:
 4342 1e3d E8000000 		call	getHexByte
 4342      00
 4343              	.LEHE257:
 4344 1e42 8845BB   		movb	%al, -69(%rbp)
 4345              	.LEHB258:
 100:testConv.cpp  **** 	CHECK_EQUAL(false, status);
 4346              		.loc 3 100 0
 4347 1e45 E8000000 		call	_ZN8UnitTest11CurrentTest7DetailsEv
 4347      00
 4348 1e4a 488B08   		movq	(%rax), %rcx
 4349 1e4d 488D45C0 		leaq	-64(%rbp), %rax
 4350 1e51 BA640000 		movl	$100, %edx
 4350      00
 4351 1e56 4889CE   		movq	%rcx, %rsi
 4352 1e59 4889C7   		movq	%rax, %rdi
 4353 1e5c E8000000 		call	_ZN8UnitTest11TestDetailsC1ERKS0_i
 4353      00
 4354              	.LEHE258:
 4355              		.loc 3 100 0 is_stmt 0 discriminator 2
 4356 1e61 C645BC00 		movb	$0, -68(%rbp)
 4357              	.LEHB259:
 4358 1e65 E8000000 		call	_ZN8UnitTest11CurrentTest7ResultsEv
 4358      00
 4359 1e6a 488B00   		movq	(%rax), %rax
 4360 1e6d 488D4DC0 		leaq	-64(%rbp), %rcx
 4361 1e71 488D55BB 		leaq	-69(%rbp), %rdx
 4362 1e75 488D75BC 		leaq	-68(%rbp), %rsi
 4363 1e79 4889C7   		movq	%rax, %rdi
 4364 1e7c E8000000 		call	_ZN8UnitTest10CheckEqualIbbEEvRNS_11TestResultsERKT_RKT0_RKNS_11TestDetailsE
 4364      00
 4365              	.LEHE259:
 4366              	.L340:
 4367              	.LEHB260:
 101:testConv.cpp  **** 	CHECK_EQUAL(0xA5, byte);
 4368              		.loc 3 101 0 is_stmt 1
 4369 1e81 E8000000 		call	_ZN8UnitTest11CurrentTest7DetailsEv
 4369      00
 4370 1e86 488B08   		movq	(%rax), %rcx
 4371 1e89 488D45C0 		leaq	-64(%rbp), %rax
 4372 1e8d BA650000 		movl	$101, %edx
 4372      00
 4373 1e92 4889CE   		movq	%rcx, %rsi
 4374 1e95 4889C7   		movq	%rax, %rdi
 4375 1e98 E8000000 		call	_ZN8UnitTest11TestDetailsC1ERKS0_i
 4375      00
 4376              	.LEHE260:
 4377              		.loc 3 101 0 is_stmt 0 discriminator 2
 4378 1e9d C745BCA5 		movl	$165, -68(%rbp)
 4378      000000
 4379              	.LEHB261:
 4380 1ea4 E8000000 		call	_ZN8UnitTest11CurrentTest7ResultsEv
 4380      00
 4381 1ea9 488B00   		movq	(%rax), %rax
 4382 1eac 488D4DC0 		leaq	-64(%rbp), %rcx
 4383 1eb0 488D55BA 		leaq	-70(%rbp), %rdx
 4384 1eb4 488D75BC 		leaq	-68(%rbp), %rsi
 4385 1eb8 4889C7   		movq	%rax, %rdi
 4386 1ebb E8000000 		call	_ZN8UnitTest10CheckEqualIihEEvRNS_11TestResultsERKT_RKT0_RKNS_11TestDetailsE
 4386      00
 4387              	.LEHE261:
 4388              	.L344:
 102:testConv.cpp  **** 	status = getHexByte("FF", &byte);
 4389              		.loc 3 102 0 is_stmt 1
 4390 1ec0 488D45BA 		leaq	-70(%rbp), %rax
 4391 1ec4 4889C6   		movq	%rax, %rsi
 4392 1ec7 BF000000 		movl	$.LC24, %edi
 4392      00
 4393              	.LEHB262:
 4394 1ecc E8000000 		call	getHexByte
 4394      00
 4395              	.LEHE262:
 4396 1ed1 8845BB   		movb	%al, -69(%rbp)
 4397              	.LEHB263:
 103:testConv.cpp  **** 	CHECK_EQUAL(false, status);
 4398              		.loc 3 103 0
 4399 1ed4 E8000000 		call	_ZN8UnitTest11CurrentTest7DetailsEv
 4399      00
 4400 1ed9 488B08   		movq	(%rax), %rcx
 4401 1edc 488D45C0 		leaq	-64(%rbp), %rax
 4402 1ee0 BA670000 		movl	$103, %edx
 4402      00
 4403 1ee5 4889CE   		movq	%rcx, %rsi
 4404 1ee8 4889C7   		movq	%rax, %rdi
 4405 1eeb E8000000 		call	_ZN8UnitTest11TestDetailsC1ERKS0_i
 4405      00
 4406              	.LEHE263:
 4407              		.loc 3 103 0 is_stmt 0 discriminator 2
 4408 1ef0 C645BC00 		movb	$0, -68(%rbp)
 4409              	.LEHB264:
 4410 1ef4 E8000000 		call	_ZN8UnitTest11CurrentTest7ResultsEv
 4410      00
 4411 1ef9 488B00   		movq	(%rax), %rax
 4412 1efc 488D4DC0 		leaq	-64(%rbp), %rcx
 4413 1f00 488D55BB 		leaq	-69(%rbp), %rdx
 4414 1f04 488D75BC 		leaq	-68(%rbp), %rsi
 4415 1f08 4889C7   		movq	%rax, %rdi
 4416 1f0b E8000000 		call	_ZN8UnitTest10CheckEqualIbbEEvRNS_11TestResultsERKT_RKT0_RKNS_11TestDetailsE
 4416      00
 4417              	.LEHE264:
 4418              	.L348:
 4419              	.LEHB265:
 104:testConv.cpp  **** 	CHECK_EQUAL(0xFF, byte);
 4420              		.loc 3 104 0 is_stmt 1
 4421 1f10 E8000000 		call	_ZN8UnitTest11CurrentTest7DetailsEv
 4421      00
 4422 1f15 488B08   		movq	(%rax), %rcx
 4423 1f18 488D45C0 		leaq	-64(%rbp), %rax
 4424 1f1c BA680000 		movl	$104, %edx
 4424      00
 4425 1f21 4889CE   		movq	%rcx, %rsi
 4426 1f24 4889C7   		movq	%rax, %rdi
 4427 1f27 E8000000 		call	_ZN8UnitTest11TestDetailsC1ERKS0_i
 4427      00
 4428              	.LEHE265:
 4429              		.loc 3 104 0 is_stmt 0 discriminator 2
 4430 1f2c C745BCFF 		movl	$255, -68(%rbp)
 4430      000000
 4431              	.LEHB266:
 4432 1f33 E8000000 		call	_ZN8UnitTest11CurrentTest7ResultsEv
 4432      00
 4433 1f38 488B00   		movq	(%rax), %rax
 4434 1f3b 488D4DC0 		leaq	-64(%rbp), %rcx
 4435 1f3f 488D55BA 		leaq	-70(%rbp), %rdx
 4436 1f43 488D75BC 		leaq	-68(%rbp), %rsi
 4437 1f47 4889C7   		movq	%rax, %rdi
 4438 1f4a E8000000 		call	_ZN8UnitTest10CheckEqualIihEEvRNS_11TestResultsERKT_RKT0_RKNS_11TestDetailsE
 4438      00
 4439              	.LEHE266:
 4440              	.L352:
 105:testConv.cpp  **** 	status = getHexByte("GF", &byte);
 4441              		.loc 3 105 0 is_stmt 1
 4442 1f4f 488D45BA 		leaq	-70(%rbp), %rax
 4443 1f53 4889C6   		movq	%rax, %rsi
 4444 1f56 BF000000 		movl	$.LC25, %edi
 4444      00
 4445              	.LEHB267:
 4446 1f5b E8000000 		call	getHexByte
 4446      00
 4447              	.LEHE267:
 4448 1f60 8845BB   		movb	%al, -69(%rbp)
 4449              	.LEHB268:
 106:testConv.cpp  **** 	CHECK_EQUAL(true, status);
 4450              		.loc 3 106 0
 4451 1f63 E8000000 		call	_ZN8UnitTest11CurrentTest7DetailsEv
 4451      00
 4452 1f68 488B08   		movq	(%rax), %rcx
 4453 1f6b 488D45C0 		leaq	-64(%rbp), %rax
 4454 1f6f BA6A0000 		movl	$106, %edx
 4454      00
 4455 1f74 4889CE   		movq	%rcx, %rsi
 4456 1f77 4889C7   		movq	%rax, %rdi
 4457 1f7a E8000000 		call	_ZN8UnitTest11TestDetailsC1ERKS0_i
 4457      00
 4458              	.LEHE268:
 4459              		.loc 3 106 0 is_stmt 0 discriminator 2
 4460 1f7f C645BC01 		movb	$1, -68(%rbp)
 4461              	.LEHB269:
 4462 1f83 E8000000 		call	_ZN8UnitTest11CurrentTest7ResultsEv
 4462      00
 4463 1f88 488B00   		movq	(%rax), %rax
 4464 1f8b 488D4DC0 		leaq	-64(%rbp), %rcx
 4465 1f8f 488D55BB 		leaq	-69(%rbp), %rdx
 4466 1f93 488D75BC 		leaq	-68(%rbp), %rsi
 4467 1f97 4889C7   		movq	%rax, %rdi
 4468 1f9a E8000000 		call	_ZN8UnitTest10CheckEqualIbbEEvRNS_11TestResultsERKT_RKT0_RKNS_11TestDetailsE
 4468      00
 4469              	.LEHE269:
 4470              	.L356:
 107:testConv.cpp  **** 	status = getHexByte("FG", &byte);
 4471              		.loc 3 107 0 is_stmt 1
 4472 1f9f 488D45BA 		leaq	-70(%rbp), %rax
 4473 1fa3 4889C6   		movq	%rax, %rsi
 4474 1fa6 BF000000 		movl	$.LC26, %edi
 4474      00
 4475              	.LEHB270:
 4476 1fab E8000000 		call	getHexByte
 4476      00
 4477              	.LEHE270:
 4478 1fb0 8845BB   		movb	%al, -69(%rbp)
 4479              	.LEHB271:
 108:testConv.cpp  **** 	CHECK_EQUAL(true, status);
 4480              		.loc 3 108 0
 4481 1fb3 E8000000 		call	_ZN8UnitTest11CurrentTest7DetailsEv
 4481      00
 4482 1fb8 488B08   		movq	(%rax), %rcx
 4483 1fbb 488D45C0 		leaq	-64(%rbp), %rax
 4484 1fbf BA6C0000 		movl	$108, %edx
 4484      00
 4485 1fc4 4889CE   		movq	%rcx, %rsi
 4486 1fc7 4889C7   		movq	%rax, %rdi
 4487 1fca E8000000 		call	_ZN8UnitTest11TestDetailsC1ERKS0_i
 4487      00
 4488              	.LEHE271:
 4489              		.loc 3 108 0 is_stmt 0 discriminator 2
 4490 1fcf C645BC01 		movb	$1, -68(%rbp)
 4491              	.LEHB272:
 4492 1fd3 E8000000 		call	_ZN8UnitTest11CurrentTest7ResultsEv
 4492      00
 4493 1fd8 488B00   		movq	(%rax), %rax
 4494 1fdb 488D4DC0 		leaq	-64(%rbp), %rcx
 4495 1fdf 488D55BB 		leaq	-69(%rbp), %rdx
 4496 1fe3 488D75BC 		leaq	-68(%rbp), %rsi
 4497 1fe7 4889C7   		movq	%rax, %rdi
 4498 1fea E8000000 		call	_ZN8UnitTest10CheckEqualIbbEEvRNS_11TestResultsERKT_RKT0_RKNS_11TestDetailsE
 4498      00
 4499              	.LEHE272:
 109:testConv.cpp  **** }
 4500              		.loc 3 109 0 is_stmt 1
 4501 1fef E9F50200 		jmp	.L329
 4501      00
 4502              	.L364:
 4503 1ff4 EB00     		jmp	.L331
 4504              	.L363:
 4505              	.L331:
  97:testConv.cpp  **** 	CHECK_EQUAL(0x00, byte);
 4506              		.loc 3 97 0
 4507 1ff6 4889C7   		movq	%rax, %rdi
 4508 1ff9 E8000000 		call	__cxa_begin_catch
 4508      00
 4509              	.LEHB273:
 4510 1ffe E8000000 		call	_ZN8UnitTest11CurrentTest7DetailsEv
 4510      00
 4511 2003 488B08   		movq	(%rax), %rcx
 4512 2006 488D45C0 		leaq	-64(%rbp), %rax
 4513 200a BA610000 		movl	$97, %edx
 4513      00
 4514 200f 4889CE   		movq	%rcx, %rsi
 4515 2012 4889C7   		movq	%rax, %rdi
 4516 2015 E8000000 		call	_ZN8UnitTest11TestDetailsC1ERKS0_i
 4516      00
  97:testConv.cpp  **** 	CHECK_EQUAL(0x00, byte);
 4517              		.loc 3 97 0 is_stmt 0 discriminator 10
 4518 201a E8000000 		call	_ZN8UnitTest11CurrentTest7ResultsEv
 4518      00
 4519 201f 488B00   		movq	(%rax), %rax
 4520 2022 488D4DC0 		leaq	-64(%rbp), %rcx
 4521 2026 BA000000 		movl	$.LC3, %edx
 4521      00
 4522 202b 4889CE   		movq	%rcx, %rsi
 4523 202e 4889C7   		movq	%rax, %rdi
 4524 2031 E8000000 		call	_ZN8UnitTest11TestResults13OnTestFailureERKNS_11TestDetailsEPKc
 4524      00
 4525              	.LEHE273:
 4526              	.LEHB274:
  97:testConv.cpp  **** 	CHECK_EQUAL(0x00, byte);
 4527              		.loc 3 97 0 discriminator 14
 4528 2036 E8000000 		call	__cxa_end_catch
 4528      00
 4529              	.LEHE274:
 4530 203b E9B2FDFF 		jmp	.L332
 4530      FF
 4531              	.L365:
 4532 2040 4889C3   		movq	%rax, %rbx
  97:testConv.cpp  **** 	CHECK_EQUAL(0x00, byte);
 4533              		.loc 3 97 0
 4534 2043 E8000000 		call	__cxa_end_catch
 4534      00
 4535 2048 4889D8   		movq	%rbx, %rax
 4536 204b 4889C7   		movq	%rax, %rdi
 4537              	.LEHB275:
 4538 204e E8000000 		call	_Unwind_Resume
 4538      00
 4539              	.LEHE275:
 4540              	.L367:
 4541 2053 EB00     		jmp	.L335
 4542              	.L366:
 4543              	.L335:
  98:testConv.cpp  **** 	status = getHexByte("A5", &byte);
 4544              		.loc 3 98 0 is_stmt 1
 4545 2055 4889C7   		movq	%rax, %rdi
 4546 2058 E8000000 		call	__cxa_begin_catch
 4546      00
 4547              	.LEHB276:
 4548 205d E8000000 		call	_ZN8UnitTest11CurrentTest7DetailsEv
 4548      00
 4549 2062 488B08   		movq	(%rax), %rcx
 4550 2065 488D45C0 		leaq	-64(%rbp), %rax
 4551 2069 BA620000 		movl	$98, %edx
 4551      00
 4552 206e 4889CE   		movq	%rcx, %rsi
 4553 2071 4889C7   		movq	%rax, %rdi
 4554 2074 E8000000 		call	_ZN8UnitTest11TestDetailsC1ERKS0_i
 4554      00
  98:testConv.cpp  **** 	status = getHexByte("A5", &byte);
 4555              		.loc 3 98 0 is_stmt 0 discriminator 10
 4556 2079 E8000000 		call	_ZN8UnitTest11CurrentTest7ResultsEv
 4556      00
 4557 207e 488B00   		movq	(%rax), %rax
 4558 2081 488D4DC0 		leaq	-64(%rbp), %rcx
 4559 2085 BA000000 		movl	$.LC27, %edx
 4559      00
 4560 208a 4889CE   		movq	%rcx, %rsi
 4561 208d 4889C7   		movq	%rax, %rdi
 4562 2090 E8000000 		call	_ZN8UnitTest11TestResults13OnTestFailureERKNS_11TestDetailsEPKc
 4562      00
 4563              	.LEHE276:
 4564              	.LEHB277:
  98:testConv.cpp  **** 	status = getHexByte("A5", &byte);
 4565              		.loc 3 98 0 discriminator 14
 4566 2095 E8000000 		call	__cxa_end_catch
 4566      00
 4567              	.LEHE277:
 4568 209a E992FDFF 		jmp	.L336
 4568      FF
 4569              	.L368:
 4570 209f 4889C3   		movq	%rax, %rbx
  98:testConv.cpp  **** 	status = getHexByte("A5", &byte);
 4571              		.loc 3 98 0
 4572 20a2 E8000000 		call	__cxa_end_catch
 4572      00
 4573 20a7 4889D8   		movq	%rbx, %rax
 4574 20aa 4889C7   		movq	%rax, %rdi
 4575              	.LEHB278:
 4576 20ad E8000000 		call	_Unwind_Resume
 4576      00
 4577              	.LEHE278:
 4578              	.L370:
 4579 20b2 EB00     		jmp	.L339
 4580              	.L369:
 4581              	.L339:
 100:testConv.cpp  **** 	CHECK_EQUAL(0xA5, byte);
 4582              		.loc 3 100 0 is_stmt 1
 4583 20b4 4889C7   		movq	%rax, %rdi
 4584 20b7 E8000000 		call	__cxa_begin_catch
 4584      00
 4585              	.LEHB279:
 4586 20bc E8000000 		call	_ZN8UnitTest11CurrentTest7DetailsEv
 4586      00
 4587 20c1 488B08   		movq	(%rax), %rcx
 4588 20c4 488D45C0 		leaq	-64(%rbp), %rax
 4589 20c8 BA640000 		movl	$100, %edx
 4589      00
 4590 20cd 4889CE   		movq	%rcx, %rsi
 4591 20d0 4889C7   		movq	%rax, %rdi
 4592 20d3 E8000000 		call	_ZN8UnitTest11TestDetailsC1ERKS0_i
 4592      00
 100:testConv.cpp  **** 	CHECK_EQUAL(0xA5, byte);
 4593              		.loc 3 100 0 is_stmt 0 discriminator 10
 4594 20d8 E8000000 		call	_ZN8UnitTest11CurrentTest7ResultsEv
 4594      00
 4595 20dd 488B00   		movq	(%rax), %rax
 4596 20e0 488D4DC0 		leaq	-64(%rbp), %rcx
 4597 20e4 BA000000 		movl	$.LC3, %edx
 4597      00
 4598 20e9 4889CE   		movq	%rcx, %rsi
 4599 20ec 4889C7   		movq	%rax, %rdi
 4600 20ef E8000000 		call	_ZN8UnitTest11TestResults13OnTestFailureERKNS_11TestDetailsEPKc
 4600      00
 4601              	.LEHE279:
 4602              	.LEHB280:
 100:testConv.cpp  **** 	CHECK_EQUAL(0xA5, byte);
 4603              		.loc 3 100 0 discriminator 14
 4604 20f4 E8000000 		call	__cxa_end_catch
 4604      00
 4605              	.LEHE280:
 4606 20f9 E983FDFF 		jmp	.L340
 4606      FF
 4607              	.L371:
 4608 20fe 4889C3   		movq	%rax, %rbx
 100:testConv.cpp  **** 	CHECK_EQUAL(0xA5, byte);
 4609              		.loc 3 100 0
 4610 2101 E8000000 		call	__cxa_end_catch
 4610      00
 4611 2106 4889D8   		movq	%rbx, %rax
 4612 2109 4889C7   		movq	%rax, %rdi
 4613              	.LEHB281:
 4614 210c E8000000 		call	_Unwind_Resume
 4614      00
 4615              	.LEHE281:
 4616              	.L373:
 4617 2111 EB00     		jmp	.L343
 4618              	.L372:
 4619              	.L343:
 101:testConv.cpp  **** 	status = getHexByte("FF", &byte);
 4620              		.loc 3 101 0 is_stmt 1
 4621 2113 4889C7   		movq	%rax, %rdi
 4622 2116 E8000000 		call	__cxa_begin_catch
 4622      00
 4623              	.LEHB282:
 4624 211b E8000000 		call	_ZN8UnitTest11CurrentTest7DetailsEv
 4624      00
 4625 2120 488B08   		movq	(%rax), %rcx
 4626 2123 488D45C0 		leaq	-64(%rbp), %rax
 4627 2127 BA650000 		movl	$101, %edx
 4627      00
 4628 212c 4889CE   		movq	%rcx, %rsi
 4629 212f 4889C7   		movq	%rax, %rdi
 4630 2132 E8000000 		call	_ZN8UnitTest11TestDetailsC1ERKS0_i
 4630      00
 101:testConv.cpp  **** 	status = getHexByte("FF", &byte);
 4631              		.loc 3 101 0 is_stmt 0 discriminator 10
 4632 2137 E8000000 		call	_ZN8UnitTest11CurrentTest7ResultsEv
 4632      00
 4633 213c 488B00   		movq	(%rax), %rax
 4634 213f 488D4DC0 		leaq	-64(%rbp), %rcx
 4635 2143 BA000000 		movl	$.LC28, %edx
 4635      00
 4636 2148 4889CE   		movq	%rcx, %rsi
 4637 214b 4889C7   		movq	%rax, %rdi
 4638 214e E8000000 		call	_ZN8UnitTest11TestResults13OnTestFailureERKNS_11TestDetailsEPKc
 4638      00
 4639              	.LEHE282:
 4640              	.LEHB283:
 101:testConv.cpp  **** 	status = getHexByte("FF", &byte);
 4641              		.loc 3 101 0 discriminator 14
 4642 2153 E8000000 		call	__cxa_end_catch
 4642      00
 4643              	.LEHE283:
 4644 2158 E963FDFF 		jmp	.L344
 4644      FF
 4645              	.L374:
 4646 215d 4889C3   		movq	%rax, %rbx
 101:testConv.cpp  **** 	status = getHexByte("FF", &byte);
 4647              		.loc 3 101 0
 4648 2160 E8000000 		call	__cxa_end_catch
 4648      00
 4649 2165 4889D8   		movq	%rbx, %rax
 4650 2168 4889C7   		movq	%rax, %rdi
 4651              	.LEHB284:
 4652 216b E8000000 		call	_Unwind_Resume
 4652      00
 4653              	.LEHE284:
 4654              	.L376:
 4655 2170 EB00     		jmp	.L347
 4656              	.L375:
 4657              	.L347:
 103:testConv.cpp  **** 	CHECK_EQUAL(0xFF, byte);
 4658              		.loc 3 103 0 is_stmt 1
 4659 2172 4889C7   		movq	%rax, %rdi
 4660 2175 E8000000 		call	__cxa_begin_catch
 4660      00
 4661              	.LEHB285:
 4662 217a E8000000 		call	_ZN8UnitTest11CurrentTest7DetailsEv
 4662      00
 4663 217f 488B08   		movq	(%rax), %rcx
 4664 2182 488D45C0 		leaq	-64(%rbp), %rax
 4665 2186 BA670000 		movl	$103, %edx
 4665      00
 4666 218b 4889CE   		movq	%rcx, %rsi
 4667 218e 4889C7   		movq	%rax, %rdi
 4668 2191 E8000000 		call	_ZN8UnitTest11TestDetailsC1ERKS0_i
 4668      00
 103:testConv.cpp  **** 	CHECK_EQUAL(0xFF, byte);
 4669              		.loc 3 103 0 is_stmt 0 discriminator 10
 4670 2196 E8000000 		call	_ZN8UnitTest11CurrentTest7ResultsEv
 4670      00
 4671 219b 488B00   		movq	(%rax), %rax
 4672 219e 488D4DC0 		leaq	-64(%rbp), %rcx
 4673 21a2 BA000000 		movl	$.LC3, %edx
 4673      00
 4674 21a7 4889CE   		movq	%rcx, %rsi
 4675 21aa 4889C7   		movq	%rax, %rdi
 4676 21ad E8000000 		call	_ZN8UnitTest11TestResults13OnTestFailureERKNS_11TestDetailsEPKc
 4676      00
 4677              	.LEHE285:
 4678              	.LEHB286:
 103:testConv.cpp  **** 	CHECK_EQUAL(0xFF, byte);
 4679              		.loc 3 103 0 discriminator 14
 4680 21b2 E8000000 		call	__cxa_end_catch
 4680      00
 4681              	.LEHE286:
 4682 21b7 E954FDFF 		jmp	.L348
 4682      FF
 4683              	.L377:
 4684 21bc 4889C3   		movq	%rax, %rbx
 103:testConv.cpp  **** 	CHECK_EQUAL(0xFF, byte);
 4685              		.loc 3 103 0
 4686 21bf E8000000 		call	__cxa_end_catch
 4686      00
 4687 21c4 4889D8   		movq	%rbx, %rax
 4688 21c7 4889C7   		movq	%rax, %rdi
 4689              	.LEHB287:
 4690 21ca E8000000 		call	_Unwind_Resume
 4690      00
 4691              	.LEHE287:
 4692              	.L379:
 4693 21cf EB00     		jmp	.L351
 4694              	.L378:
 4695              	.L351:
 104:testConv.cpp  **** 	status = getHexByte("GF", &byte);
 4696              		.loc 3 104 0 is_stmt 1
 4697 21d1 4889C7   		movq	%rax, %rdi
 4698 21d4 E8000000 		call	__cxa_begin_catch
 4698      00
 4699              	.LEHB288:
 4700 21d9 E8000000 		call	_ZN8UnitTest11CurrentTest7DetailsEv
 4700      00
 4701 21de 488B08   		movq	(%rax), %rcx
 4702 21e1 488D45C0 		leaq	-64(%rbp), %rax
 4703 21e5 BA680000 		movl	$104, %edx
 4703      00
 4704 21ea 4889CE   		movq	%rcx, %rsi
 4705 21ed 4889C7   		movq	%rax, %rdi
 4706 21f0 E8000000 		call	_ZN8UnitTest11TestDetailsC1ERKS0_i
 4706      00
 104:testConv.cpp  **** 	status = getHexByte("GF", &byte);
 4707              		.loc 3 104 0 is_stmt 0 discriminator 10
 4708 21f5 E8000000 		call	_ZN8UnitTest11CurrentTest7ResultsEv
 4708      00
 4709 21fa 488B00   		movq	(%rax), %rax
 4710 21fd 488D4DC0 		leaq	-64(%rbp), %rcx
 4711 2201 BA000000 		movl	$.LC29, %edx
 4711      00
 4712 2206 4889CE   		movq	%rcx, %rsi
 4713 2209 4889C7   		movq	%rax, %rdi
 4714 220c E8000000 		call	_ZN8UnitTest11TestResults13OnTestFailureERKNS_11TestDetailsEPKc
 4714      00
 4715              	.LEHE288:
 4716              	.LEHB289:
 104:testConv.cpp  **** 	status = getHexByte("GF", &byte);
 4717              		.loc 3 104 0 discriminator 14
 4718 2211 E8000000 		call	__cxa_end_catch
 4718      00
 4719              	.LEHE289:
 4720 2216 E934FDFF 		jmp	.L352
 4720      FF
 4721              	.L380:
 4722 221b 4889C3   		movq	%rax, %rbx
 104:testConv.cpp  **** 	status = getHexByte("GF", &byte);
 4723              		.loc 3 104 0
 4724 221e E8000000 		call	__cxa_end_catch
 4724      00
 4725 2223 4889D8   		movq	%rbx, %rax
 4726 2226 4889C7   		movq	%rax, %rdi
 4727              	.LEHB290:
 4728 2229 E8000000 		call	_Unwind_Resume
 4728      00
 4729              	.LEHE290:
 4730              	.L382:
 4731 222e EB00     		jmp	.L355
 4732              	.L381:
 4733              	.L355:
 106:testConv.cpp  **** 	status = getHexByte("FG", &byte);
 4734              		.loc 3 106 0 is_stmt 1
 4735 2230 4889C7   		movq	%rax, %rdi
 4736 2233 E8000000 		call	__cxa_begin_catch
 4736      00
 4737              	.LEHB291:
 4738 2238 E8000000 		call	_ZN8UnitTest11CurrentTest7DetailsEv
 4738      00
 4739 223d 488B08   		movq	(%rax), %rcx
 4740 2240 488D45C0 		leaq	-64(%rbp), %rax
 4741 2244 BA6A0000 		movl	$106, %edx
 4741      00
 4742 2249 4889CE   		movq	%rcx, %rsi
 4743 224c 4889C7   		movq	%rax, %rdi
 4744 224f E8000000 		call	_ZN8UnitTest11TestDetailsC1ERKS0_i
 4744      00
 106:testConv.cpp  **** 	status = getHexByte("FG", &byte);
 4745              		.loc 3 106 0 is_stmt 0 discriminator 10
 4746 2254 E8000000 		call	_ZN8UnitTest11CurrentTest7ResultsEv
 4746      00
 4747 2259 488B00   		movq	(%rax), %rax
 4748 225c 488D4DC0 		leaq	-64(%rbp), %rcx
 4749 2260 BA000000 		movl	$.LC20, %edx
 4749      00
 4750 2265 4889CE   		movq	%rcx, %rsi
 4751 2268 4889C7   		movq	%rax, %rdi
 4752 226b E8000000 		call	_ZN8UnitTest11TestResults13OnTestFailureERKNS_11TestDetailsEPKc
 4752      00
 4753              	.LEHE291:
 4754              	.LEHB292:
 106:testConv.cpp  **** 	status = getHexByte("FG", &byte);
 4755              		.loc 3 106 0 discriminator 14
 4756 2270 E8000000 		call	__cxa_end_catch
 4756      00
 4757              	.LEHE292:
 4758 2275 E925FDFF 		jmp	.L356
 4758      FF
 4759              	.L383:
 4760 227a 4889C3   		movq	%rax, %rbx
 106:testConv.cpp  **** 	status = getHexByte("FG", &byte);
 4761              		.loc 3 106 0
 4762 227d E8000000 		call	__cxa_end_catch
 4762      00
 4763 2282 4889D8   		movq	%rbx, %rax
 4764 2285 4889C7   		movq	%rax, %rdi
 4765              	.LEHB293:
 4766 2288 E8000000 		call	_Unwind_Resume
 4766      00
 4767              	.LEHE293:
 4768              	.L385:
 4769 228d EB00     		jmp	.L359
 4770              	.L384:
 4771              	.L359:
 108:testConv.cpp  **** }
 4772              		.loc 3 108 0 is_stmt 1
 4773 228f 4889C7   		movq	%rax, %rdi
 4774 2292 E8000000 		call	__cxa_begin_catch
 4774      00
 4775              	.LEHB294:
 4776 2297 E8000000 		call	_ZN8UnitTest11CurrentTest7DetailsEv
 4776      00
 4777 229c 488B08   		movq	(%rax), %rcx
 4778 229f 488D45C0 		leaq	-64(%rbp), %rax
 4779 22a3 BA6C0000 		movl	$108, %edx
 4779      00
 4780 22a8 4889CE   		movq	%rcx, %rsi
 4781 22ab 4889C7   		movq	%rax, %rdi
 4782 22ae E8000000 		call	_ZN8UnitTest11TestDetailsC1ERKS0_i
 4782      00
 108:testConv.cpp  **** }
 4783              		.loc 3 108 0 is_stmt 0 discriminator 10
 4784 22b3 E8000000 		call	_ZN8UnitTest11CurrentTest7ResultsEv
 4784      00
 4785 22b8 488B00   		movq	(%rax), %rax
 4786 22bb 488D4DC0 		leaq	-64(%rbp), %rcx
 4787 22bf BA000000 		movl	$.LC20, %edx
 4787      00
 4788 22c4 4889CE   		movq	%rcx, %rsi
 4789 22c7 4889C7   		movq	%rax, %rdi
 4790 22ca E8000000 		call	_ZN8UnitTest11TestResults13OnTestFailureERKNS_11TestDetailsEPKc
 4790      00
 4791              	.LEHE294:
 4792              	.LEHB295:
 108:testConv.cpp  **** }
 4793              		.loc 3 108 0 discriminator 14
 4794 22cf E8000000 		call	__cxa_end_catch
 4794      00
 4795              	.LEHE295:
 4796              		.loc 3 109 0 is_stmt 1 discriminator 14
 4797 22d4 EB13     		jmp	.L329
 4798              	.L386:
 4799 22d6 4889C3   		movq	%rax, %rbx
 108:testConv.cpp  **** }
 4800              		.loc 3 108 0
 4801 22d9 E8000000 		call	__cxa_end_catch
 4801      00
 4802 22de 4889D8   		movq	%rbx, %rax
 4803 22e1 4889C7   		movq	%rax, %rdi
 4804              	.LEHB296:
 4805 22e4 E8000000 		call	_Unwind_Resume
 4805      00
 4806              	.LEHE296:
 4807              	.L329:
 4808              		.loc 3 109 0
 4809 22e9 488B45E8 		movq	-24(%rbp), %rax
 4810 22ed 64483304 		xorq	%fs:40, %rax
 4810      25280000 
 4810      00
 4811 22f6 7405     		je	.L362
 4812 22f8 E8000000 		call	__stack_chk_fail
 4812      00
 4813              	.L362:
 4814 22fd 4883C458 		addq	$88, %rsp
 4815 2301 5B       		popq	%rbx
 4816 2302 5D       		popq	%rbp
 4817              		.cfi_def_cfa 7, 8
 4818 2303 C3       		ret
 4819              		.cfi_endproc
 4820              	.LFE1080:
 4821              		.section	.gcc_except_table
 4822              		.align 4
 4823              	.LLSDA1080:
 4824 056c FF       		.byte	0xff
 4825 056d 03       		.byte	0x3
 4826 056e 8002     		.uleb128 .LLSDATT1080-.LLSDATTD1080
 4827              	.LLSDATTD1080:
 4828 0570 01       		.byte	0x1
 4829 0571 F501     		.uleb128 .LLSDACSE1080-.LLSDACSB1080
 4830              	.LLSDACSB1080:
 4831 0573 28       		.uleb128 .LEHB252-.LFB1080
 4832 0574 05       		.uleb128 .LEHE252-.LEHB252
 4833 0575 00       		.uleb128 0
 4834 0576 00       		.uleb128 0
 4835 0577 30       		.uleb128 .LEHB253-.LFB1080
 4836 0578 1C       		.uleb128 .LEHE253-.LEHB253
 4837 0579 F004     		.uleb128 .L363-.LFB1080
 4838 057b 01       		.uleb128 0x1
 4839 057c 50       		.uleb128 .LEHB254-.LFB1080
 4840 057d 1C       		.uleb128 .LEHE254-.LEHB254
 4841 057e EE04     		.uleb128 .L364-.LFB1080
 4842 0580 03       		.uleb128 0x3
 4843 0581 6C       		.uleb128 .LEHB255-.LFB1080
 4844 0582 1C       		.uleb128 .LEHE255-.LEHB255
 4845 0583 CF05     		.uleb128 .L366-.LFB1080
 4846 0585 01       		.uleb128 0x1
 4847 0586 8F01     		.uleb128 .LEHB256-.LFB1080
 4848 0588 1C       		.uleb128 .LEHE256-.LEHB256
 4849 0589 CD05     		.uleb128 .L367-.LFB1080
 4850 058b 03       		.uleb128 0x3
 4851 058c B701     		.uleb128 .LEHB257-.LFB1080
 4852 058e 05       		.uleb128 .LEHE257-.LEHB257
 4853 058f 00       		.uleb128 0
 4854 0590 00       		.uleb128 0
 4855 0591 BF01     		.uleb128 .LEHB258-.LFB1080
 4856 0593 1C       		.uleb128 .LEHE258-.LEHB258
 4857 0594 AE06     		.uleb128 .L369-.LFB1080
 4858 0596 01       		.uleb128 0x1
 4859 0597 DF01     		.uleb128 .LEHB259-.LFB1080
 4860 0599 1C       		.uleb128 .LEHE259-.LEHB259
 4861 059a AC06     		.uleb128 .L370-.LFB1080
 4862 059c 03       		.uleb128 0x3
 4863 059d FB01     		.uleb128 .LEHB260-.LFB1080
 4864 059f 1C       		.uleb128 .LEHE260-.LEHB260
 4865 05a0 8D07     		.uleb128 .L372-.LFB1080
 4866 05a2 01       		.uleb128 0x1
 4867 05a3 9E02     		.uleb128 .LEHB261-.LFB1080
 4868 05a5 1C       		.uleb128 .LEHE261-.LEHB261
 4869 05a6 8B07     		.uleb128 .L373-.LFB1080
 4870 05a8 03       		.uleb128 0x3
 4871 05a9 C602     		.uleb128 .LEHB262-.LFB1080
 4872 05ab 05       		.uleb128 .LEHE262-.LEHB262
 4873 05ac 00       		.uleb128 0
 4874 05ad 00       		.uleb128 0
 4875 05ae CE02     		.uleb128 .LEHB263-.LFB1080
 4876 05b0 1C       		.uleb128 .LEHE263-.LEHB263
 4877 05b1 EC07     		.uleb128 .L375-.LFB1080
 4878 05b3 01       		.uleb128 0x1
 4879 05b4 EE02     		.uleb128 .LEHB264-.LFB1080
 4880 05b6 1C       		.uleb128 .LEHE264-.LEHB264
 4881 05b7 EA07     		.uleb128 .L376-.LFB1080
 4882 05b9 03       		.uleb128 0x3
 4883 05ba 8A03     		.uleb128 .LEHB265-.LFB1080
 4884 05bc 1C       		.uleb128 .LEHE265-.LEHB265
 4885 05bd CB08     		.uleb128 .L378-.LFB1080
 4886 05bf 01       		.uleb128 0x1
 4887 05c0 AD03     		.uleb128 .LEHB266-.LFB1080
 4888 05c2 1C       		.uleb128 .LEHE266-.LEHB266
 4889 05c3 C908     		.uleb128 .L379-.LFB1080
 4890 05c5 03       		.uleb128 0x3
 4891 05c6 D503     		.uleb128 .LEHB267-.LFB1080
 4892 05c8 05       		.uleb128 .LEHE267-.LEHB267
 4893 05c9 00       		.uleb128 0
 4894 05ca 00       		.uleb128 0
 4895 05cb DD03     		.uleb128 .LEHB268-.LFB1080
 4896 05cd 1C       		.uleb128 .LEHE268-.LEHB268
 4897 05ce AA09     		.uleb128 .L381-.LFB1080
 4898 05d0 01       		.uleb128 0x1
 4899 05d1 FD03     		.uleb128 .LEHB269-.LFB1080
 4900 05d3 1C       		.uleb128 .LEHE269-.LEHB269
 4901 05d4 A809     		.uleb128 .L382-.LFB1080
 4902 05d6 03       		.uleb128 0x3
 4903 05d7 A504     		.uleb128 .LEHB270-.LFB1080
 4904 05d9 05       		.uleb128 .LEHE270-.LEHB270
 4905 05da 00       		.uleb128 0
 4906 05db 00       		.uleb128 0
 4907 05dc AD04     		.uleb128 .LEHB271-.LFB1080
 4908 05de 1C       		.uleb128 .LEHE271-.LEHB271
 4909 05df 890A     		.uleb128 .L384-.LFB1080
 4910 05e1 01       		.uleb128 0x1
 4911 05e2 CD04     		.uleb128 .LEHB272-.LFB1080
 4912 05e4 1C       		.uleb128 .LEHE272-.LEHB272
 4913 05e5 870A     		.uleb128 .L385-.LFB1080
 4914 05e7 03       		.uleb128 0x3
 4915 05e8 F804     		.uleb128 .LEHB273-.LFB1080
 4916 05ea 38       		.uleb128 .LEHE273-.LEHB273
 4917 05eb BA05     		.uleb128 .L365-.LFB1080
 4918 05ed 00       		.uleb128 0
 4919 05ee B005     		.uleb128 .LEHB274-.LFB1080
 4920 05f0 05       		.uleb128 .LEHE274-.LEHB274
 4921 05f1 00       		.uleb128 0
 4922 05f2 00       		.uleb128 0
 4923 05f3 C805     		.uleb128 .LEHB275-.LFB1080
 4924 05f5 05       		.uleb128 .LEHE275-.LEHB275
 4925 05f6 00       		.uleb128 0
 4926 05f7 00       		.uleb128 0
 4927 05f8 D705     		.uleb128 .LEHB276-.LFB1080
 4928 05fa 38       		.uleb128 .LEHE276-.LEHB276
 4929 05fb 9906     		.uleb128 .L368-.LFB1080
 4930 05fd 00       		.uleb128 0
 4931 05fe 8F06     		.uleb128 .LEHB277-.LFB1080
 4932 0600 05       		.uleb128 .LEHE277-.LEHB277
 4933 0601 00       		.uleb128 0
 4934 0602 00       		.uleb128 0
 4935 0603 A706     		.uleb128 .LEHB278-.LFB1080
 4936 0605 05       		.uleb128 .LEHE278-.LEHB278
 4937 0606 00       		.uleb128 0
 4938 0607 00       		.uleb128 0
 4939 0608 B606     		.uleb128 .LEHB279-.LFB1080
 4940 060a 38       		.uleb128 .LEHE279-.LEHB279
 4941 060b F806     		.uleb128 .L371-.LFB1080
 4942 060d 00       		.uleb128 0
 4943 060e EE06     		.uleb128 .LEHB280-.LFB1080
 4944 0610 05       		.uleb128 .LEHE280-.LEHB280
 4945 0611 00       		.uleb128 0
 4946 0612 00       		.uleb128 0
 4947 0613 8607     		.uleb128 .LEHB281-.LFB1080
 4948 0615 05       		.uleb128 .LEHE281-.LEHB281
 4949 0616 00       		.uleb128 0
 4950 0617 00       		.uleb128 0
 4951 0618 9507     		.uleb128 .LEHB282-.LFB1080
 4952 061a 38       		.uleb128 .LEHE282-.LEHB282
 4953 061b D707     		.uleb128 .L374-.LFB1080
 4954 061d 00       		.uleb128 0
 4955 061e CD07     		.uleb128 .LEHB283-.LFB1080
 4956 0620 05       		.uleb128 .LEHE283-.LEHB283
 4957 0621 00       		.uleb128 0
 4958 0622 00       		.uleb128 0
 4959 0623 E507     		.uleb128 .LEHB284-.LFB1080
 4960 0625 05       		.uleb128 .LEHE284-.LEHB284
 4961 0626 00       		.uleb128 0
 4962 0627 00       		.uleb128 0
 4963 0628 F407     		.uleb128 .LEHB285-.LFB1080
 4964 062a 38       		.uleb128 .LEHE285-.LEHB285
 4965 062b B608     		.uleb128 .L377-.LFB1080
 4966 062d 00       		.uleb128 0
 4967 062e AC08     		.uleb128 .LEHB286-.LFB1080
 4968 0630 05       		.uleb128 .LEHE286-.LEHB286
 4969 0631 00       		.uleb128 0
 4970 0632 00       		.uleb128 0
 4971 0633 C408     		.uleb128 .LEHB287-.LFB1080
 4972 0635 05       		.uleb128 .LEHE287-.LEHB287
 4973 0636 00       		.uleb128 0
 4974 0637 00       		.uleb128 0
 4975 0638 D308     		.uleb128 .LEHB288-.LFB1080
 4976 063a 38       		.uleb128 .LEHE288-.LEHB288
 4977 063b 9509     		.uleb128 .L380-.LFB1080
 4978 063d 00       		.uleb128 0
 4979 063e 8B09     		.uleb128 .LEHB289-.LFB1080
 4980 0640 05       		.uleb128 .LEHE289-.LEHB289
 4981 0641 00       		.uleb128 0
 4982 0642 00       		.uleb128 0
 4983 0643 A309     		.uleb128 .LEHB290-.LFB1080
 4984 0645 05       		.uleb128 .LEHE290-.LEHB290
 4985 0646 00       		.uleb128 0
 4986 0647 00       		.uleb128 0
 4987 0648 B209     		.uleb128 .LEHB291-.LFB1080
 4988 064a 38       		.uleb128 .LEHE291-.LEHB291
 4989 064b F409     		.uleb128 .L383-.LFB1080
 4990 064d 00       		.uleb128 0
 4991 064e EA09     		.uleb128 .LEHB292-.LFB1080
 4992 0650 05       		.uleb128 .LEHE292-.LEHB292
 4993 0651 00       		.uleb128 0
 4994 0652 00       		.uleb128 0
 4995 0653 820A     		.uleb128 .LEHB293-.LFB1080
 4996 0655 05       		.uleb128 .LEHE293-.LEHB293
 4997 0656 00       		.uleb128 0
 4998 0657 00       		.uleb128 0
 4999 0658 910A     		.uleb128 .LEHB294-.LFB1080
 5000 065a 38       		.uleb128 .LEHE294-.LEHB294
 5001 065b D00A     		.uleb128 .L386-.LFB1080
 5002 065d 00       		.uleb128 0
 5003 065e C90A     		.uleb128 .LEHB295-.LFB1080
 5004 0660 05       		.uleb128 .LEHE295-.LEHB295
 5005 0661 00       		.uleb128 0
 5006 0662 00       		.uleb128 0
 5007 0663 DE0A     		.uleb128 .LEHB296-.LFB1080
 5008 0665 05       		.uleb128 .LEHE296-.LEHB296
 5009 0666 00       		.uleb128 0
 5010 0667 00       		.uleb128 0
 5011              	.LLSDACSE1080:
 5012 0668 01       		.byte	0x1
 5013 0669 00       		.byte	0
 5014 066a 00       		.byte	0
 5015 066b 7D       		.byte	0x7d
 5016              		.align 4
 5017 066c 00000000 		.long	0
 5018              	
 5019              	.LLSDATT1080:
 5020              		.text
 5022              		.section	.rodata
 5023              	.LC30:
 5024 044f 436F6E76 		.string	"Conv_testGetHexUpperNibble"
 5024      5F746573 
 5024      74476574 
 5024      48657855 
 5024      70706572 
 5025              		.section	.text._ZN30TestConv_testGetHexUpperNibbleC2Ev,"axG",@progbits,_ZN30TestConv_testGetHexUpp
 5026              		.align 2
 5027              		.weak	_ZN30TestConv_testGetHexUpperNibbleC2Ev
 5029              	_ZN30TestConv_testGetHexUpperNibbleC2Ev:
 5030              	.LFB1082:
 110:testConv.cpp  **** 
 111:testConv.cpp  **** TEST(Conv_testGetHexUpperNibble) {
 5031              		.loc 3 111 0
 5032              		.cfi_startproc
 5033 0000 55       		pushq	%rbp
 5034              		.cfi_def_cfa_offset 16
 5035              		.cfi_offset 6, -16
 5036 0001 4889E5   		movq	%rsp, %rbp
 5037              		.cfi_def_cfa_register 6
 5038 0004 4883EC10 		subq	$16, %rsp
 5039 0008 48897DF8 		movq	%rdi, -8(%rbp)
 5040              	.LBB6:
 5041              		.loc 3 111 0
 5042 000c E8000000 		call	_ZN13UnitTestSuite12GetSuiteNameEv
 5042      00
 5043 0011 4889C2   		movq	%rax, %rdx
 5044 0014 488B45F8 		movq	-8(%rbp), %rax
 5045 0018 41B86F00 		movl	$111, %r8d
 5045      0000
 5046 001e B9000000 		movl	$.LC1, %ecx
 5046      00
 5047 0023 BE000000 		movl	$.LC30, %esi
 5047      00
 5048 0028 4889C7   		movq	%rax, %rdi
 5049 002b E8000000 		call	_ZN8UnitTest4TestC2EPKcS2_S2_i
 5049      00
 5050 0030 BA000000 		movl	$_ZTV30TestConv_testGetHexUpperNibble+16, %edx
 5050      00
 5051 0035 488B45F8 		movq	-8(%rbp), %rax
 5052 0039 488910   		movq	%rdx, (%rax)
 5053              	.LBE6:
 5054 003c 90       		nop
 5055 003d C9       		leave
 5056              		.cfi_def_cfa 7, 8
 5057 003e C3       		ret
 5058              		.cfi_endproc
 5059              	.LFE1082:
 5061              		.weak	_ZN30TestConv_testGetHexUpperNibbleC1Ev
 5062              		.set	_ZN30TestConv_testGetHexUpperNibbleC1Ev,_ZN30TestConv_testGetHexUpperNibbleC2Ev
 5063              		.globl	testConv_testGetHexUpperNibbleInstance
 5064              		.bss
 5065 0079 00000000 		.align 32
 5065      000000
 5068              	testConv_testGetHexUpperNibbleInstance:
 5069 0080 00000000 		.zero	56
 5069      00000000 
 5069      00000000 
 5069      00000000 
 5069      00000000 
 5070              		.globl	adderConv_testGetHexUpperNibble
 5073              	adderConv_testGetHexUpperNibble:
 5074 00b8 00       		.zero	1
 5075              		.section	.rodata
 5076 046a 00000000 		.align 8
 5076      0000
 5077              	.LC31:
 5078 0470 556E6861 		.string	"Unhandled exception in CHECK_EQUAL('0', getHexUpperNibble(0x0F))"
 5078      6E646C65 
 5078      64206578 
 5078      63657074 
 5078      696F6E20 
 5079 04b1 00000000 		.align 8
 5079      000000
 5080              	.LC32:
 5081 04b8 556E6861 		.string	"Unhandled exception in CHECK_EQUAL('1', getHexUpperNibble(0x1F))"
 5081      6E646C65 
 5081      64206578 
 5081      63657074 
 5081      696F6E20 
 5082 04f9 00000000 		.align 8
 5082      000000
 5083              	.LC33:
 5084 0500 556E6861 		.string	"Unhandled exception in CHECK_EQUAL('2', getHexUpperNibble(0x2F))"
 5084      6E646C65 
 5084      64206578 
 5084      63657074 
 5084      696F6E20 
 5085 0541 00000000 		.align 8
 5085      000000
 5086              	.LC34:
 5087 0548 556E6861 		.string	"Unhandled exception in CHECK_EQUAL('3', getHexUpperNibble(0x3F))"
 5087      6E646C65 
 5087      64206578 
 5087      63657074 
 5087      696F6E20 
 5088 0589 00000000 		.align 8
 5088      000000
 5089              	.LC35:
 5090 0590 556E6861 		.string	"Unhandled exception in CHECK_EQUAL('4', getHexUpperNibble(0x4F))"
 5090      6E646C65 
 5090      64206578 
 5090      63657074 
 5090      696F6E20 
 5091 05d1 00000000 		.align 8
 5091      000000
 5092              	.LC36:
 5093 05d8 556E6861 		.string	"Unhandled exception in CHECK_EQUAL('5', getHexUpperNibble(0x5F))"
 5093      6E646C65 
 5093      64206578 
 5093      63657074 
 5093      696F6E20 
 5094 0619 00000000 		.align 8
 5094      000000
 5095              	.LC37:
 5096 0620 556E6861 		.string	"Unhandled exception in CHECK_EQUAL('6', getHexUpperNibble(0x6F))"
 5096      6E646C65 
 5096      64206578 
 5096      63657074 
 5096      696F6E20 
 5097 0661 00000000 		.align 8
 5097      000000
 5098              	.LC38:
 5099 0668 556E6861 		.string	"Unhandled exception in CHECK_EQUAL('7', getHexUpperNibble(0x7F))"
 5099      6E646C65 
 5099      64206578 
 5099      63657074 
 5099      696F6E20 
 5100 06a9 00000000 		.align 8
 5100      000000
 5101              	.LC39:
 5102 06b0 556E6861 		.string	"Unhandled exception in CHECK_EQUAL('8', getHexUpperNibble(0x8F))"
 5102      6E646C65 
 5102      64206578 
 5102      63657074 
 5102      696F6E20 
 5103 06f1 00000000 		.align 8
 5103      000000
 5104              	.LC40:
 5105 06f8 556E6861 		.string	"Unhandled exception in CHECK_EQUAL('9', getHexUpperNibble(0x9F))"
 5105      6E646C65 
 5105      64206578 
 5105      63657074 
 5105      696F6E20 
 5106 0739 00000000 		.align 8
 5106      000000
 5107              	.LC41:
 5108 0740 556E6861 		.string	"Unhandled exception in CHECK_EQUAL('A', getHexUpperNibble(0xAF))"
 5108      6E646C65 
 5108      64206578 
 5108      63657074 
 5108      696F6E20 
 5109 0781 00000000 		.align 8
 5109      000000
 5110              	.LC42:
 5111 0788 556E6861 		.string	"Unhandled exception in CHECK_EQUAL('B', getHexUpperNibble(0xBF))"
 5111      6E646C65 
 5111      64206578 
 5111      63657074 
 5111      696F6E20 
 5112 07c9 00000000 		.align 8
 5112      000000
 5113              	.LC43:
 5114 07d0 556E6861 		.string	"Unhandled exception in CHECK_EQUAL('C', getHexUpperNibble(0xCF))"
 5114      6E646C65 
 5114      64206578 
 5114      63657074 
 5114      696F6E20 
 5115 0811 00000000 		.align 8
 5115      000000
 5116              	.LC44:
 5117 0818 556E6861 		.string	"Unhandled exception in CHECK_EQUAL('D', getHexUpperNibble(0xDF))"
 5117      6E646C65 
 5117      64206578 
 5117      63657074 
 5117      696F6E20 
 5118 0859 00000000 		.align 8
 5118      000000
 5119              	.LC45:
 5120 0860 556E6861 		.string	"Unhandled exception in CHECK_EQUAL('E', getHexUpperNibble(0xEF))"
