   1              		.file	"testHexIO.cpp"
   2              		.text
   3              	.Ltext0:
   4              		.section	.text._ZStorSt13_Ios_OpenmodeS_,"axG",@progbits,_ZStorSt13_Ios_OpenmodeS_,comdat
   5              		.weak	_ZStorSt13_Ios_OpenmodeS_
   7              	_ZStorSt13_Ios_OpenmodeS_:
   8              	.LFB644:
   9              		.file 1 "/usr/include/c++/5/bits/ios_base.h"
   1:/usr/include/c++/5/bits/ios_base.h **** // Iostreams base classes -*- C++ -*-
   2:/usr/include/c++/5/bits/ios_base.h **** 
   3:/usr/include/c++/5/bits/ios_base.h **** // Copyright (C) 1997-2015 Free Software Foundation, Inc.
   4:/usr/include/c++/5/bits/ios_base.h **** //
   5:/usr/include/c++/5/bits/ios_base.h **** // This file is part of the GNU ISO C++ Library.  This library is free
   6:/usr/include/c++/5/bits/ios_base.h **** // software; you can redistribute it and/or modify it under the
   7:/usr/include/c++/5/bits/ios_base.h **** // terms of the GNU General Public License as published by the
   8:/usr/include/c++/5/bits/ios_base.h **** // Free Software Foundation; either version 3, or (at your option)
   9:/usr/include/c++/5/bits/ios_base.h **** // any later version.
  10:/usr/include/c++/5/bits/ios_base.h **** 
  11:/usr/include/c++/5/bits/ios_base.h **** // This library is distributed in the hope that it will be useful,
  12:/usr/include/c++/5/bits/ios_base.h **** // but WITHOUT ANY WARRANTY; without even the implied warranty of
  13:/usr/include/c++/5/bits/ios_base.h **** // MERCHANTABILITY or FITNESS FOR A PARTICULAR PURPOSE.  See the
  14:/usr/include/c++/5/bits/ios_base.h **** // GNU General Public License for more details.
  15:/usr/include/c++/5/bits/ios_base.h **** 
  16:/usr/include/c++/5/bits/ios_base.h **** // Under Section 7 of GPL version 3, you are granted additional
  17:/usr/include/c++/5/bits/ios_base.h **** // permissions described in the GCC Runtime Library Exception, version
  18:/usr/include/c++/5/bits/ios_base.h **** // 3.1, as published by the Free Software Foundation.
  19:/usr/include/c++/5/bits/ios_base.h **** 
  20:/usr/include/c++/5/bits/ios_base.h **** // You should have received a copy of the GNU General Public License and
  21:/usr/include/c++/5/bits/ios_base.h **** // a copy of the GCC Runtime Library Exception along with this program;
  22:/usr/include/c++/5/bits/ios_base.h **** // see the files COPYING3 and COPYING.RUNTIME respectively.  If not, see
  23:/usr/include/c++/5/bits/ios_base.h **** // <http://www.gnu.org/licenses/>.
  24:/usr/include/c++/5/bits/ios_base.h **** 
  25:/usr/include/c++/5/bits/ios_base.h **** /** @file bits/ios_base.h
  26:/usr/include/c++/5/bits/ios_base.h ****  *  This is an internal header file, included by other library headers.
  27:/usr/include/c++/5/bits/ios_base.h ****  *  Do not attempt to use it directly. @headername{ios}
  28:/usr/include/c++/5/bits/ios_base.h ****  */
  29:/usr/include/c++/5/bits/ios_base.h **** 
  30:/usr/include/c++/5/bits/ios_base.h **** //
  31:/usr/include/c++/5/bits/ios_base.h **** // ISO C++ 14882: 27.4  Iostreams base classes
  32:/usr/include/c++/5/bits/ios_base.h **** //
  33:/usr/include/c++/5/bits/ios_base.h **** 
  34:/usr/include/c++/5/bits/ios_base.h **** #ifndef _IOS_BASE_H
  35:/usr/include/c++/5/bits/ios_base.h **** #define _IOS_BASE_H 1
  36:/usr/include/c++/5/bits/ios_base.h **** 
  37:/usr/include/c++/5/bits/ios_base.h **** #pragma GCC system_header
  38:/usr/include/c++/5/bits/ios_base.h **** 
  39:/usr/include/c++/5/bits/ios_base.h **** #include <ext/atomicity.h>
  40:/usr/include/c++/5/bits/ios_base.h **** #include <bits/localefwd.h>
  41:/usr/include/c++/5/bits/ios_base.h **** #include <bits/locale_classes.h>
  42:/usr/include/c++/5/bits/ios_base.h **** 
  43:/usr/include/c++/5/bits/ios_base.h **** #if __cplusplus < 201103L
  44:/usr/include/c++/5/bits/ios_base.h **** # include <stdexcept>
  45:/usr/include/c++/5/bits/ios_base.h **** #else
  46:/usr/include/c++/5/bits/ios_base.h **** # include <system_error>
  47:/usr/include/c++/5/bits/ios_base.h **** #endif
  48:/usr/include/c++/5/bits/ios_base.h **** 
  49:/usr/include/c++/5/bits/ios_base.h **** namespace std _GLIBCXX_VISIBILITY(default)
  50:/usr/include/c++/5/bits/ios_base.h **** {
  51:/usr/include/c++/5/bits/ios_base.h **** _GLIBCXX_BEGIN_NAMESPACE_VERSION
  52:/usr/include/c++/5/bits/ios_base.h **** 
  53:/usr/include/c++/5/bits/ios_base.h ****   // The following definitions of bitmask types are enums, not ints,
  54:/usr/include/c++/5/bits/ios_base.h ****   // as permitted (but not required) in the standard, in order to provide
  55:/usr/include/c++/5/bits/ios_base.h ****   // better type safety in iostream calls.  A side effect is that
  56:/usr/include/c++/5/bits/ios_base.h ****   // expressions involving them are no longer compile-time constants.
  57:/usr/include/c++/5/bits/ios_base.h ****   enum _Ios_Fmtflags 
  58:/usr/include/c++/5/bits/ios_base.h ****     { 
  59:/usr/include/c++/5/bits/ios_base.h ****       _S_boolalpha 	= 1L << 0,
  60:/usr/include/c++/5/bits/ios_base.h ****       _S_dec 		= 1L << 1,
  61:/usr/include/c++/5/bits/ios_base.h ****       _S_fixed 		= 1L << 2,
  62:/usr/include/c++/5/bits/ios_base.h ****       _S_hex 		= 1L << 3,
  63:/usr/include/c++/5/bits/ios_base.h ****       _S_internal 	= 1L << 4,
  64:/usr/include/c++/5/bits/ios_base.h ****       _S_left 		= 1L << 5,
  65:/usr/include/c++/5/bits/ios_base.h ****       _S_oct 		= 1L << 6,
  66:/usr/include/c++/5/bits/ios_base.h ****       _S_right 		= 1L << 7,
  67:/usr/include/c++/5/bits/ios_base.h ****       _S_scientific 	= 1L << 8,
  68:/usr/include/c++/5/bits/ios_base.h ****       _S_showbase 	= 1L << 9,
  69:/usr/include/c++/5/bits/ios_base.h ****       _S_showpoint 	= 1L << 10,
  70:/usr/include/c++/5/bits/ios_base.h ****       _S_showpos 	= 1L << 11,
  71:/usr/include/c++/5/bits/ios_base.h ****       _S_skipws 	= 1L << 12,
  72:/usr/include/c++/5/bits/ios_base.h ****       _S_unitbuf 	= 1L << 13,
  73:/usr/include/c++/5/bits/ios_base.h ****       _S_uppercase 	= 1L << 14,
  74:/usr/include/c++/5/bits/ios_base.h ****       _S_adjustfield 	= _S_left | _S_right | _S_internal,
  75:/usr/include/c++/5/bits/ios_base.h ****       _S_basefield 	= _S_dec | _S_oct | _S_hex,
  76:/usr/include/c++/5/bits/ios_base.h ****       _S_floatfield 	= _S_scientific | _S_fixed,
  77:/usr/include/c++/5/bits/ios_base.h ****       _S_ios_fmtflags_end = 1L << 16,
  78:/usr/include/c++/5/bits/ios_base.h ****       _S_ios_fmtflags_max = __INT_MAX__,
  79:/usr/include/c++/5/bits/ios_base.h ****       _S_ios_fmtflags_min = ~__INT_MAX__
  80:/usr/include/c++/5/bits/ios_base.h ****     };
  81:/usr/include/c++/5/bits/ios_base.h **** 
  82:/usr/include/c++/5/bits/ios_base.h ****   inline _GLIBCXX_CONSTEXPR _Ios_Fmtflags
  83:/usr/include/c++/5/bits/ios_base.h ****   operator&(_Ios_Fmtflags __a, _Ios_Fmtflags __b)
  84:/usr/include/c++/5/bits/ios_base.h ****   { return _Ios_Fmtflags(static_cast<int>(__a) & static_cast<int>(__b)); }
  85:/usr/include/c++/5/bits/ios_base.h **** 
  86:/usr/include/c++/5/bits/ios_base.h ****   inline _GLIBCXX_CONSTEXPR _Ios_Fmtflags
  87:/usr/include/c++/5/bits/ios_base.h ****   operator|(_Ios_Fmtflags __a, _Ios_Fmtflags __b)
  88:/usr/include/c++/5/bits/ios_base.h ****   { return _Ios_Fmtflags(static_cast<int>(__a) | static_cast<int>(__b)); }
  89:/usr/include/c++/5/bits/ios_base.h **** 
  90:/usr/include/c++/5/bits/ios_base.h ****   inline _GLIBCXX_CONSTEXPR _Ios_Fmtflags
  91:/usr/include/c++/5/bits/ios_base.h ****   operator^(_Ios_Fmtflags __a, _Ios_Fmtflags __b)
  92:/usr/include/c++/5/bits/ios_base.h ****   { return _Ios_Fmtflags(static_cast<int>(__a) ^ static_cast<int>(__b)); }
  93:/usr/include/c++/5/bits/ios_base.h **** 
  94:/usr/include/c++/5/bits/ios_base.h ****   inline _GLIBCXX_CONSTEXPR _Ios_Fmtflags
  95:/usr/include/c++/5/bits/ios_base.h ****   operator~(_Ios_Fmtflags __a)
  96:/usr/include/c++/5/bits/ios_base.h ****   { return _Ios_Fmtflags(~static_cast<int>(__a)); }
  97:/usr/include/c++/5/bits/ios_base.h **** 
  98:/usr/include/c++/5/bits/ios_base.h ****   inline const _Ios_Fmtflags&
  99:/usr/include/c++/5/bits/ios_base.h ****   operator|=(_Ios_Fmtflags& __a, _Ios_Fmtflags __b)
 100:/usr/include/c++/5/bits/ios_base.h ****   { return __a = __a | __b; }
 101:/usr/include/c++/5/bits/ios_base.h **** 
 102:/usr/include/c++/5/bits/ios_base.h ****   inline const _Ios_Fmtflags&
 103:/usr/include/c++/5/bits/ios_base.h ****   operator&=(_Ios_Fmtflags& __a, _Ios_Fmtflags __b)
 104:/usr/include/c++/5/bits/ios_base.h ****   { return __a = __a & __b; }
 105:/usr/include/c++/5/bits/ios_base.h **** 
 106:/usr/include/c++/5/bits/ios_base.h ****   inline const _Ios_Fmtflags&
 107:/usr/include/c++/5/bits/ios_base.h ****   operator^=(_Ios_Fmtflags& __a, _Ios_Fmtflags __b)
 108:/usr/include/c++/5/bits/ios_base.h ****   { return __a = __a ^ __b; }
 109:/usr/include/c++/5/bits/ios_base.h **** 
 110:/usr/include/c++/5/bits/ios_base.h **** 
 111:/usr/include/c++/5/bits/ios_base.h ****   enum _Ios_Openmode 
 112:/usr/include/c++/5/bits/ios_base.h ****     { 
 113:/usr/include/c++/5/bits/ios_base.h ****       _S_app 		= 1L << 0,
 114:/usr/include/c++/5/bits/ios_base.h ****       _S_ate 		= 1L << 1,
 115:/usr/include/c++/5/bits/ios_base.h ****       _S_bin 		= 1L << 2,
 116:/usr/include/c++/5/bits/ios_base.h ****       _S_in 		= 1L << 3,
 117:/usr/include/c++/5/bits/ios_base.h ****       _S_out 		= 1L << 4,
 118:/usr/include/c++/5/bits/ios_base.h ****       _S_trunc 		= 1L << 5,
 119:/usr/include/c++/5/bits/ios_base.h ****       _S_ios_openmode_end = 1L << 16,
 120:/usr/include/c++/5/bits/ios_base.h ****       _S_ios_openmode_max = __INT_MAX__,
 121:/usr/include/c++/5/bits/ios_base.h ****       _S_ios_openmode_min = ~__INT_MAX__
 122:/usr/include/c++/5/bits/ios_base.h ****     };
 123:/usr/include/c++/5/bits/ios_base.h **** 
 124:/usr/include/c++/5/bits/ios_base.h ****   inline _GLIBCXX_CONSTEXPR _Ios_Openmode
 125:/usr/include/c++/5/bits/ios_base.h ****   operator&(_Ios_Openmode __a, _Ios_Openmode __b)
 126:/usr/include/c++/5/bits/ios_base.h ****   { return _Ios_Openmode(static_cast<int>(__a) & static_cast<int>(__b)); }
 127:/usr/include/c++/5/bits/ios_base.h **** 
 128:/usr/include/c++/5/bits/ios_base.h ****   inline _GLIBCXX_CONSTEXPR _Ios_Openmode
 129:/usr/include/c++/5/bits/ios_base.h ****   operator|(_Ios_Openmode __a, _Ios_Openmode __b)
 130:/usr/include/c++/5/bits/ios_base.h ****   { return _Ios_Openmode(static_cast<int>(__a) | static_cast<int>(__b)); }
  10              		.loc 1 130 0
  11              		.cfi_startproc
  12 0000 55       		pushq	%rbp
  13              		.cfi_def_cfa_offset 16
  14              		.cfi_offset 6, -16
  15 0001 4889E5   		movq	%rsp, %rbp
  16              		.cfi_def_cfa_register 6
  17 0004 897DFC   		movl	%edi, -4(%rbp)
  18 0007 8975F8   		movl	%esi, -8(%rbp)
  19              		.loc 1 130 0
  20 000a 8B45FC   		movl	-4(%rbp), %eax
  21 000d 0B45F8   		orl	-8(%rbp), %eax
  22 0010 5D       		popq	%rbp
  23              		.cfi_def_cfa 7, 8
  24 0011 C3       		ret
  25              		.cfi_endproc
  26              	.LFE644:
  28              		.section	.rodata
  29              	.LC0:
  30 0000 44656661 		.string	"DefaultSuite"
  30      756C7453 
  30      75697465 
  30      00
  31              		.section	.text._ZN13UnitTestSuite12GetSuiteNameEv,"axG",@progbits,_ZN13UnitTestSuite12GetSuiteName
  32              		.weak	_ZN13UnitTestSuite12GetSuiteNameEv
  34              	_ZN13UnitTestSuite12GetSuiteNameEv:
  35              	.LFB1085:
  36              		.file 2 "/home/shubham/20140524/makestuff/libs/libutpp/TestSuite.h"
   1:/home/shubham/20140524/makestuff/libs/libutpp/TestSuite.h **** #ifndef UNITTEST_TESTSUITE_H
   2:/home/shubham/20140524/makestuff/libs/libutpp/TestSuite.h **** #define UNITTEST_TESTSUITE_H
   3:/home/shubham/20140524/makestuff/libs/libutpp/TestSuite.h **** 
   4:/home/shubham/20140524/makestuff/libs/libutpp/TestSuite.h **** namespace UnitTestSuite {
   5:/home/shubham/20140524/makestuff/libs/libutpp/TestSuite.h **** 
   6:/home/shubham/20140524/makestuff/libs/libutpp/TestSuite.h ****     inline char const* GetSuiteName ()
   7:/home/shubham/20140524/makestuff/libs/libutpp/TestSuite.h ****     {
  37              		.loc 2 7 0
  38              		.cfi_startproc
  39 0000 55       		pushq	%rbp
  40              		.cfi_def_cfa_offset 16
  41              		.cfi_offset 6, -16
  42 0001 4889E5   		movq	%rsp, %rbp
  43              		.cfi_def_cfa_register 6
   8:/home/shubham/20140524/makestuff/libs/libutpp/TestSuite.h ****         return "DefaultSuite";
  44              		.loc 2 8 0
  45 0004 B8000000 		movl	$.LC0, %eax
  45      00
   9:/home/shubham/20140524/makestuff/libs/libutpp/TestSuite.h ****     }
  46              		.loc 2 9 0
  47 0009 5D       		popq	%rbp
  48              		.cfi_def_cfa 7, 8
  49 000a C3       		ret
  50              		.cfi_endproc
  51              	.LFE1085:
  53              		.section	.text._ZN8UnitTest15MemoryOutStreamC1Ev,"axG",@progbits,_ZN8UnitTest15MemoryOutStreamC1Ev
  54              		.align 2
  55              		.weak	_ZN8UnitTest15MemoryOutStreamC1Ev
  57              	_ZN8UnitTest15MemoryOutStreamC1Ev:
  58              	.LFB1121:
  59              		.file 3 "/home/shubham/20140524/makestuff/libs/libutpp/MemoryOutStream.h"
   1:/home/shubham/20140524/makestuff/libs/libutpp/MemoryOutStream.h **** #ifndef UNITTEST_MEMORYOUTSTREAM_H
   2:/home/shubham/20140524/makestuff/libs/libutpp/MemoryOutStream.h **** #define UNITTEST_MEMORYOUTSTREAM_H
   3:/home/shubham/20140524/makestuff/libs/libutpp/MemoryOutStream.h **** 
   4:/home/shubham/20140524/makestuff/libs/libutpp/MemoryOutStream.h **** #include "Config.h"
   5:/home/shubham/20140524/makestuff/libs/libutpp/MemoryOutStream.h **** 
   6:/home/shubham/20140524/makestuff/libs/libutpp/MemoryOutStream.h **** #ifndef UNITTEST_USE_CUSTOM_STREAMS
   7:/home/shubham/20140524/makestuff/libs/libutpp/MemoryOutStream.h **** 
   8:/home/shubham/20140524/makestuff/libs/libutpp/MemoryOutStream.h **** #include <sstream>
   9:/home/shubham/20140524/makestuff/libs/libutpp/MemoryOutStream.h **** 
  10:/home/shubham/20140524/makestuff/libs/libutpp/MemoryOutStream.h **** namespace UnitTest
  11:/home/shubham/20140524/makestuff/libs/libutpp/MemoryOutStream.h **** {
  12:/home/shubham/20140524/makestuff/libs/libutpp/MemoryOutStream.h **** 
  13:/home/shubham/20140524/makestuff/libs/libutpp/MemoryOutStream.h **** class MemoryOutStream : public std::ostringstream
  14:/home/shubham/20140524/makestuff/libs/libutpp/MemoryOutStream.h **** {
  15:/home/shubham/20140524/makestuff/libs/libutpp/MemoryOutStream.h **** public:
  16:/home/shubham/20140524/makestuff/libs/libutpp/MemoryOutStream.h ****     MemoryOutStream() {}
  60              		.loc 3 16 0
  61              		.cfi_startproc
  62              		.cfi_personality 0x3,__gxx_personality_v0
  63              		.cfi_lsda 0x3,.LLSDA1121
  64 0000 55       		pushq	%rbp
  65              		.cfi_def_cfa_offset 16
  66              		.cfi_offset 6, -16
  67 0001 4889E5   		movq	%rsp, %rbp
  68              		.cfi_def_cfa_register 6
  69 0004 53       		pushq	%rbx
  70 0005 4883EC18 		subq	$24, %rsp
  71              		.cfi_offset 3, -24
  72 0009 48897DE8 		movq	%rdi, -24(%rbp)
  73              	.LBB2:
  74              		.loc 3 16 0
  75 000d 488B45E8 		movq	-24(%rbp), %rax
  76 0011 48059000 		addq	$144, %rax
  76      0000
  77 0017 4889C7   		movq	%rax, %rdi
  78              	.LEHB0:
  79 001a E8000000 		call	_ZNSt9basic_iosIcSt11char_traitsIcEEC2Ev
  79      00
  80              	.LEHE0:
  81 001f B9000000 		movl	$_ZTTN8UnitTest15MemoryOutStreamE+8, %ecx
  81      00
  82 0024 488B45E8 		movq	-24(%rbp), %rax
  83 0028 BA100000 		movl	$16, %edx
  83      00
  84 002d 4889CE   		movq	%rcx, %rsi
  85 0030 4889C7   		movq	%rax, %rdi
  86              	.LEHB1:
  87 0033 E8000000 		call	_ZNSt7__cxx1119basic_ostringstreamIcSt11char_traitsIcESaIcEEC2ESt13_Ios_Openmode
  87      00
  88              	.LEHE1:
  89              		.loc 3 16 0 is_stmt 0 discriminator 9
  90 0038 BA000000 		movl	$_ZTVN8UnitTest15MemoryOutStreamE+24, %edx
  90      00
  91 003d 488B45E8 		movq	-24(%rbp), %rax
  92 0041 488910   		movq	%rdx, (%rax)
  93 0044 BA900000 		movl	$144, %edx
  93      00
  94 0049 488B45E8 		movq	-24(%rbp), %rax
  95 004d 4801D0   		addq	%rdx, %rax
  96 0050 BA000000 		movl	$_ZTVN8UnitTest15MemoryOutStreamE+64, %edx
  96      00
  97 0055 488910   		movq	%rdx, (%rax)
  98 0058 488B45E8 		movq	-24(%rbp), %rax
  99 005c 4883C070 		addq	$112, %rax
 100 0060 4889C7   		movq	%rax, %rdi
 101              	.LEHB2:
 102 0063 E8000000 		call	_ZNSt7__cxx1112basic_stringIcSt11char_traitsIcESaIcEEC1Ev
 102      00
 103              	.LEHE2:
 104              	.LBE2:
 105              		.loc 3 16 0
 106 0068 EB39     		jmp	.L11
 107              	.L9:
 108 006a 4889C3   		movq	%rax, %rbx
 109              	.LBB3:
 110 006d BA000000 		movl	$_ZTTN8UnitTest15MemoryOutStreamE+8, %edx
 110      00
 111 0072 488B45E8 		movq	-24(%rbp), %rax
 112 0076 4889D6   		movq	%rdx, %rsi
 113 0079 4889C7   		movq	%rax, %rdi
 114 007c E8000000 		call	_ZNSt7__cxx1119basic_ostringstreamIcSt11char_traitsIcESaIcEED2Ev
 114      00
 115 0081 EB03     		jmp	.L10
 116              	.L8:
 117 0083 4889C3   		movq	%rax, %rbx
 118              	.L10:
 119              		.loc 3 16 0 discriminator 28
 120 0086 488B45E8 		movq	-24(%rbp), %rax
 121 008a 48059000 		addq	$144, %rax
 121      0000
 122 0090 4889C7   		movq	%rax, %rdi
 123 0093 E8000000 		call	_ZNSt9basic_iosIcSt11char_traitsIcEED2Ev
 123      00
 124 0098 4889D8   		movq	%rbx, %rax
 125 009b 4889C7   		movq	%rax, %rdi
 126              	.LEHB3:
 127 009e E8000000 		call	_Unwind_Resume
 127      00
 128              	.LEHE3:
 129              	.L11:
 130              	.LBE3:
 131              		.loc 3 16 0
 132 00a3 4883C418 		addq	$24, %rsp
 133 00a7 5B       		popq	%rbx
 134 00a8 5D       		popq	%rbp
 135              		.cfi_def_cfa 7, 8
 136 00a9 C3       		ret
 137              		.cfi_endproc
 138              	.LFE1121:
 139              		.globl	__gxx_personality_v0
 140              		.section	.gcc_except_table._ZN8UnitTest15MemoryOutStreamC1Ev,"aG",@progbits,_ZN8UnitTest15MemoryOu
 141              	.LLSDA1121:
 142 0000 FF       		.byte	0xff
 143 0001 FF       		.byte	0xff
 144 0002 01       		.byte	0x1
 145 0003 12       		.uleb128 .LLSDACSE1121-.LLSDACSB1121
 146              	.LLSDACSB1121:
 147 0004 1A       		.uleb128 .LEHB0-.LFB1121
 148 0005 05       		.uleb128 .LEHE0-.LEHB0
 149 0006 00       		.uleb128 0
 150 0007 00       		.uleb128 0
 151 0008 33       		.uleb128 .LEHB1-.LFB1121
 152 0009 05       		.uleb128 .LEHE1-.LEHB1
 153 000a 8301     		.uleb128 .L8-.LFB1121
 154 000c 00       		.uleb128 0
 155 000d 63       		.uleb128 .LEHB2-.LFB1121
 156 000e 05       		.uleb128 .LEHE2-.LEHB2
 157 000f 6A       		.uleb128 .L9-.LFB1121
 158 0010 00       		.uleb128 0
 159 0011 9E01     		.uleb128 .LEHB3-.LFB1121
 160 0013 05       		.uleb128 .LEHE3-.LEHB3
 161 0014 00       		.uleb128 0
 162 0015 00       		.uleb128 0
 163              	.LLSDACSE1121:
 164              		.section	.text._ZN8UnitTest15MemoryOutStreamC1Ev,"axG",@progbits,_ZN8UnitTest15MemoryOutStreamC1Ev
 166              		.section	.rodata
 167              	.LC1:
 168 000d 74657374 		.string	"testHexIO.cpp"
 168      48657849 
 168      4F2E6370 
 168      7000
 169              	.LC2:
 170 001b 48657849 		.string	"HexIO_testValidDataLine"
 170      4F5F7465 
 170      73745661 
 170      6C696444 
 170      6174614C 
 171              		.section	.text._ZN27TestHexIO_testValidDataLineC2Ev,"axG",@progbits,_ZN27TestHexIO_testValidDataLi
 172              		.align 2
 173              		.weak	_ZN27TestHexIO_testValidDataLineC2Ev
 175              	_ZN27TestHexIO_testValidDataLineC2Ev:
 176              	.LFB1138:
 177              		.file 4 "testHexIO.cpp"
   1:testHexIO.cpp **** /*
   2:testHexIO.cpp ****  * Copyright (C) 2009-2012 Chris McClelland
   3:testHexIO.cpp ****  *
   4:testHexIO.cpp ****  * This program is free software: you can redistribute it and/or modify
   5:testHexIO.cpp ****  * it under the terms of the GNU Lesser General Public License as published by
   6:testHexIO.cpp ****  * the Free Software Foundation, either version 3 of the License, or
   7:testHexIO.cpp ****  * (at your option) any later version.
   8:testHexIO.cpp ****  *
   9:testHexIO.cpp ****  * This program is distributed in the hope that it will be useful,
  10:testHexIO.cpp ****  * but WITHOUT ANY WARRANTY; without even the implied warranty of
  11:testHexIO.cpp ****  * MERCHANTABILITY or FITNESS FOR A PARTICULAR PURPOSE.  See the
  12:testHexIO.cpp ****  * GNU Lesser General Public License for more details.
  13:testHexIO.cpp ****  *
  14:testHexIO.cpp ****  * You should have received a copy of the GNU Lesser General Public License
  15:testHexIO.cpp ****  * along with this program.  If not, see <http://www.gnu.org/licenses/>.
  16:testHexIO.cpp ****  */
  17:testHexIO.cpp **** #include <cstdarg>
  18:testHexIO.cpp **** #include <string>
  19:testHexIO.cpp **** #include <fstream>
  20:testHexIO.cpp **** #include <cstring>
  21:testHexIO.cpp **** #include <UnitTest++.h>
  22:testHexIO.cpp **** #include "../private.h"
  23:testHexIO.cpp **** #include "../libbuffer.h"
  24:testHexIO.cpp **** 
  25:testHexIO.cpp **** using namespace std;
  26:testHexIO.cpp **** 
  27:testHexIO.cpp **** TEST(HexIO_testValidDataLine) {
 178              		.loc 4 27 0 is_stmt 1
 179              		.cfi_startproc
 180 0000 55       		pushq	%rbp
 181              		.cfi_def_cfa_offset 16
 182              		.cfi_offset 6, -16
 183 0001 4889E5   		movq	%rsp, %rbp
 184              		.cfi_def_cfa_register 6
 185 0004 4883EC10 		subq	$16, %rsp
 186 0008 48897DF8 		movq	%rdi, -8(%rbp)
 187              	.LBB4:
 188              		.loc 4 27 0
 189 000c E8000000 		call	_ZN13UnitTestSuite12GetSuiteNameEv
 189      00
 190 0011 4889C2   		movq	%rax, %rdx
 191 0014 488B45F8 		movq	-8(%rbp), %rax
 192 0018 41B81B00 		movl	$27, %r8d
 192      0000
 193 001e B9000000 		movl	$.LC1, %ecx
 193      00
 194 0023 BE000000 		movl	$.LC2, %esi
 194      00
 195 0028 4889C7   		movq	%rax, %rdi
 196 002b E8000000 		call	_ZN8UnitTest4TestC2EPKcS2_S2_i
 196      00
 197 0030 BA000000 		movl	$_ZTV27TestHexIO_testValidDataLine+16, %edx
 197      00
 198 0035 488B45F8 		movq	-8(%rbp), %rax
 199 0039 488910   		movq	%rdx, (%rax)
 200              	.LBE4:
 201 003c 90       		nop
 202 003d C9       		leave
 203              		.cfi_def_cfa 7, 8
 204 003e C3       		ret
 205              		.cfi_endproc
 206              	.LFE1138:
 208              		.weak	_ZN27TestHexIO_testValidDataLineC1Ev
 209              		.set	_ZN27TestHexIO_testValidDataLineC1Ev,_ZN27TestHexIO_testValidDataLineC2Ev
 210              		.globl	testHexIO_testValidDataLineInstance
 211              		.bss
 212              		.align 32
 215              	testHexIO_testValidDataLineInstance:
 216 0000 00000000 		.zero	56
 216      00000000 
 216      00000000 
 216      00000000 
 216      00000000 
 217              		.globl	adderHexIO_testValidDataLine
 220              	adderHexIO_testValidDataLine:
 221 0038 00       		.zero	1
 222              		.section	.rodata
 223              	.LC3:
 224 0033 3A303430 		.string	":040BE10075820022F7\n"
 224      42453130 
 224      30373538 
 224      32303032 
 224      3246370A 
 225              		.align 8
 226              	.LC4:
 227 0048 556E6861 		.string	"Unhandled exception in CHECK_EQUAL(BUF_SUCCESS, status)"
 227      6E646C65 
 227      64206578 
 227      63657074 
 227      696F6E20 
 228              		.align 8
 229              	.LC5:
 230 0080 556E6861 		.string	"Unhandled exception in CHECK_EQUAL(0x00, recordType)"
 230      6E646C65 
 230      64206578 
 230      63657074 
 230      696F6E20 
 231 00b5 000000   		.align 8
 232              	.LC6:
 233 00b8 556E6861 		.string	"Unhandled exception in CHECK_EQUAL(0x0BE1+4UL, data.length)"
 233      6E646C65 
 233      64206578 
 233      63657074 
 233      696F6E20 
 234 00f4 00000000 		.align 8
 235              	.LC7:
 236 00f8 556E6861 		.string	"Unhandled exception in CHECK_EQUAL(0x0BE1+4UL, mask.length)"
 236      6E646C65 
 236      64206578 
 236      63657074 
 236      696F6E20 
 237 0134 00000000 		.align 8
 238              	.LC8:
 239 0138 556E6861 		.string	"Unhandled exception in CHECK_EQUAL(4096UL, data.capacity)"
 239      6E646C65 
 239      64206578 
 239      63657074 
 239      696F6E20 
 240 0172 00000000 		.align 8
 240      0000
 241              	.LC9:
 242 0178 556E6861 		.string	"Unhandled exception in CHECK_EQUAL(4096UL, mask.capacity)"
 242      6E646C65 
 242      64206578 
 242      63657074 
 242      696F6E20 
 243 01b2 00000000 		.align 8
 243      0000
 244              	.LC10:
 245 01b8 556E6861 		.string	"Unhandled exception in CHECK_ARRAY_EQUAL(expected, data.data + 0x0BE1)"
 245      6E646C65 
 245      64206578 
 245      63657074 
 245      696F6E20 
 246              		.text
 247              		.align 2
 248              		.globl	_ZNK27TestHexIO_testValidDataLine7RunImplEv
 250              	_ZNK27TestHexIO_testValidDataLine7RunImplEv:
 251              	.LFB1140:
 252              		.loc 4 27 0
 253              		.cfi_startproc
 254              		.cfi_personality 0x3,__gxx_personality_v0
 255              		.cfi_lsda 0x3,.LLSDA1140
 256 0000 55       		pushq	%rbp
 257              		.cfi_def_cfa_offset 16
 258              		.cfi_offset 6, -16
 259 0001 4889E5   		movq	%rsp, %rbp
 260              		.cfi_def_cfa_register 6
 261 0004 53       		pushq	%rbx
 262 0005 4881ECA8 		subq	$168, %rsp
 262      000000
 263              		.cfi_offset 3, -24
 264 000c 4889BD58 		movq	%rdi, -168(%rbp)
 264      FFFFFF
 265              		.loc 4 27 0
 266 0013 64488B04 		movq	%fs:40, %rax
 266      25280000 
 266      00
 267 001c 488945E8 		movq	%rax, -24(%rbp)
 268 0020 31C0     		xorl	%eax, %eax
  28:testHexIO.cpp **** 	Buffer data, mask;
  29:testHexIO.cpp **** 	BufferStatus status;
  30:testHexIO.cpp **** 	const char *line = ":040BE10075820022F7\n";
 269              		.loc 4 30 0
 270 0022 48C78578 		movq	$.LC3, -136(%rbp)
 270      FFFFFF00 
 270      000000
  31:testHexIO.cpp **** 	uint8 recordType;
  32:testHexIO.cpp **** 	uint32 seg = 0x00000000;
 271              		.loc 4 32 0
 272 002d C7856CFF 		movl	$0, -148(%rbp)
 272      FFFF0000 
 272      0000
  33:testHexIO.cpp **** 	const uint8 expected[] = {0x75, 0x82, 0x00, 0x22};
 273              		.loc 4 33 0
 274 0037 C645E075 		movb	$117, -32(%rbp)
 275 003b C645E182 		movb	$-126, -31(%rbp)
 276 003f C645E200 		movb	$0, -30(%rbp)
 277 0043 C645E322 		movb	$34, -29(%rbp)
  34:testHexIO.cpp **** 	status = bufInitialise(&data, 1024, 0x00, NULL);
 278              		.loc 4 34 0
 279 0047 488D4580 		leaq	-128(%rbp), %rax
 280 004b B9000000 		movl	$0, %ecx
 280      00
 281 0050 BA000000 		movl	$0, %edx
 281      00
 282 0055 BE000400 		movl	$1024, %esi
 282      00
 283 005a 4889C7   		movq	%rax, %rdi
 284              	.LEHB4:
 285 005d E8000000 		call	bufInitialise
 285      00
 286              	.LEHE4:
 287 0062 898568FF 		movl	%eax, -152(%rbp)
 287      FFFF
 288              	.LEHB5:
  35:testHexIO.cpp **** 	CHECK_EQUAL(BUF_SUCCESS, status);
 289              		.loc 4 35 0
 290 0068 E8000000 		call	_ZN8UnitTest11CurrentTest7DetailsEv
 290      00
 291 006d 488B08   		movq	(%rax), %rcx
 292 0070 488D45C0 		leaq	-64(%rbp), %rax
 293 0074 BA230000 		movl	$35, %edx
 293      00
 294 0079 4889CE   		movq	%rcx, %rsi
 295 007c 4889C7   		movq	%rax, %rdi
 296 007f E8000000 		call	_ZN8UnitTest11TestDetailsC1ERKS0_i
 296      00
 297              	.LEHE5:
 298              		.loc 4 35 0 is_stmt 0 discriminator 2
 299 0084 C745A000 		movl	$0, -96(%rbp)
 299      000000
 300              	.LEHB6:
 301 008b E8000000 		call	_ZN8UnitTest11CurrentTest7ResultsEv
 301      00
 302 0090 488B00   		movq	(%rax), %rax
 303 0093 488D4DC0 		leaq	-64(%rbp), %rcx
 304 0097 488D9568 		leaq	-152(%rbp), %rdx
 304      FFFFFF
 305 009e 488D75A0 		leaq	-96(%rbp), %rsi
 306 00a2 4889C7   		movq	%rax, %rdi
 307 00a5 E8000000 		call	_ZN8UnitTest10CheckEqualI12BufferStatusS1_EEvRNS_11TestResultsERKT_RKT0_RKNS_11TestDetailsE
 307      00
 308              	.LEHE6:
 309              	.L16:
  36:testHexIO.cpp **** 	status = bufInitialise(&mask, 1024, 0x00, NULL);
 310              		.loc 4 36 0 is_stmt 1
 311 00aa 488D45A0 		leaq	-96(%rbp), %rax
 312 00ae B9000000 		movl	$0, %ecx
 312      00
 313 00b3 BA000000 		movl	$0, %edx
 313      00
 314 00b8 BE000400 		movl	$1024, %esi
 314      00
 315 00bd 4889C7   		movq	%rax, %rdi
 316              	.LEHB7:
 317 00c0 E8000000 		call	bufInitialise
 317      00
 318              	.LEHE7:
 319 00c5 898568FF 		movl	%eax, -152(%rbp)
 319      FFFF
 320              	.LEHB8:
  37:testHexIO.cpp **** 	CHECK_EQUAL(BUF_SUCCESS, status);
 321              		.loc 4 37 0
 322 00cb E8000000 		call	_ZN8UnitTest11CurrentTest7DetailsEv
 322      00
 323 00d0 488B08   		movq	(%rax), %rcx
 324 00d3 488D45C0 		leaq	-64(%rbp), %rax
 325 00d7 BA250000 		movl	$37, %edx
 325      00
 326 00dc 4889CE   		movq	%rcx, %rsi
 327 00df 4889C7   		movq	%rax, %rdi
 328 00e2 E8000000 		call	_ZN8UnitTest11TestDetailsC1ERKS0_i
 328      00
 329              	.LEHE8:
 330              		.loc 4 37 0 is_stmt 0 discriminator 2
 331 00e7 C78570FF 		movl	$0, -144(%rbp)
 331      FFFF0000 
 331      0000
 332              	.LEHB9:
 333 00f1 E8000000 		call	_ZN8UnitTest11CurrentTest7ResultsEv
 333      00
 334 00f6 488B00   		movq	(%rax), %rax
 335 00f9 488D4DC0 		leaq	-64(%rbp), %rcx
 336 00fd 488D9568 		leaq	-152(%rbp), %rdx
 336      FFFFFF
 337 0104 488DB570 		leaq	-144(%rbp), %rsi
 337      FFFFFF
 338 010b 4889C7   		movq	%rax, %rdi
 339 010e E8000000 		call	_ZN8UnitTest10CheckEqualI12BufferStatusS1_EEvRNS_11TestResultsERKT_RKT0_RKNS_11TestDetailsE
 339      00
 340              	.LEHE9:
 341              	.L20:
  38:testHexIO.cpp **** 	status = bufProcessLine(line, 0, &data, &mask, &seg, &recordType, NULL);
 342              		.loc 4 38 0 is_stmt 1
 343 0113 488DBD67 		leaq	-153(%rbp), %rdi
 343      FFFFFF
 344 011a 488DB56C 		leaq	-148(%rbp), %rsi
 344      FFFFFF
 345 0121 488D4DA0 		leaq	-96(%rbp), %rcx
 346 0125 488D5580 		leaq	-128(%rbp), %rdx
 347 0129 488B8578 		movq	-136(%rbp), %rax
 347      FFFFFF
 348 0130 4883EC08 		subq	$8, %rsp
 349 0134 6A00     		pushq	$0
 350 0136 4989F9   		movq	%rdi, %r9
 351 0139 4989F0   		movq	%rsi, %r8
 352 013c BE000000 		movl	$0, %esi
 352      00
 353 0141 4889C7   		movq	%rax, %rdi
 354              	.LEHB10:
 355 0144 E8000000 		call	bufProcessLine
 355      00
 356              	.LEHE10:
 357 0149 4883C410 		addq	$16, %rsp
 358 014d 898568FF 		movl	%eax, -152(%rbp)
 358      FFFF
 359              	.LEHB11:
  39:testHexIO.cpp **** 	CHECK_EQUAL(BUF_SUCCESS, status);
 360              		.loc 4 39 0
 361 0153 E8000000 		call	_ZN8UnitTest11CurrentTest7DetailsEv
 361      00
 362 0158 488B08   		movq	(%rax), %rcx
 363 015b 488D45C0 		leaq	-64(%rbp), %rax
 364 015f BA270000 		movl	$39, %edx
 364      00
 365 0164 4889CE   		movq	%rcx, %rsi
 366 0167 4889C7   		movq	%rax, %rdi
 367 016a E8000000 		call	_ZN8UnitTest11TestDetailsC1ERKS0_i
 367      00
 368              	.LEHE11:
 369              		.loc 4 39 0 is_stmt 0 discriminator 2
 370 016f C78570FF 		movl	$0, -144(%rbp)
 370      FFFF0000 
 370      0000
 371              	.LEHB12:
 372 0179 E8000000 		call	_ZN8UnitTest11CurrentTest7ResultsEv
 372      00
 373 017e 488B00   		movq	(%rax), %rax
 374 0181 488D4DC0 		leaq	-64(%rbp), %rcx
 375 0185 488D9568 		leaq	-152(%rbp), %rdx
 375      FFFFFF
 376 018c 488DB570 		leaq	-144(%rbp), %rsi
 376      FFFFFF
 377 0193 4889C7   		movq	%rax, %rdi
 378 0196 E8000000 		call	_ZN8UnitTest10CheckEqualI12BufferStatusS1_EEvRNS_11TestResultsERKT_RKT0_RKNS_11TestDetailsE
 378      00
 379              	.LEHE12:
 380              	.L24:
 381              	.LEHB13:
  40:testHexIO.cpp **** 	CHECK_EQUAL(0x00, recordType);
 382              		.loc 4 40 0 is_stmt 1
 383 019b E8000000 		call	_ZN8UnitTest11CurrentTest7DetailsEv
 383      00
 384 01a0 488B08   		movq	(%rax), %rcx
 385 01a3 488D45C0 		leaq	-64(%rbp), %rax
 386 01a7 BA280000 		movl	$40, %edx
 386      00
 387 01ac 4889CE   		movq	%rcx, %rsi
 388 01af 4889C7   		movq	%rax, %rdi
 389 01b2 E8000000 		call	_ZN8UnitTest11TestDetailsC1ERKS0_i
 389      00
 390              	.LEHE13:
 391              		.loc 4 40 0 is_stmt 0 discriminator 2
 392 01b7 C78570FF 		movl	$0, -144(%rbp)
 392      FFFF0000 
 392      0000
 393              	.LEHB14:
 394 01c1 E8000000 		call	_ZN8UnitTest11CurrentTest7ResultsEv
 394      00
 395 01c6 488B00   		movq	(%rax), %rax
 396 01c9 488D4DC0 		leaq	-64(%rbp), %rcx
 397 01cd 488D9567 		leaq	-153(%rbp), %rdx
 397      FFFFFF
 398 01d4 488DB570 		leaq	-144(%rbp), %rsi
 398      FFFFFF
 399 01db 4889C7   		movq	%rax, %rdi
 400 01de E8000000 		call	_ZN8UnitTest10CheckEqualIihEEvRNS_11TestResultsERKT_RKT0_RKNS_11TestDetailsE
 400      00
 401              	.LEHE14:
 402              	.L28:
 403              	.LEHB15:
  41:testHexIO.cpp **** 	CHECK_EQUAL(0x0BE1+4UL, data.length);
 404              		.loc 4 41 0 is_stmt 1
 405 01e3 E8000000 		call	_ZN8UnitTest11CurrentTest7DetailsEv
 405      00
 406 01e8 488B08   		movq	(%rax), %rcx
 407 01eb 488D45C0 		leaq	-64(%rbp), %rax
 408 01ef BA290000 		movl	$41, %edx
 408      00
 409 01f4 4889CE   		movq	%rcx, %rsi
 410 01f7 4889C7   		movq	%rax, %rdi
 411 01fa E8000000 		call	_ZN8UnitTest11TestDetailsC1ERKS0_i
 411      00
 412              	.LEHE15:
 413              		.loc 4 41 0 is_stmt 0 discriminator 2
 414 01ff 48C78570 		movq	$3045, -144(%rbp)
 414      FFFFFFE5 
 414      0B0000
 415              	.LEHB16:
 416 020a E8000000 		call	_ZN8UnitTest11CurrentTest7ResultsEv
 416      00
 417 020f 488B00   		movq	(%rax), %rax
 418 0212 488D55C0 		leaq	-64(%rbp), %rdx
 419 0216 488D4D80 		leaq	-128(%rbp), %rcx
 420 021a 488D7908 		leaq	8(%rcx), %rdi
 421 021e 488DB570 		leaq	-144(%rbp), %rsi
 421      FFFFFF
 422 0225 4889D1   		movq	%rdx, %rcx
 423 0228 4889FA   		movq	%rdi, %rdx
 424 022b 4889C7   		movq	%rax, %rdi
 425 022e E8000000 		call	_ZN8UnitTest10CheckEqualImmEEvRNS_11TestResultsERKT_RKT0_RKNS_11TestDetailsE
 425      00
 426              	.LEHE16:
 427              	.L32:
 428              	.LEHB17:
  42:testHexIO.cpp **** 	CHECK_EQUAL(0x0BE1+4UL, mask.length);
 429              		.loc 4 42 0 is_stmt 1
 430 0233 E8000000 		call	_ZN8UnitTest11CurrentTest7DetailsEv
 430      00
 431 0238 488B08   		movq	(%rax), %rcx
 432 023b 488D45C0 		leaq	-64(%rbp), %rax
 433 023f BA2A0000 		movl	$42, %edx
 433      00
 434 0244 4889CE   		movq	%rcx, %rsi
 435 0247 4889C7   		movq	%rax, %rdi
 436 024a E8000000 		call	_ZN8UnitTest11TestDetailsC1ERKS0_i
 436      00
 437              	.LEHE17:
 438              		.loc 4 42 0 is_stmt 0 discriminator 2
 439 024f 48C78570 		movq	$3045, -144(%rbp)
 439      FFFFFFE5 
 439      0B0000
 440              	.LEHB18:
 441 025a E8000000 		call	_ZN8UnitTest11CurrentTest7ResultsEv
 441      00
 442 025f 488B00   		movq	(%rax), %rax
 443 0262 488D55C0 		leaq	-64(%rbp), %rdx
 444 0266 488D4DA0 		leaq	-96(%rbp), %rcx
 445 026a 488D7908 		leaq	8(%rcx), %rdi
 446 026e 488DB570 		leaq	-144(%rbp), %rsi
 446      FFFFFF
 447 0275 4889D1   		movq	%rdx, %rcx
 448 0278 4889FA   		movq	%rdi, %rdx
 449 027b 4889C7   		movq	%rax, %rdi
 450 027e E8000000 		call	_ZN8UnitTest10CheckEqualImmEEvRNS_11TestResultsERKT_RKT0_RKNS_11TestDetailsE
 450      00
 451              	.LEHE18:
 452              	.L36:
 453              	.LEHB19:
  43:testHexIO.cpp **** 	CHECK_EQUAL(4096UL, data.capacity);
 454              		.loc 4 43 0 is_stmt 1
 455 0283 E8000000 		call	_ZN8UnitTest11CurrentTest7DetailsEv
 455      00
 456 0288 488B08   		movq	(%rax), %rcx
 457 028b 488D45C0 		leaq	-64(%rbp), %rax
 458 028f BA2B0000 		movl	$43, %edx
 458      00
 459 0294 4889CE   		movq	%rcx, %rsi
 460 0297 4889C7   		movq	%rax, %rdi
 461 029a E8000000 		call	_ZN8UnitTest11TestDetailsC1ERKS0_i
 461      00
 462              	.LEHE19:
 463              		.loc 4 43 0 is_stmt 0 discriminator 2
 464 029f 48C78570 		movq	$4096, -144(%rbp)
 464      FFFFFF00 
 464      100000
 465              	.LEHB20:
 466 02aa E8000000 		call	_ZN8UnitTest11CurrentTest7ResultsEv
 466      00
 467 02af 488B00   		movq	(%rax), %rax
 468 02b2 488D55C0 		leaq	-64(%rbp), %rdx
 469 02b6 488D4D80 		leaq	-128(%rbp), %rcx
 470 02ba 488D7910 		leaq	16(%rcx), %rdi
 471 02be 488DB570 		leaq	-144(%rbp), %rsi
 471      FFFFFF
 472 02c5 4889D1   		movq	%rdx, %rcx
 473 02c8 4889FA   		movq	%rdi, %rdx
 474 02cb 4889C7   		movq	%rax, %rdi
 475 02ce E8000000 		call	_ZN8UnitTest10CheckEqualImmEEvRNS_11TestResultsERKT_RKT0_RKNS_11TestDetailsE
 475      00
 476              	.LEHE20:
 477              	.L40:
 478              	.LEHB21:
  44:testHexIO.cpp **** 	CHECK_EQUAL(4096UL, mask.capacity);
 479              		.loc 4 44 0 is_stmt 1
 480 02d3 E8000000 		call	_ZN8UnitTest11CurrentTest7DetailsEv
 480      00
 481 02d8 488B08   		movq	(%rax), %rcx
 482 02db 488D45C0 		leaq	-64(%rbp), %rax
 483 02df BA2C0000 		movl	$44, %edx
 483      00
 484 02e4 4889CE   		movq	%rcx, %rsi
 485 02e7 4889C7   		movq	%rax, %rdi
 486 02ea E8000000 		call	_ZN8UnitTest11TestDetailsC1ERKS0_i
 486      00
 487              	.LEHE21:
 488              		.loc 4 44 0 is_stmt 0 discriminator 2
 489 02ef 48C78570 		movq	$4096, -144(%rbp)
 489      FFFFFF00 
 489      100000
 490              	.LEHB22:
 491 02fa E8000000 		call	_ZN8UnitTest11CurrentTest7ResultsEv
 491      00
 492 02ff 488B00   		movq	(%rax), %rax
 493 0302 488D55C0 		leaq	-64(%rbp), %rdx
 494 0306 488D4DA0 		leaq	-96(%rbp), %rcx
 495 030a 488D7910 		leaq	16(%rcx), %rdi
 496 030e 488DB570 		leaq	-144(%rbp), %rsi
 496      FFFFFF
 497 0315 4889D1   		movq	%rdx, %rcx
 498 0318 4889FA   		movq	%rdi, %rdx
 499 031b 4889C7   		movq	%rax, %rdi
 500 031e E8000000 		call	_ZN8UnitTest10CheckEqualImmEEvRNS_11TestResultsERKT_RKT0_RKNS_11TestDetailsE
 500      00
 501              	.LEHE22:
 502              	.L44:
 503              	.LEHB23:
  45:testHexIO.cpp **** 	CHECK_ARRAY_EQUAL(expected, data.data + 0x0BE1, 4);
 504              		.loc 4 45 0 is_stmt 1
 505 0323 E8000000 		call	_ZN8UnitTest11CurrentTest7DetailsEv
 505      00
 506 0328 488B08   		movq	(%rax), %rcx
 507 032b 488D45C0 		leaq	-64(%rbp), %rax
 508 032f BA2D0000 		movl	$45, %edx
 508      00
 509 0334 4889CE   		movq	%rcx, %rsi
 510 0337 4889C7   		movq	%rax, %rdi
 511 033a E8000000 		call	_ZN8UnitTest11TestDetailsC1ERKS0_i
 511      00
 512              	.LEHE23:
 513              		.loc 4 45 0 is_stmt 0 discriminator 2
 514 033f 488B4580 		movq	-128(%rbp), %rax
 515 0343 4805E10B 		addq	$3041, %rax
 515      0000
 516 0349 48898570 		movq	%rax, -144(%rbp)
 516      FFFFFF
 517              	.LEHB24:
 518 0350 E8000000 		call	_ZN8UnitTest11CurrentTest7ResultsEv
 518      00
 519 0355 488B00   		movq	(%rax), %rax
 520 0358 488D4DC0 		leaq	-64(%rbp), %rcx
 521 035c 488D9570 		leaq	-144(%rbp), %rdx
 521      FFFFFF
 522 0363 488D75E0 		leaq	-32(%rbp), %rsi
 523 0367 4989C8   		movq	%rcx, %r8
 524 036a B9040000 		movl	$4, %ecx
 524      00
 525 036f 4889C7   		movq	%rax, %rdi
 526 0372 E8000000 		call	_ZN8UnitTest15CheckArrayEqualIA4_hPhEEvRNS_11TestResultsERKT_RKT0_iRKNS_11TestDetailsE
 526      00
 527              	.LEHE24:
 528              	.L48:
  46:testHexIO.cpp **** 	bufDestroy(&mask);
 529              		.loc 4 46 0 is_stmt 1
 530 0377 488D45A0 		leaq	-96(%rbp), %rax
 531 037b 4889C7   		movq	%rax, %rdi
 532              	.LEHB25:
 533 037e E8000000 		call	bufDestroy
 533      00
  47:testHexIO.cpp **** 	bufDestroy(&data);
 534              		.loc 4 47 0
 535 0383 488D4580 		leaq	-128(%rbp), %rax
 536 0387 4889C7   		movq	%rax, %rdi
 537 038a E8000000 		call	bufDestroy
 537      00
 538              	.LEHE25:
  48:testHexIO.cpp **** }
 539              		.loc 4 48 0
 540 038f 90       		nop
 541 0390 488B45E8 		movq	-24(%rbp), %rax
 542 0394 64483304 		xorq	%fs:40, %rax
 542      25280000 
 542      00
 543 039d 0F846103 		je	.L50
 543      0000
 544 03a3 E9570300 		jmp	.L78
 544      00
 545              	.L52:
 546 03a8 EB00     		jmp	.L15
 547              	.L51:
 548              	.L15:
  35:testHexIO.cpp **** 	status = bufInitialise(&mask, 1024, 0x00, NULL);
 549              		.loc 4 35 0
 550 03aa 4889C7   		movq	%rax, %rdi
 551 03ad E8000000 		call	__cxa_begin_catch
 551      00
 552              	.LEHB26:
 553 03b2 E8000000 		call	_ZN8UnitTest11CurrentTest7DetailsEv
 553      00
 554 03b7 488B08   		movq	(%rax), %rcx
 555 03ba 488D45C0 		leaq	-64(%rbp), %rax
 556 03be BA230000 		movl	$35, %edx
 556      00
 557 03c3 4889CE   		movq	%rcx, %rsi
 558 03c6 4889C7   		movq	%rax, %rdi
 559 03c9 E8000000 		call	_ZN8UnitTest11TestDetailsC1ERKS0_i
 559      00
  35:testHexIO.cpp **** 	status = bufInitialise(&mask, 1024, 0x00, NULL);
 560              		.loc 4 35 0 is_stmt 0 discriminator 10
 561 03ce E8000000 		call	_ZN8UnitTest11CurrentTest7ResultsEv
 561      00
 562 03d3 488B00   		movq	(%rax), %rax
 563 03d6 488D4DC0 		leaq	-64(%rbp), %rcx
 564 03da BA000000 		movl	$.LC4, %edx
 564      00
 565 03df 4889CE   		movq	%rcx, %rsi
 566 03e2 4889C7   		movq	%rax, %rdi
 567 03e5 E8000000 		call	_ZN8UnitTest11TestResults13OnTestFailureERKNS_11TestDetailsEPKc
 567      00
 568              	.LEHE26:
 569              	.LEHB27:
  35:testHexIO.cpp **** 	status = bufInitialise(&mask, 1024, 0x00, NULL);
 570              		.loc 4 35 0 discriminator 14
 571 03ea E8000000 		call	__cxa_end_catch
 571      00
 572              	.LEHE27:
 573 03ef E9B6FCFF 		jmp	.L16
 573      FF
 574              	.L53:
 575 03f4 4889C3   		movq	%rax, %rbx
  35:testHexIO.cpp **** 	status = bufInitialise(&mask, 1024, 0x00, NULL);
 576              		.loc 4 35 0
 577 03f7 E8000000 		call	__cxa_end_catch
 577      00
 578 03fc 4889D8   		movq	%rbx, %rax
 579 03ff 4889C7   		movq	%rax, %rdi
 580              	.LEHB28:
 581 0402 E8000000 		call	_Unwind_Resume
 581      00
 582              	.LEHE28:
 583              	.L55:
 584 0407 EB00     		jmp	.L19
 585              	.L54:
 586              	.L19:
  37:testHexIO.cpp **** 	status = bufProcessLine(line, 0, &data, &mask, &seg, &recordType, NULL);
 587              		.loc 4 37 0 is_stmt 1
 588 0409 4889C7   		movq	%rax, %rdi
 589 040c E8000000 		call	__cxa_begin_catch
 589      00
 590              	.LEHB29:
 591 0411 E8000000 		call	_ZN8UnitTest11CurrentTest7DetailsEv
 591      00
 592 0416 488B08   		movq	(%rax), %rcx
 593 0419 488D45C0 		leaq	-64(%rbp), %rax
 594 041d BA250000 		movl	$37, %edx
 594      00
 595 0422 4889CE   		movq	%rcx, %rsi
 596 0425 4889C7   		movq	%rax, %rdi
 597 0428 E8000000 		call	_ZN8UnitTest11TestDetailsC1ERKS0_i
 597      00
  37:testHexIO.cpp **** 	status = bufProcessLine(line, 0, &data, &mask, &seg, &recordType, NULL);
 598              		.loc 4 37 0 is_stmt 0 discriminator 10
 599 042d E8000000 		call	_ZN8UnitTest11CurrentTest7ResultsEv
 599      00
 600 0432 488B00   		movq	(%rax), %rax
 601 0435 488D4DC0 		leaq	-64(%rbp), %rcx
 602 0439 BA000000 		movl	$.LC4, %edx
 602      00
 603 043e 4889CE   		movq	%rcx, %rsi
 604 0441 4889C7   		movq	%rax, %rdi
 605 0444 E8000000 		call	_ZN8UnitTest11TestResults13OnTestFailureERKNS_11TestDetailsEPKc
 605      00
 606              	.LEHE29:
 607              	.LEHB30:
  37:testHexIO.cpp **** 	status = bufProcessLine(line, 0, &data, &mask, &seg, &recordType, NULL);
 608              		.loc 4 37 0 discriminator 14
 609 0449 E8000000 		call	__cxa_end_catch
 609      00
 610              	.LEHE30:
 611 044e E9C0FCFF 		jmp	.L20
 611      FF
 612              	.L56:
 613 0453 4889C3   		movq	%rax, %rbx
  37:testHexIO.cpp **** 	status = bufProcessLine(line, 0, &data, &mask, &seg, &recordType, NULL);
 614              		.loc 4 37 0
 615 0456 E8000000 		call	__cxa_end_catch
 615      00
 616 045b 4889D8   		movq	%rbx, %rax
 617 045e 4889C7   		movq	%rax, %rdi
 618              	.LEHB31:
 619 0461 E8000000 		call	_Unwind_Resume
 619      00
 620              	.LEHE31:
 621              	.L58:
 622 0466 EB00     		jmp	.L23
 623              	.L57:
 624              	.L23:
  39:testHexIO.cpp **** 	CHECK_EQUAL(0x00, recordType);
 625              		.loc 4 39 0 is_stmt 1
 626 0468 4889C7   		movq	%rax, %rdi
 627 046b E8000000 		call	__cxa_begin_catch
 627      00
 628              	.LEHB32:
 629 0470 E8000000 		call	_ZN8UnitTest11CurrentTest7DetailsEv
 629      00
 630 0475 488B08   		movq	(%rax), %rcx
 631 0478 488D45C0 		leaq	-64(%rbp), %rax
 632 047c BA270000 		movl	$39, %edx
 632      00
 633 0481 4889CE   		movq	%rcx, %rsi
 634 0484 4889C7   		movq	%rax, %rdi
 635 0487 E8000000 		call	_ZN8UnitTest11TestDetailsC1ERKS0_i
 635      00
  39:testHexIO.cpp **** 	CHECK_EQUAL(0x00, recordType);
 636              		.loc 4 39 0 is_stmt 0 discriminator 10
 637 048c E8000000 		call	_ZN8UnitTest11CurrentTest7ResultsEv
 637      00
 638 0491 488B00   		movq	(%rax), %rax
 639 0494 488D4DC0 		leaq	-64(%rbp), %rcx
 640 0498 BA000000 		movl	$.LC4, %edx
 640      00
 641 049d 4889CE   		movq	%rcx, %rsi
 642 04a0 4889C7   		movq	%rax, %rdi
 643 04a3 E8000000 		call	_ZN8UnitTest11TestResults13OnTestFailureERKNS_11TestDetailsEPKc
 643      00
 644              	.LEHE32:
 645              	.LEHB33:
  39:testHexIO.cpp **** 	CHECK_EQUAL(0x00, recordType);
 646              		.loc 4 39 0 discriminator 14
 647 04a8 E8000000 		call	__cxa_end_catch
 647      00
 648              	.LEHE33:
 649 04ad E9E9FCFF 		jmp	.L24
 649      FF
 650              	.L59:
 651 04b2 4889C3   		movq	%rax, %rbx
  39:testHexIO.cpp **** 	CHECK_EQUAL(0x00, recordType);
 652              		.loc 4 39 0
 653 04b5 E8000000 		call	__cxa_end_catch
 653      00
 654 04ba 4889D8   		movq	%rbx, %rax
 655 04bd 4889C7   		movq	%rax, %rdi
 656              	.LEHB34:
 657 04c0 E8000000 		call	_Unwind_Resume
 657      00
 658              	.LEHE34:
 659              	.L61:
 660 04c5 EB00     		jmp	.L27
 661              	.L60:
 662              	.L27:
  40:testHexIO.cpp **** 	CHECK_EQUAL(0x0BE1+4UL, data.length);
 663              		.loc 4 40 0 is_stmt 1
 664 04c7 4889C7   		movq	%rax, %rdi
 665 04ca E8000000 		call	__cxa_begin_catch
 665      00
 666              	.LEHB35:
 667 04cf E8000000 		call	_ZN8UnitTest11CurrentTest7DetailsEv
 667      00
 668 04d4 488B08   		movq	(%rax), %rcx
 669 04d7 488D45C0 		leaq	-64(%rbp), %rax
 670 04db BA280000 		movl	$40, %edx
 670      00
 671 04e0 4889CE   		movq	%rcx, %rsi
 672 04e3 4889C7   		movq	%rax, %rdi
 673 04e6 E8000000 		call	_ZN8UnitTest11TestDetailsC1ERKS0_i
 673      00
  40:testHexIO.cpp **** 	CHECK_EQUAL(0x0BE1+4UL, data.length);
 674              		.loc 4 40 0 is_stmt 0 discriminator 10
 675 04eb E8000000 		call	_ZN8UnitTest11CurrentTest7ResultsEv
 675      00
 676 04f0 488B00   		movq	(%rax), %rax
 677 04f3 488D4DC0 		leaq	-64(%rbp), %rcx
 678 04f7 BA000000 		movl	$.LC5, %edx
 678      00
 679 04fc 4889CE   		movq	%rcx, %rsi
 680 04ff 4889C7   		movq	%rax, %rdi
 681 0502 E8000000 		call	_ZN8UnitTest11TestResults13OnTestFailureERKNS_11TestDetailsEPKc
 681      00
 682              	.LEHE35:
 683              	.LEHB36:
  40:testHexIO.cpp **** 	CHECK_EQUAL(0x0BE1+4UL, data.length);
 684              		.loc 4 40 0 discriminator 14
 685 0507 E8000000 		call	__cxa_end_catch
 685      00
 686              	.LEHE36:
 687 050c E9D2FCFF 		jmp	.L28
 687      FF
 688              	.L62:
 689 0511 4889C3   		movq	%rax, %rbx
  40:testHexIO.cpp **** 	CHECK_EQUAL(0x0BE1+4UL, data.length);
 690              		.loc 4 40 0
 691 0514 E8000000 		call	__cxa_end_catch
 691      00
 692 0519 4889D8   		movq	%rbx, %rax
 693 051c 4889C7   		movq	%rax, %rdi
 694              	.LEHB37:
 695 051f E8000000 		call	_Unwind_Resume
 695      00
 696              	.LEHE37:
 697              	.L64:
 698 0524 EB00     		jmp	.L31
 699              	.L63:
 700              	.L31:
  41:testHexIO.cpp **** 	CHECK_EQUAL(0x0BE1+4UL, mask.length);
 701              		.loc 4 41 0 is_stmt 1
 702 0526 4889C7   		movq	%rax, %rdi
 703 0529 E8000000 		call	__cxa_begin_catch
 703      00
 704              	.LEHB38:
 705 052e E8000000 		call	_ZN8UnitTest11CurrentTest7DetailsEv
 705      00
 706 0533 488B08   		movq	(%rax), %rcx
 707 0536 488D45C0 		leaq	-64(%rbp), %rax
 708 053a BA290000 		movl	$41, %edx
 708      00
 709 053f 4889CE   		movq	%rcx, %rsi
 710 0542 4889C7   		movq	%rax, %rdi
 711 0545 E8000000 		call	_ZN8UnitTest11TestDetailsC1ERKS0_i
 711      00
  41:testHexIO.cpp **** 	CHECK_EQUAL(0x0BE1+4UL, mask.length);
 712              		.loc 4 41 0 is_stmt 0 discriminator 10
 713 054a E8000000 		call	_ZN8UnitTest11CurrentTest7ResultsEv
 713      00
 714 054f 488B00   		movq	(%rax), %rax
 715 0552 488D4DC0 		leaq	-64(%rbp), %rcx
 716 0556 BA000000 		movl	$.LC6, %edx
 716      00
 717 055b 4889CE   		movq	%rcx, %rsi
 718 055e 4889C7   		movq	%rax, %rdi
 719 0561 E8000000 		call	_ZN8UnitTest11TestResults13OnTestFailureERKNS_11TestDetailsEPKc
 719      00
 720              	.LEHE38:
 721              	.LEHB39:
  41:testHexIO.cpp **** 	CHECK_EQUAL(0x0BE1+4UL, mask.length);
 722              		.loc 4 41 0 discriminator 14
 723 0566 E8000000 		call	__cxa_end_catch
 723      00
 724              	.LEHE39:
 725 056b E9C3FCFF 		jmp	.L32
 725      FF
 726              	.L65:
 727 0570 4889C3   		movq	%rax, %rbx
  41:testHexIO.cpp **** 	CHECK_EQUAL(0x0BE1+4UL, mask.length);
 728              		.loc 4 41 0
 729 0573 E8000000 		call	__cxa_end_catch
 729      00
 730 0578 4889D8   		movq	%rbx, %rax
 731 057b 4889C7   		movq	%rax, %rdi
 732              	.LEHB40:
 733 057e E8000000 		call	_Unwind_Resume
 733      00
 734              	.LEHE40:
 735              	.L67:
 736 0583 EB00     		jmp	.L35
 737              	.L66:
 738              	.L35:
  42:testHexIO.cpp **** 	CHECK_EQUAL(4096UL, data.capacity);
 739              		.loc 4 42 0 is_stmt 1
 740 0585 4889C7   		movq	%rax, %rdi
 741 0588 E8000000 		call	__cxa_begin_catch
 741      00
 742              	.LEHB41:
 743 058d E8000000 		call	_ZN8UnitTest11CurrentTest7DetailsEv
 743      00
 744 0592 488B08   		movq	(%rax), %rcx
 745 0595 488D45C0 		leaq	-64(%rbp), %rax
 746 0599 BA2A0000 		movl	$42, %edx
 746      00
 747 059e 4889CE   		movq	%rcx, %rsi
 748 05a1 4889C7   		movq	%rax, %rdi
 749 05a4 E8000000 		call	_ZN8UnitTest11TestDetailsC1ERKS0_i
 749      00
  42:testHexIO.cpp **** 	CHECK_EQUAL(4096UL, data.capacity);
 750              		.loc 4 42 0 is_stmt 0 discriminator 10
 751 05a9 E8000000 		call	_ZN8UnitTest11CurrentTest7ResultsEv
 751      00
 752 05ae 488B00   		movq	(%rax), %rax
 753 05b1 488D4DC0 		leaq	-64(%rbp), %rcx
 754 05b5 BA000000 		movl	$.LC7, %edx
 754      00
 755 05ba 4889CE   		movq	%rcx, %rsi
 756 05bd 4889C7   		movq	%rax, %rdi
 757 05c0 E8000000 		call	_ZN8UnitTest11TestResults13OnTestFailureERKNS_11TestDetailsEPKc
 757      00
 758              	.LEHE41:
 759              	.LEHB42:
  42:testHexIO.cpp **** 	CHECK_EQUAL(4096UL, data.capacity);
 760              		.loc 4 42 0 discriminator 14
 761 05c5 E8000000 		call	__cxa_end_catch
 761      00
 762              	.LEHE42:
 763 05ca E9B4FCFF 		jmp	.L36
 763      FF
 764              	.L68:
 765 05cf 4889C3   		movq	%rax, %rbx
  42:testHexIO.cpp **** 	CHECK_EQUAL(4096UL, data.capacity);
 766              		.loc 4 42 0
 767 05d2 E8000000 		call	__cxa_end_catch
 767      00
 768 05d7 4889D8   		movq	%rbx, %rax
 769 05da 4889C7   		movq	%rax, %rdi
 770              	.LEHB43:
 771 05dd E8000000 		call	_Unwind_Resume
 771      00
 772              	.LEHE43:
 773              	.L70:
 774 05e2 EB00     		jmp	.L39
 775              	.L69:
 776              	.L39:
  43:testHexIO.cpp **** 	CHECK_EQUAL(4096UL, mask.capacity);
 777              		.loc 4 43 0 is_stmt 1
 778 05e4 4889C7   		movq	%rax, %rdi
 779 05e7 E8000000 		call	__cxa_begin_catch
 779      00
 780              	.LEHB44:
 781 05ec E8000000 		call	_ZN8UnitTest11CurrentTest7DetailsEv
 781      00
 782 05f1 488B08   		movq	(%rax), %rcx
 783 05f4 488D45C0 		leaq	-64(%rbp), %rax
 784 05f8 BA2B0000 		movl	$43, %edx
 784      00
 785 05fd 4889CE   		movq	%rcx, %rsi
 786 0600 4889C7   		movq	%rax, %rdi
 787 0603 E8000000 		call	_ZN8UnitTest11TestDetailsC1ERKS0_i
 787      00
  43:testHexIO.cpp **** 	CHECK_EQUAL(4096UL, mask.capacity);
 788              		.loc 4 43 0 is_stmt 0 discriminator 10
 789 0608 E8000000 		call	_ZN8UnitTest11CurrentTest7ResultsEv
 789      00
 790 060d 488B00   		movq	(%rax), %rax
 791 0610 488D4DC0 		leaq	-64(%rbp), %rcx
 792 0614 BA000000 		movl	$.LC8, %edx
 792      00
 793 0619 4889CE   		movq	%rcx, %rsi
 794 061c 4889C7   		movq	%rax, %rdi
 795 061f E8000000 		call	_ZN8UnitTest11TestResults13OnTestFailureERKNS_11TestDetailsEPKc
 795      00
 796              	.LEHE44:
 797              	.LEHB45:
  43:testHexIO.cpp **** 	CHECK_EQUAL(4096UL, mask.capacity);
 798              		.loc 4 43 0 discriminator 14
 799 0624 E8000000 		call	__cxa_end_catch
 799      00
 800              	.LEHE45:
 801 0629 E9A5FCFF 		jmp	.L40
 801      FF
 802              	.L71:
 803 062e 4889C3   		movq	%rax, %rbx
  43:testHexIO.cpp **** 	CHECK_EQUAL(4096UL, mask.capacity);
 804              		.loc 4 43 0
 805 0631 E8000000 		call	__cxa_end_catch
 805      00
 806 0636 4889D8   		movq	%rbx, %rax
 807 0639 4889C7   		movq	%rax, %rdi
 808              	.LEHB46:
 809 063c E8000000 		call	_Unwind_Resume
 809      00
 810              	.LEHE46:
 811              	.L73:
 812 0641 EB00     		jmp	.L43
 813              	.L72:
 814              	.L43:
  44:testHexIO.cpp **** 	CHECK_ARRAY_EQUAL(expected, data.data + 0x0BE1, 4);
 815              		.loc 4 44 0 is_stmt 1
 816 0643 4889C7   		movq	%rax, %rdi
 817 0646 E8000000 		call	__cxa_begin_catch
 817      00
 818              	.LEHB47:
 819 064b E8000000 		call	_ZN8UnitTest11CurrentTest7DetailsEv
 819      00
 820 0650 488B08   		movq	(%rax), %rcx
 821 0653 488D45C0 		leaq	-64(%rbp), %rax
 822 0657 BA2C0000 		movl	$44, %edx
 822      00
 823 065c 4889CE   		movq	%rcx, %rsi
 824 065f 4889C7   		movq	%rax, %rdi
 825 0662 E8000000 		call	_ZN8UnitTest11TestDetailsC1ERKS0_i
 825      00
  44:testHexIO.cpp **** 	CHECK_ARRAY_EQUAL(expected, data.data + 0x0BE1, 4);
 826              		.loc 4 44 0 is_stmt 0 discriminator 10
 827 0667 E8000000 		call	_ZN8UnitTest11CurrentTest7ResultsEv
 827      00
 828 066c 488B00   		movq	(%rax), %rax
 829 066f 488D4DC0 		leaq	-64(%rbp), %rcx
 830 0673 BA000000 		movl	$.LC9, %edx
 830      00
 831 0678 4889CE   		movq	%rcx, %rsi
 832 067b 4889C7   		movq	%rax, %rdi
 833 067e E8000000 		call	_ZN8UnitTest11TestResults13OnTestFailureERKNS_11TestDetailsEPKc
 833      00
 834              	.LEHE47:
 835              	.LEHB48:
  44:testHexIO.cpp **** 	CHECK_ARRAY_EQUAL(expected, data.data + 0x0BE1, 4);
 836              		.loc 4 44 0 discriminator 14
 837 0683 E8000000 		call	__cxa_end_catch
 837      00
 838              	.LEHE48:
 839 0688 E996FCFF 		jmp	.L44
 839      FF
 840              	.L74:
 841 068d 4889C3   		movq	%rax, %rbx
  44:testHexIO.cpp **** 	CHECK_ARRAY_EQUAL(expected, data.data + 0x0BE1, 4);
 842              		.loc 4 44 0
 843 0690 E8000000 		call	__cxa_end_catch
 843      00
 844 0695 4889D8   		movq	%rbx, %rax
 845 0698 4889C7   		movq	%rax, %rdi
 846              	.LEHB49:
 847 069b E8000000 		call	_Unwind_Resume
 847      00
 848              	.LEHE49:
 849              	.L76:
 850 06a0 EB00     		jmp	.L47
 851              	.L75:
 852              	.L47:
  45:testHexIO.cpp **** 	bufDestroy(&mask);
 853              		.loc 4 45 0 is_stmt 1
 854 06a2 4889C7   		movq	%rax, %rdi
 855 06a5 E8000000 		call	__cxa_begin_catch
 855      00
 856              	.LEHB50:
 857 06aa E8000000 		call	_ZN8UnitTest11CurrentTest7DetailsEv
 857      00
 858 06af 488B08   		movq	(%rax), %rcx
 859 06b2 488D45C0 		leaq	-64(%rbp), %rax
 860 06b6 BA2D0000 		movl	$45, %edx
 860      00
 861 06bb 4889CE   		movq	%rcx, %rsi
 862 06be 4889C7   		movq	%rax, %rdi
 863 06c1 E8000000 		call	_ZN8UnitTest11TestDetailsC1ERKS0_i
 863      00
  45:testHexIO.cpp **** 	bufDestroy(&mask);
 864              		.loc 4 45 0 is_stmt 0 discriminator 10
 865 06c6 E8000000 		call	_ZN8UnitTest11CurrentTest7ResultsEv
 865      00
 866 06cb 488B00   		movq	(%rax), %rax
 867 06ce 488D4DC0 		leaq	-64(%rbp), %rcx
 868 06d2 BA000000 		movl	$.LC10, %edx
 868      00
 869 06d7 4889CE   		movq	%rcx, %rsi
 870 06da 4889C7   		movq	%rax, %rdi
 871 06dd E8000000 		call	_ZN8UnitTest11TestResults13OnTestFailureERKNS_11TestDetailsEPKc
 871      00
 872              	.LEHE50:
 873              	.LEHB51:
  45:testHexIO.cpp **** 	bufDestroy(&mask);
 874              		.loc 4 45 0 discriminator 14
 875 06e2 E8000000 		call	__cxa_end_catch
 875      00
 876              	.LEHE51:
 877 06e7 E98BFCFF 		jmp	.L48
 877      FF
 878              	.L77:
 879 06ec 4889C3   		movq	%rax, %rbx
  45:testHexIO.cpp **** 	bufDestroy(&mask);
 880              		.loc 4 45 0
 881 06ef E8000000 		call	__cxa_end_catch
 881      00
 882 06f4 4889D8   		movq	%rbx, %rax
 883 06f7 4889C7   		movq	%rax, %rdi
 884              	.LEHB52:
 885 06fa E8000000 		call	_Unwind_Resume
 885      00
 886              	.LEHE52:
 887              	.L78:
 888              		.loc 4 48 0 is_stmt 1
 889 06ff E8000000 		call	__stack_chk_fail
 889      00
 890              	.L50:
 891 0704 488B5DF8 		movq	-8(%rbp), %rbx
 892 0708 C9       		leave
 893              		.cfi_def_cfa 7, 8
 894 0709 C3       		ret
 895              		.cfi_endproc
 896              	.LFE1140:
 897              		.section	.gcc_except_table,"a",@progbits
 898              		.align 4
 899              	.LLSDA1140:
 900 0000 FF       		.byte	0xff
 901 0001 03       		.byte	0x3
 902 0002 9C02     		.uleb128 .LLSDATT1140-.LLSDATTD1140
 903              	.LLSDATTD1140:
 904 0004 01       		.byte	0x1
 905 0005 8E02     		.uleb128 .LLSDACSE1140-.LLSDACSB1140
 906              	.LLSDACSB1140:
 907 0007 5D       		.uleb128 .LEHB4-.LFB1140
 908 0008 05       		.uleb128 .LEHE4-.LEHB4
 909 0009 00       		.uleb128 0
 910 000a 00       		.uleb128 0
 911 000b 68       		.uleb128 .LEHB5-.LFB1140
 912 000c 1C       		.uleb128 .LEHE5-.LEHB5
 913 000d AA07     		.uleb128 .L51-.LFB1140
 914 000f 01       		.uleb128 0x1
 915 0010 8B01     		.uleb128 .LEHB6-.LFB1140
 916 0012 1F       		.uleb128 .LEHE6-.LEHB6
 917 0013 A807     		.uleb128 .L52-.LFB1140
 918 0015 03       		.uleb128 0x3
 919 0016 C001     		.uleb128 .LEHB7-.LFB1140
 920 0018 05       		.uleb128 .LEHE7-.LEHB7
 921 0019 00       		.uleb128 0
 922 001a 00       		.uleb128 0
 923 001b CB01     		.uleb128 .LEHB8-.LFB1140
 924 001d 1C       		.uleb128 .LEHE8-.LEHB8
 925 001e 8908     		.uleb128 .L54-.LFB1140
 926 0020 01       		.uleb128 0x1
 927 0021 F101     		.uleb128 .LEHB9-.LFB1140
 928 0023 22       		.uleb128 .LEHE9-.LEHB9
 929 0024 8708     		.uleb128 .L55-.LFB1140
 930 0026 03       		.uleb128 0x3
 931 0027 C402     		.uleb128 .LEHB10-.LFB1140
 932 0029 05       		.uleb128 .LEHE10-.LEHB10
 933 002a 00       		.uleb128 0
 934 002b 00       		.uleb128 0
 935 002c D302     		.uleb128 .LEHB11-.LFB1140
 936 002e 1C       		.uleb128 .LEHE11-.LEHB11
 937 002f E808     		.uleb128 .L57-.LFB1140
 938 0031 01       		.uleb128 0x1
 939 0032 F902     		.uleb128 .LEHB12-.LFB1140
 940 0034 22       		.uleb128 .LEHE12-.LEHB12
 941 0035 E608     		.uleb128 .L58-.LFB1140
 942 0037 03       		.uleb128 0x3
 943 0038 9B03     		.uleb128 .LEHB13-.LFB1140
 944 003a 1C       		.uleb128 .LEHE13-.LEHB13
 945 003b C709     		.uleb128 .L60-.LFB1140
 946 003d 01       		.uleb128 0x1
 947 003e C103     		.uleb128 .LEHB14-.LFB1140
 948 0040 22       		.uleb128 .LEHE14-.LEHB14
 949 0041 C509     		.uleb128 .L61-.LFB1140
 950 0043 03       		.uleb128 0x3
 951 0044 E303     		.uleb128 .LEHB15-.LFB1140
 952 0046 1C       		.uleb128 .LEHE15-.LEHB15
 953 0047 A60A     		.uleb128 .L63-.LFB1140
 954 0049 01       		.uleb128 0x1
 955 004a 8A04     		.uleb128 .LEHB16-.LFB1140
 956 004c 29       		.uleb128 .LEHE16-.LEHB16
 957 004d A40A     		.uleb128 .L64-.LFB1140
 958 004f 03       		.uleb128 0x3
 959 0050 B304     		.uleb128 .LEHB17-.LFB1140
 960 0052 1C       		.uleb128 .LEHE17-.LEHB17
 961 0053 850B     		.uleb128 .L66-.LFB1140
 962 0055 01       		.uleb128 0x1
 963 0056 DA04     		.uleb128 .LEHB18-.LFB1140
 964 0058 29       		.uleb128 .LEHE18-.LEHB18
 965 0059 830B     		.uleb128 .L67-.LFB1140
 966 005b 03       		.uleb128 0x3
 967 005c 8305     		.uleb128 .LEHB19-.LFB1140
 968 005e 1C       		.uleb128 .LEHE19-.LEHB19
 969 005f E40B     		.uleb128 .L69-.LFB1140
 970 0061 01       		.uleb128 0x1
 971 0062 AA05     		.uleb128 .LEHB20-.LFB1140
 972 0064 29       		.uleb128 .LEHE20-.LEHB20
 973 0065 E20B     		.uleb128 .L70-.LFB1140
 974 0067 03       		.uleb128 0x3
 975 0068 D305     		.uleb128 .LEHB21-.LFB1140
 976 006a 1C       		.uleb128 .LEHE21-.LEHB21
 977 006b C30C     		.uleb128 .L72-.LFB1140
 978 006d 01       		.uleb128 0x1
 979 006e FA05     		.uleb128 .LEHB22-.LFB1140
 980 0070 29       		.uleb128 .LEHE22-.LEHB22
 981 0071 C10C     		.uleb128 .L73-.LFB1140
 982 0073 03       		.uleb128 0x3
 983 0074 A306     		.uleb128 .LEHB23-.LFB1140
 984 0076 1C       		.uleb128 .LEHE23-.LEHB23
 985 0077 A20D     		.uleb128 .L75-.LFB1140
 986 0079 01       		.uleb128 0x1
 987 007a D006     		.uleb128 .LEHB24-.LFB1140
 988 007c 27       		.uleb128 .LEHE24-.LEHB24
 989 007d A00D     		.uleb128 .L76-.LFB1140
 990 007f 03       		.uleb128 0x3
 991 0080 FE06     		.uleb128 .LEHB25-.LFB1140
 992 0082 11       		.uleb128 .LEHE25-.LEHB25
 993 0083 00       		.uleb128 0
 994 0084 00       		.uleb128 0
 995 0085 B207     		.uleb128 .LEHB26-.LFB1140
 996 0087 38       		.uleb128 .LEHE26-.LEHB26
 997 0088 F407     		.uleb128 .L53-.LFB1140
 998 008a 00       		.uleb128 0
 999 008b EA07     		.uleb128 .LEHB27-.LFB1140
 1000 008d 05       		.uleb128 .LEHE27-.LEHB27
 1001 008e 00       		.uleb128 0
 1002 008f 00       		.uleb128 0
 1003 0090 8208     		.uleb128 .LEHB28-.LFB1140
 1004 0092 05       		.uleb128 .LEHE28-.LEHB28
 1005 0093 00       		.uleb128 0
 1006 0094 00       		.uleb128 0
 1007 0095 9108     		.uleb128 .LEHB29-.LFB1140
 1008 0097 38       		.uleb128 .LEHE29-.LEHB29
 1009 0098 D308     		.uleb128 .L56-.LFB1140
 1010 009a 00       		.uleb128 0
 1011 009b C908     		.uleb128 .LEHB30-.LFB1140
 1012 009d 05       		.uleb128 .LEHE30-.LEHB30
 1013 009e 00       		.uleb128 0
 1014 009f 00       		.uleb128 0
 1015 00a0 E108     		.uleb128 .LEHB31-.LFB1140
 1016 00a2 05       		.uleb128 .LEHE31-.LEHB31
 1017 00a3 00       		.uleb128 0
 1018 00a4 00       		.uleb128 0
 1019 00a5 F008     		.uleb128 .LEHB32-.LFB1140
 1020 00a7 38       		.uleb128 .LEHE32-.LEHB32
 1021 00a8 B209     		.uleb128 .L59-.LFB1140
 1022 00aa 00       		.uleb128 0
 1023 00ab A809     		.uleb128 .LEHB33-.LFB1140
 1024 00ad 05       		.uleb128 .LEHE33-.LEHB33
 1025 00ae 00       		.uleb128 0
 1026 00af 00       		.uleb128 0
 1027 00b0 C009     		.uleb128 .LEHB34-.LFB1140
 1028 00b2 05       		.uleb128 .LEHE34-.LEHB34
 1029 00b3 00       		.uleb128 0
 1030 00b4 00       		.uleb128 0
 1031 00b5 CF09     		.uleb128 .LEHB35-.LFB1140
 1032 00b7 38       		.uleb128 .LEHE35-.LEHB35
 1033 00b8 910A     		.uleb128 .L62-.LFB1140
 1034 00ba 00       		.uleb128 0
 1035 00bb 870A     		.uleb128 .LEHB36-.LFB1140
 1036 00bd 05       		.uleb128 .LEHE36-.LEHB36
 1037 00be 00       		.uleb128 0
 1038 00bf 00       		.uleb128 0
 1039 00c0 9F0A     		.uleb128 .LEHB37-.LFB1140
 1040 00c2 05       		.uleb128 .LEHE37-.LEHB37
 1041 00c3 00       		.uleb128 0
 1042 00c4 00       		.uleb128 0
 1043 00c5 AE0A     		.uleb128 .LEHB38-.LFB1140
 1044 00c7 38       		.uleb128 .LEHE38-.LEHB38
 1045 00c8 F00A     		.uleb128 .L65-.LFB1140
 1046 00ca 00       		.uleb128 0
 1047 00cb E60A     		.uleb128 .LEHB39-.LFB1140
 1048 00cd 05       		.uleb128 .LEHE39-.LEHB39
 1049 00ce 00       		.uleb128 0
 1050 00cf 00       		.uleb128 0
 1051 00d0 FE0A     		.uleb128 .LEHB40-.LFB1140
 1052 00d2 05       		.uleb128 .LEHE40-.LEHB40
 1053 00d3 00       		.uleb128 0
 1054 00d4 00       		.uleb128 0
 1055 00d5 8D0B     		.uleb128 .LEHB41-.LFB1140
 1056 00d7 38       		.uleb128 .LEHE41-.LEHB41
 1057 00d8 CF0B     		.uleb128 .L68-.LFB1140
 1058 00da 00       		.uleb128 0
 1059 00db C50B     		.uleb128 .LEHB42-.LFB1140
 1060 00dd 05       		.uleb128 .LEHE42-.LEHB42
 1061 00de 00       		.uleb128 0
 1062 00df 00       		.uleb128 0
 1063 00e0 DD0B     		.uleb128 .LEHB43-.LFB1140
 1064 00e2 05       		.uleb128 .LEHE43-.LEHB43
 1065 00e3 00       		.uleb128 0
 1066 00e4 00       		.uleb128 0
 1067 00e5 EC0B     		.uleb128 .LEHB44-.LFB1140
 1068 00e7 38       		.uleb128 .LEHE44-.LEHB44
 1069 00e8 AE0C     		.uleb128 .L71-.LFB1140
 1070 00ea 00       		.uleb128 0
 1071 00eb A40C     		.uleb128 .LEHB45-.LFB1140
 1072 00ed 05       		.uleb128 .LEHE45-.LEHB45
 1073 00ee 00       		.uleb128 0
 1074 00ef 00       		.uleb128 0
 1075 00f0 BC0C     		.uleb128 .LEHB46-.LFB1140
 1076 00f2 05       		.uleb128 .LEHE46-.LEHB46
 1077 00f3 00       		.uleb128 0
 1078 00f4 00       		.uleb128 0
 1079 00f5 CB0C     		.uleb128 .LEHB47-.LFB1140
 1080 00f7 38       		.uleb128 .LEHE47-.LEHB47
 1081 00f8 8D0D     		.uleb128 .L74-.LFB1140
 1082 00fa 00       		.uleb128 0
 1083 00fb 830D     		.uleb128 .LEHB48-.LFB1140
 1084 00fd 05       		.uleb128 .LEHE48-.LEHB48
 1085 00fe 00       		.uleb128 0
 1086 00ff 00       		.uleb128 0
 1087 0100 9B0D     		.uleb128 .LEHB49-.LFB1140
 1088 0102 05       		.uleb128 .LEHE49-.LEHB49
 1089 0103 00       		.uleb128 0
 1090 0104 00       		.uleb128 0
 1091 0105 AA0D     		.uleb128 .LEHB50-.LFB1140
 1092 0107 38       		.uleb128 .LEHE50-.LEHB50
 1093 0108 EC0D     		.uleb128 .L77-.LFB1140
 1094 010a 00       		.uleb128 0
 1095 010b E20D     		.uleb128 .LEHB51-.LFB1140
 1096 010d 05       		.uleb128 .LEHE51-.LEHB51
 1097 010e 00       		.uleb128 0
 1098 010f 00       		.uleb128 0
 1099 0110 FA0D     		.uleb128 .LEHB52-.LFB1140
 1100 0112 05       		.uleb128 .LEHE52-.LEHB52
 1101 0113 00       		.uleb128 0
 1102 0114 00       		.uleb128 0
 1103              	.LLSDACSE1140:
 1104 0115 01       		.byte	0x1
 1105 0116 00       		.byte	0
 1106 0117 00       		.byte	0
 1107 0118 7D       		.byte	0x7d
 1108 0119 000000   		.align 4
 1109 011c 00000000 		.long	0
 1110              	
 1111              	.LLSDATT1140:
 1112              		.text
 1114              		.section	.rodata
 1115              	.LC11:
 1116 01ff 48657849 		.string	"HexIO_testValidEOF"
 1116      4F5F7465 
 1116      73745661 
 1116      6C696445 
 1116      4F4600
 1117              		.section	.text._ZN22TestHexIO_testValidEOFC2Ev,"axG",@progbits,_ZN22TestHexIO_testValidEOFC5Ev,com
 1118              		.align 2
 1119              		.weak	_ZN22TestHexIO_testValidEOFC2Ev
 1121              	_ZN22TestHexIO_testValidEOFC2Ev:
 1122              	.LFB1142:
  49:testHexIO.cpp **** 
  50:testHexIO.cpp **** TEST(HexIO_testValidEOF) {
 1123              		.loc 4 50 0
 1124              		.cfi_startproc
 1125 0000 55       		pushq	%rbp
 1126              		.cfi_def_cfa_offset 16
 1127              		.cfi_offset 6, -16
 1128 0001 4889E5   		movq	%rsp, %rbp
 1129              		.cfi_def_cfa_register 6
 1130 0004 4883EC10 		subq	$16, %rsp
 1131 0008 48897DF8 		movq	%rdi, -8(%rbp)
 1132              	.LBB5:
 1133              		.loc 4 50 0
 1134 000c E8000000 		call	_ZN13UnitTestSuite12GetSuiteNameEv
 1134      00
 1135 0011 4889C2   		movq	%rax, %rdx
 1136 0014 488B45F8 		movq	-8(%rbp), %rax
 1137 0018 41B83200 		movl	$50, %r8d
 1137      0000
 1138 001e B9000000 		movl	$.LC1, %ecx
 1138      00
 1139 0023 BE000000 		movl	$.LC11, %esi
 1139      00
 1140 0028 4889C7   		movq	%rax, %rdi
 1141 002b E8000000 		call	_ZN8UnitTest4TestC2EPKcS2_S2_i
 1141      00
 1142 0030 BA000000 		movl	$_ZTV22TestHexIO_testValidEOF+16, %edx
 1142      00
 1143 0035 488B45F8 		movq	-8(%rbp), %rax
 1144 0039 488910   		movq	%rdx, (%rax)
 1145              	.LBE5:
 1146 003c 90       		nop
 1147 003d C9       		leave
 1148              		.cfi_def_cfa 7, 8
 1149 003e C3       		ret
 1150              		.cfi_endproc
 1151              	.LFE1142:
 1153              		.weak	_ZN22TestHexIO_testValidEOFC1Ev
 1154              		.set	_ZN22TestHexIO_testValidEOFC1Ev,_ZN22TestHexIO_testValidEOFC2Ev
 1155              		.globl	testHexIO_testValidEOFInstance
 1156              		.bss
 1157 0039 00000000 		.align 32
 1157      000000
 1160              	testHexIO_testValidEOFInstance:
 1161 0040 00000000 		.zero	56
 1161      00000000 
 1161      00000000 
 1161      00000000 
 1161      00000000 
 1162              		.globl	adderHexIO_testValidEOF
 1165              	adderHexIO_testValidEOF:
 1166 0078 00       		.zero	1
 1167              		.section	.rodata
 1168              	.LC12:
 1169 0212 3A303030 		.string	":00000001FF\n"
 1169      30303030 
 1169      3146460A 
 1169      00
 1170 021f 00       		.align 8
 1171              	.LC13:
 1172 0220 556E6861 		.string	"Unhandled exception in CHECK_EQUAL(0x01, recordType)"
 1172      6E646C65 
 1172      64206578 
 1172      63657074 
 1172      696F6E20 
 1173 0255 000000   		.align 8
 1174              	.LC14:
 1175 0258 556E6861 		.string	"Unhandled exception in CHECK_EQUAL(0UL, data.length)"
 1175      6E646C65 
 1175      64206578 
 1175      63657074 
 1175      696F6E20 
 1176 028d 000000   		.align 8
 1177              	.LC15:
 1178 0290 556E6861 		.string	"Unhandled exception in CHECK_EQUAL(0UL, mask.length)"
 1178      6E646C65 
 1178      64206578 
 1178      63657074 
 1178      696F6E20 
 1179              		.text
 1180              		.align 2
 1181              		.globl	_ZNK22TestHexIO_testValidEOF7RunImplEv
 1183              	_ZNK22TestHexIO_testValidEOF7RunImplEv:
 1184              	.LFB1144:
 1185              		.loc 4 50 0
 1186              		.cfi_startproc
 1187              		.cfi_personality 0x3,__gxx_personality_v0
 1188              		.cfi_lsda 0x3,.LLSDA1144
 1189 070a 55       		pushq	%rbp
 1190              		.cfi_def_cfa_offset 16
 1191              		.cfi_offset 6, -16
 1192 070b 4889E5   		movq	%rsp, %rbp
 1193              		.cfi_def_cfa_register 6
 1194 070e 53       		pushq	%rbx
 1195 070f 4881ECA8 		subq	$168, %rsp
 1195      000000
 1196              		.cfi_offset 3, -24
 1197 0716 4889BD58 		movq	%rdi, -168(%rbp)
 1197      FFFFFF
 1198              		.loc 4 50 0
 1199 071d 64488B04 		movq	%fs:40, %rax
 1199      25280000 
 1199      00
 1200 0726 488945E8 		movq	%rax, -24(%rbp)
 1201 072a 31C0     		xorl	%eax, %eax
  51:testHexIO.cpp **** 	Buffer data, mask;
  52:testHexIO.cpp **** 	BufferStatus status;
  53:testHexIO.cpp **** 	const char *line = ":00000001FF\n";
 1202              		.loc 4 53 0
 1203 072c 48C78578 		movq	$.LC12, -136(%rbp)
 1203      FFFFFF00 
 1203      000000
  54:testHexIO.cpp **** 	uint8 recordType;
  55:testHexIO.cpp **** 	uint32 seg = 0x00000000;
 1204              		.loc 4 55 0
 1205 0737 C7856CFF 		movl	$0, -148(%rbp)
 1205      FFFF0000 
 1205      0000
  56:testHexIO.cpp **** 	status = bufInitialise(&data, 1024, 0x00, NULL);
 1206              		.loc 4 56 0
 1207 0741 488D4580 		leaq	-128(%rbp), %rax
 1208 0745 B9000000 		movl	$0, %ecx
 1208      00
 1209 074a BA000000 		movl	$0, %edx
 1209      00
 1210 074f BE000400 		movl	$1024, %esi
 1210      00
 1211 0754 4889C7   		movq	%rax, %rdi
 1212              	.LEHB53:
 1213 0757 E8000000 		call	bufInitialise
 1213      00
 1214              	.LEHE53:
 1215 075c 898568FF 		movl	%eax, -152(%rbp)
 1215      FFFF
 1216              	.LEHB54:
  57:testHexIO.cpp **** 	CHECK_EQUAL(BUF_SUCCESS, status);
 1217              		.loc 4 57 0
 1218 0762 E8000000 		call	_ZN8UnitTest11CurrentTest7DetailsEv
 1218      00
 1219 0767 488B08   		movq	(%rax), %rcx
 1220 076a 488D45C0 		leaq	-64(%rbp), %rax
 1221 076e BA390000 		movl	$57, %edx
 1221      00
 1222 0773 4889CE   		movq	%rcx, %rsi
 1223 0776 4889C7   		movq	%rax, %rdi
 1224 0779 E8000000 		call	_ZN8UnitTest11TestDetailsC1ERKS0_i
 1224      00
 1225              	.LEHE54:
 1226              		.loc 4 57 0 is_stmt 0 discriminator 2
 1227 077e C745A000 		movl	$0, -96(%rbp)
 1227      000000
 1228              	.LEHB55:
 1229 0785 E8000000 		call	_ZN8UnitTest11CurrentTest7ResultsEv
 1229      00
 1230 078a 488B00   		movq	(%rax), %rax
 1231 078d 488D4DC0 		leaq	-64(%rbp), %rcx
 1232 0791 488D9568 		leaq	-152(%rbp), %rdx
 1232      FFFFFF
 1233 0798 488D75A0 		leaq	-96(%rbp), %rsi
 1234 079c 4889C7   		movq	%rax, %rdi
 1235 079f E8000000 		call	_ZN8UnitTest10CheckEqualI12BufferStatusS1_EEvRNS_11TestResultsERKT_RKT0_RKNS_11TestDetailsE
 1235      00
 1236              	.LEHE55:
 1237              	.L83:
  58:testHexIO.cpp **** 	status = bufInitialise(&mask, 1024, 0x00, NULL);
 1238              		.loc 4 58 0 is_stmt 1
 1239 07a4 488D45A0 		leaq	-96(%rbp), %rax
 1240 07a8 B9000000 		movl	$0, %ecx
 1240      00
 1241 07ad BA000000 		movl	$0, %edx
 1241      00
 1242 07b2 BE000400 		movl	$1024, %esi
 1242      00
 1243 07b7 4889C7   		movq	%rax, %rdi
 1244              	.LEHB56:
 1245 07ba E8000000 		call	bufInitialise
 1245      00
 1246              	.LEHE56:
 1247 07bf 898568FF 		movl	%eax, -152(%rbp)
 1247      FFFF
 1248              	.LEHB57:
  59:testHexIO.cpp **** 	CHECK_EQUAL(BUF_SUCCESS, status);
 1249              		.loc 4 59 0
 1250 07c5 E8000000 		call	_ZN8UnitTest11CurrentTest7DetailsEv
 1250      00
 1251 07ca 488B08   		movq	(%rax), %rcx
 1252 07cd 488D45C0 		leaq	-64(%rbp), %rax
 1253 07d1 BA3B0000 		movl	$59, %edx
 1253      00
 1254 07d6 4889CE   		movq	%rcx, %rsi
 1255 07d9 4889C7   		movq	%rax, %rdi
 1256 07dc E8000000 		call	_ZN8UnitTest11TestDetailsC1ERKS0_i
 1256      00
 1257              	.LEHE57:
 1258              		.loc 4 59 0 is_stmt 0 discriminator 2
 1259 07e1 C78570FF 		movl	$0, -144(%rbp)
 1259      FFFF0000 
 1259      0000
 1260              	.LEHB58:
 1261 07eb E8000000 		call	_ZN8UnitTest11CurrentTest7ResultsEv
 1261      00
 1262 07f0 488B00   		movq	(%rax), %rax
 1263 07f3 488D4DC0 		leaq	-64(%rbp), %rcx
 1264 07f7 488D9568 		leaq	-152(%rbp), %rdx
 1264      FFFFFF
 1265 07fe 488DB570 		leaq	-144(%rbp), %rsi
 1265      FFFFFF
 1266 0805 4889C7   		movq	%rax, %rdi
 1267 0808 E8000000 		call	_ZN8UnitTest10CheckEqualI12BufferStatusS1_EEvRNS_11TestResultsERKT_RKT0_RKNS_11TestDetailsE
 1267      00
 1268              	.LEHE58:
 1269              	.L87:
  60:testHexIO.cpp **** 	status = bufProcessLine(line, 0, &data, &mask, &seg, &recordType, NULL);
 1270              		.loc 4 60 0 is_stmt 1
 1271 080d 488DBD67 		leaq	-153(%rbp), %rdi
 1271      FFFFFF
 1272 0814 488DB56C 		leaq	-148(%rbp), %rsi
 1272      FFFFFF
 1273 081b 488D4DA0 		leaq	-96(%rbp), %rcx
 1274 081f 488D5580 		leaq	-128(%rbp), %rdx
 1275 0823 488B8578 		movq	-136(%rbp), %rax
 1275      FFFFFF
 1276 082a 4883EC08 		subq	$8, %rsp
 1277 082e 6A00     		pushq	$0
 1278 0830 4989F9   		movq	%rdi, %r9
 1279 0833 4989F0   		movq	%rsi, %r8
 1280 0836 BE000000 		movl	$0, %esi
 1280      00
 1281 083b 4889C7   		movq	%rax, %rdi
 1282              	.LEHB59:
 1283 083e E8000000 		call	bufProcessLine
 1283      00
 1284              	.LEHE59:
 1285 0843 4883C410 		addq	$16, %rsp
 1286 0847 898568FF 		movl	%eax, -152(%rbp)
 1286      FFFF
 1287              	.LEHB60:
  61:testHexIO.cpp **** 	CHECK_EQUAL(BUF_SUCCESS, status);
 1288              		.loc 4 61 0
 1289 084d E8000000 		call	_ZN8UnitTest11CurrentTest7DetailsEv
 1289      00
 1290 0852 488B08   		movq	(%rax), %rcx
 1291 0855 488D45C0 		leaq	-64(%rbp), %rax
 1292 0859 BA3D0000 		movl	$61, %edx
 1292      00
 1293 085e 4889CE   		movq	%rcx, %rsi
 1294 0861 4889C7   		movq	%rax, %rdi
 1295 0864 E8000000 		call	_ZN8UnitTest11TestDetailsC1ERKS0_i
 1295      00
 1296              	.LEHE60:
 1297              		.loc 4 61 0 is_stmt 0 discriminator 2
 1298 0869 C78570FF 		movl	$0, -144(%rbp)
 1298      FFFF0000 
 1298      0000
 1299              	.LEHB61:
 1300 0873 E8000000 		call	_ZN8UnitTest11CurrentTest7ResultsEv
 1300      00
 1301 0878 488B00   		movq	(%rax), %rax
 1302 087b 488D4DC0 		leaq	-64(%rbp), %rcx
 1303 087f 488D9568 		leaq	-152(%rbp), %rdx
 1303      FFFFFF
 1304 0886 488DB570 		leaq	-144(%rbp), %rsi
 1304      FFFFFF
 1305 088d 4889C7   		movq	%rax, %rdi
 1306 0890 E8000000 		call	_ZN8UnitTest10CheckEqualI12BufferStatusS1_EEvRNS_11TestResultsERKT_RKT0_RKNS_11TestDetailsE
 1306      00
 1307              	.LEHE61:
 1308              	.L91:
 1309              	.LEHB62:
  62:testHexIO.cpp **** 	CHECK_EQUAL(0x01, recordType);
 1310              		.loc 4 62 0 is_stmt 1
 1311 0895 E8000000 		call	_ZN8UnitTest11CurrentTest7DetailsEv
 1311      00
 1312 089a 488B08   		movq	(%rax), %rcx
 1313 089d 488D45C0 		leaq	-64(%rbp), %rax
 1314 08a1 BA3E0000 		movl	$62, %edx
 1314      00
 1315 08a6 4889CE   		movq	%rcx, %rsi
 1316 08a9 4889C7   		movq	%rax, %rdi
 1317 08ac E8000000 		call	_ZN8UnitTest11TestDetailsC1ERKS0_i
 1317      00
 1318              	.LEHE62:
 1319              		.loc 4 62 0 is_stmt 0 discriminator 2
 1320 08b1 C78570FF 		movl	$1, -144(%rbp)
 1320      FFFF0100 
 1320      0000
 1321              	.LEHB63:
 1322 08bb E8000000 		call	_ZN8UnitTest11CurrentTest7ResultsEv
 1322      00
 1323 08c0 488B00   		movq	(%rax), %rax
 1324 08c3 488D4DC0 		leaq	-64(%rbp), %rcx
 1325 08c7 488D9567 		leaq	-153(%rbp), %rdx
 1325      FFFFFF
 1326 08ce 488DB570 		leaq	-144(%rbp), %rsi
 1326      FFFFFF
 1327 08d5 4889C7   		movq	%rax, %rdi
 1328 08d8 E8000000 		call	_ZN8UnitTest10CheckEqualIihEEvRNS_11TestResultsERKT_RKT0_RKNS_11TestDetailsE
 1328      00
 1329              	.LEHE63:
 1330              	.L95:
 1331              	.LEHB64:
  63:testHexIO.cpp **** 	CHECK_EQUAL(0UL, data.length);
 1332              		.loc 4 63 0 is_stmt 1
 1333 08dd E8000000 		call	_ZN8UnitTest11CurrentTest7DetailsEv
 1333      00
 1334 08e2 488B08   		movq	(%rax), %rcx
 1335 08e5 488D45C0 		leaq	-64(%rbp), %rax
 1336 08e9 BA3F0000 		movl	$63, %edx
 1336      00
 1337 08ee 4889CE   		movq	%rcx, %rsi
 1338 08f1 4889C7   		movq	%rax, %rdi
 1339 08f4 E8000000 		call	_ZN8UnitTest11TestDetailsC1ERKS0_i
 1339      00
 1340              	.LEHE64:
 1341              		.loc 4 63 0 is_stmt 0 discriminator 2
 1342 08f9 48C78570 		movq	$0, -144(%rbp)
 1342      FFFFFF00 
 1342      000000
 1343              	.LEHB65:
 1344 0904 E8000000 		call	_ZN8UnitTest11CurrentTest7ResultsEv
 1344      00
 1345 0909 488B00   		movq	(%rax), %rax
 1346 090c 488D55C0 		leaq	-64(%rbp), %rdx
 1347 0910 488D4D80 		leaq	-128(%rbp), %rcx
 1348 0914 488D7908 		leaq	8(%rcx), %rdi
 1349 0918 488DB570 		leaq	-144(%rbp), %rsi
 1349      FFFFFF
 1350 091f 4889D1   		movq	%rdx, %rcx
 1351 0922 4889FA   		movq	%rdi, %rdx
 1352 0925 4889C7   		movq	%rax, %rdi
 1353 0928 E8000000 		call	_ZN8UnitTest10CheckEqualImmEEvRNS_11TestResultsERKT_RKT0_RKNS_11TestDetailsE
 1353      00
 1354              	.LEHE65:
 1355              	.L99:
 1356              	.LEHB66:
  64:testHexIO.cpp **** 	CHECK_EQUAL(0UL, mask.length);
 1357              		.loc 4 64 0 is_stmt 1
 1358 092d E8000000 		call	_ZN8UnitTest11CurrentTest7DetailsEv
 1358      00
 1359 0932 488B08   		movq	(%rax), %rcx
 1360 0935 488D45C0 		leaq	-64(%rbp), %rax
 1361 0939 BA400000 		movl	$64, %edx
 1361      00
 1362 093e 4889CE   		movq	%rcx, %rsi
 1363 0941 4889C7   		movq	%rax, %rdi
 1364 0944 E8000000 		call	_ZN8UnitTest11TestDetailsC1ERKS0_i
 1364      00
 1365              	.LEHE66:
 1366              		.loc 4 64 0 is_stmt 0 discriminator 2
 1367 0949 48C78570 		movq	$0, -144(%rbp)
 1367      FFFFFF00 
 1367      000000
 1368              	.LEHB67:
 1369 0954 E8000000 		call	_ZN8UnitTest11CurrentTest7ResultsEv
 1369      00
 1370 0959 488B00   		movq	(%rax), %rax
 1371 095c 488D55C0 		leaq	-64(%rbp), %rdx
 1372 0960 488D4DA0 		leaq	-96(%rbp), %rcx
 1373 0964 488D7908 		leaq	8(%rcx), %rdi
 1374 0968 488DB570 		leaq	-144(%rbp), %rsi
 1374      FFFFFF
 1375 096f 4889D1   		movq	%rdx, %rcx
 1376 0972 4889FA   		movq	%rdi, %rdx
 1377 0975 4889C7   		movq	%rax, %rdi
 1378 0978 E8000000 		call	_ZN8UnitTest10CheckEqualImmEEvRNS_11TestResultsERKT_RKT0_RKNS_11TestDetailsE
 1378      00
 1379              	.LEHE67:
 1380              	.L103:
  65:testHexIO.cpp **** 	bufDestroy(&mask);
 1381              		.loc 4 65 0 is_stmt 1
 1382 097d 488D45A0 		leaq	-96(%rbp), %rax
 1383 0981 4889C7   		movq	%rax, %rdi
 1384              	.LEHB68:
 1385 0984 E8000000 		call	bufDestroy
 1385      00
  66:testHexIO.cpp **** 	bufDestroy(&data);
 1386              		.loc 4 66 0
 1387 0989 488D4580 		leaq	-128(%rbp), %rax
 1388 098d 4889C7   		movq	%rax, %rdi
 1389 0990 E8000000 		call	bufDestroy
 1389      00
 1390              	.LEHE68:
  67:testHexIO.cpp **** }
 1391              		.loc 4 67 0
 1392 0995 90       		nop
 1393 0996 488B45E8 		movq	-24(%rbp), %rax
 1394 099a 64483304 		xorq	%fs:40, %rax
 1394      25280000 
 1394      00
 1395 09a3 0F844402 		je	.L105
 1395      0000
 1396 09a9 E93A0200 		jmp	.L124
 1396      00
 1397              	.L107:
 1398 09ae EB00     		jmp	.L82
 1399              	.L106:
 1400              	.L82:
  57:testHexIO.cpp **** 	status = bufInitialise(&mask, 1024, 0x00, NULL);
 1401              		.loc 4 57 0
 1402 09b0 4889C7   		movq	%rax, %rdi
 1403 09b3 E8000000 		call	__cxa_begin_catch
 1403      00
 1404              	.LEHB69:
 1405 09b8 E8000000 		call	_ZN8UnitTest11CurrentTest7DetailsEv
 1405      00
 1406 09bd 488B08   		movq	(%rax), %rcx
 1407 09c0 488D45C0 		leaq	-64(%rbp), %rax
 1408 09c4 BA390000 		movl	$57, %edx
 1408      00
 1409 09c9 4889CE   		movq	%rcx, %rsi
 1410 09cc 4889C7   		movq	%rax, %rdi
 1411 09cf E8000000 		call	_ZN8UnitTest11TestDetailsC1ERKS0_i
 1411      00
  57:testHexIO.cpp **** 	status = bufInitialise(&mask, 1024, 0x00, NULL);
 1412              		.loc 4 57 0 is_stmt 0 discriminator 10
 1413 09d4 E8000000 		call	_ZN8UnitTest11CurrentTest7ResultsEv
 1413      00
 1414 09d9 488B00   		movq	(%rax), %rax
 1415 09dc 488D4DC0 		leaq	-64(%rbp), %rcx
 1416 09e0 BA000000 		movl	$.LC4, %edx
 1416      00
 1417 09e5 4889CE   		movq	%rcx, %rsi
 1418 09e8 4889C7   		movq	%rax, %rdi
 1419 09eb E8000000 		call	_ZN8UnitTest11TestResults13OnTestFailureERKNS_11TestDetailsEPKc
 1419      00
 1420              	.LEHE69:
 1421              	.LEHB70:
  57:testHexIO.cpp **** 	status = bufInitialise(&mask, 1024, 0x00, NULL);
 1422              		.loc 4 57 0 discriminator 14
 1423 09f0 E8000000 		call	__cxa_end_catch
 1423      00
 1424              	.LEHE70:
 1425 09f5 E9AAFDFF 		jmp	.L83
 1425      FF
 1426              	.L108:
 1427 09fa 4889C3   		movq	%rax, %rbx
  57:testHexIO.cpp **** 	status = bufInitialise(&mask, 1024, 0x00, NULL);
 1428              		.loc 4 57 0
 1429 09fd E8000000 		call	__cxa_end_catch
 1429      00
 1430 0a02 4889D8   		movq	%rbx, %rax
 1431 0a05 4889C7   		movq	%rax, %rdi
 1432              	.LEHB71:
 1433 0a08 E8000000 		call	_Unwind_Resume
 1433      00
 1434              	.LEHE71:
 1435              	.L110:
 1436 0a0d EB00     		jmp	.L86
 1437              	.L109:
 1438              	.L86:
  59:testHexIO.cpp **** 	status = bufProcessLine(line, 0, &data, &mask, &seg, &recordType, NULL);
 1439              		.loc 4 59 0 is_stmt 1
 1440 0a0f 4889C7   		movq	%rax, %rdi
 1441 0a12 E8000000 		call	__cxa_begin_catch
 1441      00
 1442              	.LEHB72:
 1443 0a17 E8000000 		call	_ZN8UnitTest11CurrentTest7DetailsEv
 1443      00
 1444 0a1c 488B08   		movq	(%rax), %rcx
 1445 0a1f 488D45C0 		leaq	-64(%rbp), %rax
 1446 0a23 BA3B0000 		movl	$59, %edx
 1446      00
 1447 0a28 4889CE   		movq	%rcx, %rsi
 1448 0a2b 4889C7   		movq	%rax, %rdi
 1449 0a2e E8000000 		call	_ZN8UnitTest11TestDetailsC1ERKS0_i
 1449      00
  59:testHexIO.cpp **** 	status = bufProcessLine(line, 0, &data, &mask, &seg, &recordType, NULL);
 1450              		.loc 4 59 0 is_stmt 0 discriminator 10
 1451 0a33 E8000000 		call	_ZN8UnitTest11CurrentTest7ResultsEv
 1451      00
 1452 0a38 488B00   		movq	(%rax), %rax
 1453 0a3b 488D4DC0 		leaq	-64(%rbp), %rcx
 1454 0a3f BA000000 		movl	$.LC4, %edx
 1454      00
 1455 0a44 4889CE   		movq	%rcx, %rsi
 1456 0a47 4889C7   		movq	%rax, %rdi
 1457 0a4a E8000000 		call	_ZN8UnitTest11TestResults13OnTestFailureERKNS_11TestDetailsEPKc
 1457      00
 1458              	.LEHE72:
 1459              	.LEHB73:
  59:testHexIO.cpp **** 	status = bufProcessLine(line, 0, &data, &mask, &seg, &recordType, NULL);
 1460              		.loc 4 59 0 discriminator 14
 1461 0a4f E8000000 		call	__cxa_end_catch
 1461      00
 1462              	.LEHE73:
 1463 0a54 E9B4FDFF 		jmp	.L87
 1463      FF
 1464              	.L111:
 1465 0a59 4889C3   		movq	%rax, %rbx
  59:testHexIO.cpp **** 	status = bufProcessLine(line, 0, &data, &mask, &seg, &recordType, NULL);
 1466              		.loc 4 59 0
 1467 0a5c E8000000 		call	__cxa_end_catch
 1467      00
 1468 0a61 4889D8   		movq	%rbx, %rax
 1469 0a64 4889C7   		movq	%rax, %rdi
 1470              	.LEHB74:
 1471 0a67 E8000000 		call	_Unwind_Resume
 1471      00
 1472              	.LEHE74:
 1473              	.L113:
 1474 0a6c EB00     		jmp	.L90
 1475              	.L112:
 1476              	.L90:
  61:testHexIO.cpp **** 	CHECK_EQUAL(0x01, recordType);
 1477              		.loc 4 61 0 is_stmt 1
 1478 0a6e 4889C7   		movq	%rax, %rdi
 1479 0a71 E8000000 		call	__cxa_begin_catch
 1479      00
 1480              	.LEHB75:
 1481 0a76 E8000000 		call	_ZN8UnitTest11CurrentTest7DetailsEv
 1481      00
 1482 0a7b 488B08   		movq	(%rax), %rcx
 1483 0a7e 488D45C0 		leaq	-64(%rbp), %rax
 1484 0a82 BA3D0000 		movl	$61, %edx
 1484      00
 1485 0a87 4889CE   		movq	%rcx, %rsi
 1486 0a8a 4889C7   		movq	%rax, %rdi
 1487 0a8d E8000000 		call	_ZN8UnitTest11TestDetailsC1ERKS0_i
 1487      00
  61:testHexIO.cpp **** 	CHECK_EQUAL(0x01, recordType);
 1488              		.loc 4 61 0 is_stmt 0 discriminator 10
 1489 0a92 E8000000 		call	_ZN8UnitTest11CurrentTest7ResultsEv
 1489      00
 1490 0a97 488B00   		movq	(%rax), %rax
 1491 0a9a 488D4DC0 		leaq	-64(%rbp), %rcx
 1492 0a9e BA000000 		movl	$.LC4, %edx
 1492      00
 1493 0aa3 4889CE   		movq	%rcx, %rsi
 1494 0aa6 4889C7   		movq	%rax, %rdi
 1495 0aa9 E8000000 		call	_ZN8UnitTest11TestResults13OnTestFailureERKNS_11TestDetailsEPKc
 1495      00
 1496              	.LEHE75:
 1497              	.LEHB76:
  61:testHexIO.cpp **** 	CHECK_EQUAL(0x01, recordType);
 1498              		.loc 4 61 0 discriminator 14
 1499 0aae E8000000 		call	__cxa_end_catch
 1499      00
 1500              	.LEHE76:
 1501 0ab3 E9DDFDFF 		jmp	.L91
 1501      FF
 1502              	.L114:
 1503 0ab8 4889C3   		movq	%rax, %rbx
  61:testHexIO.cpp **** 	CHECK_EQUAL(0x01, recordType);
 1504              		.loc 4 61 0
 1505 0abb E8000000 		call	__cxa_end_catch
 1505      00
 1506 0ac0 4889D8   		movq	%rbx, %rax
 1507 0ac3 4889C7   		movq	%rax, %rdi
 1508              	.LEHB77:
 1509 0ac6 E8000000 		call	_Unwind_Resume
 1509      00
 1510              	.LEHE77:
 1511              	.L116:
 1512 0acb EB00     		jmp	.L94
 1513              	.L115:
 1514              	.L94:
  62:testHexIO.cpp **** 	CHECK_EQUAL(0UL, data.length);
 1515              		.loc 4 62 0 is_stmt 1
 1516 0acd 4889C7   		movq	%rax, %rdi
 1517 0ad0 E8000000 		call	__cxa_begin_catch
 1517      00
 1518              	.LEHB78:
 1519 0ad5 E8000000 		call	_ZN8UnitTest11CurrentTest7DetailsEv
 1519      00
 1520 0ada 488B08   		movq	(%rax), %rcx
 1521 0add 488D45C0 		leaq	-64(%rbp), %rax
 1522 0ae1 BA3E0000 		movl	$62, %edx
 1522      00
 1523 0ae6 4889CE   		movq	%rcx, %rsi
 1524 0ae9 4889C7   		movq	%rax, %rdi
 1525 0aec E8000000 		call	_ZN8UnitTest11TestDetailsC1ERKS0_i
 1525      00
  62:testHexIO.cpp **** 	CHECK_EQUAL(0UL, data.length);
 1526              		.loc 4 62 0 is_stmt 0 discriminator 10
 1527 0af1 E8000000 		call	_ZN8UnitTest11CurrentTest7ResultsEv
 1527      00
 1528 0af6 488B00   		movq	(%rax), %rax
 1529 0af9 488D4DC0 		leaq	-64(%rbp), %rcx
 1530 0afd BA000000 		movl	$.LC13, %edx
 1530      00
 1531 0b02 4889CE   		movq	%rcx, %rsi
 1532 0b05 4889C7   		movq	%rax, %rdi
 1533 0b08 E8000000 		call	_ZN8UnitTest11TestResults13OnTestFailureERKNS_11TestDetailsEPKc
 1533      00
 1534              	.LEHE78:
 1535              	.LEHB79:
  62:testHexIO.cpp **** 	CHECK_EQUAL(0UL, data.length);
 1536              		.loc 4 62 0 discriminator 14
 1537 0b0d E8000000 		call	__cxa_end_catch
 1537      00
 1538              	.LEHE79:
 1539 0b12 E9C6FDFF 		jmp	.L95
 1539      FF
 1540              	.L117:
 1541 0b17 4889C3   		movq	%rax, %rbx
  62:testHexIO.cpp **** 	CHECK_EQUAL(0UL, data.length);
 1542              		.loc 4 62 0
 1543 0b1a E8000000 		call	__cxa_end_catch
 1543      00
 1544 0b1f 4889D8   		movq	%rbx, %rax
 1545 0b22 4889C7   		movq	%rax, %rdi
 1546              	.LEHB80:
 1547 0b25 E8000000 		call	_Unwind_Resume
 1547      00
 1548              	.LEHE80:
 1549              	.L119:
 1550 0b2a EB00     		jmp	.L98
 1551              	.L118:
 1552              	.L98:
  63:testHexIO.cpp **** 	CHECK_EQUAL(0UL, mask.length);
 1553              		.loc 4 63 0 is_stmt 1
 1554 0b2c 4889C7   		movq	%rax, %rdi
 1555 0b2f E8000000 		call	__cxa_begin_catch
 1555      00
 1556              	.LEHB81:
 1557 0b34 E8000000 		call	_ZN8UnitTest11CurrentTest7DetailsEv
 1557      00
 1558 0b39 488B08   		movq	(%rax), %rcx
 1559 0b3c 488D45C0 		leaq	-64(%rbp), %rax
 1560 0b40 BA3F0000 		movl	$63, %edx
 1560      00
 1561 0b45 4889CE   		movq	%rcx, %rsi
 1562 0b48 4889C7   		movq	%rax, %rdi
 1563 0b4b E8000000 		call	_ZN8UnitTest11TestDetailsC1ERKS0_i
 1563      00
  63:testHexIO.cpp **** 	CHECK_EQUAL(0UL, mask.length);
 1564              		.loc 4 63 0 is_stmt 0 discriminator 10
 1565 0b50 E8000000 		call	_ZN8UnitTest11CurrentTest7ResultsEv
 1565      00
 1566 0b55 488B00   		movq	(%rax), %rax
 1567 0b58 488D4DC0 		leaq	-64(%rbp), %rcx
 1568 0b5c BA000000 		movl	$.LC14, %edx
 1568      00
 1569 0b61 4889CE   		movq	%rcx, %rsi
 1570 0b64 4889C7   		movq	%rax, %rdi
 1571 0b67 E8000000 		call	_ZN8UnitTest11TestResults13OnTestFailureERKNS_11TestDetailsEPKc
 1571      00
 1572              	.LEHE81:
 1573              	.LEHB82:
  63:testHexIO.cpp **** 	CHECK_EQUAL(0UL, mask.length);
 1574              		.loc 4 63 0 discriminator 14
 1575 0b6c E8000000 		call	__cxa_end_catch
 1575      00
 1576              	.LEHE82:
 1577 0b71 E9B7FDFF 		jmp	.L99
 1577      FF
 1578              	.L120:
 1579 0b76 4889C3   		movq	%rax, %rbx
  63:testHexIO.cpp **** 	CHECK_EQUAL(0UL, mask.length);
 1580              		.loc 4 63 0
 1581 0b79 E8000000 		call	__cxa_end_catch
 1581      00
 1582 0b7e 4889D8   		movq	%rbx, %rax
 1583 0b81 4889C7   		movq	%rax, %rdi
 1584              	.LEHB83:
 1585 0b84 E8000000 		call	_Unwind_Resume
 1585      00
 1586              	.LEHE83:
 1587              	.L122:
 1588 0b89 EB00     		jmp	.L102
 1589              	.L121:
 1590              	.L102:
  64:testHexIO.cpp **** 	bufDestroy(&mask);
 1591              		.loc 4 64 0 is_stmt 1
 1592 0b8b 4889C7   		movq	%rax, %rdi
 1593 0b8e E8000000 		call	__cxa_begin_catch
 1593      00
 1594              	.LEHB84:
 1595 0b93 E8000000 		call	_ZN8UnitTest11CurrentTest7DetailsEv
 1595      00
 1596 0b98 488B08   		movq	(%rax), %rcx
 1597 0b9b 488D45C0 		leaq	-64(%rbp), %rax
 1598 0b9f BA400000 		movl	$64, %edx
 1598      00
 1599 0ba4 4889CE   		movq	%rcx, %rsi
 1600 0ba7 4889C7   		movq	%rax, %rdi
 1601 0baa E8000000 		call	_ZN8UnitTest11TestDetailsC1ERKS0_i
 1601      00
  64:testHexIO.cpp **** 	bufDestroy(&mask);
 1602              		.loc 4 64 0 is_stmt 0 discriminator 10
 1603 0baf E8000000 		call	_ZN8UnitTest11CurrentTest7ResultsEv
 1603      00
 1604 0bb4 488B00   		movq	(%rax), %rax
 1605 0bb7 488D4DC0 		leaq	-64(%rbp), %rcx
 1606 0bbb BA000000 		movl	$.LC15, %edx
 1606      00
 1607 0bc0 4889CE   		movq	%rcx, %rsi
 1608 0bc3 4889C7   		movq	%rax, %rdi
 1609 0bc6 E8000000 		call	_ZN8UnitTest11TestResults13OnTestFailureERKNS_11TestDetailsEPKc
 1609      00
 1610              	.LEHE84:
 1611              	.LEHB85:
  64:testHexIO.cpp **** 	bufDestroy(&mask);
 1612              		.loc 4 64 0 discriminator 14
 1613 0bcb E8000000 		call	__cxa_end_catch
 1613      00
 1614              	.LEHE85:
 1615 0bd0 E9A8FDFF 		jmp	.L103
 1615      FF
 1616              	.L123:
 1617 0bd5 4889C3   		movq	%rax, %rbx
  64:testHexIO.cpp **** 	bufDestroy(&mask);
 1618              		.loc 4 64 0
 1619 0bd8 E8000000 		call	__cxa_end_catch
 1619      00
 1620 0bdd 4889D8   		movq	%rbx, %rax
 1621 0be0 4889C7   		movq	%rax, %rdi
 1622              	.LEHB86:
 1623 0be3 E8000000 		call	_Unwind_Resume
 1623      00
 1624              	.LEHE86:
 1625              	.L124:
 1626              		.loc 4 67 0 is_stmt 1
 1627 0be8 E8000000 		call	__stack_chk_fail
 1627      00
 1628              	.L105:
 1629 0bed 488B5DF8 		movq	-8(%rbp), %rbx
 1630 0bf1 C9       		leave
 1631              		.cfi_def_cfa 7, 8
 1632 0bf2 C3       		ret
 1633              		.cfi_endproc
 1634              	.LFE1144:
 1635              		.section	.gcc_except_table
 1636              		.align 4
 1637              	.LLSDA1144:
 1638 0120 FF       		.byte	0xff
 1639 0121 03       		.byte	0x3
 1640 0122 C401     		.uleb128 .LLSDATT1144-.LLSDATTD1144
 1641              	.LLSDATTD1144:
 1642 0124 01       		.byte	0x1
 1643 0125 B901     		.uleb128 .LLSDACSE1144-.LLSDACSB1144
 1644              	.LLSDACSB1144:
 1645 0127 4D       		.uleb128 .LEHB53-.LFB1144
 1646 0128 05       		.uleb128 .LEHE53-.LEHB53
 1647 0129 00       		.uleb128 0
 1648 012a 00       		.uleb128 0
 1649 012b 58       		.uleb128 .LEHB54-.LFB1144
 1650 012c 1C       		.uleb128 .LEHE54-.LEHB54
 1651 012d A605     		.uleb128 .L106-.LFB1144
 1652 012f 01       		.uleb128 0x1
 1653 0130 7B       		.uleb128 .LEHB55-.LFB1144
 1654 0131 1F       		.uleb128 .LEHE55-.LEHB55
 1655 0132 A405     		.uleb128 .L107-.LFB1144
 1656 0134 03       		.uleb128 0x3
 1657 0135 B001     		.uleb128 .LEHB56-.LFB1144
 1658 0137 05       		.uleb128 .LEHE56-.LEHB56
 1659 0138 00       		.uleb128 0
 1660 0139 00       		.uleb128 0
 1661 013a BB01     		.uleb128 .LEHB57-.LFB1144
 1662 013c 1C       		.uleb128 .LEHE57-.LEHB57
 1663 013d 8506     		.uleb128 .L109-.LFB1144
 1664 013f 01       		.uleb128 0x1
 1665 0140 E101     		.uleb128 .LEHB58-.LFB1144
 1666 0142 22       		.uleb128 .LEHE58-.LEHB58
 1667 0143 8306     		.uleb128 .L110-.LFB1144
 1668 0145 03       		.uleb128 0x3
 1669 0146 B402     		.uleb128 .LEHB59-.LFB1144
 1670 0148 05       		.uleb128 .LEHE59-.LEHB59
 1671 0149 00       		.uleb128 0
 1672 014a 00       		.uleb128 0
 1673 014b C302     		.uleb128 .LEHB60-.LFB1144
 1674 014d 1C       		.uleb128 .LEHE60-.LEHB60
 1675 014e E406     		.uleb128 .L112-.LFB1144
 1676 0150 01       		.uleb128 0x1
 1677 0151 E902     		.uleb128 .LEHB61-.LFB1144
 1678 0153 22       		.uleb128 .LEHE61-.LEHB61
 1679 0154 E206     		.uleb128 .L113-.LFB1144
 1680 0156 03       		.uleb128 0x3
 1681 0157 8B03     		.uleb128 .LEHB62-.LFB1144
 1682 0159 1C       		.uleb128 .LEHE62-.LEHB62
 1683 015a C307     		.uleb128 .L115-.LFB1144
 1684 015c 01       		.uleb128 0x1
 1685 015d B103     		.uleb128 .LEHB63-.LFB1144
 1686 015f 22       		.uleb128 .LEHE63-.LEHB63
 1687 0160 C107     		.uleb128 .L116-.LFB1144
 1688 0162 03       		.uleb128 0x3
 1689 0163 D303     		.uleb128 .LEHB64-.LFB1144
 1690 0165 1C       		.uleb128 .LEHE64-.LEHB64
 1691 0166 A208     		.uleb128 .L118-.LFB1144
 1692 0168 01       		.uleb128 0x1
 1693 0169 FA03     		.uleb128 .LEHB65-.LFB1144
 1694 016b 29       		.uleb128 .LEHE65-.LEHB65
 1695 016c A008     		.uleb128 .L119-.LFB1144
 1696 016e 03       		.uleb128 0x3
 1697 016f A304     		.uleb128 .LEHB66-.LFB1144
 1698 0171 1C       		.uleb128 .LEHE66-.LEHB66
 1699 0172 8109     		.uleb128 .L121-.LFB1144
 1700 0174 01       		.uleb128 0x1
 1701 0175 CA04     		.uleb128 .LEHB67-.LFB1144
 1702 0177 29       		.uleb128 .LEHE67-.LEHB67
 1703 0178 FF08     		.uleb128 .L122-.LFB1144
 1704 017a 03       		.uleb128 0x3
 1705 017b FA04     		.uleb128 .LEHB68-.LFB1144
 1706 017d 11       		.uleb128 .LEHE68-.LEHB68
 1707 017e 00       		.uleb128 0
 1708 017f 00       		.uleb128 0
 1709 0180 AE05     		.uleb128 .LEHB69-.LFB1144
 1710 0182 38       		.uleb128 .LEHE69-.LEHB69
 1711 0183 F005     		.uleb128 .L108-.LFB1144
 1712 0185 00       		.uleb128 0
 1713 0186 E605     		.uleb128 .LEHB70-.LFB1144
 1714 0188 05       		.uleb128 .LEHE70-.LEHB70
 1715 0189 00       		.uleb128 0
 1716 018a 00       		.uleb128 0
 1717 018b FE05     		.uleb128 .LEHB71-.LFB1144
 1718 018d 05       		.uleb128 .LEHE71-.LEHB71
 1719 018e 00       		.uleb128 0
 1720 018f 00       		.uleb128 0
 1721 0190 8D06     		.uleb128 .LEHB72-.LFB1144
 1722 0192 38       		.uleb128 .LEHE72-.LEHB72
 1723 0193 CF06     		.uleb128 .L111-.LFB1144
 1724 0195 00       		.uleb128 0
 1725 0196 C506     		.uleb128 .LEHB73-.LFB1144
 1726 0198 05       		.uleb128 .LEHE73-.LEHB73
 1727 0199 00       		.uleb128 0
 1728 019a 00       		.uleb128 0
 1729 019b DD06     		.uleb128 .LEHB74-.LFB1144
 1730 019d 05       		.uleb128 .LEHE74-.LEHB74
 1731 019e 00       		.uleb128 0
 1732 019f 00       		.uleb128 0
 1733 01a0 EC06     		.uleb128 .LEHB75-.LFB1144
 1734 01a2 38       		.uleb128 .LEHE75-.LEHB75
 1735 01a3 AE07     		.uleb128 .L114-.LFB1144
 1736 01a5 00       		.uleb128 0
 1737 01a6 A407     		.uleb128 .LEHB76-.LFB1144
 1738 01a8 05       		.uleb128 .LEHE76-.LEHB76
 1739 01a9 00       		.uleb128 0
 1740 01aa 00       		.uleb128 0
 1741 01ab BC07     		.uleb128 .LEHB77-.LFB1144
 1742 01ad 05       		.uleb128 .LEHE77-.LEHB77
 1743 01ae 00       		.uleb128 0
 1744 01af 00       		.uleb128 0
 1745 01b0 CB07     		.uleb128 .LEHB78-.LFB1144
 1746 01b2 38       		.uleb128 .LEHE78-.LEHB78
 1747 01b3 8D08     		.uleb128 .L117-.LFB1144
 1748 01b5 00       		.uleb128 0
 1749 01b6 8308     		.uleb128 .LEHB79-.LFB1144
 1750 01b8 05       		.uleb128 .LEHE79-.LEHB79
 1751 01b9 00       		.uleb128 0
 1752 01ba 00       		.uleb128 0
 1753 01bb 9B08     		.uleb128 .LEHB80-.LFB1144
 1754 01bd 05       		.uleb128 .LEHE80-.LEHB80
 1755 01be 00       		.uleb128 0
 1756 01bf 00       		.uleb128 0
 1757 01c0 AA08     		.uleb128 .LEHB81-.LFB1144
 1758 01c2 38       		.uleb128 .LEHE81-.LEHB81
 1759 01c3 EC08     		.uleb128 .L120-.LFB1144
 1760 01c5 00       		.uleb128 0
 1761 01c6 E208     		.uleb128 .LEHB82-.LFB1144
 1762 01c8 05       		.uleb128 .LEHE82-.LEHB82
 1763 01c9 00       		.uleb128 0
 1764 01ca 00       		.uleb128 0
 1765 01cb FA08     		.uleb128 .LEHB83-.LFB1144
 1766 01cd 05       		.uleb128 .LEHE83-.LEHB83
 1767 01ce 00       		.uleb128 0
 1768 01cf 00       		.uleb128 0
 1769 01d0 8909     		.uleb128 .LEHB84-.LFB1144
 1770 01d2 38       		.uleb128 .LEHE84-.LEHB84
 1771 01d3 CB09     		.uleb128 .L123-.LFB1144
 1772 01d5 00       		.uleb128 0
 1773 01d6 C109     		.uleb128 .LEHB85-.LFB1144
 1774 01d8 05       		.uleb128 .LEHE85-.LEHB85
 1775 01d9 00       		.uleb128 0
 1776 01da 00       		.uleb128 0
 1777 01db D909     		.uleb128 .LEHB86-.LFB1144
 1778 01dd 05       		.uleb128 .LEHE86-.LEHB86
 1779 01de 00       		.uleb128 0
 1780 01df 00       		.uleb128 0
 1781              	.LLSDACSE1144:
 1782 01e0 01       		.byte	0x1
 1783 01e1 00       		.byte	0
 1784 01e2 00       		.byte	0
 1785 01e3 7D       		.byte	0x7d
 1786              		.align 4
 1787 01e4 00000000 		.long	0
 1788              	
 1789              	.LLSDATT1144:
 1790              		.text
 1792              		.section	.rodata
 1793              	.LC16:
 1794 02c5 48657849 		.string	"HexIO_testJunkStartCode"
 1794      4F5F7465 
 1794      73744A75 
 1794      6E6B5374 
 1794      61727443 
 1795              		.section	.text._ZN27TestHexIO_testJunkStartCodeC2Ev,"axG",@progbits,_ZN27TestHexIO_testJunkStartCo
 1796              		.align 2
 1797              		.weak	_ZN27TestHexIO_testJunkStartCodeC2Ev
 1799              	_ZN27TestHexIO_testJunkStartCodeC2Ev:
 1800              	.LFB1146:
  68:testHexIO.cpp **** 
  69:testHexIO.cpp **** TEST(HexIO_testJunkStartCode) {
 1801              		.loc 4 69 0
 1802              		.cfi_startproc
 1803 0000 55       		pushq	%rbp
 1804              		.cfi_def_cfa_offset 16
 1805              		.cfi_offset 6, -16
 1806 0001 4889E5   		movq	%rsp, %rbp
 1807              		.cfi_def_cfa_register 6
 1808 0004 4883EC10 		subq	$16, %rsp
 1809 0008 48897DF8 		movq	%rdi, -8(%rbp)
 1810              	.LBB6:
 1811              		.loc 4 69 0
 1812 000c E8000000 		call	_ZN13UnitTestSuite12GetSuiteNameEv
 1812      00
 1813 0011 4889C2   		movq	%rax, %rdx
 1814 0014 488B45F8 		movq	-8(%rbp), %rax
 1815 0018 41B84500 		movl	$69, %r8d
 1815      0000
 1816 001e B9000000 		movl	$.LC1, %ecx
 1816      00
 1817 0023 BE000000 		movl	$.LC16, %esi
 1817      00
 1818 0028 4889C7   		movq	%rax, %rdi
 1819 002b E8000000 		call	_ZN8UnitTest4TestC2EPKcS2_S2_i
 1819      00
 1820 0030 BA000000 		movl	$_ZTV27TestHexIO_testJunkStartCode+16, %edx
 1820      00
 1821 0035 488B45F8 		movq	-8(%rbp), %rax
 1822 0039 488910   		movq	%rdx, (%rax)
 1823              	.LBE6:
 1824 003c 90       		nop
 1825 003d C9       		leave
 1826              		.cfi_def_cfa 7, 8
 1827 003e C3       		ret
 1828              		.cfi_endproc
 1829              	.LFE1146:
 1831              		.weak	_ZN27TestHexIO_testJunkStartCodeC1Ev
 1832              		.set	_ZN27TestHexIO_testJunkStartCodeC1Ev,_ZN27TestHexIO_testJunkStartCodeC2Ev
 1833              		.globl	testHexIO_testJunkStartCodeInstance
 1834              		.bss
 1835 0079 00000000 		.align 32
 1835      000000
 1838              	testHexIO_testJunkStartCodeInstance:
 1839 0080 00000000 		.zero	56
 1839      00000000 
 1839      00000000 
 1839      00000000 
 1839      00000000 
 1840              		.globl	adderHexIO_testJunkStartCode
 1843              	adderHexIO_testJunkStartCode:
 1844 00b8 00       		.zero	1
 1845              		.section	.rodata
 1846              	.LC17:
 1847 02dd 2E303430 		.string	".040BE10075820022F7\n"
 1847      42453130 
 1847      30373538 
 1847      32303032 
 1847      3246370A 
 1848 02f2 00000000 		.align 8
 1848      0000
 1849              	.LC18:
 1850 02f8 556E6861 		.string	"Unhandled exception in CHECK_EQUAL(HEX_JUNK_START_CODE, status)"
 1850      6E646C65 
 1850      64206578 
 1850      63657074 
 1850      696F6E20 
 1851              		.text
 1852 0bf3 90       		.align 2
 1853              		.globl	_ZNK27TestHexIO_testJunkStartCode7RunImplEv
 1855              	_ZNK27TestHexIO_testJunkStartCode7RunImplEv:
 1856              	.LFB1148:
 1857              		.loc 4 69 0
 1858              		.cfi_startproc
 1859              		.cfi_personality 0x3,__gxx_personality_v0
 1860              		.cfi_lsda 0x3,.LLSDA1148
 1861 0bf4 55       		pushq	%rbp
 1862              		.cfi_def_cfa_offset 16
 1863              		.cfi_offset 6, -16
 1864 0bf5 4889E5   		movq	%rsp, %rbp
 1865              		.cfi_def_cfa_register 6
 1866 0bf8 53       		pushq	%rbx
 1867 0bf9 4881EC88 		subq	$136, %rsp
 1867      000000
 1868              		.cfi_offset 3, -24
 1869 0c00 4889BD78 		movq	%rdi, -136(%rbp)
 1869      FFFFFF
 1870              		.loc 4 69 0
 1871 0c07 64488B04 		movq	%fs:40, %rax
 1871      25280000 
 1871      00
 1872 0c10 488945E8 		movq	%rax, -24(%rbp)
 1873 0c14 31C0     		xorl	%eax, %eax
  70:testHexIO.cpp **** 	Buffer data;
  71:testHexIO.cpp **** 	BufferStatus status;
  72:testHexIO.cpp **** 	const char *line = ".040BE10075820022F7\n";
 1874              		.loc 4 72 0
 1875 0c16 48C74598 		movq	$.LC17, -104(%rbp)
 1875      00000000 
  73:testHexIO.cpp **** 	uint8 recordType;
  74:testHexIO.cpp **** 	uint32 seg = 0x00000000;
 1876              		.loc 4 74 0
 1877 0c1e C7459000 		movl	$0, -112(%rbp)
 1877      000000
  75:testHexIO.cpp **** 	status = bufInitialise(&data, 1024, 0x00, NULL);
 1878              		.loc 4 75 0
 1879 0c25 488D45A0 		leaq	-96(%rbp), %rax
 1880 0c29 B9000000 		movl	$0, %ecx
 1880      00
 1881 0c2e BA000000 		movl	$0, %edx
 1881      00
 1882 0c33 BE000400 		movl	$1024, %esi
 1882      00
 1883 0c38 4889C7   		movq	%rax, %rdi
 1884              	.LEHB87:
 1885 0c3b E8000000 		call	bufInitialise
 1885      00
 1886              	.LEHE87:
 1887 0c40 89458C   		movl	%eax, -116(%rbp)
 1888              	.LEHB88:
  76:testHexIO.cpp **** 	CHECK_EQUAL(BUF_SUCCESS, status);
 1889              		.loc 4 76 0
 1890 0c43 E8000000 		call	_ZN8UnitTest11CurrentTest7DetailsEv
 1890      00
 1891 0c48 488B08   		movq	(%rax), %rcx
 1892 0c4b 488D45C0 		leaq	-64(%rbp), %rax
 1893 0c4f BA4C0000 		movl	$76, %edx
 1893      00
 1894 0c54 4889CE   		movq	%rcx, %rsi
 1895 0c57 4889C7   		movq	%rax, %rdi
 1896 0c5a E8000000 		call	_ZN8UnitTest11TestDetailsC1ERKS0_i
 1896      00
 1897              	.LEHE88:
 1898              		.loc 4 76 0 is_stmt 0 discriminator 2
 1899 0c5f C7459400 		movl	$0, -108(%rbp)
 1899      000000
 1900              	.LEHB89:
 1901 0c66 E8000000 		call	_ZN8UnitTest11CurrentTest7ResultsEv
 1901      00
 1902 0c6b 488B00   		movq	(%rax), %rax
 1903 0c6e 488D4DC0 		leaq	-64(%rbp), %rcx
 1904 0c72 488D558C 		leaq	-116(%rbp), %rdx
 1905 0c76 488D7594 		leaq	-108(%rbp), %rsi
 1906 0c7a 4889C7   		movq	%rax, %rdi
 1907 0c7d E8000000 		call	_ZN8UnitTest10CheckEqualI12BufferStatusS1_EEvRNS_11TestResultsERKT_RKT0_RKNS_11TestDetailsE
 1907      00
 1908              	.LEHE89:
 1909              	.L129:
  77:testHexIO.cpp **** 	status = bufProcessLine(line, 0, &data, NULL, &seg, &recordType, NULL);
 1910              		.loc 4 77 0 is_stmt 1
 1911 0c82 488D758B 		leaq	-117(%rbp), %rsi
 1912 0c86 488D4D90 		leaq	-112(%rbp), %rcx
 1913 0c8a 488D55A0 		leaq	-96(%rbp), %rdx
 1914 0c8e 488B4598 		movq	-104(%rbp), %rax
 1915 0c92 4883EC08 		subq	$8, %rsp
 1916 0c96 6A00     		pushq	$0
 1917 0c98 4989F1   		movq	%rsi, %r9
 1918 0c9b 4989C8   		movq	%rcx, %r8
 1919 0c9e B9000000 		movl	$0, %ecx
 1919      00
 1920 0ca3 BE000000 		movl	$0, %esi
 1920      00
 1921 0ca8 4889C7   		movq	%rax, %rdi
 1922              	.LEHB90:
 1923 0cab E8000000 		call	bufProcessLine
 1923      00
 1924              	.LEHE90:
 1925 0cb0 4883C410 		addq	$16, %rsp
 1926 0cb4 89458C   		movl	%eax, -116(%rbp)
 1927              	.LEHB91:
  78:testHexIO.cpp **** 	CHECK_EQUAL(HEX_JUNK_START_CODE, status);
 1928              		.loc 4 78 0
 1929 0cb7 E8000000 		call	_ZN8UnitTest11CurrentTest7DetailsEv
 1929      00
 1930 0cbc 488B08   		movq	(%rax), %rcx
 1931 0cbf 488D45C0 		leaq	-64(%rbp), %rax
 1932 0cc3 BA4E0000 		movl	$78, %edx
 1932      00
 1933 0cc8 4889CE   		movq	%rcx, %rsi
 1934 0ccb 4889C7   		movq	%rax, %rdi
 1935 0cce E8000000 		call	_ZN8UnitTest11TestDetailsC1ERKS0_i
 1935      00
 1936              	.LEHE91:
 1937              		.loc 4 78 0 is_stmt 0 discriminator 2
 1938 0cd3 C7459408 		movl	$8, -108(%rbp)
 1938      000000
 1939              	.LEHB92:
 1940 0cda E8000000 		call	_ZN8UnitTest11CurrentTest7ResultsEv
 1940      00
 1941 0cdf 488B00   		movq	(%rax), %rax
 1942 0ce2 488D4DC0 		leaq	-64(%rbp), %rcx
 1943 0ce6 488D558C 		leaq	-116(%rbp), %rdx
 1944 0cea 488D7594 		leaq	-108(%rbp), %rsi
 1945 0cee 4889C7   		movq	%rax, %rdi
 1946 0cf1 E8000000 		call	_ZN8UnitTest10CheckEqualI12BufferStatusS1_EEvRNS_11TestResultsERKT_RKT0_RKNS_11TestDetailsE
 1946      00
 1947              	.LEHE92:
 1948              	.L133:
  79:testHexIO.cpp **** 	bufDestroy(&data);
 1949              		.loc 4 79 0 is_stmt 1
 1950 0cf6 488D45A0 		leaq	-96(%rbp), %rax
 1951 0cfa 4889C7   		movq	%rax, %rdi
 1952              	.LEHB93:
 1953 0cfd E8000000 		call	bufDestroy
 1953      00
 1954              	.LEHE93:
  80:testHexIO.cpp **** }
 1955              		.loc 4 80 0
 1956 0d02 90       		nop
 1957 0d03 488B45E8 		movq	-24(%rbp), %rax
 1958 0d07 64483304 		xorq	%fs:40, %rax
 1958      25280000 
 1958      00
 1959 0d10 0F84C800 		je	.L135
 1959      0000
 1960 0d16 E9BE0000 		jmp	.L142
 1960      00
 1961              	.L137:
 1962 0d1b EB00     		jmp	.L128
 1963              	.L136:
 1964              	.L128:
  76:testHexIO.cpp **** 	status = bufProcessLine(line, 0, &data, NULL, &seg, &recordType, NULL);
 1965              		.loc 4 76 0
 1966 0d1d 4889C7   		movq	%rax, %rdi
 1967 0d20 E8000000 		call	__cxa_begin_catch
 1967      00
 1968              	.LEHB94:
 1969 0d25 E8000000 		call	_ZN8UnitTest11CurrentTest7DetailsEv
 1969      00
 1970 0d2a 488B08   		movq	(%rax), %rcx
 1971 0d2d 488D45C0 		leaq	-64(%rbp), %rax
 1972 0d31 BA4C0000 		movl	$76, %edx
 1972      00
 1973 0d36 4889CE   		movq	%rcx, %rsi
 1974 0d39 4889C7   		movq	%rax, %rdi
 1975 0d3c E8000000 		call	_ZN8UnitTest11TestDetailsC1ERKS0_i
 1975      00
  76:testHexIO.cpp **** 	status = bufProcessLine(line, 0, &data, NULL, &seg, &recordType, NULL);
 1976              		.loc 4 76 0 is_stmt 0 discriminator 10
 1977 0d41 E8000000 		call	_ZN8UnitTest11CurrentTest7ResultsEv
 1977      00
 1978 0d46 488B00   		movq	(%rax), %rax
 1979 0d49 488D4DC0 		leaq	-64(%rbp), %rcx
 1980 0d4d BA000000 		movl	$.LC4, %edx
 1980      00
 1981 0d52 4889CE   		movq	%rcx, %rsi
 1982 0d55 4889C7   		movq	%rax, %rdi
 1983 0d58 E8000000 		call	_ZN8UnitTest11TestResults13OnTestFailureERKNS_11TestDetailsEPKc
 1983      00
 1984              	.LEHE94:
 1985              	.LEHB95:
  76:testHexIO.cpp **** 	status = bufProcessLine(line, 0, &data, NULL, &seg, &recordType, NULL);
 1986              		.loc 4 76 0 discriminator 14
 1987 0d5d E8000000 		call	__cxa_end_catch
 1987      00
 1988              	.LEHE95:
 1989 0d62 E91BFFFF 		jmp	.L129
 1989      FF
 1990              	.L138:
 1991 0d67 4889C3   		movq	%rax, %rbx
  76:testHexIO.cpp **** 	status = bufProcessLine(line, 0, &data, NULL, &seg, &recordType, NULL);
 1992              		.loc 4 76 0
 1993 0d6a E8000000 		call	__cxa_end_catch
 1993      00
 1994 0d6f 4889D8   		movq	%rbx, %rax
 1995 0d72 4889C7   		movq	%rax, %rdi
 1996              	.LEHB96:
 1997 0d75 E8000000 		call	_Unwind_Resume
 1997      00
 1998              	.LEHE96:
 1999              	.L140:
 2000 0d7a EB00     		jmp	.L132
 2001              	.L139:
 2002              	.L132:
  78:testHexIO.cpp **** 	bufDestroy(&data);
 2003              		.loc 4 78 0 is_stmt 1
 2004 0d7c 4889C7   		movq	%rax, %rdi
 2005 0d7f E8000000 		call	__cxa_begin_catch
 2005      00
 2006              	.LEHB97:
 2007 0d84 E8000000 		call	_ZN8UnitTest11CurrentTest7DetailsEv
 2007      00
 2008 0d89 488B08   		movq	(%rax), %rcx
 2009 0d8c 488D45C0 		leaq	-64(%rbp), %rax
 2010 0d90 BA4E0000 		movl	$78, %edx
 2010      00
 2011 0d95 4889CE   		movq	%rcx, %rsi
 2012 0d98 4889C7   		movq	%rax, %rdi
 2013 0d9b E8000000 		call	_ZN8UnitTest11TestDetailsC1ERKS0_i
 2013      00
  78:testHexIO.cpp **** 	bufDestroy(&data);
 2014              		.loc 4 78 0 is_stmt 0 discriminator 10
 2015 0da0 E8000000 		call	_ZN8UnitTest11CurrentTest7ResultsEv
 2015      00
 2016 0da5 488B00   		movq	(%rax), %rax
 2017 0da8 488D4DC0 		leaq	-64(%rbp), %rcx
 2018 0dac BA000000 		movl	$.LC18, %edx
 2018      00
 2019 0db1 4889CE   		movq	%rcx, %rsi
 2020 0db4 4889C7   		movq	%rax, %rdi
 2021 0db7 E8000000 		call	_ZN8UnitTest11TestResults13OnTestFailureERKNS_11TestDetailsEPKc
 2021      00
 2022              	.LEHE97:
 2023              	.LEHB98:
  78:testHexIO.cpp **** 	bufDestroy(&data);
 2024              		.loc 4 78 0 discriminator 14
 2025 0dbc E8000000 		call	__cxa_end_catch
 2025      00
 2026              	.LEHE98:
 2027 0dc1 E930FFFF 		jmp	.L133
 2027      FF
 2028              	.L141:
 2029 0dc6 4889C3   		movq	%rax, %rbx
  78:testHexIO.cpp **** 	bufDestroy(&data);
 2030              		.loc 4 78 0
 2031 0dc9 E8000000 		call	__cxa_end_catch
 2031      00
 2032 0dce 4889D8   		movq	%rbx, %rax
 2033 0dd1 4889C7   		movq	%rax, %rdi
 2034              	.LEHB99:
 2035 0dd4 E8000000 		call	_Unwind_Resume
 2035      00
 2036              	.LEHE99:
 2037              	.L142:
 2038              		.loc 4 80 0 is_stmt 1
 2039 0dd9 E8000000 		call	__stack_chk_fail
 2039      00
 2040              	.L135:
 2041 0dde 488B5DF8 		movq	-8(%rbp), %rbx
 2042 0de2 C9       		leave
 2043              		.cfi_def_cfa 7, 8
 2044 0de3 C3       		ret
 2045              		.cfi_endproc
 2046              	.LFE1148:
 2047              		.section	.gcc_except_table
 2048              		.align 4
 2049              	.LLSDA1148:
 2050 01e8 FF       		.byte	0xff
 2051 01e9 03       		.byte	0x3
 2052 01ea 51       		.uleb128 .LLSDATT1148-.LLSDATTD1148
 2053              	.LLSDATTD1148:
 2054 01eb 01       		.byte	0x1
 2055 01ec 44       		.uleb128 .LLSDACSE1148-.LLSDACSB1148
 2056              	.LLSDACSB1148:
 2057 01ed 47       		.uleb128 .LEHB87-.LFB1148
 2058 01ee 05       		.uleb128 .LEHE87-.LEHB87
 2059 01ef 00       		.uleb128 0
 2060 01f0 00       		.uleb128 0
 2061 01f1 4F       		.uleb128 .LEHB88-.LFB1148
 2062 01f2 1C       		.uleb128 .LEHE88-.LEHB88
 2063 01f3 A902     		.uleb128 .L136-.LFB1148
 2064 01f5 01       		.uleb128 0x1
 2065 01f6 72       		.uleb128 .LEHB89-.LFB1148
 2066 01f7 1C       		.uleb128 .LEHE89-.LEHB89
 2067 01f8 A702     		.uleb128 .L137-.LFB1148
 2068 01fa 03       		.uleb128 0x3
 2069 01fb B701     		.uleb128 .LEHB90-.LFB1148
 2070 01fd 05       		.uleb128 .LEHE90-.LEHB90
 2071 01fe 00       		.uleb128 0
 2072 01ff 00       		.uleb128 0
 2073 0200 C301     		.uleb128 .LEHB91-.LFB1148
 2074 0202 1C       		.uleb128 .LEHE91-.LEHB91
 2075 0203 8803     		.uleb128 .L139-.LFB1148
 2076 0205 01       		.uleb128 0x1
 2077 0206 E601     		.uleb128 .LEHB92-.LFB1148
 2078 0208 1C       		.uleb128 .LEHE92-.LEHB92
 2079 0209 8603     		.uleb128 .L140-.LFB1148
 2080 020b 03       		.uleb128 0x3
 2081 020c 8902     		.uleb128 .LEHB93-.LFB1148
 2082 020e 05       		.uleb128 .LEHE93-.LEHB93
 2083 020f 00       		.uleb128 0
 2084 0210 00       		.uleb128 0
 2085 0211 B102     		.uleb128 .LEHB94-.LFB1148
 2086 0213 38       		.uleb128 .LEHE94-.LEHB94
 2087 0214 F302     		.uleb128 .L138-.LFB1148
 2088 0216 00       		.uleb128 0
 2089 0217 E902     		.uleb128 .LEHB95-.LFB1148
 2090 0219 05       		.uleb128 .LEHE95-.LEHB95
 2091 021a 00       		.uleb128 0
 2092 021b 00       		.uleb128 0
 2093 021c 8103     		.uleb128 .LEHB96-.LFB1148
 2094 021e 05       		.uleb128 .LEHE96-.LEHB96
 2095 021f 00       		.uleb128 0
 2096 0220 00       		.uleb128 0
 2097 0221 9003     		.uleb128 .LEHB97-.LFB1148
 2098 0223 38       		.uleb128 .LEHE97-.LEHB97
 2099 0224 D203     		.uleb128 .L141-.LFB1148
 2100 0226 00       		.uleb128 0
 2101 0227 C803     		.uleb128 .LEHB98-.LFB1148
 2102 0229 05       		.uleb128 .LEHE98-.LEHB98
 2103 022a 00       		.uleb128 0
 2104 022b 00       		.uleb128 0
 2105 022c E003     		.uleb128 .LEHB99-.LFB1148
 2106 022e 05       		.uleb128 .LEHE99-.LEHB99
 2107 022f 00       		.uleb128 0
 2108 0230 00       		.uleb128 0
 2109              	.LLSDACSE1148:
 2110 0231 01       		.byte	0x1
 2111 0232 00       		.byte	0
 2112 0233 00       		.byte	0
 2113 0234 7D       		.byte	0x7d
 2114 0235 000000   		.align 4
 2115 0238 00000000 		.long	0
 2116              	
 2117              	.LLSDATT1148:
 2118              		.text
 2120              		.section	.rodata
 2121              	.LC19:
 2122 0338 48657849 		.string	"HexIO_testJunkByteCount"
 2122      4F5F7465 
 2122      73744A75 
 2122      6E6B4279 
 2122      7465436F 
 2123              		.section	.text._ZN27TestHexIO_testJunkByteCountC2Ev,"axG",@progbits,_ZN27TestHexIO_testJunkByteCou
 2124              		.align 2
 2125              		.weak	_ZN27TestHexIO_testJunkByteCountC2Ev
 2127              	_ZN27TestHexIO_testJunkByteCountC2Ev:
 2128              	.LFB1150:
  81:testHexIO.cpp **** 
  82:testHexIO.cpp **** TEST(HexIO_testJunkByteCount) {
 2129              		.loc 4 82 0
 2130              		.cfi_startproc
 2131 0000 55       		pushq	%rbp
 2132              		.cfi_def_cfa_offset 16
 2133              		.cfi_offset 6, -16
 2134 0001 4889E5   		movq	%rsp, %rbp
 2135              		.cfi_def_cfa_register 6
 2136 0004 4883EC10 		subq	$16, %rsp
 2137 0008 48897DF8 		movq	%rdi, -8(%rbp)
 2138              	.LBB7:
 2139              		.loc 4 82 0
 2140 000c E8000000 		call	_ZN13UnitTestSuite12GetSuiteNameEv
 2140      00
 2141 0011 4889C2   		movq	%rax, %rdx
 2142 0014 488B45F8 		movq	-8(%rbp), %rax
 2143 0018 41B85200 		movl	$82, %r8d
 2143      0000
 2144 001e B9000000 		movl	$.LC1, %ecx
 2144      00
 2145 0023 BE000000 		movl	$.LC19, %esi
 2145      00
 2146 0028 4889C7   		movq	%rax, %rdi
 2147 002b E8000000 		call	_ZN8UnitTest4TestC2EPKcS2_S2_i
 2147      00
 2148 0030 BA000000 		movl	$_ZTV27TestHexIO_testJunkByteCount+16, %edx
 2148      00
 2149 0035 488B45F8 		movq	-8(%rbp), %rax
 2150 0039 488910   		movq	%rdx, (%rax)
 2151              	.LBE7:
 2152 003c 90       		nop
 2153 003d C9       		leave
 2154              		.cfi_def_cfa 7, 8
 2155 003e C3       		ret
 2156              		.cfi_endproc
 2157              	.LFE1150:
 2159              		.weak	_ZN27TestHexIO_testJunkByteCountC1Ev
 2160              		.set	_ZN27TestHexIO_testJunkByteCountC1Ev,_ZN27TestHexIO_testJunkByteCountC2Ev
 2161              		.globl	testHexIO_testJunkByteCountInstance
 2162              		.bss
 2163 00b9 00000000 		.align 32
 2163      000000
 2166              	testHexIO_testJunkByteCountInstance:
 2167 00c0 00000000 		.zero	56
 2167      00000000 
 2167      00000000 
 2167      00000000 
 2167      00000000 
 2168              		.globl	adderHexIO_testJunkByteCount
 2171              	adderHexIO_testJunkByteCount:
 2172 00f8 00       		.zero	1
 2173              		.section	.rodata
 2174              	.LC20:
 2175 0350 3A2E2E30 		.string	":..0BE10075820022F7\n"
 2175      42453130 
 2175      30373538 
 2175      32303032 
 2175      3246370A 
 2176 0365 000000   		.align 8
 2177              	.LC21:
 2178 0368 556E6861 		.string	"Unhandled exception in CHECK_EQUAL(HEX_JUNK_BYTE_COUNT, status)"
 2178      6E646C65 
 2178      64206578 
 2178      63657074 
 2178      696F6E20 
 2179              		.text
 2180              		.align 2
 2181              		.globl	_ZNK27TestHexIO_testJunkByteCount7RunImplEv
 2183              	_ZNK27TestHexIO_testJunkByteCount7RunImplEv:
 2184              	.LFB1152:
 2185              		.loc 4 82 0
 2186              		.cfi_startproc
 2187              		.cfi_personality 0x3,__gxx_personality_v0
 2188              		.cfi_lsda 0x3,.LLSDA1152
 2189 0de4 55       		pushq	%rbp
 2190              		.cfi_def_cfa_offset 16
 2191              		.cfi_offset 6, -16
 2192 0de5 4889E5   		movq	%rsp, %rbp
 2193              		.cfi_def_cfa_register 6
 2194 0de8 53       		pushq	%rbx
 2195 0de9 4881EC88 		subq	$136, %rsp
 2195      000000
 2196              		.cfi_offset 3, -24
 2197 0df0 4889BD78 		movq	%rdi, -136(%rbp)
 2197      FFFFFF
 2198              		.loc 4 82 0
 2199 0df7 64488B04 		movq	%fs:40, %rax
 2199      25280000 
 2199      00
 2200 0e00 488945E8 		movq	%rax, -24(%rbp)
 2201 0e04 31C0     		xorl	%eax, %eax
  83:testHexIO.cpp **** 	Buffer data;
  84:testHexIO.cpp **** 	BufferStatus status;
  85:testHexIO.cpp **** 	const char *line = ":..0BE10075820022F7\n";
 2202              		.loc 4 85 0
 2203 0e06 48C74598 		movq	$.LC20, -104(%rbp)
 2203      00000000 
  86:testHexIO.cpp **** 	uint8 recordType;
  87:testHexIO.cpp **** 	uint32 seg = 0x00000000;
 2204              		.loc 4 87 0
 2205 0e0e C7459000 		movl	$0, -112(%rbp)
 2205      000000
  88:testHexIO.cpp **** 	status = bufInitialise(&data, 1024, 0x00, NULL);
 2206              		.loc 4 88 0
 2207 0e15 488D45A0 		leaq	-96(%rbp), %rax
 2208 0e19 B9000000 		movl	$0, %ecx
 2208      00
 2209 0e1e BA000000 		movl	$0, %edx
 2209      00
 2210 0e23 BE000400 		movl	$1024, %esi
 2210      00
 2211 0e28 4889C7   		movq	%rax, %rdi
 2212              	.LEHB100:
 2213 0e2b E8000000 		call	bufInitialise
 2213      00
 2214              	.LEHE100:
 2215 0e30 89458C   		movl	%eax, -116(%rbp)
 2216              	.LEHB101:
  89:testHexIO.cpp **** 	CHECK_EQUAL(BUF_SUCCESS, status);
 2217              		.loc 4 89 0
 2218 0e33 E8000000 		call	_ZN8UnitTest11CurrentTest7DetailsEv
 2218      00
 2219 0e38 488B08   		movq	(%rax), %rcx
 2220 0e3b 488D45C0 		leaq	-64(%rbp), %rax
 2221 0e3f BA590000 		movl	$89, %edx
 2221      00
 2222 0e44 4889CE   		movq	%rcx, %rsi
 2223 0e47 4889C7   		movq	%rax, %rdi
 2224 0e4a E8000000 		call	_ZN8UnitTest11TestDetailsC1ERKS0_i
 2224      00
 2225              	.LEHE101:
 2226              		.loc 4 89 0 is_stmt 0 discriminator 2
 2227 0e4f C7459400 		movl	$0, -108(%rbp)
 2227      000000
 2228              	.LEHB102:
 2229 0e56 E8000000 		call	_ZN8UnitTest11CurrentTest7ResultsEv
 2229      00
 2230 0e5b 488B00   		movq	(%rax), %rax
 2231 0e5e 488D4DC0 		leaq	-64(%rbp), %rcx
 2232 0e62 488D558C 		leaq	-116(%rbp), %rdx
 2233 0e66 488D7594 		leaq	-108(%rbp), %rsi
 2234 0e6a 4889C7   		movq	%rax, %rdi
 2235 0e6d E8000000 		call	_ZN8UnitTest10CheckEqualI12BufferStatusS1_EEvRNS_11TestResultsERKT_RKT0_RKNS_11TestDetailsE
 2235      00
 2236              	.LEHE102:
 2237              	.L147:
  90:testHexIO.cpp **** 	status = bufProcessLine(line, 0, &data, NULL, &seg, &recordType, NULL);
 2238              		.loc 4 90 0 is_stmt 1
 2239 0e72 488D758B 		leaq	-117(%rbp), %rsi
 2240 0e76 488D4D90 		leaq	-112(%rbp), %rcx
 2241 0e7a 488D55A0 		leaq	-96(%rbp), %rdx
 2242 0e7e 488B4598 		movq	-104(%rbp), %rax
 2243 0e82 4883EC08 		subq	$8, %rsp
 2244 0e86 6A00     		pushq	$0
 2245 0e88 4989F1   		movq	%rsi, %r9
 2246 0e8b 4989C8   		movq	%rcx, %r8
 2247 0e8e B9000000 		movl	$0, %ecx
 2247      00
 2248 0e93 BE000000 		movl	$0, %esi
 2248      00
 2249 0e98 4889C7   		movq	%rax, %rdi
 2250              	.LEHB103:
 2251 0e9b E8000000 		call	bufProcessLine
 2251      00
 2252              	.LEHE103:
 2253 0ea0 4883C410 		addq	$16, %rsp
 2254 0ea4 89458C   		movl	%eax, -116(%rbp)
 2255              	.LEHB104:
  91:testHexIO.cpp **** 	CHECK_EQUAL(HEX_JUNK_BYTE_COUNT, status);
 2256              		.loc 4 91 0
 2257 0ea7 E8000000 		call	_ZN8UnitTest11CurrentTest7DetailsEv
 2257      00
 2258 0eac 488B08   		movq	(%rax), %rcx
 2259 0eaf 488D45C0 		leaq	-64(%rbp), %rax
 2260 0eb3 BA5B0000 		movl	$91, %edx
 2260      00
 2261 0eb8 4889CE   		movq	%rcx, %rsi
 2262 0ebb 4889C7   		movq	%rax, %rdi
 2263 0ebe E8000000 		call	_ZN8UnitTest11TestDetailsC1ERKS0_i
 2263      00
 2264              	.LEHE104:
 2265              		.loc 4 91 0 is_stmt 0 discriminator 2
 2266 0ec3 C7459409 		movl	$9, -108(%rbp)
 2266      000000
 2267              	.LEHB105:
 2268 0eca E8000000 		call	_ZN8UnitTest11CurrentTest7ResultsEv
 2268      00
 2269 0ecf 488B00   		movq	(%rax), %rax
 2270 0ed2 488D4DC0 		leaq	-64(%rbp), %rcx
 2271 0ed6 488D558C 		leaq	-116(%rbp), %rdx
 2272 0eda 488D7594 		leaq	-108(%rbp), %rsi
 2273 0ede 4889C7   		movq	%rax, %rdi
 2274 0ee1 E8000000 		call	_ZN8UnitTest10CheckEqualI12BufferStatusS1_EEvRNS_11TestResultsERKT_RKT0_RKNS_11TestDetailsE
 2274      00
 2275              	.LEHE105:
 2276              	.L151:
  92:testHexIO.cpp **** 	bufDestroy(&data);
 2277              		.loc 4 92 0 is_stmt 1
 2278 0ee6 488D45A0 		leaq	-96(%rbp), %rax
 2279 0eea 4889C7   		movq	%rax, %rdi
 2280              	.LEHB106:
 2281 0eed E8000000 		call	bufDestroy
 2281      00
 2282              	.LEHE106:
  93:testHexIO.cpp **** }
 2283              		.loc 4 93 0
 2284 0ef2 90       		nop
 2285 0ef3 488B45E8 		movq	-24(%rbp), %rax
 2286 0ef7 64483304 		xorq	%fs:40, %rax
 2286      25280000 
 2286      00
 2287 0f00 0F84C800 		je	.L153
 2287      0000
 2288 0f06 E9BE0000 		jmp	.L160
 2288      00
 2289              	.L155:
 2290 0f0b EB00     		jmp	.L146
 2291              	.L154:
 2292              	.L146:
  89:testHexIO.cpp **** 	status = bufProcessLine(line, 0, &data, NULL, &seg, &recordType, NULL);
 2293              		.loc 4 89 0
 2294 0f0d 4889C7   		movq	%rax, %rdi
 2295 0f10 E8000000 		call	__cxa_begin_catch
 2295      00
 2296              	.LEHB107:
 2297 0f15 E8000000 		call	_ZN8UnitTest11CurrentTest7DetailsEv
 2297      00
 2298 0f1a 488B08   		movq	(%rax), %rcx
 2299 0f1d 488D45C0 		leaq	-64(%rbp), %rax
 2300 0f21 BA590000 		movl	$89, %edx
 2300      00
 2301 0f26 4889CE   		movq	%rcx, %rsi
 2302 0f29 4889C7   		movq	%rax, %rdi
 2303 0f2c E8000000 		call	_ZN8UnitTest11TestDetailsC1ERKS0_i
 2303      00
  89:testHexIO.cpp **** 	status = bufProcessLine(line, 0, &data, NULL, &seg, &recordType, NULL);
 2304              		.loc 4 89 0 is_stmt 0 discriminator 10
 2305 0f31 E8000000 		call	_ZN8UnitTest11CurrentTest7ResultsEv
 2305      00
 2306 0f36 488B00   		movq	(%rax), %rax
 2307 0f39 488D4DC0 		leaq	-64(%rbp), %rcx
 2308 0f3d BA000000 		movl	$.LC4, %edx
 2308      00
 2309 0f42 4889CE   		movq	%rcx, %rsi
 2310 0f45 4889C7   		movq	%rax, %rdi
 2311 0f48 E8000000 		call	_ZN8UnitTest11TestResults13OnTestFailureERKNS_11TestDetailsEPKc
 2311      00
 2312              	.LEHE107:
 2313              	.LEHB108:
  89:testHexIO.cpp **** 	status = bufProcessLine(line, 0, &data, NULL, &seg, &recordType, NULL);
 2314              		.loc 4 89 0 discriminator 14
 2315 0f4d E8000000 		call	__cxa_end_catch
 2315      00
 2316              	.LEHE108:
 2317 0f52 E91BFFFF 		jmp	.L147
 2317      FF
 2318              	.L156:
 2319 0f57 4889C3   		movq	%rax, %rbx
  89:testHexIO.cpp **** 	status = bufProcessLine(line, 0, &data, NULL, &seg, &recordType, NULL);
 2320              		.loc 4 89 0
 2321 0f5a E8000000 		call	__cxa_end_catch
 2321      00
 2322 0f5f 4889D8   		movq	%rbx, %rax
 2323 0f62 4889C7   		movq	%rax, %rdi
 2324              	.LEHB109:
 2325 0f65 E8000000 		call	_Unwind_Resume
 2325      00
 2326              	.LEHE109:
 2327              	.L158:
 2328 0f6a EB00     		jmp	.L150
 2329              	.L157:
 2330              	.L150:
  91:testHexIO.cpp **** 	bufDestroy(&data);
 2331              		.loc 4 91 0 is_stmt 1
 2332 0f6c 4889C7   		movq	%rax, %rdi
 2333 0f6f E8000000 		call	__cxa_begin_catch
 2333      00
 2334              	.LEHB110:
 2335 0f74 E8000000 		call	_ZN8UnitTest11CurrentTest7DetailsEv
 2335      00
 2336 0f79 488B08   		movq	(%rax), %rcx
 2337 0f7c 488D45C0 		leaq	-64(%rbp), %rax
 2338 0f80 BA5B0000 		movl	$91, %edx
 2338      00
 2339 0f85 4889CE   		movq	%rcx, %rsi
 2340 0f88 4889C7   		movq	%rax, %rdi
 2341 0f8b E8000000 		call	_ZN8UnitTest11TestDetailsC1ERKS0_i
 2341      00
  91:testHexIO.cpp **** 	bufDestroy(&data);
 2342              		.loc 4 91 0 is_stmt 0 discriminator 10
 2343 0f90 E8000000 		call	_ZN8UnitTest11CurrentTest7ResultsEv
 2343      00
 2344 0f95 488B00   		movq	(%rax), %rax
 2345 0f98 488D4DC0 		leaq	-64(%rbp), %rcx
 2346 0f9c BA000000 		movl	$.LC21, %edx
 2346      00
 2347 0fa1 4889CE   		movq	%rcx, %rsi
 2348 0fa4 4889C7   		movq	%rax, %rdi
 2349 0fa7 E8000000 		call	_ZN8UnitTest11TestResults13OnTestFailureERKNS_11TestDetailsEPKc
 2349      00
 2350              	.LEHE110:
 2351              	.LEHB111:
  91:testHexIO.cpp **** 	bufDestroy(&data);
 2352              		.loc 4 91 0 discriminator 14
 2353 0fac E8000000 		call	__cxa_end_catch
 2353      00
 2354              	.LEHE111:
 2355 0fb1 E930FFFF 		jmp	.L151
 2355      FF
 2356              	.L159:
 2357 0fb6 4889C3   		movq	%rax, %rbx
  91:testHexIO.cpp **** 	bufDestroy(&data);
 2358              		.loc 4 91 0
 2359 0fb9 E8000000 		call	__cxa_end_catch
 2359      00
 2360 0fbe 4889D8   		movq	%rbx, %rax
 2361 0fc1 4889C7   		movq	%rax, %rdi
 2362              	.LEHB112:
 2363 0fc4 E8000000 		call	_Unwind_Resume
 2363      00
 2364              	.LEHE112:
 2365              	.L160:
 2366              		.loc 4 93 0 is_stmt 1
 2367 0fc9 E8000000 		call	__stack_chk_fail
 2367      00
 2368              	.L153:
 2369 0fce 488B5DF8 		movq	-8(%rbp), %rbx
 2370 0fd2 C9       		leave
 2371              		.cfi_def_cfa 7, 8
 2372 0fd3 C3       		ret
 2373              		.cfi_endproc
 2374              	.LFE1152:
 2375              		.section	.gcc_except_table
 2376              		.align 4
 2377              	.LLSDA1152:
 2378 023c FF       		.byte	0xff
 2379 023d 03       		.byte	0x3
 2380 023e 51       		.uleb128 .LLSDATT1152-.LLSDATTD1152
 2381              	.LLSDATTD1152:
 2382 023f 01       		.byte	0x1
 2383 0240 44       		.uleb128 .LLSDACSE1152-.LLSDACSB1152
 2384              	.LLSDACSB1152:
 2385 0241 47       		.uleb128 .LEHB100-.LFB1152
 2386 0242 05       		.uleb128 .LEHE100-.LEHB100
 2387 0243 00       		.uleb128 0
 2388 0244 00       		.uleb128 0
 2389 0245 4F       		.uleb128 .LEHB101-.LFB1152
 2390 0246 1C       		.uleb128 .LEHE101-.LEHB101
 2391 0247 A902     		.uleb128 .L154-.LFB1152
 2392 0249 01       		.uleb128 0x1
 2393 024a 72       		.uleb128 .LEHB102-.LFB1152
 2394 024b 1C       		.uleb128 .LEHE102-.LEHB102
 2395 024c A702     		.uleb128 .L155-.LFB1152
 2396 024e 03       		.uleb128 0x3
 2397 024f B701     		.uleb128 .LEHB103-.LFB1152
 2398 0251 05       		.uleb128 .LEHE103-.LEHB103
 2399 0252 00       		.uleb128 0
 2400 0253 00       		.uleb128 0
 2401 0254 C301     		.uleb128 .LEHB104-.LFB1152
 2402 0256 1C       		.uleb128 .LEHE104-.LEHB104
 2403 0257 8803     		.uleb128 .L157-.LFB1152
 2404 0259 01       		.uleb128 0x1
 2405 025a E601     		.uleb128 .LEHB105-.LFB1152
 2406 025c 1C       		.uleb128 .LEHE105-.LEHB105
 2407 025d 8603     		.uleb128 .L158-.LFB1152
 2408 025f 03       		.uleb128 0x3
 2409 0260 8902     		.uleb128 .LEHB106-.LFB1152
 2410 0262 05       		.uleb128 .LEHE106-.LEHB106
 2411 0263 00       		.uleb128 0
 2412 0264 00       		.uleb128 0
 2413 0265 B102     		.uleb128 .LEHB107-.LFB1152
 2414 0267 38       		.uleb128 .LEHE107-.LEHB107
 2415 0268 F302     		.uleb128 .L156-.LFB1152
 2416 026a 00       		.uleb128 0
 2417 026b E902     		.uleb128 .LEHB108-.LFB1152
 2418 026d 05       		.uleb128 .LEHE108-.LEHB108
 2419 026e 00       		.uleb128 0
 2420 026f 00       		.uleb128 0
 2421 0270 8103     		.uleb128 .LEHB109-.LFB1152
 2422 0272 05       		.uleb128 .LEHE109-.LEHB109
 2423 0273 00       		.uleb128 0
 2424 0274 00       		.uleb128 0
 2425 0275 9003     		.uleb128 .LEHB110-.LFB1152
 2426 0277 38       		.uleb128 .LEHE110-.LEHB110
 2427 0278 D203     		.uleb128 .L159-.LFB1152
 2428 027a 00       		.uleb128 0
 2429 027b C803     		.uleb128 .LEHB111-.LFB1152
 2430 027d 05       		.uleb128 .LEHE111-.LEHB111
 2431 027e 00       		.uleb128 0
 2432 027f 00       		.uleb128 0
 2433 0280 E003     		.uleb128 .LEHB112-.LFB1152
 2434 0282 05       		.uleb128 .LEHE112-.LEHB112
 2435 0283 00       		.uleb128 0
 2436 0284 00       		.uleb128 0
 2437              	.LLSDACSE1152:
 2438 0285 01       		.byte	0x1
 2439 0286 00       		.byte	0
 2440 0287 00       		.byte	0
 2441 0288 7D       		.byte	0x7d
 2442 0289 000000   		.align 4
 2443 028c 00000000 		.long	0
 2444              	
 2445              	.LLSDATT1152:
 2446              		.text
 2448              		.section	.rodata
 2449              	.LC22:
 2450 03a8 48657849 		.string	"HexIO_testJunkAddrMsb"
 2450      4F5F7465 
 2450      73744A75 
 2450      6E6B4164 
 2450      64724D73 
 2451              		.section	.text._ZN25TestHexIO_testJunkAddrMsbC2Ev,"axG",@progbits,_ZN25TestHexIO_testJunkAddrMsbC5
 2452              		.align 2
 2453              		.weak	_ZN25TestHexIO_testJunkAddrMsbC2Ev
 2455              	_ZN25TestHexIO_testJunkAddrMsbC2Ev:
 2456              	.LFB1154:
  94:testHexIO.cpp **** 
  95:testHexIO.cpp **** TEST(HexIO_testJunkAddrMsb) {
 2457              		.loc 4 95 0
 2458              		.cfi_startproc
 2459 0000 55       		pushq	%rbp
 2460              		.cfi_def_cfa_offset 16
 2461              		.cfi_offset 6, -16
 2462 0001 4889E5   		movq	%rsp, %rbp
 2463              		.cfi_def_cfa_register 6
 2464 0004 4883EC10 		subq	$16, %rsp
 2465 0008 48897DF8 		movq	%rdi, -8(%rbp)
 2466              	.LBB8:
 2467              		.loc 4 95 0
 2468 000c E8000000 		call	_ZN13UnitTestSuite12GetSuiteNameEv
 2468      00
 2469 0011 4889C2   		movq	%rax, %rdx
 2470 0014 488B45F8 		movq	-8(%rbp), %rax
 2471 0018 41B85F00 		movl	$95, %r8d
 2471      0000
 2472 001e B9000000 		movl	$.LC1, %ecx
 2472      00
 2473 0023 BE000000 		movl	$.LC22, %esi
 2473      00
 2474 0028 4889C7   		movq	%rax, %rdi
 2475 002b E8000000 		call	_ZN8UnitTest4TestC2EPKcS2_S2_i
 2475      00
 2476 0030 BA000000 		movl	$_ZTV25TestHexIO_testJunkAddrMsb+16, %edx
 2476      00
 2477 0035 488B45F8 		movq	-8(%rbp), %rax
 2478 0039 488910   		movq	%rdx, (%rax)
 2479              	.LBE8:
 2480 003c 90       		nop
 2481 003d C9       		leave
 2482              		.cfi_def_cfa 7, 8
 2483 003e C3       		ret
 2484              		.cfi_endproc
 2485              	.LFE1154:
 2487              		.weak	_ZN25TestHexIO_testJunkAddrMsbC1Ev
 2488              		.set	_ZN25TestHexIO_testJunkAddrMsbC1Ev,_ZN25TestHexIO_testJunkAddrMsbC2Ev
 2489              		.globl	testHexIO_testJunkAddrMsbInstance
 2490              		.bss
 2491 00f9 00000000 		.align 32
 2491      000000
 2494              	testHexIO_testJunkAddrMsbInstance:
 2495 0100 00000000 		.zero	56
 2495      00000000 
 2495      00000000 
 2495      00000000 
 2495      00000000 
 2496              		.globl	adderHexIO_testJunkAddrMsb
 2499              	adderHexIO_testJunkAddrMsb:
 2500 0138 00       		.zero	1
 2501              		.section	.rodata
 2502              	.LC23:
 2503 03be 3A30342E 		.string	":04..E10075820022F7\n"
 2503      2E453130 
 2503      30373538 
 2503      32303032 
 2503      3246370A 
 2504 03d3 00000000 		.align 8
 2504      00
 2505              	.LC24:
 2506 03d8 556E6861 		.string	"Unhandled exception in CHECK_EQUAL(HEX_JUNK_ADDR_MSB, status)"
 2506      6E646C65 
 2506      64206578 
 2506      63657074 
 2506      696F6E20 
 2507              		.text
 2508              		.align 2
 2509              		.globl	_ZNK25TestHexIO_testJunkAddrMsb7RunImplEv
 2511              	_ZNK25TestHexIO_testJunkAddrMsb7RunImplEv:
 2512              	.LFB1156:
 2513              		.loc 4 95 0
 2514              		.cfi_startproc
 2515              		.cfi_personality 0x3,__gxx_personality_v0
 2516              		.cfi_lsda 0x3,.LLSDA1156
 2517 0fd4 55       		pushq	%rbp
 2518              		.cfi_def_cfa_offset 16
 2519              		.cfi_offset 6, -16
 2520 0fd5 4889E5   		movq	%rsp, %rbp
 2521              		.cfi_def_cfa_register 6
 2522 0fd8 53       		pushq	%rbx
 2523 0fd9 4881EC88 		subq	$136, %rsp
 2523      000000
 2524              		.cfi_offset 3, -24
 2525 0fe0 4889BD78 		movq	%rdi, -136(%rbp)
 2525      FFFFFF
 2526              		.loc 4 95 0
 2527 0fe7 64488B04 		movq	%fs:40, %rax
 2527      25280000 
 2527      00
 2528 0ff0 488945E8 		movq	%rax, -24(%rbp)
 2529 0ff4 31C0     		xorl	%eax, %eax
  96:testHexIO.cpp **** 	Buffer data;
  97:testHexIO.cpp **** 	BufferStatus status;
  98:testHexIO.cpp **** 	const char *line = ":04..E10075820022F7\n";
 2530              		.loc 4 98 0
 2531 0ff6 48C74598 		movq	$.LC23, -104(%rbp)
 2531      00000000 
  99:testHexIO.cpp **** 	uint8 recordType;
 100:testHexIO.cpp **** 	uint32 seg = 0x00000000;
 2532              		.loc 4 100 0
 2533 0ffe C7459000 		movl	$0, -112(%rbp)
 2533      000000
 101:testHexIO.cpp **** 	status = bufInitialise(&data, 1024, 0x00, NULL);
 2534              		.loc 4 101 0
 2535 1005 488D45A0 		leaq	-96(%rbp), %rax
 2536 1009 B9000000 		movl	$0, %ecx
 2536      00
 2537 100e BA000000 		movl	$0, %edx
 2537      00
 2538 1013 BE000400 		movl	$1024, %esi
 2538      00
 2539 1018 4889C7   		movq	%rax, %rdi
 2540              	.LEHB113:
 2541 101b E8000000 		call	bufInitialise
 2541      00
 2542              	.LEHE113:
 2543 1020 89458C   		movl	%eax, -116(%rbp)
 2544              	.LEHB114:
 102:testHexIO.cpp **** 	CHECK_EQUAL(BUF_SUCCESS, status);
 2545              		.loc 4 102 0
 2546 1023 E8000000 		call	_ZN8UnitTest11CurrentTest7DetailsEv
 2546      00
 2547 1028 488B08   		movq	(%rax), %rcx
 2548 102b 488D45C0 		leaq	-64(%rbp), %rax
 2549 102f BA660000 		movl	$102, %edx
 2549      00
 2550 1034 4889CE   		movq	%rcx, %rsi
 2551 1037 4889C7   		movq	%rax, %rdi
 2552 103a E8000000 		call	_ZN8UnitTest11TestDetailsC1ERKS0_i
 2552      00
 2553              	.LEHE114:
 2554              		.loc 4 102 0 is_stmt 0 discriminator 2
 2555 103f C7459400 		movl	$0, -108(%rbp)
 2555      000000
 2556              	.LEHB115:
 2557 1046 E8000000 		call	_ZN8UnitTest11CurrentTest7ResultsEv
 2557      00
 2558 104b 488B00   		movq	(%rax), %rax
 2559 104e 488D4DC0 		leaq	-64(%rbp), %rcx
 2560 1052 488D558C 		leaq	-116(%rbp), %rdx
 2561 1056 488D7594 		leaq	-108(%rbp), %rsi
 2562 105a 4889C7   		movq	%rax, %rdi
 2563 105d E8000000 		call	_ZN8UnitTest10CheckEqualI12BufferStatusS1_EEvRNS_11TestResultsERKT_RKT0_RKNS_11TestDetailsE
 2563      00
 2564              	.LEHE115:
 2565              	.L165:
 103:testHexIO.cpp **** 	status = bufProcessLine(line, 0, &data, NULL, &seg, &recordType, NULL);
 2566              		.loc 4 103 0 is_stmt 1
 2567 1062 488D758B 		leaq	-117(%rbp), %rsi
 2568 1066 488D4D90 		leaq	-112(%rbp), %rcx
 2569 106a 488D55A0 		leaq	-96(%rbp), %rdx
 2570 106e 488B4598 		movq	-104(%rbp), %rax
 2571 1072 4883EC08 		subq	$8, %rsp
 2572 1076 6A00     		pushq	$0
 2573 1078 4989F1   		movq	%rsi, %r9
 2574 107b 4989C8   		movq	%rcx, %r8
 2575 107e B9000000 		movl	$0, %ecx
 2575      00
 2576 1083 BE000000 		movl	$0, %esi
 2576      00
 2577 1088 4889C7   		movq	%rax, %rdi
 2578              	.LEHB116:
 2579 108b E8000000 		call	bufProcessLine
 2579      00
 2580              	.LEHE116:
 2581 1090 4883C410 		addq	$16, %rsp
 2582 1094 89458C   		movl	%eax, -116(%rbp)
 2583              	.LEHB117:
 104:testHexIO.cpp **** 	CHECK_EQUAL(HEX_JUNK_ADDR_MSB, status);
 2584              		.loc 4 104 0
 2585 1097 E8000000 		call	_ZN8UnitTest11CurrentTest7DetailsEv
 2585      00
 2586 109c 488B08   		movq	(%rax), %rcx
 2587 109f 488D45C0 		leaq	-64(%rbp), %rax
 2588 10a3 BA680000 		movl	$104, %edx
 2588      00
 2589 10a8 4889CE   		movq	%rcx, %rsi
 2590 10ab 4889C7   		movq	%rax, %rdi
 2591 10ae E8000000 		call	_ZN8UnitTest11TestDetailsC1ERKS0_i
 2591      00
 2592              	.LEHE117:
 2593              		.loc 4 104 0 is_stmt 0 discriminator 2
 2594 10b3 C745940A 		movl	$10, -108(%rbp)
 2594      000000
 2595              	.LEHB118:
 2596 10ba E8000000 		call	_ZN8UnitTest11CurrentTest7ResultsEv
 2596      00
 2597 10bf 488B00   		movq	(%rax), %rax
 2598 10c2 488D4DC0 		leaq	-64(%rbp), %rcx
 2599 10c6 488D558C 		leaq	-116(%rbp), %rdx
 2600 10ca 488D7594 		leaq	-108(%rbp), %rsi
 2601 10ce 4889C7   		movq	%rax, %rdi
 2602 10d1 E8000000 		call	_ZN8UnitTest10CheckEqualI12BufferStatusS1_EEvRNS_11TestResultsERKT_RKT0_RKNS_11TestDetailsE
 2602      00
 2603              	.LEHE118:
 2604              	.L169:
 105:testHexIO.cpp **** 	bufDestroy(&data);
 2605              		.loc 4 105 0 is_stmt 1
 2606 10d6 488D45A0 		leaq	-96(%rbp), %rax
 2607 10da 4889C7   		movq	%rax, %rdi
 2608              	.LEHB119:
 2609 10dd E8000000 		call	bufDestroy
 2609      00
 2610              	.LEHE119:
 106:testHexIO.cpp **** }
 2611              		.loc 4 106 0
 2612 10e2 90       		nop
 2613 10e3 488B45E8 		movq	-24(%rbp), %rax
 2614 10e7 64483304 		xorq	%fs:40, %rax
 2614      25280000 
 2614      00
 2615 10f0 0F84C800 		je	.L171
 2615      0000
 2616 10f6 E9BE0000 		jmp	.L178
 2616      00
 2617              	.L173:
 2618 10fb EB00     		jmp	.L164
 2619              	.L172:
 2620              	.L164:
 102:testHexIO.cpp **** 	status = bufProcessLine(line, 0, &data, NULL, &seg, &recordType, NULL);
 2621              		.loc 4 102 0
 2622 10fd 4889C7   		movq	%rax, %rdi
 2623 1100 E8000000 		call	__cxa_begin_catch
 2623      00
 2624              	.LEHB120:
 2625 1105 E8000000 		call	_ZN8UnitTest11CurrentTest7DetailsEv
 2625      00
 2626 110a 488B08   		movq	(%rax), %rcx
 2627 110d 488D45C0 		leaq	-64(%rbp), %rax
 2628 1111 BA660000 		movl	$102, %edx
 2628      00
 2629 1116 4889CE   		movq	%rcx, %rsi
 2630 1119 4889C7   		movq	%rax, %rdi
 2631 111c E8000000 		call	_ZN8UnitTest11TestDetailsC1ERKS0_i
 2631      00
 102:testHexIO.cpp **** 	status = bufProcessLine(line, 0, &data, NULL, &seg, &recordType, NULL);
 2632              		.loc 4 102 0 is_stmt 0 discriminator 10
 2633 1121 E8000000 		call	_ZN8UnitTest11CurrentTest7ResultsEv
 2633      00
 2634 1126 488B00   		movq	(%rax), %rax
 2635 1129 488D4DC0 		leaq	-64(%rbp), %rcx
 2636 112d BA000000 		movl	$.LC4, %edx
 2636      00
 2637 1132 4889CE   		movq	%rcx, %rsi
 2638 1135 4889C7   		movq	%rax, %rdi
 2639 1138 E8000000 		call	_ZN8UnitTest11TestResults13OnTestFailureERKNS_11TestDetailsEPKc
 2639      00
 2640              	.LEHE120:
 2641              	.LEHB121:
 102:testHexIO.cpp **** 	status = bufProcessLine(line, 0, &data, NULL, &seg, &recordType, NULL);
 2642              		.loc 4 102 0 discriminator 14
 2643 113d E8000000 		call	__cxa_end_catch
 2643      00
 2644              	.LEHE121:
 2645 1142 E91BFFFF 		jmp	.L165
 2645      FF
 2646              	.L174:
 2647 1147 4889C3   		movq	%rax, %rbx
 102:testHexIO.cpp **** 	status = bufProcessLine(line, 0, &data, NULL, &seg, &recordType, NULL);
 2648              		.loc 4 102 0
 2649 114a E8000000 		call	__cxa_end_catch
 2649      00
 2650 114f 4889D8   		movq	%rbx, %rax
 2651 1152 4889C7   		movq	%rax, %rdi
 2652              	.LEHB122:
 2653 1155 E8000000 		call	_Unwind_Resume
 2653      00
 2654              	.LEHE122:
 2655              	.L176:
 2656 115a EB00     		jmp	.L168
 2657              	.L175:
 2658              	.L168:
 104:testHexIO.cpp **** 	bufDestroy(&data);
 2659              		.loc 4 104 0 is_stmt 1
 2660 115c 4889C7   		movq	%rax, %rdi
 2661 115f E8000000 		call	__cxa_begin_catch
 2661      00
 2662              	.LEHB123:
 2663 1164 E8000000 		call	_ZN8UnitTest11CurrentTest7DetailsEv
 2663      00
 2664 1169 488B08   		movq	(%rax), %rcx
 2665 116c 488D45C0 		leaq	-64(%rbp), %rax
 2666 1170 BA680000 		movl	$104, %edx
 2666      00
 2667 1175 4889CE   		movq	%rcx, %rsi
 2668 1178 4889C7   		movq	%rax, %rdi
 2669 117b E8000000 		call	_ZN8UnitTest11TestDetailsC1ERKS0_i
 2669      00
 104:testHexIO.cpp **** 	bufDestroy(&data);
 2670              		.loc 4 104 0 is_stmt 0 discriminator 10
 2671 1180 E8000000 		call	_ZN8UnitTest11CurrentTest7ResultsEv
 2671      00
 2672 1185 488B00   		movq	(%rax), %rax
 2673 1188 488D4DC0 		leaq	-64(%rbp), %rcx
 2674 118c BA000000 		movl	$.LC24, %edx
 2674      00
 2675 1191 4889CE   		movq	%rcx, %rsi
 2676 1194 4889C7   		movq	%rax, %rdi
 2677 1197 E8000000 		call	_ZN8UnitTest11TestResults13OnTestFailureERKNS_11TestDetailsEPKc
 2677      00
 2678              	.LEHE123:
 2679              	.LEHB124:
 104:testHexIO.cpp **** 	bufDestroy(&data);
 2680              		.loc 4 104 0 discriminator 14
 2681 119c E8000000 		call	__cxa_end_catch
 2681      00
 2682              	.LEHE124:
 2683 11a1 E930FFFF 		jmp	.L169
 2683      FF
 2684              	.L177:
 2685 11a6 4889C3   		movq	%rax, %rbx
 104:testHexIO.cpp **** 	bufDestroy(&data);
 2686              		.loc 4 104 0
 2687 11a9 E8000000 		call	__cxa_end_catch
 2687      00
 2688 11ae 4889D8   		movq	%rbx, %rax
 2689 11b1 4889C7   		movq	%rax, %rdi
 2690              	.LEHB125:
 2691 11b4 E8000000 		call	_Unwind_Resume
 2691      00
 2692              	.LEHE125:
 2693              	.L178:
 2694              		.loc 4 106 0 is_stmt 1
 2695 11b9 E8000000 		call	__stack_chk_fail
 2695      00
 2696              	.L171:
 2697 11be 488B5DF8 		movq	-8(%rbp), %rbx
 2698 11c2 C9       		leave
 2699              		.cfi_def_cfa 7, 8
 2700 11c3 C3       		ret
 2701              		.cfi_endproc
 2702              	.LFE1156:
 2703              		.section	.gcc_except_table
 2704              		.align 4
 2705              	.LLSDA1156:
 2706 0290 FF       		.byte	0xff
 2707 0291 03       		.byte	0x3
 2708 0292 51       		.uleb128 .LLSDATT1156-.LLSDATTD1156
 2709              	.LLSDATTD1156:
 2710 0293 01       		.byte	0x1
 2711 0294 44       		.uleb128 .LLSDACSE1156-.LLSDACSB1156
 2712              	.LLSDACSB1156:
 2713 0295 47       		.uleb128 .LEHB113-.LFB1156
 2714 0296 05       		.uleb128 .LEHE113-.LEHB113
 2715 0297 00       		.uleb128 0
 2716 0298 00       		.uleb128 0
 2717 0299 4F       		.uleb128 .LEHB114-.LFB1156
 2718 029a 1C       		.uleb128 .LEHE114-.LEHB114
 2719 029b A902     		.uleb128 .L172-.LFB1156
 2720 029d 01       		.uleb128 0x1
 2721 029e 72       		.uleb128 .LEHB115-.LFB1156
 2722 029f 1C       		.uleb128 .LEHE115-.LEHB115
 2723 02a0 A702     		.uleb128 .L173-.LFB1156
 2724 02a2 03       		.uleb128 0x3
 2725 02a3 B701     		.uleb128 .LEHB116-.LFB1156
 2726 02a5 05       		.uleb128 .LEHE116-.LEHB116
 2727 02a6 00       		.uleb128 0
 2728 02a7 00       		.uleb128 0
 2729 02a8 C301     		.uleb128 .LEHB117-.LFB1156
 2730 02aa 1C       		.uleb128 .LEHE117-.LEHB117
 2731 02ab 8803     		.uleb128 .L175-.LFB1156
 2732 02ad 01       		.uleb128 0x1
 2733 02ae E601     		.uleb128 .LEHB118-.LFB1156
 2734 02b0 1C       		.uleb128 .LEHE118-.LEHB118
 2735 02b1 8603     		.uleb128 .L176-.LFB1156
 2736 02b3 03       		.uleb128 0x3
 2737 02b4 8902     		.uleb128 .LEHB119-.LFB1156
 2738 02b6 05       		.uleb128 .LEHE119-.LEHB119
 2739 02b7 00       		.uleb128 0
 2740 02b8 00       		.uleb128 0
 2741 02b9 B102     		.uleb128 .LEHB120-.LFB1156
 2742 02bb 38       		.uleb128 .LEHE120-.LEHB120
 2743 02bc F302     		.uleb128 .L174-.LFB1156
 2744 02be 00       		.uleb128 0
 2745 02bf E902     		.uleb128 .LEHB121-.LFB1156
 2746 02c1 05       		.uleb128 .LEHE121-.LEHB121
 2747 02c2 00       		.uleb128 0
 2748 02c3 00       		.uleb128 0
 2749 02c4 8103     		.uleb128 .LEHB122-.LFB1156
 2750 02c6 05       		.uleb128 .LEHE122-.LEHB122
 2751 02c7 00       		.uleb128 0
 2752 02c8 00       		.uleb128 0
 2753 02c9 9003     		.uleb128 .LEHB123-.LFB1156
 2754 02cb 38       		.uleb128 .LEHE123-.LEHB123
 2755 02cc D203     		.uleb128 .L177-.LFB1156
 2756 02ce 00       		.uleb128 0
 2757 02cf C803     		.uleb128 .LEHB124-.LFB1156
 2758 02d1 05       		.uleb128 .LEHE124-.LEHB124
 2759 02d2 00       		.uleb128 0
 2760 02d3 00       		.uleb128 0
 2761 02d4 E003     		.uleb128 .LEHB125-.LFB1156
 2762 02d6 05       		.uleb128 .LEHE125-.LEHB125
 2763 02d7 00       		.uleb128 0
 2764 02d8 00       		.uleb128 0
 2765              	.LLSDACSE1156:
 2766 02d9 01       		.byte	0x1
 2767 02da 00       		.byte	0
 2768 02db 00       		.byte	0
 2769 02dc 7D       		.byte	0x7d
 2770 02dd 000000   		.align 4
 2771 02e0 00000000 		.long	0
 2772              	
 2773              	.LLSDATT1156:
 2774              		.text
 2776              		.section	.rodata
 2777              	.LC25:
 2778 0416 48657849 		.string	"HexIO_testJunkAddrLsb"
 2778      4F5F7465 
 2778      73744A75 
 2778      6E6B4164 
 2778      64724C73 
 2779              		.section	.text._ZN25TestHexIO_testJunkAddrLsbC2Ev,"axG",@progbits,_ZN25TestHexIO_testJunkAddrLsbC5
 2780              		.align 2
 2781              		.weak	_ZN25TestHexIO_testJunkAddrLsbC2Ev
 2783              	_ZN25TestHexIO_testJunkAddrLsbC2Ev:
 2784              	.LFB1158:
 107:testHexIO.cpp **** 
 108:testHexIO.cpp **** TEST(HexIO_testJunkAddrLsb) {
 2785              		.loc 4 108 0
 2786              		.cfi_startproc
 2787 0000 55       		pushq	%rbp
 2788              		.cfi_def_cfa_offset 16
 2789              		.cfi_offset 6, -16
 2790 0001 4889E5   		movq	%rsp, %rbp
 2791              		.cfi_def_cfa_register 6
 2792 0004 4883EC10 		subq	$16, %rsp
 2793 0008 48897DF8 		movq	%rdi, -8(%rbp)
 2794              	.LBB9:
 2795              		.loc 4 108 0
 2796 000c E8000000 		call	_ZN13UnitTestSuite12GetSuiteNameEv
 2796      00
 2797 0011 4889C2   		movq	%rax, %rdx
 2798 0014 488B45F8 		movq	-8(%rbp), %rax
 2799 0018 41B86C00 		movl	$108, %r8d
 2799      0000
 2800 001e B9000000 		movl	$.LC1, %ecx
 2800      00
 2801 0023 BE000000 		movl	$.LC25, %esi
 2801      00
 2802 0028 4889C7   		movq	%rax, %rdi
 2803 002b E8000000 		call	_ZN8UnitTest4TestC2EPKcS2_S2_i
 2803      00
 2804 0030 BA000000 		movl	$_ZTV25TestHexIO_testJunkAddrLsb+16, %edx
 2804      00
 2805 0035 488B45F8 		movq	-8(%rbp), %rax
 2806 0039 488910   		movq	%rdx, (%rax)
 2807              	.LBE9:
 2808 003c 90       		nop
 2809 003d C9       		leave
 2810              		.cfi_def_cfa 7, 8
 2811 003e C3       		ret
 2812              		.cfi_endproc
 2813              	.LFE1158:
 2815              		.weak	_ZN25TestHexIO_testJunkAddrLsbC1Ev
 2816              		.set	_ZN25TestHexIO_testJunkAddrLsbC1Ev,_ZN25TestHexIO_testJunkAddrLsbC2Ev
 2817              		.globl	testHexIO_testJunkAddrLsbInstance
 2818              		.bss
 2819 0139 00000000 		.align 32
 2819      000000
 2822              	testHexIO_testJunkAddrLsbInstance:
 2823 0140 00000000 		.zero	56
 2823      00000000 
 2823      00000000 
 2823      00000000 
 2823      00000000 
 2824              		.globl	adderHexIO_testJunkAddrLsb
 2827              	adderHexIO_testJunkAddrLsb:
 2828 0178 00       		.zero	1
 2829              		.section	.rodata
 2830              	.LC26:
 2831 042c 3A303430 		.string	":040B..0075820022F7\n"
 2831      422E2E30 
 2831      30373538 
 2831      32303032 
 2831      3246370A 
 2832 0441 00000000 		.align 8
 2832      000000
 2833              	.LC27:
 2834 0448 556E6861 		.string	"Unhandled exception in CHECK_EQUAL(HEX_JUNK_ADDR_LSB, status)"
 2834      6E646C65 
 2834      64206578 
 2834      63657074 
 2834      696F6E20 
 2835              		.text
 2836              		.align 2
 2837              		.globl	_ZNK25TestHexIO_testJunkAddrLsb7RunImplEv
 2839              	_ZNK25TestHexIO_testJunkAddrLsb7RunImplEv:
 2840              	.LFB1160:
 2841              		.loc 4 108 0
 2842              		.cfi_startproc
 2843              		.cfi_personality 0x3,__gxx_personality_v0
 2844              		.cfi_lsda 0x3,.LLSDA1160
 2845 11c4 55       		pushq	%rbp
 2846              		.cfi_def_cfa_offset 16
 2847              		.cfi_offset 6, -16
 2848 11c5 4889E5   		movq	%rsp, %rbp
 2849              		.cfi_def_cfa_register 6
 2850 11c8 53       		pushq	%rbx
 2851 11c9 4881EC88 		subq	$136, %rsp
 2851      000000
 2852              		.cfi_offset 3, -24
 2853 11d0 4889BD78 		movq	%rdi, -136(%rbp)
 2853      FFFFFF
 2854              		.loc 4 108 0
 2855 11d7 64488B04 		movq	%fs:40, %rax
 2855      25280000 
 2855      00
 2856 11e0 488945E8 		movq	%rax, -24(%rbp)
 2857 11e4 31C0     		xorl	%eax, %eax
 109:testHexIO.cpp **** 	Buffer data;
 110:testHexIO.cpp **** 	BufferStatus status;
 111:testHexIO.cpp **** 	const char *line = ":040B..0075820022F7\n";
 2858              		.loc 4 111 0
 2859 11e6 48C74598 		movq	$.LC26, -104(%rbp)
 2859      00000000 
 112:testHexIO.cpp **** 	uint8 recordType;
 113:testHexIO.cpp **** 	uint32 seg = 0x00000000;
 2860              		.loc 4 113 0
 2861 11ee C7459000 		movl	$0, -112(%rbp)
 2861      000000
 114:testHexIO.cpp **** 	status = bufInitialise(&data, 1024, 0x00, NULL);
 2862              		.loc 4 114 0
 2863 11f5 488D45A0 		leaq	-96(%rbp), %rax
 2864 11f9 B9000000 		movl	$0, %ecx
 2864      00
 2865 11fe BA000000 		movl	$0, %edx
 2865      00
 2866 1203 BE000400 		movl	$1024, %esi
 2866      00
 2867 1208 4889C7   		movq	%rax, %rdi
 2868              	.LEHB126:
 2869 120b E8000000 		call	bufInitialise
 2869      00
 2870              	.LEHE126:
 2871 1210 89458C   		movl	%eax, -116(%rbp)
 2872              	.LEHB127:
 115:testHexIO.cpp **** 	CHECK_EQUAL(BUF_SUCCESS, status);
 2873              		.loc 4 115 0
 2874 1213 E8000000 		call	_ZN8UnitTest11CurrentTest7DetailsEv
 2874      00
 2875 1218 488B08   		movq	(%rax), %rcx
 2876 121b 488D45C0 		leaq	-64(%rbp), %rax
 2877 121f BA730000 		movl	$115, %edx
 2877      00
 2878 1224 4889CE   		movq	%rcx, %rsi
 2879 1227 4889C7   		movq	%rax, %rdi
 2880 122a E8000000 		call	_ZN8UnitTest11TestDetailsC1ERKS0_i
 2880      00
 2881              	.LEHE127:
 2882              		.loc 4 115 0 is_stmt 0 discriminator 2
 2883 122f C7459400 		movl	$0, -108(%rbp)
 2883      000000
 2884              	.LEHB128:
 2885 1236 E8000000 		call	_ZN8UnitTest11CurrentTest7ResultsEv
 2885      00
 2886 123b 488B00   		movq	(%rax), %rax
 2887 123e 488D4DC0 		leaq	-64(%rbp), %rcx
 2888 1242 488D558C 		leaq	-116(%rbp), %rdx
 2889 1246 488D7594 		leaq	-108(%rbp), %rsi
 2890 124a 4889C7   		movq	%rax, %rdi
 2891 124d E8000000 		call	_ZN8UnitTest10CheckEqualI12BufferStatusS1_EEvRNS_11TestResultsERKT_RKT0_RKNS_11TestDetailsE
 2891      00
 2892              	.LEHE128:
 2893              	.L183:
 116:testHexIO.cpp **** 	status = bufProcessLine(line, 0, &data, NULL, &seg, &recordType, NULL);
 2894              		.loc 4 116 0 is_stmt 1
 2895 1252 488D758B 		leaq	-117(%rbp), %rsi
 2896 1256 488D4D90 		leaq	-112(%rbp), %rcx
 2897 125a 488D55A0 		leaq	-96(%rbp), %rdx
 2898 125e 488B4598 		movq	-104(%rbp), %rax
 2899 1262 4883EC08 		subq	$8, %rsp
 2900 1266 6A00     		pushq	$0
 2901 1268 4989F1   		movq	%rsi, %r9
 2902 126b 4989C8   		movq	%rcx, %r8
 2903 126e B9000000 		movl	$0, %ecx
 2903      00
 2904 1273 BE000000 		movl	$0, %esi
 2904      00
 2905 1278 4889C7   		movq	%rax, %rdi
 2906              	.LEHB129:
 2907 127b E8000000 		call	bufProcessLine
 2907      00
 2908              	.LEHE129:
 2909 1280 4883C410 		addq	$16, %rsp
 2910 1284 89458C   		movl	%eax, -116(%rbp)
 2911              	.LEHB130:
 117:testHexIO.cpp **** 	CHECK_EQUAL(HEX_JUNK_ADDR_LSB, status);
 2912              		.loc 4 117 0
 2913 1287 E8000000 		call	_ZN8UnitTest11CurrentTest7DetailsEv
 2913      00
 2914 128c 488B08   		movq	(%rax), %rcx
 2915 128f 488D45C0 		leaq	-64(%rbp), %rax
 2916 1293 BA750000 		movl	$117, %edx
 2916      00
 2917 1298 4889CE   		movq	%rcx, %rsi
 2918 129b 4889C7   		movq	%rax, %rdi
 2919 129e E8000000 		call	_ZN8UnitTest11TestDetailsC1ERKS0_i
 2919      00
 2920              	.LEHE130:
 2921              		.loc 4 117 0 is_stmt 0 discriminator 2
 2922 12a3 C745940B 		movl	$11, -108(%rbp)
 2922      000000
 2923              	.LEHB131:
 2924 12aa E8000000 		call	_ZN8UnitTest11CurrentTest7ResultsEv
 2924      00
 2925 12af 488B00   		movq	(%rax), %rax
 2926 12b2 488D4DC0 		leaq	-64(%rbp), %rcx
 2927 12b6 488D558C 		leaq	-116(%rbp), %rdx
 2928 12ba 488D7594 		leaq	-108(%rbp), %rsi
 2929 12be 4889C7   		movq	%rax, %rdi
 2930 12c1 E8000000 		call	_ZN8UnitTest10CheckEqualI12BufferStatusS1_EEvRNS_11TestResultsERKT_RKT0_RKNS_11TestDetailsE
 2930      00
 2931              	.LEHE131:
 2932              	.L187:
 118:testHexIO.cpp **** 	bufDestroy(&data);
 2933              		.loc 4 118 0 is_stmt 1
 2934 12c6 488D45A0 		leaq	-96(%rbp), %rax
 2935 12ca 4889C7   		movq	%rax, %rdi
 2936              	.LEHB132:
 2937 12cd E8000000 		call	bufDestroy
 2937      00
 2938              	.LEHE132:
 119:testHexIO.cpp **** }
 2939              		.loc 4 119 0
 2940 12d2 90       		nop
 2941 12d3 488B45E8 		movq	-24(%rbp), %rax
 2942 12d7 64483304 		xorq	%fs:40, %rax
 2942      25280000 
 2942      00
 2943 12e0 0F84C800 		je	.L189
 2943      0000
 2944 12e6 E9BE0000 		jmp	.L196
 2944      00
 2945              	.L191:
 2946 12eb EB00     		jmp	.L182
 2947              	.L190:
 2948              	.L182:
 115:testHexIO.cpp **** 	status = bufProcessLine(line, 0, &data, NULL, &seg, &recordType, NULL);
 2949              		.loc 4 115 0
 2950 12ed 4889C7   		movq	%rax, %rdi
 2951 12f0 E8000000 		call	__cxa_begin_catch
 2951      00
 2952              	.LEHB133:
 2953 12f5 E8000000 		call	_ZN8UnitTest11CurrentTest7DetailsEv
 2953      00
 2954 12fa 488B08   		movq	(%rax), %rcx
 2955 12fd 488D45C0 		leaq	-64(%rbp), %rax
 2956 1301 BA730000 		movl	$115, %edx
 2956      00
 2957 1306 4889CE   		movq	%rcx, %rsi
 2958 1309 4889C7   		movq	%rax, %rdi
 2959 130c E8000000 		call	_ZN8UnitTest11TestDetailsC1ERKS0_i
 2959      00
 115:testHexIO.cpp **** 	status = bufProcessLine(line, 0, &data, NULL, &seg, &recordType, NULL);
 2960              		.loc 4 115 0 is_stmt 0 discriminator 10
 2961 1311 E8000000 		call	_ZN8UnitTest11CurrentTest7ResultsEv
 2961      00
 2962 1316 488B00   		movq	(%rax), %rax
 2963 1319 488D4DC0 		leaq	-64(%rbp), %rcx
 2964 131d BA000000 		movl	$.LC4, %edx
 2964      00
 2965 1322 4889CE   		movq	%rcx, %rsi
 2966 1325 4889C7   		movq	%rax, %rdi
 2967 1328 E8000000 		call	_ZN8UnitTest11TestResults13OnTestFailureERKNS_11TestDetailsEPKc
 2967      00
 2968              	.LEHE133:
 2969              	.LEHB134:
 115:testHexIO.cpp **** 	status = bufProcessLine(line, 0, &data, NULL, &seg, &recordType, NULL);
 2970              		.loc 4 115 0 discriminator 14
 2971 132d E8000000 		call	__cxa_end_catch
 2971      00
 2972              	.LEHE134:
 2973 1332 E91BFFFF 		jmp	.L183
 2973      FF
 2974              	.L192:
 2975 1337 4889C3   		movq	%rax, %rbx
 115:testHexIO.cpp **** 	status = bufProcessLine(line, 0, &data, NULL, &seg, &recordType, NULL);
 2976              		.loc 4 115 0
 2977 133a E8000000 		call	__cxa_end_catch
 2977      00
 2978 133f 4889D8   		movq	%rbx, %rax
 2979 1342 4889C7   		movq	%rax, %rdi
 2980              	.LEHB135:
 2981 1345 E8000000 		call	_Unwind_Resume
 2981      00
 2982              	.LEHE135:
 2983              	.L194:
 2984 134a EB00     		jmp	.L186
 2985              	.L193:
 2986              	.L186:
 117:testHexIO.cpp **** 	bufDestroy(&data);
 2987              		.loc 4 117 0 is_stmt 1
 2988 134c 4889C7   		movq	%rax, %rdi
 2989 134f E8000000 		call	__cxa_begin_catch
 2989      00
 2990              	.LEHB136:
 2991 1354 E8000000 		call	_ZN8UnitTest11CurrentTest7DetailsEv
 2991      00
 2992 1359 488B08   		movq	(%rax), %rcx
 2993 135c 488D45C0 		leaq	-64(%rbp), %rax
 2994 1360 BA750000 		movl	$117, %edx
 2994      00
 2995 1365 4889CE   		movq	%rcx, %rsi
 2996 1368 4889C7   		movq	%rax, %rdi
 2997 136b E8000000 		call	_ZN8UnitTest11TestDetailsC1ERKS0_i
 2997      00
 117:testHexIO.cpp **** 	bufDestroy(&data);
 2998              		.loc 4 117 0 is_stmt 0 discriminator 10
 2999 1370 E8000000 		call	_ZN8UnitTest11CurrentTest7ResultsEv
 2999      00
 3000 1375 488B00   		movq	(%rax), %rax
 3001 1378 488D4DC0 		leaq	-64(%rbp), %rcx
 3002 137c BA000000 		movl	$.LC27, %edx
 3002      00
 3003 1381 4889CE   		movq	%rcx, %rsi
 3004 1384 4889C7   		movq	%rax, %rdi
 3005 1387 E8000000 		call	_ZN8UnitTest11TestResults13OnTestFailureERKNS_11TestDetailsEPKc
 3005      00
 3006              	.LEHE136:
 3007              	.LEHB137:
 117:testHexIO.cpp **** 	bufDestroy(&data);
 3008              		.loc 4 117 0 discriminator 14
 3009 138c E8000000 		call	__cxa_end_catch
 3009      00
 3010              	.LEHE137:
 3011 1391 E930FFFF 		jmp	.L187
 3011      FF
 3012              	.L195:
 3013 1396 4889C3   		movq	%rax, %rbx
 117:testHexIO.cpp **** 	bufDestroy(&data);
 3014              		.loc 4 117 0
 3015 1399 E8000000 		call	__cxa_end_catch
 3015      00
 3016 139e 4889D8   		movq	%rbx, %rax
 3017 13a1 4889C7   		movq	%rax, %rdi
 3018              	.LEHB138:
 3019 13a4 E8000000 		call	_Unwind_Resume
 3019      00
 3020              	.LEHE138:
 3021              	.L196:
 3022              		.loc 4 119 0 is_stmt 1
 3023 13a9 E8000000 		call	__stack_chk_fail
 3023      00
 3024              	.L189:
 3025 13ae 488B5DF8 		movq	-8(%rbp), %rbx
 3026 13b2 C9       		leave
 3027              		.cfi_def_cfa 7, 8
 3028 13b3 C3       		ret
 3029              		.cfi_endproc
 3030              	.LFE1160:
 3031              		.section	.gcc_except_table
 3032              		.align 4
 3033              	.LLSDA1160:
 3034 02e4 FF       		.byte	0xff
 3035 02e5 03       		.byte	0x3
 3036 02e6 51       		.uleb128 .LLSDATT1160-.LLSDATTD1160
 3037              	.LLSDATTD1160:
 3038 02e7 01       		.byte	0x1
 3039 02e8 44       		.uleb128 .LLSDACSE1160-.LLSDACSB1160
 3040              	.LLSDACSB1160:
 3041 02e9 47       		.uleb128 .LEHB126-.LFB1160
 3042 02ea 05       		.uleb128 .LEHE126-.LEHB126
 3043 02eb 00       		.uleb128 0
 3044 02ec 00       		.uleb128 0
 3045 02ed 4F       		.uleb128 .LEHB127-.LFB1160
 3046 02ee 1C       		.uleb128 .LEHE127-.LEHB127
 3047 02ef A902     		.uleb128 .L190-.LFB1160
 3048 02f1 01       		.uleb128 0x1
 3049 02f2 72       		.uleb128 .LEHB128-.LFB1160
 3050 02f3 1C       		.uleb128 .LEHE128-.LEHB128
 3051 02f4 A702     		.uleb128 .L191-.LFB1160
 3052 02f6 03       		.uleb128 0x3
 3053 02f7 B701     		.uleb128 .LEHB129-.LFB1160
 3054 02f9 05       		.uleb128 .LEHE129-.LEHB129
 3055 02fa 00       		.uleb128 0
 3056 02fb 00       		.uleb128 0
 3057 02fc C301     		.uleb128 .LEHB130-.LFB1160
 3058 02fe 1C       		.uleb128 .LEHE130-.LEHB130
 3059 02ff 8803     		.uleb128 .L193-.LFB1160
 3060 0301 01       		.uleb128 0x1
 3061 0302 E601     		.uleb128 .LEHB131-.LFB1160
 3062 0304 1C       		.uleb128 .LEHE131-.LEHB131
 3063 0305 8603     		.uleb128 .L194-.LFB1160
 3064 0307 03       		.uleb128 0x3
 3065 0308 8902     		.uleb128 .LEHB132-.LFB1160
 3066 030a 05       		.uleb128 .LEHE132-.LEHB132
 3067 030b 00       		.uleb128 0
 3068 030c 00       		.uleb128 0
 3069 030d B102     		.uleb128 .LEHB133-.LFB1160
 3070 030f 38       		.uleb128 .LEHE133-.LEHB133
 3071 0310 F302     		.uleb128 .L192-.LFB1160
 3072 0312 00       		.uleb128 0
 3073 0313 E902     		.uleb128 .LEHB134-.LFB1160
 3074 0315 05       		.uleb128 .LEHE134-.LEHB134
 3075 0316 00       		.uleb128 0
 3076 0317 00       		.uleb128 0
 3077 0318 8103     		.uleb128 .LEHB135-.LFB1160
 3078 031a 05       		.uleb128 .LEHE135-.LEHB135
 3079 031b 00       		.uleb128 0
 3080 031c 00       		.uleb128 0
 3081 031d 9003     		.uleb128 .LEHB136-.LFB1160
 3082 031f 38       		.uleb128 .LEHE136-.LEHB136
 3083 0320 D203     		.uleb128 .L195-.LFB1160
 3084 0322 00       		.uleb128 0
 3085 0323 C803     		.uleb128 .LEHB137-.LFB1160
 3086 0325 05       		.uleb128 .LEHE137-.LEHB137
 3087 0326 00       		.uleb128 0
 3088 0327 00       		.uleb128 0
 3089 0328 E003     		.uleb128 .LEHB138-.LFB1160
 3090 032a 05       		.uleb128 .LEHE138-.LEHB138
 3091 032b 00       		.uleb128 0
 3092 032c 00       		.uleb128 0
 3093              	.LLSDACSE1160:
 3094 032d 01       		.byte	0x1
 3095 032e 00       		.byte	0
 3096 032f 00       		.byte	0
 3097 0330 7D       		.byte	0x7d
 3098 0331 000000   		.align 4
 3099 0334 00000000 		.long	0
 3100              	
 3101              	.LLSDATT1160:
 3102              		.text
 3104              		.section	.rodata
 3105              	.LC28:
 3106 0486 48657849 		.string	"HexIO_testJunkRecType"
 3106      4F5F7465 
 3106      73744A75 
 3106      6E6B5265 
 3106      63547970 
 3107              		.section	.text._ZN25TestHexIO_testJunkRecTypeC2Ev,"axG",@progbits,_ZN25TestHexIO_testJunkRecTypeC5
 3108              		.align 2
 3109              		.weak	_ZN25TestHexIO_testJunkRecTypeC2Ev
 3111              	_ZN25TestHexIO_testJunkRecTypeC2Ev:
 3112              	.LFB1162:
 120:testHexIO.cpp **** 
 121:testHexIO.cpp **** TEST(HexIO_testJunkRecType) {
 3113              		.loc 4 121 0
 3114              		.cfi_startproc
 3115 0000 55       		pushq	%rbp
 3116              		.cfi_def_cfa_offset 16
 3117              		.cfi_offset 6, -16
 3118 0001 4889E5   		movq	%rsp, %rbp
 3119              		.cfi_def_cfa_register 6
 3120 0004 4883EC10 		subq	$16, %rsp
 3121 0008 48897DF8 		movq	%rdi, -8(%rbp)
 3122              	.LBB10:
 3123              		.loc 4 121 0
 3124 000c E8000000 		call	_ZN13UnitTestSuite12GetSuiteNameEv
 3124      00
 3125 0011 4889C2   		movq	%rax, %rdx
 3126 0014 488B45F8 		movq	-8(%rbp), %rax
 3127 0018 41B87900 		movl	$121, %r8d
 3127      0000
 3128 001e B9000000 		movl	$.LC1, %ecx
 3128      00
 3129 0023 BE000000 		movl	$.LC28, %esi
 3129      00
 3130 0028 4889C7   		movq	%rax, %rdi
 3131 002b E8000000 		call	_ZN8UnitTest4TestC2EPKcS2_S2_i
 3131      00
 3132 0030 BA000000 		movl	$_ZTV25TestHexIO_testJunkRecType+16, %edx
 3132      00
 3133 0035 488B45F8 		movq	-8(%rbp), %rax
 3134 0039 488910   		movq	%rdx, (%rax)
 3135              	.LBE10:
 3136 003c 90       		nop
 3137 003d C9       		leave
 3138              		.cfi_def_cfa 7, 8
 3139 003e C3       		ret
 3140              		.cfi_endproc
 3141              	.LFE1162:
 3143              		.weak	_ZN25TestHexIO_testJunkRecTypeC1Ev
 3144              		.set	_ZN25TestHexIO_testJunkRecTypeC1Ev,_ZN25TestHexIO_testJunkRecTypeC2Ev
 3145              		.globl	testHexIO_testJunkRecTypeInstance
 3146              		.bss
 3147 0179 00000000 		.align 32
 3147      000000
 3150              	testHexIO_testJunkRecTypeInstance:
 3151 0180 00000000 		.zero	56
 3151      00000000 
 3151      00000000 
 3151      00000000 
 3151      00000000 
 3152              		.globl	adderHexIO_testJunkRecType
 3155              	adderHexIO_testJunkRecType:
 3156 01b8 00       		.zero	1
 3157              		.section	.rodata
 3158              	.LC29:
 3159 049c 3A303430 		.string	":040BE1..75820022F7\n"
 3159      4245312E 
 3159      2E373538 
 3159      32303032 
 3159      3246370A 
 3160 04b1 00000000 		.align 8
 3160      000000
 3161              	.LC30:
 3162 04b8 556E6861 		.string	"Unhandled exception in CHECK_EQUAL(HEX_JUNK_REC_TYPE, status)"
 3162      6E646C65 
 3162      64206578 
 3162      63657074 
 3162      696F6E20 
 3163              		.text
 3164              		.align 2
 3165              		.globl	_ZNK25TestHexIO_testJunkRecType7RunImplEv
 3167              	_ZNK25TestHexIO_testJunkRecType7RunImplEv:
 3168              	.LFB1164:
 3169              		.loc 4 121 0
 3170              		.cfi_startproc
 3171              		.cfi_personality 0x3,__gxx_personality_v0
 3172              		.cfi_lsda 0x3,.LLSDA1164
 3173 13b4 55       		pushq	%rbp
 3174              		.cfi_def_cfa_offset 16
 3175              		.cfi_offset 6, -16
 3176 13b5 4889E5   		movq	%rsp, %rbp
 3177              		.cfi_def_cfa_register 6
 3178 13b8 53       		pushq	%rbx
 3179 13b9 4881EC88 		subq	$136, %rsp
 3179      000000
 3180              		.cfi_offset 3, -24
 3181 13c0 4889BD78 		movq	%rdi, -136(%rbp)
 3181      FFFFFF
 3182              		.loc 4 121 0
 3183 13c7 64488B04 		movq	%fs:40, %rax
 3183      25280000 
 3183      00
 3184 13d0 488945E8 		movq	%rax, -24(%rbp)
 3185 13d4 31C0     		xorl	%eax, %eax
 122:testHexIO.cpp **** 	Buffer data;
 123:testHexIO.cpp **** 	BufferStatus status;
 124:testHexIO.cpp **** 	const char *line = ":040BE1..75820022F7\n";
 3186              		.loc 4 124 0
 3187 13d6 48C74598 		movq	$.LC29, -104(%rbp)
 3187      00000000 
 125:testHexIO.cpp **** 	uint8 recordType;
 126:testHexIO.cpp **** 	uint32 seg = 0x00000000;
 3188              		.loc 4 126 0
 3189 13de C7459000 		movl	$0, -112(%rbp)
 3189      000000
 127:testHexIO.cpp **** 	status = bufInitialise(&data, 1024, 0x00, NULL);
 3190              		.loc 4 127 0
 3191 13e5 488D45A0 		leaq	-96(%rbp), %rax
 3192 13e9 B9000000 		movl	$0, %ecx
 3192      00
 3193 13ee BA000000 		movl	$0, %edx
 3193      00
 3194 13f3 BE000400 		movl	$1024, %esi
 3194      00
 3195 13f8 4889C7   		movq	%rax, %rdi
 3196              	.LEHB139:
 3197 13fb E8000000 		call	bufInitialise
 3197      00
 3198              	.LEHE139:
 3199 1400 89458C   		movl	%eax, -116(%rbp)
 3200              	.LEHB140:
 128:testHexIO.cpp **** 	CHECK_EQUAL(BUF_SUCCESS, status);
 3201              		.loc 4 128 0
 3202 1403 E8000000 		call	_ZN8UnitTest11CurrentTest7DetailsEv
 3202      00
 3203 1408 488B08   		movq	(%rax), %rcx
 3204 140b 488D45C0 		leaq	-64(%rbp), %rax
 3205 140f BA800000 		movl	$128, %edx
 3205      00
 3206 1414 4889CE   		movq	%rcx, %rsi
 3207 1417 4889C7   		movq	%rax, %rdi
 3208 141a E8000000 		call	_ZN8UnitTest11TestDetailsC1ERKS0_i
 3208      00
 3209              	.LEHE140:
 3210              		.loc 4 128 0 is_stmt 0 discriminator 2
 3211 141f C7459400 		movl	$0, -108(%rbp)
 3211      000000
 3212              	.LEHB141:
 3213 1426 E8000000 		call	_ZN8UnitTest11CurrentTest7ResultsEv
 3213      00
 3214 142b 488B00   		movq	(%rax), %rax
 3215 142e 488D4DC0 		leaq	-64(%rbp), %rcx
 3216 1432 488D558C 		leaq	-116(%rbp), %rdx
 3217 1436 488D7594 		leaq	-108(%rbp), %rsi
 3218 143a 4889C7   		movq	%rax, %rdi
 3219 143d E8000000 		call	_ZN8UnitTest10CheckEqualI12BufferStatusS1_EEvRNS_11TestResultsERKT_RKT0_RKNS_11TestDetailsE
 3219      00
 3220              	.LEHE141:
 3221              	.L201:
 129:testHexIO.cpp **** 	status = bufProcessLine(line, 0, &data, NULL, &seg, &recordType, NULL);
 3222              		.loc 4 129 0 is_stmt 1
 3223 1442 488D758B 		leaq	-117(%rbp), %rsi
 3224 1446 488D4D90 		leaq	-112(%rbp), %rcx
 3225 144a 488D55A0 		leaq	-96(%rbp), %rdx
 3226 144e 488B4598 		movq	-104(%rbp), %rax
 3227 1452 4883EC08 		subq	$8, %rsp
 3228 1456 6A00     		pushq	$0
 3229 1458 4989F1   		movq	%rsi, %r9
 3230 145b 4989C8   		movq	%rcx, %r8
 3231 145e B9000000 		movl	$0, %ecx
 3231      00
 3232 1463 BE000000 		movl	$0, %esi
 3232      00
 3233 1468 4889C7   		movq	%rax, %rdi
 3234              	.LEHB142:
 3235 146b E8000000 		call	bufProcessLine
 3235      00
 3236              	.LEHE142:
 3237 1470 4883C410 		addq	$16, %rsp
 3238 1474 89458C   		movl	%eax, -116(%rbp)
 3239              	.LEHB143:
 130:testHexIO.cpp **** 	CHECK_EQUAL(HEX_JUNK_REC_TYPE, status);
 3240              		.loc 4 130 0
 3241 1477 E8000000 		call	_ZN8UnitTest11CurrentTest7DetailsEv
 3241      00
 3242 147c 488B08   		movq	(%rax), %rcx
 3243 147f 488D45C0 		leaq	-64(%rbp), %rax
 3244 1483 BA820000 		movl	$130, %edx
 3244      00
 3245 1488 4889CE   		movq	%rcx, %rsi
 3246 148b 4889C7   		movq	%rax, %rdi
 3247 148e E8000000 		call	_ZN8UnitTest11TestDetailsC1ERKS0_i
 3247      00
 3248              	.LEHE143:
 3249              		.loc 4 130 0 is_stmt 0 discriminator 2
 3250 1493 C745940C 		movl	$12, -108(%rbp)
 3250      000000
 3251              	.LEHB144:
 3252 149a E8000000 		call	_ZN8UnitTest11CurrentTest7ResultsEv
 3252      00
 3253 149f 488B00   		movq	(%rax), %rax
 3254 14a2 488D4DC0 		leaq	-64(%rbp), %rcx
 3255 14a6 488D558C 		leaq	-116(%rbp), %rdx
 3256 14aa 488D7594 		leaq	-108(%rbp), %rsi
 3257 14ae 4889C7   		movq	%rax, %rdi
 3258 14b1 E8000000 		call	_ZN8UnitTest10CheckEqualI12BufferStatusS1_EEvRNS_11TestResultsERKT_RKT0_RKNS_11TestDetailsE
 3258      00
 3259              	.LEHE144:
 3260              	.L205:
 131:testHexIO.cpp **** 	bufDestroy(&data);
 3261              		.loc 4 131 0 is_stmt 1
 3262 14b6 488D45A0 		leaq	-96(%rbp), %rax
 3263 14ba 4889C7   		movq	%rax, %rdi
 3264              	.LEHB145:
 3265 14bd E8000000 		call	bufDestroy
 3265      00
 3266              	.LEHE145:
 132:testHexIO.cpp **** }
 3267              		.loc 4 132 0
 3268 14c2 90       		nop
 3269 14c3 488B45E8 		movq	-24(%rbp), %rax
 3270 14c7 64483304 		xorq	%fs:40, %rax
 3270      25280000 
 3270      00
 3271 14d0 0F84C800 		je	.L207
 3271      0000
 3272 14d6 E9BE0000 		jmp	.L214
 3272      00
 3273              	.L209:
 3274 14db EB00     		jmp	.L200
 3275              	.L208:
 3276              	.L200:
 128:testHexIO.cpp **** 	status = bufProcessLine(line, 0, &data, NULL, &seg, &recordType, NULL);
 3277              		.loc 4 128 0
 3278 14dd 4889C7   		movq	%rax, %rdi
 3279 14e0 E8000000 		call	__cxa_begin_catch
 3279      00
 3280              	.LEHB146:
 3281 14e5 E8000000 		call	_ZN8UnitTest11CurrentTest7DetailsEv
 3281      00
 3282 14ea 488B08   		movq	(%rax), %rcx
 3283 14ed 488D45C0 		leaq	-64(%rbp), %rax
 3284 14f1 BA800000 		movl	$128, %edx
 3284      00
 3285 14f6 4889CE   		movq	%rcx, %rsi
 3286 14f9 4889C7   		movq	%rax, %rdi
 3287 14fc E8000000 		call	_ZN8UnitTest11TestDetailsC1ERKS0_i
 3287      00
 128:testHexIO.cpp **** 	status = bufProcessLine(line, 0, &data, NULL, &seg, &recordType, NULL);
 3288              		.loc 4 128 0 is_stmt 0 discriminator 10
 3289 1501 E8000000 		call	_ZN8UnitTest11CurrentTest7ResultsEv
 3289      00
 3290 1506 488B00   		movq	(%rax), %rax
 3291 1509 488D4DC0 		leaq	-64(%rbp), %rcx
 3292 150d BA000000 		movl	$.LC4, %edx
 3292      00
 3293 1512 4889CE   		movq	%rcx, %rsi
 3294 1515 4889C7   		movq	%rax, %rdi
 3295 1518 E8000000 		call	_ZN8UnitTest11TestResults13OnTestFailureERKNS_11TestDetailsEPKc
 3295      00
 3296              	.LEHE146:
 3297              	.LEHB147:
 128:testHexIO.cpp **** 	status = bufProcessLine(line, 0, &data, NULL, &seg, &recordType, NULL);
 3298              		.loc 4 128 0 discriminator 14
 3299 151d E8000000 		call	__cxa_end_catch
 3299      00
 3300              	.LEHE147:
 3301 1522 E91BFFFF 		jmp	.L201
 3301      FF
 3302              	.L210:
 3303 1527 4889C3   		movq	%rax, %rbx
 128:testHexIO.cpp **** 	status = bufProcessLine(line, 0, &data, NULL, &seg, &recordType, NULL);
 3304              		.loc 4 128 0
 3305 152a E8000000 		call	__cxa_end_catch
 3305      00
 3306 152f 4889D8   		movq	%rbx, %rax
 3307 1532 4889C7   		movq	%rax, %rdi
 3308              	.LEHB148:
 3309 1535 E8000000 		call	_Unwind_Resume
 3309      00
 3310              	.LEHE148:
 3311              	.L212:
 3312 153a EB00     		jmp	.L204
 3313              	.L211:
 3314              	.L204:
 130:testHexIO.cpp **** 	bufDestroy(&data);
 3315              		.loc 4 130 0 is_stmt 1
 3316 153c 4889C7   		movq	%rax, %rdi
 3317 153f E8000000 		call	__cxa_begin_catch
 3317      00
 3318              	.LEHB149:
 3319 1544 E8000000 		call	_ZN8UnitTest11CurrentTest7DetailsEv
 3319      00
 3320 1549 488B08   		movq	(%rax), %rcx
 3321 154c 488D45C0 		leaq	-64(%rbp), %rax
 3322 1550 BA820000 		movl	$130, %edx
 3322      00
 3323 1555 4889CE   		movq	%rcx, %rsi
 3324 1558 4889C7   		movq	%rax, %rdi
 3325 155b E8000000 		call	_ZN8UnitTest11TestDetailsC1ERKS0_i
 3325      00
 130:testHexIO.cpp **** 	bufDestroy(&data);
 3326              		.loc 4 130 0 is_stmt 0 discriminator 10
 3327 1560 E8000000 		call	_ZN8UnitTest11CurrentTest7ResultsEv
 3327      00
 3328 1565 488B00   		movq	(%rax), %rax
 3329 1568 488D4DC0 		leaq	-64(%rbp), %rcx
 3330 156c BA000000 		movl	$.LC30, %edx
 3330      00
 3331 1571 4889CE   		movq	%rcx, %rsi
 3332 1574 4889C7   		movq	%rax, %rdi
 3333 1577 E8000000 		call	_ZN8UnitTest11TestResults13OnTestFailureERKNS_11TestDetailsEPKc
 3333      00
 3334              	.LEHE149:
 3335              	.LEHB150:
 130:testHexIO.cpp **** 	bufDestroy(&data);
 3336              		.loc 4 130 0 discriminator 14
 3337 157c E8000000 		call	__cxa_end_catch
 3337      00
 3338              	.LEHE150:
 3339 1581 E930FFFF 		jmp	.L205
 3339      FF
 3340              	.L213:
 3341 1586 4889C3   		movq	%rax, %rbx
 130:testHexIO.cpp **** 	bufDestroy(&data);
 3342              		.loc 4 130 0
 3343 1589 E8000000 		call	__cxa_end_catch
 3343      00
 3344 158e 4889D8   		movq	%rbx, %rax
 3345 1591 4889C7   		movq	%rax, %rdi
 3346              	.LEHB151:
 3347 1594 E8000000 		call	_Unwind_Resume
 3347      00
 3348              	.LEHE151:
 3349              	.L214:
 3350              		.loc 4 132 0 is_stmt 1
 3351 1599 E8000000 		call	__stack_chk_fail
 3351      00
 3352              	.L207:
 3353 159e 488B5DF8 		movq	-8(%rbp), %rbx
 3354 15a2 C9       		leave
 3355              		.cfi_def_cfa 7, 8
 3356 15a3 C3       		ret
 3357              		.cfi_endproc
 3358              	.LFE1164:
 3359              		.section	.gcc_except_table
 3360              		.align 4
 3361              	.LLSDA1164:
 3362 0338 FF       		.byte	0xff
 3363 0339 03       		.byte	0x3
 3364 033a 51       		.uleb128 .LLSDATT1164-.LLSDATTD1164
 3365              	.LLSDATTD1164:
 3366 033b 01       		.byte	0x1
 3367 033c 44       		.uleb128 .LLSDACSE1164-.LLSDACSB1164
 3368              	.LLSDACSB1164:
 3369 033d 47       		.uleb128 .LEHB139-.LFB1164
 3370 033e 05       		.uleb128 .LEHE139-.LEHB139
 3371 033f 00       		.uleb128 0
 3372 0340 00       		.uleb128 0
 3373 0341 4F       		.uleb128 .LEHB140-.LFB1164
 3374 0342 1C       		.uleb128 .LEHE140-.LEHB140
 3375 0343 A902     		.uleb128 .L208-.LFB1164
 3376 0345 01       		.uleb128 0x1
 3377 0346 72       		.uleb128 .LEHB141-.LFB1164
 3378 0347 1C       		.uleb128 .LEHE141-.LEHB141
 3379 0348 A702     		.uleb128 .L209-.LFB1164
 3380 034a 03       		.uleb128 0x3
 3381 034b B701     		.uleb128 .LEHB142-.LFB1164
 3382 034d 05       		.uleb128 .LEHE142-.LEHB142
 3383 034e 00       		.uleb128 0
 3384 034f 00       		.uleb128 0
 3385 0350 C301     		.uleb128 .LEHB143-.LFB1164
 3386 0352 1C       		.uleb128 .LEHE143-.LEHB143
 3387 0353 8803     		.uleb128 .L211-.LFB1164
 3388 0355 01       		.uleb128 0x1
 3389 0356 E601     		.uleb128 .LEHB144-.LFB1164
 3390 0358 1C       		.uleb128 .LEHE144-.LEHB144
 3391 0359 8603     		.uleb128 .L212-.LFB1164
 3392 035b 03       		.uleb128 0x3
 3393 035c 8902     		.uleb128 .LEHB145-.LFB1164
 3394 035e 05       		.uleb128 .LEHE145-.LEHB145
 3395 035f 00       		.uleb128 0
 3396 0360 00       		.uleb128 0
 3397 0361 B102     		.uleb128 .LEHB146-.LFB1164
 3398 0363 38       		.uleb128 .LEHE146-.LEHB146
 3399 0364 F302     		.uleb128 .L210-.LFB1164
 3400 0366 00       		.uleb128 0
 3401 0367 E902     		.uleb128 .LEHB147-.LFB1164
 3402 0369 05       		.uleb128 .LEHE147-.LEHB147
 3403 036a 00       		.uleb128 0
 3404 036b 00       		.uleb128 0
 3405 036c 8103     		.uleb128 .LEHB148-.LFB1164
 3406 036e 05       		.uleb128 .LEHE148-.LEHB148
 3407 036f 00       		.uleb128 0
 3408 0370 00       		.uleb128 0
 3409 0371 9003     		.uleb128 .LEHB149-.LFB1164
 3410 0373 38       		.uleb128 .LEHE149-.LEHB149
 3411 0374 D203     		.uleb128 .L213-.LFB1164
 3412 0376 00       		.uleb128 0
 3413 0377 C803     		.uleb128 .LEHB150-.LFB1164
 3414 0379 05       		.uleb128 .LEHE150-.LEHB150
 3415 037a 00       		.uleb128 0
 3416 037b 00       		.uleb128 0
 3417 037c E003     		.uleb128 .LEHB151-.LFB1164
 3418 037e 05       		.uleb128 .LEHE151-.LEHB151
 3419 037f 00       		.uleb128 0
 3420 0380 00       		.uleb128 0
 3421              	.LLSDACSE1164:
 3422 0381 01       		.byte	0x1
 3423 0382 00       		.byte	0
 3424 0383 00       		.byte	0
 3425 0384 7D       		.byte	0x7d
 3426 0385 000000   		.align 4
 3427 0388 00000000 		.long	0
 3428              	
 3429              	.LLSDATT1164:
 3430              		.text
 3432              		.section	.rodata
 3433              	.LC31:
 3434 04f6 48657849 		.string	"HexIO_testJunkDataByte"
 3434      4F5F7465 
 3434      73744A75 
 3434      6E6B4461 
 3434      74614279 
 3435              		.section	.text._ZN26TestHexIO_testJunkDataByteC2Ev,"axG",@progbits,_ZN26TestHexIO_testJunkDataByte
 3436              		.align 2
 3437              		.weak	_ZN26TestHexIO_testJunkDataByteC2Ev
 3439              	_ZN26TestHexIO_testJunkDataByteC2Ev:
 3440              	.LFB1166:
 133:testHexIO.cpp **** 
 134:testHexIO.cpp **** TEST(HexIO_testJunkDataByte) {
 3441              		.loc 4 134 0
 3442              		.cfi_startproc
 3443 0000 55       		pushq	%rbp
 3444              		.cfi_def_cfa_offset 16
 3445              		.cfi_offset 6, -16
 3446 0001 4889E5   		movq	%rsp, %rbp
 3447              		.cfi_def_cfa_register 6
 3448 0004 4883EC10 		subq	$16, %rsp
 3449 0008 48897DF8 		movq	%rdi, -8(%rbp)
 3450              	.LBB11:
 3451              		.loc 4 134 0
 3452 000c E8000000 		call	_ZN13UnitTestSuite12GetSuiteNameEv
 3452      00
 3453 0011 4889C2   		movq	%rax, %rdx
 3454 0014 488B45F8 		movq	-8(%rbp), %rax
 3455 0018 41B88600 		movl	$134, %r8d
 3455      0000
 3456 001e B9000000 		movl	$.LC1, %ecx
 3456      00
 3457 0023 BE000000 		movl	$.LC31, %esi
 3457      00
 3458 0028 4889C7   		movq	%rax, %rdi
 3459 002b E8000000 		call	_ZN8UnitTest4TestC2EPKcS2_S2_i
 3459      00
 3460 0030 BA000000 		movl	$_ZTV26TestHexIO_testJunkDataByte+16, %edx
 3460      00
 3461 0035 488B45F8 		movq	-8(%rbp), %rax
 3462 0039 488910   		movq	%rdx, (%rax)
 3463              	.LBE11:
 3464 003c 90       		nop
 3465 003d C9       		leave
 3466              		.cfi_def_cfa 7, 8
 3467 003e C3       		ret
 3468              		.cfi_endproc
 3469              	.LFE1166:
 3471              		.weak	_ZN26TestHexIO_testJunkDataByteC1Ev
 3472              		.set	_ZN26TestHexIO_testJunkDataByteC1Ev,_ZN26TestHexIO_testJunkDataByteC2Ev
 3473              		.globl	testHexIO_testJunkDataByteInstance
 3474              		.bss
 3475 01b9 00000000 		.align 32
 3475      000000
 3478              	testHexIO_testJunkDataByteInstance:
 3479 01c0 00000000 		.zero	56
 3479      00000000 
 3479      00000000 
 3479      00000000 
 3479      00000000 
 3480              		.globl	adderHexIO_testJunkDataByte
 3483              	adderHexIO_testJunkDataByte:
 3484 01f8 00       		.zero	1
 3485              		.section	.rodata
 3486              	.LC32:
 3487 050d 3A303430 		.string	":040BE100..820022F7\n"
 3487      42453130 
 3487      302E2E38 
 3487      32303032 
 3487      3246370A 
 3488 0522 00000000 		.align 8
 3488      0000
 3489              	.LC33:
 3490 0528 556E6861 		.string	"Unhandled exception in CHECK_EQUAL(HEX_JUNK_DATA_BYTE, status)"
 3490      6E646C65 
 3490      64206578 
 3490      63657074 
 3490      696F6E20 
 3491              		.text
 3492              		.align 2
 3493              		.globl	_ZNK26TestHexIO_testJunkDataByte7RunImplEv
 3495              	_ZNK26TestHexIO_testJunkDataByte7RunImplEv:
 3496              	.LFB1168:
 3497              		.loc 4 134 0
 3498              		.cfi_startproc
 3499              		.cfi_personality 0x3,__gxx_personality_v0
 3500              		.cfi_lsda 0x3,.LLSDA1168
 3501 15a4 55       		pushq	%rbp
 3502              		.cfi_def_cfa_offset 16
 3503              		.cfi_offset 6, -16
 3504 15a5 4889E5   		movq	%rsp, %rbp
 3505              		.cfi_def_cfa_register 6
 3506 15a8 53       		pushq	%rbx
 3507 15a9 4881EC88 		subq	$136, %rsp
 3507      000000
 3508              		.cfi_offset 3, -24
 3509 15b0 4889BD78 		movq	%rdi, -136(%rbp)
 3509      FFFFFF
 3510              		.loc 4 134 0
 3511 15b7 64488B04 		movq	%fs:40, %rax
 3511      25280000 
 3511      00
 3512 15c0 488945E8 		movq	%rax, -24(%rbp)
 3513 15c4 31C0     		xorl	%eax, %eax
 135:testHexIO.cpp **** 	Buffer data;
 136:testHexIO.cpp **** 	BufferStatus status;
 137:testHexIO.cpp **** 	const char *line = ":040BE100..820022F7\n";
 3514              		.loc 4 137 0
 3515 15c6 48C74598 		movq	$.LC32, -104(%rbp)
 3515      00000000 
 138:testHexIO.cpp **** 	uint8 recordType;
 139:testHexIO.cpp **** 	uint32 seg = 0x00000000;
 3516              		.loc 4 139 0
 3517 15ce C7459000 		movl	$0, -112(%rbp)
 3517      000000
 140:testHexIO.cpp **** 	status = bufInitialise(&data, 1024, 0x00, NULL);
 3518              		.loc 4 140 0
 3519 15d5 488D45A0 		leaq	-96(%rbp), %rax
 3520 15d9 B9000000 		movl	$0, %ecx
 3520      00
 3521 15de BA000000 		movl	$0, %edx
 3521      00
 3522 15e3 BE000400 		movl	$1024, %esi
 3522      00
 3523 15e8 4889C7   		movq	%rax, %rdi
 3524              	.LEHB152:
 3525 15eb E8000000 		call	bufInitialise
 3525      00
 3526              	.LEHE152:
 3527 15f0 89458C   		movl	%eax, -116(%rbp)
 3528              	.LEHB153:
 141:testHexIO.cpp **** 	CHECK_EQUAL(BUF_SUCCESS, status);
 3529              		.loc 4 141 0
 3530 15f3 E8000000 		call	_ZN8UnitTest11CurrentTest7DetailsEv
 3530      00
 3531 15f8 488B08   		movq	(%rax), %rcx
 3532 15fb 488D45C0 		leaq	-64(%rbp), %rax
 3533 15ff BA8D0000 		movl	$141, %edx
 3533      00
 3534 1604 4889CE   		movq	%rcx, %rsi
 3535 1607 4889C7   		movq	%rax, %rdi
 3536 160a E8000000 		call	_ZN8UnitTest11TestDetailsC1ERKS0_i
 3536      00
 3537              	.LEHE153:
 3538              		.loc 4 141 0 is_stmt 0 discriminator 2
 3539 160f C7459400 		movl	$0, -108(%rbp)
 3539      000000
 3540              	.LEHB154:
 3541 1616 E8000000 		call	_ZN8UnitTest11CurrentTest7ResultsEv
 3541      00
 3542 161b 488B00   		movq	(%rax), %rax
 3543 161e 488D4DC0 		leaq	-64(%rbp), %rcx
 3544 1622 488D558C 		leaq	-116(%rbp), %rdx
 3545 1626 488D7594 		leaq	-108(%rbp), %rsi
 3546 162a 4889C7   		movq	%rax, %rdi
 3547 162d E8000000 		call	_ZN8UnitTest10CheckEqualI12BufferStatusS1_EEvRNS_11TestResultsERKT_RKT0_RKNS_11TestDetailsE
 3547      00
 3548              	.LEHE154:
 3549              	.L219:
 142:testHexIO.cpp **** 	status = bufProcessLine(line, 0, &data, NULL, &seg, &recordType, NULL);
 3550              		.loc 4 142 0 is_stmt 1
 3551 1632 488D758B 		leaq	-117(%rbp), %rsi
 3552 1636 488D4D90 		leaq	-112(%rbp), %rcx
 3553 163a 488D55A0 		leaq	-96(%rbp), %rdx
 3554 163e 488B4598 		movq	-104(%rbp), %rax
 3555 1642 4883EC08 		subq	$8, %rsp
 3556 1646 6A00     		pushq	$0
 3557 1648 4989F1   		movq	%rsi, %r9
 3558 164b 4989C8   		movq	%rcx, %r8
 3559 164e B9000000 		movl	$0, %ecx
 3559      00
 3560 1653 BE000000 		movl	$0, %esi
 3560      00
 3561 1658 4889C7   		movq	%rax, %rdi
 3562              	.LEHB155:
 3563 165b E8000000 		call	bufProcessLine
 3563      00
 3564              	.LEHE155:
 3565 1660 4883C410 		addq	$16, %rsp
 3566 1664 89458C   		movl	%eax, -116(%rbp)
 3567              	.LEHB156:
 143:testHexIO.cpp **** 	CHECK_EQUAL(HEX_JUNK_DATA_BYTE, status);
 3568              		.loc 4 143 0
 3569 1667 E8000000 		call	_ZN8UnitTest11CurrentTest7DetailsEv
 3569      00
 3570 166c 488B08   		movq	(%rax), %rcx
 3571 166f 488D45C0 		leaq	-64(%rbp), %rax
 3572 1673 BA8F0000 		movl	$143, %edx
 3572      00
 3573 1678 4889CE   		movq	%rcx, %rsi
 3574 167b 4889C7   		movq	%rax, %rdi
 3575 167e E8000000 		call	_ZN8UnitTest11TestDetailsC1ERKS0_i
 3575      00
 3576              	.LEHE156:
 3577              		.loc 4 143 0 is_stmt 0 discriminator 2
 3578 1683 C745940E 		movl	$14, -108(%rbp)
 3578      000000
 3579              	.LEHB157:
 3580 168a E8000000 		call	_ZN8UnitTest11CurrentTest7ResultsEv
 3580      00
 3581 168f 488B00   		movq	(%rax), %rax
 3582 1692 488D4DC0 		leaq	-64(%rbp), %rcx
 3583 1696 488D558C 		leaq	-116(%rbp), %rdx
 3584 169a 488D7594 		leaq	-108(%rbp), %rsi
 3585 169e 4889C7   		movq	%rax, %rdi
 3586 16a1 E8000000 		call	_ZN8UnitTest10CheckEqualI12BufferStatusS1_EEvRNS_11TestResultsERKT_RKT0_RKNS_11TestDetailsE
 3586      00
 3587              	.LEHE157:
 3588              	.L223:
 144:testHexIO.cpp **** 	bufDestroy(&data);
 3589              		.loc 4 144 0 is_stmt 1
 3590 16a6 488D45A0 		leaq	-96(%rbp), %rax
 3591 16aa 4889C7   		movq	%rax, %rdi
 3592              	.LEHB158:
 3593 16ad E8000000 		call	bufDestroy
 3593      00
 3594              	.LEHE158:
 145:testHexIO.cpp **** }
 3595              		.loc 4 145 0
 3596 16b2 90       		nop
 3597 16b3 488B45E8 		movq	-24(%rbp), %rax
 3598 16b7 64483304 		xorq	%fs:40, %rax
 3598      25280000 
 3598      00
 3599 16c0 0F84C800 		je	.L225
 3599      0000
 3600 16c6 E9BE0000 		jmp	.L232
 3600      00
 3601              	.L227:
 3602 16cb EB00     		jmp	.L218
 3603              	.L226:
 3604              	.L218:
 141:testHexIO.cpp **** 	status = bufProcessLine(line, 0, &data, NULL, &seg, &recordType, NULL);
 3605              		.loc 4 141 0
 3606 16cd 4889C7   		movq	%rax, %rdi
 3607 16d0 E8000000 		call	__cxa_begin_catch
 3607      00
 3608              	.LEHB159:
 3609 16d5 E8000000 		call	_ZN8UnitTest11CurrentTest7DetailsEv
 3609      00
 3610 16da 488B08   		movq	(%rax), %rcx
 3611 16dd 488D45C0 		leaq	-64(%rbp), %rax
 3612 16e1 BA8D0000 		movl	$141, %edx
 3612      00
 3613 16e6 4889CE   		movq	%rcx, %rsi
 3614 16e9 4889C7   		movq	%rax, %rdi
 3615 16ec E8000000 		call	_ZN8UnitTest11TestDetailsC1ERKS0_i
 3615      00
 141:testHexIO.cpp **** 	status = bufProcessLine(line, 0, &data, NULL, &seg, &recordType, NULL);
 3616              		.loc 4 141 0 is_stmt 0 discriminator 10
 3617 16f1 E8000000 		call	_ZN8UnitTest11CurrentTest7ResultsEv
 3617      00
 3618 16f6 488B00   		movq	(%rax), %rax
 3619 16f9 488D4DC0 		leaq	-64(%rbp), %rcx
 3620 16fd BA000000 		movl	$.LC4, %edx
 3620      00
 3621 1702 4889CE   		movq	%rcx, %rsi
 3622 1705 4889C7   		movq	%rax, %rdi
 3623 1708 E8000000 		call	_ZN8UnitTest11TestResults13OnTestFailureERKNS_11TestDetailsEPKc
 3623      00
 3624              	.LEHE159:
 3625              	.LEHB160:
 141:testHexIO.cpp **** 	status = bufProcessLine(line, 0, &data, NULL, &seg, &recordType, NULL);
 3626              		.loc 4 141 0 discriminator 14
 3627 170d E8000000 		call	__cxa_end_catch
 3627      00
 3628              	.LEHE160:
 3629 1712 E91BFFFF 		jmp	.L219
 3629      FF
 3630              	.L228:
 3631 1717 4889C3   		movq	%rax, %rbx
 141:testHexIO.cpp **** 	status = bufProcessLine(line, 0, &data, NULL, &seg, &recordType, NULL);
 3632              		.loc 4 141 0
 3633 171a E8000000 		call	__cxa_end_catch
 3633      00
 3634 171f 4889D8   		movq	%rbx, %rax
 3635 1722 4889C7   		movq	%rax, %rdi
 3636              	.LEHB161:
 3637 1725 E8000000 		call	_Unwind_Resume
 3637      00
 3638              	.LEHE161:
 3639              	.L230:
 3640 172a EB00     		jmp	.L222
 3641              	.L229:
 3642              	.L222:
 143:testHexIO.cpp **** 	bufDestroy(&data);
 3643              		.loc 4 143 0 is_stmt 1
 3644 172c 4889C7   		movq	%rax, %rdi
 3645 172f E8000000 		call	__cxa_begin_catch
 3645      00
 3646              	.LEHB162:
 3647 1734 E8000000 		call	_ZN8UnitTest11CurrentTest7DetailsEv
 3647      00
 3648 1739 488B08   		movq	(%rax), %rcx
 3649 173c 488D45C0 		leaq	-64(%rbp), %rax
 3650 1740 BA8F0000 		movl	$143, %edx
 3650      00
 3651 1745 4889CE   		movq	%rcx, %rsi
 3652 1748 4889C7   		movq	%rax, %rdi
 3653 174b E8000000 		call	_ZN8UnitTest11TestDetailsC1ERKS0_i
 3653      00
 143:testHexIO.cpp **** 	bufDestroy(&data);
 3654              		.loc 4 143 0 is_stmt 0 discriminator 10
 3655 1750 E8000000 		call	_ZN8UnitTest11CurrentTest7ResultsEv
 3655      00
 3656 1755 488B00   		movq	(%rax), %rax
 3657 1758 488D4DC0 		leaq	-64(%rbp), %rcx
 3658 175c BA000000 		movl	$.LC33, %edx
 3658      00
 3659 1761 4889CE   		movq	%rcx, %rsi
 3660 1764 4889C7   		movq	%rax, %rdi
 3661 1767 E8000000 		call	_ZN8UnitTest11TestResults13OnTestFailureERKNS_11TestDetailsEPKc
 3661      00
 3662              	.LEHE162:
 3663              	.LEHB163:
 143:testHexIO.cpp **** 	bufDestroy(&data);
 3664              		.loc 4 143 0 discriminator 14
 3665 176c E8000000 		call	__cxa_end_catch
 3665      00
 3666              	.LEHE163:
 3667 1771 E930FFFF 		jmp	.L223
 3667      FF
 3668              	.L231:
 3669 1776 4889C3   		movq	%rax, %rbx
 143:testHexIO.cpp **** 	bufDestroy(&data);
 3670              		.loc 4 143 0
 3671 1779 E8000000 		call	__cxa_end_catch
 3671      00
 3672 177e 4889D8   		movq	%rbx, %rax
 3673 1781 4889C7   		movq	%rax, %rdi
 3674              	.LEHB164:
 3675 1784 E8000000 		call	_Unwind_Resume
 3675      00
 3676              	.LEHE164:
 3677              	.L232:
 3678              		.loc 4 145 0 is_stmt 1
 3679 1789 E8000000 		call	__stack_chk_fail
 3679      00
 3680              	.L225:
 3681 178e 488B5DF8 		movq	-8(%rbp), %rbx
 3682 1792 C9       		leave
 3683              		.cfi_def_cfa 7, 8
 3684 1793 C3       		ret
 3685              		.cfi_endproc
 3686              	.LFE1168:
 3687              		.section	.gcc_except_table
 3688              		.align 4
 3689              	.LLSDA1168:
 3690 038c FF       		.byte	0xff
 3691 038d 03       		.byte	0x3
 3692 038e 51       		.uleb128 .LLSDATT1168-.LLSDATTD1168
 3693              	.LLSDATTD1168:
 3694 038f 01       		.byte	0x1
 3695 0390 44       		.uleb128 .LLSDACSE1168-.LLSDACSB1168
 3696              	.LLSDACSB1168:
 3697 0391 47       		.uleb128 .LEHB152-.LFB1168
 3698 0392 05       		.uleb128 .LEHE152-.LEHB152
 3699 0393 00       		.uleb128 0
 3700 0394 00       		.uleb128 0
 3701 0395 4F       		.uleb128 .LEHB153-.LFB1168
 3702 0396 1C       		.uleb128 .LEHE153-.LEHB153
 3703 0397 A902     		.uleb128 .L226-.LFB1168
 3704 0399 01       		.uleb128 0x1
 3705 039a 72       		.uleb128 .LEHB154-.LFB1168
 3706 039b 1C       		.uleb128 .LEHE154-.LEHB154
 3707 039c A702     		.uleb128 .L227-.LFB1168
 3708 039e 03       		.uleb128 0x3
 3709 039f B701     		.uleb128 .LEHB155-.LFB1168
 3710 03a1 05       		.uleb128 .LEHE155-.LEHB155
 3711 03a2 00       		.uleb128 0
 3712 03a3 00       		.uleb128 0
 3713 03a4 C301     		.uleb128 .LEHB156-.LFB1168
 3714 03a6 1C       		.uleb128 .LEHE156-.LEHB156
 3715 03a7 8803     		.uleb128 .L229-.LFB1168
 3716 03a9 01       		.uleb128 0x1
 3717 03aa E601     		.uleb128 .LEHB157-.LFB1168
 3718 03ac 1C       		.uleb128 .LEHE157-.LEHB157
 3719 03ad 8603     		.uleb128 .L230-.LFB1168
 3720 03af 03       		.uleb128 0x3
 3721 03b0 8902     		.uleb128 .LEHB158-.LFB1168
 3722 03b2 05       		.uleb128 .LEHE158-.LEHB158
 3723 03b3 00       		.uleb128 0
 3724 03b4 00       		.uleb128 0
 3725 03b5 B102     		.uleb128 .LEHB159-.LFB1168
 3726 03b7 38       		.uleb128 .LEHE159-.LEHB159
 3727 03b8 F302     		.uleb128 .L228-.LFB1168
 3728 03ba 00       		.uleb128 0
 3729 03bb E902     		.uleb128 .LEHB160-.LFB1168
 3730 03bd 05       		.uleb128 .LEHE160-.LEHB160
 3731 03be 00       		.uleb128 0
 3732 03bf 00       		.uleb128 0
 3733 03c0 8103     		.uleb128 .LEHB161-.LFB1168
 3734 03c2 05       		.uleb128 .LEHE161-.LEHB161
 3735 03c3 00       		.uleb128 0
 3736 03c4 00       		.uleb128 0
 3737 03c5 9003     		.uleb128 .LEHB162-.LFB1168
 3738 03c7 38       		.uleb128 .LEHE162-.LEHB162
 3739 03c8 D203     		.uleb128 .L231-.LFB1168
 3740 03ca 00       		.uleb128 0
 3741 03cb C803     		.uleb128 .LEHB163-.LFB1168
 3742 03cd 05       		.uleb128 .LEHE163-.LEHB163
 3743 03ce 00       		.uleb128 0
 3744 03cf 00       		.uleb128 0
 3745 03d0 E003     		.uleb128 .LEHB164-.LFB1168
 3746 03d2 05       		.uleb128 .LEHE164-.LEHB164
 3747 03d3 00       		.uleb128 0
 3748 03d4 00       		.uleb128 0
 3749              	.LLSDACSE1168:
 3750 03d5 01       		.byte	0x1
 3751 03d6 00       		.byte	0
 3752 03d7 00       		.byte	0
 3753 03d8 7D       		.byte	0x7d
 3754 03d9 000000   		.align 4
 3755 03dc 00000000 		.long	0
 3756              	
 3757              	.LLSDATT1168:
 3758              		.text
 3760              		.section	.rodata
 3761              	.LC34:
 3762 0567 48657849 		.string	"HexIO_testJunkChecksum"
 3762      4F5F7465 
 3762      73744A75 
 3762      6E6B4368 
 3762      65636B73 
 3763              		.section	.text._ZN26TestHexIO_testJunkChecksumC2Ev,"axG",@progbits,_ZN26TestHexIO_testJunkChecksum
 3764              		.align 2
 3765              		.weak	_ZN26TestHexIO_testJunkChecksumC2Ev
 3767              	_ZN26TestHexIO_testJunkChecksumC2Ev:
 3768              	.LFB1170:
 146:testHexIO.cpp **** 
 147:testHexIO.cpp **** TEST(HexIO_testJunkChecksum) {
 3769              		.loc 4 147 0
 3770              		.cfi_startproc
 3771 0000 55       		pushq	%rbp
 3772              		.cfi_def_cfa_offset 16
 3773              		.cfi_offset 6, -16
 3774 0001 4889E5   		movq	%rsp, %rbp
 3775              		.cfi_def_cfa_register 6
 3776 0004 4883EC10 		subq	$16, %rsp
 3777 0008 48897DF8 		movq	%rdi, -8(%rbp)
 3778              	.LBB12:
 3779              		.loc 4 147 0
 3780 000c E8000000 		call	_ZN13UnitTestSuite12GetSuiteNameEv
 3780      00
 3781 0011 4889C2   		movq	%rax, %rdx
 3782 0014 488B45F8 		movq	-8(%rbp), %rax
 3783 0018 41B89300 		movl	$147, %r8d
 3783      0000
 3784 001e B9000000 		movl	$.LC1, %ecx
 3784      00
 3785 0023 BE000000 		movl	$.LC34, %esi
 3785      00
 3786 0028 4889C7   		movq	%rax, %rdi
 3787 002b E8000000 		call	_ZN8UnitTest4TestC2EPKcS2_S2_i
 3787      00
 3788 0030 BA000000 		movl	$_ZTV26TestHexIO_testJunkChecksum+16, %edx
 3788      00
 3789 0035 488B45F8 		movq	-8(%rbp), %rax
 3790 0039 488910   		movq	%rdx, (%rax)
 3791              	.LBE12:
 3792 003c 90       		nop
 3793 003d C9       		leave
 3794              		.cfi_def_cfa 7, 8
 3795 003e C3       		ret
 3796              		.cfi_endproc
 3797              	.LFE1170:
 3799              		.weak	_ZN26TestHexIO_testJunkChecksumC1Ev
 3800              		.set	_ZN26TestHexIO_testJunkChecksumC1Ev,_ZN26TestHexIO_testJunkChecksumC2Ev
 3801              		.globl	testHexIO_testJunkChecksumInstance
 3802              		.bss
 3803 01f9 00000000 		.align 32
 3803      000000
 3806              	testHexIO_testJunkChecksumInstance:
 3807 0200 00000000 		.zero	56
 3807      00000000 
 3807      00000000 
 3807      00000000 
 3807      00000000 
 3808              		.globl	adderHexIO_testJunkChecksum
 3811              	adderHexIO_testJunkChecksum:
 3812 0238 00       		.zero	1
 3813              		.section	.rodata
 3814              	.LC35:
 3815 057e 3A303430 		.string	":040BE10075820022..\n"
 3815      42453130 
 3815      30373538 
 3815      32303032 
 3815      322E2E0A 
 3816 0593 00000000 		.align 8
 3816      00
 3817              	.LC36:
 3818 0598 556E6861 		.string	"Unhandled exception in CHECK_EQUAL(HEX_JUNK_CHECKSUM, status)"
 3818      6E646C65 
 3818      64206578 
 3818      63657074 
 3818      696F6E20 
 3819              		.text
 3820              		.align 2
 3821              		.globl	_ZNK26TestHexIO_testJunkChecksum7RunImplEv
 3823              	_ZNK26TestHexIO_testJunkChecksum7RunImplEv:
 3824              	.LFB1172:
 3825              		.loc 4 147 0
 3826              		.cfi_startproc
 3827              		.cfi_personality 0x3,__gxx_personality_v0
 3828              		.cfi_lsda 0x3,.LLSDA1172
 3829 1794 55       		pushq	%rbp
 3830              		.cfi_def_cfa_offset 16
 3831              		.cfi_offset 6, -16
 3832 1795 4889E5   		movq	%rsp, %rbp
 3833              		.cfi_def_cfa_register 6
 3834 1798 53       		pushq	%rbx
 3835 1799 4881EC88 		subq	$136, %rsp
 3835      000000
 3836              		.cfi_offset 3, -24
 3837 17a0 4889BD78 		movq	%rdi, -136(%rbp)
 3837      FFFFFF
 3838              		.loc 4 147 0
 3839 17a7 64488B04 		movq	%fs:40, %rax
 3839      25280000 
 3839      00
 3840 17b0 488945E8 		movq	%rax, -24(%rbp)
 3841 17b4 31C0     		xorl	%eax, %eax
 148:testHexIO.cpp **** 	Buffer data;
 149:testHexIO.cpp **** 	BufferStatus status;
 150:testHexIO.cpp **** 	const char *line = ":040BE10075820022..\n";
 3842              		.loc 4 150 0
 3843 17b6 48C74598 		movq	$.LC35, -104(%rbp)
 3843      00000000 
 151:testHexIO.cpp **** 	uint8 recordType;
 152:testHexIO.cpp **** 	uint32 seg = 0x00000000;
 3844              		.loc 4 152 0
 3845 17be C7459000 		movl	$0, -112(%rbp)
 3845      000000
 153:testHexIO.cpp **** 	status = bufInitialise(&data, 1024, 0x00, NULL);
 3846              		.loc 4 153 0
 3847 17c5 488D45A0 		leaq	-96(%rbp), %rax
 3848 17c9 B9000000 		movl	$0, %ecx
 3848      00
 3849 17ce BA000000 		movl	$0, %edx
 3849      00
 3850 17d3 BE000400 		movl	$1024, %esi
 3850      00
 3851 17d8 4889C7   		movq	%rax, %rdi
 3852              	.LEHB165:
 3853 17db E8000000 		call	bufInitialise
 3853      00
 3854              	.LEHE165:
 3855 17e0 89458C   		movl	%eax, -116(%rbp)
 3856              	.LEHB166:
 154:testHexIO.cpp **** 	CHECK_EQUAL(BUF_SUCCESS, status);
 3857              		.loc 4 154 0
 3858 17e3 E8000000 		call	_ZN8UnitTest11CurrentTest7DetailsEv
 3858      00
 3859 17e8 488B08   		movq	(%rax), %rcx
 3860 17eb 488D45C0 		leaq	-64(%rbp), %rax
 3861 17ef BA9A0000 		movl	$154, %edx
 3861      00
 3862 17f4 4889CE   		movq	%rcx, %rsi
 3863 17f7 4889C7   		movq	%rax, %rdi
 3864 17fa E8000000 		call	_ZN8UnitTest11TestDetailsC1ERKS0_i
 3864      00
 3865              	.LEHE166:
 3866              		.loc 4 154 0 is_stmt 0 discriminator 2
 3867 17ff C7459400 		movl	$0, -108(%rbp)
 3867      000000
 3868              	.LEHB167:
 3869 1806 E8000000 		call	_ZN8UnitTest11CurrentTest7ResultsEv
 3869      00
 3870 180b 488B00   		movq	(%rax), %rax
 3871 180e 488D4DC0 		leaq	-64(%rbp), %rcx
 3872 1812 488D558C 		leaq	-116(%rbp), %rdx
 3873 1816 488D7594 		leaq	-108(%rbp), %rsi
 3874 181a 4889C7   		movq	%rax, %rdi
 3875 181d E8000000 		call	_ZN8UnitTest10CheckEqualI12BufferStatusS1_EEvRNS_11TestResultsERKT_RKT0_RKNS_11TestDetailsE
 3875      00
 3876              	.LEHE167:
 3877              	.L237:
 155:testHexIO.cpp **** 	status = bufProcessLine(line, 0, &data, NULL, &seg, &recordType, NULL);
 3878              		.loc 4 155 0 is_stmt 1
 3879 1822 488D758B 		leaq	-117(%rbp), %rsi
 3880 1826 488D4D90 		leaq	-112(%rbp), %rcx
 3881 182a 488D55A0 		leaq	-96(%rbp), %rdx
 3882 182e 488B4598 		movq	-104(%rbp), %rax
 3883 1832 4883EC08 		subq	$8, %rsp
 3884 1836 6A00     		pushq	$0
 3885 1838 4989F1   		movq	%rsi, %r9
 3886 183b 4989C8   		movq	%rcx, %r8
 3887 183e B9000000 		movl	$0, %ecx
 3887      00
 3888 1843 BE000000 		movl	$0, %esi
 3888      00
 3889 1848 4889C7   		movq	%rax, %rdi
 3890              	.LEHB168:
 3891 184b E8000000 		call	bufProcessLine
 3891      00
 3892              	.LEHE168:
 3893 1850 4883C410 		addq	$16, %rsp
 3894 1854 89458C   		movl	%eax, -116(%rbp)
 3895              	.LEHB169:
 156:testHexIO.cpp **** 	CHECK_EQUAL(HEX_JUNK_CHECKSUM, status);
 3896              		.loc 4 156 0
 3897 1857 E8000000 		call	_ZN8UnitTest11CurrentTest7DetailsEv
 3897      00
 3898 185c 488B08   		movq	(%rax), %rcx
 3899 185f 488D45C0 		leaq	-64(%rbp), %rax
 3900 1863 BA9C0000 		movl	$156, %edx
 3900      00
 3901 1868 4889CE   		movq	%rcx, %rsi
 3902 186b 4889C7   		movq	%rax, %rdi
 3903 186e E8000000 		call	_ZN8UnitTest11TestDetailsC1ERKS0_i
 3903      00
 3904              	.LEHE169:
 3905              		.loc 4 156 0 is_stmt 0 discriminator 2
 3906 1873 C745940F 		movl	$15, -108(%rbp)
 3906      000000
 3907              	.LEHB170:
 3908 187a E8000000 		call	_ZN8UnitTest11CurrentTest7ResultsEv
 3908      00
 3909 187f 488B00   		movq	(%rax), %rax
 3910 1882 488D4DC0 		leaq	-64(%rbp), %rcx
 3911 1886 488D558C 		leaq	-116(%rbp), %rdx
 3912 188a 488D7594 		leaq	-108(%rbp), %rsi
 3913 188e 4889C7   		movq	%rax, %rdi
 3914 1891 E8000000 		call	_ZN8UnitTest10CheckEqualI12BufferStatusS1_EEvRNS_11TestResultsERKT_RKT0_RKNS_11TestDetailsE
 3914      00
 3915              	.LEHE170:
 3916              	.L241:
 157:testHexIO.cpp **** 	bufDestroy(&data);
 3917              		.loc 4 157 0 is_stmt 1
 3918 1896 488D45A0 		leaq	-96(%rbp), %rax
 3919 189a 4889C7   		movq	%rax, %rdi
 3920              	.LEHB171:
 3921 189d E8000000 		call	bufDestroy
 3921      00
 3922              	.LEHE171:
 158:testHexIO.cpp **** }
 3923              		.loc 4 158 0
 3924 18a2 90       		nop
 3925 18a3 488B45E8 		movq	-24(%rbp), %rax
 3926 18a7 64483304 		xorq	%fs:40, %rax
 3926      25280000 
 3926      00
 3927 18b0 0F84C800 		je	.L243
 3927      0000
 3928 18b6 E9BE0000 		jmp	.L250
 3928      00
 3929              	.L245:
 3930 18bb EB00     		jmp	.L236
 3931              	.L244:
 3932              	.L236:
 154:testHexIO.cpp **** 	status = bufProcessLine(line, 0, &data, NULL, &seg, &recordType, NULL);
 3933              		.loc 4 154 0
 3934 18bd 4889C7   		movq	%rax, %rdi
 3935 18c0 E8000000 		call	__cxa_begin_catch
 3935      00
 3936              	.LEHB172:
 3937 18c5 E8000000 		call	_ZN8UnitTest11CurrentTest7DetailsEv
 3937      00
 3938 18ca 488B08   		movq	(%rax), %rcx
 3939 18cd 488D45C0 		leaq	-64(%rbp), %rax
 3940 18d1 BA9A0000 		movl	$154, %edx
 3940      00
 3941 18d6 4889CE   		movq	%rcx, %rsi
 3942 18d9 4889C7   		movq	%rax, %rdi
 3943 18dc E8000000 		call	_ZN8UnitTest11TestDetailsC1ERKS0_i
 3943      00
 154:testHexIO.cpp **** 	status = bufProcessLine(line, 0, &data, NULL, &seg, &recordType, NULL);
 3944              		.loc 4 154 0 is_stmt 0 discriminator 10
 3945 18e1 E8000000 		call	_ZN8UnitTest11CurrentTest7ResultsEv
 3945      00
 3946 18e6 488B00   		movq	(%rax), %rax
 3947 18e9 488D4DC0 		leaq	-64(%rbp), %rcx
 3948 18ed BA000000 		movl	$.LC4, %edx
 3948      00
 3949 18f2 4889CE   		movq	%rcx, %rsi
 3950 18f5 4889C7   		movq	%rax, %rdi
 3951 18f8 E8000000 		call	_ZN8UnitTest11TestResults13OnTestFailureERKNS_11TestDetailsEPKc
 3951      00
 3952              	.LEHE172:
 3953              	.LEHB173:
 154:testHexIO.cpp **** 	status = bufProcessLine(line, 0, &data, NULL, &seg, &recordType, NULL);
 3954              		.loc 4 154 0 discriminator 14
 3955 18fd E8000000 		call	__cxa_end_catch
 3955      00
 3956              	.LEHE173:
 3957 1902 E91BFFFF 		jmp	.L237
 3957      FF
 3958              	.L246:
 3959 1907 4889C3   		movq	%rax, %rbx
 154:testHexIO.cpp **** 	status = bufProcessLine(line, 0, &data, NULL, &seg, &recordType, NULL);
 3960              		.loc 4 154 0
 3961 190a E8000000 		call	__cxa_end_catch
 3961      00
 3962 190f 4889D8   		movq	%rbx, %rax
 3963 1912 4889C7   		movq	%rax, %rdi
 3964              	.LEHB174:
 3965 1915 E8000000 		call	_Unwind_Resume
 3965      00
 3966              	.LEHE174:
 3967              	.L248:
 3968 191a EB00     		jmp	.L240
 3969              	.L247:
 3970              	.L240:
 156:testHexIO.cpp **** 	bufDestroy(&data);
 3971              		.loc 4 156 0 is_stmt 1
 3972 191c 4889C7   		movq	%rax, %rdi
 3973 191f E8000000 		call	__cxa_begin_catch
 3973      00
 3974              	.LEHB175:
 3975 1924 E8000000 		call	_ZN8UnitTest11CurrentTest7DetailsEv
 3975      00
 3976 1929 488B08   		movq	(%rax), %rcx
 3977 192c 488D45C0 		leaq	-64(%rbp), %rax
 3978 1930 BA9C0000 		movl	$156, %edx
 3978      00
 3979 1935 4889CE   		movq	%rcx, %rsi
 3980 1938 4889C7   		movq	%rax, %rdi
 3981 193b E8000000 		call	_ZN8UnitTest11TestDetailsC1ERKS0_i
 3981      00
 156:testHexIO.cpp **** 	bufDestroy(&data);
 3982              		.loc 4 156 0 is_stmt 0 discriminator 10
 3983 1940 E8000000 		call	_ZN8UnitTest11CurrentTest7ResultsEv
 3983      00
 3984 1945 488B00   		movq	(%rax), %rax
 3985 1948 488D4DC0 		leaq	-64(%rbp), %rcx
 3986 194c BA000000 		movl	$.LC36, %edx
 3986      00
 3987 1951 4889CE   		movq	%rcx, %rsi
 3988 1954 4889C7   		movq	%rax, %rdi
 3989 1957 E8000000 		call	_ZN8UnitTest11TestResults13OnTestFailureERKNS_11TestDetailsEPKc
 3989      00
 3990              	.LEHE175:
 3991              	.LEHB176:
 156:testHexIO.cpp **** 	bufDestroy(&data);
 3992              		.loc 4 156 0 discriminator 14
 3993 195c E8000000 		call	__cxa_end_catch
 3993      00
 3994              	.LEHE176:
 3995 1961 E930FFFF 		jmp	.L241
 3995      FF
 3996              	.L249:
 3997 1966 4889C3   		movq	%rax, %rbx
 156:testHexIO.cpp **** 	bufDestroy(&data);
 3998              		.loc 4 156 0
 3999 1969 E8000000 		call	__cxa_end_catch
 3999      00
 4000 196e 4889D8   		movq	%rbx, %rax
 4001 1971 4889C7   		movq	%rax, %rdi
 4002              	.LEHB177:
 4003 1974 E8000000 		call	_Unwind_Resume
 4003      00
 4004              	.LEHE177:
 4005              	.L250:
 4006              		.loc 4 158 0 is_stmt 1
 4007 1979 E8000000 		call	__stack_chk_fail
 4007      00
 4008              	.L243:
 4009 197e 488B5DF8 		movq	-8(%rbp), %rbx
 4010 1982 C9       		leave
 4011              		.cfi_def_cfa 7, 8
 4012 1983 C3       		ret
 4013              		.cfi_endproc
 4014              	.LFE1172:
 4015              		.section	.gcc_except_table
 4016              		.align 4
 4017              	.LLSDA1172:
 4018 03e0 FF       		.byte	0xff
 4019 03e1 03       		.byte	0x3
 4020 03e2 51       		.uleb128 .LLSDATT1172-.LLSDATTD1172
 4021              	.LLSDATTD1172:
 4022 03e3 01       		.byte	0x1
 4023 03e4 44       		.uleb128 .LLSDACSE1172-.LLSDACSB1172
 4024              	.LLSDACSB1172:
 4025 03e5 47       		.uleb128 .LEHB165-.LFB1172
 4026 03e6 05       		.uleb128 .LEHE165-.LEHB165
 4027 03e7 00       		.uleb128 0
 4028 03e8 00       		.uleb128 0
 4029 03e9 4F       		.uleb128 .LEHB166-.LFB1172
 4030 03ea 1C       		.uleb128 .LEHE166-.LEHB166
 4031 03eb A902     		.uleb128 .L244-.LFB1172
 4032 03ed 01       		.uleb128 0x1
 4033 03ee 72       		.uleb128 .LEHB167-.LFB1172
 4034 03ef 1C       		.uleb128 .LEHE167-.LEHB167
 4035 03f0 A702     		.uleb128 .L245-.LFB1172
 4036 03f2 03       		.uleb128 0x3
 4037 03f3 B701     		.uleb128 .LEHB168-.LFB1172
 4038 03f5 05       		.uleb128 .LEHE168-.LEHB168
 4039 03f6 00       		.uleb128 0
 4040 03f7 00       		.uleb128 0
 4041 03f8 C301     		.uleb128 .LEHB169-.LFB1172
 4042 03fa 1C       		.uleb128 .LEHE169-.LEHB169
 4043 03fb 8803     		.uleb128 .L247-.LFB1172
 4044 03fd 01       		.uleb128 0x1
 4045 03fe E601     		.uleb128 .LEHB170-.LFB1172
 4046 0400 1C       		.uleb128 .LEHE170-.LEHB170
 4047 0401 8603     		.uleb128 .L248-.LFB1172
 4048 0403 03       		.uleb128 0x3
 4049 0404 8902     		.uleb128 .LEHB171-.LFB1172
 4050 0406 05       		.uleb128 .LEHE171-.LEHB171
 4051 0407 00       		.uleb128 0
 4052 0408 00       		.uleb128 0
 4053 0409 B102     		.uleb128 .LEHB172-.LFB1172
 4054 040b 38       		.uleb128 .LEHE172-.LEHB172
 4055 040c F302     		.uleb128 .L246-.LFB1172
 4056 040e 00       		.uleb128 0
 4057 040f E902     		.uleb128 .LEHB173-.LFB1172
 4058 0411 05       		.uleb128 .LEHE173-.LEHB173
 4059 0412 00       		.uleb128 0
 4060 0413 00       		.uleb128 0
 4061 0414 8103     		.uleb128 .LEHB174-.LFB1172
 4062 0416 05       		.uleb128 .LEHE174-.LEHB174
 4063 0417 00       		.uleb128 0
 4064 0418 00       		.uleb128 0
 4065 0419 9003     		.uleb128 .LEHB175-.LFB1172
 4066 041b 38       		.uleb128 .LEHE175-.LEHB175
 4067 041c D203     		.uleb128 .L249-.LFB1172
 4068 041e 00       		.uleb128 0
 4069 041f C803     		.uleb128 .LEHB176-.LFB1172
 4070 0421 05       		.uleb128 .LEHE176-.LEHB176
 4071 0422 00       		.uleb128 0
 4072 0423 00       		.uleb128 0
 4073 0424 E003     		.uleb128 .LEHB177-.LFB1172
 4074 0426 05       		.uleb128 .LEHE177-.LEHB177
 4075 0427 00       		.uleb128 0
 4076 0428 00       		.uleb128 0
 4077              	.LLSDACSE1172:
 4078 0429 01       		.byte	0x1
 4079 042a 00       		.byte	0
 4080 042b 00       		.byte	0
 4081 042c 7D       		.byte	0x7d
 4082 042d 000000   		.align 4
 4083 0430 00000000 		.long	0
 4084              	
 4085              	.LLSDATT1172:
 4086              		.text
 4088              		.section	.rodata
 4089              	.LC37:
 4090 05d6 48657849 		.string	"HexIO_testBadChecksum"
 4090      4F5F7465 
 4090      73744261 
 4090      64436865 
 4090      636B7375 
 4091              		.section	.text._ZN25TestHexIO_testBadChecksumC2Ev,"axG",@progbits,_ZN25TestHexIO_testBadChecksumC5
 4092              		.align 2
 4093              		.weak	_ZN25TestHexIO_testBadChecksumC2Ev
 4095              	_ZN25TestHexIO_testBadChecksumC2Ev:
 4096              	.LFB1174:
 159:testHexIO.cpp **** 
 160:testHexIO.cpp **** TEST(HexIO_testBadChecksum) {
 4097              		.loc 4 160 0
 4098              		.cfi_startproc
 4099 0000 55       		pushq	%rbp
 4100              		.cfi_def_cfa_offset 16
 4101              		.cfi_offset 6, -16
 4102 0001 4889E5   		movq	%rsp, %rbp
 4103              		.cfi_def_cfa_register 6
 4104 0004 4883EC10 		subq	$16, %rsp
 4105 0008 48897DF8 		movq	%rdi, -8(%rbp)
 4106              	.LBB13:
 4107              		.loc 4 160 0
 4108 000c E8000000 		call	_ZN13UnitTestSuite12GetSuiteNameEv
 4108      00
 4109 0011 4889C2   		movq	%rax, %rdx
 4110 0014 488B45F8 		movq	-8(%rbp), %rax
 4111 0018 41B8A000 		movl	$160, %r8d
 4111      0000
 4112 001e B9000000 		movl	$.LC1, %ecx
 4112      00
 4113 0023 BE000000 		movl	$.LC37, %esi
 4113      00
 4114 0028 4889C7   		movq	%rax, %rdi
 4115 002b E8000000 		call	_ZN8UnitTest4TestC2EPKcS2_S2_i
 4115      00
 4116 0030 BA000000 		movl	$_ZTV25TestHexIO_testBadChecksum+16, %edx
 4116      00
 4117 0035 488B45F8 		movq	-8(%rbp), %rax
 4118 0039 488910   		movq	%rdx, (%rax)
 4119              	.LBE13:
 4120 003c 90       		nop
 4121 003d C9       		leave
 4122              		.cfi_def_cfa 7, 8
 4123 003e C3       		ret
 4124              		.cfi_endproc
 4125              	.LFE1174:
 4127              		.weak	_ZN25TestHexIO_testBadChecksumC1Ev
 4128              		.set	_ZN25TestHexIO_testBadChecksumC1Ev,_ZN25TestHexIO_testBadChecksumC2Ev
 4129              		.globl	testHexIO_testBadChecksumInstance
 4130              		.bss
 4131 0239 00000000 		.align 32
 4131      000000
 4134              	testHexIO_testBadChecksumInstance:
 4135 0240 00000000 		.zero	56
 4135      00000000 
 4135      00000000 
 4135      00000000 
 4135      00000000 
 4136              		.globl	adderHexIO_testBadChecksum
 4139              	adderHexIO_testBadChecksum:
 4140 0278 00       		.zero	1
 4141              		.section	.rodata
 4142              	.LC38:
 4143 05ec 3A303430 		.string	":040BE10075820022F8\n"
 4143      42453130 
 4143      30373538 
 4143      32303032 
 4143      3246380A 
 4144 0601 00000000 		.align 8
 4144      000000
 4145              	.LC39:
 4146 0608 556E6861 		.string	"Unhandled exception in CHECK_EQUAL(HEX_BAD_CHECKSUM, status)"
 4146      6E646C65 
 4146      64206578 
 4146      63657074 
 4146      696F6E20 
 4147              		.text
 4148              		.align 2
 4149              		.globl	_ZNK25TestHexIO_testBadChecksum7RunImplEv
 4151              	_ZNK25TestHexIO_testBadChecksum7RunImplEv:
 4152              	.LFB1176:
 4153              		.loc 4 160 0
 4154              		.cfi_startproc
 4155              		.cfi_personality 0x3,__gxx_personality_v0
 4156              		.cfi_lsda 0x3,.LLSDA1176
 4157 1984 55       		pushq	%rbp
 4158              		.cfi_def_cfa_offset 16
 4159              		.cfi_offset 6, -16
 4160 1985 4889E5   		movq	%rsp, %rbp
 4161              		.cfi_def_cfa_register 6
 4162 1988 53       		pushq	%rbx
 4163 1989 4881EC88 		subq	$136, %rsp
 4163      000000
 4164              		.cfi_offset 3, -24
 4165 1990 4889BD78 		movq	%rdi, -136(%rbp)
 4165      FFFFFF
 4166              		.loc 4 160 0
 4167 1997 64488B04 		movq	%fs:40, %rax
 4167      25280000 
 4167      00
 4168 19a0 488945E8 		movq	%rax, -24(%rbp)
 4169 19a4 31C0     		xorl	%eax, %eax
 161:testHexIO.cpp **** 	Buffer data;
 162:testHexIO.cpp **** 	BufferStatus status;
 163:testHexIO.cpp **** 	const char *line = ":040BE10075820022F8\n";
 4170              		.loc 4 163 0
 4171 19a6 48C74598 		movq	$.LC38, -104(%rbp)
 4171      00000000 
 164:testHexIO.cpp **** 	uint8 recordType;
 165:testHexIO.cpp **** 	uint32 seg = 0x00000000;
 4172              		.loc 4 165 0
 4173 19ae C7459000 		movl	$0, -112(%rbp)
 4173      000000
 166:testHexIO.cpp **** 	status = bufInitialise(&data, 1024, 0x00, NULL);
 4174              		.loc 4 166 0
 4175 19b5 488D45A0 		leaq	-96(%rbp), %rax
 4176 19b9 B9000000 		movl	$0, %ecx
 4176      00
 4177 19be BA000000 		movl	$0, %edx
 4177      00
 4178 19c3 BE000400 		movl	$1024, %esi
 4178      00
 4179 19c8 4889C7   		movq	%rax, %rdi
 4180              	.LEHB178:
 4181 19cb E8000000 		call	bufInitialise
 4181      00
 4182              	.LEHE178:
 4183 19d0 89458C   		movl	%eax, -116(%rbp)
 4184              	.LEHB179:
 167:testHexIO.cpp **** 	CHECK_EQUAL(BUF_SUCCESS, status);
 4185              		.loc 4 167 0
 4186 19d3 E8000000 		call	_ZN8UnitTest11CurrentTest7DetailsEv
 4186      00
 4187 19d8 488B08   		movq	(%rax), %rcx
 4188 19db 488D45C0 		leaq	-64(%rbp), %rax
 4189 19df BAA70000 		movl	$167, %edx
 4189      00
 4190 19e4 4889CE   		movq	%rcx, %rsi
 4191 19e7 4889C7   		movq	%rax, %rdi
 4192 19ea E8000000 		call	_ZN8UnitTest11TestDetailsC1ERKS0_i
 4192      00
 4193              	.LEHE179:
 4194              		.loc 4 167 0 is_stmt 0 discriminator 2
 4195 19ef C7459400 		movl	$0, -108(%rbp)
 4195      000000
 4196              	.LEHB180:
 4197 19f6 E8000000 		call	_ZN8UnitTest11CurrentTest7ResultsEv
 4197      00
 4198 19fb 488B00   		movq	(%rax), %rax
 4199 19fe 488D4DC0 		leaq	-64(%rbp), %rcx
 4200 1a02 488D558C 		leaq	-116(%rbp), %rdx
 4201 1a06 488D7594 		leaq	-108(%rbp), %rsi
 4202 1a0a 4889C7   		movq	%rax, %rdi
 4203 1a0d E8000000 		call	_ZN8UnitTest10CheckEqualI12BufferStatusS1_EEvRNS_11TestResultsERKT_RKT0_RKNS_11TestDetailsE
 4203      00
 4204              	.LEHE180:
 4205              	.L255:
 168:testHexIO.cpp **** 	status = bufProcessLine(line, 0, &data, NULL, &seg, &recordType, NULL);
 4206              		.loc 4 168 0 is_stmt 1
 4207 1a12 488D758B 		leaq	-117(%rbp), %rsi
 4208 1a16 488D4D90 		leaq	-112(%rbp), %rcx
 4209 1a1a 488D55A0 		leaq	-96(%rbp), %rdx
 4210 1a1e 488B4598 		movq	-104(%rbp), %rax
 4211 1a22 4883EC08 		subq	$8, %rsp
 4212 1a26 6A00     		pushq	$0
 4213 1a28 4989F1   		movq	%rsi, %r9
 4214 1a2b 4989C8   		movq	%rcx, %r8
 4215 1a2e B9000000 		movl	$0, %ecx
 4215      00
 4216 1a33 BE000000 		movl	$0, %esi
 4216      00
 4217 1a38 4889C7   		movq	%rax, %rdi
 4218              	.LEHB181:
 4219 1a3b E8000000 		call	bufProcessLine
 4219      00
 4220              	.LEHE181:
 4221 1a40 4883C410 		addq	$16, %rsp
 4222 1a44 89458C   		movl	%eax, -116(%rbp)
 4223              	.LEHB182:
 169:testHexIO.cpp **** 	CHECK_EQUAL(HEX_BAD_CHECKSUM, status);
 4224              		.loc 4 169 0
 4225 1a47 E8000000 		call	_ZN8UnitTest11CurrentTest7DetailsEv
 4225      00
 4226 1a4c 488B08   		movq	(%rax), %rcx
 4227 1a4f 488D45C0 		leaq	-64(%rbp), %rax
 4228 1a53 BAA90000 		movl	$169, %edx
 4228      00
 4229 1a58 4889CE   		movq	%rcx, %rsi
 4230 1a5b 4889C7   		movq	%rax, %rdi
 4231 1a5e E8000000 		call	_ZN8UnitTest11TestDetailsC1ERKS0_i
 4231      00
 4232              	.LEHE182:
 4233              		.loc 4 169 0 is_stmt 0 discriminator 2
 4234 1a63 C7459410 		movl	$16, -108(%rbp)
 4234      000000
 4235              	.LEHB183:
 4236 1a6a E8000000 		call	_ZN8UnitTest11CurrentTest7ResultsEv
 4236      00
 4237 1a6f 488B00   		movq	(%rax), %rax
 4238 1a72 488D4DC0 		leaq	-64(%rbp), %rcx
 4239 1a76 488D558C 		leaq	-116(%rbp), %rdx
 4240 1a7a 488D7594 		leaq	-108(%rbp), %rsi
 4241 1a7e 4889C7   		movq	%rax, %rdi
 4242 1a81 E8000000 		call	_ZN8UnitTest10CheckEqualI12BufferStatusS1_EEvRNS_11TestResultsERKT_RKT0_RKNS_11TestDetailsE
 4242      00
 4243              	.LEHE183:
 4244              	.L259:
 170:testHexIO.cpp **** 	bufDestroy(&data);
 4245              		.loc 4 170 0 is_stmt 1
 4246 1a86 488D45A0 		leaq	-96(%rbp), %rax
 4247 1a8a 4889C7   		movq	%rax, %rdi
 4248              	.LEHB184:
 4249 1a8d E8000000 		call	bufDestroy
 4249      00
 4250              	.LEHE184:
 171:testHexIO.cpp **** }
 4251              		.loc 4 171 0
 4252 1a92 90       		nop
 4253 1a93 488B45E8 		movq	-24(%rbp), %rax
 4254 1a97 64483304 		xorq	%fs:40, %rax
 4254      25280000 
 4254      00
 4255 1aa0 0F84C800 		je	.L261
 4255      0000
 4256 1aa6 E9BE0000 		jmp	.L268
 4256      00
 4257              	.L263:
 4258 1aab EB00     		jmp	.L254
 4259              	.L262:
 4260              	.L254:
 167:testHexIO.cpp **** 	status = bufProcessLine(line, 0, &data, NULL, &seg, &recordType, NULL);
 4261              		.loc 4 167 0
 4262 1aad 4889C7   		movq	%rax, %rdi
 4263 1ab0 E8000000 		call	__cxa_begin_catch
 4263      00
 4264              	.LEHB185:
 4265 1ab5 E8000000 		call	_ZN8UnitTest11CurrentTest7DetailsEv
 4265      00
 4266 1aba 488B08   		movq	(%rax), %rcx
 4267 1abd 488D45C0 		leaq	-64(%rbp), %rax
 4268 1ac1 BAA70000 		movl	$167, %edx
 4268      00
 4269 1ac6 4889CE   		movq	%rcx, %rsi
 4270 1ac9 4889C7   		movq	%rax, %rdi
 4271 1acc E8000000 		call	_ZN8UnitTest11TestDetailsC1ERKS0_i
 4271      00
 167:testHexIO.cpp **** 	status = bufProcessLine(line, 0, &data, NULL, &seg, &recordType, NULL);
 4272              		.loc 4 167 0 is_stmt 0 discriminator 10
 4273 1ad1 E8000000 		call	_ZN8UnitTest11CurrentTest7ResultsEv
 4273      00
 4274 1ad6 488B00   		movq	(%rax), %rax
 4275 1ad9 488D4DC0 		leaq	-64(%rbp), %rcx
 4276 1add BA000000 		movl	$.LC4, %edx
 4276      00
 4277 1ae2 4889CE   		movq	%rcx, %rsi
 4278 1ae5 4889C7   		movq	%rax, %rdi
 4279 1ae8 E8000000 		call	_ZN8UnitTest11TestResults13OnTestFailureERKNS_11TestDetailsEPKc
 4279      00
 4280              	.LEHE185:
 4281              	.LEHB186:
 167:testHexIO.cpp **** 	status = bufProcessLine(line, 0, &data, NULL, &seg, &recordType, NULL);
 4282              		.loc 4 167 0 discriminator 14
 4283 1aed E8000000 		call	__cxa_end_catch
 4283      00
 4284              	.LEHE186:
 4285 1af2 E91BFFFF 		jmp	.L255
 4285      FF
 4286              	.L264:
 4287 1af7 4889C3   		movq	%rax, %rbx
 167:testHexIO.cpp **** 	status = bufProcessLine(line, 0, &data, NULL, &seg, &recordType, NULL);
 4288              		.loc 4 167 0
 4289 1afa E8000000 		call	__cxa_end_catch
 4289      00
 4290 1aff 4889D8   		movq	%rbx, %rax
 4291 1b02 4889C7   		movq	%rax, %rdi
 4292              	.LEHB187:
 4293 1b05 E8000000 		call	_Unwind_Resume
 4293      00
 4294              	.LEHE187:
 4295              	.L266:
 4296 1b0a EB00     		jmp	.L258
 4297              	.L265:
 4298              	.L258:
 169:testHexIO.cpp **** 	bufDestroy(&data);
 4299              		.loc 4 169 0 is_stmt 1
 4300 1b0c 4889C7   		movq	%rax, %rdi
 4301 1b0f E8000000 		call	__cxa_begin_catch
 4301      00
 4302              	.LEHB188:
 4303 1b14 E8000000 		call	_ZN8UnitTest11CurrentTest7DetailsEv
 4303      00
 4304 1b19 488B08   		movq	(%rax), %rcx
 4305 1b1c 488D45C0 		leaq	-64(%rbp), %rax
 4306 1b20 BAA90000 		movl	$169, %edx
 4306      00
 4307 1b25 4889CE   		movq	%rcx, %rsi
 4308 1b28 4889C7   		movq	%rax, %rdi
 4309 1b2b E8000000 		call	_ZN8UnitTest11TestDetailsC1ERKS0_i
 4309      00
 169:testHexIO.cpp **** 	bufDestroy(&data);
 4310              		.loc 4 169 0 is_stmt 0 discriminator 10
 4311 1b30 E8000000 		call	_ZN8UnitTest11CurrentTest7ResultsEv
 4311      00
 4312 1b35 488B00   		movq	(%rax), %rax
 4313 1b38 488D4DC0 		leaq	-64(%rbp), %rcx
 4314 1b3c BA000000 		movl	$.LC39, %edx
 4314      00
 4315 1b41 4889CE   		movq	%rcx, %rsi
 4316 1b44 4889C7   		movq	%rax, %rdi
 4317 1b47 E8000000 		call	_ZN8UnitTest11TestResults13OnTestFailureERKNS_11TestDetailsEPKc
 4317      00
 4318              	.LEHE188:
 4319              	.LEHB189:
 169:testHexIO.cpp **** 	bufDestroy(&data);
 4320              		.loc 4 169 0 discriminator 14
 4321 1b4c E8000000 		call	__cxa_end_catch
 4321      00
 4322              	.LEHE189:
 4323 1b51 E930FFFF 		jmp	.L259
 4323      FF
 4324              	.L267:
 4325 1b56 4889C3   		movq	%rax, %rbx
 169:testHexIO.cpp **** 	bufDestroy(&data);
 4326              		.loc 4 169 0
 4327 1b59 E8000000 		call	__cxa_end_catch
 4327      00
 4328 1b5e 4889D8   		movq	%rbx, %rax
 4329 1b61 4889C7   		movq	%rax, %rdi
 4330              	.LEHB190:
 4331 1b64 E8000000 		call	_Unwind_Resume
 4331      00
 4332              	.LEHE190:
 4333              	.L268:
 4334              		.loc 4 171 0 is_stmt 1
 4335 1b69 E8000000 		call	__stack_chk_fail
 4335      00
 4336              	.L261:
 4337 1b6e 488B5DF8 		movq	-8(%rbp), %rbx
 4338 1b72 C9       		leave
 4339              		.cfi_def_cfa 7, 8
 4340 1b73 C3       		ret
 4341              		.cfi_endproc
 4342              	.LFE1176:
 4343              		.section	.gcc_except_table
 4344              		.align 4
 4345              	.LLSDA1176:
 4346 0434 FF       		.byte	0xff
 4347 0435 03       		.byte	0x3
 4348 0436 51       		.uleb128 .LLSDATT1176-.LLSDATTD1176
 4349              	.LLSDATTD1176:
 4350 0437 01       		.byte	0x1
 4351 0438 44       		.uleb128 .LLSDACSE1176-.LLSDACSB1176
 4352              	.LLSDACSB1176:
 4353 0439 47       		.uleb128 .LEHB178-.LFB1176
 4354 043a 05       		.uleb128 .LEHE178-.LEHB178
 4355 043b 00       		.uleb128 0
 4356 043c 00       		.uleb128 0
 4357 043d 4F       		.uleb128 .LEHB179-.LFB1176
 4358 043e 1C       		.uleb128 .LEHE179-.LEHB179
 4359 043f A902     		.uleb128 .L262-.LFB1176
 4360 0441 01       		.uleb128 0x1
 4361 0442 72       		.uleb128 .LEHB180-.LFB1176
 4362 0443 1C       		.uleb128 .LEHE180-.LEHB180
 4363 0444 A702     		.uleb128 .L263-.LFB1176
 4364 0446 03       		.uleb128 0x3
 4365 0447 B701     		.uleb128 .LEHB181-.LFB1176
 4366 0449 05       		.uleb128 .LEHE181-.LEHB181
 4367 044a 00       		.uleb128 0
 4368 044b 00       		.uleb128 0
 4369 044c C301     		.uleb128 .LEHB182-.LFB1176
 4370 044e 1C       		.uleb128 .LEHE182-.LEHB182
 4371 044f 8803     		.uleb128 .L265-.LFB1176
 4372 0451 01       		.uleb128 0x1
 4373 0452 E601     		.uleb128 .LEHB183-.LFB1176
 4374 0454 1C       		.uleb128 .LEHE183-.LEHB183
 4375 0455 8603     		.uleb128 .L266-.LFB1176
 4376 0457 03       		.uleb128 0x3
 4377 0458 8902     		.uleb128 .LEHB184-.LFB1176
 4378 045a 05       		.uleb128 .LEHE184-.LEHB184
 4379 045b 00       		.uleb128 0
 4380 045c 00       		.uleb128 0
 4381 045d B102     		.uleb128 .LEHB185-.LFB1176
 4382 045f 38       		.uleb128 .LEHE185-.LEHB185
 4383 0460 F302     		.uleb128 .L264-.LFB1176
 4384 0462 00       		.uleb128 0
 4385 0463 E902     		.uleb128 .LEHB186-.LFB1176
 4386 0465 05       		.uleb128 .LEHE186-.LEHB186
 4387 0466 00       		.uleb128 0
 4388 0467 00       		.uleb128 0
 4389 0468 8103     		.uleb128 .LEHB187-.LFB1176
 4390 046a 05       		.uleb128 .LEHE187-.LEHB187
 4391 046b 00       		.uleb128 0
 4392 046c 00       		.uleb128 0
 4393 046d 9003     		.uleb128 .LEHB188-.LFB1176
 4394 046f 38       		.uleb128 .LEHE188-.LEHB188
 4395 0470 D203     		.uleb128 .L267-.LFB1176
 4396 0472 00       		.uleb128 0
 4397 0473 C803     		.uleb128 .LEHB189-.LFB1176
 4398 0475 05       		.uleb128 .LEHE189-.LEHB189
 4399 0476 00       		.uleb128 0
 4400 0477 00       		.uleb128 0
 4401 0478 E003     		.uleb128 .LEHB190-.LFB1176
 4402 047a 05       		.uleb128 .LEHE190-.LEHB190
 4403 047b 00       		.uleb128 0
 4404 047c 00       		.uleb128 0
 4405              	.LLSDACSE1176:
 4406 047d 01       		.byte	0x1
 4407 047e 00       		.byte	0
 4408 047f 00       		.byte	0
 4409 0480 7D       		.byte	0x7d
 4410 0481 000000   		.align 4
 4411 0484 00000000 		.long	0
 4412              	
 4413              	.LLSDATT1176:
 4414              		.text
 4416              		.section	.rodata
 4417              	.LC40:
 4418 0645 48657849 		.string	"HexIO_testCorruptLine"
 4418      4F5F7465 
 4418      7374436F 
 4418      72727570 
 4418      744C696E 
 4419              		.section	.text._ZN25TestHexIO_testCorruptLineC2Ev,"axG",@progbits,_ZN25TestHexIO_testCorruptLineC5
 4420              		.align 2
 4421              		.weak	_ZN25TestHexIO_testCorruptLineC2Ev
 4423              	_ZN25TestHexIO_testCorruptLineC2Ev:
 4424              	.LFB1178:
 172:testHexIO.cpp **** 
 173:testHexIO.cpp **** TEST(HexIO_testCorruptLine) {
 4425              		.loc 4 173 0
 4426              		.cfi_startproc
 4427 0000 55       		pushq	%rbp
 4428              		.cfi_def_cfa_offset 16
 4429              		.cfi_offset 6, -16
 4430 0001 4889E5   		movq	%rsp, %rbp
 4431              		.cfi_def_cfa_register 6
 4432 0004 4883EC10 		subq	$16, %rsp
 4433 0008 48897DF8 		movq	%rdi, -8(%rbp)
 4434              	.LBB14:
 4435              		.loc 4 173 0
 4436 000c E8000000 		call	_ZN13UnitTestSuite12GetSuiteNameEv
 4436      00
 4437 0011 4889C2   		movq	%rax, %rdx
 4438 0014 488B45F8 		movq	-8(%rbp), %rax
 4439 0018 41B8AD00 		movl	$173, %r8d
 4439      0000
 4440 001e B9000000 		movl	$.LC1, %ecx
 4440      00
 4441 0023 BE000000 		movl	$.LC40, %esi
 4441      00
 4442 0028 4889C7   		movq	%rax, %rdi
 4443 002b E8000000 		call	_ZN8UnitTest4TestC2EPKcS2_S2_i
 4443      00
 4444 0030 BA000000 		movl	$_ZTV25TestHexIO_testCorruptLine+16, %edx
 4444      00
 4445 0035 488B45F8 		movq	-8(%rbp), %rax
 4446 0039 488910   		movq	%rdx, (%rax)
 4447              	.LBE14:
 4448 003c 90       		nop
 4449 003d C9       		leave
 4450              		.cfi_def_cfa 7, 8
 4451 003e C3       		ret
 4452              		.cfi_endproc
 4453              	.LFE1178:
 4455              		.weak	_ZN25TestHexIO_testCorruptLineC1Ev
 4456              		.set	_ZN25TestHexIO_testCorruptLineC1Ev,_ZN25TestHexIO_testCorruptLineC2Ev
 4457              		.globl	testHexIO_testCorruptLineInstance
 4458              		.bss
 4459 0279 00000000 		.align 32
 4459      000000
 4462              	testHexIO_testCorruptLineInstance:
 4463 0280 00000000 		.zero	56
 4463      00000000 
 4463      00000000 
 4463      00000000 
 4463      00000000 
 4464              		.globl	adderHexIO_testCorruptLine
 4467              	adderHexIO_testCorruptLine:
 4468 02b8 00       		.zero	1
 4469              		.section	.rodata
 4470              	.LC41:
 4471 065b 3A303430 		.string	":040BE10075820022F7 \n"
 4471      42453130 
 4471      30373538 
 4471      32303032 
 4471      32463720 
 4472 0671 00000000 		.align 8
 4472      000000
 4473              	.LC42:
 4474 0678 556E6861 		.string	"Unhandled exception in CHECK_EQUAL(HEX_CORRUPT_LINE, status)"
 4474      6E646C65 
 4474      64206578 
 4474      63657074 
 4474      696F6E20 
 4475              		.text
 4476              		.align 2
 4477              		.globl	_ZNK25TestHexIO_testCorruptLine7RunImplEv
 4479              	_ZNK25TestHexIO_testCorruptLine7RunImplEv:
 4480              	.LFB1180:
 4481              		.loc 4 173 0
 4482              		.cfi_startproc
 4483              		.cfi_personality 0x3,__gxx_personality_v0
 4484              		.cfi_lsda 0x3,.LLSDA1180
 4485 1b74 55       		pushq	%rbp
 4486              		.cfi_def_cfa_offset 16
 4487              		.cfi_offset 6, -16
 4488 1b75 4889E5   		movq	%rsp, %rbp
 4489              		.cfi_def_cfa_register 6
 4490 1b78 53       		pushq	%rbx
 4491 1b79 4881EC88 		subq	$136, %rsp
 4491      000000
 4492              		.cfi_offset 3, -24
 4493 1b80 4889BD78 		movq	%rdi, -136(%rbp)
 4493      FFFFFF
 4494              		.loc 4 173 0
 4495 1b87 64488B04 		movq	%fs:40, %rax
 4495      25280000 
 4495      00
 4496 1b90 488945E8 		movq	%rax, -24(%rbp)
 4497 1b94 31C0     		xorl	%eax, %eax
 174:testHexIO.cpp **** 	Buffer data;
 175:testHexIO.cpp **** 	BufferStatus status;
 176:testHexIO.cpp **** 	const char *line = ":040BE10075820022F7 \n";
 4498              		.loc 4 176 0
 4499 1b96 48C74598 		movq	$.LC41, -104(%rbp)
 4499      00000000 
 177:testHexIO.cpp **** 	uint8 recordType;
 178:testHexIO.cpp **** 	uint32 seg = 0x00000000;
 4500              		.loc 4 178 0
 4501 1b9e C7459000 		movl	$0, -112(%rbp)
 4501      000000
 179:testHexIO.cpp **** 	status = bufInitialise(&data, 1024, 0x00, NULL);
 4502              		.loc 4 179 0
 4503 1ba5 488D45A0 		leaq	-96(%rbp), %rax
 4504 1ba9 B9000000 		movl	$0, %ecx
 4504      00
 4505 1bae BA000000 		movl	$0, %edx
 4505      00
 4506 1bb3 BE000400 		movl	$1024, %esi
 4506      00
 4507 1bb8 4889C7   		movq	%rax, %rdi
 4508              	.LEHB191:
 4509 1bbb E8000000 		call	bufInitialise
 4509      00
 4510              	.LEHE191:
 4511 1bc0 89458C   		movl	%eax, -116(%rbp)
 4512              	.LEHB192:
 180:testHexIO.cpp **** 	CHECK_EQUAL(BUF_SUCCESS, status);
 4513              		.loc 4 180 0
 4514 1bc3 E8000000 		call	_ZN8UnitTest11CurrentTest7DetailsEv
 4514      00
 4515 1bc8 488B08   		movq	(%rax), %rcx
 4516 1bcb 488D45C0 		leaq	-64(%rbp), %rax
 4517 1bcf BAB40000 		movl	$180, %edx
 4517      00
 4518 1bd4 4889CE   		movq	%rcx, %rsi
 4519 1bd7 4889C7   		movq	%rax, %rdi
 4520 1bda E8000000 		call	_ZN8UnitTest11TestDetailsC1ERKS0_i
 4520      00
 4521              	.LEHE192:
 4522              		.loc 4 180 0 is_stmt 0 discriminator 2
 4523 1bdf C7459400 		movl	$0, -108(%rbp)
 4523      000000
 4524              	.LEHB193:
 4525 1be6 E8000000 		call	_ZN8UnitTest11CurrentTest7ResultsEv
 4525      00
 4526 1beb 488B00   		movq	(%rax), %rax
 4527 1bee 488D4DC0 		leaq	-64(%rbp), %rcx
 4528 1bf2 488D558C 		leaq	-116(%rbp), %rdx
 4529 1bf6 488D7594 		leaq	-108(%rbp), %rsi
 4530 1bfa 4889C7   		movq	%rax, %rdi
 4531 1bfd E8000000 		call	_ZN8UnitTest10CheckEqualI12BufferStatusS1_EEvRNS_11TestResultsERKT_RKT0_RKNS_11TestDetailsE
 4531      00
 4532              	.LEHE193:
 4533              	.L273:
 181:testHexIO.cpp **** 	status = bufProcessLine(line, 0, &data, NULL, &seg, &recordType, NULL);
 4534              		.loc 4 181 0 is_stmt 1
 4535 1c02 488D758B 		leaq	-117(%rbp), %rsi
 4536 1c06 488D4D90 		leaq	-112(%rbp), %rcx
 4537 1c0a 488D55A0 		leaq	-96(%rbp), %rdx
 4538 1c0e 488B4598 		movq	-104(%rbp), %rax
 4539 1c12 4883EC08 		subq	$8, %rsp
 4540 1c16 6A00     		pushq	$0
 4541 1c18 4989F1   		movq	%rsi, %r9
 4542 1c1b 4989C8   		movq	%rcx, %r8
 4543 1c1e B9000000 		movl	$0, %ecx
 4543      00
 4544 1c23 BE000000 		movl	$0, %esi
 4544      00
 4545 1c28 4889C7   		movq	%rax, %rdi
 4546              	.LEHB194:
 4547 1c2b E8000000 		call	bufProcessLine
 4547      00
 4548              	.LEHE194:
 4549 1c30 4883C410 		addq	$16, %rsp
 4550 1c34 89458C   		movl	%eax, -116(%rbp)
 4551              	.LEHB195:
 182:testHexIO.cpp **** 	CHECK_EQUAL(HEX_CORRUPT_LINE, status);
 4552              		.loc 4 182 0
 4553 1c37 E8000000 		call	_ZN8UnitTest11CurrentTest7DetailsEv
 4553      00
 4554 1c3c 488B08   		movq	(%rax), %rcx
 4555 1c3f 488D45C0 		leaq	-64(%rbp), %rax
 4556 1c43 BAB60000 		movl	$182, %edx
 4556      00
 4557 1c48 4889CE   		movq	%rcx, %rsi
 4558 1c4b 4889C7   		movq	%rax, %rdi
 4559 1c4e E8000000 		call	_ZN8UnitTest11TestDetailsC1ERKS0_i
 4559      00
 4560              	.LEHE195:
 4561              		.loc 4 182 0 is_stmt 0 discriminator 2
 4562 1c53 C7459411 		movl	$17, -108(%rbp)
 4562      000000
 4563              	.LEHB196:
 4564 1c5a E8000000 		call	_ZN8UnitTest11CurrentTest7ResultsEv
 4564      00
 4565 1c5f 488B00   		movq	(%rax), %rax
 4566 1c62 488D4DC0 		leaq	-64(%rbp), %rcx
 4567 1c66 488D558C 		leaq	-116(%rbp), %rdx
 4568 1c6a 488D7594 		leaq	-108(%rbp), %rsi
 4569 1c6e 4889C7   		movq	%rax, %rdi
 4570 1c71 E8000000 		call	_ZN8UnitTest10CheckEqualI12BufferStatusS1_EEvRNS_11TestResultsERKT_RKT0_RKNS_11TestDetailsE
 4570      00
 4571              	.LEHE196:
 4572              	.L277:
 183:testHexIO.cpp **** 	bufDestroy(&data);
 4573              		.loc 4 183 0 is_stmt 1
 4574 1c76 488D45A0 		leaq	-96(%rbp), %rax
 4575 1c7a 4889C7   		movq	%rax, %rdi
 4576              	.LEHB197:
 4577 1c7d E8000000 		call	bufDestroy
 4577      00
 4578              	.LEHE197:
 184:testHexIO.cpp **** }
 4579              		.loc 4 184 0
 4580 1c82 90       		nop
 4581 1c83 488B45E8 		movq	-24(%rbp), %rax
 4582 1c87 64483304 		xorq	%fs:40, %rax
 4582      25280000 
 4582      00
 4583 1c90 0F84C800 		je	.L279
 4583      0000
 4584 1c96 E9BE0000 		jmp	.L286
 4584      00
 4585              	.L281:
 4586 1c9b EB00     		jmp	.L272
 4587              	.L280:
 4588              	.L272:
 180:testHexIO.cpp **** 	status = bufProcessLine(line, 0, &data, NULL, &seg, &recordType, NULL);
 4589              		.loc 4 180 0
 4590 1c9d 4889C7   		movq	%rax, %rdi
 4591 1ca0 E8000000 		call	__cxa_begin_catch
 4591      00
 4592              	.LEHB198:
 4593 1ca5 E8000000 		call	_ZN8UnitTest11CurrentTest7DetailsEv
 4593      00
 4594 1caa 488B08   		movq	(%rax), %rcx
 4595 1cad 488D45C0 		leaq	-64(%rbp), %rax
 4596 1cb1 BAB40000 		movl	$180, %edx
 4596      00
 4597 1cb6 4889CE   		movq	%rcx, %rsi
 4598 1cb9 4889C7   		movq	%rax, %rdi
 4599 1cbc E8000000 		call	_ZN8UnitTest11TestDetailsC1ERKS0_i
 4599      00
 180:testHexIO.cpp **** 	status = bufProcessLine(line, 0, &data, NULL, &seg, &recordType, NULL);
 4600              		.loc 4 180 0 is_stmt 0 discriminator 10
 4601 1cc1 E8000000 		call	_ZN8UnitTest11CurrentTest7ResultsEv
 4601      00
 4602 1cc6 488B00   		movq	(%rax), %rax
 4603 1cc9 488D4DC0 		leaq	-64(%rbp), %rcx
 4604 1ccd BA000000 		movl	$.LC4, %edx
 4604      00
 4605 1cd2 4889CE   		movq	%rcx, %rsi
 4606 1cd5 4889C7   		movq	%rax, %rdi
 4607 1cd8 E8000000 		call	_ZN8UnitTest11TestResults13OnTestFailureERKNS_11TestDetailsEPKc
 4607      00
 4608              	.LEHE198:
 4609              	.LEHB199:
 180:testHexIO.cpp **** 	status = bufProcessLine(line, 0, &data, NULL, &seg, &recordType, NULL);
 4610              		.loc 4 180 0 discriminator 14
 4611 1cdd E8000000 		call	__cxa_end_catch
 4611      00
 4612              	.LEHE199:
 4613 1ce2 E91BFFFF 		jmp	.L273
 4613      FF
 4614              	.L282:
 4615 1ce7 4889C3   		movq	%rax, %rbx
 180:testHexIO.cpp **** 	status = bufProcessLine(line, 0, &data, NULL, &seg, &recordType, NULL);
 4616              		.loc 4 180 0
 4617 1cea E8000000 		call	__cxa_end_catch
 4617      00
 4618 1cef 4889D8   		movq	%rbx, %rax
 4619 1cf2 4889C7   		movq	%rax, %rdi
 4620              	.LEHB200:
 4621 1cf5 E8000000 		call	_Unwind_Resume
 4621      00
 4622              	.LEHE200:
 4623              	.L284:
 4624 1cfa EB00     		jmp	.L276
 4625              	.L283:
 4626              	.L276:
 182:testHexIO.cpp **** 	bufDestroy(&data);
 4627              		.loc 4 182 0 is_stmt 1
 4628 1cfc 4889C7   		movq	%rax, %rdi
 4629 1cff E8000000 		call	__cxa_begin_catch
 4629      00
 4630              	.LEHB201:
 4631 1d04 E8000000 		call	_ZN8UnitTest11CurrentTest7DetailsEv
 4631      00
 4632 1d09 488B08   		movq	(%rax), %rcx
 4633 1d0c 488D45C0 		leaq	-64(%rbp), %rax
 4634 1d10 BAB60000 		movl	$182, %edx
 4634      00
 4635 1d15 4889CE   		movq	%rcx, %rsi
 4636 1d18 4889C7   		movq	%rax, %rdi
 4637 1d1b E8000000 		call	_ZN8UnitTest11TestDetailsC1ERKS0_i
 4637      00
 182:testHexIO.cpp **** 	bufDestroy(&data);
 4638              		.loc 4 182 0 is_stmt 0 discriminator 10
 4639 1d20 E8000000 		call	_ZN8UnitTest11CurrentTest7ResultsEv
 4639      00
 4640 1d25 488B00   		movq	(%rax), %rax
 4641 1d28 488D4DC0 		leaq	-64(%rbp), %rcx
 4642 1d2c BA000000 		movl	$.LC42, %edx
 4642      00
 4643 1d31 4889CE   		movq	%rcx, %rsi
 4644 1d34 4889C7   		movq	%rax, %rdi
 4645 1d37 E8000000 		call	_ZN8UnitTest11TestResults13OnTestFailureERKNS_11TestDetailsEPKc
 4645      00
 4646              	.LEHE201:
 4647              	.LEHB202:
 182:testHexIO.cpp **** 	bufDestroy(&data);
 4648              		.loc 4 182 0 discriminator 14
 4649 1d3c E8000000 		call	__cxa_end_catch
 4649      00
 4650              	.LEHE202:
 4651 1d41 E930FFFF 		jmp	.L277
 4651      FF
 4652              	.L285:
 4653 1d46 4889C3   		movq	%rax, %rbx
 182:testHexIO.cpp **** 	bufDestroy(&data);
 4654              		.loc 4 182 0
 4655 1d49 E8000000 		call	__cxa_end_catch
 4655      00
 4656 1d4e 4889D8   		movq	%rbx, %rax
 4657 1d51 4889C7   		movq	%rax, %rdi
 4658              	.LEHB203:
 4659 1d54 E8000000 		call	_Unwind_Resume
 4659      00
 4660              	.LEHE203:
 4661              	.L286:
 4662              		.loc 4 184 0 is_stmt 1
 4663 1d59 E8000000 		call	__stack_chk_fail
 4663      00
 4664              	.L279:
 4665 1d5e 488B5DF8 		movq	-8(%rbp), %rbx
 4666 1d62 C9       		leave
 4667              		.cfi_def_cfa 7, 8
 4668 1d63 C3       		ret
 4669              		.cfi_endproc
 4670              	.LFE1180:
 4671              		.section	.gcc_except_table
 4672              		.align 4
 4673              	.LLSDA1180:
 4674 0488 FF       		.byte	0xff
 4675 0489 03       		.byte	0x3
 4676 048a 51       		.uleb128 .LLSDATT1180-.LLSDATTD1180
 4677              	.LLSDATTD1180:
 4678 048b 01       		.byte	0x1
 4679 048c 44       		.uleb128 .LLSDACSE1180-.LLSDACSB1180
 4680              	.LLSDACSB1180:
 4681 048d 47       		.uleb128 .LEHB191-.LFB1180
 4682 048e 05       		.uleb128 .LEHE191-.LEHB191
 4683 048f 00       		.uleb128 0
 4684 0490 00       		.uleb128 0
 4685 0491 4F       		.uleb128 .LEHB192-.LFB1180
 4686 0492 1C       		.uleb128 .LEHE192-.LEHB192
 4687 0493 A902     		.uleb128 .L280-.LFB1180
 4688 0495 01       		.uleb128 0x1
 4689 0496 72       		.uleb128 .LEHB193-.LFB1180
 4690 0497 1C       		.uleb128 .LEHE193-.LEHB193
 4691 0498 A702     		.uleb128 .L281-.LFB1180
 4692 049a 03       		.uleb128 0x3
 4693 049b B701     		.uleb128 .LEHB194-.LFB1180
 4694 049d 05       		.uleb128 .LEHE194-.LEHB194
 4695 049e 00       		.uleb128 0
 4696 049f 00       		.uleb128 0
 4697 04a0 C301     		.uleb128 .LEHB195-.LFB1180
 4698 04a2 1C       		.uleb128 .LEHE195-.LEHB195
 4699 04a3 8803     		.uleb128 .L283-.LFB1180
 4700 04a5 01       		.uleb128 0x1
 4701 04a6 E601     		.uleb128 .LEHB196-.LFB1180
 4702 04a8 1C       		.uleb128 .LEHE196-.LEHB196
 4703 04a9 8603     		.uleb128 .L284-.LFB1180
 4704 04ab 03       		.uleb128 0x3
 4705 04ac 8902     		.uleb128 .LEHB197-.LFB1180
 4706 04ae 05       		.uleb128 .LEHE197-.LEHB197
 4707 04af 00       		.uleb128 0
 4708 04b0 00       		.uleb128 0
 4709 04b1 B102     		.uleb128 .LEHB198-.LFB1180
 4710 04b3 38       		.uleb128 .LEHE198-.LEHB198
 4711 04b4 F302     		.uleb128 .L282-.LFB1180
 4712 04b6 00       		.uleb128 0
 4713 04b7 E902     		.uleb128 .LEHB199-.LFB1180
 4714 04b9 05       		.uleb128 .LEHE199-.LEHB199
 4715 04ba 00       		.uleb128 0
 4716 04bb 00       		.uleb128 0
 4717 04bc 8103     		.uleb128 .LEHB200-.LFB1180
 4718 04be 05       		.uleb128 .LEHE200-.LEHB200
 4719 04bf 00       		.uleb128 0
 4720 04c0 00       		.uleb128 0
 4721 04c1 9003     		.uleb128 .LEHB201-.LFB1180
 4722 04c3 38       		.uleb128 .LEHE201-.LEHB201
 4723 04c4 D203     		.uleb128 .L285-.LFB1180
 4724 04c6 00       		.uleb128 0
 4725 04c7 C803     		.uleb128 .LEHB202-.LFB1180
 4726 04c9 05       		.uleb128 .LEHE202-.LEHB202
 4727 04ca 00       		.uleb128 0
 4728 04cb 00       		.uleb128 0
 4729 04cc E003     		.uleb128 .LEHB203-.LFB1180
 4730 04ce 05       		.uleb128 .LEHE203-.LEHB203
 4731 04cf 00       		.uleb128 0
 4732 04d0 00       		.uleb128 0
 4733              	.LLSDACSE1180:
 4734 04d1 01       		.byte	0x1
 4735 04d2 00       		.byte	0
 4736 04d3 00       		.byte	0
 4737 04d4 7D       		.byte	0x7d
 4738 04d5 000000   		.align 4
 4739 04d8 00000000 		.long	0
 4740              	
 4741              	.LLSDATT1180:
 4742              		.text
 4744              		.section	.rodata
 4745              	.LC43:
 4746 06b5 746D7046 		.string	"tmpFile.hex"
 4746      696C652E 
 4746      68657800 
 4747              	.LC44:
 4748 06c1 66696C65 		.string	"file.is_open()"
 4748      2E69735F 
 4748      6F70656E 
 4748      282900
 4749              		.align 8
 4750              	.LC45:
 4751 06d0 556E6861 		.string	"Unhandled exception in CHECK(file.is_open())"
 4751      6E646C65 
 4751      64206578 
 4751      63657074 
 4751      696F6E20 
 4752 06fd 000000   		.align 8
 4753              	.LC46:
 4754 0700 556E6861 		.string	"Unhandled exception in CHECK_EQUAL(expected.size(), (unsigned int)length)"
 4754      6E646C65 
 4754      64206578 
 4754      63657074 
 4754      696F6E20 
 4755 074a 00000000 		.align 8
 4755      0000
 4756              	.LC47:
 4757 0750 556E6861 		.string	"Unhandled exception in CHECK_ARRAY_EQUAL(expected.c_str(), (const char *)fileData)"
 4757      6E646C65 
 4757      64206578 
 4757      63657074 
 4757      696F6E20 
 4758 07a3 00000000 		.align 8
 4758      00
 4759              	.LC48:
 4760 07a8 556E6861 		.string	"Unhandled exception in CHECK_EQUAL(data.length, readbackData.length)"
 4760      6E646C65 
 4760      64206578 
 4760      63657074 
 4760      696F6E20 
 4761 07ed 000000   		.align 8
 4762              	.LC49:
 4763 07f0 556E6861 		.string	"Unhandled exception in CHECK_ARRAY_EQUAL(data.data, readbackData.data)"
 4763      6E646C65 
 4763      64206578 
 4763      63657074 
 4763      696F6E20 
 4764 0837 00       		.align 8
 4765              	.LC50:
 4766 0838 556E6861 		.string	"Unhandled exception in CHECK_EQUAL(mask.length, readbackMask.length)"
 4766      6E646C65 
 4766      64206578 
 4766      63657074 
 4766      696F6E20 
 4767 087d 000000   		.align 8
 4768              	.LC51:
 4769 0880 556E6861 		.string	"Unhandled exception in CHECK_ARRAY_EQUAL(mask.data, readbackMask.data)"
 4769      6E646C65 
 4769      64206578 
 4769      63657074 
 4769      696F6E20 
 4770              		.text
 4771              		.globl	_Z13testRoundTripPKcz
 4773              	_Z13testRoundTripPKcz:
 4774              	.LFB1181:
 185:testHexIO.cpp **** 
 186:testHexIO.cpp **** void testRoundTrip(const char *firstLine, ...) {
 4775              		.loc 4 186 0
 4776              		.cfi_startproc
 4777              		.cfi_personality 0x3,__gxx_personality_v0
 4778              		.cfi_lsda 0x3,.LLSDA1181
 4779 1d64 55       		pushq	%rbp
 4780              		.cfi_def_cfa_offset 16
 4781              		.cfi_offset 6, -16
 4782 1d65 4889E5   		movq	%rsp, %rbp
 4783              		.cfi_def_cfa_register 6
 4784 1d68 53       		pushq	%rbx
 4785 1d69 4881ECF8 		subq	$1016, %rsp
 4785      030000
 4786              		.cfi_offset 3, -24
 4787 1d70 4889BD08 		movq	%rdi, -1016(%rbp)
 4787      FCFFFF
 4788 1d77 4889B548 		movq	%rsi, -184(%rbp)
 4788      FFFFFF
 4789 1d7e 48899550 		movq	%rdx, -176(%rbp)
 4789      FFFFFF
 4790 1d85 48898D58 		movq	%rcx, -168(%rbp)
 4790      FFFFFF
 4791 1d8c 4C898560 		movq	%r8, -160(%rbp)
 4791      FFFFFF
 4792 1d93 4C898D68 		movq	%r9, -152(%rbp)
 4792      FFFFFF
 4793 1d9a 84C0     		testb	%al, %al
 4794 1d9c 7423     		je	.L288
 4795 1d9e 0F298570 		movaps	%xmm0, -144(%rbp)
 4795      FFFFFF
 4796 1da5 0F294D80 		movaps	%xmm1, -128(%rbp)
 4797 1da9 0F295590 		movaps	%xmm2, -112(%rbp)
 4798 1dad 0F295DA0 		movaps	%xmm3, -96(%rbp)
 4799 1db1 0F2965B0 		movaps	%xmm4, -80(%rbp)
 4800 1db5 0F296DC0 		movaps	%xmm5, -64(%rbp)
 4801 1db9 0F2975D0 		movaps	%xmm6, -48(%rbp)
 4802 1dbd 0F297DE0 		movaps	%xmm7, -32(%rbp)
 4803              	.L288:
 4804              		.loc 4 186 0
 4805 1dc1 64488B04 		movq	%fs:40, %rax
 4805      25280000 
 4805      00
 4806 1dca 48898538 		movq	%rax, -200(%rbp)
 4806      FFFFFF
 4807 1dd1 31C0     		xorl	%eax, %eax
 187:testHexIO.cpp **** 	const char *const FILENAME = "tmpFile.hex";
 4808              		.loc 4 187 0
 4809 1dd3 48C78528 		movq	$.LC43, -984(%rbp)
 4809      FCFFFF00 
 4809      000000
 188:testHexIO.cpp **** 	Buffer data, mask, readbackData, readbackMask;
 189:testHexIO.cpp **** 	BufferStatus status;
 190:testHexIO.cpp **** 	va_list vl;
 191:testHexIO.cpp **** 	const char *line;
 192:testHexIO.cpp **** 	string expected;
 4810              		.loc 4 192 0
 4811 1dde 488D8510 		leaq	-752(%rbp), %rax
 4811      FDFFFF
 4812 1de5 4889C7   		movq	%rax, %rdi
 4813              	.LEHB204:
 4814 1de8 E8000000 		call	_ZNSt7__cxx1112basic_stringIcSt11char_traitsIcESaIcEEC1Ev
 4814      00
 4815              	.LEHE204:
 193:testHexIO.cpp **** 	uint8 recordType;
 194:testHexIO.cpp **** 	uint32 seg = 0x00000000;
 4816              		.loc 4 194 0
 4817 1ded C78518FC 		movl	$0, -1000(%rbp)
 4817      FFFF0000 
 4817      0000
 195:testHexIO.cpp **** 	status = bufInitialise(&data, 1024, 0x00, NULL);
 4818              		.loc 4 195 0
 4819 1df7 488D8540 		leaq	-960(%rbp), %rax
 4819      FCFFFF
 4820 1dfe B9000000 		movl	$0, %ecx
 4820      00
 4821 1e03 BA000000 		movl	$0, %edx
 4821      00
 4822 1e08 BE000400 		movl	$1024, %esi
 4822      00
 4823 1e0d 4889C7   		movq	%rax, %rdi
 4824              	.LEHB205:
 4825 1e10 E8000000 		call	bufInitialise
 4825      00
 4826              	.LEHE205:
 4827 1e15 898514FC 		movl	%eax, -1004(%rbp)
 4827      FFFF
 4828              	.LEHB206:
 196:testHexIO.cpp **** 	CHECK_EQUAL(BUF_SUCCESS, status);
 4829              		.loc 4 196 0
 4830 1e1b E8000000 		call	_ZN8UnitTest11CurrentTest7DetailsEv
 4830      00
 4831              		.loc 4 196 0 is_stmt 0 discriminator 1
 4832 1e20 488B08   		movq	(%rax), %rcx
 4833 1e23 488D85C0 		leaq	-832(%rbp), %rax
 4833      FCFFFF
 4834 1e2a BAC40000 		movl	$196, %edx
 4834      00
 4835 1e2f 4889CE   		movq	%rcx, %rsi
 4836 1e32 4889C7   		movq	%rax, %rdi
 4837 1e35 E8000000 		call	_ZN8UnitTest11TestDetailsC1ERKS0_i
 4837      00
 4838              	.LEHE206:
 4839              		.loc 4 196 0 discriminator 2
 4840 1e3a C785A0FC 		movl	$0, -864(%rbp)
 4840      FFFF0000 
 4840      0000
 4841              	.LEHB207:
 4842 1e44 E8000000 		call	_ZN8UnitTest11CurrentTest7ResultsEv
 4842      00
 4843 1e49 488B00   		movq	(%rax), %rax
 4844 1e4c 488D8DC0 		leaq	-832(%rbp), %rcx
 4844      FCFFFF
 4845 1e53 488D9514 		leaq	-1004(%rbp), %rdx
 4845      FCFFFF
 4846 1e5a 488DB5A0 		leaq	-864(%rbp), %rsi
 4846      FCFFFF
 4847 1e61 4889C7   		movq	%rax, %rdi
 4848 1e64 E8000000 		call	_ZN8UnitTest10CheckEqualI12BufferStatusS1_EEvRNS_11TestResultsERKT_RKT0_RKNS_11TestDetailsE
 4848      00
 4849              	.LEHE207:
 4850              	.L296:
 197:testHexIO.cpp **** 	status = bufInitialise(&mask, 1024, 0x00, NULL);
 4851              		.loc 4 197 0 is_stmt 1
 4852 1e69 488D8560 		leaq	-928(%rbp), %rax
 4852      FCFFFF
 4853 1e70 B9000000 		movl	$0, %ecx
 4853      00
 4854 1e75 BA000000 		movl	$0, %edx
 4854      00
 4855 1e7a BE000400 		movl	$1024, %esi
 4855      00
 4856 1e7f 4889C7   		movq	%rax, %rdi
 4857              	.LEHB208:
 4858 1e82 E8000000 		call	bufInitialise
 4858      00
 4859              	.LEHE208:
 4860 1e87 898514FC 		movl	%eax, -1004(%rbp)
 4860      FFFF
 4861              	.LEHB209:
 198:testHexIO.cpp **** 	CHECK_EQUAL(BUF_SUCCESS, status);
 4862              		.loc 4 198 0
 4863 1e8d E8000000 		call	_ZN8UnitTest11CurrentTest7DetailsEv
 4863      00
 4864              		.loc 4 198 0 is_stmt 0 discriminator 1
 4865 1e92 488B08   		movq	(%rax), %rcx
 4866 1e95 488D85C0 		leaq	-832(%rbp), %rax
 4866      FCFFFF
 4867 1e9c BAC60000 		movl	$198, %edx
 4867      00
 4868 1ea1 4889CE   		movq	%rcx, %rsi
 4869 1ea4 4889C7   		movq	%rax, %rdi
 4870 1ea7 E8000000 		call	_ZN8UnitTest11TestDetailsC1ERKS0_i
 4870      00
 4871              	.LEHE209:
 4872              		.loc 4 198 0 discriminator 2
 4873 1eac C785A0FC 		movl	$0, -864(%rbp)
 4873      FFFF0000 
 4873      0000
 4874              	.LEHB210:
 4875 1eb6 E8000000 		call	_ZN8UnitTest11CurrentTest7ResultsEv
 4875      00
 4876 1ebb 488B00   		movq	(%rax), %rax
 4877 1ebe 488D8DC0 		leaq	-832(%rbp), %rcx
 4877      FCFFFF
 4878 1ec5 488D9514 		leaq	-1004(%rbp), %rdx
 4878      FCFFFF
 4879 1ecc 488DB5A0 		leaq	-864(%rbp), %rsi
 4879      FCFFFF
 4880 1ed3 4889C7   		movq	%rax, %rdi
 4881 1ed6 E8000000 		call	_ZN8UnitTest10CheckEqualI12BufferStatusS1_EEvRNS_11TestResultsERKT_RKT0_RKNS_11TestDetailsE
 4881      00
 4882              	.LEHE210:
 4883              	.L301:
 199:testHexIO.cpp **** 	va_start(vl, firstLine);
 4884              		.loc 4 199 0 is_stmt 1
 4885 1edb C785F8FC 		movl	$8, -776(%rbp)
 4885      FFFF0800 
 4885      0000
 4886 1ee5 C785FCFC 		movl	$48, -772(%rbp)
 4886      FFFF3000 
 4886      0000
 4887 1eef 488D4510 		leaq	16(%rbp), %rax
 4888 1ef3 48898500 		movq	%rax, -768(%rbp)
 4888      FDFFFF
 4889 1efa 488D8540 		leaq	-192(%rbp), %rax
 4889      FFFFFF
 4890 1f01 48898508 		movq	%rax, -760(%rbp)
 4890      FDFFFF
 200:testHexIO.cpp **** 	line = firstLine;
 4891              		.loc 4 200 0
 4892 1f08 488B8508 		movq	-1016(%rbp), %rax
 4892      FCFFFF
 4893 1f0f 48898520 		movq	%rax, -992(%rbp)
 4893      FCFFFF
 4894              	.L292:
 201:testHexIO.cpp **** 	do {
 202:testHexIO.cpp **** 		status = bufProcessLine(line, 0, &data, &mask, &seg, &recordType, NULL);
 4895              		.loc 4 202 0
 4896 1f16 488DBD13 		leaq	-1005(%rbp), %rdi
 4896      FCFFFF
 4897 1f1d 488DB518 		leaq	-1000(%rbp), %rsi
 4897      FCFFFF
 4898 1f24 488D8D60 		leaq	-928(%rbp), %rcx
 4898      FCFFFF
 4899 1f2b 488D9540 		leaq	-960(%rbp), %rdx
 4899      FCFFFF
 4900 1f32 488B8520 		movq	-992(%rbp), %rax
 4900      FCFFFF
 4901 1f39 4883EC08 		subq	$8, %rsp
 4902 1f3d 6A00     		pushq	$0
 4903 1f3f 4989F9   		movq	%rdi, %r9
 4904 1f42 4989F0   		movq	%rsi, %r8
 4905 1f45 BE000000 		movl	$0, %esi
 4905      00
 4906 1f4a 4889C7   		movq	%rax, %rdi
 4907              	.LEHB211:
 4908              		.cfi_escape 0x2e,0x10
 4909 1f4d E8000000 		call	bufProcessLine
 4909      00
 4910              	.LEHE211:
 4911 1f52 4883C410 		addq	$16, %rsp
 4912 1f56 898514FC 		movl	%eax, -1004(%rbp)
 4912      FFFF
 4913              	.LEHB212:
 4914              		.cfi_escape 0x2e,0
 203:testHexIO.cpp **** 		CHECK_EQUAL(BUF_SUCCESS, status);
 4915              		.loc 4 203 0
 4916 1f5c E8000000 		call	_ZN8UnitTest11CurrentTest7DetailsEv
 4916      00
 4917              		.loc 4 203 0 is_stmt 0 discriminator 1
 4918 1f61 488B08   		movq	(%rax), %rcx
 4919 1f64 488D85C0 		leaq	-832(%rbp), %rax
 4919      FCFFFF
 4920 1f6b BACB0000 		movl	$203, %edx
 4920      00
 4921 1f70 4889CE   		movq	%rcx, %rsi
 4922 1f73 4889C7   		movq	%rax, %rdi
 4923 1f76 E8000000 		call	_ZN8UnitTest11TestDetailsC1ERKS0_i
 4923      00
 4924              	.LEHE212:
 4925              		.loc 4 203 0 discriminator 2
 4926 1f7b C785A0FC 		movl	$0, -864(%rbp)
 4926      FFFF0000 
 4926      0000
 4927              	.LEHB213:
 4928 1f85 E8000000 		call	_ZN8UnitTest11CurrentTest7ResultsEv
 4928      00
 4929 1f8a 488B00   		movq	(%rax), %rax
 4930 1f8d 488D8DC0 		leaq	-832(%rbp), %rcx
 4930      FCFFFF
 4931 1f94 488D9514 		leaq	-1004(%rbp), %rdx
 4931      FCFFFF
 4932 1f9b 488DB5A0 		leaq	-864(%rbp), %rsi
 4932      FCFFFF
 4933 1fa2 4889C7   		movq	%rax, %rdi
 4934 1fa5 E8000000 		call	_ZN8UnitTest10CheckEqualI12BufferStatusS1_EEvRNS_11TestResultsERKT_RKT0_RKNS_11TestDetailsE
 4934      00
 4935              	.LEHE213:
 4936              	.L305:
 204:testHexIO.cpp **** 		expected += line;
 4937              		.loc 4 204 0 is_stmt 1
 4938 1faa 488B9520 		movq	-992(%rbp), %rdx
 4938      FCFFFF
 4939 1fb1 488D8510 		leaq	-752(%rbp), %rax
 4939      FDFFFF
 4940 1fb8 4889D6   		movq	%rdx, %rsi
 4941 1fbb 4889C7   		movq	%rax, %rdi
 4942              	.LEHB214:
 4943 1fbe E8000000 		call	_ZNSt7__cxx1112basic_stringIcSt11char_traitsIcESaIcEEpLEPKc
 4943      00
 205:testHexIO.cpp **** 		expected += '\n';
 4944              		.loc 4 205 0
 4945 1fc3 488D8510 		leaq	-752(%rbp), %rax
 4945      FDFFFF
 4946 1fca BE0A0000 		movl	$10, %esi
 4946      00
 4947 1fcf 4889C7   		movq	%rax, %rdi
 4948 1fd2 E8000000 		call	_ZNSt7__cxx1112basic_stringIcSt11char_traitsIcESaIcEEpLEc
 4948      00
 206:testHexIO.cpp **** 		line = va_arg(vl, const char *);
 4949              		.loc 4 206 0
 4950 1fd7 8B85F8FC 		movl	-776(%rbp), %eax
 4950      FFFF
 4951 1fdd 83F830   		cmpl	$48, %eax
 4952 1fe0 7323     		jnb	.L289
 4953              		.loc 4 206 0 is_stmt 0 discriminator 2
 4954 1fe2 488B8508 		movq	-760(%rbp), %rax
 4954      FDFFFF
 4955 1fe9 8B95F8FC 		movl	-776(%rbp), %edx
 4955      FFFF
 4956 1fef 89D2     		movl	%edx, %edx
 4957 1ff1 4801D0   		addq	%rdx, %rax
 4958 1ff4 8B95F8FC 		movl	-776(%rbp), %edx
 4958      FFFF
 4959 1ffa 83C208   		addl	$8, %edx
 4960 1ffd 8995F8FC 		movl	%edx, -776(%rbp)
 4960      FFFF
 4961 2003 EB12     		jmp	.L290
 4962              	.L289:
 4963              		.loc 4 206 0 discriminator 1
 4964 2005 488B8500 		movq	-768(%rbp), %rax
 4964      FDFFFF
 4965 200c 488D5008 		leaq	8(%rax), %rdx
 4966 2010 48899500 		movq	%rdx, -768(%rbp)
 4966      FDFFFF
 4967              	.L290:
 4968              		.loc 4 206 0 discriminator 4
 4969 2017 488B00   		movq	(%rax), %rax
 4970 201a 48898520 		movq	%rax, -992(%rbp)
 4970      FCFFFF
 201:testHexIO.cpp **** 		status = bufProcessLine(line, 0, &data, &mask, &seg, &recordType, NULL);
 4971              		.loc 4 201 0 is_stmt 1 discriminator 4
 4972 2021 4883BD20 		cmpq	$0, -992(%rbp)
 4972      FCFFFF00 
 4973 2029 7405     		je	.L291
 201:testHexIO.cpp **** 		status = bufProcessLine(line, 0, &data, &mask, &seg, &recordType, NULL);
 4974              		.loc 4 201 0 is_stmt 0
 4975 202b E9E6FEFF 		jmp	.L292
 4975      FF
 4976              	.L291:
 207:testHexIO.cpp **** 	} while ( line );
 208:testHexIO.cpp **** 	expected += ":00000001FF\n";
 4977              		.loc 4 208 0 is_stmt 1
 4978 2030 488D8510 		leaq	-752(%rbp), %rax
 4978      FDFFFF
 4979 2037 BE000000 		movl	$.LC12, %esi
 4979      00
 4980 203c 4889C7   		movq	%rax, %rdi
 4981 203f E8000000 		call	_ZNSt7__cxx1112basic_stringIcSt11char_traitsIcESaIcEEpLEPKc
 4981      00
 209:testHexIO.cpp **** 	va_end(vl);
 210:testHexIO.cpp **** 	status = bufWriteToIntelHexFile(&data, &mask, FILENAME, 16, false, NULL);
 4982              		.loc 4 210 0
 4983 2044 488B9528 		movq	-984(%rbp), %rdx
 4983      FCFFFF
 4984 204b 488DB560 		leaq	-928(%rbp), %rsi
 4984      FCFFFF
 4985 2052 488D8540 		leaq	-960(%rbp), %rax
 4985      FCFFFF
 4986 2059 41B90000 		movl	$0, %r9d
 4986      0000
 4987 205f 41B80000 		movl	$0, %r8d
 4987      0000
 4988 2065 B9100000 		movl	$16, %ecx
 4988      00
 4989 206a 4889C7   		movq	%rax, %rdi
 4990 206d E8000000 		call	bufWriteToIntelHexFile
 4990      00
 4991              	.LEHE214:
 4992 2072 898514FC 		movl	%eax, -1004(%rbp)
 4992      FFFF
 4993              	.LEHB215:
 211:testHexIO.cpp **** 	CHECK_EQUAL(BUF_SUCCESS, status);
 4994              		.loc 4 211 0
 4995 2078 E8000000 		call	_ZN8UnitTest11CurrentTest7DetailsEv
 4995      00
 4996              		.loc 4 211 0 is_stmt 0 discriminator 1
 4997 207d 488B08   		movq	(%rax), %rcx
 4998 2080 488D85C0 		leaq	-832(%rbp), %rax
 4998      FCFFFF
 4999 2087 BAD30000 		movl	$211, %edx
 4999      00
 5000 208c 4889CE   		movq	%rcx, %rsi
 5001 208f 4889C7   		movq	%rax, %rdi
 5002 2092 E8000000 		call	_ZN8UnitTest11TestDetailsC1ERKS0_i
 5002      00
 5003              	.LEHE215:
 5004              		.loc 4 211 0 discriminator 2
 5005 2097 C785A0FC 		movl	$0, -864(%rbp)
 5005      FFFF0000 
 5005      0000
 5006              	.LEHB216:
 5007 20a1 E8000000 		call	_ZN8UnitTest11CurrentTest7ResultsEv
 5007      00
 5008 20a6 488B00   		movq	(%rax), %rax
 5009 20a9 488D8DC0 		leaq	-832(%rbp), %rcx
 5009      FCFFFF
 5010 20b0 488D9514 		leaq	-1004(%rbp), %rdx
 5010      FCFFFF
 5011 20b7 488DB5A0 		leaq	-864(%rbp), %rsi
 5011      FCFFFF
 5012 20be 4889C7   		movq	%rax, %rdi
 5013 20c1 E8000000 		call	_ZN8UnitTest10CheckEqualI12BufferStatusS1_EEvRNS_11TestResultsERKT_RKT0_RKNS_11TestDetailsE
 5013      00
 5014              	.LEHE216:
 5015              	.L309:
 212:testHexIO.cpp **** 
 213:testHexIO.cpp **** 	ifstream file;
 5016              		.loc 4 213 0 is_stmt 1
 5017 20c6 488D8530 		leaq	-720(%rbp), %rax
 5017      FDFFFF
 5018 20cd 4889C7   		movq	%rax, %rdi
 5019              	.LEHB217:
 5020 20d0 E8000000 		call	_ZNSt14basic_ifstreamIcSt11char_traitsIcEEC1Ev
 5020      00
 5021              	.LEHE217:
 214:testHexIO.cpp **** 	streamoff length;
 215:testHexIO.cpp **** 	file.open(FILENAME, ios::in|ios::ate);
 5022              		.loc 4 215 0
 5023 20d5 BE020000 		movl	$2, %esi
 5023      00
 5024 20da BF080000 		movl	$8, %edi
 5024      00
 5025 20df E8000000 		call	_ZStorSt13_Ios_OpenmodeS_
 5025      00
 5026 20e4 89C2     		movl	%eax, %edx
 5027 20e6 488B8D28 		movq	-984(%rbp), %rcx
 5027      FCFFFF
 5028 20ed 488D8530 		leaq	-720(%rbp), %rax
 5028      FDFFFF
 5029 20f4 4889CE   		movq	%rcx, %rsi
 5030 20f7 4889C7   		movq	%rax, %rdi
 5031              	.LEHB218:
 5032 20fa E8000000 		call	_ZNSt14basic_ifstreamIcSt11char_traitsIcEE4openEPKcSt13_Ios_Openmode
 5032      00
 5033              	.LEHE218:
 216:testHexIO.cpp **** 	CHECK(file.is_open());
 5034              		.loc 4 216 0
 5035 20ff 488D8530 		leaq	-720(%rbp), %rax
 5035      FDFFFF
 5036 2106 4889C7   		movq	%rax, %rdi
 5037              	.LEHB219:
 5038 2109 E8000000 		call	_ZNSt14basic_ifstreamIcSt11char_traitsIcEE7is_openEv
 5038      00
 5039 210e 0FB6C0   		movzbl	%al, %eax
 5040 2111 89C7     		movl	%eax, %edi
 5041 2113 E8000000 		call	_ZN8UnitTest5CheckIbEEbT_
 5041      00
 5042 2118 83F001   		xorl	$1, %eax
 5043 211b 84C0     		testb	%al, %al
 5044 211d 743E     		je	.L293
 5045              		.loc 4 216 0 is_stmt 0 discriminator 2
 5046 211f E8000000 		call	_ZN8UnitTest11CurrentTest7DetailsEv
 5046      00
 5047 2124 488B08   		movq	(%rax), %rcx
 5048 2127 488D85C0 		leaq	-832(%rbp), %rax
 5048      FCFFFF
 5049 212e BAD80000 		movl	$216, %edx
 5049      00
 5050 2133 4889CE   		movq	%rcx, %rsi
 5051 2136 4889C7   		movq	%rax, %rdi
 5052 2139 E8000000 		call	_ZN8UnitTest11TestDetailsC1ERKS0_i
 5052      00
 5053              		.loc 4 216 0 discriminator 4
 5054 213e E8000000 		call	_ZN8UnitTest11CurrentTest7ResultsEv
 5054      00
 5055 2143 488B00   		movq	(%rax), %rax
 5056 2146 488D8DC0 		leaq	-832(%rbp), %rcx
 5056      FCFFFF
 5057 214d BA000000 		movl	$.LC44, %edx
 5057      00
 5058 2152 4889CE   		movq	%rcx, %rsi
 5059 2155 4889C7   		movq	%rax, %rdi
 5060 2158 E8000000 		call	_ZN8UnitTest11TestResults13OnTestFailureERKNS_11TestDetailsEPKc
 5060      00
 5061              	.LEHE219:
 5062              	.L293:
 217:testHexIO.cpp **** 	length = file.tellg();
 5063              		.loc 4 217 0 is_stmt 1
 5064 215d 488D8530 		leaq	-720(%rbp), %rax
 5064      FDFFFF
 5065 2164 4889C7   		movq	%rax, %rdi
 5066              	.LEHB220:
 5067 2167 E8000000 		call	_ZNSi5tellgEv
 5067      00
 5068              	.LEHE220:
 5069 216c 488985E0 		movq	%rax, -800(%rbp)
 5069      FCFFFF
 5070 2173 488995E8 		movq	%rdx, -792(%rbp)
 5070      FCFFFF
 5071 217a 488D85E0 		leaq	-800(%rbp), %rax
 5071      FCFFFF
 5072 2181 4889C7   		movq	%rax, %rdi
 5073 2184 E8000000 		call	_ZNKSt4fposI11__mbstate_tEcvlEv
 5073      00
 5074 2189 48898530 		movq	%rax, -976(%rbp)
 5074      FCFFFF
 5075              	.LEHB221:
 218:testHexIO.cpp **** 	CHECK_EQUAL(expected.size(), (unsigned int)length);
 5076              		.loc 4 218 0
 5077 2190 E8000000 		call	_ZN8UnitTest11CurrentTest7DetailsEv
 5077      00
 5078              		.loc 4 218 0 is_stmt 0 discriminator 1
 5079 2195 488B08   		movq	(%rax), %rcx
 5080 2198 488D85C0 		leaq	-832(%rbp), %rax
 5080      FCFFFF
 5081 219f BADA0000 		movl	$218, %edx
 5081      00
 5082 21a4 4889CE   		movq	%rcx, %rsi
 5083 21a7 4889C7   		movq	%rax, %rdi
 5084 21aa E8000000 		call	_ZN8UnitTest11TestDetailsC1ERKS0_i
 5084      00
 5085              	.LEHE221:
 5086              		.loc 4 218 0 discriminator 2
 5087 21af 488B8530 		movq	-976(%rbp), %rax
 5087      FCFFFF
 5088 21b6 898580FC 		movl	%eax, -896(%rbp)
 5088      FFFF
 5089 21bc 488D8510 		leaq	-752(%rbp), %rax
 5089      FDFFFF
 5090 21c3 4889C7   		movq	%rax, %rdi
 5091              	.LEHB222:
 5092 21c6 E8000000 		call	_ZNKSt7__cxx1112basic_stringIcSt11char_traitsIcESaIcEE4sizeEv
 5092      00
 5093 21cb 488985A0 		movq	%rax, -864(%rbp)
 5093      FCFFFF
 5094 21d2 E8000000 		call	_ZN8UnitTest11CurrentTest7ResultsEv
 5094      00
 5095              		.loc 4 218 0 discriminator 4
 5096 21d7 488B00   		movq	(%rax), %rax
 5097 21da 488D8DC0 		leaq	-832(%rbp), %rcx
 5097      FCFFFF
 5098 21e1 488D9580 		leaq	-896(%rbp), %rdx
 5098      FCFFFF
 5099 21e8 488DB5A0 		leaq	-864(%rbp), %rsi
 5099      FCFFFF
 5100 21ef 4889C7   		movq	%rax, %rdi
 5101 21f2 E8000000 		call	_ZN8UnitTest10CheckEqualImjEEvRNS_11TestResultsERKT_RKT0_RKNS_11TestDetailsE
 5101      00
 5102              	.LEHE222:
 5103              	.L316:
 219:testHexIO.cpp **** 	char *fileData = new char[(unsigned int)length];
 5104              		.loc 4 219 0 is_stmt 1
 5105 21f7 488B8530 		movq	-976(%rbp), %rax
 5105      FCFFFF
 5106 21fe 89C0     		movl	%eax, %eax
 5107 2200 4889C7   		movq	%rax, %rdi
 5108              	.LEHB223:
 5109 2203 E8000000 		call	_Znam
 5109      00
 5110 2208 48898538 		movq	%rax, -968(%rbp)
 5110      FCFFFF
 220:testHexIO.cpp **** 	file.seekg(0, ios::beg);
 5111              		.loc 4 220 0
 5112 220f 488D8530 		leaq	-720(%rbp), %rax
 5112      FDFFFF
 5113 2216 BA000000 		movl	$0, %edx
 5113      00
 5114 221b BE000000 		movl	$0, %esi
 5114      00
 5115 2220 4889C7   		movq	%rax, %rdi
 5116 2223 E8000000 		call	_ZNSi5seekgElSt12_Ios_Seekdir
 5116      00
 221:testHexIO.cpp **** 	file.read(fileData, (streamsize)length);
 5117              		.loc 4 221 0
 5118 2228 488B9530 		movq	-976(%rbp), %rdx
 5118      FCFFFF
 5119 222f 488B8D38 		movq	-968(%rbp), %rcx
 5119      FCFFFF
 5120 2236 488D8530 		leaq	-720(%rbp), %rax
 5120      FDFFFF
 5121 223d 4889CE   		movq	%rcx, %rsi
 5122 2240 4889C7   		movq	%rax, %rdi
 5123 2243 E8000000 		call	_ZNSi4readEPcl
 5123      00
 222:testHexIO.cpp **** 	file.close();
 5124              		.loc 4 222 0
 5125 2248 488D8530 		leaq	-720(%rbp), %rax
 5125      FDFFFF
 5126 224f 4889C7   		movq	%rax, %rdi
 5127 2252 E8000000 		call	_ZNSt14basic_ifstreamIcSt11char_traitsIcEE5closeEv
 5127      00
 5128              	.LEHE223:
 5129              	.LEHB224:
 223:testHexIO.cpp **** 	CHECK_ARRAY_EQUAL(expected.c_str(), (const char *)fileData, (int)length);
 5130              		.loc 4 223 0
 5131 2257 E8000000 		call	_ZN8UnitTest11CurrentTest7DetailsEv
 5131      00
 5132 225c 488B08   		movq	(%rax), %rcx
 5133 225f 488D85C0 		leaq	-832(%rbp), %rax
 5133      FCFFFF
 5134 2266 BADF0000 		movl	$223, %edx
 5134      00
 5135 226b 4889CE   		movq	%rcx, %rsi
 5136 226e 4889C7   		movq	%rax, %rdi
 5137 2271 E8000000 		call	_ZN8UnitTest11TestDetailsC1ERKS0_i
 5137      00
 5138              	.LEHE224:
 5139              		.loc 4 223 0 is_stmt 0 discriminator 2
 5140 2276 488B8530 		movq	-976(%rbp), %rax
 5140      FCFFFF
 5141 227d 89C3     		movl	%eax, %ebx
 5142 227f 488B8538 		movq	-968(%rbp), %rax
 5142      FCFFFF
 5143 2286 488985A0 		movq	%rax, -864(%rbp)
 5143      FCFFFF
 5144 228d 488D8510 		leaq	-752(%rbp), %rax
 5144      FDFFFF
 5145 2294 4889C7   		movq	%rax, %rdi
 5146              	.LEHB225:
 5147 2297 E8000000 		call	_ZNKSt7__cxx1112basic_stringIcSt11char_traitsIcESaIcEE5c_strEv
 5147      00
 5148 229c 48898580 		movq	%rax, -896(%rbp)
 5148      FCFFFF
 5149 22a3 E8000000 		call	_ZN8UnitTest11CurrentTest7ResultsEv
 5149      00
 5150              		.loc 4 223 0 discriminator 4
 5151 22a8 488B00   		movq	(%rax), %rax
 5152 22ab 488D8DC0 		leaq	-832(%rbp), %rcx
 5152      FCFFFF
 5153 22b2 488D95A0 		leaq	-864(%rbp), %rdx
 5153      FCFFFF
 5154 22b9 488DB580 		leaq	-896(%rbp), %rsi
 5154      FCFFFF
 5155 22c0 4989C8   		movq	%rcx, %r8
 5156 22c3 89D9     		movl	%ebx, %ecx
 5157 22c5 4889C7   		movq	%rax, %rdi
 5158 22c8 E8000000 		call	_ZN8UnitTest15CheckArrayEqualIPKcS2_EEvRNS_11TestResultsERKT_RKT0_iRKNS_11TestDetailsE
 5158      00
 5159              	.LEHE225:
 5160              	.L320:
 224:testHexIO.cpp **** 
 225:testHexIO.cpp **** 	status = bufInitialise(&readbackData, 1024, 0x00, NULL);
 5161              		.loc 4 225 0 is_stmt 1
 5162 22cd 488D8580 		leaq	-896(%rbp), %rax
 5162      FCFFFF
 5163 22d4 B9000000 		movl	$0, %ecx
 5163      00
 5164 22d9 BA000000 		movl	$0, %edx
 5164      00
 5165 22de BE000400 		movl	$1024, %esi
 5165      00
 5166 22e3 4889C7   		movq	%rax, %rdi
 5167              	.LEHB226:
 5168 22e6 E8000000 		call	bufInitialise
 5168      00
 5169              	.LEHE226:
 5170 22eb 898514FC 		movl	%eax, -1004(%rbp)
 5170      FFFF
 5171              	.LEHB227:
 226:testHexIO.cpp **** 	CHECK_EQUAL(BUF_SUCCESS, status);
 5172              		.loc 4 226 0
 5173 22f1 E8000000 		call	_ZN8UnitTest11CurrentTest7DetailsEv
 5173      00
 5174              		.loc 4 226 0 is_stmt 0 discriminator 1
 5175 22f6 488B08   		movq	(%rax), %rcx
 5176 22f9 488D85C0 		leaq	-832(%rbp), %rax
 5176      FCFFFF
 5177 2300 BAE20000 		movl	$226, %edx
 5177      00
 5178 2305 4889CE   		movq	%rcx, %rsi
 5179 2308 4889C7   		movq	%rax, %rdi
 5180 230b E8000000 		call	_ZN8UnitTest11TestDetailsC1ERKS0_i
 5180      00
 5181              	.LEHE227:
 5182              		.loc 4 226 0 discriminator 2
 5183 2310 C785A0FC 		movl	$0, -864(%rbp)
 5183      FFFF0000 
 5183      0000
 5184              	.LEHB228:
 5185 231a E8000000 		call	_ZN8UnitTest11CurrentTest7ResultsEv
 5185      00
 5186 231f 488B00   		movq	(%rax), %rax
 5187 2322 488D8DC0 		leaq	-832(%rbp), %rcx
 5187      FCFFFF
 5188 2329 488D9514 		leaq	-1004(%rbp), %rdx
 5188      FCFFFF
 5189 2330 488DB5A0 		leaq	-864(%rbp), %rsi
 5189      FCFFFF
 5190 2337 4889C7   		movq	%rax, %rdi
 5191 233a E8000000 		call	_ZN8UnitTest10CheckEqualI12BufferStatusS1_EEvRNS_11TestResultsERKT_RKT0_RKNS_11TestDetailsE
 5191      00
 5192              	.LEHE228:
 5193              	.L324:
 227:testHexIO.cpp **** 	status = bufInitialise(&readbackMask, 1024, 0x00, NULL);
 5194              		.loc 4 227 0 is_stmt 1
 5195 233f 488D85A0 		leaq	-864(%rbp), %rax
 5195      FCFFFF
 5196 2346 B9000000 		movl	$0, %ecx
 5196      00
 5197 234b BA000000 		movl	$0, %edx
 5197      00
 5198 2350 BE000400 		movl	$1024, %esi
 5198      00
 5199 2355 4889C7   		movq	%rax, %rdi
 5200              	.LEHB229:
 5201 2358 E8000000 		call	bufInitialise
 5201      00
 5202              	.LEHE229:
 5203 235d 898514FC 		movl	%eax, -1004(%rbp)
 5203      FFFF
 5204              	.LEHB230:
 228:testHexIO.cpp **** 	CHECK_EQUAL(BUF_SUCCESS, status);
 5205              		.loc 4 228 0
 5206 2363 E8000000 		call	_ZN8UnitTest11CurrentTest7DetailsEv
 5206      00
 5207              		.loc 4 228 0 is_stmt 0 discriminator 1
 5208 2368 488B08   		movq	(%rax), %rcx
 5209 236b 488D85C0 		leaq	-832(%rbp), %rax
 5209      FCFFFF
 5210 2372 BAE40000 		movl	$228, %edx
 5210      00
 5211 2377 4889CE   		movq	%rcx, %rsi
 5212 237a 4889C7   		movq	%rax, %rdi
 5213 237d E8000000 		call	_ZN8UnitTest11TestDetailsC1ERKS0_i
 5213      00
 5214              	.LEHE230:
 5215              		.loc 4 228 0 discriminator 2
 5216 2382 C7851CFC 		movl	$0, -996(%rbp)
 5216      FFFF0000 
 5216      0000
 5217              	.LEHB231:
 5218 238c E8000000 		call	_ZN8UnitTest11CurrentTest7ResultsEv
 5218      00
 5219 2391 488B00   		movq	(%rax), %rax
 5220 2394 488D8DC0 		leaq	-832(%rbp), %rcx
 5220      FCFFFF
 5221 239b 488D9514 		leaq	-1004(%rbp), %rdx
 5221      FCFFFF
 5222 23a2 488DB51C 		leaq	-996(%rbp), %rsi
 5222      FCFFFF
 5223 23a9 4889C7   		movq	%rax, %rdi
 5224 23ac E8000000 		call	_ZN8UnitTest10CheckEqualI12BufferStatusS1_EEvRNS_11TestResultsERKT_RKT0_RKNS_11TestDetailsE
 5224      00
 5225              	.LEHE231:
 5226              	.L328:
 229:testHexIO.cpp **** 	status = bufReadFromIntelHexFile(&readbackData, &readbackMask, FILENAME, NULL);
 5227              		.loc 4 229 0 is_stmt 1
 5228 23b1 488B9528 		movq	-984(%rbp), %rdx
 5228      FCFFFF
 5229 23b8 488DB5A0 		leaq	-864(%rbp), %rsi
 5229      FCFFFF
 5230 23bf 488D8580 		leaq	-896(%rbp), %rax
 5230      FCFFFF
 5231 23c6 B9000000 		movl	$0, %ecx
 5231      00
 5232 23cb 4889C7   		movq	%rax, %rdi
 5233              	.LEHB232:
 5234 23ce E8000000 		call	bufReadFromIntelHexFile
 5234      00
 5235              	.LEHE232:
 5236 23d3 898514FC 		movl	%eax, -1004(%rbp)
 5236      FFFF
 5237              	.LEHB233:
 230:testHexIO.cpp **** 	CHECK_EQUAL(BUF_SUCCESS, status);
 5238              		.loc 4 230 0
 5239 23d9 E8000000 		call	_ZN8UnitTest11CurrentTest7DetailsEv
 5239      00
 5240              		.loc 4 230 0 is_stmt 0 discriminator 1
 5241 23de 488B08   		movq	(%rax), %rcx
 5242 23e1 488D85C0 		leaq	-832(%rbp), %rax
 5242      FCFFFF
 5243 23e8 BAE60000 		movl	$230, %edx
 5243      00
 5244 23ed 4889CE   		movq	%rcx, %rsi
 5245 23f0 4889C7   		movq	%rax, %rdi
 5246 23f3 E8000000 		call	_ZN8UnitTest11TestDetailsC1ERKS0_i
 5246      00
 5247              	.LEHE233:
 5248              		.loc 4 230 0 discriminator 2
 5249 23f8 C7851CFC 		movl	$0, -996(%rbp)
 5249      FFFF0000 
 5249      0000
 5250              	.LEHB234:
 5251 2402 E8000000 		call	_ZN8UnitTest11CurrentTest7ResultsEv
 5251      00
 5252 2407 488B00   		movq	(%rax), %rax
 5253 240a 488D8DC0 		leaq	-832(%rbp), %rcx
 5253      FCFFFF
 5254 2411 488D9514 		leaq	-1004(%rbp), %rdx
 5254      FCFFFF
 5255 2418 488DB51C 		leaq	-996(%rbp), %rsi
 5255      FCFFFF
 5256 241f 4889C7   		movq	%rax, %rdi
 5257 2422 E8000000 		call	_ZN8UnitTest10CheckEqualI12BufferStatusS1_EEvRNS_11TestResultsERKT_RKT0_RKNS_11TestDetailsE
 5257      00
 5258              	.LEHE234:
 5259              	.L332:
 5260              	.LEHB235:
 231:testHexIO.cpp **** 	CHECK_EQUAL(data.length, readbackData.length);
 5261              		.loc 4 231 0 is_stmt 1
 5262 2427 E8000000 		call	_ZN8UnitTest11CurrentTest7DetailsEv
 5262      00
 5263 242c 488B08   		movq	(%rax), %rcx
 5264 242f 488D85C0 		leaq	-832(%rbp), %rax
 5264      FCFFFF
 5265 2436 BAE70000 		movl	$231, %edx
 5265      00
 5266 243b 4889CE   		movq	%rcx, %rsi
 5267 243e 4889C7   		movq	%rax, %rdi
 5268 2441 E8000000 		call	_ZN8UnitTest11TestDetailsC1ERKS0_i
 5268      00
 5269              		.loc 4 231 0 is_stmt 0 discriminator 2
 5270 2446 E8000000 		call	_ZN8UnitTest11CurrentTest7ResultsEv
 5270      00
 5271 244b 488B00   		movq	(%rax), %rax
 5272 244e 488D95C0 		leaq	-832(%rbp), %rdx
 5272      FCFFFF
 5273 2455 488D8D80 		leaq	-896(%rbp), %rcx
 5273      FCFFFF
 5274 245c 488D7908 		leaq	8(%rcx), %rdi
 5275 2460 488D8D40 		leaq	-960(%rbp), %rcx
 5275      FCFFFF
 5276 2467 488D7108 		leaq	8(%rcx), %rsi
 5277 246b 4889D1   		movq	%rdx, %rcx
 5278 246e 4889FA   		movq	%rdi, %rdx
 5279 2471 4889C7   		movq	%rax, %rdi
 5280 2474 E8000000 		call	_ZN8UnitTest10CheckEqualImmEEvRNS_11TestResultsERKT_RKT0_RKNS_11TestDetailsE
 5280      00
 5281              	.LEHE235:
 5282              	.L335:
 5283              	.LEHB236:
 232:testHexIO.cpp **** 	CHECK_ARRAY_EQUAL(data.data, readbackData.data, (int)data.length);
 5284              		.loc 4 232 0 is_stmt 1
 5285 2479 E8000000 		call	_ZN8UnitTest11CurrentTest7DetailsEv
 5285      00
 5286 247e 488B08   		movq	(%rax), %rcx
 5287 2481 488D85C0 		leaq	-832(%rbp), %rax
 5287      FCFFFF
 5288 2488 BAE80000 		movl	$232, %edx
 5288      00
 5289 248d 4889CE   		movq	%rcx, %rsi
 5290 2490 4889C7   		movq	%rax, %rdi
 5291 2493 E8000000 		call	_ZN8UnitTest11TestDetailsC1ERKS0_i
 5291      00
 5292              		.loc 4 232 0 is_stmt 0 discriminator 2
 5293 2498 488B8548 		movq	-952(%rbp), %rax
 5293      FCFFFF
 5294 249f 89C3     		movl	%eax, %ebx
 5295 24a1 E8000000 		call	_ZN8UnitTest11CurrentTest7ResultsEv
 5295      00
 5296 24a6 488B00   		movq	(%rax), %rax
 5297 24a9 488D8DC0 		leaq	-832(%rbp), %rcx
 5297      FCFFFF
 5298 24b0 488D9580 		leaq	-896(%rbp), %rdx
 5298      FCFFFF
 5299 24b7 488DB540 		leaq	-960(%rbp), %rsi
 5299      FCFFFF
 5300 24be 4989C8   		movq	%rcx, %r8
 5301 24c1 89D9     		movl	%ebx, %ecx
 5302 24c3 4889C7   		movq	%rax, %rdi
 5303 24c6 E8000000 		call	_ZN8UnitTest15CheckArrayEqualIPhS1_EEvRNS_11TestResultsERKT_RKT0_iRKNS_11TestDetailsE
 5303      00
 5304              	.LEHE236:
 5305              	.L338:
 5306              	.LEHB237:
 233:testHexIO.cpp **** 	CHECK_EQUAL(mask.length, readbackMask.length);
 5307              		.loc 4 233 0 is_stmt 1
 5308 24cb E8000000 		call	_ZN8UnitTest11CurrentTest7DetailsEv
 5308      00
 5309 24d0 488B08   		movq	(%rax), %rcx
 5310 24d3 488D85C0 		leaq	-832(%rbp), %rax
 5310      FCFFFF
 5311 24da BAE90000 		movl	$233, %edx
 5311      00
 5312 24df 4889CE   		movq	%rcx, %rsi
 5313 24e2 4889C7   		movq	%rax, %rdi
 5314 24e5 E8000000 		call	_ZN8UnitTest11TestDetailsC1ERKS0_i
 5314      00
 5315              		.loc 4 233 0 is_stmt 0 discriminator 2
 5316 24ea E8000000 		call	_ZN8UnitTest11CurrentTest7ResultsEv
 5316      00
 5317 24ef 488B00   		movq	(%rax), %rax
 5318 24f2 488D95C0 		leaq	-832(%rbp), %rdx
 5318      FCFFFF
 5319 24f9 488D8DA0 		leaq	-864(%rbp), %rcx
 5319      FCFFFF
 5320 2500 488D7908 		leaq	8(%rcx), %rdi
 5321 2504 488D8D60 		leaq	-928(%rbp), %rcx
 5321      FCFFFF
 5322 250b 488D7108 		leaq	8(%rcx), %rsi
 5323 250f 4889D1   		movq	%rdx, %rcx
 5324 2512 4889FA   		movq	%rdi, %rdx
 5325 2515 4889C7   		movq	%rax, %rdi
 5326 2518 E8000000 		call	_ZN8UnitTest10CheckEqualImmEEvRNS_11TestResultsERKT_RKT0_RKNS_11TestDetailsE
 5326      00
 5327              	.LEHE237:
 5328              	.L341:
 5329              	.LEHB238:
 234:testHexIO.cpp **** 	CHECK_ARRAY_EQUAL(mask.data, readbackMask.data, (int)mask.length);
 5330              		.loc 4 234 0 is_stmt 1
 5331 251d E8000000 		call	_ZN8UnitTest11CurrentTest7DetailsEv
 5331      00
 5332 2522 488B08   		movq	(%rax), %rcx
 5333 2525 488D85C0 		leaq	-832(%rbp), %rax
 5333      FCFFFF
 5334 252c BAEA0000 		movl	$234, %edx
 5334      00
 5335 2531 4889CE   		movq	%rcx, %rsi
 5336 2534 4889C7   		movq	%rax, %rdi
 5337 2537 E8000000 		call	_ZN8UnitTest11TestDetailsC1ERKS0_i
 5337      00
 5338              		.loc 4 234 0 is_stmt 0 discriminator 2
 5339 253c 488B8568 		movq	-920(%rbp), %rax
 5339      FCFFFF
 5340 2543 89C3     		movl	%eax, %ebx
 5341 2545 E8000000 		call	_ZN8UnitTest11CurrentTest7ResultsEv
 5341      00
 5342 254a 488B00   		movq	(%rax), %rax
 5343 254d 488D8DC0 		leaq	-832(%rbp), %rcx
 5343      FCFFFF
 5344 2554 488D95A0 		leaq	-864(%rbp), %rdx
 5344      FCFFFF
 5345 255b 488DB560 		leaq	-928(%rbp), %rsi
 5345      FCFFFF
 5346 2562 4989C8   		movq	%rcx, %r8
 5347 2565 89D9     		movl	%ebx, %ecx
 5348 2567 4889C7   		movq	%rax, %rdi
 5349 256a E8000000 		call	_ZN8UnitTest15CheckArrayEqualIPhS1_EEvRNS_11TestResultsERKT_RKT0_iRKNS_11TestDetailsE
 5349      00
 5350              	.LEHE238:
 5351              	.L344:
 235:testHexIO.cpp **** 	
 236:testHexIO.cpp **** 	bufDestroy(&readbackMask);
 5352              		.loc 4 236 0 is_stmt 1
 5353 256f 488D85A0 		leaq	-864(%rbp), %rax
 5353      FCFFFF
 5354 2576 4889C7   		movq	%rax, %rdi
 5355              	.LEHB239:
 5356 2579 E8000000 		call	bufDestroy
 5356      00
 237:testHexIO.cpp **** 	bufDestroy(&readbackData);
 5357              		.loc 4 237 0
 5358 257e 488D8580 		leaq	-896(%rbp), %rax
 5358      FCFFFF
 5359 2585 4889C7   		movq	%rax, %rdi
 5360 2588 E8000000 		call	bufDestroy
 5360      00
 238:testHexIO.cpp **** 	bufDestroy(&mask);
 5361              		.loc 4 238 0
 5362 258d 488D8560 		leaq	-928(%rbp), %rax
 5362      FCFFFF
 5363 2594 4889C7   		movq	%rax, %rdi
 5364 2597 E8000000 		call	bufDestroy
 5364      00
 239:testHexIO.cpp **** 	bufDestroy(&data);
 5365              		.loc 4 239 0
 5366 259c 488D8540 		leaq	-960(%rbp), %rax
 5366      FCFFFF
 5367 25a3 4889C7   		movq	%rax, %rdi
 5368 25a6 E8000000 		call	bufDestroy
 5368      00
 5369              	.LEHE239:
 213:testHexIO.cpp **** 	streamoff length;
 5370              		.loc 4 213 0
 5371 25ab 488D8530 		leaq	-720(%rbp), %rax
 5371      FDFFFF
 5372 25b2 4889C7   		movq	%rax, %rdi
 5373              	.LEHB240:
 5374 25b5 E8000000 		call	_ZNSt14basic_ifstreamIcSt11char_traitsIcEED1Ev
 5374      00
 5375              	.LEHE240:
 192:testHexIO.cpp **** 	uint8 recordType;
 5376              		.loc 4 192 0
 5377 25ba 488D8510 		leaq	-752(%rbp), %rax
 5377      FDFFFF
 5378 25c1 4889C7   		movq	%rax, %rdi
 5379              	.LEHB241:
 5380 25c4 E8000000 		call	_ZNSt7__cxx1112basic_stringIcSt11char_traitsIcESaIcEED1Ev
 5380      00
 5381              	.LEHE241:
 240:testHexIO.cpp **** }
 5382              		.loc 4 240 0
 5383 25c9 90       		nop
 5384 25ca 488B8538 		movq	-200(%rbp), %rax
 5384      FFFFFF
 5385 25d1 64483304 		xorq	%fs:40, %rax
 5385      25280000 
 5385      00
 5386 25da 0F845D05 		je	.L346
 5386      0000
 5387 25e0 E9530500 		jmp	.L386
 5387      00
 5388              	.L349:
 5389 25e5 EB00     		jmp	.L295
 5390              	.L348:
 5391              	.L295:
 196:testHexIO.cpp **** 	status = bufInitialise(&mask, 1024, 0x00, NULL);
 5392              		.loc 4 196 0
 5393 25e7 4889C7   		movq	%rax, %rdi
 5394 25ea E8000000 		call	__cxa_begin_catch
 5394      00
 5395              	.LEHB242:
 5396 25ef E8000000 		call	_ZN8UnitTest11CurrentTest7DetailsEv
 5396      00
 5397 25f4 488B08   		movq	(%rax), %rcx
 5398 25f7 488D85C0 		leaq	-832(%rbp), %rax
 5398      FCFFFF
 5399 25fe BAC40000 		movl	$196, %edx
 5399      00
 5400 2603 4889CE   		movq	%rcx, %rsi
 5401 2606 4889C7   		movq	%rax, %rdi
 5402 2609 E8000000 		call	_ZN8UnitTest11TestDetailsC1ERKS0_i
 5402      00
 196:testHexIO.cpp **** 	status = bufInitialise(&mask, 1024, 0x00, NULL);
 5403              		.loc 4 196 0 is_stmt 0 discriminator 10
 5404 260e E8000000 		call	_ZN8UnitTest11CurrentTest7ResultsEv
 5404      00
 5405 2613 488B00   		movq	(%rax), %rax
 5406 2616 488D8DC0 		leaq	-832(%rbp), %rcx
 5406      FCFFFF
 5407 261d BA000000 		movl	$.LC4, %edx
 5407      00
 5408 2622 4889CE   		movq	%rcx, %rsi
 5409 2625 4889C7   		movq	%rax, %rdi
 5410 2628 E8000000 		call	_ZN8UnitTest11TestResults13OnTestFailureERKNS_11TestDetailsEPKc
 5410      00
 5411              	.LEHE242:
 5412              	.LEHB243:
 196:testHexIO.cpp **** 	status = bufInitialise(&mask, 1024, 0x00, NULL);
 5413              		.loc 4 196 0 discriminator 14
 5414 262d E8000000 		call	__cxa_end_catch
 5414      00
 5415              	.LEHE243:
 196:testHexIO.cpp **** 	status = bufInitialise(&mask, 1024, 0x00, NULL);
 5416              		.loc 4 196 0
 5417 2632 E932F8FF 		jmp	.L296
 5417      FF
 5418              	.L350:
 5419 2637 4889C3   		movq	%rax, %rbx
 5420 263a E8000000 		call	__cxa_end_catch
 5420      00
 5421 263f E9DA0400 		jmp	.L298
 5421      00
 5422              	.L352:
 5423 2644 EB00     		jmp	.L300
 5424              	.L351:
 5425              	.L300:
 198:testHexIO.cpp **** 	va_start(vl, firstLine);
 5426              		.loc 4 198 0 is_stmt 1
 5427 2646 4889C7   		movq	%rax, %rdi
 5428 2649 E8000000 		call	__cxa_begin_catch
 5428      00
 5429              	.LEHB244:
 5430 264e E8000000 		call	_ZN8UnitTest11CurrentTest7DetailsEv
 5430      00
 5431 2653 488B08   		movq	(%rax), %rcx
 5432 2656 488D85C0 		leaq	-832(%rbp), %rax
 5432      FCFFFF
 5433 265d BAC60000 		movl	$198, %edx
 5433      00
 5434 2662 4889CE   		movq	%rcx, %rsi
 5435 2665 4889C7   		movq	%rax, %rdi
 5436 2668 E8000000 		call	_ZN8UnitTest11TestDetailsC1ERKS0_i
 5436      00
 198:testHexIO.cpp **** 	va_start(vl, firstLine);
 5437              		.loc 4 198 0 is_stmt 0 discriminator 10
 5438 266d E8000000 		call	_ZN8UnitTest11CurrentTest7ResultsEv
 5438      00
 5439 2672 488B00   		movq	(%rax), %rax
 5440 2675 488D8DC0 		leaq	-832(%rbp), %rcx
 5440      FCFFFF
 5441 267c BA000000 		movl	$.LC4, %edx
 5441      00
 5442 2681 4889CE   		movq	%rcx, %rsi
 5443 2684 4889C7   		movq	%rax, %rdi
 5444 2687 E8000000 		call	_ZN8UnitTest11TestResults13OnTestFailureERKNS_11TestDetailsEPKc
 5444      00
 5445              	.LEHE244:
 5446              	.LEHB245:
 198:testHexIO.cpp **** 	va_start(vl, firstLine);
 5447              		.loc 4 198 0 discriminator 14
 5448 268c E8000000 		call	__cxa_end_catch
 5448      00
 5449              	.LEHE245:
 198:testHexIO.cpp **** 	va_start(vl, firstLine);
 5450              		.loc 4 198 0
 5451 2691 E945F8FF 		jmp	.L301
 5451      FF
 5452              	.L353:
 5453 2696 4889C3   		movq	%rax, %rbx
 5454 2699 E8000000 		call	__cxa_end_catch
 5454      00
 5455 269e E97B0400 		jmp	.L298
 5455      00
 5456              	.L355:
 5457 26a3 EB00     		jmp	.L304
 5458              	.L354:
 5459              	.L304:
 203:testHexIO.cpp **** 		expected += line;
 5460              		.loc 4 203 0 is_stmt 1
 5461 26a5 4889C7   		movq	%rax, %rdi
 5462 26a8 E8000000 		call	__cxa_begin_catch
 5462      00
 5463              	.LEHB246:
 5464 26ad E8000000 		call	_ZN8UnitTest11CurrentTest7DetailsEv
 5464      00
 5465 26b2 488B08   		movq	(%rax), %rcx
 5466 26b5 488D85C0 		leaq	-832(%rbp), %rax
 5466      FCFFFF
 5467 26bc BACB0000 		movl	$203, %edx
 5467      00
 5468 26c1 4889CE   		movq	%rcx, %rsi
 5469 26c4 4889C7   		movq	%rax, %rdi
 5470 26c7 E8000000 		call	_ZN8UnitTest11TestDetailsC1ERKS0_i
 5470      00
 203:testHexIO.cpp **** 		expected += line;
 5471              		.loc 4 203 0 is_stmt 0 discriminator 10
 5472 26cc E8000000 		call	_ZN8UnitTest11CurrentTest7ResultsEv
 5472      00
 5473 26d1 488B00   		movq	(%rax), %rax
 5474 26d4 488D8DC0 		leaq	-832(%rbp), %rcx
 5474      FCFFFF
 5475 26db BA000000 		movl	$.LC4, %edx
 5475      00
 5476 26e0 4889CE   		movq	%rcx, %rsi
 5477 26e3 4889C7   		movq	%rax, %rdi
 5478 26e6 E8000000 		call	_ZN8UnitTest11TestResults13OnTestFailureERKNS_11TestDetailsEPKc
 5478      00
 5479              	.LEHE246:
 5480              	.LEHB247:
 203:testHexIO.cpp **** 		expected += line;
 5481              		.loc 4 203 0 discriminator 14
 5482 26eb E8000000 		call	__cxa_end_catch
 5482      00
 5483              	.LEHE247:
 203:testHexIO.cpp **** 		expected += line;
 5484              		.loc 4 203 0
 5485 26f0 E9B5F8FF 		jmp	.L305
 5485      FF
 5486              	.L356:
 5487 26f5 4889C3   		movq	%rax, %rbx
 5488 26f8 E8000000 		call	__cxa_end_catch
 5488      00
 5489 26fd E91C0400 		jmp	.L298
 5489      00
 5490              	.L358:
 5491 2702 EB00     		jmp	.L308
 5492              	.L357:
 5493              	.L308:
 211:testHexIO.cpp **** 
 5494              		.loc 4 211 0 is_stmt 1
 5495 2704 4889C7   		movq	%rax, %rdi
 5496 2707 E8000000 		call	__cxa_begin_catch
 5496      00
 5497              	.LEHB248:
 5498 270c E8000000 		call	_ZN8UnitTest11CurrentTest7DetailsEv
 5498      00
 5499 2711 488B08   		movq	(%rax), %rcx
 5500 2714 488D85C0 		leaq	-832(%rbp), %rax
 5500      FCFFFF
 5501 271b BAD30000 		movl	$211, %edx
 5501      00
 5502 2720 4889CE   		movq	%rcx, %rsi
 5503 2723 4889C7   		movq	%rax, %rdi
 5504 2726 E8000000 		call	_ZN8UnitTest11TestDetailsC1ERKS0_i
 5504      00
 211:testHexIO.cpp **** 
 5505              		.loc 4 211 0 is_stmt 0 discriminator 10
 5506 272b E8000000 		call	_ZN8UnitTest11CurrentTest7ResultsEv
 5506      00
 5507 2730 488B00   		movq	(%rax), %rax
 5508 2733 488D8DC0 		leaq	-832(%rbp), %rcx
 5508      FCFFFF
 5509 273a BA000000 		movl	$.LC4, %edx
 5509      00
 5510 273f 4889CE   		movq	%rcx, %rsi
 5511 2742 4889C7   		movq	%rax, %rdi
 5512 2745 E8000000 		call	_ZN8UnitTest11TestResults13OnTestFailureERKNS_11TestDetailsEPKc
 5512      00
 5513              	.LEHE248:
 5514              	.LEHB249:
 211:testHexIO.cpp **** 
 5515              		.loc 4 211 0 discriminator 14
 5516 274a E8000000 		call	__cxa_end_catch
 5516      00
 5517              	.LEHE249:
 211:testHexIO.cpp **** 
 5518              		.loc 4 211 0
 5519 274f E972F9FF 		jmp	.L309
 5519      FF
 5520              	.L359:
 5521 2754 4889C3   		movq	%rax, %rbx
 5522 2757 E8000000 		call	__cxa_end_catch
 5522      00
 5523 275c E9BD0300 		jmp	.L298
 5523      00
 5524              	.L361:
 216:testHexIO.cpp **** 	length = file.tellg();
 5525              		.loc 4 216 0 is_stmt 1
 5526 2761 4889C7   		movq	%rax, %rdi
 5527 2764 E8000000 		call	__cxa_begin_catch
 5527      00
 5528              	.LEHB250:
 5529 2769 E8000000 		call	_ZN8UnitTest11CurrentTest7DetailsEv
 5529      00
 5530 276e 488B08   		movq	(%rax), %rcx
 5531 2771 488D85C0 		leaq	-832(%rbp), %rax
 5531      FCFFFF
 5532 2778 BAD80000 		movl	$216, %edx
 5532      00
 5533 277d 4889CE   		movq	%rcx, %rsi
 5534 2780 4889C7   		movq	%rax, %rdi
 5535 2783 E8000000 		call	_ZN8UnitTest11TestDetailsC1ERKS0_i
 5535      00
 216:testHexIO.cpp **** 	length = file.tellg();
 5536              		.loc 4 216 0 is_stmt 0 discriminator 12
 5537 2788 E8000000 		call	_ZN8UnitTest11CurrentTest7ResultsEv
 5537      00
 5538 278d 488B00   		movq	(%rax), %rax
 5539 2790 488D8DC0 		leaq	-832(%rbp), %rcx
 5539      FCFFFF
 5540 2797 BA000000 		movl	$.LC45, %edx
 5540      00
 5541 279c 4889CE   		movq	%rcx, %rsi
 5542 279f 4889C7   		movq	%rax, %rdi
 5543 27a2 E8000000 		call	_ZN8UnitTest11TestResults13OnTestFailureERKNS_11TestDetailsEPKc
 5543      00
 5544              	.LEHE250:
 5545              	.LEHB251:
 216:testHexIO.cpp **** 	length = file.tellg();
 5546              		.loc 4 216 0 discriminator 16
 5547 27a7 E8000000 		call	__cxa_end_catch
 5547      00
 5548              	.LEHE251:
 216:testHexIO.cpp **** 	length = file.tellg();
 5549              		.loc 4 216 0
 5550 27ac E9ACF9FF 		jmp	.L293
 5550      FF
 5551              	.L362:
 5552 27b1 4889C3   		movq	%rax, %rbx
 5553 27b4 E8000000 		call	__cxa_end_catch
 5553      00
 5554 27b9 E94C0300 		jmp	.L313
 5554      00
 5555              	.L364:
 5556 27be EB00     		jmp	.L315
 5557              	.L363:
 5558              	.L315:
 218:testHexIO.cpp **** 	char *fileData = new char[(unsigned int)length];
 5559              		.loc 4 218 0 is_stmt 1
 5560 27c0 4889C7   		movq	%rax, %rdi
 5561 27c3 E8000000 		call	__cxa_begin_catch
 5561      00
 5562              	.LEHB252:
 5563 27c8 E8000000 		call	_ZN8UnitTest11CurrentTest7DetailsEv
 5563      00
 5564 27cd 488B08   		movq	(%rax), %rcx
 5565 27d0 488D85C0 		leaq	-832(%rbp), %rax
 5565      FCFFFF
 5566 27d7 BADA0000 		movl	$218, %edx
 5566      00
 5567 27dc 4889CE   		movq	%rcx, %rsi
 5568 27df 4889C7   		movq	%rax, %rdi
 5569 27e2 E8000000 		call	_ZN8UnitTest11TestDetailsC1ERKS0_i
 5569      00
 218:testHexIO.cpp **** 	char *fileData = new char[(unsigned int)length];
 5570              		.loc 4 218 0 is_stmt 0 discriminator 12
 5571 27e7 E8000000 		call	_ZN8UnitTest11CurrentTest7ResultsEv
 5571      00
 5572 27ec 488B00   		movq	(%rax), %rax
 5573 27ef 488D8DC0 		leaq	-832(%rbp), %rcx
 5573      FCFFFF
 5574 27f6 BA000000 		movl	$.LC46, %edx
 5574      00
 5575 27fb 4889CE   		movq	%rcx, %rsi
 5576 27fe 4889C7   		movq	%rax, %rdi
 5577 2801 E8000000 		call	_ZN8UnitTest11TestResults13OnTestFailureERKNS_11TestDetailsEPKc
 5577      00
 5578              	.LEHE252:
 5579              	.LEHB253:
 218:testHexIO.cpp **** 	char *fileData = new char[(unsigned int)length];
 5580              		.loc 4 218 0 discriminator 16
 5581 2806 E8000000 		call	__cxa_end_catch
 5581      00
 5582              	.LEHE253:
 218:testHexIO.cpp **** 	char *fileData = new char[(unsigned int)length];
 5583              		.loc 4 218 0
 5584 280b E9E7F9FF 		jmp	.L316
 5584      FF
 5585              	.L365:
 5586 2810 4889C3   		movq	%rax, %rbx
 5587 2813 E8000000 		call	__cxa_end_catch
 5587      00
 5588 2818 E9ED0200 		jmp	.L313
 5588      00
 5589              	.L367:
 5590 281d EB00     		jmp	.L319
 5591              	.L366:
 5592              	.L319:
 223:testHexIO.cpp **** 
 5593              		.loc 4 223 0 is_stmt 1
 5594 281f 4889C7   		movq	%rax, %rdi
 5595 2822 E8000000 		call	__cxa_begin_catch
 5595      00
 5596              	.LEHB254:
 5597 2827 E8000000 		call	_ZN8UnitTest11CurrentTest7DetailsEv
 5597      00
 5598 282c 488B08   		movq	(%rax), %rcx
 5599 282f 488D85C0 		leaq	-832(%rbp), %rax
 5599      FCFFFF
 5600 2836 BADF0000 		movl	$223, %edx
 5600      00
 5601 283b 4889CE   		movq	%rcx, %rsi
 5602 283e 4889C7   		movq	%rax, %rdi
 5603 2841 E8000000 		call	_ZN8UnitTest11TestDetailsC1ERKS0_i
 5603      00
 223:testHexIO.cpp **** 
 5604              		.loc 4 223 0 is_stmt 0 discriminator 12
 5605 2846 E8000000 		call	_ZN8UnitTest11CurrentTest7ResultsEv
 5605      00
 5606 284b 488B00   		movq	(%rax), %rax
 5607 284e 488D8DC0 		leaq	-832(%rbp), %rcx
 5607      FCFFFF
 5608 2855 BA000000 		movl	$.LC47, %edx
 5608      00
 5609 285a 4889CE   		movq	%rcx, %rsi
 5610 285d 4889C7   		movq	%rax, %rdi
 5611 2860 E8000000 		call	_ZN8UnitTest11TestResults13OnTestFailureERKNS_11TestDetailsEPKc
 5611      00
 5612              	.LEHE254:
 5613              	.LEHB255:
 223:testHexIO.cpp **** 
 5614              		.loc 4 223 0 discriminator 16
 5615 2865 E8000000 		call	__cxa_end_catch
 5615      00
 5616              	.LEHE255:
 223:testHexIO.cpp **** 
 5617              		.loc 4 223 0
 5618 286a E95EFAFF 		jmp	.L320
 5618      FF
 5619              	.L368:
 5620 286f 4889C3   		movq	%rax, %rbx
 5621 2872 E8000000 		call	__cxa_end_catch
 5621      00
 5622 2877 E98E0200 		jmp	.L313
 5622      00
 5623              	.L370:
 5624 287c EB00     		jmp	.L323
 5625              	.L369:
 5626              	.L323:
 226:testHexIO.cpp **** 	status = bufInitialise(&readbackMask, 1024, 0x00, NULL);
 5627              		.loc 4 226 0 is_stmt 1
 5628 287e 4889C7   		movq	%rax, %rdi
 5629 2881 E8000000 		call	__cxa_begin_catch
 5629      00
 5630              	.LEHB256:
 5631 2886 E8000000 		call	_ZN8UnitTest11CurrentTest7DetailsEv
 5631      00
 5632 288b 488B08   		movq	(%rax), %rcx
 5633 288e 488D85C0 		leaq	-832(%rbp), %rax
 5633      FCFFFF
 5634 2895 BAE20000 		movl	$226, %edx
 5634      00
 5635 289a 4889CE   		movq	%rcx, %rsi
 5636 289d 4889C7   		movq	%rax, %rdi
 5637 28a0 E8000000 		call	_ZN8UnitTest11TestDetailsC1ERKS0_i
 5637      00
 226:testHexIO.cpp **** 	status = bufInitialise(&readbackMask, 1024, 0x00, NULL);
 5638              		.loc 4 226 0 is_stmt 0 discriminator 10
 5639 28a5 E8000000 		call	_ZN8UnitTest11CurrentTest7ResultsEv
 5639      00
 5640 28aa 488B00   		movq	(%rax), %rax
 5641 28ad 488D8DC0 		leaq	-832(%rbp), %rcx
 5641      FCFFFF
 5642 28b4 BA000000 		movl	$.LC4, %edx
 5642      00
 5643 28b9 4889CE   		movq	%rcx, %rsi
 5644 28bc 4889C7   		movq	%rax, %rdi
 5645 28bf E8000000 		call	_ZN8UnitTest11TestResults13OnTestFailureERKNS_11TestDetailsEPKc
 5645      00
 5646              	.LEHE256:
 5647              	.LEHB257:
 226:testHexIO.cpp **** 	status = bufInitialise(&readbackMask, 1024, 0x00, NULL);
 5648              		.loc 4 226 0 discriminator 14
 5649 28c4 E8000000 		call	__cxa_end_catch
 5649      00
 5650              	.LEHE257:
 226:testHexIO.cpp **** 	status = bufInitialise(&readbackMask, 1024, 0x00, NULL);
 5651              		.loc 4 226 0
 5652 28c9 E971FAFF 		jmp	.L324
 5652      FF
 5653              	.L371:
 5654 28ce 4889C3   		movq	%rax, %rbx
 5655 28d1 E8000000 		call	__cxa_end_catch
 5655      00
 5656 28d6 E92F0200 		jmp	.L313
 5656      00
 5657              	.L373:
 5658 28db EB00     		jmp	.L327
 5659              	.L372:
 5660              	.L327:
 228:testHexIO.cpp **** 	status = bufReadFromIntelHexFile(&readbackData, &readbackMask, FILENAME, NULL);
 5661              		.loc 4 228 0 is_stmt 1
 5662 28dd 4889C7   		movq	%rax, %rdi
 5663 28e0 E8000000 		call	__cxa_begin_catch
 5663      00
 5664              	.LEHB258:
 5665 28e5 E8000000 		call	_ZN8UnitTest11CurrentTest7DetailsEv
 5665      00
 5666 28ea 488B08   		movq	(%rax), %rcx
 5667 28ed 488D85C0 		leaq	-832(%rbp), %rax
 5667      FCFFFF
 5668 28f4 BAE40000 		movl	$228, %edx
 5668      00
 5669 28f9 4889CE   		movq	%rcx, %rsi
 5670 28fc 4889C7   		movq	%rax, %rdi
 5671 28ff E8000000 		call	_ZN8UnitTest11TestDetailsC1ERKS0_i
 5671      00
 228:testHexIO.cpp **** 	status = bufReadFromIntelHexFile(&readbackData, &readbackMask, FILENAME, NULL);
 5672              		.loc 4 228 0 is_stmt 0 discriminator 10
 5673 2904 E8000000 		call	_ZN8UnitTest11CurrentTest7ResultsEv
 5673      00
 5674 2909 488B00   		movq	(%rax), %rax
 5675 290c 488D8DC0 		leaq	-832(%rbp), %rcx
 5675      FCFFFF
 5676 2913 BA000000 		movl	$.LC4, %edx
 5676      00
 5677 2918 4889CE   		movq	%rcx, %rsi
 5678 291b 4889C7   		movq	%rax, %rdi
 5679 291e E8000000 		call	_ZN8UnitTest11TestResults13OnTestFailureERKNS_11TestDetailsEPKc
 5679      00
 5680              	.LEHE258:
 5681              	.LEHB259:
 228:testHexIO.cpp **** 	status = bufReadFromIntelHexFile(&readbackData, &readbackMask, FILENAME, NULL);
 5682              		.loc 4 228 0 discriminator 14
 5683 2923 E8000000 		call	__cxa_end_catch
 5683      00
 5684              	.LEHE259:
 228:testHexIO.cpp **** 	status = bufReadFromIntelHexFile(&readbackData, &readbackMask, FILENAME, NULL);
 5685              		.loc 4 228 0
 5686 2928 E984FAFF 		jmp	.L328
 5686      FF
 5687              	.L374:
 5688 292d 4889C3   		movq	%rax, %rbx
 5689 2930 E8000000 		call	__cxa_end_catch
 5689      00
 5690 2935 E9D00100 		jmp	.L313
 5690      00
 5691              	.L376:
 5692 293a EB00     		jmp	.L331
 5693              	.L375:
 5694              	.L331:
 230:testHexIO.cpp **** 	CHECK_EQUAL(data.length, readbackData.length);
 5695              		.loc 4 230 0 is_stmt 1
 5696 293c 4889C7   		movq	%rax, %rdi
 5697 293f E8000000 		call	__cxa_begin_catch
 5697      00
 5698              	.LEHB260:
 5699 2944 E8000000 		call	_ZN8UnitTest11CurrentTest7DetailsEv
 5699      00
 5700 2949 488B08   		movq	(%rax), %rcx
 5701 294c 488D85C0 		leaq	-832(%rbp), %rax
 5701      FCFFFF
 5702 2953 BAE60000 		movl	$230, %edx
 5702      00
 5703 2958 4889CE   		movq	%rcx, %rsi
 5704 295b 4889C7   		movq	%rax, %rdi
 5705 295e E8000000 		call	_ZN8UnitTest11TestDetailsC1ERKS0_i
 5705      00
 230:testHexIO.cpp **** 	CHECK_EQUAL(data.length, readbackData.length);
 5706              		.loc 4 230 0 is_stmt 0 discriminator 10
 5707 2963 E8000000 		call	_ZN8UnitTest11CurrentTest7ResultsEv
 5707      00
 5708 2968 488B00   		movq	(%rax), %rax
 5709 296b 488D8DC0 		leaq	-832(%rbp), %rcx
 5709      FCFFFF
 5710 2972 BA000000 		movl	$.LC4, %edx
 5710      00
 5711 2977 4889CE   		movq	%rcx, %rsi
 5712 297a 4889C7   		movq	%rax, %rdi
 5713 297d E8000000 		call	_ZN8UnitTest11TestResults13OnTestFailureERKNS_11TestDetailsEPKc
 5713      00
 5714              	.LEHE260:
 5715              	.LEHB261:
 230:testHexIO.cpp **** 	CHECK_EQUAL(data.length, readbackData.length);
 5716              		.loc 4 230 0 discriminator 14
 5717 2982 E8000000 		call	__cxa_end_catch
 5717      00
 5718              	.LEHE261:
 230:testHexIO.cpp **** 	CHECK_EQUAL(data.length, readbackData.length);
 5719              		.loc 4 230 0
 5720 2987 E99BFAFF 		jmp	.L332
 5720      FF
 5721              	.L377:
 5722 298c 4889C3   		movq	%rax, %rbx
 5723 298f E8000000 		call	__cxa_end_catch
 5723      00
 5724 2994 E9710100 		jmp	.L313
 5724      00
 5725              	.L378:
 231:testHexIO.cpp **** 	CHECK_ARRAY_EQUAL(data.data, readbackData.data, (int)data.length);
 5726              		.loc 4 231 0 is_stmt 1
 5727 2999 4889C7   		movq	%rax, %rdi
 5728 299c E8000000 		call	__cxa_begin_catch
 5728      00
 5729              	.LEHB262:
 5730 29a1 E8000000 		call	_ZN8UnitTest11CurrentTest7DetailsEv
 5730      00
 5731 29a6 488B08   		movq	(%rax), %rcx
 5732 29a9 488D85C0 		leaq	-832(%rbp), %rax
 5732      FCFFFF
 5733 29b0 BAE70000 		movl	$231, %edx
 5733      00
 5734 29b5 4889CE   		movq	%rcx, %rsi
 5735 29b8 4889C7   		movq	%rax, %rdi
 5736 29bb E8000000 		call	_ZN8UnitTest11TestDetailsC1ERKS0_i
 5736      00
 231:testHexIO.cpp **** 	CHECK_ARRAY_EQUAL(data.data, readbackData.data, (int)data.length);
 5737              		.loc 4 231 0 is_stmt 0 discriminator 10
 5738 29c0 E8000000 		call	_ZN8UnitTest11CurrentTest7ResultsEv
 5738      00
 5739 29c5 488B00   		movq	(%rax), %rax
 5740 29c8 488D8DC0 		leaq	-832(%rbp), %rcx
 5740      FCFFFF
 5741 29cf BA000000 		movl	$.LC48, %edx
 5741      00
 5742 29d4 4889CE   		movq	%rcx, %rsi
 5743 29d7 4889C7   		movq	%rax, %rdi
 5744 29da E8000000 		call	_ZN8UnitTest11TestResults13OnTestFailureERKNS_11TestDetailsEPKc
 5744      00
 5745              	.LEHE262:
 5746              	.LEHB263:
 231:testHexIO.cpp **** 	CHECK_ARRAY_EQUAL(data.data, readbackData.data, (int)data.length);
 5747              		.loc 4 231 0 discriminator 14
 5748 29df E8000000 		call	__cxa_end_catch
 5748      00
 5749              	.LEHE263:
 231:testHexIO.cpp **** 	CHECK_ARRAY_EQUAL(data.data, readbackData.data, (int)data.length);
 5750              		.loc 4 231 0
 5751 29e4 E990FAFF 		jmp	.L335
 5751      FF
 5752              	.L379:
 5753 29e9 4889C3   		movq	%rax, %rbx
 5754 29ec E8000000 		call	__cxa_end_catch
 5754      00
 5755 29f1 E9140100 		jmp	.L313
 5755      00
 5756              	.L380:
 232:testHexIO.cpp **** 	CHECK_EQUAL(mask.length, readbackMask.length);
 5757              		.loc 4 232 0 is_stmt 1
 5758 29f6 4889C7   		movq	%rax, %rdi
 5759 29f9 E8000000 		call	__cxa_begin_catch
 5759      00
 5760              	.LEHB264:
 5761 29fe E8000000 		call	_ZN8UnitTest11CurrentTest7DetailsEv
 5761      00
 5762 2a03 488B08   		movq	(%rax), %rcx
 5763 2a06 488D85C0 		leaq	-832(%rbp), %rax
 5763      FCFFFF
 5764 2a0d BAE80000 		movl	$232, %edx
 5764      00
 5765 2a12 4889CE   		movq	%rcx, %rsi
 5766 2a15 4889C7   		movq	%rax, %rdi
 5767 2a18 E8000000 		call	_ZN8UnitTest11TestDetailsC1ERKS0_i
 5767      00
 232:testHexIO.cpp **** 	CHECK_EQUAL(mask.length, readbackMask.length);
 5768              		.loc 4 232 0 is_stmt 0 discriminator 10
 5769 2a1d E8000000 		call	_ZN8UnitTest11CurrentTest7ResultsEv
 5769      00
 5770 2a22 488B00   		movq	(%rax), %rax
 5771 2a25 488D8DC0 		leaq	-832(%rbp), %rcx
 5771      FCFFFF
 5772 2a2c BA000000 		movl	$.LC49, %edx
 5772      00
 5773 2a31 4889CE   		movq	%rcx, %rsi
 5774 2a34 4889C7   		movq	%rax, %rdi
 5775 2a37 E8000000 		call	_ZN8UnitTest11TestResults13OnTestFailureERKNS_11TestDetailsEPKc
 5775      00
 5776              	.LEHE264:
 5777              	.LEHB265:
 232:testHexIO.cpp **** 	CHECK_EQUAL(mask.length, readbackMask.length);
 5778              		.loc 4 232 0 discriminator 14
 5779 2a3c E8000000 		call	__cxa_end_catch
 5779      00
 5780              	.LEHE265:
 232:testHexIO.cpp **** 	CHECK_EQUAL(mask.length, readbackMask.length);
 5781              		.loc 4 232 0
 5782 2a41 E985FAFF 		jmp	.L338
 5782      FF
 5783              	.L381:
 5784 2a46 4889C3   		movq	%rax, %rbx
 5785 2a49 E8000000 		call	__cxa_end_catch
 5785      00
 5786 2a4e E9B70000 		jmp	.L313
 5786      00
 5787              	.L382:
 233:testHexIO.cpp **** 	CHECK_ARRAY_EQUAL(mask.data, readbackMask.data, (int)mask.length);
 5788              		.loc 4 233 0 is_stmt 1
 5789 2a53 4889C7   		movq	%rax, %rdi
 5790 2a56 E8000000 		call	__cxa_begin_catch
 5790      00
 5791              	.LEHB266:
 5792 2a5b E8000000 		call	_ZN8UnitTest11CurrentTest7DetailsEv
 5792      00
 5793 2a60 488B08   		movq	(%rax), %rcx
 5794 2a63 488D85C0 		leaq	-832(%rbp), %rax
 5794      FCFFFF
 5795 2a6a BAE90000 		movl	$233, %edx
 5795      00
 5796 2a6f 4889CE   		movq	%rcx, %rsi
 5797 2a72 4889C7   		movq	%rax, %rdi
 5798 2a75 E8000000 		call	_ZN8UnitTest11TestDetailsC1ERKS0_i
 5798      00
 233:testHexIO.cpp **** 	CHECK_ARRAY_EQUAL(mask.data, readbackMask.data, (int)mask.length);
 5799              		.loc 4 233 0 is_stmt 0 discriminator 10
 5800 2a7a E8000000 		call	_ZN8UnitTest11CurrentTest7ResultsEv
 5800      00
 5801 2a7f 488B00   		movq	(%rax), %rax
 5802 2a82 488D8DC0 		leaq	-832(%rbp), %rcx
 5802      FCFFFF
 5803 2a89 BA000000 		movl	$.LC50, %edx
 5803      00
 5804 2a8e 4889CE   		movq	%rcx, %rsi
 5805 2a91 4889C7   		movq	%rax, %rdi
 5806 2a94 E8000000 		call	_ZN8UnitTest11TestResults13OnTestFailureERKNS_11TestDetailsEPKc
 5806      00
 5807              	.LEHE266:
 5808              	.LEHB267:
 233:testHexIO.cpp **** 	CHECK_ARRAY_EQUAL(mask.data, readbackMask.data, (int)mask.length);
 5809              		.loc 4 233 0 discriminator 14
 5810 2a99 E8000000 		call	__cxa_end_catch
 5810      00
 5811              	.LEHE267:
 233:testHexIO.cpp **** 	CHECK_ARRAY_EQUAL(mask.data, readbackMask.data, (int)mask.length);
 5812              		.loc 4 233 0
 5813 2a9e E97AFAFF 		jmp	.L341
 5813      FF
 5814              	.L383:
 5815 2aa3 4889C3   		movq	%rax, %rbx
 5816 2aa6 E8000000 		call	__cxa_end_catch
 5816      00
 5817 2aab EB5D     		jmp	.L313
 5818              	.L384:
 234:testHexIO.cpp **** 	
 5819              		.loc 4 234 0 is_stmt 1
 5820 2aad 4889C7   		movq	%rax, %rdi
 5821 2ab0 E8000000 		call	__cxa_begin_catch
 5821      00
 5822              	.LEHB268:
 5823 2ab5 E8000000 		call	_ZN8UnitTest11CurrentTest7DetailsEv
 5823      00
 5824 2aba 488B08   		movq	(%rax), %rcx
 5825 2abd 488D85C0 		leaq	-832(%rbp), %rax
 5825      FCFFFF
 5826 2ac4 BAEA0000 		movl	$234, %edx
 5826      00
 5827 2ac9 4889CE   		movq	%rcx, %rsi
 5828 2acc 4889C7   		movq	%rax, %rdi
 5829 2acf E8000000 		call	_ZN8UnitTest11TestDetailsC1ERKS0_i
 5829      00
 234:testHexIO.cpp **** 	
 5830              		.loc 4 234 0 is_stmt 0 discriminator 10
 5831 2ad4 E8000000 		call	_ZN8UnitTest11CurrentTest7ResultsEv
 5831      00
 5832 2ad9 488B00   		movq	(%rax), %rax
 5833 2adc 488D8DC0 		leaq	-832(%rbp), %rcx
 5833      FCFFFF
 5834 2ae3 BA000000 		movl	$.LC51, %edx
 5834      00
 5835 2ae8 4889CE   		movq	%rcx, %rsi
 5836 2aeb 4889C7   		movq	%rax, %rdi
 5837 2aee E8000000 		call	_ZN8UnitTest11TestResults13OnTestFailureERKNS_11TestDetailsEPKc
 5837      00
 5838              	.LEHE268:
 5839              	.LEHB269:
 234:testHexIO.cpp **** 	
 5840              		.loc 4 234 0 discriminator 14
 5841 2af3 E8000000 		call	__cxa_end_catch
 5841      00
 5842              	.LEHE269:
 234:testHexIO.cpp **** 	
 5843              		.loc 4 234 0
 5844 2af8 E972FAFF 		jmp	.L344
 5844      FF
 5845              	.L385:
 5846 2afd 4889C3   		movq	%rax, %rbx
 5847 2b00 E8000000 		call	__cxa_end_catch
 5847      00
 5848 2b05 EB03     		jmp	.L313
 5849              	.L360:
 5850 2b07 4889C3   		movq	%rax, %rbx
 5851              	.L313:
 213:testHexIO.cpp **** 	streamoff length;
 5852              		.loc 4 213 0 is_stmt 1
 5853 2b0a 488D8530 		leaq	-720(%rbp), %rax
 5853      FDFFFF
 5854 2b11 4889C7   		movq	%rax, %rdi
 5855 2b14 E8000000 		call	_ZNSt14basic_ifstreamIcSt11char_traitsIcEED1Ev
 5855      00
 5856 2b19 EB03     		jmp	.L298
 5857              	.L347:
 5858 2b1b 4889C3   		movq	%rax, %rbx
 5859              	.L298:
 192:testHexIO.cpp **** 	uint8 recordType;
 5860              		.loc 4 192 0
 5861 2b1e 488D8510 		leaq	-752(%rbp), %rax
 5861      FDFFFF
 5862 2b25 4889C7   		movq	%rax, %rdi
 5863 2b28 E8000000 		call	_ZNSt7__cxx1112basic_stringIcSt11char_traitsIcESaIcEED1Ev
 5863      00
 5864 2b2d 4889D8   		movq	%rbx, %rax
 5865 2b30 4889C7   		movq	%rax, %rdi
 5866              	.LEHB270:
 5867 2b33 E8000000 		call	_Unwind_Resume
 5867      00
 5868              	.LEHE270:
 5869              	.L386:
 5870              		.loc 4 240 0
 5871 2b38 E8000000 		call	__stack_chk_fail
 5871      00
 5872              	.L346:
 5873 2b3d 488B5DF8 		movq	-8(%rbp), %rbx
 5874 2b41 C9       		leave
 5875              		.cfi_def_cfa 7, 8
 5876 2b42 C3       		ret
 5877              		.cfi_endproc
 5878              	.LFE1181:
 5879              		.section	.gcc_except_table
 5880              		.align 4
 5881              	.LLSDA1181:
 5882 04dc FF       		.byte	0xff
 5883 04dd 03       		.byte	0x3
 5884 04de 9C03     		.uleb128 .LLSDATT1181-.LLSDATTD1181
 5885              	.LLSDATTD1181:
 5886 04e0 01       		.byte	0x1
 5887 04e1 9003     		.uleb128 .LLSDACSE1181-.LLSDACSB1181
 5888              	.LLSDACSB1181:
 5889 04e3 8401     		.uleb128 .LEHB204-.LFB1181
 5890 04e5 05       		.uleb128 .LEHE204-.LEHB204
 5891 04e6 00       		.uleb128 0
 5892 04e7 00       		.uleb128 0
 5893 04e8 AC01     		.uleb128 .LEHB205-.LFB1181
 5894 04ea 05       		.uleb128 .LEHE205-.LEHB205
 5895 04eb B71B     		.uleb128 .L347-.LFB1181
 5896 04ed 00       		.uleb128 0
 5897 04ee B701     		.uleb128 .LEHB206-.LFB1181
 5898 04f0 1F       		.uleb128 .LEHE206-.LEHB206
 5899 04f1 8311     		.uleb128 .L348-.LFB1181
 5900 04f3 01       		.uleb128 0x1
 5901 04f4 E001     		.uleb128 .LEHB207-.LFB1181
 5902 04f6 25       		.uleb128 .LEHE207-.LEHB207
 5903 04f7 8111     		.uleb128 .L349-.LFB1181
 5904 04f9 01       		.uleb128 0x1
 5905 04fa 9E02     		.uleb128 .LEHB208-.LFB1181
 5906 04fc 05       		.uleb128 .LEHE208-.LEHB208
 5907 04fd B71B     		.uleb128 .L347-.LFB1181
 5908 04ff 00       		.uleb128 0
 5909 0500 A902     		.uleb128 .LEHB209-.LFB1181
 5910 0502 1F       		.uleb128 .LEHE209-.LEHB209
 5911 0503 E211     		.uleb128 .L351-.LFB1181
 5912 0505 01       		.uleb128 0x1
 5913 0506 D202     		.uleb128 .LEHB210-.LFB1181
 5914 0508 25       		.uleb128 .LEHE210-.LEHB210
 5915 0509 E011     		.uleb128 .L352-.LFB1181
 5916 050b 01       		.uleb128 0x1
 5917 050c E903     		.uleb128 .LEHB211-.LFB1181
 5918 050e 05       		.uleb128 .LEHE211-.LEHB211
 5919 050f B71B     		.uleb128 .L347-.LFB1181
 5920 0511 00       		.uleb128 0
 5921 0512 F803     		.uleb128 .LEHB212-.LFB1181
 5922 0514 1F       		.uleb128 .LEHE212-.LEHB212
 5923 0515 C112     		.uleb128 .L354-.LFB1181
 5924 0517 01       		.uleb128 0x1
 5925 0518 A104     		.uleb128 .LEHB213-.LFB1181
 5926 051a 25       		.uleb128 .LEHE213-.LEHB213
 5927 051b BF12     		.uleb128 .L355-.LFB1181
 5928 051d 01       		.uleb128 0x1
 5929 051e DA04     		.uleb128 .LEHB214-.LFB1181
 5930 0520 B401     		.uleb128 .LEHE214-.LEHB214
 5931 0522 B71B     		.uleb128 .L347-.LFB1181
 5932 0524 00       		.uleb128 0
 5933 0525 9406     		.uleb128 .LEHB215-.LFB1181
 5934 0527 1F       		.uleb128 .LEHE215-.LEHB215
 5935 0528 A013     		.uleb128 .L357-.LFB1181
 5936 052a 01       		.uleb128 0x1
 5937 052b BD06     		.uleb128 .LEHB216-.LFB1181
 5938 052d 25       		.uleb128 .LEHE216-.LEHB216
 5939 052e 9E13     		.uleb128 .L358-.LFB1181
 5940 0530 01       		.uleb128 0x1
 5941 0531 EC06     		.uleb128 .LEHB217-.LFB1181
 5942 0533 05       		.uleb128 .LEHE217-.LEHB217
 5943 0534 B71B     		.uleb128 .L347-.LFB1181
 5944 0536 00       		.uleb128 0
 5945 0537 9607     		.uleb128 .LEHB218-.LFB1181
 5946 0539 05       		.uleb128 .LEHE218-.LEHB218
 5947 053a A31B     		.uleb128 .L360-.LFB1181
 5948 053c 00       		.uleb128 0
 5949 053d A507     		.uleb128 .LEHB219-.LFB1181
 5950 053f 54       		.uleb128 .LEHE219-.LEHB219
 5951 0540 FD13     		.uleb128 .L361-.LFB1181
 5952 0542 01       		.uleb128 0x1
 5953 0543 8308     		.uleb128 .LEHB220-.LFB1181
 5954 0545 05       		.uleb128 .LEHE220-.LEHB220
 5955 0546 A31B     		.uleb128 .L360-.LFB1181
 5956 0548 00       		.uleb128 0
 5957 0549 AC08     		.uleb128 .LEHB221-.LFB1181
 5958 054b 1F       		.uleb128 .LEHE221-.LEHB221
 5959 054c DC14     		.uleb128 .L363-.LFB1181
 5960 054e 01       		.uleb128 0x1
 5961 054f E208     		.uleb128 .LEHB222-.LFB1181
 5962 0551 31       		.uleb128 .LEHE222-.LEHB222
 5963 0552 DA14     		.uleb128 .L364-.LFB1181
 5964 0554 01       		.uleb128 0x1
 5965 0555 9F09     		.uleb128 .LEHB223-.LFB1181
 5966 0557 54       		.uleb128 .LEHE223-.LEHB223
 5967 0558 A31B     		.uleb128 .L360-.LFB1181
 5968 055a 00       		.uleb128 0
 5969 055b F309     		.uleb128 .LEHB224-.LFB1181
 5970 055d 1F       		.uleb128 .LEHE224-.LEHB224
 5971 055e BB15     		.uleb128 .L366-.LFB1181
 5972 0560 01       		.uleb128 0x1
 5973 0561 B30A     		.uleb128 .LEHB225-.LFB1181
 5974 0563 36       		.uleb128 .LEHE225-.LEHB225
 5975 0564 B915     		.uleb128 .L367-.LFB1181
 5976 0566 01       		.uleb128 0x1
 5977 0567 820B     		.uleb128 .LEHB226-.LFB1181
 5978 0569 05       		.uleb128 .LEHE226-.LEHB226
 5979 056a A31B     		.uleb128 .L360-.LFB1181
 5980 056c 00       		.uleb128 0
 5981 056d 8D0B     		.uleb128 .LEHB227-.LFB1181
 5982 056f 1F       		.uleb128 .LEHE227-.LEHB227
 5983 0570 9A16     		.uleb128 .L369-.LFB1181
 5984 0572 01       		.uleb128 0x1
 5985 0573 B60B     		.uleb128 .LEHB228-.LFB1181
 5986 0575 25       		.uleb128 .LEHE228-.LEHB228
 5987 0576 9816     		.uleb128 .L370-.LFB1181
 5988 0578 01       		.uleb128 0x1
 5989 0579 F40B     		.uleb128 .LEHB229-.LFB1181
 5990 057b 05       		.uleb128 .LEHE229-.LEHB229
 5991 057c A31B     		.uleb128 .L360-.LFB1181
 5992 057e 00       		.uleb128 0
 5993 057f FF0B     		.uleb128 .LEHB230-.LFB1181
 5994 0581 1F       		.uleb128 .LEHE230-.LEHB230
 5995 0582 F916     		.uleb128 .L372-.LFB1181
 5996 0584 01       		.uleb128 0x1
 5997 0585 A80C     		.uleb128 .LEHB231-.LFB1181
 5998 0587 25       		.uleb128 .LEHE231-.LEHB231
 5999 0588 F716     		.uleb128 .L373-.LFB1181
 6000 058a 01       		.uleb128 0x1
 6001 058b EA0C     		.uleb128 .LEHB232-.LFB1181
 6002 058d 05       		.uleb128 .LEHE232-.LEHB232
 6003 058e A31B     		.uleb128 .L360-.LFB1181
 6004 0590 00       		.uleb128 0
 6005 0591 F50C     		.uleb128 .LEHB233-.LFB1181
 6006 0593 1F       		.uleb128 .LEHE233-.LEHB233
 6007 0594 D817     		.uleb128 .L375-.LFB1181
 6008 0596 01       		.uleb128 0x1
 6009 0597 9E0D     		.uleb128 .LEHB234-.LFB1181
 6010 0599 25       		.uleb128 .LEHE234-.LEHB234
 6011 059a D617     		.uleb128 .L376-.LFB1181
 6012 059c 01       		.uleb128 0x1
 6013 059d C30D     		.uleb128 .LEHB235-.LFB1181
 6014 059f 52       		.uleb128 .LEHE235-.LEHB235
 6015 05a0 B518     		.uleb128 .L378-.LFB1181
 6016 05a2 01       		.uleb128 0x1
 6017 05a3 950E     		.uleb128 .LEHB236-.LFB1181
 6018 05a5 52       		.uleb128 .LEHE236-.LEHB236
 6019 05a6 9219     		.uleb128 .L380-.LFB1181
 6020 05a8 01       		.uleb128 0x1
 6021 05a9 E70E     		.uleb128 .LEHB237-.LFB1181
 6022 05ab 52       		.uleb128 .LEHE237-.LEHB237
 6023 05ac EF19     		.uleb128 .L382-.LFB1181
 6024 05ae 01       		.uleb128 0x1
 6025 05af B90F     		.uleb128 .LEHB238-.LFB1181
 6026 05b1 52       		.uleb128 .LEHE238-.LEHB238
 6027 05b2 C91A     		.uleb128 .L384-.LFB1181
 6028 05b4 01       		.uleb128 0x1
 6029 05b5 9510     		.uleb128 .LEHB239-.LFB1181
 6030 05b7 32       		.uleb128 .LEHE239-.LEHB239
 6031 05b8 A31B     		.uleb128 .L360-.LFB1181
 6032 05ba 00       		.uleb128 0
 6033 05bb D110     		.uleb128 .LEHB240-.LFB1181
 6034 05bd 05       		.uleb128 .LEHE240-.LEHB240
 6035 05be B71B     		.uleb128 .L347-.LFB1181
 6036 05c0 00       		.uleb128 0
 6037 05c1 E010     		.uleb128 .LEHB241-.LFB1181
 6038 05c3 05       		.uleb128 .LEHE241-.LEHB241
 6039 05c4 00       		.uleb128 0
 6040 05c5 00       		.uleb128 0
 6041 05c6 8B11     		.uleb128 .LEHB242-.LFB1181
 6042 05c8 3E       		.uleb128 .LEHE242-.LEHB242
 6043 05c9 D311     		.uleb128 .L350-.LFB1181
 6044 05cb 00       		.uleb128 0
 6045 05cc C911     		.uleb128 .LEHB243-.LFB1181
 6046 05ce 05       		.uleb128 .LEHE243-.LEHB243
 6047 05cf B71B     		.uleb128 .L347-.LFB1181
 6048 05d1 00       		.uleb128 0
 6049 05d2 EA11     		.uleb128 .LEHB244-.LFB1181
 6050 05d4 3E       		.uleb128 .LEHE244-.LEHB244
 6051 05d5 B212     		.uleb128 .L353-.LFB1181
 6052 05d7 00       		.uleb128 0
 6053 05d8 A812     		.uleb128 .LEHB245-.LFB1181
 6054 05da 05       		.uleb128 .LEHE245-.LEHB245
 6055 05db B71B     		.uleb128 .L347-.LFB1181
 6056 05dd 00       		.uleb128 0
 6057 05de C912     		.uleb128 .LEHB246-.LFB1181
 6058 05e0 3E       		.uleb128 .LEHE246-.LEHB246
 6059 05e1 9113     		.uleb128 .L356-.LFB1181
 6060 05e3 00       		.uleb128 0
 6061 05e4 8713     		.uleb128 .LEHB247-.LFB1181
 6062 05e6 05       		.uleb128 .LEHE247-.LEHB247
 6063 05e7 B71B     		.uleb128 .L347-.LFB1181
 6064 05e9 00       		.uleb128 0
 6065 05ea A813     		.uleb128 .LEHB248-.LFB1181
 6066 05ec 3E       		.uleb128 .LEHE248-.LEHB248
 6067 05ed F013     		.uleb128 .L359-.LFB1181
 6068 05ef 00       		.uleb128 0
 6069 05f0 E613     		.uleb128 .LEHB249-.LFB1181
 6070 05f2 05       		.uleb128 .LEHE249-.LEHB249
 6071 05f3 B71B     		.uleb128 .L347-.LFB1181
 6072 05f5 00       		.uleb128 0
 6073 05f6 8514     		.uleb128 .LEHB250-.LFB1181
 6074 05f8 3E       		.uleb128 .LEHE250-.LEHB250
 6075 05f9 CD14     		.uleb128 .L362-.LFB1181
 6076 05fb 00       		.uleb128 0
 6077 05fc C314     		.uleb128 .LEHB251-.LFB1181
 6078 05fe 05       		.uleb128 .LEHE251-.LEHB251
 6079 05ff A31B     		.uleb128 .L360-.LFB1181
 6080 0601 00       		.uleb128 0
 6081 0602 E414     		.uleb128 .LEHB252-.LFB1181
 6082 0604 3E       		.uleb128 .LEHE252-.LEHB252
 6083 0605 AC15     		.uleb128 .L365-.LFB1181
 6084 0607 00       		.uleb128 0
 6085 0608 A215     		.uleb128 .LEHB253-.LFB1181
 6086 060a 05       		.uleb128 .LEHE253-.LEHB253
 6087 060b A31B     		.uleb128 .L360-.LFB1181
 6088 060d 00       		.uleb128 0
 6089 060e C315     		.uleb128 .LEHB254-.LFB1181
 6090 0610 3E       		.uleb128 .LEHE254-.LEHB254
 6091 0611 8B16     		.uleb128 .L368-.LFB1181
 6092 0613 00       		.uleb128 0
 6093 0614 8116     		.uleb128 .LEHB255-.LFB1181
 6094 0616 05       		.uleb128 .LEHE255-.LEHB255
 6095 0617 A31B     		.uleb128 .L360-.LFB1181
 6096 0619 00       		.uleb128 0
 6097 061a A216     		.uleb128 .LEHB256-.LFB1181
 6098 061c 3E       		.uleb128 .LEHE256-.LEHB256
 6099 061d EA16     		.uleb128 .L371-.LFB1181
 6100 061f 00       		.uleb128 0
 6101 0620 E016     		.uleb128 .LEHB257-.LFB1181
 6102 0622 05       		.uleb128 .LEHE257-.LEHB257
 6103 0623 A31B     		.uleb128 .L360-.LFB1181
 6104 0625 00       		.uleb128 0
 6105 0626 8117     		.uleb128 .LEHB258-.LFB1181
 6106 0628 3E       		.uleb128 .LEHE258-.LEHB258
 6107 0629 C917     		.uleb128 .L374-.LFB1181
 6108 062b 00       		.uleb128 0
 6109 062c BF17     		.uleb128 .LEHB259-.LFB1181
 6110 062e 05       		.uleb128 .LEHE259-.LEHB259
 6111 062f A31B     		.uleb128 .L360-.LFB1181
 6112 0631 00       		.uleb128 0
 6113 0632 E017     		.uleb128 .LEHB260-.LFB1181
 6114 0634 3E       		.uleb128 .LEHE260-.LEHB260
 6115 0635 A818     		.uleb128 .L377-.LFB1181
 6116 0637 00       		.uleb128 0
 6117 0638 9E18     		.uleb128 .LEHB261-.LFB1181
 6118 063a 05       		.uleb128 .LEHE261-.LEHB261
 6119 063b A31B     		.uleb128 .L360-.LFB1181
 6120 063d 00       		.uleb128 0
 6121 063e BD18     		.uleb128 .LEHB262-.LFB1181
 6122 0640 3E       		.uleb128 .LEHE262-.LEHB262
 6123 0641 8519     		.uleb128 .L379-.LFB1181
 6124 0643 00       		.uleb128 0
 6125 0644 FB18     		.uleb128 .LEHB263-.LFB1181
 6126 0646 05       		.uleb128 .LEHE263-.LEHB263
 6127 0647 A31B     		.uleb128 .L360-.LFB1181
 6128 0649 00       		.uleb128 0
 6129 064a 9A19     		.uleb128 .LEHB264-.LFB1181
 6130 064c 3E       		.uleb128 .LEHE264-.LEHB264
 6131 064d E219     		.uleb128 .L381-.LFB1181
 6132 064f 00       		.uleb128 0
 6133 0650 D819     		.uleb128 .LEHB265-.LFB1181
 6134 0652 05       		.uleb128 .LEHE265-.LEHB265
 6135 0653 A31B     		.uleb128 .L360-.LFB1181
 6136 0655 00       		.uleb128 0
 6137 0656 F719     		.uleb128 .LEHB266-.LFB1181
 6138 0658 3E       		.uleb128 .LEHE266-.LEHB266
 6139 0659 BF1A     		.uleb128 .L383-.LFB1181
 6140 065b 00       		.uleb128 0
 6141 065c B51A     		.uleb128 .LEHB267-.LFB1181
 6142 065e 05       		.uleb128 .LEHE267-.LEHB267
 6143 065f A31B     		.uleb128 .L360-.LFB1181
 6144 0661 00       		.uleb128 0
 6145 0662 D11A     		.uleb128 .LEHB268-.LFB1181
 6146 0664 3E       		.uleb128 .LEHE268-.LEHB268
 6147 0665 991B     		.uleb128 .L385-.LFB1181
 6148 0667 00       		.uleb128 0
 6149 0668 8F1B     		.uleb128 .LEHB269-.LFB1181
 6150 066a 05       		.uleb128 .LEHE269-.LEHB269
 6151 066b A31B     		.uleb128 .L360-.LFB1181
 6152 066d 00       		.uleb128 0
 6153 066e CF1B     		.uleb128 .LEHB270-.LFB1181
 6154 0670 05       		.uleb128 .LEHE270-.LEHB270
 6155 0671 00       		.uleb128 0
 6156 0672 00       		.uleb128 0
 6157              	.LLSDACSE1181:
 6158 0673 01       		.byte	0x1
 6159 0674 00       		.byte	0
 6160 0675 000000   		.align 4
 6161 0678 00000000 		.long	0
 6162              	
 6163              	.LLSDATT1181:
 6164              		.text
 6166              		.section	.rodata
 6167              	.LC52:
 6168 08c7 48657849 		.string	"HexIO_testRoundTrip"
 6168      4F5F7465 
 6168      7374526F 
 6168      756E6454 
 6168      72697000 
 6169              		.section	.text._ZN23TestHexIO_testRoundTripC2Ev,"axG",@progbits,_ZN23TestHexIO_testRoundTripC5Ev,c
 6170              		.align 2
 6171              		.weak	_ZN23TestHexIO_testRoundTripC2Ev
 6173              	_ZN23TestHexIO_testRoundTripC2Ev:
 6174              	.LFB1183:
 241:testHexIO.cpp **** 
 242:testHexIO.cpp **** TEST(HexIO_testRoundTrip) {
 6175              		.loc 4 242 0
 6176              		.cfi_startproc
 6177 0000 55       		pushq	%rbp
 6178              		.cfi_def_cfa_offset 16
 6179              		.cfi_offset 6, -16
 6180 0001 4889E5   		movq	%rsp, %rbp
 6181              		.cfi_def_cfa_register 6
 6182 0004 4883EC10 		subq	$16, %rsp
 6183 0008 48897DF8 		movq	%rdi, -8(%rbp)
 6184              	.LBB15:
 6185              		.loc 4 242 0
 6186 000c E8000000 		call	_ZN13UnitTestSuite12GetSuiteNameEv
 6186      00
 6187 0011 4889C2   		movq	%rax, %rdx
 6188 0014 488B45F8 		movq	-8(%rbp), %rax
 6189 0018 41B8F200 		movl	$242, %r8d
 6189      0000
 6190 001e B9000000 		movl	$.LC1, %ecx
 6190      00
 6191 0023 BE000000 		movl	$.LC52, %esi
 6191      00
 6192 0028 4889C7   		movq	%rax, %rdi
 6193 002b E8000000 		call	_ZN8UnitTest4TestC2EPKcS2_S2_i
 6193      00
 6194 0030 BA000000 		movl	$_ZTV23TestHexIO_testRoundTrip+16, %edx
 6194      00
 6195 0035 488B45F8 		movq	-8(%rbp), %rax
 6196 0039 488910   		movq	%rdx, (%rax)
 6197              	.LBE15:
 6198 003c 90       		nop
 6199 003d C9       		leave
 6200              		.cfi_def_cfa 7, 8
 6201 003e C3       		ret
 6202              		.cfi_endproc
 6203              	.LFE1183:
 6205              		.weak	_ZN23TestHexIO_testRoundTripC1Ev
 6206              		.set	_ZN23TestHexIO_testRoundTripC1Ev,_ZN23TestHexIO_testRoundTripC2Ev
 6207              		.globl	testHexIO_testRoundTripInstance
 6208              		.bss
 6209 02b9 00000000 		.align 32
 6209      000000
 6212              	testHexIO_testRoundTripInstance:
 6213 02c0 00000000 		.zero	56
 6213      00000000 
 6213      00000000 
 6213      00000000 
 6213      00000000 
 6214              		.globl	adderHexIO_testRoundTrip
 6217              	adderHexIO_testRoundTrip:
 6218 02f8 00       		.zero	1
 6219              		.section	.rodata
 6220              	.LC53:
 6221 08db 3A303631 		.string	":061270000895F894FFCF81"
 6221      32373030 
 6221      30303839 
 6221      35463839 
 6221      34464643 
 6222 08f3 00000000 		.align 8
 6222      00
 6223              	.LC54:
 6224 08f8 3A313031 		.string	":10126000E80083FF01C03DDC17701093E9001F9177"
 6224      32363030 
 6224      30453830 
 6224      30383346 
 6224      46303143 
 6225 0924 00000000 		.align 8
 6226              	.LC55:
 6227 0928 3A313031 		.string	":101250000801882361F01091E9001092E900809163"
 6227      32353030 
 6227      30303830 
 6227      31383832 
 6227      33363146 
 6228 0954 00000000 		.align 8
 6229              	.LC56:
 6230 0958 3A313031 		.string	":10121000E10082FF0AC08091E20082FF06C0809157"
 6230      32313030 
 6230      30453130 
 6230      30383246 
 6230      46304143 
 6231 0984 00000000 		.align 8
 6232              	.LC57:
 6233 0988 3A313031 		.string	":10120000E200A5DD80E060E042E18EDD71DF8091EB"
 6233      32303030 
 6233      30453230 
 6233      30413544 
 6233      44383045 
 6234 09b4 00000000 		.align 8
 6235              	.LC58:
 6236 09b8 3A313031 		.string	":1011F000E2008E7F8093E2008091E2008061809324"
 6236      31463030 
 6236      30453230 
 6236      30384537 
 6236      46383039 
 6237              	.LC59:
 6238 09e4 3A303631 		.string	":061220000895F894FFCFD1"
 6238      32323030 
 6238      30303839 
 6238      35463839 
 6238      34464643 
 6239              	.LC60:
 6240 09fc 3A303130 		.string	":0100CF00CF61"
 6240      30434630 
 6240      30434636 
 6240      3100
 6241 0a0a 00000000 		.align 8
 6241      0000
 6242              	.LC61:
 6243 0a10 3A304530 		.string	":0E00C00085BF889585B78F7D85BFF8CFF894F2"
 6243      30433030 
 6243      30383542 
 6243      46383839 
 6243      35383542 
 6244              		.align 8
 6245              	.LC62:
 6246 0a38 3A313030 		.string	":1000B0009BBD8ABD89B7806489BF789485B780620B"
 6246      30423030 
 6246      30394242 
 6246      44384142 
 6246      44383942 
 6247 0a64 00000000 		.align 8
 6248              	.LC63:
 6249 0a68 3A313030 		.string	":1000A00018958FEF8ABB1FBC8DE08EBD89E09DE364"
 6249      30413030 
 6249      30313839 
 6249      35384645 
 6249      46384142 
 6250 0a94 00000000 		.align 8
 6251              	.LC64:
 6252 0a98 3A313030 		.string	":1000B0009BBD8ABD89B7FFFFFFFFFF9485B78062B4"
 6252      30423030 
 6252      30394242 
 6252      44384142 
 6252      44383942 
 6253 0ac4 00000000 		.align 8
 6254              	.LC65:
 6255 0ac8 3A313030 		.string	":10001000BEBAFECA6E3B8209D926430DADDEADDE07"
 6255      30313030 
 6255      30424542 
 6255      41464543 
 6255      41364533 
 6256 0af4 00000000 		.align 8
 6257              	.LC66:
 6258 0af8 3A313030 		.string	":10000000BEBAFECA6E3B8209D926430DADDEADDE17"
 6258      30303030 
 6258      30424542 
 6258      41464543 
 6258      41364533 
 6259              	.LC67:
 6260 0b24 3A303230 		.string	":020000021000EC"
 6260      30303030 
 6260      32313030 
 6260      30454300 
 6261 0b34 00000000 		.align 8
 6262              	.LC68:
 6263 0b38 3A313046 		.string	":10FFF000BEBAFECA6E3B8209D926430DADDEADDE28"
 6263      46463030 
 6263      30424542 
 6263      41464543 
 6263      41364533 
 6264 0b64 00000000 		.align 8
 6265              	.LC69:
 6266 0b68 3A313046 		.string	":10FFE000BEBAFECA6E3B8209D926430DADDEADDE38"
 6266      46453030 
 6266      30424542 
 6266      41464543 
 6266      41364533 
 6267              		.text
 6268 2b43 90       		.align 2
 6269              		.globl	_ZNK23TestHexIO_testRoundTrip7RunImplEv
 6271              	_ZNK23TestHexIO_testRoundTrip7RunImplEv:
 6272              	.LFB1185:
 6273              		.loc 4 242 0
 6274              		.cfi_startproc
 6275 2b44 55       		pushq	%rbp
 6276              		.cfi_def_cfa_offset 16
 6277              		.cfi_offset 6, -16
 6278 2b45 4889E5   		movq	%rsp, %rbp
 6279              		.cfi_def_cfa_register 6
 6280 2b48 4883EC10 		subq	$16, %rsp
 6281 2b4c 48897DF8 		movq	%rdi, -8(%rbp)
 243:testHexIO.cpp **** 	testRoundTrip(
 244:testHexIO.cpp **** 		":1011F000E2008E7F8093E2008091E2008061809324",
 245:testHexIO.cpp **** 		":10120000E200A5DD80E060E042E18EDD71DF8091EB",
 246:testHexIO.cpp **** 		":10121000E10082FF0AC08091E20082FF06C0809157",
 247:testHexIO.cpp **** 		":101250000801882361F01091E9001092E900809163",
 248:testHexIO.cpp **** 		":10126000E80083FF01C03DDC17701093E9001F9177",
 249:testHexIO.cpp **** 		":061270000895F894FFCF81",
 250:testHexIO.cpp **** 		NULL);
 6282              		.loc 4 250 0
 6283 2b50 4883EC08 		subq	$8, %rsp
 6284 2b54 6A00     		pushq	$0
 6285 2b56 41B90000 		movl	$.LC53, %r9d
 6285      0000
 6286 2b5c 41B80000 		movl	$.LC54, %r8d
 6286      0000
 6287 2b62 B9000000 		movl	$.LC55, %ecx
 6287      00
 6288 2b67 BA000000 		movl	$.LC56, %edx
 6288      00
 6289 2b6c BE000000 		movl	$.LC57, %esi
 6289      00
 6290 2b71 BF000000 		movl	$.LC58, %edi
 6290      00
 6291 2b76 B8000000 		movl	$0, %eax
 6291      00
 6292 2b7b E8000000 		call	_Z13testRoundTripPKcz
 6292      00
 6293 2b80 4883C410 		addq	$16, %rsp
 251:testHexIO.cpp **** 	testRoundTrip(
 252:testHexIO.cpp **** 		":1011F000E2008E7F8093E2008091E2008061809324",
 253:testHexIO.cpp **** 		":10120000E200A5DD80E060E042E18EDD71DF8091EB",
 254:testHexIO.cpp **** 		":10121000E10082FF0AC08091E20082FF06C0809157",
 255:testHexIO.cpp **** 		":061220000895F894FFCFD1",
 256:testHexIO.cpp **** 		":101250000801882361F01091E9001092E900809163",
 257:testHexIO.cpp **** 		":10126000E80083FF01C03DDC17701093E9001F9177",
 258:testHexIO.cpp **** 		":061270000895F894FFCF81",
 259:testHexIO.cpp **** 		NULL);
 6294              		.loc 4 259 0
 6295 2b84 6A00     		pushq	$0
 6296 2b86 68000000 		pushq	$.LC53
 6296      00
 6297 2b8b 41B90000 		movl	$.LC54, %r9d
 6297      0000
 6298 2b91 41B80000 		movl	$.LC55, %r8d
 6298      0000
 6299 2b97 B9000000 		movl	$.LC59, %ecx
 6299      00
 6300 2b9c BA000000 		movl	$.LC56, %edx
 6300      00
 6301 2ba1 BE000000 		movl	$.LC57, %esi
 6301      00
 6302 2ba6 BF000000 		movl	$.LC58, %edi
 6302      00
 6303 2bab B8000000 		movl	$0, %eax
 6303      00
 6304 2bb0 E8000000 		call	_Z13testRoundTripPKcz
 6304      00
 6305 2bb5 4883C410 		addq	$16, %rsp
 260:testHexIO.cpp **** 	testRoundTrip(
 261:testHexIO.cpp **** 		":1000A00018958FEF8ABB1FBC8DE08EBD89E09DE364",
 262:testHexIO.cpp **** 		":1000B0009BBD8ABD89B7806489BF789485B780620B",
 263:testHexIO.cpp **** 		":0E00C00085BF889585B78F7D85BFF8CFF894F2",
 264:testHexIO.cpp **** 		":0100CF00CF61",
 265:testHexIO.cpp **** 		NULL);
 6306              		.loc 4 265 0
 6307 2bb9 41B80000 		movl	$0, %r8d
 6307      0000
 6308 2bbf B9000000 		movl	$.LC60, %ecx
 6308      00
 6309 2bc4 BA000000 		movl	$.LC61, %edx
 6309      00
 6310 2bc9 BE000000 		movl	$.LC62, %esi
 6310      00
 6311 2bce BF000000 		movl	$.LC63, %edi
 6311      00
 6312 2bd3 B8000000 		movl	$0, %eax
 6312      00
 6313 2bd8 E8000000 		call	_Z13testRoundTripPKcz
 6313      00
 266:testHexIO.cpp **** 	testRoundTrip(
 267:testHexIO.cpp **** 		":1000B0009BBD8ABD89B7FFFFFFFFFF9485B78062B4",
 268:testHexIO.cpp **** 		NULL);
 6314              		.loc 4 268 0
 6315 2bdd BE000000 		movl	$0, %esi
 6315      00
 6316 2be2 BF000000 		movl	$.LC64, %edi
 6316      00
 6317 2be7 B8000000 		movl	$0, %eax
 6317      00
 6318 2bec E8000000 		call	_Z13testRoundTripPKcz
 6318      00
 269:testHexIO.cpp **** 	testRoundTrip(
 270:testHexIO.cpp **** 		":10FFE000BEBAFECA6E3B8209D926430DADDEADDE38",
 271:testHexIO.cpp **** 		":10FFF000BEBAFECA6E3B8209D926430DADDEADDE28",
 272:testHexIO.cpp **** 		":020000021000EC",
 273:testHexIO.cpp **** 		":10000000BEBAFECA6E3B8209D926430DADDEADDE17",
 274:testHexIO.cpp **** 		":10001000BEBAFECA6E3B8209D926430DADDEADDE07",
 275:testHexIO.cpp **** 		NULL);
 6319              		.loc 4 275 0
 6320 2bf1 41B90000 		movl	$0, %r9d
 6320      0000
 6321 2bf7 41B80000 		movl	$.LC65, %r8d
 6321      0000
 6322 2bfd B9000000 		movl	$.LC66, %ecx
 6322      00
 6323 2c02 BA000000 		movl	$.LC67, %edx
 6323      00
 6324 2c07 BE000000 		movl	$.LC68, %esi
 6324      00
 6325 2c0c BF000000 		movl	$.LC69, %edi
 6325      00
 6326 2c11 B8000000 		movl	$0, %eax
 6326      00
 6327 2c16 E8000000 		call	_Z13testRoundTripPKcz
 6327      00
 276:testHexIO.cpp **** 	}
 6328              		.loc 4 276 0
 6329 2c1b 90       		nop
 6330 2c1c C9       		leave
 6331              		.cfi_def_cfa 7, 8
 6332 2c1d C3       		ret
 6333              		.cfi_endproc
 6334              	.LFE1185:
 6336              		.section	.rodata
 6337 0b94 00000000 		.align 8
 6338              	.LC70:
 6339 0b98 556E6861 		.string	"Unhandled exception in CHECK_EQUAL(data.length, mask.length)"
 6339      6E646C65 
 6339      64206578 
 6339      63657074 
 6339      696F6E20 
 6340 0bd5 000000   		.align 8
 6341              	.LC71:
 6342 0bd8 556E6861 		.string	"Unhandled exception in CHECK_ARRAY_EQUAL(expectedWriteMap, mask.data)"
 6342      6E646C65 
 6342      64206578 
 6342      63657074 
 6342      696F6E20 
 6343              		.text
 6344              		.globl	_Z18testDeriveWriteMapPKcS0_
 6346              	_Z18testDeriveWriteMapPKcS0_:
 6347              	.LFB1186:
 277:testHexIO.cpp **** 
 278:testHexIO.cpp **** 
 279:testHexIO.cpp **** void testDeriveWriteMap(const char *inputData, const char *expectedWriteMap) {
 6348              		.loc 4 279 0
 6349              		.cfi_startproc
 6350              		.cfi_personality 0x3,__gxx_personality_v0
 6351              		.cfi_lsda 0x3,.LLSDA1186
 6352 2c1e 55       		pushq	%rbp
 6353              		.cfi_def_cfa_offset 16
 6354              		.cfi_offset 6, -16
 6355 2c1f 4889E5   		movq	%rsp, %rbp
 6356              		.cfi_def_cfa_register 6
 6357 2c22 53       		pushq	%rbx
 6358 2c23 4881EC98 		subq	$152, %rsp
 6358      000000
 6359              		.cfi_offset 3, -24
 6360 2c2a 4889BD68 		movq	%rdi, -152(%rbp)
 6360      FFFFFF
 6361 2c31 4889B560 		movq	%rsi, -160(%rbp)
 6361      FFFFFF
 6362              		.loc 4 279 0
 6363 2c38 64488B04 		movq	%fs:40, %rax
 6363      25280000 
 6363      00
 6364 2c41 488945E8 		movq	%rax, -24(%rbp)
 6365 2c45 31C0     		xorl	%eax, %eax
 280:testHexIO.cpp **** 	Buffer data, mask;
 281:testHexIO.cpp **** 	BufferStatus status;
 282:testHexIO.cpp **** 	status = bufInitialise(&data, 1024, '.', NULL);
 6366              		.loc 4 282 0
 6367 2c47 488D4580 		leaq	-128(%rbp), %rax
 6368 2c4b B9000000 		movl	$0, %ecx
 6368      00
 6369 2c50 BA2E0000 		movl	$46, %edx
 6369      00
 6370 2c55 BE000400 		movl	$1024, %esi
 6370      00
 6371 2c5a 4889C7   		movq	%rax, %rdi
 6372              	.LEHB271:
 6373 2c5d E8000000 		call	bufInitialise
 6373      00
 6374              	.LEHE271:
 6375 2c62 898570FF 		movl	%eax, -144(%rbp)
 6375      FFFF
 6376              	.LEHB272:
 283:testHexIO.cpp **** 	CHECK_EQUAL(BUF_SUCCESS, status);
 6377              		.loc 4 283 0
 6378 2c68 E8000000 		call	_ZN8UnitTest11CurrentTest7DetailsEv
 6378      00
 6379 2c6d 488B08   		movq	(%rax), %rcx
 6380 2c70 488D45C0 		leaq	-64(%rbp), %rax
 6381 2c74 BA1B0100 		movl	$283, %edx
 6381      00
 6382 2c79 4889CE   		movq	%rcx, %rsi
 6383 2c7c 4889C7   		movq	%rax, %rdi
 6384 2c7f E8000000 		call	_ZN8UnitTest11TestDetailsC1ERKS0_i
 6384      00
 6385              	.LEHE272:
 6386              		.loc 4 283 0 is_stmt 0 discriminator 2
 6387 2c84 C745A000 		movl	$0, -96(%rbp)
 6387      000000
 6388              	.LEHB273:
 6389 2c8b E8000000 		call	_ZN8UnitTest11CurrentTest7ResultsEv
 6389      00
 6390 2c90 488B00   		movq	(%rax), %rax
 6391 2c93 488D4DC0 		leaq	-64(%rbp), %rcx
 6392 2c97 488D9570 		leaq	-144(%rbp), %rdx
 6392      FFFFFF
 6393 2c9e 488D75A0 		leaq	-96(%rbp), %rsi
 6394 2ca2 4889C7   		movq	%rax, %rdi
 6395 2ca5 E8000000 		call	_ZN8UnitTest10CheckEqualI12BufferStatusS1_EEvRNS_11TestResultsERKT_RKT0_RKNS_11TestDetailsE
 6395      00
 6396              	.LEHE273:
 6397              	.L396:
 284:testHexIO.cpp **** 	status = bufInitialise(&mask, 1024, 0x00, NULL);
 6398              		.loc 4 284 0 is_stmt 1
 6399 2caa 488D45A0 		leaq	-96(%rbp), %rax
 6400 2cae B9000000 		movl	$0, %ecx
 6400      00
 6401 2cb3 BA000000 		movl	$0, %edx
 6401      00
 6402 2cb8 BE000400 		movl	$1024, %esi
 6402      00
 6403 2cbd 4889C7   		movq	%rax, %rdi
 6404              	.LEHB274:
 6405 2cc0 E8000000 		call	bufInitialise
 6405      00
 6406              	.LEHE274:
 6407 2cc5 898570FF 		movl	%eax, -144(%rbp)
 6407      FFFF
 6408              	.LEHB275:
 285:testHexIO.cpp **** 	CHECK_EQUAL(BUF_SUCCESS, status);
 6409              		.loc 4 285 0
 6410 2ccb E8000000 		call	_ZN8UnitTest11CurrentTest7DetailsEv
 6410      00
 6411 2cd0 488B08   		movq	(%rax), %rcx
 6412 2cd3 488D45C0 		leaq	-64(%rbp), %rax
 6413 2cd7 BA1D0100 		movl	$285, %edx
 6413      00
 6414 2cdc 4889CE   		movq	%rcx, %rsi
 6415 2cdf 4889C7   		movq	%rax, %rdi
 6416 2ce2 E8000000 		call	_ZN8UnitTest11TestDetailsC1ERKS0_i
 6416      00
 6417              	.LEHE275:
 6418              		.loc 4 285 0 is_stmt 0 discriminator 2
 6419 2ce7 C78574FF 		movl	$0, -140(%rbp)
 6419      FFFF0000 
 6419      0000
 6420              	.LEHB276:
 6421 2cf1 E8000000 		call	_ZN8UnitTest11CurrentTest7ResultsEv
 6421      00
 6422 2cf6 488B00   		movq	(%rax), %rax
 6423 2cf9 488D4DC0 		leaq	-64(%rbp), %rcx
 6424 2cfd 488D9570 		leaq	-144(%rbp), %rdx
 6424      FFFFFF
 6425 2d04 488DB574 		leaq	-140(%rbp), %rsi
 6425      FFFFFF
 6426 2d0b 4889C7   		movq	%rax, %rdi
 6427 2d0e E8000000 		call	_ZN8UnitTest10CheckEqualI12BufferStatusS1_EEvRNS_11TestResultsERKT_RKT0_RKNS_11TestDetailsE
 6427      00
 6428              	.LEHE276:
 6429              	.L400:
 286:testHexIO.cpp **** 	status = bufWriteBlock(&data, 0x00000000, (const uint8 *)inputData, strlen(inputData), NULL);
 6430              		.loc 4 286 0 is_stmt 1
 6431 2d13 488B8568 		movq	-152(%rbp), %rax
 6431      FFFFFF
 6432 2d1a 4889C7   		movq	%rax, %rdi
 6433 2d1d E8000000 		call	strlen
 6433      00
 6434 2d22 4889C1   		movq	%rax, %rcx
 6435 2d25 488B9568 		movq	-152(%rbp), %rdx
 6435      FFFFFF
 6436 2d2c 488D4580 		leaq	-128(%rbp), %rax
 6437 2d30 41B80000 		movl	$0, %r8d
 6437      0000
 6438 2d36 BE000000 		movl	$0, %esi
 6438      00
 6439 2d3b 4889C7   		movq	%rax, %rdi
 6440              	.LEHB277:
 6441 2d3e E8000000 		call	bufWriteBlock
 6441      00
 6442              	.LEHE277:
 6443 2d43 898570FF 		movl	%eax, -144(%rbp)
 6443      FFFF
 6444              	.LEHB278:
 287:testHexIO.cpp **** 	CHECK_EQUAL(BUF_SUCCESS, status);
 6445              		.loc 4 287 0
 6446 2d49 E8000000 		call	_ZN8UnitTest11CurrentTest7DetailsEv
 6446      00
 6447 2d4e 488B08   		movq	(%rax), %rcx
 6448 2d51 488D45C0 		leaq	-64(%rbp), %rax
 6449 2d55 BA1F0100 		movl	$287, %edx
 6449      00
 6450 2d5a 4889CE   		movq	%rcx, %rsi
 6451 2d5d 4889C7   		movq	%rax, %rdi
 6452 2d60 E8000000 		call	_ZN8UnitTest11TestDetailsC1ERKS0_i
 6452      00
 6453              	.LEHE278:
 6454              		.loc 4 287 0 is_stmt 0 discriminator 2
 6455 2d65 C78574FF 		movl	$0, -140(%rbp)
 6455      FFFF0000 
 6455      0000
 6456              	.LEHB279:
 6457 2d6f E8000000 		call	_ZN8UnitTest11CurrentTest7ResultsEv
 6457      00
 6458 2d74 488B00   		movq	(%rax), %rax
 6459 2d77 488D4DC0 		leaq	-64(%rbp), %rcx
 6460 2d7b 488D9570 		leaq	-144(%rbp), %rdx
 6460      FFFFFF
 6461 2d82 488DB574 		leaq	-140(%rbp), %rsi
 6461      FFFFFF
 6462 2d89 4889C7   		movq	%rax, %rdi
 6463 2d8c E8000000 		call	_ZN8UnitTest10CheckEqualI12BufferStatusS1_EEvRNS_11TestResultsERKT_RKT0_RKNS_11TestDetailsE
 6463      00
 6464              	.LEHE279:
 6465              	.L404:
 288:testHexIO.cpp **** 	status = bufDeriveMask(&data, &mask, NULL);
 6466              		.loc 4 288 0 is_stmt 1
 6467 2d91 488D4DA0 		leaq	-96(%rbp), %rcx
 6468 2d95 488D4580 		leaq	-128(%rbp), %rax
 6469 2d99 BA000000 		movl	$0, %edx
 6469      00
 6470 2d9e 4889CE   		movq	%rcx, %rsi
 6471 2da1 4889C7   		movq	%rax, %rdi
 6472              	.LEHB280:
 6473 2da4 E8000000 		call	bufDeriveMask
 6473      00
 6474              	.LEHE280:
 6475 2da9 898570FF 		movl	%eax, -144(%rbp)
 6475      FFFF
 6476              	.LEHB281:
 289:testHexIO.cpp **** 	CHECK_EQUAL(BUF_SUCCESS, status);
 6477              		.loc 4 289 0
 6478 2daf E8000000 		call	_ZN8UnitTest11CurrentTest7DetailsEv
 6478      00
 6479 2db4 488B08   		movq	(%rax), %rcx
 6480 2db7 488D45C0 		leaq	-64(%rbp), %rax
 6481 2dbb BA210100 		movl	$289, %edx
 6481      00
 6482 2dc0 4889CE   		movq	%rcx, %rsi
 6483 2dc3 4889C7   		movq	%rax, %rdi
 6484 2dc6 E8000000 		call	_ZN8UnitTest11TestDetailsC1ERKS0_i
 6484      00
 6485              	.LEHE281:
 6486              		.loc 4 289 0 is_stmt 0 discriminator 2
 6487 2dcb C78574FF 		movl	$0, -140(%rbp)
 6487      FFFF0000 
 6487      0000
 6488              	.LEHB282:
 6489 2dd5 E8000000 		call	_ZN8UnitTest11CurrentTest7ResultsEv
 6489      00
 6490 2dda 488B00   		movq	(%rax), %rax
 6491 2ddd 488D4DC0 		leaq	-64(%rbp), %rcx
 6492 2de1 488D9570 		leaq	-144(%rbp), %rdx
 6492      FFFFFF
 6493 2de8 488DB574 		leaq	-140(%rbp), %rsi
 6493      FFFFFF
 6494 2def 4889C7   		movq	%rax, %rdi
 6495 2df2 E8000000 		call	_ZN8UnitTest10CheckEqualI12BufferStatusS1_EEvRNS_11TestResultsERKT_RKT0_RKNS_11TestDetailsE
 6495      00
 6496              	.LEHE282:
 6497              	.L408:
 6498              	.LEHB283:
 290:testHexIO.cpp **** 	CHECK_EQUAL(data.length, mask.length);
 6499              		.loc 4 290 0 is_stmt 1
 6500 2df7 E8000000 		call	_ZN8UnitTest11CurrentTest7DetailsEv
 6500      00
 6501 2dfc 488B08   		movq	(%rax), %rcx
 6502 2dff 488D45C0 		leaq	-64(%rbp), %rax
 6503 2e03 BA220100 		movl	$290, %edx
 6503      00
 6504 2e08 4889CE   		movq	%rcx, %rsi
 6505 2e0b 4889C7   		movq	%rax, %rdi
 6506 2e0e E8000000 		call	_ZN8UnitTest11TestDetailsC1ERKS0_i
 6506      00
 6507              		.loc 4 290 0 is_stmt 0 discriminator 2
 6508 2e13 E8000000 		call	_ZN8UnitTest11CurrentTest7ResultsEv
 6508      00
 6509 2e18 488B00   		movq	(%rax), %rax
 6510 2e1b 488D55C0 		leaq	-64(%rbp), %rdx
 6511 2e1f 488D4DA0 		leaq	-96(%rbp), %rcx
 6512 2e23 488D7908 		leaq	8(%rcx), %rdi
 6513 2e27 488D4D80 		leaq	-128(%rbp), %rcx
 6514 2e2b 488D7108 		leaq	8(%rcx), %rsi
 6515 2e2f 4889D1   		movq	%rdx, %rcx
 6516 2e32 4889FA   		movq	%rdi, %rdx
 6517 2e35 4889C7   		movq	%rax, %rdi
 6518 2e38 E8000000 		call	_ZN8UnitTest10CheckEqualImmEEvRNS_11TestResultsERKT_RKT0_RKNS_11TestDetailsE
 6518      00
 6519              	.LEHE283:
 6520              	.L411:
 6521              	.LBB16:
 291:testHexIO.cpp **** 	for ( size_t i = 0; i < mask.length; i++ ) {
 6522              		.loc 4 291 0 is_stmt 1
 6523 2e3d 48C78578 		movq	$0, -136(%rbp)
 6523      FFFFFF00 
 6523      000000
 6524              	.L393:
 6525              		.loc 4 291 0 is_stmt 0 discriminator 1
 6526 2e48 488B45A8 		movq	-88(%rbp), %rax
 6527 2e4c 483B8578 		cmpq	-136(%rbp), %rax
 6527      FFFFFF
 6528 2e53 7643     		jbe	.L390
 292:testHexIO.cpp **** 		if ( mask.data[i] ) {
 6529              		.loc 4 292 0 is_stmt 1
 6530 2e55 488B55A0 		movq	-96(%rbp), %rdx
 6531 2e59 488B8578 		movq	-136(%rbp), %rax
 6531      FFFFFF
 6532 2e60 4801D0   		addq	%rdx, %rax
 6533 2e63 0FB600   		movzbl	(%rax), %eax
 6534 2e66 84C0     		testb	%al, %al
 6535 2e68 7413     		je	.L391
 293:testHexIO.cpp **** 			mask.data[i] = '*';
 6536              		.loc 4 293 0
 6537 2e6a 488B55A0 		movq	-96(%rbp), %rdx
 6538 2e6e 488B8578 		movq	-136(%rbp), %rax
 6538      FFFFFF
 6539 2e75 4801D0   		addq	%rdx, %rax
 6540 2e78 C6002A   		movb	$42, (%rax)
 6541 2e7b EB11     		jmp	.L392
 6542              	.L391:
 294:testHexIO.cpp **** 		} else {
 295:testHexIO.cpp **** 			mask.data[i] = '.';
 6543              		.loc 4 295 0
 6544 2e7d 488B55A0 		movq	-96(%rbp), %rdx
 6545 2e81 488B8578 		movq	-136(%rbp), %rax
 6545      FFFFFF
 6546 2e88 4801D0   		addq	%rdx, %rax
 6547 2e8b C6002E   		movb	$46, (%rax)
 6548              	.L392:
 291:testHexIO.cpp **** 		if ( mask.data[i] ) {
 6549              		.loc 4 291 0 discriminator 2
 6550 2e8e 48838578 		addq	$1, -136(%rbp)
 6550      FFFFFF01 
 6551 2e96 EBB0     		jmp	.L393
 6552              	.L390:
 6553              	.LEHB284:
 6554              	.LBE16:
 296:testHexIO.cpp **** 		}
 297:testHexIO.cpp **** 	}
 298:testHexIO.cpp **** 	CHECK_ARRAY_EQUAL(expectedWriteMap, mask.data, (int)mask.length);
 6555              		.loc 4 298 0
 6556 2e98 E8000000 		call	_ZN8UnitTest11CurrentTest7DetailsEv
 6556      00
 6557 2e9d 488B08   		movq	(%rax), %rcx
 6558 2ea0 488D45C0 		leaq	-64(%rbp), %rax
 6559 2ea4 BA2A0100 		movl	$298, %edx
 6559      00
 6560 2ea9 4889CE   		movq	%rcx, %rsi
 6561 2eac 4889C7   		movq	%rax, %rdi
 6562 2eaf E8000000 		call	_ZN8UnitTest11TestDetailsC1ERKS0_i
 6562      00
 6563              		.loc 4 298 0 is_stmt 0 discriminator 2
 6564 2eb4 488B45A8 		movq	-88(%rbp), %rax
 6565 2eb8 89C3     		movl	%eax, %ebx
 6566 2eba E8000000 		call	_ZN8UnitTest11CurrentTest7ResultsEv
 6566      00
 6567 2ebf 488B00   		movq	(%rax), %rax
 6568 2ec2 488D4DC0 		leaq	-64(%rbp), %rcx
 6569 2ec6 488D55A0 		leaq	-96(%rbp), %rdx
 6570 2eca 488DB560 		leaq	-160(%rbp), %rsi
 6570      FFFFFF
 6571 2ed1 4989C8   		movq	%rcx, %r8
 6572 2ed4 89D9     		movl	%ebx, %ecx
 6573 2ed6 4889C7   		movq	%rax, %rdi
 6574 2ed9 E8000000 		call	_ZN8UnitTest15CheckArrayEqualIPKcPhEEvRNS_11TestResultsERKT_RKT0_iRKNS_11TestDetailsE
 6574      00
 6575              	.LEHE284:
 6576              	.L414:
 299:testHexIO.cpp **** 	bufDestroy(&data);
 6577              		.loc 4 299 0 is_stmt 1
 6578 2ede 488D4580 		leaq	-128(%rbp), %rax
 6579 2ee2 4889C7   		movq	%rax, %rdi
 6580              	.LEHB285:
 6581 2ee5 E8000000 		call	bufDestroy
 6581      00
 300:testHexIO.cpp **** 	bufDestroy(&mask);
 6582              		.loc 4 300 0
 6583 2eea 488D45A0 		leaq	-96(%rbp), %rax
 6584 2eee 4889C7   		movq	%rax, %rdi
 6585 2ef1 E8000000 		call	bufDestroy
 6585      00
 6586              	.LEHE285:
 301:testHexIO.cpp **** }
 6587              		.loc 4 301 0
 6588 2ef6 90       		nop
 6589 2ef7 488B45E8 		movq	-24(%rbp), %rax
 6590 2efb 64483304 		xorq	%fs:40, %rax
 6590      25280000 
 6590      00
 6591 2f04 0F844002 		je	.L416
 6591      0000
 6592 2f0a E9360200 		jmp	.L433
 6592      00
 6593              	.L418:
 6594 2f0f EB00     		jmp	.L395
 6595              	.L417:
 6596              	.L395:
 283:testHexIO.cpp **** 	status = bufInitialise(&mask, 1024, 0x00, NULL);
 6597              		.loc 4 283 0
 6598 2f11 4889C7   		movq	%rax, %rdi
 6599 2f14 E8000000 		call	__cxa_begin_catch
 6599      00
 6600              	.LEHB286:
 6601 2f19 E8000000 		call	_ZN8UnitTest11CurrentTest7DetailsEv
 6601      00
 6602 2f1e 488B08   		movq	(%rax), %rcx
 6603 2f21 488D45C0 		leaq	-64(%rbp), %rax
 6604 2f25 BA1B0100 		movl	$283, %edx
 6604      00
 6605 2f2a 4889CE   		movq	%rcx, %rsi
 6606 2f2d 4889C7   		movq	%rax, %rdi
 6607 2f30 E8000000 		call	_ZN8UnitTest11TestDetailsC1ERKS0_i
 6607      00
 283:testHexIO.cpp **** 	status = bufInitialise(&mask, 1024, 0x00, NULL);
 6608              		.loc 4 283 0 is_stmt 0 discriminator 10
 6609 2f35 E8000000 		call	_ZN8UnitTest11CurrentTest7ResultsEv
 6609      00
 6610 2f3a 488B00   		movq	(%rax), %rax
 6611 2f3d 488D4DC0 		leaq	-64(%rbp), %rcx
 6612 2f41 BA000000 		movl	$.LC4, %edx
 6612      00
 6613 2f46 4889CE   		movq	%rcx, %rsi
 6614 2f49 4889C7   		movq	%rax, %rdi
 6615 2f4c E8000000 		call	_ZN8UnitTest11TestResults13OnTestFailureERKNS_11TestDetailsEPKc
 6615      00
 6616              	.LEHE286:
 6617              	.LEHB287:
 283:testHexIO.cpp **** 	status = bufInitialise(&mask, 1024, 0x00, NULL);
 6618              		.loc 4 283 0 discriminator 14
 6619 2f51 E8000000 		call	__cxa_end_catch
 6619      00
 6620              	.LEHE287:
 6621 2f56 E94FFDFF 		jmp	.L396
 6621      FF
 6622              	.L419:
 6623 2f5b 4889C3   		movq	%rax, %rbx
 283:testHexIO.cpp **** 	status = bufInitialise(&mask, 1024, 0x00, NULL);
 6624              		.loc 4 283 0
 6625 2f5e E8000000 		call	__cxa_end_catch
 6625      00
 6626 2f63 4889D8   		movq	%rbx, %rax
 6627 2f66 4889C7   		movq	%rax, %rdi
 6628              	.LEHB288:
 6629 2f69 E8000000 		call	_Unwind_Resume
 6629      00
 6630              	.LEHE288:
 6631              	.L421:
 6632 2f6e EB00     		jmp	.L399
 6633              	.L420:
 6634              	.L399:
 285:testHexIO.cpp **** 	status = bufWriteBlock(&data, 0x00000000, (const uint8 *)inputData, strlen(inputData), NULL);
 6635              		.loc 4 285 0 is_stmt 1
 6636 2f70 4889C7   		movq	%rax, %rdi
 6637 2f73 E8000000 		call	__cxa_begin_catch
 6637      00
 6638              	.LEHB289:
 6639 2f78 E8000000 		call	_ZN8UnitTest11CurrentTest7DetailsEv
 6639      00
 6640 2f7d 488B08   		movq	(%rax), %rcx
 6641 2f80 488D45C0 		leaq	-64(%rbp), %rax
 6642 2f84 BA1D0100 		movl	$285, %edx
 6642      00
 6643 2f89 4889CE   		movq	%rcx, %rsi
 6644 2f8c 4889C7   		movq	%rax, %rdi
 6645 2f8f E8000000 		call	_ZN8UnitTest11TestDetailsC1ERKS0_i
 6645      00
 285:testHexIO.cpp **** 	status = bufWriteBlock(&data, 0x00000000, (const uint8 *)inputData, strlen(inputData), NULL);
 6646              		.loc 4 285 0 is_stmt 0 discriminator 10
 6647 2f94 E8000000 		call	_ZN8UnitTest11CurrentTest7ResultsEv
 6647      00
 6648 2f99 488B00   		movq	(%rax), %rax
 6649 2f9c 488D4DC0 		leaq	-64(%rbp), %rcx
 6650 2fa0 BA000000 		movl	$.LC4, %edx
 6650      00
 6651 2fa5 4889CE   		movq	%rcx, %rsi
 6652 2fa8 4889C7   		movq	%rax, %rdi
 6653 2fab E8000000 		call	_ZN8UnitTest11TestResults13OnTestFailureERKNS_11TestDetailsEPKc
 6653      00
 6654              	.LEHE289:
 6655              	.LEHB290:
 285:testHexIO.cpp **** 	status = bufWriteBlock(&data, 0x00000000, (const uint8 *)inputData, strlen(inputData), NULL);
 6656              		.loc 4 285 0 discriminator 14
 6657 2fb0 E8000000 		call	__cxa_end_catch
 6657      00
 6658              	.LEHE290:
 6659 2fb5 E959FDFF 		jmp	.L400
 6659      FF
 6660              	.L422:
 6661 2fba 4889C3   		movq	%rax, %rbx
 285:testHexIO.cpp **** 	status = bufWriteBlock(&data, 0x00000000, (const uint8 *)inputData, strlen(inputData), NULL);
 6662              		.loc 4 285 0
 6663 2fbd E8000000 		call	__cxa_end_catch
 6663      00
 6664 2fc2 4889D8   		movq	%rbx, %rax
 6665 2fc5 4889C7   		movq	%rax, %rdi
 6666              	.LEHB291:
 6667 2fc8 E8000000 		call	_Unwind_Resume
 6667      00
 6668              	.LEHE291:
 6669              	.L424:
 6670 2fcd EB00     		jmp	.L403
 6671              	.L423:
 6672              	.L403:
 287:testHexIO.cpp **** 	status = bufDeriveMask(&data, &mask, NULL);
 6673              		.loc 4 287 0 is_stmt 1
 6674 2fcf 4889C7   		movq	%rax, %rdi
 6675 2fd2 E8000000 		call	__cxa_begin_catch
 6675      00
 6676              	.LEHB292:
 6677 2fd7 E8000000 		call	_ZN8UnitTest11CurrentTest7DetailsEv
 6677      00
 6678 2fdc 488B08   		movq	(%rax), %rcx
 6679 2fdf 488D45C0 		leaq	-64(%rbp), %rax
 6680 2fe3 BA1F0100 		movl	$287, %edx
 6680      00
 6681 2fe8 4889CE   		movq	%rcx, %rsi
 6682 2feb 4889C7   		movq	%rax, %rdi
 6683 2fee E8000000 		call	_ZN8UnitTest11TestDetailsC1ERKS0_i
 6683      00
 287:testHexIO.cpp **** 	status = bufDeriveMask(&data, &mask, NULL);
 6684              		.loc 4 287 0 is_stmt 0 discriminator 10
 6685 2ff3 E8000000 		call	_ZN8UnitTest11CurrentTest7ResultsEv
 6685      00
 6686 2ff8 488B00   		movq	(%rax), %rax
 6687 2ffb 488D4DC0 		leaq	-64(%rbp), %rcx
 6688 2fff BA000000 		movl	$.LC4, %edx
 6688      00
 6689 3004 4889CE   		movq	%rcx, %rsi
 6690 3007 4889C7   		movq	%rax, %rdi
 6691 300a E8000000 		call	_ZN8UnitTest11TestResults13OnTestFailureERKNS_11TestDetailsEPKc
 6691      00
 6692              	.LEHE292:
 6693              	.LEHB293:
 287:testHexIO.cpp **** 	status = bufDeriveMask(&data, &mask, NULL);
 6694              		.loc 4 287 0 discriminator 14
 6695 300f E8000000 		call	__cxa_end_catch
 6695      00
 6696              	.LEHE293:
 6697 3014 E978FDFF 		jmp	.L404
 6697      FF
 6698              	.L425:
 6699 3019 4889C3   		movq	%rax, %rbx
 287:testHexIO.cpp **** 	status = bufDeriveMask(&data, &mask, NULL);
 6700              		.loc 4 287 0
 6701 301c E8000000 		call	__cxa_end_catch
 6701      00
 6702 3021 4889D8   		movq	%rbx, %rax
 6703 3024 4889C7   		movq	%rax, %rdi
 6704              	.LEHB294:
 6705 3027 E8000000 		call	_Unwind_Resume
 6705      00
 6706              	.LEHE294:
 6707              	.L427:
 6708 302c EB00     		jmp	.L407
 6709              	.L426:
 6710              	.L407:
 289:testHexIO.cpp **** 	CHECK_EQUAL(data.length, mask.length);
 6711              		.loc 4 289 0 is_stmt 1
 6712 302e 4889C7   		movq	%rax, %rdi
 6713 3031 E8000000 		call	__cxa_begin_catch
 6713      00
 6714              	.LEHB295:
 6715 3036 E8000000 		call	_ZN8UnitTest11CurrentTest7DetailsEv
 6715      00
 6716 303b 488B08   		movq	(%rax), %rcx
 6717 303e 488D45C0 		leaq	-64(%rbp), %rax
 6718 3042 BA210100 		movl	$289, %edx
 6718      00
 6719 3047 4889CE   		movq	%rcx, %rsi
 6720 304a 4889C7   		movq	%rax, %rdi
 6721 304d E8000000 		call	_ZN8UnitTest11TestDetailsC1ERKS0_i
 6721      00
 289:testHexIO.cpp **** 	CHECK_EQUAL(data.length, mask.length);
 6722              		.loc 4 289 0 is_stmt 0 discriminator 10
 6723 3052 E8000000 		call	_ZN8UnitTest11CurrentTest7ResultsEv
 6723      00
 6724 3057 488B00   		movq	(%rax), %rax
 6725 305a 488D4DC0 		leaq	-64(%rbp), %rcx
 6726 305e BA000000 		movl	$.LC4, %edx
 6726      00
 6727 3063 4889CE   		movq	%rcx, %rsi
 6728 3066 4889C7   		movq	%rax, %rdi
 6729 3069 E8000000 		call	_ZN8UnitTest11TestResults13OnTestFailureERKNS_11TestDetailsEPKc
 6729      00
 6730              	.LEHE295:
 6731              	.LEHB296:
 289:testHexIO.cpp **** 	CHECK_EQUAL(data.length, mask.length);
 6732              		.loc 4 289 0 discriminator 14
 6733 306e E8000000 		call	__cxa_end_catch
 6733      00
 6734              	.LEHE296:
 6735 3073 E97FFDFF 		jmp	.L408
 6735      FF
 6736              	.L428:
 6737 3078 4889C3   		movq	%rax, %rbx
 289:testHexIO.cpp **** 	CHECK_EQUAL(data.length, mask.length);
 6738              		.loc 4 289 0
 6739 307b E8000000 		call	__cxa_end_catch
 6739      00
 6740 3080 4889D8   		movq	%rbx, %rax
 6741 3083 4889C7   		movq	%rax, %rdi
 6742              	.LEHB297:
 6743 3086 E8000000 		call	_Unwind_Resume
 6743      00
 6744              	.LEHE297:
 6745              	.L429:
 290:testHexIO.cpp **** 	for ( size_t i = 0; i < mask.length; i++ ) {
 6746              		.loc 4 290 0 is_stmt 1
 6747 308b 4889C7   		movq	%rax, %rdi
 6748 308e E8000000 		call	__cxa_begin_catch
 6748      00
 6749              	.LEHB298:
 6750 3093 E8000000 		call	_ZN8UnitTest11CurrentTest7DetailsEv
 6750      00
 6751 3098 488B08   		movq	(%rax), %rcx
 6752 309b 488D45C0 		leaq	-64(%rbp), %rax
 6753 309f BA220100 		movl	$290, %edx
 6753      00
 6754 30a4 4889CE   		movq	%rcx, %rsi
 6755 30a7 4889C7   		movq	%rax, %rdi
 6756 30aa E8000000 		call	_ZN8UnitTest11TestDetailsC1ERKS0_i
 6756      00
 290:testHexIO.cpp **** 	for ( size_t i = 0; i < mask.length; i++ ) {
 6757              		.loc 4 290 0 is_stmt 0 discriminator 10
 6758 30af E8000000 		call	_ZN8UnitTest11CurrentTest7ResultsEv
 6758      00
 6759 30b4 488B00   		movq	(%rax), %rax
 6760 30b7 488D4DC0 		leaq	-64(%rbp), %rcx
 6761 30bb BA000000 		movl	$.LC70, %edx
 6761      00
 6762 30c0 4889CE   		movq	%rcx, %rsi
 6763 30c3 4889C7   		movq	%rax, %rdi
 6764 30c6 E8000000 		call	_ZN8UnitTest11TestResults13OnTestFailureERKNS_11TestDetailsEPKc
 6764      00
 6765              	.LEHE298:
 6766              	.LEHB299:
 290:testHexIO.cpp **** 	for ( size_t i = 0; i < mask.length; i++ ) {
 6767              		.loc 4 290 0 discriminator 14
 6768 30cb E8000000 		call	__cxa_end_catch
 6768      00
 6769              	.LEHE299:
 6770 30d0 E968FDFF 		jmp	.L411
 6770      FF
 6771              	.L430:
 6772 30d5 4889C3   		movq	%rax, %rbx
 290:testHexIO.cpp **** 	for ( size_t i = 0; i < mask.length; i++ ) {
 6773              		.loc 4 290 0
 6774 30d8 E8000000 		call	__cxa_end_catch
 6774      00
 6775 30dd 4889D8   		movq	%rbx, %rax
 6776 30e0 4889C7   		movq	%rax, %rdi
 6777              	.LEHB300:
 6778 30e3 E8000000 		call	_Unwind_Resume
 6778      00
 6779              	.LEHE300:
 6780              	.L431:
 298:testHexIO.cpp **** 	bufDestroy(&data);
 6781              		.loc 4 298 0 is_stmt 1
 6782 30e8 4889C7   		movq	%rax, %rdi
 6783 30eb E8000000 		call	__cxa_begin_catch
 6783      00
 6784              	.LEHB301:
 6785 30f0 E8000000 		call	_ZN8UnitTest11CurrentTest7DetailsEv
 6785      00
 6786 30f5 488B08   		movq	(%rax), %rcx
 6787 30f8 488D45C0 		leaq	-64(%rbp), %rax
 6788 30fc BA2A0100 		movl	$298, %edx
 6788      00
 6789 3101 4889CE   		movq	%rcx, %rsi
 6790 3104 4889C7   		movq	%rax, %rdi
 6791 3107 E8000000 		call	_ZN8UnitTest11TestDetailsC1ERKS0_i
 6791      00
 298:testHexIO.cpp **** 	bufDestroy(&data);
 6792              		.loc 4 298 0 is_stmt 0 discriminator 10
 6793 310c E8000000 		call	_ZN8UnitTest11CurrentTest7ResultsEv
 6793      00
 6794 3111 488B00   		movq	(%rax), %rax
 6795 3114 488D4DC0 		leaq	-64(%rbp), %rcx
 6796 3118 BA000000 		movl	$.LC71, %edx
 6796      00
 6797 311d 4889CE   		movq	%rcx, %rsi
 6798 3120 4889C7   		movq	%rax, %rdi
 6799 3123 E8000000 		call	_ZN8UnitTest11TestResults13OnTestFailureERKNS_11TestDetailsEPKc
 6799      00
 6800              	.LEHE301:
 6801              	.LEHB302:
 298:testHexIO.cpp **** 	bufDestroy(&data);
 6802              		.loc 4 298 0 discriminator 14
 6803 3128 E8000000 		call	__cxa_end_catch
 6803      00
 6804              	.LEHE302:
 6805 312d E9ACFDFF 		jmp	.L414
 6805      FF
 6806              	.L432:
 6807 3132 4889C3   		movq	%rax, %rbx
 298:testHexIO.cpp **** 	bufDestroy(&data);
 6808              		.loc 4 298 0
 6809 3135 E8000000 		call	__cxa_end_catch
 6809      00
 6810 313a 4889D8   		movq	%rbx, %rax
 6811 313d 4889C7   		movq	%rax, %rdi
 6812              	.LEHB303:
 6813 3140 E8000000 		call	_Unwind_Resume
 6813      00
 6814              	.LEHE303:
 6815              	.L433:
 6816              		.loc 4 301 0 is_stmt 1
 6817 3145 E8000000 		call	__stack_chk_fail
 6817      00
 6818              	.L416:
 6819 314a 4881C498 		addq	$152, %rsp
 6819      000000
 6820 3151 5B       		popq	%rbx
 6821 3152 5D       		popq	%rbp
 6822              		.cfi_def_cfa 7, 8
 6823 3153 C3       		ret
 6824              		.cfi_endproc
 6825              	.LFE1186:
 6826              		.section	.gcc_except_table
 6827              		.align 4
 6828              	.LLSDA1186:
 6829 067c FF       		.byte	0xff
 6830 067d 03       		.byte	0x3
 6831 067e C001     		.uleb128 .LLSDATT1186-.LLSDATTD1186
 6832              	.LLSDATTD1186:
 6833 0680 01       		.byte	0x1
 6834 0681 B201     		.uleb128 .LLSDACSE1186-.LLSDACSB1186
 6835              	.LLSDACSB1186:
 6836 0683 3F       		.uleb128 .LEHB271-.LFB1186
 6837 0684 05       		.uleb128 .LEHE271-.LEHB271
 6838 0685 00       		.uleb128 0
 6839 0686 00       		.uleb128 0
 6840 0687 4A       		.uleb128 .LEHB272-.LFB1186
 6841 0688 1C       		.uleb128 .LEHE272-.LEHB272
 6842 0689 F305     		.uleb128 .L417-.LFB1186
 6843 068b 01       		.uleb128 0x1
 6844 068c 6D       		.uleb128 .LEHB273-.LFB1186
 6845 068d 1F       		.uleb128 .LEHE273-.LEHB273
 6846 068e F105     		.uleb128 .L418-.LFB1186
 6847 0690 03       		.uleb128 0x3
 6848 0691 A201     		.uleb128 .LEHB274-.LFB1186
 6849 0693 05       		.uleb128 .LEHE274-.LEHB274
 6850 0694 00       		.uleb128 0
 6851 0695 00       		.uleb128 0
 6852 0696 AD01     		.uleb128 .LEHB275-.LFB1186
 6853 0698 1C       		.uleb128 .LEHE275-.LEHB275
 6854 0699 D206     		.uleb128 .L420-.LFB1186
 6855 069b 01       		.uleb128 0x1
 6856 069c D301     		.uleb128 .LEHB276-.LFB1186
 6857 069e 22       		.uleb128 .LEHE276-.LEHB276
 6858 069f D006     		.uleb128 .L421-.LFB1186
 6859 06a1 03       		.uleb128 0x3
 6860 06a2 A002     		.uleb128 .LEHB277-.LFB1186
 6861 06a4 05       		.uleb128 .LEHE277-.LEHB277
 6862 06a5 00       		.uleb128 0
 6863 06a6 00       		.uleb128 0
 6864 06a7 AB02     		.uleb128 .LEHB278-.LFB1186
 6865 06a9 1C       		.uleb128 .LEHE278-.LEHB278
 6866 06aa B107     		.uleb128 .L423-.LFB1186
 6867 06ac 01       		.uleb128 0x1
 6868 06ad D102     		.uleb128 .LEHB279-.LFB1186
 6869 06af 22       		.uleb128 .LEHE279-.LEHB279
 6870 06b0 AF07     		.uleb128 .L424-.LFB1186
 6871 06b2 03       		.uleb128 0x3
 6872 06b3 8603     		.uleb128 .LEHB280-.LFB1186
 6873 06b5 05       		.uleb128 .LEHE280-.LEHB280
 6874 06b6 00       		.uleb128 0
 6875 06b7 00       		.uleb128 0
 6876 06b8 9103     		.uleb128 .LEHB281-.LFB1186
 6877 06ba 1C       		.uleb128 .LEHE281-.LEHB281
 6878 06bb 9008     		.uleb128 .L426-.LFB1186
 6879 06bd 01       		.uleb128 0x1
 6880 06be B703     		.uleb128 .LEHB282-.LFB1186
 6881 06c0 22       		.uleb128 .LEHE282-.LEHB282
 6882 06c1 8E08     		.uleb128 .L427-.LFB1186
 6883 06c3 03       		.uleb128 0x3
 6884 06c4 D903     		.uleb128 .LEHB283-.LFB1186
 6885 06c6 46       		.uleb128 .LEHE283-.LEHB283
 6886 06c7 ED08     		.uleb128 .L429-.LFB1186
 6887 06c9 01       		.uleb128 0x1
 6888 06ca FA04     		.uleb128 .LEHB284-.LFB1186
 6889 06cc 46       		.uleb128 .LEHE284-.LEHB284
 6890 06cd CA09     		.uleb128 .L431-.LFB1186
 6891 06cf 01       		.uleb128 0x1
 6892 06d0 C705     		.uleb128 .LEHB285-.LFB1186
 6893 06d2 11       		.uleb128 .LEHE285-.LEHB285
 6894 06d3 00       		.uleb128 0
 6895 06d4 00       		.uleb128 0
 6896 06d5 FB05     		.uleb128 .LEHB286-.LFB1186
 6897 06d7 38       		.uleb128 .LEHE286-.LEHB286
 6898 06d8 BD06     		.uleb128 .L419-.LFB1186
 6899 06da 00       		.uleb128 0
 6900 06db B306     		.uleb128 .LEHB287-.LFB1186
 6901 06dd 05       		.uleb128 .LEHE287-.LEHB287
 6902 06de 00       		.uleb128 0
 6903 06df 00       		.uleb128 0
 6904 06e0 CB06     		.uleb128 .LEHB288-.LFB1186
 6905 06e2 05       		.uleb128 .LEHE288-.LEHB288
 6906 06e3 00       		.uleb128 0
 6907 06e4 00       		.uleb128 0
 6908 06e5 DA06     		.uleb128 .LEHB289-.LFB1186
 6909 06e7 38       		.uleb128 .LEHE289-.LEHB289
 6910 06e8 9C07     		.uleb128 .L422-.LFB1186
 6911 06ea 00       		.uleb128 0
 6912 06eb 9207     		.uleb128 .LEHB290-.LFB1186
 6913 06ed 05       		.uleb128 .LEHE290-.LEHB290
 6914 06ee 00       		.uleb128 0
 6915 06ef 00       		.uleb128 0
 6916 06f0 AA07     		.uleb128 .LEHB291-.LFB1186
 6917 06f2 05       		.uleb128 .LEHE291-.LEHB291
 6918 06f3 00       		.uleb128 0
 6919 06f4 00       		.uleb128 0
 6920 06f5 B907     		.uleb128 .LEHB292-.LFB1186
 6921 06f7 38       		.uleb128 .LEHE292-.LEHB292
 6922 06f8 FB07     		.uleb128 .L425-.LFB1186
 6923 06fa 00       		.uleb128 0
 6924 06fb F107     		.uleb128 .LEHB293-.LFB1186
 6925 06fd 05       		.uleb128 .LEHE293-.LEHB293
 6926 06fe 00       		.uleb128 0
 6927 06ff 00       		.uleb128 0
 6928 0700 8908     		.uleb128 .LEHB294-.LFB1186
 6929 0702 05       		.uleb128 .LEHE294-.LEHB294
 6930 0703 00       		.uleb128 0
 6931 0704 00       		.uleb128 0
 6932 0705 9808     		.uleb128 .LEHB295-.LFB1186
 6933 0707 38       		.uleb128 .LEHE295-.LEHB295
 6934 0708 DA08     		.uleb128 .L428-.LFB1186
 6935 070a 00       		.uleb128 0
 6936 070b D008     		.uleb128 .LEHB296-.LFB1186
 6937 070d 05       		.uleb128 .LEHE296-.LEHB296
 6938 070e 00       		.uleb128 0
 6939 070f 00       		.uleb128 0
 6940 0710 E808     		.uleb128 .LEHB297-.LFB1186
 6941 0712 05       		.uleb128 .LEHE297-.LEHB297
 6942 0713 00       		.uleb128 0
 6943 0714 00       		.uleb128 0
 6944 0715 F508     		.uleb128 .LEHB298-.LFB1186
 6945 0717 38       		.uleb128 .LEHE298-.LEHB298
 6946 0718 B709     		.uleb128 .L430-.LFB1186
 6947 071a 00       		.uleb128 0
 6948 071b AD09     		.uleb128 .LEHB299-.LFB1186
 6949 071d 05       		.uleb128 .LEHE299-.LEHB299
 6950 071e 00       		.uleb128 0
 6951 071f 00       		.uleb128 0
 6952 0720 C509     		.uleb128 .LEHB300-.LFB1186
 6953 0722 05       		.uleb128 .LEHE300-.LEHB300
 6954 0723 00       		.uleb128 0
 6955 0724 00       		.uleb128 0
 6956 0725 D209     		.uleb128 .LEHB301-.LFB1186
 6957 0727 38       		.uleb128 .LEHE301-.LEHB301
 6958 0728 940A     		.uleb128 .L432-.LFB1186
 6959 072a 00       		.uleb128 0
 6960 072b 8A0A     		.uleb128 .LEHB302-.LFB1186
 6961 072d 05       		.uleb128 .LEHE302-.LEHB302
 6962 072e 00       		.uleb128 0
 6963 072f 00       		.uleb128 0
 6964 0730 A20A     		.uleb128 .LEHB303-.LFB1186
 6965 0732 05       		.uleb128 .LEHE303-.LEHB303
 6966 0733 00       		.uleb128 0
 6967 0734 00       		.uleb128 0
 6968              	.LLSDACSE1186:
 6969 0735 01       		.byte	0x1
 6970 0736 00       		.byte	0
 6971 0737 00       		.byte	0
 6972 0738 7D       		.byte	0x7d
 6973 0739 000000   		.align 4
 6974 073c 00000000 		.long	0
 6975              	
 6976              	.LLSDATT1186:
 6977              		.text
 6979              		.section	.rodata
 6980              	.LC72:
 6981 0c1e 48657849 		.string	"HexIO_testDeriveWriteMap"
 6981      4F5F7465 
 6981      73744465 
 6981      72697665 
 6981      57726974 
 6982              		.section	.text._ZN28TestHexIO_testDeriveWriteMapC2Ev,"axG",@progbits,_ZN28TestHexIO_testDeriveWrit
 6983              		.align 2
 6984              		.weak	_ZN28TestHexIO_testDeriveWriteMapC2Ev
 6986              	_ZN28TestHexIO_testDeriveWriteMapC2Ev:
 6987              	.LFB1188:
 302:testHexIO.cpp **** 
 303:testHexIO.cpp **** TEST(HexIO_testDeriveWriteMap) {
 6988              		.loc 4 303 0
 6989              		.cfi_startproc
 6990 0000 55       		pushq	%rbp
 6991              		.cfi_def_cfa_offset 16
 6992              		.cfi_offset 6, -16
 6993 0001 4889E5   		movq	%rsp, %rbp
 6994              		.cfi_def_cfa_register 6
 6995 0004 4883EC10 		subq	$16, %rsp
 6996 0008 48897DF8 		movq	%rdi, -8(%rbp)
 6997              	.LBB17:
 6998              		.loc 4 303 0
 6999 000c E8000000 		call	_ZN13UnitTestSuite12GetSuiteNameEv
 6999      00
 7000 0011 4889C2   		movq	%rax, %rdx
 7001 0014 488B45F8 		movq	-8(%rbp), %rax
 7002 0018 41B82F01 		movl	$303, %r8d
 7002      0000
 7003 001e B9000000 		movl	$.LC1, %ecx
 7003      00
 7004 0023 BE000000 		movl	$.LC72, %esi
 7004      00
 7005 0028 4889C7   		movq	%rax, %rdi
 7006 002b E8000000 		call	_ZN8UnitTest4TestC2EPKcS2_S2_i
 7006      00
 7007 0030 BA000000 		movl	$_ZTV28TestHexIO_testDeriveWriteMap+16, %edx
 7007      00
 7008 0035 488B45F8 		movq	-8(%rbp), %rax
 7009 0039 488910   		movq	%rdx, (%rax)
 7010              	.LBE17:
 7011 003c 90       		nop
 7012 003d C9       		leave
 7013              		.cfi_def_cfa 7, 8
 7014 003e C3       		ret
 7015              		.cfi_endproc
 7016              	.LFE1188:
 7018              		.weak	_ZN28TestHexIO_testDeriveWriteMapC1Ev
 7019              		.set	_ZN28TestHexIO_testDeriveWriteMapC1Ev,_ZN28TestHexIO_testDeriveWriteMapC2Ev
 7020              		.globl	testHexIO_testDeriveWriteMapInstance
 7021              		.bss
 7022 02f9 00000000 		.align 32
 7022      000000
 7025              	testHexIO_testDeriveWriteMapInstance:
 7026 0300 00000000 		.zero	56
 7026      00000000 
 7026      00000000 
 7026      00000000 
 7026      00000000 
 7027              		.globl	adderHexIO_testDeriveWriteMap
 7030              	adderHexIO_testDeriveWriteMap:
 7031 0338 00       		.zero	1
 7032              		.section	.rodata
 7033              	.LC73:
 7034 0c37 2A2A2A2A 		.string	"*****........*****"
 7034      2A2E2E2E 
 7034      2E2E2E2E 
 7034      2E2A2A2A 
 7034      2A2A00
 7035              	.LC74:
 7036 0c4a 48656C6C 		.string	"Hello........World"
 7036      6F2E2E2E 
 7036      2E2E2E2E 
 7036      2E576F72 
 7036      6C6400
 7037              	.LC75:
 7038 0c5d 2A2A2A2A 		.string	"*****************"
 7038      2A2A2A2A 
 7038      2A2A2A2A 
 7038      2A2A2A2A 
 7038      2A00
 7039              	.LC76:
 7040 0c6f 48656C6C 		.string	"Hello.......World"
 7040      6F2E2E2E 
 7040      2E2E2E2E 
 7040      576F726C 
 7040      6400
 7041              		.text
 7042              		.align 2
 7043              		.globl	_ZNK28TestHexIO_testDeriveWriteMap7RunImplEv
 7045              	_ZNK28TestHexIO_testDeriveWriteMap7RunImplEv:
 7046              	.LFB1190:
 7047              		.loc 4 303 0
 7048              		.cfi_startproc
 7049 3154 55       		pushq	%rbp
 7050              		.cfi_def_cfa_offset 16
 7051              		.cfi_offset 6, -16
 7052 3155 4889E5   		movq	%rsp, %rbp
 7053              		.cfi_def_cfa_register 6
 7054 3158 4883EC10 		subq	$16, %rsp
 7055 315c 48897DF8 		movq	%rdi, -8(%rbp)
 304:testHexIO.cpp **** 	testDeriveWriteMap("Hello........World", "*****........*****");
 7056              		.loc 4 304 0
 7057 3160 BE000000 		movl	$.LC73, %esi
 7057      00
 7058 3165 BF000000 		movl	$.LC74, %edi
 7058      00
 7059 316a E8000000 		call	_Z18testDeriveWriteMapPKcS0_
 7059      00
 305:testHexIO.cpp **** 	testDeriveWriteMap("Hello.......World", "*****************");
 7060              		.loc 4 305 0
 7061 316f BE000000 		movl	$.LC75, %esi
 7061      00
 7062 3174 BF000000 		movl	$.LC76, %edi
 7062      00
 7063 3179 E8000000 		call	_Z18testDeriveWriteMapPKcS0_
 7063      00
 306:testHexIO.cpp **** }
 7064              		.loc 4 306 0
 7065 317e 90       		nop
 7066 317f C9       		leave
 7067              		.cfi_def_cfa 7, 8
 7068 3180 C3       		ret
 7069              		.cfi_endproc
 7070              	.LFE1190:
 7072              		.section	.text._ZN8UnitTest15MemoryOutStreamD1Ev,"axG",@progbits,_ZN8UnitTest15MemoryOutStreamD1Ev
 7073              		.align 2
 7074              		.weak	_ZN8UnitTest15MemoryOutStreamD1Ev
 7076              	_ZN8UnitTest15MemoryOutStreamD1Ev:
 7077              	.LFB1221:
  13:/home/shubham/20140524/makestuff/libs/libutpp/MemoryOutStream.h **** {
 7078              		.loc 3 13 0
 7079              		.cfi_startproc
 7080              		.cfi_personality 0x3,__gxx_personality_v0
 7081              		.cfi_lsda 0x3,.LLSDA1221
 7082 0000 55       		pushq	%rbp
 7083              		.cfi_def_cfa_offset 16
 7084              		.cfi_offset 6, -16
 7085 0001 4889E5   		movq	%rsp, %rbp
 7086              		.cfi_def_cfa_register 6
 7087 0004 53       		pushq	%rbx
 7088 0005 4883EC18 		subq	$24, %rsp
 7089              		.cfi_offset 3, -24
 7090 0009 48897DE8 		movq	%rdi, -24(%rbp)
 7091              	.LBB18:
  13:/home/shubham/20140524/makestuff/libs/libutpp/MemoryOutStream.h **** {
 7092              		.loc 3 13 0
 7093 000d BA000000 		movl	$_ZTVN8UnitTest15MemoryOutStreamE+24, %edx
 7093      00
 7094 0012 488B45E8 		movq	-24(%rbp), %rax
 7095 0016 488910   		movq	%rdx, (%rax)
 7096 0019 BA900000 		movl	$144, %edx
 7096      00
 7097 001e 488B45E8 		movq	-24(%rbp), %rax
 7098 0022 4801D0   		addq	%rdx, %rax
 7099 0025 BA000000 		movl	$_ZTVN8UnitTest15MemoryOutStreamE+64, %edx
 7099      00
 7100 002a 488910   		movq	%rdx, (%rax)
 7101 002d 488B45E8 		movq	-24(%rbp), %rax
 7102 0031 4883C070 		addq	$112, %rax
 7103 0035 4889C7   		movq	%rax, %rdi
 7104              	.LEHB304:
 7105 0038 E8000000 		call	_ZNSt7__cxx1112basic_stringIcSt11char_traitsIcESaIcEED1Ev
 7105      00
 7106              	.LEHE304:
  13:/home/shubham/20140524/makestuff/libs/libutpp/MemoryOutStream.h **** {
 7107              		.loc 3 13 0 is_stmt 0 discriminator 14
 7108 003d BA000000 		movl	$_ZTTN8UnitTest15MemoryOutStreamE+8, %edx
 7108      00
 7109 0042 488B45E8 		movq	-24(%rbp), %rax
 7110 0046 4889D6   		movq	%rdx, %rsi
 7111 0049 4889C7   		movq	%rax, %rdi
 7112              	.LEHB305:
 7113 004c E8000000 		call	_ZNSt7__cxx1119basic_ostringstreamIcSt11char_traitsIcESaIcEED2Ev
 7113      00
 7114              	.LEHE305:
  13:/home/shubham/20140524/makestuff/libs/libutpp/MemoryOutStream.h **** {
 7115              		.loc 3 13 0 discriminator 20
 7116 0051 B8020000 		movl	$2, %eax
 7116      00
 7117 0056 85C0     		testl	%eax, %eax
 7118 0058 7412     		je	.L437
  13:/home/shubham/20140524/makestuff/libs/libutpp/MemoryOutStream.h **** {
 7119              		.loc 3 13 0 discriminator 21
 7120 005a 488B45E8 		movq	-24(%rbp), %rax
 7121 005e 48059000 		addq	$144, %rax
 7121      0000
 7122 0064 4889C7   		movq	%rax, %rdi
 7123              	.LEHB306:
 7124 0067 E8000000 		call	_ZNSt9basic_iosIcSt11char_traitsIcEED2Ev
 7124      00
 7125              	.LEHE306:
 7126              	.L437:
 7127              	.LBE18:
  13:/home/shubham/20140524/makestuff/libs/libutpp/MemoryOutStream.h **** {
 7128              		.loc 3 13 0 discriminator 22
 7129 006c B8000000 		movl	$0, %eax
 7129      00
 7130 0071 85C0     		testl	%eax, %eax
 7131 0073 7450     		je	.L436
  13:/home/shubham/20140524/makestuff/libs/libutpp/MemoryOutStream.h **** {
 7132              		.loc 3 13 0 discriminator 25
 7133 0075 488B45E8 		movq	-24(%rbp), %rax
 7134 0079 4889C7   		movq	%rax, %rdi
 7135 007c E8000000 		call	_ZdlPv
 7135      00
 7136 0081 EB42     		jmp	.L436
 7137              	.L442:
 7138 0083 4889C3   		movq	%rax, %rbx
 7139              	.LBB19:
  13:/home/shubham/20140524/makestuff/libs/libutpp/MemoryOutStream.h **** {
 7140              		.loc 3 13 0
 7141 0086 BA000000 		movl	$_ZTTN8UnitTest15MemoryOutStreamE+8, %edx
 7141      00
 7142 008b 488B45E8 		movq	-24(%rbp), %rax
 7143 008f 4889D6   		movq	%rdx, %rsi
 7144 0092 4889C7   		movq	%rax, %rdi
 7145 0095 E8000000 		call	_ZNSt7__cxx1119basic_ostringstreamIcSt11char_traitsIcESaIcEED2Ev
 7145      00
 7146 009a EB03     		jmp	.L440
 7147              	.L443:
 7148 009c 4889C3   		movq	%rax, %rbx
 7149              	.L440:
  13:/home/shubham/20140524/makestuff/libs/libutpp/MemoryOutStream.h **** {
 7150              		.loc 3 13 0 discriminator 19
 7151 009f B8020000 		movl	$2, %eax
 7151      00
 7152 00a4 85C0     		testl	%eax, %eax
 7153 00a6 7412     		je	.L441
  13:/home/shubham/20140524/makestuff/libs/libutpp/MemoryOutStream.h **** {
 7154              		.loc 3 13 0 discriminator 32
 7155 00a8 488B45E8 		movq	-24(%rbp), %rax
 7156 00ac 48059000 		addq	$144, %rax
 7156      0000
 7157 00b2 4889C7   		movq	%rax, %rdi
 7158 00b5 E8000000 		call	_ZNSt9basic_iosIcSt11char_traitsIcEED2Ev
 7158      00
 7159              	.L441:
 7160 00ba 4889D8   		movq	%rbx, %rax
 7161 00bd 4889C7   		movq	%rax, %rdi
 7162              	.LEHB307:
 7163 00c0 E8000000 		call	_Unwind_Resume
 7163      00
 7164              	.LEHE307:
 7165              	.L436:
 7166              	.LBE19:
  13:/home/shubham/20140524/makestuff/libs/libutpp/MemoryOutStream.h **** {
 7167              		.loc 3 13 0
 7168 00c5 4883C418 		addq	$24, %rsp
 7169 00c9 5B       		popq	%rbx
 7170 00ca 5D       		popq	%rbp
 7171              		.cfi_def_cfa 7, 8
 7172 00cb C3       		ret
 7173              		.cfi_endproc
 7174              	.LFE1221:
 7175              		.section	.gcc_except_table
 7176              	.LLSDA1221:
 7177 0740 FF       		.byte	0xff
 7178 0741 FF       		.byte	0xff
 7179 0742 01       		.byte	0x1
 7180 0743 13       		.uleb128 .LLSDACSE1221-.LLSDACSB1221
 7181              	.LLSDACSB1221:
 7182 0744 38       		.uleb128 .LEHB304-.LFB1221
 7183 0745 05       		.uleb128 .LEHE304-.LEHB304
 7184 0746 8301     		.uleb128 .L442-.LFB1221
 7185 0748 00       		.uleb128 0
 7186 0749 4C       		.uleb128 .LEHB305-.LFB1221
 7187 074a 05       		.uleb128 .LEHE305-.LEHB305
 7188 074b 9C01     		.uleb128 .L443-.LFB1221
 7189 074d 00       		.uleb128 0
 7190 074e 67       		.uleb128 .LEHB306-.LFB1221
 7191 074f 05       		.uleb128 .LEHE306-.LEHB306
 7192 0750 00       		.uleb128 0
 7193 0751 00       		.uleb128 0
 7194 0752 C001     		.uleb128 .LEHB307-.LFB1221
 7195 0754 05       		.uleb128 .LEHE307-.LEHB307
 7196 0755 00       		.uleb128 0
 7197 0756 00       		.uleb128 0
 7198              	.LLSDACSE1221:
 7199              		.section	.text._ZN8UnitTest15MemoryOutStreamD1Ev,"axG",@progbits,_ZN8UnitTest15MemoryOutStreamD1Ev
 7201              		.set	.LTHUNK0,_ZN8UnitTest15MemoryOutStreamD1Ev
 7202              		.weak	_ZTv0_n24_N8UnitTest15MemoryOutStreamD1Ev
 7204              	_ZTv0_n24_N8UnitTest15MemoryOutStreamD1Ev:
 7205              	.LFB1376:
  13:/home/shubham/20140524/makestuff/libs/libutpp/MemoryOutStream.h **** {
 7206              		.loc 3 13 0 is_stmt 1
 7207              		.cfi_startproc
 7208 00cc 4C8B17   		movq	(%rdi), %r10
 7209 00cf 49037AE8 		addq	-24(%r10), %rdi
 7210 00d3 E928FFFF 		jmp	.LTHUNK0
 7210      FF
 7211              		.cfi_endproc
 7212              	.LFE1376:
 7214              		.section	.text._ZN8UnitTest15MemoryOutStreamD0Ev,"axG",@progbits,_ZN8UnitTest15MemoryOutStreamD0Ev
 7215              		.align 2
 7216              		.weak	_ZN8UnitTest15MemoryOutStreamD0Ev
 7218              	_ZN8UnitTest15MemoryOutStreamD0Ev:
 7219              	.LFB1222:
  13:/home/shubham/20140524/makestuff/libs/libutpp/MemoryOutStream.h **** {
 7220              		.loc 3 13 0
 7221              		.cfi_startproc
 7222 0000 55       		pushq	%rbp
 7223              		.cfi_def_cfa_offset 16
 7224              		.cfi_offset 6, -16
 7225 0001 4889E5   		movq	%rsp, %rbp
 7226              		.cfi_def_cfa_register 6
 7227 0004 4883EC10 		subq	$16, %rsp
 7228 0008 48897DF8 		movq	%rdi, -8(%rbp)
  13:/home/shubham/20140524/makestuff/libs/libutpp/MemoryOutStream.h **** {
 7229              		.loc 3 13 0
 7230 000c 488B45F8 		movq	-8(%rbp), %rax
 7231 0010 4889C7   		movq	%rax, %rdi
 7232 0013 E8000000 		call	_ZN8UnitTest15MemoryOutStreamD1Ev
 7232      00
 7233 0018 488B45F8 		movq	-8(%rbp), %rax
 7234 001c 4889C7   		movq	%rax, %rdi
 7235 001f E8000000 		call	_ZdlPv
 7235      00
 7236 0024 C9       		leave
 7237              		.cfi_def_cfa 7, 8
 7238 0025 C3       		ret
 7239              		.cfi_endproc
 7240              	.LFE1222:
 7242              		.set	.LTHUNK1,_ZN8UnitTest15MemoryOutStreamD0Ev
 7243              		.weak	_ZTv0_n24_N8UnitTest15MemoryOutStreamD0Ev
 7245              	_ZTv0_n24_N8UnitTest15MemoryOutStreamD0Ev:
 7246              	.LFB1377:
  13:/home/shubham/20140524/makestuff/libs/libutpp/MemoryOutStream.h **** {
 7247              		.loc 3 13 0
 7248              		.cfi_startproc
 7249 0026 4C8B17   		movq	(%rdi), %r10
 7250 0029 49037AE8 		addq	-24(%r10), %rdi
 7251 002d EBD1     		jmp	.LTHUNK1
 7252              		.cfi_endproc
 7253              	.LFE1377:
 7255              		.section	.rodata
 7256              	.LC77:
 7257 0c81 45787065 		.string	"Expected "
 7257      63746564 
 7257      2000
 7258              	.LC78:
 7259 0c8b 20627574 		.string	" but was "
 7259      20776173 
 7259      2000
 7260              		.section	.text._ZN8UnitTest10CheckEqualI12BufferStatusS1_EEvRNS_11TestResultsERKT_RKT0_RKNS_11Test
 7261              		.weak	_ZN8UnitTest10CheckEqualI12BufferStatusS1_EEvRNS_11TestResultsERKT_RKT0_RKNS_11TestDetailsE
 7263              	_ZN8UnitTest10CheckEqualI12BufferStatusS1_EEvRNS_11TestResultsERKT_RKT0_RKNS_11TestDetailsE:
 7264              	.LFB1218:
 7265              		.file 5 "/home/shubham/20140524/makestuff/libs/libutpp/Checks.h"
   1:/home/shubham/20140524/makestuff/libs/libutpp/Checks.h **** #ifndef UNITTEST_CHECKS_H
   2:/home/shubham/20140524/makestuff/libs/libutpp/Checks.h **** #define UNITTEST_CHECKS_H
   3:/home/shubham/20140524/makestuff/libs/libutpp/Checks.h **** 
   4:/home/shubham/20140524/makestuff/libs/libutpp/Checks.h **** #include "Config.h"
   5:/home/shubham/20140524/makestuff/libs/libutpp/Checks.h **** #include "TestResults.h"
   6:/home/shubham/20140524/makestuff/libs/libutpp/Checks.h **** #include "MemoryOutStream.h"
   7:/home/shubham/20140524/makestuff/libs/libutpp/Checks.h **** 
   8:/home/shubham/20140524/makestuff/libs/libutpp/Checks.h **** namespace UnitTest {
   9:/home/shubham/20140524/makestuff/libs/libutpp/Checks.h **** 
  10:/home/shubham/20140524/makestuff/libs/libutpp/Checks.h **** 
  11:/home/shubham/20140524/makestuff/libs/libutpp/Checks.h **** template< typename Value >
  12:/home/shubham/20140524/makestuff/libs/libutpp/Checks.h **** bool Check(Value const value)
  13:/home/shubham/20140524/makestuff/libs/libutpp/Checks.h **** {
  14:/home/shubham/20140524/makestuff/libs/libutpp/Checks.h ****     return !!value; // doing double negative to avoid silly VS warnings
  15:/home/shubham/20140524/makestuff/libs/libutpp/Checks.h **** }
  16:/home/shubham/20140524/makestuff/libs/libutpp/Checks.h **** 
  17:/home/shubham/20140524/makestuff/libs/libutpp/Checks.h **** 
  18:/home/shubham/20140524/makestuff/libs/libutpp/Checks.h **** template< typename Expected, typename Actual >
  19:/home/shubham/20140524/makestuff/libs/libutpp/Checks.h **** void CheckEqual(TestResults& results, Expected const& expected, Actual const& actual, TestDetails c
 7266              		.loc 5 19 0
 7267              		.cfi_startproc
 7268              		.cfi_personality 0x3,__gxx_personality_v0
 7269              		.cfi_lsda 0x3,.LLSDA1218
 7270 0000 55       		pushq	%rbp
 7271              		.cfi_def_cfa_offset 16
 7272              		.cfi_offset 6, -16
 7273 0001 4889E5   		movq	%rsp, %rbp
 7274              		.cfi_def_cfa_register 6
 7275 0004 4154     		pushq	%r12
 7276 0006 53       		pushq	%rbx
 7277 0007 4881ECC0 		subq	$448, %rsp
 7277      010000
 7278              		.cfi_offset 12, -24
 7279              		.cfi_offset 3, -32
 7280 000e 4889BD48 		movq	%rdi, -440(%rbp)
 7280      FEFFFF
 7281 0015 4889B540 		movq	%rsi, -448(%rbp)
 7281      FEFFFF
 7282 001c 48899538 		movq	%rdx, -456(%rbp)
 7282      FEFFFF
 7283 0023 48898D30 		movq	%rcx, -464(%rbp)
 7283      FEFFFF
 7284              		.loc 5 19 0
 7285 002a 64488B04 		movq	%fs:40, %rax
 7285      25280000 
 7285      00
 7286 0033 488945E8 		movq	%rax, -24(%rbp)
 7287 0037 31C0     		xorl	%eax, %eax
 7288              	.LBB20:
  20:/home/shubham/20140524/makestuff/libs/libutpp/Checks.h **** {
  21:/home/shubham/20140524/makestuff/libs/libutpp/Checks.h ****     if (!(expected == actual))
 7289              		.loc 5 21 0
 7290 0039 488B8540 		movq	-448(%rbp), %rax
 7290      FEFFFF
 7291 0040 8B10     		movl	(%rax), %edx
 7292 0042 488B8538 		movq	-456(%rbp), %rax
 7292      FEFFFF
 7293 0049 8B00     		movl	(%rax), %eax
 7294 004b 39C2     		cmpl	%eax, %edx
 7295 004d 0F84B500 		je	.L450
 7295      0000
 7296              	.LBB21:
  22:/home/shubham/20140524/makestuff/libs/libutpp/Checks.h ****     {
  23:/home/shubham/20140524/makestuff/libs/libutpp/Checks.h ****         UnitTest::MemoryOutStream stream;
 7297              		.loc 5 23 0
 7298 0053 488D8550 		leaq	-432(%rbp), %rax
 7298      FEFFFF
 7299 005a 4889C7   		movq	%rax, %rdi
 7300              	.LEHB308:
 7301 005d E8000000 		call	_ZN8UnitTest15MemoryOutStreamC1Ev
 7301      00
 7302              	.LEHE308:
  24:/home/shubham/20140524/makestuff/libs/libutpp/Checks.h ****         stream << "Expected " << expected << " but was " << actual;
 7303              		.loc 5 24 0
 7304 0062 488B8538 		movq	-456(%rbp), %rax
 7304      FEFFFF
 7305 0069 8B00     		movl	(%rax), %eax
 7306 006b 89C3     		movl	%eax, %ebx
 7307 006d 488B8540 		movq	-448(%rbp), %rax
 7307      FEFFFF
 7308 0074 8B00     		movl	(%rax), %eax
 7309 0076 4189C4   		movl	%eax, %r12d
 7310 0079 488D8550 		leaq	-432(%rbp), %rax
 7310      FEFFFF
 7311 0080 BE000000 		movl	$.LC77, %esi
 7311      00
 7312 0085 4889C7   		movq	%rax, %rdi
 7313              	.LEHB309:
 7314 0088 E8000000 		call	_ZStlsISt11char_traitsIcEERSt13basic_ostreamIcT_ES5_PKc
 7314      00
 7315 008d 4489E6   		movl	%r12d, %esi
 7316 0090 4889C7   		movq	%rax, %rdi
 7317 0093 E8000000 		call	_ZNSolsEi
 7317      00
 7318              		.loc 5 24 0 is_stmt 0 discriminator 1
 7319 0098 BE000000 		movl	$.LC78, %esi
 7319      00
 7320 009d 4889C7   		movq	%rax, %rdi
 7321 00a0 E8000000 		call	_ZStlsISt11char_traitsIcEERSt13basic_ostreamIcT_ES5_PKc
 7321      00
 7322              		.loc 5 24 0 discriminator 2
 7323 00a5 89DE     		movl	%ebx, %esi
 7324 00a7 4889C7   		movq	%rax, %rdi
 7325 00aa E8000000 		call	_ZNSolsEi
 7325      00
  25:/home/shubham/20140524/makestuff/libs/libutpp/Checks.h **** 
  26:/home/shubham/20140524/makestuff/libs/libutpp/Checks.h ****         results.OnTestFailure(details, stream.GetText());
 7326              		.loc 5 26 0 is_stmt 1
 7327 00af 488D8550 		leaq	-432(%rbp), %rax
 7327      FEFFFF
 7328 00b6 4889C7   		movq	%rax, %rdi
 7329 00b9 E8000000 		call	_ZNK8UnitTest15MemoryOutStream7GetTextEv
 7329      00
 7330 00be 4889C2   		movq	%rax, %rdx
 7331 00c1 488B8D30 		movq	-464(%rbp), %rcx
 7331      FEFFFF
 7332 00c8 488B8548 		movq	-440(%rbp), %rax
 7332      FEFFFF
 7333 00cf 4889CE   		movq	%rcx, %rsi
 7334 00d2 4889C7   		movq	%rax, %rdi
 7335 00d5 E8000000 		call	_ZN8UnitTest11TestResults13OnTestFailureERKNS_11TestDetailsEPKc
 7335      00
 7336              	.LEHE309:
  23:/home/shubham/20140524/makestuff/libs/libutpp/Checks.h ****         stream << "Expected " << expected << " but was " << actual;
 7337              		.loc 5 23 0
 7338 00da 488D8550 		leaq	-432(%rbp), %rax
 7338      FEFFFF
 7339 00e1 4889C7   		movq	%rax, %rdi
 7340              	.LEHB310:
 7341 00e4 E8000000 		call	_ZN8UnitTest15MemoryOutStreamD1Ev
 7341      00
 7342              	.LEHE310:
 7343              	.LBE21:
 7344              	.LBE20:
  27:/home/shubham/20140524/makestuff/libs/libutpp/Checks.h ****     }
  28:/home/shubham/20140524/makestuff/libs/libutpp/Checks.h **** }
 7345              		.loc 5 28 0
 7346 00e9 EB1D     		jmp	.L450
 7347              	.L449:
 7348 00eb 4889C3   		movq	%rax, %rbx
 7349              	.LBB23:
 7350              	.LBB22:
  23:/home/shubham/20140524/makestuff/libs/libutpp/Checks.h ****         stream << "Expected " << expected << " but was " << actual;
 7351              		.loc 5 23 0
 7352 00ee 488D8550 		leaq	-432(%rbp), %rax
 7352      FEFFFF
 7353 00f5 4889C7   		movq	%rax, %rdi
 7354 00f8 E8000000 		call	_ZN8UnitTest15MemoryOutStreamD1Ev
 7354      00
 7355 00fd 4889D8   		movq	%rbx, %rax
 7356 0100 4889C7   		movq	%rax, %rdi
 7357              	.LEHB311:
 7358 0103 E8000000 		call	_Unwind_Resume
 7358      00
 7359              	.LEHE311:
 7360              	.L450:
 7361              	.LBE22:
 7362              	.LBE23:
 7363              		.loc 5 28 0
 7364 0108 90       		nop
 7365 0109 488B45E8 		movq	-24(%rbp), %rax
 7366 010d 64483304 		xorq	%fs:40, %rax
 7366      25280000 
 7366      00
 7367 0116 7405     		je	.L448
 7368 0118 E8000000 		call	__stack_chk_fail
 7368      00
 7369              	.L448:
 7370 011d 4881C4C0 		addq	$448, %rsp
 7370      010000
 7371 0124 5B       		popq	%rbx
 7372 0125 415C     		popq	%r12
 7373 0127 5D       		popq	%rbp
 7374              		.cfi_def_cfa 7, 8
 7375 0128 C3       		ret
 7376              		.cfi_endproc
 7377              	.LFE1218:
 7378              		.section	.gcc_except_table
 7379              	.LLSDA1218:
 7380 0757 FF       		.byte	0xff
 7381 0758 FF       		.byte	0xff
 7382 0759 01       		.byte	0x1
 7383 075a 14       		.uleb128 .LLSDACSE1218-.LLSDACSB1218
 7384              	.LLSDACSB1218:
 7385 075b 5D       		.uleb128 .LEHB308-.LFB1218
 7386 075c 05       		.uleb128 .LEHE308-.LEHB308
 7387 075d 00       		.uleb128 0
 7388 075e 00       		.uleb128 0
 7389 075f 8801     		.uleb128 .LEHB309-.LFB1218
 7390 0761 52       		.uleb128 .LEHE309-.LEHB309
 7391 0762 EB01     		.uleb128 .L449-.LFB1218
 7392 0764 00       		.uleb128 0
 7393 0765 E401     		.uleb128 .LEHB310-.LFB1218
 7394 0767 05       		.uleb128 .LEHE310-.LEHB310
 7395 0768 00       		.uleb128 0
 7396 0769 00       		.uleb128 0
 7397 076a 8302     		.uleb128 .LEHB311-.LFB1218
 7398 076c 05       		.uleb128 .LEHE311-.LEHB311
 7399 076d 00       		.uleb128 0
 7400 076e 00       		.uleb128 0
 7401              	.LLSDACSE1218:
 7402              		.section	.text._ZN8UnitTest10CheckEqualI12BufferStatusS1_EEvRNS_11TestResultsERKT_RKT0_RKNS_11Test
 7404              		.section	.text._ZN8UnitTest10CheckEqualIihEEvRNS_11TestResultsERKT_RKT0_RKNS_11TestDetailsE,"axG",
 7405              		.weak	_ZN8UnitTest10CheckEqualIihEEvRNS_11TestResultsERKT_RKT0_RKNS_11TestDetailsE
 7407              	_ZN8UnitTest10CheckEqualIihEEvRNS_11TestResultsERKT_RKT0_RKNS_11TestDetailsE:
 7408              	.LFB1223:
  19:/home/shubham/20140524/makestuff/libs/libutpp/Checks.h **** {
 7409              		.loc 5 19 0
 7410              		.cfi_startproc
 7411              		.cfi_personality 0x3,__gxx_personality_v0
 7412              		.cfi_lsda 0x3,.LLSDA1223
 7413 0000 55       		pushq	%rbp
 7414              		.cfi_def_cfa_offset 16
 7415              		.cfi_offset 6, -16
 7416 0001 4889E5   		movq	%rsp, %rbp
 7417              		.cfi_def_cfa_register 6
 7418 0004 4154     		pushq	%r12
 7419 0006 53       		pushq	%rbx
 7420 0007 4881ECC0 		subq	$448, %rsp
 7420      010000
 7421              		.cfi_offset 12, -24
 7422              		.cfi_offset 3, -32
 7423 000e 4889BD48 		movq	%rdi, -440(%rbp)
 7423      FEFFFF
 7424 0015 4889B540 		movq	%rsi, -448(%rbp)
 7424      FEFFFF
 7425 001c 48899538 		movq	%rdx, -456(%rbp)
 7425      FEFFFF
 7426 0023 48898D30 		movq	%rcx, -464(%rbp)
 7426      FEFFFF
  19:/home/shubham/20140524/makestuff/libs/libutpp/Checks.h **** {
 7427              		.loc 5 19 0
 7428 002a 64488B04 		movq	%fs:40, %rax
 7428      25280000 
 7428      00
 7429 0033 488945E8 		movq	%rax, -24(%rbp)
 7430 0037 31C0     		xorl	%eax, %eax
 7431              	.LBB24:
  21:/home/shubham/20140524/makestuff/libs/libutpp/Checks.h ****     {
 7432              		.loc 5 21 0
 7433 0039 488B8540 		movq	-448(%rbp), %rax
 7433      FEFFFF
 7434 0040 8B10     		movl	(%rax), %edx
 7435 0042 488B8538 		movq	-456(%rbp), %rax
 7435      FEFFFF
 7436 0049 0FB600   		movzbl	(%rax), %eax
 7437 004c 0FB6C0   		movzbl	%al, %eax
 7438 004f 39C2     		cmpl	%eax, %edx
 7439 0051 0F84B500 		je	.L456
 7439      0000
 7440              	.LBB25:
  23:/home/shubham/20140524/makestuff/libs/libutpp/Checks.h ****         stream << "Expected " << expected << " but was " << actual;
 7441              		.loc 5 23 0
 7442 0057 488D8550 		leaq	-432(%rbp), %rax
 7442      FEFFFF
 7443 005e 4889C7   		movq	%rax, %rdi
 7444              	.LEHB312:
 7445 0061 E8000000 		call	_ZN8UnitTest15MemoryOutStreamC1Ev
 7445      00
 7446              	.LEHE312:
  24:/home/shubham/20140524/makestuff/libs/libutpp/Checks.h **** 
 7447              		.loc 5 24 0
 7448 0066 488B8538 		movq	-456(%rbp), %rax
 7448      FEFFFF
 7449 006d 0FB600   		movzbl	(%rax), %eax
 7450 0070 0FB6D8   		movzbl	%al, %ebx
 7451 0073 488B8540 		movq	-448(%rbp), %rax
 7451      FEFFFF
 7452 007a 448B20   		movl	(%rax), %r12d
 7453 007d 488D8550 		leaq	-432(%rbp), %rax
 7453      FEFFFF
 7454 0084 BE000000 		movl	$.LC77, %esi
 7454      00
 7455 0089 4889C7   		movq	%rax, %rdi
 7456              	.LEHB313:
 7457 008c E8000000 		call	_ZStlsISt11char_traitsIcEERSt13basic_ostreamIcT_ES5_PKc
 7457      00
 7458 0091 4489E6   		movl	%r12d, %esi
 7459 0094 4889C7   		movq	%rax, %rdi
 7460 0097 E8000000 		call	_ZNSolsEi
 7460      00
  24:/home/shubham/20140524/makestuff/libs/libutpp/Checks.h **** 
 7461              		.loc 5 24 0 is_stmt 0 discriminator 1
 7462 009c BE000000 		movl	$.LC78, %esi
 7462      00
 7463 00a1 4889C7   		movq	%rax, %rdi
 7464 00a4 E8000000 		call	_ZStlsISt11char_traitsIcEERSt13basic_ostreamIcT_ES5_PKc
 7464      00
  24:/home/shubham/20140524/makestuff/libs/libutpp/Checks.h **** 
 7465              		.loc 5 24 0 discriminator 2
 7466 00a9 89DE     		movl	%ebx, %esi
 7467 00ab 4889C7   		movq	%rax, %rdi
 7468 00ae E8000000 		call	_ZStlsISt11char_traitsIcEERSt13basic_ostreamIcT_ES5_h
 7468      00
  26:/home/shubham/20140524/makestuff/libs/libutpp/Checks.h ****     }
 7469              		.loc 5 26 0 is_stmt 1
 7470 00b3 488D8550 		leaq	-432(%rbp), %rax
 7470      FEFFFF
 7471 00ba 4889C7   		movq	%rax, %rdi
 7472 00bd E8000000 		call	_ZNK8UnitTest15MemoryOutStream7GetTextEv
 7472      00
 7473 00c2 4889C2   		movq	%rax, %rdx
 7474 00c5 488B8D30 		movq	-464(%rbp), %rcx
 7474      FEFFFF
 7475 00cc 488B8548 		movq	-440(%rbp), %rax
 7475      FEFFFF
 7476 00d3 4889CE   		movq	%rcx, %rsi
 7477 00d6 4889C7   		movq	%rax, %rdi
 7478 00d9 E8000000 		call	_ZN8UnitTest11TestResults13OnTestFailureERKNS_11TestDetailsEPKc
 7478      00
 7479              	.LEHE313:
  23:/home/shubham/20140524/makestuff/libs/libutpp/Checks.h ****         stream << "Expected " << expected << " but was " << actual;
 7480              		.loc 5 23 0
 7481 00de 488D8550 		leaq	-432(%rbp), %rax
 7481      FEFFFF
 7482 00e5 4889C7   		movq	%rax, %rdi
 7483              	.LEHB314:
 7484 00e8 E8000000 		call	_ZN8UnitTest15MemoryOutStreamD1Ev
 7484      00
 7485              	.LEHE314:
 7486              	.LBE25:
 7487              	.LBE24:
 7488              		.loc 5 28 0
 7489 00ed EB1D     		jmp	.L456
 7490              	.L455:
 7491 00ef 4889C3   		movq	%rax, %rbx
 7492              	.LBB27:
 7493              	.LBB26:
  23:/home/shubham/20140524/makestuff/libs/libutpp/Checks.h ****         stream << "Expected " << expected << " but was " << actual;
 7494              		.loc 5 23 0
 7495 00f2 488D8550 		leaq	-432(%rbp), %rax
 7495      FEFFFF
 7496 00f9 4889C7   		movq	%rax, %rdi
 7497 00fc E8000000 		call	_ZN8UnitTest15MemoryOutStreamD1Ev
 7497      00
 7498 0101 4889D8   		movq	%rbx, %rax
 7499 0104 4889C7   		movq	%rax, %rdi
 7500              	.LEHB315:
 7501 0107 E8000000 		call	_Unwind_Resume
 7501      00
 7502              	.LEHE315:
 7503              	.L456:
 7504              	.LBE26:
 7505              	.LBE27:
 7506              		.loc 5 28 0
 7507 010c 90       		nop
 7508 010d 488B45E8 		movq	-24(%rbp), %rax
 7509 0111 64483304 		xorq	%fs:40, %rax
 7509      25280000 
 7509      00
 7510 011a 7405     		je	.L454
 7511 011c E8000000 		call	__stack_chk_fail
 7511      00
 7512              	.L454:
 7513 0121 4881C4C0 		addq	$448, %rsp
 7513      010000
 7514 0128 5B       		popq	%rbx
 7515 0129 415C     		popq	%r12
 7516 012b 5D       		popq	%rbp
 7517              		.cfi_def_cfa 7, 8
 7518 012c C3       		ret
 7519              		.cfi_endproc
 7520              	.LFE1223:
 7521              		.section	.gcc_except_table
 7522              	.LLSDA1223:
 7523 076f FF       		.byte	0xff
 7524 0770 FF       		.byte	0xff
 7525 0771 01       		.byte	0x1
 7526 0772 14       		.uleb128 .LLSDACSE1223-.LLSDACSB1223
 7527              	.LLSDACSB1223:
 7528 0773 61       		.uleb128 .LEHB312-.LFB1223
 7529 0774 05       		.uleb128 .LEHE312-.LEHB312
 7530 0775 00       		.uleb128 0
 7531 0776 00       		.uleb128 0
 7532 0777 8C01     		.uleb128 .LEHB313-.LFB1223
 7533 0779 52       		.uleb128 .LEHE313-.LEHB313
 7534 077a EF01     		.uleb128 .L455-.LFB1223
 7535 077c 00       		.uleb128 0
 7536 077d E801     		.uleb128 .LEHB314-.LFB1223
 7537 077f 05       		.uleb128 .LEHE314-.LEHB314
 7538 0780 00       		.uleb128 0
 7539 0781 00       		.uleb128 0
 7540 0782 8702     		.uleb128 .LEHB315-.LFB1223
 7541 0784 05       		.uleb128 .LEHE315-.LEHB315
 7542 0785 00       		.uleb128 0
 7543 0786 00       		.uleb128 0
 7544              	.LLSDACSE1223:
 7545              		.section	.text._ZN8UnitTest10CheckEqualIihEEvRNS_11TestResultsERKT_RKT0_RKNS_11TestDetailsE,"axG",
 7547              		.section	.text._ZN8UnitTest10CheckEqualImmEEvRNS_11TestResultsERKT_RKT0_RKNS_11TestDetailsE,"axG",
 7548              		.weak	_ZN8UnitTest10CheckEqualImmEEvRNS_11TestResultsERKT_RKT0_RKNS_11TestDetailsE
 7550              	_ZN8UnitTest10CheckEqualImmEEvRNS_11TestResultsERKT_RKT0_RKNS_11TestDetailsE:
 7551              	.LFB1224:
  19:/home/shubham/20140524/makestuff/libs/libutpp/Checks.h **** {
 7552              		.loc 5 19 0
 7553              		.cfi_startproc
 7554              		.cfi_personality 0x3,__gxx_personality_v0
 7555              		.cfi_lsda 0x3,.LLSDA1224
 7556 0000 55       		pushq	%rbp
 7557              		.cfi_def_cfa_offset 16
 7558              		.cfi_offset 6, -16
 7559 0001 4889E5   		movq	%rsp, %rbp
 7560              		.cfi_def_cfa_register 6
 7561 0004 4154     		pushq	%r12
 7562 0006 53       		pushq	%rbx
 7563 0007 4881ECC0 		subq	$448, %rsp
 7563      010000
 7564              		.cfi_offset 12, -24
 7565              		.cfi_offset 3, -32
 7566 000e 4889BD48 		movq	%rdi, -440(%rbp)
 7566      FEFFFF
 7567 0015 4889B540 		movq	%rsi, -448(%rbp)
 7567      FEFFFF
 7568 001c 48899538 		movq	%rdx, -456(%rbp)
 7568      FEFFFF
 7569 0023 48898D30 		movq	%rcx, -464(%rbp)
 7569      FEFFFF
  19:/home/shubham/20140524/makestuff/libs/libutpp/Checks.h **** {
 7570              		.loc 5 19 0
 7571 002a 64488B04 		movq	%fs:40, %rax
 7571      25280000 
 7571      00
 7572 0033 488945E8 		movq	%rax, -24(%rbp)
 7573 0037 31C0     		xorl	%eax, %eax
 7574              	.LBB28:
  21:/home/shubham/20140524/makestuff/libs/libutpp/Checks.h ****     {
 7575              		.loc 5 21 0
 7576 0039 488B8540 		movq	-448(%rbp), %rax
 7576      FEFFFF
 7577 0040 488B10   		movq	(%rax), %rdx
 7578 0043 488B8538 		movq	-456(%rbp), %rax
 7578      FEFFFF
 7579 004a 488B00   		movq	(%rax), %rax
 7580 004d 4839C2   		cmpq	%rax, %rdx
 7581 0050 0F84B300 		je	.L462
 7581      0000
 7582              	.LBB29:
  23:/home/shubham/20140524/makestuff/libs/libutpp/Checks.h ****         stream << "Expected " << expected << " but was " << actual;
 7583              		.loc 5 23 0
 7584 0056 488D8550 		leaq	-432(%rbp), %rax
 7584      FEFFFF
 7585 005d 4889C7   		movq	%rax, %rdi
 7586              	.LEHB316:
 7587 0060 E8000000 		call	_ZN8UnitTest15MemoryOutStreamC1Ev
 7587      00
 7588              	.LEHE316:
  24:/home/shubham/20140524/makestuff/libs/libutpp/Checks.h **** 
 7589              		.loc 5 24 0
 7590 0065 488B8538 		movq	-456(%rbp), %rax
 7590      FEFFFF
 7591 006c 488B18   		movq	(%rax), %rbx
 7592 006f 488B8540 		movq	-448(%rbp), %rax
 7592      FEFFFF
 7593 0076 4C8B20   		movq	(%rax), %r12
 7594 0079 488D8550 		leaq	-432(%rbp), %rax
 7594      FEFFFF
 7595 0080 BE000000 		movl	$.LC77, %esi
 7595      00
 7596 0085 4889C7   		movq	%rax, %rdi
 7597              	.LEHB317:
 7598 0088 E8000000 		call	_ZStlsISt11char_traitsIcEERSt13basic_ostreamIcT_ES5_PKc
 7598      00
 7599 008d 4C89E6   		movq	%r12, %rsi
 7600 0090 4889C7   		movq	%rax, %rdi
 7601 0093 E8000000 		call	_ZNSolsEm
 7601      00
  24:/home/shubham/20140524/makestuff/libs/libutpp/Checks.h **** 
 7602              		.loc 5 24 0 is_stmt 0 discriminator 1
 7603 0098 BE000000 		movl	$.LC78, %esi
 7603      00
 7604 009d 4889C7   		movq	%rax, %rdi
 7605 00a0 E8000000 		call	_ZStlsISt11char_traitsIcEERSt13basic_ostreamIcT_ES5_PKc
 7605      00
  24:/home/shubham/20140524/makestuff/libs/libutpp/Checks.h **** 
 7606              		.loc 5 24 0 discriminator 2
 7607 00a5 4889DE   		movq	%rbx, %rsi
 7608 00a8 4889C7   		movq	%rax, %rdi
 7609 00ab E8000000 		call	_ZNSolsEm
 7609      00
  26:/home/shubham/20140524/makestuff/libs/libutpp/Checks.h ****     }
 7610              		.loc 5 26 0 is_stmt 1
 7611 00b0 488D8550 		leaq	-432(%rbp), %rax
 7611      FEFFFF
 7612 00b7 4889C7   		movq	%rax, %rdi
 7613 00ba E8000000 		call	_ZNK8UnitTest15MemoryOutStream7GetTextEv
 7613      00
 7614 00bf 4889C2   		movq	%rax, %rdx
 7615 00c2 488B8D30 		movq	-464(%rbp), %rcx
 7615      FEFFFF
 7616 00c9 488B8548 		movq	-440(%rbp), %rax
 7616      FEFFFF
 7617 00d0 4889CE   		movq	%rcx, %rsi
 7618 00d3 4889C7   		movq	%rax, %rdi
 7619 00d6 E8000000 		call	_ZN8UnitTest11TestResults13OnTestFailureERKNS_11TestDetailsEPKc
 7619      00
 7620              	.LEHE317:
  23:/home/shubham/20140524/makestuff/libs/libutpp/Checks.h ****         stream << "Expected " << expected << " but was " << actual;
 7621              		.loc 5 23 0
 7622 00db 488D8550 		leaq	-432(%rbp), %rax
 7622      FEFFFF
 7623 00e2 4889C7   		movq	%rax, %rdi
 7624              	.LEHB318:
 7625 00e5 E8000000 		call	_ZN8UnitTest15MemoryOutStreamD1Ev
 7625      00
 7626              	.LEHE318:
 7627              	.LBE29:
 7628              	.LBE28:
 7629              		.loc 5 28 0
 7630 00ea EB1D     		jmp	.L462
 7631              	.L461:
 7632 00ec 4889C3   		movq	%rax, %rbx
 7633              	.LBB31:
 7634              	.LBB30:
  23:/home/shubham/20140524/makestuff/libs/libutpp/Checks.h ****         stream << "Expected " << expected << " but was " << actual;
 7635              		.loc 5 23 0
 7636 00ef 488D8550 		leaq	-432(%rbp), %rax
 7636      FEFFFF
 7637 00f6 4889C7   		movq	%rax, %rdi
 7638 00f9 E8000000 		call	_ZN8UnitTest15MemoryOutStreamD1Ev
 7638      00
 7639 00fe 4889D8   		movq	%rbx, %rax
 7640 0101 4889C7   		movq	%rax, %rdi
 7641              	.LEHB319:
 7642 0104 E8000000 		call	_Unwind_Resume
 7642      00
 7643              	.LEHE319:
 7644              	.L462:
 7645              	.LBE30:
 7646              	.LBE31:
 7647              		.loc 5 28 0
 7648 0109 90       		nop
 7649 010a 488B45E8 		movq	-24(%rbp), %rax
 7650 010e 64483304 		xorq	%fs:40, %rax
 7650      25280000 
 7650      00
 7651 0117 7405     		je	.L460
 7652 0119 E8000000 		call	__stack_chk_fail
 7652      00
 7653              	.L460:
 7654 011e 4881C4C0 		addq	$448, %rsp
 7654      010000
 7655 0125 5B       		popq	%rbx
 7656 0126 415C     		popq	%r12
 7657 0128 5D       		popq	%rbp
 7658              		.cfi_def_cfa 7, 8
 7659 0129 C3       		ret
 7660              		.cfi_endproc
 7661              	.LFE1224:
 7662              		.section	.gcc_except_table
 7663              	.LLSDA1224:
 7664 0787 FF       		.byte	0xff
 7665 0788 FF       		.byte	0xff
 7666 0789 01       		.byte	0x1
 7667 078a 14       		.uleb128 .LLSDACSE1224-.LLSDACSB1224
 7668              	.LLSDACSB1224:
 7669 078b 60       		.uleb128 .LEHB316-.LFB1224
 7670 078c 05       		.uleb128 .LEHE316-.LEHB316
 7671 078d 00       		.uleb128 0
 7672 078e 00       		.uleb128 0
 7673 078f 8801     		.uleb128 .LEHB317-.LFB1224
 7674 0791 53       		.uleb128 .LEHE317-.LEHB317
 7675 0792 EC01     		.uleb128 .L461-.LFB1224
 7676 0794 00       		.uleb128 0
 7677 0795 E501     		.uleb128 .LEHB318-.LFB1224
 7678 0797 05       		.uleb128 .LEHE318-.LEHB318
 7679 0798 00       		.uleb128 0
 7680 0799 00       		.uleb128 0
 7681 079a 8402     		.uleb128 .LEHB319-.LFB1224
 7682 079c 05       		.uleb128 .LEHE319-.LEHB319
 7683 079d 00       		.uleb128 0
 7684 079e 00       		.uleb128 0
 7685              	.LLSDACSE1224:
 7686              		.section	.text._ZN8UnitTest10CheckEqualImmEEvRNS_11TestResultsERKT_RKT0_RKNS_11TestDetailsE,"axG",
 7688              		.section	.rodata
 7689              	.LC79:
 7690 0c95 45787065 		.string	"Expected [ "
 7690      63746564 
 7690      205B2000 
 7691              	.LC80:
 7692 0ca1 2000     		.string	" "
 7693              	.LC81:
 7694 0ca3 5D206275 		.string	"] but was [ "
 7694      74207761 
 7694      73205B20 
 7694      00
 7695              	.LC82:
 7696 0cb0 5D00     		.string	"]"
 7697              		.section	.text._ZN8UnitTest15CheckArrayEqualIA4_hPhEEvRNS_11TestResultsERKT_RKT0_iRKNS_11TestDetai
 7698              		.weak	_ZN8UnitTest15CheckArrayEqualIA4_hPhEEvRNS_11TestResultsERKT_RKT0_iRKNS_11TestDetailsE
 7700              	_ZN8UnitTest15CheckArrayEqualIA4_hPhEEvRNS_11TestResultsERKT_RKT0_iRKNS_11TestDetailsE:
 7701              	.LFB1225:
  29:/home/shubham/20140524/makestuff/libs/libutpp/Checks.h **** 
  30:/home/shubham/20140524/makestuff/libs/libutpp/Checks.h **** void CheckEqual(TestResults& results, char const* expected, char const* actual, TestDetails const& 
  31:/home/shubham/20140524/makestuff/libs/libutpp/Checks.h **** 
  32:/home/shubham/20140524/makestuff/libs/libutpp/Checks.h **** void CheckEqual(TestResults& results, char* expected, char* actual, TestDetails const& details);
  33:/home/shubham/20140524/makestuff/libs/libutpp/Checks.h **** 
  34:/home/shubham/20140524/makestuff/libs/libutpp/Checks.h **** void CheckEqual(TestResults& results, char* expected, char const* actual, TestDetails const& detail
  35:/home/shubham/20140524/makestuff/libs/libutpp/Checks.h **** 
  36:/home/shubham/20140524/makestuff/libs/libutpp/Checks.h **** void CheckEqual(TestResults& results, char const* expected, char* actual, TestDetails const& detail
  37:/home/shubham/20140524/makestuff/libs/libutpp/Checks.h **** 
  38:/home/shubham/20140524/makestuff/libs/libutpp/Checks.h **** template< typename Expected, typename Actual, typename Tolerance >
  39:/home/shubham/20140524/makestuff/libs/libutpp/Checks.h **** bool AreClose(Expected const& expected, Actual const& actual, Tolerance const& tolerance)
  40:/home/shubham/20140524/makestuff/libs/libutpp/Checks.h **** {
  41:/home/shubham/20140524/makestuff/libs/libutpp/Checks.h ****     return (actual >= (expected - tolerance)) && (actual <= (expected + tolerance));
  42:/home/shubham/20140524/makestuff/libs/libutpp/Checks.h **** }
  43:/home/shubham/20140524/makestuff/libs/libutpp/Checks.h **** 
  44:/home/shubham/20140524/makestuff/libs/libutpp/Checks.h **** template< typename Expected, typename Actual, typename Tolerance >
  45:/home/shubham/20140524/makestuff/libs/libutpp/Checks.h **** void CheckClose(TestResults& results, Expected const& expected, Actual const& actual, Tolerance con
  46:/home/shubham/20140524/makestuff/libs/libutpp/Checks.h ****                 TestDetails const& details)
  47:/home/shubham/20140524/makestuff/libs/libutpp/Checks.h **** {
  48:/home/shubham/20140524/makestuff/libs/libutpp/Checks.h ****     if (!AreClose(expected, actual, tolerance))
  49:/home/shubham/20140524/makestuff/libs/libutpp/Checks.h ****     { 
  50:/home/shubham/20140524/makestuff/libs/libutpp/Checks.h ****         UnitTest::MemoryOutStream stream;
  51:/home/shubham/20140524/makestuff/libs/libutpp/Checks.h ****         stream << "Expected " << expected << " +/- " << tolerance << " but was " << actual;
  52:/home/shubham/20140524/makestuff/libs/libutpp/Checks.h **** 
  53:/home/shubham/20140524/makestuff/libs/libutpp/Checks.h ****         results.OnTestFailure(details, stream.GetText());
  54:/home/shubham/20140524/makestuff/libs/libutpp/Checks.h ****     }
  55:/home/shubham/20140524/makestuff/libs/libutpp/Checks.h **** }
  56:/home/shubham/20140524/makestuff/libs/libutpp/Checks.h **** 
  57:/home/shubham/20140524/makestuff/libs/libutpp/Checks.h **** 
  58:/home/shubham/20140524/makestuff/libs/libutpp/Checks.h **** template< typename Expected, typename Actual >
  59:/home/shubham/20140524/makestuff/libs/libutpp/Checks.h **** void CheckArrayEqual(TestResults& results, Expected const& expected, Actual const& actual,
 7702              		.loc 5 59 0
 7703              		.cfi_startproc
 7704              		.cfi_personality 0x3,__gxx_personality_v0
 7705              		.cfi_lsda 0x3,.LLSDA1225
 7706 0000 55       		pushq	%rbp
 7707              		.cfi_def_cfa_offset 16
 7708              		.cfi_offset 6, -16
 7709 0001 4889E5   		movq	%rsp, %rbp
 7710              		.cfi_def_cfa_register 6
 7711 0004 53       		pushq	%rbx
 7712 0005 4881ECE8 		subq	$488, %rsp
 7712      010000
 7713              		.cfi_offset 3, -24
 7714 000c 4889BD38 		movq	%rdi, -456(%rbp)
 7714      FEFFFF
 7715 0013 4889B530 		movq	%rsi, -464(%rbp)
 7715      FEFFFF
 7716 001a 48899528 		movq	%rdx, -472(%rbp)
 7716      FEFFFF
 7717 0021 898D24FE 		movl	%ecx, -476(%rbp)
 7717      FFFF
 7718 0027 4C898518 		movq	%r8, -488(%rbp)
 7718      FEFFFF
 7719              		.loc 5 59 0
 7720 002e 64488B04 		movq	%fs:40, %rax
 7720      25280000 
 7720      00
 7721 0037 488945E8 		movq	%rax, -24(%rbp)
 7722 003b 31C0     		xorl	%eax, %eax
  60:/home/shubham/20140524/makestuff/libs/libutpp/Checks.h ****                 int const count, TestDetails const& details)
  61:/home/shubham/20140524/makestuff/libs/libutpp/Checks.h **** {
  62:/home/shubham/20140524/makestuff/libs/libutpp/Checks.h ****     bool equal = true;
 7723              		.loc 5 62 0
 7724 003d C68543FE 		movb	$1, -445(%rbp)
 7724      FFFF01
 7725              	.LBB32:
  63:/home/shubham/20140524/makestuff/libs/libutpp/Checks.h ****     for (int i = 0; i < count; ++i)
 7726              		.loc 5 63 0
 7727 0044 C78544FE 		movl	$0, -444(%rbp)
 7727      FFFF0000 
 7727      0000
 7728              	.L465:
 7729              		.loc 5 63 0 is_stmt 0 discriminator 3
 7730 004e 8B8544FE 		movl	-444(%rbp), %eax
 7730      FFFF
 7731 0054 3B8524FE 		cmpl	-476(%rbp), %eax
 7731      FFFF
 7732 005a 7D50     		jge	.L464
  64:/home/shubham/20140524/makestuff/libs/libutpp/Checks.h ****         equal &= (expected[i] == actual[i]);
 7733              		.loc 5 64 0 is_stmt 1 discriminator 2
 7734 005c 0FB68D43 		movzbl	-445(%rbp), %ecx
 7734      FEFFFF
 7735 0063 488B9530 		movq	-464(%rbp), %rdx
 7735      FEFFFF
 7736 006a 8B8544FE 		movl	-444(%rbp), %eax
 7736      FFFF
 7737 0070 4898     		cltq
 7738 0072 0FB61402 		movzbl	(%rdx,%rax), %edx
 7739 0076 488B8528 		movq	-472(%rbp), %rax
 7739      FEFFFF
 7740 007d 488B30   		movq	(%rax), %rsi
 7741 0080 8B8544FE 		movl	-444(%rbp), %eax
 7741      FFFF
 7742 0086 4898     		cltq
 7743 0088 4801F0   		addq	%rsi, %rax
 7744 008b 0FB600   		movzbl	(%rax), %eax
 7745 008e 38C2     		cmpb	%al, %dl
 7746 0090 0F94C0   		sete	%al
 7747 0093 0FB6C0   		movzbl	%al, %eax
 7748 0096 21C8     		andl	%ecx, %eax
 7749 0098 85C0     		testl	%eax, %eax
 7750 009a 0F95C0   		setne	%al
 7751 009d 888543FE 		movb	%al, -445(%rbp)
 7751      FFFF
  63:/home/shubham/20140524/makestuff/libs/libutpp/Checks.h ****     for (int i = 0; i < count; ++i)
 7752              		.loc 5 63 0 discriminator 2
 7753 00a3 838544FE 		addl	$1, -444(%rbp)
 7753      FFFF01
 7754 00aa EBA2     		jmp	.L465
 7755              	.L464:
 7756              	.LBE32:
 7757              	.LBB33:
  65:/home/shubham/20140524/makestuff/libs/libutpp/Checks.h **** 
  66:/home/shubham/20140524/makestuff/libs/libutpp/Checks.h ****     if (!equal)
 7758              		.loc 5 66 0
 7759 00ac 0FB68543 		movzbl	-445(%rbp), %eax
 7759      FEFFFF
 7760 00b3 83F001   		xorl	$1, %eax
 7761 00b6 84C0     		testb	%al, %al
 7762 00b8 0F845301 		je	.L474
 7762      0000
 7763              	.LBB34:
  67:/home/shubham/20140524/makestuff/libs/libutpp/Checks.h ****     {
  68:/home/shubham/20140524/makestuff/libs/libutpp/Checks.h ****         UnitTest::MemoryOutStream stream;
 7764              		.loc 5 68 0
 7765 00be 488D8550 		leaq	-432(%rbp), %rax
 7765      FEFFFF
 7766 00c5 4889C7   		movq	%rax, %rdi
 7767              	.LEHB320:
 7768 00c8 E8000000 		call	_ZN8UnitTest15MemoryOutStreamC1Ev
 7768      00
 7769              	.LEHE320:
  69:/home/shubham/20140524/makestuff/libs/libutpp/Checks.h **** 
  70:/home/shubham/20140524/makestuff/libs/libutpp/Checks.h **** 		stream << "Expected [ ";
 7770              		.loc 5 70 0
 7771 00cd 488D8550 		leaq	-432(%rbp), %rax
 7771      FEFFFF
 7772 00d4 BE000000 		movl	$.LC79, %esi
 7772      00
 7773 00d9 4889C7   		movq	%rax, %rdi
 7774              	.LEHB321:
 7775 00dc E8000000 		call	_ZStlsISt11char_traitsIcEERSt13basic_ostreamIcT_ES5_PKc
 7775      00
 7776              	.LBB35:
  71:/home/shubham/20140524/makestuff/libs/libutpp/Checks.h **** 
  72:/home/shubham/20140524/makestuff/libs/libutpp/Checks.h **** 		for (int expectedIndex = 0; expectedIndex < count; ++expectedIndex)
 7777              		.loc 5 72 0
 7778 00e1 C78548FE 		movl	$0, -440(%rbp)
 7778      FFFF0000 
 7778      0000
 7779              	.L468:
 7780              		.loc 5 72 0 is_stmt 0 discriminator 1
 7781 00eb 8B8548FE 		movl	-440(%rbp), %eax
 7781      FFFF
 7782 00f1 3B8524FE 		cmpl	-476(%rbp), %eax
 7782      FFFF
 7783 00f7 7D3D     		jge	.L467
  73:/home/shubham/20140524/makestuff/libs/libutpp/Checks.h ****             stream << expected[expectedIndex] << " ";
 7784              		.loc 5 73 0 is_stmt 1
 7785 00f9 488B9530 		movq	-464(%rbp), %rdx
 7785      FEFFFF
 7786 0100 8B8548FE 		movl	-440(%rbp), %eax
 7786      FFFF
 7787 0106 4898     		cltq
 7788 0108 0FB60402 		movzbl	(%rdx,%rax), %eax
 7789 010c 0FB6D0   		movzbl	%al, %edx
 7790 010f 488D8550 		leaq	-432(%rbp), %rax
 7790      FEFFFF
 7791 0116 89D6     		movl	%edx, %esi
 7792 0118 4889C7   		movq	%rax, %rdi
 7793 011b E8000000 		call	_ZStlsISt11char_traitsIcEERSt13basic_ostreamIcT_ES5_h
 7793      00
 7794 0120 BE000000 		movl	$.LC80, %esi
 7794      00
 7795 0125 4889C7   		movq	%rax, %rdi
 7796 0128 E8000000 		call	_ZStlsISt11char_traitsIcEERSt13basic_ostreamIcT_ES5_PKc
 7796      00
  72:/home/shubham/20140524/makestuff/libs/libutpp/Checks.h ****             stream << expected[expectedIndex] << " ";
 7797              		.loc 5 72 0 discriminator 2
 7798 012d 838548FE 		addl	$1, -440(%rbp)
 7798      FFFF01
 7799 0134 EBB5     		jmp	.L468
 7800              	.L467:
 7801              	.LBE35:
  74:/home/shubham/20140524/makestuff/libs/libutpp/Checks.h **** 
  75:/home/shubham/20140524/makestuff/libs/libutpp/Checks.h **** 		stream << "] but was [ ";
 7802              		.loc 5 75 0
 7803 0136 488D8550 		leaq	-432(%rbp), %rax
 7803      FEFFFF
 7804 013d BE000000 		movl	$.LC81, %esi
 7804      00
 7805 0142 4889C7   		movq	%rax, %rdi
 7806 0145 E8000000 		call	_ZStlsISt11char_traitsIcEERSt13basic_ostreamIcT_ES5_PKc
 7806      00
 7807              	.LBB36:
  76:/home/shubham/20140524/makestuff/libs/libutpp/Checks.h **** 
  77:/home/shubham/20140524/makestuff/libs/libutpp/Checks.h **** 		for (int actualIndex = 0; actualIndex < count; ++actualIndex)
 7808              		.loc 5 77 0
 7809 014a C7854CFE 		movl	$0, -436(%rbp)
 7809      FFFF0000 
 7809      0000
 7810              	.L470:
 7811              		.loc 5 77 0 is_stmt 0 discriminator 1
 7812 0154 8B854CFE 		movl	-436(%rbp), %eax
 7812      FFFF
 7813 015a 3B8524FE 		cmpl	-476(%rbp), %eax
 7813      FFFF
 7814 0160 7D42     		jge	.L469
  78:/home/shubham/20140524/makestuff/libs/libutpp/Checks.h ****             stream << actual[actualIndex] << " ";
 7815              		.loc 5 78 0 is_stmt 1
 7816 0162 488B8528 		movq	-472(%rbp), %rax
 7816      FEFFFF
 7817 0169 488B10   		movq	(%rax), %rdx
 7818 016c 8B854CFE 		movl	-436(%rbp), %eax
 7818      FFFF
 7819 0172 4898     		cltq
 7820 0174 4801D0   		addq	%rdx, %rax
 7821 0177 0FB600   		movzbl	(%rax), %eax
 7822 017a 0FB6D0   		movzbl	%al, %edx
 7823 017d 488D8550 		leaq	-432(%rbp), %rax
 7823      FEFFFF
 7824 0184 89D6     		movl	%edx, %esi
 7825 0186 4889C7   		movq	%rax, %rdi
 7826 0189 E8000000 		call	_ZStlsISt11char_traitsIcEERSt13basic_ostreamIcT_ES5_h
 7826      00
 7827 018e BE000000 		movl	$.LC80, %esi
 7827      00
 7828 0193 4889C7   		movq	%rax, %rdi
 7829 0196 E8000000 		call	_ZStlsISt11char_traitsIcEERSt13basic_ostreamIcT_ES5_PKc
 7829      00
  77:/home/shubham/20140524/makestuff/libs/libutpp/Checks.h ****             stream << actual[actualIndex] << " ";
 7830              		.loc 5 77 0 discriminator 2
 7831 019b 83854CFE 		addl	$1, -436(%rbp)
 7831      FFFF01
 7832 01a2 EBB0     		jmp	.L470
 7833              	.L469:
 7834              	.LBE36:
  79:/home/shubham/20140524/makestuff/libs/libutpp/Checks.h **** 
  80:/home/shubham/20140524/makestuff/libs/libutpp/Checks.h **** 		stream << "]";
 7835              		.loc 5 80 0
 7836 01a4 488D8550 		leaq	-432(%rbp), %rax
 7836      FEFFFF
 7837 01ab BE000000 		movl	$.LC82, %esi
 7837      00
 7838 01b0 4889C7   		movq	%rax, %rdi
 7839 01b3 E8000000 		call	_ZStlsISt11char_traitsIcEERSt13basic_ostreamIcT_ES5_PKc
 7839      00
  81:/home/shubham/20140524/makestuff/libs/libutpp/Checks.h **** 
  82:/home/shubham/20140524/makestuff/libs/libutpp/Checks.h ****         results.OnTestFailure(details, stream.GetText());
 7840              		.loc 5 82 0
 7841 01b8 488D8550 		leaq	-432(%rbp), %rax
 7841      FEFFFF
 7842 01bf 4889C7   		movq	%rax, %rdi
 7843 01c2 E8000000 		call	_ZNK8UnitTest15MemoryOutStream7GetTextEv
 7843      00
 7844 01c7 4889C2   		movq	%rax, %rdx
 7845 01ca 488B8D18 		movq	-488(%rbp), %rcx
 7845      FEFFFF
 7846 01d1 488B8538 		movq	-456(%rbp), %rax
 7846      FEFFFF
 7847 01d8 4889CE   		movq	%rcx, %rsi
 7848 01db 4889C7   		movq	%rax, %rdi
 7849 01de E8000000 		call	_ZN8UnitTest11TestResults13OnTestFailureERKNS_11TestDetailsEPKc
 7849      00
 7850              	.LEHE321:
  68:/home/shubham/20140524/makestuff/libs/libutpp/Checks.h **** 
 7851              		.loc 5 68 0
 7852 01e3 488D8550 		leaq	-432(%rbp), %rax
 7852      FEFFFF
 7853 01ea 4889C7   		movq	%rax, %rdi
 7854              	.LEHB322:
 7855 01ed E8000000 		call	_ZN8UnitTest15MemoryOutStreamD1Ev
 7855      00
 7856              	.LEHE322:
 7857              	.LBE34:
 7858              	.LBE33:
  83:/home/shubham/20140524/makestuff/libs/libutpp/Checks.h ****     }
  84:/home/shubham/20140524/makestuff/libs/libutpp/Checks.h **** }
 7859              		.loc 5 84 0
 7860 01f2 EB1D     		jmp	.L474
 7861              	.L473:
 7862 01f4 4889C3   		movq	%rax, %rbx
 7863              	.LBB38:
 7864              	.LBB37:
  68:/home/shubham/20140524/makestuff/libs/libutpp/Checks.h **** 
 7865              		.loc 5 68 0
 7866 01f7 488D8550 		leaq	-432(%rbp), %rax
 7866      FEFFFF
 7867 01fe 4889C7   		movq	%rax, %rdi
 7868 0201 E8000000 		call	_ZN8UnitTest15MemoryOutStreamD1Ev
 7868      00
 7869 0206 4889D8   		movq	%rbx, %rax
 7870 0209 4889C7   		movq	%rax, %rdi
 7871              	.LEHB323:
 7872 020c E8000000 		call	_Unwind_Resume
 7872      00
 7873              	.LEHE323:
 7874              	.L474:
 7875              	.LBE37:
 7876              	.LBE38:
 7877              		.loc 5 84 0
 7878 0211 90       		nop
 7879 0212 488B45E8 		movq	-24(%rbp), %rax
 7880 0216 64483304 		xorq	%fs:40, %rax
 7880      25280000 
 7880      00
 7881 021f 7405     		je	.L472
 7882 0221 E8000000 		call	__stack_chk_fail
 7882      00
 7883              	.L472:
 7884 0226 4881C4E8 		addq	$488, %rsp
 7884      010000
 7885 022d 5B       		popq	%rbx
 7886 022e 5D       		popq	%rbp
 7887              		.cfi_def_cfa 7, 8
 7888 022f C3       		ret
 7889              		.cfi_endproc
 7890              	.LFE1225:
 7891              		.section	.gcc_except_table
 7892              	.LLSDA1225:
 7893 079f FF       		.byte	0xff
 7894 07a0 FF       		.byte	0xff
 7895 07a1 01       		.byte	0x1
 7896 07a2 16       		.uleb128 .LLSDACSE1225-.LLSDACSB1225
 7897              	.LLSDACSB1225:
 7898 07a3 C801     		.uleb128 .LEHB320-.LFB1225
 7899 07a5 05       		.uleb128 .LEHE320-.LEHB320
 7900 07a6 00       		.uleb128 0
 7901 07a7 00       		.uleb128 0
 7902 07a8 DC01     		.uleb128 .LEHB321-.LFB1225
 7903 07aa 8702     		.uleb128 .LEHE321-.LEHB321
 7904 07ac F403     		.uleb128 .L473-.LFB1225
 7905 07ae 00       		.uleb128 0
 7906 07af ED03     		.uleb128 .LEHB322-.LFB1225
 7907 07b1 05       		.uleb128 .LEHE322-.LEHB322
 7908 07b2 00       		.uleb128 0
 7909 07b3 00       		.uleb128 0
 7910 07b4 8C04     		.uleb128 .LEHB323-.LFB1225
 7911 07b6 05       		.uleb128 .LEHE323-.LEHB323
 7912 07b7 00       		.uleb128 0
 7913 07b8 00       		.uleb128 0
 7914              	.LLSDACSE1225:
 7915              		.section	.text._ZN8UnitTest15CheckArrayEqualIA4_hPhEEvRNS_11TestResultsERKT_RKT0_iRKNS_11TestDetai
 7917              		.section	.text._ZN8UnitTest5CheckIbEEbT_,"axG",@progbits,_ZN8UnitTest5CheckIbEEbT_,comdat
 7918              		.weak	_ZN8UnitTest5CheckIbEEbT_
 7920              	_ZN8UnitTest5CheckIbEEbT_:
 7921              	.LFB1237:
  12:/home/shubham/20140524/makestuff/libs/libutpp/Checks.h **** {
 7922              		.loc 5 12 0
 7923              		.cfi_startproc
 7924 0000 55       		pushq	%rbp
 7925              		.cfi_def_cfa_offset 16
 7926              		.cfi_offset 6, -16
 7927 0001 4889E5   		movq	%rsp, %rbp
 7928              		.cfi_def_cfa_register 6
 7929 0004 89F8     		movl	%edi, %eax
 7930 0006 8845FC   		movb	%al, -4(%rbp)
  14:/home/shubham/20140524/makestuff/libs/libutpp/Checks.h **** }
 7931              		.loc 5 14 0
 7932 0009 0FB645FC 		movzbl	-4(%rbp), %eax
  15:/home/shubham/20140524/makestuff/libs/libutpp/Checks.h **** 
 7933              		.loc 5 15 0
 7934 000d 5D       		popq	%rbp
 7935              		.cfi_def_cfa 7, 8
 7936 000e C3       		ret
 7937              		.cfi_endproc
 7938              	.LFE1237:
 7940              		.section	.text._ZNKSt4fposI11__mbstate_tEcvlEv,"axG",@progbits,_ZNKSt4fposI11__mbstate_tEcvlEv,com
 7941              		.align 2
 7942              		.weak	_ZNKSt4fposI11__mbstate_tEcvlEv
 7944              	_ZNKSt4fposI11__mbstate_tEcvlEv:
 7945              	.LFB1238:
 7946              		.file 6 "/usr/include/c++/5/bits/postypes.h"
   1:/usr/include/c++/5/bits/postypes.h **** // Position types -*- C++ -*-
   2:/usr/include/c++/5/bits/postypes.h **** 
   3:/usr/include/c++/5/bits/postypes.h **** // Copyright (C) 1997-2015 Free Software Foundation, Inc.
   4:/usr/include/c++/5/bits/postypes.h **** //
   5:/usr/include/c++/5/bits/postypes.h **** // This file is part of the GNU ISO C++ Library.  This library is free
   6:/usr/include/c++/5/bits/postypes.h **** // software; you can redistribute it and/or modify it under the
   7:/usr/include/c++/5/bits/postypes.h **** // terms of the GNU General Public License as published by the
   8:/usr/include/c++/5/bits/postypes.h **** // Free Software Foundation; either version 3, or (at your option)
   9:/usr/include/c++/5/bits/postypes.h **** // any later version.
  10:/usr/include/c++/5/bits/postypes.h **** 
  11:/usr/include/c++/5/bits/postypes.h **** // This library is distributed in the hope that it will be useful,
  12:/usr/include/c++/5/bits/postypes.h **** // but WITHOUT ANY WARRANTY; without even the implied warranty of
  13:/usr/include/c++/5/bits/postypes.h **** // MERCHANTABILITY or FITNESS FOR A PARTICULAR PURPOSE.  See the
  14:/usr/include/c++/5/bits/postypes.h **** // GNU General Public License for more details.
  15:/usr/include/c++/5/bits/postypes.h **** 
  16:/usr/include/c++/5/bits/postypes.h **** // Under Section 7 of GPL version 3, you are granted additional
  17:/usr/include/c++/5/bits/postypes.h **** // permissions described in the GCC Runtime Library Exception, version
  18:/usr/include/c++/5/bits/postypes.h **** // 3.1, as published by the Free Software Foundation.
  19:/usr/include/c++/5/bits/postypes.h **** 
  20:/usr/include/c++/5/bits/postypes.h **** // You should have received a copy of the GNU General Public License and
  21:/usr/include/c++/5/bits/postypes.h **** // a copy of the GCC Runtime Library Exception along with this program;
  22:/usr/include/c++/5/bits/postypes.h **** // see the files COPYING3 and COPYING.RUNTIME respectively.  If not, see
  23:/usr/include/c++/5/bits/postypes.h **** // <http://www.gnu.org/licenses/>.
  24:/usr/include/c++/5/bits/postypes.h **** 
  25:/usr/include/c++/5/bits/postypes.h **** /** @file bits/postypes.h
  26:/usr/include/c++/5/bits/postypes.h ****  *  This is an internal header file, included by other library headers.
  27:/usr/include/c++/5/bits/postypes.h ****  *  Do not attempt to use it directly. @headername{iosfwd}
  28:/usr/include/c++/5/bits/postypes.h ****  */
  29:/usr/include/c++/5/bits/postypes.h **** 
  30:/usr/include/c++/5/bits/postypes.h **** //
  31:/usr/include/c++/5/bits/postypes.h **** // ISO C++ 14882: 27.4.1 - Types
  32:/usr/include/c++/5/bits/postypes.h **** // ISO C++ 14882: 27.4.3 - Template class fpos
  33:/usr/include/c++/5/bits/postypes.h **** //
  34:/usr/include/c++/5/bits/postypes.h **** 
  35:/usr/include/c++/5/bits/postypes.h **** #ifndef _GLIBCXX_POSTYPES_H
  36:/usr/include/c++/5/bits/postypes.h **** #define _GLIBCXX_POSTYPES_H 1
  37:/usr/include/c++/5/bits/postypes.h **** 
  38:/usr/include/c++/5/bits/postypes.h **** #pragma GCC system_header
  39:/usr/include/c++/5/bits/postypes.h **** 
  40:/usr/include/c++/5/bits/postypes.h **** #include <cwchar> // For mbstate_t
  41:/usr/include/c++/5/bits/postypes.h **** 
  42:/usr/include/c++/5/bits/postypes.h **** // XXX If <stdint.h> is really needed, make sure to define the macros
  43:/usr/include/c++/5/bits/postypes.h **** // before including it, in order not to break <tr1/cstdint> (and <cstdint>
  44:/usr/include/c++/5/bits/postypes.h **** // in C++0x).  Reconsider all this as soon as possible...
  45:/usr/include/c++/5/bits/postypes.h **** #if (defined(_GLIBCXX_HAVE_INT64_T) && !defined(_GLIBCXX_HAVE_INT64_T_LONG) \
  46:/usr/include/c++/5/bits/postypes.h ****      && !defined(_GLIBCXX_HAVE_INT64_T_LONG_LONG))
  47:/usr/include/c++/5/bits/postypes.h **** 
  48:/usr/include/c++/5/bits/postypes.h **** #ifndef __STDC_LIMIT_MACROS
  49:/usr/include/c++/5/bits/postypes.h **** # define _UNDEF__STDC_LIMIT_MACROS
  50:/usr/include/c++/5/bits/postypes.h **** # define __STDC_LIMIT_MACROS
  51:/usr/include/c++/5/bits/postypes.h **** #endif
  52:/usr/include/c++/5/bits/postypes.h **** #ifndef __STDC_CONSTANT_MACROS
  53:/usr/include/c++/5/bits/postypes.h **** # define _UNDEF__STDC_CONSTANT_MACROS
  54:/usr/include/c++/5/bits/postypes.h **** # define __STDC_CONSTANT_MACROS
  55:/usr/include/c++/5/bits/postypes.h **** #endif
  56:/usr/include/c++/5/bits/postypes.h **** #include <stdint.h> // For int64_t
  57:/usr/include/c++/5/bits/postypes.h **** #ifdef _UNDEF__STDC_LIMIT_MACROS
  58:/usr/include/c++/5/bits/postypes.h **** # undef __STDC_LIMIT_MACROS
  59:/usr/include/c++/5/bits/postypes.h **** # undef _UNDEF__STDC_LIMIT_MACROS
  60:/usr/include/c++/5/bits/postypes.h **** #endif
  61:/usr/include/c++/5/bits/postypes.h **** #ifdef _UNDEF__STDC_CONSTANT_MACROS
  62:/usr/include/c++/5/bits/postypes.h **** # undef __STDC_CONSTANT_MACROS
  63:/usr/include/c++/5/bits/postypes.h **** # undef _UNDEF__STDC_CONSTANT_MACROS
  64:/usr/include/c++/5/bits/postypes.h **** #endif
  65:/usr/include/c++/5/bits/postypes.h **** 
  66:/usr/include/c++/5/bits/postypes.h **** #endif
  67:/usr/include/c++/5/bits/postypes.h **** 
  68:/usr/include/c++/5/bits/postypes.h **** namespace std _GLIBCXX_VISIBILITY(default)
  69:/usr/include/c++/5/bits/postypes.h **** {
  70:/usr/include/c++/5/bits/postypes.h **** _GLIBCXX_BEGIN_NAMESPACE_VERSION
  71:/usr/include/c++/5/bits/postypes.h **** 
  72:/usr/include/c++/5/bits/postypes.h ****   // The types streamoff, streampos and wstreampos and the class
  73:/usr/include/c++/5/bits/postypes.h ****   // template fpos<> are described in clauses 21.1.2, 21.1.3, 27.1.2,
  74:/usr/include/c++/5/bits/postypes.h ****   // 27.2, 27.4.1, 27.4.3 and D.6. Despite all this verbiage, the
  75:/usr/include/c++/5/bits/postypes.h ****   // behaviour of these types is mostly implementation defined or
  76:/usr/include/c++/5/bits/postypes.h ****   // unspecified. The behaviour in this implementation is as noted
  77:/usr/include/c++/5/bits/postypes.h ****   // below.
  78:/usr/include/c++/5/bits/postypes.h **** 
  79:/usr/include/c++/5/bits/postypes.h ****   /**
  80:/usr/include/c++/5/bits/postypes.h ****    *  @brief  Type used by fpos, char_traits<char>, and char_traits<wchar_t>.
  81:/usr/include/c++/5/bits/postypes.h ****    *
  82:/usr/include/c++/5/bits/postypes.h ****    *  In clauses 21.1.3.1 and 27.4.1 streamoff is described as an
  83:/usr/include/c++/5/bits/postypes.h ****    *  implementation defined type.
  84:/usr/include/c++/5/bits/postypes.h ****    *  Note: In versions of GCC up to and including GCC 3.3, streamoff
  85:/usr/include/c++/5/bits/postypes.h ****    *  was typedef long.
  86:/usr/include/c++/5/bits/postypes.h ****   */  
  87:/usr/include/c++/5/bits/postypes.h **** #ifdef _GLIBCXX_HAVE_INT64_T_LONG
  88:/usr/include/c++/5/bits/postypes.h ****   typedef long          streamoff;
  89:/usr/include/c++/5/bits/postypes.h **** #elif defined(_GLIBCXX_HAVE_INT64_T_LONG_LONG)
  90:/usr/include/c++/5/bits/postypes.h ****   typedef long long     streamoff;
  91:/usr/include/c++/5/bits/postypes.h **** #elif defined(_GLIBCXX_HAVE_INT64_T) 
  92:/usr/include/c++/5/bits/postypes.h ****   typedef int64_t       streamoff;
  93:/usr/include/c++/5/bits/postypes.h **** #else
  94:/usr/include/c++/5/bits/postypes.h ****   typedef long long     streamoff;
  95:/usr/include/c++/5/bits/postypes.h **** #endif
  96:/usr/include/c++/5/bits/postypes.h **** 
  97:/usr/include/c++/5/bits/postypes.h ****   /// Integral type for I/O operation counts and buffer sizes.
  98:/usr/include/c++/5/bits/postypes.h ****   typedef ptrdiff_t	streamsize; // Signed integral type
  99:/usr/include/c++/5/bits/postypes.h **** 
 100:/usr/include/c++/5/bits/postypes.h ****   /**
 101:/usr/include/c++/5/bits/postypes.h ****    *  @brief  Class representing stream positions.
 102:/usr/include/c++/5/bits/postypes.h ****    *
 103:/usr/include/c++/5/bits/postypes.h ****    *  The standard places no requirements upon the template parameter StateT.
 104:/usr/include/c++/5/bits/postypes.h ****    *  In this implementation StateT must be DefaultConstructible,
 105:/usr/include/c++/5/bits/postypes.h ****    *  CopyConstructible and Assignable.  The standard only requires that fpos
 106:/usr/include/c++/5/bits/postypes.h ****    *  should contain a member of type StateT. In this implementation it also
 107:/usr/include/c++/5/bits/postypes.h ****    *  contains an offset stored as a signed integer.
 108:/usr/include/c++/5/bits/postypes.h ****    *
 109:/usr/include/c++/5/bits/postypes.h ****    *  @param  StateT  Type passed to and returned from state().
 110:/usr/include/c++/5/bits/postypes.h ****    */
 111:/usr/include/c++/5/bits/postypes.h ****   template<typename _StateT>
 112:/usr/include/c++/5/bits/postypes.h ****     class fpos
 113:/usr/include/c++/5/bits/postypes.h ****     {
 114:/usr/include/c++/5/bits/postypes.h ****     private:
 115:/usr/include/c++/5/bits/postypes.h ****       streamoff	                _M_off;
 116:/usr/include/c++/5/bits/postypes.h ****       _StateT			_M_state;
 117:/usr/include/c++/5/bits/postypes.h **** 
 118:/usr/include/c++/5/bits/postypes.h ****     public:
 119:/usr/include/c++/5/bits/postypes.h ****       // The standard doesn't require that fpos objects can be default
 120:/usr/include/c++/5/bits/postypes.h ****       // constructed. This implementation provides a default
 121:/usr/include/c++/5/bits/postypes.h ****       // constructor that initializes the offset to 0 and default
 122:/usr/include/c++/5/bits/postypes.h ****       // constructs the state.
 123:/usr/include/c++/5/bits/postypes.h ****       fpos()
 124:/usr/include/c++/5/bits/postypes.h ****       : _M_off(0), _M_state() { }
 125:/usr/include/c++/5/bits/postypes.h **** 
 126:/usr/include/c++/5/bits/postypes.h ****       // The standard requires that fpos objects can be constructed
 127:/usr/include/c++/5/bits/postypes.h ****       // from streamoff objects using the constructor syntax, and
 128:/usr/include/c++/5/bits/postypes.h ****       // fails to give any meaningful semantics. In this
 129:/usr/include/c++/5/bits/postypes.h ****       // implementation implicit conversion is also allowed, and this
 130:/usr/include/c++/5/bits/postypes.h ****       // constructor stores the streamoff as the offset and default
 131:/usr/include/c++/5/bits/postypes.h ****       // constructs the state.
 132:/usr/include/c++/5/bits/postypes.h ****       /// Construct position from offset.
 133:/usr/include/c++/5/bits/postypes.h ****       fpos(streamoff __off)
 134:/usr/include/c++/5/bits/postypes.h ****       : _M_off(__off), _M_state() { }
 135:/usr/include/c++/5/bits/postypes.h **** 
 136:/usr/include/c++/5/bits/postypes.h ****       /// Convert to streamoff.
 137:/usr/include/c++/5/bits/postypes.h ****       operator streamoff() const { return _M_off; }
 7947              		.loc 6 137 0
 7948              		.cfi_startproc
 7949 0000 55       		pushq	%rbp
 7950              		.cfi_def_cfa_offset 16
 7951              		.cfi_offset 6, -16
 7952 0001 4889E5   		movq	%rsp, %rbp
 7953              		.cfi_def_cfa_register 6
 7954 0004 48897DF8 		movq	%rdi, -8(%rbp)
 7955              		.loc 6 137 0
 7956 0008 488B45F8 		movq	-8(%rbp), %rax
 7957 000c 488B00   		movq	(%rax), %rax
 7958 000f 5D       		popq	%rbp
 7959              		.cfi_def_cfa 7, 8
 7960 0010 C3       		ret
 7961              		.cfi_endproc
 7962              	.LFE1238:
 7964              		.section	.text._ZN8UnitTest10CheckEqualImjEEvRNS_11TestResultsERKT_RKT0_RKNS_11TestDetailsE,"axG",
 7965              		.weak	_ZN8UnitTest10CheckEqualImjEEvRNS_11TestResultsERKT_RKT0_RKNS_11TestDetailsE
 7967              	_ZN8UnitTest10CheckEqualImjEEvRNS_11TestResultsERKT_RKT0_RKNS_11TestDetailsE:
 7968              	.LFB1240:
  19:/home/shubham/20140524/makestuff/libs/libutpp/Checks.h **** {
 7969              		.loc 5 19 0
 7970              		.cfi_startproc
 7971              		.cfi_personality 0x3,__gxx_personality_v0
 7972              		.cfi_lsda 0x3,.LLSDA1240
 7973 0000 55       		pushq	%rbp
 7974              		.cfi_def_cfa_offset 16
 7975              		.cfi_offset 6, -16
 7976 0001 4889E5   		movq	%rsp, %rbp
 7977              		.cfi_def_cfa_register 6
 7978 0004 4154     		pushq	%r12
 7979 0006 53       		pushq	%rbx
 7980 0007 4881ECC0 		subq	$448, %rsp
 7980      010000
 7981              		.cfi_offset 12, -24
 7982              		.cfi_offset 3, -32
 7983 000e 4889BD48 		movq	%rdi, -440(%rbp)
 7983      FEFFFF
 7984 0015 4889B540 		movq	%rsi, -448(%rbp)
 7984      FEFFFF
 7985 001c 48899538 		movq	%rdx, -456(%rbp)
 7985      FEFFFF
 7986 0023 48898D30 		movq	%rcx, -464(%rbp)
 7986      FEFFFF
  19:/home/shubham/20140524/makestuff/libs/libutpp/Checks.h **** {
 7987              		.loc 5 19 0
 7988 002a 64488B04 		movq	%fs:40, %rax
 7988      25280000 
 7988      00
 7989 0033 488945E8 		movq	%rax, -24(%rbp)
 7990 0037 31C0     		xorl	%eax, %eax
 7991              	.LBB39:
  21:/home/shubham/20140524/makestuff/libs/libutpp/Checks.h ****     {
 7992              		.loc 5 21 0
 7993 0039 488B8540 		movq	-448(%rbp), %rax
 7993      FEFFFF
 7994 0040 488B10   		movq	(%rax), %rdx
 7995 0043 488B8538 		movq	-456(%rbp), %rax
 7995      FEFFFF
 7996 004a 8B00     		movl	(%rax), %eax
 7997 004c 89C0     		movl	%eax, %eax
 7998 004e 4839C2   		cmpq	%rax, %rdx
 7999 0051 0F84B100 		je	.L484
 7999      0000
 8000              	.LBB40:
  23:/home/shubham/20140524/makestuff/libs/libutpp/Checks.h ****         stream << "Expected " << expected << " but was " << actual;
 8001              		.loc 5 23 0
 8002 0057 488D8550 		leaq	-432(%rbp), %rax
 8002      FEFFFF
 8003 005e 4889C7   		movq	%rax, %rdi
 8004              	.LEHB324:
 8005 0061 E8000000 		call	_ZN8UnitTest15MemoryOutStreamC1Ev
 8005      00
 8006              	.LEHE324:
  24:/home/shubham/20140524/makestuff/libs/libutpp/Checks.h **** 
 8007              		.loc 5 24 0
 8008 0066 488B8538 		movq	-456(%rbp), %rax
 8008      FEFFFF
 8009 006d 8B18     		movl	(%rax), %ebx
 8010 006f 488B8540 		movq	-448(%rbp), %rax
 8010      FEFFFF
 8011 0076 4C8B20   		movq	(%rax), %r12
 8012 0079 488D8550 		leaq	-432(%rbp), %rax
 8012      FEFFFF
 8013 0080 BE000000 		movl	$.LC77, %esi
 8013      00
 8014 0085 4889C7   		movq	%rax, %rdi
 8015              	.LEHB325:
 8016 0088 E8000000 		call	_ZStlsISt11char_traitsIcEERSt13basic_ostreamIcT_ES5_PKc
 8016      00
 8017 008d 4C89E6   		movq	%r12, %rsi
 8018 0090 4889C7   		movq	%rax, %rdi
 8019 0093 E8000000 		call	_ZNSolsEm
 8019      00
  24:/home/shubham/20140524/makestuff/libs/libutpp/Checks.h **** 
 8020              		.loc 5 24 0 is_stmt 0 discriminator 1
 8021 0098 BE000000 		movl	$.LC78, %esi
 8021      00
 8022 009d 4889C7   		movq	%rax, %rdi
 8023 00a0 E8000000 		call	_ZStlsISt11char_traitsIcEERSt13basic_ostreamIcT_ES5_PKc
 8023      00
  24:/home/shubham/20140524/makestuff/libs/libutpp/Checks.h **** 
 8024              		.loc 5 24 0 discriminator 2
 8025 00a5 89DE     		movl	%ebx, %esi
 8026 00a7 4889C7   		movq	%rax, %rdi
 8027 00aa E8000000 		call	_ZNSolsEj
 8027      00
  26:/home/shubham/20140524/makestuff/libs/libutpp/Checks.h ****     }
 8028              		.loc 5 26 0 is_stmt 1
 8029 00af 488D8550 		leaq	-432(%rbp), %rax
 8029      FEFFFF
 8030 00b6 4889C7   		movq	%rax, %rdi
 8031 00b9 E8000000 		call	_ZNK8UnitTest15MemoryOutStream7GetTextEv
 8031      00
 8032 00be 4889C2   		movq	%rax, %rdx
 8033 00c1 488B8D30 		movq	-464(%rbp), %rcx
 8033      FEFFFF
 8034 00c8 488B8548 		movq	-440(%rbp), %rax
 8034      FEFFFF
 8035 00cf 4889CE   		movq	%rcx, %rsi
 8036 00d2 4889C7   		movq	%rax, %rdi
 8037 00d5 E8000000 		call	_ZN8UnitTest11TestResults13OnTestFailureERKNS_11TestDetailsEPKc
 8037      00
 8038              	.LEHE325:
  23:/home/shubham/20140524/makestuff/libs/libutpp/Checks.h ****         stream << "Expected " << expected << " but was " << actual;
 8039              		.loc 5 23 0
 8040 00da 488D8550 		leaq	-432(%rbp), %rax
 8040      FEFFFF
 8041 00e1 4889C7   		movq	%rax, %rdi
 8042              	.LEHB326:
 8043 00e4 E8000000 		call	_ZN8UnitTest15MemoryOutStreamD1Ev
 8043      00
 8044              	.LEHE326:
 8045              	.LBE40:
 8046              	.LBE39:
  28:/home/shubham/20140524/makestuff/libs/libutpp/Checks.h **** 
 8047              		.loc 5 28 0
 8048 00e9 EB1D     		jmp	.L484
 8049              	.L483:
 8050 00eb 4889C3   		movq	%rax, %rbx
 8051              	.LBB42:
 8052              	.LBB41:
  23:/home/shubham/20140524/makestuff/libs/libutpp/Checks.h ****         stream << "Expected " << expected << " but was " << actual;
 8053              		.loc 5 23 0
 8054 00ee 488D8550 		leaq	-432(%rbp), %rax
 8054      FEFFFF
 8055 00f5 4889C7   		movq	%rax, %rdi
 8056 00f8 E8000000 		call	_ZN8UnitTest15MemoryOutStreamD1Ev
 8056      00
 8057 00fd 4889D8   		movq	%rbx, %rax
 8058 0100 4889C7   		movq	%rax, %rdi
 8059              	.LEHB327:
 8060 0103 E8000000 		call	_Unwind_Resume
 8060      00
 8061              	.LEHE327:
 8062              	.L484:
 8063              	.LBE41:
 8064              	.LBE42:
  28:/home/shubham/20140524/makestuff/libs/libutpp/Checks.h **** 
 8065              		.loc 5 28 0
 8066 0108 90       		nop
 8067 0109 488B45E8 		movq	-24(%rbp), %rax
 8068 010d 64483304 		xorq	%fs:40, %rax
 8068      25280000 
 8068      00
 8069 0116 7405     		je	.L482
 8070 0118 E8000000 		call	__stack_chk_fail
 8070      00
 8071              	.L482:
 8072 011d 4881C4C0 		addq	$448, %rsp
 8072      010000
 8073 0124 5B       		popq	%rbx
 8074 0125 415C     		popq	%r12
 8075 0127 5D       		popq	%rbp
 8076              		.cfi_def_cfa 7, 8
 8077 0128 C3       		ret
 8078              		.cfi_endproc
 8079              	.LFE1240:
 8080              		.section	.gcc_except_table
 8081              	.LLSDA1240:
 8082 07b9 FF       		.byte	0xff
 8083 07ba FF       		.byte	0xff
 8084 07bb 01       		.byte	0x1
 8085 07bc 14       		.uleb128 .LLSDACSE1240-.LLSDACSB1240
 8086              	.LLSDACSB1240:
 8087 07bd 61       		.uleb128 .LEHB324-.LFB1240
 8088 07be 05       		.uleb128 .LEHE324-.LEHB324
 8089 07bf 00       		.uleb128 0
 8090 07c0 00       		.uleb128 0
 8091 07c1 8801     		.uleb128 .LEHB325-.LFB1240
 8092 07c3 52       		.uleb128 .LEHE325-.LEHB325
 8093 07c4 EB01     		.uleb128 .L483-.LFB1240
 8094 07c6 00       		.uleb128 0
 8095 07c7 E401     		.uleb128 .LEHB326-.LFB1240
 8096 07c9 05       		.uleb128 .LEHE326-.LEHB326
 8097 07ca 00       		.uleb128 0
 8098 07cb 00       		.uleb128 0
 8099 07cc 8302     		.uleb128 .LEHB327-.LFB1240
 8100 07ce 05       		.uleb128 .LEHE327-.LEHB327
 8101 07cf 00       		.uleb128 0
 8102 07d0 00       		.uleb128 0
 8103              	.LLSDACSE1240:
 8104              		.section	.text._ZN8UnitTest10CheckEqualImjEEvRNS_11TestResultsERKT_RKT0_RKNS_11TestDetailsE,"axG",
 8106              		.section	.text._ZN8UnitTest15CheckArrayEqualIPKcS2_EEvRNS_11TestResultsERKT_RKT0_iRKNS_11TestDetai
 8107              		.weak	_ZN8UnitTest15CheckArrayEqualIPKcS2_EEvRNS_11TestResultsERKT_RKT0_iRKNS_11TestDetailsE
 8109              	_ZN8UnitTest15CheckArrayEqualIPKcS2_EEvRNS_11TestResultsERKT_RKT0_iRKNS_11TestDetailsE:
 8110              	.LFB1243:
  59:/home/shubham/20140524/makestuff/libs/libutpp/Checks.h ****                 int const count, TestDetails const& details)
 8111              		.loc 5 59 0
 8112              		.cfi_startproc
 8113              		.cfi_personality 0x3,__gxx_personality_v0
 8114              		.cfi_lsda 0x3,.LLSDA1243
 8115 0000 55       		pushq	%rbp
 8116              		.cfi_def_cfa_offset 16
 8117              		.cfi_offset 6, -16
 8118 0001 4889E5   		movq	%rsp, %rbp
 8119              		.cfi_def_cfa_register 6
 8120 0004 53       		pushq	%rbx
 8121 0005 4881ECE8 		subq	$488, %rsp
 8121      010000
 8122              		.cfi_offset 3, -24
 8123 000c 4889BD38 		movq	%rdi, -456(%rbp)
 8123      FEFFFF
 8124 0013 4889B530 		movq	%rsi, -464(%rbp)
 8124      FEFFFF
 8125 001a 48899528 		movq	%rdx, -472(%rbp)
 8125      FEFFFF
 8126 0021 898D24FE 		movl	%ecx, -476(%rbp)
 8126      FFFF
 8127 0027 4C898518 		movq	%r8, -488(%rbp)
 8127      FEFFFF
  59:/home/shubham/20140524/makestuff/libs/libutpp/Checks.h ****                 int const count, TestDetails const& details)
 8128              		.loc 5 59 0
 8129 002e 64488B04 		movq	%fs:40, %rax
 8129      25280000 
 8129      00
 8130 0037 488945E8 		movq	%rax, -24(%rbp)
 8131 003b 31C0     		xorl	%eax, %eax
  62:/home/shubham/20140524/makestuff/libs/libutpp/Checks.h ****     for (int i = 0; i < count; ++i)
 8132              		.loc 5 62 0
 8133 003d C68543FE 		movb	$1, -445(%rbp)
 8133      FFFF01
 8134              	.LBB43:
  63:/home/shubham/20140524/makestuff/libs/libutpp/Checks.h ****         equal &= (expected[i] == actual[i]);
 8135              		.loc 5 63 0
 8136 0044 C78544FE 		movl	$0, -444(%rbp)
 8136      FFFF0000 
 8136      0000
 8137              	.L487:
  63:/home/shubham/20140524/makestuff/libs/libutpp/Checks.h ****         equal &= (expected[i] == actual[i]);
 8138              		.loc 5 63 0 is_stmt 0 discriminator 3
 8139 004e 8B8544FE 		movl	-444(%rbp), %eax
 8139      FFFF
 8140 0054 3B8524FE 		cmpl	-476(%rbp), %eax
 8140      FFFF
 8141 005a 7D55     		jge	.L486
  64:/home/shubham/20140524/makestuff/libs/libutpp/Checks.h **** 
 8142              		.loc 5 64 0 is_stmt 1 discriminator 2
 8143 005c 0FB69543 		movzbl	-445(%rbp), %edx
 8143      FEFFFF
 8144 0063 488B8530 		movq	-464(%rbp), %rax
 8144      FEFFFF
 8145 006a 488B08   		movq	(%rax), %rcx
 8146 006d 8B8544FE 		movl	-444(%rbp), %eax
 8146      FFFF
 8147 0073 4898     		cltq
 8148 0075 4801C8   		addq	%rcx, %rax
 8149 0078 0FB608   		movzbl	(%rax), %ecx
 8150 007b 488B8528 		movq	-472(%rbp), %rax
 8150      FEFFFF
 8151 0082 488B30   		movq	(%rax), %rsi
 8152 0085 8B8544FE 		movl	-444(%rbp), %eax
 8152      FFFF
 8153 008b 4898     		cltq
 8154 008d 4801F0   		addq	%rsi, %rax
 8155 0090 0FB600   		movzbl	(%rax), %eax
 8156 0093 38C1     		cmpb	%al, %cl
 8157 0095 0F94C0   		sete	%al
 8158 0098 0FB6C0   		movzbl	%al, %eax
 8159 009b 21D0     		andl	%edx, %eax
 8160 009d 85C0     		testl	%eax, %eax
 8161 009f 0F95C0   		setne	%al
 8162 00a2 888543FE 		movb	%al, -445(%rbp)
 8162      FFFF
  63:/home/shubham/20140524/makestuff/libs/libutpp/Checks.h ****         equal &= (expected[i] == actual[i]);
 8163              		.loc 5 63 0 discriminator 2
 8164 00a8 838544FE 		addl	$1, -444(%rbp)
 8164      FFFF01
 8165 00af EB9D     		jmp	.L487
 8166              	.L486:
 8167              	.LBE43:
 8168              	.LBB44:
  66:/home/shubham/20140524/makestuff/libs/libutpp/Checks.h ****     {
 8169              		.loc 5 66 0
 8170 00b1 0FB68543 		movzbl	-445(%rbp), %eax
 8170      FEFFFF
 8171 00b8 83F001   		xorl	$1, %eax
 8172 00bb 84C0     		testb	%al, %al
 8173 00bd 0F845801 		je	.L496
 8173      0000
 8174              	.LBB45:
  68:/home/shubham/20140524/makestuff/libs/libutpp/Checks.h **** 
 8175              		.loc 5 68 0
 8176 00c3 488D8550 		leaq	-432(%rbp), %rax
 8176      FEFFFF
 8177 00ca 4889C7   		movq	%rax, %rdi
 8178              	.LEHB328:
 8179 00cd E8000000 		call	_ZN8UnitTest15MemoryOutStreamC1Ev
 8179      00
 8180              	.LEHE328:
  70:/home/shubham/20140524/makestuff/libs/libutpp/Checks.h **** 
 8181              		.loc 5 70 0
 8182 00d2 488D8550 		leaq	-432(%rbp), %rax
 8182      FEFFFF
 8183 00d9 BE000000 		movl	$.LC79, %esi
 8183      00
 8184 00de 4889C7   		movq	%rax, %rdi
 8185              	.LEHB329:
 8186 00e1 E8000000 		call	_ZStlsISt11char_traitsIcEERSt13basic_ostreamIcT_ES5_PKc
 8186      00
 8187              	.LBB46:
  72:/home/shubham/20140524/makestuff/libs/libutpp/Checks.h ****             stream << expected[expectedIndex] << " ";
 8188              		.loc 5 72 0
 8189 00e6 C78548FE 		movl	$0, -440(%rbp)
 8189      FFFF0000 
 8189      0000
 8190              	.L490:
  72:/home/shubham/20140524/makestuff/libs/libutpp/Checks.h ****             stream << expected[expectedIndex] << " ";
 8191              		.loc 5 72 0 is_stmt 0 discriminator 1
 8192 00f0 8B8548FE 		movl	-440(%rbp), %eax
 8192      FFFF
 8193 00f6 3B8524FE 		cmpl	-476(%rbp), %eax
 8193      FFFF
 8194 00fc 7D42     		jge	.L489
  73:/home/shubham/20140524/makestuff/libs/libutpp/Checks.h **** 
 8195              		.loc 5 73 0 is_stmt 1
 8196 00fe 488B8530 		movq	-464(%rbp), %rax
 8196      FEFFFF
 8197 0105 488B10   		movq	(%rax), %rdx
 8198 0108 8B8548FE 		movl	-440(%rbp), %eax
 8198      FFFF
 8199 010e 4898     		cltq
 8200 0110 4801D0   		addq	%rdx, %rax
 8201 0113 0FB600   		movzbl	(%rax), %eax
 8202 0116 0FBED0   		movsbl	%al, %edx
 8203 0119 488D8550 		leaq	-432(%rbp), %rax
 8203      FEFFFF
 8204 0120 89D6     		movl	%edx, %esi
 8205 0122 4889C7   		movq	%rax, %rdi
 8206 0125 E8000000 		call	_ZStlsISt11char_traitsIcEERSt13basic_ostreamIcT_ES5_c
 8206      00
 8207 012a BE000000 		movl	$.LC80, %esi
 8207      00
 8208 012f 4889C7   		movq	%rax, %rdi
 8209 0132 E8000000 		call	_ZStlsISt11char_traitsIcEERSt13basic_ostreamIcT_ES5_PKc
 8209      00
  72:/home/shubham/20140524/makestuff/libs/libutpp/Checks.h ****             stream << expected[expectedIndex] << " ";
 8210              		.loc 5 72 0 discriminator 2
 8211 0137 838548FE 		addl	$1, -440(%rbp)
 8211      FFFF01
 8212 013e EBB0     		jmp	.L490
 8213              	.L489:
 8214              	.LBE46:
  75:/home/shubham/20140524/makestuff/libs/libutpp/Checks.h **** 
 8215              		.loc 5 75 0
 8216 0140 488D8550 		leaq	-432(%rbp), %rax
 8216      FEFFFF
 8217 0147 BE000000 		movl	$.LC81, %esi
 8217      00
 8218 014c 4889C7   		movq	%rax, %rdi
 8219 014f E8000000 		call	_ZStlsISt11char_traitsIcEERSt13basic_ostreamIcT_ES5_PKc
 8219      00
 8220              	.LBB47:
  77:/home/shubham/20140524/makestuff/libs/libutpp/Checks.h ****             stream << actual[actualIndex] << " ";
 8221              		.loc 5 77 0
 8222 0154 C7854CFE 		movl	$0, -436(%rbp)
 8222      FFFF0000 
 8222      0000
 8223              	.L492:
  77:/home/shubham/20140524/makestuff/libs/libutpp/Checks.h ****             stream << actual[actualIndex] << " ";
 8224              		.loc 5 77 0 is_stmt 0 discriminator 1
 8225 015e 8B854CFE 		movl	-436(%rbp), %eax
 8225      FFFF
 8226 0164 3B8524FE 		cmpl	-476(%rbp), %eax
 8226      FFFF
 8227 016a 7D42     		jge	.L491
  78:/home/shubham/20140524/makestuff/libs/libutpp/Checks.h **** 
 8228              		.loc 5 78 0 is_stmt 1
 8229 016c 488B8528 		movq	-472(%rbp), %rax
 8229      FEFFFF
 8230 0173 488B10   		movq	(%rax), %rdx
 8231 0176 8B854CFE 		movl	-436(%rbp), %eax
 8231      FFFF
 8232 017c 4898     		cltq
 8233 017e 4801D0   		addq	%rdx, %rax
 8234 0181 0FB600   		movzbl	(%rax), %eax
 8235 0184 0FBED0   		movsbl	%al, %edx
 8236 0187 488D8550 		leaq	-432(%rbp), %rax
 8236      FEFFFF
 8237 018e 89D6     		movl	%edx, %esi
 8238 0190 4889C7   		movq	%rax, %rdi
 8239 0193 E8000000 		call	_ZStlsISt11char_traitsIcEERSt13basic_ostreamIcT_ES5_c
 8239      00
 8240 0198 BE000000 		movl	$.LC80, %esi
 8240      00
 8241 019d 4889C7   		movq	%rax, %rdi
 8242 01a0 E8000000 		call	_ZStlsISt11char_traitsIcEERSt13basic_ostreamIcT_ES5_PKc
 8242      00
  77:/home/shubham/20140524/makestuff/libs/libutpp/Checks.h ****             stream << actual[actualIndex] << " ";
 8243              		.loc 5 77 0 discriminator 2
 8244 01a5 83854CFE 		addl	$1, -436(%rbp)
 8244      FFFF01
 8245 01ac EBB0     		jmp	.L492
 8246              	.L491:
 8247              	.LBE47:
  80:/home/shubham/20140524/makestuff/libs/libutpp/Checks.h **** 
 8248              		.loc 5 80 0
 8249 01ae 488D8550 		leaq	-432(%rbp), %rax
 8249      FEFFFF
 8250 01b5 BE000000 		movl	$.LC82, %esi
 8250      00
 8251 01ba 4889C7   		movq	%rax, %rdi
 8252 01bd E8000000 		call	_ZStlsISt11char_traitsIcEERSt13basic_ostreamIcT_ES5_PKc
 8252      00
  82:/home/shubham/20140524/makestuff/libs/libutpp/Checks.h ****     }
 8253              		.loc 5 82 0
 8254 01c2 488D8550 		leaq	-432(%rbp), %rax
 8254      FEFFFF
 8255 01c9 4889C7   		movq	%rax, %rdi
 8256 01cc E8000000 		call	_ZNK8UnitTest15MemoryOutStream7GetTextEv
 8256      00
 8257 01d1 4889C2   		movq	%rax, %rdx
 8258 01d4 488B8D18 		movq	-488(%rbp), %rcx
 8258      FEFFFF
 8259 01db 488B8538 		movq	-456(%rbp), %rax
 8259      FEFFFF
 8260 01e2 4889CE   		movq	%rcx, %rsi
 8261 01e5 4889C7   		movq	%rax, %rdi
 8262 01e8 E8000000 		call	_ZN8UnitTest11TestResults13OnTestFailureERKNS_11TestDetailsEPKc
 8262      00
 8263              	.LEHE329:
  68:/home/shubham/20140524/makestuff/libs/libutpp/Checks.h **** 
 8264              		.loc 5 68 0
 8265 01ed 488D8550 		leaq	-432(%rbp), %rax
 8265      FEFFFF
 8266 01f4 4889C7   		movq	%rax, %rdi
 8267              	.LEHB330:
 8268 01f7 E8000000 		call	_ZN8UnitTest15MemoryOutStreamD1Ev
 8268      00
 8269              	.LEHE330:
 8270              	.LBE45:
 8271              	.LBE44:
 8272              		.loc 5 84 0
 8273 01fc EB1D     		jmp	.L496
 8274              	.L495:
 8275 01fe 4889C3   		movq	%rax, %rbx
 8276              	.LBB49:
 8277              	.LBB48:
  68:/home/shubham/20140524/makestuff/libs/libutpp/Checks.h **** 
 8278              		.loc 5 68 0
 8279 0201 488D8550 		leaq	-432(%rbp), %rax
 8279      FEFFFF
 8280 0208 4889C7   		movq	%rax, %rdi
 8281 020b E8000000 		call	_ZN8UnitTest15MemoryOutStreamD1Ev
 8281      00
 8282 0210 4889D8   		movq	%rbx, %rax
 8283 0213 4889C7   		movq	%rax, %rdi
 8284              	.LEHB331:
 8285 0216 E8000000 		call	_Unwind_Resume
 8285      00
 8286              	.LEHE331:
 8287              	.L496:
 8288              	.LBE48:
 8289              	.LBE49:
 8290              		.loc 5 84 0
 8291 021b 90       		nop
 8292 021c 488B45E8 		movq	-24(%rbp), %rax
 8293 0220 64483304 		xorq	%fs:40, %rax
 8293      25280000 
 8293      00
 8294 0229 7405     		je	.L494
 8295 022b E8000000 		call	__stack_chk_fail
 8295      00
 8296              	.L494:
 8297 0230 4881C4E8 		addq	$488, %rsp
 8297      010000
 8298 0237 5B       		popq	%rbx
 8299 0238 5D       		popq	%rbp
 8300              		.cfi_def_cfa 7, 8
 8301 0239 C3       		ret
 8302              		.cfi_endproc
 8303              	.LFE1243:
 8304              		.section	.gcc_except_table
 8305              	.LLSDA1243:
 8306 07d1 FF       		.byte	0xff
 8307 07d2 FF       		.byte	0xff
 8308 07d3 01       		.byte	0x1
 8309 07d4 16       		.uleb128 .LLSDACSE1243-.LLSDACSB1243
 8310              	.LLSDACSB1243:
 8311 07d5 CD01     		.uleb128 .LEHB328-.LFB1243
 8312 07d7 05       		.uleb128 .LEHE328-.LEHB328
 8313 07d8 00       		.uleb128 0
 8314 07d9 00       		.uleb128 0
 8315 07da E101     		.uleb128 .LEHB329-.LFB1243
 8316 07dc 8C02     		.uleb128 .LEHE329-.LEHB329
 8317 07de FE03     		.uleb128 .L495-.LFB1243
 8318 07e0 00       		.uleb128 0
 8319 07e1 F703     		.uleb128 .LEHB330-.LFB1243
 8320 07e3 05       		.uleb128 .LEHE330-.LEHB330
 8321 07e4 00       		.uleb128 0
 8322 07e5 00       		.uleb128 0
 8323 07e6 9604     		.uleb128 .LEHB331-.LFB1243
 8324 07e8 05       		.uleb128 .LEHE331-.LEHB331
 8325 07e9 00       		.uleb128 0
 8326 07ea 00       		.uleb128 0
 8327              	.LLSDACSE1243:
 8328              		.section	.text._ZN8UnitTest15CheckArrayEqualIPKcS2_EEvRNS_11TestResultsERKT_RKT0_iRKNS_11TestDetai
 8330              		.section	.text._ZN8UnitTest15CheckArrayEqualIPhS1_EEvRNS_11TestResultsERKT_RKT0_iRKNS_11TestDetail
 8331              		.weak	_ZN8UnitTest15CheckArrayEqualIPhS1_EEvRNS_11TestResultsERKT_RKT0_iRKNS_11TestDetailsE
 8333              	_ZN8UnitTest15CheckArrayEqualIPhS1_EEvRNS_11TestResultsERKT_RKT0_iRKNS_11TestDetailsE:
 8334              	.LFB1244:
  59:/home/shubham/20140524/makestuff/libs/libutpp/Checks.h ****                 int const count, TestDetails const& details)
 8335              		.loc 5 59 0
 8336              		.cfi_startproc
 8337              		.cfi_personality 0x3,__gxx_personality_v0
 8338              		.cfi_lsda 0x3,.LLSDA1244
 8339 0000 55       		pushq	%rbp
 8340              		.cfi_def_cfa_offset 16
 8341              		.cfi_offset 6, -16
 8342 0001 4889E5   		movq	%rsp, %rbp
 8343              		.cfi_def_cfa_register 6
 8344 0004 53       		pushq	%rbx
 8345 0005 4881ECE8 		subq	$488, %rsp
 8345      010000
 8346              		.cfi_offset 3, -24
 8347 000c 4889BD38 		movq	%rdi, -456(%rbp)
 8347      FEFFFF
 8348 0013 4889B530 		movq	%rsi, -464(%rbp)
 8348      FEFFFF
 8349 001a 48899528 		movq	%rdx, -472(%rbp)
 8349      FEFFFF
 8350 0021 898D24FE 		movl	%ecx, -476(%rbp)
 8350      FFFF
 8351 0027 4C898518 		movq	%r8, -488(%rbp)
 8351      FEFFFF
  59:/home/shubham/20140524/makestuff/libs/libutpp/Checks.h ****                 int const count, TestDetails const& details)
 8352              		.loc 5 59 0
 8353 002e 64488B04 		movq	%fs:40, %rax
 8353      25280000 
 8353      00
 8354 0037 488945E8 		movq	%rax, -24(%rbp)
 8355 003b 31C0     		xorl	%eax, %eax
  62:/home/shubham/20140524/makestuff/libs/libutpp/Checks.h ****     for (int i = 0; i < count; ++i)
 8356              		.loc 5 62 0
 8357 003d C68543FE 		movb	$1, -445(%rbp)
 8357      FFFF01
 8358              	.LBB50:
  63:/home/shubham/20140524/makestuff/libs/libutpp/Checks.h ****         equal &= (expected[i] == actual[i]);
 8359              		.loc 5 63 0
 8360 0044 C78544FE 		movl	$0, -444(%rbp)
 8360      FFFF0000 
 8360      0000
 8361              	.L499:
  63:/home/shubham/20140524/makestuff/libs/libutpp/Checks.h ****         equal &= (expected[i] == actual[i]);
 8362              		.loc 5 63 0 is_stmt 0 discriminator 3
 8363 004e 8B8544FE 		movl	-444(%rbp), %eax
 8363      FFFF
 8364 0054 3B8524FE 		cmpl	-476(%rbp), %eax
 8364      FFFF
 8365 005a 7D55     		jge	.L498
  64:/home/shubham/20140524/makestuff/libs/libutpp/Checks.h **** 
 8366              		.loc 5 64 0 is_stmt 1 discriminator 2
 8367 005c 0FB69543 		movzbl	-445(%rbp), %edx
 8367      FEFFFF
 8368 0063 488B8530 		movq	-464(%rbp), %rax
 8368      FEFFFF
 8369 006a 488B08   		movq	(%rax), %rcx
 8370 006d 8B8544FE 		movl	-444(%rbp), %eax
 8370      FFFF
 8371 0073 4898     		cltq
 8372 0075 4801C8   		addq	%rcx, %rax
 8373 0078 0FB608   		movzbl	(%rax), %ecx
 8374 007b 488B8528 		movq	-472(%rbp), %rax
 8374      FEFFFF
 8375 0082 488B30   		movq	(%rax), %rsi
 8376 0085 8B8544FE 		movl	-444(%rbp), %eax
 8376      FFFF
 8377 008b 4898     		cltq
 8378 008d 4801F0   		addq	%rsi, %rax
 8379 0090 0FB600   		movzbl	(%rax), %eax
 8380 0093 38C1     		cmpb	%al, %cl
 8381 0095 0F94C0   		sete	%al
 8382 0098 0FB6C0   		movzbl	%al, %eax
 8383 009b 21D0     		andl	%edx, %eax
 8384 009d 85C0     		testl	%eax, %eax
 8385 009f 0F95C0   		setne	%al
 8386 00a2 888543FE 		movb	%al, -445(%rbp)
 8386      FFFF
  63:/home/shubham/20140524/makestuff/libs/libutpp/Checks.h ****         equal &= (expected[i] == actual[i]);
 8387              		.loc 5 63 0 discriminator 2
 8388 00a8 838544FE 		addl	$1, -444(%rbp)
 8388      FFFF01
 8389 00af EB9D     		jmp	.L499
 8390              	.L498:
 8391              	.LBE50:
 8392              	.LBB51:
  66:/home/shubham/20140524/makestuff/libs/libutpp/Checks.h ****     {
 8393              		.loc 5 66 0
 8394 00b1 0FB68543 		movzbl	-445(%rbp), %eax
 8394      FEFFFF
 8395 00b8 83F001   		xorl	$1, %eax
 8396 00bb 84C0     		testb	%al, %al
 8397 00bd 0F845801 		je	.L508
 8397      0000
 8398              	.LBB52:
  68:/home/shubham/20140524/makestuff/libs/libutpp/Checks.h **** 
 8399              		.loc 5 68 0
 8400 00c3 488D8550 		leaq	-432(%rbp), %rax
 8400      FEFFFF
 8401 00ca 4889C7   		movq	%rax, %rdi
 8402              	.LEHB332:
 8403 00cd E8000000 		call	_ZN8UnitTest15MemoryOutStreamC1Ev
 8403      00
 8404              	.LEHE332:
  70:/home/shubham/20140524/makestuff/libs/libutpp/Checks.h **** 
 8405              		.loc 5 70 0
 8406 00d2 488D8550 		leaq	-432(%rbp), %rax
 8406      FEFFFF
 8407 00d9 BE000000 		movl	$.LC79, %esi
 8407      00
 8408 00de 4889C7   		movq	%rax, %rdi
 8409              	.LEHB333:
 8410 00e1 E8000000 		call	_ZStlsISt11char_traitsIcEERSt13basic_ostreamIcT_ES5_PKc
 8410      00
 8411              	.LBB53:
  72:/home/shubham/20140524/makestuff/libs/libutpp/Checks.h ****             stream << expected[expectedIndex] << " ";
 8412              		.loc 5 72 0
 8413 00e6 C78548FE 		movl	$0, -440(%rbp)
 8413      FFFF0000 
 8413      0000
 8414              	.L502:
  72:/home/shubham/20140524/makestuff/libs/libutpp/Checks.h ****             stream << expected[expectedIndex] << " ";
 8415              		.loc 5 72 0 is_stmt 0 discriminator 1
 8416 00f0 8B8548FE 		movl	-440(%rbp), %eax
 8416      FFFF
 8417 00f6 3B8524FE 		cmpl	-476(%rbp), %eax
 8417      FFFF
 8418 00fc 7D42     		jge	.L501
  73:/home/shubham/20140524/makestuff/libs/libutpp/Checks.h **** 
 8419              		.loc 5 73 0 is_stmt 1
 8420 00fe 488B8530 		movq	-464(%rbp), %rax
 8420      FEFFFF
 8421 0105 488B10   		movq	(%rax), %rdx
 8422 0108 8B8548FE 		movl	-440(%rbp), %eax
 8422      FFFF
 8423 010e 4898     		cltq
 8424 0110 4801D0   		addq	%rdx, %rax
 8425 0113 0FB600   		movzbl	(%rax), %eax
 8426 0116 0FB6D0   		movzbl	%al, %edx
 8427 0119 488D8550 		leaq	-432(%rbp), %rax
 8427      FEFFFF
 8428 0120 89D6     		movl	%edx, %esi
 8429 0122 4889C7   		movq	%rax, %rdi
 8430 0125 E8000000 		call	_ZStlsISt11char_traitsIcEERSt13basic_ostreamIcT_ES5_h
 8430      00
 8431 012a BE000000 		movl	$.LC80, %esi
 8431      00
 8432 012f 4889C7   		movq	%rax, %rdi
 8433 0132 E8000000 		call	_ZStlsISt11char_traitsIcEERSt13basic_ostreamIcT_ES5_PKc
 8433      00
  72:/home/shubham/20140524/makestuff/libs/libutpp/Checks.h ****             stream << expected[expectedIndex] << " ";
 8434              		.loc 5 72 0 discriminator 2
 8435 0137 838548FE 		addl	$1, -440(%rbp)
 8435      FFFF01
 8436 013e EBB0     		jmp	.L502
 8437              	.L501:
 8438              	.LBE53:
  75:/home/shubham/20140524/makestuff/libs/libutpp/Checks.h **** 
 8439              		.loc 5 75 0
 8440 0140 488D8550 		leaq	-432(%rbp), %rax
 8440      FEFFFF
 8441 0147 BE000000 		movl	$.LC81, %esi
 8441      00
 8442 014c 4889C7   		movq	%rax, %rdi
 8443 014f E8000000 		call	_ZStlsISt11char_traitsIcEERSt13basic_ostreamIcT_ES5_PKc
 8443      00
 8444              	.LBB54:
  77:/home/shubham/20140524/makestuff/libs/libutpp/Checks.h ****             stream << actual[actualIndex] << " ";
 8445              		.loc 5 77 0
 8446 0154 C7854CFE 		movl	$0, -436(%rbp)
 8446      FFFF0000 
 8446      0000
 8447              	.L504:
  77:/home/shubham/20140524/makestuff/libs/libutpp/Checks.h ****             stream << actual[actualIndex] << " ";
 8448              		.loc 5 77 0 is_stmt 0 discriminator 1
 8449 015e 8B854CFE 		movl	-436(%rbp), %eax
 8449      FFFF
 8450 0164 3B8524FE 		cmpl	-476(%rbp), %eax
 8450      FFFF
 8451 016a 7D42     		jge	.L503
  78:/home/shubham/20140524/makestuff/libs/libutpp/Checks.h **** 
 8452              		.loc 5 78 0 is_stmt 1
 8453 016c 488B8528 		movq	-472(%rbp), %rax
 8453      FEFFFF
 8454 0173 488B10   		movq	(%rax), %rdx
 8455 0176 8B854CFE 		movl	-436(%rbp), %eax
 8455      FFFF
 8456 017c 4898     		cltq
 8457 017e 4801D0   		addq	%rdx, %rax
 8458 0181 0FB600   		movzbl	(%rax), %eax
 8459 0184 0FB6D0   		movzbl	%al, %edx
 8460 0187 488D8550 		leaq	-432(%rbp), %rax
 8460      FEFFFF
 8461 018e 89D6     		movl	%edx, %esi
 8462 0190 4889C7   		movq	%rax, %rdi
 8463 0193 E8000000 		call	_ZStlsISt11char_traitsIcEERSt13basic_ostreamIcT_ES5_h
 8463      00
 8464 0198 BE000000 		movl	$.LC80, %esi
 8464      00
 8465 019d 4889C7   		movq	%rax, %rdi
 8466 01a0 E8000000 		call	_ZStlsISt11char_traitsIcEERSt13basic_ostreamIcT_ES5_PKc
 8466      00
  77:/home/shubham/20140524/makestuff/libs/libutpp/Checks.h ****             stream << actual[actualIndex] << " ";
 8467              		.loc 5 77 0 discriminator 2
 8468 01a5 83854CFE 		addl	$1, -436(%rbp)
 8468      FFFF01
 8469 01ac EBB0     		jmp	.L504
 8470              	.L503:
 8471              	.LBE54:
  80:/home/shubham/20140524/makestuff/libs/libutpp/Checks.h **** 
 8472              		.loc 5 80 0
 8473 01ae 488D8550 		leaq	-432(%rbp), %rax
 8473      FEFFFF
 8474 01b5 BE000000 		movl	$.LC82, %esi
 8474      00
 8475 01ba 4889C7   		movq	%rax, %rdi
 8476 01bd E8000000 		call	_ZStlsISt11char_traitsIcEERSt13basic_ostreamIcT_ES5_PKc
 8476      00
  82:/home/shubham/20140524/makestuff/libs/libutpp/Checks.h ****     }
 8477              		.loc 5 82 0
 8478 01c2 488D8550 		leaq	-432(%rbp), %rax
 8478      FEFFFF
 8479 01c9 4889C7   		movq	%rax, %rdi
 8480 01cc E8000000 		call	_ZNK8UnitTest15MemoryOutStream7GetTextEv
 8480      00
 8481 01d1 4889C2   		movq	%rax, %rdx
 8482 01d4 488B8D18 		movq	-488(%rbp), %rcx
 8482      FEFFFF
 8483 01db 488B8538 		movq	-456(%rbp), %rax
 8483      FEFFFF
 8484 01e2 4889CE   		movq	%rcx, %rsi
 8485 01e5 4889C7   		movq	%rax, %rdi
 8486 01e8 E8000000 		call	_ZN8UnitTest11TestResults13OnTestFailureERKNS_11TestDetailsEPKc
 8486      00
 8487              	.LEHE333:
  68:/home/shubham/20140524/makestuff/libs/libutpp/Checks.h **** 
 8488              		.loc 5 68 0
 8489 01ed 488D8550 		leaq	-432(%rbp), %rax
 8489      FEFFFF
 8490 01f4 4889C7   		movq	%rax, %rdi
 8491              	.LEHB334:
 8492 01f7 E8000000 		call	_ZN8UnitTest15MemoryOutStreamD1Ev
 8492      00
 8493              	.LEHE334:
 8494              	.LBE52:
 8495              	.LBE51:
 8496              		.loc 5 84 0
 8497 01fc EB1D     		jmp	.L508
 8498              	.L507:
 8499 01fe 4889C3   		movq	%rax, %rbx
 8500              	.LBB56:
 8501              	.LBB55:
  68:/home/shubham/20140524/makestuff/libs/libutpp/Checks.h **** 
 8502              		.loc 5 68 0
 8503 0201 488D8550 		leaq	-432(%rbp), %rax
 8503      FEFFFF
 8504 0208 4889C7   		movq	%rax, %rdi
 8505 020b E8000000 		call	_ZN8UnitTest15MemoryOutStreamD1Ev
 8505      00
 8506 0210 4889D8   		movq	%rbx, %rax
 8507 0213 4889C7   		movq	%rax, %rdi
 8508              	.LEHB335:
 8509 0216 E8000000 		call	_Unwind_Resume
 8509      00
 8510              	.LEHE335:
 8511              	.L508:
 8512              	.LBE55:
 8513              	.LBE56:
 8514              		.loc 5 84 0
 8515 021b 90       		nop
 8516 021c 488B45E8 		movq	-24(%rbp), %rax
 8517 0220 64483304 		xorq	%fs:40, %rax
 8517      25280000 
 8517      00
 8518 0229 7405     		je	.L506
 8519 022b E8000000 		call	__stack_chk_fail
 8519      00
 8520              	.L506:
 8521 0230 4881C4E8 		addq	$488, %rsp
 8521      010000
 8522 0237 5B       		popq	%rbx
 8523 0238 5D       		popq	%rbp
 8524              		.cfi_def_cfa 7, 8
 8525 0239 C3       		ret
 8526              		.cfi_endproc
 8527              	.LFE1244:
 8528              		.section	.gcc_except_table
 8529              	.LLSDA1244:
 8530 07eb FF       		.byte	0xff
 8531 07ec FF       		.byte	0xff
 8532 07ed 01       		.byte	0x1
 8533 07ee 16       		.uleb128 .LLSDACSE1244-.LLSDACSB1244
 8534              	.LLSDACSB1244:
 8535 07ef CD01     		.uleb128 .LEHB332-.LFB1244
 8536 07f1 05       		.uleb128 .LEHE332-.LEHB332
 8537 07f2 00       		.uleb128 0
 8538 07f3 00       		.uleb128 0
 8539 07f4 E101     		.uleb128 .LEHB333-.LFB1244
 8540 07f6 8C02     		.uleb128 .LEHE333-.LEHB333
 8541 07f8 FE03     		.uleb128 .L507-.LFB1244
 8542 07fa 00       		.uleb128 0
 8543 07fb F703     		.uleb128 .LEHB334-.LFB1244
 8544 07fd 05       		.uleb128 .LEHE334-.LEHB334
 8545 07fe 00       		.uleb128 0
 8546 07ff 00       		.uleb128 0
 8547 0800 9604     		.uleb128 .LEHB335-.LFB1244
 8548 0802 05       		.uleb128 .LEHE335-.LEHB335
 8549 0803 00       		.uleb128 0
 8550 0804 00       		.uleb128 0
 8551              	.LLSDACSE1244:
 8552              		.section	.text._ZN8UnitTest15CheckArrayEqualIPhS1_EEvRNS_11TestResultsERKT_RKT0_iRKNS_11TestDetail
 8554              		.section	.text._ZN8UnitTest15CheckArrayEqualIPKcPhEEvRNS_11TestResultsERKT_RKT0_iRKNS_11TestDetail
 8555              		.weak	_ZN8UnitTest15CheckArrayEqualIPKcPhEEvRNS_11TestResultsERKT_RKT0_iRKNS_11TestDetailsE
 8557              	_ZN8UnitTest15CheckArrayEqualIPKcPhEEvRNS_11TestResultsERKT_RKT0_iRKNS_11TestDetailsE:
 8558              	.LFB1245:
  59:/home/shubham/20140524/makestuff/libs/libutpp/Checks.h ****                 int const count, TestDetails const& details)
 8559              		.loc 5 59 0
 8560              		.cfi_startproc
 8561              		.cfi_personality 0x3,__gxx_personality_v0
 8562              		.cfi_lsda 0x3,.LLSDA1245
 8563 0000 55       		pushq	%rbp
 8564              		.cfi_def_cfa_offset 16
 8565              		.cfi_offset 6, -16
 8566 0001 4889E5   		movq	%rsp, %rbp
 8567              		.cfi_def_cfa_register 6
 8568 0004 53       		pushq	%rbx
 8569 0005 4881ECE8 		subq	$488, %rsp
 8569      010000
 8570              		.cfi_offset 3, -24
 8571 000c 4889BD38 		movq	%rdi, -456(%rbp)
 8571      FEFFFF
 8572 0013 4889B530 		movq	%rsi, -464(%rbp)
 8572      FEFFFF
 8573 001a 48899528 		movq	%rdx, -472(%rbp)
 8573      FEFFFF
 8574 0021 898D24FE 		movl	%ecx, -476(%rbp)
 8574      FFFF
 8575 0027 4C898518 		movq	%r8, -488(%rbp)
 8575      FEFFFF
  59:/home/shubham/20140524/makestuff/libs/libutpp/Checks.h ****                 int const count, TestDetails const& details)
 8576              		.loc 5 59 0
 8577 002e 64488B04 		movq	%fs:40, %rax
 8577      25280000 
 8577      00
 8578 0037 488945E8 		movq	%rax, -24(%rbp)
 8579 003b 31C0     		xorl	%eax, %eax
  62:/home/shubham/20140524/makestuff/libs/libutpp/Checks.h ****     for (int i = 0; i < count; ++i)
 8580              		.loc 5 62 0
 8581 003d C68543FE 		movb	$1, -445(%rbp)
 8581      FFFF01
 8582              	.LBB57:
  63:/home/shubham/20140524/makestuff/libs/libutpp/Checks.h ****         equal &= (expected[i] == actual[i]);
 8583              		.loc 5 63 0
 8584 0044 C78544FE 		movl	$0, -444(%rbp)
 8584      FFFF0000 
 8584      0000
 8585              	.L511:
  63:/home/shubham/20140524/makestuff/libs/libutpp/Checks.h ****         equal &= (expected[i] == actual[i]);
 8586              		.loc 5 63 0 is_stmt 0 discriminator 3
 8587 004e 8B8544FE 		movl	-444(%rbp), %eax
 8587      FFFF
 8588 0054 3B8524FE 		cmpl	-476(%rbp), %eax
 8588      FFFF
 8589 005a 7D5B     		jge	.L510
  64:/home/shubham/20140524/makestuff/libs/libutpp/Checks.h **** 
 8590              		.loc 5 64 0 is_stmt 1 discriminator 2
 8591 005c 0FB69543 		movzbl	-445(%rbp), %edx
 8591      FEFFFF
 8592 0063 488B8530 		movq	-464(%rbp), %rax
 8592      FEFFFF
 8593 006a 488B08   		movq	(%rax), %rcx
 8594 006d 8B8544FE 		movl	-444(%rbp), %eax
 8594      FFFF
 8595 0073 4898     		cltq
 8596 0075 4801C8   		addq	%rcx, %rax
 8597 0078 0FB600   		movzbl	(%rax), %eax
 8598 007b 0FBEC8   		movsbl	%al, %ecx
 8599 007e 488B8528 		movq	-472(%rbp), %rax
 8599      FEFFFF
 8600 0085 488B30   		movq	(%rax), %rsi
 8601 0088 8B8544FE 		movl	-444(%rbp), %eax
 8601      FFFF
 8602 008e 4898     		cltq
 8603 0090 4801F0   		addq	%rsi, %rax
 8604 0093 0FB600   		movzbl	(%rax), %eax
 8605 0096 0FB6C0   		movzbl	%al, %eax
 8606 0099 39C1     		cmpl	%eax, %ecx
 8607 009b 0F94C0   		sete	%al
 8608 009e 0FB6C0   		movzbl	%al, %eax
 8609 00a1 21D0     		andl	%edx, %eax
 8610 00a3 85C0     		testl	%eax, %eax
 8611 00a5 0F95C0   		setne	%al
 8612 00a8 888543FE 		movb	%al, -445(%rbp)
 8612      FFFF
  63:/home/shubham/20140524/makestuff/libs/libutpp/Checks.h ****         equal &= (expected[i] == actual[i]);
 8613              		.loc 5 63 0 discriminator 2
 8614 00ae 838544FE 		addl	$1, -444(%rbp)
 8614      FFFF01
 8615 00b5 EB97     		jmp	.L511
 8616              	.L510:
 8617              	.LBE57:
 8618              	.LBB58:
  66:/home/shubham/20140524/makestuff/libs/libutpp/Checks.h ****     {
 8619              		.loc 5 66 0
 8620 00b7 0FB68543 		movzbl	-445(%rbp), %eax
 8620      FEFFFF
 8621 00be 83F001   		xorl	$1, %eax
 8622 00c1 84C0     		testb	%al, %al
 8623 00c3 0F845801 		je	.L520
 8623      0000
 8624              	.LBB59:
  68:/home/shubham/20140524/makestuff/libs/libutpp/Checks.h **** 
 8625              		.loc 5 68 0
 8626 00c9 488D8550 		leaq	-432(%rbp), %rax
 8626      FEFFFF
 8627 00d0 4889C7   		movq	%rax, %rdi
 8628              	.LEHB336:
 8629 00d3 E8000000 		call	_ZN8UnitTest15MemoryOutStreamC1Ev
 8629      00
 8630              	.LEHE336:
  70:/home/shubham/20140524/makestuff/libs/libutpp/Checks.h **** 
 8631              		.loc 5 70 0
 8632 00d8 488D8550 		leaq	-432(%rbp), %rax
 8632      FEFFFF
 8633 00df BE000000 		movl	$.LC79, %esi
 8633      00
 8634 00e4 4889C7   		movq	%rax, %rdi
 8635              	.LEHB337:
 8636 00e7 E8000000 		call	_ZStlsISt11char_traitsIcEERSt13basic_ostreamIcT_ES5_PKc
 8636      00
 8637              	.LBB60:
  72:/home/shubham/20140524/makestuff/libs/libutpp/Checks.h ****             stream << expected[expectedIndex] << " ";
 8638              		.loc 5 72 0
 8639 00ec C78548FE 		movl	$0, -440(%rbp)
 8639      FFFF0000 
 8639      0000
 8640              	.L514:
  72:/home/shubham/20140524/makestuff/libs/libutpp/Checks.h ****             stream << expected[expectedIndex] << " ";
 8641              		.loc 5 72 0 is_stmt 0 discriminator 1
 8642 00f6 8B8548FE 		movl	-440(%rbp), %eax
 8642      FFFF
 8643 00fc 3B8524FE 		cmpl	-476(%rbp), %eax
 8643      FFFF
 8644 0102 7D42     		jge	.L513
  73:/home/shubham/20140524/makestuff/libs/libutpp/Checks.h **** 
 8645              		.loc 5 73 0 is_stmt 1
 8646 0104 488B8530 		movq	-464(%rbp), %rax
 8646      FEFFFF
 8647 010b 488B10   		movq	(%rax), %rdx
 8648 010e 8B8548FE 		movl	-440(%rbp), %eax
 8648      FFFF
 8649 0114 4898     		cltq
 8650 0116 4801D0   		addq	%rdx, %rax
 8651 0119 0FB600   		movzbl	(%rax), %eax
 8652 011c 0FBED0   		movsbl	%al, %edx
 8653 011f 488D8550 		leaq	-432(%rbp), %rax
 8653      FEFFFF
 8654 0126 89D6     		movl	%edx, %esi
 8655 0128 4889C7   		movq	%rax, %rdi
 8656 012b E8000000 		call	_ZStlsISt11char_traitsIcEERSt13basic_ostreamIcT_ES5_c
 8656      00
 8657 0130 BE000000 		movl	$.LC80, %esi
 8657      00
 8658 0135 4889C7   		movq	%rax, %rdi
 8659 0138 E8000000 		call	_ZStlsISt11char_traitsIcEERSt13basic_ostreamIcT_ES5_PKc
 8659      00
  72:/home/shubham/20140524/makestuff/libs/libutpp/Checks.h ****             stream << expected[expectedIndex] << " ";
 8660              		.loc 5 72 0 discriminator 2
 8661 013d 838548FE 		addl	$1, -440(%rbp)
 8661      FFFF01
 8662 0144 EBB0     		jmp	.L514
 8663              	.L513:
 8664              	.LBE60:
  75:/home/shubham/20140524/makestuff/libs/libutpp/Checks.h **** 
 8665              		.loc 5 75 0
 8666 0146 488D8550 		leaq	-432(%rbp), %rax
 8666      FEFFFF
 8667 014d BE000000 		movl	$.LC81, %esi
 8667      00
 8668 0152 4889C7   		movq	%rax, %rdi
 8669 0155 E8000000 		call	_ZStlsISt11char_traitsIcEERSt13basic_ostreamIcT_ES5_PKc
 8669      00
 8670              	.LBB61:
  77:/home/shubham/20140524/makestuff/libs/libutpp/Checks.h ****             stream << actual[actualIndex] << " ";
 8671              		.loc 5 77 0
 8672 015a C7854CFE 		movl	$0, -436(%rbp)
 8672      FFFF0000 
 8672      0000
 8673              	.L516:
  77:/home/shubham/20140524/makestuff/libs/libutpp/Checks.h ****             stream << actual[actualIndex] << " ";
 8674              		.loc 5 77 0 is_stmt 0 discriminator 1
 8675 0164 8B854CFE 		movl	-436(%rbp), %eax
 8675      FFFF
 8676 016a 3B8524FE 		cmpl	-476(%rbp), %eax
 8676      FFFF
 8677 0170 7D42     		jge	.L515
  78:/home/shubham/20140524/makestuff/libs/libutpp/Checks.h **** 
 8678              		.loc 5 78 0 is_stmt 1
 8679 0172 488B8528 		movq	-472(%rbp), %rax
 8679      FEFFFF
 8680 0179 488B10   		movq	(%rax), %rdx
 8681 017c 8B854CFE 		movl	-436(%rbp), %eax
 8681      FFFF
 8682 0182 4898     		cltq
 8683 0184 4801D0   		addq	%rdx, %rax
 8684 0187 0FB600   		movzbl	(%rax), %eax
 8685 018a 0FB6D0   		movzbl	%al, %edx
 8686 018d 488D8550 		leaq	-432(%rbp), %rax
 8686      FEFFFF
 8687 0194 89D6     		movl	%edx, %esi
 8688 0196 4889C7   		movq	%rax, %rdi
 8689 0199 E8000000 		call	_ZStlsISt11char_traitsIcEERSt13basic_ostreamIcT_ES5_h
 8689      00
 8690 019e BE000000 		movl	$.LC80, %esi
 8690      00
 8691 01a3 4889C7   		movq	%rax, %rdi
 8692 01a6 E8000000 		call	_ZStlsISt11char_traitsIcEERSt13basic_ostreamIcT_ES5_PKc
 8692      00
  77:/home/shubham/20140524/makestuff/libs/libutpp/Checks.h ****             stream << actual[actualIndex] << " ";
 8693              		.loc 5 77 0 discriminator 2
 8694 01ab 83854CFE 		addl	$1, -436(%rbp)
 8694      FFFF01
 8695 01b2 EBB0     		jmp	.L516
 8696              	.L515:
 8697              	.LBE61:
  80:/home/shubham/20140524/makestuff/libs/libutpp/Checks.h **** 
 8698              		.loc 5 80 0
 8699 01b4 488D8550 		leaq	-432(%rbp), %rax
 8699      FEFFFF
 8700 01bb BE000000 		movl	$.LC82, %esi
 8700      00
 8701 01c0 4889C7   		movq	%rax, %rdi
 8702 01c3 E8000000 		call	_ZStlsISt11char_traitsIcEERSt13basic_ostreamIcT_ES5_PKc
 8702      00
  82:/home/shubham/20140524/makestuff/libs/libutpp/Checks.h ****     }
 8703              		.loc 5 82 0
 8704 01c8 488D8550 		leaq	-432(%rbp), %rax
 8704      FEFFFF
 8705 01cf 4889C7   		movq	%rax, %rdi
 8706 01d2 E8000000 		call	_ZNK8UnitTest15MemoryOutStream7GetTextEv
 8706      00
 8707 01d7 4889C2   		movq	%rax, %rdx
 8708 01da 488B8D18 		movq	-488(%rbp), %rcx
 8708      FEFFFF
 8709 01e1 488B8538 		movq	-456(%rbp), %rax
 8709      FEFFFF
 8710 01e8 4889CE   		movq	%rcx, %rsi
 8711 01eb 4889C7   		movq	%rax, %rdi
 8712 01ee E8000000 		call	_ZN8UnitTest11TestResults13OnTestFailureERKNS_11TestDetailsEPKc
 8712      00
 8713              	.LEHE337:
  68:/home/shubham/20140524/makestuff/libs/libutpp/Checks.h **** 
 8714              		.loc 5 68 0
 8715 01f3 488D8550 		leaq	-432(%rbp), %rax
 8715      FEFFFF
 8716 01fa 4889C7   		movq	%rax, %rdi
 8717              	.LEHB338:
 8718 01fd E8000000 		call	_ZN8UnitTest15MemoryOutStreamD1Ev
 8718      00
 8719              	.LEHE338:
 8720              	.LBE59:
 8721              	.LBE58:
 8722              		.loc 5 84 0
 8723 0202 EB1D     		jmp	.L520
 8724              	.L519:
 8725 0204 4889C3   		movq	%rax, %rbx
 8726              	.LBB63:
 8727              	.LBB62:
  68:/home/shubham/20140524/makestuff/libs/libutpp/Checks.h **** 
 8728              		.loc 5 68 0
 8729 0207 488D8550 		leaq	-432(%rbp), %rax
 8729      FEFFFF
 8730 020e 4889C7   		movq	%rax, %rdi
 8731 0211 E8000000 		call	_ZN8UnitTest15MemoryOutStreamD1Ev
 8731      00
 8732 0216 4889D8   		movq	%rbx, %rax
 8733 0219 4889C7   		movq	%rax, %rdi
 8734              	.LEHB339:
 8735 021c E8000000 		call	_Unwind_Resume
 8735      00
 8736              	.LEHE339:
 8737              	.L520:
 8738              	.LBE62:
 8739              	.LBE63:
 8740              		.loc 5 84 0
 8741 0221 90       		nop
 8742 0222 488B45E8 		movq	-24(%rbp), %rax
 8743 0226 64483304 		xorq	%fs:40, %rax
 8743      25280000 
 8743      00
 8744 022f 7405     		je	.L518
 8745 0231 E8000000 		call	__stack_chk_fail
 8745      00
 8746              	.L518:
 8747 0236 4881C4E8 		addq	$488, %rsp
 8747      010000
 8748 023d 5B       		popq	%rbx
 8749 023e 5D       		popq	%rbp
 8750              		.cfi_def_cfa 7, 8
 8751 023f C3       		ret
 8752              		.cfi_endproc
 8753              	.LFE1245:
 8754              		.section	.gcc_except_table
 8755              	.LLSDA1245:
 8756 0805 FF       		.byte	0xff
 8757 0806 FF       		.byte	0xff
 8758 0807 01       		.byte	0x1
 8759 0808 16       		.uleb128 .LLSDACSE1245-.LLSDACSB1245
 8760              	.LLSDACSB1245:
 8761 0809 D301     		.uleb128 .LEHB336-.LFB1245
 8762 080b 05       		.uleb128 .LEHE336-.LEHB336
 8763 080c 00       		.uleb128 0
 8764 080d 00       		.uleb128 0
 8765 080e E701     		.uleb128 .LEHB337-.LFB1245
 8766 0810 8C02     		.uleb128 .LEHE337-.LEHB337
 8767 0812 8404     		.uleb128 .L519-.LFB1245
 8768 0814 00       		.uleb128 0
 8769 0815 FD03     		.uleb128 .LEHB338-.LFB1245
 8770 0817 05       		.uleb128 .LEHE338-.LEHB338
 8771 0818 00       		.uleb128 0
 8772 0819 00       		.uleb128 0
 8773 081a 9C04     		.uleb128 .LEHB339-.LFB1245
 8774 081c 05       		.uleb128 .LEHE339-.LEHB339
 8775 081d 00       		.uleb128 0
 8776 081e 00       		.uleb128 0
 8777              	.LLSDACSE1245:
 8778              		.section	.text._ZN8UnitTest15CheckArrayEqualIPKcPhEEvRNS_11TestResultsERKT_RKT0_iRKNS_11TestDetail
 8780              		.weak	_ZTV28TestHexIO_testDeriveWriteMap
 8781              		.section	.rodata._ZTV28TestHexIO_testDeriveWriteMap,"aG",@progbits,_ZTV28TestHexIO_testDeriveWrite
 8782              		.align 8
 8785              	_ZTV28TestHexIO_testDeriveWriteMap:
 8786 0000 00000000 		.quad	0
 8786      00000000 
 8787 0008 00000000 		.quad	_ZTI28TestHexIO_testDeriveWriteMap
 8787      00000000 
 8788 0010 00000000 		.quad	_ZN28TestHexIO_testDeriveWriteMapD1Ev
 8788      00000000 
 8789 0018 00000000 		.quad	_ZN28TestHexIO_testDeriveWriteMapD0Ev
 8789      00000000 
 8790 0020 00000000 		.quad	_ZNK28TestHexIO_testDeriveWriteMap7RunImplEv
 8790      00000000 
 8791              		.section	.text._ZN28TestHexIO_testDeriveWriteMapD2Ev,"axG",@progbits,_ZN28TestHexIO_testDeriveWrit
 8792              		.align 2
 8793              		.weak	_ZN28TestHexIO_testDeriveWriteMapD2Ev
 8795              	_ZN28TestHexIO_testDeriveWriteMapD2Ev:
 8796              	.LFB1323:
 303:testHexIO.cpp **** 	testDeriveWriteMap("Hello........World", "*****........*****");
 8797              		.loc 4 303 0
 8798              		.cfi_startproc
 8799 0000 55       		pushq	%rbp
 8800              		.cfi_def_cfa_offset 16
 8801              		.cfi_offset 6, -16
 8802 0001 4889E5   		movq	%rsp, %rbp
 8803              		.cfi_def_cfa_register 6
 8804 0004 4883EC10 		subq	$16, %rsp
 8805 0008 48897DF8 		movq	%rdi, -8(%rbp)
 8806              	.LBB64:
 303:testHexIO.cpp **** 	testDeriveWriteMap("Hello........World", "*****........*****");
 8807              		.loc 4 303 0
 8808 000c BA000000 		movl	$_ZTV28TestHexIO_testDeriveWriteMap+16, %edx
 8808      00
 8809 0011 488B45F8 		movq	-8(%rbp), %rax
 8810 0015 488910   		movq	%rdx, (%rax)
 8811 0018 488B45F8 		movq	-8(%rbp), %rax
 8812 001c 4889C7   		movq	%rax, %rdi
 8813 001f E8000000 		call	_ZN8UnitTest4TestD2Ev
 8813      00
 8814              	.LBE64:
 8815 0024 B8000000 		movl	$0, %eax
 8815      00
 8816 0029 85C0     		testl	%eax, %eax
 8817 002b 740C     		je	.L521
 303:testHexIO.cpp **** 	testDeriveWriteMap("Hello........World", "*****........*****");
 8818              		.loc 4 303 0 is_stmt 0 discriminator 4
 8819 002d 488B45F8 		movq	-8(%rbp), %rax
 8820 0031 4889C7   		movq	%rax, %rdi
 8821 0034 E8000000 		call	_ZdlPv
 8821      00
 8822              	.L521:
 303:testHexIO.cpp **** 	testDeriveWriteMap("Hello........World", "*****........*****");
 8823              		.loc 4 303 0
 8824 0039 C9       		leave
 8825              		.cfi_def_cfa 7, 8
 8826 003a C3       		ret
 8827              		.cfi_endproc
 8828              	.LFE1323:
 8830              		.weak	_ZN28TestHexIO_testDeriveWriteMapD1Ev
 8831              		.set	_ZN28TestHexIO_testDeriveWriteMapD1Ev,_ZN28TestHexIO_testDeriveWriteMapD2Ev
 8832              		.section	.text._ZN28TestHexIO_testDeriveWriteMapD0Ev,"axG",@progbits,_ZN28TestHexIO_testDeriveWrit
 8833              		.align 2
 8834              		.weak	_ZN28TestHexIO_testDeriveWriteMapD0Ev
 8836              	_ZN28TestHexIO_testDeriveWriteMapD0Ev:
 8837              	.LFB1325:
 303:testHexIO.cpp **** 	testDeriveWriteMap("Hello........World", "*****........*****");
 8838              		.loc 4 303 0 is_stmt 1
 8839              		.cfi_startproc
 8840 0000 55       		pushq	%rbp
 8841              		.cfi_def_cfa_offset 16
 8842              		.cfi_offset 6, -16
 8843 0001 4889E5   		movq	%rsp, %rbp
 8844              		.cfi_def_cfa_register 6
 8845 0004 4883EC10 		subq	$16, %rsp
 8846 0008 48897DF8 		movq	%rdi, -8(%rbp)
 303:testHexIO.cpp **** 	testDeriveWriteMap("Hello........World", "*****........*****");
 8847              		.loc 4 303 0
 8848 000c 488B45F8 		movq	-8(%rbp), %rax
 8849 0010 4889C7   		movq	%rax, %rdi
 8850 0013 E8000000 		call	_ZN28TestHexIO_testDeriveWriteMapD1Ev
 8850      00
 8851 0018 488B45F8 		movq	-8(%rbp), %rax
 8852 001c 4889C7   		movq	%rax, %rdi
 8853 001f E8000000 		call	_ZdlPv
 8853      00
 8854 0024 C9       		leave
 8855              		.cfi_def_cfa 7, 8
 8856 0025 C3       		ret
 8857              		.cfi_endproc
 8858              	.LFE1325:
 8860              		.weak	_ZTV23TestHexIO_testRoundTrip
 8861              		.section	.rodata._ZTV23TestHexIO_testRoundTrip,"aG",@progbits,_ZTV23TestHexIO_testRoundTrip,comdat
 8862              		.align 8
 8865              	_ZTV23TestHexIO_testRoundTrip:
 8866 0000 00000000 		.quad	0
 8866      00000000 
 8867 0008 00000000 		.quad	_ZTI23TestHexIO_testRoundTrip
 8867      00000000 
 8868 0010 00000000 		.quad	_ZN23TestHexIO_testRoundTripD1Ev
 8868      00000000 
 8869 0018 00000000 		.quad	_ZN23TestHexIO_testRoundTripD0Ev
 8869      00000000 
 8870 0020 00000000 		.quad	_ZNK23TestHexIO_testRoundTrip7RunImplEv
 8870      00000000 
 8871              		.section	.text._ZN23TestHexIO_testRoundTripD2Ev,"axG",@progbits,_ZN23TestHexIO_testRoundTripD5Ev,c
 8872              		.align 2
 8873              		.weak	_ZN23TestHexIO_testRoundTripD2Ev
 8875              	_ZN23TestHexIO_testRoundTripD2Ev:
 8876              	.LFB1327:
 242:testHexIO.cpp **** 	testRoundTrip(
 8877              		.loc 4 242 0
 8878              		.cfi_startproc
 8879 0000 55       		pushq	%rbp
 8880              		.cfi_def_cfa_offset 16
 8881              		.cfi_offset 6, -16
 8882 0001 4889E5   		movq	%rsp, %rbp
 8883              		.cfi_def_cfa_register 6
 8884 0004 4883EC10 		subq	$16, %rsp
 8885 0008 48897DF8 		movq	%rdi, -8(%rbp)
 8886              	.LBB65:
 242:testHexIO.cpp **** 	testRoundTrip(
 8887              		.loc 4 242 0
 8888 000c BA000000 		movl	$_ZTV23TestHexIO_testRoundTrip+16, %edx
 8888      00
 8889 0011 488B45F8 		movq	-8(%rbp), %rax
 8890 0015 488910   		movq	%rdx, (%rax)
 8891 0018 488B45F8 		movq	-8(%rbp), %rax
 8892 001c 4889C7   		movq	%rax, %rdi
 8893 001f E8000000 		call	_ZN8UnitTest4TestD2Ev
 8893      00
 8894              	.LBE65:
 8895 0024 B8000000 		movl	$0, %eax
 8895      00
 8896 0029 85C0     		testl	%eax, %eax
 8897 002b 740C     		je	.L524
 242:testHexIO.cpp **** 	testRoundTrip(
 8898              		.loc 4 242 0 is_stmt 0 discriminator 4
 8899 002d 488B45F8 		movq	-8(%rbp), %rax
 8900 0031 4889C7   		movq	%rax, %rdi
 8901 0034 E8000000 		call	_ZdlPv
 8901      00
 8902              	.L524:
 242:testHexIO.cpp **** 	testRoundTrip(
 8903              		.loc 4 242 0
 8904 0039 C9       		leave
 8905              		.cfi_def_cfa 7, 8
 8906 003a C3       		ret
 8907              		.cfi_endproc
 8908              	.LFE1327:
 8910              		.weak	_ZN23TestHexIO_testRoundTripD1Ev
 8911              		.set	_ZN23TestHexIO_testRoundTripD1Ev,_ZN23TestHexIO_testRoundTripD2Ev
 8912              		.section	.text._ZN23TestHexIO_testRoundTripD0Ev,"axG",@progbits,_ZN23TestHexIO_testRoundTripD5Ev,c
 8913              		.align 2
 8914              		.weak	_ZN23TestHexIO_testRoundTripD0Ev
 8916              	_ZN23TestHexIO_testRoundTripD0Ev:
 8917              	.LFB1329:
 242:testHexIO.cpp **** 	testRoundTrip(
 8918              		.loc 4 242 0 is_stmt 1
 8919              		.cfi_startproc
 8920 0000 55       		pushq	%rbp
 8921              		.cfi_def_cfa_offset 16
 8922              		.cfi_offset 6, -16
 8923 0001 4889E5   		movq	%rsp, %rbp
 8924              		.cfi_def_cfa_register 6
 8925 0004 4883EC10 		subq	$16, %rsp
 8926 0008 48897DF8 		movq	%rdi, -8(%rbp)
 242:testHexIO.cpp **** 	testRoundTrip(
 8927              		.loc 4 242 0
 8928 000c 488B45F8 		movq	-8(%rbp), %rax
 8929 0010 4889C7   		movq	%rax, %rdi
 8930 0013 E8000000 		call	_ZN23TestHexIO_testRoundTripD1Ev
 8930      00
 8931 0018 488B45F8 		movq	-8(%rbp), %rax
 8932 001c 4889C7   		movq	%rax, %rdi
 8933 001f E8000000 		call	_ZdlPv
 8933      00
 8934 0024 C9       		leave
 8935              		.cfi_def_cfa 7, 8
 8936 0025 C3       		ret
 8937              		.cfi_endproc
 8938              	.LFE1329:
 8940              		.weak	_ZTV25TestHexIO_testCorruptLine
 8941              		.section	.rodata._ZTV25TestHexIO_testCorruptLine,"aG",@progbits,_ZTV25TestHexIO_testCorruptLine,co
 8942              		.align 8
 8945              	_ZTV25TestHexIO_testCorruptLine:
 8946 0000 00000000 		.quad	0
 8946      00000000 
 8947 0008 00000000 		.quad	_ZTI25TestHexIO_testCorruptLine
 8947      00000000 
 8948 0010 00000000 		.quad	_ZN25TestHexIO_testCorruptLineD1Ev
 8948      00000000 
 8949 0018 00000000 		.quad	_ZN25TestHexIO_testCorruptLineD0Ev
 8949      00000000 
 8950 0020 00000000 		.quad	_ZNK25TestHexIO_testCorruptLine7RunImplEv
 8950      00000000 
 8951              		.section	.text._ZN25TestHexIO_testCorruptLineD2Ev,"axG",@progbits,_ZN25TestHexIO_testCorruptLineD5
 8952              		.align 2
 8953              		.weak	_ZN25TestHexIO_testCorruptLineD2Ev
 8955              	_ZN25TestHexIO_testCorruptLineD2Ev:
 8956              	.LFB1331:
 173:testHexIO.cpp **** 	Buffer data;
 8957              		.loc 4 173 0
 8958              		.cfi_startproc
 8959 0000 55       		pushq	%rbp
 8960              		.cfi_def_cfa_offset 16
 8961              		.cfi_offset 6, -16
 8962 0001 4889E5   		movq	%rsp, %rbp
 8963              		.cfi_def_cfa_register 6
 8964 0004 4883EC10 		subq	$16, %rsp
 8965 0008 48897DF8 		movq	%rdi, -8(%rbp)
 8966              	.LBB66:
 173:testHexIO.cpp **** 	Buffer data;
 8967              		.loc 4 173 0
 8968 000c BA000000 		movl	$_ZTV25TestHexIO_testCorruptLine+16, %edx
 8968      00
 8969 0011 488B45F8 		movq	-8(%rbp), %rax
 8970 0015 488910   		movq	%rdx, (%rax)
 8971 0018 488B45F8 		movq	-8(%rbp), %rax
 8972 001c 4889C7   		movq	%rax, %rdi
 8973 001f E8000000 		call	_ZN8UnitTest4TestD2Ev
 8973      00
 8974              	.LBE66:
 8975 0024 B8000000 		movl	$0, %eax
 8975      00
 8976 0029 85C0     		testl	%eax, %eax
 8977 002b 740C     		je	.L527
 173:testHexIO.cpp **** 	Buffer data;
 8978              		.loc 4 173 0 is_stmt 0 discriminator 4
 8979 002d 488B45F8 		movq	-8(%rbp), %rax
 8980 0031 4889C7   		movq	%rax, %rdi
 8981 0034 E8000000 		call	_ZdlPv
 8981      00
 8982              	.L527:
 173:testHexIO.cpp **** 	Buffer data;
 8983              		.loc 4 173 0
 8984 0039 C9       		leave
 8985              		.cfi_def_cfa 7, 8
 8986 003a C3       		ret
 8987              		.cfi_endproc
 8988              	.LFE1331:
 8990              		.weak	_ZN25TestHexIO_testCorruptLineD1Ev
 8991              		.set	_ZN25TestHexIO_testCorruptLineD1Ev,_ZN25TestHexIO_testCorruptLineD2Ev
 8992              		.section	.text._ZN25TestHexIO_testCorruptLineD0Ev,"axG",@progbits,_ZN25TestHexIO_testCorruptLineD5
 8993              		.align 2
 8994              		.weak	_ZN25TestHexIO_testCorruptLineD0Ev
 8996              	_ZN25TestHexIO_testCorruptLineD0Ev:
 8997              	.LFB1333:
 173:testHexIO.cpp **** 	Buffer data;
 8998              		.loc 4 173 0 is_stmt 1
 8999              		.cfi_startproc
 9000 0000 55       		pushq	%rbp
 9001              		.cfi_def_cfa_offset 16
 9002              		.cfi_offset 6, -16
 9003 0001 4889E5   		movq	%rsp, %rbp
 9004              		.cfi_def_cfa_register 6
 9005 0004 4883EC10 		subq	$16, %rsp
 9006 0008 48897DF8 		movq	%rdi, -8(%rbp)
 173:testHexIO.cpp **** 	Buffer data;
 9007              		.loc 4 173 0
 9008 000c 488B45F8 		movq	-8(%rbp), %rax
 9009 0010 4889C7   		movq	%rax, %rdi
 9010 0013 E8000000 		call	_ZN25TestHexIO_testCorruptLineD1Ev
 9010      00
 9011 0018 488B45F8 		movq	-8(%rbp), %rax
 9012 001c 4889C7   		movq	%rax, %rdi
 9013 001f E8000000 		call	_ZdlPv
 9013      00
 9014 0024 C9       		leave
 9015              		.cfi_def_cfa 7, 8
 9016 0025 C3       		ret
 9017              		.cfi_endproc
 9018              	.LFE1333:
 9020              		.weak	_ZTV25TestHexIO_testBadChecksum
 9021              		.section	.rodata._ZTV25TestHexIO_testBadChecksum,"aG",@progbits,_ZTV25TestHexIO_testBadChecksum,co
 9022              		.align 8
 9025              	_ZTV25TestHexIO_testBadChecksum:
 9026 0000 00000000 		.quad	0
 9026      00000000 
 9027 0008 00000000 		.quad	_ZTI25TestHexIO_testBadChecksum
 9027      00000000 
 9028 0010 00000000 		.quad	_ZN25TestHexIO_testBadChecksumD1Ev
 9028      00000000 
 9029 0018 00000000 		.quad	_ZN25TestHexIO_testBadChecksumD0Ev
 9029      00000000 
 9030 0020 00000000 		.quad	_ZNK25TestHexIO_testBadChecksum7RunImplEv
 9030      00000000 
 9031              		.section	.text._ZN25TestHexIO_testBadChecksumD2Ev,"axG",@progbits,_ZN25TestHexIO_testBadChecksumD5
 9032              		.align 2
 9033              		.weak	_ZN25TestHexIO_testBadChecksumD2Ev
 9035              	_ZN25TestHexIO_testBadChecksumD2Ev:
 9036              	.LFB1335:
 160:testHexIO.cpp **** 	Buffer data;
 9037              		.loc 4 160 0
 9038              		.cfi_startproc
 9039 0000 55       		pushq	%rbp
 9040              		.cfi_def_cfa_offset 16
 9041              		.cfi_offset 6, -16
 9042 0001 4889E5   		movq	%rsp, %rbp
 9043              		.cfi_def_cfa_register 6
 9044 0004 4883EC10 		subq	$16, %rsp
 9045 0008 48897DF8 		movq	%rdi, -8(%rbp)
 9046              	.LBB67:
 160:testHexIO.cpp **** 	Buffer data;
 9047              		.loc 4 160 0
 9048 000c BA000000 		movl	$_ZTV25TestHexIO_testBadChecksum+16, %edx
 9048      00
 9049 0011 488B45F8 		movq	-8(%rbp), %rax
 9050 0015 488910   		movq	%rdx, (%rax)
 9051 0018 488B45F8 		movq	-8(%rbp), %rax
 9052 001c 4889C7   		movq	%rax, %rdi
 9053 001f E8000000 		call	_ZN8UnitTest4TestD2Ev
 9053      00
 9054              	.LBE67:
 9055 0024 B8000000 		movl	$0, %eax
 9055      00
 9056 0029 85C0     		testl	%eax, %eax
 9057 002b 740C     		je	.L530
 160:testHexIO.cpp **** 	Buffer data;
 9058              		.loc 4 160 0 is_stmt 0 discriminator 4
 9059 002d 488B45F8 		movq	-8(%rbp), %rax
 9060 0031 4889C7   		movq	%rax, %rdi
 9061 0034 E8000000 		call	_ZdlPv
 9061      00
 9062              	.L530:
 160:testHexIO.cpp **** 	Buffer data;
 9063              		.loc 4 160 0
 9064 0039 C9       		leave
 9065              		.cfi_def_cfa 7, 8
 9066 003a C3       		ret
 9067              		.cfi_endproc
 9068              	.LFE1335:
 9070              		.weak	_ZN25TestHexIO_testBadChecksumD1Ev
 9071              		.set	_ZN25TestHexIO_testBadChecksumD1Ev,_ZN25TestHexIO_testBadChecksumD2Ev
 9072              		.section	.text._ZN25TestHexIO_testBadChecksumD0Ev,"axG",@progbits,_ZN25TestHexIO_testBadChecksumD5
 9073              		.align 2
 9074              		.weak	_ZN25TestHexIO_testBadChecksumD0Ev
 9076              	_ZN25TestHexIO_testBadChecksumD0Ev:
 9077              	.LFB1337:
 160:testHexIO.cpp **** 	Buffer data;
 9078              		.loc 4 160 0 is_stmt 1
 9079              		.cfi_startproc
 9080 0000 55       		pushq	%rbp
 9081              		.cfi_def_cfa_offset 16
 9082              		.cfi_offset 6, -16
 9083 0001 4889E5   		movq	%rsp, %rbp
 9084              		.cfi_def_cfa_register 6
 9085 0004 4883EC10 		subq	$16, %rsp
 9086 0008 48897DF8 		movq	%rdi, -8(%rbp)
 160:testHexIO.cpp **** 	Buffer data;
 9087              		.loc 4 160 0
 9088 000c 488B45F8 		movq	-8(%rbp), %rax
 9089 0010 4889C7   		movq	%rax, %rdi
 9090 0013 E8000000 		call	_ZN25TestHexIO_testBadChecksumD1Ev
 9090      00
 9091 0018 488B45F8 		movq	-8(%rbp), %rax
 9092 001c 4889C7   		movq	%rax, %rdi
 9093 001f E8000000 		call	_ZdlPv
 9093      00
 9094 0024 C9       		leave
 9095              		.cfi_def_cfa 7, 8
 9096 0025 C3       		ret
 9097              		.cfi_endproc
 9098              	.LFE1337:
 9100              		.weak	_ZTV26TestHexIO_testJunkChecksum
 9101              		.section	.rodata._ZTV26TestHexIO_testJunkChecksum,"aG",@progbits,_ZTV26TestHexIO_testJunkChecksum,
 9102              		.align 8
 9105              	_ZTV26TestHexIO_testJunkChecksum:
 9106 0000 00000000 		.quad	0
 9106      00000000 
 9107 0008 00000000 		.quad	_ZTI26TestHexIO_testJunkChecksum
 9107      00000000 
 9108 0010 00000000 		.quad	_ZN26TestHexIO_testJunkChecksumD1Ev
 9108      00000000 
 9109 0018 00000000 		.quad	_ZN26TestHexIO_testJunkChecksumD0Ev
 9109      00000000 
 9110 0020 00000000 		.quad	_ZNK26TestHexIO_testJunkChecksum7RunImplEv
 9110      00000000 
 9111              		.section	.text._ZN26TestHexIO_testJunkChecksumD2Ev,"axG",@progbits,_ZN26TestHexIO_testJunkChecksum
 9112              		.align 2
 9113              		.weak	_ZN26TestHexIO_testJunkChecksumD2Ev
 9115              	_ZN26TestHexIO_testJunkChecksumD2Ev:
 9116              	.LFB1339:
 147:testHexIO.cpp **** 	Buffer data;
 9117              		.loc 4 147 0
 9118              		.cfi_startproc
 9119 0000 55       		pushq	%rbp
 9120              		.cfi_def_cfa_offset 16
 9121              		.cfi_offset 6, -16
 9122 0001 4889E5   		movq	%rsp, %rbp
 9123              		.cfi_def_cfa_register 6
 9124 0004 4883EC10 		subq	$16, %rsp
 9125 0008 48897DF8 		movq	%rdi, -8(%rbp)
 9126              	.LBB68:
 147:testHexIO.cpp **** 	Buffer data;
 9127              		.loc 4 147 0
 9128 000c BA000000 		movl	$_ZTV26TestHexIO_testJunkChecksum+16, %edx
 9128      00
 9129 0011 488B45F8 		movq	-8(%rbp), %rax
 9130 0015 488910   		movq	%rdx, (%rax)
 9131 0018 488B45F8 		movq	-8(%rbp), %rax
 9132 001c 4889C7   		movq	%rax, %rdi
 9133 001f E8000000 		call	_ZN8UnitTest4TestD2Ev
 9133      00
 9134              	.LBE68:
 9135 0024 B8000000 		movl	$0, %eax
 9135      00
 9136 0029 85C0     		testl	%eax, %eax
 9137 002b 740C     		je	.L533
 147:testHexIO.cpp **** 	Buffer data;
 9138              		.loc 4 147 0 is_stmt 0 discriminator 4
 9139 002d 488B45F8 		movq	-8(%rbp), %rax
 9140 0031 4889C7   		movq	%rax, %rdi
 9141 0034 E8000000 		call	_ZdlPv
 9141      00
 9142              	.L533:
 147:testHexIO.cpp **** 	Buffer data;
 9143              		.loc 4 147 0
 9144 0039 C9       		leave
 9145              		.cfi_def_cfa 7, 8
 9146 003a C3       		ret
 9147              		.cfi_endproc
 9148              	.LFE1339:
 9150              		.weak	_ZN26TestHexIO_testJunkChecksumD1Ev
 9151              		.set	_ZN26TestHexIO_testJunkChecksumD1Ev,_ZN26TestHexIO_testJunkChecksumD2Ev
 9152              		.section	.text._ZN26TestHexIO_testJunkChecksumD0Ev,"axG",@progbits,_ZN26TestHexIO_testJunkChecksum
 9153              		.align 2
 9154              		.weak	_ZN26TestHexIO_testJunkChecksumD0Ev
 9156              	_ZN26TestHexIO_testJunkChecksumD0Ev:
 9157              	.LFB1341:
 147:testHexIO.cpp **** 	Buffer data;
 9158              		.loc 4 147 0 is_stmt 1
 9159              		.cfi_startproc
 9160 0000 55       		pushq	%rbp
 9161              		.cfi_def_cfa_offset 16
 9162              		.cfi_offset 6, -16
 9163 0001 4889E5   		movq	%rsp, %rbp
 9164              		.cfi_def_cfa_register 6
 9165 0004 4883EC10 		subq	$16, %rsp
 9166 0008 48897DF8 		movq	%rdi, -8(%rbp)
 147:testHexIO.cpp **** 	Buffer data;
 9167              		.loc 4 147 0
 9168 000c 488B45F8 		movq	-8(%rbp), %rax
 9169 0010 4889C7   		movq	%rax, %rdi
 9170 0013 E8000000 		call	_ZN26TestHexIO_testJunkChecksumD1Ev
 9170      00
 9171 0018 488B45F8 		movq	-8(%rbp), %rax
 9172 001c 4889C7   		movq	%rax, %rdi
 9173 001f E8000000 		call	_ZdlPv
 9173      00
 9174 0024 C9       		leave
 9175              		.cfi_def_cfa 7, 8
 9176 0025 C3       		ret
 9177              		.cfi_endproc
 9178              	.LFE1341:
 9180              		.weak	_ZTV26TestHexIO_testJunkDataByte
 9181              		.section	.rodata._ZTV26TestHexIO_testJunkDataByte,"aG",@progbits,_ZTV26TestHexIO_testJunkDataByte,
 9182              		.align 8
 9185              	_ZTV26TestHexIO_testJunkDataByte:
 9186 0000 00000000 		.quad	0
 9186      00000000 
 9187 0008 00000000 		.quad	_ZTI26TestHexIO_testJunkDataByte
 9187      00000000 
 9188 0010 00000000 		.quad	_ZN26TestHexIO_testJunkDataByteD1Ev
 9188      00000000 
 9189 0018 00000000 		.quad	_ZN26TestHexIO_testJunkDataByteD0Ev
 9189      00000000 
 9190 0020 00000000 		.quad	_ZNK26TestHexIO_testJunkDataByte7RunImplEv
 9190      00000000 
 9191              		.section	.text._ZN26TestHexIO_testJunkDataByteD2Ev,"axG",@progbits,_ZN26TestHexIO_testJunkDataByte
 9192              		.align 2
 9193              		.weak	_ZN26TestHexIO_testJunkDataByteD2Ev
 9195              	_ZN26TestHexIO_testJunkDataByteD2Ev:
 9196              	.LFB1343:
 134:testHexIO.cpp **** 	Buffer data;
 9197              		.loc 4 134 0
 9198              		.cfi_startproc
 9199 0000 55       		pushq	%rbp
 9200              		.cfi_def_cfa_offset 16
 9201              		.cfi_offset 6, -16
 9202 0001 4889E5   		movq	%rsp, %rbp
 9203              		.cfi_def_cfa_register 6
 9204 0004 4883EC10 		subq	$16, %rsp
 9205 0008 48897DF8 		movq	%rdi, -8(%rbp)
 9206              	.LBB69:
 134:testHexIO.cpp **** 	Buffer data;
 9207              		.loc 4 134 0
 9208 000c BA000000 		movl	$_ZTV26TestHexIO_testJunkDataByte+16, %edx
 9208      00
 9209 0011 488B45F8 		movq	-8(%rbp), %rax
 9210 0015 488910   		movq	%rdx, (%rax)
 9211 0018 488B45F8 		movq	-8(%rbp), %rax
 9212 001c 4889C7   		movq	%rax, %rdi
 9213 001f E8000000 		call	_ZN8UnitTest4TestD2Ev
 9213      00
 9214              	.LBE69:
 9215 0024 B8000000 		movl	$0, %eax
 9215      00
 9216 0029 85C0     		testl	%eax, %eax
 9217 002b 740C     		je	.L536
 134:testHexIO.cpp **** 	Buffer data;
 9218              		.loc 4 134 0 is_stmt 0 discriminator 4
 9219 002d 488B45F8 		movq	-8(%rbp), %rax
 9220 0031 4889C7   		movq	%rax, %rdi
 9221 0034 E8000000 		call	_ZdlPv
 9221      00
 9222              	.L536:
 134:testHexIO.cpp **** 	Buffer data;
 9223              		.loc 4 134 0
 9224 0039 C9       		leave
 9225              		.cfi_def_cfa 7, 8
 9226 003a C3       		ret
 9227              		.cfi_endproc
 9228              	.LFE1343:
 9230              		.weak	_ZN26TestHexIO_testJunkDataByteD1Ev
 9231              		.set	_ZN26TestHexIO_testJunkDataByteD1Ev,_ZN26TestHexIO_testJunkDataByteD2Ev
 9232              		.section	.text._ZN26TestHexIO_testJunkDataByteD0Ev,"axG",@progbits,_ZN26TestHexIO_testJunkDataByte
 9233              		.align 2
 9234              		.weak	_ZN26TestHexIO_testJunkDataByteD0Ev
 9236              	_ZN26TestHexIO_testJunkDataByteD0Ev:
 9237              	.LFB1345:
 134:testHexIO.cpp **** 	Buffer data;
 9238              		.loc 4 134 0 is_stmt 1
 9239              		.cfi_startproc
 9240 0000 55       		pushq	%rbp
 9241              		.cfi_def_cfa_offset 16
 9242              		.cfi_offset 6, -16
 9243 0001 4889E5   		movq	%rsp, %rbp
 9244              		.cfi_def_cfa_register 6
 9245 0004 4883EC10 		subq	$16, %rsp
 9246 0008 48897DF8 		movq	%rdi, -8(%rbp)
 134:testHexIO.cpp **** 	Buffer data;
 9247              		.loc 4 134 0
 9248 000c 488B45F8 		movq	-8(%rbp), %rax
 9249 0010 4889C7   		movq	%rax, %rdi
 9250 0013 E8000000 		call	_ZN26TestHexIO_testJunkDataByteD1Ev
 9250      00
 9251 0018 488B45F8 		movq	-8(%rbp), %rax
 9252 001c 4889C7   		movq	%rax, %rdi
 9253 001f E8000000 		call	_ZdlPv
 9253      00
 9254 0024 C9       		leave
 9255              		.cfi_def_cfa 7, 8
 9256 0025 C3       		ret
 9257              		.cfi_endproc
 9258              	.LFE1345:
 9260              		.weak	_ZTV25TestHexIO_testJunkRecType
 9261              		.section	.rodata._ZTV25TestHexIO_testJunkRecType,"aG",@progbits,_ZTV25TestHexIO_testJunkRecType,co
 9262              		.align 8
 9265              	_ZTV25TestHexIO_testJunkRecType:
 9266 0000 00000000 		.quad	0
 9266      00000000 
 9267 0008 00000000 		.quad	_ZTI25TestHexIO_testJunkRecType
 9267      00000000 
 9268 0010 00000000 		.quad	_ZN25TestHexIO_testJunkRecTypeD1Ev
 9268      00000000 
 9269 0018 00000000 		.quad	_ZN25TestHexIO_testJunkRecTypeD0Ev
 9269      00000000 
 9270 0020 00000000 		.quad	_ZNK25TestHexIO_testJunkRecType7RunImplEv
 9270      00000000 
 9271              		.section	.text._ZN25TestHexIO_testJunkRecTypeD2Ev,"axG",@progbits,_ZN25TestHexIO_testJunkRecTypeD5
 9272              		.align 2
 9273              		.weak	_ZN25TestHexIO_testJunkRecTypeD2Ev
 9275              	_ZN25TestHexIO_testJunkRecTypeD2Ev:
 9276              	.LFB1347:
 121:testHexIO.cpp **** 	Buffer data;
 9277              		.loc 4 121 0
 9278              		.cfi_startproc
 9279 0000 55       		pushq	%rbp
 9280              		.cfi_def_cfa_offset 16
 9281              		.cfi_offset 6, -16
 9282 0001 4889E5   		movq	%rsp, %rbp
 9283              		.cfi_def_cfa_register 6
 9284 0004 4883EC10 		subq	$16, %rsp
 9285 0008 48897DF8 		movq	%rdi, -8(%rbp)
 9286              	.LBB70:
 121:testHexIO.cpp **** 	Buffer data;
 9287              		.loc 4 121 0
 9288 000c BA000000 		movl	$_ZTV25TestHexIO_testJunkRecType+16, %edx
 9288      00
 9289 0011 488B45F8 		movq	-8(%rbp), %rax
 9290 0015 488910   		movq	%rdx, (%rax)
 9291 0018 488B45F8 		movq	-8(%rbp), %rax
 9292 001c 4889C7   		movq	%rax, %rdi
 9293 001f E8000000 		call	_ZN8UnitTest4TestD2Ev
 9293      00
 9294              	.LBE70:
 9295 0024 B8000000 		movl	$0, %eax
 9295      00
 9296 0029 85C0     		testl	%eax, %eax
 9297 002b 740C     		je	.L539
 121:testHexIO.cpp **** 	Buffer data;
 9298              		.loc 4 121 0 is_stmt 0 discriminator 4
 9299 002d 488B45F8 		movq	-8(%rbp), %rax
 9300 0031 4889C7   		movq	%rax, %rdi
 9301 0034 E8000000 		call	_ZdlPv
 9301      00
 9302              	.L539:
 121:testHexIO.cpp **** 	Buffer data;
 9303              		.loc 4 121 0
 9304 0039 C9       		leave
 9305              		.cfi_def_cfa 7, 8
 9306 003a C3       		ret
 9307              		.cfi_endproc
 9308              	.LFE1347:
 9310              		.weak	_ZN25TestHexIO_testJunkRecTypeD1Ev
 9311              		.set	_ZN25TestHexIO_testJunkRecTypeD1Ev,_ZN25TestHexIO_testJunkRecTypeD2Ev
 9312              		.section	.text._ZN25TestHexIO_testJunkRecTypeD0Ev,"axG",@progbits,_ZN25TestHexIO_testJunkRecTypeD5
 9313              		.align 2
 9314              		.weak	_ZN25TestHexIO_testJunkRecTypeD0Ev
 9316              	_ZN25TestHexIO_testJunkRecTypeD0Ev:
 9317              	.LFB1349:
 121:testHexIO.cpp **** 	Buffer data;
 9318              		.loc 4 121 0 is_stmt 1
 9319              		.cfi_startproc
 9320 0000 55       		pushq	%rbp
 9321              		.cfi_def_cfa_offset 16
 9322              		.cfi_offset 6, -16
 9323 0001 4889E5   		movq	%rsp, %rbp
 9324              		.cfi_def_cfa_register 6
 9325 0004 4883EC10 		subq	$16, %rsp
 9326 0008 48897DF8 		movq	%rdi, -8(%rbp)
 121:testHexIO.cpp **** 	Buffer data;
 9327              		.loc 4 121 0
 9328 000c 488B45F8 		movq	-8(%rbp), %rax
 9329 0010 4889C7   		movq	%rax, %rdi
 9330 0013 E8000000 		call	_ZN25TestHexIO_testJunkRecTypeD1Ev
 9330      00
 9331 0018 488B45F8 		movq	-8(%rbp), %rax
 9332 001c 4889C7   		movq	%rax, %rdi
 9333 001f E8000000 		call	_ZdlPv
 9333      00
 9334 0024 C9       		leave
 9335              		.cfi_def_cfa 7, 8
 9336 0025 C3       		ret
 9337              		.cfi_endproc
 9338              	.LFE1349:
 9340              		.weak	_ZTV25TestHexIO_testJunkAddrLsb
 9341              		.section	.rodata._ZTV25TestHexIO_testJunkAddrLsb,"aG",@progbits,_ZTV25TestHexIO_testJunkAddrLsb,co
 9342              		.align 8
 9345              	_ZTV25TestHexIO_testJunkAddrLsb:
 9346 0000 00000000 		.quad	0
 9346      00000000 
 9347 0008 00000000 		.quad	_ZTI25TestHexIO_testJunkAddrLsb
 9347      00000000 
 9348 0010 00000000 		.quad	_ZN25TestHexIO_testJunkAddrLsbD1Ev
 9348      00000000 
 9349 0018 00000000 		.quad	_ZN25TestHexIO_testJunkAddrLsbD0Ev
 9349      00000000 
 9350 0020 00000000 		.quad	_ZNK25TestHexIO_testJunkAddrLsb7RunImplEv
 9350      00000000 
 9351              		.section	.text._ZN25TestHexIO_testJunkAddrLsbD2Ev,"axG",@progbits,_ZN25TestHexIO_testJunkAddrLsbD5
 9352              		.align 2
 9353              		.weak	_ZN25TestHexIO_testJunkAddrLsbD2Ev
 9355              	_ZN25TestHexIO_testJunkAddrLsbD2Ev:
 9356              	.LFB1351:
 108:testHexIO.cpp **** 	Buffer data;
 9357              		.loc 4 108 0
 9358              		.cfi_startproc
 9359 0000 55       		pushq	%rbp
 9360              		.cfi_def_cfa_offset 16
 9361              		.cfi_offset 6, -16
 9362 0001 4889E5   		movq	%rsp, %rbp
 9363              		.cfi_def_cfa_register 6
 9364 0004 4883EC10 		subq	$16, %rsp
 9365 0008 48897DF8 		movq	%rdi, -8(%rbp)
 9366              	.LBB71:
 108:testHexIO.cpp **** 	Buffer data;
 9367              		.loc 4 108 0
 9368 000c BA000000 		movl	$_ZTV25TestHexIO_testJunkAddrLsb+16, %edx
 9368      00
 9369 0011 488B45F8 		movq	-8(%rbp), %rax
 9370 0015 488910   		movq	%rdx, (%rax)
 9371 0018 488B45F8 		movq	-8(%rbp), %rax
 9372 001c 4889C7   		movq	%rax, %rdi
 9373 001f E8000000 		call	_ZN8UnitTest4TestD2Ev
 9373      00
 9374              	.LBE71:
 9375 0024 B8000000 		movl	$0, %eax
 9375      00
 9376 0029 85C0     		testl	%eax, %eax
 9377 002b 740C     		je	.L542
 108:testHexIO.cpp **** 	Buffer data;
 9378              		.loc 4 108 0 is_stmt 0 discriminator 4
 9379 002d 488B45F8 		movq	-8(%rbp), %rax
 9380 0031 4889C7   		movq	%rax, %rdi
 9381 0034 E8000000 		call	_ZdlPv
 9381      00
 9382              	.L542:
 108:testHexIO.cpp **** 	Buffer data;
 9383              		.loc 4 108 0
 9384 0039 C9       		leave
 9385              		.cfi_def_cfa 7, 8
 9386 003a C3       		ret
 9387              		.cfi_endproc
 9388              	.LFE1351:
 9390              		.weak	_ZN25TestHexIO_testJunkAddrLsbD1Ev
 9391              		.set	_ZN25TestHexIO_testJunkAddrLsbD1Ev,_ZN25TestHexIO_testJunkAddrLsbD2Ev
 9392              		.section	.text._ZN25TestHexIO_testJunkAddrLsbD0Ev,"axG",@progbits,_ZN25TestHexIO_testJunkAddrLsbD5
 9393              		.align 2
 9394              		.weak	_ZN25TestHexIO_testJunkAddrLsbD0Ev
 9396              	_ZN25TestHexIO_testJunkAddrLsbD0Ev:
 9397              	.LFB1353:
 108:testHexIO.cpp **** 	Buffer data;
 9398              		.loc 4 108 0 is_stmt 1
 9399              		.cfi_startproc
 9400 0000 55       		pushq	%rbp
 9401              		.cfi_def_cfa_offset 16
 9402              		.cfi_offset 6, -16
 9403 0001 4889E5   		movq	%rsp, %rbp
 9404              		.cfi_def_cfa_register 6
 9405 0004 4883EC10 		subq	$16, %rsp
 9406 0008 48897DF8 		movq	%rdi, -8(%rbp)
 108:testHexIO.cpp **** 	Buffer data;
 9407              		.loc 4 108 0
 9408 000c 488B45F8 		movq	-8(%rbp), %rax
 9409 0010 4889C7   		movq	%rax, %rdi
 9410 0013 E8000000 		call	_ZN25TestHexIO_testJunkAddrLsbD1Ev
 9410      00
 9411 0018 488B45F8 		movq	-8(%rbp), %rax
 9412 001c 4889C7   		movq	%rax, %rdi
 9413 001f E8000000 		call	_ZdlPv
 9413      00
 9414 0024 C9       		leave
 9415              		.cfi_def_cfa 7, 8
 9416 0025 C3       		ret
 9417              		.cfi_endproc
 9418              	.LFE1353:
 9420              		.weak	_ZTV25TestHexIO_testJunkAddrMsb
 9421              		.section	.rodata._ZTV25TestHexIO_testJunkAddrMsb,"aG",@progbits,_ZTV25TestHexIO_testJunkAddrMsb,co
 9422              		.align 8
 9425              	_ZTV25TestHexIO_testJunkAddrMsb:
 9426 0000 00000000 		.quad	0
 9426      00000000 
 9427 0008 00000000 		.quad	_ZTI25TestHexIO_testJunkAddrMsb
 9427      00000000 
 9428 0010 00000000 		.quad	_ZN25TestHexIO_testJunkAddrMsbD1Ev
 9428      00000000 
 9429 0018 00000000 		.quad	_ZN25TestHexIO_testJunkAddrMsbD0Ev
 9429      00000000 
 9430 0020 00000000 		.quad	_ZNK25TestHexIO_testJunkAddrMsb7RunImplEv
 9430      00000000 
 9431              		.section	.text._ZN25TestHexIO_testJunkAddrMsbD2Ev,"axG",@progbits,_ZN25TestHexIO_testJunkAddrMsbD5
 9432              		.align 2
 9433              		.weak	_ZN25TestHexIO_testJunkAddrMsbD2Ev
 9435              	_ZN25TestHexIO_testJunkAddrMsbD2Ev:
 9436              	.LFB1355:
  95:testHexIO.cpp **** 	Buffer data;
 9437              		.loc 4 95 0
 9438              		.cfi_startproc
 9439 0000 55       		pushq	%rbp
 9440              		.cfi_def_cfa_offset 16
 9441              		.cfi_offset 6, -16
 9442 0001 4889E5   		movq	%rsp, %rbp
 9443              		.cfi_def_cfa_register 6
 9444 0004 4883EC10 		subq	$16, %rsp
 9445 0008 48897DF8 		movq	%rdi, -8(%rbp)
 9446              	.LBB72:
  95:testHexIO.cpp **** 	Buffer data;
 9447              		.loc 4 95 0
 9448 000c BA000000 		movl	$_ZTV25TestHexIO_testJunkAddrMsb+16, %edx
 9448      00
 9449 0011 488B45F8 		movq	-8(%rbp), %rax
 9450 0015 488910   		movq	%rdx, (%rax)
 9451 0018 488B45F8 		movq	-8(%rbp), %rax
 9452 001c 4889C7   		movq	%rax, %rdi
 9453 001f E8000000 		call	_ZN8UnitTest4TestD2Ev
 9453      00
 9454              	.LBE72:
 9455 0024 B8000000 		movl	$0, %eax
 9455      00
 9456 0029 85C0     		testl	%eax, %eax
 9457 002b 740C     		je	.L545
  95:testHexIO.cpp **** 	Buffer data;
 9458              		.loc 4 95 0 is_stmt 0 discriminator 4
 9459 002d 488B45F8 		movq	-8(%rbp), %rax
 9460 0031 4889C7   		movq	%rax, %rdi
 9461 0034 E8000000 		call	_ZdlPv
 9461      00
 9462              	.L545:
  95:testHexIO.cpp **** 	Buffer data;
 9463              		.loc 4 95 0
 9464 0039 C9       		leave
 9465              		.cfi_def_cfa 7, 8
 9466 003a C3       		ret
 9467              		.cfi_endproc
 9468              	.LFE1355:
 9470              		.weak	_ZN25TestHexIO_testJunkAddrMsbD1Ev
 9471              		.set	_ZN25TestHexIO_testJunkAddrMsbD1Ev,_ZN25TestHexIO_testJunkAddrMsbD2Ev
 9472              		.section	.text._ZN25TestHexIO_testJunkAddrMsbD0Ev,"axG",@progbits,_ZN25TestHexIO_testJunkAddrMsbD5
 9473              		.align 2
 9474              		.weak	_ZN25TestHexIO_testJunkAddrMsbD0Ev
 9476              	_ZN25TestHexIO_testJunkAddrMsbD0Ev:
 9477              	.LFB1357:
  95:testHexIO.cpp **** 	Buffer data;
 9478              		.loc 4 95 0 is_stmt 1
 9479              		.cfi_startproc
 9480 0000 55       		pushq	%rbp
 9481              		.cfi_def_cfa_offset 16
 9482              		.cfi_offset 6, -16
 9483 0001 4889E5   		movq	%rsp, %rbp
 9484              		.cfi_def_cfa_register 6
 9485 0004 4883EC10 		subq	$16, %rsp
 9486 0008 48897DF8 		movq	%rdi, -8(%rbp)
  95:testHexIO.cpp **** 	Buffer data;
 9487              		.loc 4 95 0
 9488 000c 488B45F8 		movq	-8(%rbp), %rax
 9489 0010 4889C7   		movq	%rax, %rdi
 9490 0013 E8000000 		call	_ZN25TestHexIO_testJunkAddrMsbD1Ev
 9490      00
 9491 0018 488B45F8 		movq	-8(%rbp), %rax
 9492 001c 4889C7   		movq	%rax, %rdi
 9493 001f E8000000 		call	_ZdlPv
 9493      00
 9494 0024 C9       		leave
 9495              		.cfi_def_cfa 7, 8
 9496 0025 C3       		ret
 9497              		.cfi_endproc
 9498              	.LFE1357:
 9500              		.weak	_ZTV27TestHexIO_testJunkByteCount
 9501              		.section	.rodata._ZTV27TestHexIO_testJunkByteCount,"aG",@progbits,_ZTV27TestHexIO_testJunkByteCoun
 9502              		.align 8
 9505              	_ZTV27TestHexIO_testJunkByteCount:
 9506 0000 00000000 		.quad	0
 9506      00000000 
 9507 0008 00000000 		.quad	_ZTI27TestHexIO_testJunkByteCount
 9507      00000000 
 9508 0010 00000000 		.quad	_ZN27TestHexIO_testJunkByteCountD1Ev
 9508      00000000 
 9509 0018 00000000 		.quad	_ZN27TestHexIO_testJunkByteCountD0Ev
 9509      00000000 
 9510 0020 00000000 		.quad	_ZNK27TestHexIO_testJunkByteCount7RunImplEv
 9510      00000000 
 9511              		.section	.text._ZN27TestHexIO_testJunkByteCountD2Ev,"axG",@progbits,_ZN27TestHexIO_testJunkByteCou
 9512              		.align 2
 9513              		.weak	_ZN27TestHexIO_testJunkByteCountD2Ev
 9515              	_ZN27TestHexIO_testJunkByteCountD2Ev:
 9516              	.LFB1359:
  82:testHexIO.cpp **** 	Buffer data;
 9517              		.loc 4 82 0
 9518              		.cfi_startproc
 9519 0000 55       		pushq	%rbp
 9520              		.cfi_def_cfa_offset 16
 9521              		.cfi_offset 6, -16
 9522 0001 4889E5   		movq	%rsp, %rbp
 9523              		.cfi_def_cfa_register 6
 9524 0004 4883EC10 		subq	$16, %rsp
 9525 0008 48897DF8 		movq	%rdi, -8(%rbp)
 9526              	.LBB73:
  82:testHexIO.cpp **** 	Buffer data;
 9527              		.loc 4 82 0
 9528 000c BA000000 		movl	$_ZTV27TestHexIO_testJunkByteCount+16, %edx
 9528      00
 9529 0011 488B45F8 		movq	-8(%rbp), %rax
 9530 0015 488910   		movq	%rdx, (%rax)
 9531 0018 488B45F8 		movq	-8(%rbp), %rax
 9532 001c 4889C7   		movq	%rax, %rdi
 9533 001f E8000000 		call	_ZN8UnitTest4TestD2Ev
 9533      00
 9534              	.LBE73:
 9535 0024 B8000000 		movl	$0, %eax
 9535      00
 9536 0029 85C0     		testl	%eax, %eax
 9537 002b 740C     		je	.L548
  82:testHexIO.cpp **** 	Buffer data;
 9538              		.loc 4 82 0 is_stmt 0 discriminator 4
 9539 002d 488B45F8 		movq	-8(%rbp), %rax
 9540 0031 4889C7   		movq	%rax, %rdi
 9541 0034 E8000000 		call	_ZdlPv
 9541      00
 9542              	.L548:
  82:testHexIO.cpp **** 	Buffer data;
 9543              		.loc 4 82 0
 9544 0039 C9       		leave
 9545              		.cfi_def_cfa 7, 8
 9546 003a C3       		ret
 9547              		.cfi_endproc
 9548              	.LFE1359:
 9550              		.weak	_ZN27TestHexIO_testJunkByteCountD1Ev
 9551              		.set	_ZN27TestHexIO_testJunkByteCountD1Ev,_ZN27TestHexIO_testJunkByteCountD2Ev
 9552              		.section	.text._ZN27TestHexIO_testJunkByteCountD0Ev,"axG",@progbits,_ZN27TestHexIO_testJunkByteCou
 9553              		.align 2
 9554              		.weak	_ZN27TestHexIO_testJunkByteCountD0Ev
 9556              	_ZN27TestHexIO_testJunkByteCountD0Ev:
 9557              	.LFB1361:
  82:testHexIO.cpp **** 	Buffer data;
 9558              		.loc 4 82 0 is_stmt 1
 9559              		.cfi_startproc
 9560 0000 55       		pushq	%rbp
 9561              		.cfi_def_cfa_offset 16
 9562              		.cfi_offset 6, -16
 9563 0001 4889E5   		movq	%rsp, %rbp
 9564              		.cfi_def_cfa_register 6
 9565 0004 4883EC10 		subq	$16, %rsp
 9566 0008 48897DF8 		movq	%rdi, -8(%rbp)
  82:testHexIO.cpp **** 	Buffer data;
 9567              		.loc 4 82 0
 9568 000c 488B45F8 		movq	-8(%rbp), %rax
 9569 0010 4889C7   		movq	%rax, %rdi
 9570 0013 E8000000 		call	_ZN27TestHexIO_testJunkByteCountD1Ev
 9570      00
 9571 0018 488B45F8 		movq	-8(%rbp), %rax
 9572 001c 4889C7   		movq	%rax, %rdi
 9573 001f E8000000 		call	_ZdlPv
 9573      00
 9574 0024 C9       		leave
 9575              		.cfi_def_cfa 7, 8
 9576 0025 C3       		ret
 9577              		.cfi_endproc
 9578              	.LFE1361:
 9580              		.weak	_ZTV27TestHexIO_testJunkStartCode
 9581              		.section	.rodata._ZTV27TestHexIO_testJunkStartCode,"aG",@progbits,_ZTV27TestHexIO_testJunkStartCod
 9582              		.align 8
 9585              	_ZTV27TestHexIO_testJunkStartCode:
 9586 0000 00000000 		.quad	0
 9586      00000000 
 9587 0008 00000000 		.quad	_ZTI27TestHexIO_testJunkStartCode
 9587      00000000 
 9588 0010 00000000 		.quad	_ZN27TestHexIO_testJunkStartCodeD1Ev
 9588      00000000 
 9589 0018 00000000 		.quad	_ZN27TestHexIO_testJunkStartCodeD0Ev
 9589      00000000 
 9590 0020 00000000 		.quad	_ZNK27TestHexIO_testJunkStartCode7RunImplEv
 9590      00000000 
 9591              		.section	.text._ZN27TestHexIO_testJunkStartCodeD2Ev,"axG",@progbits,_ZN27TestHexIO_testJunkStartCo
 9592              		.align 2
 9593              		.weak	_ZN27TestHexIO_testJunkStartCodeD2Ev
 9595              	_ZN27TestHexIO_testJunkStartCodeD2Ev:
 9596              	.LFB1363:
  69:testHexIO.cpp **** 	Buffer data;
 9597              		.loc 4 69 0
 9598              		.cfi_startproc
 9599 0000 55       		pushq	%rbp
 9600              		.cfi_def_cfa_offset 16
 9601              		.cfi_offset 6, -16
 9602 0001 4889E5   		movq	%rsp, %rbp
 9603              		.cfi_def_cfa_register 6
 9604 0004 4883EC10 		subq	$16, %rsp
 9605 0008 48897DF8 		movq	%rdi, -8(%rbp)
 9606              	.LBB74:
  69:testHexIO.cpp **** 	Buffer data;
 9607              		.loc 4 69 0
 9608 000c BA000000 		movl	$_ZTV27TestHexIO_testJunkStartCode+16, %edx
 9608      00
 9609 0011 488B45F8 		movq	-8(%rbp), %rax
 9610 0015 488910   		movq	%rdx, (%rax)
 9611 0018 488B45F8 		movq	-8(%rbp), %rax
 9612 001c 4889C7   		movq	%rax, %rdi
 9613 001f E8000000 		call	_ZN8UnitTest4TestD2Ev
 9613      00
 9614              	.LBE74:
 9615 0024 B8000000 		movl	$0, %eax
 9615      00
 9616 0029 85C0     		testl	%eax, %eax
 9617 002b 740C     		je	.L551
  69:testHexIO.cpp **** 	Buffer data;
 9618              		.loc 4 69 0 is_stmt 0 discriminator 4
 9619 002d 488B45F8 		movq	-8(%rbp), %rax
 9620 0031 4889C7   		movq	%rax, %rdi
 9621 0034 E8000000 		call	_ZdlPv
 9621      00
 9622              	.L551:
  69:testHexIO.cpp **** 	Buffer data;
 9623              		.loc 4 69 0
 9624 0039 C9       		leave
 9625              		.cfi_def_cfa 7, 8
 9626 003a C3       		ret
 9627              		.cfi_endproc
 9628              	.LFE1363:
 9630              		.weak	_ZN27TestHexIO_testJunkStartCodeD1Ev
 9631              		.set	_ZN27TestHexIO_testJunkStartCodeD1Ev,_ZN27TestHexIO_testJunkStartCodeD2Ev
 9632              		.section	.text._ZN27TestHexIO_testJunkStartCodeD0Ev,"axG",@progbits,_ZN27TestHexIO_testJunkStartCo
 9633              		.align 2
 9634              		.weak	_ZN27TestHexIO_testJunkStartCodeD0Ev
 9636              	_ZN27TestHexIO_testJunkStartCodeD0Ev:
 9637              	.LFB1365:
  69:testHexIO.cpp **** 	Buffer data;
 9638              		.loc 4 69 0 is_stmt 1
 9639              		.cfi_startproc
 9640 0000 55       		pushq	%rbp
 9641              		.cfi_def_cfa_offset 16
 9642              		.cfi_offset 6, -16
 9643 0001 4889E5   		movq	%rsp, %rbp
 9644              		.cfi_def_cfa_register 6
 9645 0004 4883EC10 		subq	$16, %rsp
 9646 0008 48897DF8 		movq	%rdi, -8(%rbp)
  69:testHexIO.cpp **** 	Buffer data;
 9647              		.loc 4 69 0
 9648 000c 488B45F8 		movq	-8(%rbp), %rax
 9649 0010 4889C7   		movq	%rax, %rdi
 9650 0013 E8000000 		call	_ZN27TestHexIO_testJunkStartCodeD1Ev
 9650      00
 9651 0018 488B45F8 		movq	-8(%rbp), %rax
 9652 001c 4889C7   		movq	%rax, %rdi
 9653 001f E8000000 		call	_ZdlPv
 9653      00
 9654 0024 C9       		leave
 9655              		.cfi_def_cfa 7, 8
 9656 0025 C3       		ret
 9657              		.cfi_endproc
 9658              	.LFE1365:
 9660              		.weak	_ZTV22TestHexIO_testValidEOF
 9661              		.section	.rodata._ZTV22TestHexIO_testValidEOF,"aG",@progbits,_ZTV22TestHexIO_testValidEOF,comdat
 9662              		.align 8
 9665              	_ZTV22TestHexIO_testValidEOF:
 9666 0000 00000000 		.quad	0
 9666      00000000 
 9667 0008 00000000 		.quad	_ZTI22TestHexIO_testValidEOF
 9667      00000000 
 9668 0010 00000000 		.quad	_ZN22TestHexIO_testValidEOFD1Ev
 9668      00000000 
 9669 0018 00000000 		.quad	_ZN22TestHexIO_testValidEOFD0Ev
 9669      00000000 
 9670 0020 00000000 		.quad	_ZNK22TestHexIO_testValidEOF7RunImplEv
 9670      00000000 
 9671              		.section	.text._ZN22TestHexIO_testValidEOFD2Ev,"axG",@progbits,_ZN22TestHexIO_testValidEOFD5Ev,com
 9672              		.align 2
 9673              		.weak	_ZN22TestHexIO_testValidEOFD2Ev
 9675              	_ZN22TestHexIO_testValidEOFD2Ev:
 9676              	.LFB1367:
  50:testHexIO.cpp **** 	Buffer data, mask;
 9677              		.loc 4 50 0
 9678              		.cfi_startproc
 9679 0000 55       		pushq	%rbp
 9680              		.cfi_def_cfa_offset 16
 9681              		.cfi_offset 6, -16
 9682 0001 4889E5   		movq	%rsp, %rbp
 9683              		.cfi_def_cfa_register 6
 9684 0004 4883EC10 		subq	$16, %rsp
 9685 0008 48897DF8 		movq	%rdi, -8(%rbp)
 9686              	.LBB75:
  50:testHexIO.cpp **** 	Buffer data, mask;
 9687              		.loc 4 50 0
 9688 000c BA000000 		movl	$_ZTV22TestHexIO_testValidEOF+16, %edx
 9688      00
 9689 0011 488B45F8 		movq	-8(%rbp), %rax
 9690 0015 488910   		movq	%rdx, (%rax)
 9691 0018 488B45F8 		movq	-8(%rbp), %rax
 9692 001c 4889C7   		movq	%rax, %rdi
 9693 001f E8000000 		call	_ZN8UnitTest4TestD2Ev
 9693      00
 9694              	.LBE75:
 9695 0024 B8000000 		movl	$0, %eax
 9695      00
 9696 0029 85C0     		testl	%eax, %eax
 9697 002b 740C     		je	.L554
  50:testHexIO.cpp **** 	Buffer data, mask;
 9698              		.loc 4 50 0 is_stmt 0 discriminator 4
 9699 002d 488B45F8 		movq	-8(%rbp), %rax
 9700 0031 4889C7   		movq	%rax, %rdi
 9701 0034 E8000000 		call	_ZdlPv
 9701      00
 9702              	.L554:
  50:testHexIO.cpp **** 	Buffer data, mask;
 9703              		.loc 4 50 0
 9704 0039 C9       		leave
 9705              		.cfi_def_cfa 7, 8
 9706 003a C3       		ret
 9707              		.cfi_endproc
 9708              	.LFE1367:
 9710              		.weak	_ZN22TestHexIO_testValidEOFD1Ev
 9711              		.set	_ZN22TestHexIO_testValidEOFD1Ev,_ZN22TestHexIO_testValidEOFD2Ev
 9712              		.section	.text._ZN22TestHexIO_testValidEOFD0Ev,"axG",@progbits,_ZN22TestHexIO_testValidEOFD5Ev,com
 9713              		.align 2
 9714              		.weak	_ZN22TestHexIO_testValidEOFD0Ev
 9716              	_ZN22TestHexIO_testValidEOFD0Ev:
 9717              	.LFB1369:
  50:testHexIO.cpp **** 	Buffer data, mask;
 9718              		.loc 4 50 0 is_stmt 1
 9719              		.cfi_startproc
 9720 0000 55       		pushq	%rbp
 9721              		.cfi_def_cfa_offset 16
 9722              		.cfi_offset 6, -16
 9723 0001 4889E5   		movq	%rsp, %rbp
 9724              		.cfi_def_cfa_register 6
 9725 0004 4883EC10 		subq	$16, %rsp
 9726 0008 48897DF8 		movq	%rdi, -8(%rbp)
  50:testHexIO.cpp **** 	Buffer data, mask;
 9727              		.loc 4 50 0
 9728 000c 488B45F8 		movq	-8(%rbp), %rax
 9729 0010 4889C7   		movq	%rax, %rdi
 9730 0013 E8000000 		call	_ZN22TestHexIO_testValidEOFD1Ev
 9730      00
 9731 0018 488B45F8 		movq	-8(%rbp), %rax
 9732 001c 4889C7   		movq	%rax, %rdi
 9733 001f E8000000 		call	_ZdlPv
 9733      00
 9734 0024 C9       		leave
 9735              		.cfi_def_cfa 7, 8
 9736 0025 C3       		ret
 9737              		.cfi_endproc
 9738              	.LFE1369:
 9740              		.weak	_ZTV27TestHexIO_testValidDataLine
 9741              		.section	.rodata._ZTV27TestHexIO_testValidDataLine,"aG",@progbits,_ZTV27TestHexIO_testValidDataLin
 9742              		.align 8
 9745              	_ZTV27TestHexIO_testValidDataLine:
 9746 0000 00000000 		.quad	0
 9746      00000000 
 9747 0008 00000000 		.quad	_ZTI27TestHexIO_testValidDataLine
 9747      00000000 
 9748 0010 00000000 		.quad	_ZN27TestHexIO_testValidDataLineD1Ev
 9748      00000000 
 9749 0018 00000000 		.quad	_ZN27TestHexIO_testValidDataLineD0Ev
 9749      00000000 
 9750 0020 00000000 		.quad	_ZNK27TestHexIO_testValidDataLine7RunImplEv
 9750      00000000 
 9751              		.section	.text._ZN27TestHexIO_testValidDataLineD2Ev,"axG",@progbits,_ZN27TestHexIO_testValidDataLi
 9752              		.align 2
 9753              		.weak	_ZN27TestHexIO_testValidDataLineD2Ev
 9755              	_ZN27TestHexIO_testValidDataLineD2Ev:
 9756              	.LFB1371:
  27:testHexIO.cpp **** 	Buffer data, mask;
 9757              		.loc 4 27 0
 9758              		.cfi_startproc
 9759 0000 55       		pushq	%rbp
 9760              		.cfi_def_cfa_offset 16
 9761              		.cfi_offset 6, -16
 9762 0001 4889E5   		movq	%rsp, %rbp
 9763              		.cfi_def_cfa_register 6
 9764 0004 4883EC10 		subq	$16, %rsp
 9765 0008 48897DF8 		movq	%rdi, -8(%rbp)
 9766              	.LBB76:
  27:testHexIO.cpp **** 	Buffer data, mask;
 9767              		.loc 4 27 0
 9768 000c BA000000 		movl	$_ZTV27TestHexIO_testValidDataLine+16, %edx
 9768      00
 9769 0011 488B45F8 		movq	-8(%rbp), %rax
 9770 0015 488910   		movq	%rdx, (%rax)
 9771 0018 488B45F8 		movq	-8(%rbp), %rax
 9772 001c 4889C7   		movq	%rax, %rdi
 9773 001f E8000000 		call	_ZN8UnitTest4TestD2Ev
 9773      00
 9774              	.LBE76:
 9775 0024 B8000000 		movl	$0, %eax
 9775      00
 9776 0029 85C0     		testl	%eax, %eax
 9777 002b 740C     		je	.L557
  27:testHexIO.cpp **** 	Buffer data, mask;
 9778              		.loc 4 27 0 is_stmt 0 discriminator 4
 9779 002d 488B45F8 		movq	-8(%rbp), %rax
 9780 0031 4889C7   		movq	%rax, %rdi
 9781 0034 E8000000 		call	_ZdlPv
 9781      00
 9782              	.L557:
  27:testHexIO.cpp **** 	Buffer data, mask;
 9783              		.loc 4 27 0
 9784 0039 C9       		leave
 9785              		.cfi_def_cfa 7, 8
 9786 003a C3       		ret
 9787              		.cfi_endproc
 9788              	.LFE1371:
 9790              		.weak	_ZN27TestHexIO_testValidDataLineD1Ev
 9791              		.set	_ZN27TestHexIO_testValidDataLineD1Ev,_ZN27TestHexIO_testValidDataLineD2Ev
 9792              		.section	.text._ZN27TestHexIO_testValidDataLineD0Ev,"axG",@progbits,_ZN27TestHexIO_testValidDataLi
 9793              		.align 2
 9794              		.weak	_ZN27TestHexIO_testValidDataLineD0Ev
 9796              	_ZN27TestHexIO_testValidDataLineD0Ev:
 9797              	.LFB1373:
  27:testHexIO.cpp **** 	Buffer data, mask;
 9798              		.loc 4 27 0 is_stmt 1
 9799              		.cfi_startproc
 9800 0000 55       		pushq	%rbp
 9801              		.cfi_def_cfa_offset 16
 9802              		.cfi_offset 6, -16
 9803 0001 4889E5   		movq	%rsp, %rbp
 9804              		.cfi_def_cfa_register 6
 9805 0004 4883EC10 		subq	$16, %rsp
 9806 0008 48897DF8 		movq	%rdi, -8(%rbp)
  27:testHexIO.cpp **** 	Buffer data, mask;
 9807              		.loc 4 27 0
 9808 000c 488B45F8 		movq	-8(%rbp), %rax
 9809 0010 4889C7   		movq	%rax, %rdi
 9810 0013 E8000000 		call	_ZN27TestHexIO_testValidDataLineD1Ev
 9810      00
 9811 0018 488B45F8 		movq	-8(%rbp), %rax
 9812 001c 4889C7   		movq	%rax, %rdi
 9813 001f E8000000 		call	_ZdlPv
 9813      00
 9814 0024 C9       		leave
 9815              		.cfi_def_cfa 7, 8
 9816 0025 C3       		ret
 9817              		.cfi_endproc
 9818              	.LFE1373:
 9820              		.weak	_ZTVN8UnitTest15MemoryOutStreamE
 9821              		.section	.rodata._ZTVN8UnitTest15MemoryOutStreamE,"aG",@progbits,_ZTVN8UnitTest15MemoryOutStreamE,
 9822              		.align 8
 9825              	_ZTVN8UnitTest15MemoryOutStreamE:
 9826 0000 90000000 		.quad	144
 9826      00000000 
 9827 0008 00000000 		.quad	0
 9827      00000000 
 9828 0010 00000000 		.quad	_ZTIN8UnitTest15MemoryOutStreamE
 9828      00000000 
 9829 0018 00000000 		.quad	_ZN8UnitTest15MemoryOutStreamD1Ev
 9829      00000000 
 9830 0020 00000000 		.quad	_ZN8UnitTest15MemoryOutStreamD0Ev
 9830      00000000 
 9831 0028 70FFFFFF 		.quad	-144
 9831      FFFFFFFF 
 9832 0030 70FFFFFF 		.quad	-144
 9832      FFFFFFFF 
 9833 0038 00000000 		.quad	_ZTIN8UnitTest15MemoryOutStreamE
 9833      00000000 
 9834 0040 00000000 		.quad	_ZTv0_n24_N8UnitTest15MemoryOutStreamD1Ev
 9834      00000000 
 9835 0048 00000000 		.quad	_ZTv0_n24_N8UnitTest15MemoryOutStreamD0Ev
 9835      00000000 
 9836              		.weak	_ZTTN8UnitTest15MemoryOutStreamE
 9837              		.section	.rodata._ZTTN8UnitTest15MemoryOutStreamE,"aG",@progbits,_ZTVN8UnitTest15MemoryOutStreamE,
 9838              		.align 8
 9841              	_ZTTN8UnitTest15MemoryOutStreamE:
 9842 0000 00000000 		.quad	_ZTVN8UnitTest15MemoryOutStreamE+24
 9842      00000000 
 9843 0008 00000000 		.quad	_ZTCN8UnitTest15MemoryOutStreamE0_NSt7__cxx1119basic_ostringstreamIcSt11char_traitsIcESaIcEE
 9843      00000000 
 9844 0010 00000000 		.quad	_ZTCN8UnitTest15MemoryOutStreamE0_So+24
 9844      00000000 
 9845 0018 00000000 		.quad	_ZTCN8UnitTest15MemoryOutStreamE0_So+64
 9845      00000000 
 9846 0020 00000000 		.quad	_ZTCN8UnitTest15MemoryOutStreamE0_NSt7__cxx1119basic_ostringstreamIcSt11char_traitsIcESaIcEE
 9846      00000000 
 9847 0028 00000000 		.quad	_ZTVN8UnitTest15MemoryOutStreamE+64
 9847      00000000 
 9848              		.hidden	_ZTCN8UnitTest15MemoryOutStreamE0_NSt7__cxx1119basic_ostringstreamIcSt11char_traitsIcESaIc
 9849              		.weak	_ZTCN8UnitTest15MemoryOutStreamE0_NSt7__cxx1119basic_ostringstreamIcSt11char_traitsIcESaIcEE
 9850              		.section	.rodata._ZTCN8UnitTest15MemoryOutStreamE0_NSt7__cxx1119basic_ostringstreamIcSt11char_trai
 9851              		.align 8
 9854              	_ZTCN8UnitTest15MemoryOutStreamE0_NSt7__cxx1119basic_ostringstreamIcSt11char_traitsIcESaIcEEE:
 9855 0000 90000000 		.quad	144
 9855      00000000 
 9856 0008 00000000 		.quad	0
 9856      00000000 
 9857 0010 00000000 		.quad	_ZTINSt7__cxx1119basic_ostringstreamIcSt11char_traitsIcESaIcEEE
 9857      00000000 
 9858 0018 00000000 		.quad	0
 9858      00000000 
 9859 0020 00000000 		.quad	0
 9859      00000000 
 9860 0028 70FFFFFF 		.quad	-144
 9860      FFFFFFFF 
 9861 0030 70FFFFFF 		.quad	-144
 9861      FFFFFFFF 
 9862 0038 00000000 		.quad	_ZTINSt7__cxx1119basic_ostringstreamIcSt11char_traitsIcESaIcEEE
 9862      00000000 
 9863 0040 00000000 		.quad	0
 9863      00000000 
 9864 0048 00000000 		.quad	0
 9864      00000000 
 9865              		.hidden	_ZTCN8UnitTest15MemoryOutStreamE0_So
 9866              		.weak	_ZTCN8UnitTest15MemoryOutStreamE0_So
 9867              		.section	.rodata._ZTCN8UnitTest15MemoryOutStreamE0_So,"aG",@progbits,_ZTVN8UnitTest15MemoryOutStre
 9868              		.align 8
 9871              	_ZTCN8UnitTest15MemoryOutStreamE0_So:
 9872 0000 90000000 		.quad	144
 9872      00000000 
 9873 0008 00000000 		.quad	0
 9873      00000000 
 9874 0010 00000000 		.quad	_ZTISo
 9874      00000000 
 9875 0018 00000000 		.quad	0
 9875      00000000 
 9876 0020 00000000 		.quad	0
 9876      00000000 
 9877 0028 70FFFFFF 		.quad	-144
 9877      FFFFFFFF 
 9878 0030 70FFFFFF 		.quad	-144
 9878      FFFFFFFF 
 9879 0038 00000000 		.quad	_ZTISo
 9879      00000000 
 9880 0040 00000000 		.quad	0
 9880      00000000 
 9881 0048 00000000 		.quad	0
 9881      00000000 
 9882              		.weak	_ZTI28TestHexIO_testDeriveWriteMap
 9883              		.section	.rodata._ZTI28TestHexIO_testDeriveWriteMap,"aG",@progbits,_ZTI28TestHexIO_testDeriveWrite
 9884              		.align 8
 9887              	_ZTI28TestHexIO_testDeriveWriteMap:
 9888 0000 00000000 		.quad	_ZTVN10__cxxabiv120__si_class_type_infoE+16
 9888      00000000 
 9889 0008 00000000 		.quad	_ZTS28TestHexIO_testDeriveWriteMap
 9889      00000000 
 9890 0010 00000000 		.quad	_ZTIN8UnitTest4TestE
 9890      00000000 
 9891              		.weak	_ZTS28TestHexIO_testDeriveWriteMap
 9892              		.section	.rodata._ZTS28TestHexIO_testDeriveWriteMap,"aG",@progbits,_ZTS28TestHexIO_testDeriveWrite
 9893              		.align 16
 9896              	_ZTS28TestHexIO_testDeriveWriteMap:
 9897 0000 32385465 		.string	"28TestHexIO_testDeriveWriteMap"
 9897      73744865 
 9897      78494F5F 
 9897      74657374 
 9897      44657269 
 9898              		.weak	_ZTI23TestHexIO_testRoundTrip
 9899              		.section	.rodata._ZTI23TestHexIO_testRoundTrip,"aG",@progbits,_ZTI23TestHexIO_testRoundTrip,comdat
 9900              		.align 8
 9903              	_ZTI23TestHexIO_testRoundTrip:
 9904 0000 00000000 		.quad	_ZTVN10__cxxabiv120__si_class_type_infoE+16
 9904      00000000 
 9905 0008 00000000 		.quad	_ZTS23TestHexIO_testRoundTrip
 9905      00000000 
 9906 0010 00000000 		.quad	_ZTIN8UnitTest4TestE
 9906      00000000 
 9907              		.weak	_ZTS23TestHexIO_testRoundTrip
 9908              		.section	.rodata._ZTS23TestHexIO_testRoundTrip,"aG",@progbits,_ZTS23TestHexIO_testRoundTrip,comdat
 9909              		.align 16
 9912              	_ZTS23TestHexIO_testRoundTrip:
 9913 0000 32335465 		.string	"23TestHexIO_testRoundTrip"
 9913      73744865 
 9913      78494F5F 
 9913      74657374 
 9913      526F756E 
 9914              		.weak	_ZTI25TestHexIO_testCorruptLine
 9915              		.section	.rodata._ZTI25TestHexIO_testCorruptLine,"aG",@progbits,_ZTI25TestHexIO_testCorruptLine,co
 9916              		.align 8
 9919              	_ZTI25TestHexIO_testCorruptLine:
 9920 0000 00000000 		.quad	_ZTVN10__cxxabiv120__si_class_type_infoE+16
 9920      00000000 
 9921 0008 00000000 		.quad	_ZTS25TestHexIO_testCorruptLine
 9921      00000000 
 9922 0010 00000000 		.quad	_ZTIN8UnitTest4TestE
 9922      00000000 
 9923              		.weak	_ZTS25TestHexIO_testCorruptLine
 9924              		.section	.rodata._ZTS25TestHexIO_testCorruptLine,"aG",@progbits,_ZTS25TestHexIO_testCorruptLine,co
 9925              		.align 16
 9928              	_ZTS25TestHexIO_testCorruptLine:
 9929 0000 32355465 		.string	"25TestHexIO_testCorruptLine"
 9929      73744865 
 9929      78494F5F 
 9929      74657374 
 9929      436F7272 
 9930              		.weak	_ZTI25TestHexIO_testBadChecksum
 9931              		.section	.rodata._ZTI25TestHexIO_testBadChecksum,"aG",@progbits,_ZTI25TestHexIO_testBadChecksum,co
 9932              		.align 8
 9935              	_ZTI25TestHexIO_testBadChecksum:
 9936 0000 00000000 		.quad	_ZTVN10__cxxabiv120__si_class_type_infoE+16
 9936      00000000 
 9937 0008 00000000 		.quad	_ZTS25TestHexIO_testBadChecksum
 9937      00000000 
 9938 0010 00000000 		.quad	_ZTIN8UnitTest4TestE
 9938      00000000 
 9939              		.weak	_ZTS25TestHexIO_testBadChecksum
 9940              		.section	.rodata._ZTS25TestHexIO_testBadChecksum,"aG",@progbits,_ZTS25TestHexIO_testBadChecksum,co
 9941              		.align 16
 9944              	_ZTS25TestHexIO_testBadChecksum:
 9945 0000 32355465 		.string	"25TestHexIO_testBadChecksum"
 9945      73744865 
 9945      78494F5F 
 9945      74657374 
 9945      42616443 
 9946              		.weak	_ZTI26TestHexIO_testJunkChecksum
 9947              		.section	.rodata._ZTI26TestHexIO_testJunkChecksum,"aG",@progbits,_ZTI26TestHexIO_testJunkChecksum,
 9948              		.align 8
 9951              	_ZTI26TestHexIO_testJunkChecksum:
 9952 0000 00000000 		.quad	_ZTVN10__cxxabiv120__si_class_type_infoE+16
 9952      00000000 
 9953 0008 00000000 		.quad	_ZTS26TestHexIO_testJunkChecksum
 9953      00000000 
 9954 0010 00000000 		.quad	_ZTIN8UnitTest4TestE
 9954      00000000 
 9955              		.weak	_ZTS26TestHexIO_testJunkChecksum
 9956              		.section	.rodata._ZTS26TestHexIO_testJunkChecksum,"aG",@progbits,_ZTS26TestHexIO_testJunkChecksum,
 9957              		.align 16
 9960              	_ZTS26TestHexIO_testJunkChecksum:
 9961 0000 32365465 		.string	"26TestHexIO_testJunkChecksum"
 9961      73744865 
 9961      78494F5F 
 9961      74657374 
 9961      4A756E6B 
 9962              		.weak	_ZTI26TestHexIO_testJunkDataByte
 9963              		.section	.rodata._ZTI26TestHexIO_testJunkDataByte,"aG",@progbits,_ZTI26TestHexIO_testJunkDataByte,
 9964              		.align 8
 9967              	_ZTI26TestHexIO_testJunkDataByte:
 9968 0000 00000000 		.quad	_ZTVN10__cxxabiv120__si_class_type_infoE+16
 9968      00000000 
 9969 0008 00000000 		.quad	_ZTS26TestHexIO_testJunkDataByte
 9969      00000000 
 9970 0010 00000000 		.quad	_ZTIN8UnitTest4TestE
 9970      00000000 
 9971              		.weak	_ZTS26TestHexIO_testJunkDataByte
 9972              		.section	.rodata._ZTS26TestHexIO_testJunkDataByte,"aG",@progbits,_ZTS26TestHexIO_testJunkDataByte,
 9973              		.align 16
 9976              	_ZTS26TestHexIO_testJunkDataByte:
 9977 0000 32365465 		.string	"26TestHexIO_testJunkDataByte"
 9977      73744865 
 9977      78494F5F 
 9977      74657374 
 9977      4A756E6B 
 9978              		.weak	_ZTI25TestHexIO_testJunkRecType
 9979              		.section	.rodata._ZTI25TestHexIO_testJunkRecType,"aG",@progbits,_ZTI25TestHexIO_testJunkRecType,co
 9980              		.align 8
 9983              	_ZTI25TestHexIO_testJunkRecType:
 9984 0000 00000000 		.quad	_ZTVN10__cxxabiv120__si_class_type_infoE+16
 9984      00000000 
 9985 0008 00000000 		.quad	_ZTS25TestHexIO_testJunkRecType
 9985      00000000 
 9986 0010 00000000 		.quad	_ZTIN8UnitTest4TestE
 9986      00000000 
 9987              		.weak	_ZTS25TestHexIO_testJunkRecType
 9988              		.section	.rodata._ZTS25TestHexIO_testJunkRecType,"aG",@progbits,_ZTS25TestHexIO_testJunkRecType,co
 9989              		.align 16
 9992              	_ZTS25TestHexIO_testJunkRecType:
 9993 0000 32355465 		.string	"25TestHexIO_testJunkRecType"
 9993      73744865 
 9993      78494F5F 
 9993      74657374 
 9993      4A756E6B 
 9994              		.weak	_ZTI25TestHexIO_testJunkAddrLsb
 9995              		.section	.rodata._ZTI25TestHexIO_testJunkAddrLsb,"aG",@progbits,_ZTI25TestHexIO_testJunkAddrLsb,co
 9996              		.align 8
 9999              	_ZTI25TestHexIO_testJunkAddrLsb:
 10000 0000 00000000 		.quad	_ZTVN10__cxxabiv120__si_class_type_infoE+16
 10000      00000000 
 10001 0008 00000000 		.quad	_ZTS25TestHexIO_testJunkAddrLsb
 10001      00000000 
 10002 0010 00000000 		.quad	_ZTIN8UnitTest4TestE
 10002      00000000 
 10003              		.weak	_ZTS25TestHexIO_testJunkAddrLsb
 10004              		.section	.rodata._ZTS25TestHexIO_testJunkAddrLsb,"aG",@progbits,_ZTS25TestHexIO_testJunkAddrLsb,co
 10005              		.align 16
 10008              	_ZTS25TestHexIO_testJunkAddrLsb:
 10009 0000 32355465 		.string	"25TestHexIO_testJunkAddrLsb"
 10009      73744865 
 10009      78494F5F 
 10009      74657374 
 10009      4A756E6B 
 10010              		.weak	_ZTI25TestHexIO_testJunkAddrMsb
 10011              		.section	.rodata._ZTI25TestHexIO_testJunkAddrMsb,"aG",@progbits,_ZTI25TestHexIO_testJunkAddrMsb,co
 10012              		.align 8
 10015              	_ZTI25TestHexIO_testJunkAddrMsb:
 10016 0000 00000000 		.quad	_ZTVN10__cxxabiv120__si_class_type_infoE+16
 10016      00000000 
 10017 0008 00000000 		.quad	_ZTS25TestHexIO_testJunkAddrMsb
 10017      00000000 
 10018 0010 00000000 		.quad	_ZTIN8UnitTest4TestE
 10018      00000000 
 10019              		.weak	_ZTS25TestHexIO_testJunkAddrMsb
 10020              		.section	.rodata._ZTS25TestHexIO_testJunkAddrMsb,"aG",@progbits,_ZTS25TestHexIO_testJunkAddrMsb,co
 10021              		.align 16
 10024              	_ZTS25TestHexIO_testJunkAddrMsb:
 10025 0000 32355465 		.string	"25TestHexIO_testJunkAddrMsb"
 10025      73744865 
 10025      78494F5F 
 10025      74657374 
 10025      4A756E6B 
 10026              		.weak	_ZTI27TestHexIO_testJunkByteCount
 10027              		.section	.rodata._ZTI27TestHexIO_testJunkByteCount,"aG",@progbits,_ZTI27TestHexIO_testJunkByteCoun
 10028              		.align 8
 10031              	_ZTI27TestHexIO_testJunkByteCount:
 10032 0000 00000000 		.quad	_ZTVN10__cxxabiv120__si_class_type_infoE+16
 10032      00000000 
 10033 0008 00000000 		.quad	_ZTS27TestHexIO_testJunkByteCount
 10033      00000000 
 10034 0010 00000000 		.quad	_ZTIN8UnitTest4TestE
 10034      00000000 
 10035              		.weak	_ZTS27TestHexIO_testJunkByteCount
 10036              		.section	.rodata._ZTS27TestHexIO_testJunkByteCount,"aG",@progbits,_ZTS27TestHexIO_testJunkByteCoun
 10037              		.align 16
 10040              	_ZTS27TestHexIO_testJunkByteCount:
 10041 0000 32375465 		.string	"27TestHexIO_testJunkByteCount"
 10041      73744865 
 10041      78494F5F 
 10041      74657374 
 10041      4A756E6B 
 10042              		.weak	_ZTI27TestHexIO_testJunkStartCode
 10043              		.section	.rodata._ZTI27TestHexIO_testJunkStartCode,"aG",@progbits,_ZTI27TestHexIO_testJunkStartCod
 10044              		.align 8
 10047              	_ZTI27TestHexIO_testJunkStartCode:
 10048 0000 00000000 		.quad	_ZTVN10__cxxabiv120__si_class_type_infoE+16
 10048      00000000 
 10049 0008 00000000 		.quad	_ZTS27TestHexIO_testJunkStartCode
 10049      00000000 
 10050 0010 00000000 		.quad	_ZTIN8UnitTest4TestE
 10050      00000000 
 10051              		.weak	_ZTS27TestHexIO_testJunkStartCode
 10052              		.section	.rodata._ZTS27TestHexIO_testJunkStartCode,"aG",@progbits,_ZTS27TestHexIO_testJunkStartCod
 10053              		.align 16
 10056              	_ZTS27TestHexIO_testJunkStartCode:
 10057 0000 32375465 		.string	"27TestHexIO_testJunkStartCode"
 10057      73744865 
 10057      78494F5F 
 10057      74657374 
 10057      4A756E6B 
 10058              		.weak	_ZTI22TestHexIO_testValidEOF
 10059              		.section	.rodata._ZTI22TestHexIO_testValidEOF,"aG",@progbits,_ZTI22TestHexIO_testValidEOF,comdat
 10060              		.align 8
 10063              	_ZTI22TestHexIO_testValidEOF:
 10064 0000 00000000 		.quad	_ZTVN10__cxxabiv120__si_class_type_infoE+16
 10064      00000000 
 10065 0008 00000000 		.quad	_ZTS22TestHexIO_testValidEOF
 10065      00000000 
 10066 0010 00000000 		.quad	_ZTIN8UnitTest4TestE
 10066      00000000 
 10067              		.weak	_ZTS22TestHexIO_testValidEOF
 10068              		.section	.rodata._ZTS22TestHexIO_testValidEOF,"aG",@progbits,_ZTS22TestHexIO_testValidEOF,comdat
 10069              		.align 16
 10072              	_ZTS22TestHexIO_testValidEOF:
 10073 0000 32325465 		.string	"22TestHexIO_testValidEOF"
 10073      73744865 
 10073      78494F5F 
 10073      74657374 
 10073      56616C69 
 10074              		.weak	_ZTI27TestHexIO_testValidDataLine
 10075              		.section	.rodata._ZTI27TestHexIO_testValidDataLine,"aG",@progbits,_ZTI27TestHexIO_testValidDataLin
 10076              		.align 8
 10079              	_ZTI27TestHexIO_testValidDataLine:
 10080 0000 00000000 		.quad	_ZTVN10__cxxabiv120__si_class_type_infoE+16
 10080      00000000 
 10081 0008 00000000 		.quad	_ZTS27TestHexIO_testValidDataLine
 10081      00000000 
 10082 0010 00000000 		.quad	_ZTIN8UnitTest4TestE
 10082      00000000 
 10083              		.weak	_ZTS27TestHexIO_testValidDataLine
 10084              		.section	.rodata._ZTS27TestHexIO_testValidDataLine,"aG",@progbits,_ZTS27TestHexIO_testValidDataLin
 10085              		.align 16
 10088              	_ZTS27TestHexIO_testValidDataLine:
 10089 0000 32375465 		.string	"27TestHexIO_testValidDataLine"
 10089      73744865 
 10089      78494F5F 
 10089      74657374 
 10089      56616C69 
 10090              		.weak	_ZTIN8UnitTest15MemoryOutStreamE
 10091              		.section	.rodata._ZTIN8UnitTest15MemoryOutStreamE,"aG",@progbits,_ZTIN8UnitTest15MemoryOutStreamE,
 10092              		.align 8
 10095              	_ZTIN8UnitTest15MemoryOutStreamE:
 10096 0000 00000000 		.quad	_ZTVN10__cxxabiv120__si_class_type_infoE+16
 10096      00000000 
 10097 0008 00000000 		.quad	_ZTSN8UnitTest15MemoryOutStreamE
 10097      00000000 
 10098 0010 00000000 		.quad	_ZTINSt7__cxx1119basic_ostringstreamIcSt11char_traitsIcESaIcEEE
 10098      00000000 
 10099              		.weak	_ZTSN8UnitTest15MemoryOutStreamE
 10100              		.section	.rodata._ZTSN8UnitTest15MemoryOutStreamE,"aG",@progbits,_ZTSN8UnitTest15MemoryOutStreamE,
 10101              		.align 16
 10104              	_ZTSN8UnitTest15MemoryOutStreamE:
 10105 0000 4E38556E 		.string	"N8UnitTest15MemoryOutStreamE"
 10105      69745465 
 10105      73743135 
 10105      4D656D6F 
 10105      72794F75 
 10106              		.text
 10108              	_Z41__static_initialization_and_destruction_0ii:
 10109              	.LFB1374:
 10110              		.loc 4 306 0
 10111              		.cfi_startproc
 10112 3181 55       		pushq	%rbp
 10113              		.cfi_def_cfa_offset 16
 10114              		.cfi_offset 6, -16
 10115 3182 4889E5   		movq	%rsp, %rbp
 10116              		.cfi_def_cfa_register 6
 10117 3185 4883EC10 		subq	$16, %rsp
 10118 3189 897DFC   		movl	%edi, -4(%rbp)
 10119 318c 8975F8   		movl	%esi, -8(%rbp)
 10120              		.loc 4 306 0
 10121 318f 837DFC01 		cmpl	$1, -4(%rbp)
 10122 3193 0F85BE02 		jne	.L562
 10122      0000
 10123              		.loc 4 306 0 is_stmt 0 discriminator 1
 10124 3199 817DF8FF 		cmpl	$65535, -8(%rbp)
 10124      FF0000
 10125 31a0 0F85B102 		jne	.L562
 10125      0000
  27:testHexIO.cpp **** 	Buffer data, mask;
 10126              		.loc 4 27 0 is_stmt 1
 10127 31a6 BF000000 		movl	$testHexIO_testValidDataLineInstance, %edi
 10127      00
 10128 31ab E8000000 		call	_ZN27TestHexIO_testValidDataLineC1Ev
 10128      00
 10129 31b0 BA000000 		movl	$__dso_handle, %edx
 10129      00
 10130 31b5 BE000000 		movl	$testHexIO_testValidDataLineInstance, %esi
 10130      00
 10131 31ba BF000000 		movl	$_ZN27TestHexIO_testValidDataLineD1Ev, %edi
 10131      00
 10132 31bf E8000000 		call	__cxa_atexit
 10132      00
 10133 31c4 E8000000 		call	_ZN8UnitTest4Test11GetTestListEv
 10133      00
 10134 31c9 BA000000 		movl	$testHexIO_testValidDataLineInstance, %edx
 10134      00
 10135 31ce 4889C6   		movq	%rax, %rsi
 10136 31d1 BF000000 		movl	$adderHexIO_testValidDataLine, %edi
 10136      00
 10137 31d6 E8000000 		call	_ZN8UnitTest9ListAdderC1ERNS_8TestListEPNS_4TestE
 10137      00
  50:testHexIO.cpp **** 	Buffer data, mask;
 10138              		.loc 4 50 0
 10139 31db BF000000 		movl	$testHexIO_testValidEOFInstance, %edi
 10139      00
 10140 31e0 E8000000 		call	_ZN22TestHexIO_testValidEOFC1Ev
 10140      00
 10141 31e5 BA000000 		movl	$__dso_handle, %edx
 10141      00
 10142 31ea BE000000 		movl	$testHexIO_testValidEOFInstance, %esi
 10142      00
 10143 31ef BF000000 		movl	$_ZN22TestHexIO_testValidEOFD1Ev, %edi
 10143      00
 10144 31f4 E8000000 		call	__cxa_atexit
 10144      00
 10145 31f9 E8000000 		call	_ZN8UnitTest4Test11GetTestListEv
 10145      00
 10146 31fe BA000000 		movl	$testHexIO_testValidEOFInstance, %edx
 10146      00
 10147 3203 4889C6   		movq	%rax, %rsi
 10148 3206 BF000000 		movl	$adderHexIO_testValidEOF, %edi
 10148      00
 10149 320b E8000000 		call	_ZN8UnitTest9ListAdderC1ERNS_8TestListEPNS_4TestE
 10149      00
  69:testHexIO.cpp **** 	Buffer data;
 10150              		.loc 4 69 0
 10151 3210 BF000000 		movl	$testHexIO_testJunkStartCodeInstance, %edi
 10151      00
 10152 3215 E8000000 		call	_ZN27TestHexIO_testJunkStartCodeC1Ev
 10152      00
 10153 321a BA000000 		movl	$__dso_handle, %edx
 10153      00
 10154 321f BE000000 		movl	$testHexIO_testJunkStartCodeInstance, %esi
 10154      00
 10155 3224 BF000000 		movl	$_ZN27TestHexIO_testJunkStartCodeD1Ev, %edi
 10155      00
 10156 3229 E8000000 		call	__cxa_atexit
 10156      00
 10157 322e E8000000 		call	_ZN8UnitTest4Test11GetTestListEv
 10157      00
 10158 3233 BA000000 		movl	$testHexIO_testJunkStartCodeInstance, %edx
 10158      00
 10159 3238 4889C6   		movq	%rax, %rsi
 10160 323b BF000000 		movl	$adderHexIO_testJunkStartCode, %edi
 10160      00
 10161 3240 E8000000 		call	_ZN8UnitTest9ListAdderC1ERNS_8TestListEPNS_4TestE
 10161      00
  82:testHexIO.cpp **** 	Buffer data;
 10162              		.loc 4 82 0
 10163 3245 BF000000 		movl	$testHexIO_testJunkByteCountInstance, %edi
 10163      00
 10164 324a E8000000 		call	_ZN27TestHexIO_testJunkByteCountC1Ev
 10164      00
 10165 324f BA000000 		movl	$__dso_handle, %edx
 10165      00
 10166 3254 BE000000 		movl	$testHexIO_testJunkByteCountInstance, %esi
 10166      00
 10167 3259 BF000000 		movl	$_ZN27TestHexIO_testJunkByteCountD1Ev, %edi
 10167      00
 10168 325e E8000000 		call	__cxa_atexit
 10168      00
 10169 3263 E8000000 		call	_ZN8UnitTest4Test11GetTestListEv
 10169      00
 10170 3268 BA000000 		movl	$testHexIO_testJunkByteCountInstance, %edx
 10170      00
 10171 326d 4889C6   		movq	%rax, %rsi
 10172 3270 BF000000 		movl	$adderHexIO_testJunkByteCount, %edi
 10172      00
 10173 3275 E8000000 		call	_ZN8UnitTest9ListAdderC1ERNS_8TestListEPNS_4TestE
 10173      00
  95:testHexIO.cpp **** 	Buffer data;
 10174              		.loc 4 95 0
 10175 327a BF000000 		movl	$testHexIO_testJunkAddrMsbInstance, %edi
 10175      00
 10176 327f E8000000 		call	_ZN25TestHexIO_testJunkAddrMsbC1Ev
 10176      00
 10177 3284 BA000000 		movl	$__dso_handle, %edx
 10177      00
 10178 3289 BE000000 		movl	$testHexIO_testJunkAddrMsbInstance, %esi
 10178      00
 10179 328e BF000000 		movl	$_ZN25TestHexIO_testJunkAddrMsbD1Ev, %edi
 10179      00
 10180 3293 E8000000 		call	__cxa_atexit
 10180      00
 10181 3298 E8000000 		call	_ZN8UnitTest4Test11GetTestListEv
 10181      00
 10182 329d BA000000 		movl	$testHexIO_testJunkAddrMsbInstance, %edx
 10182      00
 10183 32a2 4889C6   		movq	%rax, %rsi
 10184 32a5 BF000000 		movl	$adderHexIO_testJunkAddrMsb, %edi
 10184      00
 10185 32aa E8000000 		call	_ZN8UnitTest9ListAdderC1ERNS_8TestListEPNS_4TestE
 10185      00
 108:testHexIO.cpp **** 	Buffer data;
 10186              		.loc 4 108 0
 10187 32af BF000000 		movl	$testHexIO_testJunkAddrLsbInstance, %edi
 10187      00
 10188 32b4 E8000000 		call	_ZN25TestHexIO_testJunkAddrLsbC1Ev
 10188      00
 10189 32b9 BA000000 		movl	$__dso_handle, %edx
 10189      00
 10190 32be BE000000 		movl	$testHexIO_testJunkAddrLsbInstance, %esi
 10190      00
 10191 32c3 BF000000 		movl	$_ZN25TestHexIO_testJunkAddrLsbD1Ev, %edi
 10191      00
 10192 32c8 E8000000 		call	__cxa_atexit
 10192      00
 10193 32cd E8000000 		call	_ZN8UnitTest4Test11GetTestListEv
 10193      00
 10194 32d2 BA000000 		movl	$testHexIO_testJunkAddrLsbInstance, %edx
 10194      00
 10195 32d7 4889C6   		movq	%rax, %rsi
 10196 32da BF000000 		movl	$adderHexIO_testJunkAddrLsb, %edi
 10196      00
 10197 32df E8000000 		call	_ZN8UnitTest9ListAdderC1ERNS_8TestListEPNS_4TestE
 10197      00
 121:testHexIO.cpp **** 	Buffer data;
 10198              		.loc 4 121 0
 10199 32e4 BF000000 		movl	$testHexIO_testJunkRecTypeInstance, %edi
 10199      00
 10200 32e9 E8000000 		call	_ZN25TestHexIO_testJunkRecTypeC1Ev
 10200      00
 10201 32ee BA000000 		movl	$__dso_handle, %edx
 10201      00
 10202 32f3 BE000000 		movl	$testHexIO_testJunkRecTypeInstance, %esi
 10202      00
 10203 32f8 BF000000 		movl	$_ZN25TestHexIO_testJunkRecTypeD1Ev, %edi
 10203      00
 10204 32fd E8000000 		call	__cxa_atexit
 10204      00
 10205 3302 E8000000 		call	_ZN8UnitTest4Test11GetTestListEv
 10205      00
 10206 3307 BA000000 		movl	$testHexIO_testJunkRecTypeInstance, %edx
 10206      00
 10207 330c 4889C6   		movq	%rax, %rsi
 10208 330f BF000000 		movl	$adderHexIO_testJunkRecType, %edi
 10208      00
 10209 3314 E8000000 		call	_ZN8UnitTest9ListAdderC1ERNS_8TestListEPNS_4TestE
 10209      00
 134:testHexIO.cpp **** 	Buffer data;
 10210              		.loc 4 134 0
 10211 3319 BF000000 		movl	$testHexIO_testJunkDataByteInstance, %edi
 10211      00
 10212 331e E8000000 		call	_ZN26TestHexIO_testJunkDataByteC1Ev
 10212      00
 10213 3323 BA000000 		movl	$__dso_handle, %edx
 10213      00
 10214 3328 BE000000 		movl	$testHexIO_testJunkDataByteInstance, %esi
 10214      00
 10215 332d BF000000 		movl	$_ZN26TestHexIO_testJunkDataByteD1Ev, %edi
 10215      00
 10216 3332 E8000000 		call	__cxa_atexit
 10216      00
 10217 3337 E8000000 		call	_ZN8UnitTest4Test11GetTestListEv
 10217      00
 10218 333c BA000000 		movl	$testHexIO_testJunkDataByteInstance, %edx
 10218      00
 10219 3341 4889C6   		movq	%rax, %rsi
 10220 3344 BF000000 		movl	$adderHexIO_testJunkDataByte, %edi
 10220      00
 10221 3349 E8000000 		call	_ZN8UnitTest9ListAdderC1ERNS_8TestListEPNS_4TestE
 10221      00
 147:testHexIO.cpp **** 	Buffer data;
 10222              		.loc 4 147 0
 10223 334e BF000000 		movl	$testHexIO_testJunkChecksumInstance, %edi
 10223      00
 10224 3353 E8000000 		call	_ZN26TestHexIO_testJunkChecksumC1Ev
 10224      00
 10225 3358 BA000000 		movl	$__dso_handle, %edx
 10225      00
 10226 335d BE000000 		movl	$testHexIO_testJunkChecksumInstance, %esi
 10226      00
 10227 3362 BF000000 		movl	$_ZN26TestHexIO_testJunkChecksumD1Ev, %edi
 10227      00
 10228 3367 E8000000 		call	__cxa_atexit
 10228      00
 10229 336c E8000000 		call	_ZN8UnitTest4Test11GetTestListEv
 10229      00
 10230 3371 BA000000 		movl	$testHexIO_testJunkChecksumInstance, %edx
 10230      00
 10231 3376 4889C6   		movq	%rax, %rsi
 10232 3379 BF000000 		movl	$adderHexIO_testJunkChecksum, %edi
 10232      00
 10233 337e E8000000 		call	_ZN8UnitTest9ListAdderC1ERNS_8TestListEPNS_4TestE
 10233      00
 160:testHexIO.cpp **** 	Buffer data;
 10234              		.loc 4 160 0
 10235 3383 BF000000 		movl	$testHexIO_testBadChecksumInstance, %edi
 10235      00
 10236 3388 E8000000 		call	_ZN25TestHexIO_testBadChecksumC1Ev
 10236      00
 10237 338d BA000000 		movl	$__dso_handle, %edx
 10237      00
 10238 3392 BE000000 		movl	$testHexIO_testBadChecksumInstance, %esi
 10238      00
 10239 3397 BF000000 		movl	$_ZN25TestHexIO_testBadChecksumD1Ev, %edi
 10239      00
 10240 339c E8000000 		call	__cxa_atexit
 10240      00
 10241 33a1 E8000000 		call	_ZN8UnitTest4Test11GetTestListEv
 10241      00
 10242 33a6 BA000000 		movl	$testHexIO_testBadChecksumInstance, %edx
 10242      00
 10243 33ab 4889C6   		movq	%rax, %rsi
 10244 33ae BF000000 		movl	$adderHexIO_testBadChecksum, %edi
 10244      00
 10245 33b3 E8000000 		call	_ZN8UnitTest9ListAdderC1ERNS_8TestListEPNS_4TestE
 10245      00
 173:testHexIO.cpp **** 	Buffer data;
 10246              		.loc 4 173 0
 10247 33b8 BF000000 		movl	$testHexIO_testCorruptLineInstance, %edi
 10247      00
 10248 33bd E8000000 		call	_ZN25TestHexIO_testCorruptLineC1Ev
 10248      00
 10249 33c2 BA000000 		movl	$__dso_handle, %edx
 10249      00
 10250 33c7 BE000000 		movl	$testHexIO_testCorruptLineInstance, %esi
 10250      00
 10251 33cc BF000000 		movl	$_ZN25TestHexIO_testCorruptLineD1Ev, %edi
 10251      00
 10252 33d1 E8000000 		call	__cxa_atexit
 10252      00
 10253 33d6 E8000000 		call	_ZN8UnitTest4Test11GetTestListEv
 10253      00
 10254 33db BA000000 		movl	$testHexIO_testCorruptLineInstance, %edx
 10254      00
 10255 33e0 4889C6   		movq	%rax, %rsi
 10256 33e3 BF000000 		movl	$adderHexIO_testCorruptLine, %edi
 10256      00
 10257 33e8 E8000000 		call	_ZN8UnitTest9ListAdderC1ERNS_8TestListEPNS_4TestE
 10257      00
 242:testHexIO.cpp **** 	testRoundTrip(
 10258              		.loc 4 242 0
 10259 33ed BF000000 		movl	$testHexIO_testRoundTripInstance, %edi
 10259      00
 10260 33f2 E8000000 		call	_ZN23TestHexIO_testRoundTripC1Ev
 10260      00
 10261 33f7 BA000000 		movl	$__dso_handle, %edx
 10261      00
 10262 33fc BE000000 		movl	$testHexIO_testRoundTripInstance, %esi
 10262      00
 10263 3401 BF000000 		movl	$_ZN23TestHexIO_testRoundTripD1Ev, %edi
 10263      00
 10264 3406 E8000000 		call	__cxa_atexit
 10264      00
 10265 340b E8000000 		call	_ZN8UnitTest4Test11GetTestListEv
 10265      00
 10266 3410 BA000000 		movl	$testHexIO_testRoundTripInstance, %edx
 10266      00
 10267 3415 4889C6   		movq	%rax, %rsi
 10268 3418 BF000000 		movl	$adderHexIO_testRoundTrip, %edi
 10268      00
 10269 341d E8000000 		call	_ZN8UnitTest9ListAdderC1ERNS_8TestListEPNS_4TestE
 10269      00
 303:testHexIO.cpp **** 	testDeriveWriteMap("Hello........World", "*****........*****");
 10270              		.loc 4 303 0
 10271 3422 BF000000 		movl	$testHexIO_testDeriveWriteMapInstance, %edi
 10271      00
 10272 3427 E8000000 		call	_ZN28TestHexIO_testDeriveWriteMapC1Ev
 10272      00
 10273 342c BA000000 		movl	$__dso_handle, %edx
 10273      00
 10274 3431 BE000000 		movl	$testHexIO_testDeriveWriteMapInstance, %esi
 10274      00
 10275 3436 BF000000 		movl	$_ZN28TestHexIO_testDeriveWriteMapD1Ev, %edi
 10275      00
 10276 343b E8000000 		call	__cxa_atexit
 10276      00
 10277 3440 E8000000 		call	_ZN8UnitTest4Test11GetTestListEv
 10277      00
 10278 3445 BA000000 		movl	$testHexIO_testDeriveWriteMapInstance, %edx
 10278      00
 10279 344a 4889C6   		movq	%rax, %rsi
 10280 344d BF000000 		movl	$adderHexIO_testDeriveWriteMap, %edi
 10280      00
 10281 3452 E8000000 		call	_ZN8UnitTest9ListAdderC1ERNS_8TestListEPNS_4TestE
 10281      00
 10282              	.L562:
 10283              		.loc 4 306 0
 10284 3457 90       		nop
 10285 3458 C9       		leave
 10286              		.cfi_def_cfa 7, 8
 10287 3459 C3       		ret
 10288              		.cfi_endproc
 10289              	.LFE1374:
 10292              	_GLOBAL__sub_I_testHexIO_testValidDataLineInstance:
 10293              	.LFB1375:
 10294              		.loc 4 306 0
 10295              		.cfi_startproc
 10296 345a 55       		pushq	%rbp
 10297              		.cfi_def_cfa_offset 16
 10298              		.cfi_offset 6, -16
 10299 345b 4889E5   		movq	%rsp, %rbp
 10300              		.cfi_def_cfa_register 6
 10301              		.loc 4 306 0
 10302 345e BEFFFF00 		movl	$65535, %esi
 10302      00
 10303 3463 BF010000 		movl	$1, %edi
 10303      00
 10304 3468 E814FDFF 		call	_Z41__static_initialization_and_destruction_0ii
 10304      FF
 10305 346d 5D       		popq	%rbp
 10306              		.cfi_def_cfa 7, 8
 10307 346e C3       		ret
 10308              		.cfi_endproc
 10309              	.LFE1375:
 10311              		.section	.init_array,"aw"
 10312              		.align 8
 10313 0000 00000000 		.quad	_GLOBAL__sub_I_testHexIO_testValidDataLineInstance
 10313      00000000 
 10314              		.text
 10315              	.Letext0:
 10316              		.file 7 "/usr/include/c++/5/bits/basic_string.h"
 10317              		.file 8 "/usr/include/c++/5/bits/basic_string.tcc"
 10318              		.file 9 "/usr/include/c++/5/bits/stringfwd.h"
 10319              		.file 10 "/usr/include/c++/5/cstdarg"
 10320              		.file 11 "/usr/include/c++/5/cwchar"
 10321              		.file 12 "/usr/include/c++/5/bits/char_traits.h"
 10322              		.file 13 "/usr/include/x86_64-linux-gnu/c++/5/bits/c++config.h"
 10323              		.file 14 "/usr/include/c++/5/bits/allocator.h"
 10324              		.file 15 "/usr/include/c++/5/clocale"
 10325              		.file 16 "/usr/include/c++/5/cwctype"
 10326              		.file 17 "/usr/include/c++/5/cstdio"
 10327              		.file 18 "/usr/include/c++/5/cstring"
 10328              		.file 19 "/usr/include/c++/5/iosfwd"
 10329              		.file 20 "/usr/include/c++/5/debug/debug.h"
 10330              		.file 21 "/usr/include/c++/5/bits/predefined_ops.h"
 10331              		.file 22 "/usr/include/c++/5/ext/new_allocator.h"
 10332              		.file 23 "/usr/include/c++/5/ext/numeric_traits.h"
 10333              		.file 24 "/usr/include/c++/5/ext/alloc_traits.h"
 10334              		.file 25 "<built-in>"
 10335              		.file 26 "/usr/lib/gcc/x86_64-linux-gnu/5/include/stdarg.h"
 10336              		.file 27 "/usr/include/stdio.h"
 10337              		.file 28 "/usr/include/libio.h"
 10338              		.file 29 "/usr/lib/gcc/x86_64-linux-gnu/5/include/stddef.h"
 10339              		.file 30 "/usr/include/wchar.h"
 10340              		.file 31 "/usr/include/time.h"
 10341              		.file 32 "/usr/include/locale.h"
 10342              		.file 33 "/usr/include/x86_64-linux-gnu/bits/types.h"
 10343              		.file 34 "/usr/include/wctype.h"
 10344              		.file 35 "/usr/include/_G_config.h"
 10345              		.file 36 "/usr/include/string.h"
 10346              		.file 37 "/home/shubham/20140524/makestuff/libs/libutpp/TestDetails.h"
 10347              		.file 38 "/home/shubham/20140524/makestuff/libs/libutpp/TestList.h"
 10348              		.file 39 "/home/shubham/20140524/makestuff/libs/libutpp/TestResults.h"
 10349              		.file 40 "/usr/include/x86_64-linux-gnu/sys/time.h"
 10350              		.file 41 "/home/shubham/20140524/makestuff/common/makestuff.h"
 10351              		.file 42 "../libbuffer.h"
DEFINED SYMBOLS
                            *ABS*:0000000000000000 testHexIO.cpp
     /tmp/ccpo7I6D.s:7      .text._ZStorSt13_Ios_OpenmodeS_:0000000000000000 _ZStorSt13_Ios_OpenmodeS_
     /tmp/ccpo7I6D.s:34     .text._ZN13UnitTestSuite12GetSuiteNameEv:0000000000000000 _ZN13UnitTestSuite12GetSuiteNameEv
     /tmp/ccpo7I6D.s:57     .text._ZN8UnitTest15MemoryOutStreamC1Ev:0000000000000000 _ZN8UnitTest15MemoryOutStreamC1Ev
     /tmp/ccpo7I6D.s:9841   .rodata._ZTTN8UnitTest15MemoryOutStreamE:0000000000000000 _ZTTN8UnitTest15MemoryOutStreamE
     /tmp/ccpo7I6D.s:9825   .rodata._ZTVN8UnitTest15MemoryOutStreamE:0000000000000000 _ZTVN8UnitTest15MemoryOutStreamE
     /tmp/ccpo7I6D.s:175    .text._ZN27TestHexIO_testValidDataLineC2Ev:0000000000000000 _ZN27TestHexIO_testValidDataLineC2Ev
     /tmp/ccpo7I6D.s:9745   .rodata._ZTV27TestHexIO_testValidDataLine:0000000000000000 _ZTV27TestHexIO_testValidDataLine
     /tmp/ccpo7I6D.s:175    .text._ZN27TestHexIO_testValidDataLineC2Ev:0000000000000000 _ZN27TestHexIO_testValidDataLineC1Ev
     /tmp/ccpo7I6D.s:215    .bss:0000000000000000 testHexIO_testValidDataLineInstance
     /tmp/ccpo7I6D.s:220    .bss:0000000000000038 adderHexIO_testValidDataLine
     /tmp/ccpo7I6D.s:250    .text:0000000000000000 _ZNK27TestHexIO_testValidDataLine7RunImplEv
     /tmp/ccpo7I6D.s:7263   .text._ZN8UnitTest10CheckEqualI12BufferStatusS1_EEvRNS_11TestResultsERKT_RKT0_RKNS_11TestDetailsE:0000000000000000 _ZN8UnitTest10CheckEqualI12BufferStatusS1_EEvRNS_11TestResultsERKT_RKT0_RKNS_11TestDetailsE
     /tmp/ccpo7I6D.s:7407   .text._ZN8UnitTest10CheckEqualIihEEvRNS_11TestResultsERKT_RKT0_RKNS_11TestDetailsE:0000000000000000 _ZN8UnitTest10CheckEqualIihEEvRNS_11TestResultsERKT_RKT0_RKNS_11TestDetailsE
     /tmp/ccpo7I6D.s:7550   .text._ZN8UnitTest10CheckEqualImmEEvRNS_11TestResultsERKT_RKT0_RKNS_11TestDetailsE:0000000000000000 _ZN8UnitTest10CheckEqualImmEEvRNS_11TestResultsERKT_RKT0_RKNS_11TestDetailsE
     /tmp/ccpo7I6D.s:7700   .text._ZN8UnitTest15CheckArrayEqualIA4_hPhEEvRNS_11TestResultsERKT_RKT0_iRKNS_11TestDetailsE:0000000000000000 _ZN8UnitTest15CheckArrayEqualIA4_hPhEEvRNS_11TestResultsERKT_RKT0_iRKNS_11TestDetailsE
     /tmp/ccpo7I6D.s:1121   .text._ZN22TestHexIO_testValidEOFC2Ev:0000000000000000 _ZN22TestHexIO_testValidEOFC2Ev
     /tmp/ccpo7I6D.s:9665   .rodata._ZTV22TestHexIO_testValidEOF:0000000000000000 _ZTV22TestHexIO_testValidEOF
     /tmp/ccpo7I6D.s:1121   .text._ZN22TestHexIO_testValidEOFC2Ev:0000000000000000 _ZN22TestHexIO_testValidEOFC1Ev
     /tmp/ccpo7I6D.s:1160   .bss:0000000000000040 testHexIO_testValidEOFInstance
     /tmp/ccpo7I6D.s:1165   .bss:0000000000000078 adderHexIO_testValidEOF
     /tmp/ccpo7I6D.s:1183   .text:000000000000070a _ZNK22TestHexIO_testValidEOF7RunImplEv
     /tmp/ccpo7I6D.s:1799   .text._ZN27TestHexIO_testJunkStartCodeC2Ev:0000000000000000 _ZN27TestHexIO_testJunkStartCodeC2Ev
     /tmp/ccpo7I6D.s:9585   .rodata._ZTV27TestHexIO_testJunkStartCode:0000000000000000 _ZTV27TestHexIO_testJunkStartCode
     /tmp/ccpo7I6D.s:1799   .text._ZN27TestHexIO_testJunkStartCodeC2Ev:0000000000000000 _ZN27TestHexIO_testJunkStartCodeC1Ev
     /tmp/ccpo7I6D.s:1838   .bss:0000000000000080 testHexIO_testJunkStartCodeInstance
     /tmp/ccpo7I6D.s:1843   .bss:00000000000000b8 adderHexIO_testJunkStartCode
     /tmp/ccpo7I6D.s:1855   .text:0000000000000bf4 _ZNK27TestHexIO_testJunkStartCode7RunImplEv
     /tmp/ccpo7I6D.s:2127   .text._ZN27TestHexIO_testJunkByteCountC2Ev:0000000000000000 _ZN27TestHexIO_testJunkByteCountC2Ev
     /tmp/ccpo7I6D.s:9505   .rodata._ZTV27TestHexIO_testJunkByteCount:0000000000000000 _ZTV27TestHexIO_testJunkByteCount
     /tmp/ccpo7I6D.s:2127   .text._ZN27TestHexIO_testJunkByteCountC2Ev:0000000000000000 _ZN27TestHexIO_testJunkByteCountC1Ev
     /tmp/ccpo7I6D.s:2166   .bss:00000000000000c0 testHexIO_testJunkByteCountInstance
     /tmp/ccpo7I6D.s:2171   .bss:00000000000000f8 adderHexIO_testJunkByteCount
     /tmp/ccpo7I6D.s:2183   .text:0000000000000de4 _ZNK27TestHexIO_testJunkByteCount7RunImplEv
     /tmp/ccpo7I6D.s:2455   .text._ZN25TestHexIO_testJunkAddrMsbC2Ev:0000000000000000 _ZN25TestHexIO_testJunkAddrMsbC2Ev
     /tmp/ccpo7I6D.s:9425   .rodata._ZTV25TestHexIO_testJunkAddrMsb:0000000000000000 _ZTV25TestHexIO_testJunkAddrMsb
     /tmp/ccpo7I6D.s:2455   .text._ZN25TestHexIO_testJunkAddrMsbC2Ev:0000000000000000 _ZN25TestHexIO_testJunkAddrMsbC1Ev
     /tmp/ccpo7I6D.s:2494   .bss:0000000000000100 testHexIO_testJunkAddrMsbInstance
     /tmp/ccpo7I6D.s:2499   .bss:0000000000000138 adderHexIO_testJunkAddrMsb
     /tmp/ccpo7I6D.s:2511   .text:0000000000000fd4 _ZNK25TestHexIO_testJunkAddrMsb7RunImplEv
     /tmp/ccpo7I6D.s:2783   .text._ZN25TestHexIO_testJunkAddrLsbC2Ev:0000000000000000 _ZN25TestHexIO_testJunkAddrLsbC2Ev
     /tmp/ccpo7I6D.s:9345   .rodata._ZTV25TestHexIO_testJunkAddrLsb:0000000000000000 _ZTV25TestHexIO_testJunkAddrLsb
     /tmp/ccpo7I6D.s:2783   .text._ZN25TestHexIO_testJunkAddrLsbC2Ev:0000000000000000 _ZN25TestHexIO_testJunkAddrLsbC1Ev
     /tmp/ccpo7I6D.s:2822   .bss:0000000000000140 testHexIO_testJunkAddrLsbInstance
     /tmp/ccpo7I6D.s:2827   .bss:0000000000000178 adderHexIO_testJunkAddrLsb
     /tmp/ccpo7I6D.s:2839   .text:00000000000011c4 _ZNK25TestHexIO_testJunkAddrLsb7RunImplEv
     /tmp/ccpo7I6D.s:3111   .text._ZN25TestHexIO_testJunkRecTypeC2Ev:0000000000000000 _ZN25TestHexIO_testJunkRecTypeC2Ev
     /tmp/ccpo7I6D.s:9265   .rodata._ZTV25TestHexIO_testJunkRecType:0000000000000000 _ZTV25TestHexIO_testJunkRecType
     /tmp/ccpo7I6D.s:3111   .text._ZN25TestHexIO_testJunkRecTypeC2Ev:0000000000000000 _ZN25TestHexIO_testJunkRecTypeC1Ev
     /tmp/ccpo7I6D.s:3150   .bss:0000000000000180 testHexIO_testJunkRecTypeInstance
     /tmp/ccpo7I6D.s:3155   .bss:00000000000001b8 adderHexIO_testJunkRecType
     /tmp/ccpo7I6D.s:3167   .text:00000000000013b4 _ZNK25TestHexIO_testJunkRecType7RunImplEv
     /tmp/ccpo7I6D.s:3439   .text._ZN26TestHexIO_testJunkDataByteC2Ev:0000000000000000 _ZN26TestHexIO_testJunkDataByteC2Ev
     /tmp/ccpo7I6D.s:9185   .rodata._ZTV26TestHexIO_testJunkDataByte:0000000000000000 _ZTV26TestHexIO_testJunkDataByte
     /tmp/ccpo7I6D.s:3439   .text._ZN26TestHexIO_testJunkDataByteC2Ev:0000000000000000 _ZN26TestHexIO_testJunkDataByteC1Ev
     /tmp/ccpo7I6D.s:3478   .bss:00000000000001c0 testHexIO_testJunkDataByteInstance
     /tmp/ccpo7I6D.s:3483   .bss:00000000000001f8 adderHexIO_testJunkDataByte
     /tmp/ccpo7I6D.s:3495   .text:00000000000015a4 _ZNK26TestHexIO_testJunkDataByte7RunImplEv
     /tmp/ccpo7I6D.s:3767   .text._ZN26TestHexIO_testJunkChecksumC2Ev:0000000000000000 _ZN26TestHexIO_testJunkChecksumC2Ev
     /tmp/ccpo7I6D.s:9105   .rodata._ZTV26TestHexIO_testJunkChecksum:0000000000000000 _ZTV26TestHexIO_testJunkChecksum
     /tmp/ccpo7I6D.s:3767   .text._ZN26TestHexIO_testJunkChecksumC2Ev:0000000000000000 _ZN26TestHexIO_testJunkChecksumC1Ev
     /tmp/ccpo7I6D.s:3806   .bss:0000000000000200 testHexIO_testJunkChecksumInstance
     /tmp/ccpo7I6D.s:3811   .bss:0000000000000238 adderHexIO_testJunkChecksum
     /tmp/ccpo7I6D.s:3823   .text:0000000000001794 _ZNK26TestHexIO_testJunkChecksum7RunImplEv
     /tmp/ccpo7I6D.s:4095   .text._ZN25TestHexIO_testBadChecksumC2Ev:0000000000000000 _ZN25TestHexIO_testBadChecksumC2Ev
     /tmp/ccpo7I6D.s:9025   .rodata._ZTV25TestHexIO_testBadChecksum:0000000000000000 _ZTV25TestHexIO_testBadChecksum
     /tmp/ccpo7I6D.s:4095   .text._ZN25TestHexIO_testBadChecksumC2Ev:0000000000000000 _ZN25TestHexIO_testBadChecksumC1Ev
     /tmp/ccpo7I6D.s:4134   .bss:0000000000000240 testHexIO_testBadChecksumInstance
     /tmp/ccpo7I6D.s:4139   .bss:0000000000000278 adderHexIO_testBadChecksum
     /tmp/ccpo7I6D.s:4151   .text:0000000000001984 _ZNK25TestHexIO_testBadChecksum7RunImplEv
     /tmp/ccpo7I6D.s:4423   .text._ZN25TestHexIO_testCorruptLineC2Ev:0000000000000000 _ZN25TestHexIO_testCorruptLineC2Ev
     /tmp/ccpo7I6D.s:8945   .rodata._ZTV25TestHexIO_testCorruptLine:0000000000000000 _ZTV25TestHexIO_testCorruptLine
     /tmp/ccpo7I6D.s:4423   .text._ZN25TestHexIO_testCorruptLineC2Ev:0000000000000000 _ZN25TestHexIO_testCorruptLineC1Ev
     /tmp/ccpo7I6D.s:4462   .bss:0000000000000280 testHexIO_testCorruptLineInstance
     /tmp/ccpo7I6D.s:4467   .bss:00000000000002b8 adderHexIO_testCorruptLine
     /tmp/ccpo7I6D.s:4479   .text:0000000000001b74 _ZNK25TestHexIO_testCorruptLine7RunImplEv
     /tmp/ccpo7I6D.s:4773   .text:0000000000001d64 _Z13testRoundTripPKcz
     /tmp/ccpo7I6D.s:7920   .text._ZN8UnitTest5CheckIbEEbT_:0000000000000000 _ZN8UnitTest5CheckIbEEbT_
     /tmp/ccpo7I6D.s:7944   .text._ZNKSt4fposI11__mbstate_tEcvlEv:0000000000000000 _ZNKSt4fposI11__mbstate_tEcvlEv
     /tmp/ccpo7I6D.s:7967   .text._ZN8UnitTest10CheckEqualImjEEvRNS_11TestResultsERKT_RKT0_RKNS_11TestDetailsE:0000000000000000 _ZN8UnitTest10CheckEqualImjEEvRNS_11TestResultsERKT_RKT0_RKNS_11TestDetailsE
     /tmp/ccpo7I6D.s:8109   .text._ZN8UnitTest15CheckArrayEqualIPKcS2_EEvRNS_11TestResultsERKT_RKT0_iRKNS_11TestDetailsE:0000000000000000 _ZN8UnitTest15CheckArrayEqualIPKcS2_EEvRNS_11TestResultsERKT_RKT0_iRKNS_11TestDetailsE
     /tmp/ccpo7I6D.s:8333   .text._ZN8UnitTest15CheckArrayEqualIPhS1_EEvRNS_11TestResultsERKT_RKT0_iRKNS_11TestDetailsE:0000000000000000 _ZN8UnitTest15CheckArrayEqualIPhS1_EEvRNS_11TestResultsERKT_RKT0_iRKNS_11TestDetailsE
     /tmp/ccpo7I6D.s:6173   .text._ZN23TestHexIO_testRoundTripC2Ev:0000000000000000 _ZN23TestHexIO_testRoundTripC2Ev
     /tmp/ccpo7I6D.s:8865   .rodata._ZTV23TestHexIO_testRoundTrip:0000000000000000 _ZTV23TestHexIO_testRoundTrip
     /tmp/ccpo7I6D.s:6173   .text._ZN23TestHexIO_testRoundTripC2Ev:0000000000000000 _ZN23TestHexIO_testRoundTripC1Ev
     /tmp/ccpo7I6D.s:6212   .bss:00000000000002c0 testHexIO_testRoundTripInstance
     /tmp/ccpo7I6D.s:6217   .bss:00000000000002f8 adderHexIO_testRoundTrip
     /tmp/ccpo7I6D.s:6271   .text:0000000000002b44 _ZNK23TestHexIO_testRoundTrip7RunImplEv
     /tmp/ccpo7I6D.s:6346   .text:0000000000002c1e _Z18testDeriveWriteMapPKcS0_
     /tmp/ccpo7I6D.s:8557   .text._ZN8UnitTest15CheckArrayEqualIPKcPhEEvRNS_11TestResultsERKT_RKT0_iRKNS_11TestDetailsE:0000000000000000 _ZN8UnitTest15CheckArrayEqualIPKcPhEEvRNS_11TestResultsERKT_RKT0_iRKNS_11TestDetailsE
     /tmp/ccpo7I6D.s:6986   .text._ZN28TestHexIO_testDeriveWriteMapC2Ev:0000000000000000 _ZN28TestHexIO_testDeriveWriteMapC2Ev
     /tmp/ccpo7I6D.s:8785   .rodata._ZTV28TestHexIO_testDeriveWriteMap:0000000000000000 _ZTV28TestHexIO_testDeriveWriteMap
     /tmp/ccpo7I6D.s:6986   .text._ZN28TestHexIO_testDeriveWriteMapC2Ev:0000000000000000 _ZN28TestHexIO_testDeriveWriteMapC1Ev
     /tmp/ccpo7I6D.s:7025   .bss:0000000000000300 testHexIO_testDeriveWriteMapInstance
     /tmp/ccpo7I6D.s:7030   .bss:0000000000000338 adderHexIO_testDeriveWriteMap
     /tmp/ccpo7I6D.s:7045   .text:0000000000003154 _ZNK28TestHexIO_testDeriveWriteMap7RunImplEv
     /tmp/ccpo7I6D.s:7076   .text._ZN8UnitTest15MemoryOutStreamD1Ev:0000000000000000 _ZN8UnitTest15MemoryOutStreamD1Ev
     /tmp/ccpo7I6D.s:7204   .text._ZN8UnitTest15MemoryOutStreamD1Ev:00000000000000cc _ZTv0_n24_N8UnitTest15MemoryOutStreamD1Ev
     /tmp/ccpo7I6D.s:7218   .text._ZN8UnitTest15MemoryOutStreamD0Ev:0000000000000000 _ZN8UnitTest15MemoryOutStreamD0Ev
     /tmp/ccpo7I6D.s:7245   .text._ZN8UnitTest15MemoryOutStreamD0Ev:0000000000000026 _ZTv0_n24_N8UnitTest15MemoryOutStreamD0Ev
     /tmp/ccpo7I6D.s:9887   .rodata._ZTI28TestHexIO_testDeriveWriteMap:0000000000000000 _ZTI28TestHexIO_testDeriveWriteMap
     /tmp/ccpo7I6D.s:8795   .text._ZN28TestHexIO_testDeriveWriteMapD2Ev:0000000000000000 _ZN28TestHexIO_testDeriveWriteMapD1Ev
     /tmp/ccpo7I6D.s:8836   .text._ZN28TestHexIO_testDeriveWriteMapD0Ev:0000000000000000 _ZN28TestHexIO_testDeriveWriteMapD0Ev
     /tmp/ccpo7I6D.s:8795   .text._ZN28TestHexIO_testDeriveWriteMapD2Ev:0000000000000000 _ZN28TestHexIO_testDeriveWriteMapD2Ev
     /tmp/ccpo7I6D.s:9903   .rodata._ZTI23TestHexIO_testRoundTrip:0000000000000000 _ZTI23TestHexIO_testRoundTrip
     /tmp/ccpo7I6D.s:8875   .text._ZN23TestHexIO_testRoundTripD2Ev:0000000000000000 _ZN23TestHexIO_testRoundTripD1Ev
     /tmp/ccpo7I6D.s:8916   .text._ZN23TestHexIO_testRoundTripD0Ev:0000000000000000 _ZN23TestHexIO_testRoundTripD0Ev
     /tmp/ccpo7I6D.s:8875   .text._ZN23TestHexIO_testRoundTripD2Ev:0000000000000000 _ZN23TestHexIO_testRoundTripD2Ev
     /tmp/ccpo7I6D.s:9919   .rodata._ZTI25TestHexIO_testCorruptLine:0000000000000000 _ZTI25TestHexIO_testCorruptLine
     /tmp/ccpo7I6D.s:8955   .text._ZN25TestHexIO_testCorruptLineD2Ev:0000000000000000 _ZN25TestHexIO_testCorruptLineD1Ev
     /tmp/ccpo7I6D.s:8996   .text._ZN25TestHexIO_testCorruptLineD0Ev:0000000000000000 _ZN25TestHexIO_testCorruptLineD0Ev
     /tmp/ccpo7I6D.s:8955   .text._ZN25TestHexIO_testCorruptLineD2Ev:0000000000000000 _ZN25TestHexIO_testCorruptLineD2Ev
     /tmp/ccpo7I6D.s:9935   .rodata._ZTI25TestHexIO_testBadChecksum:0000000000000000 _ZTI25TestHexIO_testBadChecksum
     /tmp/ccpo7I6D.s:9035   .text._ZN25TestHexIO_testBadChecksumD2Ev:0000000000000000 _ZN25TestHexIO_testBadChecksumD1Ev
     /tmp/ccpo7I6D.s:9076   .text._ZN25TestHexIO_testBadChecksumD0Ev:0000000000000000 _ZN25TestHexIO_testBadChecksumD0Ev
     /tmp/ccpo7I6D.s:9035   .text._ZN25TestHexIO_testBadChecksumD2Ev:0000000000000000 _ZN25TestHexIO_testBadChecksumD2Ev
     /tmp/ccpo7I6D.s:9951   .rodata._ZTI26TestHexIO_testJunkChecksum:0000000000000000 _ZTI26TestHexIO_testJunkChecksum
     /tmp/ccpo7I6D.s:9115   .text._ZN26TestHexIO_testJunkChecksumD2Ev:0000000000000000 _ZN26TestHexIO_testJunkChecksumD1Ev
     /tmp/ccpo7I6D.s:9156   .text._ZN26TestHexIO_testJunkChecksumD0Ev:0000000000000000 _ZN26TestHexIO_testJunkChecksumD0Ev
     /tmp/ccpo7I6D.s:9115   .text._ZN26TestHexIO_testJunkChecksumD2Ev:0000000000000000 _ZN26TestHexIO_testJunkChecksumD2Ev
     /tmp/ccpo7I6D.s:9967   .rodata._ZTI26TestHexIO_testJunkDataByte:0000000000000000 _ZTI26TestHexIO_testJunkDataByte
     /tmp/ccpo7I6D.s:9195   .text._ZN26TestHexIO_testJunkDataByteD2Ev:0000000000000000 _ZN26TestHexIO_testJunkDataByteD1Ev
     /tmp/ccpo7I6D.s:9236   .text._ZN26TestHexIO_testJunkDataByteD0Ev:0000000000000000 _ZN26TestHexIO_testJunkDataByteD0Ev
     /tmp/ccpo7I6D.s:9195   .text._ZN26TestHexIO_testJunkDataByteD2Ev:0000000000000000 _ZN26TestHexIO_testJunkDataByteD2Ev
     /tmp/ccpo7I6D.s:9983   .rodata._ZTI25TestHexIO_testJunkRecType:0000000000000000 _ZTI25TestHexIO_testJunkRecType
     /tmp/ccpo7I6D.s:9275   .text._ZN25TestHexIO_testJunkRecTypeD2Ev:0000000000000000 _ZN25TestHexIO_testJunkRecTypeD1Ev
     /tmp/ccpo7I6D.s:9316   .text._ZN25TestHexIO_testJunkRecTypeD0Ev:0000000000000000 _ZN25TestHexIO_testJunkRecTypeD0Ev
     /tmp/ccpo7I6D.s:9275   .text._ZN25TestHexIO_testJunkRecTypeD2Ev:0000000000000000 _ZN25TestHexIO_testJunkRecTypeD2Ev
     /tmp/ccpo7I6D.s:9999   .rodata._ZTI25TestHexIO_testJunkAddrLsb:0000000000000000 _ZTI25TestHexIO_testJunkAddrLsb
     /tmp/ccpo7I6D.s:9355   .text._ZN25TestHexIO_testJunkAddrLsbD2Ev:0000000000000000 _ZN25TestHexIO_testJunkAddrLsbD1Ev
     /tmp/ccpo7I6D.s:9396   .text._ZN25TestHexIO_testJunkAddrLsbD0Ev:0000000000000000 _ZN25TestHexIO_testJunkAddrLsbD0Ev
     /tmp/ccpo7I6D.s:9355   .text._ZN25TestHexIO_testJunkAddrLsbD2Ev:0000000000000000 _ZN25TestHexIO_testJunkAddrLsbD2Ev
     /tmp/ccpo7I6D.s:10015  .rodata._ZTI25TestHexIO_testJunkAddrMsb:0000000000000000 _ZTI25TestHexIO_testJunkAddrMsb
     /tmp/ccpo7I6D.s:9435   .text._ZN25TestHexIO_testJunkAddrMsbD2Ev:0000000000000000 _ZN25TestHexIO_testJunkAddrMsbD1Ev
     /tmp/ccpo7I6D.s:9476   .text._ZN25TestHexIO_testJunkAddrMsbD0Ev:0000000000000000 _ZN25TestHexIO_testJunkAddrMsbD0Ev
     /tmp/ccpo7I6D.s:9435   .text._ZN25TestHexIO_testJunkAddrMsbD2Ev:0000000000000000 _ZN25TestHexIO_testJunkAddrMsbD2Ev
     /tmp/ccpo7I6D.s:10031  .rodata._ZTI27TestHexIO_testJunkByteCount:0000000000000000 _ZTI27TestHexIO_testJunkByteCount
     /tmp/ccpo7I6D.s:9515   .text._ZN27TestHexIO_testJunkByteCountD2Ev:0000000000000000 _ZN27TestHexIO_testJunkByteCountD1Ev
     /tmp/ccpo7I6D.s:9556   .text._ZN27TestHexIO_testJunkByteCountD0Ev:0000000000000000 _ZN27TestHexIO_testJunkByteCountD0Ev
     /tmp/ccpo7I6D.s:9515   .text._ZN27TestHexIO_testJunkByteCountD2Ev:0000000000000000 _ZN27TestHexIO_testJunkByteCountD2Ev
     /tmp/ccpo7I6D.s:10047  .rodata._ZTI27TestHexIO_testJunkStartCode:0000000000000000 _ZTI27TestHexIO_testJunkStartCode
     /tmp/ccpo7I6D.s:9595   .text._ZN27TestHexIO_testJunkStartCodeD2Ev:0000000000000000 _ZN27TestHexIO_testJunkStartCodeD1Ev
     /tmp/ccpo7I6D.s:9636   .text._ZN27TestHexIO_testJunkStartCodeD0Ev:0000000000000000 _ZN27TestHexIO_testJunkStartCodeD0Ev
     /tmp/ccpo7I6D.s:9595   .text._ZN27TestHexIO_testJunkStartCodeD2Ev:0000000000000000 _ZN27TestHexIO_testJunkStartCodeD2Ev
     /tmp/ccpo7I6D.s:10063  .rodata._ZTI22TestHexIO_testValidEOF:0000000000000000 _ZTI22TestHexIO_testValidEOF
     /tmp/ccpo7I6D.s:9675   .text._ZN22TestHexIO_testValidEOFD2Ev:0000000000000000 _ZN22TestHexIO_testValidEOFD1Ev
     /tmp/ccpo7I6D.s:9716   .text._ZN22TestHexIO_testValidEOFD0Ev:0000000000000000 _ZN22TestHexIO_testValidEOFD0Ev
     /tmp/ccpo7I6D.s:9675   .text._ZN22TestHexIO_testValidEOFD2Ev:0000000000000000 _ZN22TestHexIO_testValidEOFD2Ev
     /tmp/ccpo7I6D.s:10079  .rodata._ZTI27TestHexIO_testValidDataLine:0000000000000000 _ZTI27TestHexIO_testValidDataLine
     /tmp/ccpo7I6D.s:9755   .text._ZN27TestHexIO_testValidDataLineD2Ev:0000000000000000 _ZN27TestHexIO_testValidDataLineD1Ev
     /tmp/ccpo7I6D.s:9796   .text._ZN27TestHexIO_testValidDataLineD0Ev:0000000000000000 _ZN27TestHexIO_testValidDataLineD0Ev
     /tmp/ccpo7I6D.s:9755   .text._ZN27TestHexIO_testValidDataLineD2Ev:0000000000000000 _ZN27TestHexIO_testValidDataLineD2Ev
     /tmp/ccpo7I6D.s:10095  .rodata._ZTIN8UnitTest15MemoryOutStreamE:0000000000000000 _ZTIN8UnitTest15MemoryOutStreamE
     /tmp/ccpo7I6D.s:9854   .rodata._ZTCN8UnitTest15MemoryOutStreamE0_NSt7__cxx1119basic_ostringstreamIcSt11char_traitsIcESaIcEEE:0000000000000000 _ZTCN8UnitTest15MemoryOutStreamE0_NSt7__cxx1119basic_ostringstreamIcSt11char_traitsIcESaIcEEE
     /tmp/ccpo7I6D.s:9871   .rodata._ZTCN8UnitTest15MemoryOutStreamE0_So:0000000000000000 _ZTCN8UnitTest15MemoryOutStreamE0_So
     /tmp/ccpo7I6D.s:9896   .rodata._ZTS28TestHexIO_testDeriveWriteMap:0000000000000000 _ZTS28TestHexIO_testDeriveWriteMap
     /tmp/ccpo7I6D.s:9912   .rodata._ZTS23TestHexIO_testRoundTrip:0000000000000000 _ZTS23TestHexIO_testRoundTrip
     /tmp/ccpo7I6D.s:9928   .rodata._ZTS25TestHexIO_testCorruptLine:0000000000000000 _ZTS25TestHexIO_testCorruptLine
     /tmp/ccpo7I6D.s:9944   .rodata._ZTS25TestHexIO_testBadChecksum:0000000000000000 _ZTS25TestHexIO_testBadChecksum
     /tmp/ccpo7I6D.s:9960   .rodata._ZTS26TestHexIO_testJunkChecksum:0000000000000000 _ZTS26TestHexIO_testJunkChecksum
     /tmp/ccpo7I6D.s:9976   .rodata._ZTS26TestHexIO_testJunkDataByte:0000000000000000 _ZTS26TestHexIO_testJunkDataByte
     /tmp/ccpo7I6D.s:9992   .rodata._ZTS25TestHexIO_testJunkRecType:0000000000000000 _ZTS25TestHexIO_testJunkRecType
     /tmp/ccpo7I6D.s:10008  .rodata._ZTS25TestHexIO_testJunkAddrLsb:0000000000000000 _ZTS25TestHexIO_testJunkAddrLsb
     /tmp/ccpo7I6D.s:10024  .rodata._ZTS25TestHexIO_testJunkAddrMsb:0000000000000000 _ZTS25TestHexIO_testJunkAddrMsb
     /tmp/ccpo7I6D.s:10040  .rodata._ZTS27TestHexIO_testJunkByteCount:0000000000000000 _ZTS27TestHexIO_testJunkByteCount
     /tmp/ccpo7I6D.s:10056  .rodata._ZTS27TestHexIO_testJunkStartCode:0000000000000000 _ZTS27TestHexIO_testJunkStartCode
     /tmp/ccpo7I6D.s:10072  .rodata._ZTS22TestHexIO_testValidEOF:0000000000000000 _ZTS22TestHexIO_testValidEOF
     /tmp/ccpo7I6D.s:10088  .rodata._ZTS27TestHexIO_testValidDataLine:0000000000000000 _ZTS27TestHexIO_testValidDataLine
     /tmp/ccpo7I6D.s:10104  .rodata._ZTSN8UnitTest15MemoryOutStreamE:0000000000000000 _ZTSN8UnitTest15MemoryOutStreamE
     /tmp/ccpo7I6D.s:10108  .text:0000000000003181 _Z41__static_initialization_and_destruction_0ii
     /tmp/ccpo7I6D.s:10292  .text:000000000000345a _GLOBAL__sub_I_testHexIO_testValidDataLineInstance
                           .group:0000000000000000 _ZN27TestHexIO_testValidDataLineC5Ev
                           .group:0000000000000000 _ZN22TestHexIO_testValidEOFC5Ev
                           .group:0000000000000000 _ZN27TestHexIO_testJunkStartCodeC5Ev
                           .group:0000000000000000 _ZN27TestHexIO_testJunkByteCountC5Ev
                           .group:0000000000000000 _ZN25TestHexIO_testJunkAddrMsbC5Ev
                           .group:0000000000000000 _ZN25TestHexIO_testJunkAddrLsbC5Ev
                           .group:0000000000000000 _ZN25TestHexIO_testJunkRecTypeC5Ev
                           .group:0000000000000000 _ZN26TestHexIO_testJunkDataByteC5Ev
                           .group:0000000000000000 _ZN26TestHexIO_testJunkChecksumC5Ev
                           .group:0000000000000000 _ZN25TestHexIO_testBadChecksumC5Ev
                           .group:0000000000000000 _ZN25TestHexIO_testCorruptLineC5Ev
                           .group:0000000000000000 _ZN23TestHexIO_testRoundTripC5Ev
                           .group:0000000000000000 _ZN28TestHexIO_testDeriveWriteMapC5Ev
                           .group:0000000000000000 _ZN28TestHexIO_testDeriveWriteMapD5Ev
                           .group:0000000000000000 _ZN23TestHexIO_testRoundTripD5Ev
                           .group:0000000000000000 _ZN25TestHexIO_testCorruptLineD5Ev
                           .group:0000000000000000 _ZN25TestHexIO_testBadChecksumD5Ev
                           .group:0000000000000000 _ZN26TestHexIO_testJunkChecksumD5Ev
                           .group:0000000000000000 _ZN26TestHexIO_testJunkDataByteD5Ev
                           .group:0000000000000000 _ZN25TestHexIO_testJunkRecTypeD5Ev
                           .group:0000000000000000 _ZN25TestHexIO_testJunkAddrLsbD5Ev
                           .group:0000000000000000 _ZN25TestHexIO_testJunkAddrMsbD5Ev
                           .group:0000000000000000 _ZN27TestHexIO_testJunkByteCountD5Ev
                           .group:0000000000000000 _ZN27TestHexIO_testJunkStartCodeD5Ev
                           .group:0000000000000000 _ZN22TestHexIO_testValidEOFD5Ev
                           .group:0000000000000000 _ZN27TestHexIO_testValidDataLineD5Ev

UNDEFINED SYMBOLS
__gxx_personality_v0
_ZNSt9basic_iosIcSt11char_traitsIcEEC2Ev
_ZNSt7__cxx1119basic_ostringstreamIcSt11char_traitsIcESaIcEEC2ESt13_Ios_Openmode
_ZNSt7__cxx1112basic_stringIcSt11char_traitsIcESaIcEEC1Ev
_ZNSt7__cxx1119basic_ostringstreamIcSt11char_traitsIcESaIcEED2Ev
_ZNSt9basic_iosIcSt11char_traitsIcEED2Ev
_Unwind_Resume
_ZN8UnitTest4TestC2EPKcS2_S2_i
bufInitialise
_ZN8UnitTest11CurrentTest7DetailsEv
_ZN8UnitTest11TestDetailsC1ERKS0_i
_ZN8UnitTest11CurrentTest7ResultsEv
bufProcessLine
bufDestroy
__cxa_begin_catch
_ZN8UnitTest11TestResults13OnTestFailureERKNS_11TestDetailsEPKc
__cxa_end_catch
__stack_chk_fail
_ZNSt7__cxx1112basic_stringIcSt11char_traitsIcESaIcEEpLEPKc
_ZNSt7__cxx1112basic_stringIcSt11char_traitsIcESaIcEEpLEc
bufWriteToIntelHexFile
_ZNSt14basic_ifstreamIcSt11char_traitsIcEEC1Ev
_ZNSt14basic_ifstreamIcSt11char_traitsIcEE4openEPKcSt13_Ios_Openmode
_ZNSt14basic_ifstreamIcSt11char_traitsIcEE7is_openEv
_ZNSi5tellgEv
_ZNKSt7__cxx1112basic_stringIcSt11char_traitsIcESaIcEE4sizeEv
_Znam
_ZNSi5seekgElSt12_Ios_Seekdir
_ZNSi4readEPcl
_ZNSt14basic_ifstreamIcSt11char_traitsIcEE5closeEv
_ZNKSt7__cxx1112basic_stringIcSt11char_traitsIcESaIcEE5c_strEv
bufReadFromIntelHexFile
_ZNSt14basic_ifstreamIcSt11char_traitsIcEED1Ev
_ZNSt7__cxx1112basic_stringIcSt11char_traitsIcESaIcEED1Ev
strlen
bufWriteBlock
bufDeriveMask
_ZdlPv
_ZStlsISt11char_traitsIcEERSt13basic_ostreamIcT_ES5_PKc
_ZNSolsEi
_ZNK8UnitTest15MemoryOutStream7GetTextEv
_ZStlsISt11char_traitsIcEERSt13basic_ostreamIcT_ES5_h
_ZNSolsEm
_ZNSolsEj
_ZStlsISt11char_traitsIcEERSt13basic_ostreamIcT_ES5_c
_ZN8UnitTest4TestD2Ev
_ZTINSt7__cxx1119basic_ostringstreamIcSt11char_traitsIcESaIcEEE
_ZTISo
_ZTVN10__cxxabiv120__si_class_type_infoE
_ZTIN8UnitTest4TestE
__dso_handle
__cxa_atexit
_ZN8UnitTest4Test11GetTestListEv
_ZN8UnitTest9ListAdderC1ERNS_8TestListEPNS_4TestE
