   1              		.file	"csvfplay.c"
   2              		.section	.rodata.str1.1,"aMS",@progbits,1
   3              	.LC0:
   4 0000 63737666 		.string	"csvfPlay()"
   4      506C6179 
   4      282900
   5              	.LC2:
   6 000b 30313233 		.string	"0123456789ABCDEF"
   6      34353637 
   6      38394142 
   6      43444546 
   6      00
   7              		.section	.rodata.str1.8,"aMS",@progbits,1
   8              		.align 8
   9              	.LC3:
  10 0000 63737666 		.string	"csvfPlay(): XSDRTDO failed:\n  Got: %s\n  Mask: %s\n  Expecting: %s"
  10      506C6179 
  10      28293A20 
  10      58534452 
  10      54444F20 
  11 0041 00000000 		.align 8
  11      000000
  12              	.LC4:
  13 0048 63737666 		.string	"csvfPlay(): Unsupported command 0x%02X"
  13      506C6179 
  13      28293A20 
  13      556E7375 
  13      70706F72 
  14              		.section	.text.unlikely,"ax",@progbits
  15              	.LCOLDB5:
  16              		.text
  17              	.LHOTB5:
  18              		.p2align 4,,15
  19              		.globl	csvfPlay
  21              	csvfPlay:
  22              	.LFB27:
  23              		.cfi_startproc
  24 0000 4157     		pushq	%r15
  25              		.cfi_def_cfa_offset 16
  26              		.cfi_offset 15, -16
  27 0002 4156     		pushq	%r14
  28              		.cfi_def_cfa_offset 24
  29              		.cfi_offset 14, -24
  30 0004 4889D1   		movq	%rdx, %rcx
  31 0007 4155     		pushq	%r13
  32              		.cfi_def_cfa_offset 32
  33              		.cfi_offset 13, -32
  34 0009 4154     		pushq	%r12
  35              		.cfi_def_cfa_offset 40
  36              		.cfi_offset 12, -40
  37 000b 4989F4   		movq	%rsi, %r12
  38 000e 55       		pushq	%rbp
  39              		.cfi_def_cfa_offset 48
  40              		.cfi_offset 6, -48
  41 000f 53       		pushq	%rbx
  42              		.cfi_def_cfa_offset 56
  43              		.cfi_offset 3, -56
  44 0010 BE1F0000 		movl	$31, %esi
  44      00
  45 0015 4889D3   		movq	%rdx, %rbx
  46 0018 BA060000 		movl	$6, %edx
  46      00
  47 001d 4889FD   		movq	%rdi, %rbp
  48 0020 4881EC68 		subq	$20584, %rsp
  48      500000
  49              		.cfi_def_cfa_offset 20640
  50 0027 64488B04 		movq	%fs:40, %rax
  50      25280000 
  50      00
  51 0030 48898424 		movq	%rax, 20568(%rsp)
  51      58500000 
  52 0038 31C0     		xorl	%eax, %eax
  53 003a E8000000 		call	jtagClockFSM@PLT
  53      00
  54 003f 85C0     		testl	%eax, %eax
  55 0041 89442424 		movl	%eax, 36(%rsp)
  56 0045 0F857D07 		jne	.L160
  56      0000
  57 004b 410FB60C 		movzbl	(%r12), %ecx
  57      24
  58 0050 4D8D7C24 		leaq	1(%r12), %r15
  58      01
  59 0055 84C9     		testb	%cl, %cl
  60 0057 0F846B01 		je	.L3
  60      0000
  61 005d 488D8424 		leaq	4144(%rsp), %rax
  61      30100000 
  62 0065 80F909   		cmpb	$9, %cl
  63 0068 C744240C 		movl	$0, 12(%rsp)
  63      00000000 
  64 0070 C7442418 		movl	$0, 24(%rsp)
  64      00000000 
  65 0078 4C8DA424 		leaq	4145(%rsp), %r12
  65      31100000 
  66 0080 4D89FE   		movq	%r15, %r14
  67 0083 48894424 		movq	%rax, 16(%rsp)
  67      10
  68 0088 488D8424 		leaq	6192(%rsp), %rax
  68      30180000 
  69 0090 48894424 		movq	%rax, 40(%rsp)
  69      28
  70 0095 0F87DF04 		ja	.L5
  70      0000
  71              	.L163:
  72 009b 488D0500 		leaq	.L7(%rip), %rax
  72      000000
  73 00a2 0FB6D1   		movzbl	%cl, %edx
  74 00a5 48631490 		movslq	(%rax,%rdx,4), %rdx
  75 00a9 4801D0   		addq	%rdx, %rax
  76 00ac FFE0     		jmp	*%rax
  77              		.section	.rodata
  78              		.align 4
  79              		.align 4
  80              	.L7:
  81 0000 00000000 		.long	.L5-.L7
  82 0004 00000000 		.long	.L6-.L7
  83 0008 00000000 		.long	.L8-.L7
  84 000c 00000000 		.long	.L9-.L7
  85 0010 00000000 		.long	.L10-.L7
  86 0014 00000000 		.long	.L5-.L7
  87 0018 00000000 		.long	.L5-.L7
  88 001c 00000000 		.long	.L5-.L7
  89 0020 00000000 		.long	.L11-.L7
  90 0024 00000000 		.long	.L12-.L7
  91              		.text
  92 00ae 6690     		.p2align 4,,10
  93              		.p2align 3
  94              	.L35:
  95 00b0 4180FE20 		cmpb	$32, %r14b
  96 00b4 0F856603 		jne	.L51
  96      0000
  97              	.L52:
  98 00ba 8B44241C 		movl	28(%rsp), %eax
  99 00be 488D9424 		leaq	8240(%rsp), %rdx
  99      30200000 
 100 00c6 488D3D00 		leaq	.LC2(%rip), %rdi
 100      000000
 101 00cd 31C9     		xorl	%ecx, %ecx
 102 00cf 4C8D4801 		leaq	1(%rax), %r9
 103              	.L40:
 104 00d3 488B7424 		movq	16(%rsp), %rsi
 104      10
 105 00d8 0FB6340E 		movzbl	(%rsi,%rcx), %esi
 106 00dc 4189F0   		movl	%esi, %r8d
 107 00df 83E60F   		andl	$15, %esi
 108 00e2 41C0E804 		shrb	$4, %r8b
 109 00e6 0FB63437 		movzbl	(%rdi,%rsi), %esi
 110 00ea 450FB6C0 		movzbl	%r8b, %r8d
 111 00ee 460FB604 		movzbl	(%rdi,%r8), %r8d
 111      07
 112 00f3 4088744A 		movb	%sil, 1(%rdx,%rcx,2)
 112      01
 113 00f8 4488044A 		movb	%r8b, (%rdx,%rcx,2)
 114 00fc 4883C101 		addq	$1, %rcx
 115 0100 4939C9   		cmpq	%rcx, %r9
 116 0103 75CE     		jne	.L40
 117 0105 4C8D1C00 		leaq	(%rax,%rax), %r11
 118 0109 488D6C24 		leaq	48(%rsp), %rbp
 118      30
 119 010e 488D8C24 		leaq	12352(%rsp), %rcx
 119      40300000 
 120 0116 31F6     		xorl	%esi, %esi
 121 0118 42C6841C 		movb	$0, 8242(%rsp,%r11)
 121      32200000 
 121      00
 122              	.L42:
 123 0121 440FB644 		movzbl	0(%rbp,%rsi), %r8d
 123      3500
 124 0127 4589C2   		movl	%r8d, %r10d
 125 012a 4183E00F 		andl	$15, %r8d
 126 012e 41C0EA04 		shrb	$4, %r10b
 127 0132 460FB604 		movzbl	(%rdi,%r8), %r8d
 127      07
 128 0137 450FB6D2 		movzbl	%r10b, %r10d
 129 013b 460FB614 		movzbl	(%rdi,%r10), %r10d
 129      17
 130 0140 44884471 		movb	%r8b, 1(%rcx,%rsi,2)
 130      01
 131 0145 44881471 		movb	%r10b, (%rcx,%rsi,2)
 132 0149 4883C601 		addq	$1, %rsi
 133 014d 4939F1   		cmpq	%rsi, %r9
 134 0150 75CF     		jne	.L42
 135 0152 42C6841C 		movb	$0, 12354(%rsp,%r11)
 135      42300000 
 135      00
 136 015b 4C8D8424 		leaq	16464(%rsp), %r8
 136      50400000 
 137 0163 4C8D9C24 		leaq	6192(%rsp), %r11
 137      30180000 
 138 016b 488D7001 		leaq	1(%rax), %rsi
 139 016f 31C0     		xorl	%eax, %eax
 140              	.L44:
 141 0171 450FB60C 		movzbl	(%r11,%rax), %r9d
 141      03
 142 0176 4589CA   		movl	%r9d, %r10d
 143 0179 4183E10F 		andl	$15, %r9d
 144 017d 41C0EA04 		shrb	$4, %r10b
 145 0181 460FB60C 		movzbl	(%rdi,%r9), %r9d
 145      0F
 146 0186 450FB6D2 		movzbl	%r10b, %r10d
 147 018a 460FB614 		movzbl	(%rdi,%r10), %r10d
 147      17
 148 018f 45884C40 		movb	%r9b, 1(%r8,%rax,2)
 148      01
 149 0194 45881440 		movb	%r10b, (%r8,%rax,2)
 150 0198 4883C001 		addq	$1, %rax
 151 019c 4839F0   		cmpq	%rsi, %rax
 152 019f 75D0     		jne	.L44
 153 01a1 498D0440 		leaq	(%r8,%rax,2), %rax
 154              	.L54:
 155 01a5 488D3500 		leaq	.LC3(%rip), %rsi
 155      000000
 156 01ac C60000   		movb	$0, (%rax)
 157 01af 4889DF   		movq	%rbx, %rdi
 158 01b2 31C0     		xorl	%eax, %eax
 159 01b4 E8000000 		call	errRender@PLT
 159      00
 160 01b9 C7442424 		movl	$18, 36(%rsp)
 160      12000000 
 161              		.p2align 4,,10
 162 01c1 0F1F8000 		.p2align 3
 162      000000
 163              	.L3:
 164 01c8 488B9C24 		movq	20568(%rsp), %rbx
 164      58500000 
 165 01d0 6448331C 		xorq	%fs:40, %rbx
 165      25280000 
 165      00
 166 01d9 8B442424 		movl	36(%rsp), %eax
 167 01dd 0F858F06 		jne	.L161
 167      0000
 168 01e3 4881C468 		addq	$20584, %rsp
 168      500000
 169              		.cfi_remember_state
 170              		.cfi_def_cfa_offset 56
 171 01ea 5B       		popq	%rbx
 172              		.cfi_def_cfa_offset 48
 173 01eb 5D       		popq	%rbp
 174              		.cfi_def_cfa_offset 40
 175 01ec 415C     		popq	%r12
 176              		.cfi_def_cfa_offset 32
 177 01ee 415D     		popq	%r13
 178              		.cfi_def_cfa_offset 24
 179 01f0 415E     		popq	%r14
 180              		.cfi_def_cfa_offset 16
 181 01f2 415F     		popq	%r15
 182              		.cfi_def_cfa_offset 8
 183 01f4 C3       		ret
 184              		.p2align 4,,10
 185 01f5 0F1F00   		.p2align 3
 186              	.L12:
 187              		.cfi_restore_state
 188 01f8 8B442418 		movl	24(%rsp), %eax
 189 01fc 4531FF   		xorl	%r15d, %r15d
 190 01ff A807     		testb	$7, %al
 191 0201 410F95C7 		setne	%r15b
 192 0205 C1E803   		shrl	$3, %eax
 193 0208 4401F8   		addl	%r15d, %eax
 194 020b 8D78FF   		leal	-1(%rax), %edi
 195 020e 85C0     		testl	%eax, %eax
 196 0210 89442420 		movl	%eax, 32(%rsp)
 197 0214 89FE     		movl	%edi, %esi
 198 0216 897C241C 		movl	%edi, 28(%rsp)
 199 021a 0F844206 		je	.L57
 199      0000
 200 0220 83E810   		subl	$16, %eax
 201 0223 C1E804   		shrl	$4, %eax
 202 0226 83C001   		addl	$1, %eax
 203 0229 89C7     		movl	%eax, %edi
 204 022b C1E704   		sall	$4, %edi
 205 022e 83FE0E   		cmpl	$14, %esi
 206 0231 0F860606 		jbe	.L58
 206      0000
 207 0237 4C8B5424 		movq	40(%rsp), %r10
 207      28
 208 023c 488D9424 		leaq	2096(%rsp), %rdx
 208      30080000 
 209 0244 31C9     		xorl	%ecx, %ecx
 210 0246 31F6     		xorl	%esi, %esi
 211              	.L26:
 212 0248 F3410F6F 		movdqu	(%r14,%rcx,2), %xmm0
 212      044E
 213 024e 83C601   		addl	$1, %esi
 214 0251 F3410F6F 		movdqu	16(%r14,%rcx,2), %xmm1
 214      4C4E10
 215 0258 660F6F15 		movdqa	.LC1(%rip), %xmm2
 215      00000000 
 216 0260 660F6F1D 		movdqa	.LC1(%rip), %xmm3
 216      00000000 
 217 0268 660FDBD0 		pand	%xmm0, %xmm2
 218 026c 660F71D0 		psrlw	$8, %xmm0
 218      08
 219 0271 660FDBD9 		pand	%xmm1, %xmm3
 220 0275 660F71D1 		psrlw	$8, %xmm1
 220      08
 221 027a 660F67C1 		packuswb	%xmm1, %xmm0
 222 027e 660F67D3 		packuswb	%xmm3, %xmm2
 223 0282 410F2904 		movaps	%xmm0, (%r10,%rcx)
 223      0A
 224 0287 0F29140A 		movaps	%xmm2, (%rdx,%rcx)
 225 028b 4883C110 		addq	$16, %rcx
 226 028f 39C6     		cmpl	%eax, %esi
 227 0291 72B5     		jb	.L26
 228 0293 8B74241C 		movl	28(%rsp), %esi
 229 0297 89F8     		movl	%edi, %eax
 230 0299 4801C2   		addq	%rax, %rdx
 231 029c 498D0C02 		leaq	(%r10,%rax), %rcx
 232 02a0 498D0446 		leaq	(%r14,%rax,2), %rax
 233 02a4 29FE     		subl	%edi, %esi
 234 02a6 3B7C2420 		cmpl	32(%rsp), %edi
 235 02aa 0F845101 		je	.L28
 235      0000
 236              	.L25:
 237 02b0 0FB638   		movzbl	(%rax), %edi
 238 02b3 85F6     		testl	%esi, %esi
 239 02b5 40883A   		movb	%dil, (%rdx)
 240 02b8 0FB67801 		movzbl	1(%rax), %edi
 241 02bc 408839   		movb	%dil, (%rcx)
 242 02bf 0F843C01 		je	.L28
 242      0000
 243 02c5 0FB67802 		movzbl	2(%rax), %edi
 244 02c9 83FE01   		cmpl	$1, %esi
 245 02cc 40887A01 		movb	%dil, 1(%rdx)
 246 02d0 0FB67803 		movzbl	3(%rax), %edi
 247 02d4 40887901 		movb	%dil, 1(%rcx)
 248 02d8 0F842301 		je	.L28
 248      0000
 249 02de 0FB67804 		movzbl	4(%rax), %edi
 250 02e2 83FE02   		cmpl	$2, %esi
 251 02e5 40887A02 		movb	%dil, 2(%rdx)
 252 02e9 0FB67805 		movzbl	5(%rax), %edi
 253 02ed 40887902 		movb	%dil, 2(%rcx)
 254 02f1 0F840A01 		je	.L28
 254      0000
 255 02f7 0FB67806 		movzbl	6(%rax), %edi
 256 02fb 83FE03   		cmpl	$3, %esi
 257 02fe 40887A03 		movb	%dil, 3(%rdx)
 258 0302 0FB67807 		movzbl	7(%rax), %edi
 259 0306 40887903 		movb	%dil, 3(%rcx)
 260 030a 0F84F100 		je	.L28
 260      0000
 261 0310 0FB67808 		movzbl	8(%rax), %edi
 262 0314 83FE04   		cmpl	$4, %esi
 263 0317 40887A04 		movb	%dil, 4(%rdx)
 264 031b 0FB67809 		movzbl	9(%rax), %edi
 265 031f 40887904 		movb	%dil, 4(%rcx)
 266 0323 0F84D800 		je	.L28
 266      0000
 267 0329 0FB6780A 		movzbl	10(%rax), %edi
 268 032d 83FE05   		cmpl	$5, %esi
 269 0330 40887A05 		movb	%dil, 5(%rdx)
 270 0334 0FB6780B 		movzbl	11(%rax), %edi
 271 0338 40887905 		movb	%dil, 5(%rcx)
 272 033c 0F84BF00 		je	.L28
 272      0000
 273 0342 0FB6780C 		movzbl	12(%rax), %edi
 274 0346 83FE06   		cmpl	$6, %esi
 275 0349 40887A06 		movb	%dil, 6(%rdx)
 276 034d 0FB6780D 		movzbl	13(%rax), %edi
 277 0351 40887906 		movb	%dil, 6(%rcx)
 278 0355 0F84A600 		je	.L28
 278      0000
 279 035b 0FB6780E 		movzbl	14(%rax), %edi
 280 035f 83FE07   		cmpl	$7, %esi
 281 0362 40887A07 		movb	%dil, 7(%rdx)
 282 0366 0FB6780F 		movzbl	15(%rax), %edi
 283 036a 40887907 		movb	%dil, 7(%rcx)
 284 036e 0F848D00 		je	.L28
 284      0000
 285 0374 0FB67810 		movzbl	16(%rax), %edi
 286 0378 83FE08   		cmpl	$8, %esi
 287 037b 40887A08 		movb	%dil, 8(%rdx)
 288 037f 0FB67811 		movzbl	17(%rax), %edi
 289 0383 40887908 		movb	%dil, 8(%rcx)
 290 0387 7478     		je	.L28
 291 0389 0FB67812 		movzbl	18(%rax), %edi
 292 038d 83FE09   		cmpl	$9, %esi
 293 0390 40887A09 		movb	%dil, 9(%rdx)
 294 0394 0FB67813 		movzbl	19(%rax), %edi
 295 0398 40887909 		movb	%dil, 9(%rcx)
 296 039c 7463     		je	.L28
 297 039e 0FB67814 		movzbl	20(%rax), %edi
 298 03a2 83FE0A   		cmpl	$10, %esi
 299 03a5 40887A0A 		movb	%dil, 10(%rdx)
 300 03a9 0FB67815 		movzbl	21(%rax), %edi
 301 03ad 4088790A 		movb	%dil, 10(%rcx)
 302 03b1 744E     		je	.L28
 303 03b3 0FB67816 		movzbl	22(%rax), %edi
 304 03b7 83FE0B   		cmpl	$11, %esi
 305 03ba 40887A0B 		movb	%dil, 11(%rdx)
 306 03be 0FB67817 		movzbl	23(%rax), %edi
 307 03c2 4088790B 		movb	%dil, 11(%rcx)
 308 03c6 7439     		je	.L28
 309 03c8 0FB67818 		movzbl	24(%rax), %edi
 310 03cc 83FE0C   		cmpl	$12, %esi
 311 03cf 40887A0C 		movb	%dil, 12(%rdx)
 312 03d3 0FB67819 		movzbl	25(%rax), %edi
 313 03d7 4088790C 		movb	%dil, 12(%rcx)
 314 03db 7424     		je	.L28
 315 03dd 0FB6781A 		movzbl	26(%rax), %edi
 316 03e1 83FE0D   		cmpl	$13, %esi
 317 03e4 40887A0D 		movb	%dil, 13(%rdx)
 318 03e8 0FB6781B 		movzbl	27(%rax), %edi
 319 03ec 4088790D 		movb	%dil, 13(%rcx)
 320 03f0 740F     		je	.L28
 321 03f2 0FB6701C 		movzbl	28(%rax), %esi
 322 03f6 4088720E 		movb	%sil, 14(%rdx)
 323 03fa 0FB6401D 		movzbl	29(%rax), %eax
 324 03fe 88410E   		movb	%al, 14(%rcx)
 325              	.L28:
 326 0401 8B44241C 		movl	28(%rsp), %eax
 327 0405 4D8D6C46 		leaq	2(%r14,%rax,2), %r13
 327      02
 328              	.L24:
 329 040a 488B4424 		movq	40(%rsp), %rax
 329      28
 330 040f 4531F6   		xorl	%r14d, %r14d
 331 0412 4C8D7801 		leaq	1(%rax), %r15
 332 0416 4C89E0   		movq	%r12, %rax
 333 0419 4D89FC   		movq	%r15, %r12
 334 041c 4989C7   		movq	%rax, %r15
 335 041f 90       		.p2align 4,,10
 336              		.p2align 3
 337              	.L51:
 338 0420 4889D9   		movq	%rbx, %rcx
 339 0423 BA030000 		movl	$3, %edx
 339      00
 340 0428 BE010000 		movl	$1, %esi
 340      00
 341 042d 4889EF   		movq	%rbp, %rdi
 342 0430 E8000000 		call	jtagClockFSM@PLT
 342      00
 343 0435 85C0     		testl	%eax, %eax
 344 0437 0F851603 		jne	.L150
 344      0000
 345 043d 488B4C24 		movq	16(%rsp), %rcx
 345      10
 346 0442 8B742418 		movl	24(%rsp), %esi
 347 0446 488D9424 		leaq	2096(%rsp), %rdx
 347      30080000 
 348 044e 4989D9   		movq	%rbx, %r9
 349 0451 41B80100 		movl	$1, %r8d
 349      0000
 350 0457 4889EF   		movq	%rbp, %rdi
 351 045a E8000000 		call	jtagShiftInOut@PLT
 351      00
 352 045f 85C0     		testl	%eax, %eax
 353 0461 0F85EC02 		jne	.L150
 353      0000
 354 0467 4889D9   		movq	%rbx, %rcx
 355 046a BA060000 		movl	$6, %edx
 355      00
 356 046f BE1A0000 		movl	$26, %esi
 356      00
 357 0474 4889EF   		movq	%rbp, %rdi
 358 0477 E8000000 		call	jtagClockFSM@PLT
 358      00
 359 047c 85C0     		testl	%eax, %eax
 360 047e 0F85CF02 		jne	.L150
 360      0000
 361 0484 8B74240C 		movl	12(%rsp), %esi
 362 0488 85F6     		testl	%esi, %esi
 363 048a 0F851803 		jne	.L162
 363      0000
 364              	.L33:
 365 0490 8B4C2420 		movl	32(%rsp), %ecx
 366 0494 4183C601 		addl	$1, %r14d
 367 0498 85C9     		testl	%ecx, %ecx
 368 049a 7449     		je	.L144
 369 049c 0FB68424 		movzbl	6192(%rsp), %eax
 369      30180000 
 370 04a4 32842430 		xorb	4144(%rsp), %al
 370      100000
 371 04ab 84442430 		testb	%al, 48(%rsp)
 372 04af 0F85FBFB 		jne	.L35
 372      FFFF
 373 04b5 8B4C241C 		movl	28(%rsp), %ecx
 374 04b9 31C0     		xorl	%eax, %eax
 375 04bb 488D7424 		leaq	49(%rsp), %rsi
 375      31
 376 04c0 EB1E     		jmp	.L37
 377              		.p2align 4,,10
 378 04c2 660F1F44 		.p2align 3
 378      0000
 379              	.L38:
 380 04c8 410FB614 		movzbl	(%r15,%rax), %edx
 380      07
 381 04cd 41321404 		xorb	(%r12,%rax), %dl
 382 04d1 221406   		andb	(%rsi,%rax), %dl
 383 04d4 4883C001 		addq	$1, %rax
 384 04d8 84D2     		testb	%dl, %dl
 385 04da 0F85D0FB 		jne	.L35
 385      FFFF
 386              	.L37:
 387 04e0 4839C1   		cmpq	%rax, %rcx
 388 04e3 75E3     		jne	.L38
 389              	.L144:
 390 04e5 4180FE20 		cmpb	$32, %r14b
 391 04e9 4D89FC   		movq	%r15, %r12
 392 04ec 7572     		jne	.L13
 393 04ee 8B442420 		movl	32(%rsp), %eax
 394 04f2 85C0     		testl	%eax, %eax
 395 04f4 0F85C0FB 		jne	.L52
 395      FFFF
 396 04fa 4C8D8424 		leaq	16464(%rsp), %r8
 396      50400000 
 397 0502 C6842430 		movb	$0, 8240(%rsp)
 397      20000000 
 398 050a C6842440 		movb	$0, 12352(%rsp)
 398      30000000 
 399 0512 488D9424 		leaq	8240(%rsp), %rdx
 399      30200000 
 400 051a 488D8C24 		leaq	12352(%rsp), %rcx
 400      40300000 
 401 0522 4C89C0   		movq	%r8, %rax
 402 0525 E97BFCFF 		jmp	.L54
 402      FF
 403 052a 660F1F44 		.p2align 4,,10
 403      0000
 404              		.p2align 3
 405              	.L11:
 406 0530 410FB706 		movzwl	(%r14), %eax
 407 0534 410FB656 		movzbl	2(%r14), %edx
 407      02
 408 0539 4D8D6E04 		leaq	4(%r14), %r13
 409 053d 66C1C008 		rolw	$8, %ax
 410 0541 0FB7C0   		movzwl	%ax, %eax
 411 0544 C1E008   		sall	$8, %eax
 412 0547 09D0     		orl	%edx, %eax
 413 0549 410FB656 		movzbl	3(%r14), %edx
 413      03
 414 054e C1E008   		sall	$8, %eax
 415 0551 09C2     		orl	%eax, %edx
 416 0553 89542418 		movl	%edx, 24(%rsp)
 417 0557 660F1F84 		.p2align 4,,10
 417      00000000 
 417      00
 418              		.p2align 3
 419              	.L13:
 420 0560 410FB64D 		movzbl	0(%r13), %ecx
 420      00
 421 0565 4D8D7501 		leaq	1(%r13), %r14
 422 0569 84C9     		testb	%cl, %cl
 423 056b 0F8457FC 		je	.L3
 423      FFFF
 424 0571 80F909   		cmpb	$9, %cl
 425 0574 0F8621FB 		jbe	.L163
 425      FFFF
 426              	.L5:
 427 057a 488D3500 		leaq	.LC4(%rip), %rsi
 427      000000
 428 0581 0FB6D1   		movzbl	%cl, %edx
 429 0584 4889DF   		movq	%rbx, %rdi
 430 0587 31C0     		xorl	%eax, %eax
 431 0589 E8000000 		call	errRender@PLT
 431      00
 432 058e C7442424 		movl	$19, 36(%rsp)
 432      13000000 
 433 0596 E92DFCFF 		jmp	.L3
 433      FF
 434 059b 0F1F4400 		.p2align 4,,10
 434      00
 435              		.p2align 3
 436              	.L6:
 437 05a0 8B442418 		movl	24(%rsp), %eax
 438 05a4 31D2     		xorl	%edx, %edx
 439 05a6 A807     		testb	$7, %al
 440 05a8 0F95C2   		setne	%dl
 441 05ab C1E803   		shrl	$3, %eax
 442 05ae 01D0     		addl	%edx, %eax
 443 05b0 0F84A402 		je	.L56
 443      0000
 444 05b6 448D68FF 		leal	-1(%rax), %r13d
 445 05ba 488D7C24 		leaq	48(%rsp), %rdi
 445      30
 446 05bf 4C89F6   		movq	%r14, %rsi
 447 05c2 4983C501 		addq	$1, %r13
 448 05c6 4C89EA   		movq	%r13, %rdx
 449 05c9 4D01F5   		addq	%r14, %r13
 450 05cc E8000000 		call	memcpy@PLT
 450      00
 451 05d1 EB8D     		jmp	.L13
 452              		.p2align 4,,10
 453 05d3 0F1F4400 		.p2align 3
 453      00
 454              	.L9:
 455 05d8 4889D9   		movq	%rbx, %rcx
 456 05db BA030000 		movl	$3, %edx
 456      00
 457 05e0 BE010000 		movl	$1, %esi
 457      00
 458 05e5 4889EF   		movq	%rbp, %rdi
 459 05e8 E8000000 		call	jtagClockFSM@PLT
 459      00
 460 05ed 85C0     		testl	%eax, %eax
 461 05ef 0F855E01 		jne	.L150
 461      0000
 462 05f5 8B442418 		movl	24(%rsp), %eax
 463 05f9 4531ED   		xorl	%r13d, %r13d
 464 05fc A807     		testb	$7, %al
 465 05fe 410F95C5 		setne	%r13b
 466 0602 C1E803   		shrl	$3, %eax
 467 0605 418D7C05 		leal	0(%r13,%rax), %edi
 467      00
 468 060a 4989FD   		movq	%rdi, %r13
 469 060d E8000000 		call	malloc@PLT
 469      00
 470 0612 4585ED   		testl	%r13d, %r13d
 471 0615 4989C7   		movq	%rax, %r15
 472 0618 0F843402 		je	.L59
 472      0000
 473 061e 4183ED01 		subl	$1, %r13d
 474 0622 4C89F6   		movq	%r14, %rsi
 475 0625 4889C7   		movq	%rax, %rdi
 476 0628 4983C501 		addq	$1, %r13
 477 062c 4C89EA   		movq	%r13, %rdx
 478 062f 4D01F5   		addq	%r14, %r13
 479 0632 E8000000 		call	memcpy@PLT
 479      00
 480              	.L46:
 481 0637 8B742418 		movl	24(%rsp), %esi
 482 063b 4989D8   		movq	%rbx, %r8
 483 063e B9010000 		movl	$1, %ecx
 483      00
 484 0643 4C89FA   		movq	%r15, %rdx
 485 0646 4889EF   		movq	%rbp, %rdi
 486 0649 E8000000 		call	jtagShiftInOnly@PLT
 486      00
 487 064e 4C89FF   		movq	%r15, %rdi
 488 0651 4189C6   		movl	%eax, %r14d
 489 0654 E8000000 		call	free@PLT
 489      00
 490 0659 4585F6   		testl	%r14d, %r14d
 491 065c 0F850802 		jne	.L164
 491      0000
 492              	.L47:
 493 0662 4889D9   		movq	%rbx, %rcx
 494 0665 BA020000 		movl	$2, %edx
 494      00
 495 066a BE010000 		movl	$1, %esi
 495      00
 496 066f 4889EF   		movq	%rbp, %rdi
 497 0672 E8000000 		call	jtagClockFSM@PLT
 497      00
 498 0677 85C0     		testl	%eax, %eax
 499 0679 0F85D400 		jne	.L150
 499      0000
 500 067f 8B54240C 		movl	12(%rsp), %edx
 501 0683 85D2     		testl	%edx, %edx
 502 0685 0F84D5FE 		je	.L13
 502      FFFF
 503 068b 8B74240C 		movl	12(%rsp), %esi
 504 068f 4889DA   		movq	%rbx, %rdx
 505 0692 4889EF   		movq	%rbp, %rdi
 506 0695 E8000000 		call	jtagClocks@PLT
 506      00
 507 069a 85C0     		testl	%eax, %eax
 508 069c 0F84BEFE 		je	.L13
 508      FFFF
 509 06a2 488D3500 		leaq	.LC0(%rip), %rsi
 509      000000
 510 06a9 4189C7   		movl	%eax, %r15d
 511 06ac 4889DF   		movq	%rbx, %rdi
 512 06af E8000000 		call	errPrefix@PLT
 512      00
 513 06b4 44897C24 		movl	%r15d, 36(%rsp)
 513      24
 514 06b9 E90AFBFF 		jmp	.L3
 514      FF
 515 06be 6690     		.p2align 4,,10
 516              		.p2align 3
 517              	.L8:
 518 06c0 4889D9   		movq	%rbx, %rcx
 519 06c3 BA040000 		movl	$4, %edx
 519      00
 520 06c8 BE030000 		movl	$3, %esi
 520      00
 521 06cd 4889EF   		movq	%rbp, %rdi
 522 06d0 E8000000 		call	jtagClockFSM@PLT
 522      00
 523 06d5 85C0     		testl	%eax, %eax
 524 06d7 757A     		jne	.L150
 525 06d9 410FB60E 		movzbl	(%r14), %ecx
 526 06dd 31D2     		xorl	%edx, %edx
 527 06df 4D8D6E01 		leaq	1(%r14), %r13
 528 06e3 F6C107   		testb	$7, %cl
 529 06e6 89C8     		movl	%ecx, %eax
 530 06e8 0F95C2   		setne	%dl
 531 06eb C0E803   		shrb	$3, %al
 532 06ee 0FB6C0   		movzbl	%al, %eax
 533 06f1 01D0     		addl	%edx, %eax
 534 06f3 488D9424 		leaq	2096(%rsp), %rdx
 534      30080000 
 535 06fb 743B     		je	.L15
 536 06fd 83E801   		subl	$1, %eax
 537 0700 488D9424 		leaq	2096(%rsp), %rdx
 537      30080000 
 538 0708 4C89EE   		movq	%r13, %rsi
 539 070b 4883C001 		addq	$1, %rax
 540 070f 83F808   		cmpl	$8, %eax
 541 0712 4989D0   		movq	%rdx, %r8
 542 0715 0F83FA00 		jnb	.L165
 542      0000
 543              	.L16:
 544 071b 31FF     		xorl	%edi, %edi
 545 071d A804     		testb	$4, %al
 546 071f 0F85DC00 		jne	.L166
 546      0000
 547 0725 A802     		testb	$2, %al
 548 0727 0F85BC00 		jne	.L167
 548      0000
 549              	.L20:
 550 072d A801     		testb	$1, %al
 551 072f 0F85A700 		jne	.L168
 551      0000
 552              	.L21:
 553 0735 4901C5   		addq	%rax, %r13
 554              	.L15:
 555 0738 0FB6F1   		movzbl	%cl, %esi
 556 073b 4989D8   		movq	%rbx, %r8
 557 073e B9010000 		movl	$1, %ecx
 557      00
 558 0743 4889EF   		movq	%rbp, %rdi
 559 0746 E8000000 		call	jtagShiftInOnly@PLT
 559      00
 560 074b 85C0     		testl	%eax, %eax
 561 074d 0F840FFF 		je	.L47
 561      FFFF
 562              	.L150:
 563 0753 488D3500 		leaq	.LC0(%rip), %rsi
 563      000000
 564 075a 4889DF   		movq	%rbx, %rdi
 565 075d 8944240C 		movl	%eax, 12(%rsp)
 566 0761 E8000000 		call	errPrefix@PLT
 566      00
 567 0766 8B44240C 		movl	12(%rsp), %eax
 568 076a 89442424 		movl	%eax, 36(%rsp)
 569 076e E955FAFF 		jmp	.L3
 569      FF
 570              		.p2align 4,,10
 571 0773 0F1F4400 		.p2align 3
 571      00
 572              	.L10:
 573 0778 410FB706 		movzwl	(%r14), %eax
 574 077c 410FB656 		movzbl	2(%r14), %edx
 574      02
 575 0781 4D8D6E04 		leaq	4(%r14), %r13
 576 0785 66C1C008 		rolw	$8, %ax
 577 0789 0FB7C0   		movzwl	%ax, %eax
 578 078c C1E008   		sall	$8, %eax
 579 078f 09D0     		orl	%edx, %eax
 580 0791 410FB656 		movzbl	3(%r14), %edx
 580      03
 581 0796 C1E008   		sall	$8, %eax
 582 0799 09C2     		orl	%eax, %edx
 583 079b 8954240C 		movl	%edx, 12(%rsp)
 584 079f E9BCFDFF 		jmp	.L13
 584      FF
 585              		.p2align 4,,10
 586 07a4 0F1F4000 		.p2align 3
 587              	.L162:
 588 07a8 8B74240C 		movl	12(%rsp), %esi
 589 07ac 4889DA   		movq	%rbx, %rdx
 590 07af 4889EF   		movq	%rbp, %rdi
 591 07b2 E8000000 		call	jtagClocks@PLT
 591      00
 592 07b7 85C0     		testl	%eax, %eax
 593 07b9 0F84D1FC 		je	.L33
 593      FFFF
 594 07bf EB92     		jmp	.L150
 595              		.p2align 4,,10
 596 07c1 0F1F8000 		.p2align 3
 596      000000
 597              	.L160:
 598 07c8 488D3500 		leaq	.LC0(%rip), %rsi
 598      000000
 599 07cf 4889DF   		movq	%rbx, %rdi
 600 07d2 E8000000 		call	errPrefix@PLT
 600      00
 601 07d7 E9ECF9FF 		jmp	.L3
 601      FF
 602              	.L168:
 603 07dc 0FB6343E 		movzbl	(%rsi,%rdi), %esi
 604 07e0 41883438 		movb	%sil, (%r8,%rdi)
 605 07e4 E94CFFFF 		jmp	.L21
 605      FF
 606              	.L167:
 607 07e9 440FB70C 		movzwl	(%rsi,%rdi), %r9d
 607      3E
 608 07ee 6645890C 		movw	%r9w, (%r8,%rdi)
 608      38
 609 07f3 4883C702 		addq	$2, %rdi
 610 07f7 A801     		testb	$1, %al
 611 07f9 0F8436FF 		je	.L21
 611      FFFF
 612 07ff EBDB     		jmp	.L168
 613              	.L166:
 614 0801 8B3E     		movl	(%rsi), %edi
 615 0803 A802     		testb	$2, %al
 616 0805 418938   		movl	%edi, (%r8)
 617 0808 BF040000 		movl	$4, %edi
 617      00
 618 080d 0F841AFF 		je	.L20
 618      FFFF
 619 0813 EBD4     		jmp	.L167
 620              	.L165:
 621 0815 4189C0   		movl	%eax, %r8d
 622 0818 31F6     		xorl	%esi, %esi
 623 081a 4183E0F8 		andl	$-8, %r8d
 624              	.L17:
 625 081e 89F7     		movl	%esi, %edi
 626 0820 83C608   		addl	$8, %esi
 627 0823 4D8B4C3D 		movq	0(%r13,%rdi), %r9
 627      00
 628 0828 4439C6   		cmpl	%r8d, %esi
 629 082b 4C890C3A 		movq	%r9, (%rdx,%rdi)
 630 082f 72ED     		jb	.L17
 631 0831 4C8D0432 		leaq	(%rdx,%rsi), %r8
 632 0835 4C01EE   		addq	%r13, %rsi
 633 0838 E9DEFEFF 		jmp	.L16
 633      FF
 634              	.L58:
 635 083d 4C89F0   		movq	%r14, %rax
 636 0840 488D9424 		leaq	2096(%rsp), %rdx
 636      30080000 
 637 0848 488B4C24 		movq	40(%rsp), %rcx
 637      28
 638 084d E95EFAFF 		jmp	.L25
 638      FF
 639              	.L59:
 640 0852 4D89F5   		movq	%r14, %r13
 641 0855 E9DDFDFF 		jmp	.L46
 641      FF
 642              	.L56:
 643 085a 4D89F5   		movq	%r14, %r13
 644 085d E9FEFCFF 		jmp	.L13
 644      FF
 645              	.L57:
 646 0862 4D89F5   		movq	%r14, %r13
 647 0865 E9A0FBFF 		jmp	.L24
 647      FF
 648              	.L164:
 649 086a 4489F0   		movl	%r14d, %eax
 650 086d E9E1FEFF 		jmp	.L150
 650      FF
 651              	.L161:
 652 0872 E8000000 		call	__stack_chk_fail@PLT
 652      00
 653              		.cfi_endproc
 654              	.LFE27:
 656              		.section	.text.unlikely
 657              	.LCOLDE5:
 658              		.text
 659              	.LHOTE5:
 660              		.section	.rodata.cst16,"aM",@progbits,16
 661              		.align 16
 662              	.LC1:
 671              		.ident	"GCC: (Ubuntu 5.4.0-6ubuntu1~16.04.5) 5.4.0 20160609"
 672              		.section	.note.GNU-stack,"",@progbits