   1              		.file	"DeferredTestReporter.cpp"
   2              		.section	.text.unlikely,"ax",@progbits
   3              		.align 2
   4              	.LCOLDB0:
   5              		.text
   6              	.LHOTB0:
   7              		.align 2
   8              		.p2align 4,,15
   9              		.globl	_ZN8UnitTest20DeferredTestReporter16ReportTestFinishERKNS_11TestDetailsEf
  11              	_ZN8UnitTest20DeferredTestReporter16ReportTestFinishERKNS_11TestDetailsEf:
  12              	.LFB901:
  13              		.cfi_startproc
  14 0000 488B4710 		movq	16(%rdi), %rax
  15 0004 F30F1140 		movss	%xmm0, -8(%rax)
  15      F8
  16 0009 C3       		ret
  17              		.cfi_endproc
  18              	.LFE901:
  20              		.section	.text.unlikely
  21              	.LCOLDE0:
  22              		.text
  23              	.LHOTE0:
  24              		.section	.text.unlikely._ZN8UnitTest18DeferredTestResultD2Ev,"axG",@progbits,_ZN8UnitTest18Deferre
  25              		.align 2
  26              	.LCOLDB1:
  27              		.section	.text._ZN8UnitTest18DeferredTestResultD2Ev,"axG",@progbits,_ZN8UnitTest18DeferredTestResu
  28              	.LHOTB1:
  29              		.align 2
  30              		.p2align 4,,15
  31              		.weak	_ZN8UnitTest18DeferredTestResultD2Ev
  33              	_ZN8UnitTest18DeferredTestResultD2Ev:
  34              	.LFB895:
  35              		.cfi_startproc
  36 0000 4154     		pushq	%r12
  37              		.cfi_def_cfa_offset 16
  38              		.cfi_offset 12, -16
  39 0002 55       		pushq	%rbp
  40              		.cfi_def_cfa_offset 24
  41              		.cfi_offset 6, -24
  42 0003 4989FC   		movq	%rdi, %r12
  43 0006 53       		pushq	%rbx
  44              		.cfi_def_cfa_offset 32
  45              		.cfi_offset 3, -32
  46 0007 488B6F68 		movq	104(%rdi), %rbp
  47 000b 488B5F60 		movq	96(%rdi), %rbx
  48 000f 4839DD   		cmpq	%rbx, %rbp
  49 0012 7424     		je	.L3
  50              		.p2align 4,,10
  51 0014 0F1F4000 		.p2align 3
  52              	.L5:
  53 0018 488B7B08 		movq	8(%rbx), %rdi
  54 001c 488D4318 		leaq	24(%rbx), %rax
  55 0020 4839C7   		cmpq	%rax, %rdi
  56 0023 7405     		je	.L4
  57 0025 E8000000 		call	_ZdlPv@PLT
  57      00
  58              	.L4:
  59 002a 4883C328 		addq	$40, %rbx
  60 002e 4839DD   		cmpq	%rbx, %rbp
  61 0031 75E5     		jne	.L5
  62 0033 498B6C24 		movq	96(%r12), %rbp
  62      60
  63              	.L3:
  64 0038 4885ED   		testq	%rbp, %rbp
  65 003b 7408     		je	.L6
  66 003d 4889EF   		movq	%rbp, %rdi
  67 0040 E8000000 		call	_ZdlPv@PLT
  67      00
  68              	.L6:
  69 0045 498B7C24 		movq	64(%r12), %rdi
  69      40
  70 004a 498D4424 		leaq	80(%r12), %rax
  70      50
  71 004f 4839C7   		cmpq	%rax, %rdi
  72 0052 7405     		je	.L7
  73 0054 E8000000 		call	_ZdlPv@PLT
  73      00
  74              	.L7:
  75 0059 498B7C24 		movq	32(%r12), %rdi
  75      20
  76 005e 498D4424 		leaq	48(%r12), %rax
  76      30
  77 0063 4839C7   		cmpq	%rax, %rdi
  78 0066 7405     		je	.L8
  79 0068 E8000000 		call	_ZdlPv@PLT
  79      00
  80              	.L8:
  81 006d 498B3C24 		movq	(%r12), %rdi
  82 0071 4983C410 		addq	$16, %r12
  83 0075 4C39E7   		cmpq	%r12, %rdi
  84 0078 740E     		je	.L2
  85 007a 5B       		popq	%rbx
  86              		.cfi_remember_state
  87              		.cfi_def_cfa_offset 24
  88 007b 5D       		popq	%rbp
  89              		.cfi_def_cfa_offset 16
  90 007c 415C     		popq	%r12
  91              		.cfi_def_cfa_offset 8
  92 007e E9000000 		jmp	_ZdlPv@PLT
  92      00
  93              		.p2align 4,,10
  94 0083 0F1F4400 		.p2align 3
  94      00
  95              	.L2:
  96              		.cfi_restore_state
  97 0088 5B       		popq	%rbx
  98              		.cfi_def_cfa_offset 24
  99 0089 5D       		popq	%rbp
 100              		.cfi_def_cfa_offset 16
 101 008a 415C     		popq	%r12
 102              		.cfi_def_cfa_offset 8
 103 008c C3       		ret
 104              		.cfi_endproc
 105              	.LFE895:
 107              		.section	.text.unlikely._ZN8UnitTest18DeferredTestResultD2Ev,"axG",@progbits,_ZN8UnitTest18Deferre
 108              	.LCOLDE1:
 109              		.section	.text._ZN8UnitTest18DeferredTestResultD2Ev,"axG",@progbits,_ZN8UnitTest18DeferredTestResu
 110              	.LHOTE1:
 111              		.weak	_ZN8UnitTest18DeferredTestResultD1Ev
 112              		.set	_ZN8UnitTest18DeferredTestResultD1Ev,_ZN8UnitTest18DeferredTestResultD2Ev
 113              		.section	.text.unlikely
 114              		.align 2
 115              	.LCOLDB2:
 116              		.text
 117              	.LHOTB2:
 118              		.align 2
 119 000a 660F1F44 		.p2align 4,,15
 119      0000
 120              		.globl	_ZN8UnitTest20DeferredTestReporter10GetResultsEv
 122              	_ZN8UnitTest20DeferredTestReporter10GetResultsEv:
 123              	.LFB902:
 124              		.cfi_startproc
 125 0010 488D4708 		leaq	8(%rdi), %rax
 126 0014 C3       		ret
 127              		.cfi_endproc
 128              	.LFE902:
 130              		.section	.text.unlikely
 131              	.LCOLDE2:
 132              		.text
 133              	.LHOTE2:
 134              		.section	.rodata.str1.8,"aMS",@progbits,1
 135              		.align 8
 136              	.LC3:
 137 0000 62617369 		.string	"basic_string::_M_construct null not valid"
 137      635F7374 
 137      72696E67 
 137      3A3A5F4D 
 137      5F636F6E 
 138              		.section	.text.unlikely._ZNSt6vectorISt4pairIiNSt7__cxx1112basic_stringIcSt11char_traitsIcESaIcEEE
 139              		.align 2
 140              	.LCOLDB4:
 141              		.section	.text._ZNSt6vectorISt4pairIiNSt7__cxx1112basic_stringIcSt11char_traitsIcESaIcEEEESaIS7_EE
 142              	.LHOTB4:
 143              		.align 2
 144              		.p2align 4,,15
 145              		.weak	_ZNSt6vectorISt4pairIiNSt7__cxx1112basic_stringIcSt11char_traitsIcESaIcEEEESaIS7_EE13_M_inse
 147              	_ZNSt6vectorISt4pairIiNSt7__cxx1112basic_stringIcSt11char_traitsIcESaIcEEEESaIS7_EE13_M_insert_auxE
 148              	.LFB964:
 149              		.cfi_startproc
 150              		.cfi_personality 0x9b,DW.ref.__gxx_personality_v0
 151              		.cfi_lsda 0x1b,.LLSDA964
 152 0000 4157     		pushq	%r15
 153              		.cfi_def_cfa_offset 16
 154              		.cfi_offset 15, -16
 155 0002 4156     		pushq	%r14
 156              		.cfi_def_cfa_offset 24
 157              		.cfi_offset 14, -24
 158 0004 4989D7   		movq	%rdx, %r15
 159 0007 4155     		pushq	%r13
 160              		.cfi_def_cfa_offset 32
 161              		.cfi_offset 13, -32
 162 0009 4154     		pushq	%r12
 163              		.cfi_def_cfa_offset 40
 164              		.cfi_offset 12, -40
 165 000b 4989FE   		movq	%rdi, %r14
 166 000e 55       		pushq	%rbp
 167              		.cfi_def_cfa_offset 48
 168              		.cfi_offset 6, -48
 169 000f 53       		pushq	%rbx
 170              		.cfi_def_cfa_offset 56
 171              		.cfi_offset 3, -56
 172 0010 4889F3   		movq	%rsi, %rbx
 173 0013 4881EC88 		subq	$136, %rsp
 173      000000
 174              		.cfi_def_cfa_offset 192
 175 001a 488B6F08 		movq	8(%rdi), %rbp
 176 001e 64488B04 		movq	%fs:40, %rax
 176      25280000 
 176      00
 177 0027 48894424 		movq	%rax, 120(%rsp)
 177      78
 178 002c 31C0     		xorl	%eax, %eax
 179 002e 483B6F10 		cmpq	16(%rdi), %rbp
 180 0032 0F840D02 		je	.L18
 180      0000
 181 0038 4885ED   		testq	%rbp, %rbp
 182 003b 7462     		je	.L19
 183 003d 8B45D8   		movl	-40(%rbp), %eax
 184 0040 4C8B6DE0 		movq	-32(%rbp), %r13
 185 0044 488D7D18 		leaq	24(%rbp), %rdi
 186 0048 4C8B65E8 		movq	-24(%rbp), %r12
 187 004c 48897D08 		movq	%rdi, 8(%rbp)
 188 0050 894500   		movl	%eax, 0(%rbp)
 189 0053 4C89E8   		movq	%r13, %rax
 190 0056 4C01E0   		addq	%r12, %rax
 191 0059 7415     		je	.L22
 192 005b 4D85ED   		testq	%r13, %r13
 193 005e 7510     		jne	.L22
 194              	.L20:
 195 0060 488D3D00 		leaq	.LC3(%rip), %rdi
 195      000000
 196              	.LEHB0:
 197 0067 E8000000 		call	_ZSt19__throw_logic_errorPKc@PLT
 197      00
 198              	.LEHE0:
 199 006c 0F1F4000 		.p2align 4,,10
 200              		.p2align 3
 201              	.L22:
 202 0070 4983FC0F 		cmpq	$15, %r12
 203 0074 4C896424 		movq	%r12, 72(%rsp)
 203      48
 204 0079 0F876101 		ja	.L203
 204      0000
 205 007f 4983FC01 		cmpq	$1, %r12
 206 0083 0F84AF01 		je	.L204
 206      0000
 207 0089 4D85E4   		testq	%r12, %r12
 208 008c 0F856E01 		jne	.L23
 208      0000
 209              	.L25:
 210 0092 4C896510 		movq	%r12, 16(%rbp)
 211 0096 42C60427 		movb	$0, (%rdi,%r12)
 211      00
 212 009b 498B6E08 		movq	8(%r14), %rbp
 213              	.L19:
 214 009f 418B07   		movl	(%r15), %eax
 215 00a2 4883C528 		addq	$40, %rbp
 216 00a6 4C8D6424 		leaq	80(%rsp), %r12
 216      50
 217 00ab 49896E08 		movq	%rbp, 8(%r14)
 218 00af 4D8B6F08 		movq	8(%r15), %r13
 219 00b3 498B6F10 		movq	16(%r15), %rbp
 220 00b7 89442450 		movl	%eax, 80(%rsp)
 221 00bb 498D4424 		leaq	24(%r12), %rax
 221      18
 222 00c0 48894424 		movq	%rax, 88(%rsp)
 222      58
 223 00c5 4C89E8   		movq	%r13, %rax
 224 00c8 4801E8   		addq	%rbp, %rax
 225 00cb 7405     		je	.L27
 226 00cd 4D85ED   		testq	%r13, %r13
 227 00d0 748E     		je	.L20
 228              	.L27:
 229 00d2 4883FD0F 		cmpq	$15, %rbp
 230 00d6 48896C24 		movq	%rbp, 72(%rsp)
 230      48
 231 00db 0F87BF00 		ja	.L205
 231      0000
 232 00e1 4883FD01 		cmpq	$1, %rbp
 233 00e5 0F843501 		je	.L206
 233      0000
 234 00eb 4885ED   		testq	%rbp, %rbp
 235 00ee 498D4424 		leaq	24(%r12), %rax
 235      18
 236 00f3 0F855B04 		jne	.L207
 236      0000
 237              	.L30:
 238 00f9 48896C24 		movq	%rbp, 96(%rsp)
 238      60
 239 00fe C6042800 		movb	$0, (%rax,%rbp)
 240 0102 48B9CDCC 		movabsq	$-3689348814741910323, %rcx
 240      CCCCCCCC 
 240      CCCC
 241 010c 498B4608 		movq	8(%r14), %rax
 242 0110 488D50B0 		leaq	-80(%rax), %rdx
 243 0114 4829DA   		subq	%rbx, %rdx
 244 0117 4889D6   		movq	%rdx, %rsi
 245 011a 48C1FE03 		sarq	$3, %rsi
 246 011e 480FAFCE 		imulq	%rsi, %rcx
 247 0122 4885C9   		testq	%rcx, %rcx
 248 0125 7E2B     		jle	.L33
 249 0127 488D78B8 		leaq	-72(%rax), %rdi
 250 012b 4829D0   		subq	%rdx, %rax
 251 012e 4C8D68B8 		leaq	-72(%rax), %r13
 252              		.p2align 4,,10
 253 0132 660F1F44 		.p2align 3
 253      0000
 254              	.L34:
 255 0138 8B47D0   		movl	-48(%rdi), %eax
 256 013b 488D6FD8 		leaq	-40(%rdi), %rbp
 257 013f 4889EE   		movq	%rbp, %rsi
 258 0142 8947F8   		movl	%eax, -8(%rdi)
 259              	.LEHB1:
 260 0145 E8000000 		call	_ZNSt7__cxx1112basic_stringIcSt11char_traitsIcESaIcEE9_M_assignERKS4_@PLT
 260      00
 261 014a 4939ED   		cmpq	%rbp, %r13
 262 014d 4889EF   		movq	%rbp, %rdi
 263 0150 75E6     		jne	.L34
 264              	.L33:
 265 0152 8B442450 		movl	80(%rsp), %eax
 266 0156 498D7424 		leaq	8(%r12), %rsi
 266      08
 267 015b 488D7B08 		leaq	8(%rbx), %rdi
 268 015f 8903     		movl	%eax, (%rbx)
 269 0161 E8000000 		call	_ZNSt7__cxx1112basic_stringIcSt11char_traitsIcESaIcEE9_M_assignERKS4_@PLT
 269      00
 270              	.LEHE1:
 271 0166 488B7C24 		movq	88(%rsp), %rdi
 271      58
 272 016b 4983C418 		addq	$24, %r12
 273 016f 4C39E7   		cmpq	%r12, %rdi
 274 0172 7405     		je	.L17
 275 0174 E8000000 		call	_ZdlPv@PLT
 275      00
 276              	.L17:
 277 0179 488B4424 		movq	120(%rsp), %rax
 277      78
 278 017e 64483304 		xorq	%fs:40, %rax
 278      25280000 
 278      00
 279 0187 0F856604 		jne	.L208
 279      0000
 280 018d 4881C488 		addq	$136, %rsp
 280      000000
 281              		.cfi_remember_state
 282              		.cfi_def_cfa_offset 56
 283 0194 5B       		popq	%rbx
 284              		.cfi_def_cfa_offset 48
 285 0195 5D       		popq	%rbp
 286              		.cfi_def_cfa_offset 40
 287 0196 415C     		popq	%r12
 288              		.cfi_def_cfa_offset 32
 289 0198 415D     		popq	%r13
 290              		.cfi_def_cfa_offset 24
 291 019a 415E     		popq	%r14
 292              		.cfi_def_cfa_offset 16
 293 019c 415F     		popq	%r15
 294              		.cfi_def_cfa_offset 8
 295 019e C3       		ret
 296 019f 90       		.p2align 4,,10
 297              		.p2align 3
 298              	.L205:
 299              		.cfi_restore_state
 300 01a0 498D7C24 		leaq	8(%r12), %rdi
 300      08
 301 01a5 488D7424 		leaq	72(%rsp), %rsi
 301      48
 302 01aa 31D2     		xorl	%edx, %edx
 303              	.LEHB2:
 304 01ac E8000000 		call	_ZNSt7__cxx1112basic_stringIcSt11char_traitsIcESaIcEE9_M_createERmm@PLT
 304      00
 305 01b1 4889C7   		movq	%rax, %rdi
 306 01b4 48894424 		movq	%rax, 88(%rsp)
 306      58
 307 01b9 488B4424 		movq	72(%rsp), %rax
 307      48
 308 01be 48894424 		movq	%rax, 104(%rsp)
 308      68
 309              	.L28:
 310 01c3 4889EA   		movq	%rbp, %rdx
 311 01c6 4C89EE   		movq	%r13, %rsi
 312 01c9 E8000000 		call	memcpy@PLT
 312      00
 313 01ce 488B6C24 		movq	72(%rsp), %rbp
 313      48
 314 01d3 488B4424 		movq	88(%rsp), %rax
 314      58
 315 01d8 E91CFFFF 		jmp	.L30
 315      FF
 316 01dd 0F1F00   		.p2align 4,,10
 317              		.p2align 3
 318              	.L203:
 319 01e0 488D7D08 		leaq	8(%rbp), %rdi
 320 01e4 488D7424 		leaq	72(%rsp), %rsi
 320      48
 321 01e9 31D2     		xorl	%edx, %edx
 322 01eb E8000000 		call	_ZNSt7__cxx1112basic_stringIcSt11char_traitsIcESaIcEE9_M_createERmm@PLT
 322      00
 323 01f0 4889C7   		movq	%rax, %rdi
 324 01f3 48894508 		movq	%rax, 8(%rbp)
 325 01f7 488B4424 		movq	72(%rsp), %rax
 325      48
 326 01fc 48894518 		movq	%rax, 24(%rbp)
 327              	.L23:
 328 0200 4C89E2   		movq	%r12, %rdx
 329 0203 4C89EE   		movq	%r13, %rsi
 330 0206 E8000000 		call	memcpy@PLT
 330      00
 331 020b 4C8B6424 		movq	72(%rsp), %r12
 331      48
 332 0210 488B7D08 		movq	8(%rbp), %rdi
 333 0214 E979FEFF 		jmp	.L25
 333      FF
 334 0219 0F1F8000 		.p2align 4,,10
 334      000000
 335              		.p2align 3
 336              	.L206:
 337 0220 410FB645 		movzbl	0(%r13), %eax
 337      00
 338 0225 88442468 		movb	%al, 104(%rsp)
 339 0229 498D4424 		leaq	24(%r12), %rax
 339      18
 340 022e E9C6FEFF 		jmp	.L30
 340      FF
 341              		.p2align 4,,10
 342 0233 0F1F4400 		.p2align 3
 342      00
 343              	.L204:
 344 0238 410FB645 		movzbl	0(%r13), %eax
 344      00
 345 023d 884518   		movb	%al, 24(%rbp)
 346 0240 E94DFEFF 		jmp	.L25
 346      FF
 347              	.L18:
 348 0245 488B17   		movq	(%rdi), %rdx
 349 0248 48B8CDCC 		movabsq	$-3689348814741910323, %rax
 349      CCCCCCCC 
 349      CCCC
 350 0252 4829D5   		subq	%rdx, %rbp
 351 0255 48C1FD03 		sarq	$3, %rbp
 352 0259 480FAFC5 		imulq	%rbp, %rax
 353 025d 4885C0   		testq	%rax, %rax
 354 0260 7567     		jne	.L209
 355 0262 4889F5   		movq	%rsi, %rbp
 356 0265 B9010000 		movl	$1, %ecx
 356      00
 357 026a 4829D5   		subq	%rdx, %rbp
 358              	.L102:
 359 026d 488D0489 		leaq	(%rcx,%rcx,4), %rax
 360 0271 48C1E003 		salq	$3, %rax
 361 0275 48894424 		movq	%rax, 24(%rsp)
 361      18
 362 027a 4889C7   		movq	%rax, %rdi
 363              	.L101:
 364 027d E8000000 		call	_Znwm@PLT
 364      00
 365              	.LEHE2:
 366 0282 48894424 		movq	%rax, 16(%rsp)
 366      10
 367              	.L103:
 368 0287 48036C24 		addq	16(%rsp), %rbp
 368      10
 369 028c 48896C24 		movq	%rbp, 32(%rsp)
 369      20
 370 0291 0F849000 		je	.L40
 370      0000
 371 0297 418B07   		movl	(%r15), %eax
 372 029a 4C8D6D18 		leaq	24(%rbp), %r13
 373 029e 4D8B6708 		movq	8(%r15), %r12
 374 02a2 4C896D08 		movq	%r13, 8(%rbp)
 375 02a6 894500   		movl	%eax, 0(%rbp)
 376 02a9 498B6F10 		movq	16(%r15), %rbp
 377 02ad 4C89E1   		movq	%r12, %rcx
 378 02b0 4C89E8   		movq	%r13, %rax
 379 02b3 4801E9   		addq	%rbp, %rcx
 380 02b6 7440     		je	.L43
 381 02b8 4D85E4   		testq	%r12, %r12
 382 02bb 753B     		jne	.L43
 383 02bd 488D3D00 		leaq	.LC3(%rip), %rdi
 383      000000
 384              	.LEHB3:
 385 02c4 E8000000 		call	_ZSt19__throw_logic_errorPKc@PLT
 385      00
 386              	.LEHE3:
 387              	.L209:
 388 02c9 488D0C00 		leaq	(%rax,%rax), %rcx
 389 02cd 4839C8   		cmpq	%rcx, %rax
 390 02d0 0F86B203 		jbe	.L210
 390      0000
 391              	.L38:
 392 02d6 4889DD   		movq	%rbx, %rbp
 393 02d9 48C74424 		movq	$-16, 24(%rsp)
 393      18F0FFFF 
 393      FF
 394 02e2 488B7C24 		movq	24(%rsp), %rdi
 394      18
 395 02e7 4829D5   		subq	%rdx, %rbp
 396 02ea EB91     		jmp	.L101
 397              	.L123:
 398 02ec E9D00300 		jmp	.L110
 398      00
 399              		.p2align 4,,10
 400 02f1 0F1F8000 		.p2align 3
 400      000000
 401              	.L43:
 402 02f8 4883FD0F 		cmpq	$15, %rbp
 403 02fc 48896C24 		movq	%rbp, 56(%rsp)
 403      38
 404 0301 0F875502 		ja	.L211
 404      0000
 405 0307 4883FD01 		cmpq	$1, %rbp
 406 030b 0F848E02 		je	.L212
 406      0000
 407 0311 4885ED   		testq	%rbp, %rbp
 408 0314 0F856402 		jne	.L44
 408      0000
 409              	.L46:
 410 031a 488B4C24 		movq	32(%rsp), %rcx
 410      20
 411 031f 48896910 		movq	%rbp, 16(%rcx)
 412 0323 C6042800 		movb	$0, (%rax,%rbp)
 413              	.L40:
 414 0327 4D8B2E   		movq	(%r14), %r13
 415 032a 488B6C24 		movq	16(%rsp), %rbp
 415      10
 416 032f 4C39EB   		cmpq	%r13, %rbx
 417 0332 0F848800 		je	.L47
 417      0000
 418 0338 488D4424 		leaq	64(%rsp), %rax
 418      40
 419 033d 48894424 		movq	%rax, 8(%rsp)
 419      08
 420              		.p2align 4,,10
 421 0342 660F1F44 		.p2align 3
 421      0000
 422              	.L55:
 423 0348 4885ED   		testq	%rbp, %rbp
 424 034b 7466     		je	.L48
 425 034d 488D7D18 		leaq	24(%rbp), %rdi
 426 0351 418B4500 		movl	0(%r13), %eax
 427 0355 4D8B6510 		movq	16(%r13), %r12
 428 0359 48897D08 		movq	%rdi, 8(%rbp)
 429 035d 4D8B7D08 		movq	8(%r13), %r15
 430 0361 894500   		movl	%eax, 0(%rbp)
 431 0364 4C89F8   		movq	%r15, %rax
 432 0367 4C01E0   		addq	%r12, %rax
 433 036a 741C     		je	.L51
 434 036c 4D85FF   		testq	%r15, %r15
 435 036f 7517     		jne	.L51
 436 0371 488D3D00 		leaq	.LC3(%rip), %rdi
 436      000000
 437              	.LEHB4:
 438 0378 E8000000 		call	_ZSt19__throw_logic_errorPKc@PLT
 438      00
 439              	.LEHE4:
 440 037d 0F1F00   		.p2align 4,,10
 441              		.p2align 3
 442              	.L120:
 443 0380 E9340200 		jmp	.L58
 443      00
 444              		.p2align 4,,10
 445 0385 0F1F00   		.p2align 3
 446              	.L51:
 447 0388 4983FC0F 		cmpq	$15, %r12
 448 038c 4C896424 		movq	%r12, 64(%rsp)
 448      40
 449 0391 0F872101 		ja	.L213
 449      0000
 450 0397 4983FC01 		cmpq	$1, %r12
 451 039b 0F849701 		je	.L214
 451      0000
 452 03a1 4D85E4   		testq	%r12, %r12
 453 03a4 0F852E01 		jne	.L52
 453      0000
 454              	.L54:
 455 03aa 4C896510 		movq	%r12, 16(%rbp)
 456 03ae 42C60427 		movb	$0, (%rdi,%r12)
 456      00
 457              	.L48:
 458 03b3 4983C528 		addq	$40, %r13
 459 03b7 4883C528 		addq	$40, %rbp
 460 03bb 4C39EB   		cmpq	%r13, %rbx
 461 03be 7588     		jne	.L55
 462              	.L47:
 463 03c0 4D8B6E08 		movq	8(%r14), %r13
 464 03c4 488D4528 		leaq	40(%rbp), %rax
 465 03c8 48894424 		movq	%rax, 40(%rsp)
 465      28
 466 03cd 4C39EB   		cmpq	%r13, %rbx
 467 03d0 0F84DB01 		je	.L215
 467      0000
 468 03d6 4889C5   		movq	%rax, %rbp
 469 03d9 488D4424 		leaq	72(%rsp), %rax
 469      48
 470 03de 48894424 		movq	%rax, 8(%rsp)
 470      08
 471              		.p2align 4,,10
 472 03e3 0F1F4400 		.p2align 3
 472      00
 473              	.L72:
 474 03e8 4885ED   		testq	%rbp, %rbp
 475 03eb 7466     		je	.L65
 476 03ed 8B03     		movl	(%rbx), %eax
 477 03ef 4C8B7B08 		movq	8(%rbx), %r15
 478 03f3 488D7D18 		leaq	24(%rbp), %rdi
 479 03f7 4C8B6310 		movq	16(%rbx), %r12
 480 03fb 48897D08 		movq	%rdi, 8(%rbp)
 481 03ff 894500   		movl	%eax, 0(%rbp)
 482 0402 4C89F8   		movq	%r15, %rax
 483 0405 4C01E0   		addq	%r12, %rax
 484 0408 741E     		je	.L68
 485 040a 4D85FF   		testq	%r15, %r15
 486 040d 7519     		jne	.L68
 487 040f 488D3D00 		leaq	.LC3(%rip), %rdi
 487      000000
 488              	.LEHB5:
 489 0416 E8000000 		call	_ZSt19__throw_logic_errorPKc@PLT
 489      00
 490              	.LEHE5:
 491 041b 0F1F4400 		.p2align 4,,10
 491      00
 492              		.p2align 3
 493              	.L122:
 494 0420 E92E0200 		jmp	.L75
 494      00
 495              		.p2align 4,,10
 496 0425 0F1F00   		.p2align 3
 497              	.L68:
 498 0428 4983FC0F 		cmpq	$15, %r12
 499 042c 4C896424 		movq	%r12, 72(%rsp)
 499      48
 500 0431 0F87C100 		ja	.L216
 500      0000
 501 0437 4983FC01 		cmpq	$1, %r12
 502 043b 0F840701 		je	.L217
 502      0000
 503 0441 4D85E4   		testq	%r12, %r12
 504 0444 0F85CE00 		jne	.L69
 504      0000
 505              	.L71:
 506 044a 4C896510 		movq	%r12, 16(%rbp)
 507 044e 42C60427 		movb	$0, (%rdi,%r12)
 507      00
 508              	.L65:
 509 0453 4883C328 		addq	$40, %rbx
 510 0457 4883C528 		addq	$40, %rbp
 511 045b 4939DD   		cmpq	%rbx, %r13
 512 045e 7588     		jne	.L72
 513 0460 4D8B6E08 		movq	8(%r14), %r13
 514              	.L56:
 515 0464 498B1E   		movq	(%r14), %rbx
 516 0467 4C39EB   		cmpq	%r13, %rbx
 517 046a 7422     		je	.L73
 518 046c 0F1F4000 		.p2align 4,,10
 519              		.p2align 3
 520              	.L84:
 521 0470 488B7B08 		movq	8(%rbx), %rdi
 522 0474 488D4318 		leaq	24(%rbx), %rax
 523 0478 4839C7   		cmpq	%rax, %rdi
 524 047b 7405     		je	.L83
 525 047d E8000000 		call	_ZdlPv@PLT
 525      00
 526              	.L83:
 527 0482 4883C328 		addq	$40, %rbx
 528 0486 4C39EB   		cmpq	%r13, %rbx
 529 0489 75E5     		jne	.L84
 530 048b 4D8B2E   		movq	(%r14), %r13
 531              	.L73:
 532 048e 4D85ED   		testq	%r13, %r13
 533 0491 7408     		je	.L85
 534 0493 4C89EF   		movq	%r13, %rdi
 535 0496 E8000000 		call	_ZdlPv@PLT
 535      00
 536              	.L85:
 537 049b 488B4424 		movq	16(%rsp), %rax
 537      10
 538 04a0 49896E08 		movq	%rbp, 8(%r14)
 539 04a4 498906   		movq	%rax, (%r14)
 540 04a7 48034424 		addq	24(%rsp), %rax
 540      18
 541 04ac 49894610 		movq	%rax, 16(%r14)
 542 04b0 E9C4FCFF 		jmp	.L17
 542      FF
 543              		.p2align 4,,10
 544 04b5 0F1F00   		.p2align 3
 545              	.L213:
 546 04b8 488B7424 		movq	8(%rsp), %rsi
 546      08
 547 04bd 488D7D08 		leaq	8(%rbp), %rdi
 548 04c1 31D2     		xorl	%edx, %edx
 549              	.LEHB6:
 550 04c3 E8000000 		call	_ZNSt7__cxx1112basic_stringIcSt11char_traitsIcESaIcEE9_M_createERmm@PLT
 550      00
 551              	.LEHE6:
 552 04c8 4889C7   		movq	%rax, %rdi
 553 04cb 48894508 		movq	%rax, 8(%rbp)
 554 04cf 488B4424 		movq	64(%rsp), %rax
 554      40
 555 04d4 48894518 		movq	%rax, 24(%rbp)
 556              	.L52:
 557 04d8 4C89E2   		movq	%r12, %rdx
 558 04db 4C89FE   		movq	%r15, %rsi
 559 04de E8000000 		call	memcpy@PLT
 559      00
 560 04e3 4C8B6424 		movq	64(%rsp), %r12
 560      40
 561 04e8 488B7D08 		movq	8(%rbp), %rdi
 562 04ec E9B9FEFF 		jmp	.L54
 562      FF
 563              		.p2align 4,,10
 564 04f1 0F1F8000 		.p2align 3
 564      000000
 565              	.L216:
 566 04f8 488B7424 		movq	8(%rsp), %rsi
 566      08
 567 04fd 488D7D08 		leaq	8(%rbp), %rdi
 568 0501 31D2     		xorl	%edx, %edx
 569              	.LEHB7:
 570 0503 E8000000 		call	_ZNSt7__cxx1112basic_stringIcSt11char_traitsIcESaIcEE9_M_createERmm@PLT
 570      00
 571              	.LEHE7:
 572 0508 4889C7   		movq	%rax, %rdi
 573 050b 48894508 		movq	%rax, 8(%rbp)
 574 050f 488B4424 		movq	72(%rsp), %rax
 574      48
 575 0514 48894518 		movq	%rax, 24(%rbp)
 576              	.L69:
 577 0518 4C89E2   		movq	%r12, %rdx
 578 051b 4C89FE   		movq	%r15, %rsi
 579 051e E8000000 		call	memcpy@PLT
 579      00
 580 0523 4C8B6424 		movq	72(%rsp), %r12
 580      48
 581 0528 488B7D08 		movq	8(%rbp), %rdi
 582 052c E919FFFF 		jmp	.L71
 582      FF
 583              		.p2align 4,,10
 584 0531 0F1F8000 		.p2align 3
 584      000000
 585              	.L214:
 586 0538 410FB607 		movzbl	(%r15), %eax
 587 053c 884518   		movb	%al, 24(%rbp)
 588 053f E966FEFF 		jmp	.L54
 588      FF
 589              		.p2align 4,,10
 590 0544 0F1F4000 		.p2align 3
 591              	.L217:
 592 0548 410FB607 		movzbl	(%r15), %eax
 593 054c 884518   		movb	%al, 24(%rbp)
 594 054f E9F6FEFF 		jmp	.L71
 594      FF
 595              	.L207:
 596 0554 4889C7   		movq	%rax, %rdi
 597 0557 E967FCFF 		jmp	.L28
 597      FF
 598              	.L211:
 599 055c 4C8B7C24 		movq	32(%rsp), %r15
 599      20
 600 0561 488D7424 		leaq	56(%rsp), %rsi
 600      38
 601 0566 31D2     		xorl	%edx, %edx
 602 0568 498D7F08 		leaq	8(%r15), %rdi
 603              	.LEHB8:
 604 056c E8000000 		call	_ZNSt7__cxx1112basic_stringIcSt11char_traitsIcESaIcEE9_M_createERmm@PLT
 604      00
 605              	.LEHE8:
 606 0571 488B5424 		movq	56(%rsp), %rdx
 606      38
 607 0576 49894708 		movq	%rax, 8(%r15)
 608 057a 49895718 		movq	%rdx, 24(%r15)
 609              	.L44:
 610 057e 4889EA   		movq	%rbp, %rdx
 611 0581 4C89E6   		movq	%r12, %rsi
 612 0584 4889C7   		movq	%rax, %rdi
 613 0587 E8000000 		call	memcpy@PLT
 613      00
 614 058c 488B4424 		movq	32(%rsp), %rax
 614      20
 615 0591 488B6C24 		movq	56(%rsp), %rbp
 615      38
 616 0596 488B4008 		movq	8(%rax), %rax
 617 059a E97BFDFF 		jmp	.L46
 617      FF
 618              	.L212:
 619 059f 410FB614 		movzbl	(%r12), %edx
 619      24
 620 05a4 488B4C24 		movq	32(%rsp), %rcx
 620      20
 621 05a9 885118   		movb	%dl, 24(%rcx)
 622 05ac E969FDFF 		jmp	.L46
 622      FF
 623              	.L215:
 624 05b1 4889C5   		movq	%rax, %rbp
 625 05b4 E9ABFEFF 		jmp	.L56
 625      FF
 626              	.L58:
 627 05b9 4889C7   		movq	%rax, %rdi
 628 05bc E8000000 		call	__cxa_begin_catch@PLT
 628      00
 629 05c1 488B4424 		movq	16(%rsp), %rax
 629      10
 630 05c6 4839E8   		cmpq	%rbp, %rax
 631 05c9 4889C3   		movq	%rax, %rbx
 632 05cc 741B     		je	.L61
 633              	.L162:
 634 05ce 488B7B08 		movq	8(%rbx), %rdi
 635 05d2 488D4318 		leaq	24(%rbx), %rax
 636 05d6 4839C7   		cmpq	%rax, %rdi
 637 05d9 7405     		je	.L60
 638 05db E8000000 		call	_ZdlPv@PLT
 638      00
 639              	.L60:
 640 05e0 4883C328 		addq	$40, %rbx
 641 05e4 4839EB   		cmpq	%rbp, %rbx
 642 05e7 75E5     		jne	.L162
 643              	.L61:
 644              	.LEHB9:
 645 05e9 E8000000 		call	__cxa_rethrow@PLT
 645      00
 646              	.LEHE9:
 647              	.L117:
 648 05ee 4889C3   		movq	%rax, %rbx
 649 05f1 EB0A     		jmp	.L86
 650              	.L208:
 651 05f3 E8000000 		call	__stack_chk_fail@PLT
 651      00
 652              	.L119:
 653 05f8 4889C3   		movq	%rax, %rbx
 654 05fb EB1B     		jmp	.L63
 655              	.L86:
 656 05fd 488B7C24 		movq	88(%rsp), %rdi
 656      58
 657 0602 4983C418 		addq	$24, %r12
 658 0606 4C39E7   		cmpq	%r12, %rdi
 659 0609 7405     		je	.L194
 660 060b E8000000 		call	_ZdlPv@PLT
 660      00
 661              	.L194:
 662 0610 4889DF   		movq	%rbx, %rdi
 663              	.LEHB10:
 664 0613 E8000000 		call	_Unwind_Resume@PLT
 664      00
 665              	.LEHE10:
 666              	.L63:
 667 0618 E8000000 		call	__cxa_end_catch@PLT
 667      00
 668 061d 4889DF   		movq	%rbx, %rdi
 669 0620 E8000000 		call	__cxa_begin_catch@PLT
 669      00
 670 0625 488B4424 		movq	32(%rsp), %rax
 670      20
 671 062a 4C8D6818 		leaq	24(%rax), %r13
 672              	.L64:
 673 062e 488B7808 		movq	8(%rax), %rdi
 674 0632 4C39EF   		cmpq	%r13, %rdi
 675 0635 7405     		je	.L91
 676 0637 E8000000 		call	_ZdlPv@PLT
 676      00
 677              	.L91:
 678 063c 48837C24 		cmpq	$0, 16(%rsp)
 678      1000
 679 0642 740A     		je	.L95
 680              	.L111:
 681 0644 488B7C24 		movq	16(%rsp), %rdi
 681      10
 682 0649 E8000000 		call	_ZdlPv@PLT
 682      00
 683              	.L95:
 684              	.LEHB11:
 685 064e E8000000 		call	__cxa_rethrow@PLT
 685      00
 686              	.LEHE11:
 687              	.L75:
 688 0653 4889C7   		movq	%rax, %rdi
 689 0656 E8000000 		call	__cxa_begin_catch@PLT
 689      00
 690 065b 488B4424 		movq	40(%rsp), %rax
 690      28
 691 0660 4839E8   		cmpq	%rbp, %rax
 692 0663 4889C3   		movq	%rax, %rbx
 693 0666 741B     		je	.L78
 694              	.L163:
 695 0668 488B7B08 		movq	8(%rbx), %rdi
 696 066c 488D4318 		leaq	24(%rbx), %rax
 697 0670 4839C7   		cmpq	%rax, %rdi
 698 0673 7405     		je	.L77
 699 0675 E8000000 		call	_ZdlPv@PLT
 699      00
 700              	.L77:
 701 067a 4883C328 		addq	$40, %rbx
 702 067e 4839DD   		cmpq	%rbx, %rbp
 703 0681 75E5     		jne	.L163
 704              	.L78:
 705              	.LEHB12:
 706 0683 E8000000 		call	__cxa_rethrow@PLT
 706      00
 707              	.LEHE12:
 708              	.L210:
 709 0688 48B86666 		movabsq	$461168601842738790, %rax
 709      66666666 
 709      6606
 710 0692 4839C1   		cmpq	%rax, %rcx
 711 0695 0F873BFC 		ja	.L38
 711      FFFF
 712 069b 4889F5   		movq	%rsi, %rbp
 713 069e 4829D5   		subq	%rdx, %rbp
 714 06a1 4885C9   		testq	%rcx, %rcx
 715 06a4 0F85C3FB 		jne	.L102
 715      FFFF
 716 06aa 48C74424 		movq	$0, 24(%rsp)
 716      18000000 
 716      00
 717 06b3 48C74424 		movq	$0, 16(%rsp)
 717      10000000 
 717      00
 718 06bc E9C6FBFF 		jmp	.L103
 718      FF
 719              	.L88:
 720              	.L110:
 721 06c1 4889C7   		movq	%rax, %rdi
 722 06c4 E8000000 		call	__cxa_begin_catch@PLT
 722      00
 723 06c9 48837C24 		cmpq	$0, 16(%rsp)
 723      1000
 724 06cf 488B4424 		movq	32(%rsp), %rax
 724      20
 725 06d4 0F856AFF 		jne	.L111
 725      FFFF
 726 06da E94FFFFF 		jmp	.L64
 726      FF
 727              	.L118:
 728 06df 4889C3   		movq	%rax, %rbx
 729 06e2 EB07     		jmp	.L96
 730              	.L124:
 731 06e4 EBDB     		jmp	.L88
 732              	.L121:
 733 06e6 4889C3   		movq	%rax, %rbx
 734 06e9 EB0A     		jmp	.L80
 735              	.L96:
 736 06eb E8000000 		call	__cxa_end_catch@PLT
 736      00
 737 06f0 E91BFFFF 		jmp	.L194
 737      FF
 738              	.L80:
 739 06f5 E8000000 		call	__cxa_end_catch@PLT
 739      00
 740 06fa 4889DF   		movq	%rbx, %rdi
 741 06fd E8000000 		call	__cxa_begin_catch@PLT
 741      00
 742 0702 48837C24 		cmpq	$0, 40(%rsp)
 742      2800
 743 0708 7435     		je	.L218
 744 070a 488B4424 		movq	16(%rsp), %rax
 744      10
 745 070f 48394424 		cmpq	%rax, 40(%rsp)
 745      28
 746 0714 4889C3   		movq	%rax, %rbx
 747 0717 0F841FFF 		je	.L91
 747      FFFF
 748              	.L164:
 749 071d 488B7B08 		movq	8(%rbx), %rdi
 750 0721 488D4318 		leaq	24(%rbx), %rax
 751 0725 4839C7   		cmpq	%rax, %rdi
 752 0728 7405     		je	.L93
 753 072a E8000000 		call	_ZdlPv@PLT
 753      00
 754              	.L93:
 755 072f 4883C328 		addq	$40, %rbx
 756 0733 48395C24 		cmpq	%rbx, 40(%rsp)
 756      28
 757 0738 75E3     		jne	.L164
 758 073a E9FDFEFF 		jmp	.L91
 758      FF
 759              	.L218:
 760 073f 488B4424 		movq	32(%rsp), %rax
 760      20
 761 0744 4C8D6818 		leaq	24(%rax), %r13
 762 0748 E9E1FEFF 		jmp	.L64
 762      FF
 763              		.cfi_endproc
 764              	.LFE964:
 765              		.globl	__gxx_personality_v0
 766              		.section	.gcc_except_table._ZNSt6vectorISt4pairIiNSt7__cxx1112basic_stringIcSt11char_traitsIcESaIc
 767              		.align 4
 768              	.LLSDA964:
 769 0000 FF       		.byte	0xff
 770 0001 9B       		.byte	0x9b
 771 0002 55       		.uleb128 .LLSDATT964-.LLSDATTD964
 772              	.LLSDATTD964:
 773 0003 01       		.byte	0x1
 774 0004 4B       		.uleb128 .LLSDACSE964-.LLSDACSB964
 775              	.LLSDACSB964:
 776 0005 67       		.uleb128 .LEHB0-.LFB964
 777 0006 05       		.uleb128 .LEHE0-.LEHB0
 778 0007 00       		.uleb128 0
 779 0008 00       		.uleb128 0
 780 0009 C502     		.uleb128 .LEHB1-.LFB964
 781 000b 21       		.uleb128 .LEHE1-.LEHB1
 782 000c EE0B     		.uleb128 .L117-.LFB964
 783 000e 00       		.uleb128 0
 784 000f AC03     		.uleb128 .LEHB2-.LFB964
 785 0011 D601     		.uleb128 .LEHE2-.LEHB2
 786 0013 00       		.uleb128 0
 787 0014 00       		.uleb128 0
 788 0015 C405     		.uleb128 .LEHB3-.LFB964
 789 0017 05       		.uleb128 .LEHE3-.LEHB3
 790 0018 EC05     		.uleb128 .L123-.LFB964
 791 001a 01       		.uleb128 0x1
 792 001b F806     		.uleb128 .LEHB4-.LFB964
 793 001d 05       		.uleb128 .LEHE4-.LEHB4
 794 001e 8007     		.uleb128 .L120-.LFB964
 795 0020 01       		.uleb128 0x1
 796 0021 9608     		.uleb128 .LEHB5-.LFB964
 797 0023 05       		.uleb128 .LEHE5-.LEHB5
 798 0024 A008     		.uleb128 .L122-.LFB964
 799 0026 01       		.uleb128 0x1
 800 0027 C309     		.uleb128 .LEHB6-.LFB964
 801 0029 05       		.uleb128 .LEHE6-.LEHB6
 802 002a 8007     		.uleb128 .L120-.LFB964
 803 002c 01       		.uleb128 0x1
 804 002d 830A     		.uleb128 .LEHB7-.LFB964
 805 002f 05       		.uleb128 .LEHE7-.LEHB7
 806 0030 A008     		.uleb128 .L122-.LFB964
 807 0032 01       		.uleb128 0x1
 808 0033 EC0A     		.uleb128 .LEHB8-.LFB964
 809 0035 05       		.uleb128 .LEHE8-.LEHB8
 810 0036 E40D     		.uleb128 .L124-.LFB964
 811 0038 01       		.uleb128 0x1
 812 0039 E90B     		.uleb128 .LEHB9-.LFB964
 813 003b 05       		.uleb128 .LEHE9-.LEHB9
 814 003c F80B     		.uleb128 .L119-.LFB964
 815 003e 03       		.uleb128 0x3
 816 003f 930C     		.uleb128 .LEHB10-.LFB964
 817 0041 05       		.uleb128 .LEHE10-.LEHB10
 818 0042 00       		.uleb128 0
 819 0043 00       		.uleb128 0
 820 0044 CE0C     		.uleb128 .LEHB11-.LFB964
 821 0046 05       		.uleb128 .LEHE11-.LEHB11
 822 0047 DF0D     		.uleb128 .L118-.LFB964
 823 0049 00       		.uleb128 0
 824 004a 830D     		.uleb128 .LEHB12-.LFB964
 825 004c 05       		.uleb128 .LEHE12-.LEHB12
 826 004d E60D     		.uleb128 .L121-.LFB964
 827 004f 03       		.uleb128 0x3
 828              	.LLSDACSE964:
 829 0050 01       		.byte	0x1
 830 0051 00       		.byte	0
 831 0052 00       		.byte	0
 832 0053 7D       		.byte	0x7d
 833              		.align 4
 834 0054 00000000 		.long	0
 835              	
 836              	.LLSDATT964:
 837              		.section	.text._ZNSt6vectorISt4pairIiNSt7__cxx1112basic_stringIcSt11char_traitsIcESaIcEEEESaIS7_EE
 839              		.section	.text.unlikely._ZNSt6vectorISt4pairIiNSt7__cxx1112basic_stringIcSt11char_traitsIcESaIcEEE
 840              	.LCOLDE4:
 841              		.section	.text._ZNSt6vectorISt4pairIiNSt7__cxx1112basic_stringIcSt11char_traitsIcESaIcEEEESaIS7_EE
 842              	.LHOTE4:
 843              		.section	.text.unlikely
 844              		.align 2
 845              	.LCOLDB5:
 846              		.text
 847              	.LHOTB5:
 848 0015 90       		.align 2
 849 0016 662E0F1F 		.p2align 4,,15
 849      84000000 
 849      0000
 850              		.globl	_ZN8UnitTest20DeferredTestReporter13ReportFailureERKNS_11TestDetailsEPKc
 852              	_ZN8UnitTest20DeferredTestReporter13ReportFailureERKNS_11TestDetailsEPKc:
 853              	.LFB897:
 854              		.cfi_startproc
 855              		.cfi_personality 0x9b,DW.ref.__gxx_personality_v0
 856              		.cfi_lsda 0x1b,.LLSDA897
 857 0020 4157     		pushq	%r15
 858              		.cfi_def_cfa_offset 16
 859              		.cfi_offset 15, -16
 860 0022 4156     		pushq	%r14
 861              		.cfi_def_cfa_offset 24
 862              		.cfi_offset 14, -24
 863 0024 4155     		pushq	%r13
 864              		.cfi_def_cfa_offset 32
 865              		.cfi_offset 13, -32
 866 0026 4154     		pushq	%r12
 867              		.cfi_def_cfa_offset 40
 868              		.cfi_offset 12, -40
 869 0028 55       		pushq	%rbp
 870              		.cfi_def_cfa_offset 48
 871              		.cfi_offset 6, -48
 872 0029 53       		pushq	%rbx
 873              		.cfi_def_cfa_offset 56
 874              		.cfi_offset 3, -56
 875 002a 4883EC78 		subq	$120, %rsp
 876              		.cfi_def_cfa_offset 176
 877 002e 488B6F10 		movq	16(%rdi), %rbp
 878 0032 4C8D7424 		leaq	32(%rsp), %r14
 878      20
 879 0037 64488B04 		movq	%fs:40, %rax
 879      25280000 
 879      00
 880 0040 48894424 		movq	%rax, 104(%rsp)
 880      68
 881 0045 31C0     		xorl	%eax, %eax
 882 0047 4D8D6610 		leaq	16(%r14), %r12
 883 004b 4885D2   		testq	%rdx, %rdx
 884 004e C645FC01 		movb	$1, -4(%rbp)
 885 0052 4C896424 		movq	%r12, 32(%rsp)
 885      20
 886 0057 0F84B302 		je	.L220
 886      0000
 887 005d 4889D7   		movq	%rdx, %rdi
 888 0060 4989D5   		movq	%rdx, %r13
 889 0063 4989F7   		movq	%rsi, %r15
 890 0066 E8000000 		call	strlen@PLT
 890      00
 891 006b 4883F80F 		cmpq	$15, %rax
 892 006f 4889C3   		movq	%rax, %rbx
 893 0072 4889C2   		movq	%rax, %rdx
 894 0075 48894424 		movq	%rax, 24(%rsp)
 894      18
 895 007a 0F87C801 		ja	.L276
 895      0000
 896 0080 4883F801 		cmpq	$1, %rax
 897 0084 0F845602 		je	.L277
 897      0000
 898 008a 4885DB   		testq	%rbx, %rbx
 899 008d 4C89E0   		movq	%r12, %rax
 900 0090 0F85DA02 		jne	.L278
 900      0000
 901              	.L224:
 902 0096 48895424 		movq	%rdx, 40(%rsp)
 902      28
 903 009b C6041000 		movb	$0, (%rax,%rdx)
 904 009f 4C8D6424 		leaq	64(%rsp), %r12
 904      40
 905 00a4 418B4718 		movl	24(%r15), %eax
 906 00a8 4C8B6C24 		movq	32(%rsp), %r13
 906      20
 907 00ad 488B5C24 		movq	40(%rsp), %rbx
 907      28
 908 00b2 89442440 		movl	%eax, 64(%rsp)
 909 00b6 498D4424 		leaq	24(%r12), %rax
 909      18
 910 00bb 48894424 		movq	%rax, 72(%rsp)
 910      48
 911 00c0 4C89E8   		movq	%r13, %rax
 912 00c3 4801D8   		addq	%rbx, %rax
 913 00c6 7418     		je	.L227
 914 00c8 4D85ED   		testq	%r13, %r13
 915 00cb 7513     		jne	.L227
 916 00cd 488D3D00 		leaq	.LC3(%rip), %rdi
 916      000000
 917              	.LEHB13:
 918 00d4 E8000000 		call	_ZSt19__throw_logic_errorPKc@PLT
 918      00
 919              	.LEHE13:
 920 00d9 0F1F8000 		.p2align 4,,10
 920      000000
 921              		.p2align 3
 922              	.L227:
 923 00e0 4883FB0F 		cmpq	$15, %rbx
 924 00e4 48895C24 		movq	%rbx, 16(%rsp)
 924      10
 925 00e9 0F871901 		ja	.L279
 925      0000
 926 00ef 4883FB01 		cmpq	$1, %rbx
 927 00f3 0F84FF01 		je	.L280
 927      0000
 928 00f9 4885DB   		testq	%rbx, %rbx
 929 00fc 498D7C24 		leaq	24(%r12), %rdi
 929      18
 930 0101 0F852401 		jne	.L228
 930      0000
 931              	.L230:
 932 0107 48895C24 		movq	%rbx, 80(%rsp)
 932      50
 933 010c C6041F00 		movb	$0, (%rdi,%rbx)
 934 0110 488B5DE8 		movq	-24(%rbp), %rbx
 935 0114 483B5DF0 		cmpq	-16(%rbp), %rbx
 936 0118 0F840202 		je	.L231
 936      0000
 937 011e 4885DB   		testq	%rbx, %rbx
 938 0121 746C     		je	.L232
 939 0123 8B442440 		movl	64(%rsp), %eax
 940 0127 488D7B18 		leaq	24(%rbx), %rdi
 941 012b 4C8B6C24 		movq	80(%rsp), %r13
 941      50
 942 0130 48897B08 		movq	%rdi, 8(%rbx)
 943 0134 8903     		movl	%eax, (%rbx)
 944 0136 488B4424 		movq	72(%rsp), %rax
 944      48
 945 013b 4889C1   		movq	%rax, %rcx
 946 013e 48894424 		movq	%rax, 8(%rsp)
 946      08
 947 0143 4C01E9   		addq	%r13, %rcx
 948 0146 7418     		je	.L235
 949 0148 4885C0   		testq	%rax, %rax
 950 014b 7513     		jne	.L235
 951 014d 488D3D00 		leaq	.LC3(%rip), %rdi
 951      000000
 952              	.LEHB14:
 953 0154 E8000000 		call	_ZSt19__throw_logic_errorPKc@PLT
 953      00
 954              	.LEHE14:
 955 0159 0F1F8000 		.p2align 4,,10
 955      000000
 956              		.p2align 3
 957              	.L235:
 958 0160 4983FD0F 		cmpq	$15, %r13
 959 0164 4C896C24 		movq	%r13, 24(%rsp)
 959      18
 960 0169 0F871901 		ja	.L281
 960      0000
 961 016f 4983FD01 		cmpq	$1, %r13
 962 0173 0F844F01 		je	.L282
 962      0000
 963 0179 4D85ED   		testq	%r13, %r13
 964 017c 0F852601 		jne	.L236
 964      0000
 965              	.L238:
 966 0182 4C896B10 		movq	%r13, 16(%rbx)
 967 0186 42C6042F 		movb	$0, (%rdi,%r13)
 967      00
 968 018b 488B5DE8 		movq	-24(%rbp), %rbx
 969              	.L232:
 970 018f 4883C328 		addq	$40, %rbx
 971 0193 4C8D6D80 		leaq	-128(%rbp), %r13
 972 0197 48895DE8 		movq	%rbx, -24(%rbp)
 973              	.L239:
 974 019b 488B7C24 		movq	72(%rsp), %rdi
 974      48
 975 01a0 4983C418 		addq	$24, %r12
 976 01a4 4C39E7   		cmpq	%r12, %rdi
 977 01a7 7405     		je	.L240
 978 01a9 E8000000 		call	_ZdlPv@PLT
 978      00
 979              	.L240:
 980 01ae 488B7C24 		movq	32(%rsp), %rdi
 980      20
 981 01b3 4983C610 		addq	$16, %r14
 982 01b7 4C39F7   		cmpq	%r14, %rdi
 983 01ba 7405     		je	.L241
 984 01bc E8000000 		call	_ZdlPv@PLT
 984      00
 985              	.L241:
 986 01c1 498B5F10 		movq	16(%r15), %rbx
 987 01c5 4889DF   		movq	%rbx, %rdi
 988 01c8 E8000000 		call	strlen@PLT
 988      00
 989 01cd 488B55C8 		movq	-56(%rbp), %rdx
 990 01d1 498D7D40 		leaq	64(%r13), %rdi
 991 01d5 31F6     		xorl	%esi, %esi
 992 01d7 4989C0   		movq	%rax, %r8
 993 01da 4889D9   		movq	%rbx, %rcx
 994              	.LEHB15:
 995 01dd E8000000 		call	_ZNSt7__cxx1112basic_stringIcSt11char_traitsIcESaIcEE10_M_replaceEmmPKcm@PLT
 995      00
 996              	.LEHE15:
 997 01e2 488B4424 		movq	104(%rsp), %rax
 997      68
 998 01e7 64483304 		xorq	%fs:40, %rax
 998      25280000 
 998      00
 999 01f0 0F858201 		jne	.L283
 999      0000
 1000 01f6 4883C478 		addq	$120, %rsp
 1001              		.cfi_remember_state
 1002              		.cfi_def_cfa_offset 56
 1003 01fa 5B       		popq	%rbx
 1004              		.cfi_def_cfa_offset 48
 1005 01fb 5D       		popq	%rbp
 1006              		.cfi_def_cfa_offset 40
 1007 01fc 415C     		popq	%r12
 1008              		.cfi_def_cfa_offset 32
 1009 01fe 415D     		popq	%r13
 1010              		.cfi_def_cfa_offset 24
 1011 0200 415E     		popq	%r14
 1012              		.cfi_def_cfa_offset 16
 1013 0202 415F     		popq	%r15
 1014              		.cfi_def_cfa_offset 8
 1015 0204 C3       		ret
 1016              		.p2align 4,,10
 1017 0205 0F1F00   		.p2align 3
 1018              	.L279:
 1019              		.cfi_restore_state
 1020 0208 488D7424 		leaq	16(%rsp), %rsi
 1020      10
 1021 020d 498D7C24 		leaq	8(%r12), %rdi
 1021      08
 1022 0212 31D2     		xorl	%edx, %edx
 1023              	.LEHB16:
 1024 0214 E8000000 		call	_ZNSt7__cxx1112basic_stringIcSt11char_traitsIcESaIcEE9_M_createERmm@PLT
 1024      00
 1025              	.LEHE16:
 1026 0219 4889C7   		movq	%rax, %rdi
 1027 021c 48894424 		movq	%rax, 72(%rsp)
 1027      48
 1028 0221 488B4424 		movq	16(%rsp), %rax
 1028      10
 1029 0226 48894424 		movq	%rax, 88(%rsp)
 1029      58
 1030              	.L228:
 1031 022b 4889DA   		movq	%rbx, %rdx
 1032 022e 4C89EE   		movq	%r13, %rsi
 1033 0231 E8000000 		call	memcpy@PLT
 1033      00
 1034 0236 488B5C24 		movq	16(%rsp), %rbx
 1034      10
 1035 023b 488B7C24 		movq	72(%rsp), %rdi
 1035      48
 1036 0240 E9C2FEFF 		jmp	.L230
 1036      FF
 1037              		.p2align 4,,10
 1038 0245 0F1F00   		.p2align 3
 1039              	.L276:
 1040 0248 488D7424 		leaq	24(%rsp), %rsi
 1040      18
 1041 024d 4C89F7   		movq	%r14, %rdi
 1042 0250 31D2     		xorl	%edx, %edx
 1043              	.LEHB17:
 1044 0252 E8000000 		call	_ZNSt7__cxx1112basic_stringIcSt11char_traitsIcESaIcEE9_M_createERmm@PLT
 1044      00
 1045              	.LEHE17:
 1046 0257 4889C7   		movq	%rax, %rdi
 1047 025a 48894424 		movq	%rax, 32(%rsp)
 1047      20
 1048 025f 488B4424 		movq	24(%rsp), %rax
 1048      18
 1049 0264 48894424 		movq	%rax, 48(%rsp)
 1049      30
 1050              	.L222:
 1051 0269 4889DA   		movq	%rbx, %rdx
 1052 026c 4C89EE   		movq	%r13, %rsi
 1053 026f E8000000 		call	memcpy@PLT
 1053      00
 1054 0274 488B5424 		movq	24(%rsp), %rdx
 1054      18
 1055 0279 488B4424 		movq	32(%rsp), %rax
 1055      20
 1056 027e E913FEFF 		jmp	.L224
 1056      FF
 1057              		.p2align 4,,10
 1058 0283 0F1F4400 		.p2align 3
 1058      00
 1059              	.L281:
 1060 0288 488D7424 		leaq	24(%rsp), %rsi
 1060      18
 1061 028d 488D7B08 		leaq	8(%rbx), %rdi
 1062 0291 31D2     		xorl	%edx, %edx
 1063              	.LEHB18:
 1064 0293 E8000000 		call	_ZNSt7__cxx1112basic_stringIcSt11char_traitsIcESaIcEE9_M_createERmm@PLT
 1064      00
 1065              	.LEHE18:
 1066 0298 4889C7   		movq	%rax, %rdi
 1067 029b 48894308 		movq	%rax, 8(%rbx)
 1068 029f 488B4424 		movq	24(%rsp), %rax
 1068      18
 1069 02a4 48894318 		movq	%rax, 24(%rbx)
 1070              	.L236:
 1071 02a8 488B7424 		movq	8(%rsp), %rsi
 1071      08
 1072 02ad 4C89EA   		movq	%r13, %rdx
 1073 02b0 E8000000 		call	memcpy@PLT
 1073      00
 1074 02b5 4C8B6C24 		movq	24(%rsp), %r13
 1074      18
 1075 02ba 488B7B08 		movq	8(%rbx), %rdi
 1076 02be E9BFFEFF 		jmp	.L238
 1076      FF
 1077              		.p2align 4,,10
 1078 02c3 0F1F4400 		.p2align 3
 1078      00
 1079              	.L282:
 1080 02c8 488B4424 		movq	8(%rsp), %rax
 1080      08
 1081 02cd 0FB600   		movzbl	(%rax), %eax
 1082 02d0 884318   		movb	%al, 24(%rbx)
 1083 02d3 E9AAFEFF 		jmp	.L238
 1083      FF
 1084 02d8 0F1F8400 		.p2align 4,,10
 1084      00000000 
 1085              		.p2align 3
 1086              	.L277:
 1087 02e0 410FB645 		movzbl	0(%r13), %eax
 1087      00
 1088 02e5 88442430 		movb	%al, 48(%rsp)
 1089 02e9 4C89E0   		movq	%r12, %rax
 1090 02ec E9A5FDFF 		jmp	.L224
 1090      FF
 1091              		.p2align 4,,10
 1092 02f1 0F1F8000 		.p2align 3
 1092      000000
 1093              	.L280:
 1094 02f8 410FB645 		movzbl	0(%r13), %eax
 1094      00
 1095 02fd 498D7C24 		leaq	24(%r12), %rdi
 1095      18
 1096 0302 88442458 		movb	%al, 88(%rsp)
 1097 0306 E9FCFDFF 		jmp	.L230
 1097      FF
 1098 030b 0F1F4400 		.p2align 4,,10
 1098      00
 1099              		.p2align 3
 1100              	.L220:
 1101 0310 488D3D00 		leaq	.LC3(%rip), %rdi
 1101      000000
 1102              	.LEHB19:
 1103 0317 E8000000 		call	_ZSt19__throw_logic_errorPKc@PLT
 1103      00
 1104              	.LEHE19:
 1105 031c 0F1F4000 		.p2align 4,,10
 1106              		.p2align 3
 1107              	.L231:
 1108 0320 4C8D6D80 		leaq	-128(%rbp), %r13
 1109 0324 4C89E2   		movq	%r12, %rdx
 1110 0327 4889DE   		movq	%rbx, %rsi
 1111 032a 498D7D60 		leaq	96(%r13), %rdi
 1112              	.LEHB20:
 1113 032e E8000000 		call	_ZNSt6vectorISt4pairIiNSt7__cxx1112basic_stringIcSt11char_traitsIcESaIcEEEESaIS7_EE13_M_inser
 1113      00
 1114              	.LEHE20:
 1115 0333 E963FEFF 		jmp	.L239
 1115      FF
 1116              	.L253:
 1117 0338 4889C3   		movq	%rax, %rbx
 1118              	.L244:
 1119 033b 488B7C24 		movq	32(%rsp), %rdi
 1119      20
 1120 0340 4983C610 		addq	$16, %r14
 1121 0344 4C39F7   		cmpq	%r14, %rdi
 1122 0347 7405     		je	.L245
 1123 0349 E8000000 		call	_ZdlPv@PLT
 1123      00
 1124              	.L245:
 1125 034e 4889DF   		movq	%rbx, %rdi
 1126              	.LEHB21:
 1127 0351 E8000000 		call	_Unwind_Resume@PLT
 1127      00
 1128              	.LEHE21:
 1129              	.L254:
 1130 0356 488B7C24 		movq	72(%rsp), %rdi
 1130      48
 1131 035b 4983C418 		addq	$24, %r12
 1132 035f 4889C3   		movq	%rax, %rbx
 1133 0362 4C39E7   		cmpq	%r12, %rdi
 1134 0365 74D4     		je	.L244
 1135 0367 E8000000 		call	_ZdlPv@PLT
 1135      00
 1136 036c EBCD     		jmp	.L244
 1137 036e 6690     		.p2align 4,,10
 1138              		.p2align 3
 1139              	.L278:
 1140 0370 4C89E7   		movq	%r12, %rdi
 1141 0373 E9F1FEFF 		jmp	.L222
 1141      FF
 1142              	.L283:
 1143 0378 E8000000 		call	__stack_chk_fail@PLT
 1143      00
 1144              		.cfi_endproc
 1145              	.LFE897:
 1146              		.section	.gcc_except_table,"a",@progbits
 1147              	.LLSDA897:
 1148 0000 FF       		.byte	0xff
 1149 0001 FF       		.byte	0xff
 1150 0002 01       		.byte	0x1
 1151 0003 32       		.uleb128 .LLSDACSE897-.LLSDACSB897
 1152              	.LLSDACSB897:
 1153 0004 B401     		.uleb128 .LEHB13-.LFB897
 1154 0006 05       		.uleb128 .LEHE13-.LEHB13
 1155 0007 9806     		.uleb128 .L253-.LFB897
 1156 0009 00       		.uleb128 0
 1157 000a B402     		.uleb128 .LEHB14-.LFB897
 1158 000c 05       		.uleb128 .LEHE14-.LEHB14
 1159 000d B606     		.uleb128 .L254-.LFB897
 1160 000f 00       		.uleb128 0
 1161 0010 BD03     		.uleb128 .LEHB15-.LFB897
 1162 0012 05       		.uleb128 .LEHE15-.LEHB15
 1163 0013 00       		.uleb128 0
 1164 0014 00       		.uleb128 0
 1165 0015 F403     		.uleb128 .LEHB16-.LFB897
 1166 0017 05       		.uleb128 .LEHE16-.LEHB16
 1167 0018 9806     		.uleb128 .L253-.LFB897
 1168 001a 00       		.uleb128 0
 1169 001b B204     		.uleb128 .LEHB17-.LFB897
 1170 001d 05       		.uleb128 .LEHE17-.LEHB17
 1171 001e 00       		.uleb128 0
 1172 001f 00       		.uleb128 0
 1173 0020 F304     		.uleb128 .LEHB18-.LFB897
 1174 0022 05       		.uleb128 .LEHE18-.LEHB18
 1175 0023 B606     		.uleb128 .L254-.LFB897
 1176 0025 00       		.uleb128 0
 1177 0026 F705     		.uleb128 .LEHB19-.LFB897
 1178 0028 05       		.uleb128 .LEHE19-.LEHB19
 1179 0029 00       		.uleb128 0
 1180 002a 00       		.uleb128 0
 1181 002b 8E06     		.uleb128 .LEHB20-.LFB897
 1182 002d 05       		.uleb128 .LEHE20-.LEHB20
 1183 002e B606     		.uleb128 .L254-.LFB897
 1184 0030 00       		.uleb128 0
 1185 0031 B106     		.uleb128 .LEHB21-.LFB897
 1186 0033 05       		.uleb128 .LEHE21-.LEHB21
 1187 0034 00       		.uleb128 0
 1188 0035 00       		.uleb128 0
 1189              	.LLSDACSE897:
 1190              		.text
 1192              		.section	.text.unlikely
 1193              	.LCOLDE5:
 1194              		.text
 1195              	.LHOTE5:
 1196              		.section	.text.unlikely._ZNSt6vectorISt4pairIiNSt7__cxx1112basic_stringIcSt11char_traitsIcESaIcEEE
 1197              		.align 2
 1198              	.LCOLDB6:
 1199              		.section	.text._ZNSt6vectorISt4pairIiNSt7__cxx1112basic_stringIcSt11char_traitsIcESaIcEEEESaIS7_EE
 1200              	.LHOTB6:
 1201              		.align 2
 1202              		.p2align 4,,15
 1203              		.weak	_ZNSt6vectorISt4pairIiNSt7__cxx1112basic_stringIcSt11char_traitsIcESaIcEEEESaIS7_EEaSERKS9_
 1205              	_ZNSt6vectorISt4pairIiNSt7__cxx1112basic_stringIcSt11char_traitsIcESaIcEEEESaIS7_EEaSERKS9_:
 1206              	.LFB986:
 1207              		.cfi_startproc
 1208              		.cfi_personality 0x9b,DW.ref.__gxx_personality_v0
 1209              		.cfi_lsda 0x1b,.LLSDA986
 1210 0000 4157     		pushq	%r15
 1211              		.cfi_def_cfa_offset 16
 1212              		.cfi_offset 15, -16
 1213 0002 4156     		pushq	%r14
 1214              		.cfi_def_cfa_offset 24
 1215              		.cfi_offset 14, -24
 1216 0004 4989FE   		movq	%rdi, %r14
 1217 0007 4155     		pushq	%r13
 1218              		.cfi_def_cfa_offset 32
 1219              		.cfi_offset 13, -32
 1220 0009 4154     		pushq	%r12
 1221              		.cfi_def_cfa_offset 40
 1222              		.cfi_offset 12, -40
 1223 000b 55       		pushq	%rbp
 1224              		.cfi_def_cfa_offset 48
 1225              		.cfi_offset 6, -48
 1226 000c 53       		pushq	%rbx
 1227              		.cfi_def_cfa_offset 56
 1228              		.cfi_offset 3, -56
 1229 000d 4883EC38 		subq	$56, %rsp
 1230              		.cfi_def_cfa_offset 112
 1231 0011 64488B04 		movq	%fs:40, %rax
 1231      25280000 
 1231      00
 1232 001a 48894424 		movq	%rax, 40(%rsp)
 1232      28
 1233 001f 31C0     		xorl	%eax, %eax
 1234 0021 4839FE   		cmpq	%rdi, %rsi
 1235 0024 0F84D700 		je	.L285
 1235      0000
 1236 002a 4C8B6E08 		movq	8(%rsi), %r13
 1237 002e 488B1E   		movq	(%rsi), %rbx
 1238 0031 48B9CDCC 		movabsq	$-3689348814741910323, %rcx
 1238      CCCCCCCC 
 1238      CCCC
 1239 003b 4C8B27   		movq	(%rdi), %r12
 1240 003e 4989F7   		movq	%rsi, %r15
 1241 0041 4C89E8   		movq	%r13, %rax
 1242 0044 4829D8   		subq	%rbx, %rax
 1243 0047 4889C2   		movq	%rax, %rdx
 1244 004a 48894424 		movq	%rax, 8(%rsp)
 1244      08
 1245 004f 488B4710 		movq	16(%rdi), %rax
 1246 0053 48C1FA03 		sarq	$3, %rdx
 1247 0057 480FAFD1 		imulq	%rcx, %rdx
 1248 005b 4C29E0   		subq	%r12, %rax
 1249 005e 48C1F803 		sarq	$3, %rax
 1250 0062 480FAFC1 		imulq	%rcx, %rax
 1251 0066 4839D0   		cmpq	%rdx, %rax
 1252 0069 0F820102 		jb	.L394
 1252      0000
 1253 006f 488B6F08 		movq	8(%rdi), %rbp
 1254 0073 4889EE   		movq	%rbp, %rsi
 1255 0076 4C29E6   		subq	%r12, %rsi
 1256 0079 4889F0   		movq	%rsi, %rax
 1257 007c 48C1F803 		sarq	$3, %rax
 1258 0080 480FAFC8 		imulq	%rax, %rcx
 1259 0084 4839CA   		cmpq	%rcx, %rdx
 1260 0087 0F87A300 		ja	.L395
 1260      0000
 1261 008d 4885D2   		testq	%rdx, %rdx
 1262 0090 7E5E     		jle	.L389
 1263 0092 488B4424 		movq	8(%rsp), %rax
 1263      08
 1264 0097 4D8D6C24 		leaq	8(%r12), %r13
 1264      08
 1265 009c 4883C308 		addq	$8, %rbx
 1266 00a0 4D8D7C04 		leaq	8(%r12,%rax), %r15
 1266      08
 1267              		.p2align 4,,10
 1268 00a5 0F1F00   		.p2align 3
 1269              	.L318:
 1270 00a8 8B43F8   		movl	-8(%rbx), %eax
 1271 00ab 4889DE   		movq	%rbx, %rsi
 1272 00ae 4C89EF   		movq	%r13, %rdi
 1273 00b1 4983C528 		addq	$40, %r13
 1274 00b5 4883C328 		addq	$40, %rbx
 1275 00b9 418945D0 		movl	%eax, -48(%r13)
 1276              	.LEHB22:
 1277 00bd E8000000 		call	_ZNSt7__cxx1112basic_stringIcSt11char_traitsIcESaIcEE9_M_assignERKS4_@PLT
 1277      00
 1278 00c2 4D39EF   		cmpq	%r13, %r15
 1279 00c5 75E1     		jne	.L318
 1280 00c7 4C036424 		addq	8(%rsp), %r12
 1280      08
 1281 00cc 4C39E5   		cmpq	%r12, %rbp
 1282 00cf 7424     		je	.L383
 1283              		.p2align 4,,10
 1284 00d1 0F1F8000 		.p2align 3
 1284      000000
 1285              	.L366:
 1286 00d8 498B7C24 		movq	8(%r12), %rdi
 1286      08
 1287 00dd 498D4424 		leaq	24(%r12), %rax
 1287      18
 1288 00e2 4839C7   		cmpq	%rax, %rdi
 1289 00e5 7405     		je	.L320
 1290 00e7 E8000000 		call	_ZdlPv@PLT
 1290      00
 1291              	.L320:
 1292 00ec 4983C428 		addq	$40, %r12
 1293              	.L389:
 1294 00f0 4C39E5   		cmpq	%r12, %rbp
 1295 00f3 75E3     		jne	.L366
 1296              	.L383:
 1297 00f5 488B4424 		movq	8(%rsp), %rax
 1297      08
 1298 00fa 490306   		addq	(%r14), %rax
 1299              	.L311:
 1300 00fd 49894608 		movq	%rax, 8(%r14)
 1301              	.L285:
 1302 0101 488B4C24 		movq	40(%rsp), %rcx
 1302      28
 1303 0106 6448330C 		xorq	%fs:40, %rcx
 1303      25280000 
 1303      00
 1304 010f 4C89F0   		movq	%r14, %rax
 1305 0112 0F85D802 		jne	.L396
 1305      0000
 1306 0118 4883C438 		addq	$56, %rsp
 1307              		.cfi_remember_state
 1308              		.cfi_def_cfa_offset 56
 1309 011c 5B       		popq	%rbx
 1310              		.cfi_def_cfa_offset 48
 1311 011d 5D       		popq	%rbp
 1312              		.cfi_def_cfa_offset 40
 1313 011e 415C     		popq	%r12
 1314              		.cfi_def_cfa_offset 32
 1315 0120 415D     		popq	%r13
 1316              		.cfi_def_cfa_offset 24
 1317 0122 415E     		popq	%r14
 1318              		.cfi_def_cfa_offset 16
 1319 0124 415F     		popq	%r15
 1320              		.cfi_def_cfa_offset 8
 1321 0126 C3       		ret
 1322 0127 660F1F84 		.p2align 4,,10
 1322      00000000 
 1322      00
 1323              		.p2align 3
 1324              	.L395:
 1325              		.cfi_restore_state
 1326 0130 4885C9   		testq	%rcx, %rcx
 1327 0133 0F8E9702 		jle	.L397
 1327      0000
 1328 0139 488D6B08 		leaq	8(%rbx), %rbp
 1329 013d 488D5C33 		leaq	8(%rbx,%rsi), %rbx
 1329      08
 1330 0142 4983C408 		addq	$8, %r12
 1331 0146 662E0F1F 		.p2align 4,,10
 1331      84000000 
 1331      0000
 1332              		.p2align 3
 1333              	.L322:
 1334 0150 8B45F8   		movl	-8(%rbp), %eax
 1335 0153 4889EE   		movq	%rbp, %rsi
 1336 0156 4C89E7   		movq	%r12, %rdi
 1337 0159 4883C528 		addq	$40, %rbp
 1338 015d 4983C428 		addq	$40, %r12
 1339 0161 41894424 		movl	%eax, -48(%r12)
 1339      D0
 1340 0166 E8000000 		call	_ZNSt7__cxx1112basic_stringIcSt11char_traitsIcESaIcEE9_M_assignERKS4_@PLT
 1340      00
 1341              	.LEHE22:
 1342 016b 4839EB   		cmpq	%rbp, %rbx
 1343 016e 75E0     		jne	.L322
 1344 0170 498B5608 		movq	8(%r14), %rdx
 1345 0174 498B06   		movq	(%r14), %rax
 1346 0177 4D8B6F08 		movq	8(%r15), %r13
 1347 017b 498B1F   		movq	(%r15), %rbx
 1348 017e 4889D6   		movq	%rdx, %rsi
 1349 0181 48895424 		movq	%rdx, 24(%rsp)
 1349      18
 1350 0186 4829C6   		subq	%rax, %rsi
 1351              	.L313:
 1352 0189 4C8D2433 		leaq	(%rbx,%rsi), %r12
 1353 018d 488D4C24 		leaq	32(%rsp), %rcx
 1353      20
 1354 0192 48034424 		addq	8(%rsp), %rax
 1354      08
 1355 0197 488B5C24 		movq	24(%rsp), %rbx
 1355      18
 1356 019c 4D39EC   		cmpq	%r13, %r12
 1357 019f 48894C24 		movq	%rcx, 16(%rsp)
 1357      10
 1358 01a4 0F8453FF 		je	.L311
 1358      FFFF
 1359 01aa 660F1F44 		.p2align 4,,10
 1359      0000
 1360              		.p2align 3
 1361              	.L367:
 1362 01b0 4885DB   		testq	%rbx, %rbx
 1363 01b3 7459     		je	.L324
 1364 01b5 488D7B18 		leaq	24(%rbx), %rdi
 1365 01b9 418B0424 		movl	(%r12), %eax
 1366 01bd 498B6C24 		movq	16(%r12), %rbp
 1366      10
 1367 01c2 48897B08 		movq	%rdi, 8(%rbx)
 1368 01c6 4D8B7C24 		movq	8(%r12), %r15
 1368      08
 1369 01cb 8903     		movl	%eax, (%rbx)
 1370 01cd 4C89F8   		movq	%r15, %rax
 1371 01d0 4801E8   		addq	%rbp, %rax
 1372 01d3 741B     		je	.L327
 1373 01d5 4D85FF   		testq	%r15, %r15
 1374 01d8 7516     		jne	.L327
 1375 01da 488D3D00 		leaq	.LC3(%rip), %rdi
 1375      000000
 1376              	.LEHB23:
 1377 01e1 E8000000 		call	_ZSt19__throw_logic_errorPKc@PLT
 1377      00
 1378 01e6 662E0F1F 		.p2align 4,,10
 1378      84000000 
 1378      0000
 1379              		.p2align 3
 1380              	.L327:
 1381 01f0 4883FD0F 		cmpq	$15, %rbp
 1382 01f4 48896C24 		movq	%rbp, 32(%rsp)
 1382      20
 1383 01f9 7725     		ja	.L398
 1384 01fb 4883FD01 		cmpq	$1, %rbp
 1385 01ff 745F     		je	.L399
 1386 0201 4885ED   		testq	%rbp, %rbp
 1387 0204 753A     		jne	.L328
 1388              	.L330:
 1389 0206 48896B10 		movq	%rbp, 16(%rbx)
 1390 020a C6042F00 		movb	$0, (%rdi,%rbp)
 1391              	.L324:
 1392 020e 4983C428 		addq	$40, %r12
 1393 0212 4883C328 		addq	$40, %rbx
 1394 0216 4D39EC   		cmpq	%r13, %r12
 1395 0219 7595     		jne	.L367
 1396 021b E9D5FEFF 		jmp	.L383
 1396      FF
 1397              		.p2align 4,,10
 1398              		.p2align 3
 1399              	.L398:
 1400 0220 488B7424 		movq	16(%rsp), %rsi
 1400      10
 1401 0225 488D7B08 		leaq	8(%rbx), %rdi
 1402 0229 31D2     		xorl	%edx, %edx
 1403 022b E8000000 		call	_ZNSt7__cxx1112basic_stringIcSt11char_traitsIcESaIcEE9_M_createERmm@PLT
 1403      00
 1404              	.LEHE23:
 1405 0230 4889C7   		movq	%rax, %rdi
 1406 0233 48894308 		movq	%rax, 8(%rbx)
 1407 0237 488B4424 		movq	32(%rsp), %rax
 1407      20
 1408 023c 48894318 		movq	%rax, 24(%rbx)
 1409              	.L328:
 1410 0240 4889EA   		movq	%rbp, %rdx
 1411 0243 4C89FE   		movq	%r15, %rsi
 1412 0246 E8000000 		call	memcpy@PLT
 1412      00
 1413 024b 488B6C24 		movq	32(%rsp), %rbp
 1413      20
 1414 0250 488B7B08 		movq	8(%rbx), %rdi
 1415 0254 EBB0     		jmp	.L330
 1416 0256 662E0F1F 		.p2align 4,,10
 1416      84000000 
 1416      0000
 1417              		.p2align 3
 1418              	.L399:
 1419 0260 410FB607 		movzbl	(%r15), %eax
 1420 0264 884318   		movb	%al, 24(%rbx)
 1421 0267 EB9D     		jmp	.L330
 1422 0269 0F1F8000 		.p2align 4,,10
 1422      000000
 1423              		.p2align 3
 1424              	.L394:
 1425 0270 4885D2   		testq	%rdx, %rdx
 1426 0273 0F846401 		je	.L342
 1426      0000
 1427 0279 48B86666 		movabsq	$461168601842738790, %rax
 1427      66666666 
 1427      6606
 1428 0283 4839C2   		cmpq	%rax, %rdx
 1429 0286 0F876901 		ja	.L400
 1429      0000
 1430 028c 488B7C24 		movq	8(%rsp), %rdi
 1430      08
 1431              	.LEHB24:
 1432 0291 E8000000 		call	_Znwm@PLT
 1432      00
 1433              	.LEHE24:
 1434 0296 48894424 		movq	%rax, 24(%rsp)
 1434      18
 1435 029b 4889C5   		movq	%rax, %rbp
 1436              	.L287:
 1437 029e 488D4424 		leaq	32(%rsp), %rax
 1437      20
 1438 02a3 4C39EB   		cmpq	%r13, %rbx
 1439 02a6 48894424 		movq	%rax, 16(%rsp)
 1439      10
 1440 02ab 7473     		je	.L300
 1441 02ad 0F1F00   		.p2align 4,,10
 1442              		.p2align 3
 1443              	.L365:
 1444 02b0 4885ED   		testq	%rbp, %rbp
 1445 02b3 745E     		je	.L292
 1446 02b5 488D7D18 		leaq	24(%rbp), %rdi
 1447 02b9 8B03     		movl	(%rbx), %eax
 1448 02bb 4C8B6310 		movq	16(%rbx), %r12
 1449 02bf 48897D08 		movq	%rdi, 8(%rbp)
 1450 02c3 4C8B7B08 		movq	8(%rbx), %r15
 1451 02c7 894500   		movl	%eax, 0(%rbp)
 1452 02ca 4C89F8   		movq	%r15, %rax
 1453 02cd 4C01E0   		addq	%r12, %rax
 1454 02d0 7416     		je	.L295
 1455 02d2 4D85FF   		testq	%r15, %r15
 1456 02d5 7511     		jne	.L295
 1457 02d7 488D3D00 		leaq	.LC3(%rip), %rdi
 1457      000000
 1458              	.LEHB25:
 1459 02de E8000000 		call	_ZSt19__throw_logic_errorPKc@PLT
 1459      00
 1460              		.p2align 4,,10
 1461 02e3 0F1F4400 		.p2align 3
 1461      00
 1462              	.L295:
 1463 02e8 4983FC0F 		cmpq	$15, %r12
 1464 02ec 4C896424 		movq	%r12, 32(%rsp)
 1464      20
 1465 02f1 0F878100 		ja	.L401
 1465      0000
 1466 02f7 4983FC01 		cmpq	$1, %r12
 1467 02fb 0F84B700 		je	.L402
 1467      0000
 1468 0301 4D85E4   		testq	%r12, %r12
 1469 0304 0F858E00 		jne	.L296
 1469      0000
 1470              	.L298:
 1471 030a 4C896510 		movq	%r12, 16(%rbp)
 1472 030e 42C60427 		movb	$0, (%rdi,%r12)
 1472      00
 1473              	.L292:
 1474 0313 4883C328 		addq	$40, %rbx
 1475 0317 4883C528 		addq	$40, %rbp
 1476 031b 4939DD   		cmpq	%rbx, %r13
 1477 031e 7590     		jne	.L365
 1478              	.L300:
 1479 0320 498B6E08 		movq	8(%r14), %rbp
 1480 0324 498B1E   		movq	(%r14), %rbx
 1481 0327 4839DD   		cmpq	%rbx, %rbp
 1482 032a 7422     		je	.L290
 1483 032c 0F1F4000 		.p2align 4,,10
 1484              		.p2align 3
 1485              	.L309:
 1486 0330 488B7B08 		movq	8(%rbx), %rdi
 1487 0334 488D4318 		leaq	24(%rbx), %rax
 1488 0338 4839C7   		cmpq	%rax, %rdi
 1489 033b 7405     		je	.L308
 1490 033d E8000000 		call	_ZdlPv@PLT
 1490      00
 1491              	.L308:
 1492 0342 4883C328 		addq	$40, %rbx
 1493 0346 4839DD   		cmpq	%rbx, %rbp
 1494 0349 75E5     		jne	.L309
 1495 034b 498B2E   		movq	(%r14), %rbp
 1496              	.L290:
 1497 034e 4885ED   		testq	%rbp, %rbp
 1498 0351 7408     		je	.L310
 1499 0353 4889EF   		movq	%rbp, %rdi
 1500 0356 E8000000 		call	_ZdlPv@PLT
 1500      00
 1501              	.L310:
 1502 035b 488B4424 		movq	24(%rsp), %rax
 1502      18
 1503 0360 498906   		movq	%rax, (%r14)
 1504 0363 48034424 		addq	8(%rsp), %rax
 1504      08
 1505 0368 49894610 		movq	%rax, 16(%r14)
 1506 036c E98CFDFF 		jmp	.L311
 1506      FF
 1507              		.p2align 4,,10
 1508 0371 0F1F8000 		.p2align 3
 1508      000000
 1509              	.L401:
 1510 0378 488B7424 		movq	16(%rsp), %rsi
 1510      10
 1511 037d 488D7D08 		leaq	8(%rbp), %rdi
 1512 0381 31D2     		xorl	%edx, %edx
 1513 0383 E8000000 		call	_ZNSt7__cxx1112basic_stringIcSt11char_traitsIcESaIcEE9_M_createERmm@PLT
 1513      00
 1514              	.LEHE25:
 1515 0388 4889C7   		movq	%rax, %rdi
 1516 038b 48894508 		movq	%rax, 8(%rbp)
 1517 038f 488B4424 		movq	32(%rsp), %rax
 1517      20
 1518 0394 48894518 		movq	%rax, 24(%rbp)
 1519              	.L296:
 1520 0398 4C89E2   		movq	%r12, %rdx
 1521 039b 4C89FE   		movq	%r15, %rsi
 1522 039e E8000000 		call	memcpy@PLT
 1522      00
 1523 03a3 4C8B6424 		movq	32(%rsp), %r12
 1523      20
 1524 03a8 488B7D08 		movq	8(%rbp), %rdi
 1525 03ac E959FFFF 		jmp	.L298
 1525      FF
 1526              		.p2align 4,,10
 1527 03b1 0F1F8000 		.p2align 3
 1527      000000
 1528              	.L402:
 1529 03b8 410FB607 		movzbl	(%r15), %eax
 1530 03bc 884518   		movb	%al, 24(%rbp)
 1531 03bf E946FFFF 		jmp	.L298
 1531      FF
 1532              	.L348:
 1533 03c4 EB34     		jmp	.L332
 1534              	.L346:
 1535 03c6 EB63     		jmp	.L301
 1536 03c8 0F1F8400 		.p2align 4,,10
 1536      00000000 
 1537              		.p2align 3
 1538              	.L397:
 1539 03d0 4C89E0   		movq	%r12, %rax
 1540 03d3 48896C24 		movq	%rbp, 24(%rsp)
 1540      18
 1541 03d8 E9ACFDFF 		jmp	.L313
 1541      FF
 1542              	.L342:
 1543 03dd 48C74424 		movq	$0, 24(%rsp)
 1543      18000000 
 1543      00
 1544 03e6 488B6C24 		movq	24(%rsp), %rbp
 1544      18
 1545 03eb E9AEFEFF 		jmp	.L287
 1545      FF
 1546              	.L396:
 1547 03f0 E8000000 		call	__stack_chk_fail@PLT
 1547      00
 1548              	.L400:
 1549              	.LEHB26:
 1550 03f5 E8000000 		call	_ZSt17__throw_bad_allocv@PLT
 1550      00
 1551              	.LEHE26:
 1552              	.L332:
 1553 03fa 4889C7   		movq	%rax, %rdi
 1554 03fd E8000000 		call	__cxa_begin_catch@PLT
 1554      00
 1555              	.L335:
 1556 0402 488B4424 		movq	24(%rsp), %rax
 1556      18
 1557 0407 4839D8   		cmpq	%rbx, %rax
 1558 040a 741A     		je	.L333
 1559 040c 488B7808 		movq	8(%rax), %rdi
 1560 0410 4883C018 		addq	$24, %rax
 1561 0414 4839C7   		cmpq	%rax, %rdi
 1562 0417 7405     		je	.L334
 1563 0419 E8000000 		call	_ZdlPv@PLT
 1563      00
 1564              	.L334:
 1565 041e 48834424 		addq	$40, 24(%rsp)
 1565      1828
 1566 0424 EBDC     		jmp	.L335
 1567              	.L333:
 1568              	.LEHB27:
 1569 0426 E8000000 		call	__cxa_rethrow@PLT
 1569      00
 1570              	.LEHE27:
 1571              	.L301:
 1572 042b 4889C7   		movq	%rax, %rdi
 1573 042e E8000000 		call	__cxa_begin_catch@PLT
 1573      00
 1574 0433 488B5C24 		movq	24(%rsp), %rbx
 1574      18
 1575              	.L304:
 1576 0438 4839EB   		cmpq	%rbp, %rbx
 1577 043b 7418     		je	.L302
 1578 043d 488B7B08 		movq	8(%rbx), %rdi
 1579 0441 488D4318 		leaq	24(%rbx), %rax
 1580 0445 4839C7   		cmpq	%rax, %rdi
 1581 0448 7405     		je	.L303
 1582 044a E8000000 		call	_ZdlPv@PLT
 1582      00
 1583              	.L303:
 1584 044f 4883C328 		addq	$40, %rbx
 1585 0453 EBE3     		jmp	.L304
 1586              	.L302:
 1587              	.LEHB28:
 1588 0455 E8000000 		call	__cxa_rethrow@PLT
 1588      00
 1589              	.LEHE28:
 1590              	.L347:
 1591 045a 4889C3   		movq	%rax, %rbx
 1592 045d EB05     		jmp	.L336
 1593              	.L345:
 1594 045f 4889C3   		movq	%rax, %rbx
 1595 0462 EB0D     		jmp	.L305
 1596              	.L336:
 1597 0464 E8000000 		call	__cxa_end_catch@PLT
 1597      00
 1598 0469 4889DF   		movq	%rbx, %rdi
 1599              	.LEHB29:
 1600 046c E8000000 		call	_Unwind_Resume@PLT
 1600      00
 1601              	.LEHE29:
 1602              	.L305:
 1603 0471 E8000000 		call	__cxa_end_catch@PLT
 1603      00
 1604 0476 4889DF   		movq	%rbx, %rdi
 1605 0479 E8000000 		call	__cxa_begin_catch@PLT
 1605      00
 1606 047e 488B4424 		movq	24(%rsp), %rax
 1606      18
 1607 0483 4885C0   		testq	%rax, %rax
 1608 0486 7408     		je	.L306
 1609 0488 4889C7   		movq	%rax, %rdi
 1610 048b E8000000 		call	_ZdlPv@PLT
 1610      00
 1611              	.L306:
 1612              	.LEHB30:
 1613 0490 E8000000 		call	__cxa_rethrow@PLT
 1613      00
 1614              	.LEHE30:
 1615              	.L344:
 1616 0495 4889C3   		movq	%rax, %rbx
 1617              	.L307:
 1618 0498 E8000000 		call	__cxa_end_catch@PLT
 1618      00
 1619 049d 4889DF   		movq	%rbx, %rdi
 1620              	.LEHB31:
 1621 04a0 E8000000 		call	_Unwind_Resume@PLT
 1621      00
 1622              	.LEHE31:
 1623              		.cfi_endproc
 1624              	.LFE986:
 1625              		.section	.gcc_except_table
 1626 0036 0000     		.align 4
 1627              	.LLSDA986:
 1628 0038 FF       		.byte	0xff
 1629 0039 9B       		.byte	0x9b
 1630 003a 45       		.uleb128 .LLSDATT986-.LLSDATTD986
 1631              	.LLSDATTD986:
 1632 003b 01       		.byte	0x1
 1633 003c 39       		.uleb128 .LLSDACSE986-.LLSDACSB986
 1634              	.LLSDACSB986:
 1635 003d BD01     		.uleb128 .LEHB22-.LFB986
 1636 003f AE01     		.uleb128 .LEHE22-.LEHB22
 1637 0041 00       		.uleb128 0
 1638 0042 00       		.uleb128 0
 1639 0043 E103     		.uleb128 .LEHB23-.LFB986
 1640 0045 4F       		.uleb128 .LEHE23-.LEHB23
 1641 0046 C407     		.uleb128 .L348-.LFB986
 1642 0048 01       		.uleb128 0x1
 1643 0049 9105     		.uleb128 .LEHB24-.LFB986
 1644 004b 05       		.uleb128 .LEHE24-.LEHB24
 1645 004c 00       		.uleb128 0
 1646 004d 00       		.uleb128 0
 1647 004e DE05     		.uleb128 .LEHB25-.LFB986
 1648 0050 AA01     		.uleb128 .LEHE25-.LEHB25
 1649 0052 C607     		.uleb128 .L346-.LFB986
 1650 0054 01       		.uleb128 0x1
 1651 0055 F507     		.uleb128 .LEHB26-.LFB986
 1652 0057 05       		.uleb128 .LEHE26-.LEHB26
 1653 0058 00       		.uleb128 0
 1654 0059 00       		.uleb128 0
 1655 005a A608     		.uleb128 .LEHB27-.LFB986
 1656 005c 05       		.uleb128 .LEHE27-.LEHB27
 1657 005d DA08     		.uleb128 .L347-.LFB986
 1658 005f 00       		.uleb128 0
 1659 0060 D508     		.uleb128 .LEHB28-.LFB986
 1660 0062 05       		.uleb128 .LEHE28-.LEHB28
 1661 0063 DF08     		.uleb128 .L345-.LFB986
 1662 0065 03       		.uleb128 0x3
 1663 0066 EC08     		.uleb128 .LEHB29-.LFB986
 1664 0068 05       		.uleb128 .LEHE29-.LEHB29
 1665 0069 00       		.uleb128 0
 1666 006a 00       		.uleb128 0
 1667 006b 9009     		.uleb128 .LEHB30-.LFB986
 1668 006d 05       		.uleb128 .LEHE30-.LEHB30
 1669 006e 9509     		.uleb128 .L344-.LFB986
 1670 0070 00       		.uleb128 0
 1671 0071 A009     		.uleb128 .LEHB31-.LFB986
 1672 0073 05       		.uleb128 .LEHE31-.LEHB31
 1673 0074 00       		.uleb128 0
 1674 0075 00       		.uleb128 0
 1675              	.LLSDACSE986:
 1676 0076 01       		.byte	0x1
 1677 0077 00       		.byte	0
 1678 0078 00       		.byte	0
 1679 0079 7D       		.byte	0x7d
 1680 007a 0000     		.align 4
 1681 007c 00000000 		.long	0
 1682              	
 1683              	.LLSDATT986:
 1684              		.section	.text._ZNSt6vectorISt4pairIiNSt7__cxx1112basic_stringIcSt11char_traitsIcESaIcEEEESaIS7_EE
 1686              		.section	.text.unlikely._ZNSt6vectorISt4pairIiNSt7__cxx1112basic_stringIcSt11char_traitsIcESaIcEEE
 1687              	.LCOLDE6:
 1688              		.section	.text._ZNSt6vectorISt4pairIiNSt7__cxx1112basic_stringIcSt11char_traitsIcESaIcEEEESaIS7_EE
 1689              	.LHOTE6:
 1690              		.section	.text.unlikely._ZNSt6vectorIN8UnitTest18DeferredTestResultESaIS1_EE13_M_insert_auxEN9__gn
 1691              		.align 2
 1692              	.LCOLDB7:
 1693              		.section	.text._ZNSt6vectorIN8UnitTest18DeferredTestResultESaIS1_EE13_M_insert_auxEN9__gnu_cxx17__
 1694              	.LHOTB7:
 1695              		.align 2
 1696              		.p2align 4,,15
 1697              		.weak	_ZNSt6vectorIN8UnitTest18DeferredTestResultESaIS1_EE13_M_insert_auxEN9__gnu_cxx17__normal_it
 1699              	_ZNSt6vectorIN8UnitTest18DeferredTestResultESaIS1_EE13_M_insert_auxEN9__gnu_cxx17__normal_iteratorI
 1700              	.LFB941:
 1701              		.cfi_startproc
 1702              		.cfi_personality 0x9b,DW.ref.__gxx_personality_v0
 1703              		.cfi_lsda 0x1b,.LLSDA941
 1704 0000 4157     		pushq	%r15
 1705              		.cfi_def_cfa_offset 16
 1706              		.cfi_offset 15, -16
 1707 0002 4156     		pushq	%r14
 1708              		.cfi_def_cfa_offset 24
 1709              		.cfi_offset 14, -24
 1710 0004 4889F8   		movq	%rdi, %rax
 1711 0007 4155     		pushq	%r13
 1712              		.cfi_def_cfa_offset 32
 1713              		.cfi_offset 13, -32
 1714 0009 4154     		pushq	%r12
 1715              		.cfi_def_cfa_offset 40
 1716              		.cfi_offset 12, -40
 1717 000b 55       		pushq	%rbp
 1718              		.cfi_def_cfa_offset 48
 1719              		.cfi_offset 6, -48
 1720 000c 53       		pushq	%rbx
 1721              		.cfi_def_cfa_offset 56
 1722              		.cfi_offset 3, -56
 1723 000d 4881EC78 		subq	$376, %rsp
 1723      010000
 1724              		.cfi_def_cfa_offset 432
 1725 0014 4C8B7708 		movq	8(%rdi), %r14
 1726 0018 64488B0C 		movq	%fs:40, %rcx
 1726      25280000 
 1726      00
 1727 0021 48898C24 		movq	%rcx, 360(%rsp)
 1727      68010000 
 1728 0029 31C9     		xorl	%ecx, %ecx
 1729 002b 4C3B7710 		cmpq	16(%rdi), %r14
 1730 002f 48897C24 		movq	%rdi, 32(%rsp)
 1730      20
 1731 0034 48897424 		movq	%rsi, 24(%rsp)
 1731      18
 1732 0039 48895424 		movq	%rdx, 8(%rsp)
 1732      08
 1733 003e 0F847C09 		je	.L404
 1733      0000
 1734 0044 4D85F6   		testq	%r14, %r14
 1735 0047 0F849B00 		je	.L405
 1735      0000
 1736 004d 498B6E80 		movq	-128(%r14), %rbp
 1737 0051 498D4610 		leaq	16(%r14), %rax
 1738 0055 498B5E88 		movq	-120(%r14), %rbx
 1739 0059 48894424 		movq	%rax, 48(%rsp)
 1739      30
 1740 005e 498906   		movq	%rax, (%r14)
 1741 0061 4889E8   		movq	%rbp, %rax
 1742 0064 4801D8   		addq	%rbx, %rax
 1743 0067 0F841B01 		je	.L408
 1743      0000
 1744 006d 4885ED   		testq	%rbp, %rbp
 1745 0070 0F851201 		jne	.L408
 1745      0000
 1746              	.L406:
 1747 0076 488D3D00 		leaq	.LC3(%rip), %rdi
 1747      000000
 1748              	.LEHB32:
 1749 007d E8000000 		call	_ZSt19__throw_logic_errorPKc@PLT
 1749      00
 1750              	.LEHE32:
 1751              		.p2align 4,,10
 1752 0082 660F1F44 		.p2align 3
 1752      0000
 1753              	.L431:
 1754 0088 4883FD0F 		cmpq	$15, %rbp
 1755 008c 4889AC24 		movq	%rbp, 216(%rsp)
 1755      D8000000 
 1756 0094 0F87A606 		ja	.L1007
 1756      0000
 1757 009a 4883FD01 		cmpq	$1, %rbp
 1758 009e 0F84DC06 		je	.L1008
 1758      0000
 1759 00a4 4885ED   		testq	%rbp, %rbp
 1760 00a7 0F85B606 		jne	.L432
 1760      0000
 1761              	.L434:
 1762 00ad 48896B10 		movq	%rbp, 16(%rbx)
 1763 00b1 C6042F00 		movb	$0, (%rdi,%rbp)
 1764              	.L428:
 1765 00b5 4983C428 		addq	$40, %r12
 1766 00b9 4883C328 		addq	$40, %rbx
 1767 00bd 4D39E7   		cmpq	%r12, %r15
 1768 00c0 0F853206 		jne	.L435
 1768      0000
 1769              	.L427:
 1770 00c6 410FB646 		movzbl	-4(%r14), %eax
 1770      FC
 1771 00cb F3410F10 		movss	-8(%r14), %xmm0
 1771      46F8
 1772 00d1 49895E68 		movq	%rbx, 104(%r14)
 1773 00d5 F3410F11 		movss	%xmm0, 120(%r14)
 1773      4678
 1774 00db 4188467C 		movb	%al, 124(%r14)
 1775 00df 488B4424 		movq	32(%rsp), %rax
 1775      20
 1776 00e4 4C8B7008 		movq	8(%rax), %r14
 1777              	.L405:
 1778 00e8 4C8DBC24 		leaq	224(%rsp), %r15
 1778      E0000000 
 1779 00f0 4983EE80 		subq	$-128, %r14
 1780 00f4 4C897008 		movq	%r14, 8(%rax)
 1781 00f8 498D4710 		leaq	16(%r15), %rax
 1782 00fc 48898424 		movq	%rax, 224(%rsp)
 1782      E0000000 
 1783 0104 488B4424 		movq	8(%rsp), %rax
 1783      08
 1784 0109 488B28   		movq	(%rax), %rbp
 1785 010c 488B5808 		movq	8(%rax), %rbx
 1786 0110 4889E8   		movq	%rbp, %rax
 1787 0113 4801D8   		addq	%rbx, %rax
 1788 0116 7409     		je	.L450
 1789 0118 4885ED   		testq	%rbp, %rbp
 1790 011b 0F8455FF 		je	.L406
 1790      FFFF
 1791              	.L450:
 1792 0121 4883FB0F 		cmpq	$15, %rbx
 1793 0125 48899C24 		movq	%rbx, 216(%rsp)
 1793      D8000000 
 1794 012d 0F87FD06 		ja	.L1009
 1794      0000
 1795 0133 4883FB01 		cmpq	$1, %rbx
 1796 0137 0F840308 		je	.L1010
 1796      0000
 1797 013d 4885DB   		testq	%rbx, %rbx
 1798 0140 498D4710 		leaq	16(%r15), %rax
 1799 0144 0F851007 		jne	.L451
 1799      0000
 1800              	.L453:
 1801 014a 48899C24 		movq	%rbx, 232(%rsp)
 1801      E8000000 
 1802 0152 C6041800 		movb	$0, (%rax,%rbx)
 1803 0156 498D4730 		leaq	48(%r15), %rax
 1804 015a 48898424 		movq	%rax, 256(%rsp)
 1804      00010000 
 1805 0162 488B4424 		movq	8(%rsp), %rax
 1805      08
 1806 0167 488B6820 		movq	32(%rax), %rbp
 1807 016b 488B5828 		movq	40(%rax), %rbx
 1808 016f 4889E8   		movq	%rbp, %rax
 1809 0172 4801D8   		addq	%rbx, %rax
 1810 0175 7479     		je	.L456
 1811 0177 4885ED   		testq	%rbp, %rbp
 1812 017a 7574     		jne	.L456
 1813 017c 488D3D00 		leaq	.LC3(%rip), %rdi
 1813      000000
 1814              	.LEHB33:
 1815 0183 E8000000 		call	_ZSt19__throw_logic_errorPKc@PLT
 1815      00
 1816              	.LEHE33:
 1817              	.L408:
 1818 0188 4883FB0F 		cmpq	$15, %rbx
 1819 018c 48899C24 		movq	%rbx, 216(%rsp)
 1819      D8000000 
 1820 0194 0F87E306 		ja	.L1011
 1820      0000
 1821 019a 4883FB01 		cmpq	$1, %rbx
 1822 019e 0F84FC07 		je	.L1012
 1822      0000
 1823 01a4 4885DB   		testq	%rbx, %rbx
 1824 01a7 488B4424 		movq	48(%rsp), %rax
 1824      30
 1825 01ac 0F85EC06 		jne	.L409
 1825      0000
 1826              	.L411:
 1827 01b2 49895E08 		movq	%rbx, 8(%r14)
 1828 01b6 C6041800 		movb	$0, (%rax,%rbx)
 1829 01ba 498D4630 		leaq	48(%r14), %rax
 1830 01be 498B6EA0 		movq	-96(%r14), %rbp
 1831 01c2 498B5EA8 		movq	-88(%r14), %rbx
 1832 01c6 48894424 		movq	%rax, 56(%rsp)
 1832      38
 1833 01cb 49894620 		movq	%rax, 32(%r14)
 1834 01cf 4889E8   		movq	%rbp, %rax
 1835 01d2 4801D8   		addq	%rbx, %rax
 1836 01d5 0F84F203 		je	.L414
 1836      0000
 1837 01db 4885ED   		testq	%rbp, %rbp
 1838 01de 0F85E903 		jne	.L414
 1838      0000
 1839 01e4 488D3D00 		leaq	.LC3(%rip), %rdi
 1839      000000
 1840              	.LEHB34:
 1841 01eb E8000000 		call	_ZSt19__throw_logic_errorPKc@PLT
 1841      00
 1842              	.LEHE34:
 1843              		.p2align 4,,10
 1844              		.p2align 3
 1845              	.L456:
 1846 01f0 4883FB0F 		cmpq	$15, %rbx
 1847 01f4 48899C24 		movq	%rbx, 200(%rsp)
 1847      C8000000 
 1848 01fc 0F878E05 		ja	.L1013
 1848      0000
 1849 0202 4883FB01 		cmpq	$1, %rbx
 1850 0206 0F844807 		je	.L1014
 1850      0000
 1851 020c 4885DB   		testq	%rbx, %rbx
 1852 020f 498D4730 		leaq	48(%r15), %rax
 1853 0213 0F85A205 		jne	.L457
 1853      0000
 1854              	.L459:
 1855 0219 48899C24 		movq	%rbx, 264(%rsp)
 1855      08010000 
 1856 0221 C6041800 		movb	$0, (%rax,%rbx)
 1857 0225 498D4750 		leaq	80(%r15), %rax
 1858 0229 48898424 		movq	%rax, 288(%rsp)
 1858      20010000 
 1859 0231 488B4424 		movq	8(%rsp), %rax
 1859      08
 1860 0236 488B6840 		movq	64(%rax), %rbp
 1861 023a 488B5848 		movq	72(%rax), %rbx
 1862 023e 4889E8   		movq	%rbp, %rax
 1863 0241 4801D8   		addq	%rbx, %rax
 1864 0244 7411     		je	.L462
 1865 0246 4885ED   		testq	%rbp, %rbp
 1866 0249 750C     		jne	.L462
 1867 024b 488D3D00 		leaq	.LC3(%rip), %rdi
 1867      000000
 1868              	.LEHB35:
 1869 0252 E8000000 		call	_ZSt19__throw_logic_errorPKc@PLT
 1869      00
 1870              	.LEHE35:
 1871              	.L462:
 1872 0257 4883FB0F 		cmpq	$15, %rbx
 1873 025b 48899C24 		movq	%rbx, 208(%rsp)
 1873      D0000000 
 1874 0263 0F877705 		ja	.L1015
 1874      0000
 1875 0269 4883FB01 		cmpq	$1, %rbx
 1876 026d 0F84F506 		je	.L1016
 1876      0000
 1877 0273 4885DB   		testq	%rbx, %rbx
 1878 0276 498D4750 		leaq	80(%r15), %rax
 1879 027a 0F858B05 		jne	.L463
 1879      0000
 1880              	.L465:
 1881 0280 48899C24 		movq	%rbx, 296(%rsp)
 1881      28010000 
 1882 0288 C6041800 		movb	$0, (%rax,%rbx)
 1883 028c 488B4424 		movq	8(%rsp), %rax
 1883      08
 1884 0291 48C78424 		movq	$0, 320(%rsp)
 1884      40010000 
 1884      00000000 
 1885 029d 48C78424 		movq	$0, 328(%rsp)
 1885      48010000 
 1885      00000000 
 1886 02a9 48C78424 		movq	$0, 336(%rsp)
 1886      50010000 
 1886      00000000 
 1887 02b5 4C8B7068 		movq	104(%rax), %r14
 1888 02b9 4C8B6060 		movq	96(%rax), %r12
 1889 02bd 48B8CDCC 		movabsq	$-3689348814741910323, %rax
 1889      CCCCCCCC 
 1889      CCCC
 1890 02c7 4C89F3   		movq	%r14, %rbx
 1891 02ca 4C29E3   		subq	%r12, %rbx
 1892 02cd 4889DA   		movq	%rbx, %rdx
 1893 02d0 48C1FA03 		sarq	$3, %rdx
 1894 02d4 480FAFC2 		imulq	%rdx, %rax
 1895 02d8 4885C0   		testq	%rax, %rax
 1896 02db 0F84D106 		je	.L1017
 1896      0000
 1897 02e1 48BA6666 		movabsq	$461168601842738790, %rdx
 1897      66666666 
 1897      6606
 1898 02eb 4839D0   		cmpq	%rdx, %rax
 1899 02ee 0F870E18 		ja	.L1018
 1899      0000
 1900 02f4 4889DF   		movq	%rbx, %rdi
 1901              	.LEHB36:
 1902 02f7 E8000000 		call	_Znwm@PLT
 1902      00
 1903              	.LEHE36:
 1904 02fc 48894424 		movq	%rax, 40(%rsp)
 1904      28
 1905 0301 488B4424 		movq	8(%rsp), %rax
 1905      08
 1906 0306 4C8B7068 		movq	104(%rax), %r14
 1907 030a 4C8B6060 		movq	96(%rax), %r12
 1908              	.L467:
 1909 030e 488B4424 		movq	40(%rsp), %rax
 1909      28
 1910 0313 4801C3   		addq	%rax, %rbx
 1911 0316 4D39E6   		cmpq	%r12, %r14
 1912 0319 48898424 		movq	%rax, 320(%rsp)
 1912      40010000 
 1913 0321 48899C24 		movq	%rbx, 336(%rsp)
 1913      50010000 
 1914 0329 48898424 		movq	%rax, 328(%rsp)
 1914      48010000 
 1915 0331 4889C3   		movq	%rax, %rbx
 1916 0334 0F849000 		je	.L469
 1916      0000
 1917 033a 488D8424 		leaq	216(%rsp), %rax
 1917      D8000000 
 1918 0342 48894424 		movq	%rax, 16(%rsp)
 1918      10
 1919 0347 660F1F84 		.p2align 4,,10
 1919      00000000 
 1919      00
 1920              		.p2align 3
 1921              	.L477:
 1922 0350 4885DB   		testq	%rbx, %rbx
 1923 0353 7468     		je	.L470
 1924 0355 488D7B18 		leaq	24(%rbx), %rdi
 1925 0359 418B0424 		movl	(%r12), %eax
 1926 035d 498B6C24 		movq	16(%r12), %rbp
 1926      10
 1927 0362 48897B08 		movq	%rdi, 8(%rbx)
 1928 0366 4D8B6C24 		movq	8(%r12), %r13
 1928      08
 1929 036b 8903     		movl	%eax, (%rbx)
 1930 036d 4C89E8   		movq	%r13, %rax
 1931 0370 4801E8   		addq	%rbp, %rax
 1932 0373 741B     		je	.L473
 1933 0375 4D85ED   		testq	%r13, %r13
 1934 0378 7516     		jne	.L473
 1935 037a 488D3D00 		leaq	.LC3(%rip), %rdi
 1935      000000
 1936              	.LEHB37:
 1937 0381 E8000000 		call	_ZSt19__throw_logic_errorPKc@PLT
 1937      00
 1938              	.LEHE37:
 1939 0386 662E0F1F 		.p2align 4,,10
 1939      84000000 
 1939      0000
 1940              		.p2align 3
 1941              	.L473:
 1942 0390 4883FD0F 		cmpq	$15, %rbp
 1943 0394 4889AC24 		movq	%rbp, 216(%rsp)
 1943      D8000000 
 1944 039c 0F87DE01 		ja	.L1019
 1944      0000
 1945 03a2 4883FD01 		cmpq	$1, %rbp
 1946 03a6 0F841402 		je	.L1020
 1946      0000
 1947 03ac 4885ED   		testq	%rbp, %rbp
 1948 03af 0F85EE01 		jne	.L474
 1948      0000
 1949              	.L476:
 1950 03b5 48896B10 		movq	%rbp, 16(%rbx)
 1951 03b9 C6042F00 		movb	$0, (%rdi,%rbp)
 1952              	.L470:
 1953 03bd 4983C428 		addq	$40, %r12
 1954 03c1 4883C328 		addq	$40, %rbx
 1955 03c5 4D39E6   		cmpq	%r12, %r14
 1956 03c8 7586     		jne	.L477
 1957              	.L469:
 1958 03ca 488B4424 		movq	8(%rsp), %rax
 1958      08
 1959 03cf 48899C24 		movq	%rbx, 328(%rsp)
 1959      48010000 
 1960 03d7 F30F1040 		movss	120(%rax), %xmm0
 1960      78
 1961 03dc 0FB6407C 		movzbl	124(%rax), %eax
 1962 03e0 F30F1184 		movss	%xmm0, 344(%rsp)
 1962      24580100 
 1962      00
 1963 03e9 8884245C 		movb	%al, 348(%rsp)
 1963      010000
 1964 03f0 488B4424 		movq	32(%rsp), %rax
 1964      20
 1965 03f5 488B5008 		movq	8(%rax), %rdx
 1966 03f9 488D8200 		leaq	-256(%rdx), %rax
 1966      FFFFFF
 1967 0400 482B4424 		subq	24(%rsp), %rax
 1967      18
 1968 0405 4883F87F 		cmpq	$127, %rax
 1969 0409 7E64     		jle	.L493
 1970 040b 4889D1   		movq	%rdx, %rcx
 1971 040e 488DAA00 		leaq	-256(%rdx), %rbp
 1971      FFFFFF
 1972 0415 4829C1   		subq	%rax, %rcx
 1973 0418 4C8D6180 		leaq	-128(%rcx), %r12
 1974 041c 0F1F4000 		.p2align 4,,10
 1975              		.p2align 3
 1976              	.L494:
 1977 0420 4889EB   		movq	%rbp, %rbx
 1978 0423 4883C580 		addq	$-128, %rbp
 1979 0427 4889EE   		movq	%rbp, %rsi
 1980 042a 4889DF   		movq	%rbx, %rdi
 1981              	.LEHB38:
 1982 042d E8000000 		call	_ZNSt7__cxx1112basic_stringIcSt11char_traitsIcESaIcEE9_M_assignERKS4_@PLT
 1982      00
 1983 0432 488D73A0 		leaq	-96(%rbx), %rsi
 1984 0436 488D7B20 		leaq	32(%rbx), %rdi
 1985 043a E8000000 		call	_ZNSt7__cxx1112basic_stringIcSt11char_traitsIcESaIcEE9_M_assignERKS4_@PLT
 1985      00
 1986 043f 488D73C0 		leaq	-64(%rbx), %rsi
 1987 0443 488D7B40 		leaq	64(%rbx), %rdi
 1988 0447 E8000000 		call	_ZNSt7__cxx1112basic_stringIcSt11char_traitsIcESaIcEE9_M_assignERKS4_@PLT
 1988      00
 1989 044c 488D73E0 		leaq	-32(%rbx), %rsi
 1990 0450 488D7B60 		leaq	96(%rbx), %rdi
 1991 0454 E8000000 		call	_ZNSt6vectorISt4pairIiNSt7__cxx1112basic_stringIcSt11char_traitsIcESaIcEEEESaIS7_EEaSERKS9_@P
 1991      00
 1992 0459 0FB643FC 		movzbl	-4(%rbx), %eax
 1993 045d F30F1043 		movss	-8(%rbx), %xmm0
 1993      F8
 1994 0462 4C39E3   		cmpq	%r12, %rbx
 1995 0465 F30F1143 		movss	%xmm0, 120(%rbx)
 1995      78
 1996 046a 88437C   		movb	%al, 124(%rbx)
 1997 046d 75B1     		jne	.L494
 1998              	.L493:
 1999 046f 488B7C24 		movq	24(%rsp), %rdi
 1999      18
 2000 0474 4C89FE   		movq	%r15, %rsi
 2001 0477 E8000000 		call	_ZNSt7__cxx1112basic_stringIcSt11char_traitsIcESaIcEE9_M_assignERKS4_@PLT
 2001      00
 2002 047c 488B5C24 		movq	24(%rsp), %rbx
 2002      18
 2003 0481 498D7720 		leaq	32(%r15), %rsi
 2004 0485 488D7B20 		leaq	32(%rbx), %rdi
 2005 0489 E8000000 		call	_ZNSt7__cxx1112basic_stringIcSt11char_traitsIcESaIcEE9_M_assignERKS4_@PLT
 2005      00
 2006 048e 498D7740 		leaq	64(%r15), %rsi
 2007 0492 488D7B40 		leaq	64(%rbx), %rdi
 2008 0496 E8000000 		call	_ZNSt7__cxx1112basic_stringIcSt11char_traitsIcESaIcEE9_M_assignERKS4_@PLT
 2008      00
 2009 049b 498D7760 		leaq	96(%r15), %rsi
 2010 049f 488D7B60 		leaq	96(%rbx), %rdi
 2011 04a3 E8000000 		call	_ZNSt6vectorISt4pairIiNSt7__cxx1112basic_stringIcSt11char_traitsIcESaIcEEEESaIS7_EEaSERKS9_@P
 2011      00
 2012              	.LEHE38:
 2013 04a8 0FB68424 		movzbl	348(%rsp), %eax
 2013      5C010000 
 2014 04b0 F30F1084 		movss	344(%rsp), %xmm0
 2014      24580100 
 2014      00
 2015 04b9 F30F1143 		movss	%xmm0, 120(%rbx)
 2015      78
 2016 04be 488BAC24 		movq	328(%rsp), %rbp
 2016      48010000 
 2017 04c6 88437C   		movb	%al, 124(%rbx)
 2018 04c9 488B9C24 		movq	320(%rsp), %rbx
 2018      40010000 
 2019 04d1 4839DD   		cmpq	%rbx, %rbp
 2020 04d4 742D     		je	.L495
 2021 04d6 662E0F1F 		.p2align 4,,10
 2021      84000000 
 2021      0000
 2022              		.p2align 3
 2023              	.L497:
 2024 04e0 488B7B08 		movq	8(%rbx), %rdi
 2025 04e4 488D4318 		leaq	24(%rbx), %rax
 2026 04e8 4839C7   		cmpq	%rax, %rdi
 2027 04eb 7405     		je	.L496
 2028 04ed E8000000 		call	_ZdlPv@PLT
 2028      00
 2029              	.L496:
 2030 04f2 4883C328 		addq	$40, %rbx
 2031 04f6 4839DD   		cmpq	%rbx, %rbp
 2032 04f9 75E5     		jne	.L497
 2033 04fb 488BAC24 		movq	320(%rsp), %rbp
 2033      40010000 
 2034              	.L495:
 2035 0503 4885ED   		testq	%rbp, %rbp
 2036 0506 7408     		je	.L498
 2037 0508 4889EF   		movq	%rbp, %rdi
 2038 050b E8000000 		call	_ZdlPv@PLT
 2038      00
 2039              	.L498:
 2040 0510 488BBC24 		movq	288(%rsp), %rdi
 2040      20010000 
 2041 0518 498D4750 		leaq	80(%r15), %rax
 2042 051c 4839C7   		cmpq	%rax, %rdi
 2043 051f 7405     		je	.L499
 2044 0521 E8000000 		call	_ZdlPv@PLT
 2044      00
 2045              	.L499:
 2046 0526 488BBC24 		movq	256(%rsp), %rdi
 2046      00010000 
 2047 052e 498D4730 		leaq	48(%r15), %rax
 2048 0532 4839C7   		cmpq	%rax, %rdi
 2049 0535 7405     		je	.L500
 2050 0537 E8000000 		call	_ZdlPv@PLT
 2050      00
 2051              	.L500:
 2052 053c 488BBC24 		movq	224(%rsp), %rdi
 2052      E0000000 
 2053 0544 4983C710 		addq	$16, %r15
 2054 0548 4C39FF   		cmpq	%r15, %rdi
 2055 054b 7405     		je	.L403
 2056 054d E8000000 		call	_ZdlPv@PLT
 2056      00
 2057              	.L403:
 2058 0552 488B8424 		movq	360(%rsp), %rax
 2058      68010000 
 2059 055a 64483304 		xorq	%fs:40, %rax
 2059      25280000 
 2059      00
 2060 0563 0F859415 		jne	.L1021
 2060      0000
 2061 0569 4881C478 		addq	$376, %rsp
 2061      010000
 2062              		.cfi_remember_state
 2063              		.cfi_def_cfa_offset 56
 2064 0570 5B       		popq	%rbx
 2065              		.cfi_def_cfa_offset 48
 2066 0571 5D       		popq	%rbp
 2067              		.cfi_def_cfa_offset 40
 2068 0572 415C     		popq	%r12
 2069              		.cfi_def_cfa_offset 32
 2070 0574 415D     		popq	%r13
 2071              		.cfi_def_cfa_offset 24
 2072 0576 415E     		popq	%r14
 2073              		.cfi_def_cfa_offset 16
 2074 0578 415F     		popq	%r15
 2075              		.cfi_def_cfa_offset 8
 2076 057a C3       		ret
 2077 057b 0F1F4400 		.p2align 4,,10
 2077      00
 2078              		.p2align 3
 2079              	.L1019:
 2080              		.cfi_restore_state
 2081 0580 488B7424 		movq	16(%rsp), %rsi
 2081      10
 2082 0585 488D7B08 		leaq	8(%rbx), %rdi
 2083 0589 31D2     		xorl	%edx, %edx
 2084              	.LEHB39:
 2085 058b E8000000 		call	_ZNSt7__cxx1112basic_stringIcSt11char_traitsIcESaIcEE9_M_createERmm@PLT
 2085      00
 2086              	.LEHE39:
 2087 0590 4889C7   		movq	%rax, %rdi
 2088 0593 48894308 		movq	%rax, 8(%rbx)
 2089 0597 488B8424 		movq	216(%rsp), %rax
 2089      D8000000 
 2090 059f 48894318 		movq	%rax, 24(%rbx)
 2091              	.L474:
 2092 05a3 4889EA   		movq	%rbp, %rdx
 2093 05a6 4C89EE   		movq	%r13, %rsi
 2094 05a9 E8000000 		call	memcpy@PLT
 2094      00
 2095 05ae 488BAC24 		movq	216(%rsp), %rbp
 2095      D8000000 
 2096 05b6 488B7B08 		movq	8(%rbx), %rdi
 2097 05ba E9F6FDFF 		jmp	.L476
 2097      FF
 2098 05bf 90       		.p2align 4,,10
 2099              		.p2align 3
 2100              	.L1020:
 2101 05c0 410FB645 		movzbl	0(%r13), %eax
 2101      00
 2102 05c5 884318   		movb	%al, 24(%rbx)
 2103 05c8 E9E8FDFF 		jmp	.L476
 2103      FF
 2104              	.L414:
 2105 05cd 4883FB0F 		cmpq	$15, %rbx
 2106 05d1 48899C24 		movq	%rbx, 200(%rsp)
 2106      C8000000 
 2107 05d9 0F871F03 		ja	.L1022
 2107      0000
 2108 05df 4883FB01 		cmpq	$1, %rbx
 2109 05e3 0F84A503 		je	.L1023
 2109      0000
 2110 05e9 4885DB   		testq	%rbx, %rbx
 2111 05ec 488B4424 		movq	56(%rsp), %rax
 2111      38
 2112 05f1 0F852A03 		jne	.L415
 2112      0000
 2113              	.L417:
 2114 05f7 49895E28 		movq	%rbx, 40(%r14)
 2115 05fb C6041800 		movb	$0, (%rax,%rbx)
 2116 05ff 498D4650 		leaq	80(%r14), %rax
 2117 0603 498B6EC0 		movq	-64(%r14), %rbp
 2118 0607 498B5EC8 		movq	-56(%r14), %rbx
 2119 060b 48894424 		movq	%rax, 64(%rsp)
 2119      40
 2120 0610 49894640 		movq	%rax, 64(%r14)
 2121 0614 4889E8   		movq	%rbp, %rax
 2122 0617 4801D8   		addq	%rbx, %rax
 2123 061a 7411     		je	.L420
 2124 061c 4885ED   		testq	%rbp, %rbp
 2125 061f 750C     		jne	.L420
 2126 0621 488D3D00 		leaq	.LC3(%rip), %rdi
 2126      000000
 2127              	.LEHB40:
 2128 0628 E8000000 		call	_ZSt19__throw_logic_errorPKc@PLT
 2128      00
 2129              	.LEHE40:
 2130              	.L420:
 2131 062d 4883FB0F 		cmpq	$15, %rbx
 2132 0631 48899C24 		movq	%rbx, 208(%rsp)
 2132      D0000000 
 2133 0639 0F877D02 		ja	.L1024
 2133      0000
 2134 063f 4883FB01 		cmpq	$1, %rbx
 2135 0643 0F843303 		je	.L1025
 2135      0000
 2136 0649 4885DB   		testq	%rbx, %rbx
 2137 064c 488B4424 		movq	64(%rsp), %rax
 2137      40
 2138 0651 0F858802 		jne	.L421
 2138      0000
 2139              	.L423:
 2140 0657 49895E48 		movq	%rbx, 72(%r14)
 2141 065b C6041800 		movb	$0, (%rax,%rbx)
 2142 065f 48B8CDCC 		movabsq	$-3689348814741910323, %rax
 2142      CCCCCCCC 
 2142      CCCC
 2143 0669 4D8B7EE8 		movq	-24(%r14), %r15
 2144 066d 4D8B66E0 		movq	-32(%r14), %r12
 2145 0671 49C74660 		movq	$0, 96(%r14)
 2145      00000000 
 2146 0679 49C74668 		movq	$0, 104(%r14)
 2146      00000000 
 2147 0681 49C74670 		movq	$0, 112(%r14)
 2147      00000000 
 2148 0689 4C89FB   		movq	%r15, %rbx
 2149 068c 4C29E3   		subq	%r12, %rbx
 2150 068f 4889DA   		movq	%rbx, %rdx
 2151 0692 48C1FA03 		sarq	$3, %rdx
 2152 0696 480FAFC2 		imulq	%rdx, %rax
 2153 069a 4885C0   		testq	%rax, %rax
 2154 069d 0F849A03 		je	.L1026
 2154      0000
 2155 06a3 48BA6666 		movabsq	$461168601842738790, %rdx
 2155      66666666 
 2155      6606
 2156 06ad 4839D0   		cmpq	%rdx, %rax
 2157 06b0 0F875914 		ja	.L1027
 2157      0000
 2158 06b6 4889DF   		movq	%rbx, %rdi
 2159              	.LEHB41:
 2160 06b9 E8000000 		call	_Znwm@PLT
 2160      00
 2161              	.LEHE41:
 2162 06be 4D8B7EE8 		movq	-24(%r14), %r15
 2163 06c2 4D8B66E0 		movq	-32(%r14), %r12
 2164 06c6 48894424 		movq	%rax, 40(%rsp)
 2164      28
 2165              	.L425:
 2166 06cb 4801C3   		addq	%rax, %rbx
 2167 06ce 4D39E7   		cmpq	%r12, %r15
 2168 06d1 49894660 		movq	%rax, 96(%r14)
 2169 06d5 49895E70 		movq	%rbx, 112(%r14)
 2170 06d9 49894668 		movq	%rax, 104(%r14)
 2171 06dd 4889C3   		movq	%rax, %rbx
 2172 06e0 0F84E0F9 		je	.L427
 2172      FFFF
 2173 06e6 488D8424 		leaq	216(%rsp), %rax
 2173      D8000000 
 2174 06ee 48894424 		movq	%rax, 16(%rsp)
 2174      10
 2175              		.p2align 4,,10
 2176 06f3 0F1F4400 		.p2align 3
 2176      00
 2177              	.L435:
 2178 06f8 4885DB   		testq	%rbx, %rbx
 2179 06fb 0F84B4F9 		je	.L428
 2179      FFFF
 2180 0701 488D7B18 		leaq	24(%rbx), %rdi
 2181 0705 418B0424 		movl	(%r12), %eax
 2182 0709 498B6C24 		movq	16(%r12), %rbp
 2182      10
 2183 070e 48897B08 		movq	%rdi, 8(%rbx)
 2184 0712 4D8B6C24 		movq	8(%r12), %r13
 2184      08
 2185 0717 8903     		movl	%eax, (%rbx)
 2186 0719 4C89E8   		movq	%r13, %rax
 2187 071c 4801E8   		addq	%rbp, %rax
 2188 071f 0F8463F9 		je	.L431
 2188      FFFF
 2189 0725 4D85ED   		testq	%r13, %r13
 2190 0728 0F855AF9 		jne	.L431
 2190      FFFF
 2191 072e 488D3D00 		leaq	.LC3(%rip), %rdi
 2191      000000
 2192              	.LEHB42:
 2193 0735 E8000000 		call	_ZSt19__throw_logic_errorPKc@PLT
 2193      00
 2194 073a 660F1F44 		.p2align 4,,10
 2194      0000
 2195              		.p2align 3
 2196              	.L1007:
 2197 0740 488B7424 		movq	16(%rsp), %rsi
 2197      10
 2198 0745 488D7B08 		leaq	8(%rbx), %rdi
 2199 0749 31D2     		xorl	%edx, %edx
 2200 074b E8000000 		call	_ZNSt7__cxx1112basic_stringIcSt11char_traitsIcESaIcEE9_M_createERmm@PLT
 2200      00
 2201              	.LEHE42:
 2202 0750 4889C7   		movq	%rax, %rdi
 2203 0753 48894308 		movq	%rax, 8(%rbx)
 2204 0757 488B8424 		movq	216(%rsp), %rax
 2204      D8000000 
 2205 075f 48894318 		movq	%rax, 24(%rbx)
 2206              	.L432:
 2207 0763 4889EA   		movq	%rbp, %rdx
 2208 0766 4C89EE   		movq	%r13, %rsi
 2209 0769 E8000000 		call	memcpy@PLT
 2209      00
 2210 076e 488BAC24 		movq	216(%rsp), %rbp
 2210      D8000000 
 2211 0776 488B7B08 		movq	8(%rbx), %rdi
 2212 077a E92EF9FF 		jmp	.L434
 2212      FF
 2213 077f 90       		.p2align 4,,10
 2214              		.p2align 3
 2215              	.L1008:
 2216 0780 410FB645 		movzbl	0(%r13), %eax
 2216      00
 2217 0785 884318   		movb	%al, 24(%rbx)
 2218 0788 E920F9FF 		jmp	.L434
 2218      FF
 2219 078d 0F1F00   		.p2align 4,,10
 2220              		.p2align 3
 2221              	.L1013:
 2222 0790 488DB424 		leaq	200(%rsp), %rsi
 2222      C8000000 
 2223 0798 498D7F20 		leaq	32(%r15), %rdi
 2224 079c 31D2     		xorl	%edx, %edx
 2225              	.LEHB43:
 2226 079e E8000000 		call	_ZNSt7__cxx1112basic_stringIcSt11char_traitsIcESaIcEE9_M_createERmm@PLT
 2226      00
 2227              	.LEHE43:
 2228 07a3 488B9424 		movq	200(%rsp), %rdx
 2228      C8000000 
 2229 07ab 48898424 		movq	%rax, 256(%rsp)
 2229      00010000 
 2230 07b3 48899424 		movq	%rdx, 272(%rsp)
 2230      10010000 
 2231              	.L457:
 2232 07bb 4889DA   		movq	%rbx, %rdx
 2233 07be 4889EE   		movq	%rbp, %rsi
 2234 07c1 4889C7   		movq	%rax, %rdi
 2235 07c4 E8000000 		call	memcpy@PLT
 2235      00
 2236 07c9 488B9C24 		movq	200(%rsp), %rbx
 2236      C8000000 
 2237 07d1 488B8424 		movq	256(%rsp), %rax
 2237      00010000 
 2238 07d9 E93BFAFF 		jmp	.L459
 2238      FF
 2239 07de 6690     		.p2align 4,,10
 2240              		.p2align 3
 2241              	.L1015:
 2242 07e0 488DB424 		leaq	208(%rsp), %rsi
 2242      D0000000 
 2243 07e8 498D7F40 		leaq	64(%r15), %rdi
 2244 07ec 31D2     		xorl	%edx, %edx
 2245              	.LEHB44:
 2246 07ee E8000000 		call	_ZNSt7__cxx1112basic_stringIcSt11char_traitsIcESaIcEE9_M_createERmm@PLT
 2246      00
 2247              	.LEHE44:
 2248 07f3 488B9424 		movq	208(%rsp), %rdx
 2248      D0000000 
 2249 07fb 48898424 		movq	%rax, 288(%rsp)
 2249      20010000 
 2250 0803 48899424 		movq	%rdx, 304(%rsp)
 2250      30010000 
 2251              	.L463:
 2252 080b 4889DA   		movq	%rbx, %rdx
 2253 080e 4889EE   		movq	%rbp, %rsi
 2254 0811 4889C7   		movq	%rax, %rdi
 2255 0814 E8000000 		call	memcpy@PLT
 2255      00
 2256 0819 488B9C24 		movq	208(%rsp), %rbx
 2256      D0000000 
 2257 0821 488B8424 		movq	288(%rsp), %rax
 2257      20010000 
 2258 0829 E952FAFF 		jmp	.L465
 2258      FF
 2259 082e 6690     		.p2align 4,,10
 2260              		.p2align 3
 2261              	.L1009:
 2262 0830 488DB424 		leaq	216(%rsp), %rsi
 2262      D8000000 
 2263 0838 31D2     		xorl	%edx, %edx
 2264 083a 4C89FF   		movq	%r15, %rdi
 2265              	.LEHB45:
 2266 083d E8000000 		call	_ZNSt7__cxx1112basic_stringIcSt11char_traitsIcESaIcEE9_M_createERmm@PLT
 2266      00
 2267 0842 488B9424 		movq	216(%rsp), %rdx
 2267      D8000000 
 2268 084a 48898424 		movq	%rax, 224(%rsp)
 2268      E0000000 
 2269 0852 48899424 		movq	%rdx, 240(%rsp)
 2269      F0000000 
 2270              	.L451:
 2271 085a 4889DA   		movq	%rbx, %rdx
 2272 085d 4889EE   		movq	%rbp, %rsi
 2273 0860 4889C7   		movq	%rax, %rdi
 2274 0863 E8000000 		call	memcpy@PLT
 2274      00
 2275 0868 488B9C24 		movq	216(%rsp), %rbx
 2275      D8000000 
 2276 0870 488B8424 		movq	224(%rsp), %rax
 2276      E0000000 
 2277 0878 E9CDF8FF 		jmp	.L453
 2277      FF
 2278              	.L1011:
 2279 087d 488DB424 		leaq	216(%rsp), %rsi
 2279      D8000000 
 2280 0885 31D2     		xorl	%edx, %edx
 2281 0887 4C89F7   		movq	%r14, %rdi
 2282 088a E8000000 		call	_ZNSt7__cxx1112basic_stringIcSt11char_traitsIcESaIcEE9_M_createERmm@PLT
 2282      00
 2283              	.LEHE45:
 2284 088f 488B9424 		movq	216(%rsp), %rdx
 2284      D8000000 
 2285 0897 498906   		movq	%rax, (%r14)
 2286 089a 49895610 		movq	%rdx, 16(%r14)
 2287              	.L409:
 2288 089e 4889DA   		movq	%rbx, %rdx
 2289 08a1 4889EE   		movq	%rbp, %rsi
 2290 08a4 4889C7   		movq	%rax, %rdi
 2291 08a7 E8000000 		call	memcpy@PLT
 2291      00
 2292 08ac 488B9C24 		movq	216(%rsp), %rbx
 2292      D8000000 
 2293 08b4 498B06   		movq	(%r14), %rax
 2294 08b7 E9F6F8FF 		jmp	.L411
 2294      FF
 2295              	.L1024:
 2296 08bc 488DB424 		leaq	208(%rsp), %rsi
 2296      D0000000 
 2297 08c4 498D7E40 		leaq	64(%r14), %rdi
 2298 08c8 31D2     		xorl	%edx, %edx
 2299              	.LEHB46:
 2300 08ca E8000000 		call	_ZNSt7__cxx1112basic_stringIcSt11char_traitsIcESaIcEE9_M_createERmm@PLT
 2300      00
 2301              	.LEHE46:
 2302 08cf 488B9424 		movq	208(%rsp), %rdx
 2302      D0000000 
 2303 08d7 49894640 		movq	%rax, 64(%r14)
 2304 08db 49895650 		movq	%rdx, 80(%r14)
 2305              	.L421:
 2306 08df 4889DA   		movq	%rbx, %rdx
 2307 08e2 4889EE   		movq	%rbp, %rsi
 2308 08e5 4889C7   		movq	%rax, %rdi
 2309 08e8 E8000000 		call	memcpy@PLT
 2309      00
 2310 08ed 488B9C24 		movq	208(%rsp), %rbx
 2310      D0000000 
 2311 08f5 498B4640 		movq	64(%r14), %rax
 2312 08f9 E959FDFF 		jmp	.L423
 2312      FF
 2313              	.L1022:
 2314 08fe 488DB424 		leaq	200(%rsp), %rsi
 2314      C8000000 
 2315 0906 498D7E20 		leaq	32(%r14), %rdi
 2316 090a 31D2     		xorl	%edx, %edx
 2317              	.LEHB47:
 2318 090c E8000000 		call	_ZNSt7__cxx1112basic_stringIcSt11char_traitsIcESaIcEE9_M_createERmm@PLT
 2318      00
 2319              	.LEHE47:
 2320 0911 488B9424 		movq	200(%rsp), %rdx
 2320      C8000000 
 2321 0919 49894620 		movq	%rax, 32(%r14)
 2322 091d 49895630 		movq	%rdx, 48(%r14)
 2323              	.L415:
 2324 0921 4889DA   		movq	%rbx, %rdx
 2325 0924 4889EE   		movq	%rbp, %rsi
 2326 0927 4889C7   		movq	%rax, %rdi
 2327 092a E8000000 		call	memcpy@PLT
 2327      00
 2328 092f 488B9C24 		movq	200(%rsp), %rbx
 2328      C8000000 
 2329 0937 498B4620 		movq	32(%r14), %rax
 2330 093b E9B7FCFF 		jmp	.L417
 2330      FF
 2331              	.L1010:
 2332 0940 0FB64500 		movzbl	0(%rbp), %eax
 2333 0944 888424F0 		movb	%al, 240(%rsp)
 2333      000000
 2334 094b 498D4710 		leaq	16(%r15), %rax
 2335 094f E9F6F7FF 		jmp	.L453
 2335      FF
 2336              	.L1014:
 2337 0954 0FB64500 		movzbl	0(%rbp), %eax
 2338 0958 88842410 		movb	%al, 272(%rsp)
 2338      010000
 2339 095f 498D4730 		leaq	48(%r15), %rax
 2340 0963 E9B1F8FF 		jmp	.L459
 2340      FF
 2341              	.L1016:
 2342 0968 0FB64500 		movzbl	0(%rbp), %eax
 2343 096c 88842430 		movb	%al, 304(%rsp)
 2343      010000
 2344 0973 498D4750 		leaq	80(%r15), %rax
 2345 0977 E904F9FF 		jmp	.L465
 2345      FF
 2346              	.L1025:
 2347 097c 0FB64500 		movzbl	0(%rbp), %eax
 2348 0980 41884650 		movb	%al, 80(%r14)
 2349 0984 488B4424 		movq	64(%rsp), %rax
 2349      40
 2350 0989 E9C9FCFF 		jmp	.L423
 2350      FF
 2351              	.L1023:
 2352 098e 0FB64500 		movzbl	0(%rbp), %eax
 2353 0992 41884630 		movb	%al, 48(%r14)
 2354 0996 488B4424 		movq	56(%rsp), %rax
 2354      38
 2355 099b E957FCFF 		jmp	.L417
 2355      FF
 2356              	.L1012:
 2357 09a0 0FB64500 		movzbl	0(%rbp), %eax
 2358 09a4 41884610 		movb	%al, 16(%r14)
 2359 09a8 488B4424 		movq	48(%rsp), %rax
 2359      30
 2360 09ad E900F8FF 		jmp	.L411
 2360      FF
 2361              	.L1017:
 2362 09b2 48C74424 		movq	$0, 40(%rsp)
 2362      28000000 
 2362      00
 2363 09bb E94EF9FF 		jmp	.L467
 2363      FF
 2364              	.L404:
 2365 09c0 488B17   		movq	(%rdi), %rdx
 2366 09c3 4929D6   		subq	%rdx, %r14
 2367 09c6 49C1FE07 		sarq	$7, %r14
 2368 09ca 4D85F6   		testq	%r14, %r14
 2369 09cd 0F85AD00 		jne	.L1028
 2369      0000
 2370 09d3 4889F3   		movq	%rsi, %rbx
 2371 09d6 B8010000 		movl	$1, %eax
 2371      00
 2372 09db 4829D3   		subq	%rdx, %rbx
 2373              	.L693:
 2374 09de 48C1E007 		salq	$7, %rax
 2375 09e2 48894424 		movq	%rax, 120(%rsp)
 2375      78
 2376 09e7 4889C7   		movq	%rax, %rdi
 2377              	.L692:
 2378              	.LEHB48:
 2379 09ea E8000000 		call	_Znwm@PLT
 2379      00
 2380              	.LEHE48:
 2381 09ef 48894424 		movq	%rax, 80(%rsp)
 2381      50
 2382              	.L694:
 2383 09f4 48035C24 		addq	80(%rsp), %rbx
 2383      50
 2384 09f9 48895C24 		movq	%rbx, 72(%rsp)
 2384      48
 2385 09fe 0F840C01 		je	.L506
 2385      0000
 2386 0a04 488D4310 		leaq	16(%rbx), %rax
 2387 0a08 488903   		movq	%rax, (%rbx)
 2388 0a0b 48894424 		movq	%rax, 40(%rsp)
 2388      28
 2389 0a10 488B4424 		movq	8(%rsp), %rax
 2389      08
 2390 0a15 488B28   		movq	(%rax), %rbp
 2391 0a18 488B5808 		movq	8(%rax), %rbx
 2392 0a1c 4889E8   		movq	%rbp, %rax
 2393 0a1f 4801D8   		addq	%rbx, %rax
 2394 0a22 0F84940A 		je	.L509
 2394      0000
 2395 0a28 4885ED   		testq	%rbp, %rbp
 2396 0a2b 0F858B0A 		jne	.L509
 2396      0000
 2397 0a31 488D3D00 		leaq	.LC3(%rip), %rdi
 2397      000000
 2398              	.LEHB49:
 2399 0a38 E8000000 		call	_ZSt19__throw_logic_errorPKc@PLT
 2399      00
 2400              	.LEHE49:
 2401              	.L1026:
 2402 0a3d 48C74424 		movq	$0, 40(%rsp)
 2402      28000000 
 2402      00
 2403 0a46 488B4424 		movq	40(%rsp), %rax
 2403      28
 2404 0a4b E97BFCFF 		jmp	.L425
 2404      FF
 2405              		.p2align 4,,10
 2406              		.p2align 3
 2407              	.L754:
 2408 0a50 E94E0F00 		jmp	.L480
 2408      00
 2409              		.p2align 4,,10
 2410 0a55 0F1F00   		.p2align 3
 2411              	.L749:
 2412 0a58 E9E00F00 		jmp	.L436
 2412      00
 2413              	.L750:
 2414 0a5d 4889C3   		movq	%rax, %rbx
 2415 0a60 E9B50F00 		jmp	.L491
 2415      00
 2416              	.L751:
 2417 0a65 4889C3   		movq	%rax, %rbx
 2418 0a68 E9970F00 		jmp	.L489
 2418      00
 2419              	.L746:
 2420 0a6d 4889C3   		movq	%rax, %rbx
 2421 0a70 E91F1000 		jmp	.L445
 2421      00
 2422              	.L745:
 2423 0a75 4889C3   		movq	%rax, %rbx
 2424 0a78 E9271000 		jmp	.L447
 2424      00
 2425 0a7d 0F1F00   		.p2align 4,,10
 2426              		.p2align 3
 2427              	.L1028:
 2428 0a80 4B8D0436 		leaq	(%r14,%r14), %rax
 2429 0a84 4939C6   		cmpq	%rax, %r14
 2430 0a87 0F86DD0E 		jbe	.L1029
 2430      0000
 2431              	.L504:
 2432 0a8d 488B5C24 		movq	24(%rsp), %rbx
 2432      18
 2433 0a92 48C74424 		movq	$-128, 120(%rsp)
 2433      7880FFFF 
 2433      FF
 2434 0a9b 488B7C24 		movq	120(%rsp), %rdi
 2434      78
 2435 0aa0 4829D3   		subq	%rdx, %rbx
 2436 0aa3 E942FFFF 		jmp	.L692
 2436      FF
 2437              	.L774:
 2438 0aa8 E9480E00 		jmp	.L550
 2438      00
 2439 0aad 0F1F00   		.p2align 4,,10
 2440              		.p2align 3
 2441              	.L532:
 2442 0ab0 4883FD0F 		cmpq	$15, %rbp
 2443 0ab4 4889AC24 		movq	%rbp, 152(%rsp)
 2443      98000000 
 2444 0abc 0F871E0C 		ja	.L1030
 2444      0000
 2445 0ac2 4883FD01 		cmpq	$1, %rbp
 2446 0ac6 0F84530C 		je	.L1031
 2446      0000
 2447 0acc 4885ED   		testq	%rbp, %rbp
 2448 0acf 0F852B0C 		jne	.L533
 2448      0000
 2449              	.L535:
 2450 0ad5 48896B10 		movq	%rbp, 16(%rbx)
 2451 0ad9 C6042800 		movb	$0, (%rax,%rbp)
 2452              	.L529:
 2453 0add 4983C428 		addq	$40, %r12
 2454 0ae1 4883C328 		addq	$40, %rbx
 2455 0ae5 4D39E6   		cmpq	%r12, %r14
 2456 0ae8 0F85A20B 		jne	.L536
 2456      0000
 2457 0aee 488B4424 		movq	72(%rsp), %rax
 2457      48
 2458              	.L528:
 2459 0af3 488B5424 		movq	8(%rsp), %rdx
 2459      08
 2460 0af8 48895868 		movq	%rbx, 104(%rax)
 2461 0afc 4889C1   		movq	%rax, %rcx
 2462 0aff F30F1042 		movss	120(%rdx), %xmm0
 2462      78
 2463 0b04 F30F1140 		movss	%xmm0, 120(%rax)
 2463      78
 2464 0b09 0FB6427C 		movzbl	124(%rdx), %eax
 2465 0b0d 88417C   		movb	%al, 124(%rcx)
 2466              	.L506:
 2467 0b10 488B4424 		movq	32(%rsp), %rax
 2467      20
 2468 0b15 4C8B7424 		movq	80(%rsp), %r14
 2468      50
 2469 0b1a 488B00   		movq	(%rax), %rax
 2470 0b1d 48394424 		cmpq	%rax, 24(%rsp)
 2470      18
 2471 0b22 48894424 		movq	%rax, 8(%rsp)
 2471      08
 2472 0b27 0F84DF02 		je	.L551
 2472      0000
 2473 0b2d 488D8424 		leaq	184(%rsp), %rax
 2473      B8000000 
 2474 0b35 48894424 		movq	%rax, 16(%rsp)
 2474      10
 2475 0b3a 488D8424 		leaq	176(%rsp), %rax
 2475      B0000000 
 2476 0b42 48894424 		movq	%rax, 88(%rsp)
 2476      58
 2477 0b47 488D8424 		leaq	168(%rsp), %rax
 2477      A8000000 
 2478 0b4f 48894424 		movq	%rax, 96(%rsp)
 2478      60
 2479 0b54 488D8424 		leaq	160(%rsp), %rax
 2479      A0000000 
 2480 0b5c 48894424 		movq	%rax, 104(%rsp)
 2480      68
 2481              		.p2align 4,,10
 2482 0b61 0F1F8000 		.p2align 3
 2482      000000
 2483              	.L597:
 2484 0b68 4D85F6   		testq	%r14, %r14
 2485 0b6b 0F848102 		je	.L552
 2485      0000
 2486 0b71 498D4610 		leaq	16(%r14), %rax
 2487 0b75 498906   		movq	%rax, (%r14)
 2488 0b78 48894424 		movq	%rax, 64(%rsp)
 2488      40
 2489 0b7d 488B4424 		movq	8(%rsp), %rax
 2489      08
 2490 0b82 488B28   		movq	(%rax), %rbp
 2491 0b85 488B5808 		movq	8(%rax), %rbx
 2492 0b89 4889E8   		movq	%rbp, %rax
 2493 0b8c 4801D8   		addq	%rbx, %rax
 2494 0b8f 741F     		je	.L555
 2495 0b91 4885ED   		testq	%rbp, %rbp
 2496 0b94 751A     		jne	.L555
 2497 0b96 488D3D00 		leaq	.LC3(%rip), %rdi
 2497      000000
 2498              	.LEHB50:
 2499 0b9d E8000000 		call	_ZSt19__throw_logic_errorPKc@PLT
 2499      00
 2500              	.LEHE50:
 2501              	.L761:
 2502 0ba2 E9BC0F00 		jmp	.L596
 2502      00
 2503 0ba7 660F1F84 		.p2align 4,,10
 2503      00000000 
 2503      00
 2504              		.p2align 3
 2505              	.L555:
 2506 0bb0 4883FB0F 		cmpq	$15, %rbx
 2507 0bb4 48899C24 		movq	%rbx, 160(%rsp)
 2507      A0000000 
 2508 0bbc 0F876E07 		ja	.L1032
 2508      0000
 2509 0bc2 4883FB01 		cmpq	$1, %rbx
 2510 0bc6 0F848708 		je	.L1033
 2510      0000
 2511 0bcc 4885DB   		testq	%rbx, %rbx
 2512 0bcf 488B4424 		movq	64(%rsp), %rax
 2512      40
 2513 0bd4 0F856A0B 		jne	.L1034
 2513      0000
 2514              	.L558:
 2515 0bda 49895E08 		movq	%rbx, 8(%r14)
 2516 0bde C6041800 		movb	$0, (%rax,%rbx)
 2517 0be2 498D4630 		leaq	48(%r14), %rax
 2518 0be6 49894620 		movq	%rax, 32(%r14)
 2519 0bea 48894424 		movq	%rax, 56(%rsp)
 2519      38
 2520 0bef 488B4424 		movq	8(%rsp), %rax
 2520      08
 2521 0bf4 488B6820 		movq	32(%rax), %rbp
 2522 0bf8 488B5828 		movq	40(%rax), %rbx
 2523 0bfc 4889E8   		movq	%rbp, %rax
 2524 0bff 4801D8   		addq	%rbx, %rax
 2525 0c02 741C     		je	.L561
 2526 0c04 4885ED   		testq	%rbp, %rbp
 2527 0c07 7517     		jne	.L561
 2528 0c09 488D3D00 		leaq	.LC3(%rip), %rdi
 2528      000000
 2529              	.LEHB51:
 2530 0c10 E8000000 		call	_ZSt19__throw_logic_errorPKc@PLT
 2530      00
 2531              	.LEHE51:
 2532              	.L762:
 2533 0c15 4889C3   		movq	%rax, %rbx
 2534 0c18 E9340F00 		jmp	.L594
 2534      00
 2535 0c1d 0F1F00   		.p2align 4,,10
 2536              		.p2align 3
 2537              	.L561:
 2538 0c20 4883FB0F 		cmpq	$15, %rbx
 2539 0c24 48899C24 		movq	%rbx, 168(%rsp)
 2539      A8000000 
 2540 0c2c 0F87BE06 		ja	.L1035
 2540      0000
 2541 0c32 4883FB01 		cmpq	$1, %rbx
 2542 0c36 0F840508 		je	.L1036
 2542      0000
 2543 0c3c 4885DB   		testq	%rbx, %rbx
 2544 0c3f 488B4424 		movq	56(%rsp), %rax
 2544      38
 2545 0c44 0F85F20A 		jne	.L1037
 2545      0000
 2546              	.L564:
 2547 0c4a 49895E28 		movq	%rbx, 40(%r14)
 2548 0c4e C6041800 		movb	$0, (%rax,%rbx)
 2549 0c52 498D4650 		leaq	80(%r14), %rax
 2550 0c56 49894640 		movq	%rax, 64(%r14)
 2551 0c5a 48894424 		movq	%rax, 48(%rsp)
 2551      30
 2552 0c5f 488B4424 		movq	8(%rsp), %rax
 2552      08
 2553 0c64 488B6840 		movq	64(%rax), %rbp
 2554 0c68 488B5848 		movq	72(%rax), %rbx
 2555 0c6c 4889E8   		movq	%rbp, %rax
 2556 0c6f 4801D8   		addq	%rbx, %rax
 2557 0c72 741C     		je	.L567
 2558 0c74 4885ED   		testq	%rbp, %rbp
 2559 0c77 7517     		jne	.L567
 2560 0c79 488D3D00 		leaq	.LC3(%rip), %rdi
 2560      000000
 2561              	.LEHB52:
 2562 0c80 E8000000 		call	_ZSt19__throw_logic_errorPKc@PLT
 2562      00
 2563              	.LEHE52:
 2564              	.L763:
 2565 0c85 4889C3   		movq	%rax, %rbx
 2566 0c88 E9B40E00 		jmp	.L592
 2566      00
 2567 0c8d 0F1F00   		.p2align 4,,10
 2568              		.p2align 3
 2569              	.L567:
 2570 0c90 4883FB0F 		cmpq	$15, %rbx
 2571 0c94 48899C24 		movq	%rbx, 176(%rsp)
 2571      B0000000 
 2572 0c9c 0F870E06 		ja	.L1038
 2572      0000
 2573 0ca2 4883FB01 		cmpq	$1, %rbx
 2574 0ca6 0F848307 		je	.L1039
 2574      0000
 2575 0cac 4885DB   		testq	%rbx, %rbx
 2576 0caf 488B4424 		movq	48(%rsp), %rax
 2576      30
 2577 0cb4 0F857A0A 		jne	.L1040
 2577      0000
 2578              	.L570:
 2579 0cba 49895E48 		movq	%rbx, 72(%r14)
 2580 0cbe C6041800 		movb	$0, (%rax,%rbx)
 2581 0cc2 488B4424 		movq	8(%rsp), %rax
 2581      08
 2582 0cc7 488B5868 		movq	104(%rax), %rbx
 2583 0ccb 482B5860 		subq	96(%rax), %rbx
 2584 0ccf 48B8CDCC 		movabsq	$-3689348814741910323, %rax
 2584      CCCCCCCC 
 2584      CCCC
 2585 0cd9 49C74660 		movq	$0, 96(%r14)
 2585      00000000 
 2586 0ce1 49C74668 		movq	$0, 104(%r14)
 2586      00000000 
 2587 0ce9 49C74670 		movq	$0, 112(%r14)
 2587      00000000 
 2588 0cf1 4889DA   		movq	%rbx, %rdx
 2589 0cf4 48C1FA03 		sarq	$3, %rdx
 2590 0cf8 480FAFC2 		imulq	%rdx, %rax
 2591 0cfc 4885C0   		testq	%rax, %rax
 2592 0cff 0F849607 		je	.L1041
 2592      0000
 2593 0d05 48BA6666 		movabsq	$461168601842738790, %rdx
 2593      66666666 
 2593      6606
 2594 0d0f 4839D0   		cmpq	%rdx, %rax
 2595 0d12 0F87BF0F 		ja	.L1042
 2595      0000
 2596 0d18 4889DF   		movq	%rbx, %rdi
 2597              	.LEHB53:
 2598 0d1b E8000000 		call	_Znwm@PLT
 2598      00
 2599              	.LEHE53:
 2600 0d20 48894424 		movq	%rax, 40(%rsp)
 2600      28
 2601              	.L572:
 2602 0d25 488B4C24 		movq	8(%rsp), %rcx
 2602      08
 2603 0d2a 4801C3   		addq	%rax, %rbx
 2604 0d2d 49894660 		movq	%rax, 96(%r14)
 2605 0d31 49895E70 		movq	%rbx, 112(%r14)
 2606 0d35 49894668 		movq	%rax, 104(%r14)
 2607 0d39 4889C3   		movq	%rax, %rbx
 2608 0d3c 4C8B7968 		movq	104(%rcx), %r15
 2609 0d40 4C8B6160 		movq	96(%rcx), %r12
 2610 0d44 4D39E7   		cmpq	%r12, %r15
 2611 0d47 0F84DF09 		je	.L737
 2611      0000
 2612 0d4d 0F1F00   		.p2align 4,,10
 2613              		.p2align 3
 2614              	.L582:
 2615 0d50 4885DB   		testq	%rbx, %rbx
 2616 0d53 7470     		je	.L575
 2617 0d55 488D7B18 		leaq	24(%rbx), %rdi
 2618 0d59 418B0424 		movl	(%r12), %eax
 2619 0d5d 498B6C24 		movq	16(%r12), %rbp
 2619      10
 2620 0d62 48897B08 		movq	%rdi, 8(%rbx)
 2621 0d66 4D8B6C24 		movq	8(%r12), %r13
 2621      08
 2622 0d6b 8903     		movl	%eax, (%rbx)
 2623 0d6d 4C89E8   		movq	%r13, %rax
 2624 0d70 4801E8   		addq	%rbp, %rax
 2625 0d73 7423     		je	.L578
 2626 0d75 4D85ED   		testq	%r13, %r13
 2627 0d78 751E     		jne	.L578
 2628 0d7a 488D3D00 		leaq	.LC3(%rip), %rdi
 2628      000000
 2629              	.LEHB54:
 2630 0d81 E8000000 		call	_ZSt19__throw_logic_errorPKc@PLT
 2630      00
 2631              	.LEHE54:
 2632 0d86 662E0F1F 		.p2align 4,,10
 2632      84000000 
 2632      0000
 2633              		.p2align 3
 2634              	.L766:
 2635 0d90 E9270D00 		jmp	.L583
 2635      00
 2636              		.p2align 4,,10
 2637 0d95 0F1F00   		.p2align 3
 2638              	.L578:
 2639 0d98 4883FD0F 		cmpq	$15, %rbp
 2640 0d9c 4889AC24 		movq	%rbp, 184(%rsp)
 2640      B8000000 
 2641 0da4 0F871601 		ja	.L1043
 2641      0000
 2642 0daa 4883FD01 		cmpq	$1, %rbp
 2643 0dae 0F844C01 		je	.L1044
 2643      0000
 2644 0db4 4885ED   		testq	%rbp, %rbp
 2645 0db7 0F852601 		jne	.L579
 2645      0000
 2646              	.L581:
 2647 0dbd 48896B10 		movq	%rbp, 16(%rbx)
 2648 0dc1 C6042F00 		movb	$0, (%rdi,%rbp)
 2649              	.L575:
 2650 0dc5 4983C428 		addq	$40, %r12
 2651 0dc9 4883C328 		addq	$40, %rbx
 2652 0dcd 4D39E7   		cmpq	%r12, %r15
 2653 0dd0 0F857AFF 		jne	.L582
 2653      FFFF
 2654 0dd6 488B4424 		movq	8(%rsp), %rax
 2654      08
 2655              	.L574:
 2656 0ddb F30F1040 		movss	120(%rax), %xmm0
 2656      78
 2657 0de0 0FB6407C 		movzbl	124(%rax), %eax
 2658 0de4 F3410F11 		movss	%xmm0, 120(%r14)
 2658      4678
 2659 0dea 49895E68 		movq	%rbx, 104(%r14)
 2660 0dee 4188467C 		movb	%al, 124(%r14)
 2661              	.L552:
 2662 0df2 48836C24 		subq	$-128, 8(%rsp)
 2662      0880
 2663 0df8 4983EE80 		subq	$-128, %r14
 2664 0dfc 488B4424 		movq	8(%rsp), %rax
 2664      08
 2665 0e01 48394424 		cmpq	%rax, 24(%rsp)
 2665      18
 2666 0e06 0F855CFD 		jne	.L597
 2666      FFFF
 2667              	.L551:
 2668 0e0c 498D8680 		leaq	128(%r14), %rax
 2668      000000
 2669 0e13 48894424 		movq	%rax, 112(%rsp)
 2669      70
 2670 0e18 488B4424 		movq	32(%rsp), %rax
 2670      20
 2671 0e1d 488B4008 		movq	8(%rax), %rax
 2672 0e21 48394424 		cmpq	%rax, 24(%rsp)
 2672      18
 2673 0e26 48894424 		movq	%rax, 64(%rsp)
 2673      40
 2674 0e2b 0F84610A 		je	.L1045
 2674      0000
 2675 0e31 488B4424 		movq	24(%rsp), %rax
 2675      18
 2676 0e36 4C8B7424 		movq	112(%rsp), %r14
 2676      70
 2677 0e3b 48894424 		movq	%rax, 8(%rsp)
 2677      08
 2678 0e40 488D8424 		leaq	216(%rsp), %rax
 2678      D8000000 
 2679 0e48 48894424 		movq	%rax, 16(%rsp)
 2679      10
 2680 0e4d 488D8424 		leaq	208(%rsp), %rax
 2680      D0000000 
 2681 0e55 48894424 		movq	%rax, 88(%rsp)
 2681      58
 2682 0e5a 488D8424 		leaq	200(%rsp), %rax
 2682      C8000000 
 2683 0e62 48894424 		movq	%rax, 96(%rsp)
 2683      60
 2684 0e67 488D8424 		leaq	192(%rsp), %rax
 2684      C0000000 
 2685 0e6f 48894424 		movq	%rax, 104(%rsp)
 2685      68
 2686              		.p2align 4,,10
 2687 0e74 0F1F4000 		.p2align 3
 2688              	.L650:
 2689 0e78 4D85F6   		testq	%r14, %r14
 2690 0e7b 0F84CD02 		je	.L605
 2690      0000
 2691 0e81 498D4610 		leaq	16(%r14), %rax
 2692 0e85 48894424 		movq	%rax, 56(%rsp)
 2692      38
 2693 0e8a 498906   		movq	%rax, (%r14)
 2694 0e8d 488B4424 		movq	8(%rsp), %rax
 2694      08
 2695 0e92 488B28   		movq	(%rax), %rbp
 2696 0e95 488B5808 		movq	8(%rax), %rbx
 2697 0e99 4889E8   		movq	%rbp, %rax
 2698 0e9c 4801D8   		addq	%rbx, %rax
 2699 0e9f 746C     		je	.L608
 2700 0ea1 4885ED   		testq	%rbp, %rbp
 2701 0ea4 7567     		jne	.L608
 2702 0ea6 488D3D00 		leaq	.LC3(%rip), %rdi
 2702      000000
 2703              	.LEHB55:
 2704 0ead E8000000 		call	_ZSt19__throw_logic_errorPKc@PLT
 2704      00
 2705              	.LEHE55:
 2706              	.L768:
 2707 0eb2 E9290D00 		jmp	.L649
 2707      00
 2708 0eb7 660F1F84 		.p2align 4,,10
 2708      00000000 
 2708      00
 2709              		.p2align 3
 2710              	.L1043:
 2711 0ec0 488B7424 		movq	16(%rsp), %rsi
 2711      10
 2712 0ec5 488D7B08 		leaq	8(%rbx), %rdi
 2713 0ec9 31D2     		xorl	%edx, %edx
 2714              	.LEHB56:
 2715 0ecb E8000000 		call	_ZNSt7__cxx1112basic_stringIcSt11char_traitsIcESaIcEE9_M_createERmm@PLT
 2715      00
 2716              	.LEHE56:
 2717 0ed0 4889C7   		movq	%rax, %rdi
 2718 0ed3 48894308 		movq	%rax, 8(%rbx)
 2719 0ed7 488B8424 		movq	184(%rsp), %rax
 2719      B8000000 
 2720 0edf 48894318 		movq	%rax, 24(%rbx)
 2721              	.L579:
 2722 0ee3 4889EA   		movq	%rbp, %rdx
 2723 0ee6 4C89EE   		movq	%r13, %rsi
 2724 0ee9 E8000000 		call	memcpy@PLT
 2724      00
 2725 0eee 488BAC24 		movq	184(%rsp), %rbp
 2725      B8000000 
 2726 0ef6 488B7B08 		movq	8(%rbx), %rdi
 2727 0efa E9BEFEFF 		jmp	.L581
 2727      FF
 2728 0eff 90       		.p2align 4,,10
 2729              		.p2align 3
 2730              	.L1044:
 2731 0f00 410FB645 		movzbl	0(%r13), %eax
 2731      00
 2732 0f05 884318   		movb	%al, 24(%rbx)
 2733 0f08 E9B0FEFF 		jmp	.L581
 2733      FF
 2734              	.L608:
 2735 0f0d 4883FB0F 		cmpq	$15, %rbx
 2736 0f11 48899C24 		movq	%rbx, 192(%rsp)
 2736      C0000000 
 2737 0f19 0F875104 		ja	.L1046
 2737      0000
 2738 0f1f 4883FB01 		cmpq	$1, %rbx
 2739 0f23 0F846005 		je	.L1047
 2739      0000
 2740 0f29 4885DB   		testq	%rbx, %rbx
 2741 0f2c 488B4424 		movq	56(%rsp), %rax
 2741      38
 2742 0f31 0F852508 		jne	.L1048
 2742      0000
 2743              	.L611:
 2744 0f37 49895E08 		movq	%rbx, 8(%r14)
 2745 0f3b C6041800 		movb	$0, (%rax,%rbx)
 2746 0f3f 498D4630 		leaq	48(%r14), %rax
 2747 0f43 48894424 		movq	%rax, 40(%rsp)
 2747      28
 2748 0f48 49894620 		movq	%rax, 32(%r14)
 2749 0f4c 488B4424 		movq	8(%rsp), %rax
 2749      08
 2750 0f51 488B6820 		movq	32(%rax), %rbp
 2751 0f55 488B5828 		movq	40(%rax), %rbx
 2752 0f59 4889E8   		movq	%rbp, %rax
 2753 0f5c 4801D8   		addq	%rbx, %rax
 2754 0f5f 741F     		je	.L614
 2755 0f61 4885ED   		testq	%rbp, %rbp
 2756 0f64 751A     		jne	.L614
 2757 0f66 488D3D00 		leaq	.LC3(%rip), %rdi
 2757      000000
 2758              	.LEHB57:
 2759 0f6d E8000000 		call	_ZSt19__throw_logic_errorPKc@PLT
 2759      00
 2760              	.LEHE57:
 2761              	.L769:
 2762 0f72 4889C3   		movq	%rax, %rbx
 2763 0f75 E9540C00 		jmp	.L647
 2763      00
 2764 0f7a 660F1F44 		.p2align 4,,10
 2764      0000
 2765              		.p2align 3
 2766              	.L614:
 2767 0f80 4883FB0F 		cmpq	$15, %rbx
 2768 0f84 48899C24 		movq	%rbx, 200(%rsp)
 2768      C8000000 
 2769 0f8c 0F871E04 		ja	.L1049
 2769      0000
 2770 0f92 4883FB01 		cmpq	$1, %rbx
 2771 0f96 0F84C904 		je	.L1050
 2771      0000
 2772 0f9c 4885DB   		testq	%rbx, %rbx
 2773 0f9f 488B4424 		movq	40(%rsp), %rax
 2773      28
 2774 0fa4 0F85A207 		jne	.L1051
 2774      0000
 2775              	.L617:
 2776 0faa 49895E28 		movq	%rbx, 40(%r14)
 2777 0fae C6041800 		movb	$0, (%rax,%rbx)
 2778 0fb2 498D4650 		leaq	80(%r14), %rax
 2779 0fb6 48894424 		movq	%rax, 48(%rsp)
 2779      30
 2780 0fbb 49894640 		movq	%rax, 64(%r14)
 2781 0fbf 488B4424 		movq	8(%rsp), %rax
 2781      08
 2782 0fc4 488B6840 		movq	64(%rax), %rbp
 2783 0fc8 488B5848 		movq	72(%rax), %rbx
 2784 0fcc 4889E8   		movq	%rbp, %rax
 2785 0fcf 4801D8   		addq	%rbx, %rax
 2786 0fd2 741C     		je	.L620
 2787 0fd4 4885ED   		testq	%rbp, %rbp
 2788 0fd7 7517     		jne	.L620
 2789 0fd9 488D3D00 		leaq	.LC3(%rip), %rdi
 2789      000000
 2790              	.LEHB58:
 2791 0fe0 E8000000 		call	_ZSt19__throw_logic_errorPKc@PLT
 2791      00
 2792              	.LEHE58:
 2793              	.L770:
 2794 0fe5 4889C3   		movq	%rax, %rbx
 2795 0fe8 E9D10B00 		jmp	.L645
 2795      00
 2796 0fed 0F1F00   		.p2align 4,,10
 2797              		.p2align 3
 2798              	.L620:
 2799 0ff0 4883FB0F 		cmpq	$15, %rbx
 2800 0ff4 48899C24 		movq	%rbx, 208(%rsp)
 2800      D0000000 
 2801 0ffc 0F87EE03 		ja	.L1052
 2801      0000
 2802 1002 4883FB01 		cmpq	$1, %rbx
 2803 1006 0F846B04 		je	.L1053
 2803      0000
 2804 100c 4885DB   		testq	%rbx, %rbx
 2805 100f 488B4424 		movq	48(%rsp), %rax
 2805      30
 2806 1014 0F853A07 		jne	.L1054
 2806      0000
 2807              	.L623:
 2808 101a 49895E48 		movq	%rbx, 72(%r14)
 2809 101e C6041800 		movb	$0, (%rax,%rbx)
 2810 1022 488B4424 		movq	8(%rsp), %rax
 2810      08
 2811 1027 49C74660 		movq	$0, 96(%r14)
 2811      00000000 
 2812 102f 49C74668 		movq	$0, 104(%r14)
 2812      00000000 
 2813 1037 49C74670 		movq	$0, 112(%r14)
 2813      00000000 
 2814 103f 4C8B7868 		movq	104(%rax), %r15
 2815 1043 4C8B6060 		movq	96(%rax), %r12
 2816 1047 48B8CDCC 		movabsq	$-3689348814741910323, %rax
 2816      CCCCCCCC 
 2816      CCCC
 2817 1051 4C89FB   		movq	%r15, %rbx
 2818 1054 4C29E3   		subq	%r12, %rbx
 2819 1057 4889DA   		movq	%rbx, %rdx
 2820 105a 48C1FA03 		sarq	$3, %rdx
 2821 105e 480FAFC2 		imulq	%rdx, %rax
 2822 1062 4885C0   		testq	%rax, %rax
 2823 1065 0F844304 		je	.L1055
 2823      0000
 2824 106b 48BA6666 		movabsq	$461168601842738790, %rdx
 2824      66666666 
 2824      6606
 2825 1075 4839D0   		cmpq	%rdx, %rax
 2826 1078 0F87D708 		ja	.L1056
 2826      0000
 2827 107e 4889DF   		movq	%rbx, %rdi
 2828              	.LEHB59:
 2829 1081 E8000000 		call	_Znwm@PLT
 2829      00
 2830              	.LEHE59:
 2831 1086 48894424 		movq	%rax, 24(%rsp)
 2831      18
 2832 108b 488B4424 		movq	8(%rsp), %rax
 2832      08
 2833 1090 4C8B7868 		movq	104(%rax), %r15
 2834 1094 4C8B6060 		movq	96(%rax), %r12
 2835              	.L625:
 2836 1098 488B4424 		movq	24(%rsp), %rax
 2836      18
 2837 109d 4801C3   		addq	%rax, %rbx
 2838 10a0 4D39FC   		cmpq	%r15, %r12
 2839 10a3 49894660 		movq	%rax, 96(%r14)
 2840 10a7 49895E70 		movq	%rbx, 112(%r14)
 2841 10ab 49894668 		movq	%rax, 104(%r14)
 2842 10af 4889C3   		movq	%rax, %rbx
 2843 10b2 747E     		je	.L627
 2844              		.p2align 4,,10
 2845 10b4 0F1F4000 		.p2align 3
 2846              	.L635:
 2847 10b8 4885DB   		testq	%rbx, %rbx
 2848 10bb 7468     		je	.L628
 2849 10bd 488D7B18 		leaq	24(%rbx), %rdi
 2850 10c1 418B0424 		movl	(%r12), %eax
 2851 10c5 498B6C24 		movq	16(%r12), %rbp
 2851      10
 2852 10ca 48897B08 		movq	%rdi, 8(%rbx)
 2853 10ce 4D8B6C24 		movq	8(%r12), %r13
 2853      08
 2854 10d3 8903     		movl	%eax, (%rbx)
 2855 10d5 4C89E8   		movq	%r13, %rax
 2856 10d8 4801E8   		addq	%rbp, %rax
 2857 10db 741B     		je	.L631
 2858 10dd 4D85ED   		testq	%r13, %r13
 2859 10e0 7516     		jne	.L631
 2860 10e2 488D3D00 		leaq	.LC3(%rip), %rdi
 2860      000000
 2861              	.LEHB60:
 2862 10e9 E8000000 		call	_ZSt19__throw_logic_errorPKc@PLT
 2862      00
 2863 10ee 6690     		.p2align 4,,10
 2864              		.p2align 3
 2865              	.L773:
 2866 10f0 E9160B00 		jmp	.L636
 2866      00
 2867              		.p2align 4,,10
 2868 10f5 0F1F00   		.p2align 3
 2869              	.L631:
 2870 10f8 4883FD0F 		cmpq	$15, %rbp
 2871 10fc 4889AC24 		movq	%rbp, 216(%rsp)
 2871      D8000000 
 2872 1104 0F874E01 		ja	.L1057
 2872      0000
 2873 110a 4883FD01 		cmpq	$1, %rbp
 2874 110e 0F848C01 		je	.L1058
 2874      0000
 2875 1114 4885ED   		testq	%rbp, %rbp
 2876 1117 0F855E01 		jne	.L632
 2876      0000
 2877              	.L634:
 2878 111d 48896B10 		movq	%rbp, 16(%rbx)
 2879 1121 C6042F00 		movb	$0, (%rdi,%rbp)
 2880              	.L628:
 2881 1125 4983C428 		addq	$40, %r12
 2882 1129 4883C328 		addq	$40, %rbx
 2883 112d 4D39E7   		cmpq	%r12, %r15
 2884 1130 7586     		jne	.L635
 2885              	.L627:
 2886 1132 488B4424 		movq	8(%rsp), %rax
 2886      08
 2887 1137 49895E68 		movq	%rbx, 104(%r14)
 2888 113b F30F1040 		movss	120(%rax), %xmm0
 2888      78
 2889 1140 0FB6407C 		movzbl	124(%rax), %eax
 2890 1144 F3410F11 		movss	%xmm0, 120(%r14)
 2890      4678
 2891 114a 4188467C 		movb	%al, 124(%r14)
 2892              	.L605:
 2893 114e 48836C24 		subq	$-128, 8(%rsp)
 2893      0880
 2894 1154 4983EE80 		subq	$-128, %r14
 2895 1158 488B4424 		movq	8(%rsp), %rax
 2895      08
 2896 115d 48394424 		cmpq	%rax, 64(%rsp)
 2896      40
 2897 1162 0F8510FD 		jne	.L650
 2897      FFFF
 2898 1168 488B4424 		movq	32(%rsp), %rax
 2898      20
 2899 116d 488B4008 		movq	8(%rax), %rax
 2900 1171 48894424 		movq	%rax, 64(%rsp)
 2900      40
 2901              	.L598:
 2902 1176 488B4424 		movq	32(%rsp), %rax
 2902      20
 2903 117b 488B28   		movq	(%rax), %rbp
 2904 117e 483B6C24 		cmpq	64(%rsp), %rbp
 2904      40
 2905 1183 488B4424 		movq	64(%rsp), %rax
 2905      40
 2906 1188 0F849200 		je	.L651
 2906      0000
 2907 118e 4C8B6C24 		movq	64(%rsp), %r13
 2907      40
 2908              		.p2align 4,,10
 2909 1193 0F1F4400 		.p2align 3
 2909      00
 2910              	.L666:
 2911 1198 4C8B6568 		movq	104(%rbp), %r12
 2912 119c 488B5D60 		movq	96(%rbp), %rbx
 2913 11a0 4939DC   		cmpq	%rbx, %r12
 2914 11a3 7422     		je	.L659
 2915              		.p2align 4,,10
 2916 11a5 0F1F00   		.p2align 3
 2917              	.L661:
 2918 11a8 488B7B08 		movq	8(%rbx), %rdi
 2919 11ac 488D4318 		leaq	24(%rbx), %rax
 2920 11b0 4839C7   		cmpq	%rax, %rdi
 2921 11b3 7405     		je	.L660
 2922 11b5 E8000000 		call	_ZdlPv@PLT
 2922      00
 2923              	.L660:
 2924 11ba 4883C328 		addq	$40, %rbx
 2925 11be 4939DC   		cmpq	%rbx, %r12
 2926 11c1 75E5     		jne	.L661
 2927 11c3 4C8B6560 		movq	96(%rbp), %r12
 2928              	.L659:
 2929 11c7 4D85E4   		testq	%r12, %r12
 2930 11ca 7408     		je	.L662
 2931 11cc 4C89E7   		movq	%r12, %rdi
 2932 11cf E8000000 		call	_ZdlPv@PLT
 2932      00
 2933              	.L662:
 2934 11d4 488B7D40 		movq	64(%rbp), %rdi
 2935 11d8 488D4550 		leaq	80(%rbp), %rax
 2936 11dc 4839C7   		cmpq	%rax, %rdi
 2937 11df 7405     		je	.L663
 2938 11e1 E8000000 		call	_ZdlPv@PLT
 2938      00
 2939              	.L663:
 2940 11e6 488B7D20 		movq	32(%rbp), %rdi
 2941 11ea 488D4530 		leaq	48(%rbp), %rax
 2942 11ee 4839C7   		cmpq	%rax, %rdi
 2943 11f1 7405     		je	.L664
 2944 11f3 E8000000 		call	_ZdlPv@PLT
 2944      00
 2945              	.L664:
 2946 11f8 488B7D00 		movq	0(%rbp), %rdi
 2947 11fc 488D4510 		leaq	16(%rbp), %rax
 2948 1200 4839C7   		cmpq	%rax, %rdi
 2949 1203 7405     		je	.L665
 2950 1205 E8000000 		call	_ZdlPv@PLT
 2950      00
 2951              	.L665:
 2952 120a 4883ED80 		subq	$-128, %rbp
 2953 120e 4C39ED   		cmpq	%r13, %rbp
 2954 1211 7585     		jne	.L666
 2955 1213 488B4424 		movq	32(%rsp), %rax
 2955      20
 2956 1218 488B00   		movq	(%rax), %rax
 2957 121b 48894424 		movq	%rax, 64(%rsp)
 2957      40
 2958              	.L651:
 2959 1220 4885C0   		testq	%rax, %rax
 2960 1223 7408     		je	.L667
 2961 1225 4889C7   		movq	%rax, %rdi
 2962 1228 E8000000 		call	_ZdlPv@PLT
 2962      00
 2963              	.L667:
 2964 122d 488B4424 		movq	32(%rsp), %rax
 2964      20
 2965 1232 488B5424 		movq	80(%rsp), %rdx
 2965      50
 2966 1237 4889C1   		movq	%rax, %rcx
 2967 123a 488910   		movq	%rdx, (%rax)
 2968 123d 4C897008 		movq	%r14, 8(%rax)
 2969 1241 4889D0   		movq	%rdx, %rax
 2970 1244 48034424 		addq	120(%rsp), %rax
 2970      78
 2971 1249 48894110 		movq	%rax, 16(%rcx)
 2972 124d E900F3FF 		jmp	.L403
 2972      FF
 2973              		.p2align 4,,10
 2974 1252 660F1F44 		.p2align 3
 2974      0000
 2975              	.L1057:
 2976 1258 488B7424 		movq	16(%rsp), %rsi
 2976      10
 2977 125d 488D7B08 		leaq	8(%rbx), %rdi
 2978 1261 31D2     		xorl	%edx, %edx
 2979 1263 E8000000 		call	_ZNSt7__cxx1112basic_stringIcSt11char_traitsIcESaIcEE9_M_createERmm@PLT
 2979      00
 2980              	.LEHE60:
 2981 1268 4889C7   		movq	%rax, %rdi
 2982 126b 48894308 		movq	%rax, 8(%rbx)
 2983 126f 488B8424 		movq	216(%rsp), %rax
 2983      D8000000 
 2984 1277 48894318 		movq	%rax, 24(%rbx)
 2985              	.L632:
 2986 127b 4889EA   		movq	%rbp, %rdx
 2987 127e 4C89EE   		movq	%r13, %rsi
 2988 1281 E8000000 		call	memcpy@PLT
 2988      00
 2989 1286 488BAC24 		movq	216(%rsp), %rbp
 2989      D8000000 
 2990 128e 488B7B08 		movq	8(%rbx), %rdi
 2991 1292 E986FEFF 		jmp	.L634
 2991      FF
 2992 1297 660F1F84 		.p2align 4,,10
 2992      00000000 
 2992      00
 2993              		.p2align 3
 2994              	.L1058:
 2995 12a0 410FB645 		movzbl	0(%r13), %eax
 2995      00
 2996 12a5 884318   		movb	%al, 24(%rbx)
 2997 12a8 E970FEFF 		jmp	.L634
 2997      FF
 2998 12ad 0F1F00   		.p2align 4,,10
 2999              		.p2align 3
 3000              	.L1038:
 3001 12b0 488B7424 		movq	88(%rsp), %rsi
 3001      58
 3002 12b5 498D7E40 		leaq	64(%r14), %rdi
 3003 12b9 31D2     		xorl	%edx, %edx
 3004              	.LEHB61:
 3005 12bb E8000000 		call	_ZNSt7__cxx1112basic_stringIcSt11char_traitsIcESaIcEE9_M_createERmm@PLT
 3005      00
 3006              	.LEHE61:
 3007 12c0 4889C7   		movq	%rax, %rdi
 3008 12c3 49894640 		movq	%rax, 64(%r14)
 3009 12c7 488B8424 		movq	176(%rsp), %rax
 3009      B0000000 
 3010 12cf 49894650 		movq	%rax, 80(%r14)
 3011              	.L568:
 3012 12d3 4889DA   		movq	%rbx, %rdx
 3013 12d6 4889EE   		movq	%rbp, %rsi
 3014 12d9 E8000000 		call	memcpy@PLT
 3014      00
 3015 12de 488B9C24 		movq	176(%rsp), %rbx
 3015      B0000000 
 3016 12e6 498B4640 		movq	64(%r14), %rax
 3017 12ea E9CBF9FF 		jmp	.L570
 3017      FF
 3018 12ef 90       		.p2align 4,,10
 3019              		.p2align 3
 3020              	.L1035:
 3021 12f0 488B7424 		movq	96(%rsp), %rsi
 3021      60
 3022 12f5 498D7E20 		leaq	32(%r14), %rdi
 3023 12f9 31D2     		xorl	%edx, %edx
 3024              	.LEHB62:
 3025 12fb E8000000 		call	_ZNSt7__cxx1112basic_stringIcSt11char_traitsIcESaIcEE9_M_createERmm@PLT
 3025      00
 3026              	.LEHE62:
 3027 1300 4889C7   		movq	%rax, %rdi
 3028 1303 49894620 		movq	%rax, 32(%r14)
 3029 1307 488B8424 		movq	168(%rsp), %rax
 3029      A8000000 
 3030 130f 49894630 		movq	%rax, 48(%r14)
 3031              	.L562:
 3032 1313 4889DA   		movq	%rbx, %rdx
 3033 1316 4889EE   		movq	%rbp, %rsi
 3034 1319 E8000000 		call	memcpy@PLT
 3034      00
 3035 131e 488B9C24 		movq	168(%rsp), %rbx
 3035      A8000000 
 3036 1326 498B4620 		movq	32(%r14), %rax
 3037 132a E91BF9FF 		jmp	.L564
 3037      FF
 3038 132f 90       		.p2align 4,,10
 3039              		.p2align 3
 3040              	.L1032:
 3041 1330 488B7424 		movq	104(%rsp), %rsi
 3041      68
 3042 1335 31D2     		xorl	%edx, %edx
 3043 1337 4C89F7   		movq	%r14, %rdi
 3044              	.LEHB63:
 3045 133a E8000000 		call	_ZNSt7__cxx1112basic_stringIcSt11char_traitsIcESaIcEE9_M_createERmm@PLT
 3045      00
 3046              	.LEHE63:
 3047 133f 4889C7   		movq	%rax, %rdi
 3048 1342 498906   		movq	%rax, (%r14)
 3049 1345 488B8424 		movq	160(%rsp), %rax
 3049      A0000000 
 3050 134d 49894610 		movq	%rax, 16(%r14)
 3051              	.L556:
 3052 1351 4889DA   		movq	%rbx, %rdx
 3053 1354 4889EE   		movq	%rbp, %rsi
 3054 1357 E8000000 		call	memcpy@PLT
 3054      00
 3055 135c 488B9C24 		movq	160(%rsp), %rbx
 3055      A0000000 
 3056 1364 498B06   		movq	(%r14), %rax
 3057 1367 E96EF8FF 		jmp	.L558
 3057      FF
 3058 136c 0F1F4000 		.p2align 4,,10
 3059              		.p2align 3
 3060              	.L1046:
 3061 1370 488B7424 		movq	104(%rsp), %rsi
 3061      68
 3062 1375 31D2     		xorl	%edx, %edx
 3063 1377 4C89F7   		movq	%r14, %rdi
 3064              	.LEHB64:
 3065 137a E8000000 		call	_ZNSt7__cxx1112basic_stringIcSt11char_traitsIcESaIcEE9_M_createERmm@PLT
 3065      00
 3066              	.LEHE64:
 3067 137f 4889C7   		movq	%rax, %rdi
 3068 1382 498906   		movq	%rax, (%r14)
 3069 1385 488B8424 		movq	192(%rsp), %rax
 3069      C0000000 
 3070 138d 49894610 		movq	%rax, 16(%r14)
 3071              	.L609:
 3072 1391 4889DA   		movq	%rbx, %rdx
 3073 1394 4889EE   		movq	%rbp, %rsi
 3074 1397 E8000000 		call	memcpy@PLT
 3074      00
 3075 139c 488B9C24 		movq	192(%rsp), %rbx
 3075      C0000000 
 3076 13a4 498B06   		movq	(%r14), %rax
 3077 13a7 E98BFBFF 		jmp	.L611
 3077      FF
 3078 13ac 0F1F4000 		.p2align 4,,10
 3079              		.p2align 3
 3080              	.L1049:
 3081 13b0 488B7424 		movq	96(%rsp), %rsi
 3081      60
 3082 13b5 498D7E20 		leaq	32(%r14), %rdi
 3083 13b9 31D2     		xorl	%edx, %edx
 3084              	.LEHB65:
 3085 13bb E8000000 		call	_ZNSt7__cxx1112basic_stringIcSt11char_traitsIcESaIcEE9_M_createERmm@PLT
 3085      00
 3086              	.LEHE65:
 3087 13c0 4889C7   		movq	%rax, %rdi
 3088 13c3 49894620 		movq	%rax, 32(%r14)
 3089 13c7 488B8424 		movq	200(%rsp), %rax
 3089      C8000000 
 3090 13cf 49894630 		movq	%rax, 48(%r14)
 3091              	.L615:
 3092 13d3 4889DA   		movq	%rbx, %rdx
 3093 13d6 4889EE   		movq	%rbp, %rsi
 3094 13d9 E8000000 		call	memcpy@PLT
 3094      00
 3095 13de 488B9C24 		movq	200(%rsp), %rbx
 3095      C8000000 
 3096 13e6 498B4620 		movq	32(%r14), %rax
 3097 13ea E9BBFBFF 		jmp	.L617
 3097      FF
 3098 13ef 90       		.p2align 4,,10
 3099              		.p2align 3
 3100              	.L1052:
 3101 13f0 488B7424 		movq	88(%rsp), %rsi
 3101      58
 3102 13f5 498D7E40 		leaq	64(%r14), %rdi
 3103 13f9 31D2     		xorl	%edx, %edx
 3104              	.LEHB66:
 3105 13fb E8000000 		call	_ZNSt7__cxx1112basic_stringIcSt11char_traitsIcESaIcEE9_M_createERmm@PLT
 3105      00
 3106              	.LEHE66:
 3107 1400 4889C7   		movq	%rax, %rdi
 3108 1403 49894640 		movq	%rax, 64(%r14)
 3109 1407 488B8424 		movq	208(%rsp), %rax
 3109      D0000000 
 3110 140f 49894650 		movq	%rax, 80(%r14)
 3111              	.L621:
 3112 1413 4889DA   		movq	%rbx, %rdx
 3113 1416 4889EE   		movq	%rbp, %rsi
 3114 1419 E8000000 		call	memcpy@PLT
 3114      00
 3115 141e 488B9C24 		movq	208(%rsp), %rbx
 3115      D0000000 
 3116 1426 498B4640 		movq	64(%r14), %rax
 3117 142a E9EBFBFF 		jmp	.L623
 3117      FF
 3118              	.L1039:
 3119 142f 0FB64500 		movzbl	0(%rbp), %eax
 3120 1433 41884650 		movb	%al, 80(%r14)
 3121 1437 488B4424 		movq	48(%rsp), %rax
 3121      30
 3122 143c E979F8FF 		jmp	.L570
 3122      FF
 3123              	.L1036:
 3124 1441 0FB64500 		movzbl	0(%rbp), %eax
 3125 1445 41884630 		movb	%al, 48(%r14)
 3126 1449 488B4424 		movq	56(%rsp), %rax
 3126      38
 3127 144e E9F7F7FF 		jmp	.L564
 3127      FF
 3128              	.L1033:
 3129 1453 0FB64500 		movzbl	0(%rbp), %eax
 3130 1457 41884610 		movb	%al, 16(%r14)
 3131 145b 488B4424 		movq	64(%rsp), %rax
 3131      40
 3132 1460 E975F7FF 		jmp	.L558
 3132      FF
 3133              	.L1050:
 3134 1465 0FB64500 		movzbl	0(%rbp), %eax
 3135 1469 41884630 		movb	%al, 48(%r14)
 3136 146d 488B4424 		movq	40(%rsp), %rax
 3136      28
 3137 1472 E933FBFF 		jmp	.L617
 3137      FF
 3138              	.L1053:
 3139 1477 0FB64500 		movzbl	0(%rbp), %eax
 3140 147b 41884650 		movb	%al, 80(%r14)
 3141 147f 488B4424 		movq	48(%rsp), %rax
 3141      30
 3142 1484 E991FBFF 		jmp	.L623
 3142      FF
 3143              	.L1047:
 3144 1489 0FB64500 		movzbl	0(%rbp), %eax
 3145 148d 41884610 		movb	%al, 16(%r14)
 3146 1491 488B4424 		movq	56(%rsp), %rax
 3146      38
 3147 1496 E99CFAFF 		jmp	.L611
 3147      FF
 3148              	.L1041:
 3149 149b 48C74424 		movq	$0, 40(%rsp)
 3149      28000000 
 3149      00
 3150 14a4 488B4424 		movq	40(%rsp), %rax
 3150      28
 3151 14a9 E977F8FF 		jmp	.L572
 3151      FF
 3152              	.L1055:
 3153 14ae 48C74424 		movq	$0, 24(%rsp)
 3153      18000000 
 3153      00
 3154 14b7 E9DCFBFF 		jmp	.L625
 3154      FF
 3155              	.L509:
 3156 14bc 4883FB0F 		cmpq	$15, %rbx
 3157 14c0 48899C24 		movq	%rbx, 128(%rsp)
 3157      80000000 
 3158 14c8 0F879602 		ja	.L1059
 3158      0000
 3159 14ce 4883FB01 		cmpq	$1, %rbx
 3160 14d2 0F846D03 		je	.L1060
 3160      0000
 3161 14d8 4885DB   		testq	%rbx, %rbx
 3162 14db 488B4424 		movq	40(%rsp), %rax
 3162      28
 3163 14e0 0F85A402 		jne	.L510
 3163      0000
 3164              	.L512:
 3165 14e6 488B4C24 		movq	72(%rsp), %rcx
 3165      48
 3166 14eb 48895908 		movq	%rbx, 8(%rcx)
 3167 14ef C6041800 		movb	$0, (%rax,%rbx)
 3168 14f3 488D4130 		leaq	48(%rcx), %rax
 3169 14f7 48894424 		movq	%rax, 48(%rsp)
 3169      30
 3170 14fc 48894120 		movq	%rax, 32(%rcx)
 3171 1500 488B4424 		movq	8(%rsp), %rax
 3171      08
 3172 1505 488B6820 		movq	32(%rax), %rbp
 3173 1509 488B5828 		movq	40(%rax), %rbx
 3174 150d 4889E8   		movq	%rbp, %rax
 3175 1510 4801D8   		addq	%rbx, %rax
 3176 1513 7423     		je	.L515
 3177 1515 4885ED   		testq	%rbp, %rbp
 3178 1518 751E     		jne	.L515
 3179 151a 488D3D00 		leaq	.LC3(%rip), %rdi
 3179      000000
 3180              	.LEHB67:
 3181 1521 E8000000 		call	_ZSt19__throw_logic_errorPKc@PLT
 3181      00
 3182              	.LEHE67:
 3183              	.L755:
 3184 1526 4889C3   		movq	%rax, %rbx
 3185 1529 488B4424 		movq	72(%rsp), %rax
 3185      48
 3186 152e E9B00300 		jmp	.L548
 3186      00
 3187              		.p2align 4,,10
 3188 1533 0F1F4400 		.p2align 3
 3188      00
 3189              	.L515:
 3190 1538 4883FB0F 		cmpq	$15, %rbx
 3191 153c 48899C24 		movq	%rbx, 136(%rsp)
 3191      88000000 
 3192 1544 0F87AF02 		ja	.L1061
 3192      0000
 3193 154a 4883FB01 		cmpq	$1, %rbx
 3194 154e 0F841D03 		je	.L1062
 3194      0000
 3195 1554 4885DB   		testq	%rbx, %rbx
 3196 1557 488B4424 		movq	48(%rsp), %rax
 3196      30
 3197 155c 0F85BF02 		jne	.L516
 3197      0000
 3198              	.L518:
 3199 1562 488B4C24 		movq	72(%rsp), %rcx
 3199      48
 3200 1567 48895928 		movq	%rbx, 40(%rcx)
 3201 156b C6041800 		movb	$0, (%rax,%rbx)
 3202 156f 488D4150 		leaq	80(%rcx), %rax
 3203 1573 48894424 		movq	%rax, 56(%rsp)
 3203      38
 3204 1578 48894140 		movq	%rax, 64(%rcx)
 3205 157c 488B4424 		movq	8(%rsp), %rax
 3205      08
 3206 1581 488B6840 		movq	64(%rax), %rbp
 3207 1585 488B5848 		movq	72(%rax), %rbx
 3208 1589 4889E8   		movq	%rbp, %rax
 3209 158c 4801D8   		addq	%rbx, %rax
 3210 158f 741F     		je	.L521
 3211 1591 4885ED   		testq	%rbp, %rbp
 3212 1594 751A     		jne	.L521
 3213 1596 488D3D00 		leaq	.LC3(%rip), %rdi
 3213      000000
 3214              	.LEHB68:
 3215 159d E8000000 		call	_ZSt19__throw_logic_errorPKc@PLT
 3215      00
 3216              	.LEHE68:
 3217              	.L756:
 3218 15a2 4889C3   		movq	%rax, %rbx
 3219 15a5 488B4424 		movq	72(%rsp), %rax
 3219      48
 3220 15aa E91F0300 		jmp	.L546
 3220      00
 3221 15af 90       		.p2align 4,,10
 3222              		.p2align 3
 3223              	.L521:
 3224 15b0 4883FB0F 		cmpq	$15, %rbx
 3225 15b4 48899C24 		movq	%rbx, 144(%rsp)
 3225      90000000 
 3226 15bc 0F87EB01 		ja	.L1063
 3226      0000
 3227 15c2 4883FB01 		cmpq	$1, %rbx
 3228 15c6 0F848F02 		je	.L1064
 3228      0000
 3229 15cc 4885DB   		testq	%rbx, %rbx
 3230 15cf 488B4424 		movq	56(%rsp), %rax
 3230      38
 3231 15d4 0F85FB01 		jne	.L522
 3231      0000
 3232              	.L524:
 3233 15da 488B4C24 		movq	72(%rsp), %rcx
 3233      48
 3234 15df 48895948 		movq	%rbx, 72(%rcx)
 3235 15e3 C6041800 		movb	$0, (%rax,%rbx)
 3236 15e7 488B4424 		movq	8(%rsp), %rax
 3236      08
 3237 15ec 48C74160 		movq	$0, 96(%rcx)
 3237      00000000 
 3238 15f4 48C74168 		movq	$0, 104(%rcx)
 3238      00000000 
 3239 15fc 48C74170 		movq	$0, 112(%rcx)
 3239      00000000 
 3240 1604 4C8B7068 		movq	104(%rax), %r14
 3241 1608 4C8B6060 		movq	96(%rax), %r12
 3242 160c 48B8CDCC 		movabsq	$-3689348814741910323, %rax
 3242      CCCCCCCC 
 3242      CCCC
 3243 1616 4C89F3   		movq	%r14, %rbx
 3244 1619 4C29E3   		subq	%r12, %rbx
 3245 161c 4889DA   		movq	%rbx, %rdx
 3246 161f 48C1FA03 		sarq	$3, %rdx
 3247 1623 480FAFC2 		imulq	%rdx, %rax
 3248 1627 4885C0   		testq	%rax, %rax
 3249 162a 0F845702 		je	.L1065
 3249      0000
 3250 1630 48BA6666 		movabsq	$461168601842738790, %rdx
 3250      66666666 
 3250      6606
 3251 163a 4839D0   		cmpq	%rdx, %rax
 3252 163d 0F874F06 		ja	.L1066
 3252      0000
 3253 1643 4889DF   		movq	%rbx, %rdi
 3254              	.LEHB69:
 3255 1646 E8000000 		call	_Znwm@PLT
 3255      00
 3256              	.LEHE69:
 3257 164b 4989C7   		movq	%rax, %r15
 3258 164e 488B4424 		movq	8(%rsp), %rax
 3258      08
 3259 1653 4C8B7068 		movq	104(%rax), %r14
 3260 1657 4C8B6060 		movq	96(%rax), %r12
 3261 165b 488B4424 		movq	72(%rsp), %rax
 3261      48
 3262              	.L526:
 3263 1660 4C01FB   		addq	%r15, %rbx
 3264 1663 4D39E6   		cmpq	%r12, %r14
 3265 1666 4C897860 		movq	%r15, 96(%rax)
 3266 166a 48895870 		movq	%rbx, 112(%rax)
 3267 166e 4C897868 		movq	%r15, 104(%rax)
 3268 1672 4C89FB   		movq	%r15, %rbx
 3269 1675 0F8478F4 		je	.L528
 3269      FFFF
 3270 167b 488D8424 		leaq	152(%rsp), %rax
 3270      98000000 
 3271 1683 48894424 		movq	%rax, 16(%rsp)
 3271      10
 3272 1688 0F1F8400 		.p2align 4,,10
 3272      00000000 
 3273              		.p2align 3
 3274              	.L536:
 3275 1690 4885DB   		testq	%rbx, %rbx
 3276 1693 0F8444F4 		je	.L529
 3276      FFFF
 3277 1699 418B0424 		movl	(%r12), %eax
 3278 169d 498B6C24 		movq	16(%r12), %rbp
 3278      10
 3279 16a2 8903     		movl	%eax, (%rbx)
 3280 16a4 488D4318 		leaq	24(%rbx), %rax
 3281 16a8 48894308 		movq	%rax, 8(%rbx)
 3282 16ac 4D8B6C24 		movq	8(%r12), %r13
 3282      08
 3283 16b1 4C89E9   		movq	%r13, %rcx
 3284 16b4 4801E9   		addq	%rbp, %rcx
 3285 16b7 0F84F3F3 		je	.L532
 3285      FFFF
 3286 16bd 4D85ED   		testq	%r13, %r13
 3287 16c0 0F85EAF3 		jne	.L532
 3287      FFFF
 3288 16c6 488D3D00 		leaq	.LC3(%rip), %rdi
 3288      000000
 3289              	.LEHB70:
 3290 16cd E8000000 		call	_ZSt19__throw_logic_errorPKc@PLT
 3290      00
 3291              	.L759:
 3292 16d2 E9510200 		jmp	.L537
 3292      00
 3293 16d7 660F1F84 		.p2align 4,,10
 3293      00000000 
 3293      00
 3294              		.p2align 3
 3295              	.L1030:
 3296 16e0 488B7424 		movq	16(%rsp), %rsi
 3296      10
 3297 16e5 488D7B08 		leaq	8(%rbx), %rdi
 3298 16e9 31D2     		xorl	%edx, %edx
 3299 16eb E8000000 		call	_ZNSt7__cxx1112basic_stringIcSt11char_traitsIcESaIcEE9_M_createERmm@PLT
 3299      00
 3300              	.LEHE70:
 3301 16f0 488B9424 		movq	152(%rsp), %rdx
 3301      98000000 
 3302 16f8 48894308 		movq	%rax, 8(%rbx)
 3303 16fc 48895318 		movq	%rdx, 24(%rbx)
 3304              	.L533:
 3305 1700 4889EA   		movq	%rbp, %rdx
 3306 1703 4C89EE   		movq	%r13, %rsi
 3307 1706 4889C7   		movq	%rax, %rdi
 3308 1709 E8000000 		call	memcpy@PLT
 3308      00
 3309 170e 488BAC24 		movq	152(%rsp), %rbp
 3309      98000000 
 3310 1716 488B4308 		movq	8(%rbx), %rax
 3311 171a E9B6F3FF 		jmp	.L535
 3311      FF
 3312              	.L1031:
 3313 171f 410FB655 		movzbl	0(%r13), %edx
 3313      00
 3314 1724 885318   		movb	%dl, 24(%rbx)
 3315 1727 E9A9F3FF 		jmp	.L535
 3315      FF
 3316              	.L737:
 3317 172c 4889C8   		movq	%rcx, %rax
 3318 172f E9A7F6FF 		jmp	.L574
 3318      FF
 3319              	.L1040:
 3320 1734 4889C7   		movq	%rax, %rdi
 3321 1737 E997FBFF 		jmp	.L568
 3321      FF
 3322              	.L1037:
 3323 173c 4889C7   		movq	%rax, %rdi
 3324 173f E9CFFBFF 		jmp	.L562
 3324      FF
 3325              	.L1034:
 3326 1744 4889C7   		movq	%rax, %rdi
 3327 1747 E905FCFF 		jmp	.L556
 3327      FF
 3328              	.L1051:
 3329 174c 4889C7   		movq	%rax, %rdi
 3330 174f E97FFCFF 		jmp	.L615
 3330      FF
 3331              	.L1054:
 3332 1754 4889C7   		movq	%rax, %rdi
 3333 1757 E9B7FCFF 		jmp	.L621
 3333      FF
 3334              	.L1048:
 3335 175c 4889C7   		movq	%rax, %rdi
 3336 175f E92DFCFF 		jmp	.L609
 3336      FF
 3337              	.L1059:
 3338 1764 4C8B7C24 		movq	72(%rsp), %r15
 3338      48
 3339 1769 488DB424 		leaq	128(%rsp), %rsi
 3339      80000000 
 3340 1771 31D2     		xorl	%edx, %edx
 3341 1773 4C89FF   		movq	%r15, %rdi
 3342              	.LEHB71:
 3343 1776 E8000000 		call	_ZNSt7__cxx1112basic_stringIcSt11char_traitsIcESaIcEE9_M_createERmm@PLT
 3343      00
 3344              	.LEHE71:
 3345 177b 488B9424 		movq	128(%rsp), %rdx
 3345      80000000 
 3346 1783 498907   		movq	%rax, (%r15)
 3347 1786 49895710 		movq	%rdx, 16(%r15)
 3348              	.L510:
 3349 178a 4889DA   		movq	%rbx, %rdx
 3350 178d 4889EE   		movq	%rbp, %rsi
 3351 1790 4889C7   		movq	%rax, %rdi
 3352 1793 E8000000 		call	memcpy@PLT
 3352      00
 3353 1798 488B4424 		movq	72(%rsp), %rax
 3353      48
 3354 179d 488B9C24 		movq	128(%rsp), %rbx
 3354      80000000 
 3355 17a5 488B00   		movq	(%rax), %rax
 3356 17a8 E939FDFF 		jmp	.L512
 3356      FF
 3357              	.L1063:
 3358 17ad 4C8B7C24 		movq	72(%rsp), %r15
 3358      48
 3359 17b2 488DB424 		leaq	144(%rsp), %rsi
 3359      90000000 
 3360 17ba 31D2     		xorl	%edx, %edx
 3361 17bc 498D7F40 		leaq	64(%r15), %rdi
 3362              	.LEHB72:
 3363 17c0 E8000000 		call	_ZNSt7__cxx1112basic_stringIcSt11char_traitsIcESaIcEE9_M_createERmm@PLT
 3363      00
 3364              	.LEHE72:
 3365 17c5 488B9424 		movq	144(%rsp), %rdx
 3365      90000000 
 3366 17cd 49894740 		movq	%rax, 64(%r15)
 3367 17d1 49895750 		movq	%rdx, 80(%r15)
 3368              	.L522:
 3369 17d5 4889DA   		movq	%rbx, %rdx
 3370 17d8 4889EE   		movq	%rbp, %rsi
 3371 17db 4889C7   		movq	%rax, %rdi
 3372 17de E8000000 		call	memcpy@PLT
 3372      00
 3373 17e3 488B4424 		movq	72(%rsp), %rax
 3373      48
 3374 17e8 488B9C24 		movq	144(%rsp), %rbx
 3374      90000000 
 3375 17f0 488B4040 		movq	64(%rax), %rax
 3376 17f4 E9E1FDFF 		jmp	.L524
 3376      FF
 3377              	.L1061:
 3378 17f9 4C8B7C24 		movq	72(%rsp), %r15
 3378      48
 3379 17fe 488DB424 		leaq	136(%rsp), %rsi
 3379      88000000 
 3380 1806 31D2     		xorl	%edx, %edx
 3381 1808 498D7F20 		leaq	32(%r15), %rdi
 3382              	.LEHB73:
 3383 180c E8000000 		call	_ZNSt7__cxx1112basic_stringIcSt11char_traitsIcESaIcEE9_M_createERmm@PLT
 3383      00
 3384              	.LEHE73:
 3385 1811 488B9424 		movq	136(%rsp), %rdx
 3385      88000000 
 3386 1819 49894720 		movq	%rax, 32(%r15)
 3387 181d 49895730 		movq	%rdx, 48(%r15)
 3388              	.L516:
 3389 1821 4889DA   		movq	%rbx, %rdx
 3390 1824 4889EE   		movq	%rbp, %rsi
 3391 1827 4889C7   		movq	%rax, %rdi
 3392 182a E8000000 		call	memcpy@PLT
 3392      00
 3393 182f 488B4424 		movq	72(%rsp), %rax
 3393      48
 3394 1834 488B9C24 		movq	136(%rsp), %rbx
 3394      88000000 
 3395 183c 488B4020 		movq	32(%rax), %rax
 3396 1840 E91DFDFF 		jmp	.L518
 3396      FF
 3397              	.L1060:
 3398 1845 0FB64500 		movzbl	0(%rbp), %eax
 3399 1849 488B4C24 		movq	72(%rsp), %rcx
 3399      48
 3400 184e 884110   		movb	%al, 16(%rcx)
 3401 1851 488B4424 		movq	40(%rsp), %rax
 3401      28
 3402 1856 E98BFCFF 		jmp	.L512
 3402      FF
 3403              	.L1064:
 3404 185b 0FB64500 		movzbl	0(%rbp), %eax
 3405 185f 488B4C24 		movq	72(%rsp), %rcx
 3405      48
 3406 1864 884150   		movb	%al, 80(%rcx)
 3407 1867 488B4424 		movq	56(%rsp), %rax
 3407      38
 3408 186c E969FDFF 		jmp	.L524
 3408      FF
 3409              	.L1062:
 3410 1871 0FB64500 		movzbl	0(%rbp), %eax
 3411 1875 488B4C24 		movq	72(%rsp), %rcx
 3411      48
 3412 187a 884130   		movb	%al, 48(%rcx)
 3413 187d 488B4424 		movq	48(%rsp), %rax
 3413      30
 3414 1882 E9DBFCFF 		jmp	.L518
 3414      FF
 3415              	.L1065:
 3416 1887 4531FF   		xorl	%r15d, %r15d
 3417 188a 4889C8   		movq	%rcx, %rax
 3418 188d E9CEFDFF 		jmp	.L526
 3418      FF
 3419              	.L1045:
 3420 1892 4C8B7424 		movq	112(%rsp), %r14
 3420      70
 3421 1897 E9DAF8FF 		jmp	.L598
 3421      FF
 3422              	.L542:
 3423 189c E8000000 		call	__cxa_end_catch@PLT
 3423      00
 3424 18a1 488B4424 		movq	72(%rsp), %rax
 3424      48
 3425 18a6 488B7860 		movq	96(%rax), %rdi
 3426 18aa 4885FF   		testq	%rdi, %rdi
 3427 18ad 740A     		je	.L544
 3428 18af E8000000 		call	_ZdlPv@PLT
 3428      00
 3429 18b4 488B4424 		movq	72(%rsp), %rax
 3429      48
 3430              	.L544:
 3431 18b9 488B7840 		movq	64(%rax), %rdi
 3432 18bd 48397C24 		cmpq	%rdi, 56(%rsp)
 3432      38
 3433 18c2 740A     		je	.L546
 3434 18c4 E8000000 		call	_ZdlPv@PLT
 3434      00
 3435 18c9 488B4424 		movq	72(%rsp), %rax
 3435      48
 3436              	.L546:
 3437 18ce 488B7820 		movq	32(%rax), %rdi
 3438 18d2 48397C24 		cmpq	%rdi, 48(%rsp)
 3438      30
 3439 18d7 740A     		je	.L548
 3440 18d9 E8000000 		call	_ZdlPv@PLT
 3440      00
 3441 18de 488B4424 		movq	72(%rsp), %rax
 3441      48
 3442              	.L548:
 3443 18e3 488B38   		movq	(%rax), %rdi
 3444 18e6 48397C24 		cmpq	%rdi, 40(%rsp)
 3444      28
 3445 18eb 7405     		je	.L549
 3446 18ed E8000000 		call	_ZdlPv@PLT
 3446      00
 3447              	.L549:
 3448 18f2 4889D8   		movq	%rbx, %rax
 3449              	.L550:
 3450 18f5 4889C7   		movq	%rax, %rdi
 3451 18f8 E8000000 		call	__cxa_begin_catch@PLT
 3451      00
 3452 18fd 48837C24 		cmpq	$0, 80(%rsp)
 3452      5000
 3453 1903 0F84AD03 		je	.L604
 3453      0000
 3454              	.L719:
 3455 1909 488B7C24 		movq	80(%rsp), %rdi
 3455      50
 3456 190e E8000000 		call	_ZdlPv@PLT
 3456      00
 3457              	.L674:
 3458              	.LEHB74:
 3459 1913 E8000000 		call	__cxa_rethrow@PLT
 3459      00
 3460              	.LEHE74:
 3461              	.L743:
 3462 1918 4889C3   		movq	%rax, %rbx
 3463 191b E9A20300 		jmp	.L668
 3463      00
 3464              	.L744:
 3465 1920 4889C3   		movq	%rax, %rbx
 3466 1923 E9C80100 		jmp	.L675
 3466      00
 3467              	.L537:
 3468 1928 4889C7   		movq	%rax, %rdi
 3469 192b E8000000 		call	__cxa_begin_catch@PLT
 3469      00
 3470 1930 4C39FB   		cmpq	%r15, %rbx
 3471 1933 741B     		je	.L540
 3472              	.L880:
 3473 1935 498B7F08 		movq	8(%r15), %rdi
 3474 1939 498D4718 		leaq	24(%r15), %rax
 3475 193d 4839C7   		cmpq	%rax, %rdi
 3476 1940 7405     		je	.L539
 3477 1942 E8000000 		call	_ZdlPv@PLT
 3477      00
 3478              	.L539:
 3479 1947 4983C728 		addq	$40, %r15
 3480 194b 4C39FB   		cmpq	%r15, %rbx
 3481 194e 75E5     		jne	.L880
 3482              	.L540:
 3483              	.LEHB75:
 3484 1950 E8000000 		call	__cxa_rethrow@PLT
 3484      00
 3485              	.LEHE75:
 3486              	.L1056:
 3487              	.LEHB76:
 3488 1955 E8000000 		call	_ZSt17__throw_bad_allocv@PLT
 3488      00
 3489              	.LEHE76:
 3490              	.L758:
 3491 195a 4889C3   		movq	%rax, %rbx
 3492 195d E93AFFFF 		jmp	.L542
 3492      FF
 3493              	.L747:
 3494 1962 4889C3   		movq	%rax, %rbx
 3495 1965 E91A0100 		jmp	.L443
 3495      00
 3496              	.L1029:
 3497 196a 48B9FFFF 		movabsq	$144115188075855871, %rcx
 3497      FFFFFFFF 
 3497      FF01
 3498 1974 4839C8   		cmpq	%rcx, %rax
 3499 1977 0F8710F1 		ja	.L504
 3499      FFFF
 3500 197d 4889F3   		movq	%rsi, %rbx
 3501 1980 4829D3   		subq	%rdx, %rbx
 3502 1983 4885C0   		testq	%rax, %rax
 3503 1986 0F8552F0 		jne	.L693
 3503      FFFF
 3504 198c 48C74424 		movq	$0, 120(%rsp)
 3504      78000000 
 3504      00
 3505 1995 48C74424 		movq	$0, 80(%rsp)
 3505      50000000 
 3505      00
 3506 199e E951F0FF 		jmp	.L694
 3506      FF
 3507              	.L480:
 3508 19a3 4889C7   		movq	%rax, %rdi
 3509 19a6 E8000000 		call	__cxa_begin_catch@PLT
 3509      00
 3510 19ab 48395C24 		cmpq	%rbx, 40(%rsp)
 3510      28
 3511 19b0 488B6C24 		movq	40(%rsp), %rbp
 3511      28
 3512 19b5 741B     		je	.L483
 3513              	.L879:
 3514 19b7 488B7D08 		movq	8(%rbp), %rdi
 3515 19bb 488D4518 		leaq	24(%rbp), %rax
 3516 19bf 4839C7   		cmpq	%rax, %rdi
 3517 19c2 7405     		je	.L482
 3518 19c4 E8000000 		call	_ZdlPv@PLT
 3518      00
 3519              	.L482:
 3520 19c9 4883C528 		addq	$40, %rbp
 3521 19cd 4839DD   		cmpq	%rbx, %rbp
 3522 19d0 75E5     		jne	.L879
 3523              	.L483:
 3524              	.LEHB77:
 3525 19d2 E8000000 		call	__cxa_rethrow@PLT
 3525      00
 3526              	.LEHE77:
 3527              	.L485:
 3528 19d7 E8000000 		call	__cxa_end_catch@PLT
 3528      00
 3529 19dc 488BBC24 		movq	320(%rsp), %rdi
 3529      40010000 
 3530 19e4 4885FF   		testq	%rdi, %rdi
 3531 19e7 7405     		je	.L487
 3532 19e9 E8000000 		call	_ZdlPv@PLT
 3532      00
 3533              	.L487:
 3534 19ee 488BBC24 		movq	288(%rsp), %rdi
 3534      20010000 
 3535 19f6 498D4750 		leaq	80(%r15), %rax
 3536 19fa 4839C7   		cmpq	%rax, %rdi
 3537 19fd 7405     		je	.L489
 3538 19ff E8000000 		call	_ZdlPv@PLT
 3538      00
 3539              	.L489:
 3540 1a04 488BBC24 		movq	256(%rsp), %rdi
 3540      00010000 
 3541 1a0c 498D4730 		leaq	48(%r15), %rax
 3542 1a10 4839C7   		cmpq	%rax, %rdi
 3543 1a13 7405     		je	.L491
 3544 1a15 E8000000 		call	_ZdlPv@PLT
 3544      00
 3545              	.L491:
 3546 1a1a 488BBC24 		movq	224(%rsp), %rdi
 3546      E0000000 
 3547 1a22 4983C710 		addq	$16, %r15
 3548 1a26 4C39FF   		cmpq	%r15, %rdi
 3549 1a29 7405     		je	.L982
 3550              	.L983:
 3551 1a2b E8000000 		call	_ZdlPv@PLT
 3551      00
 3552              	.L982:
 3553 1a30 4889DF   		movq	%rbx, %rdi
 3554              	.LEHB78:
 3555 1a33 E8000000 		call	_Unwind_Resume@PLT
 3555      00
 3556              	.LEHE78:
 3557              	.L753:
 3558 1a38 4889C3   		movq	%rax, %rbx
 3559 1a3b EB9A     		jmp	.L485
 3560              	.L436:
 3561 1a3d 4889C7   		movq	%rax, %rdi
 3562 1a40 E8000000 		call	__cxa_begin_catch@PLT
 3562      00
 3563 1a45 48395C24 		cmpq	%rbx, 40(%rsp)
 3563      28
 3564 1a4a 488B6C24 		movq	40(%rsp), %rbp
 3564      28
 3565 1a4f 741B     		je	.L439
 3566              	.L878:
 3567 1a51 488B7D08 		movq	8(%rbp), %rdi
 3568 1a55 488D4518 		leaq	24(%rbp), %rax
 3569 1a59 4839C7   		cmpq	%rax, %rdi
 3570 1a5c 7405     		je	.L438
 3571 1a5e E8000000 		call	_ZdlPv@PLT
 3571      00
 3572              	.L438:
 3573 1a63 4883C528 		addq	$40, %rbp
 3574 1a67 4839DD   		cmpq	%rbx, %rbp
 3575 1a6a 75E5     		jne	.L878
 3576              	.L439:
 3577              	.LEHB79:
 3578 1a6c E8000000 		call	__cxa_rethrow@PLT
 3578      00
 3579              	.LEHE79:
 3580              	.L441:
 3581 1a71 E8000000 		call	__cxa_end_catch@PLT
 3581      00
 3582 1a76 498B7E60 		movq	96(%r14), %rdi
 3583 1a7a 4885FF   		testq	%rdi, %rdi
 3584 1a7d 7405     		je	.L443
 3585 1a7f E8000000 		call	_ZdlPv@PLT
 3585      00
 3586              	.L443:
 3587 1a84 498B7E40 		movq	64(%r14), %rdi
 3588 1a88 48397C24 		cmpq	%rdi, 64(%rsp)
 3588      40
 3589 1a8d 7405     		je	.L445
 3590 1a8f E8000000 		call	_ZdlPv@PLT
 3590      00
 3591              	.L445:
 3592 1a94 498B7E20 		movq	32(%r14), %rdi
 3593 1a98 48397C24 		cmpq	%rdi, 56(%rsp)
 3593      38
 3594 1a9d 7405     		je	.L447
 3595 1a9f E8000000 		call	_ZdlPv@PLT
 3595      00
 3596              	.L447:
 3597 1aa4 498B3E   		movq	(%r14), %rdi
 3598 1aa7 48397C24 		cmpq	%rdi, 48(%rsp)
 3598      30
 3599 1aac 0F8579FF 		jne	.L983
 3599      FFFF
 3600 1ab2 E979FFFF 		jmp	.L982
 3600      FF
 3601              	.L748:
 3602 1ab7 4889C3   		movq	%rax, %rbx
 3603 1aba EBB5     		jmp	.L441
 3604              	.L583:
 3605 1abc 4889C7   		movq	%rax, %rdi
 3606 1abf E8000000 		call	__cxa_begin_catch@PLT
 3606      00
 3607 1ac4 48395C24 		cmpq	%rbx, 40(%rsp)
 3607      28
 3608 1ac9 488B6C24 		movq	40(%rsp), %rbp
 3608      28
 3609 1ace 741B     		je	.L586
 3610              	.L881:
 3611 1ad0 488B7D08 		movq	8(%rbp), %rdi
 3612 1ad4 488D4518 		leaq	24(%rbp), %rax
 3613 1ad8 4839C7   		cmpq	%rax, %rdi
 3614 1adb 7405     		je	.L585
 3615 1add E8000000 		call	_ZdlPv@PLT
 3615      00
 3616              	.L585:
 3617 1ae2 4883C528 		addq	$40, %rbp
 3618 1ae6 4839DD   		cmpq	%rbx, %rbp
 3619 1ae9 75E5     		jne	.L881
 3620              	.L586:
 3621              	.LEHB80:
 3622 1aeb E8000000 		call	__cxa_rethrow@PLT
 3622      00
 3623              	.LEHE80:
 3624              	.L675:
 3625 1af0 E8000000 		call	__cxa_end_catch@PLT
 3625      00
 3626 1af5 4889DF   		movq	%rbx, %rdi
 3627              	.LEHB81:
 3628 1af8 E8000000 		call	_Unwind_Resume@PLT
 3628      00
 3629              	.LEHE81:
 3630              	.L1021:
 3631 1afd E8000000 		call	__stack_chk_fail@PLT
 3631      00
 3632              	.L1018:
 3633              	.LEHB82:
 3634 1b02 E8000000 		call	_ZSt17__throw_bad_allocv@PLT
 3634      00
 3635              	.LEHE82:
 3636              	.L752:
 3637 1b07 4889C3   		movq	%rax, %rbx
 3638 1b0a E9DFFEFF 		jmp	.L487
 3638      FF
 3639              	.L1027:
 3640              	.LEHB83:
 3641 1b0f E8000000 		call	_ZSt17__throw_bad_allocv@PLT
 3641      00
 3642              	.LEHE83:
 3643              	.L765:
 3644 1b14 4889C3   		movq	%rax, %rbx
 3645 1b17 EB05     		jmp	.L588
 3646              	.L775:
 3647 1b19 E97E0100 		jmp	.L669
 3647      00
 3648              	.L588:
 3649 1b1e E8000000 		call	__cxa_end_catch@PLT
 3649      00
 3650 1b23 498B7E60 		movq	96(%r14), %rdi
 3651 1b27 4885FF   		testq	%rdi, %rdi
 3652 1b2a 7405     		je	.L590
 3653 1b2c E8000000 		call	_ZdlPv@PLT
 3653      00
 3654              	.L590:
 3655 1b31 498B7E40 		movq	64(%r14), %rdi
 3656 1b35 48397C24 		cmpq	%rdi, 48(%rsp)
 3656      30
 3657 1b3a 7405     		je	.L592
 3658 1b3c E8000000 		call	_ZdlPv@PLT
 3658      00
 3659              	.L592:
 3660 1b41 498B7E20 		movq	32(%r14), %rdi
 3661 1b45 483B7C24 		cmpq	56(%rsp), %rdi
 3661      38
 3662 1b4a 7405     		je	.L594
 3663 1b4c E8000000 		call	_ZdlPv@PLT
 3663      00
 3664              	.L594:
 3665 1b51 498B3E   		movq	(%r14), %rdi
 3666 1b54 483B7C24 		cmpq	64(%rsp), %rdi
 3666      40
 3667 1b59 7405     		je	.L595
 3668 1b5b E8000000 		call	_ZdlPv@PLT
 3668      00
 3669              	.L595:
 3670 1b60 4889D8   		movq	%rbx, %rax
 3671              	.L596:
 3672 1b63 4889C7   		movq	%rax, %rdi
 3673 1b66 E8000000 		call	__cxa_begin_catch@PLT
 3673      00
 3674 1b6b 488B4424 		movq	80(%rsp), %rax
 3674      50
 3675 1b70 4C39F0   		cmpq	%r14, %rax
 3676 1b73 4889C3   		movq	%rax, %rbx
 3677 1b76 7411     		je	.L601
 3678              	.L882:
 3679 1b78 4889DF   		movq	%rbx, %rdi
 3680 1b7b 4883EB80 		subq	$-128, %rbx
 3681 1b7f E8000000 		call	_ZN8UnitTest18DeferredTestResultD1Ev@PLT
 3681      00
 3682 1b84 4C39F3   		cmpq	%r14, %rbx
 3683 1b87 75EF     		jne	.L882
 3684              	.L601:
 3685              	.LEHB84:
 3686 1b89 E8000000 		call	__cxa_rethrow@PLT
 3686      00
 3687              	.LEHE84:
 3688              	.L757:
 3689 1b8e 4889C3   		movq	%rax, %rbx
 3690 1b91 488B4424 		movq	72(%rsp), %rax
 3690      48
 3691 1b96 E91EFDFF 		jmp	.L544
 3691      FF
 3692              	.L641:
 3693 1b9b E8000000 		call	__cxa_end_catch@PLT
 3693      00
 3694 1ba0 498B7E60 		movq	96(%r14), %rdi
 3695 1ba4 4885FF   		testq	%rdi, %rdi
 3696 1ba7 7405     		je	.L643
 3697 1ba9 E8000000 		call	_ZdlPv@PLT
 3697      00
 3698              	.L643:
 3699 1bae 498B7E40 		movq	64(%r14), %rdi
 3700 1bb2 483B7C24 		cmpq	48(%rsp), %rdi
 3700      30
 3701 1bb7 7405     		je	.L645
 3702 1bb9 E8000000 		call	_ZdlPv@PLT
 3702      00
 3703              	.L645:
 3704 1bbe 498B7E20 		movq	32(%r14), %rdi
 3705 1bc2 483B7C24 		cmpq	40(%rsp), %rdi
 3705      28
 3706 1bc7 7405     		je	.L647
 3707 1bc9 E8000000 		call	_ZdlPv@PLT
 3707      00
 3708              	.L647:
 3709 1bce 498B3E   		movq	(%r14), %rdi
 3710 1bd1 483B7C24 		cmpq	56(%rsp), %rdi
 3710      38
 3711 1bd6 7405     		je	.L648
 3712 1bd8 E8000000 		call	_ZdlPv@PLT
 3712      00
 3713              	.L648:
 3714 1bdd 4889D8   		movq	%rbx, %rax
 3715              	.L649:
 3716 1be0 4889C7   		movq	%rax, %rdi
 3717 1be3 E8000000 		call	__cxa_begin_catch@PLT
 3717      00
 3718 1be8 488B4424 		movq	112(%rsp), %rax
 3718      70
 3719 1bed 4C39F0   		cmpq	%r14, %rax
 3720 1bf0 4889C3   		movq	%rax, %rbx
 3721 1bf3 7411     		je	.L654
 3722              	.L884:
 3723 1bf5 4889DF   		movq	%rbx, %rdi
 3724 1bf8 4883EB80 		subq	$-128, %rbx
 3725 1bfc E8000000 		call	_ZN8UnitTest18DeferredTestResultD1Ev@PLT
 3725      00
 3726 1c01 4939DE   		cmpq	%rbx, %r14
 3727 1c04 75EF     		jne	.L884
 3728              	.L654:
 3729              	.LEHB85:
 3730 1c06 E8000000 		call	__cxa_rethrow@PLT
 3730      00
 3731              	.LEHE85:
 3732              	.L636:
 3733 1c0b 4889C7   		movq	%rax, %rdi
 3734 1c0e E8000000 		call	__cxa_begin_catch@PLT
 3734      00
 3735 1c13 483B5C24 		cmpq	24(%rsp), %rbx
 3735      18
 3736 1c18 488B6C24 		movq	24(%rsp), %rbp
 3736      18
 3737 1c1d 741B     		je	.L639
 3738              	.L883:
 3739 1c1f 488B7D08 		movq	8(%rbp), %rdi
 3740 1c23 488D4518 		leaq	24(%rbp), %rax
 3741 1c27 4839C7   		cmpq	%rax, %rdi
 3742 1c2a 7405     		je	.L638
 3743 1c2c E8000000 		call	_ZdlPv@PLT
 3743      00
 3744              	.L638:
 3745 1c31 4883C528 		addq	$40, %rbp
 3746 1c35 4839EB   		cmpq	%rbp, %rbx
 3747 1c38 75E5     		jne	.L883
 3748              	.L639:
 3749              	.LEHB86:
 3750 1c3a E8000000 		call	__cxa_rethrow@PLT
 3750      00
 3751              	.LEHE86:
 3752              	.L772:
 3753 1c3f 4889C3   		movq	%rax, %rbx
 3754 1c42 E954FFFF 		jmp	.L641
 3754      FF
 3755              	.L767:
 3756 1c47 4889C3   		movq	%rax, %rbx
 3757              	.L656:
 3758 1c4a E8000000 		call	__cxa_end_catch@PLT
 3758      00
 3759 1c4f 4889DF   		movq	%rbx, %rdi
 3760 1c52 E8000000 		call	__cxa_begin_catch@PLT
 3760      00
 3761 1c57 48837C24 		cmpq	$0, 112(%rsp)
 3761      7000
 3762 1c5d 7457     		je	.L604
 3763 1c5f 488B4424 		movq	80(%rsp), %rax
 3763      50
 3764 1c64 48394424 		cmpq	%rax, 112(%rsp)
 3764      70
 3765 1c69 4889C3   		movq	%rax, %rbx
 3766 1c6c 7413     		je	.L672
 3767              	.L885:
 3768 1c6e 4889DF   		movq	%rbx, %rdi
 3769 1c71 4883EB80 		subq	$-128, %rbx
 3770 1c75 E8000000 		call	_ZN8UnitTest18DeferredTestResultD1Ev@PLT
 3770      00
 3771 1c7a 48395C24 		cmpq	%rbx, 112(%rsp)
 3771      70
 3772 1c7f 75ED     		jne	.L885
 3773              	.L672:
 3774 1c81 48837C24 		cmpq	$0, 80(%rsp)
 3774      5000
 3775 1c87 0F857CFC 		jne	.L719
 3775      FFFF
 3776 1c8d E981FCFF 		jmp	.L674
 3776      FF
 3777              	.L1066:
 3778              	.LEHB87:
 3779 1c92 E8000000 		call	_ZSt17__throw_bad_allocv@PLT
 3779      00
 3780              	.LEHE87:
 3781              	.L760:
 3782 1c97 4889C3   		movq	%rax, %rbx
 3783 1c9a EB0D     		jmp	.L603
 3784              	.L669:
 3785 1c9c E954FCFF 		jmp	.L550
 3785      FF
 3786              	.L771:
 3787 1ca1 4889C3   		movq	%rax, %rbx
 3788 1ca4 E905FFFF 		jmp	.L643
 3788      FF
 3789              	.L603:
 3790 1ca9 E8000000 		call	__cxa_end_catch@PLT
 3790      00
 3791 1cae 4889DF   		movq	%rbx, %rdi
 3792 1cb1 E8000000 		call	__cxa_begin_catch@PLT
 3792      00
 3793              	.L604:
 3794 1cb6 488B7C24 		movq	72(%rsp), %rdi
 3794      48
 3795 1cbb E8000000 		call	_ZN8UnitTest18DeferredTestResultD1Ev@PLT
 3795      00
 3796 1cc0 EBBF     		jmp	.L672
 3797              	.L668:
 3798 1cc2 4C89FF   		movq	%r15, %rdi
 3799 1cc5 E8000000 		call	_ZN8UnitTest18DeferredTestResultD1Ev@PLT
 3799      00
 3800 1cca E961FDFF 		jmp	.L982
 3800      FF
 3801              	.L764:
 3802 1ccf 4889C3   		movq	%rax, %rbx
 3803 1cd2 E95AFEFF 		jmp	.L590
 3803      FF
 3804              	.L1042:
 3805              	.LEHB88:
 3806 1cd7 E8000000 		call	_ZSt17__throw_bad_allocv@PLT
 3806      00
 3807              	.LEHE88:
 3808              		.cfi_endproc
 3809              	.LFE941:
 3810              		.section	.gcc_except_table
 3811              		.align 4
 3812              	.LLSDA941:
 3813 0080 FF       		.byte	0xff
 3814 0081 9B       		.byte	0x9b
 3815 0082 DC02     		.uleb128 .LLSDATT941-.LLSDATTD941
 3816              	.LLSDATTD941:
 3817 0084 01       		.byte	0x1
 3818 0085 D102     		.uleb128 .LLSDACSE941-.LLSDACSB941
 3819              	.LLSDACSB941:
 3820 0087 7D       		.uleb128 .LEHB32-.LFB941
 3821 0088 05       		.uleb128 .LEHE32-.LEHB32
 3822 0089 00       		.uleb128 0
 3823 008a 00       		.uleb128 0
 3824 008b 8303     		.uleb128 .LEHB33-.LFB941
 3825 008d 05       		.uleb128 .LEHE33-.LEHB33
 3826 008e DD14     		.uleb128 .L750-.LFB941
 3827 0090 00       		.uleb128 0
 3828 0091 EB03     		.uleb128 .LEHB34-.LFB941
 3829 0093 05       		.uleb128 .LEHE34-.LEHB34
 3830 0094 F514     		.uleb128 .L745-.LFB941
 3831 0096 00       		.uleb128 0
 3832 0097 D204     		.uleb128 .LEHB35-.LFB941
 3833 0099 05       		.uleb128 .LEHE35-.LEHB35
 3834 009a E514     		.uleb128 .L751-.LFB941
 3835 009c 00       		.uleb128 0
 3836 009d F705     		.uleb128 .LEHB36-.LFB941
 3837 009f 05       		.uleb128 .LEHE36-.LEHB36
 3838 00a0 8736     		.uleb128 .L752-.LFB941
 3839 00a2 00       		.uleb128 0
 3840 00a3 8107     		.uleb128 .LEHB37-.LFB941
 3841 00a5 05       		.uleb128 .LEHE37-.LEHB37
 3842 00a6 D014     		.uleb128 .L754-.LFB941
 3843 00a8 01       		.uleb128 0x1
 3844 00a9 AD08     		.uleb128 .LEHB38-.LFB941
 3845 00ab 7B       		.uleb128 .LEHE38-.LEHB38
 3846 00ac 9832     		.uleb128 .L743-.LFB941
 3847 00ae 00       		.uleb128 0
 3848 00af 8B0B     		.uleb128 .LEHB39-.LFB941
 3849 00b1 05       		.uleb128 .LEHE39-.LEHB39
 3850 00b2 D014     		.uleb128 .L754-.LFB941
 3851 00b4 01       		.uleb128 0x1
 3852 00b5 A80C     		.uleb128 .LEHB40-.LFB941
 3853 00b7 05       		.uleb128 .LEHE40-.LEHB40
 3854 00b8 ED14     		.uleb128 .L746-.LFB941
 3855 00ba 00       		.uleb128 0
 3856 00bb B90D     		.uleb128 .LEHB41-.LFB941
 3857 00bd 05       		.uleb128 .LEHE41-.LEHB41
 3858 00be E232     		.uleb128 .L747-.LFB941
 3859 00c0 00       		.uleb128 0
 3860 00c1 B50E     		.uleb128 .LEHB42-.LFB941
 3861 00c3 1B       		.uleb128 .LEHE42-.LEHB42
 3862 00c4 D814     		.uleb128 .L749-.LFB941
 3863 00c6 01       		.uleb128 0x1
 3864 00c7 9E0F     		.uleb128 .LEHB43-.LFB941
 3865 00c9 05       		.uleb128 .LEHE43-.LEHB43
 3866 00ca DD14     		.uleb128 .L750-.LFB941
 3867 00cc 00       		.uleb128 0
 3868 00cd EE0F     		.uleb128 .LEHB44-.LFB941
 3869 00cf 05       		.uleb128 .LEHE44-.LEHB44
 3870 00d0 E514     		.uleb128 .L751-.LFB941
 3871 00d2 00       		.uleb128 0
 3872 00d3 BD10     		.uleb128 .LEHB45-.LFB941
 3873 00d5 52       		.uleb128 .LEHE45-.LEHB45
 3874 00d6 00       		.uleb128 0
 3875 00d7 00       		.uleb128 0
 3876 00d8 CA11     		.uleb128 .LEHB46-.LFB941
 3877 00da 05       		.uleb128 .LEHE46-.LEHB46
 3878 00db ED14     		.uleb128 .L746-.LFB941
 3879 00dd 00       		.uleb128 0
 3880 00de 8C12     		.uleb128 .LEHB47-.LFB941
 3881 00e0 05       		.uleb128 .LEHE47-.LEHB47
 3882 00e1 F514     		.uleb128 .L745-.LFB941
 3883 00e3 00       		.uleb128 0
 3884 00e4 EA13     		.uleb128 .LEHB48-.LFB941
 3885 00e6 05       		.uleb128 .LEHE48-.LEHB48
 3886 00e7 00       		.uleb128 0
 3887 00e8 00       		.uleb128 0
 3888 00e9 B814     		.uleb128 .LEHB49-.LFB941
 3889 00eb 05       		.uleb128 .LEHE49-.LEHB49
 3890 00ec A815     		.uleb128 .L774-.LFB941
 3891 00ee 01       		.uleb128 0x1
 3892 00ef 9D17     		.uleb128 .LEHB50-.LFB941
 3893 00f1 05       		.uleb128 .LEHE50-.LEHB50
 3894 00f2 A217     		.uleb128 .L761-.LFB941
 3895 00f4 01       		.uleb128 0x1
 3896 00f5 9018     		.uleb128 .LEHB51-.LFB941
 3897 00f7 05       		.uleb128 .LEHE51-.LEHB51
 3898 00f8 9518     		.uleb128 .L762-.LFB941
 3899 00fa 03       		.uleb128 0x3
 3900 00fb 8019     		.uleb128 .LEHB52-.LFB941
 3901 00fd 05       		.uleb128 .LEHE52-.LEHB52
 3902 00fe 8519     		.uleb128 .L763-.LFB941
 3903 0100 03       		.uleb128 0x3
 3904 0101 9B1A     		.uleb128 .LEHB53-.LFB941
 3905 0103 05       		.uleb128 .LEHE53-.LEHB53
 3906 0104 CF39     		.uleb128 .L764-.LFB941
 3907 0106 03       		.uleb128 0x3
 3908 0107 811B     		.uleb128 .LEHB54-.LFB941
 3909 0109 05       		.uleb128 .LEHE54-.LEHB54
 3910 010a 901B     		.uleb128 .L766-.LFB941
 3911 010c 01       		.uleb128 0x1
 3912 010d AD1D     		.uleb128 .LEHB55-.LFB941
 3913 010f 05       		.uleb128 .LEHE55-.LEHB55
 3914 0110 B21D     		.uleb128 .L768-.LFB941
 3915 0112 01       		.uleb128 0x1
 3916 0113 CB1D     		.uleb128 .LEHB56-.LFB941
 3917 0115 05       		.uleb128 .LEHE56-.LEHB56
 3918 0116 901B     		.uleb128 .L766-.LFB941
 3919 0118 01       		.uleb128 0x1
 3920 0119 ED1E     		.uleb128 .LEHB57-.LFB941
 3921 011b 05       		.uleb128 .LEHE57-.LEHB57
 3922 011c F21E     		.uleb128 .L769-.LFB941
 3923 011e 03       		.uleb128 0x3
 3924 011f E01F     		.uleb128 .LEHB58-.LFB941
 3925 0121 05       		.uleb128 .LEHE58-.LEHB58
 3926 0122 E51F     		.uleb128 .L770-.LFB941
 3927 0124 03       		.uleb128 0x3
 3928 0125 8121     		.uleb128 .LEHB59-.LFB941
 3929 0127 05       		.uleb128 .LEHE59-.LEHB59
 3930 0128 A139     		.uleb128 .L771-.LFB941
 3931 012a 03       		.uleb128 0x3
 3932 012b E921     		.uleb128 .LEHB60-.LFB941
 3933 012d FF02     		.uleb128 .LEHE60-.LEHB60
 3934 012f F021     		.uleb128 .L773-.LFB941
 3935 0131 01       		.uleb128 0x1
 3936 0132 BB25     		.uleb128 .LEHB61-.LFB941
 3937 0134 05       		.uleb128 .LEHE61-.LEHB61
 3938 0135 8519     		.uleb128 .L763-.LFB941
 3939 0137 03       		.uleb128 0x3
 3940 0138 FB25     		.uleb128 .LEHB62-.LFB941
 3941 013a 05       		.uleb128 .LEHE62-.LEHB62
 3942 013b 9518     		.uleb128 .L762-.LFB941
 3943 013d 03       		.uleb128 0x3
 3944 013e BA26     		.uleb128 .LEHB63-.LFB941
 3945 0140 05       		.uleb128 .LEHE63-.LEHB63
 3946 0141 A217     		.uleb128 .L761-.LFB941
 3947 0143 01       		.uleb128 0x1
 3948 0144 FA26     		.uleb128 .LEHB64-.LFB941
 3949 0146 05       		.uleb128 .LEHE64-.LEHB64
 3950 0147 B21D     		.uleb128 .L768-.LFB941
 3951 0149 01       		.uleb128 0x1
 3952 014a BB27     		.uleb128 .LEHB65-.LFB941
 3953 014c 05       		.uleb128 .LEHE65-.LEHB65
 3954 014d F21E     		.uleb128 .L769-.LFB941
 3955 014f 03       		.uleb128 0x3
 3956 0150 FB27     		.uleb128 .LEHB66-.LFB941
 3957 0152 05       		.uleb128 .LEHE66-.LEHB66
 3958 0153 E51F     		.uleb128 .L770-.LFB941
 3959 0155 03       		.uleb128 0x3
 3960 0156 A12A     		.uleb128 .LEHB67-.LFB941
 3961 0158 05       		.uleb128 .LEHE67-.LEHB67
 3962 0159 A62A     		.uleb128 .L755-.LFB941
 3963 015b 03       		.uleb128 0x3
 3964 015c 9D2B     		.uleb128 .LEHB68-.LFB941
 3965 015e 05       		.uleb128 .LEHE68-.LEHB68
 3966 015f A22B     		.uleb128 .L756-.LFB941
 3967 0161 03       		.uleb128 0x3
 3968 0162 C62C     		.uleb128 .LEHB69-.LFB941
 3969 0164 05       		.uleb128 .LEHE69-.LEHB69
 3970 0165 8E37     		.uleb128 .L757-.LFB941
 3971 0167 03       		.uleb128 0x3
 3972 0168 CD2D     		.uleb128 .LEHB70-.LFB941
 3973 016a 23       		.uleb128 .LEHE70-.LEHB70
 3974 016b D22D     		.uleb128 .L759-.LFB941
 3975 016d 01       		.uleb128 0x1
 3976 016e F62E     		.uleb128 .LEHB71-.LFB941
 3977 0170 05       		.uleb128 .LEHE71-.LEHB71
 3978 0171 9936     		.uleb128 .L775-.LFB941
 3979 0173 01       		.uleb128 0x1
 3980 0174 C02F     		.uleb128 .LEHB72-.LFB941
 3981 0176 05       		.uleb128 .LEHE72-.LEHB72
 3982 0177 A22B     		.uleb128 .L756-.LFB941
 3983 0179 03       		.uleb128 0x3
 3984 017a 8C30     		.uleb128 .LEHB73-.LFB941
 3985 017c 05       		.uleb128 .LEHE73-.LEHB73
 3986 017d A62A     		.uleb128 .L755-.LFB941
 3987 017f 03       		.uleb128 0x3
 3988 0180 9332     		.uleb128 .LEHB74-.LFB941
 3989 0182 05       		.uleb128 .LEHE74-.LEHB74
 3990 0183 A032     		.uleb128 .L744-.LFB941
 3991 0185 00       		.uleb128 0
 3992 0186 D032     		.uleb128 .LEHB75-.LFB941
 3993 0188 05       		.uleb128 .LEHE75-.LEHB75
 3994 0189 DA32     		.uleb128 .L758-.LFB941
 3995 018b 03       		.uleb128 0x3
 3996 018c D532     		.uleb128 .LEHB76-.LFB941
 3997 018e 05       		.uleb128 .LEHE76-.LEHB76
 3998 018f A139     		.uleb128 .L771-.LFB941
 3999 0191 03       		.uleb128 0x3
 4000 0192 D233     		.uleb128 .LEHB77-.LFB941
 4001 0194 05       		.uleb128 .LEHE77-.LEHB77
 4002 0195 B834     		.uleb128 .L753-.LFB941
 4003 0197 00       		.uleb128 0
 4004 0198 B334     		.uleb128 .LEHB78-.LFB941
 4005 019a 05       		.uleb128 .LEHE78-.LEHB78
 4006 019b 00       		.uleb128 0
 4007 019c 00       		.uleb128 0
 4008 019d EC34     		.uleb128 .LEHB79-.LFB941
 4009 019f 05       		.uleb128 .LEHE79-.LEHB79
 4010 01a0 B735     		.uleb128 .L748-.LFB941
 4011 01a2 00       		.uleb128 0
 4012 01a3 EB35     		.uleb128 .LEHB80-.LFB941
 4013 01a5 05       		.uleb128 .LEHE80-.LEHB80
 4014 01a6 9436     		.uleb128 .L765-.LFB941
 4015 01a8 03       		.uleb128 0x3
 4016 01a9 F835     		.uleb128 .LEHB81-.LFB941
 4017 01ab 05       		.uleb128 .LEHE81-.LEHB81
 4018 01ac 00       		.uleb128 0
 4019 01ad 00       		.uleb128 0
 4020 01ae 8236     		.uleb128 .LEHB82-.LFB941
 4021 01b0 05       		.uleb128 .LEHE82-.LEHB82
 4022 01b1 8736     		.uleb128 .L752-.LFB941
 4023 01b3 00       		.uleb128 0
 4024 01b4 8F36     		.uleb128 .LEHB83-.LFB941
 4025 01b6 05       		.uleb128 .LEHE83-.LEHB83
 4026 01b7 E232     		.uleb128 .L747-.LFB941
 4027 01b9 00       		.uleb128 0
 4028 01ba 8937     		.uleb128 .LEHB84-.LFB941
 4029 01bc 05       		.uleb128 .LEHE84-.LEHB84
 4030 01bd 9739     		.uleb128 .L760-.LFB941
 4031 01bf 03       		.uleb128 0x3
 4032 01c0 8638     		.uleb128 .LEHB85-.LFB941
 4033 01c2 05       		.uleb128 .LEHE85-.LEHB85
 4034 01c3 C738     		.uleb128 .L767-.LFB941
 4035 01c5 03       		.uleb128 0x3
 4036 01c6 BA38     		.uleb128 .LEHB86-.LFB941
 4037 01c8 05       		.uleb128 .LEHE86-.LEHB86
 4038 01c9 BF38     		.uleb128 .L772-.LFB941
 4039 01cb 03       		.uleb128 0x3
 4040 01cc 9239     		.uleb128 .LEHB87-.LFB941
 4041 01ce 05       		.uleb128 .LEHE87-.LEHB87
 4042 01cf 8E37     		.uleb128 .L757-.LFB941
 4043 01d1 03       		.uleb128 0x3
 4044 01d2 D739     		.uleb128 .LEHB88-.LFB941
 4045 01d4 05       		.uleb128 .LEHE88-.LEHB88
 4046 01d5 CF39     		.uleb128 .L764-.LFB941
 4047 01d7 03       		.uleb128 0x3
 4048              	.LLSDACSE941:
 4049 01d8 01       		.byte	0x1
 4050 01d9 00       		.byte	0
 4051 01da 00       		.byte	0
 4052 01db 7D       		.byte	0x7d
 4053              		.align 4
 4054 01dc 00000000 		.long	0
 4055              	
 4056              	.LLSDATT941:
 4057              		.section	.text._ZNSt6vectorIN8UnitTest18DeferredTestResultESaIS1_EE13_M_insert_auxEN9__gnu_cxx17__
 4059              		.section	.text.unlikely._ZNSt6vectorIN8UnitTest18DeferredTestResultESaIS1_EE13_M_insert_auxEN9__gn
 4060              	.LCOLDE7:
 4061              		.section	.text._ZNSt6vectorIN8UnitTest18DeferredTestResultESaIS1_EE13_M_insert_auxEN9__gnu_cxx17__
 4062              	.LHOTE7:
 4063              		.section	.text.unlikely
 4064              		.align 2
 4065              	.LCOLDB8:
 4066              		.text
 4067              	.LHOTB8:
 4068 037d 90       		.align 2
 4069 037e 6690     		.p2align 4,,15
 4070              		.globl	_ZN8UnitTest20DeferredTestReporter15ReportTestStartERKNS_11TestDetailsE
 4072              	_ZN8UnitTest20DeferredTestReporter15ReportTestStartERKNS_11TestDetailsE:
 4073              	.LFB893:
 4074              		.cfi_startproc
 4075              		.cfi_personality 0x9b,DW.ref.__gxx_personality_v0
 4076              		.cfi_lsda 0x1b,.LLSDA893
 4077 0380 4157     		pushq	%r15
 4078              		.cfi_def_cfa_offset 16
 4079              		.cfi_offset 15, -16
 4080 0382 4156     		pushq	%r14
 4081              		.cfi_def_cfa_offset 24
 4082              		.cfi_offset 14, -24
 4083 0384 4155     		pushq	%r13
 4084              		.cfi_def_cfa_offset 32
 4085              		.cfi_offset 13, -32
 4086 0386 4154     		pushq	%r12
 4087              		.cfi_def_cfa_offset 40
 4088              		.cfi_offset 12, -40
 4089 0388 55       		pushq	%rbp
 4090              		.cfi_def_cfa_offset 48
 4091              		.cfi_offset 6, -48
 4092 0389 53       		pushq	%rbx
 4093              		.cfi_def_cfa_offset 56
 4094              		.cfi_offset 3, -56
 4095 038a 4889FB   		movq	%rdi, %rbx
 4096 038d 4881ECF8 		subq	$248, %rsp
 4096      000000
 4097              		.cfi_def_cfa_offset 304
 4098 0394 488B5608 		movq	8(%rsi), %rdx
 4099 0398 488B36   		movq	(%rsi), %rsi
 4100 039b 64488B04 		movq	%fs:40, %rax
 4100      25280000 
 4100      00
 4101 03a4 48898424 		movq	%rax, 232(%rsp)
 4101      E8000000 
 4102 03ac 31C0     		xorl	%eax, %eax
 4103 03ae 488D4424 		leaq	96(%rsp), %rax
 4103      60
 4104 03b3 48897C24 		movq	%rdi, 24(%rsp)
 4104      18
 4105 03b8 4889C7   		movq	%rax, %rdi
 4106 03bb 48894424 		movq	%rax, 8(%rsp)
 4106      08
 4107              	.LEHB89:
 4108 03c0 E8000000 		call	_ZN8UnitTest18DeferredTestResultC1EPKcS2_@PLT
 4108      00
 4109              	.LEHE89:
 4110 03c5 4C8B7B10 		movq	16(%rbx), %r15
 4111 03c9 4C3B7B18 		cmpq	24(%rbx), %r15
 4112 03cd 0F84A804 		je	.L1068
 4112      0000
 4113 03d3 4D85FF   		testq	%r15, %r15
 4114 03d6 0F844404 		je	.L1069
 4114      0000
 4115 03dc 498D4710 		leaq	16(%r15), %rax
 4116 03e0 488B5C24 		movq	104(%rsp), %rbx
 4116      68
 4117 03e5 498907   		movq	%rax, (%r15)
 4118 03e8 488B6C24 		movq	96(%rsp), %rbp
 4118      60
 4119 03ed 48894424 		movq	%rax, 40(%rsp)
 4119      28
 4120 03f2 4889E8   		movq	%rbp, %rax
 4121 03f5 4801D8   		addq	%rbx, %rax
 4122 03f8 7411     		je	.L1072
 4123 03fa 4885ED   		testq	%rbp, %rbp
 4124 03fd 750C     		jne	.L1072
 4125 03ff 488D3D00 		leaq	.LC3(%rip), %rdi
 4125      000000
 4126              	.LEHB90:
 4127 0406 E8000000 		call	_ZSt19__throw_logic_errorPKc@PLT
 4127      00
 4128              	.LEHE90:
 4129              	.L1072:
 4130 040b 4883FB0F 		cmpq	$15, %rbx
 4131 040f 48895C24 		movq	%rbx, 64(%rsp)
 4131      40
 4132 0414 0F87C603 		ja	.L1182
 4132      0000
 4133 041a 4883FB01 		cmpq	$1, %rbx
 4134 041e 0F840E04 		je	.L1183
 4134      0000
 4135 0424 4885DB   		testq	%rbx, %rbx
 4136 0427 488B4424 		movq	40(%rsp), %rax
 4136      28
 4137 042c 0F85F604 		jne	.L1184
 4137      0000
 4138              	.L1075:
 4139 0432 49895F08 		movq	%rbx, 8(%r15)
 4140 0436 C6041800 		movb	$0, (%rax,%rbx)
 4141 043a 498D4730 		leaq	48(%r15), %rax
 4142 043e 488B9C24 		movq	136(%rsp), %rbx
 4142      88000000 
 4143 0446 49894720 		movq	%rax, 32(%r15)
 4144 044a 488BAC24 		movq	128(%rsp), %rbp
 4144      80000000 
 4145 0452 48894424 		movq	%rax, 48(%rsp)
 4145      30
 4146 0457 4889E8   		movq	%rbp, %rax
 4147 045a 4801D8   		addq	%rbx, %rax
 4148 045d 7411     		je	.L1078
 4149 045f 4885ED   		testq	%rbp, %rbp
 4150 0462 750C     		jne	.L1078
 4151 0464 488D3D00 		leaq	.LC3(%rip), %rdi
 4151      000000
 4152              	.LEHB91:
 4153 046b E8000000 		call	_ZSt19__throw_logic_errorPKc@PLT
 4153      00
 4154              	.LEHE91:
 4155              	.L1078:
 4156 0470 4883FB0F 		cmpq	$15, %rbx
 4157 0474 48895C24 		movq	%rbx, 72(%rsp)
 4157      48
 4158 0479 0F872103 		ja	.L1185
 4158      0000
 4159 047f 4883FB01 		cmpq	$1, %rbx
 4160 0483 0F84CD03 		je	.L1186
 4160      0000
 4161 0489 4885DB   		testq	%rbx, %rbx
 4162 048c 488B4424 		movq	48(%rsp), %rax
 4162      30
 4163 0491 0F858904 		jne	.L1187
 4163      0000
 4164              	.L1081:
 4165 0497 49895F28 		movq	%rbx, 40(%r15)
 4166 049b C6041800 		movb	$0, (%rax,%rbx)
 4167 049f 498D4750 		leaq	80(%r15), %rax
 4168 04a3 488B9C24 		movq	168(%rsp), %rbx
 4168      A8000000 
 4169 04ab 49894740 		movq	%rax, 64(%r15)
 4170 04af 488BAC24 		movq	160(%rsp), %rbp
 4170      A0000000 
 4171 04b7 48894424 		movq	%rax, 56(%rsp)
 4171      38
 4172 04bc 4889E8   		movq	%rbp, %rax
 4173 04bf 4801D8   		addq	%rbx, %rax
 4174 04c2 7411     		je	.L1084
 4175 04c4 4885ED   		testq	%rbp, %rbp
 4176 04c7 750C     		jne	.L1084
 4177 04c9 488D3D00 		leaq	.LC3(%rip), %rdi
 4177      000000
 4178              	.LEHB92:
 4179 04d0 E8000000 		call	_ZSt19__throw_logic_errorPKc@PLT
 4179      00
 4180              	.LEHE92:
 4181              	.L1084:
 4182 04d5 4883FB0F 		cmpq	$15, %rbx
 4183 04d9 48895C24 		movq	%rbx, 80(%rsp)
 4183      50
 4184 04de 0F877C02 		ja	.L1188
 4184      0000
 4185 04e4 4883FB01 		cmpq	$1, %rbx
 4186 04e8 0F845603 		je	.L1189
 4186      0000
 4187 04ee 4885DB   		testq	%rbx, %rbx
 4188 04f1 488B4424 		movq	56(%rsp), %rax
 4188      38
 4189 04f6 0F851C04 		jne	.L1190
 4189      0000
 4190              	.L1087:
 4191 04fc 49895F48 		movq	%rbx, 72(%r15)
 4192 0500 C6041800 		movb	$0, (%rax,%rbx)
 4193 0504 48B8CDCC 		movabsq	$-3689348814741910323, %rax
 4193      CCCCCCCC 
 4193      CCCC
 4194 050e 488B9C24 		movq	200(%rsp), %rbx
 4194      C8000000 
 4195 0516 482B9C24 		subq	192(%rsp), %rbx
 4195      C0000000 
 4196 051e 49C74768 		movq	$0, 104(%r15)
 4196      00000000 
 4197 0526 49C74760 		movq	$0, 96(%r15)
 4197      00000000 
 4198 052e 49C74770 		movq	$0, 112(%r15)
 4198      00000000 
 4199 0536 4889DA   		movq	%rbx, %rdx
 4200 0539 48C1FA03 		sarq	$3, %rdx
 4201 053d 480FAFC2 		imulq	%rdx, %rax
 4202 0541 4885C0   		testq	%rax, %rax
 4203 0544 0F841E03 		je	.L1191
 4203      0000
 4204 054a 48BA6666 		movabsq	$461168601842738790, %rdx
 4204      66666666 
 4204      6606
 4205 0554 4839D0   		cmpq	%rdx, %rax
 4206 0557 0F87D303 		ja	.L1192
 4206      0000
 4207 055d 4889DF   		movq	%rbx, %rdi
 4208              	.LEHB93:
 4209 0560 E8000000 		call	_Znwm@PLT
 4209      00
 4210              	.LEHE93:
 4211 0565 48894424 		movq	%rax, 32(%rsp)
 4211      20
 4212              	.L1089:
 4213 056a 49894760 		movq	%rax, 96(%r15)
 4214 056e 49894768 		movq	%rax, 104(%r15)
 4215 0572 4801C3   		addq	%rax, %rbx
 4216 0575 4C8BAC24 		movq	200(%rsp), %r13
 4216      C8000000 
 4217 057d 4C8BA424 		movq	192(%rsp), %r12
 4217      C0000000 
 4218 0585 49895F70 		movq	%rbx, 112(%r15)
 4219 0589 4889C3   		movq	%rax, %rbx
 4220 058c 4D39E5   		cmpq	%r12, %r13
 4221 058f 0F848A00 		je	.L1091
 4221      0000
 4222 0595 488D4424 		leaq	88(%rsp), %rax
 4222      58
 4223 059a 48894424 		movq	%rax, 16(%rsp)
 4223      10
 4224 059f 90       		.p2align 4,,10
 4225              		.p2align 3
 4226              	.L1099:
 4227 05a0 4885DB   		testq	%rbx, %rbx
 4228 05a3 7465     		je	.L1092
 4229 05a5 488D7B18 		leaq	24(%rbx), %rdi
 4230 05a9 418B0424 		movl	(%r12), %eax
 4231 05ad 498B6C24 		movq	16(%r12), %rbp
 4231      10
 4232 05b2 48897B08 		movq	%rdi, 8(%rbx)
 4233 05b6 4D8B7424 		movq	8(%r12), %r14
 4233      08
 4234 05bb 8903     		movl	%eax, (%rbx)
 4235 05bd 4C89F0   		movq	%r14, %rax
 4236 05c0 4801E8   		addq	%rbp, %rax
 4237 05c3 741B     		je	.L1095
 4238 05c5 4D85F6   		testq	%r14, %r14
 4239 05c8 7516     		jne	.L1095
 4240 05ca 488D3D00 		leaq	.LC3(%rip), %rdi
 4240      000000
 4241              	.LEHB94:
 4242 05d1 E8000000 		call	_ZSt19__throw_logic_errorPKc@PLT
 4242      00
 4243 05d6 662E0F1F 		.p2align 4,,10
 4243      84000000 
 4243      0000
 4244              		.p2align 3
 4245              	.L1095:
 4246 05e0 4883FD0F 		cmpq	$15, %rbp
 4247 05e4 48896C24 		movq	%rbp, 88(%rsp)
 4247      58
 4248 05e9 0F872101 		ja	.L1193
 4248      0000
 4249 05ef 4883FD01 		cmpq	$1, %rbp
 4250 05f3 0F845701 		je	.L1194
 4250      0000
 4251 05f9 4885ED   		testq	%rbp, %rbp
 4252 05fc 0F852E01 		jne	.L1096
 4252      0000
 4253              	.L1098:
 4254 0602 48896B10 		movq	%rbp, 16(%rbx)
 4255 0606 C6042F00 		movb	$0, (%rdi,%rbp)
 4256              	.L1092:
 4257 060a 4983C428 		addq	$40, %r12
 4258 060e 4883C328 		addq	$40, %rbx
 4259 0612 4D39E5   		cmpq	%r12, %r13
 4260 0615 7589     		jne	.L1099
 4261 0617 4C8BAC24 		movq	192(%rsp), %r13
 4261      C0000000 
 4262              	.L1091:
 4263 061f 0FB68424 		movzbl	220(%rsp), %eax
 4263      DC000000 
 4264 0627 F30F1084 		movss	216(%rsp), %xmm0
 4264      24D80000 
 4264      00
 4265 0630 49895F68 		movq	%rbx, 104(%r15)
 4266 0634 F3410F11 		movss	%xmm0, 120(%r15)
 4266      4778
 4267 063a 4188477C 		movb	%al, 124(%r15)
 4268 063e 488B4424 		movq	24(%rsp), %rax
 4268      18
 4269 0643 4C8B7810 		movq	16(%rax), %r15
 4270              	.L1100:
 4271 0647 4983EF80 		subq	$-128, %r15
 4272 064b 4C897810 		movq	%r15, 16(%rax)
 4273              	.L1115:
 4274 064f 488B9C24 		movq	200(%rsp), %rbx
 4274      C8000000 
 4275 0657 4C39EB   		cmpq	%r13, %rbx
 4276 065a 7427     		je	.L1116
 4277 065c 0F1F4000 		.p2align 4,,10
 4278              		.p2align 3
 4279              	.L1118:
 4280 0660 498B7D08 		movq	8(%r13), %rdi
 4281 0664 498D4518 		leaq	24(%r13), %rax
 4282 0668 4839C7   		cmpq	%rax, %rdi
 4283 066b 7405     		je	.L1117
 4284 066d E8000000 		call	_ZdlPv@PLT
 4284      00
 4285              	.L1117:
 4286 0672 4983C528 		addq	$40, %r13
 4287 0676 4C39EB   		cmpq	%r13, %rbx
 4288 0679 75E5     		jne	.L1118
 4289 067b 488B9C24 		movq	192(%rsp), %rbx
 4289      C0000000 
 4290              	.L1116:
 4291 0683 4885DB   		testq	%rbx, %rbx
 4292 0686 7408     		je	.L1119
 4293 0688 4889DF   		movq	%rbx, %rdi
 4294 068b E8000000 		call	_ZdlPv@PLT
 4294      00
 4295              	.L1119:
 4296 0690 488B4424 		movq	8(%rsp), %rax
 4296      08
 4297 0695 488BBC24 		movq	160(%rsp), %rdi
 4297      A0000000 
 4298 069d 4883C050 		addq	$80, %rax
 4299 06a1 4839C7   		cmpq	%rax, %rdi
 4300 06a4 7405     		je	.L1120
 4301 06a6 E8000000 		call	_ZdlPv@PLT
 4301      00
 4302              	.L1120:
 4303 06ab 488B4424 		movq	8(%rsp), %rax
 4303      08
 4304 06b0 488BBC24 		movq	128(%rsp), %rdi
 4304      80000000 
 4305 06b8 4883C030 		addq	$48, %rax
 4306 06bc 4839C7   		cmpq	%rax, %rdi
 4307 06bf 7405     		je	.L1121
 4308 06c1 E8000000 		call	_ZdlPv@PLT
 4308      00
 4309              	.L1121:
 4310 06c6 488B4424 		movq	8(%rsp), %rax
 4310      08
 4311 06cb 488B7C24 		movq	96(%rsp), %rdi
 4311      60
 4312 06d0 4883C010 		addq	$16, %rax
 4313 06d4 4839C7   		cmpq	%rax, %rdi
 4314 06d7 7405     		je	.L1067
 4315 06d9 E8000000 		call	_ZdlPv@PLT
 4315      00
 4316              	.L1067:
 4317 06de 488B8424 		movq	232(%rsp), %rax
 4317      E8000000 
 4318 06e6 64483304 		xorq	%fs:40, %rax
 4318      25280000 
 4318      00
 4319 06ef 0F856D02 		jne	.L1195
 4319      0000
 4320 06f5 4881C4F8 		addq	$248, %rsp
 4320      000000
 4321              		.cfi_remember_state
 4322              		.cfi_def_cfa_offset 56
 4323 06fc 5B       		popq	%rbx
 4324              		.cfi_def_cfa_offset 48
 4325 06fd 5D       		popq	%rbp
 4326              		.cfi_def_cfa_offset 40
 4327 06fe 415C     		popq	%r12
 4328              		.cfi_def_cfa_offset 32
 4329 0700 415D     		popq	%r13
 4330              		.cfi_def_cfa_offset 24
 4331 0702 415E     		popq	%r14
 4332              		.cfi_def_cfa_offset 16
 4333 0704 415F     		popq	%r15
 4334              		.cfi_def_cfa_offset 8
 4335 0706 C3       		ret
 4336 0707 660F1F84 		.p2align 4,,10
 4336      00000000 
 4336      00
 4337              		.p2align 3
 4338              	.L1193:
 4339              		.cfi_restore_state
 4340 0710 488B7424 		movq	16(%rsp), %rsi
 4340      10
 4341 0715 488D7B08 		leaq	8(%rbx), %rdi
 4342 0719 31D2     		xorl	%edx, %edx
 4343 071b E8000000 		call	_ZNSt7__cxx1112basic_stringIcSt11char_traitsIcESaIcEE9_M_createERmm@PLT
 4343      00
 4344              	.LEHE94:
 4345 0720 4889C7   		movq	%rax, %rdi
 4346 0723 48894308 		movq	%rax, 8(%rbx)
 4347 0727 488B4424 		movq	88(%rsp), %rax
 4347      58
 4348 072c 48894318 		movq	%rax, 24(%rbx)
 4349              	.L1096:
 4350 0730 4889EA   		movq	%rbp, %rdx
 4351 0733 4C89F6   		movq	%r14, %rsi
 4352 0736 E8000000 		call	memcpy@PLT
 4352      00
 4353 073b 488B6C24 		movq	88(%rsp), %rbp
 4353      58
 4354 0740 488B7B08 		movq	8(%rbx), %rdi
 4355 0744 E9B9FEFF 		jmp	.L1098
 4355      FF
 4356 0749 0F1F8000 		.p2align 4,,10
 4356      000000
 4357              		.p2align 3
 4358              	.L1194:
 4359 0750 410FB606 		movzbl	(%r14), %eax
 4360 0754 884318   		movb	%al, 24(%rbx)
 4361 0757 E9A6FEFF 		jmp	.L1098
 4361      FF
 4362 075c 0F1F4000 		.p2align 4,,10
 4363              		.p2align 3
 4364              	.L1188:
 4365 0760 488D7424 		leaq	80(%rsp), %rsi
 4365      50
 4366 0765 498D7F40 		leaq	64(%r15), %rdi
 4367 0769 31D2     		xorl	%edx, %edx
 4368              	.LEHB95:
 4369 076b E8000000 		call	_ZNSt7__cxx1112basic_stringIcSt11char_traitsIcESaIcEE9_M_createERmm@PLT
 4369      00
 4370              	.LEHE95:
 4371 0770 4889C7   		movq	%rax, %rdi
 4372 0773 49894740 		movq	%rax, 64(%r15)
 4373 0777 488B4424 		movq	80(%rsp), %rax
 4373      50
 4374 077c 49894750 		movq	%rax, 80(%r15)
 4375              	.L1085:
 4376 0780 4889DA   		movq	%rbx, %rdx
 4377 0783 4889EE   		movq	%rbp, %rsi
 4378 0786 E8000000 		call	memcpy@PLT
 4378      00
 4379 078b 488B5C24 		movq	80(%rsp), %rbx
 4379      50
 4380 0790 498B4740 		movq	64(%r15), %rax
 4381 0794 E963FDFF 		jmp	.L1087
 4381      FF
 4382 0799 0F1F8000 		.p2align 4,,10
 4382      000000
 4383              		.p2align 3
 4384              	.L1185:
 4385 07a0 488D7424 		leaq	72(%rsp), %rsi
 4385      48
 4386 07a5 498D7F20 		leaq	32(%r15), %rdi
 4387 07a9 31D2     		xorl	%edx, %edx
 4388              	.LEHB96:
 4389 07ab E8000000 		call	_ZNSt7__cxx1112basic_stringIcSt11char_traitsIcESaIcEE9_M_createERmm@PLT
 4389      00
 4390              	.LEHE96:
 4391 07b0 4889C7   		movq	%rax, %rdi
 4392 07b3 49894720 		movq	%rax, 32(%r15)
 4393 07b7 488B4424 		movq	72(%rsp), %rax
 4393      48
 4394 07bc 49894730 		movq	%rax, 48(%r15)
 4395              	.L1079:
 4396 07c0 4889DA   		movq	%rbx, %rdx
 4397 07c3 4889EE   		movq	%rbp, %rsi
 4398 07c6 E8000000 		call	memcpy@PLT
 4398      00
 4399 07cb 488B5C24 		movq	72(%rsp), %rbx
 4399      48
 4400 07d0 498B4720 		movq	32(%r15), %rax
 4401 07d4 E9BEFCFF 		jmp	.L1081
 4401      FF
 4402 07d9 0F1F8000 		.p2align 4,,10
 4402      000000
 4403              		.p2align 3
 4404              	.L1182:
 4405 07e0 488D7424 		leaq	64(%rsp), %rsi
 4405      40
 4406 07e5 31D2     		xorl	%edx, %edx
 4407 07e7 4C89FF   		movq	%r15, %rdi
 4408              	.LEHB97:
 4409 07ea E8000000 		call	_ZNSt7__cxx1112basic_stringIcSt11char_traitsIcESaIcEE9_M_createERmm@PLT
 4409      00
 4410 07ef 4889C7   		movq	%rax, %rdi
 4411 07f2 498907   		movq	%rax, (%r15)
 4412 07f5 488B4424 		movq	64(%rsp), %rax
 4412      40
 4413 07fa 49894710 		movq	%rax, 16(%r15)
 4414              	.L1073:
 4415 07fe 4889DA   		movq	%rbx, %rdx
 4416 0801 4889EE   		movq	%rbp, %rsi
 4417 0804 E8000000 		call	memcpy@PLT
 4417      00
 4418 0809 488B5C24 		movq	64(%rsp), %rbx
 4418      40
 4419 080e 498B07   		movq	(%r15), %rax
 4420 0811 E91CFCFF 		jmp	.L1075
 4420      FF
 4421 0816 662E0F1F 		.p2align 4,,10
 4421      84000000 
 4421      0000
 4422              		.p2align 3
 4423              	.L1069:
 4424 0820 4C8BAC24 		movq	192(%rsp), %r13
 4424      C0000000 
 4425 0828 488B4424 		movq	24(%rsp), %rax
 4425      18
 4426 082d E915FEFF 		jmp	.L1100
 4426      FF
 4427              	.L1183:
 4428 0832 0FB64500 		movzbl	0(%rbp), %eax
 4429 0836 41884710 		movb	%al, 16(%r15)
 4430 083a 488B4424 		movq	40(%rsp), %rax
 4430      28
 4431 083f E9EEFBFF 		jmp	.L1075
 4431      FF
 4432              	.L1189:
 4433 0844 0FB64500 		movzbl	0(%rbp), %eax
 4434 0848 41884750 		movb	%al, 80(%r15)
 4435 084c 488B4424 		movq	56(%rsp), %rax
 4435      38
 4436 0851 E9A6FCFF 		jmp	.L1087
 4436      FF
 4437              	.L1186:
 4438 0856 0FB64500 		movzbl	0(%rbp), %eax
 4439 085a 41884730 		movb	%al, 48(%r15)
 4440 085e 488B4424 		movq	48(%rsp), %rax
 4440      30
 4441 0863 E92FFCFF 		jmp	.L1081
 4441      FF
 4442              	.L1191:
 4443 0868 48C74424 		movq	$0, 32(%rsp)
 4443      20000000 
 4443      00
 4444 0871 488B4424 		movq	32(%rsp), %rax
 4444      20
 4445 0876 E9EFFCFF 		jmp	.L1089
 4445      FF
 4446              	.L1068:
 4447 087b 488B7C24 		movq	24(%rsp), %rdi
 4447      18
 4448 0880 488B5424 		movq	8(%rsp), %rdx
 4448      08
 4449 0885 4C89FE   		movq	%r15, %rsi
 4450 0888 4883C708 		addq	$8, %rdi
 4451 088c E8000000 		call	_ZNSt6vectorIN8UnitTest18DeferredTestResultESaIS1_EE13_M_insert_auxEN9__gnu_cxx17__normal_ite
 4451      00
 4452              	.LEHE97:
 4453 0891 4C8BAC24 		movq	192(%rsp), %r13
 4453      C0000000 
 4454 0899 E9B1FDFF 		jmp	.L1115
 4454      FF
 4455 089e 6690     		.p2align 4,,10
 4456              		.p2align 3
 4457              	.L1141:
 4458 08a0 4889C7   		movq	%rax, %rdi
 4459 08a3 E8000000 		call	__cxa_begin_catch@PLT
 4459      00
 4460 08a8 483B5C24 		cmpq	32(%rsp), %rbx
 4460      20
 4461 08ad 488B6C24 		movq	32(%rsp), %rbp
 4461      20
 4462 08b2 741B     		je	.L1104
 4463              	.L1160:
 4464 08b4 488B7D08 		movq	8(%rbp), %rdi
 4465 08b8 488D4518 		leaq	24(%rbp), %rax
 4466 08bc 4839C7   		cmpq	%rax, %rdi
 4467 08bf 7405     		je	.L1103
 4468 08c1 E8000000 		call	_ZdlPv@PLT
 4468      00
 4469              	.L1103:
 4470 08c6 4883C528 		addq	$40, %rbp
 4471 08ca 4839EB   		cmpq	%rbp, %rbx
 4472 08cd 75E5     		jne	.L1160
 4473              	.L1104:
 4474              	.LEHB98:
 4475 08cf E8000000 		call	__cxa_rethrow@PLT
 4475      00
 4476              	.LEHE98:
 4477              	.L1137:
 4478 08d4 4889C3   		movq	%rax, %rbx
 4479              	.L1112:
 4480 08d7 498B3F   		movq	(%r15), %rdi
 4481 08da 48397C24 		cmpq	%rdi, 40(%rsp)
 4481      28
 4482 08df 7405     		je	.L1114
 4483 08e1 E8000000 		call	_ZdlPv@PLT
 4483      00
 4484              	.L1114:
 4485 08e6 488B7C24 		movq	8(%rsp), %rdi
 4485      08
 4486 08eb E8000000 		call	_ZN8UnitTest18DeferredTestResultD1Ev@PLT
 4486      00
 4487 08f0 4889DF   		movq	%rbx, %rdi
 4488              	.LEHB99:
 4489 08f3 E8000000 		call	_Unwind_Resume@PLT
 4489      00
 4490              	.LEHE99:
 4491              	.L1138:
 4492 08f8 4889C3   		movq	%rax, %rbx
 4493              	.L1110:
 4494 08fb 498B7F20 		movq	32(%r15), %rdi
 4495 08ff 48397C24 		cmpq	%rdi, 48(%rsp)
 4495      30
 4496 0904 74D1     		je	.L1112
 4497 0906 E8000000 		call	_ZdlPv@PLT
 4497      00
 4498 090b EBCA     		jmp	.L1112
 4499              	.L1136:
 4500 090d 4889C3   		movq	%rax, %rbx
 4501 0910 EBD4     		jmp	.L1114
 4502              		.p2align 4,,10
 4503 0912 660F1F44 		.p2align 3
 4503      0000
 4504              	.L1190:
 4505 0918 4889C7   		movq	%rax, %rdi
 4506 091b E960FEFF 		jmp	.L1085
 4506      FF
 4507              	.L1187:
 4508 0920 4889C7   		movq	%rax, %rdi
 4509 0923 E998FEFF 		jmp	.L1079
 4509      FF
 4510              	.L1184:
 4511 0928 4889C7   		movq	%rax, %rdi
 4512 092b E9CEFEFF 		jmp	.L1073
 4512      FF
 4513              	.L1192:
 4514              	.LEHB100:
 4515 0930 E8000000 		call	_ZSt17__throw_bad_allocv@PLT
 4515      00
 4516              	.LEHE100:
 4517              	.L1140:
 4518 0935 4889C3   		movq	%rax, %rbx
 4519 0938 E8000000 		call	__cxa_end_catch@PLT
 4519      00
 4520 093d 498B7F60 		movq	96(%r15), %rdi
 4521 0941 4885FF   		testq	%rdi, %rdi
 4522 0944 7405     		je	.L1108
 4523 0946 E8000000 		call	_ZdlPv@PLT
 4523      00
 4524              	.L1108:
 4525 094b 498B7F40 		movq	64(%r15), %rdi
 4526 094f 48397C24 		cmpq	%rdi, 56(%rsp)
 4526      38
 4527 0954 74A5     		je	.L1110
 4528 0956 E8000000 		call	_ZdlPv@PLT
 4528      00
 4529 095b EB9E     		jmp	.L1110
 4530              	.L1139:
 4531 095d 4889C3   		movq	%rax, %rbx
 4532 0960 EBE9     		jmp	.L1108
 4533              	.L1195:
 4534 0962 E8000000 		call	__stack_chk_fail@PLT
 4534      00
 4535              		.cfi_endproc
 4536              	.LFE893:
 4537              		.section	.gcc_except_table
 4538              		.align 4
 4539              	.LLSDA893:
 4540 01e0 FF       		.byte	0xff
 4541 01e1 9B       		.byte	0x9b
 4542 01e2 51       		.uleb128 .LLSDATT893-.LLSDATTD893
 4543              	.LLSDATTD893:
 4544 01e3 01       		.byte	0x1
 4545 01e4 47       		.uleb128 .LLSDACSE893-.LLSDACSB893
 4546              	.LLSDACSB893:
 4547 01e5 40       		.uleb128 .LEHB89-.LFB893
 4548 01e6 05       		.uleb128 .LEHE89-.LEHB89
 4549 01e7 00       		.uleb128 0
 4550 01e8 00       		.uleb128 0
 4551 01e9 8601     		.uleb128 .LEHB90-.LFB893
 4552 01eb 05       		.uleb128 .LEHE90-.LEHB90
 4553 01ec 8D0B     		.uleb128 .L1136-.LFB893
 4554 01ee 00       		.uleb128 0
 4555 01ef EB01     		.uleb128 .LEHB91-.LFB893
 4556 01f1 05       		.uleb128 .LEHE91-.LEHB91
 4557 01f2 D40A     		.uleb128 .L1137-.LFB893
 4558 01f4 00       		.uleb128 0
 4559 01f5 D002     		.uleb128 .LEHB92-.LFB893
 4560 01f7 05       		.uleb128 .LEHE92-.LEHB92
 4561 01f8 F80A     		.uleb128 .L1138-.LFB893
 4562 01fa 00       		.uleb128 0
 4563 01fb E003     		.uleb128 .LEHB93-.LFB893
 4564 01fd 05       		.uleb128 .LEHE93-.LEHB93
 4565 01fe DD0B     		.uleb128 .L1139-.LFB893
 4566 0200 00       		.uleb128 0
 4567 0201 D104     		.uleb128 .LEHB94-.LFB893
 4568 0203 CF02     		.uleb128 .LEHE94-.LEHB94
 4569 0205 A00A     		.uleb128 .L1141-.LFB893
 4570 0207 01       		.uleb128 0x1
 4571 0208 EB07     		.uleb128 .LEHB95-.LFB893
 4572 020a 05       		.uleb128 .LEHE95-.LEHB95
 4573 020b F80A     		.uleb128 .L1138-.LFB893
 4574 020d 00       		.uleb128 0
 4575 020e AB08     		.uleb128 .LEHB96-.LFB893
 4576 0210 05       		.uleb128 .LEHE96-.LEHB96
 4577 0211 D40A     		.uleb128 .L1137-.LFB893
 4578 0213 00       		.uleb128 0
 4579 0214 EA08     		.uleb128 .LEHB97-.LFB893
 4580 0216 A701     		.uleb128 .LEHE97-.LEHB97
 4581 0218 8D0B     		.uleb128 .L1136-.LFB893
 4582 021a 00       		.uleb128 0
 4583 021b CF0A     		.uleb128 .LEHB98-.LFB893
 4584 021d 05       		.uleb128 .LEHE98-.LEHB98
 4585 021e B50B     		.uleb128 .L1140-.LFB893
 4586 0220 00       		.uleb128 0
 4587 0221 F30A     		.uleb128 .LEHB99-.LFB893
 4588 0223 05       		.uleb128 .LEHE99-.LEHB99
 4589 0224 00       		.uleb128 0
 4590 0225 00       		.uleb128 0
 4591 0226 B00B     		.uleb128 .LEHB100-.LFB893
 4592 0228 05       		.uleb128 .LEHE100-.LEHB100
 4593 0229 DD0B     		.uleb128 .L1139-.LFB893
 4594 022b 00       		.uleb128 0
 4595              	.LLSDACSE893:
 4596 022c 01       		.byte	0x1
 4597 022d 00       		.byte	0
 4598 022e 0000     		.align 4
 4599 0230 00000000 		.long	0
 4600              	
 4601              	.LLSDATT893:
 4602              		.text
 4604              		.section	.text.unlikely
 4605              	.LCOLDE8:
 4606              		.text
 4607              	.LHOTE8:
 4608              		.weak	_ZTSN8UnitTest20DeferredTestReporterE
 4609              		.section	.rodata._ZTSN8UnitTest20DeferredTestReporterE,"aG",@progbits,_ZTSN8UnitTest20DeferredTest
 4610              		.align 32
 4613              	_ZTSN8UnitTest20DeferredTestReporterE:
 4614 0000 4E38556E 		.string	"N8UnitTest20DeferredTestReporterE"
 4614      69745465 
 4614      73743230 
 4614      44656665 
 4614      72726564 
 4615              		.weak	_ZTIN8UnitTest20DeferredTestReporterE
 4616              		.section	.data.rel.ro._ZTIN8UnitTest20DeferredTestReporterE,"awG",@progbits,_ZTIN8UnitTest20Deferr
 4617              		.align 8
 4620              	_ZTIN8UnitTest20DeferredTestReporterE:
 4621 0000 00000000 		.quad	_ZTVN10__cxxabiv120__si_class_type_infoE+16
 4621      00000000 
 4622 0008 00000000 		.quad	_ZTSN8UnitTest20DeferredTestReporterE
 4622      00000000 
 4623 0010 00000000 		.quad	_ZTIN8UnitTest12TestReporterE
 4623      00000000 
 4624              		.weak	_ZTVN8UnitTest20DeferredTestReporterE
 4625              		.section	.data.rel.ro._ZTVN8UnitTest20DeferredTestReporterE,"awG",@progbits,_ZTVN8UnitTest20Deferr
 4626              		.align 8
 4629              	_ZTVN8UnitTest20DeferredTestReporterE:
 4630 0000 00000000 		.quad	0
 4630      00000000 
 4631 0008 00000000 		.quad	_ZTIN8UnitTest20DeferredTestReporterE
 4631      00000000 
 4632 0010 00000000 		.quad	0
 4632      00000000 
 4633 0018 00000000 		.quad	0
 4633      00000000 
 4634 0020 00000000 		.quad	_ZN8UnitTest20DeferredTestReporter15ReportTestStartERKNS_11TestDetailsE
 4634      00000000 
 4635 0028 00000000 		.quad	_ZN8UnitTest20DeferredTestReporter13ReportFailureERKNS_11TestDetailsEPKc
 4635      00000000 
 4636 0030 00000000 		.quad	_ZN8UnitTest20DeferredTestReporter16ReportTestFinishERKNS_11TestDetailsEf
 4636      00000000 
 4637 0038 00000000 		.quad	__cxa_pure_virtual
 4637      00000000 
 4638              		.hidden	DW.ref.__gxx_personality_v0
 4639              		.weak	DW.ref.__gxx_personality_v0
 4640              		.section	.data.DW.ref.__gxx_personality_v0,"awG",@progbits,DW.ref.__gxx_personality_v0,comdat
 4641              		.align 8
 4644              	DW.ref.__gxx_personality_v0:
 4645 0000 00000000 		.quad	__gxx_personality_v0
 4645      00000000 
 4646              		.ident	"GCC: (Ubuntu 5.4.0-6ubuntu1~16.04.5) 5.4.0 20160609"
 4647              		.section	.note.GNU-stack,"",@progbits