   1              		.file	"XmlTestReporter.cpp"
   2              		.section	.text.unlikely._ZN8UnitTest15XmlTestReporterD0Ev,"axG",@progbits,_ZN8UnitTest15XmlTestRep
   3              		.align 2
   4              	.LCOLDB0:
   5              		.section	.text._ZN8UnitTest15XmlTestReporterD0Ev,"axG",@progbits,_ZN8UnitTest15XmlTestReporterD5Ev
   6              	.LHOTB0:
   7              		.align 2
   8              		.p2align 4,,15
   9              		.weak	_ZN8UnitTest15XmlTestReporterD0Ev
  11              	_ZN8UnitTest15XmlTestReporterD0Ev:
  12              	.LFB1585:
  13              		.cfi_startproc
  14 0000 4156     		pushq	%r14
  15              		.cfi_def_cfa_offset 16
  16              		.cfi_offset 14, -16
  17 0002 488B0500 		movq	_ZTVN8UnitTest20DeferredTestReporterE@GOTPCREL(%rip), %rax
  17      000000
  18 0009 4989FE   		movq	%rdi, %r14
  19 000c 4155     		pushq	%r13
  20              		.cfi_def_cfa_offset 24
  21              		.cfi_offset 13, -24
  22 000e 4154     		pushq	%r12
  23              		.cfi_def_cfa_offset 32
  24              		.cfi_offset 12, -32
  25 0010 55       		pushq	%rbp
  26              		.cfi_def_cfa_offset 40
  27              		.cfi_offset 6, -40
  28 0011 53       		pushq	%rbx
  29              		.cfi_def_cfa_offset 48
  30              		.cfi_offset 3, -48
  31 0012 4C8B6F10 		movq	16(%rdi), %r13
  32 0016 4C8B6708 		movq	8(%rdi), %r12
  33 001a 4883C010 		addq	$16, %rax
  34 001e 488907   		movq	%rax, (%rdi)
  35 0021 4D39E5   		cmpq	%r12, %r13
  36 0024 0F848F00 		je	.L2
  36      0000
  37 002a 660F1F44 		.p2align 4,,10
  37      0000
  38              		.p2align 3
  39              	.L10:
  40 0030 498B6C24 		movq	104(%r12), %rbp
  40      68
  41 0035 498B5C24 		movq	96(%r12), %rbx
  41      60
  42 003a 4839DD   		cmpq	%rbx, %rbp
  43 003d 7421     		je	.L3
  44 003f 90       		.p2align 4,,10
  45              		.p2align 3
  46              	.L5:
  47 0040 488B7B08 		movq	8(%rbx), %rdi
  48 0044 488D4318 		leaq	24(%rbx), %rax
  49 0048 4839C7   		cmpq	%rax, %rdi
  50 004b 7405     		je	.L4
  51 004d E8000000 		call	_ZdlPv@PLT
  51      00
  52              	.L4:
  53 0052 4883C328 		addq	$40, %rbx
  54 0056 4839DD   		cmpq	%rbx, %rbp
  55 0059 75E5     		jne	.L5
  56 005b 498B6C24 		movq	96(%r12), %rbp
  56      60
  57              	.L3:
  58 0060 4885ED   		testq	%rbp, %rbp
  59 0063 7408     		je	.L6
  60 0065 4889EF   		movq	%rbp, %rdi
  61 0068 E8000000 		call	_ZdlPv@PLT
  61      00
  62              	.L6:
  63 006d 498B7C24 		movq	64(%r12), %rdi
  63      40
  64 0072 498D4424 		leaq	80(%r12), %rax
  64      50
  65 0077 4839C7   		cmpq	%rax, %rdi
  66 007a 7405     		je	.L7
  67 007c E8000000 		call	_ZdlPv@PLT
  67      00
  68              	.L7:
  69 0081 498B7C24 		movq	32(%r12), %rdi
  69      20
  70 0086 498D4424 		leaq	48(%r12), %rax
  70      30
  71 008b 4839C7   		cmpq	%rax, %rdi
  72 008e 7405     		je	.L8
  73 0090 E8000000 		call	_ZdlPv@PLT
  73      00
  74              	.L8:
  75 0095 498B3C24 		movq	(%r12), %rdi
  76 0099 498D4424 		leaq	16(%r12), %rax
  76      10
  77 009e 4839C7   		cmpq	%rax, %rdi
  78 00a1 7405     		je	.L9
  79 00a3 E8000000 		call	_ZdlPv@PLT
  79      00
  80              	.L9:
  81 00a8 4983EC80 		subq	$-128, %r12
  82 00ac 4D39E5   		cmpq	%r12, %r13
  83 00af 0F857BFF 		jne	.L10
  83      FFFF
  84 00b5 4D8B6E08 		movq	8(%r14), %r13
  85              	.L2:
  86 00b9 4D85ED   		testq	%r13, %r13
  87 00bc 7408     		je	.L11
  88 00be 4C89EF   		movq	%r13, %rdi
  89 00c1 E8000000 		call	_ZdlPv@PLT
  89      00
  90              	.L11:
  91 00c6 4C89F7   		movq	%r14, %rdi
  92 00c9 E8000000 		call	_ZN8UnitTest12TestReporterD2Ev@PLT
  92      00
  93 00ce 5B       		popq	%rbx
  94              		.cfi_def_cfa_offset 40
  95 00cf 4C89F7   		movq	%r14, %rdi
  96 00d2 5D       		popq	%rbp
  97              		.cfi_def_cfa_offset 32
  98 00d3 415C     		popq	%r12
  99              		.cfi_def_cfa_offset 24
 100 00d5 415D     		popq	%r13
 101              		.cfi_def_cfa_offset 16
 102 00d7 415E     		popq	%r14
 103              		.cfi_def_cfa_offset 8
 104 00d9 E9000000 		jmp	_ZdlPv@PLT
 104      00
 105              		.cfi_endproc
 106              	.LFE1585:
 108              		.section	.text.unlikely._ZN8UnitTest15XmlTestReporterD0Ev,"axG",@progbits,_ZN8UnitTest15XmlTestRep
 109              	.LCOLDE0:
 110              		.section	.text._ZN8UnitTest15XmlTestReporterD0Ev,"axG",@progbits,_ZN8UnitTest15XmlTestReporterD5Ev
 111              	.LHOTE0:
 112              		.section	.text.unlikely._ZN8UnitTest15XmlTestReporterD2Ev,"axG",@progbits,_ZN8UnitTest15XmlTestRep
 113              		.align 2
 114              	.LCOLDB1:
 115              		.section	.text._ZN8UnitTest15XmlTestReporterD2Ev,"axG",@progbits,_ZN8UnitTest15XmlTestReporterD5Ev
 116              	.LHOTB1:
 117              		.align 2
 118              		.p2align 4,,15
 119              		.weak	_ZN8UnitTest15XmlTestReporterD2Ev
 121              	_ZN8UnitTest15XmlTestReporterD2Ev:
 122              	.LFB1583:
 123              		.cfi_startproc
 124 0000 4156     		pushq	%r14
 125              		.cfi_def_cfa_offset 16
 126              		.cfi_offset 14, -16
 127 0002 488B0500 		movq	_ZTVN8UnitTest20DeferredTestReporterE@GOTPCREL(%rip), %rax
 127      000000
 128 0009 4989FE   		movq	%rdi, %r14
 129 000c 4155     		pushq	%r13
 130              		.cfi_def_cfa_offset 24
 131              		.cfi_offset 13, -24
 132 000e 4154     		pushq	%r12
 133              		.cfi_def_cfa_offset 32
 134              		.cfi_offset 12, -32
 135 0010 55       		pushq	%rbp
 136              		.cfi_def_cfa_offset 40
 137              		.cfi_offset 6, -40
 138 0011 53       		pushq	%rbx
 139              		.cfi_def_cfa_offset 48
 140              		.cfi_offset 3, -48
 141 0012 4C8B6F10 		movq	16(%rdi), %r13
 142 0016 4C8B6708 		movq	8(%rdi), %r12
 143 001a 4883C010 		addq	$16, %rax
 144 001e 488907   		movq	%rax, (%rdi)
 145 0021 4D39E5   		cmpq	%r12, %r13
 146 0024 0F848F00 		je	.L23
 146      0000
 147 002a 660F1F44 		.p2align 4,,10
 147      0000
 148              		.p2align 3
 149              	.L31:
 150 0030 498B6C24 		movq	104(%r12), %rbp
 150      68
 151 0035 498B5C24 		movq	96(%r12), %rbx
 151      60
 152 003a 4839DD   		cmpq	%rbx, %rbp
 153 003d 7421     		je	.L24
 154 003f 90       		.p2align 4,,10
 155              		.p2align 3
 156              	.L26:
 157 0040 488B7B08 		movq	8(%rbx), %rdi
 158 0044 488D4318 		leaq	24(%rbx), %rax
 159 0048 4839C7   		cmpq	%rax, %rdi
 160 004b 7405     		je	.L25
 161 004d E8000000 		call	_ZdlPv@PLT
 161      00
 162              	.L25:
 163 0052 4883C328 		addq	$40, %rbx
 164 0056 4839DD   		cmpq	%rbx, %rbp
 165 0059 75E5     		jne	.L26
 166 005b 498B6C24 		movq	96(%r12), %rbp
 166      60
 167              	.L24:
 168 0060 4885ED   		testq	%rbp, %rbp
 169 0063 7408     		je	.L27
 170 0065 4889EF   		movq	%rbp, %rdi
 171 0068 E8000000 		call	_ZdlPv@PLT
 171      00
 172              	.L27:
 173 006d 498B7C24 		movq	64(%r12), %rdi
 173      40
 174 0072 498D4424 		leaq	80(%r12), %rax
 174      50
 175 0077 4839C7   		cmpq	%rax, %rdi
 176 007a 7405     		je	.L28
 177 007c E8000000 		call	_ZdlPv@PLT
 177      00
 178              	.L28:
 179 0081 498B7C24 		movq	32(%r12), %rdi
 179      20
 180 0086 498D4424 		leaq	48(%r12), %rax
 180      30
 181 008b 4839C7   		cmpq	%rax, %rdi
 182 008e 7405     		je	.L29
 183 0090 E8000000 		call	_ZdlPv@PLT
 183      00
 184              	.L29:
 185 0095 498B3C24 		movq	(%r12), %rdi
 186 0099 498D4424 		leaq	16(%r12), %rax
 186      10
 187 009e 4839C7   		cmpq	%rax, %rdi
 188 00a1 7405     		je	.L30
 189 00a3 E8000000 		call	_ZdlPv@PLT
 189      00
 190              	.L30:
 191 00a8 4983EC80 		subq	$-128, %r12
 192 00ac 4D39E5   		cmpq	%r12, %r13
 193 00af 0F857BFF 		jne	.L31
 193      FFFF
 194 00b5 4D8B6E08 		movq	8(%r14), %r13
 195              	.L23:
 196 00b9 4D85ED   		testq	%r13, %r13
 197 00bc 7408     		je	.L32
 198 00be 4C89EF   		movq	%r13, %rdi
 199 00c1 E8000000 		call	_ZdlPv@PLT
 199      00
 200              	.L32:
 201 00c6 5B       		popq	%rbx
 202              		.cfi_def_cfa_offset 40
 203 00c7 4C89F7   		movq	%r14, %rdi
 204 00ca 5D       		popq	%rbp
 205              		.cfi_def_cfa_offset 32
 206 00cb 415C     		popq	%r12
 207              		.cfi_def_cfa_offset 24
 208 00cd 415D     		popq	%r13
 209              		.cfi_def_cfa_offset 16
 210 00cf 415E     		popq	%r14
 211              		.cfi_def_cfa_offset 8
 212 00d1 E9000000 		jmp	_ZN8UnitTest12TestReporterD2Ev@PLT
 212      00
 213              		.cfi_endproc
 214              	.LFE1583:
 216              		.section	.text.unlikely._ZN8UnitTest15XmlTestReporterD2Ev,"axG",@progbits,_ZN8UnitTest15XmlTestRep
 217              	.LCOLDE1:
 218              		.section	.text._ZN8UnitTest15XmlTestReporterD2Ev,"axG",@progbits,_ZN8UnitTest15XmlTestReporterD5Ev
 219              	.LHOTE1:
 220              		.weak	_ZN8UnitTest15XmlTestReporterD1Ev
 221              		.set	_ZN8UnitTest15XmlTestReporterD1Ev,_ZN8UnitTest15XmlTestReporterD2Ev
 222              		.section	.text.unlikely,"ax",@progbits
 223              		.align 2
 224              	.LCOLDB2:
 225              		.text
 226              	.LHOTB2:
 227              		.align 2
 228              		.p2align 4,,15
 229              		.globl	_ZN8UnitTest15XmlTestReporterC2ERSo
 231              	_ZN8UnitTest15XmlTestReporterC2ERSo:
 232              	.LFB1357:
 233              		.cfi_startproc
 234 0000 488B0500 		movq	_ZTVN8UnitTest15XmlTestReporterE@GOTPCREL(%rip), %rax
 234      000000
 235 0007 48C74708 		movq	$0, 8(%rdi)
 235      00000000 
 236 000f 48C74710 		movq	$0, 16(%rdi)
 236      00000000 
 237 0017 48C74718 		movq	$0, 24(%rdi)
 237      00000000 
 238 001f 48897720 		movq	%rsi, 32(%rdi)
 239 0023 4883C010 		addq	$16, %rax
 240 0027 488907   		movq	%rax, (%rdi)
 241 002a C3       		ret
 242              		.cfi_endproc
 243              	.LFE1357:
 245              		.section	.text.unlikely
 246              	.LCOLDE2:
 247              		.text
 248              	.LHOTE2:
 249              		.globl	_ZN8UnitTest15XmlTestReporterC1ERSo
 250              		.set	_ZN8UnitTest15XmlTestReporterC1ERSo,_ZN8UnitTest15XmlTestReporterC2ERSo
 251              		.section	.rodata.str1.1,"aMS",@progbits,1
 252              	.LC3:
 253 0000 3C3F786D 		.string	"<?xml version=\"1.0\""
 253      6C207665 
 253      7273696F 
 253      6E3D2231 
 253      2E302200 
 254              	.LC4:
 255 0014 20656E63 		.string	" encoding=\""
 255      6F64696E 
 255      673D2200 
 256              	.LC5:
 257 0020 2200     		.string	"\""
 258              	.LC6:
 259 0022 3F3E00   		.string	"?>"
 260              		.section	.text.unlikely
 261              		.align 2
 262              	.LCOLDB7:
 263              		.text
 264              	.LHOTB7:
 265 002b 90       		.align 2
 266 002c 0F1F4000 		.p2align 4,,15
 267              		.globl	_ZN8UnitTest15XmlTestReporter13AddXmlElementERSoPKc
 269              	_ZN8UnitTest15XmlTestReporter13AddXmlElementERSoPKc:
 270              	.LFB1360:
 271              		.cfi_startproc
 272 0030 55       		pushq	%rbp
 273              		.cfi_def_cfa_offset 16
 274              		.cfi_offset 6, -16
 275 0031 53       		pushq	%rbx
 276              		.cfi_def_cfa_offset 24
 277              		.cfi_offset 3, -24
 278 0032 4889F3   		movq	%rsi, %rbx
 279 0035 488D3500 		leaq	.LC3(%rip), %rsi
 279      000000
 280 003c 4889D5   		movq	%rdx, %rbp
 281 003f 4889DF   		movq	%rbx, %rdi
 282 0042 4883EC08 		subq	$8, %rsp
 283              		.cfi_def_cfa_offset 32
 284 0046 BA130000 		movl	$19, %edx
 284      00
 285 004b E8000000 		call	_ZSt16__ostream_insertIcSt11char_traitsIcEERSt13basic_ostreamIT_T0_ES6_PKS3_l@PLT
 285      00
 286 0050 4885ED   		testq	%rbp, %rbp
 287 0053 743E     		je	.L44
 288 0055 488D3500 		leaq	.LC4(%rip), %rsi
 288      000000
 289 005c BA0B0000 		movl	$11, %edx
 289      00
 290 0061 4889DF   		movq	%rbx, %rdi
 291 0064 E8000000 		call	_ZSt16__ostream_insertIcSt11char_traitsIcEERSt13basic_ostreamIT_T0_ES6_PKS3_l@PLT
 291      00
 292 0069 4889EF   		movq	%rbp, %rdi
 293 006c E8000000 		call	strlen@PLT
 293      00
 294 0071 4889EE   		movq	%rbp, %rsi
 295 0074 4889C2   		movq	%rax, %rdx
 296 0077 4889DF   		movq	%rbx, %rdi
 297 007a E8000000 		call	_ZSt16__ostream_insertIcSt11char_traitsIcEERSt13basic_ostreamIT_T0_ES6_PKS3_l@PLT
 297      00
 298 007f 488D3500 		leaq	.LC5(%rip), %rsi
 298      000000
 299 0086 BA010000 		movl	$1, %edx
 299      00
 300 008b 4889DF   		movq	%rbx, %rdi
 301 008e E8000000 		call	_ZSt16__ostream_insertIcSt11char_traitsIcEERSt13basic_ostreamIT_T0_ES6_PKS3_l@PLT
 301      00
 302              	.L44:
 303 0093 4883C408 		addq	$8, %rsp
 304              		.cfi_def_cfa_offset 24
 305 0097 4889DF   		movq	%rbx, %rdi
 306 009a 488D3500 		leaq	.LC6(%rip), %rsi
 306      000000
 307 00a1 5B       		popq	%rbx
 308              		.cfi_def_cfa_offset 16
 309 00a2 5D       		popq	%rbp
 310              		.cfi_def_cfa_offset 8
 311 00a3 BA020000 		movl	$2, %edx
 311      00
 312 00a8 E9000000 		jmp	_ZSt16__ostream_insertIcSt11char_traitsIcEERSt13basic_ostreamIT_T0_ES6_PKS3_l@PLT
 312      00
 313              		.cfi_endproc
 314              	.LFE1360:
 316              		.section	.text.unlikely
 317              	.LCOLDE7:
 318              		.text
 319              	.LHOTE7:
 320              		.section	.rodata.str1.1
 321              	.LC8:
 322 0025 3C756E69 		.string	"<unittest-results"
 322      74746573 
 322      742D7265 
 322      73756C74 
 322      7300
 323              	.LC9:
 324 0037 20746573 		.string	" tests=\""
 324      74733D22 
 324      00
 325              	.LC10:
 326 0040 20666169 		.string	" failedtests=\""
 326      6C656474 
 326      65737473 
 326      3D2200
 327              	.LC11:
 328 004f 20666169 		.string	" failures=\""
 328      6C757265 
 328      733D2200 
 329              	.LC12:
 330 005b 2074696D 		.string	" time=\""
 330      653D2200 
 331              	.LC13:
 332 0063 3E00     		.string	">"
 333              		.section	.text.unlikely
 334              		.align 2
 335              	.LCOLDB14:
 336              		.text
 337              	.LHOTB14:
 338 00ad 90       		.align 2
 339 00ae 6690     		.p2align 4,,15
 340              		.globl	_ZN8UnitTest15XmlTestReporter12BeginResultsERSoiiif
 342              	_ZN8UnitTest15XmlTestReporter12BeginResultsERSoiiif:
 343              	.LFB1361:
 344              		.cfi_startproc
 345 00b0 4155     		pushq	%r13
 346              		.cfi_def_cfa_offset 16
 347              		.cfi_offset 13, -16
 348 00b2 4154     		pushq	%r12
 349              		.cfi_def_cfa_offset 24
 350              		.cfi_offset 12, -24
 351 00b4 4189D5   		movl	%edx, %r13d
 352 00b7 55       		pushq	%rbp
 353              		.cfi_def_cfa_offset 32
 354              		.cfi_offset 6, -32
 355 00b8 53       		pushq	%rbx
 356              		.cfi_def_cfa_offset 40
 357              		.cfi_offset 3, -40
 358 00b9 4889F3   		movq	%rsi, %rbx
 359 00bc 488D3500 		leaq	.LC8(%rip), %rsi
 359      000000
 360 00c3 4889DF   		movq	%rbx, %rdi
 361 00c6 BA110000 		movl	$17, %edx
 361      00
 362 00cb 4883EC18 		subq	$24, %rsp
 363              		.cfi_def_cfa_offset 64
 364 00cf 4189CC   		movl	%ecx, %r12d
 365 00d2 4489C5   		movl	%r8d, %ebp
 366 00d5 F30F1144 		movss	%xmm0, 12(%rsp)
 366      240C
 367 00db E8000000 		call	_ZSt16__ostream_insertIcSt11char_traitsIcEERSt13basic_ostreamIT_T0_ES6_PKS3_l@PLT
 367      00
 368 00e0 488D3500 		leaq	.LC9(%rip), %rsi
 368      000000
 369 00e7 BA080000 		movl	$8, %edx
 369      00
 370 00ec 4889DF   		movq	%rbx, %rdi
 371 00ef E8000000 		call	_ZSt16__ostream_insertIcSt11char_traitsIcEERSt13basic_ostreamIT_T0_ES6_PKS3_l@PLT
 371      00
 372 00f4 4489EE   		movl	%r13d, %esi
 373 00f7 4889DF   		movq	%rbx, %rdi
 374 00fa E8000000 		call	_ZNSolsEi@PLT
 374      00
 375 00ff 488D3500 		leaq	.LC5(%rip), %rsi
 375      000000
 376 0106 BA010000 		movl	$1, %edx
 376      00
 377 010b 4889C7   		movq	%rax, %rdi
 378 010e 4889C3   		movq	%rax, %rbx
 379 0111 E8000000 		call	_ZSt16__ostream_insertIcSt11char_traitsIcEERSt13basic_ostreamIT_T0_ES6_PKS3_l@PLT
 379      00
 380 0116 488D3500 		leaq	.LC10(%rip), %rsi
 380      000000
 381 011d BA0E0000 		movl	$14, %edx
 381      00
 382 0122 4889DF   		movq	%rbx, %rdi
 383 0125 E8000000 		call	_ZSt16__ostream_insertIcSt11char_traitsIcEERSt13basic_ostreamIT_T0_ES6_PKS3_l@PLT
 383      00
 384 012a 4489E6   		movl	%r12d, %esi
 385 012d 4889DF   		movq	%rbx, %rdi
 386 0130 E8000000 		call	_ZNSolsEi@PLT
 386      00
 387 0135 488D3500 		leaq	.LC5(%rip), %rsi
 387      000000
 388 013c BA010000 		movl	$1, %edx
 388      00
 389 0141 4889C7   		movq	%rax, %rdi
 390 0144 4889C3   		movq	%rax, %rbx
 391 0147 E8000000 		call	_ZSt16__ostream_insertIcSt11char_traitsIcEERSt13basic_ostreamIT_T0_ES6_PKS3_l@PLT
 391      00
 392 014c 488D3500 		leaq	.LC11(%rip), %rsi
 392      000000
 393 0153 BA0B0000 		movl	$11, %edx
 393      00
 394 0158 4889DF   		movq	%rbx, %rdi
 395 015b E8000000 		call	_ZSt16__ostream_insertIcSt11char_traitsIcEERSt13basic_ostreamIT_T0_ES6_PKS3_l@PLT
 395      00
 396 0160 89EE     		movl	%ebp, %esi
 397 0162 4889DF   		movq	%rbx, %rdi
 398 0165 E8000000 		call	_ZNSolsEi@PLT
 398      00
 399 016a 488D3500 		leaq	.LC5(%rip), %rsi
 399      000000
 400 0171 BA010000 		movl	$1, %edx
 400      00
 401 0176 4889C7   		movq	%rax, %rdi
 402 0179 4889C3   		movq	%rax, %rbx
 403 017c E8000000 		call	_ZSt16__ostream_insertIcSt11char_traitsIcEERSt13basic_ostreamIT_T0_ES6_PKS3_l@PLT
 403      00
 404 0181 488D3500 		leaq	.LC12(%rip), %rsi
 404      000000
 405 0188 BA070000 		movl	$7, %edx
 405      00
 406 018d 4889DF   		movq	%rbx, %rdi
 407 0190 E8000000 		call	_ZSt16__ostream_insertIcSt11char_traitsIcEERSt13basic_ostreamIT_T0_ES6_PKS3_l@PLT
 407      00
 408 0195 F30F1044 		movss	12(%rsp), %xmm0
 408      240C
 409 019b 4889DF   		movq	%rbx, %rdi
 410 019e F30F5AC0 		cvtss2sd	%xmm0, %xmm0
 411 01a2 E8000000 		call	_ZNSo9_M_insertIdEERSoT_@PLT
 411      00
 412 01a7 488D3500 		leaq	.LC5(%rip), %rsi
 412      000000
 413 01ae BA010000 		movl	$1, %edx
 413      00
 414 01b3 4889C7   		movq	%rax, %rdi
 415 01b6 4889C3   		movq	%rax, %rbx
 416 01b9 E8000000 		call	_ZSt16__ostream_insertIcSt11char_traitsIcEERSt13basic_ostreamIT_T0_ES6_PKS3_l@PLT
 416      00
 417 01be 4883C418 		addq	$24, %rsp
 418              		.cfi_def_cfa_offset 40
 419 01c2 4889DF   		movq	%rbx, %rdi
 420 01c5 488D3500 		leaq	.LC13(%rip), %rsi
 420      000000
 421 01cc 5B       		popq	%rbx
 422              		.cfi_def_cfa_offset 32
 423 01cd 5D       		popq	%rbp
 424              		.cfi_def_cfa_offset 24
 425 01ce 415C     		popq	%r12
 426              		.cfi_def_cfa_offset 16
 427 01d0 415D     		popq	%r13
 428              		.cfi_def_cfa_offset 8
 429 01d2 BA010000 		movl	$1, %edx
 429      00
 430 01d7 E9000000 		jmp	_ZSt16__ostream_insertIcSt11char_traitsIcEERSt13basic_ostreamIT_T0_ES6_PKS3_l@PLT
 430      00
 431              		.cfi_endproc
 432              	.LFE1361:
 434              		.section	.text.unlikely
 435              	.LCOLDE14:
 436              		.text
 437              	.LHOTE14:
 438              		.section	.rodata.str1.1
 439              	.LC15:
 440 0065 3C2F756E 		.string	"</unittest-results>"
 440      69747465 
 440      73742D72 
 440      6573756C 
 440      74733E00 
 441              		.section	.text.unlikely
 442              		.align 2
 443              	.LCOLDB16:
 444              		.text
 445              	.LHOTB16:
 446              		.align 2
 447 01dc 0F1F4000 		.p2align 4,,15
 448              		.globl	_ZN8UnitTest15XmlTestReporter10EndResultsERSo
 450              	_ZN8UnitTest15XmlTestReporter10EndResultsERSo:
 451              	.LFB1362:
 452              		.cfi_startproc
 453 01e0 4889F7   		movq	%rsi, %rdi
 454 01e3 488D3500 		leaq	.LC15(%rip), %rsi
 454      000000
 455 01ea BA130000 		movl	$19, %edx
 455      00
 456 01ef E9000000 		jmp	_ZSt16__ostream_insertIcSt11char_traitsIcEERSt13basic_ostreamIT_T0_ES6_PKS3_l@PLT
 456      00
 457              		.cfi_endproc
 458              	.LFE1362:
 460              		.section	.text.unlikely
 461              	.LCOLDE16:
 462              		.text
 463              	.LHOTE16:
 464              		.section	.rodata.str1.1
 465              	.LC17:
 466 0079 3C746573 		.string	"<test"
 466      7400
 467              	.LC18:
 468 007f 20737569 		.string	" suite=\""
 468      74653D22 
 468      00
 469              	.LC19:
 470 0088 206E616D 		.string	" name=\""
 470      653D2200 
 471              		.section	.text.unlikely
 472              		.align 2
 473              	.LCOLDB20:
 474              		.text
 475              	.LHOTB20:
 476              		.align 2
 477 01f4 6690662E 		.p2align 4,,15
 477      0F1F8400 
 477      00000000 
 478              		.globl	_ZN8UnitTest15XmlTestReporter9BeginTestERSoRKNS_18DeferredTestResultE
 480              	_ZN8UnitTest15XmlTestReporter9BeginTestERSoRKNS_18DeferredTestResultE:
 481              	.LFB1363:
 482              		.cfi_startproc
 483 0200 55       		pushq	%rbp
 484              		.cfi_def_cfa_offset 16
 485              		.cfi_offset 6, -16
 486 0201 53       		pushq	%rbx
 487              		.cfi_def_cfa_offset 24
 488              		.cfi_offset 3, -24
 489 0202 4889F5   		movq	%rsi, %rbp
 490 0205 488D3500 		leaq	.LC17(%rip), %rsi
 490      000000
 491 020c 4889D3   		movq	%rdx, %rbx
 492 020f 4889EF   		movq	%rbp, %rdi
 493 0212 4883EC18 		subq	$24, %rsp
 494              		.cfi_def_cfa_offset 48
 495 0216 F30F104A 		movss	120(%rdx), %xmm1
 495      78
 496 021b BA050000 		movl	$5, %edx
 496      00
 497 0220 F30F114C 		movss	%xmm1, 12(%rsp)
 497      240C
 498 0226 E8000000 		call	_ZSt16__ostream_insertIcSt11char_traitsIcEERSt13basic_ostreamIT_T0_ES6_PKS3_l@PLT
 498      00
 499 022b 488D3500 		leaq	.LC18(%rip), %rsi
 499      000000
 500 0232 4889EF   		movq	%rbp, %rdi
 501 0235 BA080000 		movl	$8, %edx
 501      00
 502 023a E8000000 		call	_ZSt16__ostream_insertIcSt11char_traitsIcEERSt13basic_ostreamIT_T0_ES6_PKS3_l@PLT
 502      00
 503 023f 488B5308 		movq	8(%rbx), %rdx
 504 0243 488B33   		movq	(%rbx), %rsi
 505 0246 4889EF   		movq	%rbp, %rdi
 506 0249 E8000000 		call	_ZSt16__ostream_insertIcSt11char_traitsIcEERSt13basic_ostreamIT_T0_ES6_PKS3_l@PLT
 506      00
 507 024e 488D3500 		leaq	.LC5(%rip), %rsi
 507      000000
 508 0255 BA010000 		movl	$1, %edx
 508      00
 509 025a 4889C7   		movq	%rax, %rdi
 510 025d 4889C5   		movq	%rax, %rbp
 511 0260 E8000000 		call	_ZSt16__ostream_insertIcSt11char_traitsIcEERSt13basic_ostreamIT_T0_ES6_PKS3_l@PLT
 511      00
 512 0265 488D3500 		leaq	.LC19(%rip), %rsi
 512      000000
 513 026c 4889EF   		movq	%rbp, %rdi
 514 026f BA070000 		movl	$7, %edx
 514      00
 515 0274 E8000000 		call	_ZSt16__ostream_insertIcSt11char_traitsIcEERSt13basic_ostreamIT_T0_ES6_PKS3_l@PLT
 515      00
 516 0279 488B5328 		movq	40(%rbx), %rdx
 517 027d 488B7320 		movq	32(%rbx), %rsi
 518 0281 4889EF   		movq	%rbp, %rdi
 519 0284 E8000000 		call	_ZSt16__ostream_insertIcSt11char_traitsIcEERSt13basic_ostreamIT_T0_ES6_PKS3_l@PLT
 519      00
 520 0289 488D3500 		leaq	.LC5(%rip), %rsi
 520      000000
 521 0290 BA010000 		movl	$1, %edx
 521      00
 522 0295 4889C7   		movq	%rax, %rdi
 523 0298 4889C3   		movq	%rax, %rbx
 524 029b E8000000 		call	_ZSt16__ostream_insertIcSt11char_traitsIcEERSt13basic_ostreamIT_T0_ES6_PKS3_l@PLT
 524      00
 525 02a0 488D3500 		leaq	.LC12(%rip), %rsi
 525      000000
 526 02a7 BA070000 		movl	$7, %edx
 526      00
 527 02ac 4889DF   		movq	%rbx, %rdi
 528 02af E8000000 		call	_ZSt16__ostream_insertIcSt11char_traitsIcEERSt13basic_ostreamIT_T0_ES6_PKS3_l@PLT
 528      00
 529 02b4 660FEFC0 		pxor	%xmm0, %xmm0
 530 02b8 4889DF   		movq	%rbx, %rdi
 531 02bb F30F5A44 		cvtss2sd	12(%rsp), %xmm0
 531      240C
 532 02c1 E8000000 		call	_ZNSo9_M_insertIdEERSoT_@PLT
 532      00
 533 02c6 4883C418 		addq	$24, %rsp
 534              		.cfi_def_cfa_offset 24
 535 02ca 488D3500 		leaq	.LC5(%rip), %rsi
 535      000000
 536 02d1 BA010000 		movl	$1, %edx
 536      00
 537 02d6 5B       		popq	%rbx
 538              		.cfi_def_cfa_offset 16
 539 02d7 5D       		popq	%rbp
 540              		.cfi_def_cfa_offset 8
 541 02d8 4889C7   		movq	%rax, %rdi
 542 02db E9000000 		jmp	_ZSt16__ostream_insertIcSt11char_traitsIcEERSt13basic_ostreamIT_T0_ES6_PKS3_l@PLT
 542      00
 543              		.cfi_endproc
 544              	.LFE1363:
 546              		.section	.text.unlikely
 547              	.LCOLDE20:
 548              		.text
 549              	.LHOTE20:
 550              		.section	.rodata.str1.1
 551              	.LC21:
 552 0090 3C2F7465 		.string	"</test>"
 552      73743E00 
 553              	.LC22:
 554 0098 2F3E00   		.string	"/>"
 555              		.section	.text.unlikely
 556              		.align 2
 557              	.LCOLDB23:
 558              		.text
 559              	.LHOTB23:
 560              		.align 2
 561              		.p2align 4,,15
 562              		.globl	_ZN8UnitTest15XmlTestReporter7EndTestERSoRKNS_18DeferredTestResultE
 564              	_ZN8UnitTest15XmlTestReporter7EndTestERSoRKNS_18DeferredTestResultE:
 565              	.LFB1364:
 566              		.cfi_startproc
 567 02e0 807A7C00 		cmpb	$0, 124(%rdx)
 568 02e4 4889F7   		movq	%rsi, %rdi
 569 02e7 7517     		jne	.L56
 570 02e9 488D3500 		leaq	.LC22(%rip), %rsi
 570      000000
 571 02f0 BA020000 		movl	$2, %edx
 571      00
 572 02f5 E9000000 		jmp	_ZSt16__ostream_insertIcSt11char_traitsIcEERSt13basic_ostreamIT_T0_ES6_PKS3_l@PLT
 572      00
 573 02fa 660F1F44 		.p2align 4,,10
 573      0000
 574              		.p2align 3
 575              	.L56:
 576 0300 488D3500 		leaq	.LC21(%rip), %rsi
 576      000000
 577 0307 BA070000 		movl	$7, %edx
 577      00
 578 030c E9000000 		jmp	_ZSt16__ostream_insertIcSt11char_traitsIcEERSt13basic_ostreamIT_T0_ES6_PKS3_l@PLT
 578      00
 579              		.cfi_endproc
 580              	.LFE1364:
 582              		.section	.text.unlikely
 583              	.LCOLDE23:
 584              		.text
 585              	.LHOTE23:
 586              		.section	.rodata.str1.1
 587              	.LC24:
 588 009b 62617369 		.string	"basic_string::replace"
 588      635F7374 
 588      72696E67 
 588      3A3A7265 
 588      706C6163 
 589              		.section	.rodata.str1.8,"aMS",@progbits,1
 590              		.align 8
 591              	.LC25:
 592 0000 25733A20 		.string	"%s: __pos (which is %zu) > this->size() (which is %zu)"
 592      5F5F706F 
 592      73202877 
 592      68696368 
 592      20697320 
 593              		.section	.rodata.str1.1
 594              	.LC26:
 595 00b1 2800     		.string	"("
 596              	.LC27:
 597 00b3 29203A20 		.string	") : "
 597      00
 598              	.LC28:
 599 00b8 3C666169 		.string	"<failure"
 599      6C757265 
 599      00
 600              	.LC29:
 601 00c1 206D6573 		.string	" message=\""
 601      73616765 
 601      3D2200
 602              		.section	.rodata.str1.8
 603 0037 00       		.align 8
 604              	.LC30:
 605 0038 62617369 		.string	"basic_string::_M_construct null not valid"
 605      635F7374 
 605      72696E67 
 605      3A3A5F4D 
 605      5F636F6E 
 606              		.section	.text.unlikely
 607              		.align 2
 608              	.LCOLDB31:
 609              		.text
 610              	.LHOTB31:
 611 0311 90       		.align 2
 612 0312 0F1F4000 		.p2align 4,,15
 612      662E0F1F 
 612      84000000 
 612      0000
 613              		.globl	_ZN8UnitTest15XmlTestReporter10AddFailureERSoRKNS_18DeferredTestResultE
 615              	_ZN8UnitTest15XmlTestReporter10AddFailureERSoRKNS_18DeferredTestResultE:
 616              	.LFB1365:
 617              		.cfi_startproc
 618              		.cfi_personality 0x9b,DW.ref.__gxx_personality_v0
 619              		.cfi_lsda 0x1b,.LLSDA1365
 620 0320 4157     		pushq	%r15
 621              		.cfi_def_cfa_offset 16
 622              		.cfi_offset 15, -16
 623 0322 4156     		pushq	%r14
 624              		.cfi_def_cfa_offset 24
 625              		.cfi_offset 14, -24
 626 0324 4889F7   		movq	%rsi, %rdi
 627 0327 4155     		pushq	%r13
 628              		.cfi_def_cfa_offset 32
 629              		.cfi_offset 13, -32
 630 0329 4154     		pushq	%r12
 631              		.cfi_def_cfa_offset 40
 632              		.cfi_offset 12, -40
 633 032b 4989D7   		movq	%rdx, %r15
 634 032e 55       		pushq	%rbp
 635              		.cfi_def_cfa_offset 48
 636              		.cfi_offset 6, -48
 637 032f 53       		pushq	%rbx
 638              		.cfi_def_cfa_offset 56
 639              		.cfi_offset 3, -56
 640 0330 BA010000 		movl	$1, %edx
 640      00
 641 0335 4881EC58 		subq	$600, %rsp
 641      020000
 642              		.cfi_def_cfa_offset 656
 643 033c 48897424 		movq	%rsi, 8(%rsp)
 643      08
 644 0341 488D3500 		leaq	.LC13(%rip), %rsi
 644      000000
 645 0348 64488B04 		movq	%fs:40, %rax
 645      25280000 
 645      00
 646 0351 48898424 		movq	%rax, 584(%rsp)
 646      48020000 
 647 0359 31C0     		xorl	%eax, %eax
 648              	.LEHB0:
 649 035b E8000000 		call	_ZSt16__ostream_insertIcSt11char_traitsIcEERSt13basic_ostreamIT_T0_ES6_PKS3_l@PLT
 649      00
 650 0360 4D8B6F60 		movq	96(%r15), %r13
 651 0364 4D3B6F68 		cmpq	104(%r15), %r13
 652 0368 7432     		je	.L57
 653 036a 488D5C24 		leaq	80(%rsp), %rbx
 653      50
 654 036f 4D8B7508 		movq	8(%r13), %r14
 655 0373 4D8B6510 		movq	16(%r13), %r12
 656 0377 488D4310 		leaq	16(%rbx), %rax
 657 037b 48894424 		movq	%rax, 80(%rsp)
 657      50
 658 0380 4C89F0   		movq	%r14, %rax
 659 0383 4C01E0   		addq	%r12, %rax
 660 0386 743D     		je	.L61
 661 0388 4D85F6   		testq	%r14, %r14
 662 038b 7538     		jne	.L61
 663 038d 0F1F00   		.p2align 4,,10
 664              		.p2align 3
 665              	.L59:
 666 0390 488D3D00 		leaq	.LC30(%rip), %rdi
 666      000000
 667 0397 E8000000 		call	_ZSt19__throw_logic_errorPKc@PLT
 667      00
 668              	.LEHE0:
 669              	.L57:
 670 039c 488B8424 		movq	584(%rsp), %rax
 670      48020000 
 671 03a4 64483304 		xorq	%fs:40, %rax
 671      25280000 
 671      00
 672 03ad 0F85CF0B 		jne	.L255
 672      0000
 673 03b3 4881C458 		addq	$600, %rsp
 673      020000
 674              		.cfi_remember_state
 675              		.cfi_def_cfa_offset 56
 676 03ba 5B       		popq	%rbx
 677              		.cfi_def_cfa_offset 48
 678 03bb 5D       		popq	%rbp
 679              		.cfi_def_cfa_offset 40
 680 03bc 415C     		popq	%r12
 681              		.cfi_def_cfa_offset 32
 682 03be 415D     		popq	%r13
 683              		.cfi_def_cfa_offset 24
 684 03c0 415E     		popq	%r14
 685              		.cfi_def_cfa_offset 16
 686 03c2 415F     		popq	%r15
 687              		.cfi_def_cfa_offset 8
 688 03c4 C3       		ret
 689              	.L61:
 690              		.cfi_restore_state
 691 03c5 488D4424 		leaq	112(%rsp), %rax
 691      70
 692 03ca 488DAC24 		leaq	208(%rsp), %rbp
 692      D0000000 
 693 03d2 48894424 		movq	%rax, 48(%rsp)
 693      30
 694 03d7 488D8424 		leaq	128(%rsp), %rax
 694      80000000 
 695 03df 48894424 		movq	%rax, 16(%rsp)
 695      10
 696 03e4 488D8424 		leaq	144(%rsp), %rax
 696      90000000 
 697 03ec 48894424 		movq	%rax, 56(%rsp)
 697      38
 698 03f1 488D8424 		leaq	160(%rsp), %rax
 698      A0000000 
 699 03f9 48894424 		movq	%rax, 32(%rsp)
 699      20
 700              	.L63:
 701 03fe 4983FC0F 		cmpq	$15, %r12
 702 0402 4C896424 		movq	%r12, 72(%rsp)
 702      48
 703 0407 0F87DB08 		ja	.L256
 703      0000
 704              	.L234:
 705 040d 4983FC01 		cmpq	$1, %r12
 706 0411 0F847109 		je	.L257
 706      0000
 707 0417 4D85E4   		testq	%r12, %r12
 708 041a 488D4310 		leaq	16(%rbx), %rax
 709 041e 0F85510A 		jne	.L258
 709      0000
 710              	.L66:
 711 0424 4C896424 		movq	%r12, 88(%rsp)
 711      58
 712 0429 42C60420 		movb	$0, (%rax,%r12)
 712      00
 713 042e 488D4510 		leaq	16(%rbp), %rax
 714 0432 31D2     		xorl	%edx, %edx
 715 0434 BE260000 		movl	$38, %esi
 715      00
 716 0439 4889DF   		movq	%rbx, %rdi
 717 043c 48898424 		movq	%rax, 208(%rsp)
 717      D0000000 
 718 0444 C7451026 		movl	$1886216486, 16(%rbp)
 718      616D70
 719 044b C640043B 		movb	$59, 4(%rax)
 720 044f 48C78424 		movq	$5, 216(%rsp)
 720      D8000000 
 720      05000000 
 721 045b C68424E5 		movb	$0, 229(%rsp)
 721      00000000 
 722              	.LEHB1:
 723 0463 E8000000 		call	_ZNKSt7__cxx1112basic_stringIcSt11char_traitsIcESaIcEE4findEcm@PLT
 723      00
 724 0468 4883F8FF 		cmpq	$-1, %rax
 725 046c 4989C4   		movq	%rax, %r12
 726 046f 0F848900 		je	.L67
 726      0000
 727 0475 488B4424 		movq	88(%rsp), %rax
 727      58
 728 047a BE010000 		movl	$1, %esi
 728      00
 729 047f 4C8B8424 		movq	216(%rsp), %r8
 729      D8000000 
 730 0487 488B8C24 		movq	208(%rsp), %rcx
 730      D0000000 
 731 048f 4889C2   		movq	%rax, %rdx
 732 0492 4C29E2   		subq	%r12, %rdx
 733 0495 480F45D6 		cmovne	%rsi, %rdx
 734 0499 4939C4   		cmpq	%rax, %r12
 735 049c 0F87DB09 		ja	.L68
 735      0000
 736 04a2 41BE0100 		movl	$1, %r14d
 736      0000
 737 04a8 EB2E     		jmp	.L70
 738 04aa 660F1F44 		.p2align 4,,10
 738      0000
 739              		.p2align 3
 740              	.L220:
 741 04b0 488B4424 		movq	88(%rsp), %rax
 741      58
 742 04b5 4C8B8424 		movq	216(%rsp), %r8
 742      D8000000 
 743 04bd 488B8C24 		movq	208(%rsp), %rcx
 743      D0000000 
 744 04c5 4889C2   		movq	%rax, %rdx
 745 04c8 4C29E2   		subq	%r12, %rdx
 746 04cb 490F45D6 		cmovne	%r14, %rdx
 747 04cf 4939C4   		cmpq	%rax, %r12
 748 04d2 0F87A509 		ja	.L68
 748      0000
 749              	.L70:
 750 04d8 4C89E6   		movq	%r12, %rsi
 751 04db 4889DF   		movq	%rbx, %rdi
 752 04de E8000000 		call	_ZNSt7__cxx1112basic_stringIcSt11char_traitsIcESaIcEE10_M_replaceEmmPKcm@PLT
 752      00
 753 04e3 498D5424 		leaq	1(%r12), %rdx
 753      01
 754 04e8 BE260000 		movl	$38, %esi
 754      00
 755 04ed 4889DF   		movq	%rbx, %rdi
 756 04f0 E8000000 		call	_ZNKSt7__cxx1112basic_stringIcSt11char_traitsIcESaIcEE4findEcm@PLT
 756      00
 757              	.LEHE1:
 758 04f5 4883F8FF 		cmpq	$-1, %rax
 759 04f9 4989C4   		movq	%rax, %r12
 760 04fc 75B2     		jne	.L220
 761              	.L67:
 762 04fe 488BBC24 		movq	208(%rsp), %rdi
 762      D0000000 
 763 0506 488D4510 		leaq	16(%rbp), %rax
 764 050a 4839C7   		cmpq	%rax, %rdi
 765 050d 7405     		je	.L72
 766 050f E8000000 		call	_ZdlPv@PLT
 766      00
 767              	.L72:
 768 0514 488D4510 		leaq	16(%rbp), %rax
 769 0518 31D2     		xorl	%edx, %edx
 770 051a BE3C0000 		movl	$60, %esi
 770      00
 771 051f 4889DF   		movq	%rbx, %rdi
 772 0522 48898424 		movq	%rax, 208(%rsp)
 772      D0000000 
 773 052a C7451026 		movl	$997485606, 16(%rbp)
 773      6C743B
 774 0531 48C78424 		movq	$4, 216(%rsp)
 774      D8000000 
 774      04000000 
 775 053d C68424E4 		movb	$0, 228(%rsp)
 775      00000000 
 776              	.LEHB2:
 777 0545 E8000000 		call	_ZNKSt7__cxx1112basic_stringIcSt11char_traitsIcESaIcEE4findEcm@PLT
 777      00
 778 054a 4883F8FF 		cmpq	$-1, %rax
 779 054e 4989C4   		movq	%rax, %r12
 780 0551 0F848700 		je	.L73
 780      0000
 781 0557 488B4424 		movq	88(%rsp), %rax
 781      58
 782 055c BE010000 		movl	$1, %esi
 782      00
 783 0561 4C8B8424 		movq	216(%rsp), %r8
 783      D8000000 
 784 0569 488B8C24 		movq	208(%rsp), %rcx
 784      D0000000 
 785 0571 4889C2   		movq	%rax, %rdx
 786 0574 4C29E2   		subq	%r12, %rdx
 787 0577 480F45D6 		cmovne	%rsi, %rdx
 788 057b 4C39E0   		cmpq	%r12, %rax
 789 057e 0F822F09 		jb	.L74
 789      0000
 790 0584 41BE0100 		movl	$1, %r14d
 790      0000
 791 058a EB2C     		jmp	.L76
 792 058c 0F1F4000 		.p2align 4,,10
 793              		.p2align 3
 794              	.L222:
 795 0590 488B4424 		movq	88(%rsp), %rax
 795      58
 796 0595 4C8B8424 		movq	216(%rsp), %r8
 796      D8000000 
 797 059d 488B8C24 		movq	208(%rsp), %rcx
 797      D0000000 
 798 05a5 4889C2   		movq	%rax, %rdx
 799 05a8 4C29E2   		subq	%r12, %rdx
 800 05ab 490F45D6 		cmovne	%r14, %rdx
 801 05af 4939C4   		cmpq	%rax, %r12
 802 05b2 0F87FB08 		ja	.L74
 802      0000
 803              	.L76:
 804 05b8 4C89E6   		movq	%r12, %rsi
 805 05bb 4889DF   		movq	%rbx, %rdi
 806 05be E8000000 		call	_ZNSt7__cxx1112basic_stringIcSt11char_traitsIcESaIcEE10_M_replaceEmmPKcm@PLT
 806      00
 807 05c3 498D5424 		leaq	1(%r12), %rdx
 807      01
 808 05c8 BE3C0000 		movl	$60, %esi
 808      00
 809 05cd 4889DF   		movq	%rbx, %rdi
 810 05d0 E8000000 		call	_ZNKSt7__cxx1112basic_stringIcSt11char_traitsIcESaIcEE4findEcm@PLT
 810      00
 811              	.LEHE2:
 812 05d5 4883F8FF 		cmpq	$-1, %rax
 813 05d9 4989C4   		movq	%rax, %r12
 814 05dc 75B2     		jne	.L222
 815              	.L73:
 816 05de 488BBC24 		movq	208(%rsp), %rdi
 816      D0000000 
 817 05e6 488D4510 		leaq	16(%rbp), %rax
 818 05ea 4839C7   		cmpq	%rax, %rdi
 819 05ed 7405     		je	.L78
 820 05ef E8000000 		call	_ZdlPv@PLT
 820      00
 821              	.L78:
 822 05f4 488D4510 		leaq	16(%rbp), %rax
 823 05f8 31D2     		xorl	%edx, %edx
 824 05fa BE3E0000 		movl	$62, %esi
 824      00
 825 05ff 4889DF   		movq	%rbx, %rdi
 826 0602 48898424 		movq	%rax, 208(%rsp)
 826      D0000000 
 827 060a C7451026 		movl	$997484326, 16(%rbp)
 827      67743B
 828 0611 48C78424 		movq	$4, 216(%rsp)
 828      D8000000 
 828      04000000 
 829 061d C68424E4 		movb	$0, 228(%rsp)
 829      00000000 
 830              	.LEHB3:
 831 0625 E8000000 		call	_ZNKSt7__cxx1112basic_stringIcSt11char_traitsIcESaIcEE4findEcm@PLT
 831      00
 832 062a 4883F8FF 		cmpq	$-1, %rax
 833 062e 4989C4   		movq	%rax, %r12
 834 0631 0F848700 		je	.L79
 834      0000
 835 0637 488B4424 		movq	88(%rsp), %rax
 835      58
 836 063c BE010000 		movl	$1, %esi
 836      00
 837 0641 4C8B8424 		movq	216(%rsp), %r8
 837      D8000000 
 838 0649 488B8C24 		movq	208(%rsp), %rcx
 838      D0000000 
 839 0651 4889C2   		movq	%rax, %rdx
 840 0654 4C29E2   		subq	%r12, %rdx
 841 0657 480F45D6 		cmovne	%rsi, %rdx
 842 065b 4939C4   		cmpq	%rax, %r12
 843 065e 0F876A08 		ja	.L80
 843      0000
 844 0664 41BE0100 		movl	$1, %r14d
 844      0000
 845 066a EB2C     		jmp	.L82
 846 066c 0F1F4000 		.p2align 4,,10
 847              		.p2align 3
 848              	.L224:
 849 0670 488B4424 		movq	88(%rsp), %rax
 849      58
 850 0675 4C8B8424 		movq	216(%rsp), %r8
 850      D8000000 
 851 067d 488B8C24 		movq	208(%rsp), %rcx
 851      D0000000 
 852 0685 4889C2   		movq	%rax, %rdx
 853 0688 4C29E2   		subq	%r12, %rdx
 854 068b 490F45D6 		cmovne	%r14, %rdx
 855 068f 4939C4   		cmpq	%rax, %r12
 856 0692 0F873608 		ja	.L80
 856      0000
 857              	.L82:
 858 0698 4C89E6   		movq	%r12, %rsi
 859 069b 4889DF   		movq	%rbx, %rdi
 860 069e E8000000 		call	_ZNSt7__cxx1112basic_stringIcSt11char_traitsIcESaIcEE10_M_replaceEmmPKcm@PLT
 860      00
 861 06a3 498D5424 		leaq	1(%r12), %rdx
 861      01
 862 06a8 BE3E0000 		movl	$62, %esi
 862      00
 863 06ad 4889DF   		movq	%rbx, %rdi
 864 06b0 E8000000 		call	_ZNKSt7__cxx1112basic_stringIcSt11char_traitsIcESaIcEE4findEcm@PLT
 864      00
 865              	.LEHE3:
 866 06b5 4883F8FF 		cmpq	$-1, %rax
 867 06b9 4989C4   		movq	%rax, %r12
 868 06bc 75B2     		jne	.L224
 869              	.L79:
 870 06be 488BBC24 		movq	208(%rsp), %rdi
 870      D0000000 
 871 06c6 488D4510 		leaq	16(%rbp), %rax
 872 06ca 4839C7   		cmpq	%rax, %rdi
 873 06cd 7405     		je	.L84
 874 06cf E8000000 		call	_ZdlPv@PLT
 874      00
 875              	.L84:
 876 06d4 488D4510 		leaq	16(%rbp), %rax
 877 06d8 B9733B00 		movl	$15219, %ecx
 877      00
 878 06dd 31D2     		xorl	%edx, %edx
 879 06df BE270000 		movl	$39, %esi
 879      00
 880 06e4 4889DF   		movq	%rbx, %rdi
 881 06e7 48898424 		movq	%rax, 208(%rsp)
 881      D0000000 
 882 06ef C7451026 		movl	$1869635878, 16(%rbp)
 882      61706F
 883 06f6 66894804 		movw	%cx, 4(%rax)
 884 06fa 48C78424 		movq	$6, 216(%rsp)
 884      D8000000 
 884      06000000 
 885 0706 C68424E6 		movb	$0, 230(%rsp)
 885      00000000 
 886              	.LEHB4:
 887 070e E8000000 		call	_ZNKSt7__cxx1112basic_stringIcSt11char_traitsIcESaIcEE4findEcm@PLT
 887      00
 888 0713 4883F8FF 		cmpq	$-1, %rax
 889 0717 4989C4   		movq	%rax, %r12
 890 071a 0F848600 		je	.L85
 890      0000
 891 0720 488B4424 		movq	88(%rsp), %rax
 891      58
 892 0725 BE010000 		movl	$1, %esi
 892      00
 893 072a 4C8B8424 		movq	216(%rsp), %r8
 893      D8000000 
 894 0732 488B8C24 		movq	208(%rsp), %rcx
 894      D0000000 
 895 073a 4889C2   		movq	%rax, %rdx
 896 073d 4C29E2   		subq	%r12, %rdx
 897 0740 480F45D6 		cmovne	%rsi, %rdx
 898 0744 4C39E0   		cmpq	%r12, %rax
 899 0747 0F829C07 		jb	.L86
 899      0000
 900 074d 41BE0100 		movl	$1, %r14d
 900      0000
 901 0753 EB2B     		jmp	.L88
 902              		.p2align 4,,10
 903 0755 0F1F00   		.p2align 3
 904              	.L226:
 905 0758 488B4424 		movq	88(%rsp), %rax
 905      58
 906 075d 4C8B8424 		movq	216(%rsp), %r8
 906      D8000000 
 907 0765 488B8C24 		movq	208(%rsp), %rcx
 907      D0000000 
 908 076d 4889C2   		movq	%rax, %rdx
 909 0770 4C29E2   		subq	%r12, %rdx
 910 0773 490F45D6 		cmovne	%r14, %rdx
 911 0777 4939C4   		cmpq	%rax, %r12
 912 077a 0F876907 		ja	.L86
 912      0000
 913              	.L88:
 914 0780 4C89E6   		movq	%r12, %rsi
 915 0783 4889DF   		movq	%rbx, %rdi
 916 0786 E8000000 		call	_ZNSt7__cxx1112basic_stringIcSt11char_traitsIcESaIcEE10_M_replaceEmmPKcm@PLT
 916      00
 917 078b 498D5424 		leaq	1(%r12), %rdx
 917      01
 918 0790 BE270000 		movl	$39, %esi
 918      00
 919 0795 4889DF   		movq	%rbx, %rdi
 920 0798 E8000000 		call	_ZNKSt7__cxx1112basic_stringIcSt11char_traitsIcESaIcEE4findEcm@PLT
 920      00
 921              	.LEHE4:
 922 079d 4883F8FF 		cmpq	$-1, %rax
 923 07a1 4989C4   		movq	%rax, %r12
 924 07a4 75B2     		jne	.L226
 925              	.L85:
 926 07a6 488BBC24 		movq	208(%rsp), %rdi
 926      D0000000 
 927 07ae 488D4510 		leaq	16(%rbp), %rax
 928 07b2 4839C7   		cmpq	%rax, %rdi
 929 07b5 7405     		je	.L90
 930 07b7 E8000000 		call	_ZdlPv@PLT
 930      00
 931              	.L90:
 932 07bc 488D4510 		leaq	16(%rbp), %rax
 933 07c0 BA743B00 		movl	$15220, %edx
 933      00
 934 07c5 BE220000 		movl	$34, %esi
 934      00
 935 07ca 4889DF   		movq	%rbx, %rdi
 936 07cd 48898424 		movq	%rax, 208(%rsp)
 936      D0000000 
 937 07d5 C7451026 		movl	$1869967654, 16(%rbp)
 937      71756F
 938 07dc 66895004 		movw	%dx, 4(%rax)
 939 07e0 31D2     		xorl	%edx, %edx
 940 07e2 48C78424 		movq	$6, 216(%rsp)
 940      D8000000 
 940      06000000 
 941 07ee C68424E6 		movb	$0, 230(%rsp)
 941      00000000 
 942              	.LEHB5:
 943 07f6 E8000000 		call	_ZNKSt7__cxx1112basic_stringIcSt11char_traitsIcESaIcEE4findEcm@PLT
 943      00
 944 07fb 4883F8FF 		cmpq	$-1, %rax
 945 07ff 4989C4   		movq	%rax, %r12
 946 0802 0F848600 		je	.L91
 946      0000
 947 0808 488B4424 		movq	88(%rsp), %rax
 947      58
 948 080d BE010000 		movl	$1, %esi
 948      00
 949 0812 4C8B8424 		movq	216(%rsp), %r8
 949      D8000000 
 950 081a 488B8C24 		movq	208(%rsp), %rcx
 950      D0000000 
 951 0822 4889C2   		movq	%rax, %rdx
 952 0825 4C29E2   		subq	%r12, %rdx
 953 0828 480F45D6 		cmovne	%rsi, %rdx
 954 082c 4C39E0   		cmpq	%r12, %rax
 955 082f 0F826306 		jb	.L92
 955      0000
 956 0835 41BE0100 		movl	$1, %r14d
 956      0000
 957 083b EB2B     		jmp	.L94
 958 083d 0F1F00   		.p2align 4,,10
 959              		.p2align 3
 960              	.L228:
 961 0840 488B4424 		movq	88(%rsp), %rax
 961      58
 962 0845 4C8B8424 		movq	216(%rsp), %r8
 962      D8000000 
 963 084d 488B8C24 		movq	208(%rsp), %rcx
 963      D0000000 
 964 0855 4889C2   		movq	%rax, %rdx
 965 0858 4C29E2   		subq	%r12, %rdx
 966 085b 490F45D6 		cmovne	%r14, %rdx
 967 085f 4939C4   		cmpq	%rax, %r12
 968 0862 0F873006 		ja	.L92
 968      0000
 969              	.L94:
 970 0868 4C89E6   		movq	%r12, %rsi
 971 086b 4889DF   		movq	%rbx, %rdi
 972 086e E8000000 		call	_ZNSt7__cxx1112basic_stringIcSt11char_traitsIcESaIcEE10_M_replaceEmmPKcm@PLT
 972      00
 973 0873 498D5424 		leaq	1(%r12), %rdx
 973      01
 974 0878 BE220000 		movl	$34, %esi
 974      00
 975 087d 4889DF   		movq	%rbx, %rdi
 976 0880 E8000000 		call	_ZNKSt7__cxx1112basic_stringIcSt11char_traitsIcESaIcEE4findEcm@PLT
 976      00
 977              	.LEHE5:
 978 0885 4883F8FF 		cmpq	$-1, %rax
 979 0889 4989C4   		movq	%rax, %r12
 980 088c 75B2     		jne	.L228
 981              	.L91:
 982 088e 488BBC24 		movq	208(%rsp), %rdi
 982      D0000000 
 983 0896 488D4510 		leaq	16(%rbp), %rax
 984 089a 4839C7   		cmpq	%rax, %rdi
 985 089d 7405     		je	.L96
 986 089f E8000000 		call	_ZdlPv@PLT
 986      00
 987              	.L96:
 988 08a4 418B4500 		movl	0(%r13), %eax
 989 08a8 488D7D70 		leaq	112(%rbp), %rdi
 990 08ac 89442418 		movl	%eax, 24(%rsp)
 991 08b0 E8000000 		call	_ZNSt8ios_baseC2Ev@PLT
 991      00
 992 08b5 488B0500 		movq	_ZTVSt9basic_iosIcSt11char_traitsIcEE@GOTPCREL(%rip), %rax
 992      000000
 993 08bc C6842420 		movb	$0, 544(%rsp)
 993      02000000 
 994 08c4 4889EF   		movq	%rbp, %rdi
 995 08c7 48C78424 		movq	$0, 536(%rsp)
 995      18020000 
 995      00000000 
 996 08d3 C6842421 		movb	$0, 545(%rsp)
 996      02000000 
 997 08db 31F6     		xorl	%esi, %esi
 998 08dd 48C78424 		movq	$0, 552(%rsp)
 998      28020000 
 998      00000000 
 999 08e9 48C78424 		movq	$0, 560(%rsp)
 999      30020000 
 999      00000000 
 1000 08f5 4883C010 		addq	$16, %rax
 1001 08f9 48C78424 		movq	$0, 568(%rsp)
 1001      38020000 
 1001      00000000 
 1002 0905 48C78424 		movq	$0, 576(%rsp)
 1002      40020000 
 1002      00000000 
 1003 0911 48898424 		movq	%rax, 320(%rsp)
 1003      40010000 
 1004 0919 488B0500 		movq	_ZTTNSt7__cxx1119basic_ostringstreamIcSt11char_traitsIcESaIcEEE@GOTPCREL(%rip), %rax
 1004      000000
 1005 0920 4C8B7008 		movq	8(%rax), %r14
 1006 0924 488B4010 		movq	16(%rax), %rax
 1007 0928 49037EE8 		addq	-24(%r14), %rdi
 1008 092c 4C89B424 		movq	%r14, 208(%rsp)
 1008      D0000000 
 1009 0934 48894424 		movq	%rax, 40(%rsp)
 1009      28
 1010 0939 488907   		movq	%rax, (%rdi)
 1011              	.LEHB6:
 1012 093c E8000000 		call	_ZNSt9basic_iosIcSt11char_traitsIcEE4initEPSt15basic_streambufIcS1_E@PLT
 1012      00
 1013              	.LEHE6:
 1014 0941 488B0500 		movq	_ZTVNSt7__cxx1119basic_ostringstreamIcSt11char_traitsIcESaIcEEE@GOTPCREL(%rip), %rax
 1014      000000
 1015 0948 488D7D40 		leaq	64(%rbp), %rdi
 1016 094c 48C78424 		movq	$0, 224(%rsp)
 1016      E0000000 
 1016      00000000 
 1017 0958 48C78424 		movq	$0, 232(%rsp)
 1017      E8000000 
 1017      00000000 
 1018 0964 48C78424 		movq	$0, 240(%rsp)
 1018      F0000000 
 1018      00000000 
 1019 0970 48C78424 		movq	$0, 248(%rsp)
 1019      F8000000 
 1019      00000000 
 1020 097c 48C78424 		movq	$0, 256(%rsp)
 1020      00010000 
 1020      00000000 
 1021 0988 4883C018 		addq	$24, %rax
 1022 098c 48C78424 		movq	$0, 264(%rsp)
 1022      08010000 
 1022      00000000 
 1023 0998 48898424 		movq	%rax, 208(%rsp)
 1023      D0000000 
 1024 09a0 488B0500 		movq	_ZTVNSt7__cxx1119basic_ostringstreamIcSt11char_traitsIcESaIcEEE@GOTPCREL(%rip), %rax
 1024      000000
 1025 09a7 4883C040 		addq	$64, %rax
 1026 09ab 48898424 		movq	%rax, 320(%rsp)
 1026      40010000 
 1027 09b3 488B0500 		movq	_ZTVSt15basic_streambufIcSt11char_traitsIcEE@GOTPCREL(%rip), %rax
 1027      000000
 1028 09ba 4883C010 		addq	$16, %rax
 1029 09be 48898424 		movq	%rax, 216(%rsp)
 1029      D8000000 
 1030 09c6 E8000000 		call	_ZNSt6localeC1Ev@PLT
 1030      00
 1031 09cb 488B0500 		movq	_ZTVNSt7__cxx1115basic_stringbufIcSt11char_traitsIcESaIcEEE@GOTPCREL(%rip), %rax
 1031      000000
 1032 09d2 488D7508 		leaq	8(%rbp), %rsi
 1033 09d6 488D7D70 		leaq	112(%rbp), %rdi
 1034 09da C7842418 		movl	$16, 280(%rsp)
 1034      01000010 
 1034      000000
 1035 09e5 48C78424 		movq	$0, 296(%rsp)
 1035      28010000 
 1035      00000000 
 1036 09f1 C6842430 		movb	$0, 304(%rsp)
 1036      01000000 
 1037 09f9 4883C010 		addq	$16, %rax
 1038 09fd 48898424 		movq	%rax, 216(%rsp)
 1038      D8000000 
 1039 0a05 488D4560 		leaq	96(%rbp), %rax
 1040 0a09 48898424 		movq	%rax, 288(%rsp)
 1040      20010000 
 1041              	.LEHB7:
 1042 0a11 E8000000 		call	_ZNSt9basic_iosIcSt11char_traitsIcEE4initEPSt15basic_streambufIcS1_E@PLT
 1042      00
 1043              	.LEHE7:
 1044 0a16 498B5748 		movq	72(%r15), %rdx
 1045 0a1a 498B7740 		movq	64(%r15), %rsi
 1046 0a1e 4889EF   		movq	%rbp, %rdi
 1047              	.LEHB8:
 1048 0a21 E8000000 		call	_ZSt16__ostream_insertIcSt11char_traitsIcEERSt13basic_ostreamIT_T0_ES6_PKS3_l@PLT
 1048      00
 1049 0a26 488D3500 		leaq	.LC26(%rip), %rsi
 1049      000000
 1050 0a2d BA010000 		movl	$1, %edx
 1050      00
 1051 0a32 4889C7   		movq	%rax, %rdi
 1052 0a35 4989C4   		movq	%rax, %r12
 1053 0a38 E8000000 		call	_ZSt16__ostream_insertIcSt11char_traitsIcEERSt13basic_ostreamIT_T0_ES6_PKS3_l@PLT
 1053      00
 1054 0a3d 8B742418 		movl	24(%rsp), %esi
 1055 0a41 4C89E7   		movq	%r12, %rdi
 1056 0a44 E8000000 		call	_ZNSolsEi@PLT
 1056      00
 1057 0a49 488D3500 		leaq	.LC27(%rip), %rsi
 1057      000000
 1058 0a50 BA040000 		movl	$4, %edx
 1058      00
 1059 0a55 4889C7   		movq	%rax, %rdi
 1060 0a58 4989C4   		movq	%rax, %r12
 1061 0a5b E8000000 		call	_ZSt16__ostream_insertIcSt11char_traitsIcEERSt13basic_ostreamIT_T0_ES6_PKS3_l@PLT
 1061      00
 1062 0a60 488B5424 		movq	88(%rsp), %rdx
 1062      58
 1063 0a65 488B7424 		movq	80(%rsp), %rsi
 1063      50
 1064 0a6a 4C89E7   		movq	%r12, %rdi
 1065 0a6d E8000000 		call	_ZSt16__ostream_insertIcSt11char_traitsIcEERSt13basic_ostreamIT_T0_ES6_PKS3_l@PLT
 1065      00
 1066              	.LEHE8:
 1067 0a72 488B4424 		movq	16(%rsp), %rax
 1067      10
 1068 0a77 48C74424 		movq	$0, 120(%rsp)
 1068      78000000 
 1068      00
 1069 0a80 C6842480 		movb	$0, 128(%rsp)
 1069      00000000 
 1070 0a88 48894424 		movq	%rax, 112(%rsp)
 1070      70
 1071 0a8d 488B8424 		movq	256(%rsp), %rax
 1071      00010000 
 1072 0a95 4885C0   		testq	%rax, %rax
 1073 0a98 0F84BF03 		je	.L115
 1073      0000
 1074 0a9e 4C8BA424 		movq	240(%rsp), %r12
 1074      F0000000 
 1075 0aa6 4C39E0   		cmpq	%r12, %rax
 1076 0aa9 7635     		jbe	.L116
 1077 0aab 488BB424 		movq	248(%rsp), %rsi
 1077      F8000000 
 1078 0ab3 4C8DB424 		leaq	176(%rsp), %r14
 1078      B0000000 
 1079 0abb 498D5610 		leaq	16(%r14), %rdx
 1080 0abf 4885F6   		testq	%rsi, %rsi
 1081 0ac2 48897424 		movq	%rsi, 24(%rsp)
 1081      18
 1082 0ac7 48899424 		movq	%rdx, 176(%rsp)
 1082      B0000000 
 1083 0acf 7542     		jne	.L259
 1084 0ad1 488D3D00 		leaq	.LC30(%rip), %rdi
 1084      000000
 1085              	.LEHB9:
 1086 0ad8 E8000000 		call	_ZSt19__throw_logic_errorPKc@PLT
 1086      00
 1087 0add 0F1F00   		.p2align 4,,10
 1088              		.p2align 3
 1089              	.L116:
 1090 0ae0 4C8BB424 		movq	248(%rsp), %r14
 1090      F8000000 
 1091 0ae8 488B4424 		movq	32(%rsp), %rax
 1091      20
 1092 0aed 4D85F6   		testq	%r14, %r14
 1093 0af0 48898424 		movq	%rax, 144(%rsp)
 1093      90000000 
 1094 0af8 0F852502 		jne	.L126
 1094      0000
 1095 0afe 4D85E4   		testq	%r12, %r12
 1096 0b01 0F841C02 		je	.L126
 1096      0000
 1097 0b07 488D3D00 		leaq	.LC30(%rip), %rdi
 1097      000000
 1098 0b0e E8000000 		call	_ZSt19__throw_logic_errorPKc@PLT
 1098      00
 1099              	.LEHE9:
 1100              	.L259:
 1101 0b13 482B4424 		subq	24(%rsp), %rax
 1101      18
 1102 0b18 4883F80F 		cmpq	$15, %rax
 1103 0b1c 4989C4   		movq	%rax, %r12
 1104 0b1f 48894424 		movq	%rax, 64(%rsp)
 1104      40
 1105 0b24 0F877602 		ja	.L260
 1105      0000
 1106 0b2a 4983FC01 		cmpq	$1, %r12
 1107 0b2e 0F841703 		je	.L261
 1107      0000
 1108 0b34 4D85E4   		testq	%r12, %r12
 1109 0b37 4889D0   		movq	%rdx, %rax
 1110 0b3a 0F858902 		jne	.L119
 1110      0000
 1111              	.L121:
 1112 0b40 488B7C24 		movq	48(%rsp), %rdi
 1112      30
 1113 0b45 4C89A424 		movq	%r12, 184(%rsp)
 1113      B8000000 
 1114 0b4d 4C89F6   		movq	%r14, %rsi
 1115 0b50 42C60420 		movb	$0, (%rax,%r12)
 1115      00
 1116              	.LEHB10:
 1117 0b55 E8000000 		call	_ZNSt7__cxx1112basic_stringIcSt11char_traitsIcESaIcEE9_M_assignERKS4_@PLT
 1117      00
 1118              	.LEHE10:
 1119 0b5a 488BBC24 		movq	176(%rsp), %rdi
 1119      B0000000 
 1120 0b62 4983C610 		addq	$16, %r14
 1121 0b66 4C39F7   		cmpq	%r14, %rdi
 1122 0b69 7405     		je	.L130
 1123              	.L240:
 1124 0b6b E8000000 		call	_ZdlPv@PLT
 1124      00
 1125              	.L130:
 1126 0b70 488B0500 		movq	_ZTTNSt7__cxx1119basic_ostringstreamIcSt11char_traitsIcESaIcEEE@GOTPCREL(%rip), %rax
 1126      000000
 1127 0b77 4C8B7008 		movq	8(%rax), %r14
 1128 0b7b 4C8B6010 		movq	16(%rax), %r12
 1129              	.L123:
 1130 0b7f 488B0500 		movq	_ZTVNSt7__cxx1119basic_ostringstreamIcSt11char_traitsIcESaIcEEE@GOTPCREL(%rip), %rax
 1130      000000
 1131 0b86 488BBC24 		movq	288(%rsp), %rdi
 1131      20010000 
 1132 0b8e 4883C018 		addq	$24, %rax
 1133 0b92 48898424 		movq	%rax, 208(%rsp)
 1133      D0000000 
 1134 0b9a 488B0500 		movq	_ZTVNSt7__cxx1119basic_ostringstreamIcSt11char_traitsIcESaIcEEE@GOTPCREL(%rip), %rax
 1134      000000
 1135 0ba1 4883C040 		addq	$64, %rax
 1136 0ba5 48898424 		movq	%rax, 320(%rsp)
 1136      40010000 
 1137 0bad 488B0500 		movq	_ZTVNSt7__cxx1115basic_stringbufIcSt11char_traitsIcESaIcEEE@GOTPCREL(%rip), %rax
 1137      000000
 1138 0bb4 4883C010 		addq	$16, %rax
 1139 0bb8 48898424 		movq	%rax, 216(%rsp)
 1139      D8000000 
 1140 0bc0 488D4560 		leaq	96(%rbp), %rax
 1141 0bc4 4839C7   		cmpq	%rax, %rdi
 1142 0bc7 7405     		je	.L138
 1143 0bc9 E8000000 		call	_ZdlPv@PLT
 1143      00
 1144              	.L138:
 1145 0bce 488B0500 		movq	_ZTVSt15basic_streambufIcSt11char_traitsIcEE@GOTPCREL(%rip), %rax
 1145      000000
 1146 0bd5 488D7D40 		leaq	64(%rbp), %rdi
 1147 0bd9 4883C010 		addq	$16, %rax
 1148 0bdd 48898424 		movq	%rax, 216(%rsp)
 1148      D8000000 
 1149 0be5 E8000000 		call	_ZNSt6localeD1Ev@PLT
 1149      00
 1150 0bea 498B46E8 		movq	-24(%r14), %rax
 1151 0bee 488D7D70 		leaq	112(%rbp), %rdi
 1152 0bf2 4C89A404 		movq	%r12, 208(%rsp,%rax)
 1152      D0000000 
 1153 0bfa 488B0500 		movq	_ZTVSt9basic_iosIcSt11char_traitsIcEE@GOTPCREL(%rip), %rax
 1153      000000
 1154 0c01 4883C010 		addq	$16, %rax
 1155 0c05 48898424 		movq	%rax, 320(%rsp)
 1155      40010000 
 1156              	.LEHB11:
 1157 0c0d E8000000 		call	_ZNSt8ios_baseD2Ev@PLT
 1157      00
 1158              	.LEHE11:
 1159 0c12 488B7C24 		movq	8(%rsp), %rdi
 1159      08
 1160 0c17 488D3500 		leaq	.LC28(%rip), %rsi
 1160      000000
 1161 0c1e BA080000 		movl	$8, %edx
 1161      00
 1162              	.LEHB12:
 1163 0c23 E8000000 		call	_ZSt16__ostream_insertIcSt11char_traitsIcEERSt13basic_ostreamIT_T0_ES6_PKS3_l@PLT
 1163      00
 1164 0c28 4C8B7424 		movq	8(%rsp), %r14
 1164      08
 1165 0c2d 488D3500 		leaq	.LC29(%rip), %rsi
 1165      000000
 1166 0c34 BA0A0000 		movl	$10, %edx
 1166      00
 1167 0c39 4C89F7   		movq	%r14, %rdi
 1168 0c3c E8000000 		call	_ZSt16__ostream_insertIcSt11char_traitsIcEERSt13basic_ostreamIT_T0_ES6_PKS3_l@PLT
 1168      00
 1169 0c41 488B5424 		movq	120(%rsp), %rdx
 1169      78
 1170 0c46 488B7424 		movq	112(%rsp), %rsi
 1170      70
 1171 0c4b 4C89F7   		movq	%r14, %rdi
 1172 0c4e E8000000 		call	_ZSt16__ostream_insertIcSt11char_traitsIcEERSt13basic_ostreamIT_T0_ES6_PKS3_l@PLT
 1172      00
 1173 0c53 488D3500 		leaq	.LC5(%rip), %rsi
 1173      000000
 1174 0c5a BA010000 		movl	$1, %edx
 1174      00
 1175 0c5f 4889C7   		movq	%rax, %rdi
 1176 0c62 4989C4   		movq	%rax, %r12
 1177 0c65 E8000000 		call	_ZSt16__ostream_insertIcSt11char_traitsIcEERSt13basic_ostreamIT_T0_ES6_PKS3_l@PLT
 1177      00
 1178 0c6a 488D3500 		leaq	.LC22(%rip), %rsi
 1178      000000
 1179 0c71 BA020000 		movl	$2, %edx
 1179      00
 1180 0c76 4C89E7   		movq	%r12, %rdi
 1181 0c79 E8000000 		call	_ZSt16__ostream_insertIcSt11char_traitsIcEERSt13basic_ostreamIT_T0_ES6_PKS3_l@PLT
 1181      00
 1182              	.LEHE12:
 1183 0c7e 488B7C24 		movq	112(%rsp), %rdi
 1183      70
 1184 0c83 483B7C24 		cmpq	16(%rsp), %rdi
 1184      10
 1185 0c88 7405     		je	.L140
 1186 0c8a E8000000 		call	_ZdlPv@PLT
 1186      00
 1187              	.L140:
 1188 0c8f 488B7C24 		movq	80(%rsp), %rdi
 1188      50
 1189 0c94 488D4310 		leaq	16(%rbx), %rax
 1190 0c98 4839C7   		cmpq	%rax, %rdi
 1191 0c9b 7405     		je	.L141
 1192 0c9d E8000000 		call	_ZdlPv@PLT
 1192      00
 1193              	.L141:
 1194 0ca2 4983C528 		addq	$40, %r13
 1195 0ca6 4D396F68 		cmpq	%r13, 104(%r15)
 1196 0caa 0F84ECF6 		je	.L57
 1196      FFFF
 1197 0cb0 488D4310 		leaq	16(%rbx), %rax
 1198 0cb4 4D8B6510 		movq	16(%r13), %r12
 1199 0cb8 48894424 		movq	%rax, 80(%rsp)
 1199      50
 1200 0cbd 4D8B7508 		movq	8(%r13), %r14
 1201 0cc1 4C89F0   		movq	%r14, %rax
 1202 0cc4 4C01E0   		addq	%r12, %rax
 1203 0cc7 0F8431F7 		je	.L63
 1203      FFFF
 1204 0ccd 4D85F6   		testq	%r14, %r14
 1205 0cd0 0F84BAF6 		je	.L59
 1205      FFFF
 1206 0cd6 4983FC0F 		cmpq	$15, %r12
 1207 0cda 4C896424 		movq	%r12, 72(%rsp)
 1207      48
 1208 0cdf 0F8628F7 		jbe	.L234
 1208      FFFF
 1209              		.p2align 4,,10
 1210 0ce5 0F1F00   		.p2align 3
 1211              	.L256:
 1212 0ce8 488D7424 		leaq	72(%rsp), %rsi
 1212      48
 1213 0ced 4889DF   		movq	%rbx, %rdi
 1214 0cf0 31D2     		xorl	%edx, %edx
 1215              	.LEHB13:
 1216 0cf2 E8000000 		call	_ZNSt7__cxx1112basic_stringIcSt11char_traitsIcESaIcEE9_M_createERmm@PLT
 1216      00
 1217              	.LEHE13:
 1218 0cf7 4889C7   		movq	%rax, %rdi
 1219 0cfa 48894424 		movq	%rax, 80(%rsp)
 1219      50
 1220 0cff 488B4424 		movq	72(%rsp), %rax
 1220      48
 1221 0d04 48894424 		movq	%rax, 96(%rsp)
 1221      60
 1222              	.L64:
 1223 0d09 4C89E2   		movq	%r12, %rdx
 1224 0d0c 4C89F6   		movq	%r14, %rsi
 1225 0d0f E8000000 		call	memcpy@PLT
 1225      00
 1226 0d14 4C8B6424 		movq	72(%rsp), %r12
 1226      48
 1227 0d19 488B4424 		movq	80(%rsp), %rax
 1227      50
 1228 0d1e E901F7FF 		jmp	.L66
 1228      FF
 1229              	.L126:
 1230 0d23 4D29F4   		subq	%r14, %r12
 1231 0d26 4983FC0F 		cmpq	$15, %r12
 1232 0d2a 4C896424 		movq	%r12, 72(%rsp)
 1232      48
 1233 0d2f 0F87BB00 		ja	.L262
 1233      0000
 1234 0d35 4983FC01 		cmpq	$1, %r12
 1235 0d39 0F84F700 		je	.L263
 1235      0000
 1236 0d3f 4D85E4   		testq	%r12, %r12
 1237 0d42 488B4424 		movq	32(%rsp), %rax
 1237      20
 1238 0d47 0F85C900 		jne	.L127
 1238      0000
 1239              	.L129:
 1240 0d4d 488B7424 		movq	56(%rsp), %rsi
 1240      38
 1241 0d52 488B7C24 		movq	48(%rsp), %rdi
 1241      30
 1242 0d57 4C89A424 		movq	%r12, 152(%rsp)
 1242      98000000 
 1243 0d5f 42C60420 		movb	$0, (%rax,%r12)
 1243      00
 1244              	.LEHB14:
 1245 0d64 E8000000 		call	_ZNSt7__cxx1112basic_stringIcSt11char_traitsIcESaIcEE9_M_assignERKS4_@PLT
 1245      00
 1246              	.LEHE14:
 1247 0d69 488BBC24 		movq	144(%rsp), %rdi
 1247      90000000 
 1248 0d71 483B7C24 		cmpq	32(%rsp), %rdi
 1248      20
 1249 0d76 0F85EFFD 		jne	.L240
 1249      FFFF
 1250 0d7c E9EFFDFF 		jmp	.L130
 1250      FF
 1251              		.p2align 4,,10
 1252 0d81 0F1F8000 		.p2align 3
 1252      000000
 1253              	.L257:
 1254 0d88 410FB606 		movzbl	(%r14), %eax
 1255 0d8c 88442460 		movb	%al, 96(%rsp)
 1256 0d90 488B4424 		movq	80(%rsp), %rax
 1256      50
 1257 0d95 E98AF6FF 		jmp	.L66
 1257      FF
 1258 0d9a 660F1F44 		.p2align 4,,10
 1258      0000
 1259              		.p2align 3
 1260              	.L260:
 1261 0da0 488D7424 		leaq	64(%rsp), %rsi
 1261      40
 1262 0da5 31D2     		xorl	%edx, %edx
 1263 0da7 4C89F7   		movq	%r14, %rdi
 1264              	.LEHB15:
 1265 0daa E8000000 		call	_ZNSt7__cxx1112basic_stringIcSt11char_traitsIcESaIcEE9_M_createERmm@PLT
 1265      00
 1266 0daf 488B5424 		movq	64(%rsp), %rdx
 1266      40
 1267 0db4 488B7424 		movq	24(%rsp), %rsi
 1267      18
 1268 0db9 48898424 		movq	%rax, 176(%rsp)
 1268      B0000000 
 1269 0dc1 48899424 		movq	%rdx, 192(%rsp)
 1269      C0000000 
 1270              	.L119:
 1271 0dc9 4C89E2   		movq	%r12, %rdx
 1272 0dcc 4889C7   		movq	%rax, %rdi
 1273 0dcf E8000000 		call	memcpy@PLT
 1273      00
 1274 0dd4 4C8B6424 		movq	64(%rsp), %r12
 1274      40
 1275 0dd9 488B8424 		movq	176(%rsp), %rax
 1275      B0000000 
 1276 0de1 E95AFDFF 		jmp	.L121
 1276      FF
 1277 0de6 662E0F1F 		.p2align 4,,10
 1277      84000000 
 1277      0000
 1278              		.p2align 3
 1279              	.L262:
 1280 0df0 488B7C24 		movq	56(%rsp), %rdi
 1280      38
 1281 0df5 488D7424 		leaq	72(%rsp), %rsi
 1281      48
 1282 0dfa 31D2     		xorl	%edx, %edx
 1283 0dfc E8000000 		call	_ZNSt7__cxx1112basic_stringIcSt11char_traitsIcESaIcEE9_M_createERmm@PLT
 1283      00
 1284 0e01 488B5424 		movq	72(%rsp), %rdx
 1284      48
 1285 0e06 48898424 		movq	%rax, 144(%rsp)
 1285      90000000 
 1286 0e0e 48899424 		movq	%rdx, 160(%rsp)
 1286      A0000000 
 1287              	.L127:
 1288 0e16 4C89E2   		movq	%r12, %rdx
 1289 0e19 4C89F6   		movq	%r14, %rsi
 1290 0e1c 4889C7   		movq	%rax, %rdi
 1291 0e1f E8000000 		call	memcpy@PLT
 1291      00
 1292 0e24 4C8B6424 		movq	72(%rsp), %r12
 1292      48
 1293 0e29 488B8424 		movq	144(%rsp), %rax
 1293      90000000 
 1294 0e31 E917FFFF 		jmp	.L129
 1294      FF
 1295              	.L263:
 1296 0e36 410FB606 		movzbl	(%r14), %eax
 1297 0e3a 888424A0 		movb	%al, 160(%rsp)
 1297      000000
 1298 0e41 488B4424 		movq	32(%rsp), %rax
 1298      20
 1299 0e46 E902FFFF 		jmp	.L129
 1299      FF
 1300              	.L261:
 1301 0e4b 0FB606   		movzbl	(%rsi), %eax
 1302 0e4e 888424C0 		movb	%al, 192(%rsp)
 1302      000000
 1303 0e55 4889D0   		movq	%rdx, %rax
 1304 0e58 E9E3FCFF 		jmp	.L121
 1304      FF
 1305              	.L115:
 1306 0e5d 488B7C24 		movq	48(%rsp), %rdi
 1306      30
 1307 0e62 488D7550 		leaq	80(%rbp), %rsi
 1308 0e66 E8000000 		call	_ZNSt7__cxx1112basic_stringIcSt11char_traitsIcESaIcEE9_M_assignERKS4_@PLT
 1308      00
 1309              	.LEHE15:
 1310 0e6b 4C8B6424 		movq	40(%rsp), %r12
 1310      28
 1311 0e70 E90AFDFF 		jmp	.L123
 1311      FF
 1312              	.L258:
 1313 0e75 4889C7   		movq	%rax, %rdi
 1314 0e78 E98CFEFF 		jmp	.L64
 1314      FF
 1315              	.L68:
 1316 0e7d 488D3500 		leaq	.LC24(%rip), %rsi
 1316      000000
 1317 0e84 488D3D00 		leaq	.LC25(%rip), %rdi
 1317      000000
 1318 0e8b 4889C1   		movq	%rax, %rcx
 1319 0e8e 4C89E2   		movq	%r12, %rdx
 1320 0e91 31C0     		xorl	%eax, %eax
 1321              	.LEHB16:
 1322 0e93 E8000000 		call	_ZSt24__throw_out_of_range_fmtPKcz@PLT
 1322      00
 1323              	.LEHE16:
 1324              	.L92:
 1325 0e98 488D3500 		leaq	.LC24(%rip), %rsi
 1325      000000
 1326 0e9f 488D3D00 		leaq	.LC25(%rip), %rdi
 1326      000000
 1327 0ea6 4889C1   		movq	%rax, %rcx
 1328 0ea9 4C89E2   		movq	%r12, %rdx
 1329 0eac 31C0     		xorl	%eax, %eax
 1330              	.LEHB17:
 1331 0eae E8000000 		call	_ZSt24__throw_out_of_range_fmtPKcz@PLT
 1331      00
 1332              	.LEHE17:
 1333              	.L74:
 1334 0eb3 488D3500 		leaq	.LC24(%rip), %rsi
 1334      000000
 1335 0eba 488D3D00 		leaq	.LC25(%rip), %rdi
 1335      000000
 1336 0ec1 4889C1   		movq	%rax, %rcx
 1337 0ec4 4C89E2   		movq	%r12, %rdx
 1338 0ec7 31C0     		xorl	%eax, %eax
 1339              	.LEHB18:
 1340 0ec9 E8000000 		call	_ZSt24__throw_out_of_range_fmtPKcz@PLT
 1340      00
 1341              	.LEHE18:
 1342              	.L80:
 1343 0ece 488D3500 		leaq	.LC24(%rip), %rsi
 1343      000000
 1344 0ed5 488D3D00 		leaq	.LC25(%rip), %rdi
 1344      000000
 1345 0edc 4889C1   		movq	%rax, %rcx
 1346 0edf 4C89E2   		movq	%r12, %rdx
 1347 0ee2 31C0     		xorl	%eax, %eax
 1348              	.LEHB19:
 1349 0ee4 E8000000 		call	_ZSt24__throw_out_of_range_fmtPKcz@PLT
 1349      00
 1350              	.LEHE19:
 1351              	.L86:
 1352 0ee9 488D3500 		leaq	.LC24(%rip), %rsi
 1352      000000
 1353 0ef0 488D3D00 		leaq	.LC25(%rip), %rdi
 1353      000000
 1354 0ef7 4889C1   		movq	%rax, %rcx
 1355 0efa 4C89E2   		movq	%r12, %rdx
 1356 0efd 31C0     		xorl	%eax, %eax
 1357              	.LEHB20:
 1358 0eff E8000000 		call	_ZSt24__throw_out_of_range_fmtPKcz@PLT
 1358      00
 1359              	.LEHE20:
 1360              		.p2align 4,,10
 1361 0f04 0F1F4000 		.p2align 3
 1362              	.L168:
 1363 0f08 4989C4   		movq	%rax, %r12
 1364              	.L133:
 1365 0f0b 488B4424 		movq	48(%rsp), %rax
 1365      30
 1366 0f10 488B7C24 		movq	112(%rsp), %rdi
 1366      70
 1367 0f15 4883C010 		addq	$16, %rax
 1368 0f19 4839C7   		cmpq	%rax, %rdi
 1369 0f1c 7405     		je	.L137
 1370 0f1e E8000000 		call	_ZdlPv@PLT
 1370      00
 1371              	.L137:
 1372 0f23 4889EF   		movq	%rbp, %rdi
 1373 0f26 4C89E5   		movq	%r12, %rbp
 1374 0f29 E8000000 		call	_ZNSt7__cxx1119basic_ostringstreamIcSt11char_traitsIcESaIcEED1Ev@PLT
 1374      00
 1375              	.L114:
 1376 0f2e 488B7C24 		movq	80(%rsp), %rdi
 1376      50
 1377 0f33 4883C310 		addq	$16, %rbx
 1378 0f37 4839DF   		cmpq	%rbx, %rdi
 1379 0f3a 7405     		je	.L146
 1380              	.L241:
 1381 0f3c E8000000 		call	_ZdlPv@PLT
 1381      00
 1382              	.L146:
 1383 0f41 4889EF   		movq	%rbp, %rdi
 1384              	.LEHB21:
 1385 0f44 E8000000 		call	_Unwind_Resume@PLT
 1385      00
 1386              	.LEHE21:
 1387              	.L161:
 1388              	.L243:
 1389 0f49 488BBC24 		movq	208(%rsp), %rdi
 1389      D0000000 
 1390 0f51 4883C510 		addq	$16, %rbp
 1391 0f55 4989C4   		movq	%rax, %r12
 1392 0f58 4839EF   		cmpq	%rbp, %rdi
 1393 0f5b 7405     		je	.L108
 1394 0f5d E8000000 		call	_ZdlPv@PLT
 1394      00
 1395              	.L108:
 1396 0f62 488B7C24 		movq	80(%rsp), %rdi
 1396      50
 1397 0f67 4883C310 		addq	$16, %rbx
 1398 0f6b 4C89E5   		movq	%r12, %rbp
 1399 0f6e 4839DF   		cmpq	%rbx, %rdi
 1400 0f71 75C9     		jne	.L241
 1401 0f73 EBCC     		jmp	.L146
 1402              	.L162:
 1403 0f75 EBD2     		jmp	.L243
 1404              	.L163:
 1405 0f77 EBD0     		jmp	.L243
 1406              	.L164:
 1407 0f79 EBCE     		jmp	.L243
 1408              	.L165:
 1409 0f7b EBCC     		jmp	.L243
 1410              	.L160:
 1411 0f7d 4989C4   		movq	%rax, %r12
 1412 0f80 EBA1     		jmp	.L137
 1413              	.L255:
 1414 0f82 E8000000 		call	__stack_chk_fail@PLT
 1414      00
 1415              	.L167:
 1416 0f87 4989C4   		movq	%rax, %r12
 1417 0f8a 488B0500 		movq	_ZTVNSt7__cxx1115basic_stringbufIcSt11char_traitsIcESaIcEEE@GOTPCREL(%rip), %rax
 1417      000000
 1418 0f91 488BBC24 		movq	288(%rsp), %rdi
 1418      20010000 
 1419 0f99 4883C010 		addq	$16, %rax
 1420 0f9d 48898424 		movq	%rax, 216(%rsp)
 1420      D8000000 
 1421 0fa5 488D4560 		leaq	96(%rbp), %rax
 1422 0fa9 4839C7   		cmpq	%rax, %rdi
 1423 0fac 7405     		je	.L112
 1424 0fae E8000000 		call	_ZdlPv@PLT
 1424      00
 1425              	.L112:
 1426 0fb3 488B0500 		movq	_ZTVSt15basic_streambufIcSt11char_traitsIcEE@GOTPCREL(%rip), %rax
 1426      000000
 1427 0fba 488D7D40 		leaq	64(%rbp), %rdi
 1428 0fbe 4883C010 		addq	$16, %rax
 1429 0fc2 48898424 		movq	%rax, 216(%rsp)
 1429      D8000000 
 1430 0fca E8000000 		call	_ZNSt6localeD1Ev@PLT
 1430      00
 1431 0fcf 498B46E8 		movq	-24(%r14), %rax
 1432 0fd3 488B7424 		movq	40(%rsp), %rsi
 1432      28
 1433 0fd8 4889B404 		movq	%rsi, 208(%rsp,%rax)
 1433      D0000000 
 1434              	.L113:
 1435 0fe0 488B0500 		movq	_ZTVSt9basic_iosIcSt11char_traitsIcEE@GOTPCREL(%rip), %rax
 1435      000000
 1436 0fe7 488D7D70 		leaq	112(%rbp), %rdi
 1437 0feb 4C89E5   		movq	%r12, %rbp
 1438 0fee 4883C010 		addq	$16, %rax
 1439 0ff2 48898424 		movq	%rax, 320(%rsp)
 1439      40010000 
 1440 0ffa E8000000 		call	_ZNSt8ios_baseD2Ev@PLT
 1440      00
 1441 0fff E92AFFFF 		jmp	.L114
 1441      FF
 1442              	.L166:
 1443 1004 4989C4   		movq	%rax, %r12
 1444 1007 EBD7     		jmp	.L113
 1445              	.L169:
 1446 1009 4989C4   		movq	%rax, %r12
 1447 100c 488B4424 		movq	56(%rsp), %rax
 1447      38
 1448 1011 488BBC24 		movq	144(%rsp), %rdi
 1448      90000000 
 1449 1019 4883C010 		addq	$16, %rax
 1450 101d 4839C7   		cmpq	%rax, %rdi
 1451 1020 0F84E5FE 		je	.L133
 1451      FFFF
 1452              	.L238:
 1453 1026 E8000000 		call	_ZdlPv@PLT
 1453      00
 1454 102b E9DBFEFF 		jmp	.L133
 1454      FF
 1455              	.L159:
 1456 1030 4889C5   		movq	%rax, %rbp
 1457 1033 488B4424 		movq	48(%rsp), %rax
 1457      30
 1458 1038 488B7C24 		movq	112(%rsp), %rdi
 1458      70
 1459 103d 4883C010 		addq	$16, %rax
 1460 1041 4839C7   		cmpq	%rax, %rdi
 1461 1044 0F84E4FE 		je	.L114
 1461      FFFF
 1462 104a E8000000 		call	_ZdlPv@PLT
 1462      00
 1463 104f E9DAFEFF 		jmp	.L114
 1463      FF
 1464              	.L158:
 1465 1054 4889C5   		movq	%rax, %rbp
 1466 1057 E9D2FEFF 		jmp	.L114
 1466      FF
 1467              	.L170:
 1468 105c 488BBC24 		movq	176(%rsp), %rdi
 1468      B0000000 
 1469 1064 4983C610 		addq	$16, %r14
 1470 1068 4989C4   		movq	%rax, %r12
 1471 106b 4C39F7   		cmpq	%r14, %rdi
 1472 106e 75B6     		jne	.L238
 1473 1070 E996FEFF 		jmp	.L133
 1473      FF
 1474              		.cfi_endproc
 1475              	.LFE1365:
 1476              		.globl	__gxx_personality_v0
 1477              		.section	.gcc_except_table,"a",@progbits
 1478              	.LLSDA1365:
 1479 0000 FF       		.byte	0xff
 1480 0001 FF       		.byte	0xff
 1481 0002 01       		.byte	0x1
 1482 0003 8601     		.uleb128 .LLSDACSE1365-.LLSDACSB1365
 1483              	.LLSDACSB1365:
 1484 0005 3B       		.uleb128 .LEHB0-.LFB1365
 1485 0006 41       		.uleb128 .LEHE0-.LEHB0
 1486 0007 00       		.uleb128 0
 1487 0008 00       		.uleb128 0
 1488 0009 C302     		.uleb128 .LEHB1-.LFB1365
 1489 000b 9201     		.uleb128 .LEHE1-.LEHB1
 1490 000d DB18     		.uleb128 .L165-.LFB1365
 1491 000f 00       		.uleb128 0
 1492 0010 A504     		.uleb128 .LEHB2-.LFB1365
 1493 0012 9001     		.uleb128 .LEHE2-.LEHB2
 1494 0014 D918     		.uleb128 .L164-.LFB1365
 1495 0016 00       		.uleb128 0
 1496 0017 8506     		.uleb128 .LEHB3-.LFB1365
 1497 0019 9001     		.uleb128 .LEHE3-.LEHB3
 1498 001b D718     		.uleb128 .L163-.LFB1365
 1499 001d 00       		.uleb128 0
 1500 001e EE07     		.uleb128 .LEHB4-.LFB1365
 1501 0020 8F01     		.uleb128 .LEHE4-.LEHB4
 1502 0022 D518     		.uleb128 .L162-.LFB1365
 1503 0024 00       		.uleb128 0
 1504 0025 D609     		.uleb128 .LEHB5-.LFB1365
 1505 0027 8F01     		.uleb128 .LEHE5-.LEHB5
 1506 0029 A918     		.uleb128 .L161-.LFB1365
 1507 002b 00       		.uleb128 0
 1508 002c 9C0C     		.uleb128 .LEHB6-.LFB1365
 1509 002e 05       		.uleb128 .LEHE6-.LEHB6
 1510 002f E419     		.uleb128 .L166-.LFB1365
 1511 0031 00       		.uleb128 0
 1512 0032 F10D     		.uleb128 .LEHB7-.LFB1365
 1513 0034 05       		.uleb128 .LEHE7-.LEHB7
 1514 0035 E718     		.uleb128 .L167-.LFB1365
 1515 0037 00       		.uleb128 0
 1516 0038 810E     		.uleb128 .LEHB8-.LFB1365
 1517 003a 51       		.uleb128 .LEHE8-.LEHB8
 1518 003b DD18     		.uleb128 .L160-.LFB1365
 1519 003d 00       		.uleb128 0
 1520 003e B80F     		.uleb128 .LEHB9-.LFB1365
 1521 0040 3B       		.uleb128 .LEHE9-.LEHB9
 1522 0041 E817     		.uleb128 .L168-.LFB1365
 1523 0043 00       		.uleb128 0
 1524 0044 B510     		.uleb128 .LEHB10-.LFB1365
 1525 0046 05       		.uleb128 .LEHE10-.LEHB10
 1526 0047 BC1A     		.uleb128 .L170-.LFB1365
 1527 0049 00       		.uleb128 0
 1528 004a ED11     		.uleb128 .LEHB11-.LFB1365
 1529 004c 05       		.uleb128 .LEHE11-.LEHB11
 1530 004d B41A     		.uleb128 .L158-.LFB1365
 1531 004f 00       		.uleb128 0
 1532 0050 8312     		.uleb128 .LEHB12-.LFB1365
 1533 0052 5B       		.uleb128 .LEHE12-.LEHB12
 1534 0053 901A     		.uleb128 .L159-.LFB1365
 1535 0055 00       		.uleb128 0
 1536 0056 D213     		.uleb128 .LEHB13-.LFB1365
 1537 0058 05       		.uleb128 .LEHE13-.LEHB13
 1538 0059 00       		.uleb128 0
 1539 005a 00       		.uleb128 0
 1540 005b C414     		.uleb128 .LEHB14-.LFB1365
 1541 005d 05       		.uleb128 .LEHE14-.LEHB14
 1542 005e E919     		.uleb128 .L169-.LFB1365
 1543 0060 00       		.uleb128 0
 1544 0061 8A15     		.uleb128 .LEHB15-.LFB1365
 1545 0063 C101     		.uleb128 .LEHE15-.LEHB15
 1546 0065 E817     		.uleb128 .L168-.LFB1365
 1547 0067 00       		.uleb128 0
 1548 0068 F316     		.uleb128 .LEHB16-.LFB1365
 1549 006a 05       		.uleb128 .LEHE16-.LEHB16
 1550 006b DB18     		.uleb128 .L165-.LFB1365
 1551 006d 00       		.uleb128 0
 1552 006e 8E17     		.uleb128 .LEHB17-.LFB1365
 1553 0070 05       		.uleb128 .LEHE17-.LEHB17
 1554 0071 A918     		.uleb128 .L161-.LFB1365
 1555 0073 00       		.uleb128 0
 1556 0074 A917     		.uleb128 .LEHB18-.LFB1365
 1557 0076 05       		.uleb128 .LEHE18-.LEHB18
 1558 0077 D918     		.uleb128 .L164-.LFB1365
 1559 0079 00       		.uleb128 0
 1560 007a C417     		.uleb128 .LEHB19-.LFB1365
 1561 007c 05       		.uleb128 .LEHE19-.LEHB19
 1562 007d D718     		.uleb128 .L163-.LFB1365
 1563 007f 00       		.uleb128 0
 1564 0080 DF17     		.uleb128 .LEHB20-.LFB1365
 1565 0082 05       		.uleb128 .LEHE20-.LEHB20
 1566 0083 D518     		.uleb128 .L162-.LFB1365
 1567 0085 00       		.uleb128 0
 1568 0086 A418     		.uleb128 .LEHB21-.LFB1365
 1569 0088 05       		.uleb128 .LEHE21-.LEHB21
 1570 0089 00       		.uleb128 0
 1571 008a 00       		.uleb128 0
 1572              	.LLSDACSE1365:
 1573              		.text
 1575              		.section	.text.unlikely
 1576              	.LCOLDE31:
 1577              		.text
 1578              	.LHOTE31:
 1579              		.section	.text.unlikely
 1580              		.align 2
 1581              	.LCOLDB32:
 1582              		.text
 1583              	.LHOTB32:
 1584 1075 90       		.align 2
 1585 1076 662E0F1F 		.p2align 4,,15
 1585      84000000 
 1585      0000
 1586              		.globl	_ZN8UnitTest15XmlTestReporter13ReportSummaryEiiif
 1588              	_ZN8UnitTest15XmlTestReporter13ReportSummaryEiiif:
 1589              	.LFB1359:
 1590              		.cfi_startproc
 1591 1080 4155     		pushq	%r13
 1592              		.cfi_def_cfa_offset 16
 1593              		.cfi_offset 13, -16
 1594 1082 4154     		pushq	%r12
 1595              		.cfi_def_cfa_offset 24
 1596              		.cfi_offset 12, -24
 1597 1084 4189D4   		movl	%edx, %r12d
 1598 1087 55       		pushq	%rbp
 1599              		.cfi_def_cfa_offset 32
 1600              		.cfi_offset 6, -32
 1601 1088 53       		pushq	%rbx
 1602              		.cfi_def_cfa_offset 40
 1603              		.cfi_offset 3, -40
 1604 1089 89F3     		movl	%esi, %ebx
 1605 108b 4889FD   		movq	%rdi, %rbp
 1606 108e 31D2     		xorl	%edx, %edx
 1607 1090 4189CD   		movl	%ecx, %r13d
 1608 1093 4883EC18 		subq	$24, %rsp
 1609              		.cfi_def_cfa_offset 64
 1610 1097 488B7720 		movq	32(%rdi), %rsi
 1611 109b F30F1144 		movss	%xmm0, 12(%rsp)
 1611      240C
 1612 10a1 E8000000 		call	_ZN8UnitTest15XmlTestReporter13AddXmlElementERSoPKc@PLT
 1612      00
 1613 10a6 488B7520 		movq	32(%rbp), %rsi
 1614 10aa 4489E1   		movl	%r12d, %ecx
 1615 10ad 89DA     		movl	%ebx, %edx
 1616 10af F30F1044 		movss	12(%rsp), %xmm0
 1616      240C
 1617 10b5 4589E8   		movl	%r13d, %r8d
 1618 10b8 4889EF   		movq	%rbp, %rdi
 1619 10bb E8000000 		call	_ZN8UnitTest15XmlTestReporter12BeginResultsERSoiiif@PLT
 1619      00
 1620 10c0 4889EF   		movq	%rbp, %rdi
 1621 10c3 E8000000 		call	_ZN8UnitTest20DeferredTestReporter10GetResultsEv@PLT
 1621      00
 1622 10c8 488B18   		movq	(%rax), %rbx
 1623 10cb 483B5808 		cmpq	8(%rax), %rbx
 1624 10cf 4989C4   		movq	%rax, %r12
 1625 10d2 7526     		jne	.L269
 1626 10d4 EB4A     		jmp	.L268
 1627 10d6 662E0F1F 		.p2align 4,,10
 1627      84000000 
 1627      0000
 1628              		.p2align 3
 1629              	.L266:
 1630 10e0 488B7520 		movq	32(%rbp), %rsi
 1631 10e4 4889DA   		movq	%rbx, %rdx
 1632 10e7 4889EF   		movq	%rbp, %rdi
 1633 10ea 4883EB80 		subq	$-128, %rbx
 1634 10ee E8000000 		call	_ZN8UnitTest15XmlTestReporter7EndTestERSoRKNS_18DeferredTestResultE@PLT
 1634      00
 1635 10f3 49395C24 		cmpq	%rbx, 8(%r12)
 1635      08
 1636 10f8 7426     		je	.L268
 1637              	.L269:
 1638 10fa 488B7520 		movq	32(%rbp), %rsi
 1639 10fe 4889DA   		movq	%rbx, %rdx
 1640 1101 4889EF   		movq	%rbp, %rdi
 1641 1104 E8000000 		call	_ZN8UnitTest15XmlTestReporter9BeginTestERSoRKNS_18DeferredTestResultE@PLT
 1641      00
 1642 1109 807B7C00 		cmpb	$0, 124(%rbx)
 1643 110d 74D1     		je	.L266
 1644 110f 488B7520 		movq	32(%rbp), %rsi
 1645 1113 4889DA   		movq	%rbx, %rdx
 1646 1116 4889EF   		movq	%rbp, %rdi
 1647 1119 E8000000 		call	_ZN8UnitTest15XmlTestReporter10AddFailureERSoRKNS_18DeferredTestResultE@PLT
 1647      00
 1648 111e EBC0     		jmp	.L266
 1649              		.p2align 4,,10
 1650              		.p2align 3
 1651              	.L268:
 1652 1120 488B7520 		movq	32(%rbp), %rsi
 1653 1124 4883C418 		addq	$24, %rsp
 1654              		.cfi_def_cfa_offset 40
 1655 1128 4889EF   		movq	%rbp, %rdi
 1656 112b 5B       		popq	%rbx
 1657              		.cfi_def_cfa_offset 32
 1658 112c 5D       		popq	%rbp
 1659              		.cfi_def_cfa_offset 24
 1660 112d 415C     		popq	%r12
 1661              		.cfi_def_cfa_offset 16
 1662 112f 415D     		popq	%r13
 1663              		.cfi_def_cfa_offset 8
 1664 1131 E9000000 		jmp	_ZN8UnitTest15XmlTestReporter10EndResultsERSo@PLT
 1664      00
 1665              		.cfi_endproc
 1666              	.LFE1359:
 1668              		.section	.text.unlikely
 1669              	.LCOLDE32:
 1670              		.text
 1671              	.LHOTE32:
 1672              		.section	.text.unlikely
 1673              	.LCOLDB33:
 1674              		.section	.text.startup,"ax",@progbits
 1675              	.LHOTB33:
 1676              		.p2align 4,,15
 1678              	_GLOBAL__sub_I_XmlTestReporter.cpp:
 1679              	.LFB1587:
 1680              		.cfi_startproc
 1681 0000 488D3D00 		leaq	_ZStL8__ioinit(%rip), %rdi
 1681      000000
 1682 0007 4883EC08 		subq	$8, %rsp
 1683              		.cfi_def_cfa_offset 16
 1684 000b E8000000 		call	_ZNSt8ios_base4InitC1Ev@PLT
 1684      00
 1685 0010 488B3D00 		movq	_ZNSt8ios_base4InitD1Ev@GOTPCREL(%rip), %rdi
 1685      000000
 1686 0017 488D1500 		leaq	__dso_handle(%rip), %rdx
 1686      000000
 1687 001e 488D3500 		leaq	_ZStL8__ioinit(%rip), %rsi
 1687      000000
 1688 0025 4883C408 		addq	$8, %rsp
 1689              		.cfi_def_cfa_offset 8
 1690 0029 E9000000 		jmp	__cxa_atexit@PLT
 1690      00
 1691              		.cfi_endproc
 1692              	.LFE1587:
 1694              		.section	.text.unlikely
 1695              	.LCOLDE33:
 1696              		.section	.text.startup
 1697              	.LHOTE33:
 1698              		.section	.init_array,"aw"
 1699              		.align 8
 1700 0000 00000000 		.quad	_GLOBAL__sub_I_XmlTestReporter.cpp
 1700      00000000 
 1701              		.weak	_ZTSN8UnitTest15XmlTestReporterE
 1702              		.section	.rodata._ZTSN8UnitTest15XmlTestReporterE,"aG",@progbits,_ZTSN8UnitTest15XmlTestReporterE,
 1703              		.align 16
 1706              	_ZTSN8UnitTest15XmlTestReporterE:
 1707 0000 4E38556E 		.string	"N8UnitTest15XmlTestReporterE"
 1707      69745465 
 1707      73743135 
 1707      586D6C54 
 1707      65737452 
 1708              		.weak	_ZTIN8UnitTest15XmlTestReporterE
 1709              		.section	.data.rel.ro._ZTIN8UnitTest15XmlTestReporterE,"awG",@progbits,_ZTIN8UnitTest15XmlTestRepo
 1710              		.align 8
 1713              	_ZTIN8UnitTest15XmlTestReporterE:
 1714 0000 00000000 		.quad	_ZTVN10__cxxabiv120__si_class_type_infoE+16
 1714      00000000 
 1715 0008 00000000 		.quad	_ZTSN8UnitTest15XmlTestReporterE
 1715      00000000 
 1716 0010 00000000 		.quad	_ZTIN8UnitTest20DeferredTestReporterE
 1716      00000000 
 1717              		.weak	_ZTVN8UnitTest15XmlTestReporterE
 1718              		.section	.data.rel.ro._ZTVN8UnitTest15XmlTestReporterE,"awG",@progbits,_ZTVN8UnitTest15XmlTestRepo
 1719              		.align 8
 1722              	_ZTVN8UnitTest15XmlTestReporterE:
 1723 0000 00000000 		.quad	0
 1723      00000000 
 1724 0008 00000000 		.quad	_ZTIN8UnitTest15XmlTestReporterE
 1724      00000000 
 1725 0010 00000000 		.quad	_ZN8UnitTest15XmlTestReporterD1Ev
 1725      00000000 
 1726 0018 00000000 		.quad	_ZN8UnitTest15XmlTestReporterD0Ev
 1726      00000000 
 1727 0020 00000000 		.quad	_ZN8UnitTest20DeferredTestReporter15ReportTestStartERKNS_11TestDetailsE
 1727      00000000 
 1728 0028 00000000 		.quad	_ZN8UnitTest20DeferredTestReporter13ReportFailureERKNS_11TestDetailsEPKc
 1728      00000000 
 1729 0030 00000000 		.quad	_ZN8UnitTest20DeferredTestReporter16ReportTestFinishERKNS_11TestDetailsEf
 1729      00000000 
 1730 0038 00000000 		.quad	_ZN8UnitTest15XmlTestReporter13ReportSummaryEiiif
 1730      00000000 
 1731              		.local	_ZStL8__ioinit
 1732              		.comm	_ZStL8__ioinit,1,1
 1733              		.hidden	DW.ref.__gxx_personality_v0
 1734              		.weak	DW.ref.__gxx_personality_v0
 1735              		.section	.data.DW.ref.__gxx_personality_v0,"awG",@progbits,DW.ref.__gxx_personality_v0,comdat
 1736              		.align 8
 1739              	DW.ref.__gxx_personality_v0:
 1740 0000 00000000 		.quad	__gxx_personality_v0
 1740      00000000 
 1741              		.hidden	__dso_handle
 1742              		.ident	"GCC: (Ubuntu 5.4.0-6ubuntu1~16.04.5) 5.4.0 20160609"
 1743              		.section	.note.GNU-stack,"",@progbits