   1              		.file	"main.c"
   2              		.text
   3              	.Ltext0:
   4              		.local	ptr
   5              		.comm	ptr,8,8
   6              		.local	enableBenchmarking
   7              		.comm	enableBenchmarking,1,1
   8              		.globl	delay
  10              	delay:
  11              	.LFB4:
  12              		.file 1 "main.c"
   1:main.c        **** /* 
   2:main.c        ****  * Copyright (C) 2012-2014 Chris McClelland
   3:main.c        ****  *
   4:main.c        ****  * This program is free software: you can redistribute it and/or modify
   5:main.c        ****  * it under the terms of the GNU General Public License as published by
   6:main.c        ****  * the Free Software Foundation, either version 3 of the License, or
   7:main.c        ****  * (at your option) any later version.
   8:main.c        ****  *
   9:main.c        ****  * This program is distributed in the hope that it will be useful,
  10:main.c        ****  * but WITHOUT ANY WARRANTY; without even the implied warranty of
  11:main.c        ****  * MERCHANTABILITY or FITNESS FOR A PARTICULAR PURPOSE.  See the
  12:main.c        ****  * GNU General Public License for more details.
  13:main.c        ****  *  
  14:main.c        ****  * You should have received a copy of the GNU General Public License
  15:main.c        ****  * along with this program.  If not, see <http://www.gnu.org/licenses/>.
  16:main.c        ****  */
  17:main.c        **** #include <stdio.h>
  18:main.c        **** #include <time.h>
  19:main.c        **** #include <stdlib.h>
  20:main.c        **** #include <string.h>
  21:main.c        **** #include <errno.h>
  22:main.c        **** #include <stdint.h>
  23:main.c        **** #include <makestuff.h>
  24:main.c        **** #include <libfpgalink.h>
  25:main.c        **** #include <libbuffer.h>
  26:main.c        **** #include <liberror.h>
  27:main.c        **** #include <libdump.h>
  28:main.c        **** #include <argtable2.h>
  29:main.c        **** #include <readline/readline.h>
  30:main.c        **** #include <readline/history.h>
  31:main.c        **** #ifdef WIN32
  32:main.c        **** #include <Windows.h>
  33:main.c        **** #else
  34:main.c        **** #include <sys/time.h>
  35:main.c        **** #endif
  36:main.c        **** 
  37:main.c        **** bool sigIsRaised(void);
  38:main.c        **** void sigRegisterHandler(void);
  39:main.c        **** 
  40:main.c        **** static const char *ptr;
  41:main.c        **** static bool enableBenchmarking = false;
  42:main.c        **** 
  43:main.c        **** ///////////////////////////////////////////////////////////////////////////////////////////////////
  44:main.c        **** ///////////////////////////////////////////////////////////////////////////////////////////////////
  45:main.c        **** 
  46:main.c        **** void delay(unsigned int mseconds)
  47:main.c        **** {
  13              		.loc 1 47 0
  14              		.cfi_startproc
  15 0000 55       		pushq	%rbp
  16              		.cfi_def_cfa_offset 16
  17              		.cfi_offset 6, -16
  18 0001 4889E5   		movq	%rsp, %rbp
  19              		.cfi_def_cfa_register 6
  20 0004 53       		pushq	%rbx
  21 0005 4883EC28 		subq	$40, %rsp
  22              		.cfi_offset 3, -24
  23 0009 897DDC   		movl	%edi, -36(%rbp)
  48:main.c        **** 	clock_t goal = mseconds + clock();
  24              		.loc 1 48 0
  25 000c 8B5DDC   		movl	-36(%rbp), %ebx
  26 000f E8000000 		call	clock
  26      00
  27 0014 4801D8   		addq	%rbx, %rax
  28 0017 488945E8 		movq	%rax, -24(%rbp)
  49:main.c        **** 	while (goal > clock());
  29              		.loc 1 49 0
  30 001b 90       		nop
  31              	.L2:
  32              		.loc 1 49 0 is_stmt 0 discriminator 1
  33 001c E8000000 		call	clock
  33      00
  34 0021 483B45E8 		cmpq	-24(%rbp), %rax
  35 0025 7CF5     		jl	.L2
  50:main.c        **** }
  36              		.loc 1 50 0 is_stmt 1
  37 0027 90       		nop
  38 0028 4883C428 		addq	$40, %rsp
  39 002c 5B       		popq	%rbx
  40 002d 5D       		popq	%rbp
  41              		.cfi_def_cfa 7, 8
  42 002e C3       		ret
  43              		.cfi_endproc
  44              	.LFE4:
  46              		.globl	myxor
  48              	myxor:
  49              	.LFB5:
  51:main.c        **** 
  52:main.c        **** int myxor(int arr[])
  53:main.c        **** {
  50              		.loc 1 53 0
  51              		.cfi_startproc
  52 002f 55       		pushq	%rbp
  53              		.cfi_def_cfa_offset 16
  54              		.cfi_offset 6, -16
  55 0030 4889E5   		movq	%rsp, %rbp
  56              		.cfi_def_cfa_register 6
  57 0033 48897DE8 		movq	%rdi, -24(%rbp)
  54:main.c        **** 	int count = 0;
  58              		.loc 1 54 0
  59 0037 C745F800 		movl	$0, -8(%rbp)
  59      000000
  60              	.LBB2:
  55:main.c        **** 	for(int i=0; i<8; i++)
  61              		.loc 1 55 0
  62 003e C745FC00 		movl	$0, -4(%rbp)
  62      000000
  63 0045 EB23     		jmp	.L4
  64              	.L6:
  56:main.c        **** 		if(arr[i] == 1) count++;
  65              		.loc 1 56 0
  66 0047 8B45FC   		movl	-4(%rbp), %eax
  67 004a 4898     		cltq
  68 004c 488D1485 		leaq	0(,%rax,4), %rdx
  68      00000000 
  69 0054 488B45E8 		movq	-24(%rbp), %rax
  70 0058 4801D0   		addq	%rdx, %rax
  71 005b 8B00     		movl	(%rax), %eax
  72 005d 83F801   		cmpl	$1, %eax
  73 0060 7504     		jne	.L5
  74              		.loc 1 56 0 is_stmt 0 discriminator 1
  75 0062 8345F801 		addl	$1, -8(%rbp)
  76              	.L5:
  55:main.c        **** 	for(int i=0; i<8; i++)
  77              		.loc 1 55 0 is_stmt 1 discriminator 2
  78 0066 8345FC01 		addl	$1, -4(%rbp)
  79              	.L4:
  55:main.c        **** 	for(int i=0; i<8; i++)
  80              		.loc 1 55 0 is_stmt 0 discriminator 1
  81 006a 837DFC07 		cmpl	$7, -4(%rbp)
  82 006e 7ED7     		jle	.L6
  83              	.LBE2:
  57:main.c        **** 
  58:main.c        **** 	if(count%2 == 1) return 1;
  84              		.loc 1 58 0 is_stmt 1
  85 0070 8B45F8   		movl	-8(%rbp), %eax
  86 0073 99       		cltd
  87 0074 C1EA1F   		shrl	$31, %edx
  88 0077 01D0     		addl	%edx, %eax
  89 0079 83E001   		andl	$1, %eax
  90 007c 29D0     		subl	%edx, %eax
  91 007e 83F801   		cmpl	$1, %eax
  92 0081 7507     		jne	.L7
  93              		.loc 1 58 0 is_stmt 0 discriminator 1
  94 0083 B8010000 		movl	$1, %eax
  94      00
  95 0088 EB05     		jmp	.L8
  96              	.L7:
  59:main.c        **** 	else return 0;
  97              		.loc 1 59 0 is_stmt 1
  98 008a B8000000 		movl	$0, %eax
  98      00
  99              	.L8:
  60:main.c        **** }
 100              		.loc 1 60 0
 101 008f 5D       		popq	%rbp
 102              		.cfi_def_cfa 7, 8
 103 0090 C3       		ret
 104              		.cfi_endproc
 105              	.LFE5:
 107              		.globl	bitArrayToInt
 109              	bitArrayToInt:
 110              	.LFB6:
  61:main.c        **** 
  62:main.c        **** int bitArrayToInt(int arr[], int count)
  63:main.c        **** {
 111              		.loc 1 63 0
 112              		.cfi_startproc
 113 0091 55       		pushq	%rbp
 114              		.cfi_def_cfa_offset 16
 115              		.cfi_offset 6, -16
 116 0092 4889E5   		movq	%rsp, %rbp
 117              		.cfi_def_cfa_register 6
 118 0095 48897DE8 		movq	%rdi, -24(%rbp)
 119 0099 8975E4   		movl	%esi, -28(%rbp)
  64:main.c        **** 	int ret = 0;
 120              		.loc 1 64 0
 121 009c C745F400 		movl	$0, -12(%rbp)
 121      000000
 122              	.LBB3:
  65:main.c        **** 	int tmp;
  66:main.c        **** 	for (int i = 0; i < count; i++) {
 123              		.loc 1 66 0
 124 00a3 C745F800 		movl	$0, -8(%rbp)
 124      000000
 125 00aa EB35     		jmp	.L10
 126              	.L11:
  67:main.c        **** 		tmp = arr[count - i -1];
 127              		.loc 1 67 0 discriminator 3
 128 00ac 8B45E4   		movl	-28(%rbp), %eax
 129 00af 2B45F8   		subl	-8(%rbp), %eax
 130 00b2 4898     		cltq
 131 00b4 48C1E002 		salq	$2, %rax
 132 00b8 488D50FC 		leaq	-4(%rax), %rdx
 133 00bc 488B45E8 		movq	-24(%rbp), %rax
 134 00c0 4801D0   		addq	%rdx, %rax
 135 00c3 8B00     		movl	(%rax), %eax
 136 00c5 8945FC   		movl	%eax, -4(%rbp)
  68:main.c        **** 		ret |= tmp << (count - i - 1);
 137              		.loc 1 68 0 discriminator 3
 138 00c8 8B45E4   		movl	-28(%rbp), %eax
 139 00cb 2B45F8   		subl	-8(%rbp), %eax
 140 00ce 83E801   		subl	$1, %eax
 141 00d1 8B55FC   		movl	-4(%rbp), %edx
 142 00d4 89C1     		movl	%eax, %ecx
 143 00d6 D3E2     		sall	%cl, %edx
 144 00d8 89D0     		movl	%edx, %eax
 145 00da 0945F4   		orl	%eax, -12(%rbp)
  66:main.c        **** 		tmp = arr[count - i -1];
 146              		.loc 1 66 0 discriminator 3
 147 00dd 8345F801 		addl	$1, -8(%rbp)
 148              	.L10:
  66:main.c        **** 		tmp = arr[count - i -1];
 149              		.loc 1 66 0 is_stmt 0 discriminator 1
 150 00e1 8B45F8   		movl	-8(%rbp), %eax
 151 00e4 3B45E4   		cmpl	-28(%rbp), %eax
 152 00e7 7CC3     		jl	.L11
 153              	.LBE3:
  69:main.c        **** 	}
  70:main.c        **** 	return ret;
 154              		.loc 1 70 0 is_stmt 1
 155 00e9 8B45F4   		movl	-12(%rbp), %eax
  71:main.c        **** }
 156              		.loc 1 71 0
 157 00ec 5D       		popq	%rbp
 158              		.cfi_def_cfa 7, 8
 159 00ed C3       		ret
 160              		.cfi_endproc
 161              	.LFE6:
 163              		.globl	BinTouint8
 165              	BinTouint8:
 166              	.LFB7:
  72:main.c        **** 
  73:main.c        **** void BinTouint8(uint8 bin[], int arr[])
  74:main.c        **** {
 167              		.loc 1 74 0
 168              		.cfi_startproc
 169 00ee 55       		pushq	%rbp
 170              		.cfi_def_cfa_offset 16
 171              		.cfi_offset 6, -16
 172 00ef 4889E5   		movq	%rsp, %rbp
 173              		.cfi_def_cfa_register 6
 174 00f2 53       		pushq	%rbx
 175 00f3 4881ECB8 		subq	$184, %rsp
 175      000000
 176              		.cfi_offset 3, -24
 177 00fa 4889BD48 		movq	%rdi, -184(%rbp)
 177      FFFFFF
 178 0101 4889B540 		movq	%rsi, -192(%rbp)
 178      FFFFFF
 179              		.loc 1 74 0
 180 0108 64488B04 		movq	%fs:40, %rax
 180      25280000 
 180      00
 181 0111 488945E8 		movq	%rax, -24(%rbp)
 182 0115 31C0     		xorl	%eax, %eax
 183              	.LBB4:
  75:main.c        **** 	int arr0[8], arr1[8], arr2[8], arr3[8];
  76:main.c        **** 	for (int i = 0; i < 8; ++i)
 184              		.loc 1 76 0
 185 0117 C7855CFF 		movl	$0, -164(%rbp)
 185      FFFF0000 
 185      0000
 186 0121 E9B60000 		jmp	.L14
 186      00
 187              	.L15:
  77:main.c        **** 	{
  78:main.c        **** 		arr0[i] = arr[i];
 188              		.loc 1 78 0 discriminator 3
 189 0126 8B855CFF 		movl	-164(%rbp), %eax
 189      FFFF
 190 012c 4898     		cltq
 191 012e 488D1485 		leaq	0(,%rax,4), %rdx
 191      00000000 
 192 0136 488B8540 		movq	-192(%rbp), %rax
 192      FFFFFF
 193 013d 4801D0   		addq	%rdx, %rax
 194 0140 8B10     		movl	(%rax), %edx
 195 0142 8B855CFF 		movl	-164(%rbp), %eax
 195      FFFF
 196 0148 4898     		cltq
 197 014a 89948560 		movl	%edx, -160(%rbp,%rax,4)
 197      FFFFFF
  79:main.c        **** 		arr1[i] = arr[i+8];
 198              		.loc 1 79 0 discriminator 3
 199 0151 8B855CFF 		movl	-164(%rbp), %eax
 199      FFFF
 200 0157 4898     		cltq
 201 0159 4883C008 		addq	$8, %rax
 202 015d 488D1485 		leaq	0(,%rax,4), %rdx
 202      00000000 
 203 0165 488B8540 		movq	-192(%rbp), %rax
 203      FFFFFF
 204 016c 4801D0   		addq	%rdx, %rax
 205 016f 8B10     		movl	(%rax), %edx
 206 0171 8B855CFF 		movl	-164(%rbp), %eax
 206      FFFF
 207 0177 4898     		cltq
 208 0179 89548580 		movl	%edx, -128(%rbp,%rax,4)
  80:main.c        **** 		arr2[i] = arr[i+16];
 209              		.loc 1 80 0 discriminator 3
 210 017d 8B855CFF 		movl	-164(%rbp), %eax
 210      FFFF
 211 0183 4898     		cltq
 212 0185 4883C010 		addq	$16, %rax
 213 0189 488D1485 		leaq	0(,%rax,4), %rdx
 213      00000000 
 214 0191 488B8540 		movq	-192(%rbp), %rax
 214      FFFFFF
 215 0198 4801D0   		addq	%rdx, %rax
 216 019b 8B10     		movl	(%rax), %edx
 217 019d 8B855CFF 		movl	-164(%rbp), %eax
 217      FFFF
 218 01a3 4898     		cltq
 219 01a5 895485A0 		movl	%edx, -96(%rbp,%rax,4)
  81:main.c        **** 		arr3[i] = arr[i+24];
 220              		.loc 1 81 0 discriminator 3
 221 01a9 8B855CFF 		movl	-164(%rbp), %eax
 221      FFFF
 222 01af 4898     		cltq
 223 01b1 4883C018 		addq	$24, %rax
 224 01b5 488D1485 		leaq	0(,%rax,4), %rdx
 224      00000000 
 225 01bd 488B8540 		movq	-192(%rbp), %rax
 225      FFFFFF
 226 01c4 4801D0   		addq	%rdx, %rax
 227 01c7 8B10     		movl	(%rax), %edx
 228 01c9 8B855CFF 		movl	-164(%rbp), %eax
 228      FFFF
 229 01cf 4898     		cltq
 230 01d1 895485C0 		movl	%edx, -64(%rbp,%rax,4)
  76:main.c        **** 	{
 231              		.loc 1 76 0 discriminator 3
 232 01d5 83855CFF 		addl	$1, -164(%rbp)
 232      FFFF01
 233              	.L14:
  76:main.c        **** 	{
 234              		.loc 1 76 0 is_stmt 0 discriminator 1
 235 01dc 83BD5CFF 		cmpl	$7, -164(%rbp)
 235      FFFF07
 236 01e3 0F8E3DFF 		jle	.L15
 236      FFFF
 237              	.LBE4:
  82:main.c        **** 	}
  83:main.c        **** 	
  84:main.c        **** 	bin[0] = bitArrayToInt(arr0, 8);
 238              		.loc 1 84 0 is_stmt 1
 239 01e9 488D8560 		leaq	-160(%rbp), %rax
 239      FFFFFF
 240 01f0 BE080000 		movl	$8, %esi
 240      00
 241 01f5 4889C7   		movq	%rax, %rdi
 242 01f8 E8000000 		call	bitArrayToInt
 242      00
 243 01fd 89C2     		movl	%eax, %edx
 244 01ff 488B8548 		movq	-184(%rbp), %rax
 244      FFFFFF
 245 0206 8810     		movb	%dl, (%rax)
  85:main.c        **** 	bin[1] = bitArrayToInt(arr1, 8);
 246              		.loc 1 85 0
 247 0208 488B8548 		movq	-184(%rbp), %rax
 247      FFFFFF
 248 020f 488D5801 		leaq	1(%rax), %rbx
 249 0213 488D4580 		leaq	-128(%rbp), %rax
 250 0217 BE080000 		movl	$8, %esi
 250      00
 251 021c 4889C7   		movq	%rax, %rdi
 252 021f E8000000 		call	bitArrayToInt
 252      00
 253 0224 8803     		movb	%al, (%rbx)
  86:main.c        **** 	bin[2] = bitArrayToInt(arr2, 8);
 254              		.loc 1 86 0
 255 0226 488B8548 		movq	-184(%rbp), %rax
 255      FFFFFF
 256 022d 488D5802 		leaq	2(%rax), %rbx
 257 0231 488D45A0 		leaq	-96(%rbp), %rax
 258 0235 BE080000 		movl	$8, %esi
 258      00
 259 023a 4889C7   		movq	%rax, %rdi
 260 023d E8000000 		call	bitArrayToInt
 260      00
 261 0242 8803     		movb	%al, (%rbx)
  87:main.c        **** 	bin[3] = bitArrayToInt(arr3, 8);
 262              		.loc 1 87 0
 263 0244 488B8548 		movq	-184(%rbp), %rax
 263      FFFFFF
 264 024b 488D5803 		leaq	3(%rax), %rbx
 265 024f 488D45C0 		leaq	-64(%rbp), %rax
 266 0253 BE080000 		movl	$8, %esi
 266      00
 267 0258 4889C7   		movq	%rax, %rdi
 268 025b E8000000 		call	bitArrayToInt
 268      00
 269 0260 8803     		movb	%al, (%rbx)
  88:main.c        **** }
 270              		.loc 1 88 0
 271 0262 90       		nop
 272 0263 488B45E8 		movq	-24(%rbp), %rax
 273 0267 64483304 		xorq	%fs:40, %rax
 273      25280000 
 273      00
 274 0270 7405     		je	.L16
 275 0272 E8000000 		call	__stack_chk_fail
 275      00
 276              	.L16:
 277 0277 4881C4B8 		addq	$184, %rsp
 277      000000
 278 027e 5B       		popq	%rbx
 279 027f 5D       		popq	%rbp
 280              		.cfi_def_cfa 7, 8
 281 0280 C3       		ret
 282              		.cfi_endproc
 283              	.LFE7:
 285              		.globl	decToBinary
 287              	decToBinary:
 288              	.LFB8:
  89:main.c        **** 
  90:main.c        **** void decToBinary(int n, int arr[], int count)
  91:main.c        **** {
 289              		.loc 1 91 0
 290              		.cfi_startproc
 291 0281 55       		pushq	%rbp
 292              		.cfi_def_cfa_offset 16
 293              		.cfi_offset 6, -16
 294 0282 4889E5   		movq	%rsp, %rbp
 295              		.cfi_def_cfa_register 6
 296 0285 53       		pushq	%rbx
 297 0286 4883EC48 		subq	$72, %rsp
 298              		.cfi_offset 3, -24
 299 028a 897DBC   		movl	%edi, -68(%rbp)
 300 028d 488975B0 		movq	%rsi, -80(%rbp)
 301 0291 8955B8   		movl	%edx, -72(%rbp)
 302              		.loc 1 91 0
 303 0294 64488B04 		movq	%fs:40, %rax
 303      25280000 
 303      00
 304 029d 488945E8 		movq	%rax, -24(%rbp)
 305 02a1 31C0     		xorl	%eax, %eax
 306 02a3 4889E0   		movq	%rsp, %rax
 307 02a6 4889C6   		movq	%rax, %rsi
  92:main.c        **** 	int binaryNum[count];
 308              		.loc 1 92 0
 309 02a9 8B45B8   		movl	-72(%rbp), %eax
 310 02ac 4863D0   		movslq	%eax, %rdx
 311 02af 4883EA01 		subq	$1, %rdx
 312 02b3 488955D8 		movq	%rdx, -40(%rbp)
 313 02b7 4863D0   		movslq	%eax, %rdx
 314 02ba 4989D0   		movq	%rdx, %r8
 315 02bd 41B90000 		movl	$0, %r9d
 315      0000
 316 02c3 4863D0   		movslq	%eax, %rdx
 317 02c6 4889D1   		movq	%rdx, %rcx
 318 02c9 BB000000 		movl	$0, %ebx
 318      00
 319 02ce 4898     		cltq
 320 02d0 48C1E002 		salq	$2, %rax
 321 02d4 488D5003 		leaq	3(%rax), %rdx
 322 02d8 B8100000 		movl	$16, %eax
 322      00
 323 02dd 4883E801 		subq	$1, %rax
 324 02e1 4801D0   		addq	%rdx, %rax
 325 02e4 BB100000 		movl	$16, %ebx
 325      00
 326 02e9 BA000000 		movl	$0, %edx
 326      00
 327 02ee 48F7F3   		divq	%rbx
 328 02f1 486BC010 		imulq	$16, %rax, %rax
 329 02f5 4829C4   		subq	%rax, %rsp
 330 02f8 4889E0   		movq	%rsp, %rax
 331 02fb 4883C003 		addq	$3, %rax
 332 02ff 48C1E802 		shrq	$2, %rax
 333 0303 48C1E002 		salq	$2, %rax
 334 0307 488945E0 		movq	%rax, -32(%rbp)
 335              	.LBB5:
  93:main.c        **** 	for (int i = 0; i < count; ++i)
 336              		.loc 1 93 0
 337 030b C745CC00 		movl	$0, -52(%rbp)
 337      000000
 338 0312 EB15     		jmp	.L18
 339              	.L19:
  94:main.c        **** 		binaryNum[i] = 0;
 340              		.loc 1 94 0 discriminator 3
 341 0314 488B45E0 		movq	-32(%rbp), %rax
 342 0318 8B55CC   		movl	-52(%rbp), %edx
 343 031b 4863D2   		movslq	%edx, %rdx
 344 031e C7049000 		movl	$0, (%rax,%rdx,4)
 344      000000
  93:main.c        **** 	for (int i = 0; i < count; ++i)
 345              		.loc 1 93 0 discriminator 3
 346 0325 8345CC01 		addl	$1, -52(%rbp)
 347              	.L18:
  93:main.c        **** 	for (int i = 0; i < count; ++i)
 348              		.loc 1 93 0 is_stmt 0 discriminator 1
 349 0329 8B45CC   		movl	-52(%rbp), %eax
 350 032c 3B45B8   		cmpl	-72(%rbp), %eax
 351 032f 7CE3     		jl	.L19
 352              	.LBE5:
  95:main.c        **** 
  96:main.c        **** 	int i = 0;
 353              		.loc 1 96 0 is_stmt 1
 354 0331 C745D000 		movl	$0, -48(%rbp)
 354      000000
  97:main.c        **** 	while (n > 0) {
 355              		.loc 1 97 0
 356 0338 EB30     		jmp	.L20
 357              	.L21:
  98:main.c        **** 		binaryNum[i] = n % 2;
 358              		.loc 1 98 0
 359 033a 8B45BC   		movl	-68(%rbp), %eax
 360 033d 99       		cltd
 361 033e C1EA1F   		shrl	$31, %edx
 362 0341 01D0     		addl	%edx, %eax
 363 0343 83E001   		andl	$1, %eax
 364 0346 29D0     		subl	%edx, %eax
 365 0348 89C1     		movl	%eax, %ecx
 366 034a 488B45E0 		movq	-32(%rbp), %rax
 367 034e 8B55D0   		movl	-48(%rbp), %edx
 368 0351 4863D2   		movslq	%edx, %rdx
 369 0354 890C90   		movl	%ecx, (%rax,%rdx,4)
  99:main.c        **** 		n = n / 2;
 370              		.loc 1 99 0
 371 0357 8B45BC   		movl	-68(%rbp), %eax
 372 035a 89C2     		movl	%eax, %edx
 373 035c C1EA1F   		shrl	$31, %edx
 374 035f 01D0     		addl	%edx, %eax
 375 0361 D1F8     		sarl	%eax
 376 0363 8945BC   		movl	%eax, -68(%rbp)
 100:main.c        **** 		i++;
 377              		.loc 1 100 0
 378 0366 8345D001 		addl	$1, -48(%rbp)
 379              	.L20:
  97:main.c        **** 		binaryNum[i] = n % 2;
 380              		.loc 1 97 0
 381 036a 837DBC00 		cmpl	$0, -68(%rbp)
 382 036e 7FCA     		jg	.L21
 383              	.LBB6:
 101:main.c        **** 	}
 102:main.c        **** 
 103:main.c        ****     // printing binary array in reverse order
 104:main.c        **** 	for (int i=0; i<count; i++)
 384              		.loc 1 104 0
 385 0370 C745D400 		movl	$0, -44(%rbp)
 385      000000
 386 0377 EB28     		jmp	.L22
 387              	.L23:
 105:main.c        **** 		arr[i] = binaryNum[i];
 388              		.loc 1 105 0 discriminator 3
 389 0379 8B45D4   		movl	-44(%rbp), %eax
 390 037c 4898     		cltq
 391 037e 488D1485 		leaq	0(,%rax,4), %rdx
 391      00000000 
 392 0386 488B45B0 		movq	-80(%rbp), %rax
 393 038a 488D0C02 		leaq	(%rdx,%rax), %rcx
 394 038e 488B45E0 		movq	-32(%rbp), %rax
 395 0392 8B55D4   		movl	-44(%rbp), %edx
 396 0395 4863D2   		movslq	%edx, %rdx
 397 0398 8B0490   		movl	(%rax,%rdx,4), %eax
 398 039b 8901     		movl	%eax, (%rcx)
 104:main.c        **** 		arr[i] = binaryNum[i];
 399              		.loc 1 104 0 discriminator 3
 400 039d 8345D401 		addl	$1, -44(%rbp)
 401              	.L22:
 104:main.c        **** 		arr[i] = binaryNum[i];
 402              		.loc 1 104 0 is_stmt 0 discriminator 1
 403 03a1 8B45D4   		movl	-44(%rbp), %eax
 404 03a4 3B45B8   		cmpl	-72(%rbp), %eax
 405 03a7 7CD0     		jl	.L23
 406              	.LBE6:
 407 03a9 4889F4   		movq	%rsi, %rsp
 106:main.c        **** }
 408              		.loc 1 106 0 is_stmt 1
 409 03ac 90       		nop
 410 03ad 488B45E8 		movq	-24(%rbp), %rax
 411 03b1 64483304 		xorq	%fs:40, %rax
 411      25280000 
 411      00
 412 03ba 7405     		je	.L24
 413 03bc E8000000 		call	__stack_chk_fail
 413      00
 414              	.L24:
 415 03c1 488B5DF8 		movq	-8(%rbp), %rbx
 416 03c5 C9       		leave
 417              		.cfi_def_cfa 7, 8
 418 03c6 C3       		ret
 419              		.cfi_endproc
 420              	.LFE8:
 422              		.globl	encrypter
 424              	encrypter:
 425              	.LFB9:
 107:main.c        **** 
 108:main.c        **** void encrypter(int P[], int K[], int bin[])
 109:main.c        **** {
 426              		.loc 1 109 0
 427              		.cfi_startproc
 428 03c7 55       		pushq	%rbp
 429              		.cfi_def_cfa_offset 16
 430              		.cfi_offset 6, -16
 431 03c8 4889E5   		movq	%rsp, %rbp
 432              		.cfi_def_cfa_register 6
 433 03cb 4881EC60 		subq	$608, %rsp
 433      020000
 434 03d2 4889BDB8 		movq	%rdi, -584(%rbp)
 434      FDFFFF
 435 03d9 4889B5B0 		movq	%rsi, -592(%rbp)
 435      FDFFFF
 436 03e0 488995A8 		movq	%rdx, -600(%rbp)
 436      FDFFFF
 437              		.loc 1 109 0
 438 03e7 64488B04 		movq	%fs:40, %rax
 438      25280000 
 438      00
 439 03f0 488945F8 		movq	%rax, -8(%rbp)
 440 03f4 31C0     		xorl	%eax, %eax
 110:main.c        ****   //int plain_text[32];
 111:main.c        **** 	int key[32];
 112:main.c        **** 	int cipher_text[32];
 113:main.c        **** 	int T[4];
 114:main.c        **** 	int count1=0;
 441              		.loc 1 114 0
 442 03f6 C785C0FD 		movl	$0, -576(%rbp)
 442      FFFF0000 
 442      0000
 443              	.LBB7:
 115:main.c        **** 
 116:main.c        **** 	for (int i = 0; i < 32; ++i)
 444              		.loc 1 116 0
 445 0400 C785C4FD 		movl	$0, -572(%rbp)
 445      FFFF0000 
 445      0000
 446 040a E9850000 		jmp	.L26
 446      00
 447              	.L28:
 117:main.c        **** 	{
 118:main.c        **** 		cipher_text[i] = P[i];
 448              		.loc 1 118 0
 449 040f 8B85C4FD 		movl	-572(%rbp), %eax
 449      FFFF
 450 0415 4898     		cltq
 451 0417 488D1485 		leaq	0(,%rax,4), %rdx
 451      00000000 
 452 041f 488B85B8 		movq	-584(%rbp), %rax
 452      FDFFFF
 453 0426 4801D0   		addq	%rdx, %rax
 454 0429 8B10     		movl	(%rax), %edx
 455 042b 8B85C4FD 		movl	-572(%rbp), %eax
 455      FFFF
 456 0431 4898     		cltq
 457 0433 899485F0 		movl	%edx, -272(%rbp,%rax,4)
 457      FEFFFF
 119:main.c        **** 		key[i] = K[i];
 458              		.loc 1 119 0
 459 043a 8B85C4FD 		movl	-572(%rbp), %eax
 459      FFFF
 460 0440 4898     		cltq
 461 0442 488D1485 		leaq	0(,%rax,4), %rdx
 461      00000000 
 462 044a 488B85B0 		movq	-592(%rbp), %rax
 462      FDFFFF
 463 0451 4801D0   		addq	%rdx, %rax
 464 0454 8B10     		movl	(%rax), %edx
 465 0456 8B85C4FD 		movl	-572(%rbp), %eax
 465      FFFF
 466 045c 4898     		cltq
 467 045e 89948570 		movl	%edx, -400(%rbp,%rax,4)
 467      FEFFFF
 120:main.c        **** 		if(K[i] == 1) 
 468              		.loc 1 120 0
 469 0465 8B85C4FD 		movl	-572(%rbp), %eax
 469      FFFF
 470 046b 4898     		cltq
 471 046d 488D1485 		leaq	0(,%rax,4), %rdx
 471      00000000 
 472 0475 488B85B0 		movq	-592(%rbp), %rax
 472      FDFFFF
 473 047c 4801D0   		addq	%rdx, %rax
 474 047f 8B00     		movl	(%rax), %eax
 475 0481 83F801   		cmpl	$1, %eax
 476 0484 7507     		jne	.L27
 121:main.c        **** 			count1++;
 477              		.loc 1 121 0
 478 0486 8385C0FD 		addl	$1, -576(%rbp)
 478      FFFF01
 479              	.L27:
 116:main.c        **** 	{
 480              		.loc 1 116 0 discriminator 2
 481 048d 8385C4FD 		addl	$1, -572(%rbp)
 481      FFFF01
 482              	.L26:
 116:main.c        **** 	{
 483              		.loc 1 116 0 is_stmt 0 discriminator 1
 484 0494 83BDC4FD 		cmpl	$31, -572(%rbp)
 484      FFFF1F
 485 049b 0F8E6EFF 		jle	.L28
 485      FFFF
 486              	.LBE7:
 487              	.LBB8:
 122:main.c        **** 	}
 123:main.c        **** 
 124:main.c        **** 	int arr0[8];
 125:main.c        **** 	int arr1[8];
 126:main.c        **** 	int arr2[8];
 127:main.c        **** 	int arr3[8];
 128:main.c        **** 
 129:main.c        **** 	for(int i=0; i<8; i++)
 488              		.loc 1 129 0 is_stmt 1
 489 04a1 C785C8FD 		movl	$0, -568(%rbp)
 489      FFFF0000 
 489      0000
 490 04ab E9940000 		jmp	.L29
 490      00
 491              	.L30:
 130:main.c        **** 	{
 131:main.c        **** 		arr0[i] = key[4*i];
 492              		.loc 1 131 0 discriminator 3
 493 04b0 8B85C8FD 		movl	-568(%rbp), %eax
 493      FFFF
 494 04b6 C1E002   		sall	$2, %eax
 495 04b9 4898     		cltq
 496 04bb 8B948570 		movl	-400(%rbp,%rax,4), %edx
 496      FEFFFF
 497 04c2 8B85C8FD 		movl	-568(%rbp), %eax
 497      FFFF
 498 04c8 4898     		cltq
 499 04ca 899485F0 		movl	%edx, -528(%rbp,%rax,4)
 499      FDFFFF
 132:main.c        **** 		arr1[i] = key[4*i+1];
 500              		.loc 1 132 0 discriminator 3
 501 04d1 8B85C8FD 		movl	-568(%rbp), %eax
 501      FFFF
 502 04d7 C1E002   		sall	$2, %eax
 503 04da 83C001   		addl	$1, %eax
 504 04dd 4898     		cltq
 505 04df 8B948570 		movl	-400(%rbp,%rax,4), %edx
 505      FEFFFF
 506 04e6 8B85C8FD 		movl	-568(%rbp), %eax
 506      FFFF
 507 04ec 4898     		cltq
 508 04ee 89948510 		movl	%edx, -496(%rbp,%rax,4)
 508      FEFFFF
 133:main.c        **** 		arr2[i] = key[4*i+2];
 509              		.loc 1 133 0 discriminator 3
 510 04f5 8B85C8FD 		movl	-568(%rbp), %eax
 510      FFFF
 511 04fb C1E002   		sall	$2, %eax
 512 04fe 83C002   		addl	$2, %eax
 513 0501 4898     		cltq
 514 0503 8B948570 		movl	-400(%rbp,%rax,4), %edx
 514      FEFFFF
 515 050a 8B85C8FD 		movl	-568(%rbp), %eax
 515      FFFF
 516 0510 4898     		cltq
 517 0512 89948530 		movl	%edx, -464(%rbp,%rax,4)
 517      FEFFFF
 134:main.c        **** 		arr3[i] = key[4*i+3];
 518              		.loc 1 134 0 discriminator 3
 519 0519 8B85C8FD 		movl	-568(%rbp), %eax
 519      FFFF
 520 051f C1E002   		sall	$2, %eax
 521 0522 83C003   		addl	$3, %eax
 522 0525 4898     		cltq
 523 0527 8B948570 		movl	-400(%rbp,%rax,4), %edx
 523      FEFFFF
 524 052e 8B85C8FD 		movl	-568(%rbp), %eax
 524      FFFF
 525 0534 4898     		cltq
 526 0536 89948550 		movl	%edx, -432(%rbp,%rax,4)
 526      FEFFFF
 129:main.c        **** 	{
 527              		.loc 1 129 0 discriminator 3
 528 053d 8385C8FD 		addl	$1, -568(%rbp)
 528      FFFF01
 529              	.L29:
 129:main.c        **** 	{
 530              		.loc 1 129 0 is_stmt 0 discriminator 1
 531 0544 83BDC8FD 		cmpl	$7, -568(%rbp)
 531      FFFF07
 532 054b 0F8E5FFF 		jle	.L30
 532      FFFF
 533              	.LBE8:
 135:main.c        **** 	}
 136:main.c        **** 
 137:main.c        **** 	T[0] = myxor(arr0);
 534              		.loc 1 137 0 is_stmt 1
 535 0551 488D85F0 		leaq	-528(%rbp), %rax
 535      FDFFFF
 536 0558 4889C7   		movq	%rax, %rdi
 537 055b E8000000 		call	myxor
 537      00
 538 0560 8985E0FD 		movl	%eax, -544(%rbp)
 538      FFFF
 138:main.c        **** 	T[1] = myxor(arr1);
 539              		.loc 1 138 0
 540 0566 488D8510 		leaq	-496(%rbp), %rax
 540      FEFFFF
 541 056d 4889C7   		movq	%rax, %rdi
 542 0570 E8000000 		call	myxor
 542      00
 543 0575 8985E4FD 		movl	%eax, -540(%rbp)
 543      FFFF
 139:main.c        **** 	T[2] = myxor(arr2);
 544              		.loc 1 139 0
 545 057b 488D8530 		leaq	-464(%rbp), %rax
 545      FEFFFF
 546 0582 4889C7   		movq	%rax, %rdi
 547 0585 E8000000 		call	myxor
 547      00
 548 058a 8985E8FD 		movl	%eax, -536(%rbp)
 548      FFFF
 140:main.c        **** 	T[3] = myxor(arr3);
 549              		.loc 1 140 0
 550 0590 488D8550 		leaq	-432(%rbp), %rax
 550      FEFFFF
 551 0597 4889C7   		movq	%rax, %rdi
 552 059a E8000000 		call	myxor
 552      00
 553 059f 8985ECFD 		movl	%eax, -532(%rbp)
 553      FFFF
 141:main.c        **** 
 142:main.c        **** 	int T32[32];
 143:main.c        **** 	int dec = bitArrayToInt(T, 4);
 554              		.loc 1 143 0
 555 05a5 488D85E0 		leaq	-544(%rbp), %rax
 555      FDFFFF
 556 05ac BE040000 		movl	$4, %esi
 556      00
 557 05b1 4889C7   		movq	%rax, %rdi
 558 05b4 E8000000 		call	bitArrayToInt
 558      00
 559 05b9 8985CCFD 		movl	%eax, -564(%rbp)
 559      FFFF
 560              	.LBB9:
 144:main.c        **** 
 145:main.c        **** 	for (int i = 0; i < count1; ++i)
 561              		.loc 1 145 0
 562 05bf C785D0FD 		movl	$0, -560(%rbp)
 562      FFFF0000 
 562      0000
 563 05c9 E90D0100 		jmp	.L31
 563      00
 564              	.L37:
 565              	.LBB10:
 146:main.c        **** 	{ 
 147:main.c        **** 		for (int j = 0; j < 8; j++)
 566              		.loc 1 147 0
 567 05ce C785D4FD 		movl	$0, -556(%rbp)
 567      FFFF0000 
 567      0000
 568 05d8 EB70     		jmp	.L32
 569              	.L33:
 148:main.c        **** 		{
 149:main.c        **** 			T32[4*j] = T[0];
 570              		.loc 1 149 0 discriminator 3
 571 05da 8B85D4FD 		movl	-556(%rbp), %eax
 571      FFFF
 572 05e0 C1E002   		sall	$2, %eax
 573 05e3 8B95E0FD 		movl	-544(%rbp), %edx
 573      FFFF
 574 05e9 4898     		cltq
 575 05eb 89948570 		movl	%edx, -144(%rbp,%rax,4)
 575      FFFFFF
 150:main.c        **** 			T32[4*j+1] = T[1];
 576              		.loc 1 150 0 discriminator 3
 577 05f2 8B85D4FD 		movl	-556(%rbp), %eax
 577      FFFF
 578 05f8 C1E002   		sall	$2, %eax
 579 05fb 83C001   		addl	$1, %eax
 580 05fe 8B95E4FD 		movl	-540(%rbp), %edx
 580      FFFF
 581 0604 4898     		cltq
 582 0606 89948570 		movl	%edx, -144(%rbp,%rax,4)
 582      FFFFFF
 151:main.c        **** 			T32[4*j+2] = T[2];
 583              		.loc 1 151 0 discriminator 3
 584 060d 8B85D4FD 		movl	-556(%rbp), %eax
 584      FFFF
 585 0613 C1E002   		sall	$2, %eax
 586 0616 83C002   		addl	$2, %eax
 587 0619 8B95E8FD 		movl	-536(%rbp), %edx
 587      FFFF
 588 061f 4898     		cltq
 589 0621 89948570 		movl	%edx, -144(%rbp,%rax,4)
 589      FFFFFF
 152:main.c        **** 			T32[4*j+3] = T[3];
 590              		.loc 1 152 0 discriminator 3
 591 0628 8B85D4FD 		movl	-556(%rbp), %eax
 591      FFFF
 592 062e C1E002   		sall	$2, %eax
 593 0631 83C003   		addl	$3, %eax
 594 0634 8B95ECFD 		movl	-532(%rbp), %edx
 594      FFFF
 595 063a 4898     		cltq
 596 063c 89948570 		movl	%edx, -144(%rbp,%rax,4)
 596      FFFFFF
 147:main.c        **** 		{
 597              		.loc 1 147 0 discriminator 3
 598 0643 8385D4FD 		addl	$1, -556(%rbp)
 598      FFFF01
 599              	.L32:
 147:main.c        **** 		{
 600              		.loc 1 147 0 is_stmt 0 discriminator 1
 601 064a 83BDD4FD 		cmpl	$7, -556(%rbp)
 601      FFFF07
 602 0651 7E87     		jle	.L33
 603              	.LBE10:
 604              	.LBB11:
 153:main.c        **** 		}
 154:main.c        **** 
 155:main.c        **** 		for (int j = 0; j < 32; ++j)
 605              		.loc 1 155 0 is_stmt 1
 606 0653 C785D8FD 		movl	$0, -552(%rbp)
 606      FFFF0000 
 606      0000
 607 065d EB36     		jmp	.L34
 608              	.L35:
 156:main.c        **** 			cipher_text[j] = cipher_text[j] ^ T32[j];
 609              		.loc 1 156 0 discriminator 3
 610 065f 8B85D8FD 		movl	-552(%rbp), %eax
 610      FFFF
 611 0665 4898     		cltq
 612 0667 8B9485F0 		movl	-272(%rbp,%rax,4), %edx
 612      FEFFFF
 613 066e 8B85D8FD 		movl	-552(%rbp), %eax
 613      FFFF
 614 0674 4898     		cltq
 615 0676 8B848570 		movl	-144(%rbp,%rax,4), %eax
 615      FFFFFF
 616 067d 31C2     		xorl	%eax, %edx
 617 067f 8B85D8FD 		movl	-552(%rbp), %eax
 617      FFFF
 618 0685 4898     		cltq
 619 0687 899485F0 		movl	%edx, -272(%rbp,%rax,4)
 619      FEFFFF
 155:main.c        **** 			cipher_text[j] = cipher_text[j] ^ T32[j];
 620              		.loc 1 155 0 discriminator 3
 621 068e 8385D8FD 		addl	$1, -552(%rbp)
 621      FFFF01
 622              	.L34:
 155:main.c        **** 			cipher_text[j] = cipher_text[j] ^ T32[j];
 623              		.loc 1 155 0 is_stmt 0 discriminator 1
 624 0695 83BDD8FD 		cmpl	$31, -552(%rbp)
 624      FFFF1F
 625 069c 7EC1     		jle	.L35
 626              	.LBE11:
 157:main.c        **** 
 158:main.c        ****     // for (int j = 0; j < 32; ++j)
 159:main.c        ****     //  printf("%d", cipher_text[j]);
 160:main.c        ****     // printf("\n");
 161:main.c        **** 
 162:main.c        **** 		dec++;
 627              		.loc 1 162 0 is_stmt 1
 628 069e 8385CCFD 		addl	$1, -564(%rbp)
 628      FFFF01
 163:main.c        **** 		if(dec==16) dec = 0;
 629              		.loc 1 163 0
 630 06a5 83BDCCFD 		cmpl	$16, -564(%rbp)
 630      FFFF10
 631 06ac 750A     		jne	.L36
 632              		.loc 1 163 0 is_stmt 0 discriminator 1
 633 06ae C785CCFD 		movl	$0, -564(%rbp)
 633      FFFF0000 
 633      0000
 634              	.L36:
 164:main.c        **** 		decToBinary(dec, T, 4);
 635              		.loc 1 164 0 is_stmt 1 discriminator 2
 636 06b8 488D8DE0 		leaq	-544(%rbp), %rcx
 636      FDFFFF
 637 06bf 8B85CCFD 		movl	-564(%rbp), %eax
 637      FFFF
 638 06c5 BA040000 		movl	$4, %edx
 638      00
 639 06ca 4889CE   		movq	%rcx, %rsi
 640 06cd 89C7     		movl	%eax, %edi
 641 06cf E8000000 		call	decToBinary
 641      00
 145:main.c        **** 	{ 
 642              		.loc 1 145 0 discriminator 2
 643 06d4 8385D0FD 		addl	$1, -560(%rbp)
 643      FFFF01
 644              	.L31:
 145:main.c        **** 	{ 
 645              		.loc 1 145 0 is_stmt 0 discriminator 1
 646 06db 8B85D0FD 		movl	-560(%rbp), %eax
 646      FFFF
 647 06e1 3B85C0FD 		cmpl	-576(%rbp), %eax
 647      FFFF
 648 06e7 0F8CE1FE 		jl	.L37
 648      FFFF
 649              	.LBE9:
 650              	.LBB12:
 165:main.c        **** 	}
 166:main.c        **** 
 167:main.c        **** 	for (int i = 0; i < 32; ++i)
 651              		.loc 1 167 0 is_stmt 1
 652 06ed C785DCFD 		movl	$0, -548(%rbp)
 652      FFFF0000 
 652      0000
 653 06f7 EB32     		jmp	.L38
 654              	.L39:
 168:main.c        **** 		bin[i] = cipher_text[i];
 655              		.loc 1 168 0 discriminator 3
 656 06f9 8B85DCFD 		movl	-548(%rbp), %eax
 656      FFFF
 657 06ff 4898     		cltq
 658 0701 488D1485 		leaq	0(,%rax,4), %rdx
 658      00000000 
 659 0709 488B85A8 		movq	-600(%rbp), %rax
 659      FDFFFF
 660 0710 4801C2   		addq	%rax, %rdx
 661 0713 8B85DCFD 		movl	-548(%rbp), %eax
 661      FFFF
 662 0719 4898     		cltq
 663 071b 8B8485F0 		movl	-272(%rbp,%rax,4), %eax
 663      FEFFFF
 664 0722 8902     		movl	%eax, (%rdx)
 167:main.c        **** 		bin[i] = cipher_text[i];
 665              		.loc 1 167 0 discriminator 3
 666 0724 8385DCFD 		addl	$1, -548(%rbp)
 666      FFFF01
 667              	.L38:
 167:main.c        **** 		bin[i] = cipher_text[i];
 668              		.loc 1 167 0 is_stmt 0 discriminator 1
 669 072b 83BDDCFD 		cmpl	$31, -548(%rbp)
 669      FFFF1F
 670 0732 7EC5     		jle	.L39
 671              	.LBE12:
 169:main.c        **** }
 672              		.loc 1 169 0 is_stmt 1
 673 0734 90       		nop
 674 0735 488B45F8 		movq	-8(%rbp), %rax
 675 0739 64483304 		xorq	%fs:40, %rax
 675      25280000 
 675      00
 676 0742 7405     		je	.L40
 677 0744 E8000000 		call	__stack_chk_fail
 677      00
 678              	.L40:
 679 0749 C9       		leave
 680              		.cfi_def_cfa 7, 8
 681 074a C3       		ret
 682              		.cfi_endproc
 683              	.LFE9:
 685              		.globl	decrypter
 687              	decrypter:
 688              	.LFB10:
 170:main.c        **** 
 171:main.c        **** void decrypter(int P[], int K[], int bin[])
 172:main.c        **** {
 689              		.loc 1 172 0
 690              		.cfi_startproc
 691 074b 55       		pushq	%rbp
 692              		.cfi_def_cfa_offset 16
 693              		.cfi_offset 6, -16
 694 074c 4889E5   		movq	%rsp, %rbp
 695              		.cfi_def_cfa_register 6
 696 074f 4881EC60 		subq	$608, %rsp
 696      020000
 697 0756 4889BDB8 		movq	%rdi, -584(%rbp)
 697      FDFFFF
 698 075d 4889B5B0 		movq	%rsi, -592(%rbp)
 698      FDFFFF
 699 0764 488995A8 		movq	%rdx, -600(%rbp)
 699      FDFFFF
 700              		.loc 1 172 0
 701 076b 64488B04 		movq	%fs:40, %rax
 701      25280000 
 701      00
 702 0774 488945F8 		movq	%rax, -8(%rbp)
 703 0778 31C0     		xorl	%eax, %eax
 173:main.c        ****   //int plain_text[32];
 174:main.c        **** 	int key[32];
 175:main.c        **** 	int cipher_text[32];
 176:main.c        **** 	int T[4];
 177:main.c        **** 	int count1=0;
 704              		.loc 1 177 0
 705 077a C785C0FD 		movl	$0, -576(%rbp)
 705      FFFF0000 
 705      0000
 706              	.LBB13:
 178:main.c        **** 
 179:main.c        **** 	for (int i = 0; i < 32; ++i)
 707              		.loc 1 179 0
 708 0784 C785C4FD 		movl	$0, -572(%rbp)
 708      FFFF0000 
 708      0000
 709 078e E9840000 		jmp	.L42
 709      00
 710              	.L44:
 180:main.c        **** 	{
 181:main.c        **** 		cipher_text[i] = P[i];
 711              		.loc 1 181 0
 712 0793 8B85C4FD 		movl	-572(%rbp), %eax
 712      FFFF
 713 0799 4898     		cltq
 714 079b 488D1485 		leaq	0(,%rax,4), %rdx
 714      00000000 
 715 07a3 488B85B8 		movq	-584(%rbp), %rax
 715      FDFFFF
 716 07aa 4801D0   		addq	%rdx, %rax
 717 07ad 8B10     		movl	(%rax), %edx
 718 07af 8B85C4FD 		movl	-572(%rbp), %eax
 718      FFFF
 719 07b5 4898     		cltq
 720 07b7 899485F0 		movl	%edx, -272(%rbp,%rax,4)
 720      FEFFFF
 182:main.c        **** 		key[i] = K[i];
 721              		.loc 1 182 0
 722 07be 8B85C4FD 		movl	-572(%rbp), %eax
 722      FFFF
 723 07c4 4898     		cltq
 724 07c6 488D1485 		leaq	0(,%rax,4), %rdx
 724      00000000 
 725 07ce 488B85B0 		movq	-592(%rbp), %rax
 725      FDFFFF
 726 07d5 4801D0   		addq	%rdx, %rax
 727 07d8 8B10     		movl	(%rax), %edx
 728 07da 8B85C4FD 		movl	-572(%rbp), %eax
 728      FFFF
 729 07e0 4898     		cltq
 730 07e2 89948570 		movl	%edx, -400(%rbp,%rax,4)
 730      FEFFFF
 183:main.c        **** 		if(K[i] == 0) 
 731              		.loc 1 183 0
 732 07e9 8B85C4FD 		movl	-572(%rbp), %eax
 732      FFFF
 733 07ef 4898     		cltq
 734 07f1 488D1485 		leaq	0(,%rax,4), %rdx
 734      00000000 
 735 07f9 488B85B0 		movq	-592(%rbp), %rax
 735      FDFFFF
 736 0800 4801D0   		addq	%rdx, %rax
 737 0803 8B00     		movl	(%rax), %eax
 738 0805 85C0     		testl	%eax, %eax
 739 0807 7507     		jne	.L43
 184:main.c        **** 			count1++;
 740              		.loc 1 184 0
 741 0809 8385C0FD 		addl	$1, -576(%rbp)
 741      FFFF01
 742              	.L43:
 179:main.c        **** 	{
 743              		.loc 1 179 0 discriminator 2
 744 0810 8385C4FD 		addl	$1, -572(%rbp)
 744      FFFF01
 745              	.L42:
 179:main.c        **** 	{
 746              		.loc 1 179 0 is_stmt 0 discriminator 1
 747 0817 83BDC4FD 		cmpl	$31, -572(%rbp)
 747      FFFF1F
 748 081e 0F8E6FFF 		jle	.L44
 748      FFFF
 749              	.LBE13:
 750              	.LBB14:
 185:main.c        **** 	}
 186:main.c        **** 
 187:main.c        **** 	int arr0[8];
 188:main.c        **** 	int arr1[8];
 189:main.c        **** 	int arr2[8];
 190:main.c        **** 	int arr3[8];
 191:main.c        **** 
 192:main.c        **** 	for(int i=0; i<8; i++)
 751              		.loc 1 192 0 is_stmt 1
 752 0824 C785C8FD 		movl	$0, -568(%rbp)
 752      FFFF0000 
 752      0000
 753 082e E9940000 		jmp	.L45
 753      00
 754              	.L46:
 193:main.c        **** 	{
 194:main.c        **** 		arr0[i] = key[4*i];
 755              		.loc 1 194 0 discriminator 3
 756 0833 8B85C8FD 		movl	-568(%rbp), %eax
 756      FFFF
 757 0839 C1E002   		sall	$2, %eax
 758 083c 4898     		cltq
 759 083e 8B948570 		movl	-400(%rbp,%rax,4), %edx
 759      FEFFFF
 760 0845 8B85C8FD 		movl	-568(%rbp), %eax
 760      FFFF
 761 084b 4898     		cltq
 762 084d 899485F0 		movl	%edx, -528(%rbp,%rax,4)
 762      FDFFFF
 195:main.c        **** 		arr1[i] = key[4*i+1];
 763              		.loc 1 195 0 discriminator 3
 764 0854 8B85C8FD 		movl	-568(%rbp), %eax
 764      FFFF
 765 085a C1E002   		sall	$2, %eax
 766 085d 83C001   		addl	$1, %eax
 767 0860 4898     		cltq
 768 0862 8B948570 		movl	-400(%rbp,%rax,4), %edx
 768      FEFFFF
 769 0869 8B85C8FD 		movl	-568(%rbp), %eax
 769      FFFF
 770 086f 4898     		cltq
 771 0871 89948510 		movl	%edx, -496(%rbp,%rax,4)
 771      FEFFFF
 196:main.c        **** 		arr2[i] = key[4*i+2];
 772              		.loc 1 196 0 discriminator 3
 773 0878 8B85C8FD 		movl	-568(%rbp), %eax
 773      FFFF
 774 087e C1E002   		sall	$2, %eax
 775 0881 83C002   		addl	$2, %eax
 776 0884 4898     		cltq
 777 0886 8B948570 		movl	-400(%rbp,%rax,4), %edx
 777      FEFFFF
 778 088d 8B85C8FD 		movl	-568(%rbp), %eax
 778      FFFF
 779 0893 4898     		cltq
 780 0895 89948530 		movl	%edx, -464(%rbp,%rax,4)
 780      FEFFFF
 197:main.c        **** 		arr3[i] = key[4*i+3];
 781              		.loc 1 197 0 discriminator 3
 782 089c 8B85C8FD 		movl	-568(%rbp), %eax
 782      FFFF
 783 08a2 C1E002   		sall	$2, %eax
 784 08a5 83C003   		addl	$3, %eax
 785 08a8 4898     		cltq
 786 08aa 8B948570 		movl	-400(%rbp,%rax,4), %edx
 786      FEFFFF
 787 08b1 8B85C8FD 		movl	-568(%rbp), %eax
 787      FFFF
 788 08b7 4898     		cltq
 789 08b9 89948550 		movl	%edx, -432(%rbp,%rax,4)
 789      FEFFFF
 192:main.c        **** 	{
 790              		.loc 1 192 0 discriminator 3
 791 08c0 8385C8FD 		addl	$1, -568(%rbp)
 791      FFFF01
 792              	.L45:
 192:main.c        **** 	{
 793              		.loc 1 192 0 is_stmt 0 discriminator 1
 794 08c7 83BDC8FD 		cmpl	$7, -568(%rbp)
 794      FFFF07
 795 08ce 0F8E5FFF 		jle	.L46
 795      FFFF
 796              	.LBE14:
 198:main.c        **** 	}
 199:main.c        **** 
 200:main.c        **** 	T[0] = myxor(arr0);
 797              		.loc 1 200 0 is_stmt 1
 798 08d4 488D85F0 		leaq	-528(%rbp), %rax
 798      FDFFFF
 799 08db 4889C7   		movq	%rax, %rdi
 800 08de E8000000 		call	myxor
 800      00
 801 08e3 8985E0FD 		movl	%eax, -544(%rbp)
 801      FFFF
 201:main.c        **** 	T[1] = myxor(arr1);
 802              		.loc 1 201 0
 803 08e9 488D8510 		leaq	-496(%rbp), %rax
 803      FEFFFF
 804 08f0 4889C7   		movq	%rax, %rdi
 805 08f3 E8000000 		call	myxor
 805      00
 806 08f8 8985E4FD 		movl	%eax, -540(%rbp)
 806      FFFF
 202:main.c        **** 	T[2] = myxor(arr2);
 807              		.loc 1 202 0
 808 08fe 488D8530 		leaq	-464(%rbp), %rax
 808      FEFFFF
 809 0905 4889C7   		movq	%rax, %rdi
 810 0908 E8000000 		call	myxor
 810      00
 811 090d 8985E8FD 		movl	%eax, -536(%rbp)
 811      FFFF
 203:main.c        **** 	T[3] = myxor(arr3);
 812              		.loc 1 203 0
 813 0913 488D8550 		leaq	-432(%rbp), %rax
 813      FEFFFF
 814 091a 4889C7   		movq	%rax, %rdi
 815 091d E8000000 		call	myxor
 815      00
 816 0922 8985ECFD 		movl	%eax, -532(%rbp)
 816      FFFF
 204:main.c        **** 
 205:main.c        **** 	int T32[32];
 206:main.c        **** 	int dec = bitArrayToInt(T, 4);
 817              		.loc 1 206 0
 818 0928 488D85E0 		leaq	-544(%rbp), %rax
 818      FDFFFF
 819 092f BE040000 		movl	$4, %esi
 819      00
 820 0934 4889C7   		movq	%rax, %rdi
 821 0937 E8000000 		call	bitArrayToInt
 821      00
 822 093c 8985CCFD 		movl	%eax, -564(%rbp)
 822      FFFF
 207:main.c        **** 	dec = (dec+15)%16;
 823              		.loc 1 207 0
 824 0942 8B85CCFD 		movl	-564(%rbp), %eax
 824      FFFF
 825 0948 8D500F   		leal	15(%rax), %edx
 826 094b 89D0     		movl	%edx, %eax
 827 094d C1F81F   		sarl	$31, %eax
 828 0950 C1E81C   		shrl	$28, %eax
 829 0953 01C2     		addl	%eax, %edx
 830 0955 83E20F   		andl	$15, %edx
 831 0958 29C2     		subl	%eax, %edx
 832 095a 89D0     		movl	%edx, %eax
 833 095c 8985CCFD 		movl	%eax, -564(%rbp)
 833      FFFF
 208:main.c        **** 	decToBinary(dec, T, 4);
 834              		.loc 1 208 0
 835 0962 488D8DE0 		leaq	-544(%rbp), %rcx
 835      FDFFFF
 836 0969 8B85CCFD 		movl	-564(%rbp), %eax
 836      FFFF
 837 096f BA040000 		movl	$4, %edx
 837      00
 838 0974 4889CE   		movq	%rcx, %rsi
 839 0977 89C7     		movl	%eax, %edi
 840 0979 E8000000 		call	decToBinary
 840      00
 841              	.LBB15:
 209:main.c        **** 
 210:main.c        **** 	for (int i = 0; i < count1; ++i)
 842              		.loc 1 210 0
 843 097e C785D0FD 		movl	$0, -560(%rbp)
 843      FFFF0000 
 843      0000
 844 0988 E9130100 		jmp	.L47
 844      00
 845              	.L52:
 846              	.LBB16:
 211:main.c        **** 	{ 
 212:main.c        **** 		for (int j = 0; j < 8; j++)
 847              		.loc 1 212 0
 848 098d C785D4FD 		movl	$0, -556(%rbp)
 848      FFFF0000 
 848      0000
 849 0997 EB70     		jmp	.L48
 850              	.L49:
 213:main.c        **** 		{
 214:main.c        **** 			T32[4*j] = T[0];
 851              		.loc 1 214 0 discriminator 3
 852 0999 8B85D4FD 		movl	-556(%rbp), %eax
 852      FFFF
 853 099f C1E002   		sall	$2, %eax
 854 09a2 8B95E0FD 		movl	-544(%rbp), %edx
 854      FFFF
 855 09a8 4898     		cltq
 856 09aa 89948570 		movl	%edx, -144(%rbp,%rax,4)
 856      FFFFFF
 215:main.c        **** 			T32[4*j+1] = T[1];
 857              		.loc 1 215 0 discriminator 3
 858 09b1 8B85D4FD 		movl	-556(%rbp), %eax
 858      FFFF
 859 09b7 C1E002   		sall	$2, %eax
 860 09ba 83C001   		addl	$1, %eax
 861 09bd 8B95E4FD 		movl	-540(%rbp), %edx
 861      FFFF
 862 09c3 4898     		cltq
 863 09c5 89948570 		movl	%edx, -144(%rbp,%rax,4)
 863      FFFFFF
 216:main.c        **** 			T32[4*j+2] = T[2];
 864              		.loc 1 216 0 discriminator 3
 865 09cc 8B85D4FD 		movl	-556(%rbp), %eax
 865      FFFF
 866 09d2 C1E002   		sall	$2, %eax
 867 09d5 83C002   		addl	$2, %eax
 868 09d8 8B95E8FD 		movl	-536(%rbp), %edx
 868      FFFF
 869 09de 4898     		cltq
 870 09e0 89948570 		movl	%edx, -144(%rbp,%rax,4)
 870      FFFFFF
 217:main.c        **** 			T32[4*j+3] = T[3];
 871              		.loc 1 217 0 discriminator 3
 872 09e7 8B85D4FD 		movl	-556(%rbp), %eax
 872      FFFF
 873 09ed C1E002   		sall	$2, %eax
 874 09f0 83C003   		addl	$3, %eax
 875 09f3 8B95ECFD 		movl	-532(%rbp), %edx
 875      FFFF
 876 09f9 4898     		cltq
 877 09fb 89948570 		movl	%edx, -144(%rbp,%rax,4)
 877      FFFFFF
 212:main.c        **** 		{
 878              		.loc 1 212 0 discriminator 3
 879 0a02 8385D4FD 		addl	$1, -556(%rbp)
 879      FFFF01
 880              	.L48:
 212:main.c        **** 		{
 881              		.loc 1 212 0 is_stmt 0 discriminator 1
 882 0a09 83BDD4FD 		cmpl	$7, -556(%rbp)
 882      FFFF07
 883 0a10 7E87     		jle	.L49
 884              	.LBE16:
 885              	.LBB17:
 218:main.c        **** 		}
 219:main.c        **** 
 220:main.c        **** 		for (int j = 0; j < 32; ++j)
 886              		.loc 1 220 0 is_stmt 1
 887 0a12 C785D8FD 		movl	$0, -552(%rbp)
 887      FFFF0000 
 887      0000
 888 0a1c EB36     		jmp	.L50
 889              	.L51:
 221:main.c        **** 			cipher_text[j] = cipher_text[j] ^ T32[j];
 890              		.loc 1 221 0 discriminator 3
 891 0a1e 8B85D8FD 		movl	-552(%rbp), %eax
 891      FFFF
 892 0a24 4898     		cltq
 893 0a26 8B9485F0 		movl	-272(%rbp,%rax,4), %edx
 893      FEFFFF
 894 0a2d 8B85D8FD 		movl	-552(%rbp), %eax
 894      FFFF
 895 0a33 4898     		cltq
 896 0a35 8B848570 		movl	-144(%rbp,%rax,4), %eax
 896      FFFFFF
 897 0a3c 31C2     		xorl	%eax, %edx
 898 0a3e 8B85D8FD 		movl	-552(%rbp), %eax
 898      FFFF
 899 0a44 4898     		cltq
 900 0a46 899485F0 		movl	%edx, -272(%rbp,%rax,4)
 900      FEFFFF
 220:main.c        **** 			cipher_text[j] = cipher_text[j] ^ T32[j];
 901              		.loc 1 220 0 discriminator 3
 902 0a4d 8385D8FD 		addl	$1, -552(%rbp)
 902      FFFF01
 903              	.L50:
 220:main.c        **** 			cipher_text[j] = cipher_text[j] ^ T32[j];
 904              		.loc 1 220 0 is_stmt 0 discriminator 1
 905 0a54 83BDD8FD 		cmpl	$31, -552(%rbp)
 905      FFFF1F
 906 0a5b 7EC1     		jle	.L51
 907              	.LBE17:
 222:main.c        **** 
 223:main.c        **** 		dec=(dec+15)%16;
 908              		.loc 1 223 0 is_stmt 1 discriminator 2
 909 0a5d 8B85CCFD 		movl	-564(%rbp), %eax
 909      FFFF
 910 0a63 8D500F   		leal	15(%rax), %edx
 911 0a66 89D0     		movl	%edx, %eax
 912 0a68 C1F81F   		sarl	$31, %eax
 913 0a6b C1E81C   		shrl	$28, %eax
 914 0a6e 01C2     		addl	%eax, %edx
 915 0a70 83E20F   		andl	$15, %edx
 916 0a73 29C2     		subl	%eax, %edx
 917 0a75 89D0     		movl	%edx, %eax
 918 0a77 8985CCFD 		movl	%eax, -564(%rbp)
 918      FFFF
 224:main.c        **** 		decToBinary(dec, T, 4);
 919              		.loc 1 224 0 discriminator 2
 920 0a7d 488D8DE0 		leaq	-544(%rbp), %rcx
 920      FDFFFF
 921 0a84 8B85CCFD 		movl	-564(%rbp), %eax
 921      FFFF
 922 0a8a BA040000 		movl	$4, %edx
 922      00
 923 0a8f 4889CE   		movq	%rcx, %rsi
 924 0a92 89C7     		movl	%eax, %edi
 925 0a94 E8000000 		call	decToBinary
 925      00
 210:main.c        **** 	{ 
 926              		.loc 1 210 0 discriminator 2
 927 0a99 8385D0FD 		addl	$1, -560(%rbp)
 927      FFFF01
 928              	.L47:
 210:main.c        **** 	{ 
 929              		.loc 1 210 0 is_stmt 0 discriminator 1
 930 0aa0 8B85D0FD 		movl	-560(%rbp), %eax
 930      FFFF
 931 0aa6 3B85C0FD 		cmpl	-576(%rbp), %eax
 931      FFFF
 932 0aac 0F8CDBFE 		jl	.L52
 932      FFFF
 933              	.LBE15:
 934              	.LBB18:
 225:main.c        **** 	}
 226:main.c        **** 
 227:main.c        **** 	for (int i = 0; i < 32; ++i)
 935              		.loc 1 227 0 is_stmt 1
 936 0ab2 C785DCFD 		movl	$0, -548(%rbp)
 936      FFFF0000 
 936      0000
 937 0abc EB32     		jmp	.L53
 938              	.L54:
 228:main.c        **** 		bin[i] = cipher_text[i];
 939              		.loc 1 228 0 discriminator 3
 940 0abe 8B85DCFD 		movl	-548(%rbp), %eax
 940      FFFF
 941 0ac4 4898     		cltq
 942 0ac6 488D1485 		leaq	0(,%rax,4), %rdx
 942      00000000 
 943 0ace 488B85A8 		movq	-600(%rbp), %rax
 943      FDFFFF
 944 0ad5 4801C2   		addq	%rax, %rdx
 945 0ad8 8B85DCFD 		movl	-548(%rbp), %eax
 945      FFFF
 946 0ade 4898     		cltq
 947 0ae0 8B8485F0 		movl	-272(%rbp,%rax,4), %eax
 947      FEFFFF
 948 0ae7 8902     		movl	%eax, (%rdx)
 227:main.c        **** 		bin[i] = cipher_text[i];
 949              		.loc 1 227 0 discriminator 3
 950 0ae9 8385DCFD 		addl	$1, -548(%rbp)
 950      FFFF01
 951              	.L53:
 227:main.c        **** 		bin[i] = cipher_text[i];
 952              		.loc 1 227 0 is_stmt 0 discriminator 1
 953 0af0 83BDDCFD 		cmpl	$31, -548(%rbp)
 953      FFFF1F
 954 0af7 7EC5     		jle	.L54
 955              	.LBE18:
 229:main.c        **** }
 956              		.loc 1 229 0 is_stmt 1
 957 0af9 90       		nop
 958 0afa 488B45F8 		movq	-8(%rbp), %rax
 959 0afe 64483304 		xorq	%fs:40, %rax
 959      25280000 
 959      00
 960 0b07 7405     		je	.L55
 961 0b09 E8000000 		call	__stack_chk_fail
 961      00
 962              	.L55:
 963 0b0e C9       		leave
 964              		.cfi_def_cfa 7, 8
 965 0b0f C3       		ret
 966              		.cfi_endproc
 967              	.LFE10:
 969              		.globl	convert_to_binary
 971              	convert_to_binary:
 972              	.LFB11:
 230:main.c        **** 
 231:main.c        **** 
 232:main.c        **** void convert_to_binary(int co_ordinates[8], unsigned int* buff)
 233:main.c        **** {  
 973              		.loc 1 233 0
 974              		.cfi_startproc
 975 0b10 55       		pushq	%rbp
 976              		.cfi_def_cfa_offset 16
 977              		.cfi_offset 6, -16
 978 0b11 4889E5   		movq	%rsp, %rbp
 979              		.cfi_def_cfa_register 6
 980 0b14 48897DE8 		movq	%rdi, -24(%rbp)
 981 0b18 488975E0 		movq	%rsi, -32(%rbp)
 234:main.c        **** 	int arb = 0;
 982              		.loc 1 234 0
 983 0b1c C745FC00 		movl	$0, -4(%rbp)
 983      000000
 235:main.c        **** 	int i = 7;
 984              		.loc 1 235 0
 985 0b23 C745F807 		movl	$7, -8(%rbp)
 985      000000
 236:main.c        **** 	while(buff[0]!=0)
 986              		.loc 1 236 0
 987 0b2a EB39     		jmp	.L57
 988              	.L58:
 237:main.c        **** 	{  //printf("%s\n", "Running");
 238:main.c        **** arb = buff[0] % 2;
 989              		.loc 1 238 0
 990 0b2c 488B45E0 		movq	-32(%rbp), %rax
 991 0b30 8B00     		movl	(%rax), %eax
 992 0b32 83E001   		andl	$1, %eax
 993 0b35 8945FC   		movl	%eax, -4(%rbp)
 239:main.c        **** buff[0] = buff[0]/2;
 994              		.loc 1 239 0
 995 0b38 488B45E0 		movq	-32(%rbp), %rax
 996 0b3c 8B00     		movl	(%rax), %eax
 997 0b3e D1E8     		shrl	%eax
 998 0b40 89C2     		movl	%eax, %edx
 999 0b42 488B45E0 		movq	-32(%rbp), %rax
 1000 0b46 8910     		movl	%edx, (%rax)
 240:main.c        **** co_ordinates[i] = arb;
 1001              		.loc 1 240 0
 1002 0b48 8B45F8   		movl	-8(%rbp), %eax
 1003 0b4b 4898     		cltq
 1004 0b4d 488D1485 		leaq	0(,%rax,4), %rdx
 1004      00000000 
 1005 0b55 488B45E8 		movq	-24(%rbp), %rax
 1006 0b59 4801C2   		addq	%rax, %rdx
 1007 0b5c 8B45FC   		movl	-4(%rbp), %eax
 1008 0b5f 8902     		movl	%eax, (%rdx)
 241:main.c        **** i--;	
 1009              		.loc 1 241 0
 1010 0b61 836DF801 		subl	$1, -8(%rbp)
 1011              	.L57:
 236:main.c        **** 	{  //printf("%s\n", "Running");
 1012              		.loc 1 236 0
 1013 0b65 488B45E0 		movq	-32(%rbp), %rax
 1014 0b69 8B00     		movl	(%rax), %eax
 1015 0b6b 85C0     		testl	%eax, %eax
 1016 0b6d 75BD     		jne	.L58
 242:main.c        **** }
 243:main.c        **** }
 1017              		.loc 1 243 0
 1018 0b6f 90       		nop
 1019 0b70 5D       		popq	%rbp
 1020              		.cfi_def_cfa 7, 8
 1021 0b71 C3       		ret
 1022              		.cfi_endproc
 1023              	.LFE11:
 1025              		.section	.rodata
 1026              	.LC1:
 1027 0000 4572726F 		.string	"Error, not Running"
 1027      722C206E 
 1027      6F742052 
 1027      756E6E69 
 1027      6E6700
 1028              	.LC2:
 1029 0013 54686520 		.string	"The x and y"
 1029      7820616E 
 1029      64207900 
 1030              	.LC3:
 1031 001f 2025642C 		.string	" %d,%d,%d,%d,%d"
 1031      25642C25 
 1031      642C2564 
 1031      2C256400 
 1032 002f 00       		.align 16
 1033              	.LC0:
 1034 0030 303030   		.ascii	"000"
 1035 0033 303031   		.ascii	"001"
 1036 0036 303130   		.ascii	"010"
 1037 0039 303131   		.ascii	"011"
 1038 003c 313030   		.ascii	"100"
 1039 003f 313031   		.ascii	"101"
 1040 0042 313130   		.ascii	"110"
 1041 0045 313131   		.ascii	"111"
 1042              		.text
 1043              		.globl	print
 1045              	print:
 1046              	.LFB12:
 244:main.c        **** 
 245:main.c        **** void print(int x_cord, int y_cord, int final_arr[8][8], FILE * fp)
 246:main.c        **** {
 1047              		.loc 1 246 0
 1048              		.cfi_startproc
 1049 0b72 55       		pushq	%rbp
 1050              		.cfi_def_cfa_offset 16
 1051              		.cfi_offset 6, -16
 1052 0b73 4889E5   		movq	%rsp, %rbp
 1053              		.cfi_def_cfa_register 6
 1054 0b76 4881EC20 		subq	$288, %rsp
 1054      010000
 1055 0b7d 89BDFCFE 		movl	%edi, -260(%rbp)
 1055      FFFF
 1056 0b83 89B5F8FE 		movl	%esi, -264(%rbp)
 1056      FFFF
 1057 0b89 488995F0 		movq	%rdx, -272(%rbp)
 1057      FEFFFF
 1058 0b90 48898DE8 		movq	%rcx, -280(%rbp)
 1058      FEFFFF
 1059              		.loc 1 246 0
 1060 0b97 64488B04 		movq	%fs:40, %rax
 1060      25280000 
 1060      00
 1061 0ba0 488945F8 		movq	%rax, -8(%rbp)
 1062 0ba4 31C0     		xorl	%eax, %eax
 247:main.c        **** 
 248:main.c        **** 	int arr[8][5];
 249:main.c        **** 	int count = 0;
 1063              		.loc 1 249 0
 1064 0ba6 C78514FF 		movl	$0, -236(%rbp)
 1064      FFFF0000 
 1064      0000
 250:main.c        **** 	//printf("%s\n", "The x and y ");
 251:main.c        **** 
 252:main.c        **** 	char conversion[8][3] = {"000","001","010","011","100","101","110","111"};
 1065              		.loc 1 252 0
 1066 0bb0 488B0500 		movq	.LC0(%rip), %rax
 1066      000000
 1067 0bb7 48898530 		movq	%rax, -208(%rbp)
 1067      FFFFFF
 1068 0bbe 488B0500 		movq	.LC0+8(%rip), %rax
 1068      000000
 1069 0bc5 48898538 		movq	%rax, -200(%rbp)
 1069      FFFFFF
 1070 0bcc 488B0500 		movq	.LC0+16(%rip), %rax
 1070      000000
 1071 0bd3 48898540 		movq	%rax, -192(%rbp)
 1071      FFFFFF
 1072              	.LBB19:
 253:main.c        **** 
 254:main.c        **** 	for (int i = 0; i < 8; i++)
 1073              		.loc 1 254 0
 1074 0bda C78518FF 		movl	$0, -232(%rbp)
 1074      FFFF0000 
 1074      0000
 1075 0be4 E9E50000 		jmp	.L60
 1075      00
 1076              	.L61:
 255:main.c        **** 	{
 256:main.c        **** 		arr[i][0] = -1;
 1077              		.loc 1 256 0 discriminator 3
 1078 0be9 8B8518FF 		movl	-232(%rbp), %eax
 1078      FFFF
 1079 0bef 4863D0   		movslq	%eax, %rdx
 1080 0bf2 4889D0   		movq	%rdx, %rax
 1081 0bf5 48C1E002 		salq	$2, %rax
 1082 0bf9 4801D0   		addq	%rdx, %rax
 1083 0bfc 48C1E002 		salq	$2, %rax
 1084 0c00 4801E8   		addq	%rbp, %rax
 1085 0c03 482DB000 		subq	$176, %rax
 1085      0000
 1086 0c09 C700FFFF 		movl	$-1, (%rax)
 1086      FFFF
 257:main.c        **** 		arr[i][1] = -1;
 1087              		.loc 1 257 0 discriminator 3
 1088 0c0f 8B8518FF 		movl	-232(%rbp), %eax
 1088      FFFF
 1089 0c15 4863D0   		movslq	%eax, %rdx
 1090 0c18 4889D0   		movq	%rdx, %rax
 1091 0c1b 48C1E002 		salq	$2, %rax
 1092 0c1f 4801D0   		addq	%rdx, %rax
 1093 0c22 48C1E002 		salq	$2, %rax
 1094 0c26 4801E8   		addq	%rbp, %rax
 1095 0c29 482DAC00 		subq	$172, %rax
 1095      0000
 1096 0c2f C700FFFF 		movl	$-1, (%rax)
 1096      FFFF
 258:main.c        **** 		arr[i][2] = -1;
 1097              		.loc 1 258 0 discriminator 3
 1098 0c35 8B8518FF 		movl	-232(%rbp), %eax
 1098      FFFF
 1099 0c3b 4863D0   		movslq	%eax, %rdx
 1100 0c3e 4889D0   		movq	%rdx, %rax
 1101 0c41 48C1E002 		salq	$2, %rax
 1102 0c45 4801D0   		addq	%rdx, %rax
 1103 0c48 48C1E002 		salq	$2, %rax
 1104 0c4c 4801E8   		addq	%rbp, %rax
 1105 0c4f 482DA800 		subq	$168, %rax
 1105      0000
 1106 0c55 C700FFFF 		movl	$-1, (%rax)
 1106      FFFF
 259:main.c        **** 		arr[i][3] = -1;
 1107              		.loc 1 259 0 discriminator 3
 1108 0c5b 8B8518FF 		movl	-232(%rbp), %eax
 1108      FFFF
 1109 0c61 4863D0   		movslq	%eax, %rdx
 1110 0c64 4889D0   		movq	%rdx, %rax
 1111 0c67 48C1E002 		salq	$2, %rax
 1112 0c6b 4801D0   		addq	%rdx, %rax
 1113 0c6e 48C1E002 		salq	$2, %rax
 1114 0c72 4801E8   		addq	%rbp, %rax
 1115 0c75 482DA400 		subq	$164, %rax
 1115      0000
 1116 0c7b C700FFFF 		movl	$-1, (%rax)
 1116      FFFF
 260:main.c        **** 		arr[i][4] = -1;
 1117              		.loc 1 260 0 discriminator 3
 1118 0c81 8B8518FF 		movl	-232(%rbp), %eax
 1118      FFFF
 1119 0c87 4863D0   		movslq	%eax, %rdx
 1120 0c8a 4889D0   		movq	%rdx, %rax
 1121 0c8d 48C1E002 		salq	$2, %rax
 1122 0c91 4801D0   		addq	%rdx, %rax
 1123 0c94 48C1E002 		salq	$2, %rax
 1124 0c98 4801E8   		addq	%rbp, %rax
 1125 0c9b 482DA000 		subq	$160, %rax
 1125      0000
 1126 0ca1 C700FFFF 		movl	$-1, (%rax)
 1126      FFFF
 261:main.c        **** 		final_arr[i][7] = -1;
 1127              		.loc 1 261 0 discriminator 3
 1128 0ca7 8B8518FF 		movl	-232(%rbp), %eax
 1128      FFFF
 1129 0cad 4898     		cltq
 1130 0caf 48C1E005 		salq	$5, %rax
 1131 0cb3 4889C2   		movq	%rax, %rdx
 1132 0cb6 488B85F0 		movq	-272(%rbp), %rax
 1132      FEFFFF
 1133 0cbd 4801D0   		addq	%rdx, %rax
 1134 0cc0 C7401CFF 		movl	$-1, 28(%rax)
 1134      FFFFFF
 254:main.c        **** 	{
 1135              		.loc 1 254 0 discriminator 3
 1136 0cc7 838518FF 		addl	$1, -232(%rbp)
 1136      FFFF01
 1137              	.L60:
 254:main.c        **** 	{
 1138              		.loc 1 254 0 is_stmt 0 discriminator 1
 1139 0cce 83BD18FF 		cmpl	$7, -232(%rbp)
 1139      FFFF07
 1140 0cd5 0F8E0EFF 		jle	.L61
 1140      FFFF
 1141              	.LBE19:
 262:main.c        **** 	}
 263:main.c        **** 
 264:main.c        **** 	if(fp == NULL)
 1142              		.loc 1 264 0 is_stmt 1
 1143 0cdb 4883BDE8 		cmpq	$0, -280(%rbp)
 1143      FEFFFF00 
 1144 0ce3 751E     		jne	.L62
 265:main.c        **** 	{
 266:main.c        **** 		fprintf(stderr, "Error, not Running" );
 1145              		.loc 1 266 0
 1146 0ce5 488B0500 		movq	stderr(%rip), %rax
 1146      000000
 1147 0cec 4889C1   		movq	%rax, %rcx
 1148 0cef BA120000 		movl	$18, %edx
 1148      00
 1149 0cf4 BE010000 		movl	$1, %esi
 1149      00
 1150 0cf9 BF000000 		movl	$.LC1, %edi
 1150      00
 1151 0cfe E8000000 		call	fwrite
 1151      00
 1152              	.L62:
 267:main.c        **** 	}
 268:main.c        **** 	int a,b,c,d,e;
 269:main.c        **** 	printf("%s\n", "The x and y");
 1153              		.loc 1 269 0
 1154 0d03 BF000000 		movl	$.LC2, %edi
 1154      00
 1155 0d08 E8000000 		call	puts
 1155      00
 270:main.c        **** 	while (fscanf(fp, " %d,%d,%d,%d,%d", &a, &b,&c,&d,&e) == 5) {
 1156              		.loc 1 270 0
 1157 0d0d E9F50000 		jmp	.L63
 1157      00
 1158              	.L64:
 271:main.c        **** 
 272:main.c        **** 		if(a==x_cord && b==y_cord)
 1159              		.loc 1 272 0
 1160 0d12 8B8500FF 		movl	-256(%rbp), %eax
 1160      FFFF
 1161 0d18 3B85FCFE 		cmpl	-260(%rbp), %eax
 1161      FFFF
 1162 0d1e 0F85E300 		jne	.L63
 1162      0000
 1163              		.loc 1 272 0 is_stmt 0 discriminator 1
 1164 0d24 8B8504FF 		movl	-252(%rbp), %eax
 1164      FFFF
 1165 0d2a 3B85F8FE 		cmpl	-264(%rbp), %eax
 1165      FFFF
 1166 0d30 0F85D100 		jne	.L63
 1166      0000
 273:main.c        **** 		{
 274:main.c        **** 			arr[c][0] = x_cord;
 1167              		.loc 1 274 0 is_stmt 1
 1168 0d36 8B8508FF 		movl	-248(%rbp), %eax
 1168      FFFF
 1169 0d3c 4863D0   		movslq	%eax, %rdx
 1170 0d3f 4889D0   		movq	%rdx, %rax
 1171 0d42 48C1E002 		salq	$2, %rax
 1172 0d46 4801D0   		addq	%rdx, %rax
 1173 0d49 48C1E002 		salq	$2, %rax
 1174 0d4d 4801E8   		addq	%rbp, %rax
 1175 0d50 488D9050 		leaq	-176(%rax), %rdx
 1175      FFFFFF
 1176 0d57 8B85FCFE 		movl	-260(%rbp), %eax
 1176      FFFF
 1177 0d5d 8902     		movl	%eax, (%rdx)
 275:main.c        **** 			arr[c][1] = y_cord;
 1178              		.loc 1 275 0
 1179 0d5f 8B8508FF 		movl	-248(%rbp), %eax
 1179      FFFF
 1180 0d65 4863D0   		movslq	%eax, %rdx
 1181 0d68 4889D0   		movq	%rdx, %rax
 1182 0d6b 48C1E002 		salq	$2, %rax
 1183 0d6f 4801D0   		addq	%rdx, %rax
 1184 0d72 48C1E002 		salq	$2, %rax
 1185 0d76 4801E8   		addq	%rbp, %rax
 1186 0d79 488D9054 		leaq	-172(%rax), %rdx
 1186      FFFFFF
 1187 0d80 8B85F8FE 		movl	-264(%rbp), %eax
 1187      FFFF
 1188 0d86 8902     		movl	%eax, (%rdx)
 276:main.c        **** 			arr[c][2] = c;
 1189              		.loc 1 276 0
 1190 0d88 8B8508FF 		movl	-248(%rbp), %eax
 1190      FFFF
 1191 0d8e 8B8D08FF 		movl	-248(%rbp), %ecx
 1191      FFFF
 1192 0d94 4863D0   		movslq	%eax, %rdx
 1193 0d97 4889D0   		movq	%rdx, %rax
 1194 0d9a 48C1E002 		salq	$2, %rax
 1195 0d9e 4801D0   		addq	%rdx, %rax
 1196 0da1 48C1E002 		salq	$2, %rax
 1197 0da5 4801E8   		addq	%rbp, %rax
 1198 0da8 482DA800 		subq	$168, %rax
 1198      0000
 1199 0dae 8908     		movl	%ecx, (%rax)
 277:main.c        **** 			arr[c][3] = d;
 1200              		.loc 1 277 0
 1201 0db0 8B8508FF 		movl	-248(%rbp), %eax
 1201      FFFF
 1202 0db6 8B8D0CFF 		movl	-244(%rbp), %ecx
 1202      FFFF
 1203 0dbc 4863D0   		movslq	%eax, %rdx
 1204 0dbf 4889D0   		movq	%rdx, %rax
 1205 0dc2 48C1E002 		salq	$2, %rax
 1206 0dc6 4801D0   		addq	%rdx, %rax
 1207 0dc9 48C1E002 		salq	$2, %rax
 1208 0dcd 4801E8   		addq	%rbp, %rax
 1209 0dd0 482DA400 		subq	$164, %rax
 1209      0000
 1210 0dd6 8908     		movl	%ecx, (%rax)
 278:main.c        **** 			arr[c][4] = e;
 1211              		.loc 1 278 0
 1212 0dd8 8B8508FF 		movl	-248(%rbp), %eax
 1212      FFFF
 1213 0dde 8B8D10FF 		movl	-240(%rbp), %ecx
 1213      FFFF
 1214 0de4 4863D0   		movslq	%eax, %rdx
 1215 0de7 4889D0   		movq	%rdx, %rax
 1216 0dea 48C1E002 		salq	$2, %rax
 1217 0dee 4801D0   		addq	%rdx, %rax
 1218 0df1 48C1E002 		salq	$2, %rax
 1219 0df5 4801E8   		addq	%rbp, %rax
 1220 0df8 482DA000 		subq	$160, %rax
 1220      0000
 1221 0dfe 8908     		movl	%ecx, (%rax)
 279:main.c        **** 			count++;
 1222              		.loc 1 279 0
 1223 0e00 838514FF 		addl	$1, -236(%rbp)
 1223      FFFF01
 1224              	.L63:
 270:main.c        **** 
 1225              		.loc 1 270 0
 1226 0e07 4C8D850C 		leaq	-244(%rbp), %r8
 1226      FFFFFF
 1227 0e0e 488DBD08 		leaq	-248(%rbp), %rdi
 1227      FFFFFF
 1228 0e15 488D8D04 		leaq	-252(%rbp), %rcx
 1228      FFFFFF
 1229 0e1c 488D9500 		leaq	-256(%rbp), %rdx
 1229      FFFFFF
 1230 0e23 488B85E8 		movq	-280(%rbp), %rax
 1230      FEFFFF
 1231 0e2a 4883EC08 		subq	$8, %rsp
 1232 0e2e 488DB510 		leaq	-240(%rbp), %rsi
 1232      FFFFFF
 1233 0e35 56       		pushq	%rsi
 1234 0e36 4D89C1   		movq	%r8, %r9
 1235 0e39 4989F8   		movq	%rdi, %r8
 1236 0e3c BE000000 		movl	$.LC3, %esi
 1236      00
 1237 0e41 4889C7   		movq	%rax, %rdi
 1238 0e44 B8000000 		movl	$0, %eax
 1238      00
 1239 0e49 E8000000 		call	__isoc99_fscanf
 1239      00
 1240 0e4e 4883C410 		addq	$16, %rsp
 1241 0e52 83F805   		cmpl	$5, %eax
 1242 0e55 0F84B7FE 		je	.L64
 1242      FFFF
 1243              	.LBB20:
 280:main.c        **** 
 281:main.c        **** 		}
 282:main.c        **** 
 283:main.c        **** 	}
 284:main.c        **** 
 285:main.c        **** 	for (int i = 0; i < 8; i++)
 1244              		.loc 1 285 0
 1245 0e5b C7851CFF 		movl	$0, -228(%rbp)
 1245      FFFF0000 
 1245      0000
 1246 0e65 E9C50100 		jmp	.L65
 1246      00
 1247              	.L67:
 286:main.c        **** 	{
 287:main.c        **** 		if(arr[i][0] == -1 && arr[i][1] == -1 && arr[i][2] == -1 && arr[i][3] == -1 && arr[i][4] == -1)
 1248              		.loc 1 287 0
 1249 0e6a 8B851CFF 		movl	-228(%rbp), %eax
 1249      FFFF
 1250 0e70 4863D0   		movslq	%eax, %rdx
 1251 0e73 4889D0   		movq	%rdx, %rax
 1252 0e76 48C1E002 		salq	$2, %rax
 1253 0e7a 4801D0   		addq	%rdx, %rax
 1254 0e7d 48C1E002 		salq	$2, %rax
 1255 0e81 4801E8   		addq	%rbp, %rax
 1256 0e84 482DB000 		subq	$176, %rax
 1256      0000
 1257 0e8a 8B00     		movl	(%rax), %eax
 1258 0e8c 83F8FF   		cmpl	$-1, %eax
 1259 0e8f 0F859301 		jne	.L66
 1259      0000
 1260              		.loc 1 287 0 is_stmt 0 discriminator 1
 1261 0e95 8B851CFF 		movl	-228(%rbp), %eax
 1261      FFFF
 1262 0e9b 4863D0   		movslq	%eax, %rdx
 1263 0e9e 4889D0   		movq	%rdx, %rax
 1264 0ea1 48C1E002 		salq	$2, %rax
 1265 0ea5 4801D0   		addq	%rdx, %rax
 1266 0ea8 48C1E002 		salq	$2, %rax
 1267 0eac 4801E8   		addq	%rbp, %rax
 1268 0eaf 482DAC00 		subq	$172, %rax
 1268      0000
 1269 0eb5 8B00     		movl	(%rax), %eax
 1270 0eb7 83F8FF   		cmpl	$-1, %eax
 1271 0eba 0F856801 		jne	.L66
 1271      0000
 1272              		.loc 1 287 0 discriminator 2
 1273 0ec0 8B851CFF 		movl	-228(%rbp), %eax
 1273      FFFF
 1274 0ec6 4863D0   		movslq	%eax, %rdx
 1275 0ec9 4889D0   		movq	%rdx, %rax
 1276 0ecc 48C1E002 		salq	$2, %rax
 1277 0ed0 4801D0   		addq	%rdx, %rax
 1278 0ed3 48C1E002 		salq	$2, %rax
 1279 0ed7 4801E8   		addq	%rbp, %rax
 1280 0eda 482DA800 		subq	$168, %rax
 1280      0000
 1281 0ee0 8B00     		movl	(%rax), %eax
 1282 0ee2 83F8FF   		cmpl	$-1, %eax
 1283 0ee5 0F853D01 		jne	.L66
 1283      0000
 1284              		.loc 1 287 0 discriminator 3
 1285 0eeb 8B851CFF 		movl	-228(%rbp), %eax
 1285      FFFF
 1286 0ef1 4863D0   		movslq	%eax, %rdx
 1287 0ef4 4889D0   		movq	%rdx, %rax
 1288 0ef7 48C1E002 		salq	$2, %rax
 1289 0efb 4801D0   		addq	%rdx, %rax
 1290 0efe 48C1E002 		salq	$2, %rax
 1291 0f02 4801E8   		addq	%rbp, %rax
 1292 0f05 482DA400 		subq	$164, %rax
 1292      0000
 1293 0f0b 8B00     		movl	(%rax), %eax
 1294 0f0d 83F8FF   		cmpl	$-1, %eax
 1295 0f10 0F851201 		jne	.L66
 1295      0000
 1296              		.loc 1 287 0 discriminator 4
 1297 0f16 8B851CFF 		movl	-228(%rbp), %eax
 1297      FFFF
 1298 0f1c 4863D0   		movslq	%eax, %rdx
 1299 0f1f 4889D0   		movq	%rdx, %rax
 1300 0f22 48C1E002 		salq	$2, %rax
 1301 0f26 4801D0   		addq	%rdx, %rax
 1302 0f29 48C1E002 		salq	$2, %rax
 1303 0f2d 4801E8   		addq	%rbp, %rax
 1304 0f30 482DA000 		subq	$160, %rax
 1304      0000
 1305 0f36 8B00     		movl	(%rax), %eax
 1306 0f38 83F8FF   		cmpl	$-1, %eax
 1307 0f3b 0F85E700 		jne	.L66
 1307      0000
 288:main.c        **** 		{
 289:main.c        **** 			arr[i][0] = x_cord;
 1308              		.loc 1 289 0 is_stmt 1
 1309 0f41 8B851CFF 		movl	-228(%rbp), %eax
 1309      FFFF
 1310 0f47 4863D0   		movslq	%eax, %rdx
 1311 0f4a 4889D0   		movq	%rdx, %rax
 1312 0f4d 48C1E002 		salq	$2, %rax
 1313 0f51 4801D0   		addq	%rdx, %rax
 1314 0f54 48C1E002 		salq	$2, %rax
 1315 0f58 4801E8   		addq	%rbp, %rax
 1316 0f5b 488D9050 		leaq	-176(%rax), %rdx
 1316      FFFFFF
 1317 0f62 8B85FCFE 		movl	-260(%rbp), %eax
 1317      FFFF
 1318 0f68 8902     		movl	%eax, (%rdx)
 290:main.c        **** 			arr[i][1] = y_cord;
 1319              		.loc 1 290 0
 1320 0f6a 8B851CFF 		movl	-228(%rbp), %eax
 1320      FFFF
 1321 0f70 4863D0   		movslq	%eax, %rdx
 1322 0f73 4889D0   		movq	%rdx, %rax
 1323 0f76 48C1E002 		salq	$2, %rax
 1324 0f7a 4801D0   		addq	%rdx, %rax
 1325 0f7d 48C1E002 		salq	$2, %rax
 1326 0f81 4801E8   		addq	%rbp, %rax
 1327 0f84 488D9054 		leaq	-172(%rax), %rdx
 1327      FFFFFF
 1328 0f8b 8B85F8FE 		movl	-264(%rbp), %eax
 1328      FFFF
 1329 0f91 8902     		movl	%eax, (%rdx)
 291:main.c        **** 			arr[i][2] = i;
 1330              		.loc 1 291 0
 1331 0f93 8B851CFF 		movl	-228(%rbp), %eax
 1331      FFFF
 1332 0f99 4863D0   		movslq	%eax, %rdx
 1333 0f9c 4889D0   		movq	%rdx, %rax
 1334 0f9f 48C1E002 		salq	$2, %rax
 1335 0fa3 4801D0   		addq	%rdx, %rax
 1336 0fa6 48C1E002 		salq	$2, %rax
 1337 0faa 4801E8   		addq	%rbp, %rax
 1338 0fad 488D9058 		leaq	-168(%rax), %rdx
 1338      FFFFFF
 1339 0fb4 8B851CFF 		movl	-228(%rbp), %eax
 1339      FFFF
 1340 0fba 8902     		movl	%eax, (%rdx)
 292:main.c        **** 			arr[i][3] = 0;
 1341              		.loc 1 292 0
 1342 0fbc 8B851CFF 		movl	-228(%rbp), %eax
 1342      FFFF
 1343 0fc2 4863D0   		movslq	%eax, %rdx
 1344 0fc5 4889D0   		movq	%rdx, %rax
 1345 0fc8 48C1E002 		salq	$2, %rax
 1346 0fcc 4801D0   		addq	%rdx, %rax
 1347 0fcf 48C1E002 		salq	$2, %rax
 1348 0fd3 4801E8   		addq	%rbp, %rax
 1349 0fd6 482DA400 		subq	$164, %rax
 1349      0000
 1350 0fdc C7000000 		movl	$0, (%rax)
 1350      0000
 293:main.c        **** 			arr[i][4] = 0;
 1351              		.loc 1 293 0
 1352 0fe2 8B851CFF 		movl	-228(%rbp), %eax
 1352      FFFF
 1353 0fe8 4863D0   		movslq	%eax, %rdx
 1354 0feb 4889D0   		movq	%rdx, %rax
 1355 0fee 48C1E002 		salq	$2, %rax
 1356 0ff2 4801D0   		addq	%rdx, %rax
 1357 0ff5 48C1E002 		salq	$2, %rax
 1358 0ff9 4801E8   		addq	%rbp, %rax
 1359 0ffc 482DA000 		subq	$160, %rax
 1359      0000
 1360 1002 C7000000 		movl	$0, (%rax)
 1360      0000
 294:main.c        **** 			final_arr[i][7] = 0;
 1361              		.loc 1 294 0
 1362 1008 8B851CFF 		movl	-228(%rbp), %eax
 1362      FFFF
 1363 100e 4898     		cltq
 1364 1010 48C1E005 		salq	$5, %rax
 1365 1014 4889C2   		movq	%rax, %rdx
 1366 1017 488B85F0 		movq	-272(%rbp), %rax
 1366      FEFFFF
 1367 101e 4801D0   		addq	%rdx, %rax
 1368 1021 C7401C00 		movl	$0, 28(%rax)
 1368      000000
 1369              	.L66:
 285:main.c        **** 	{
 1370              		.loc 1 285 0 discriminator 2
 1371 1028 83851CFF 		addl	$1, -228(%rbp)
 1371      FFFF01
 1372              	.L65:
 285:main.c        **** 	{
 1373              		.loc 1 285 0 is_stmt 0 discriminator 1
 1374 102f 83BD1CFF 		cmpl	$7, -228(%rbp)
 1374      FFFF07
 1375 1036 0F8E2EFE 		jle	.L67
 1375      FFFF
 1376              	.LBE20:
 1377              	.LBB21:
 295:main.c        **** 		}
 296:main.c        **** 	}
 297:main.c        **** 
 298:main.c        **** 	for (int i = 0; i < 8; i++)
 1378              		.loc 1 298 0 is_stmt 1
 1379 103c C78520FF 		movl	$0, -224(%rbp)
 1379      FFFF0000 
 1379      0000
 1380 1046 E9870200 		jmp	.L68
 1380      00
 1381              	.L71:
 1382              	.LBB22:
 299:main.c        **** 	{
 300:main.c        **** 		int next_signal = arr[i][4];
 1383              		.loc 1 300 0
 1384 104b 8B8520FF 		movl	-224(%rbp), %eax
 1384      FFFF
 1385 1051 4863D0   		movslq	%eax, %rdx
 1386 1054 4889D0   		movq	%rdx, %rax
 1387 1057 48C1E002 		salq	$2, %rax
 1388 105b 4801D0   		addq	%rdx, %rax
 1389 105e 48C1E002 		salq	$2, %rax
 1390 1062 4801E8   		addq	%rbp, %rax
 1391 1065 482DA000 		subq	$160, %rax
 1391      0000
 1392 106b 8B00     		movl	(%rax), %eax
 1393 106d 898524FF 		movl	%eax, -220(%rbp)
 1393      FFFF
 301:main.c        **** 		int track_ok = arr[i][3];
 1394              		.loc 1 301 0
 1395 1073 8B8520FF 		movl	-224(%rbp), %eax
 1395      FFFF
 1396 1079 4863D0   		movslq	%eax, %rdx
 1397 107c 4889D0   		movq	%rdx, %rax
 1398 107f 48C1E002 		salq	$2, %rax
 1399 1083 4801D0   		addq	%rdx, %rax
 1400 1086 48C1E002 		salq	$2, %rax
 1401 108a 4801E8   		addq	%rbp, %rax
 1402 108d 482DA400 		subq	$164, %rax
 1402      0000
 1403 1093 8B00     		movl	(%rax), %eax
 1404 1095 898528FF 		movl	%eax, -216(%rbp)
 1404      FFFF
 302:main.c        **** 		int direction = arr[i][2];
 1405              		.loc 1 302 0
 1406 109b 8B8520FF 		movl	-224(%rbp), %eax
 1406      FFFF
 1407 10a1 4863D0   		movslq	%eax, %rdx
 1408 10a4 4889D0   		movq	%rdx, %rax
 1409 10a7 48C1E002 		salq	$2, %rax
 1410 10ab 4801D0   		addq	%rdx, %rax
 1411 10ae 48C1E002 		salq	$2, %rax
 1412 10b2 4801E8   		addq	%rbp, %rax
 1413 10b5 482DA800 		subq	$168, %rax
 1413      0000
 1414 10bb 8B00     		movl	(%rax), %eax
 1415 10bd 89852CFF 		movl	%eax, -212(%rbp)
 1415      FFFF
 303:main.c        **** 
 304:main.c        **** 		final_arr[i][0] = conversion[next_signal][2] -48;
 1416              		.loc 1 304 0
 1417 10c3 8B8520FF 		movl	-224(%rbp), %eax
 1417      FFFF
 1418 10c9 4898     		cltq
 1419 10cb 48C1E005 		salq	$5, %rax
 1420 10cf 4889C2   		movq	%rax, %rdx
 1421 10d2 488B85F0 		movq	-272(%rbp), %rax
 1421      FEFFFF
 1422 10d9 488D0C02 		leaq	(%rdx,%rax), %rcx
 1423 10dd 8B8524FF 		movl	-220(%rbp), %eax
 1423      FFFF
 1424 10e3 4863D0   		movslq	%eax, %rdx
 1425 10e6 4889D0   		movq	%rdx, %rax
 1426 10e9 4801C0   		addq	%rax, %rax
 1427 10ec 4801D0   		addq	%rdx, %rax
 1428 10ef 4801E8   		addq	%rbp, %rax
 1429 10f2 482DCE00 		subq	$206, %rax
 1429      0000
 1430 10f8 0FB600   		movzbl	(%rax), %eax
 1431 10fb 0FBEC0   		movsbl	%al, %eax
 1432 10fe 83E830   		subl	$48, %eax
 1433 1101 8901     		movl	%eax, (%rcx)
 305:main.c        **** 		final_arr[i][1] = conversion[next_signal][1] -48;
 1434              		.loc 1 305 0
 1435 1103 8B8520FF 		movl	-224(%rbp), %eax
 1435      FFFF
 1436 1109 4898     		cltq
 1437 110b 48C1E005 		salq	$5, %rax
 1438 110f 4889C2   		movq	%rax, %rdx
 1439 1112 488B85F0 		movq	-272(%rbp), %rax
 1439      FEFFFF
 1440 1119 488D0C02 		leaq	(%rdx,%rax), %rcx
 1441 111d 8B8524FF 		movl	-220(%rbp), %eax
 1441      FFFF
 1442 1123 4863D0   		movslq	%eax, %rdx
 1443 1126 4889D0   		movq	%rdx, %rax
 1444 1129 4801C0   		addq	%rax, %rax
 1445 112c 4801D0   		addq	%rdx, %rax
 1446 112f 4801E8   		addq	%rbp, %rax
 1447 1132 482DCF00 		subq	$207, %rax
 1447      0000
 1448 1138 0FB600   		movzbl	(%rax), %eax
 1449 113b 0FBEC0   		movsbl	%al, %eax
 1450 113e 83E830   		subl	$48, %eax
 1451 1141 894104   		movl	%eax, 4(%rcx)
 306:main.c        **** 		final_arr[i][2] = conversion[next_signal][0] -48;
 1452              		.loc 1 306 0
 1453 1144 8B8520FF 		movl	-224(%rbp), %eax
 1453      FFFF
 1454 114a 4898     		cltq
 1455 114c 48C1E005 		salq	$5, %rax
 1456 1150 4889C2   		movq	%rax, %rdx
 1457 1153 488B85F0 		movq	-272(%rbp), %rax
 1457      FEFFFF
 1458 115a 488D0C02 		leaq	(%rdx,%rax), %rcx
 1459 115e 8B8524FF 		movl	-220(%rbp), %eax
 1459      FFFF
 1460 1164 4863D0   		movslq	%eax, %rdx
 1461 1167 4889D0   		movq	%rdx, %rax
 1462 116a 4801C0   		addq	%rax, %rax
 1463 116d 4801D0   		addq	%rdx, %rax
 1464 1170 4801E8   		addq	%rbp, %rax
 1465 1173 482DD000 		subq	$208, %rax
 1465      0000
 1466 1179 0FB600   		movzbl	(%rax), %eax
 1467 117c 0FBEC0   		movsbl	%al, %eax
 1468 117f 83E830   		subl	$48, %eax
 1469 1182 894108   		movl	%eax, 8(%rcx)
 307:main.c        **** 
 308:main.c        **** 		final_arr[i][3] = conversion[direction][2] -48;
 1470              		.loc 1 308 0
 1471 1185 8B8520FF 		movl	-224(%rbp), %eax
 1471      FFFF
 1472 118b 4898     		cltq
 1473 118d 48C1E005 		salq	$5, %rax
 1474 1191 4889C2   		movq	%rax, %rdx
 1475 1194 488B85F0 		movq	-272(%rbp), %rax
 1475      FEFFFF
 1476 119b 488D0C02 		leaq	(%rdx,%rax), %rcx
 1477 119f 8B852CFF 		movl	-212(%rbp), %eax
 1477      FFFF
 1478 11a5 4863D0   		movslq	%eax, %rdx
 1479 11a8 4889D0   		movq	%rdx, %rax
 1480 11ab 4801C0   		addq	%rax, %rax
 1481 11ae 4801D0   		addq	%rdx, %rax
 1482 11b1 4801E8   		addq	%rbp, %rax
 1483 11b4 482DCE00 		subq	$206, %rax
 1483      0000
 1484 11ba 0FB600   		movzbl	(%rax), %eax
 1485 11bd 0FBEC0   		movsbl	%al, %eax
 1486 11c0 83E830   		subl	$48, %eax
 1487 11c3 89410C   		movl	%eax, 12(%rcx)
 309:main.c        **** 		final_arr[i][4] = conversion[direction][1] -48;
 1488              		.loc 1 309 0
 1489 11c6 8B8520FF 		movl	-224(%rbp), %eax
 1489      FFFF
 1490 11cc 4898     		cltq
 1491 11ce 48C1E005 		salq	$5, %rax
 1492 11d2 4889C2   		movq	%rax, %rdx
 1493 11d5 488B85F0 		movq	-272(%rbp), %rax
 1493      FEFFFF
 1494 11dc 488D0C02 		leaq	(%rdx,%rax), %rcx
 1495 11e0 8B852CFF 		movl	-212(%rbp), %eax
 1495      FFFF
 1496 11e6 4863D0   		movslq	%eax, %rdx
 1497 11e9 4889D0   		movq	%rdx, %rax
 1498 11ec 4801C0   		addq	%rax, %rax
 1499 11ef 4801D0   		addq	%rdx, %rax
 1500 11f2 4801E8   		addq	%rbp, %rax
 1501 11f5 482DCF00 		subq	$207, %rax
 1501      0000
 1502 11fb 0FB600   		movzbl	(%rax), %eax
 1503 11fe 0FBEC0   		movsbl	%al, %eax
 1504 1201 83E830   		subl	$48, %eax
 1505 1204 894110   		movl	%eax, 16(%rcx)
 310:main.c        **** 		final_arr[i][5] = conversion[direction][0] -48;
 1506              		.loc 1 310 0
 1507 1207 8B8520FF 		movl	-224(%rbp), %eax
 1507      FFFF
 1508 120d 4898     		cltq
 1509 120f 48C1E005 		salq	$5, %rax
 1510 1213 4889C2   		movq	%rax, %rdx
 1511 1216 488B85F0 		movq	-272(%rbp), %rax
 1511      FEFFFF
 1512 121d 488D0C02 		leaq	(%rdx,%rax), %rcx
 1513 1221 8B852CFF 		movl	-212(%rbp), %eax
 1513      FFFF
 1514 1227 4863D0   		movslq	%eax, %rdx
 1515 122a 4889D0   		movq	%rdx, %rax
 1516 122d 4801C0   		addq	%rax, %rax
 1517 1230 4801D0   		addq	%rdx, %rax
 1518 1233 4801E8   		addq	%rbp, %rax
 1519 1236 482DD000 		subq	$208, %rax
 1519      0000
 1520 123c 0FB600   		movzbl	(%rax), %eax
 1521 123f 0FBEC0   		movsbl	%al, %eax
 1522 1242 83E830   		subl	$48, %eax
 1523 1245 894114   		movl	%eax, 20(%rcx)
 311:main.c        **** 
 312:main.c        **** 		final_arr[i][6] = track_ok;
 1524              		.loc 1 312 0
 1525 1248 8B8520FF 		movl	-224(%rbp), %eax
 1525      FFFF
 1526 124e 4898     		cltq
 1527 1250 48C1E005 		salq	$5, %rax
 1528 1254 4889C2   		movq	%rax, %rdx
 1529 1257 488B85F0 		movq	-272(%rbp), %rax
 1529      FEFFFF
 1530 125e 4801C2   		addq	%rax, %rdx
 1531 1261 8B8528FF 		movl	-216(%rbp), %eax
 1531      FFFF
 1532 1267 894218   		movl	%eax, 24(%rdx)
 313:main.c        **** 
 314:main.c        **** 		if(final_arr[i][7] != 0 || final_arr[i][7] == -1)
 1533              		.loc 1 314 0
 1534 126a 8B8520FF 		movl	-224(%rbp), %eax
 1534      FFFF
 1535 1270 4898     		cltq
 1536 1272 48C1E005 		salq	$5, %rax
 1537 1276 4889C2   		movq	%rax, %rdx
 1538 1279 488B85F0 		movq	-272(%rbp), %rax
 1538      FEFFFF
 1539 1280 4801D0   		addq	%rdx, %rax
 1540 1283 8B401C   		movl	28(%rax), %eax
 1541 1286 85C0     		testl	%eax, %eax
 1542 1288 7521     		jne	.L69
 1543              		.loc 1 314 0 is_stmt 0 discriminator 1
 1544 128a 8B8520FF 		movl	-224(%rbp), %eax
 1544      FFFF
 1545 1290 4898     		cltq
 1546 1292 48C1E005 		salq	$5, %rax
 1547 1296 4889C2   		movq	%rax, %rdx
 1548 1299 488B85F0 		movq	-272(%rbp), %rax
 1548      FEFFFF
 1549 12a0 4801D0   		addq	%rdx, %rax
 1550 12a3 8B401C   		movl	28(%rax), %eax
 1551 12a6 83F8FF   		cmpl	$-1, %eax
 1552 12a9 7520     		jne	.L70
 1553              	.L69:
 315:main.c        **** 		{
 316:main.c        **** 			final_arr[i][7] = 1;
 1554              		.loc 1 316 0 is_stmt 1
 1555 12ab 8B8520FF 		movl	-224(%rbp), %eax
 1555      FFFF
 1556 12b1 4898     		cltq
 1557 12b3 48C1E005 		salq	$5, %rax
 1558 12b7 4889C2   		movq	%rax, %rdx
 1559 12ba 488B85F0 		movq	-272(%rbp), %rax
 1559      FEFFFF
 1560 12c1 4801D0   		addq	%rdx, %rax
 1561 12c4 C7401C01 		movl	$1, 28(%rax)
 1561      000000
 1562              	.L70:
 1563              	.LBE22:
 298:main.c        **** 	{
 1564              		.loc 1 298 0 discriminator 2
 1565 12cb 838520FF 		addl	$1, -224(%rbp)
 1565      FFFF01
 1566              	.L68:
 298:main.c        **** 	{
 1567              		.loc 1 298 0 is_stmt 0 discriminator 1
 1568 12d2 83BD20FF 		cmpl	$7, -224(%rbp)
 1568      FFFF07
 1569 12d9 0F8E6CFD 		jle	.L71
 1569      FFFF
 1570              	.LBE21:
 317:main.c        **** 		}
 318:main.c        **** 	}
 319:main.c        **** 
 320:main.c        **** }
 1571              		.loc 1 320 0 is_stmt 1
 1572 12df 90       		nop
 1573 12e0 488B45F8 		movq	-8(%rbp), %rax
 1574 12e4 64483304 		xorq	%fs:40, %rax
 1574      25280000 
 1574      00
 1575 12ed 7405     		je	.L72
 1576 12ef E8000000 		call	__stack_chk_fail
 1576      00
 1577              	.L72:
 1578 12f4 C9       		leave
 1579              		.cfi_def_cfa 7, 8
 1580 12f5 C3       		ret
 1581              		.cfi_endproc
 1582              	.LFE12:
 1584              		.section	.rodata
 1585              	.LC4:
 1586 0048 75696E74 		.string	"uint8"
 1586      3800
 1587              	.LC5:
 1588 004e 25730A20 		.string	"%s\n "
 1588      00
 1589              		.text
 1590              		.globl	uint8ToBin
 1592              	uint8ToBin:
 1593              	.LFB13:
 321:main.c        **** 
 322:main.c        **** void uint8ToBin(uint8 arr[], int rec[])
 323:main.c        **** {
 1594              		.loc 1 323 0
 1595              		.cfi_startproc
 1596 12f6 55       		pushq	%rbp
 1597              		.cfi_def_cfa_offset 16
 1598              		.cfi_offset 6, -16
 1599 12f7 4889E5   		movq	%rsp, %rbp
 1600              		.cfi_def_cfa_register 6
 1601 12fa 4883EC20 		subq	$32, %rsp
 1602 12fe 48897DE8 		movq	%rdi, -24(%rbp)
 1603 1302 488975E0 		movq	%rsi, -32(%rbp)
 324:main.c        **** 	printf("%s\n ", "uint8");
 1604              		.loc 1 324 0
 1605 1306 BE000000 		movl	$.LC4, %esi
 1605      00
 1606 130b BF000000 		movl	$.LC5, %edi
 1606      00
 1607 1310 B8000000 		movl	$0, %eax
 1607      00
 1608 1315 E8000000 		call	printf
 1608      00
 1609              	.LBB23:
 325:main.c        **** 
 326:main.c        **** 	for (int i = 0; i < 4; ++i)
 1610              		.loc 1 326 0
 1611 131a C745F800 		movl	$0, -8(%rbp)
 1611      000000
 1612 1321 EB5C     		jmp	.L74
 1613              	.L77:
 1614              	.LBB24:
 327:main.c        **** 	{
 328:main.c        **** 		uint8 tempssss= arr[i];
 1615              		.loc 1 328 0
 1616 1323 8B45F8   		movl	-8(%rbp), %eax
 1617 1326 4863D0   		movslq	%eax, %rdx
 1618 1329 488B45E8 		movq	-24(%rbp), %rax
 1619 132d 4801D0   		addq	%rdx, %rax
 1620 1330 0FB600   		movzbl	(%rax), %eax
 1621 1333 8845F7   		movb	%al, -9(%rbp)
 1622              	.LBB25:
 329:main.c        **** 		for(int k=0;k<8;k++)
 1623              		.loc 1 329 0
 1624 1336 C745FC00 		movl	$0, -4(%rbp)
 1624      000000
 1625 133d EB36     		jmp	.L75
 1626              	.L76:
 330:main.c        **** 		{
 331:main.c        **** 			rec[8*i+k] =(int) (tempssss % 2);
 1627              		.loc 1 331 0 discriminator 3
 1628 133f 8B45F8   		movl	-8(%rbp), %eax
 1629 1342 8D14C500 		leal	0(,%rax,8), %edx
 1629      000000
 1630 1349 8B45FC   		movl	-4(%rbp), %eax
 1631 134c 01D0     		addl	%edx, %eax
 1632 134e 4898     		cltq
 1633 1350 488D1485 		leaq	0(,%rax,4), %rdx
 1633      00000000 
 1634 1358 488B45E0 		movq	-32(%rbp), %rax
 1635 135c 4801D0   		addq	%rdx, %rax
 1636 135f 0FB655F7 		movzbl	-9(%rbp), %edx
 1637 1363 83E201   		andl	$1, %edx
 1638 1366 8910     		movl	%edx, (%rax)
 332:main.c        **** 			tempssss = tempssss/2;
 1639              		.loc 1 332 0 discriminator 3
 1640 1368 0FB645F7 		movzbl	-9(%rbp), %eax
 1641 136c D0E8     		shrb	%al
 1642 136e 8845F7   		movb	%al, -9(%rbp)
 329:main.c        **** 		for(int k=0;k<8;k++)
 1643              		.loc 1 329 0 discriminator 3
 1644 1371 8345FC01 		addl	$1, -4(%rbp)
 1645              	.L75:
 329:main.c        **** 		for(int k=0;k<8;k++)
 1646              		.loc 1 329 0 is_stmt 0 discriminator 1
 1647 1375 837DFC07 		cmpl	$7, -4(%rbp)
 1648 1379 7EC4     		jle	.L76
 1649              	.LBE25:
 1650              	.LBE24:
 326:main.c        **** 	{
 1651              		.loc 1 326 0 is_stmt 1 discriminator 2
 1652 137b 8345F801 		addl	$1, -8(%rbp)
 1653              	.L74:
 326:main.c        **** 	{
 1654              		.loc 1 326 0 is_stmt 0 discriminator 1
 1655 137f 837DF803 		cmpl	$3, -8(%rbp)
 1656 1383 7E9E     		jle	.L77
 1657              	.LBE23:
 333:main.c        **** 		}
 334:main.c        **** 	}
 335:main.c        **** }
 1658              		.loc 1 335 0 is_stmt 1
 1659 1385 90       		nop
 1660 1386 C9       		leave
 1661              		.cfi_def_cfa 7, 8
 1662 1387 C3       		ret
 1663              		.cfi_endproc
 1664              	.LFE13:
 1666              		.section	.rodata
 1667              	.LC6:
 1668 0053 7200     		.string	"r"
 1669 0055 000000   		.align 8
 1670              	.LC7:
 1671 0058 2F686F6D 		.string	"/home/shubham/Desktop/track_data.csv"
 1671      652F7368 
 1671      75626861 
 1671      6D2F4465 
 1671      736B746F 
 1672              	.LC8:
 1673 007d 25642C25 		.string	"%d,%d,%d,%d,%d"
 1673      642C2564 
 1673      2C25642C 
 1673      256400
 1674              	.LC9:
 1675 008c 45786973 		.string	"Existing track_data"
 1675      74696E67 
 1675      20747261 
 1675      636B5F64 
 1675      61746100 
 1676              	.LC10:
 1677 00a0 25642000 		.string	"%d "
 1678              	.LC11:
 1679 00a4 7700     		.string	"w"
 1680              	.LC12:
 1681 00a6 25642C25 		.string	"%d,%d,%d,%d,%d\n"
 1681      642C2564 
 1681      2C25642C 
 1681      25640A00 
 1682              	.LC13:
 1683 00b6 55706461 		.string	"Updated track_data"
 1683      74656420 
 1683      74726163 
 1683      6B5F6461 
 1683      746100
 1684              		.text
 1685              		.globl	writecsv
 1687              	writecsv:
 1688              	.LFB14:
 336:main.c        **** 
 337:main.c        **** void writecsv(int x_cord, int y_cord, int ok, int direction, int next)
 338:main.c        **** {
 1689              		.loc 1 338 0
 1690              		.cfi_startproc
 1691 1388 55       		pushq	%rbp
 1692              		.cfi_def_cfa_offset 16
 1693              		.cfi_offset 6, -16
 1694 1389 4889E5   		movq	%rsp, %rbp
 1695              		.cfi_def_cfa_register 6
 1696 138c 4881EC50 		subq	$2128, %rsp
 1696      080000
 1697 1393 89BDCCF7 		movl	%edi, -2100(%rbp)
 1697      FFFF
 1698 1399 89B5C8F7 		movl	%esi, -2104(%rbp)
 1698      FFFF
 1699 139f 8995C4F7 		movl	%edx, -2108(%rbp)
 1699      FFFF
 1700 13a5 898DC0F7 		movl	%ecx, -2112(%rbp)
 1700      FFFF
 1701 13ab 448985BC 		movl	%r8d, -2116(%rbp)
 1701      F7FFFF
 1702              		.loc 1 338 0
 1703 13b2 64488B04 		movq	%fs:40, %rax
 1703      25280000 
 1703      00
 1704 13bb 488945F8 		movq	%rax, -8(%rbp)
 1705 13bf 31C0     		xorl	%eax, %eax
 339:main.c        **** 	FILE *fp1 = fopen("/home/shubham/Desktop/track_data.csv", "r");
 1706              		.loc 1 339 0
 1707 13c1 BE000000 		movl	$.LC6, %esi
 1707      00
 1708 13c6 BF000000 		movl	$.LC7, %edi
 1708      00
 1709 13cb E8000000 		call	fopen
 1709      00
 1710 13d0 48898510 		movq	%rax, -2032(%rbp)
 1710      F8FFFF
 340:main.c        **** 	int mat[100][5];
 341:main.c        **** 	//int temp;
 342:main.c        **** 	int i =0;
 1711              		.loc 1 342 0
 1712 13d7 C785ECF7 		movl	$0, -2068(%rbp)
 1712      FFFF0000 
 1712      0000
 343:main.c        **** 	int a,b,c,d,e;
 344:main.c        **** 	while (fscanf(fp1, "%d,%d,%d,%d,%d", &a, &b,&c,&d,&e) == 5)
 1713              		.loc 1 344 0
 1714 13e1 E9CF0000 		jmp	.L79
 1714      00
 1715              	.L80:
 345:main.c        **** 	{
 346:main.c        **** 
 347:main.c        **** 		mat[i][4] = a;
 1716              		.loc 1 347 0
 1717 13e6 8B8DD8F7 		movl	-2088(%rbp), %ecx
 1717      FFFF
 1718 13ec 8B85ECF7 		movl	-2068(%rbp), %eax
 1718      FFFF
 1719 13f2 4863D0   		movslq	%eax, %rdx
 1720 13f5 4889D0   		movq	%rdx, %rax
 1721 13f8 48C1E002 		salq	$2, %rax
 1722 13fc 4801D0   		addq	%rdx, %rax
 1723 13ff 48C1E002 		salq	$2, %rax
 1724 1403 4801E8   		addq	%rbp, %rax
 1725 1406 482DD007 		subq	$2000, %rax
 1725      0000
 1726 140c 8908     		movl	%ecx, (%rax)
 348:main.c        **** 		mat[i][3] = b;
 1727              		.loc 1 348 0
 1728 140e 8B8DDCF7 		movl	-2084(%rbp), %ecx
 1728      FFFF
 1729 1414 8B85ECF7 		movl	-2068(%rbp), %eax
 1729      FFFF
 1730 141a 4863D0   		movslq	%eax, %rdx
 1731 141d 4889D0   		movq	%rdx, %rax
 1732 1420 48C1E002 		salq	$2, %rax
 1733 1424 4801D0   		addq	%rdx, %rax
 1734 1427 48C1E002 		salq	$2, %rax
 1735 142b 4801E8   		addq	%rbp, %rax
 1736 142e 482DD407 		subq	$2004, %rax
 1736      0000
 1737 1434 8908     		movl	%ecx, (%rax)
 349:main.c        **** 		mat[i][2] = c;
 1738              		.loc 1 349 0
 1739 1436 8B8DE0F7 		movl	-2080(%rbp), %ecx
 1739      FFFF
 1740 143c 8B85ECF7 		movl	-2068(%rbp), %eax
 1740      FFFF
 1741 1442 4863D0   		movslq	%eax, %rdx
 1742 1445 4889D0   		movq	%rdx, %rax
 1743 1448 48C1E002 		salq	$2, %rax
 1744 144c 4801D0   		addq	%rdx, %rax
 1745 144f 48C1E002 		salq	$2, %rax
 1746 1453 4801E8   		addq	%rbp, %rax
 1747 1456 482DD807 		subq	$2008, %rax
 1747      0000
 1748 145c 8908     		movl	%ecx, (%rax)
 350:main.c        **** 		mat[i][1] = d;
 1749              		.loc 1 350 0
 1750 145e 8B8DE4F7 		movl	-2076(%rbp), %ecx
 1750      FFFF
 1751 1464 8B85ECF7 		movl	-2068(%rbp), %eax
 1751      FFFF
 1752 146a 4863D0   		movslq	%eax, %rdx
 1753 146d 4889D0   		movq	%rdx, %rax
 1754 1470 48C1E002 		salq	$2, %rax
 1755 1474 4801D0   		addq	%rdx, %rax
 1756 1477 48C1E002 		salq	$2, %rax
 1757 147b 4801E8   		addq	%rbp, %rax
 1758 147e 482DDC07 		subq	$2012, %rax
 1758      0000
 1759 1484 8908     		movl	%ecx, (%rax)
 351:main.c        **** 		mat[i][0] = e;
 1760              		.loc 1 351 0
 1761 1486 8B8DE8F7 		movl	-2072(%rbp), %ecx
 1761      FFFF
 1762 148c 8B85ECF7 		movl	-2068(%rbp), %eax
 1762      FFFF
 1763 1492 4863D0   		movslq	%eax, %rdx
 1764 1495 4889D0   		movq	%rdx, %rax
 1765 1498 48C1E002 		salq	$2, %rax
 1766 149c 4801D0   		addq	%rdx, %rax
 1767 149f 48C1E002 		salq	$2, %rax
 1768 14a3 4801E8   		addq	%rbp, %rax
 1769 14a6 482DE007 		subq	$2016, %rax
 1769      0000
 1770 14ac 8908     		movl	%ecx, (%rax)
 352:main.c        **** 		i++; 
 1771              		.loc 1 352 0
 1772 14ae 8385ECF7 		addl	$1, -2068(%rbp)
 1772      FFFF01
 1773              	.L79:
 344:main.c        **** 	{
 1774              		.loc 1 344 0
 1775 14b5 4C8D85E4 		leaq	-2076(%rbp), %r8
 1775      F7FFFF
 1776 14bc 488DBDE0 		leaq	-2080(%rbp), %rdi
 1776      F7FFFF
 1777 14c3 488D8DDC 		leaq	-2084(%rbp), %rcx
 1777      F7FFFF
 1778 14ca 488D95D8 		leaq	-2088(%rbp), %rdx
 1778      F7FFFF
 1779 14d1 488B8510 		movq	-2032(%rbp), %rax
 1779      F8FFFF
 1780 14d8 4883EC08 		subq	$8, %rsp
 1781 14dc 488DB5E8 		leaq	-2072(%rbp), %rsi
 1781      F7FFFF
 1782 14e3 56       		pushq	%rsi
 1783 14e4 4D89C1   		movq	%r8, %r9
 1784 14e7 4989F8   		movq	%rdi, %r8
 1785 14ea BE000000 		movl	$.LC8, %esi
 1785      00
 1786 14ef 4889C7   		movq	%rax, %rdi
 1787 14f2 B8000000 		movl	$0, %eax
 1787      00
 1788 14f7 E8000000 		call	__isoc99_fscanf
 1788      00
 1789 14fc 4883C410 		addq	$16, %rsp
 1790 1500 83F805   		cmpl	$5, %eax
 1791 1503 0F84DDFE 		je	.L80
 1791      FFFF
 353:main.c        **** 	}
 354:main.c        **** 
 355:main.c        **** 	int len = i;
 1792              		.loc 1 355 0
 1793 1509 8B85ECF7 		movl	-2068(%rbp), %eax
 1793      FFFF
 1794 150f 8985F0F7 		movl	%eax, -2064(%rbp)
 1794      FFFF
 356:main.c        **** 
 357:main.c        **** 	printf("%s\n", "Existing track_data");
 1795              		.loc 1 357 0
 1796 1515 BF000000 		movl	$.LC9, %edi
 1796      00
 1797 151a E8000000 		call	puts
 1797      00
 1798              	.LBB26:
 358:main.c        **** 	for(int i=0;i<len;i++)
 1799              		.loc 1 358 0
 1800 151f C785F4F7 		movl	$0, -2060(%rbp)
 1800      FFFF0000 
 1800      0000
 1801 1529 EB69     		jmp	.L81
 1802              	.L84:
 1803              	.LBB27:
 359:main.c        **** 	{
 360:main.c        **** 		for(int j=0;j<5;j++)
 1804              		.loc 1 360 0
 1805 152b C785F8F7 		movl	$0, -2056(%rbp)
 1805      FFFF0000 
 1805      0000
 1806 1535 EB43     		jmp	.L82
 1807              	.L83:
 361:main.c        **** 		{
 362:main.c        **** 			printf("%d ", mat[i][4-j]);
 1808              		.loc 1 362 0 discriminator 3
 1809 1537 B8040000 		movl	$4, %eax
 1809      00
 1810 153c 2B85F8F7 		subl	-2056(%rbp), %eax
 1810      FFFF
 1811 1542 4863C8   		movslq	%eax, %rcx
 1812 1545 8B85F4F7 		movl	-2060(%rbp), %eax
 1812      FFFF
 1813 154b 4863D0   		movslq	%eax, %rdx
 1814 154e 4889D0   		movq	%rdx, %rax
 1815 1551 48C1E002 		salq	$2, %rax
 1816 1555 4801D0   		addq	%rdx, %rax
 1817 1558 4801C8   		addq	%rcx, %rax
 1818 155b 8B848520 		movl	-2016(%rbp,%rax,4), %eax
 1818      F8FFFF
 1819 1562 89C6     		movl	%eax, %esi
 1820 1564 BF000000 		movl	$.LC10, %edi
 1820      00
 1821 1569 B8000000 		movl	$0, %eax
 1821      00
 1822 156e E8000000 		call	printf
 1822      00
 360:main.c        **** 		{
 1823              		.loc 1 360 0 discriminator 3
 1824 1573 8385F8F7 		addl	$1, -2056(%rbp)
 1824      FFFF01
 1825              	.L82:
 360:main.c        **** 		{
 1826              		.loc 1 360 0 is_stmt 0 discriminator 1
 1827 157a 83BDF8F7 		cmpl	$4, -2056(%rbp)
 1827      FFFF04
 1828 1581 7EB4     		jle	.L83
 1829              	.LBE27:
 363:main.c        **** 		}
 364:main.c        **** 		printf("\n");
 1830              		.loc 1 364 0 is_stmt 1 discriminator 2
 1831 1583 BF0A0000 		movl	$10, %edi
 1831      00
 1832 1588 E8000000 		call	putchar
 1832      00
 358:main.c        **** 	{
 1833              		.loc 1 358 0 discriminator 2
 1834 158d 8385F4F7 		addl	$1, -2060(%rbp)
 1834      FFFF01
 1835              	.L81:
 358:main.c        **** 	{
 1836              		.loc 1 358 0 is_stmt 0 discriminator 1
 1837 1594 8B85F4F7 		movl	-2060(%rbp), %eax
 1837      FFFF
 1838 159a 3B85F0F7 		cmpl	-2064(%rbp), %eax
 1838      FFFF
 1839 15a0 7C89     		jl	.L84
 1840              	.LBE26:
 365:main.c        **** 	}
 366:main.c        **** 
 367:main.c        **** 	printf("\n");
 1841              		.loc 1 367 0 is_stmt 1
 1842 15a2 BF0A0000 		movl	$10, %edi
 1842      00
 1843 15a7 E8000000 		call	putchar
 1843      00
 368:main.c        **** 	FILE *fp2 = fopen("/home/shubham/Desktop/track_data.csv", "w");
 1844              		.loc 1 368 0
 1845 15ac BE000000 		movl	$.LC11, %esi
 1845      00
 1846 15b1 BF000000 		movl	$.LC7, %edi
 1846      00
 1847 15b6 E8000000 		call	fopen
 1847      00
 1848 15bb 48898518 		movq	%rax, -2024(%rbp)
 1848      F8FFFF
 369:main.c        **** 	
 370:main.c        **** 	int counter = 0;
 1849              		.loc 1 370 0
 1850 15c2 C785FCF7 		movl	$0, -2052(%rbp)
 1850      FFFF0000 
 1850      0000
 1851              	.LBB28:
 371:main.c        **** 	for (int i = 0; i < len; ++i)
 1852              		.loc 1 371 0
 1853 15cc C78500F8 		movl	$0, -2048(%rbp)
 1853      FFFF0000 
 1853      0000
 1854 15d6 E9E60000 		jmp	.L85
 1854      00
 1855              	.L87:
 372:main.c        **** 	{
 373:main.c        **** 		if(mat[i][4] == x_cord && mat[i][3] == y_cord && mat[i][2] == direction)
 1856              		.loc 1 373 0
 1857 15db 8B8500F8 		movl	-2048(%rbp), %eax
 1857      FFFF
 1858 15e1 4863D0   		movslq	%eax, %rdx
 1859 15e4 4889D0   		movq	%rdx, %rax
 1860 15e7 48C1E002 		salq	$2, %rax
 1861 15eb 4801D0   		addq	%rdx, %rax
 1862 15ee 48C1E002 		salq	$2, %rax
 1863 15f2 4801E8   		addq	%rbp, %rax
 1864 15f5 482DD007 		subq	$2000, %rax
 1864      0000
 1865 15fb 8B00     		movl	(%rax), %eax
 1866 15fd 3B85CCF7 		cmpl	-2100(%rbp), %eax
 1866      FFFF
 1867 1603 0F85B100 		jne	.L86
 1867      0000
 1868              		.loc 1 373 0 is_stmt 0 discriminator 1
 1869 1609 8B8500F8 		movl	-2048(%rbp), %eax
 1869      FFFF
 1870 160f 4863D0   		movslq	%eax, %rdx
 1871 1612 4889D0   		movq	%rdx, %rax
 1872 1615 48C1E002 		salq	$2, %rax
 1873 1619 4801D0   		addq	%rdx, %rax
 1874 161c 48C1E002 		salq	$2, %rax
 1875 1620 4801E8   		addq	%rbp, %rax
 1876 1623 482DD407 		subq	$2004, %rax
 1876      0000
 1877 1629 8B00     		movl	(%rax), %eax
 1878 162b 3B85C8F7 		cmpl	-2104(%rbp), %eax
 1878      FFFF
 1879 1631 0F858300 		jne	.L86
 1879      0000
 1880              		.loc 1 373 0 discriminator 2
 1881 1637 8B8500F8 		movl	-2048(%rbp), %eax
 1881      FFFF
 1882 163d 4863D0   		movslq	%eax, %rdx
 1883 1640 4889D0   		movq	%rdx, %rax
 1884 1643 48C1E002 		salq	$2, %rax
 1885 1647 4801D0   		addq	%rdx, %rax
 1886 164a 48C1E002 		salq	$2, %rax
 1887 164e 4801E8   		addq	%rbp, %rax
 1888 1651 482DD807 		subq	$2008, %rax
 1888      0000
 1889 1657 8B00     		movl	(%rax), %eax
 1890 1659 3B85C0F7 		cmpl	-2112(%rbp), %eax
 1890      FFFF
 1891 165f 7559     		jne	.L86
 374:main.c        **** 		{
 375:main.c        **** 			mat[i][1] = ok;
 1892              		.loc 1 375 0 is_stmt 1
 1893 1661 8B8500F8 		movl	-2048(%rbp), %eax
 1893      FFFF
 1894 1667 4863D0   		movslq	%eax, %rdx
 1895 166a 4889D0   		movq	%rdx, %rax
 1896 166d 48C1E002 		salq	$2, %rax
 1897 1671 4801D0   		addq	%rdx, %rax
 1898 1674 48C1E002 		salq	$2, %rax
 1899 1678 4801E8   		addq	%rbp, %rax
 1900 167b 488D9024 		leaq	-2012(%rax), %rdx
 1900      F8FFFF
 1901 1682 8B85C4F7 		movl	-2108(%rbp), %eax
 1901      FFFF
 1902 1688 8902     		movl	%eax, (%rdx)
 376:main.c        **** 			mat[i][0] = next;
 1903              		.loc 1 376 0
 1904 168a 8B8500F8 		movl	-2048(%rbp), %eax
 1904      FFFF
 1905 1690 4863D0   		movslq	%eax, %rdx
 1906 1693 4889D0   		movq	%rdx, %rax
 1907 1696 48C1E002 		salq	$2, %rax
 1908 169a 4801D0   		addq	%rdx, %rax
 1909 169d 48C1E002 		salq	$2, %rax
 1910 16a1 4801E8   		addq	%rbp, %rax
 1911 16a4 488D9020 		leaq	-2016(%rax), %rdx
 1911      F8FFFF
 1912 16ab 8B85BCF7 		movl	-2116(%rbp), %eax
 1912      FFFF
 1913 16b1 8902     		movl	%eax, (%rdx)
 377:main.c        **** 			counter++;
 1914              		.loc 1 377 0
 1915 16b3 8385FCF7 		addl	$1, -2052(%rbp)
 1915      FFFF01
 1916              	.L86:
 371:main.c        **** 	{
 1917              		.loc 1 371 0 discriminator 2
 1918 16ba 838500F8 		addl	$1, -2048(%rbp)
 1918      FFFF01
 1919              	.L85:
 371:main.c        **** 	{
 1920              		.loc 1 371 0 is_stmt 0 discriminator 1
 1921 16c1 8B8500F8 		movl	-2048(%rbp), %eax
 1921      FFFF
 1922 16c7 3B85F0F7 		cmpl	-2064(%rbp), %eax
 1922      FFFF
 1923 16cd 0F8C08FF 		jl	.L87
 1923      FFFF
 1924              	.LBE28:
 378:main.c        **** 		}
 379:main.c        **** 	}
 380:main.c        **** 
 381:main.c        **** 	if(counter == 0)
 1925              		.loc 1 381 0 is_stmt 1
 1926 16d3 83BDFCF7 		cmpl	$0, -2052(%rbp)
 1926      FFFF00
 1927 16da 0F85D400 		jne	.L88
 1927      0000
 382:main.c        **** 	{
 383:main.c        **** 		mat[len][4] = x_cord;
 1928              		.loc 1 383 0
 1929 16e0 8B85F0F7 		movl	-2064(%rbp), %eax
 1929      FFFF
 1930 16e6 4863D0   		movslq	%eax, %rdx
 1931 16e9 4889D0   		movq	%rdx, %rax
 1932 16ec 48C1E002 		salq	$2, %rax
 1933 16f0 4801D0   		addq	%rdx, %rax
 1934 16f3 48C1E002 		salq	$2, %rax
 1935 16f7 4801E8   		addq	%rbp, %rax
 1936 16fa 488D9030 		leaq	-2000(%rax), %rdx
 1936      F8FFFF
 1937 1701 8B85CCF7 		movl	-2100(%rbp), %eax
 1937      FFFF
 1938 1707 8902     		movl	%eax, (%rdx)
 384:main.c        **** 		mat[len][3] = y_cord;
 1939              		.loc 1 384 0
 1940 1709 8B85F0F7 		movl	-2064(%rbp), %eax
 1940      FFFF
 1941 170f 4863D0   		movslq	%eax, %rdx
 1942 1712 4889D0   		movq	%rdx, %rax
 1943 1715 48C1E002 		salq	$2, %rax
 1944 1719 4801D0   		addq	%rdx, %rax
 1945 171c 48C1E002 		salq	$2, %rax
 1946 1720 4801E8   		addq	%rbp, %rax
 1947 1723 488D902C 		leaq	-2004(%rax), %rdx
 1947      F8FFFF
 1948 172a 8B85C8F7 		movl	-2104(%rbp), %eax
 1948      FFFF
 1949 1730 8902     		movl	%eax, (%rdx)
 385:main.c        **** 		mat[len][2] = direction;
 1950              		.loc 1 385 0
 1951 1732 8B85F0F7 		movl	-2064(%rbp), %eax
 1951      FFFF
 1952 1738 4863D0   		movslq	%eax, %rdx
 1953 173b 4889D0   		movq	%rdx, %rax
 1954 173e 48C1E002 		salq	$2, %rax
 1955 1742 4801D0   		addq	%rdx, %rax
 1956 1745 48C1E002 		salq	$2, %rax
 1957 1749 4801E8   		addq	%rbp, %rax
 1958 174c 488D9028 		leaq	-2008(%rax), %rdx
 1958      F8FFFF
 1959 1753 8B85C0F7 		movl	-2112(%rbp), %eax
 1959      FFFF
 1960 1759 8902     		movl	%eax, (%rdx)
 386:main.c        **** 		mat[len][1] = ok;
 1961              		.loc 1 386 0
 1962 175b 8B85F0F7 		movl	-2064(%rbp), %eax
 1962      FFFF
 1963 1761 4863D0   		movslq	%eax, %rdx
 1964 1764 4889D0   		movq	%rdx, %rax
 1965 1767 48C1E002 		salq	$2, %rax
 1966 176b 4801D0   		addq	%rdx, %rax
 1967 176e 48C1E002 		salq	$2, %rax
 1968 1772 4801E8   		addq	%rbp, %rax
 1969 1775 488D9024 		leaq	-2012(%rax), %rdx
 1969      F8FFFF
 1970 177c 8B85C4F7 		movl	-2108(%rbp), %eax
 1970      FFFF
 1971 1782 8902     		movl	%eax, (%rdx)
 387:main.c        **** 		mat[len][0] = next;
 1972              		.loc 1 387 0
 1973 1784 8B85F0F7 		movl	-2064(%rbp), %eax
 1973      FFFF
 1974 178a 4863D0   		movslq	%eax, %rdx
 1975 178d 4889D0   		movq	%rdx, %rax
 1976 1790 48C1E002 		salq	$2, %rax
 1977 1794 4801D0   		addq	%rdx, %rax
 1978 1797 48C1E002 		salq	$2, %rax
 1979 179b 4801E8   		addq	%rbp, %rax
 1980 179e 488D9020 		leaq	-2016(%rax), %rdx
 1980      F8FFFF
 1981 17a5 8B85BCF7 		movl	-2116(%rbp), %eax
 1981      FFFF
 1982 17ab 8902     		movl	%eax, (%rdx)
 388:main.c        **** 		len++;
 1983              		.loc 1 388 0
 1984 17ad 8385F0F7 		addl	$1, -2064(%rbp)
 1984      FFFF01
 1985              	.L88:
 1986              	.LBB29:
 389:main.c        **** 	}
 390:main.c        **** 
 391:main.c        **** 	for (int i = 0; i < len; ++i)
 1987              		.loc 1 391 0
 1988 17b4 C78504F8 		movl	$0, -2044(%rbp)
 1988      FFFF0000 
 1988      0000
 1989 17be E9DA0000 		jmp	.L89
 1989      00
 1990              	.L90:
 392:main.c        **** 	{
 393:main.c        **** 		fprintf(fp2, "%d,%d,%d,%d,%d\n", mat[i][4], mat[i][3], mat[i][2], mat[i][1], mat[i][0]);
 1991              		.loc 1 393 0 discriminator 3
 1992 17c3 8B8504F8 		movl	-2044(%rbp), %eax
 1992      FFFF
 1993 17c9 4863D0   		movslq	%eax, %rdx
 1994 17cc 4889D0   		movq	%rdx, %rax
 1995 17cf 48C1E002 		salq	$2, %rax
 1996 17d3 4801D0   		addq	%rdx, %rax
 1997 17d6 48C1E002 		salq	$2, %rax
 1998 17da 4801E8   		addq	%rbp, %rax
 1999 17dd 482DE007 		subq	$2016, %rax
 1999      0000
 2000 17e3 8B30     		movl	(%rax), %esi
 2001 17e5 8B8504F8 		movl	-2044(%rbp), %eax
 2001      FFFF
 2002 17eb 4863D0   		movslq	%eax, %rdx
 2003 17ee 4889D0   		movq	%rdx, %rax
 2004 17f1 48C1E002 		salq	$2, %rax
 2005 17f5 4801D0   		addq	%rdx, %rax
 2006 17f8 48C1E002 		salq	$2, %rax
 2007 17fc 4801E8   		addq	%rbp, %rax
 2008 17ff 482DDC07 		subq	$2012, %rax
 2008      0000
 2009 1805 448B00   		movl	(%rax), %r8d
 2010 1808 8B8504F8 		movl	-2044(%rbp), %eax
 2010      FFFF
 2011 180e 4863D0   		movslq	%eax, %rdx
 2012 1811 4889D0   		movq	%rdx, %rax
 2013 1814 48C1E002 		salq	$2, %rax
 2014 1818 4801D0   		addq	%rdx, %rax
 2015 181b 48C1E002 		salq	$2, %rax
 2016 181f 4801E8   		addq	%rbp, %rax
 2017 1822 482DD807 		subq	$2008, %rax
 2017      0000
 2018 1828 8B38     		movl	(%rax), %edi
 2019 182a 8B8504F8 		movl	-2044(%rbp), %eax
 2019      FFFF
 2020 1830 4863D0   		movslq	%eax, %rdx
 2021 1833 4889D0   		movq	%rdx, %rax
 2022 1836 48C1E002 		salq	$2, %rax
 2023 183a 4801D0   		addq	%rdx, %rax
 2024 183d 48C1E002 		salq	$2, %rax
 2025 1841 4801E8   		addq	%rbp, %rax
 2026 1844 482DD407 		subq	$2004, %rax
 2026      0000
 2027 184a 8B08     		movl	(%rax), %ecx
 2028 184c 8B8504F8 		movl	-2044(%rbp), %eax
 2028      FFFF
 2029 1852 4863D0   		movslq	%eax, %rdx
 2030 1855 4889D0   		movq	%rdx, %rax
 2031 1858 48C1E002 		salq	$2, %rax
 2032 185c 4801D0   		addq	%rdx, %rax
 2033 185f 48C1E002 		salq	$2, %rax
 2034 1863 4801E8   		addq	%rbp, %rax
 2035 1866 482DD007 		subq	$2000, %rax
 2035      0000
 2036 186c 8B10     		movl	(%rax), %edx
 2037 186e 488B8518 		movq	-2024(%rbp), %rax
 2037      F8FFFF
 2038 1875 4883EC08 		subq	$8, %rsp
 2039 1879 56       		pushq	%rsi
 2040 187a 4589C1   		movl	%r8d, %r9d
 2041 187d 4189F8   		movl	%edi, %r8d
 2042 1880 BE000000 		movl	$.LC12, %esi
 2042      00
 2043 1885 4889C7   		movq	%rax, %rdi
 2044 1888 B8000000 		movl	$0, %eax
 2044      00
 2045 188d E8000000 		call	fprintf
 2045      00
 2046 1892 4883C410 		addq	$16, %rsp
 391:main.c        **** 	{
 2047              		.loc 1 391 0 discriminator 3
 2048 1896 838504F8 		addl	$1, -2044(%rbp)
 2048      FFFF01
 2049              	.L89:
 391:main.c        **** 	{
 2050              		.loc 1 391 0 is_stmt 0 discriminator 1
 2051 189d 8B8504F8 		movl	-2044(%rbp), %eax
 2051      FFFF
 2052 18a3 3B85F0F7 		cmpl	-2064(%rbp), %eax
 2052      FFFF
 2053 18a9 0F8C14FF 		jl	.L90
 2053      FFFF
 2054              	.LBE29:
 394:main.c        **** 	}
 395:main.c        **** 
 396:main.c        **** 	printf("%s\n", "Updated track_data");
 2055              		.loc 1 396 0 is_stmt 1
 2056 18af BF000000 		movl	$.LC13, %edi
 2056      00
 2057 18b4 E8000000 		call	puts
 2057      00
 2058              	.LBB30:
 397:main.c        **** 	for(int i=0;i<len;i++)
 2059              		.loc 1 397 0
 2060 18b9 C78508F8 		movl	$0, -2040(%rbp)
 2060      FFFF0000 
 2060      0000
 2061 18c3 EB69     		jmp	.L91
 2062              	.L94:
 2063              	.LBB31:
 398:main.c        **** 	{
 399:main.c        **** 		for(int j=0;j<5;j++)
 2064              		.loc 1 399 0
 2065 18c5 C7850CF8 		movl	$0, -2036(%rbp)
 2065      FFFF0000 
 2065      0000
 2066 18cf EB43     		jmp	.L92
 2067              	.L93:
 400:main.c        **** 		{
 401:main.c        **** 			printf("%d ", mat[i][4-j]);
 2068              		.loc 1 401 0 discriminator 3
 2069 18d1 B8040000 		movl	$4, %eax
 2069      00
 2070 18d6 2B850CF8 		subl	-2036(%rbp), %eax
 2070      FFFF
 2071 18dc 4863C8   		movslq	%eax, %rcx
 2072 18df 8B8508F8 		movl	-2040(%rbp), %eax
 2072      FFFF
 2073 18e5 4863D0   		movslq	%eax, %rdx
 2074 18e8 4889D0   		movq	%rdx, %rax
 2075 18eb 48C1E002 		salq	$2, %rax
 2076 18ef 4801D0   		addq	%rdx, %rax
 2077 18f2 4801C8   		addq	%rcx, %rax
 2078 18f5 8B848520 		movl	-2016(%rbp,%rax,4), %eax
 2078      F8FFFF
 2079 18fc 89C6     		movl	%eax, %esi
 2080 18fe BF000000 		movl	$.LC10, %edi
 2080      00
 2081 1903 B8000000 		movl	$0, %eax
 2081      00
 2082 1908 E8000000 		call	printf
 2082      00
 399:main.c        **** 		{
 2083              		.loc 1 399 0 discriminator 3
 2084 190d 83850CF8 		addl	$1, -2036(%rbp)
 2084      FFFF01
 2085              	.L92:
 399:main.c        **** 		{
 2086              		.loc 1 399 0 is_stmt 0 discriminator 1
 2087 1914 83BD0CF8 		cmpl	$4, -2036(%rbp)
 2087      FFFF04
 2088 191b 7EB4     		jle	.L93
 2089              	.LBE31:
 402:main.c        **** 		}
 403:main.c        **** 		printf("\n");
 2090              		.loc 1 403 0 is_stmt 1 discriminator 2
 2091 191d BF0A0000 		movl	$10, %edi
 2091      00
 2092 1922 E8000000 		call	putchar
 2092      00
 397:main.c        **** 	{
 2093              		.loc 1 397 0 discriminator 2
 2094 1927 838508F8 		addl	$1, -2040(%rbp)
 2094      FFFF01
 2095              	.L91:
 397:main.c        **** 	{
 2096              		.loc 1 397 0 is_stmt 0 discriminator 1
 2097 192e 8B8508F8 		movl	-2040(%rbp), %eax
 2097      FFFF
 2098 1934 3B85F0F7 		cmpl	-2064(%rbp), %eax
 2098      FFFF
 2099 193a 7C89     		jl	.L94
 2100              	.LBE30:
 404:main.c        **** 	}
 405:main.c        **** 	fclose(fp1);
 2101              		.loc 1 405 0 is_stmt 1
 2102 193c 488B8510 		movq	-2032(%rbp), %rax
 2102      F8FFFF
 2103 1943 4889C7   		movq	%rax, %rdi
 2104 1946 E8000000 		call	fclose
 2104      00
 406:main.c        **** 	fclose(fp2);
 2105              		.loc 1 406 0
 2106 194b 488B8518 		movq	-2024(%rbp), %rax
 2106      F8FFFF
 2107 1952 4889C7   		movq	%rax, %rdi
 2108 1955 E8000000 		call	fclose
 2108      00
 407:main.c        **** }
 2109              		.loc 1 407 0
 2110 195a 90       		nop
 2111 195b 488B45F8 		movq	-8(%rbp), %rax
 2112 195f 64483304 		xorq	%fs:40, %rax
 2112      25280000 
 2112      00
 2113 1968 7405     		je	.L95
 2114 196a E8000000 		call	__stack_chk_fail
 2114      00
 2115              	.L95:
 2116 196f C9       		leave
 2117              		.cfi_def_cfa 7, 8
 2118 1970 C3       		ret
 2119              		.cfi_endproc
 2120              	.LFE14:
 2123              	isHexDigit:
 2124              	.LFB15:
 408:main.c        **** 
 409:main.c        **** 
 410:main.c        **** ///////////////////////////////////////////////////////////////////////////////////////////////////
 411:main.c        **** ///////////////////////////////////////////////////////////////////////////////////////////////////
 412:main.c        **** 
 413:main.c        **** 
 414:main.c        **** static bool isHexDigit(char ch) {
 2125              		.loc 1 414 0
 2126              		.cfi_startproc
 2127 1971 55       		pushq	%rbp
 2128              		.cfi_def_cfa_offset 16
 2129              		.cfi_offset 6, -16
 2130 1972 4889E5   		movq	%rsp, %rbp
 2131              		.cfi_def_cfa_register 6
 2132 1975 89F8     		movl	%edi, %eax
 2133 1977 8845FC   		movb	%al, -4(%rbp)
 415:main.c        **** 	return
 416:main.c        **** 	(ch >= '0' && ch <= '9') ||
 417:main.c        **** 	(ch >= 'a' && ch <= 'f') ||
 2134              		.loc 1 417 0
 2135 197a 807DFC2F 		cmpb	$47, -4(%rbp)
 2136 197e 7E06     		jle	.L97
 416:main.c        **** 	(ch >= 'a' && ch <= 'f') ||
 2137              		.loc 1 416 0
 2138 1980 807DFC39 		cmpb	$57, -4(%rbp)
 2139 1984 7E18     		jle	.L98
 2140              	.L97:
 416:main.c        **** 	(ch >= 'a' && ch <= 'f') ||
 2141              		.loc 1 416 0 is_stmt 0 discriminator 1
 2142 1986 807DFC60 		cmpb	$96, -4(%rbp)
 2143 198a 7E06     		jle	.L99
 2144              		.loc 1 417 0 is_stmt 1
 2145 198c 807DFC66 		cmpb	$102, -4(%rbp)
 2146 1990 7E0C     		jle	.L98
 2147              	.L99:
 2148              		.loc 1 417 0 is_stmt 0 discriminator 2
 2149 1992 807DFC40 		cmpb	$64, -4(%rbp)
 2150 1996 7E0D     		jle	.L100
 418:main.c        **** 	(ch >= 'A' && ch <= 'F');
 2151              		.loc 1 418 0 is_stmt 1
 2152 1998 807DFC46 		cmpb	$70, -4(%rbp)
 2153 199c 7F07     		jg	.L100
 2154              	.L98:
 417:main.c        **** 	(ch >= 'A' && ch <= 'F');
 2155              		.loc 1 417 0 discriminator 1
 2156 199e B8010000 		movl	$1, %eax
 2156      00
 2157 19a3 EB05     		jmp	.L101
 2158              	.L100:
 417:main.c        **** 	(ch >= 'A' && ch <= 'F');
 2159              		.loc 1 417 0 is_stmt 0 discriminator 3
 2160 19a5 B8000000 		movl	$0, %eax
 2160      00
 2161              	.L101:
 416:main.c        **** 	(ch >= 'a' && ch <= 'f') ||
 2162              		.loc 1 416 0 is_stmt 1
 2163 19aa 83E001   		andl	$1, %eax
 419:main.c        **** }
 2164              		.loc 1 419 0
 2165 19ad 5D       		popq	%rbp
 2166              		.cfi_def_cfa 7, 8
 2167 19ae C3       		ret
 2168              		.cfi_endproc
 2169              	.LFE15:
 2172              	calcChecksum:
 2173              	.LFB16:
 420:main.c        **** 
 421:main.c        **** static uint16 calcChecksum(const uint8 *data, size_t length) {
 2174              		.loc 1 421 0
 2175              		.cfi_startproc
 2176 19af 55       		pushq	%rbp
 2177              		.cfi_def_cfa_offset 16
 2178              		.cfi_offset 6, -16
 2179 19b0 4889E5   		movq	%rsp, %rbp
 2180              		.cfi_def_cfa_register 6
 2181 19b3 48897DE8 		movq	%rdi, -24(%rbp)
 2182 19b7 488975E0 		movq	%rsi, -32(%rbp)
 422:main.c        **** 	uint16 cksum = 0x0000;
 2183              		.loc 1 422 0
 2184 19bb 66C745FE 		movw	$0, -2(%rbp)
 2184      0000
 423:main.c        **** 	while ( length-- ) {
 2185              		.loc 1 423 0
 2186 19c1 EB16     		jmp	.L104
 2187              	.L105:
 424:main.c        **** 		cksum = (uint16)(cksum + *data++);
 2188              		.loc 1 424 0
 2189 19c3 488B45E8 		movq	-24(%rbp), %rax
 2190 19c7 488D5001 		leaq	1(%rax), %rdx
 2191 19cb 488955E8 		movq	%rdx, -24(%rbp)
 2192 19cf 0FB600   		movzbl	(%rax), %eax
 2193 19d2 0FB6C0   		movzbl	%al, %eax
 2194 19d5 660145FE 		addw	%ax, -2(%rbp)
 2195              	.L104:
 423:main.c        **** 	while ( length-- ) {
 2196              		.loc 1 423 0
 2197 19d9 488B45E0 		movq	-32(%rbp), %rax
 2198 19dd 488D50FF 		leaq	-1(%rax), %rdx
 2199 19e1 488955E0 		movq	%rdx, -32(%rbp)
 2200 19e5 4885C0   		testq	%rax, %rax
 2201 19e8 75D9     		jne	.L105
 425:main.c        **** 	}
 426:main.c        **** 	return cksum;
 2202              		.loc 1 426 0
 2203 19ea 0FB745FE 		movzwl	-2(%rbp), %eax
 427:main.c        **** }
 2204              		.loc 1 427 0
 2205 19ee 5D       		popq	%rbp
 2206              		.cfi_def_cfa 7, 8
 2207 19ef C3       		ret
 2208              		.cfi_endproc
 2209              	.LFE16:
 2212              	getHexNibble:
 2213              	.LFB17:
 428:main.c        **** 
 429:main.c        **** static bool getHexNibble(char hexDigit, uint8 *nibble) {
 2214              		.loc 1 429 0
 2215              		.cfi_startproc
 2216 19f0 55       		pushq	%rbp
 2217              		.cfi_def_cfa_offset 16
 2218              		.cfi_offset 6, -16
 2219 19f1 4889E5   		movq	%rsp, %rbp
 2220              		.cfi_def_cfa_register 6
 2221 19f4 89F8     		movl	%edi, %eax
 2222 19f6 488975F0 		movq	%rsi, -16(%rbp)
 2223 19fa 8845FC   		movb	%al, -4(%rbp)
 430:main.c        **** 	if ( hexDigit >= '0' && hexDigit <= '9' ) {
 2224              		.loc 1 430 0
 2225 19fd 807DFC2F 		cmpb	$47, -4(%rbp)
 2226 1a01 7E1A     		jle	.L108
 2227              		.loc 1 430 0 is_stmt 0 discriminator 1
 2228 1a03 807DFC39 		cmpb	$57, -4(%rbp)
 2229 1a07 7F14     		jg	.L108
 431:main.c        **** 		*nibble = (uint8)(hexDigit - '0');
 2230              		.loc 1 431 0 is_stmt 1
 2231 1a09 0FB645FC 		movzbl	-4(%rbp), %eax
 2232 1a0d 8D50D0   		leal	-48(%rax), %edx
 2233 1a10 488B45F0 		movq	-16(%rbp), %rax
 2234 1a14 8810     		movb	%dl, (%rax)
 432:main.c        **** 		return false;
 2235              		.loc 1 432 0
 2236 1a16 B8000000 		movl	$0, %eax
 2236      00
 2237 1a1b EB45     		jmp	.L109
 2238              	.L108:
 433:main.c        **** 	} else if ( hexDigit >= 'a' && hexDigit <= 'f' ) {
 2239              		.loc 1 433 0
 2240 1a1d 807DFC60 		cmpb	$96, -4(%rbp)
 2241 1a21 7E1A     		jle	.L110
 2242              		.loc 1 433 0 is_stmt 0 discriminator 1
 2243 1a23 807DFC66 		cmpb	$102, -4(%rbp)
 2244 1a27 7F14     		jg	.L110
 434:main.c        **** 		*nibble = (uint8)(hexDigit - 'a' + 10);
 2245              		.loc 1 434 0 is_stmt 1
 2246 1a29 0FB645FC 		movzbl	-4(%rbp), %eax
 2247 1a2d 8D50A9   		leal	-87(%rax), %edx
 2248 1a30 488B45F0 		movq	-16(%rbp), %rax
 2249 1a34 8810     		movb	%dl, (%rax)
 435:main.c        **** 		return false;
 2250              		.loc 1 435 0
 2251 1a36 B8000000 		movl	$0, %eax
 2251      00
 2252 1a3b EB25     		jmp	.L109
 2253              	.L110:
 436:main.c        **** 	} else if ( hexDigit >= 'A' && hexDigit <= 'F' ) {
 2254              		.loc 1 436 0
 2255 1a3d 807DFC40 		cmpb	$64, -4(%rbp)
 2256 1a41 7E1A     		jle	.L111
 2257              		.loc 1 436 0 is_stmt 0 discriminator 1
 2258 1a43 807DFC46 		cmpb	$70, -4(%rbp)
 2259 1a47 7F14     		jg	.L111
 437:main.c        **** 		*nibble = (uint8)(hexDigit - 'A' + 10);
 2260              		.loc 1 437 0 is_stmt 1
 2261 1a49 0FB645FC 		movzbl	-4(%rbp), %eax
 2262 1a4d 8D50C9   		leal	-55(%rax), %edx
 2263 1a50 488B45F0 		movq	-16(%rbp), %rax
 2264 1a54 8810     		movb	%dl, (%rax)
 438:main.c        **** 		return false;
 2265              		.loc 1 438 0
 2266 1a56 B8000000 		movl	$0, %eax
 2266      00
 2267 1a5b EB05     		jmp	.L109
 2268              	.L111:
 439:main.c        **** 	} else {
 440:main.c        **** 		return true;
 2269              		.loc 1 440 0
 2270 1a5d B8010000 		movl	$1, %eax
 2270      00
 2271              	.L109:
 441:main.c        **** 	}
 442:main.c        **** }
 2272              		.loc 1 442 0
 2273 1a62 5D       		popq	%rbp
 2274              		.cfi_def_cfa 7, 8
 2275 1a63 C3       		ret
 2276              		.cfi_endproc
 2277              	.LFE17:
 2280              	getHexByte:
 2281              	.LFB18:
 443:main.c        **** 
 444:main.c        **** static int getHexByte(uint8 *byte) {
 2282              		.loc 1 444 0
 2283              		.cfi_startproc
 2284 1a64 55       		pushq	%rbp
 2285              		.cfi_def_cfa_offset 16
 2286              		.cfi_offset 6, -16
 2287 1a65 4889E5   		movq	%rsp, %rbp
 2288              		.cfi_def_cfa_register 6
 2289 1a68 4883EC20 		subq	$32, %rsp
 2290 1a6c 48897DE8 		movq	%rdi, -24(%rbp)
 2291              		.loc 1 444 0
 2292 1a70 64488B04 		movq	%fs:40, %rax
 2292      25280000 
 2292      00
 2293 1a79 488945F8 		movq	%rax, -8(%rbp)
 2294 1a7d 31C0     		xorl	%eax, %eax
 445:main.c        **** 	uint8 upperNibble;
 446:main.c        **** 	uint8 lowerNibble;
 447:main.c        **** 	if ( !getHexNibble(ptr[0], &upperNibble) && !getHexNibble(ptr[1], &lowerNibble) ) {
 2295              		.loc 1 447 0
 2296 1a7f 488B0500 		movq	ptr(%rip), %rax
 2296      000000
 2297 1a86 0FB600   		movzbl	(%rax), %eax
 2298 1a89 0FBEC0   		movsbl	%al, %eax
 2299 1a8c 488D55F6 		leaq	-10(%rbp), %rdx
 2300 1a90 4889D6   		movq	%rdx, %rsi
 2301 1a93 89C7     		movl	%eax, %edi
 2302 1a95 E856FFFF 		call	getHexNibble
 2302      FF
 2303 1a9a 83F001   		xorl	$1, %eax
 2304 1a9d 84C0     		testb	%al, %al
 2305 1a9f 744C     		je	.L113
 2306              		.loc 1 447 0 is_stmt 0 discriminator 1
 2307 1aa1 488B0500 		movq	ptr(%rip), %rax
 2307      000000
 2308 1aa8 4883C001 		addq	$1, %rax
 2309 1aac 0FB600   		movzbl	(%rax), %eax
 2310 1aaf 0FBEC0   		movsbl	%al, %eax
 2311 1ab2 488D55F7 		leaq	-9(%rbp), %rdx
 2312 1ab6 4889D6   		movq	%rdx, %rsi
 2313 1ab9 89C7     		movl	%eax, %edi
 2314 1abb E830FFFF 		call	getHexNibble
 2314      FF
 2315 1ac0 83F001   		xorl	$1, %eax
 2316 1ac3 84C0     		testb	%al, %al
 2317 1ac5 7426     		je	.L113
 448:main.c        **** 		*byte = (uint8)((upperNibble << 4) | lowerNibble);
 2318              		.loc 1 448 0 is_stmt 1
 2319 1ac7 0FB645F6 		movzbl	-10(%rbp), %eax
 2320 1acb 0FB6C0   		movzbl	%al, %eax
 2321 1ace C1E004   		sall	$4, %eax
 2322 1ad1 89C2     		movl	%eax, %edx
 2323 1ad3 0FB645F7 		movzbl	-9(%rbp), %eax
 2324 1ad7 09D0     		orl	%edx, %eax
 2325 1ad9 89C2     		movl	%eax, %edx
 2326 1adb 488B45E8 		movq	-24(%rbp), %rax
 2327 1adf 8810     		movb	%dl, (%rax)
 449:main.c        **** 		byte += 2;
 2328              		.loc 1 449 0
 2329 1ae1 488345E8 		addq	$2, -24(%rbp)
 2329      02
 450:main.c        **** 		return 0;
 2330              		.loc 1 450 0
 2331 1ae6 B8000000 		movl	$0, %eax
 2331      00
 2332 1aeb EB05     		jmp	.L115
 2333              	.L113:
 451:main.c        **** 	} else {
 452:main.c        **** 		return 1;
 2334              		.loc 1 452 0
 2335 1aed B8010000 		movl	$1, %eax
 2335      00
 2336              	.L115:
 453:main.c        **** 	}
 454:main.c        **** }
 2337              		.loc 1 454 0 discriminator 1
 2338 1af2 488B4DF8 		movq	-8(%rbp), %rcx
 2339 1af6 6448330C 		xorq	%fs:40, %rcx
 2339      25280000 
 2339      00
 2340 1aff 7405     		je	.L116
 2341              		.loc 1 454 0 is_stmt 0
 2342 1b01 E8000000 		call	__stack_chk_fail
 2342      00
 2343              	.L116:
 2344 1b06 C9       		leave
 2345              		.cfi_def_cfa 7, 8
 2346 1b07 C3       		ret
 2347              		.cfi_endproc
 2348              	.LFE18:
 2350              		.section	.rodata
 2351              	.LC14:
 2352 00c9 556E7061 		.string	"Unparseable hex number"
 2352      72736561 
 2352      626C6520 
 2352      68657820 
 2352      6E756D62 
 2353              	.LC15:
 2354 00e0 4368616E 		.string	"Channel out of range"
 2354      6E656C20 
 2354      6F757420 
 2354      6F662072 
 2354      616E6765 
 2355              	.LC16:
 2356 00f5 436F6E64 		.string	"Conduit out of range"
 2356      75697420 
 2356      6F757420 
 2356      6F662072 
 2356      616E6765 
 2357              	.LC17:
 2358 010a 496C6C65 		.string	"Illegal character"
 2358      67616C20 
 2358      63686172 
 2358      61637465 
 2358      7200
 2359              	.LC18:
 2360 011c 556E7465 		.string	"Unterminated string"
 2360      726D696E 
 2360      61746564 
 2360      20737472 
 2360      696E6700 
 2361              	.LC19:
 2362 0130 4E6F206D 		.string	"No memory"
 2362      656D6F72 
 2362      7900
 2363              	.LC20:
 2364 013a 456D7074 		.string	"Empty string"
 2364      79207374 
 2364      72696E67 
 2364      00
 2365              	.LC21:
 2366 0147 4F646420 		.string	"Odd number of digits"
 2366      6E756D62 
 2366      6572206F 
 2366      66206469 
 2366      67697473 
 2367              	.LC22:
 2368 015c 43616E6E 		.string	"Cannot load file"
 2368      6F74206C 
 2368      6F616420 
 2368      66696C65 
 2368      00
 2369              	.LC23:
 2370 016d 43616E6E 		.string	"Cannot save file"
 2370      6F742073 
 2370      61766520 
 2370      66696C65 
 2370      00
 2371              	.LC24:
 2372 017e 42616420 		.string	"Bad arguments"
 2372      61726775 
 2372      6D656E74 
 2372      7300
 2373 018c 00000000 		.align 32
 2373      00000000 
 2373      00000000 
 2373      00000000 
 2373      00000000 
 2376              	errMessages:
 2377 01a0 00000000 		.quad	0
 2377      00000000 
 2378 01a8 00000000 		.quad	0
 2378      00000000 
 2379 01b0 00000000 		.quad	.LC14
 2379      00000000 
 2380 01b8 00000000 		.quad	.LC15
 2380      00000000 
 2381 01c0 00000000 		.quad	.LC16
 2381      00000000 
 2382 01c8 00000000 		.quad	.LC17
 2382      00000000 
 2383 01d0 00000000 		.quad	.LC18
 2383      00000000 
 2384 01d8 00000000 		.quad	.LC19
 2384      00000000 
 2385 01e0 00000000 		.quad	.LC20
 2385      00000000 
 2386 01e8 00000000 		.quad	.LC21
 2386      00000000 
 2387 01f0 00000000 		.quad	.LC22
 2387      00000000 
 2388 01f8 00000000 		.quad	.LC23
 2388      00000000 
 2389 0200 00000000 		.quad	.LC24
 2389      00000000 
 2390              	.LC25:
 2391 0208 646F5265 		.string	"doRead()"
 2391      61642829 
 2391      00
 2392              	.LC26:
 2393 0211 4261666F 		.string	"Bafoon"
 2393      6F6E00
 2394              		.text
 2396              	doRead:
 2397              	.LFB19:
 455:main.c        **** 
 456:main.c        **** static const char *const errMessages[] = {
 457:main.c        **** 	NULL,
 458:main.c        **** 	NULL,
 459:main.c        **** 	"Unparseable hex number",
 460:main.c        **** 	"Channel out of range",
 461:main.c        **** 	"Conduit out of range",
 462:main.c        **** 	"Illegal character",
 463:main.c        **** 	"Unterminated string",
 464:main.c        **** 	"No memory",
 465:main.c        **** 	"Empty string",
 466:main.c        **** 	"Odd number of digits",
 467:main.c        **** 	"Cannot load file",
 468:main.c        **** 	"Cannot save file",
 469:main.c        **** 	"Bad arguments"
 470:main.c        **** };
 471:main.c        **** 
 472:main.c        **** typedef enum {
 473:main.c        **** 	FLP_SUCCESS,
 474:main.c        **** 	FLP_LIBERR,
 475:main.c        **** 	FLP_BAD_HEX,
 476:main.c        **** 	FLP_CHAN_RANGE,
 477:main.c        **** 	FLP_CONDUIT_RANGE,
 478:main.c        **** 	FLP_ILL_CHAR,
 479:main.c        **** 	FLP_UNTERM_STRING,
 480:main.c        **** 	FLP_NO_MEMORY,
 481:main.c        **** 	FLP_EMPTY_STRING,
 482:main.c        **** 	FLP_ODD_DIGITS,
 483:main.c        **** 	FLP_CANNOT_LOAD,
 484:main.c        **** 	FLP_CANNOT_SAVE,
 485:main.c        **** 	FLP_ARGS
 486:main.c        **** } ReturnCode;
 487:main.c        **** 
 488:main.c        **** static ReturnCode doRead(
 489:main.c        **** 	struct FLContext *handle, uint8 chan, uint32 length, FILE *destFile, uint16 *checksum,
 490:main.c        **** 	const char **error)
 491:main.c        **** {
 2398              		.loc 1 491 0 is_stmt 1
 2399              		.cfi_startproc
 2400 1b08 55       		pushq	%rbp
 2401              		.cfi_def_cfa_offset 16
 2402              		.cfi_offset 6, -16
 2403 1b09 4889E5   		movq	%rsp, %rbp
 2404              		.cfi_def_cfa_register 6
 2405 1b0c 4883EC60 		subq	$96, %rsp
 2406 1b10 48897DC8 		movq	%rdi, -56(%rbp)
 2407 1b14 89F0     		movl	%esi, %eax
 2408 1b16 8955C0   		movl	%edx, -64(%rbp)
 2409 1b19 48894DB8 		movq	%rcx, -72(%rbp)
 2410 1b1d 4C8945B0 		movq	%r8, -80(%rbp)
 2411 1b21 4C894DA8 		movq	%r9, -88(%rbp)
 2412 1b25 8845C4   		movb	%al, -60(%rbp)
 2413              		.loc 1 491 0
 2414 1b28 64488B04 		movq	%fs:40, %rax
 2414      25280000 
 2414      00
 2415 1b31 488945F8 		movq	%rax, -8(%rbp)
 2416 1b35 31C0     		xorl	%eax, %eax
 492:main.c        **** 	ReturnCode retVal = FLP_SUCCESS;
 2417              		.loc 1 492 0
 2418 1b37 C745D800 		movl	$0, -40(%rbp)
 2418      000000
 493:main.c        **** 	uint32 bytesWritten;
 494:main.c        **** 	FLStatus fStatus;
 495:main.c        **** 	uint32 chunkSize;
 496:main.c        **** 	const uint8 *recvData;
 497:main.c        **** 	uint32 actualLength;
 498:main.c        **** 	const uint8 *ptr;
 499:main.c        **** 	uint16 csVal = 0x0000;
 2419              		.loc 1 499 0
 2420 1b3e 66C745D2 		movw	$0, -46(%rbp)
 2420      0000
 500:main.c        **** 	#define READ_MAX 65536
 501:main.c        **** 
 502:main.c        **** 	// Read first chunk
 503:main.c        **** 	chunkSize = length >= READ_MAX ? READ_MAX : length;
 2421              		.loc 1 503 0
 2422 1b44 B8000001 		movl	$65536, %eax
 2422      00
 2423 1b49 817DC000 		cmpl	$65536, -64(%rbp)
 2423      000100
 2424 1b50 0F4645C0 		cmovbe	-64(%rbp), %eax
 2425 1b54 8945DC   		movl	%eax, -36(%rbp)
 504:main.c        **** 	fStatus = flReadChannelAsyncSubmit(handle, chan, chunkSize, NULL, error);
 2426              		.loc 1 504 0
 2427 1b57 0FB675C4 		movzbl	-60(%rbp), %esi
 2428 1b5b 488B4DA8 		movq	-88(%rbp), %rcx
 2429 1b5f 8B55DC   		movl	-36(%rbp), %edx
 2430 1b62 488B45C8 		movq	-56(%rbp), %rax
 2431 1b66 4989C8   		movq	%rcx, %r8
 2432 1b69 B9000000 		movl	$0, %ecx
 2432      00
 2433 1b6e 4889C7   		movq	%rax, %rdi
 2434 1b71 E8000000 		call	flReadChannelAsyncSubmit
 2434      00
 2435 1b76 8945E0   		movl	%eax, -32(%rbp)
 505:main.c        **** 	CHECK_STATUS(fStatus, FLP_LIBERR, cleanup, "doRead()");
 2436              		.loc 1 505 0
 2437 1b79 837DE000 		cmpl	$0, -32(%rbp)
 2438 1b7d 741D     		je	.L118
 2439              		.loc 1 505 0 is_stmt 0 discriminator 1
 2440 1b7f 488B45A8 		movq	-88(%rbp), %rax
 2441 1b83 BE000000 		movl	$.LC25, %esi
 2441      00
 2442 1b88 4889C7   		movq	%rax, %rdi
 2443 1b8b E8000000 		call	errPrefix
 2443      00
 2444 1b90 C745D801 		movl	$1, -40(%rbp)
 2444      000000
 2445 1b97 E9050200 		jmp	.L119
 2445      00
 2446              	.L118:
 506:main.c        **** 	length = length - chunkSize;
 2447              		.loc 1 506 0 is_stmt 1
 2448 1b9c 8B45DC   		movl	-36(%rbp), %eax
 2449 1b9f 2945C0   		subl	%eax, -64(%rbp)
 507:main.c        **** 
 508:main.c        **** 	while ( length ) {
 2450              		.loc 1 508 0
 2451 1ba2 E9280100 		jmp	.L120
 2451      00
 2452              	.L126:
 509:main.c        **** 		// Read chunk N
 510:main.c        **** 		chunkSize = length >= READ_MAX ? READ_MAX : length;
 2453              		.loc 1 510 0
 2454 1ba7 B8000001 		movl	$65536, %eax
 2454      00
 2455 1bac 817DC000 		cmpl	$65536, -64(%rbp)
 2455      000100
 2456 1bb3 0F4645C0 		cmovbe	-64(%rbp), %eax
 2457 1bb7 8945DC   		movl	%eax, -36(%rbp)
 511:main.c        **** 		fStatus = flReadChannelAsyncSubmit(handle, chan, chunkSize, NULL, error);
 2458              		.loc 1 511 0
 2459 1bba 0FB675C4 		movzbl	-60(%rbp), %esi
 2460 1bbe 488B4DA8 		movq	-88(%rbp), %rcx
 2461 1bc2 8B55DC   		movl	-36(%rbp), %edx
 2462 1bc5 488B45C8 		movq	-56(%rbp), %rax
 2463 1bc9 4989C8   		movq	%rcx, %r8
 2464 1bcc B9000000 		movl	$0, %ecx
 2464      00
 2465 1bd1 4889C7   		movq	%rax, %rdi
 2466 1bd4 E8000000 		call	flReadChannelAsyncSubmit
 2466      00
 2467 1bd9 8945E0   		movl	%eax, -32(%rbp)
 512:main.c        **** 		CHECK_STATUS(fStatus, FLP_LIBERR, cleanup, "doRead()");
 2468              		.loc 1 512 0
 2469 1bdc 837DE000 		cmpl	$0, -32(%rbp)
 2470 1be0 741D     		je	.L121
 2471              		.loc 1 512 0 is_stmt 0 discriminator 1
 2472 1be2 488B45A8 		movq	-88(%rbp), %rax
 2473 1be6 BE000000 		movl	$.LC25, %esi
 2473      00
 2474 1beb 4889C7   		movq	%rax, %rdi
 2475 1bee E8000000 		call	errPrefix
 2475      00
 2476 1bf3 C745D801 		movl	$1, -40(%rbp)
 2476      000000
 2477 1bfa E9A20100 		jmp	.L119
 2477      00
 2478              	.L121:
 513:main.c        **** 		length = length - chunkSize;
 2479              		.loc 1 513 0 is_stmt 1
 2480 1bff 8B45DC   		movl	-36(%rbp), %eax
 2481 1c02 2945C0   		subl	%eax, -64(%rbp)
 514:main.c        **** 		printf("Bafoon\n");
 2482              		.loc 1 514 0
 2483 1c05 BF000000 		movl	$.LC26, %edi
 2483      00
 2484 1c0a E8000000 		call	puts
 2484      00
 515:main.c        **** 		
 516:main.c        **** 		// Await chunk N-1
 517:main.c        **** 		fStatus = flReadChannelAsyncAwait(handle, &recvData, &actualLength, &actualLength, error);
 2485              		.loc 1 517 0
 2486 1c0f 488B7DA8 		movq	-88(%rbp), %rdi
 2487 1c13 488D4DD4 		leaq	-44(%rbp), %rcx
 2488 1c17 488D55D4 		leaq	-44(%rbp), %rdx
 2489 1c1b 488D75E8 		leaq	-24(%rbp), %rsi
 2490 1c1f 488B45C8 		movq	-56(%rbp), %rax
 2491 1c23 4989F8   		movq	%rdi, %r8
 2492 1c26 4889C7   		movq	%rax, %rdi
 2493 1c29 E8000000 		call	flReadChannelAsyncAwait
 2493      00
 2494 1c2e 8945E0   		movl	%eax, -32(%rbp)
 518:main.c        **** 		CHECK_STATUS(fStatus, FLP_LIBERR, cleanup, "doRead()");
 2495              		.loc 1 518 0
 2496 1c31 837DE000 		cmpl	$0, -32(%rbp)
 2497 1c35 741D     		je	.L122
 2498              		.loc 1 518 0 is_stmt 0 discriminator 1
 2499 1c37 488B45A8 		movq	-88(%rbp), %rax
 2500 1c3b BE000000 		movl	$.LC25, %esi
 2500      00
 2501 1c40 4889C7   		movq	%rax, %rdi
 2502 1c43 E8000000 		call	errPrefix
 2502      00
 2503 1c48 C745D801 		movl	$1, -40(%rbp)
 2503      000000
 2504 1c4f E94D0100 		jmp	.L119
 2504      00
 2505              	.L122:
 519:main.c        **** 
 520:main.c        **** 		// Write chunk N-1 to file
 521:main.c        **** 		bytesWritten = (uint32)fwrite(recvData, 1, actualLength, destFile);
 2506              		.loc 1 521 0 is_stmt 1
 2507 1c54 8B45D4   		movl	-44(%rbp), %eax
 2508 1c57 89C6     		movl	%eax, %esi
 2509 1c59 488B45E8 		movq	-24(%rbp), %rax
 2510 1c5d 488B55B8 		movq	-72(%rbp), %rdx
 2511 1c61 4889D1   		movq	%rdx, %rcx
 2512 1c64 4889F2   		movq	%rsi, %rdx
 2513 1c67 BE010000 		movl	$1, %esi
 2513      00
 2514 1c6c 4889C7   		movq	%rax, %rdi
 2515 1c6f E8000000 		call	fwrite
 2515      00
 2516 1c74 8945E4   		movl	%eax, -28(%rbp)
 522:main.c        **** 		CHECK_STATUS(bytesWritten != actualLength, FLP_CANNOT_SAVE, cleanup, "doRead()");
 2517              		.loc 1 522 0
 2518 1c77 8B45D4   		movl	-44(%rbp), %eax
 2519 1c7a 3945E4   		cmpl	%eax, -28(%rbp)
 2520 1c7d 741D     		je	.L123
 2521              		.loc 1 522 0 is_stmt 0 discriminator 1
 2522 1c7f 488B45A8 		movq	-88(%rbp), %rax
 2523 1c83 BE000000 		movl	$.LC25, %esi
 2523      00
 2524 1c88 4889C7   		movq	%rax, %rdi
 2525 1c8b E8000000 		call	errPrefix
 2525      00
 2526 1c90 C745D80B 		movl	$11, -40(%rbp)
 2526      000000
 2527 1c97 E9050100 		jmp	.L119
 2527      00
 2528              	.L123:
 523:main.c        **** 
 524:main.c        **** 		// Checksum chunk N-1
 525:main.c        **** 		chunkSize = actualLength;
 2529              		.loc 1 525 0 is_stmt 1
 2530 1c9c 8B45D4   		movl	-44(%rbp), %eax
 2531 1c9f 8945DC   		movl	%eax, -36(%rbp)
 526:main.c        **** 		ptr = recvData;
 2532              		.loc 1 526 0
 2533 1ca2 488B45E8 		movq	-24(%rbp), %rax
 2534 1ca6 488945F0 		movq	%rax, -16(%rbp)
 527:main.c        **** 		while ( chunkSize-- ) {
 2535              		.loc 1 527 0
 2536 1caa EB16     		jmp	.L124
 2537              	.L125:
 528:main.c        **** 			csVal = (uint16)(csVal + *ptr++);
 2538              		.loc 1 528 0
 2539 1cac 488B45F0 		movq	-16(%rbp), %rax
 2540 1cb0 488D5001 		leaq	1(%rax), %rdx
 2541 1cb4 488955F0 		movq	%rdx, -16(%rbp)
 2542 1cb8 0FB600   		movzbl	(%rax), %eax
 2543 1cbb 0FB6C0   		movzbl	%al, %eax
 2544 1cbe 660145D2 		addw	%ax, -46(%rbp)
 2545              	.L124:
 527:main.c        **** 		while ( chunkSize-- ) {
 2546              		.loc 1 527 0
 2547 1cc2 8B45DC   		movl	-36(%rbp), %eax
 2548 1cc5 8D50FF   		leal	-1(%rax), %edx
 2549 1cc8 8955DC   		movl	%edx, -36(%rbp)
 2550 1ccb 85C0     		testl	%eax, %eax
 2551 1ccd 75DD     		jne	.L125
 2552              	.L120:
 508:main.c        **** 		// Read chunk N
 2553              		.loc 1 508 0
 2554 1ccf 837DC000 		cmpl	$0, -64(%rbp)
 2555 1cd3 0F85CEFE 		jne	.L126
 2555      FFFF
 529:main.c        **** 		}
 530:main.c        **** 	}
 531:main.c        **** 
 532:main.c        **** 	// Await last chunk
 533:main.c        **** 	fStatus = flReadChannelAsyncAwait(handle, &recvData, &actualLength, &actualLength, error);
 2556              		.loc 1 533 0
 2557 1cd9 488B7DA8 		movq	-88(%rbp), %rdi
 2558 1cdd 488D4DD4 		leaq	-44(%rbp), %rcx
 2559 1ce1 488D55D4 		leaq	-44(%rbp), %rdx
 2560 1ce5 488D75E8 		leaq	-24(%rbp), %rsi
 2561 1ce9 488B45C8 		movq	-56(%rbp), %rax
 2562 1ced 4989F8   		movq	%rdi, %r8
 2563 1cf0 4889C7   		movq	%rax, %rdi
 2564 1cf3 E8000000 		call	flReadChannelAsyncAwait
 2564      00
 2565 1cf8 8945E0   		movl	%eax, -32(%rbp)
 534:main.c        **** 	CHECK_STATUS(fStatus, FLP_LIBERR, cleanup, "doRead()");
 2566              		.loc 1 534 0
 2567 1cfb 837DE000 		cmpl	$0, -32(%rbp)
 2568 1cff 741D     		je	.L127
 2569              		.loc 1 534 0 is_stmt 0 discriminator 1
 2570 1d01 488B45A8 		movq	-88(%rbp), %rax
 2571 1d05 BE000000 		movl	$.LC25, %esi
 2571      00
 2572 1d0a 4889C7   		movq	%rax, %rdi
 2573 1d0d E8000000 		call	errPrefix
 2573      00
 2574 1d12 C745D801 		movl	$1, -40(%rbp)
 2574      000000
 2575 1d19 E9830000 		jmp	.L119
 2575      00
 2576              	.L127:
 535:main.c        **** 	
 536:main.c        **** 	// Write last chunk to file
 537:main.c        **** 	bytesWritten = (uint32)fwrite(recvData, 1, actualLength, destFile);
 2577              		.loc 1 537 0 is_stmt 1
 2578 1d1e 8B45D4   		movl	-44(%rbp), %eax
 2579 1d21 89C6     		movl	%eax, %esi
 2580 1d23 488B45E8 		movq	-24(%rbp), %rax
 2581 1d27 488B55B8 		movq	-72(%rbp), %rdx
 2582 1d2b 4889D1   		movq	%rdx, %rcx
 2583 1d2e 4889F2   		movq	%rsi, %rdx
 2584 1d31 BE010000 		movl	$1, %esi
 2584      00
 2585 1d36 4889C7   		movq	%rax, %rdi
 2586 1d39 E8000000 		call	fwrite
 2586      00
 2587 1d3e 8945E4   		movl	%eax, -28(%rbp)
 538:main.c        **** 	CHECK_STATUS(bytesWritten != actualLength, FLP_CANNOT_SAVE, cleanup, "doRead()");
 2588              		.loc 1 538 0
 2589 1d41 8B45D4   		movl	-44(%rbp), %eax
 2590 1d44 3945E4   		cmpl	%eax, -28(%rbp)
 2591 1d47 741A     		je	.L128
 2592              		.loc 1 538 0 is_stmt 0 discriminator 1
 2593 1d49 488B45A8 		movq	-88(%rbp), %rax
 2594 1d4d BE000000 		movl	$.LC25, %esi
 2594      00
 2595 1d52 4889C7   		movq	%rax, %rdi
 2596 1d55 E8000000 		call	errPrefix
 2596      00
 2597 1d5a C745D80B 		movl	$11, -40(%rbp)
 2597      000000
 2598 1d61 EB3E     		jmp	.L119
 2599              	.L128:
 539:main.c        **** 
 540:main.c        **** 	// Checksum last chunk
 541:main.c        **** 	chunkSize = actualLength;
 2600              		.loc 1 541 0 is_stmt 1
 2601 1d63 8B45D4   		movl	-44(%rbp), %eax
 2602 1d66 8945DC   		movl	%eax, -36(%rbp)
 542:main.c        **** 	ptr = recvData;
 2603              		.loc 1 542 0
 2604 1d69 488B45E8 		movq	-24(%rbp), %rax
 2605 1d6d 488945F0 		movq	%rax, -16(%rbp)
 543:main.c        **** 	while ( chunkSize-- ) {
 2606              		.loc 1 543 0
 2607 1d71 EB16     		jmp	.L129
 2608              	.L130:
 544:main.c        **** 		csVal = (uint16)(csVal + *ptr++);
 2609              		.loc 1 544 0
 2610 1d73 488B45F0 		movq	-16(%rbp), %rax
 2611 1d77 488D5001 		leaq	1(%rax), %rdx
 2612 1d7b 488955F0 		movq	%rdx, -16(%rbp)
 2613 1d7f 0FB600   		movzbl	(%rax), %eax
 2614 1d82 0FB6C0   		movzbl	%al, %eax
 2615 1d85 660145D2 		addw	%ax, -46(%rbp)
 2616              	.L129:
 543:main.c        **** 	while ( chunkSize-- ) {
 2617              		.loc 1 543 0
 2618 1d89 8B45DC   		movl	-36(%rbp), %eax
 2619 1d8c 8D50FF   		leal	-1(%rax), %edx
 2620 1d8f 8955DC   		movl	%edx, -36(%rbp)
 2621 1d92 85C0     		testl	%eax, %eax
 2622 1d94 75DD     		jne	.L130
 545:main.c        **** 	}
 546:main.c        **** 	
 547:main.c        **** 	// Return checksum to caller
 548:main.c        **** 	*checksum = csVal;
 2623              		.loc 1 548 0
 2624 1d96 488B45B0 		movq	-80(%rbp), %rax
 2625 1d9a 0FB755D2 		movzwl	-46(%rbp), %edx
 2626 1d9e 668910   		movw	%dx, (%rax)
 2627              	.L119:
 549:main.c        **** 	cleanup:
 550:main.c        **** 	return retVal;
 2628              		.loc 1 550 0
 2629 1da1 8B45D8   		movl	-40(%rbp), %eax
 551:main.c        **** }
 2630              		.loc 1 551 0
 2631 1da4 488B4DF8 		movq	-8(%rbp), %rcx
 2632 1da8 6448330C 		xorq	%fs:40, %rcx
 2632      25280000 
 2632      00
 2633 1db1 7405     		je	.L132
 2634 1db3 E8000000 		call	__stack_chk_fail
 2634      00
 2635              	.L132:
 2636 1db8 C9       		leave
 2637              		.cfi_def_cfa 7, 8
 2638 1db9 C3       		ret
 2639              		.cfi_endproc
 2640              	.LFE19:
 2642              		.section	.rodata
 2643              	.LC27:
 2644 0218 646F5772 		.string	"doWrite()"
 2644      69746528 
 2644      2900
 2645              		.text
 2647              	doWrite:
 2648              	.LFB20:
 552:main.c        **** 
 553:main.c        **** static ReturnCode doWrite(
 554:main.c        **** 	struct FLContext *handle, uint8 chan, FILE *srcFile, size_t *length, uint16 *checksum,
 555:main.c        **** 	const char **error)
 556:main.c        **** {
 2649              		.loc 1 556 0
 2650              		.cfi_startproc
 2651 1dba 55       		pushq	%rbp
 2652              		.cfi_def_cfa_offset 16
 2653              		.cfi_offset 6, -16
 2654 1dbb 4889E5   		movq	%rsp, %rbp
 2655              		.cfi_def_cfa_register 6
 2656 1dbe 4881EC70 		subq	$65648, %rsp
 2656      000100
 2657 1dc5 4889BDB8 		movq	%rdi, -65608(%rbp)
 2657      FFFEFF
 2658 1dcc 89F0     		movl	%esi, %eax
 2659 1dce 488995A8 		movq	%rdx, -65624(%rbp)
 2659      FFFEFF
 2660 1dd5 48898DA0 		movq	%rcx, -65632(%rbp)
 2660      FFFEFF
 2661 1ddc 4C898598 		movq	%r8, -65640(%rbp)
 2661      FFFEFF
 2662 1de3 4C898D90 		movq	%r9, -65648(%rbp)
 2662      FFFEFF
 2663 1dea 8885B4FF 		movb	%al, -65612(%rbp)
 2663      FEFF
 2664              		.loc 1 556 0
 2665 1df0 64488B04 		movq	%fs:40, %rax
 2665      25280000 
 2665      00
 2666 1df9 488945F8 		movq	%rax, -8(%rbp)
 2667 1dfd 31C0     		xorl	%eax, %eax
 557:main.c        **** 	ReturnCode retVal = FLP_SUCCESS;
 2668              		.loc 1 557 0
 2669 1dff C785C8FF 		movl	$0, -65592(%rbp)
 2669      FEFF0000 
 2669      0000
 558:main.c        **** 	size_t bytesRead, i;
 559:main.c        **** 	FLStatus fStatus;
 560:main.c        **** 	const uint8 *ptr;
 561:main.c        **** 	uint16 csVal = 0x0000;
 2670              		.loc 1 561 0
 2671 1e09 66C785C6 		movw	$0, -65594(%rbp)
 2671      FFFEFF00 
 2671      00
 562:main.c        **** 	size_t lenVal = 0;
 2672              		.loc 1 562 0
 2673 1e12 48C785E0 		movq	$0, -65568(%rbp)
 2673      FFFEFF00 
 2673      000000
 2674              	.L139:
 563:main.c        **** 	#define WRITE_MAX (65536 - 5)
 564:main.c        **** 	uint8 buffer[WRITE_MAX];
 565:main.c        **** 
 566:main.c        **** 	do {
 567:main.c        **** 		// Read Nth chunk
 568:main.c        **** 		bytesRead = fread(buffer, 1, WRITE_MAX, srcFile);
 2675              		.loc 1 568 0
 2676 1e1d 488B95A8 		movq	-65624(%rbp), %rdx
 2676      FFFEFF
 2677 1e24 488D85F0 		leaq	-65552(%rbp), %rax
 2677      FFFEFF
 2678 1e2b 4889D1   		movq	%rdx, %rcx
 2679 1e2e BAFBFF00 		movl	$65531, %edx
 2679      00
 2680 1e33 BE010000 		movl	$1, %esi
 2680      00
 2681 1e38 4889C7   		movq	%rax, %rdi
 2682 1e3b E8000000 		call	fread
 2682      00
 2683 1e40 488985E8 		movq	%rax, -65560(%rbp)
 2683      FFFEFF
 569:main.c        **** 		if ( bytesRead ) {
 2684              		.loc 1 569 0
 2685 1e47 4883BDE8 		cmpq	$0, -65560(%rbp)
 2685      FFFEFF00 
 2686 1e4f 0F84C200 		je	.L134
 2686      0000
 570:main.c        **** 			// Update running total
 571:main.c        **** 			lenVal = lenVal + bytesRead;
 2687              		.loc 1 571 0
 2688 1e55 488B85E8 		movq	-65560(%rbp), %rax
 2688      FFFEFF
 2689 1e5c 480185E0 		addq	%rax, -65568(%rbp)
 2689      FFFEFF
 572:main.c        **** 
 573:main.c        **** 			// Submit Nth chunk
 574:main.c        **** 			fStatus = flWriteChannelAsync(handle, chan, bytesRead, buffer, error);
 2690              		.loc 1 574 0
 2691 1e63 0FB6B5B4 		movzbl	-65612(%rbp), %esi
 2691      FFFEFF
 2692 1e6a 488BBD90 		movq	-65648(%rbp), %rdi
 2692      FFFEFF
 2693 1e71 488D8DF0 		leaq	-65552(%rbp), %rcx
 2693      FFFEFF
 2694 1e78 488B95E8 		movq	-65560(%rbp), %rdx
 2694      FFFEFF
 2695 1e7f 488B85B8 		movq	-65608(%rbp), %rax
 2695      FFFEFF
 2696 1e86 4989F8   		movq	%rdi, %r8
 2697 1e89 4889C7   		movq	%rax, %rdi
 2698 1e8c E8000000 		call	flWriteChannelAsync
 2698      00
 2699 1e91 8985CCFF 		movl	%eax, -65588(%rbp)
 2699      FEFF
 575:main.c        **** 			CHECK_STATUS(fStatus, FLP_LIBERR, cleanup, "doWrite()");
 2700              		.loc 1 575 0
 2701 1e97 83BDCCFF 		cmpl	$0, -65588(%rbp)
 2701      FEFF00
 2702 1e9e 7423     		je	.L135
 2703              		.loc 1 575 0 is_stmt 0 discriminator 1
 2704 1ea0 488B8590 		movq	-65648(%rbp), %rax
 2704      FFFEFF
 2705 1ea7 BE000000 		movl	$.LC27, %esi
 2705      00
 2706 1eac 4889C7   		movq	%rax, %rdi
 2707 1eaf E8000000 		call	errPrefix
 2707      00
 2708 1eb4 C785C8FF 		movl	$1, -65592(%rbp)
 2708      FEFF0100 
 2708      0000
 2709 1ebe E9CF0000 		jmp	.L136
 2709      00
 2710              	.L135:
 576:main.c        **** 
 577:main.c        **** 			// Checksum Nth chunk
 578:main.c        **** 			i = bytesRead;
 2711              		.loc 1 578 0 is_stmt 1
 2712 1ec3 488B85E8 		movq	-65560(%rbp), %rax
 2712      FFFEFF
 2713 1eca 488985D0 		movq	%rax, -65584(%rbp)
 2713      FFFEFF
 579:main.c        **** 			ptr = buffer;
 2714              		.loc 1 579 0
 2715 1ed1 488D85F0 		leaq	-65552(%rbp), %rax
 2715      FFFEFF
 2716 1ed8 488985D8 		movq	%rax, -65576(%rbp)
 2716      FFFEFF
 580:main.c        **** 			while ( i-- ) {
 2717              		.loc 1 580 0
 2718 1edf EB1F     		jmp	.L137
 2719              	.L138:
 581:main.c        **** 				csVal = (uint16)(csVal + *ptr++);
 2720              		.loc 1 581 0
 2721 1ee1 488B85D8 		movq	-65576(%rbp), %rax
 2721      FFFEFF
 2722 1ee8 488D5001 		leaq	1(%rax), %rdx
 2723 1eec 488995D8 		movq	%rdx, -65576(%rbp)
 2723      FFFEFF
 2724 1ef3 0FB600   		movzbl	(%rax), %eax
 2725 1ef6 0FB6C0   		movzbl	%al, %eax
 2726 1ef9 660185C6 		addw	%ax, -65594(%rbp)
 2726      FFFEFF
 2727              	.L137:
 580:main.c        **** 			while ( i-- ) {
 2728              		.loc 1 580 0
 2729 1f00 488B85D0 		movq	-65584(%rbp), %rax
 2729      FFFEFF
 2730 1f07 488D50FF 		leaq	-1(%rax), %rdx
 2731 1f0b 488995D0 		movq	%rdx, -65584(%rbp)
 2731      FFFEFF
 2732 1f12 4885C0   		testq	%rax, %rax
 2733 1f15 75CA     		jne	.L138
 2734              	.L134:
 582:main.c        **** 			}
 583:main.c        **** 		}
 584:main.c        **** 	} while ( bytesRead == WRITE_MAX );
 2735              		.loc 1 584 0
 2736 1f17 4881BDE8 		cmpq	$65531, -65560(%rbp)
 2736      FFFEFFFB 
 2736      FF0000
 2737 1f22 0F84F5FE 		je	.L139
 2737      FFFF
 585:main.c        **** 
 586:main.c        **** 	// Wait for writes to be received. This is optional, but it's only fair if we're benchmarking to
 587:main.c        **** 	// actually wait for the work to be completed.
 588:main.c        **** 	fStatus = flAwaitAsyncWrites(handle, error);
 2738              		.loc 1 588 0
 2739 1f28 488B9590 		movq	-65648(%rbp), %rdx
 2739      FFFEFF
 2740 1f2f 488B85B8 		movq	-65608(%rbp), %rax
 2740      FFFEFF
 2741 1f36 4889D6   		movq	%rdx, %rsi
 2742 1f39 4889C7   		movq	%rax, %rdi
 2743 1f3c E8000000 		call	flAwaitAsyncWrites
 2743      00
 2744 1f41 8985CCFF 		movl	%eax, -65588(%rbp)
 2744      FEFF
 589:main.c        **** 	CHECK_STATUS(fStatus, FLP_LIBERR, cleanup, "doWrite()");
 2745              		.loc 1 589 0
 2746 1f47 83BDCCFF 		cmpl	$0, -65588(%rbp)
 2746      FEFF00
 2747 1f4e 7420     		je	.L140
 2748              		.loc 1 589 0 is_stmt 0 discriminator 1
 2749 1f50 488B8590 		movq	-65648(%rbp), %rax
 2749      FFFEFF
 2750 1f57 BE000000 		movl	$.LC27, %esi
 2750      00
 2751 1f5c 4889C7   		movq	%rax, %rdi
 2752 1f5f E8000000 		call	errPrefix
 2752      00
 2753 1f64 C785C8FF 		movl	$1, -65592(%rbp)
 2753      FEFF0100 
 2753      0000
 2754 1f6e EB22     		jmp	.L136
 2755              	.L140:
 590:main.c        **** 
 591:main.c        **** 	// Return checksum & length to caller
 592:main.c        **** 	*checksum = csVal;
 2756              		.loc 1 592 0 is_stmt 1
 2757 1f70 488B8598 		movq	-65640(%rbp), %rax
 2757      FFFEFF
 2758 1f77 0FB795C6 		movzwl	-65594(%rbp), %edx
 2758      FFFEFF
 2759 1f7e 668910   		movw	%dx, (%rax)
 593:main.c        **** 	*length = lenVal;
 2760              		.loc 1 593 0
 2761 1f81 488B85A0 		movq	-65632(%rbp), %rax
 2761      FFFEFF
 2762 1f88 488B95E0 		movq	-65568(%rbp), %rdx
 2762      FFFEFF
 2763 1f8f 488910   		movq	%rdx, (%rax)
 2764              	.L136:
 594:main.c        **** 	cleanup:
 595:main.c        **** 	return retVal;
 2765              		.loc 1 595 0
 2766 1f92 8B85C8FF 		movl	-65592(%rbp), %eax
 2766      FEFF
 596:main.c        **** }
 2767              		.loc 1 596 0
 2768 1f98 488B4DF8 		movq	-8(%rbp), %rcx
 2769 1f9c 6448330C 		xorq	%fs:40, %rcx
 2769      25280000 
 2769      00
 2770 1fa5 7405     		je	.L142
 2771 1fa7 E8000000 		call	__stack_chk_fail
 2771      00
 2772              	.L142:
 2773 1fac C9       		leave
 2774              		.cfi_def_cfa 7, 8
 2775 1fad C3       		ret
 2776              		.cfi_endproc
 2777              	.LFE20:
 2779              		.section	.rodata
 2780              	.LC28:
 2781 0222 776200   		.string	"wb"
 2782 0225 000000   		.align 8
 2783              	.LC31:
 2784 0228 52656164 		.string	"Read %d bytes (checksum 0x%04X) from channel %d at %f MiB/s\n"
 2784      20256420 
 2784      62797465 
 2784      73202863 
 2784      6865636B 
 2785              	.LC32:
 2786 0265 726200   		.string	"rb"
 2787              		.align 8
 2788              	.LC33:
 2789 0268 57726F74 		.string	"Wrote %zu bytes (checksum 0x%04X) to channel %lu at %f MiB/s\n"
 2789      6520257A 
 2789      75206279 
 2789      74657320 
 2789      28636865 
 2790              	.LC34:
 2791 02a6 25732061 		.string	"%s at column %d\n  %s\n  "
 2791      7420636F 
 2791      6C756D6E 
 2791      2025640A 
 2791      20202573 
 2792              	.LC35:
 2793 02be 5E0A00   		.string	"^\n"
 2794              		.text
 2796              	parseLine:
 2797              	.LFB21:
 597:main.c        **** 
 598:main.c        **** static int parseLine(struct FLContext *handle, const char *line, const char **error) {
 2798              		.loc 1 598 0
 2799              		.cfi_startproc
 2800 1fae 55       		pushq	%rbp
 2801              		.cfi_def_cfa_offset 16
 2802              		.cfi_offset 6, -16
 2803 1faf 4889E5   		movq	%rsp, %rbp
 2804              		.cfi_def_cfa_register 6
 2805 1fb2 4881EC10 		subq	$272, %rsp
 2805      010000
 2806 1fb9 4889BD08 		movq	%rdi, -248(%rbp)
 2806      FFFFFF
 2807 1fc0 4889B500 		movq	%rsi, -256(%rbp)
 2807      FFFFFF
 2808 1fc7 488995F8 		movq	%rdx, -264(%rbp)
 2808      FEFFFF
 2809              		.loc 1 598 0
 2810 1fce 64488B04 		movq	%fs:40, %rax
 2810      25280000 
 2810      00
 2811 1fd7 488945F8 		movq	%rax, -8(%rbp)
 2812 1fdb 31C0     		xorl	%eax, %eax
 599:main.c        **** 	ReturnCode retVal = FLP_SUCCESS, status;
 2813              		.loc 1 599 0
 2814 1fdd C78514FF 		movl	$0, -236(%rbp)
 2814      FFFF0000 
 2814      0000
 600:main.c        **** 	FLStatus fStatus;
 601:main.c        **** 	struct Buffer dataFromFPGA = {0,};
 2815              		.loc 1 601 0
 2816 1fe7 48C745D0 		movq	$0, -48(%rbp)
 2816      00000000 
 2817 1fef 48C745D8 		movq	$0, -40(%rbp)
 2817      00000000 
 2818 1ff7 48C745E0 		movq	$0, -32(%rbp)
 2818      00000000 
 2819 1fff 48C745E8 		movq	$0, -24(%rbp)
 2819      00000000 
 602:main.c        **** 	BufferStatus bStatus;
 603:main.c        **** 	uint8 *data = NULL;
 2820              		.loc 1 603 0
 2821 2007 48C78548 		movq	$0, -184(%rbp)
 2821      FFFFFF00 
 2821      000000
 604:main.c        **** 	char *fileName = NULL;
 2822              		.loc 1 604 0
 2823 2012 48C78550 		movq	$0, -176(%rbp)
 2823      FFFFFF00 
 2823      000000
 605:main.c        **** 	FILE *file = NULL;
 2824              		.loc 1 605 0
 2825 201d 48C78558 		movq	$0, -168(%rbp)
 2825      FFFFFF00 
 2825      000000
 606:main.c        **** 	double totalTime, speed;
 607:main.c        **** 	#ifdef WIN32
 608:main.c        **** 	LARGE_INTEGER tvStart, tvEnd, freq;
 609:main.c        **** 	DWORD_PTR mask = 1;
 610:main.c        **** 	SetThreadAffinityMask(GetCurrentThread(), mask);
 611:main.c        **** 	QueryPerformanceFrequency(&freq);
 612:main.c        **** 	#else
 613:main.c        **** 	struct timeval tvStart, tvEnd;
 614:main.c        **** 	long long startTime, endTime;
 615:main.c        **** 	#endif
 616:main.c        **** 	bStatus = bufInitialise(&dataFromFPGA, 1024, 0x00, error);
 2826              		.loc 1 616 0
 2827 2028 488B95F8 		movq	-264(%rbp), %rdx
 2827      FEFFFF
 2828 202f 488D45D0 		leaq	-48(%rbp), %rax
 2829 2033 4889D1   		movq	%rdx, %rcx
 2830 2036 BA000000 		movl	$0, %edx
 2830      00
 2831 203b BE000400 		movl	$1024, %esi
 2831      00
 2832 2040 4889C7   		movq	%rax, %rdi
 2833 2043 E8000000 		call	bufInitialise
 2833      00
 2834 2048 898520FF 		movl	%eax, -224(%rbp)
 2834      FFFF
 617:main.c        **** 	CHECK_STATUS(bStatus, FLP_LIBERR, cleanup);
 2835              		.loc 1 617 0
 2836 204e 83BD20FF 		cmpl	$0, -224(%rbp)
 2836      FFFF00
 2837 2055 740F     		je	.L144
 2838              		.loc 1 617 0 is_stmt 0 discriminator 1
 2839 2057 C78514FF 		movl	$1, -236(%rbp)
 2839      FFFF0100 
 2839      0000
 2840 2061 E9E40E00 		jmp	.L145
 2840      00
 2841              	.L144:
 618:main.c        **** 	ptr = line;
 2842              		.loc 1 618 0 is_stmt 1
 2843 2066 488B8500 		movq	-256(%rbp), %rax
 2843      FFFFFF
 2844 206d 48890500 		movq	%rax, ptr(%rip)
 2844      000000
 619:main.c        **** 	do {
 620:main.c        **** 		while ( *ptr == ';' ) {
 2845              		.loc 1 620 0
 2846 2074 EB12     		jmp	.L146
 2847              	.L147:
 621:main.c        **** 			ptr++;
 2848              		.loc 1 621 0
 2849 2076 488B0500 		movq	ptr(%rip), %rax
 2849      000000
 2850 207d 4883C001 		addq	$1, %rax
 2851 2081 48890500 		movq	%rax, ptr(%rip)
 2851      000000
 2852              	.L146:
 620:main.c        **** 			ptr++;
 2853              		.loc 1 620 0
 2854 2088 488B0500 		movq	ptr(%rip), %rax
 2854      000000
 2855 208f 0FB600   		movzbl	(%rax), %eax
 2856 2092 3C3B     		cmpb	$59, %al
 2857 2094 74E0     		je	.L147
 622:main.c        **** 		}
 623:main.c        **** 		switch ( *ptr ) {
 2858              		.loc 1 623 0
 2859 2096 488B0500 		movq	ptr(%rip), %rax
 2859      000000
 2860 209d 0FB600   		movzbl	(%rax), %eax
 2861 20a0 0FBEC0   		movsbl	%al, %eax
 2862 20a3 83F872   		cmpl	$114, %eax
 2863 20a6 7417     		je	.L149
 2864 20a8 83F877   		cmpl	$119, %eax
 2865 20ab 0F84C306 		je	.L150
 2865      0000
 2866 20b1 83F82B   		cmpl	$43, %eax
 2867 20b4 0F84530D 		je	.L151
 2867      0000
 2868 20ba E93A0E00 		jmp	.L221
 2868      00
 2869              	.L149:
 2870              	.LBB32:
 624:main.c        **** 			case 'r':{
 625:main.c        **** 				uint32 chan;
 626:main.c        **** 				uint32 length = 1;
 2871              		.loc 1 626 0
 2872 20bf C78518FF 		movl	$1, -232(%rbp)
 2872      FFFF0100 
 2872      0000
 627:main.c        **** 				char *end;
 628:main.c        **** 				ptr++;
 2873              		.loc 1 628 0
 2874 20c9 488B0500 		movq	ptr(%rip), %rax
 2874      000000
 2875 20d0 4883C001 		addq	$1, %rax
 2876 20d4 48890500 		movq	%rax, ptr(%rip)
 2876      000000
 629:main.c        **** 
 630:main.c        **** 			// Get the channel to be read:
 631:main.c        **** 				errno = 0;
 2877              		.loc 1 631 0
 2878 20db E8000000 		call	__errno_location
 2878      00
 2879 20e0 C7000000 		movl	$0, (%rax)
 2879      0000
 632:main.c        **** 				chan = (uint32)strtoul(ptr, &end, 16);
 2880              		.loc 1 632 0
 2881 20e6 488B0500 		movq	ptr(%rip), %rax
 2881      000000
 2882 20ed 488D8D40 		leaq	-192(%rbp), %rcx
 2882      FFFFFF
 2883 20f4 BA100000 		movl	$16, %edx
 2883      00
 2884 20f9 4889CE   		movq	%rcx, %rsi
 2885 20fc 4889C7   		movq	%rax, %rdi
 2886 20ff E8000000 		call	strtoul
 2886      00
 2887 2104 898530FF 		movl	%eax, -208(%rbp)
 2887      FFFF
 633:main.c        **** 				CHECK_STATUS(errno, FLP_BAD_HEX, cleanup);
 2888              		.loc 1 633 0
 2889 210a E8000000 		call	__errno_location
 2889      00
 2890 210f 8B00     		movl	(%rax), %eax
 2891 2111 85C0     		testl	%eax, %eax
 2892 2113 740F     		je	.L152
 2893              		.loc 1 633 0 is_stmt 0 discriminator 1
 2894 2115 C78514FF 		movl	$2, -236(%rbp)
 2894      FFFF0200 
 2894      0000
 2895 211f E9260E00 		jmp	.L145
 2895      00
 2896              	.L152:
 634:main.c        **** 
 635:main.c        **** 			// Ensure that it's 0-127
 636:main.c        **** 				CHECK_STATUS(chan > 127, FLP_CHAN_RANGE, cleanup);
 2897              		.loc 1 636 0 is_stmt 1
 2898 2124 83BD30FF 		cmpl	$127, -208(%rbp)
 2898      FFFF7F
 2899 212b 760F     		jbe	.L154
 2900              		.loc 1 636 0 is_stmt 0 discriminator 1
 2901 212d C78514FF 		movl	$3, -236(%rbp)
 2901      FFFF0300 
 2901      0000
 2902 2137 E90E0E00 		jmp	.L145
 2902      00
 2903              	.L154:
 637:main.c        **** 				ptr = end;
 2904              		.loc 1 637 0 is_stmt 1
 2905 213c 488B8540 		movq	-192(%rbp), %rax
 2905      FFFFFF
 2906 2143 48890500 		movq	%rax, ptr(%rip)
 2906      000000
 638:main.c        **** 
 639:main.c        **** 			// Only three valid chars at this point:
 640:main.c        **** 				CHECK_STATUS(*ptr != '\0' && *ptr != ';' && *ptr != ' ', FLP_ILL_CHAR, cleanup);
 2907              		.loc 1 640 0
 2908 214a 488B0500 		movq	ptr(%rip), %rax
 2908      000000
 2909 2151 0FB600   		movzbl	(%rax), %eax
 2910 2154 84C0     		testb	%al, %al
 2911 2156 742B     		je	.L155
 2912              		.loc 1 640 0 is_stmt 0 discriminator 1
 2913 2158 488B0500 		movq	ptr(%rip), %rax
 2913      000000
 2914 215f 0FB600   		movzbl	(%rax), %eax
 2915 2162 3C3B     		cmpb	$59, %al
 2916 2164 741D     		je	.L155
 2917              		.loc 1 640 0 discriminator 2
 2918 2166 488B0500 		movq	ptr(%rip), %rax
 2918      000000
 2919 216d 0FB600   		movzbl	(%rax), %eax
 2920 2170 3C20     		cmpb	$32, %al
 2921 2172 740F     		je	.L155
 2922              		.loc 1 640 0 discriminator 3
 2923 2174 C78514FF 		movl	$5, -236(%rbp)
 2923      FFFF0500 
 2923      0000
 2924 217e E9C70D00 		jmp	.L145
 2924      00
 2925              	.L155:
 641:main.c        **** 
 642:main.c        **** 				if ( *ptr == ' ' ) {
 2926              		.loc 1 642 0 is_stmt 1
 2927 2183 488B0500 		movq	ptr(%rip), %rax
 2927      000000
 2928 218a 0FB600   		movzbl	(%rax), %eax
 2929 218d 3C20     		cmpb	$32, %al
 2930 218f 0F851D02 		jne	.L156
 2930      0000
 643:main.c        **** 					ptr++;
 2931              		.loc 1 643 0
 2932 2195 488B0500 		movq	ptr(%rip), %rax
 2932      000000
 2933 219c 4883C001 		addq	$1, %rax
 2934 21a0 48890500 		movq	%rax, ptr(%rip)
 2934      000000
 644:main.c        **** 
 645:main.c        **** 				// Get the read count:
 646:main.c        **** 					errno = 0;
 2935              		.loc 1 646 0
 2936 21a7 E8000000 		call	__errno_location
 2936      00
 2937 21ac C7000000 		movl	$0, (%rax)
 2937      0000
 647:main.c        **** 					length = (uint32)strtoul(ptr, &end, 16);
 2938              		.loc 1 647 0
 2939 21b2 488B0500 		movq	ptr(%rip), %rax
 2939      000000
 2940 21b9 488D8D40 		leaq	-192(%rbp), %rcx
 2940      FFFFFF
 2941 21c0 BA100000 		movl	$16, %edx
 2941      00
 2942 21c5 4889CE   		movq	%rcx, %rsi
 2943 21c8 4889C7   		movq	%rax, %rdi
 2944 21cb E8000000 		call	strtoul
 2944      00
 2945 21d0 898518FF 		movl	%eax, -232(%rbp)
 2945      FFFF
 648:main.c        **** 					CHECK_STATUS(errno, FLP_BAD_HEX, cleanup);
 2946              		.loc 1 648 0
 2947 21d6 E8000000 		call	__errno_location
 2947      00
 2948 21db 8B00     		movl	(%rax), %eax
 2949 21dd 85C0     		testl	%eax, %eax
 2950 21df 740F     		je	.L157
 2951              		.loc 1 648 0 is_stmt 0 discriminator 1
 2952 21e1 C78514FF 		movl	$2, -236(%rbp)
 2952      FFFF0200 
 2952      0000
 2953 21eb E95A0D00 		jmp	.L145
 2953      00
 2954              	.L157:
 649:main.c        **** 					ptr = end;
 2955              		.loc 1 649 0 is_stmt 1
 2956 21f0 488B8540 		movq	-192(%rbp), %rax
 2956      FFFFFF
 2957 21f7 48890500 		movq	%rax, ptr(%rip)
 2957      000000
 650:main.c        **** 
 651:main.c        **** 				// Only three valid chars at this point:
 652:main.c        **** 					CHECK_STATUS(*ptr != '\0' && *ptr != ';' && *ptr != ' ', FLP_ILL_CHAR, cleanup);
 2958              		.loc 1 652 0
 2959 21fe 488B0500 		movq	ptr(%rip), %rax
 2959      000000
 2960 2205 0FB600   		movzbl	(%rax), %eax
 2961 2208 84C0     		testb	%al, %al
 2962 220a 742B     		je	.L158
 2963              		.loc 1 652 0 is_stmt 0 discriminator 1
 2964 220c 488B0500 		movq	ptr(%rip), %rax
 2964      000000
 2965 2213 0FB600   		movzbl	(%rax), %eax
 2966 2216 3C3B     		cmpb	$59, %al
 2967 2218 741D     		je	.L158
 2968              		.loc 1 652 0 discriminator 2
 2969 221a 488B0500 		movq	ptr(%rip), %rax
 2969      000000
 2970 2221 0FB600   		movzbl	(%rax), %eax
 2971 2224 3C20     		cmpb	$32, %al
 2972 2226 740F     		je	.L158
 2973              		.loc 1 652 0 discriminator 3
 2974 2228 C78514FF 		movl	$5, -236(%rbp)
 2974      FFFF0500 
 2974      0000
 2975 2232 E9130D00 		jmp	.L145
 2975      00
 2976              	.L158:
 653:main.c        **** 					if ( *ptr == ' ' ) {
 2977              		.loc 1 653 0 is_stmt 1
 2978 2237 488B0500 		movq	ptr(%rip), %rax
 2978      000000
 2979 223e 0FB600   		movzbl	(%rax), %eax
 2980 2241 3C20     		cmpb	$32, %al
 2981 2243 0F856901 		jne	.L156
 2981      0000
 2982              	.LBB33:
 654:main.c        **** 						const char *p;
 655:main.c        **** 						const char quoteChar = *++ptr;
 2983              		.loc 1 655 0
 2984 2249 488B0500 		movq	ptr(%rip), %rax
 2984      000000
 2985 2250 4883C001 		addq	$1, %rax
 2986 2254 48890500 		movq	%rax, ptr(%rip)
 2986      000000
 2987 225b 488B0500 		movq	ptr(%rip), %rax
 2987      000000
 2988 2262 0FB600   		movzbl	(%rax), %eax
 2989 2265 888511FF 		movb	%al, -239(%rbp)
 2989      FFFF
 656:main.c        **** 						CHECK_STATUS(
 2990              		.loc 1 656 0
 2991 226b 80BD11FF 		cmpb	$34, -239(%rbp)
 2991      FFFF22
 2992 2272 7418     		je	.L159
 2993              		.loc 1 656 0 is_stmt 0 discriminator 1
 2994 2274 80BD11FF 		cmpb	$39, -239(%rbp)
 2994      FFFF27
 2995 227b 740F     		je	.L159
 2996              		.loc 1 656 0 discriminator 2
 2997 227d C78514FF 		movl	$5, -236(%rbp)
 2997      FFFF0500 
 2997      0000
 2998 2287 E9BE0C00 		jmp	.L145
 2998      00
 2999              	.L159:
 657:main.c        **** 							(quoteChar != '"' && quoteChar != '\''),
 658:main.c        **** 							FLP_ILL_CHAR, cleanup);
 659:main.c        **** 
 660:main.c        **** 					// Get the file to write bytes to:
 661:main.c        **** 						ptr++;
 3000              		.loc 1 661 0 is_stmt 1
 3001 228c 488B0500 		movq	ptr(%rip), %rax
 3001      000000
 3002 2293 4883C001 		addq	$1, %rax
 3003 2297 48890500 		movq	%rax, ptr(%rip)
 3003      000000
 662:main.c        **** 						p = ptr;
 3004              		.loc 1 662 0
 3005 229e 488B0500 		movq	ptr(%rip), %rax
 3005      000000
 3006 22a5 48898560 		movq	%rax, -160(%rbp)
 3006      FFFFFF
 663:main.c        **** 						while ( *p != quoteChar && *p != '\0' ) {
 3007              		.loc 1 663 0
 3008 22ac EB08     		jmp	.L160
 3009              	.L162:
 664:main.c        **** 							p++;
 3010              		.loc 1 664 0
 3011 22ae 48838560 		addq	$1, -160(%rbp)
 3011      FFFFFF01 
 3012              	.L160:
 663:main.c        **** 						while ( *p != quoteChar && *p != '\0' ) {
 3013              		.loc 1 663 0
 3014 22b6 488B8560 		movq	-160(%rbp), %rax
 3014      FFFFFF
 3015 22bd 0FB600   		movzbl	(%rax), %eax
 3016 22c0 3A8511FF 		cmpb	-239(%rbp), %al
 3016      FFFF
 3017 22c6 740E     		je	.L161
 663:main.c        **** 						while ( *p != quoteChar && *p != '\0' ) {
 3018              		.loc 1 663 0 is_stmt 0 discriminator 1
 3019 22c8 488B8560 		movq	-160(%rbp), %rax
 3019      FFFFFF
 3020 22cf 0FB600   		movzbl	(%rax), %eax
 3021 22d2 84C0     		testb	%al, %al
 3022 22d4 75D8     		jne	.L162
 3023              	.L161:
 665:main.c        **** 						}
 666:main.c        **** 						CHECK_STATUS(*p == '\0', FLP_UNTERM_STRING, cleanup);
 3024              		.loc 1 666 0 is_stmt 1
 3025 22d6 488B8560 		movq	-160(%rbp), %rax
 3025      FFFFFF
 3026 22dd 0FB600   		movzbl	(%rax), %eax
 3027 22e0 84C0     		testb	%al, %al
 3028 22e2 750F     		jne	.L163
 3029              		.loc 1 666 0 is_stmt 0 discriminator 1
 3030 22e4 C78514FF 		movl	$6, -236(%rbp)
 3030      FFFF0600 
 3030      0000
 3031 22ee E9570C00 		jmp	.L145
 3031      00
 3032              	.L163:
 667:main.c        **** 						fileName = malloc((size_t)(p - ptr + 1));
 3033              		.loc 1 667 0 is_stmt 1
 3034 22f3 488B8560 		movq	-160(%rbp), %rax
 3034      FFFFFF
 3035 22fa 488B1500 		movq	ptr(%rip), %rdx
 3035      000000
 3036 2301 4829D0   		subq	%rdx, %rax
 3037 2304 4883C001 		addq	$1, %rax
 3038 2308 4889C7   		movq	%rax, %rdi
 3039 230b E8000000 		call	malloc
 3039      00
 3040 2310 48898550 		movq	%rax, -176(%rbp)
 3040      FFFFFF
 668:main.c        **** 						CHECK_STATUS(!fileName, FLP_NO_MEMORY, cleanup);
 3041              		.loc 1 668 0
 3042 2317 4883BD50 		cmpq	$0, -176(%rbp)
 3042      FFFFFF00 
 3043 231f 750F     		jne	.L164
 3044              		.loc 1 668 0 is_stmt 0 discriminator 1
 3045 2321 C78514FF 		movl	$7, -236(%rbp)
 3045      FFFF0700 
 3045      0000
 3046 232b E91A0C00 		jmp	.L145
 3046      00
 3047              	.L164:
 669:main.c        **** 						CHECK_STATUS(p - ptr == 0, FLP_EMPTY_STRING, cleanup);
 3048              		.loc 1 669 0 is_stmt 1
 3049 2330 488B8560 		movq	-160(%rbp), %rax
 3049      FFFFFF
 3050 2337 488B1500 		movq	ptr(%rip), %rdx
 3050      000000
 3051 233e 4839D0   		cmpq	%rdx, %rax
 3052 2341 750F     		jne	.L165
 3053              		.loc 1 669 0 is_stmt 0 discriminator 1
 3054 2343 C78514FF 		movl	$8, -236(%rbp)
 3054      FFFF0800 
 3054      0000
 3055 234d E9F80B00 		jmp	.L145
 3055      00
 3056              	.L165:
 670:main.c        **** 						strncpy(fileName, ptr, (size_t)(p - ptr));
 3057              		.loc 1 670 0 is_stmt 1
 3058 2352 488B8560 		movq	-160(%rbp), %rax
 3058      FFFFFF
 3059 2359 488B1500 		movq	ptr(%rip), %rdx
 3059      000000
 3060 2360 4829D0   		subq	%rdx, %rax
 3061 2363 4889C2   		movq	%rax, %rdx
 3062 2366 488B0D00 		movq	ptr(%rip), %rcx
 3062      000000
 3063 236d 488B8550 		movq	-176(%rbp), %rax
 3063      FFFFFF
 3064 2374 4889CE   		movq	%rcx, %rsi
 3065 2377 4889C7   		movq	%rax, %rdi
 3066 237a E8000000 		call	strncpy
 3066      00
 671:main.c        **** 						fileName[p - ptr] = '\0';
 3067              		.loc 1 671 0
 3068 237f 488B8560 		movq	-160(%rbp), %rax
 3068      FFFFFF
 3069 2386 488B1500 		movq	ptr(%rip), %rdx
 3069      000000
 3070 238d 4829D0   		subq	%rdx, %rax
 3071 2390 4889C2   		movq	%rax, %rdx
 3072 2393 488B8550 		movq	-176(%rbp), %rax
 3072      FFFFFF
 3073 239a 4801D0   		addq	%rdx, %rax
 3074 239d C60000   		movb	$0, (%rax)
 672:main.c        **** 						ptr = p + 1;
 3075              		.loc 1 672 0
 3076 23a0 488B8560 		movq	-160(%rbp), %rax
 3076      FFFFFF
 3077 23a7 4883C001 		addq	$1, %rax
 3078 23ab 48890500 		movq	%rax, ptr(%rip)
 3078      000000
 3079              	.L156:
 3080              	.LBE33:
 673:main.c        **** 					}
 674:main.c        **** 				}
 675:main.c        **** 				if ( fileName ) {
 3081              		.loc 1 675 0
 3082 23b2 4883BD50 		cmpq	$0, -176(%rbp)
 3082      FFFFFF00 
 3083 23ba 0F84EA01 		je	.L166
 3083      0000
 3084              	.LBB34:
 676:main.c        **** 					uint16 checksum = 0x0000;
 3085              		.loc 1 676 0
 3086 23c0 66C78538 		movw	$0, -200(%rbp)
 3086      FFFFFF00 
 3086      00
 677:main.c        **** 
 678:main.c        **** 				// Open file for writing
 679:main.c        **** 					file = fopen(fileName, "wb");
 3087              		.loc 1 679 0
 3088 23c9 488B8550 		movq	-176(%rbp), %rax
 3088      FFFFFF
 3089 23d0 BE000000 		movl	$.LC28, %esi
 3089      00
 3090 23d5 4889C7   		movq	%rax, %rdi
 3091 23d8 E8000000 		call	fopen
 3091      00
 3092 23dd 48898558 		movq	%rax, -168(%rbp)
 3092      FFFFFF
 680:main.c        **** 					CHECK_STATUS(!file, FLP_CANNOT_SAVE, cleanup);
 3093              		.loc 1 680 0
 3094 23e4 4883BD58 		cmpq	$0, -168(%rbp)
 3094      FFFFFF00 
 3095 23ec 750F     		jne	.L167
 3096              		.loc 1 680 0 is_stmt 0 discriminator 1
 3097 23ee C78514FF 		movl	$11, -236(%rbp)
 3097      FFFF0B00 
 3097      0000
 3098 23f8 E94D0B00 		jmp	.L145
 3098      00
 3099              	.L167:
 681:main.c        **** 					free(fileName);
 3100              		.loc 1 681 0 is_stmt 1
 3101 23fd 488B8550 		movq	-176(%rbp), %rax
 3101      FFFFFF
 3102 2404 4889C7   		movq	%rax, %rdi
 3103 2407 E8000000 		call	free
 3103      00
 682:main.c        **** 					fileName = NULL;
 3104              		.loc 1 682 0
 3105 240c 48C78550 		movq	$0, -176(%rbp)
 3105      FFFFFF00 
 3105      000000
 683:main.c        **** 					
 684:main.c        **** 				#ifdef WIN32
 685:main.c        **** 					QueryPerformanceCounter(&tvStart);
 686:main.c        **** 					status = doRead(handle, (uint8)chan, length, file, &checksum, error);
 687:main.c        **** 					QueryPerformanceCounter(&tvEnd);
 688:main.c        **** 					totalTime = (double)(tvEnd.QuadPart - tvStart.QuadPart);
 689:main.c        **** 					totalTime /= freq.QuadPart;
 690:main.c        **** 					speed = (double)length / (1024*1024*totalTime);
 691:main.c        **** 				#else
 692:main.c        **** 					gettimeofday(&tvStart, NULL);
 3106              		.loc 1 692 0
 3107 2417 488D45B0 		leaq	-80(%rbp), %rax
 3108 241b BE000000 		movl	$0, %esi
 3108      00
 3109 2420 4889C7   		movq	%rax, %rdi
 3110 2423 E8000000 		call	gettimeofday
 3110      00
 693:main.c        **** 					status = doRead(handle, (uint8)chan, length, file, &checksum, error);
 3111              		.loc 1 693 0
 3112 2428 8B8530FF 		movl	-208(%rbp), %eax
 3112      FFFF
 3113 242e 0FB6F0   		movzbl	%al, %esi
 3114 2431 4C8B85F8 		movq	-264(%rbp), %r8
 3114      FEFFFF
 3115 2438 488DBD38 		leaq	-200(%rbp), %rdi
 3115      FFFFFF
 3116 243f 488B8D58 		movq	-168(%rbp), %rcx
 3116      FFFFFF
 3117 2446 8B9518FF 		movl	-232(%rbp), %edx
 3117      FFFF
 3118 244c 488B8508 		movq	-248(%rbp), %rax
 3118      FFFFFF
 3119 2453 4D89C1   		movq	%r8, %r9
 3120 2456 4989F8   		movq	%rdi, %r8
 3121 2459 4889C7   		movq	%rax, %rdi
 3122 245c E8A7F6FF 		call	doRead
 3122      FF
 3123 2461 898528FF 		movl	%eax, -216(%rbp)
 3123      FFFF
 694:main.c        **** 					gettimeofday(&tvEnd, NULL);
 3124              		.loc 1 694 0
 3125 2467 488D45C0 		leaq	-64(%rbp), %rax
 3126 246b BE000000 		movl	$0, %esi
 3126      00
 3127 2470 4889C7   		movq	%rax, %rdi
 3128 2473 E8000000 		call	gettimeofday
 3128      00
 695:main.c        **** 					startTime = tvStart.tv_sec;
 3129              		.loc 1 695 0
 3130 2478 488B45B0 		movq	-80(%rbp), %rax
 3131 247c 48894588 		movq	%rax, -120(%rbp)
 696:main.c        **** 					startTime *= 1000000;
 3132              		.loc 1 696 0
 3133 2480 488B4588 		movq	-120(%rbp), %rax
 3134 2484 4869C040 		imulq	$1000000, %rax, %rax
 3134      420F00
 3135 248b 48894588 		movq	%rax, -120(%rbp)
 697:main.c        **** 					startTime += tvStart.tv_usec;
 3136              		.loc 1 697 0
 3137 248f 488B45B8 		movq	-72(%rbp), %rax
 3138 2493 48014588 		addq	%rax, -120(%rbp)
 698:main.c        **** 					endTime = tvEnd.tv_sec;
 3139              		.loc 1 698 0
 3140 2497 488B45C0 		movq	-64(%rbp), %rax
 3141 249b 48894590 		movq	%rax, -112(%rbp)
 699:main.c        **** 					endTime *= 1000000;
 3142              		.loc 1 699 0
 3143 249f 488B4590 		movq	-112(%rbp), %rax
 3144 24a3 4869C040 		imulq	$1000000, %rax, %rax
 3144      420F00
 3145 24aa 48894590 		movq	%rax, -112(%rbp)
 700:main.c        **** 					endTime += tvEnd.tv_usec;
 3146              		.loc 1 700 0
 3147 24ae 488B45C8 		movq	-56(%rbp), %rax
 3148 24b2 48014590 		addq	%rax, -112(%rbp)
 701:main.c        **** 					totalTime = (double)(endTime - startTime);
 3149              		.loc 1 701 0
 3150 24b6 488B4590 		movq	-112(%rbp), %rax
 3151 24ba 482B4588 		subq	-120(%rbp), %rax
 3152 24be 660FEFC0 		pxor	%xmm0, %xmm0
 3153 24c2 F2480F2A 		cvtsi2sdq	%rax, %xmm0
 3153      C0
 3154 24c7 F20F1145 		movsd	%xmm0, -104(%rbp)
 3154      98
 702:main.c        **** 					totalTime /= 1000000;  // convert from uS to S.
 3155              		.loc 1 702 0
 3156 24cc F20F1045 		movsd	-104(%rbp), %xmm0
 3156      98
 3157 24d1 F20F100D 		movsd	.LC29(%rip), %xmm1
 3157      00000000 
 3158 24d9 F20F5EC1 		divsd	%xmm1, %xmm0
 3159 24dd F20F1145 		movsd	%xmm0, -104(%rbp)
 3159      98
 703:main.c        **** 					speed = (double)length / (1024*1024*totalTime);
 3160              		.loc 1 703 0
 3161 24e2 8B8518FF 		movl	-232(%rbp), %eax
 3161      FFFF
 3162 24e8 4885C0   		testq	%rax, %rax
 3163 24eb 780B     		js	.L169
 3164 24ed 660FEFC0 		pxor	%xmm0, %xmm0
 3165 24f1 F2480F2A 		cvtsi2sdq	%rax, %xmm0
 3165      C0
 3166 24f6 EB19     		jmp	.L170
 3167              	.L169:
 3168 24f8 4889C2   		movq	%rax, %rdx
 3169 24fb 48D1EA   		shrq	%rdx
 3170 24fe 83E001   		andl	$1, %eax
 3171 2501 4809C2   		orq	%rax, %rdx
 3172 2504 660FEFC0 		pxor	%xmm0, %xmm0
 3173 2508 F2480F2A 		cvtsi2sdq	%rdx, %xmm0
 3173      C2
 3174 250d F20F58C0 		addsd	%xmm0, %xmm0
 3175              	.L170:
 3176 2511 F20F1055 		movsd	-104(%rbp), %xmm2
 3176      98
 3177 2516 F20F100D 		movsd	.LC30(%rip), %xmm1
 3177      00000000 
 3178 251e F20F59CA 		mulsd	%xmm2, %xmm1
 3179 2522 F20F5EC1 		divsd	%xmm1, %xmm0
 3180 2526 F20F1145 		movsd	%xmm0, -96(%rbp)
 3180      A0
 704:main.c        **** 				#endif
 705:main.c        **** 					if ( enableBenchmarking ) {
 3181              		.loc 1 705 0
 3182 252b 0FB60500 		movzbl	enableBenchmarking(%rip), %eax
 3182      000000
 3183 2532 84C0     		testb	%al, %al
 3184 2534 743A     		je	.L171
 706:main.c        **** 						printf(
 3185              		.loc 1 706 0
 3186 2536 0FB78538 		movzwl	-200(%rbp), %eax
 3186      FFFFFF
 3187 253d 0FB7D0   		movzwl	%ax, %edx
 3188 2540 488B75A0 		movq	-96(%rbp), %rsi
 3189 2544 8B8D30FF 		movl	-208(%rbp), %ecx
 3189      FFFF
 3190 254a 8B8518FF 		movl	-232(%rbp), %eax
 3190      FFFF
 3191 2550 4889B5F0 		movq	%rsi, -272(%rbp)
 3191      FEFFFF
 3192 2557 F20F1085 		movsd	-272(%rbp), %xmm0
 3192      F0FEFFFF 
 3193 255f 89C6     		movl	%eax, %esi
 3194 2561 BF000000 		movl	$.LC31, %edi
 3194      00
 3195 2566 B8010000 		movl	$1, %eax
 3195      00
 3196 256b E8000000 		call	printf
 3196      00
 3197              	.L171:
 707:main.c        **** 							"Read %d bytes (checksum 0x%04X) from channel %d at %f MiB/s\n",
 708:main.c        **** 							length, checksum, chan, speed);
 709:main.c        **** 					}
 710:main.c        **** 					CHECK_STATUS(status, status, cleanup);
 3198              		.loc 1 710 0
 3199 2570 83BD28FF 		cmpl	$0, -216(%rbp)
 3199      FFFF00
 3200 2577 7412     		je	.L172
 3201              		.loc 1 710 0 is_stmt 0 discriminator 1
 3202 2579 8B8528FF 		movl	-216(%rbp), %eax
 3202      FFFF
 3203 257f 898514FF 		movl	%eax, -236(%rbp)
 3203      FFFF
 3204 2585 90       		nop
 3205              	.LBE34:
 633:main.c        **** 
 3206              		.loc 1 633 0 is_stmt 1 discriminator 1
 3207 2586 E9BF0900 		jmp	.L145
 3207      00
 3208              	.L172:
 3209              	.LBB35:
 711:main.c        **** 
 712:main.c        **** 				// Close the file
 713:main.c        **** 					fclose(file);
 3210              		.loc 1 713 0
 3211 258b 488B8558 		movq	-168(%rbp), %rax
 3211      FFFFFF
 3212 2592 4889C7   		movq	%rax, %rdi
 3213 2595 E8000000 		call	fclose
 3213      00
 714:main.c        **** 					file = NULL;
 3214              		.loc 1 714 0
 3215 259a 48C78558 		movq	$0, -168(%rbp)
 3215      FFFFFF00 
 3215      000000
 3216              	.LBE35:
 715:main.c        **** 				} else {
 716:main.c        **** 					size_t oldLength = dataFromFPGA.length;
 717:main.c        **** 					bStatus = bufAppendConst(&dataFromFPGA, 0x00, length, error);
 718:main.c        **** 					CHECK_STATUS(bStatus, FLP_LIBERR, cleanup);
 719:main.c        **** 				#ifdef WIN32
 720:main.c        **** 					QueryPerformanceCounter(&tvStart);
 721:main.c        **** 					fStatus = flReadChannel(handle, (uint8)chan, length, dataFromFPGA.data + oldLength, error);
 722:main.c        **** 					QueryPerformanceCounter(&tvEnd);
 723:main.c        **** 					totalTime = (double)(tvEnd.QuadPart - tvStart.QuadPart);
 724:main.c        **** 					totalTime /= freq.QuadPart;
 725:main.c        **** 					speed = (double)length / (1024*1024*totalTime);
 726:main.c        **** 				#else
 727:main.c        **** 					gettimeofday(&tvStart, NULL);
 728:main.c        **** 					fStatus = flReadChannel(handle, (uint8)chan, length, dataFromFPGA.data + oldLength, error);
 729:main.c        **** 					gettimeofday(&tvEnd, NULL);
 730:main.c        **** 					startTime = tvStart.tv_sec;
 731:main.c        **** 					startTime *= 1000000;
 732:main.c        **** 					startTime += tvStart.tv_usec;
 733:main.c        **** 					endTime = tvEnd.tv_sec;
 734:main.c        **** 					endTime *= 1000000;
 735:main.c        **** 					endTime += tvEnd.tv_usec;
 736:main.c        **** 					totalTime = (double)(endTime - startTime);
 737:main.c        **** 					totalTime /= 1000000;  // convert from uS to S.
 738:main.c        **** 					speed = (double)length / (1024*1024*totalTime);
 739:main.c        **** 				#endif
 740:main.c        **** 					if ( enableBenchmarking ) {
 741:main.c        **** 						printf(
 742:main.c        **** 							"Read %d bytes (checksum 0x%04X) from channel %d at %f MiB/s\n",
 743:main.c        **** 							length, calcChecksum(dataFromFPGA.data + oldLength, length), chan, speed);
 744:main.c        **** 					}
 745:main.c        **** 					CHECK_STATUS(fStatus, FLP_LIBERR, cleanup);
 746:main.c        **** 				}
 747:main.c        **** 				break;
 3217              		.loc 1 747 0
 3218 25a5 E95B0900 		jmp	.L222
 3218      00
 3219              	.L166:
 3220              	.LBB36:
 716:main.c        **** 					bStatus = bufAppendConst(&dataFromFPGA, 0x00, length, error);
 3221              		.loc 1 716 0
 3222 25aa 488B45D8 		movq	-40(%rbp), %rax
 3223 25ae 488945A8 		movq	%rax, -88(%rbp)
 717:main.c        **** 					CHECK_STATUS(bStatus, FLP_LIBERR, cleanup);
 3224              		.loc 1 717 0
 3225 25b2 8B9518FF 		movl	-232(%rbp), %edx
 3225      FFFF
 3226 25b8 488B8DF8 		movq	-264(%rbp), %rcx
 3226      FEFFFF
 3227 25bf 488D45D0 		leaq	-48(%rbp), %rax
 3228 25c3 BE000000 		movl	$0, %esi
 3228      00
 3229 25c8 4889C7   		movq	%rax, %rdi
 3230 25cb E8000000 		call	bufAppendConst
 3230      00
 3231 25d0 898520FF 		movl	%eax, -224(%rbp)
 3231      FFFF
 718:main.c        **** 				#ifdef WIN32
 3232              		.loc 1 718 0
 3233 25d6 83BD20FF 		cmpl	$0, -224(%rbp)
 3233      FFFF00
 3234 25dd 740F     		je	.L174
 718:main.c        **** 				#ifdef WIN32
 3235              		.loc 1 718 0 is_stmt 0 discriminator 1
 3236 25df C78514FF 		movl	$1, -236(%rbp)
 3236      FFFF0100 
 3236      0000
 3237 25e9 E95C0900 		jmp	.L145
 3237      00
 3238              	.L174:
 727:main.c        **** 					fStatus = flReadChannel(handle, (uint8)chan, length, dataFromFPGA.data + oldLength, error);
 3239              		.loc 1 727 0 is_stmt 1
 3240 25ee 488D45B0 		leaq	-80(%rbp), %rax
 3241 25f2 BE000000 		movl	$0, %esi
 3241      00
 3242 25f7 4889C7   		movq	%rax, %rdi
 3243 25fa E8000000 		call	gettimeofday
 3243      00
 728:main.c        **** 					gettimeofday(&tvEnd, NULL);
 3244              		.loc 1 728 0
 3245 25ff 488B55D0 		movq	-48(%rbp), %rdx
 3246 2603 488B45A8 		movq	-88(%rbp), %rax
 3247 2607 488D0C02 		leaq	(%rdx,%rax), %rcx
 3248 260b 8B9518FF 		movl	-232(%rbp), %edx
 3248      FFFF
 3249 2611 8B8530FF 		movl	-208(%rbp), %eax
 3249      FFFF
 3250 2617 0FB6F0   		movzbl	%al, %esi
 3251 261a 488BBDF8 		movq	-264(%rbp), %rdi
 3251      FEFFFF
 3252 2621 488B8508 		movq	-248(%rbp), %rax
 3252      FFFFFF
 3253 2628 4989F8   		movq	%rdi, %r8
 3254 262b 4889C7   		movq	%rax, %rdi
 3255 262e E8000000 		call	flReadChannel
 3255      00
 3256 2633 898524FF 		movl	%eax, -220(%rbp)
 3256      FFFF
 729:main.c        **** 					startTime = tvStart.tv_sec;
 3257              		.loc 1 729 0
 3258 2639 488D45C0 		leaq	-64(%rbp), %rax
 3259 263d BE000000 		movl	$0, %esi
 3259      00
 3260 2642 4889C7   		movq	%rax, %rdi
 3261 2645 E8000000 		call	gettimeofday
 3261      00
 730:main.c        **** 					startTime *= 1000000;
 3262              		.loc 1 730 0
 3263 264a 488B45B0 		movq	-80(%rbp), %rax
 3264 264e 48894588 		movq	%rax, -120(%rbp)
 731:main.c        **** 					startTime += tvStart.tv_usec;
 3265              		.loc 1 731 0
 3266 2652 488B4588 		movq	-120(%rbp), %rax
 3267 2656 4869C040 		imulq	$1000000, %rax, %rax
 3267      420F00
 3268 265d 48894588 		movq	%rax, -120(%rbp)
 732:main.c        **** 					endTime = tvEnd.tv_sec;
 3269              		.loc 1 732 0
 3270 2661 488B45B8 		movq	-72(%rbp), %rax
 3271 2665 48014588 		addq	%rax, -120(%rbp)
 733:main.c        **** 					endTime *= 1000000;
 3272              		.loc 1 733 0
 3273 2669 488B45C0 		movq	-64(%rbp), %rax
 3274 266d 48894590 		movq	%rax, -112(%rbp)
 734:main.c        **** 					endTime += tvEnd.tv_usec;
 3275              		.loc 1 734 0
 3276 2671 488B4590 		movq	-112(%rbp), %rax
 3277 2675 4869C040 		imulq	$1000000, %rax, %rax
 3277      420F00
 3278 267c 48894590 		movq	%rax, -112(%rbp)
 735:main.c        **** 					totalTime = (double)(endTime - startTime);
 3279              		.loc 1 735 0
 3280 2680 488B45C8 		movq	-56(%rbp), %rax
 3281 2684 48014590 		addq	%rax, -112(%rbp)
 736:main.c        **** 					totalTime /= 1000000;  // convert from uS to S.
 3282              		.loc 1 736 0
 3283 2688 488B4590 		movq	-112(%rbp), %rax
 3284 268c 482B4588 		subq	-120(%rbp), %rax
 3285 2690 660FEFC0 		pxor	%xmm0, %xmm0
 3286 2694 F2480F2A 		cvtsi2sdq	%rax, %xmm0
 3286      C0
 3287 2699 F20F1145 		movsd	%xmm0, -104(%rbp)
 3287      98
 737:main.c        **** 					speed = (double)length / (1024*1024*totalTime);
 3288              		.loc 1 737 0
 3289 269e F20F1045 		movsd	-104(%rbp), %xmm0
 3289      98
 3290 26a3 F20F100D 		movsd	.LC29(%rip), %xmm1
 3290      00000000 
 3291 26ab F20F5EC1 		divsd	%xmm1, %xmm0
 3292 26af F20F1145 		movsd	%xmm0, -104(%rbp)
 3292      98
 738:main.c        **** 				#endif
 3293              		.loc 1 738 0
 3294 26b4 8B8518FF 		movl	-232(%rbp), %eax
 3294      FFFF
 3295 26ba 4885C0   		testq	%rax, %rax
 3296 26bd 780B     		js	.L175
 3297 26bf 660FEFC0 		pxor	%xmm0, %xmm0
 3298 26c3 F2480F2A 		cvtsi2sdq	%rax, %xmm0
 3298      C0
 3299 26c8 EB19     		jmp	.L176
 3300              	.L175:
 3301 26ca 4889C2   		movq	%rax, %rdx
 3302 26cd 48D1EA   		shrq	%rdx
 3303 26d0 83E001   		andl	$1, %eax
 3304 26d3 4809C2   		orq	%rax, %rdx
 3305 26d6 660FEFC0 		pxor	%xmm0, %xmm0
 3306 26da F2480F2A 		cvtsi2sdq	%rdx, %xmm0
 3306      C2
 3307 26df F20F58C0 		addsd	%xmm0, %xmm0
 3308              	.L176:
 3309 26e3 F20F1055 		movsd	-104(%rbp), %xmm2
 3309      98
 3310 26e8 F20F100D 		movsd	.LC30(%rip), %xmm1
 3310      00000000 
 3311 26f0 F20F59CA 		mulsd	%xmm2, %xmm1
 3312 26f4 F20F5EC1 		divsd	%xmm1, %xmm0
 3313 26f8 F20F1145 		movsd	%xmm0, -96(%rbp)
 3313      A0
 740:main.c        **** 						printf(
 3314              		.loc 1 740 0
 3315 26fd 0FB60500 		movzbl	enableBenchmarking(%rip), %eax
 3315      000000
 3316 2704 84C0     		testb	%al, %al
 3317 2706 744F     		je	.L177
 743:main.c        **** 					}
 3318              		.loc 1 743 0
 3319 2708 8B8518FF 		movl	-232(%rbp), %eax
 3319      FFFF
 3320 270e 488B4DD0 		movq	-48(%rbp), %rcx
 3321 2712 488B55A8 		movq	-88(%rbp), %rdx
 3322 2716 4801CA   		addq	%rcx, %rdx
 3323 2719 4889C6   		movq	%rax, %rsi
 3324 271c 4889D7   		movq	%rdx, %rdi
 3325 271f E88BF2FF 		call	calcChecksum
 3325      FF
 741:main.c        **** 							"Read %d bytes (checksum 0x%04X) from channel %d at %f MiB/s\n",
 3326              		.loc 1 741 0
 3327 2724 0FB7D0   		movzwl	%ax, %edx
 3328 2727 488B75A0 		movq	-96(%rbp), %rsi
 3329 272b 8B8D30FF 		movl	-208(%rbp), %ecx
 3329      FFFF
 3330 2731 8B8518FF 		movl	-232(%rbp), %eax
 3330      FFFF
 3331 2737 4889B5F0 		movq	%rsi, -272(%rbp)
 3331      FEFFFF
 3332 273e F20F1085 		movsd	-272(%rbp), %xmm0
 3332      F0FEFFFF 
 3333 2746 89C6     		movl	%eax, %esi
 3334 2748 BF000000 		movl	$.LC31, %edi
 3334      00
 3335 274d B8010000 		movl	$1, %eax
 3335      00
 3336 2752 E8000000 		call	printf
 3336      00
 3337              	.L177:
 745:main.c        **** 				}
 3338              		.loc 1 745 0
 3339 2757 83BD24FF 		cmpl	$0, -220(%rbp)
 3339      FFFF00
 3340 275e 0F84A107 		je	.L222
 3340      0000
 745:main.c        **** 				}
 3341              		.loc 1 745 0 is_stmt 0 discriminator 1
 3342 2764 C78514FF 		movl	$1, -236(%rbp)
 3342      FFFF0100 
 3342      0000
 3343 276e 90       		nop
 3344 276f E9D60700 		jmp	.L145
 3344      00
 3345              	.L150:
 3346              	.LBE36:
 3347              	.LBE32:
 3348              	.LBB37:
 748:main.c        **** 			}
 749:main.c        **** 			case 'w':{
 750:main.c        **** 				unsigned long int chan;
 751:main.c        **** 				size_t length = 1, i;
 3349              		.loc 1 751 0 is_stmt 1
 3350 2774 48C78538 		movq	$1, -200(%rbp)
 3350      FFFFFF01 
 3350      000000
 752:main.c        **** 				char *end, ch;
 753:main.c        **** 				const char *p;
 754:main.c        **** 				ptr++;
 3351              		.loc 1 754 0
 3352 277f 488B0500 		movq	ptr(%rip), %rax
 3352      000000
 3353 2786 4883C001 		addq	$1, %rax
 3354 278a 48890500 		movq	%rax, ptr(%rip)
 3354      000000
 755:main.c        **** 
 756:main.c        **** 			// Get the channel to be written:
 757:main.c        **** 				errno = 0;
 3355              		.loc 1 757 0
 3356 2791 E8000000 		call	__errno_location
 3356      00
 3357 2796 C7000000 		movl	$0, (%rax)
 3357      0000
 758:main.c        **** 				chan = strtoul(ptr, &end, 16);
 3358              		.loc 1 758 0
 3359 279c 488B0500 		movq	ptr(%rip), %rax
 3359      000000
 3360 27a3 488D8D40 		leaq	-192(%rbp), %rcx
 3360      FFFFFF
 3361 27aa BA100000 		movl	$16, %edx
 3361      00
 3362 27af 4889CE   		movq	%rcx, %rsi
 3363 27b2 4889C7   		movq	%rax, %rdi
 3364 27b5 E8000000 		call	strtoul
 3364      00
 3365 27ba 48894580 		movq	%rax, -128(%rbp)
 759:main.c        **** 				CHECK_STATUS(errno, FLP_BAD_HEX, cleanup);
 3366              		.loc 1 759 0
 3367 27be E8000000 		call	__errno_location
 3367      00
 3368 27c3 8B00     		movl	(%rax), %eax
 3369 27c5 85C0     		testl	%eax, %eax
 3370 27c7 740F     		je	.L179
 3371              		.loc 1 759 0 is_stmt 0 discriminator 1
 3372 27c9 C78514FF 		movl	$2, -236(%rbp)
 3372      FFFF0200 
 3372      0000
 3373 27d3 E9720700 		jmp	.L145
 3373      00
 3374              	.L179:
 760:main.c        **** 
 761:main.c        **** 			// Ensure that it's 0-127
 762:main.c        **** 				CHECK_STATUS(chan > 127, FLP_CHAN_RANGE, cleanup);
 3375              		.loc 1 762 0 is_stmt 1
 3376 27d8 48837D80 		cmpq	$127, -128(%rbp)
 3376      7F
 3377 27dd 760F     		jbe	.L181
 3378              		.loc 1 762 0 is_stmt 0 discriminator 1
 3379 27df C78514FF 		movl	$3, -236(%rbp)
 3379      FFFF0300 
 3379      0000
 3380 27e9 E95C0700 		jmp	.L145
 3380      00
 3381              	.L181:
 763:main.c        **** 				ptr = end;
 3382              		.loc 1 763 0 is_stmt 1
 3383 27ee 488B8540 		movq	-192(%rbp), %rax
 3383      FFFFFF
 3384 27f5 48890500 		movq	%rax, ptr(%rip)
 3384      000000
 764:main.c        **** 
 765:main.c        **** 			// There must be a space now:
 766:main.c        **** 				CHECK_STATUS(*ptr != ' ', FLP_ILL_CHAR, cleanup);
 3385              		.loc 1 766 0
 3386 27fc 488B0500 		movq	ptr(%rip), %rax
 3386      000000
 3387 2803 0FB600   		movzbl	(%rax), %eax
 3388 2806 3C20     		cmpb	$32, %al
 3389 2808 740F     		je	.L182
 3390              		.loc 1 766 0 is_stmt 0 discriminator 1
 3391 280a C78514FF 		movl	$5, -236(%rbp)
 3391      FFFF0500 
 3391      0000
 3392 2814 E9310700 		jmp	.L145
 3392      00
 3393              	.L182:
 767:main.c        **** 
 768:main.c        **** 			// Now either a quote or a hex digit
 769:main.c        **** 				ch = *++ptr;
 3394              		.loc 1 769 0 is_stmt 1
 3395 2819 488B0500 		movq	ptr(%rip), %rax
 3395      000000
 3396 2820 4883C001 		addq	$1, %rax
 3397 2824 48890500 		movq	%rax, ptr(%rip)
 3397      000000
 3398 282b 488B0500 		movq	ptr(%rip), %rax
 3398      000000
 3399 2832 0FB600   		movzbl	(%rax), %eax
 3400 2835 888510FF 		movb	%al, -240(%rbp)
 3400      FFFF
 770:main.c        **** 				if ( ch == '"' || ch == '\'' ) {
 3401              		.loc 1 770 0
 3402 283b 80BD10FF 		cmpb	$34, -240(%rbp)
 3402      FFFF22
 3403 2842 740D     		je	.L183
 3404              		.loc 1 770 0 is_stmt 0 discriminator 1
 3405 2844 80BD10FF 		cmpb	$39, -240(%rbp)
 3405      FFFF27
 3406 284b 0F851203 		jne	.L184
 3406      0000
 3407              	.L183:
 3408              	.LBB38:
 771:main.c        **** 					uint16 checksum = 0x0000;
 3409              		.loc 1 771 0 is_stmt 1
 3410 2851 66C78512 		movw	$0, -238(%rbp)
 3410      FFFFFF00 
 3410      00
 772:main.c        **** 
 773:main.c        **** 				// Get the file to read bytes from:
 774:main.c        **** 					ptr++;
 3411              		.loc 1 774 0
 3412 285a 488B0500 		movq	ptr(%rip), %rax
 3412      000000
 3413 2861 4883C001 		addq	$1, %rax
 3414 2865 48890500 		movq	%rax, ptr(%rip)
 3414      000000
 775:main.c        **** 					p = ptr;
 3415              		.loc 1 775 0
 3416 286c 488B0500 		movq	ptr(%rip), %rax
 3416      000000
 3417 2873 48898570 		movq	%rax, -144(%rbp)
 3417      FFFFFF
 776:main.c        **** 					while ( *p != ch && *p != '\0' ) {
 3418              		.loc 1 776 0
 3419 287a EB08     		jmp	.L185
 3420              	.L187:
 777:main.c        **** 						p++;
 3421              		.loc 1 777 0
 3422 287c 48838570 		addq	$1, -144(%rbp)
 3422      FFFFFF01 
 3423              	.L185:
 776:main.c        **** 					while ( *p != ch && *p != '\0' ) {
 3424              		.loc 1 776 0
 3425 2884 488B8570 		movq	-144(%rbp), %rax
 3425      FFFFFF
 3426 288b 0FB600   		movzbl	(%rax), %eax
 3427 288e 3A8510FF 		cmpb	-240(%rbp), %al
 3427      FFFF
 3428 2894 740E     		je	.L186
 776:main.c        **** 					while ( *p != ch && *p != '\0' ) {
 3429              		.loc 1 776 0 is_stmt 0 discriminator 1
 3430 2896 488B8570 		movq	-144(%rbp), %rax
 3430      FFFFFF
 3431 289d 0FB600   		movzbl	(%rax), %eax
 3432 28a0 84C0     		testb	%al, %al
 3433 28a2 75D8     		jne	.L187
 3434              	.L186:
 778:main.c        **** 					}
 779:main.c        **** 					CHECK_STATUS(*p == '\0', FLP_UNTERM_STRING, cleanup);
 3435              		.loc 1 779 0 is_stmt 1
 3436 28a4 488B8570 		movq	-144(%rbp), %rax
 3436      FFFFFF
 3437 28ab 0FB600   		movzbl	(%rax), %eax
 3438 28ae 84C0     		testb	%al, %al
 3439 28b0 750F     		jne	.L188
 3440              		.loc 1 779 0 is_stmt 0 discriminator 1
 3441 28b2 C78514FF 		movl	$6, -236(%rbp)
 3441      FFFF0600 
 3441      0000
 3442 28bc E9890600 		jmp	.L145
 3442      00
 3443              	.L188:
 780:main.c        **** 					fileName = malloc((size_t)(p - ptr + 1));
 3444              		.loc 1 780 0 is_stmt 1
 3445 28c1 488B8570 		movq	-144(%rbp), %rax
 3445      FFFFFF
 3446 28c8 488B1500 		movq	ptr(%rip), %rdx
 3446      000000
 3447 28cf 4829D0   		subq	%rdx, %rax
 3448 28d2 4883C001 		addq	$1, %rax
 3449 28d6 4889C7   		movq	%rax, %rdi
 3450 28d9 E8000000 		call	malloc
 3450      00
 3451 28de 48898550 		movq	%rax, -176(%rbp)
 3451      FFFFFF
 781:main.c        **** 					CHECK_STATUS(!fileName, FLP_NO_MEMORY, cleanup);
 3452              		.loc 1 781 0
 3453 28e5 4883BD50 		cmpq	$0, -176(%rbp)
 3453      FFFFFF00 
 3454 28ed 750F     		jne	.L190
 3455              		.loc 1 781 0 is_stmt 0 discriminator 1
 3456 28ef C78514FF 		movl	$7, -236(%rbp)
 3456      FFFF0700 
 3456      0000
 3457 28f9 E9600200 		jmp	.L189
 3457      00
 3458              	.L190:
 782:main.c        **** 					CHECK_STATUS(p - ptr == 0, FLP_EMPTY_STRING, cleanup);
 3459              		.loc 1 782 0 is_stmt 1
 3460 28fe 488B8570 		movq	-144(%rbp), %rax
 3460      FFFFFF
 3461 2905 488B1500 		movq	ptr(%rip), %rdx
 3461      000000
 3462 290c 4839D0   		cmpq	%rdx, %rax
 3463 290f 750F     		jne	.L191
 3464              		.loc 1 782 0 is_stmt 0 discriminator 1
 3465 2911 C78514FF 		movl	$8, -236(%rbp)
 3465      FFFF0800 
 3465      0000
 3466 291b E93E0200 		jmp	.L189
 3466      00
 3467              	.L191:
 783:main.c        **** 					strncpy(fileName, ptr, (size_t)(p - ptr));
 3468              		.loc 1 783 0 is_stmt 1
 3469 2920 488B8570 		movq	-144(%rbp), %rax
 3469      FFFFFF
 3470 2927 488B1500 		movq	ptr(%rip), %rdx
 3470      000000
 3471 292e 4829D0   		subq	%rdx, %rax
 3472 2931 4889C2   		movq	%rax, %rdx
 3473 2934 488B0D00 		movq	ptr(%rip), %rcx
 3473      000000
 3474 293b 488B8550 		movq	-176(%rbp), %rax
 3474      FFFFFF
 3475 2942 4889CE   		movq	%rcx, %rsi
 3476 2945 4889C7   		movq	%rax, %rdi
 3477 2948 E8000000 		call	strncpy
 3477      00
 784:main.c        **** 					fileName[p - ptr] = '\0';
 3478              		.loc 1 784 0
 3479 294d 488B8570 		movq	-144(%rbp), %rax
 3479      FFFFFF
 3480 2954 488B1500 		movq	ptr(%rip), %rdx
 3480      000000
 3481 295b 4829D0   		subq	%rdx, %rax
 3482 295e 4889C2   		movq	%rax, %rdx
 3483 2961 488B8550 		movq	-176(%rbp), %rax
 3483      FFFFFF
 3484 2968 4801D0   		addq	%rdx, %rax
 3485 296b C60000   		movb	$0, (%rax)
 785:main.c        **** 				ptr = p + 1;  // skip over closing quote
 3486              		.loc 1 785 0
 3487 296e 488B8570 		movq	-144(%rbp), %rax
 3487      FFFFFF
 3488 2975 4883C001 		addq	$1, %rax
 3489 2979 48890500 		movq	%rax, ptr(%rip)
 3489      000000
 786:main.c        **** 
 787:main.c        **** 				// Open file for reading
 788:main.c        **** 				file = fopen(fileName, "rb");
 3490              		.loc 1 788 0
 3491 2980 488B8550 		movq	-176(%rbp), %rax
 3491      FFFFFF
 3492 2987 BE000000 		movl	$.LC32, %esi
 3492      00
 3493 298c 4889C7   		movq	%rax, %rdi
 3494 298f E8000000 		call	fopen
 3494      00
 3495 2994 48898558 		movq	%rax, -168(%rbp)
 3495      FFFFFF
 789:main.c        **** 				CHECK_STATUS(!file, FLP_CANNOT_LOAD, cleanup);
 3496              		.loc 1 789 0
 3497 299b 4883BD58 		cmpq	$0, -168(%rbp)
 3497      FFFFFF00 
 3498 29a3 750F     		jne	.L192
 3499              		.loc 1 789 0 is_stmt 0 discriminator 1
 3500 29a5 C78514FF 		movl	$10, -236(%rbp)
 3500      FFFF0A00 
 3500      0000
 3501 29af E9AA0100 		jmp	.L189
 3501      00
 3502              	.L192:
 790:main.c        **** 				free(fileName);
 3503              		.loc 1 790 0 is_stmt 1
 3504 29b4 488B8550 		movq	-176(%rbp), %rax
 3504      FFFFFF
 3505 29bb 4889C7   		movq	%rax, %rdi
 3506 29be E8000000 		call	free
 3506      00
 791:main.c        **** 				fileName = NULL;
 3507              		.loc 1 791 0
 3508 29c3 48C78550 		movq	$0, -176(%rbp)
 3508      FFFFFF00 
 3508      000000
 792:main.c        **** 				
 793:main.c        **** 				#ifdef WIN32
 794:main.c        **** 				QueryPerformanceCounter(&tvStart);
 795:main.c        **** 				status = doWrite(handle, (uint8)chan, file, &length, &checksum, error);
 796:main.c        **** 				QueryPerformanceCounter(&tvEnd);
 797:main.c        **** 				totalTime = (double)(tvEnd.QuadPart - tvStart.QuadPart);
 798:main.c        **** 				totalTime /= freq.QuadPart;
 799:main.c        **** 				speed = (double)length / (1024*1024*totalTime);
 800:main.c        **** 				#else
 801:main.c        **** 				gettimeofday(&tvStart, NULL);
 3509              		.loc 1 801 0
 3510 29ce 488D45B0 		leaq	-80(%rbp), %rax
 3511 29d2 BE000000 		movl	$0, %esi
 3511      00
 3512 29d7 4889C7   		movq	%rax, %rdi
 3513 29da E8000000 		call	gettimeofday
 3513      00
 802:main.c        **** 				status = doWrite(handle, (uint8)chan, file, &length, &checksum, error);
 3514              		.loc 1 802 0
 3515 29df 488B4580 		movq	-128(%rbp), %rax
 3516 29e3 0FB6F0   		movzbl	%al, %esi
 3517 29e6 4C8B85F8 		movq	-264(%rbp), %r8
 3517      FEFFFF
 3518 29ed 488DBD12 		leaq	-238(%rbp), %rdi
 3518      FFFFFF
 3519 29f4 488D8D38 		leaq	-200(%rbp), %rcx
 3519      FFFFFF
 3520 29fb 488B9558 		movq	-168(%rbp), %rdx
 3520      FFFFFF
 3521 2a02 488B8508 		movq	-248(%rbp), %rax
 3521      FFFFFF
 3522 2a09 4D89C1   		movq	%r8, %r9
 3523 2a0c 4989F8   		movq	%rdi, %r8
 3524 2a0f 4889C7   		movq	%rax, %rdi
 3525 2a12 E8A3F3FF 		call	doWrite
 3525      FF
 3526 2a17 898528FF 		movl	%eax, -216(%rbp)
 3526      FFFF
 803:main.c        **** 				gettimeofday(&tvEnd, NULL);
 3527              		.loc 1 803 0
 3528 2a1d 488D45C0 		leaq	-64(%rbp), %rax
 3529 2a21 BE000000 		movl	$0, %esi
 3529      00
 3530 2a26 4889C7   		movq	%rax, %rdi
 3531 2a29 E8000000 		call	gettimeofday
 3531      00
 804:main.c        **** 				startTime = tvStart.tv_sec;
 3532              		.loc 1 804 0
 3533 2a2e 488B45B0 		movq	-80(%rbp), %rax
 3534 2a32 48894588 		movq	%rax, -120(%rbp)
 805:main.c        **** 				startTime *= 1000000;
 3535              		.loc 1 805 0
 3536 2a36 488B4588 		movq	-120(%rbp), %rax
 3537 2a3a 4869C040 		imulq	$1000000, %rax, %rax
 3537      420F00
 3538 2a41 48894588 		movq	%rax, -120(%rbp)
 806:main.c        **** 				startTime += tvStart.tv_usec;
 3539              		.loc 1 806 0
 3540 2a45 488B45B8 		movq	-72(%rbp), %rax
 3541 2a49 48014588 		addq	%rax, -120(%rbp)
 807:main.c        **** 				endTime = tvEnd.tv_sec;
 3542              		.loc 1 807 0
 3543 2a4d 488B45C0 		movq	-64(%rbp), %rax
 3544 2a51 48894590 		movq	%rax, -112(%rbp)
 808:main.c        **** 				endTime *= 1000000;
 3545              		.loc 1 808 0
 3546 2a55 488B4590 		movq	-112(%rbp), %rax
 3547 2a59 4869C040 		imulq	$1000000, %rax, %rax
 3547      420F00
 3548 2a60 48894590 		movq	%rax, -112(%rbp)
 809:main.c        **** 				endTime += tvEnd.tv_usec;
 3549              		.loc 1 809 0
 3550 2a64 488B45C8 		movq	-56(%rbp), %rax
 3551 2a68 48014590 		addq	%rax, -112(%rbp)
 810:main.c        **** 				totalTime = (double)(endTime - startTime);
 3552              		.loc 1 810 0
 3553 2a6c 488B4590 		movq	-112(%rbp), %rax
 3554 2a70 482B4588 		subq	-120(%rbp), %rax
 3555 2a74 660FEFC0 		pxor	%xmm0, %xmm0
 3556 2a78 F2480F2A 		cvtsi2sdq	%rax, %xmm0
 3556      C0
 3557 2a7d F20F1145 		movsd	%xmm0, -104(%rbp)
 3557      98
 811:main.c        **** 					totalTime /= 1000000;  // convert from uS to S.
 3558              		.loc 1 811 0
 3559 2a82 F20F1045 		movsd	-104(%rbp), %xmm0
 3559      98
 3560 2a87 F20F100D 		movsd	.LC29(%rip), %xmm1
 3560      00000000 
 3561 2a8f F20F5EC1 		divsd	%xmm1, %xmm0
 3562 2a93 F20F1145 		movsd	%xmm0, -104(%rbp)
 3562      98
 812:main.c        **** 					speed = (double)length / (1024*1024*totalTime);
 3563              		.loc 1 812 0
 3564 2a98 488B8538 		movq	-200(%rbp), %rax
 3564      FFFFFF
 3565 2a9f 4885C0   		testq	%rax, %rax
 3566 2aa2 780B     		js	.L193
 3567 2aa4 660FEFC0 		pxor	%xmm0, %xmm0
 3568 2aa8 F2480F2A 		cvtsi2sdq	%rax, %xmm0
 3568      C0
 3569 2aad EB19     		jmp	.L194
 3570              	.L193:
 3571 2aaf 4889C2   		movq	%rax, %rdx
 3572 2ab2 48D1EA   		shrq	%rdx
 3573 2ab5 83E001   		andl	$1, %eax
 3574 2ab8 4809C2   		orq	%rax, %rdx
 3575 2abb 660FEFC0 		pxor	%xmm0, %xmm0
 3576 2abf F2480F2A 		cvtsi2sdq	%rdx, %xmm0
 3576      C2
 3577 2ac4 F20F58C0 		addsd	%xmm0, %xmm0
 3578              	.L194:
 3579 2ac8 F20F1055 		movsd	-104(%rbp), %xmm2
 3579      98
 3580 2acd F20F100D 		movsd	.LC30(%rip), %xmm1
 3580      00000000 
 3581 2ad5 F20F59CA 		mulsd	%xmm2, %xmm1
 3582 2ad9 F20F5EC1 		divsd	%xmm1, %xmm0
 3583 2add F20F1145 		movsd	%xmm0, -96(%rbp)
 3583      A0
 813:main.c        **** 				#endif
 814:main.c        **** 					if ( enableBenchmarking ) {
 3584              		.loc 1 814 0
 3585 2ae2 0FB60500 		movzbl	enableBenchmarking(%rip), %eax
 3585      000000
 3586 2ae9 84C0     		testb	%al, %al
 3587 2aeb 743A     		je	.L195
 815:main.c        **** 						printf(
 3588              		.loc 1 815 0
 3589 2aed 0FB78512 		movzwl	-238(%rbp), %eax
 3589      FFFFFF
 3590 2af4 0FB7D0   		movzwl	%ax, %edx
 3591 2af7 488B8538 		movq	-200(%rbp), %rax
 3591      FFFFFF
 3592 2afe 488B75A0 		movq	-96(%rbp), %rsi
 3593 2b02 488B4D80 		movq	-128(%rbp), %rcx
 3594 2b06 4889B5F0 		movq	%rsi, -272(%rbp)
 3594      FEFFFF
 3595 2b0d F20F1085 		movsd	-272(%rbp), %xmm0
 3595      F0FEFFFF 
 3596 2b15 4889C6   		movq	%rax, %rsi
 3597 2b18 BF000000 		movl	$.LC33, %edi
 3597      00
 3598 2b1d B8010000 		movl	$1, %eax
 3598      00
 3599 2b22 E8000000 		call	printf
 3599      00
 3600              	.L195:
 816:main.c        **** 							"Wrote "PFSZD" bytes (checksum 0x%04X) to channel %lu at %f MiB/s\n",
 817:main.c        **** 							length, checksum, chan, speed);
 818:main.c        **** 					}
 819:main.c        **** 					CHECK_STATUS(status, status, cleanup);
 3601              		.loc 1 819 0
 3602 2b27 83BD28FF 		cmpl	$0, -216(%rbp)
 3602      FFFF00
 3603 2b2e 740E     		je	.L196
 3604              		.loc 1 819 0 is_stmt 0 discriminator 1
 3605 2b30 8B8528FF 		movl	-216(%rbp), %eax
 3605      FFFF
 3606 2b36 898514FF 		movl	%eax, -236(%rbp)
 3606      FFFF
 3607 2b3c EB20     		jmp	.L189
 3608              	.L196:
 820:main.c        **** 
 821:main.c        **** 				// Close the file
 822:main.c        **** 					fclose(file);
 3609              		.loc 1 822 0 is_stmt 1
 3610 2b3e 488B8558 		movq	-168(%rbp), %rax
 3610      FFFFFF
 3611 2b45 4889C7   		movq	%rax, %rdi
 3612 2b48 E8000000 		call	fclose
 3612      00
 823:main.c        **** 					file = NULL;
 3613              		.loc 1 823 0
 3614 2b4d 48C78558 		movq	$0, -168(%rbp)
 3614      FFFFFF00 
 3614      000000
 3615              	.LBE38:
 770:main.c        **** 					uint16 checksum = 0x0000;
 3616              		.loc 1 770 0
 3617 2b58 90       		nop
 3618 2b59 E9AB0300 		jmp	.L178
 3618      00
 3619              	.L189:
 759:main.c        **** 
 3620              		.loc 1 759 0 discriminator 2
 3621 2b5e E9E70300 		jmp	.L145
 3621      00
 3622              	.L184:
 824:main.c        **** 				} else if ( isHexDigit(ch) ) {
 3623              		.loc 1 824 0
 3624 2b63 0FBE8510 		movsbl	-240(%rbp), %eax
 3624      FFFFFF
 3625 2b6a 89C7     		movl	%eax, %edi
 3626 2b6c E800EEFF 		call	isHexDigit
 3626      FF
 3627 2b71 84C0     		testb	%al, %al
 3628 2b73 0F848402 		je	.L198
 3628      0000
 3629              	.LBB39:
 825:main.c        **** 				// Read a sequence of hex bytes to write
 826:main.c        **** 					uint8 *dataPtr;
 827:main.c        **** 					p = ptr + 1;
 3630              		.loc 1 827 0
 3631 2b79 488B0500 		movq	ptr(%rip), %rax
 3631      000000
 3632 2b80 4883C001 		addq	$1, %rax
 3633 2b84 48898570 		movq	%rax, -144(%rbp)
 3633      FFFFFF
 828:main.c        **** 					while ( isHexDigit(*p) ) {
 3634              		.loc 1 828 0
 3635 2b8b EB08     		jmp	.L199
 3636              	.L200:
 829:main.c        **** 						p++;
 3637              		.loc 1 829 0
 3638 2b8d 48838570 		addq	$1, -144(%rbp)
 3638      FFFFFF01 
 3639              	.L199:
 828:main.c        **** 					while ( isHexDigit(*p) ) {
 3640              		.loc 1 828 0
 3641 2b95 488B8570 		movq	-144(%rbp), %rax
 3641      FFFFFF
 3642 2b9c 0FB600   		movzbl	(%rax), %eax
 3643 2b9f 0FBEC0   		movsbl	%al, %eax
 3644 2ba2 89C7     		movl	%eax, %edi
 3645 2ba4 E8C8EDFF 		call	isHexDigit
 3645      FF
 3646 2ba9 84C0     		testb	%al, %al
 3647 2bab 75E0     		jne	.L200
 830:main.c        **** 					}
 831:main.c        **** 					CHECK_STATUS((p - ptr) & 1, FLP_ODD_DIGITS, cleanup);
 3648              		.loc 1 831 0
 3649 2bad 488B8570 		movq	-144(%rbp), %rax
 3649      FFFFFF
 3650 2bb4 488B1500 		movq	ptr(%rip), %rdx
 3650      000000
 3651 2bbb 4829D0   		subq	%rdx, %rax
 3652 2bbe 83E001   		andl	$1, %eax
 3653 2bc1 4885C0   		testq	%rax, %rax
 3654 2bc4 740F     		je	.L201
 3655              		.loc 1 831 0 is_stmt 0 discriminator 1
 3656 2bc6 C78514FF 		movl	$9, -236(%rbp)
 3656      FFFF0900 
 3656      0000
 3657 2bd0 E9750300 		jmp	.L145
 3657      00
 3658              	.L201:
 832:main.c        **** 					length = (size_t)(p - ptr) / 2;
 3659              		.loc 1 832 0 is_stmt 1
 3660 2bd5 488B8570 		movq	-144(%rbp), %rax
 3660      FFFFFF
 3661 2bdc 488B1500 		movq	ptr(%rip), %rdx
 3661      000000
 3662 2be3 4829D0   		subq	%rdx, %rax
 3663 2be6 48D1E8   		shrq	%rax
 3664 2be9 48898538 		movq	%rax, -200(%rbp)
 3664      FFFFFF
 833:main.c        **** 					data = malloc(length);
 3665              		.loc 1 833 0
 3666 2bf0 488B8538 		movq	-200(%rbp), %rax
 3666      FFFFFF
 3667 2bf7 4889C7   		movq	%rax, %rdi
 3668 2bfa E8000000 		call	malloc
 3668      00
 3669 2bff 48898548 		movq	%rax, -184(%rbp)
 3669      FFFFFF
 834:main.c        **** 					dataPtr = data;
 3670              		.loc 1 834 0
 3671 2c06 488B8548 		movq	-184(%rbp), %rax
 3671      FFFFFF
 3672 2c0d 48898578 		movq	%rax, -136(%rbp)
 3672      FFFFFF
 835:main.c        **** 					for ( i = 0; i < length; i++ ) {
 3673              		.loc 1 835 0
 3674 2c14 48C78568 		movq	$0, -152(%rbp)
 3674      FFFFFF00 
 3674      000000
 3675 2c1f EB34     		jmp	.L202
 3676              	.L203:
 836:main.c        **** 						getHexByte(dataPtr++);
 3677              		.loc 1 836 0 discriminator 3
 3678 2c21 488B8578 		movq	-136(%rbp), %rax
 3678      FFFFFF
 3679 2c28 488D5001 		leaq	1(%rax), %rdx
 3680 2c2c 48899578 		movq	%rdx, -136(%rbp)
 3680      FFFFFF
 3681 2c33 4889C7   		movq	%rax, %rdi
 3682 2c36 E829EEFF 		call	getHexByte
 3682      FF
 837:main.c        **** 						ptr += 2;
 3683              		.loc 1 837 0 discriminator 3
 3684 2c3b 488B0500 		movq	ptr(%rip), %rax
 3684      000000
 3685 2c42 4883C002 		addq	$2, %rax
 3686 2c46 48890500 		movq	%rax, ptr(%rip)
 3686      000000
 835:main.c        **** 					for ( i = 0; i < length; i++ ) {
 3687              		.loc 1 835 0 discriminator 3
 3688 2c4d 48838568 		addq	$1, -152(%rbp)
 3688      FFFFFF01 
 3689              	.L202:
 835:main.c        **** 					for ( i = 0; i < length; i++ ) {
 3690              		.loc 1 835 0 is_stmt 0 discriminator 1
 3691 2c55 488B8538 		movq	-200(%rbp), %rax
 3691      FFFFFF
 3692 2c5c 48398568 		cmpq	%rax, -152(%rbp)
 3692      FFFFFF
 3693 2c63 72BC     		jb	.L203
 838:main.c        **** 					}
 839:main.c        **** 				#ifdef WIN32
 840:main.c        **** 					QueryPerformanceCounter(&tvStart);
 841:main.c        **** 					fStatus = flWriteChannel(handle, (uint8)chan, length, data, error);
 842:main.c        **** 					QueryPerformanceCounter(&tvEnd);
 843:main.c        **** 					totalTime = (double)(tvEnd.QuadPart - tvStart.QuadPart);
 844:main.c        **** 					totalTime /= freq.QuadPart;
 845:main.c        **** 					speed = (double)length / (1024*1024*totalTime);
 846:main.c        **** 				#else
 847:main.c        **** 					gettimeofday(&tvStart, NULL);
 3694              		.loc 1 847 0 is_stmt 1
 3695 2c65 488D45B0 		leaq	-80(%rbp), %rax
 3696 2c69 BE000000 		movl	$0, %esi
 3696      00
 3697 2c6e 4889C7   		movq	%rax, %rdi
 3698 2c71 E8000000 		call	gettimeofday
 3698      00
 848:main.c        **** 					fStatus = flWriteChannel(handle, (uint8)chan, length, data, error);
 3699              		.loc 1 848 0
 3700 2c76 488B9538 		movq	-200(%rbp), %rdx
 3700      FFFFFF
 3701 2c7d 488B4580 		movq	-128(%rbp), %rax
 3702 2c81 0FB6F0   		movzbl	%al, %esi
 3703 2c84 488BBDF8 		movq	-264(%rbp), %rdi
 3703      FEFFFF
 3704 2c8b 488B8D48 		movq	-184(%rbp), %rcx
 3704      FFFFFF
 3705 2c92 488B8508 		movq	-248(%rbp), %rax
 3705      FFFFFF
 3706 2c99 4989F8   		movq	%rdi, %r8
 3707 2c9c 4889C7   		movq	%rax, %rdi
 3708 2c9f E8000000 		call	flWriteChannel
 3708      00
 3709 2ca4 898524FF 		movl	%eax, -220(%rbp)
 3709      FFFF
 849:main.c        **** 					gettimeofday(&tvEnd, NULL);
 3710              		.loc 1 849 0
 3711 2caa 488D45C0 		leaq	-64(%rbp), %rax
 3712 2cae BE000000 		movl	$0, %esi
 3712      00
 3713 2cb3 4889C7   		movq	%rax, %rdi
 3714 2cb6 E8000000 		call	gettimeofday
 3714      00
 850:main.c        **** 					startTime = tvStart.tv_sec;
 3715              		.loc 1 850 0
 3716 2cbb 488B45B0 		movq	-80(%rbp), %rax
 3717 2cbf 48894588 		movq	%rax, -120(%rbp)
 851:main.c        **** 					startTime *= 1000000;
 3718              		.loc 1 851 0
 3719 2cc3 488B4588 		movq	-120(%rbp), %rax
 3720 2cc7 4869C040 		imulq	$1000000, %rax, %rax
 3720      420F00
 3721 2cce 48894588 		movq	%rax, -120(%rbp)
 852:main.c        **** 					startTime += tvStart.tv_usec;
 3722              		.loc 1 852 0
 3723 2cd2 488B45B8 		movq	-72(%rbp), %rax
 3724 2cd6 48014588 		addq	%rax, -120(%rbp)
 853:main.c        **** 					endTime = tvEnd.tv_sec;
 3725              		.loc 1 853 0
 3726 2cda 488B45C0 		movq	-64(%rbp), %rax
 3727 2cde 48894590 		movq	%rax, -112(%rbp)
 854:main.c        **** 					endTime *= 1000000;
 3728              		.loc 1 854 0
 3729 2ce2 488B4590 		movq	-112(%rbp), %rax
 3730 2ce6 4869C040 		imulq	$1000000, %rax, %rax
 3730      420F00
 3731 2ced 48894590 		movq	%rax, -112(%rbp)
 855:main.c        **** 					endTime += tvEnd.tv_usec;
 3732              		.loc 1 855 0
 3733 2cf1 488B45C8 		movq	-56(%rbp), %rax
 3734 2cf5 48014590 		addq	%rax, -112(%rbp)
 856:main.c        **** 					totalTime = (double)(endTime - startTime);
 3735              		.loc 1 856 0
 3736 2cf9 488B4590 		movq	-112(%rbp), %rax
 3737 2cfd 482B4588 		subq	-120(%rbp), %rax
 3738 2d01 660FEFC0 		pxor	%xmm0, %xmm0
 3739 2d05 F2480F2A 		cvtsi2sdq	%rax, %xmm0
 3739      C0
 3740 2d0a F20F1145 		movsd	%xmm0, -104(%rbp)
 3740      98
 857:main.c        **** 					totalTime /= 1000000;  // convert from uS to S.
 3741              		.loc 1 857 0
 3742 2d0f F20F1045 		movsd	-104(%rbp), %xmm0
 3742      98
 3743 2d14 F20F100D 		movsd	.LC29(%rip), %xmm1
 3743      00000000 
 3744 2d1c F20F5EC1 		divsd	%xmm1, %xmm0
 3745 2d20 F20F1145 		movsd	%xmm0, -104(%rbp)
 3745      98
 858:main.c        **** 					speed = (double)length / (1024*1024*totalTime);
 3746              		.loc 1 858 0
 3747 2d25 488B8538 		movq	-200(%rbp), %rax
 3747      FFFFFF
 3748 2d2c 4885C0   		testq	%rax, %rax
 3749 2d2f 780B     		js	.L204
 3750 2d31 660FEFC0 		pxor	%xmm0, %xmm0
 3751 2d35 F2480F2A 		cvtsi2sdq	%rax, %xmm0
 3751      C0
 3752 2d3a EB19     		jmp	.L205
 3753              	.L204:
 3754 2d3c 4889C2   		movq	%rax, %rdx
 3755 2d3f 48D1EA   		shrq	%rdx
 3756 2d42 83E001   		andl	$1, %eax
 3757 2d45 4809C2   		orq	%rax, %rdx
 3758 2d48 660FEFC0 		pxor	%xmm0, %xmm0
 3759 2d4c F2480F2A 		cvtsi2sdq	%rdx, %xmm0
 3759      C2
 3760 2d51 F20F58C0 		addsd	%xmm0, %xmm0
 3761              	.L205:
 3762 2d55 F20F1055 		movsd	-104(%rbp), %xmm2
 3762      98
 3763 2d5a F20F100D 		movsd	.LC30(%rip), %xmm1
 3763      00000000 
 3764 2d62 F20F59CA 		mulsd	%xmm2, %xmm1
 3765 2d66 F20F5EC1 		divsd	%xmm1, %xmm0
 3766 2d6a F20F1145 		movsd	%xmm0, -96(%rbp)
 3766      A0
 859:main.c        **** 				#endif
 860:main.c        **** 					if ( enableBenchmarking ) {
 3767              		.loc 1 860 0
 3768 2d6f 0FB60500 		movzbl	enableBenchmarking(%rip), %eax
 3768      000000
 3769 2d76 84C0     		testb	%al, %al
 3770 2d78 744C     		je	.L206
 861:main.c        **** 						printf(
 862:main.c        **** 							"Wrote "PFSZD" bytes (checksum 0x%04X) to channel %lu at %f MiB/s\n",
 863:main.c        **** 							length, calcChecksum(data, length), chan, speed);
 3771              		.loc 1 863 0
 3772 2d7a 488B9538 		movq	-200(%rbp), %rdx
 3772      FFFFFF
 3773 2d81 488B8548 		movq	-184(%rbp), %rax
 3773      FFFFFF
 3774 2d88 4889D6   		movq	%rdx, %rsi
 3775 2d8b 4889C7   		movq	%rax, %rdi
 3776 2d8e E81CECFF 		call	calcChecksum
 3776      FF
 861:main.c        **** 						printf(
 3777              		.loc 1 861 0
 3778 2d93 0FB7D0   		movzwl	%ax, %edx
 3779 2d96 488B8538 		movq	-200(%rbp), %rax
 3779      FFFFFF
 3780 2d9d 488B75A0 		movq	-96(%rbp), %rsi
 3781 2da1 488B4D80 		movq	-128(%rbp), %rcx
 3782 2da5 4889B5F0 		movq	%rsi, -272(%rbp)
 3782      FEFFFF
 3783 2dac F20F1085 		movsd	-272(%rbp), %xmm0
 3783      F0FEFFFF 
 3784 2db4 4889C6   		movq	%rax, %rsi
 3785 2db7 BF000000 		movl	$.LC33, %edi
 3785      00
 3786 2dbc B8010000 		movl	$1, %eax
 3786      00
 3787 2dc1 E8000000 		call	printf
 3787      00
 3788              	.L206:
 864:main.c        **** 					}
 865:main.c        **** 					CHECK_STATUS(fStatus, FLP_LIBERR, cleanup);
 3789              		.loc 1 865 0
 3790 2dc6 83BD24FF 		cmpl	$0, -220(%rbp)
 3790      FFFF00
 3791 2dcd 740F     		je	.L207
 3792              		.loc 1 865 0 is_stmt 0 discriminator 1
 3793 2dcf C78514FF 		movl	$1, -236(%rbp)
 3793      FFFF0100 
 3793      0000
 3794 2dd9 E96C0100 		jmp	.L145
 3794      00
 3795              	.L207:
 866:main.c        **** 					free(data);
 3796              		.loc 1 866 0 is_stmt 1
 3797 2dde 488B8548 		movq	-184(%rbp), %rax
 3797      FFFFFF
 3798 2de5 4889C7   		movq	%rax, %rdi
 3799 2de8 E8000000 		call	free
 3799      00
 867:main.c        **** 					data = NULL;
 3800              		.loc 1 867 0
 3801 2ded 48C78548 		movq	$0, -184(%rbp)
 3801      FFFFFF00 
 3801      000000
 3802              	.LBE39:
 868:main.c        **** 				} else {
 869:main.c        **** 					FAIL(FLP_ILL_CHAR, cleanup);
 870:main.c        **** 				}
 871:main.c        **** 				break;
 3803              		.loc 1 871 0
 3804 2df8 E90C0100 		jmp	.L178
 3804      00
 3805              	.L198:
 869:main.c        **** 				}
 3806              		.loc 1 869 0
 3807 2dfd C78514FF 		movl	$5, -236(%rbp)
 3807      FFFF0500 
 3807      0000
 3808 2e07 90       		nop
 3809 2e08 E93D0100 		jmp	.L145
 3809      00
 3810              	.L151:
 3811              	.LBE37:
 3812              	.LBB40:
 872:main.c        **** 			}
 873:main.c        **** 			case '+':{
 874:main.c        **** 				uint32 conduit;
 875:main.c        **** 				char *end;
 876:main.c        **** 				ptr++;
 3813              		.loc 1 876 0
 3814 2e0d 488B0500 		movq	ptr(%rip), %rax
 3814      000000
 3815 2e14 4883C001 		addq	$1, %rax
 3816 2e18 48890500 		movq	%rax, ptr(%rip)
 3816      000000
 877:main.c        **** 
 878:main.c        **** 			// Get the conduit
 879:main.c        **** 				errno = 0;
 3817              		.loc 1 879 0
 3818 2e1f E8000000 		call	__errno_location
 3818      00
 3819 2e24 C7000000 		movl	$0, (%rax)
 3819      0000
 880:main.c        **** 				conduit = (uint32)strtoul(ptr, &end, 16);
 3820              		.loc 1 880 0
 3821 2e2a 488B0500 		movq	ptr(%rip), %rax
 3821      000000
 3822 2e31 488D8D40 		leaq	-192(%rbp), %rcx
 3822      FFFFFF
 3823 2e38 BA100000 		movl	$16, %edx
 3823      00
 3824 2e3d 4889CE   		movq	%rcx, %rsi
 3825 2e40 4889C7   		movq	%rax, %rdi
 3826 2e43 E8000000 		call	strtoul
 3826      00
 3827 2e48 89852CFF 		movl	%eax, -212(%rbp)
 3827      FFFF
 881:main.c        **** 				CHECK_STATUS(errno, FLP_BAD_HEX, cleanup);
 3828              		.loc 1 881 0
 3829 2e4e E8000000 		call	__errno_location
 3829      00
 3830 2e53 8B00     		movl	(%rax), %eax
 3831 2e55 85C0     		testl	%eax, %eax
 3832 2e57 740F     		je	.L208
 3833              		.loc 1 881 0 is_stmt 0 discriminator 1
 3834 2e59 C78514FF 		movl	$2, -236(%rbp)
 3834      FFFF0200 
 3834      0000
 3835 2e63 E9E20000 		jmp	.L145
 3835      00
 3836              	.L208:
 882:main.c        **** 
 883:main.c        **** 			// Ensure that it's 0-127
 884:main.c        **** 				CHECK_STATUS(conduit > 255, FLP_CONDUIT_RANGE, cleanup);
 3837              		.loc 1 884 0 is_stmt 1
 3838 2e68 81BD2CFF 		cmpl	$255, -212(%rbp)
 3838      FFFFFF00 
 3838      0000
 3839 2e72 760F     		jbe	.L210
 3840              		.loc 1 884 0 is_stmt 0 discriminator 1
 3841 2e74 C78514FF 		movl	$4, -236(%rbp)
 3841      FFFF0400 
 3841      0000
 3842 2e7e E9C70000 		jmp	.L145
 3842      00
 3843              	.L210:
 885:main.c        **** 				ptr = end;
 3844              		.loc 1 885 0 is_stmt 1
 3845 2e83 488B8540 		movq	-192(%rbp), %rax
 3845      FFFFFF
 3846 2e8a 48890500 		movq	%rax, ptr(%rip)
 3846      000000
 886:main.c        **** 
 887:main.c        **** 			// Only two valid chars at this point:
 888:main.c        **** 				CHECK_STATUS(*ptr != '\0' && *ptr != ';', FLP_ILL_CHAR, cleanup);
 3847              		.loc 1 888 0
 3848 2e91 488B0500 		movq	ptr(%rip), %rax
 3848      000000
 3849 2e98 0FB600   		movzbl	(%rax), %eax
 3850 2e9b 84C0     		testb	%al, %al
 3851 2e9d 741D     		je	.L211
 3852              		.loc 1 888 0 is_stmt 0 discriminator 1
 3853 2e9f 488B0500 		movq	ptr(%rip), %rax
 3853      000000
 3854 2ea6 0FB600   		movzbl	(%rax), %eax
 3855 2ea9 3C3B     		cmpb	$59, %al
 3856 2eab 740F     		je	.L211
 3857              		.loc 1 888 0 discriminator 2
 3858 2ead C78514FF 		movl	$5, -236(%rbp)
 3858      FFFF0500 
 3858      0000
 3859 2eb7 E98E0000 		jmp	.L145
 3859      00
 3860              	.L211:
 889:main.c        **** 
 890:main.c        **** 				fStatus = flSelectConduit(handle, (uint8)conduit, error);
 3861              		.loc 1 890 0 is_stmt 1
 3862 2ebc 8B852CFF 		movl	-212(%rbp), %eax
 3862      FFFF
 3863 2ec2 0FB6C8   		movzbl	%al, %ecx
 3864 2ec5 488B95F8 		movq	-264(%rbp), %rdx
 3864      FEFFFF
 3865 2ecc 488B8508 		movq	-248(%rbp), %rax
 3865      FFFFFF
 3866 2ed3 89CE     		movl	%ecx, %esi
 3867 2ed5 4889C7   		movq	%rax, %rdi
 3868 2ed8 E8000000 		call	flSelectConduit
 3868      00
 3869 2edd 898524FF 		movl	%eax, -220(%rbp)
 3869      FFFF
 891:main.c        **** 				CHECK_STATUS(fStatus, FLP_LIBERR, cleanup);
 3870              		.loc 1 891 0
 3871 2ee3 83BD24FF 		cmpl	$0, -220(%rbp)
 3871      FFFF00
 3872 2eea 741C     		je	.L223
 3873              		.loc 1 891 0 is_stmt 0 discriminator 1
 3874 2eec C78514FF 		movl	$1, -236(%rbp)
 3874      FFFF0100 
 3874      0000
 3875 2ef6 90       		nop
 3876 2ef7 EB51     		jmp	.L145
 3877              	.L221:
 3878              	.LBE40:
 892:main.c        **** 				break;
 893:main.c        **** 			}
 894:main.c        **** 			default:
 895:main.c        **** 			FAIL(FLP_ILL_CHAR, cleanup);
 3879              		.loc 1 895 0 is_stmt 1
 3880 2ef9 C78514FF 		movl	$5, -236(%rbp)
 3880      FFFF0500 
 3880      0000
 3881 2f03 EB45     		jmp	.L145
 3882              	.L222:
 3883              	.LBB41:
 747:main.c        **** 			}
 3884              		.loc 1 747 0
 3885 2f05 90       		nop
 3886 2f06 EB01     		jmp	.L178
 3887              	.L223:
 3888              	.LBE41:
 3889              	.LBB42:
 892:main.c        **** 				break;
 3890              		.loc 1 892 0
 3891 2f08 90       		nop
 3892              	.L178:
 3893              	.LBE42:
 896:main.c        **** 		}
 897:main.c        **** 	} while ( *ptr == ';' );
 3894              		.loc 1 897 0
 3895 2f09 488B0500 		movq	ptr(%rip), %rax
 3895      000000
 3896 2f10 0FB600   		movzbl	(%rax), %eax
 3897 2f13 3C3B     		cmpb	$59, %al
 3898 2f15 0F846DF1 		je	.L146
 3898      FFFF
 898:main.c        **** 	CHECK_STATUS(*ptr != '\0', FLP_ILL_CHAR, cleanup);
 3899              		.loc 1 898 0
 3900 2f1b 488B0500 		movq	ptr(%rip), %rax
 3900      000000
 3901 2f22 0FB600   		movzbl	(%rax), %eax
 3902 2f25 84C0     		testb	%al, %al
 3903 2f27 740C     		je	.L214
 3904              		.loc 1 898 0 is_stmt 0 discriminator 1
 3905 2f29 C78514FF 		movl	$5, -236(%rbp)
 3905      FFFF0500 
 3905      0000
 3906 2f33 EB15     		jmp	.L145
 3907              	.L214:
 899:main.c        **** 
 900:main.c        **** 	dump(0x00000000, dataFromFPGA.data, dataFromFPGA.length);
 3908              		.loc 1 900 0 is_stmt 1
 3909 2f35 488B55D8 		movq	-40(%rbp), %rdx
 3910 2f39 488B45D0 		movq	-48(%rbp), %rax
 3911 2f3d 4889C6   		movq	%rax, %rsi
 3912 2f40 BF000000 		movl	$0, %edi
 3912      00
 3913 2f45 E8000000 		call	dump
 3913      00
 3914              	.L145:
 901:main.c        **** 
 902:main.c        **** 	cleanup:
 903:main.c        **** 	bufDestroy(&dataFromFPGA);
 3915              		.loc 1 903 0
 3916 2f4a 488D45D0 		leaq	-48(%rbp), %rax
 3917 2f4e 4889C7   		movq	%rax, %rdi
 3918 2f51 E8000000 		call	bufDestroy
 3918      00
 904:main.c        **** 	if ( file ) {
 3919              		.loc 1 904 0
 3920 2f56 4883BD58 		cmpq	$0, -168(%rbp)
 3920      FFFFFF00 
 3921 2f5e 740F     		je	.L215
 905:main.c        **** 		fclose(file);
 3922              		.loc 1 905 0
 3923 2f60 488B8558 		movq	-168(%rbp), %rax
 3923      FFFFFF
 3924 2f67 4889C7   		movq	%rax, %rdi
 3925 2f6a E8000000 		call	fclose
 3925      00
 3926              	.L215:
 906:main.c        **** 	}
 907:main.c        **** 	free(fileName);
 3927              		.loc 1 907 0
 3928 2f6f 488B8550 		movq	-176(%rbp), %rax
 3928      FFFFFF
 3929 2f76 4889C7   		movq	%rax, %rdi
 3930 2f79 E8000000 		call	free
 3930      00
 908:main.c        **** 	free(data);
 3931              		.loc 1 908 0
 3932 2f7e 488B8548 		movq	-184(%rbp), %rax
 3932      FFFFFF
 3933 2f85 4889C7   		movq	%rax, %rdi
 3934 2f88 E8000000 		call	free
 3934      00
 909:main.c        **** 	if ( retVal > FLP_LIBERR ) {
 3935              		.loc 1 909 0
 3936 2f8d 83BD14FF 		cmpl	$1, -236(%rbp)
 3936      FFFF01
 3937 2f94 0F86A700 		jbe	.L216
 3937      0000
 3938              	.LBB43:
 910:main.c        **** 		const int column = (int)(ptr - line);
 3939              		.loc 1 910 0
 3940 2f9a 488B0500 		movq	ptr(%rip), %rax
 3940      000000
 3941 2fa1 4889C2   		movq	%rax, %rdx
 3942 2fa4 488B8500 		movq	-256(%rbp), %rax
 3942      FFFFFF
 3943 2fab 4829C2   		subq	%rax, %rdx
 3944 2fae 4889D0   		movq	%rdx, %rax
 3945 2fb1 898534FF 		movl	%eax, -204(%rbp)
 3945      FFFF
 911:main.c        **** 		int i;
 912:main.c        **** 		fprintf(stderr, "%s at column %d\n  %s\n  ", errMessages[retVal], column, line);
 3946              		.loc 1 912 0
 3947 2fb7 8B8514FF 		movl	-236(%rbp), %eax
 3947      FFFF
 3948 2fbd 488B14C5 		movq	errMessages(,%rax,8), %rdx
 3948      00000000 
 3949 2fc5 488B0500 		movq	stderr(%rip), %rax
 3949      000000
 3950 2fcc 488BB500 		movq	-256(%rbp), %rsi
 3950      FFFFFF
 3951 2fd3 8B8D34FF 		movl	-204(%rbp), %ecx
 3951      FFFF
 3952 2fd9 4989F0   		movq	%rsi, %r8
 3953 2fdc BE000000 		movl	$.LC34, %esi
 3953      00
 3954 2fe1 4889C7   		movq	%rax, %rdi
 3955 2fe4 B8000000 		movl	$0, %eax
 3955      00
 3956 2fe9 E8000000 		call	fprintf
 3956      00
 913:main.c        **** 		for ( i = 0; i < column; i++ ) {
 3957              		.loc 1 913 0
 3958 2fee C7851CFF 		movl	$0, -228(%rbp)
 3958      FFFF0000 
 3958      0000
 3959 2ff8 EB1B     		jmp	.L217
 3960              	.L218:
 914:main.c        **** 			fprintf(stderr, " ");
 3961              		.loc 1 914 0 discriminator 3
 3962 2ffa 488B0500 		movq	stderr(%rip), %rax
 3962      000000
 3963 3001 4889C6   		movq	%rax, %rsi
 3964 3004 BF200000 		movl	$32, %edi
 3964      00
 3965 3009 E8000000 		call	fputc
 3965      00
 913:main.c        **** 		for ( i = 0; i < column; i++ ) {
 3966              		.loc 1 913 0 discriminator 3
 3967 300e 83851CFF 		addl	$1, -228(%rbp)
 3967      FFFF01
 3968              	.L217:
 913:main.c        **** 		for ( i = 0; i < column; i++ ) {
 3969              		.loc 1 913 0 is_stmt 0 discriminator 1
 3970 3015 8B851CFF 		movl	-228(%rbp), %eax
 3970      FFFF
 3971 301b 3B8534FF 		cmpl	-204(%rbp), %eax
 3971      FFFF
 3972 3021 7CD7     		jl	.L218
 915:main.c        **** 		}
 916:main.c        **** 		fprintf(stderr, "^\n");
 3973              		.loc 1 916 0 is_stmt 1
 3974 3023 488B0500 		movq	stderr(%rip), %rax
 3974      000000
 3975 302a 4889C1   		movq	%rax, %rcx
 3976 302d BA020000 		movl	$2, %edx
 3976      00
 3977 3032 BE010000 		movl	$1, %esi
 3977      00
 3978 3037 BF000000 		movl	$.LC35, %edi
 3978      00
 3979 303c E8000000 		call	fwrite
 3979      00
 3980              	.L216:
 3981              	.LBE43:
 917:main.c        **** 	}
 918:main.c        **** 	return retVal;
 3982              		.loc 1 918 0
 3983 3041 8B8514FF 		movl	-236(%rbp), %eax
 3983      FFFF
 919:main.c        **** }
 3984              		.loc 1 919 0
 3985 3047 488B4DF8 		movq	-8(%rbp), %rcx
 3986 304b 6448330C 		xorq	%fs:40, %rcx
 3986      25280000 
 3986      00
 3987 3054 7405     		je	.L220
 3988 3056 E8000000 		call	__stack_chk_fail
 3988      00
 3989              	.L220:
 3990 305b C9       		leave
 3991              		.cfi_def_cfa 7, 8
 3992 305c C3       		ret
 3993              		.cfi_endproc
 3994              	.LFE21:
 3996              		.section	.rodata
 3997              	.LC36:
 3998 02c1 30303030 		.string	"0000"
 3998      00
 3999              	.LC37:
 4000 02c6 30303031 		.string	"0001"
 4000      00
 4001              	.LC38:
 4002 02cb 30303130 		.string	"0010"
 4002      00
 4003              	.LC39:
 4004 02d0 30303131 		.string	"0011"
 4004      00
 4005              	.LC40:
 4006 02d5 30313030 		.string	"0100"
 4006      00
 4007              	.LC41:
 4008 02da 30313031 		.string	"0101"
 4008      00
 4009              	.LC42:
 4010 02df 30313130 		.string	"0110"
 4010      00
 4011              	.LC43:
 4012 02e4 30313131 		.string	"0111"
 4012      00
 4013              	.LC44:
 4014 02e9 31303030 		.string	"1000"
 4014      00
 4015              	.LC45:
 4016 02ee 31303031 		.string	"1001"
 4016      00
 4017              	.LC46:
 4018 02f3 58585858 		.string	"XXXX"
 4018      00
 4019              	.LC47:
 4020 02f8 31303130 		.string	"1010"
 4020      00
 4021              	.LC48:
 4022 02fd 31303131 		.string	"1011"
 4022      00
 4023              	.LC49:
 4024 0302 31313030 		.string	"1100"
 4024      00
 4025              	.LC50:
 4026 0307 31313031 		.string	"1101"
 4026      00
 4027              	.LC51:
 4028 030c 31313130 		.string	"1110"
 4028      00
 4029              	.LC52:
 4030 0311 31313131 		.string	"1111"
 4030      00
 4031              		.data
 4032              		.align 32
 4035              	nibbles:
 4036 0000 00000000 		.quad	.LC36
 4036      00000000 
 4037 0008 00000000 		.quad	.LC37
 4037      00000000 
 4038 0010 00000000 		.quad	.LC38
 4038      00000000 
 4039 0018 00000000 		.quad	.LC39
 4039      00000000 
 4040 0020 00000000 		.quad	.LC40
 4040      00000000 
 4041 0028 00000000 		.quad	.LC41
 4041      00000000 
 4042 0030 00000000 		.quad	.LC42
 4042      00000000 
 4043 0038 00000000 		.quad	.LC43
 4043      00000000 
 4044 0040 00000000 		.quad	.LC44
 4044      00000000 
 4045 0048 00000000 		.quad	.LC45
 4045      00000000 
 4046 0050 00000000 		.quad	.LC46
 4046      00000000 
 4047 0058 00000000 		.quad	.LC46
 4047      00000000 
 4048 0060 00000000 		.quad	.LC46
 4048      00000000 
 4049 0068 00000000 		.quad	.LC46
 4049      00000000 
 4050 0070 00000000 		.quad	.LC46
 4050      00000000 
 4051 0078 00000000 		.quad	.LC46
 4051      00000000 
 4052 0080 00000000 		.quad	.LC46
 4052      00000000 
 4053 0088 00000000 		.quad	.LC47
 4053      00000000 
 4054 0090 00000000 		.quad	.LC48
 4054      00000000 
 4055 0098 00000000 		.quad	.LC49
 4055      00000000 
 4056 00a0 00000000 		.quad	.LC50
 4056      00000000 
 4057 00a8 00000000 		.quad	.LC51
 4057      00000000 
 4058 00b0 00000000 		.quad	.LC52
 4058      00000000 
 4059              		.text
 4060              		.globl	asciiToBinary
 4062              	asciiToBinary:
 4063              	.LFB22:
 920:main.c        **** 
 921:main.c        **** static const char *nibbles[] = {
 922:main.c        **** 	"0000",  // '0'
 923:main.c        **** 	"0001",  // '1'
 924:main.c        **** 	"0010",  // '2'
 925:main.c        **** 	"0011",  // '3'
 926:main.c        **** 	"0100",  // '4'
 927:main.c        **** 	"0101",  // '5'
 928:main.c        **** 	"0110",  // '6'
 929:main.c        **** 	"0111",  // '7'
 930:main.c        **** 	"1000",  // '8'
 931:main.c        **** 	"1001",  // '9'
 932:main.c        **** 
 933:main.c        **** 	"XXXX",  // ':'
 934:main.c        **** 	"XXXX",  // ';'
 935:main.c        **** 	"XXXX",  // '<'
 936:main.c        **** 	"XXXX",  // '='
 937:main.c        **** 	"XXXX",  // '>'
 938:main.c        **** 	"XXXX",  // '?'
 939:main.c        **** 	"XXXX",  // '@'
 940:main.c        **** 
 941:main.c        **** 	"1010",  // 'A'
 942:main.c        **** 	"1011",  // 'B'
 943:main.c        **** 	"1100",  // 'C'
 944:main.c        **** 	"1101",  // 'D'
 945:main.c        **** 	"1110",  // 'E'
 946:main.c        **** 	"1111"   // 'F'
 947:main.c        **** };
 948:main.c        **** 
 949:main.c        **** ////////////////////////////////////////////////////////////////////////
 950:main.c        **** int asciiToBinary(int input) {
 4064              		.loc 1 950 0
 4065              		.cfi_startproc
 4066 305d 55       		pushq	%rbp
 4067              		.cfi_def_cfa_offset 16
 4068              		.cfi_offset 6, -16
 4069 305e 4889E5   		movq	%rsp, %rbp
 4070              		.cfi_def_cfa_register 6
 4071 3061 897DEC   		movl	%edi, -20(%rbp)
 951:main.c        **** 	int result = 0, i = 1, remainder;
 4072              		.loc 1 951 0
 4073 3064 C745F400 		movl	$0, -12(%rbp)
 4073      000000
 4074 306b C745F801 		movl	$1, -8(%rbp)
 4074      000000
 952:main.c        **** 
 953:main.c        ****         /* convert decimal to binary format */
 954:main.c        **** 	while (input > 0) {
 4075              		.loc 1 954 0
 4076 3072 EB39     		jmp	.L225
 4077              	.L226:
 955:main.c        **** 		remainder = input % 2;
 4078              		.loc 1 955 0
 4079 3074 8B45EC   		movl	-20(%rbp), %eax
 4080 3077 99       		cltd
 4081 3078 C1EA1F   		shrl	$31, %edx
 4082 307b 01D0     		addl	%edx, %eax
 4083 307d 83E001   		andl	$1, %eax
 4084 3080 29D0     		subl	%edx, %eax
 4085 3082 8945FC   		movl	%eax, -4(%rbp)
 956:main.c        **** 		result = result + (i * remainder);
 4086              		.loc 1 956 0
 4087 3085 8B45F8   		movl	-8(%rbp), %eax
 4088 3088 0FAF45FC 		imull	-4(%rbp), %eax
 4089 308c 0145F4   		addl	%eax, -12(%rbp)
 957:main.c        **** 		input = input / 2;
 4090              		.loc 1 957 0
 4091 308f 8B45EC   		movl	-20(%rbp), %eax
 4092 3092 89C2     		movl	%eax, %edx
 4093 3094 C1EA1F   		shrl	$31, %edx
 4094 3097 01D0     		addl	%edx, %eax
 4095 3099 D1F8     		sarl	%eax
 4096 309b 8945EC   		movl	%eax, -20(%rbp)
 958:main.c        **** 		i = i * 10;
 4097              		.loc 1 958 0
 4098 309e 8B55F8   		movl	-8(%rbp), %edx
 4099 30a1 89D0     		movl	%edx, %eax
 4100 30a3 C1E002   		sall	$2, %eax
 4101 30a6 01D0     		addl	%edx, %eax
 4102 30a8 01C0     		addl	%eax, %eax
 4103 30aa 8945F8   		movl	%eax, -8(%rbp)
 4104              	.L225:
 954:main.c        **** 		remainder = input % 2;
 4105              		.loc 1 954 0
 4106 30ad 837DEC00 		cmpl	$0, -20(%rbp)
 4107 30b1 7FC1     		jg	.L226
 959:main.c        **** 	}
 960:main.c        **** 
 961:main.c        ****         /* print the resultant binary value */
 962:main.c        **** 	return(result);
 4108              		.loc 1 962 0
 4109 30b3 8B45F4   		movl	-12(%rbp), %eax
 963:main.c        **** }
 4110              		.loc 1 963 0
 4111 30b6 5D       		popq	%rbp
 4112              		.cfi_def_cfa 7, 8
 4113 30b7 C3       		ret
 4114              		.cfi_endproc
 4115              	.LFE22:
 4117              		.section	.rodata
 4118 0316 0000     		.align 8
 4119              	.LC53:
 4120 0318 20202020 		.string	"            vendor ID and product ID (e.g 04B4:8613)"
 4120      20202020 
 4120      20202020 
 4120      76656E64 
 4120      6F722049 
 4121              	.LC54:
 4122 034d 3C564944 		.string	"<VID:PID>"
 4122      3A504944 
 4122      3E00
 4123              	.LC55:
 4124 0357 69767000 		.string	"ivp"
 4125              	.LC56:
 4126 035b 6900     		.string	"i"
 4127 035d 000000   		.align 8
 4128              	.LC57:
 4129 0360 20202020 		.string	"       VID, PID and opt. dev ID (e.g 1D50:602B:0001)"
 4129      20202056 
 4129      49442C20 
 4129      50494420 
 4129      616E6420 
 4130              	.LC58:
 4131 0395 3C564944 		.string	"<VID:PID[:DID]>"
 4131      3A504944 
 4131      5B3A4449 
 4131      445D3E00 
 4132              	.LC59:
 4133 03a5 767000   		.string	"vp"
 4134              	.LC60:
 4135 03a8 7600     		.string	"v"
 4136 03aa 00000000 		.align 8
 4136      0000
 4137              	.LC61:
 4138 03b0 20202020 		.string	"        firmware to RAM-load (or use std fw)"
 4138      20202020 
 4138      6669726D 
 4138      77617265 
 4138      20746F20 
 4139              	.LC62:
 4140 03dd 3C666972 		.string	"<firmware.hex>"
 4140      6D776172 
 4140      652E6865 
 4140      783E00
 4141              	.LC63:
 4142 03ec 667700   		.string	"fw"
 4143              	.LC64:
 4144 03ef 6600     		.string	"f"
 4145 03f1 00000000 		.align 8
 4145      000000
 4146              	.LC65:
 4147 03f8 20726561 		.string	" read/write digital ports (e.g B13+,C1-,B2?)"
 4147      642F7772 
 4147      69746520 
 4147      64696769 
 4147      74616C20 
 4148              	.LC66:
 4149 0425 3C626974 		.string	"<bitCfg[,bitCfg]*>"
 4149      4366675B 
 4149      2C626974 
 4149      4366675D 
 4149      2A3E00
 4150              	.LC67:
 4151 0438 706F7274 		.string	"ports"
 4151      7300
 4152              	.LC68:
 4153 043e 6400     		.string	"d"
 4154              	.LC69:
 4155 0440 20202020 		.string	"         query the JTAG chain"
 4155      20202020 
 4155      20717565 
 4155      72792074 
 4155      6865204A 
 4156              	.LC70:
 4157 045e 3C6A7461 		.string	"<jtagBits>"
 4157      67426974 
 4157      733E00
 4158              	.LC71:
 4159 0469 71756572 		.string	"query"
 4159      7900
 4160              	.LC72:
 4161 046f 7100     		.string	"q"
 4162              	.LC73:
 4163 0471 20202020 		.string	"         program a device"
 4163      20202020 
 4163      2070726F 
 4163      6772616D 
 4163      20612064 
 4164              	.LC74:
 4165 048b 3C636F6E 		.string	"<config>"
 4165      6669673E 
 4165      00
 4166              	.LC75:
 4167 0494 70726F67 		.string	"program"
 4167      72616D00 
 4168              	.LC76:
 4169 049c 7000     		.string	"p"
 4170 049e 0000     		.align 8
 4171              	.LC77:
 4172 04a0 20202020 		.string	"        which comm conduit to choose (default 0x01)"
 4172      20202020 
 4172      77686963 
 4172      6820636F 
 4172      6D6D2063 
 4173              	.LC78:
 4174 04d4 3C636F6E 		.string	"<conduit>"
 4174      64756974 
 4174      3E00
 4175              	.LC79:
 4176 04de 636F6E64 		.string	"conduit"
 4176      75697400 
 4177              	.LC80:
 4178 04e6 6300     		.string	"c"
 4179              		.align 8
 4180              	.LC81:
 4181 04e8 20202020 		.string	"    a series of CommFPGA actions"
 4181      61207365 
 4181      72696573 
 4181      206F6620 
 4181      436F6D6D 
 4182              	.LC82:
 4183 0509 3C616374 		.string	"<actionString>"
 4183      696F6E53 
 4183      7472696E 
 4183      673E00
 4184              	.LC83:
 4185 0518 61637469 		.string	"action"
 4185      6F6E00
 4186              	.LC84:
 4187 051f 6100     		.string	"a"
 4188 0521 00000000 		.align 8
 4188      000000
 4189              	.LC85:
 4190 0528 20202020 		.string	"                 some other stuff"
 4190      20202020 
 4190      20202020 
 4190      20202020 
 4190      20736F6D 
 4191              	.LC86:
 4192 054a 736F6D65 		.string	"some stuff"
 4192      20737475 
 4192      666600
 4193              	.LC87:
 4194 0555 7A00     		.string	"z"
 4195 0557 00       		.align 8
 4196              	.LC88:
 4197 0558 20202020 		.string	"                    start up an interactive CommFPGA session"
 4197      20202020 
 4197      20202020 
 4197      20202020 
 4197      20202020 
 4198              	.LC89:
 4199 0595 7368656C 		.string	"shell"
 4199      6C00
 4200              	.LC90:
 4201 059b 7300     		.string	"s"
 4202 059d 000000   		.align 8
 4203              	.LC91:
 4204 05a0 20202020 		.string	"                enable benchmarking & chefcksumming"
 4204      20202020 
 4204      20202020 
 4204      20202020 
 4204      656E6162 
 4205              	.LC92:
 4206 05d4 62656E63 		.string	"benchmark"
 4206      686D6172 
 4206      6B00
 4207              	.LC93:
 4208 05de 6200     		.string	"b"
 4209              		.align 8
 4210              	.LC94:
 4211 05e0 20202020 		.string	"                    reset the bulk endpoints"
 4211      20202020 
 4211      20202020 
 4211      20202020 
 4211      20202020 
 4212              	.LC95:
 4213 060d 72657365 		.string	"reset"
 4213      7400
 4214 0613 00000000 		.align 8
 4214      00
 4215              	.LC96:
 4216 0618 20202077 		.string	"   write data from channel ch to file"
 4216      72697465 
 4216      20646174 
 4216      61206672 
 4216      6F6D2063 
 4217              	.LC97:
 4218 063e 3C63683A 		.string	"<ch:file.bin>"
 4218      66696C65 
 4218      2E62696E 
 4218      3E00
 4219              	.LC98:
 4220 064c 64756D70 		.string	"dumploop"
 4220      6C6F6F70 
 4220      00
 4221              	.LC99:
 4222 0655 6C00     		.string	"l"
 4223 0657 00       		.align 8
 4224              	.LC100:
 4225 0658 20202020 		.string	"                     print this help and exit"
 4225      20202020 
 4225      20202020 
 4225      20202020 
 4225      20202020 
 4226              	.LC101:
 4227 0686 68656C70 		.string	"help"
 4227      00
 4228              	.LC102:
 4229 068b 6800     		.string	"h"
 4230 068d 000000   		.align 8
 4231              	.LC103:
 4232 0690 20202077 		.string	"   write firmware to FX2's EEPROM (!!)"
 4232      72697465 
 4232      20666972 
 4232      6D776172 
 4232      6520746F 
 4233              	.LC104:
 4234 06b7 3C737464 		.string	"<std|fw.hex|fw.iic>"
 4234      7C66772E 
 4234      6865787C 
 4234      66772E69 
 4234      69633E00 
 4235              	.LC105:
 4236 06cb 65657072 		.string	"eeprom"
 4236      6F6D00
 4237 06d2 00000000 		.align 8
 4237      0000
 4238              	.LC106:
 4239 06d8 20202020 		.string	"     backup FX2's EEPROM (e.g 128:fw.iic)\n"
 4239      20626163 
 4239      6B757020 
 4239      46583227 
 4239      73204545 
 4240              	.LC107:
 4241 0703 3C6B6269 		.string	"<kbitSize:fw.iic>"
 4241      7453697A 
 4241      653A6677 
 4241      2E696963 
 4241      3E00
 4242              	.LC108:
 4243 0715 6261636B 		.string	"backup"
 4243      757000
 4244              	.LC109:
 4245 071c 666C636C 		.string	"flcli"
 4245      6900
 4246              	.LC110:
 4247 0722 25733A20 		.string	"%s: insufficient memory\n"
 4247      696E7375 
 4247      66666963 
 4247      69656E74 
 4247      206D656D 
 4248 073b 00000000 		.align 8
 4248      00
 4249              	.LC111:
 4250 0740 46504741 		.string	"FPGALink Command-Line Interface Copyright (C) 2012-2014 Chris McClelland\n\nUsage: %s"
 4250      4C696E6B 
 4250      20436F6D 
 4250      6D616E64 
 4250      2D4C696E 
 4251              	.LC112:
 4252 0794 0A00     		.string	"\n"
 4253 0796 0000     		.align 8
 4254              	.LC113:
 4255 0798 0A496E74 		.string	"\nInteract with an FPGALink device.\n"
 4255      65726163 
 4255      74207769 
 4255      74682061 
 4255      6E204650 
 4256              	.LC114:
 4257 07bc 2020252D 		.string	"  %-10s %s\n"
 4257      31307320 
 4257      25730A00 
 4258              		.align 8
 4259              	.LC115:
 4260 07c8 54727920 		.string	"Try '%s --help' for more information.\n"
 4260      27257320 
 4260      2D2D6865 
 4260      6C702720 
 4260      666F7220 
 4261 07ef 00       		.align 8
 4262              	.LC116:
 4263 07f0 41747465 		.string	"Attempting to open connection to FPGALink device %s...\n"
 4263      6D707469 
 4263      6E672074 
 4263      6F206F70 
 4263      656E2063 
 4264              	.LC117:
 4265 0828 4C6F6164 		.string	"Loading firmware into %s...\n"
 4265      696E6720 
 4265      6669726D 
 4265      77617265 
 4265      20696E74 
 4266              	.LC118:
 4267 0845 41776169 		.string	"Awaiting renumeration"
 4267      74696E67 
 4267      2072656E 
 4267      756D6572 
 4267      6174696F 
 4268 085b 00000000 		.align 8
 4268      00
 4269              	.LC119:
 4270 0860 46504741 		.string	"FPGALink device did not renumerate properly as %s\n"
 4270      4C696E6B 
 4270      20646576 
 4270      69636520 
 4270      64696420 
 4271 0893 00000000 		.align 8
 4271      00
 4272              	.LC120:
 4273 0898 41747465 		.string	"Attempting to open connection to FPGLink device %s again...\n"
 4273      6D707469 
 4273      6E672074 
 4273      6F206F70 
 4273      656E2063 
 4274 08d5 000000   		.align 8
 4275              	.LC121:
 4276 08d8 436F756C 		.string	"Could not open FPGALink device at %s and no initial VID:PID was supplied\n"
 4276      64206E6F 
 4276      74206F70 
 4276      656E2046 
 4276      5047414C 
 4277 0922 00000000 		.align 8
 4277      0000
 4278              	.LC122:
 4279 0928 436F6E6E 		.string	"Connected to FPGALink device %s (firmwareID: 0x%04X, firmwareVersion: 0x%08X)\n"
 4279      65637465 
 4279      6420746F 
 4279      20465047 
 4279      414C696E 
 4280              	.LC123:
 4281 0977 73746400 		.string	"std"
 4282 097b 00000000 		.align 8
 4282      00
 4283              	.LC124:
 4284 0980 57726974 		.string	"Writing the standard FPGALink firmware to the FX2's EEPROM..."
 4284      696E6720 
 4284      74686520 
 4284      7374616E 
 4284      64617264 
 4285 09be 0000     		.align 8
 4286              	.LC125:
 4287 09c0 57726974 		.string	"Writing custom FPGALink firmware from %s to the FX2's EEPROM...\n"
 4287      696E6720 
 4287      63757374 
 4287      6F6D2046 
 4287      5047414C 
 4288 0a01 00000000 		.align 8
 4288      000000
 4289              	.LC126:
 4290 0a08 25733A20 		.string	"%s: invalid argument to option --backup=<kbitSize:fw.iic>\n"
 4290      696E7661 
 4290      6C696420 
 4290      61726775 
 4290      6D656E74 
 4291 0a43 00000000 		.align 8
 4291      00
 4292              	.LC127:
 4293 0a48 53617669 		.string	"Saving a backup of %d kbit from the FX2's EEPROM to %s...\n"
 4293      6E672061 
 4293      20626163 
 4293      6B757020 
 4293      6F662025 
 4294              	.LC128:
 4295 0a83 436F6E66 		.string	"Configuring ports..."
 4295      69677572 
 4295      696E6720 
 4295      706F7274 
 4295      732E2E2E 
 4296              	.LC129:
 4297 0a98 25303858 		.string	"%08X"
 4297      00
 4298 0a9d 000000   		.align 8
 4299              	.LC130:
 4300 0aa0 52656164 		.string	"Readback:   28   24   20   16    12    8    4    0\n          %s"
 4300      6261636B 
 4300      3A202020 
 4300      32382020 
 4300      20323420 
 4301              	.LC131:
 4302 0ae0 20257300 		.string	" %s"
 4303              	.LC132:
 4304 0ae4 20202573 		.string	"  %s"
 4304      00
 4305              	.LC133:
 4306 0ae9 2025730A 		.string	" %s\n"
 4306      00
 4307 0aee 0000     		.align 8
 4308              	.LC134:
 4309 0af0 54686520 		.string	"The FPGALink device at %s scanned its JTAG chain, yielding:\n"
 4309      46504741 
 4309      4C696E6B 
 4309      20646576 
 4309      69636520 
 4310              	.LC135:
 4311 0b2d 20203078 		.string	"  0x%08X\n"
 4311      25303858 
 4311      0A00
 4312 0b37 00       		.align 8
 4313              	.LC136:
 4314 0b38 54686520 		.string	"The FPGALink device at %s scanned its JTAG chain but did not find any attached devices\n"
 4314      46504741 
 4314      4C696E6B 
 4314      20646576 
 4314      69636520 
 4315              		.align 8
 4316              	.LC137:
 4317 0b90 4A544147 		.string	"JTAG chain scan requested but FPGALink device at %s does not support NeroProg\n"
 4317      20636861 
 4317      696E2073 
 4317      63616E20 
 4317      72657175 
 4318              	.LC138:
 4319 0bdf 50726F67 		.string	"Programming device..."
 4319      72616D6D 
 4319      696E6720 
 4319      64657669 
 4319      63652E2E 
 4320 0bf5 000000   		.align 8
 4321              	.LC139:
 4322 0bf8 50726F67 		.string	"Program operation requested but device at %s does not support NeroProg\n"
 4322      72616D20 
 4322      6F706572 
 4322      6174696F 
 4322      6E207265 
 4323              		.align 8
 4324              	.LC140:
 4325 0c40 45786563 		.string	"Executing CommFPGA actions on FPGALink device %s...\n"
 4325      7574696E 
 4325      6720436F 
 4325      6D6D4650 
 4325      47412061 
 4326 0c75 000000   		.align 8
 4327              	.LC141:
 4328 0c78 54686520 		.string	"The FPGALink device at %s is not ready to talk - did you forget --program?\n"
 4328      46504741 
 4328      4C696E6B 
 4328      20646576 
 4328      69636520 
 4329 0cc4 00000000 		.align 8
 4330              	.LC142:
 4331 0cc8 41637469 		.string	"Action requested but device at %s does not support CommFPGA\n"
 4331      6F6E2072 
 4331      65717565 
 4331      73746564 
 4331      20627574 
 4332 0d05 000000   		.align 8
 4333              	.LC143:
 4334 0d08 25733A20 		.string	"%s: invalid argument to option -l|--dumploop=<ch:file.bin>\n"
 4334      696E7661 
 4334      6C696420 
 4334      61726775 
 4334      6D656E74 
 4335 0d44 00000000 		.align 8
 4336              	.LC144:
 4337 0d48 436F7079 		.string	"Copying from channel %lu to %s"
 4337      696E6720 
 4337      66726F6D 
 4337      20636861 
 4337      6E6E656C 
 4338              	.LC145:
 4339 0d67 0A436175 		.string	"\nCaught SIGINT, quitting..."
 4339      67687420 
 4339      53494749 
 4339      4E542C20 
 4339      71756974 
 4340 0d83 00000000 		.align 8
 4340      00
 4341              	.LC146:
 4342 0d88 0A456E74 		.string	"\nEntering CommFPGA command-line mode:"
 4342      6572696E 
 4342      6720436F 
 4342      6D6D4650 
 4342      47412063 
 4343              	.LC147:
 4344 0dae 3E2000   		.string	"> "
 4345 0db1 00000000 		.align 8
 4345      000000
 4346              	.LC148:
 4347 0db8 54686520 		.string	"The FPGALink device at %s is not ready to talk - did you forget --xsvf?\n"
 4347      46504741 
 4347      4C696E6B 
 4347      20646576 
 4347      69636520 
 4348 0e01 00000000 		.align 8
 4348      000000
 4349              	.LC149:
 4350 0e08 5368656C 		.string	"Shell requested but device at %s does not support CommFPGA\n"
 4350      6C207265 
 4350      71756573 
 4350      74656420 
 4350      62757420 
 4351              	.LC150:
 4352 0e44 4368616E 		.string	"Channel = "
 4352      6E656C20 
 4352      3D2000
 4353              	.LC151:
 4354 0e4f 257300   		.string	"%s"
 4355              	.LC152:
 4356 0e52 25640A00 		.string	"%d\n"
 4357 0e56 0000     		.align 8
 4358              	.LC153:
 4359 0e58 2D2D2D2D 		.string	"----------------------H2.1 started----------------------- "
 4359      2D2D2D2D 
 4359      2D2D2D2D 
 4359      2D2D2D2D 
 4359      2D2D2D2D 
 4360 0e93 00000000 		.align 8
 4360      00
 4361              	.LC154:
 4362 0e98 57616974 		.string	"Waiting for encrypted co_ordinates"
 4362      696E6720 
 4362      666F7220 
 4362      656E6372 
 4362      79707465 
 4363 0ebb 00000000 		.align 8
 4363      00
 4364              	.LC155:
 4365 0ec0 2D2D2D2D 		.string	"-------------------------RESET------------------------"
 4365      2D2D2D2D 
 4365      2D2D2D2D 
 4365      2D2D2D2D 
 4365      2D2D2D2D 
 4366 0ef7 00       		.align 8
 4367              	.LC156:
 4368 0ef8 476F7420 		.string	"Got the encrypted co_ordinates, they are as in uint8 form --"
 4368      74686520 
 4368      656E6372 
 4368      79707465 
 4368      6420636F 
 4369 0f35 000000   		.align 8
 4370              	.LC157:
 4371 0f38 656E6372 		.string	"encrypted_pos is converted to binary"
 4371      79707465 
 4371      645F706F 
 4371      73206973 
 4371      20636F6E 
 4372              	.LC158:
 4373 0f5d 54686520 		.string	"The encrypted_pos are as --"
 4373      656E6372 
 4373      79707465 
 4373      645F706F 
 4373      73206172 
 4374 0f79 00000000 		.align 8
 4374      000000
 4375              	.LC159:
 4376 0f80 54686520 		.string	"The decrypted pos in binary form are as --"
 4376      64656372 
 4376      79707465 
 4376      6420706F 
 4376      7320696E 
 4377 0fab 00000000 		.align 8
 4377      00
 4378              	.LC160:
 4379 0fb0 2D2D2D2D 		.string	"----------------------H2.1 ended----------------------- "
 4379      2D2D2D2D 
 4379      2D2D2D2D 
 4379      2D2D2D2D 
 4379      2D2D2D2D 
 4380 0fe9 00000000 		.align 8
 4380      000000
 4381              	.LC161:
 4382 0ff0 2D2D2D2D 		.string	"----------------------H2.2 started----------------------- "
 4382      2D2D2D2D 
 4382      2D2D2D2D 
 4382      2D2D2D2D 
 4382      2D2D2D2D 
 4383 102b 00000000 		.align 8
 4383      00
 4384              	.LC162:
 4385 1030 54686520 		.string	"The co_ordinates are re-encrypted in binary form"
 4385      636F5F6F 
 4385      7264696E 
 4385      61746573 
 4385      20617265 
 4386 1061 00000000 		.align 8
 4386      000000
 4387              	.LC163:
 4388 1068 54686520 		.string	"The re-encrypted co_ords are as follows"
 4388      72652D65 
 4388      6E637279 
 4388      70746564 
 4388      20636F5F 
 4389              		.align 8
 4390              	.LC164:
 4391 1090 436F6E76 		.string	"Converting the re-encrypted data in binary to uint8 form"
 4391      65727469 
 4391      6E672074 
 4391      68652072 
 4391      652D656E 
 4392 10c9 00000000 		.align 8
 4392      000000
 4393              	.LC165:
 4394 10d0 50726570 		.string	"Preparing to send the encrypted co_ordinates "
 4394      6172696E 
 4394      6720746F 
 4394      2073656E 
 4394      64207468 
 4395 10fe 0000     		.align 8
 4396              	.LC166:
 4397 1100 53756363 		.string	"Successfully send the encrypted co_ordinates in uint8 form"
 4397      65737366 
 4397      756C6C79 
 4397      2073656E 
 4397      64207468 
 4398 113b 00000000 		.align 8
 4398      00
 4399              	.LC167:
 4400 1140 2D2D2D2D 		.string	"----------------------H2.2 ended----------------------- "
 4400      2D2D2D2D 
 4400      2D2D2D2D 
 4400      2D2D2D2D 
 4400      2D2D2D2D 
 4401 1179 00000000 		.align 8
 4401      000000
 4402              	.LC168:
 4403 1180 2D2D2D2D 		.string	"----------------------H2.3 started----------------------- "
 4403      2D2D2D2D 
 4403      2D2D2D2D 
 4403      2D2D2D2D 
 4403      2D2D2D2D 
 4404 11bb 00000000 		.align 8
 4404      00
 4405              	.LC169:
 4406 11c0 57616974 		.string	"Waiting to get Ack1 from the fpga controller"
 4406      696E6720 
 4406      746F2067 
 4406      65742041 
 4406      636B3120 
 4407 11ed 000000   		.align 8
 4408              	.LC170:
