   1              		.file	"TestCheckMacros.cpp"
   2              		.section	.text.unlikely._ZN17RecordingReporter13ReportSummaryEiiif,"axG",@progbits,_ZN17RecordingR
   3              		.align 2
   4              	.LCOLDB0:
   5              		.section	.text._ZN17RecordingReporter13ReportSummaryEiiif,"axG",@progbits,_ZN17RecordingReporter13
   6              	.LHOTB0:
   7              		.align 2
   8              		.p2align 4,,15
   9              		.weak	_ZN17RecordingReporter13ReportSummaryEiiif
  11              	_ZN17RecordingReporter13ReportSummaryEiiif:
  12              	.LFB1135:
  13              		.cfi_startproc
  14 0000 89B71C08 		movl	%esi, 2076(%rdi)
  14      0000
  15 0006 89972008 		movl	%edx, 2080(%rdi)
  15      0000
  16 000c F30F1187 		movss	%xmm0, 2088(%rdi)
  16      28080000 
  17 0014 898F2408 		movl	%ecx, 2084(%rdi)
  17      0000
  18 001a C3       		ret
  19              		.cfi_endproc
  20              	.LFE1135:
  22              		.section	.text.unlikely._ZN17RecordingReporter13ReportSummaryEiiif,"axG",@progbits,_ZN17RecordingR
  23              	.LCOLDE0:
  24              		.section	.text._ZN17RecordingReporter13ReportSummaryEiiif,"axG",@progbits,_ZN17RecordingReporter13
  25              	.LHOTE0:
  26              		.section	.text.unlikely,"ax",@progbits
  27              		.align 2
  28              	.LCOLDB1:
  29              		.text
  30              	.LHOTB1:
  31              		.align 2
  32              		.p2align 4,,15
  34              	_ZN12_GLOBAL__N_154TestCheckArray2DCloseDoesNotHaveSideEffectsWhenFailingD2Ev:
  35              	.LFB1457:
  36              		.cfi_startproc
  37 0000 48C70700 		movq	$_ZTVN12_GLOBAL__N_154TestCheckArray2DCloseDoesNotHaveSideEffectsWhenFailingE+16, (%rdi)
  37      000000
  38 0007 E9000000 		jmp	_ZN8UnitTest4TestD2Ev
  38      00
  39              		.cfi_endproc
  40              	.LFE1457:
  42              		.section	.text.unlikely
  43              	.LCOLDE1:
  44              		.text
  45              	.LHOTE1:
  46              		.set	_ZN12_GLOBAL__N_154TestCheckArray2DCloseDoesNotHaveSideEffectsWhenFailingD1Ev,_ZN12_GLOBAL__N
  47              		.section	.text.unlikely
  48              		.align 2
  49              	.LCOLDB2:
  50              		.text
  51              	.LHOTB2:
  52              		.align 2
  53 000c 0F1F4000 		.p2align 4,,15
  55              	_ZN12_GLOBAL__N_154TestCheckArray2DCloseDoesNotHaveSideEffectsWhenPassingD2Ev:
  56              	.LFB1461:
  57              		.cfi_startproc
  58 0010 48C70700 		movq	$_ZTVN12_GLOBAL__N_154TestCheckArray2DCloseDoesNotHaveSideEffectsWhenPassingE+16, (%rdi)
  58      000000
  59 0017 E9000000 		jmp	_ZN8UnitTest4TestD2Ev
  59      00
  60              		.cfi_endproc
  61              	.LFE1461:
  63              		.section	.text.unlikely
  64              	.LCOLDE2:
  65              		.text
  66              	.LHOTE2:
  67              		.set	_ZN12_GLOBAL__N_154TestCheckArray2DCloseDoesNotHaveSideEffectsWhenPassingD1Ev,_ZN12_GLOBAL__N
  68              		.section	.text.unlikely
  69              		.align 2
  70              	.LCOLDB3:
  71              		.text
  72              	.LHOTB3:
  73              		.align 2
  74 001c 0F1F4000 		.p2align 4,,15
  76              	_ZN12_GLOBAL__N_160TestCheckArray2DCloseFailureOnExceptionIncludesCheckContentsD2Ev:
  77              	.LFB1465:
  78              		.cfi_startproc
  79 0020 48C70700 		movq	$_ZTVN12_GLOBAL__N_160TestCheckArray2DCloseFailureOnExceptionIncludesCheckContentsE+16, (%rdi
  79      000000
  80 0027 E9000000 		jmp	_ZN8UnitTest4TestD2Ev
  80      00
  81              		.cfi_endproc
  82              	.LFE1465:
  84              		.section	.text.unlikely
  85              	.LCOLDE3:
  86              		.text
  87              	.LHOTE3:
  88              		.set	_ZN12_GLOBAL__N_160TestCheckArray2DCloseFailureOnExceptionIncludesCheckContentsD1Ev,_ZN12_GLO
  89              		.section	.text.unlikely
  90              		.align 2
  91              	.LCOLDB4:
  92              		.text
  93              	.LHOTB4:
  94              		.align 2
  95 002c 0F1F4000 		.p2align 4,,15
  97              	_ZN12_GLOBAL__N_137TestCheckArray2DCloseFailsOnExceptionD2Ev:
  98              	.LFB1469:
  99              		.cfi_startproc
 100 0030 48C70700 		movq	$_ZTVN12_GLOBAL__N_137TestCheckArray2DCloseFailsOnExceptionE+16, (%rdi)
 100      000000
 101 0037 E9000000 		jmp	_ZN8UnitTest4TestD2Ev
 101      00
 102              		.cfi_endproc
 103              	.LFE1469:
 105              		.section	.text.unlikely
 106              	.LCOLDE4:
 107              		.text
 108              	.LHOTE4:
 109              		.set	_ZN12_GLOBAL__N_137TestCheckArray2DCloseFailsOnExceptionD1Ev,_ZN12_GLOBAL__N_137TestCheckArra
 110              		.section	.text.unlikely
 111              		.align 2
 112              	.LCOLDB5:
 113              		.text
 114              	.LHOTB5:
 115              		.align 2
 116 003c 0F1F4000 		.p2align 4,,15
 118              	_ZN12_GLOBAL__N_145TestCheckArray2DCloseFailureIncludesToleranceD2Ev:
 119              	.LFB1473:
 120              		.cfi_startproc
 121 0040 48C70700 		movq	$_ZTVN12_GLOBAL__N_145TestCheckArray2DCloseFailureIncludesToleranceE+16, (%rdi)
 121      000000
 122 0047 E9000000 		jmp	_ZN8UnitTest4TestD2Ev
 122      00
 123              		.cfi_endproc
 124              	.LFE1473:
 126              		.section	.text.unlikely
 127              	.LCOLDE5:
 128              		.text
 129              	.LHOTE5:
 130              		.set	_ZN12_GLOBAL__N_145TestCheckArray2DCloseFailureIncludesToleranceD1Ev,_ZN12_GLOBAL__N_145TestC
 131              		.section	.text.unlikely
 132              		.align 2
 133              	.LCOLDB6:
 134              		.text
 135              	.LHOTB6:
 136              		.align 2
 137 004c 0F1F4000 		.p2align 4,,15
 139              	_ZN12_GLOBAL__N_168TestCheckArray2DCloseFailureBecauseOfExceptionContainsCorrectDetailsD2Ev:
 140              	.LFB1477:
 141              		.cfi_startproc
 142 0050 48C70700 		movq	$_ZTVN12_GLOBAL__N_168TestCheckArray2DCloseFailureBecauseOfExceptionContainsCorrectDetailsE+1
 142      000000
 143 0057 E9000000 		jmp	_ZN8UnitTest4TestD2Ev
 143      00
 144              		.cfi_endproc
 145              	.LFE1477:
 147              		.section	.text.unlikely
 148              	.LCOLDE6:
 149              		.text
 150              	.LHOTE6:
 151              		.set	_ZN12_GLOBAL__N_168TestCheckArray2DCloseFailureBecauseOfExceptionContainsCorrectDetailsD1Ev,_
 152              		.section	.text.unlikely
 153              		.align 2
 154              	.LCOLDB7:
 155              		.text
 156              	.LHOTB7:
 157              		.align 2
 158 005c 0F1F4000 		.p2align 4,,15
 160              	_ZN12_GLOBAL__N_150TestCheckArray2DCloseFailureContainsCorrectDetailsD2Ev:
 161              	.LFB1481:
 162              		.cfi_startproc
 163 0060 48C70700 		movq	$_ZTVN12_GLOBAL__N_150TestCheckArray2DCloseFailureContainsCorrectDetailsE+16, (%rdi)
 163      000000
 164 0067 E9000000 		jmp	_ZN8UnitTest4TestD2Ev
 164      00
 165              		.cfi_endproc
 166              	.LFE1481:
 168              		.section	.text.unlikely
 169              	.LCOLDE7:
 170              		.text
 171              	.LHOTE7:
 172              		.set	_ZN12_GLOBAL__N_150TestCheckArray2DCloseFailureContainsCorrectDetailsD1Ev,_ZN12_GLOBAL__N_150
 173              		.section	.text.unlikely
 174              		.align 2
 175              	.LCOLDB8:
 176              		.text
 177              	.LHOTB8:
 178              		.align 2
 179 006c 0F1F4000 		.p2align 4,,15
 181              	_ZN12_GLOBAL__N_158TestCheckArray2DCloseFailureIncludesCheckExpectedAndActualD2Ev:
 182              	.LFB1485:
 183              		.cfi_startproc
 184 0070 48C70700 		movq	$_ZTVN12_GLOBAL__N_158TestCheckArray2DCloseFailureIncludesCheckExpectedAndActualE+16, (%rdi)
 184      000000
 185 0077 E9000000 		jmp	_ZN8UnitTest4TestD2Ev
 185      00
 186              		.cfi_endproc
 187              	.LFE1485:
 189              		.section	.text.unlikely
 190              	.LCOLDE8:
 191              		.text
 192              	.LHOTE8:
 193              		.set	_ZN12_GLOBAL__N_158TestCheckArray2DCloseFailureIncludesCheckExpectedAndActualD1Ev,_ZN12_GLOBA
 194              		.section	.text.unlikely
 195              		.align 2
 196              	.LCOLDB9:
 197              		.text
 198              	.LHOTB9:
 199              		.align 2
 200 007c 0F1F4000 		.p2align 4,,15
 202              	_ZN12_GLOBAL__N_136TestCheckArray2DCloseFailsOnNotEqualD2Ev:
 203              	.LFB1489:
 204              		.cfi_startproc
 205 0080 48C70700 		movq	$_ZTVN12_GLOBAL__N_136TestCheckArray2DCloseFailsOnNotEqualE+16, (%rdi)
 205      000000
 206 0087 E9000000 		jmp	_ZN8UnitTest4TestD2Ev
 206      00
 207              		.cfi_endproc
 208              	.LFE1489:
 210              		.section	.text.unlikely
 211              	.LCOLDE9:
 212              		.text
 213              	.LHOTE9:
 214              		.set	_ZN12_GLOBAL__N_136TestCheckArray2DCloseFailsOnNotEqualD1Ev,_ZN12_GLOBAL__N_136TestCheckArray
 215              		.section	.text.unlikely
 216              		.align 2
 217              	.LCOLDB10:
 218              		.text
 219              	.LHOTB10:
 220              		.align 2
 221 008c 0F1F4000 		.p2align 4,,15
 223              	_ZN12_GLOBAL__N_136TestCheckArray2DCloseSucceedsOnEqualD2Ev:
 224              	.LFB1493:
 225              		.cfi_startproc
 226 0090 48C70700 		movq	$_ZTVN12_GLOBAL__N_136TestCheckArray2DCloseSucceedsOnEqualE+16, (%rdi)
 226      000000
 227 0097 E9000000 		jmp	_ZN8UnitTest4TestD2Ev
 227      00
 228              		.cfi_endproc
 229              	.LFE1493:
 231              		.section	.text.unlikely
 232              	.LCOLDE10:
 233              		.text
 234              	.LHOTE10:
 235              		.set	_ZN12_GLOBAL__N_136TestCheckArray2DCloseSucceedsOnEqualD1Ev,_ZN12_GLOBAL__N_136TestCheckArray
 236              		.section	.text.unlikely
 237              		.align 2
 238              	.LCOLDB11:
 239              		.text
 240              	.LHOTB11:
 241              		.align 2
 242 009c 0F1F4000 		.p2align 4,,15
 244              	_ZN12_GLOBAL__N_152TestCheckArrayCloseDoesNotHaveSideEffectsWhenFailingD2Ev:
 245              	.LFB1497:
 246              		.cfi_startproc
 247 00a0 48C70700 		movq	$_ZTVN12_GLOBAL__N_152TestCheckArrayCloseDoesNotHaveSideEffectsWhenFailingE+16, (%rdi)
 247      000000
 248 00a7 E9000000 		jmp	_ZN8UnitTest4TestD2Ev
 248      00
 249              		.cfi_endproc
 250              	.LFE1497:
 252              		.section	.text.unlikely
 253              	.LCOLDE11:
 254              		.text
 255              	.LHOTE11:
 256              		.set	_ZN12_GLOBAL__N_152TestCheckArrayCloseDoesNotHaveSideEffectsWhenFailingD1Ev,_ZN12_GLOBAL__N_1
 257              		.section	.text.unlikely
 258              		.align 2
 259              	.LCOLDB12:
 260              		.text
 261              	.LHOTB12:
 262              		.align 2
 263 00ac 0F1F4000 		.p2align 4,,15
 265              	_ZN12_GLOBAL__N_152TestCheckArrayCloseDoesNotHaveSideEffectsWhenPassingD2Ev:
 266              	.LFB1501:
 267              		.cfi_startproc
 268 00b0 48C70700 		movq	$_ZTVN12_GLOBAL__N_152TestCheckArrayCloseDoesNotHaveSideEffectsWhenPassingE+16, (%rdi)
 268      000000
 269 00b7 E9000000 		jmp	_ZN8UnitTest4TestD2Ev
 269      00
 270              		.cfi_endproc
 271              	.LFE1501:
 273              		.section	.text.unlikely
 274              	.LCOLDE12:
 275              		.text
 276              	.LHOTE12:
 277              		.set	_ZN12_GLOBAL__N_152TestCheckArrayCloseDoesNotHaveSideEffectsWhenPassingD1Ev,_ZN12_GLOBAL__N_1
 278              		.section	.text.unlikely
 279              		.align 2
 280              	.LCOLDB13:
 281              		.text
 282              	.LHOTB13:
 283              		.align 2
 284 00bc 0F1F4000 		.p2align 4,,15
 286              	_ZN12_GLOBAL__N_158TestCheckArrayEqualFailureOnExceptionIncludesCheckContentsD2Ev:
 287              	.LFB1505:
 288              		.cfi_startproc
 289 00c0 48C70700 		movq	$_ZTVN12_GLOBAL__N_158TestCheckArrayEqualFailureOnExceptionIncludesCheckContentsE+16, (%rdi)
 289      000000
 290 00c7 E9000000 		jmp	_ZN8UnitTest4TestD2Ev
 290      00
 291              		.cfi_endproc
 292              	.LFE1505:
 294              		.section	.text.unlikely
 295              	.LCOLDE13:
 296              		.text
 297              	.LHOTE13:
 298              		.set	_ZN12_GLOBAL__N_158TestCheckArrayEqualFailureOnExceptionIncludesCheckContentsD1Ev,_ZN12_GLOBA
 299              		.section	.text.unlikely
 300              		.align 2
 301              	.LCOLDB14:
 302              		.text
 303              	.LHOTB14:
 304              		.align 2
 305 00cc 0F1F4000 		.p2align 4,,15
 307              	_ZN12_GLOBAL__N_135TestCheckArrayEqualFailsOnExceptionD2Ev:
 308              	.LFB1509:
 309              		.cfi_startproc
 310 00d0 48C70700 		movq	$_ZTVN12_GLOBAL__N_135TestCheckArrayEqualFailsOnExceptionE+16, (%rdi)
 310      000000
 311 00d7 E9000000 		jmp	_ZN8UnitTest4TestD2Ev
 311      00
 312              		.cfi_endproc
 313              	.LFE1509:
 315              		.section	.text.unlikely
 316              	.LCOLDE14:
 317              		.text
 318              	.LHOTE14:
 319              		.set	_ZN12_GLOBAL__N_135TestCheckArrayEqualFailsOnExceptionD1Ev,_ZN12_GLOBAL__N_135TestCheckArrayE
 320              		.section	.text.unlikely
 321              		.align 2
 322              	.LCOLDB15:
 323              		.text
 324              	.LHOTB15:
 325              		.align 2
 326 00dc 0F1F4000 		.p2align 4,,15
 328              	_ZN12_GLOBAL__N_145TestCheckArrayEqualFailureContainsCorrectInfoD2Ev:
 329              	.LFB1513:
 330              		.cfi_startproc
 331 00e0 48C70700 		movq	$_ZTVN12_GLOBAL__N_145TestCheckArrayEqualFailureContainsCorrectInfoE+16, (%rdi)
 331      000000
 332 00e7 E9000000 		jmp	_ZN8UnitTest4TestD2Ev
 332      00
 333              		.cfi_endproc
 334              	.LFE1513:
 336              		.section	.text.unlikely
 337              	.LCOLDE15:
 338              		.text
 339              	.LHOTE15:
 340              		.set	_ZN12_GLOBAL__N_145TestCheckArrayEqualFailureContainsCorrectInfoD1Ev,_ZN12_GLOBAL__N_145TestC
 341              		.section	.text.unlikely
 342              		.align 2
 343              	.LCOLDB16:
 344              		.text
 345              	.LHOTB16:
 346              		.align 2
 347 00ec 0F1F4000 		.p2align 4,,15
 349              	_ZN12_GLOBAL__N_156TestCheckArrayEqualFailureIncludesCheckExpectedAndActualD2Ev:
 350              	.LFB1517:
 351              		.cfi_startproc
 352 00f0 48C70700 		movq	$_ZTVN12_GLOBAL__N_156TestCheckArrayEqualFailureIncludesCheckExpectedAndActualE+16, (%rdi)
 352      000000
 353 00f7 E9000000 		jmp	_ZN8UnitTest4TestD2Ev
 353      00
 354              		.cfi_endproc
 355              	.LFE1517:
 357              		.section	.text.unlikely
 358              	.LCOLDE16:
 359              		.text
 360              	.LHOTE16:
 361              		.set	_ZN12_GLOBAL__N_156TestCheckArrayEqualFailureIncludesCheckExpectedAndActualD1Ev,_ZN12_GLOBAL_
 362              		.section	.text.unlikely
 363              		.align 2
 364              	.LCOLDB17:
 365              		.text
 366              	.LHOTB17:
 367              		.align 2
 368 00fc 0F1F4000 		.p2align 4,,15
 370              	_ZN12_GLOBAL__N_134TestCheckArrayEqualFailsOnNotEqualD2Ev:
 371              	.LFB1521:
 372              		.cfi_startproc
 373 0100 48C70700 		movq	$_ZTVN12_GLOBAL__N_134TestCheckArrayEqualFailsOnNotEqualE+16, (%rdi)
 373      000000
 374 0107 E9000000 		jmp	_ZN8UnitTest4TestD2Ev
 374      00
 375              		.cfi_endproc
 376              	.LFE1521:
 378              		.section	.text.unlikely
 379              	.LCOLDE17:
 380              		.text
 381              	.LHOTE17:
 382              		.set	_ZN12_GLOBAL__N_134TestCheckArrayEqualFailsOnNotEqualD1Ev,_ZN12_GLOBAL__N_134TestCheckArrayEq
 383              		.section	.text.unlikely
 384              		.align 2
 385              	.LCOLDB18:
 386              		.text
 387              	.LHOTB18:
 388              		.align 2
 389 010c 0F1F4000 		.p2align 4,,15
 391              	_ZN12_GLOBAL__N_133TestCheckArrayEqualSuceedsOnEqualD2Ev:
 392              	.LFB1525:
 393              		.cfi_startproc
 394 0110 48C70700 		movq	$_ZTVN12_GLOBAL__N_133TestCheckArrayEqualSuceedsOnEqualE+16, (%rdi)
 394      000000
 395 0117 E9000000 		jmp	_ZN8UnitTest4TestD2Ev
 395      00
 396              		.cfi_endproc
 397              	.LFE1525:
 399              		.section	.text.unlikely
 400              	.LCOLDE18:
 401              		.text
 402              	.LHOTE18:
 403              		.set	_ZN12_GLOBAL__N_133TestCheckArrayEqualSuceedsOnEqualD1Ev,_ZN12_GLOBAL__N_133TestCheckArrayEqu
 404              		.section	.text.unlikely
 405              		.align 2
 406              	.LCOLDB19:
 407              		.text
 408              	.LHOTB19:
 409              		.align 2
 410 011c 0F1F4000 		.p2align 4,,15
 412              	_ZN12_GLOBAL__N_158TestCheckArrayCloseFailureOnExceptionIncludesCheckContentsD2Ev:
 413              	.LFB1529:
 414              		.cfi_startproc
 415 0120 48C70700 		movq	$_ZTVN12_GLOBAL__N_158TestCheckArrayCloseFailureOnExceptionIncludesCheckContentsE+16, (%rdi)
 415      000000
 416 0127 E9000000 		jmp	_ZN8UnitTest4TestD2Ev
 416      00
 417              		.cfi_endproc
 418              	.LFE1529:
 420              		.section	.text.unlikely
 421              	.LCOLDE19:
 422              		.text
 423              	.LHOTE19:
 424              		.set	_ZN12_GLOBAL__N_158TestCheckArrayCloseFailureOnExceptionIncludesCheckContentsD1Ev,_ZN12_GLOBA
 425              		.section	.text.unlikely
 426              		.align 2
 427              	.LCOLDB20:
 428              		.text
 429              	.LHOTB20:
 430              		.align 2
 431 012c 0F1F4000 		.p2align 4,,15
 433              	_ZN12_GLOBAL__N_135TestCheckArrayCloseFailsOnExceptionD2Ev:
 434              	.LFB1533:
 435              		.cfi_startproc
 436 0130 48C70700 		movq	$_ZTVN12_GLOBAL__N_135TestCheckArrayCloseFailsOnExceptionE+16, (%rdi)
 436      000000
 437 0137 E9000000 		jmp	_ZN8UnitTest4TestD2Ev
 437      00
 438              		.cfi_endproc
 439              	.LFE1533:
 441              		.section	.text.unlikely
 442              	.LCOLDE20:
 443              		.text
 444              	.LHOTE20:
 445              		.set	_ZN12_GLOBAL__N_135TestCheckArrayCloseFailsOnExceptionD1Ev,_ZN12_GLOBAL__N_135TestCheckArrayC
 446              		.section	.text.unlikely
 447              		.align 2
 448              	.LCOLDB21:
 449              		.text
 450              	.LHOTB21:
 451              		.align 2
 452 013c 0F1F4000 		.p2align 4,,15
 454              	_ZN12_GLOBAL__N_143TestCheckArrayCloseFailureIncludesToleranceD2Ev:
 455              	.LFB1537:
 456              		.cfi_startproc
 457 0140 48C70700 		movq	$_ZTVN12_GLOBAL__N_143TestCheckArrayCloseFailureIncludesToleranceE+16, (%rdi)
 457      000000
 458 0147 E9000000 		jmp	_ZN8UnitTest4TestD2Ev
 458      00
 459              		.cfi_endproc
 460              	.LFE1537:
 462              		.section	.text.unlikely
 463              	.LCOLDE21:
 464              		.text
 465              	.LHOTE21:
 466              		.set	_ZN12_GLOBAL__N_143TestCheckArrayCloseFailureIncludesToleranceD1Ev,_ZN12_GLOBAL__N_143TestChe
 467              		.section	.text.unlikely
 468              		.align 2
 469              	.LCOLDB22:
 470              		.text
 471              	.LHOTB22:
 472              		.align 2
 473 014c 0F1F4000 		.p2align 4,,15
 475              	_ZN12_GLOBAL__N_166TestCheckArrayCloseFailureBecauseOfExceptionContainsCorrectDetailsD2Ev:
 476              	.LFB1541:
 477              		.cfi_startproc
 478 0150 48C70700 		movq	$_ZTVN12_GLOBAL__N_166TestCheckArrayCloseFailureBecauseOfExceptionContainsCorrectDetailsE+16,
 478      000000
 479 0157 E9000000 		jmp	_ZN8UnitTest4TestD2Ev
 479      00
 480              		.cfi_endproc
 481              	.LFE1541:
 483              		.section	.text.unlikely
 484              	.LCOLDE22:
 485              		.text
 486              	.LHOTE22:
 487              		.set	_ZN12_GLOBAL__N_166TestCheckArrayCloseFailureBecauseOfExceptionContainsCorrectDetailsD1Ev,_ZN
 488              		.section	.text.unlikely
 489              		.align 2
 490              	.LCOLDB23:
 491              		.text
 492              	.LHOTB23:
 493              		.align 2
 494 015c 0F1F4000 		.p2align 4,,15
 496              	_ZN12_GLOBAL__N_148TestCheckArrayCloseFailureContainsCorrectDetailsD2Ev:
 497              	.LFB1545:
 498              		.cfi_startproc
 499 0160 48C70700 		movq	$_ZTVN12_GLOBAL__N_148TestCheckArrayCloseFailureContainsCorrectDetailsE+16, (%rdi)
 499      000000
 500 0167 E9000000 		jmp	_ZN8UnitTest4TestD2Ev
 500      00
 501              		.cfi_endproc
 502              	.LFE1545:
 504              		.section	.text.unlikely
 505              	.LCOLDE23:
 506              		.text
 507              	.LHOTE23:
 508              		.set	_ZN12_GLOBAL__N_148TestCheckArrayCloseFailureContainsCorrectDetailsD1Ev,_ZN12_GLOBAL__N_148Te
 509              		.section	.text.unlikely
 510              		.align 2
 511              	.LCOLDB24:
 512              		.text
 513              	.LHOTB24:
 514              		.align 2
 515 016c 0F1F4000 		.p2align 4,,15
 517              	_ZN12_GLOBAL__N_156TestCheckArrayCloseFailureIncludesCheckExpectedAndActualD2Ev:
 518              	.LFB1549:
 519              		.cfi_startproc
 520 0170 48C70700 		movq	$_ZTVN12_GLOBAL__N_156TestCheckArrayCloseFailureIncludesCheckExpectedAndActualE+16, (%rdi)
 520      000000
 521 0177 E9000000 		jmp	_ZN8UnitTest4TestD2Ev
 521      00
 522              		.cfi_endproc
 523              	.LFE1549:
 525              		.section	.text.unlikely
 526              	.LCOLDE24:
 527              		.text
 528              	.LHOTE24:
 529              		.set	_ZN12_GLOBAL__N_156TestCheckArrayCloseFailureIncludesCheckExpectedAndActualD1Ev,_ZN12_GLOBAL_
 530              		.section	.text.unlikely
 531              		.align 2
 532              	.LCOLDB25:
 533              		.text
 534              	.LHOTB25:
 535              		.align 2
 536 017c 0F1F4000 		.p2align 4,,15
 538              	_ZN12_GLOBAL__N_134TestCheckArrayCloseFailsOnNotEqualD2Ev:
 539              	.LFB1553:
 540              		.cfi_startproc
 541 0180 48C70700 		movq	$_ZTVN12_GLOBAL__N_134TestCheckArrayCloseFailsOnNotEqualE+16, (%rdi)
 541      000000
 542 0187 E9000000 		jmp	_ZN8UnitTest4TestD2Ev
 542      00
 543              		.cfi_endproc
 544              	.LFE1553:
 546              		.section	.text.unlikely
 547              	.LCOLDE25:
 548              		.text
 549              	.LHOTE25:
 550              		.set	_ZN12_GLOBAL__N_134TestCheckArrayCloseFailsOnNotEqualD1Ev,_ZN12_GLOBAL__N_134TestCheckArrayCl
 551              		.section	.text.unlikely
 552              		.align 2
 553              	.LCOLDB26:
 554              		.text
 555              	.LHOTB26:
 556              		.align 2
 557 018c 0F1F4000 		.p2align 4,,15
 559              	_ZN12_GLOBAL__N_134TestCheckArrayCloseSucceedsOnEqualD2Ev:
 560              	.LFB1557:
 561              		.cfi_startproc
 562 0190 48C70700 		movq	$_ZTVN12_GLOBAL__N_134TestCheckArrayCloseSucceedsOnEqualE+16, (%rdi)
 562      000000
 563 0197 E9000000 		jmp	_ZN8UnitTest4TestD2Ev
 563      00
 564              		.cfi_endproc
 565              	.LFE1557:
 567              		.section	.text.unlikely
 568              	.LCOLDE26:
 569              		.text
 570              	.LHOTE26:
 571              		.set	_ZN12_GLOBAL__N_134TestCheckArrayCloseSucceedsOnEqualD1Ev,_ZN12_GLOBAL__N_134TestCheckArrayCl
 572              		.section	.text.unlikely
 573              		.align 2
 574              	.LCOLDB27:
 575              		.text
 576              	.LHOTB27:
 577              		.align 2
 578 019c 0F1F4000 		.p2align 4,,15
 580              	_ZN12_GLOBAL__N_147TestCheckCloseDoesNotHaveSideEffectsWhenFailingD2Ev:
 581              	.LFB1561:
 582              		.cfi_startproc
 583 01a0 48C70700 		movq	$_ZTVN12_GLOBAL__N_147TestCheckCloseDoesNotHaveSideEffectsWhenFailingE+16, (%rdi)
 583      000000
 584 01a7 E9000000 		jmp	_ZN8UnitTest4TestD2Ev
 584      00
 585              		.cfi_endproc
 586              	.LFE1561:
 588              		.section	.text.unlikely
 589              	.LCOLDE27:
 590              		.text
 591              	.LHOTE27:
 592              		.set	_ZN12_GLOBAL__N_147TestCheckCloseDoesNotHaveSideEffectsWhenFailingD1Ev,_ZN12_GLOBAL__N_147Tes
 593              		.section	.text.unlikely
 594              		.align 2
 595              	.LCOLDB28:
 596              		.text
 597              	.LHOTB28:
 598              		.align 2
 599 01ac 0F1F4000 		.p2align 4,,15
 601              	_ZN12_GLOBAL__N_147TestCheckCloseDoesNotHaveSideEffectsWhenPassingD2Ev:
 602              	.LFB1565:
 603              		.cfi_startproc
 604 01b0 48C70700 		movq	$_ZTVN12_GLOBAL__N_147TestCheckCloseDoesNotHaveSideEffectsWhenPassingE+16, (%rdi)
 604      000000
 605 01b7 E9000000 		jmp	_ZN8UnitTest4TestD2Ev
 605      00
 606              		.cfi_endproc
 607              	.LFE1565:
 609              		.section	.text.unlikely
 610              	.LCOLDE28:
 611              		.text
 612              	.LHOTE28:
 613              		.set	_ZN12_GLOBAL__N_147TestCheckCloseDoesNotHaveSideEffectsWhenPassingD1Ev,_ZN12_GLOBAL__N_147Tes
 614              		.section	.text.unlikely
 615              		.align 2
 616              	.LCOLDB29:
 617              		.text
 618              	.LHOTB29:
 619              		.align 2
 620 01bc 0F1F4000 		.p2align 4,,15
 622              	_ZN12_GLOBAL__N_160TestCheckCloseFailureBecauseOfExceptionIncludesCheckContentsD2Ev:
 623              	.LFB1569:
 624              		.cfi_startproc
 625 01c0 48C70700 		movq	$_ZTVN12_GLOBAL__N_160TestCheckCloseFailureBecauseOfExceptionIncludesCheckContentsE+16, (%rdi
 625      000000
 626 01c7 E9000000 		jmp	_ZN8UnitTest4TestD2Ev
 626      00
 627              		.cfi_endproc
 628              	.LFE1569:
 630              		.section	.text.unlikely
 631              	.LCOLDE29:
 632              		.text
 633              	.LHOTE29:
 634              		.set	_ZN12_GLOBAL__N_160TestCheckCloseFailureBecauseOfExceptionIncludesCheckContentsD1Ev,_ZN12_GLO
 635              		.section	.text.unlikely
 636              		.align 2
 637              	.LCOLDB30:
 638              		.text
 639              	.LHOTB30:
 640              		.align 2
 641 01cc 0F1F4000 		.p2align 4,,15
 643              	_ZN12_GLOBAL__N_161TestCheckCloseFailureBecauseOfExceptionContainsCorrectDetailsD2Ev:
 644              	.LFB1573:
 645              		.cfi_startproc
 646 01d0 48C70700 		movq	$_ZTVN12_GLOBAL__N_161TestCheckCloseFailureBecauseOfExceptionContainsCorrectDetailsE+16, (%rd
 646      000000
 647 01d7 E9000000 		jmp	_ZN8UnitTest4TestD2Ev
 647      00
 648              		.cfi_endproc
 649              	.LFE1573:
 651              		.section	.text.unlikely
 652              	.LCOLDE30:
 653              		.text
 654              	.LHOTE30:
 655              		.set	_ZN12_GLOBAL__N_161TestCheckCloseFailureBecauseOfExceptionContainsCorrectDetailsD1Ev,_ZN12_GL
 656              		.section	.text.unlikely
 657              		.align 2
 658              	.LCOLDB31:
 659              		.text
 660              	.LHOTB31:
 661              		.align 2
 662 01dc 0F1F4000 		.p2align 4,,15
 664              	_ZN12_GLOBAL__N_143TestCheckCloseFailureContainsCorrectDetailsD2Ev:
 665              	.LFB1577:
 666              		.cfi_startproc
 667 01e0 48C70700 		movq	$_ZTVN12_GLOBAL__N_143TestCheckCloseFailureContainsCorrectDetailsE+16, (%rdi)
 667      000000
 668 01e7 E9000000 		jmp	_ZN8UnitTest4TestD2Ev
 668      00
 669              		.cfi_endproc
 670              	.LFE1577:
 672              		.section	.text.unlikely
 673              	.LCOLDE31:
 674              		.text
 675              	.LHOTE31:
 676              		.set	_ZN12_GLOBAL__N_143TestCheckCloseFailureContainsCorrectDetailsD1Ev,_ZN12_GLOBAL__N_143TestChe
 677              		.section	.text.unlikely
 678              		.align 2
 679              	.LCOLDB32:
 680              		.text
 681              	.LHOTB32:
 682              		.align 2
 683 01ec 0F1F4000 		.p2align 4,,15
 685              	_ZN12_GLOBAL__N_130TestCheckCloseFailsOnExceptionD2Ev:
 686              	.LFB1581:
 687              		.cfi_startproc
 688 01f0 48C70700 		movq	$_ZTVN12_GLOBAL__N_130TestCheckCloseFailsOnExceptionE+16, (%rdi)
 688      000000
 689 01f7 E9000000 		jmp	_ZN8UnitTest4TestD2Ev
 689      00
 690              		.cfi_endproc
 691              	.LFE1581:
 693              		.section	.text.unlikely
 694              	.LCOLDE32:
 695              		.text
 696              	.LHOTE32:
 697              		.set	_ZN12_GLOBAL__N_130TestCheckCloseFailsOnExceptionD1Ev,_ZN12_GLOBAL__N_130TestCheckCloseFailsO
 698              		.section	.text.unlikely
 699              		.align 2
 700              	.LCOLDB33:
 701              		.text
 702              	.LHOTB33:
 703              		.align 2
 704 01fc 0F1F4000 		.p2align 4,,15
 706              	_ZN12_GLOBAL__N_129TestCheckCloseFailsOnNotEqualD2Ev:
 707              	.LFB1585:
 708              		.cfi_startproc
 709 0200 48C70700 		movq	$_ZTVN12_GLOBAL__N_129TestCheckCloseFailsOnNotEqualE+16, (%rdi)
 709      000000
 710 0207 E9000000 		jmp	_ZN8UnitTest4TestD2Ev
 710      00
 711              		.cfi_endproc
 712              	.LFE1585:
 714              		.section	.text.unlikely
 715              	.LCOLDE33:
 716              		.text
 717              	.LHOTE33:
 718              		.set	_ZN12_GLOBAL__N_129TestCheckCloseFailsOnNotEqualD1Ev,_ZN12_GLOBAL__N_129TestCheckCloseFailsOn
 719              		.section	.text.unlikely
 720              		.align 2
 721              	.LCOLDB34:
 722              		.text
 723              	.LHOTB34:
 724              		.align 2
 725 020c 0F1F4000 		.p2align 4,,15
 727              	_ZN12_GLOBAL__N_129TestCheckCloseSucceedsOnEqualD2Ev:
 728              	.LFB1589:
 729              		.cfi_startproc
 730 0210 48C70700 		movq	$_ZTVN12_GLOBAL__N_129TestCheckCloseSucceedsOnEqualE+16, (%rdi)
 730      000000
 731 0217 E9000000 		jmp	_ZN8UnitTest4TestD2Ev
 731      00
 732              		.cfi_endproc
 733              	.LFE1589:
 735              		.section	.text.unlikely
 736              	.LCOLDE34:
 737              		.text
 738              	.LHOTE34:
 739              		.set	_ZN12_GLOBAL__N_129TestCheckCloseSucceedsOnEqualD1Ev,_ZN12_GLOBAL__N_129TestCheckCloseSucceed
 740              		.section	.text.unlikely
 741              		.align 2
 742              	.LCOLDB35:
 743              		.text
 744              	.LHOTB35:
 745              		.align 2
 746 021c 0F1F4000 		.p2align 4,,15
 748              	_ZN12_GLOBAL__N_147TestCheckEqualDoesNotHaveSideEffectsWhenFailingD2Ev:
 749              	.LFB1593:
 750              		.cfi_startproc
 751 0220 48C70700 		movq	$_ZTVN12_GLOBAL__N_147TestCheckEqualDoesNotHaveSideEffectsWhenFailingE+16, (%rdi)
 751      000000
 752 0227 E9000000 		jmp	_ZN8UnitTest4TestD2Ev
 752      00
 753              		.cfi_endproc
 754              	.LFE1593:
 756              		.section	.text.unlikely
 757              	.LCOLDE35:
 758              		.text
 759              	.LHOTE35:
 760              		.set	_ZN12_GLOBAL__N_147TestCheckEqualDoesNotHaveSideEffectsWhenFailingD1Ev,_ZN12_GLOBAL__N_147Tes
 761              		.section	.text.unlikely
 762              		.align 2
 763              	.LCOLDB36:
 764              		.text
 765              	.LHOTB36:
 766              		.align 2
 767 022c 0F1F4000 		.p2align 4,,15
 769              	_ZN12_GLOBAL__N_147TestCheckEqualDoesNotHaveSideEffectsWhenPassingD2Ev:
 770              	.LFB1597:
 771              		.cfi_startproc
 772 0230 48C70700 		movq	$_ZTVN12_GLOBAL__N_147TestCheckEqualDoesNotHaveSideEffectsWhenPassingE+16, (%rdi)
 772      000000
 773 0237 E9000000 		jmp	_ZN8UnitTest4TestD2Ev
 773      00
 774              		.cfi_endproc
 775              	.LFE1597:
 777              		.section	.text.unlikely
 778              	.LCOLDE36:
 779              		.text
 780              	.LHOTE36:
 781              		.set	_ZN12_GLOBAL__N_147TestCheckEqualDoesNotHaveSideEffectsWhenPassingD1Ev,_ZN12_GLOBAL__N_147Tes
 782              		.section	.text.unlikely
 783              		.align 2
 784              	.LCOLDB37:
 785              		.text
 786              	.LHOTB37:
 787              		.align 2
 788 023c 0F1F4000 		.p2align 4,,15
 790              	_ZN12_GLOBAL__N_160TestCheckEqualFailureBecauseOfExceptionIncludesCheckContentsD2Ev:
 791              	.LFB1601:
 792              		.cfi_startproc
 793 0240 48C70700 		movq	$_ZTVN12_GLOBAL__N_160TestCheckEqualFailureBecauseOfExceptionIncludesCheckContentsE+16, (%rdi
 793      000000
 794 0247 E9000000 		jmp	_ZN8UnitTest4TestD2Ev
 794      00
 795              		.cfi_endproc
 796              	.LFE1601:
 798              		.section	.text.unlikely
 799              	.LCOLDE37:
 800              		.text
 801              	.LHOTE37:
 802              		.set	_ZN12_GLOBAL__N_160TestCheckEqualFailureBecauseOfExceptionIncludesCheckContentsD1Ev,_ZN12_GLO
 803              		.section	.text.unlikely
 804              		.align 2
 805              	.LCOLDB38:
 806              		.text
 807              	.LHOTB38:
 808              		.align 2
 809 024c 0F1F4000 		.p2align 4,,15
 811              	_ZN12_GLOBAL__N_161TestCheckEqualFailureBecauseOfExceptionContainsCorrectDetailsD2Ev:
 812              	.LFB1605:
 813              		.cfi_startproc
 814 0250 48C70700 		movq	$_ZTVN12_GLOBAL__N_161TestCheckEqualFailureBecauseOfExceptionContainsCorrectDetailsE+16, (%rd
 814      000000
 815 0257 E9000000 		jmp	_ZN8UnitTest4TestD2Ev
 815      00
 816              		.cfi_endproc
 817              	.LFE1605:
 819              		.section	.text.unlikely
 820              	.LCOLDE38:
 821              		.text
 822              	.LHOTE38:
 823              		.set	_ZN12_GLOBAL__N_161TestCheckEqualFailureBecauseOfExceptionContainsCorrectDetailsD1Ev,_ZN12_GL
 824              		.section	.text.unlikely
 825              		.align 2
 826              	.LCOLDB39:
 827              		.text
 828              	.LHOTB39:
 829              		.align 2
 830 025c 0F1F4000 		.p2align 4,,15
 832              	_ZN12_GLOBAL__N_143TestCheckEqualFailureContainsCorrectDetailsD2Ev:
 833              	.LFB1609:
 834              		.cfi_startproc
 835 0260 48C70700 		movq	$_ZTVN12_GLOBAL__N_143TestCheckEqualFailureContainsCorrectDetailsE+16, (%rdi)
 835      000000
 836 0267 E9000000 		jmp	_ZN8UnitTest4TestD2Ev
 836      00
 837              		.cfi_endproc
 838              	.LFE1609:
 840              		.section	.text.unlikely
 841              	.LCOLDE39:
 842              		.text
 843              	.LHOTE39:
 844              		.set	_ZN12_GLOBAL__N_143TestCheckEqualFailureContainsCorrectDetailsD1Ev,_ZN12_GLOBAL__N_143TestChe
 845              		.section	.text.unlikely
 846              		.align 2
 847              	.LCOLDB40:
 848              		.text
 849              	.LHOTB40:
 850              		.align 2
 851 026c 0F1F4000 		.p2align 4,,15
 853              	_ZN12_GLOBAL__N_130TestCheckEqualFailsOnExceptionD2Ev:
 854              	.LFB1613:
 855              		.cfi_startproc
 856 0270 48C70700 		movq	$_ZTVN12_GLOBAL__N_130TestCheckEqualFailsOnExceptionE+16, (%rdi)
 856      000000
 857 0277 E9000000 		jmp	_ZN8UnitTest4TestD2Ev
 857      00
 858              		.cfi_endproc
 859              	.LFE1613:
 861              		.section	.text.unlikely
 862              	.LCOLDE40:
 863              		.text
 864              	.LHOTE40:
 865              		.set	_ZN12_GLOBAL__N_130TestCheckEqualFailsOnExceptionD1Ev,_ZN12_GLOBAL__N_130TestCheckEqualFailsO
 866              		.section	.text.unlikely
 867              		.align 2
 868              	.LCOLDB41:
 869              		.text
 870              	.LHOTB41:
 871              		.align 2
 872 027c 0F1F4000 		.p2align 4,,15
 874              	_ZN12_GLOBAL__N_129TestCheckEqualFailsOnNotEqualD2Ev:
 875              	.LFB1617:
 876              		.cfi_startproc
 877 0280 48C70700 		movq	$_ZTVN12_GLOBAL__N_129TestCheckEqualFailsOnNotEqualE+16, (%rdi)
 877      000000
 878 0287 E9000000 		jmp	_ZN8UnitTest4TestD2Ev
 878      00
 879              		.cfi_endproc
 880              	.LFE1617:
 882              		.section	.text.unlikely
 883              	.LCOLDE41:
 884              		.text
 885              	.LHOTE41:
 886              		.set	_ZN12_GLOBAL__N_129TestCheckEqualFailsOnNotEqualD1Ev,_ZN12_GLOBAL__N_129TestCheckEqualFailsOn
 887              		.section	.text.unlikely
 888              		.align 2
 889              	.LCOLDB42:
 890              		.text
 891              	.LHOTB42:
 892              		.align 2
 893 028c 0F1F4000 		.p2align 4,,15
 895              	_ZN12_GLOBAL__N_129TestCheckEqualSucceedsOnEqualD2Ev:
 896              	.LFB1621:
 897              		.cfi_startproc
 898 0290 48C70700 		movq	$_ZTVN12_GLOBAL__N_129TestCheckEqualSucceedsOnEqualE+16, (%rdi)
 898      000000
 899 0297 E9000000 		jmp	_ZN8UnitTest4TestD2Ev
 899      00
 900              		.cfi_endproc
 901              	.LFE1621:
 903              		.section	.text.unlikely
 904              	.LCOLDE42:
 905              		.text
 906              	.LHOTE42:
 907              		.set	_ZN12_GLOBAL__N_129TestCheckEqualSucceedsOnEqualD1Ev,_ZN12_GLOBAL__N_129TestCheckEqualSucceed
 908              		.section	.text.unlikely
 909              		.align 2
 910              	.LCOLDB43:
 911              		.text
 912              	.LHOTB43:
 913              		.align 2
 914 029c 0F1F4000 		.p2align 4,,15
 916              	_ZN12_GLOBAL__N_155TestCheckFailureBecauseOfExceptionIncludesCheckContentsD2Ev:
 917              	.LFB1625:
 918              		.cfi_startproc
 919 02a0 48C70700 		movq	$_ZTVN12_GLOBAL__N_155TestCheckFailureBecauseOfExceptionIncludesCheckContentsE+16, (%rdi)
 919      000000
 920 02a7 E9000000 		jmp	_ZN8UnitTest4TestD2Ev
 920      00
 921              		.cfi_endproc
 922              	.LFE1625:
 924              		.section	.text.unlikely
 925              	.LCOLDE43:
 926              		.text
 927              	.LHOTE43:
 928              		.set	_ZN12_GLOBAL__N_155TestCheckFailureBecauseOfExceptionIncludesCheckContentsD1Ev,_ZN12_GLOBAL__
 929              		.section	.text.unlikely
 930              		.align 2
 931              	.LCOLDB44:
 932              		.text
 933              	.LHOTB44:
 934              		.align 2
 935 02ac 0F1F4000 		.p2align 4,,15
 937              	_ZN12_GLOBAL__N_125TestCheckFailsOnExceptionD2Ev:
 938              	.LFB1629:
 939              		.cfi_startproc
 940 02b0 48C70700 		movq	$_ZTVN12_GLOBAL__N_125TestCheckFailsOnExceptionE+16, (%rdi)
 940      000000
 941 02b7 E9000000 		jmp	_ZN8UnitTest4TestD2Ev
 941      00
 942              		.cfi_endproc
 943              	.LFE1629:
 945              		.section	.text.unlikely
 946              	.LCOLDE44:
 947              		.text
 948              	.LHOTE44:
 949              		.set	_ZN12_GLOBAL__N_125TestCheckFailsOnExceptionD1Ev,_ZN12_GLOBAL__N_125TestCheckFailsOnException
 950              		.section	.text.unlikely
 951              		.align 2
 952              	.LCOLDB45:
 953              		.text
 954              	.LHOTB45:
 955              		.align 2
 956 02bc 0F1F4000 		.p2align 4,,15
 958              	_ZN12_GLOBAL__N_137TestCheckFailureIncludesCheckContentsD2Ev:
 959              	.LFB1633:
 960              		.cfi_startproc
 961 02c0 48C70700 		movq	$_ZTVN12_GLOBAL__N_137TestCheckFailureIncludesCheckContentsE+16, (%rdi)
 961      000000
 962 02c7 E9000000 		jmp	_ZN8UnitTest4TestD2Ev
 962      00
 963              		.cfi_endproc
 964              	.LFE1633:
 966              		.section	.text.unlikely
 967              	.LCOLDE45:
 968              		.text
 969              	.LHOTE45:
 970              		.set	_ZN12_GLOBAL__N_137TestCheckFailureIncludesCheckContentsD1Ev,_ZN12_GLOBAL__N_137TestCheckFail
 971              		.section	.text.unlikely
 972              		.align 2
 973              	.LCOLDB46:
 974              		.text
 975              	.LHOTB46:
 976              		.align 2
 977 02cc 0F1F4000 		.p2align 4,,15
 979              	_ZN12_GLOBAL__N_133TestFailureReportsCorrectTestNameD2Ev:
 980              	.LFB1637:
 981              		.cfi_startproc
 982 02d0 48C70700 		movq	$_ZTVN12_GLOBAL__N_133TestFailureReportsCorrectTestNameE+16, (%rdi)
 982      000000
 983 02d7 E9000000 		jmp	_ZN8UnitTest4TestD2Ev
 983      00
 984              		.cfi_endproc
 985              	.LFE1637:
 987              		.section	.text.unlikely
 988              	.LCOLDE46:
 989              		.text
 990              	.LHOTE46:
 991              		.set	_ZN12_GLOBAL__N_133TestFailureReportsCorrectTestNameD1Ev,_ZN12_GLOBAL__N_133TestFailureReport
 992              		.section	.text.unlikely
 993              		.align 2
 994              	.LCOLDB47:
 995              		.text
 996              	.LHOTB47:
 997              		.align 2
 998 02dc 0F1F4000 		.p2align 4,,15
 1000              	_ZN12_GLOBAL__N_121TestCheckFailsOnFalseD2Ev:
 1001              	.LFB1641:
 1002              		.cfi_startproc
 1003 02e0 48C70700 		movq	$_ZTVN12_GLOBAL__N_121TestCheckFailsOnFalseE+16, (%rdi)
 1003      000000
 1004 02e7 E9000000 		jmp	_ZN8UnitTest4TestD2Ev
 1004      00
 1005              		.cfi_endproc
 1006              	.LFE1641:
 1008              		.section	.text.unlikely
 1009              	.LCOLDE47:
 1010              		.text
 1011              	.LHOTE47:
 1012              		.set	_ZN12_GLOBAL__N_121TestCheckFailsOnFalseD1Ev,_ZN12_GLOBAL__N_121TestCheckFailsOnFalseD2Ev
 1013              		.section	.text.unlikely
 1014              		.align 2
 1015              	.LCOLDB48:
 1016              		.text
 1017              	.LHOTB48:
 1018              		.align 2
 1019 02ec 0F1F4000 		.p2align 4,,15
 1021              	_ZN12_GLOBAL__N_123TestCheckSucceedsOnTrueD2Ev:
 1022              	.LFB1645:
 1023              		.cfi_startproc
 1024 02f0 48C70700 		movq	$_ZTVN12_GLOBAL__N_123TestCheckSucceedsOnTrueE+16, (%rdi)
 1024      000000
 1025 02f7 E9000000 		jmp	_ZN8UnitTest4TestD2Ev
 1025      00
 1026              		.cfi_endproc
 1027              	.LFE1645:
 1029              		.section	.text.unlikely
 1030              	.LCOLDE48:
 1031              		.text
 1032              	.LHOTE48:
 1033              		.set	_ZN12_GLOBAL__N_123TestCheckSucceedsOnTrueD1Ev,_ZN12_GLOBAL__N_123TestCheckSucceedsOnTrueD2Ev
 1034              		.section	.text.unlikely
 1035              		.align 2
 1036              	.LCOLDB49:
 1037              		.text
 1038              	.LHOTB49:
 1039              		.align 2
 1040 02fc 0F1F4000 		.p2align 4,,15
 1042              	_ZN12_GLOBAL__N_154TestCheckArray2DCloseDoesNotHaveSideEffectsWhenFailingD0Ev:
 1043              	.LFB1459:
 1044              		.cfi_startproc
 1045 0300 53       		pushq	%rbx
 1046              		.cfi_def_cfa_offset 16
 1047              		.cfi_offset 3, -16
 1048 0301 4889FB   		movq	%rdi, %rbx
 1049 0304 48C70700 		movq	$_ZTVN12_GLOBAL__N_154TestCheckArray2DCloseDoesNotHaveSideEffectsWhenFailingE+16, (%rdi)
 1049      000000
 1050 030b E8000000 		call	_ZN8UnitTest4TestD2Ev
 1050      00
 1051 0310 4889DF   		movq	%rbx, %rdi
 1052 0313 5B       		popq	%rbx
 1053              		.cfi_def_cfa_offset 8
 1054 0314 E9000000 		jmp	_ZdlPv
 1054      00
 1055              		.cfi_endproc
 1056              	.LFE1459:
 1058              		.section	.text.unlikely
 1059              	.LCOLDE49:
 1060              		.text
 1061              	.LHOTE49:
 1062              		.section	.text.unlikely
 1063              		.align 2
 1064              	.LCOLDB50:
 1065              		.text
 1066              	.LHOTB50:
 1067 0319 90       		.align 2
 1068 031a 660F1F44 		.p2align 4,,15
 1068      0000
 1070              	_ZN12_GLOBAL__N_154TestCheckArray2DCloseDoesNotHaveSideEffectsWhenPassingD0Ev:
 1071              	.LFB1463:
 1072              		.cfi_startproc
 1073 0320 53       		pushq	%rbx
 1074              		.cfi_def_cfa_offset 16
 1075              		.cfi_offset 3, -16
 1076 0321 4889FB   		movq	%rdi, %rbx
 1077 0324 48C70700 		movq	$_ZTVN12_GLOBAL__N_154TestCheckArray2DCloseDoesNotHaveSideEffectsWhenPassingE+16, (%rdi)
 1077      000000
 1078 032b E8000000 		call	_ZN8UnitTest4TestD2Ev
 1078      00
 1079 0330 4889DF   		movq	%rbx, %rdi
 1080 0333 5B       		popq	%rbx
 1081              		.cfi_def_cfa_offset 8
 1082 0334 E9000000 		jmp	_ZdlPv
 1082      00
 1083              		.cfi_endproc
 1084              	.LFE1463:
 1086              		.section	.text.unlikely
 1087              	.LCOLDE50:
 1088              		.text
 1089              	.LHOTE50:
 1090              		.section	.text.unlikely
 1091              		.align 2
 1092              	.LCOLDB51:
 1093              		.text
 1094              	.LHOTB51:
 1095 0339 90       		.align 2
 1096 033a 660F1F44 		.p2align 4,,15
 1096      0000
 1098              	_ZN12_GLOBAL__N_160TestCheckArray2DCloseFailureOnExceptionIncludesCheckContentsD0Ev:
 1099              	.LFB1467:
 1100              		.cfi_startproc
 1101 0340 53       		pushq	%rbx
 1102              		.cfi_def_cfa_offset 16
 1103              		.cfi_offset 3, -16
 1104 0341 4889FB   		movq	%rdi, %rbx
 1105 0344 48C70700 		movq	$_ZTVN12_GLOBAL__N_160TestCheckArray2DCloseFailureOnExceptionIncludesCheckContentsE+16, (%rdi
 1105      000000
 1106 034b E8000000 		call	_ZN8UnitTest4TestD2Ev
 1106      00
 1107 0350 4889DF   		movq	%rbx, %rdi
 1108 0353 5B       		popq	%rbx
 1109              		.cfi_def_cfa_offset 8
 1110 0354 E9000000 		jmp	_ZdlPv
 1110      00
 1111              		.cfi_endproc
 1112              	.LFE1467:
 1114              		.section	.text.unlikely
 1115              	.LCOLDE51:
 1116              		.text
 1117              	.LHOTE51:
 1118              		.section	.text.unlikely
 1119              		.align 2
 1120              	.LCOLDB52:
 1121              		.text
 1122              	.LHOTB52:
 1123 0359 90       		.align 2
 1124 035a 660F1F44 		.p2align 4,,15
 1124      0000
 1126              	_ZN12_GLOBAL__N_137TestCheckArray2DCloseFailsOnExceptionD0Ev:
 1127              	.LFB1471:
 1128              		.cfi_startproc
 1129 0360 53       		pushq	%rbx
 1130              		.cfi_def_cfa_offset 16
 1131              		.cfi_offset 3, -16
 1132 0361 4889FB   		movq	%rdi, %rbx
 1133 0364 48C70700 		movq	$_ZTVN12_GLOBAL__N_137TestCheckArray2DCloseFailsOnExceptionE+16, (%rdi)
 1133      000000
 1134 036b E8000000 		call	_ZN8UnitTest4TestD2Ev
 1134      00
 1135 0370 4889DF   		movq	%rbx, %rdi
 1136 0373 5B       		popq	%rbx
 1137              		.cfi_def_cfa_offset 8
 1138 0374 E9000000 		jmp	_ZdlPv
 1138      00
 1139              		.cfi_endproc
 1140              	.LFE1471:
 1142              		.section	.text.unlikely
 1143              	.LCOLDE52:
 1144              		.text
 1145              	.LHOTE52:
 1146              		.section	.text.unlikely
 1147              		.align 2
 1148              	.LCOLDB53:
 1149              		.text
 1150              	.LHOTB53:
 1151 0379 90       		.align 2
 1152 037a 660F1F44 		.p2align 4,,15
 1152      0000
 1154              	_ZN12_GLOBAL__N_145TestCheckArray2DCloseFailureIncludesToleranceD0Ev:
 1155              	.LFB1475:
 1156              		.cfi_startproc
 1157 0380 53       		pushq	%rbx
 1158              		.cfi_def_cfa_offset 16
 1159              		.cfi_offset 3, -16
 1160 0381 4889FB   		movq	%rdi, %rbx
 1161 0384 48C70700 		movq	$_ZTVN12_GLOBAL__N_145TestCheckArray2DCloseFailureIncludesToleranceE+16, (%rdi)
 1161      000000
 1162 038b E8000000 		call	_ZN8UnitTest4TestD2Ev
 1162      00
 1163 0390 4889DF   		movq	%rbx, %rdi
 1164 0393 5B       		popq	%rbx
 1165              		.cfi_def_cfa_offset 8
 1166 0394 E9000000 		jmp	_ZdlPv
 1166      00
 1167              		.cfi_endproc
 1168              	.LFE1475:
 1170              		.section	.text.unlikely
 1171              	.LCOLDE53:
 1172              		.text
 1173              	.LHOTE53:
 1174              		.section	.text.unlikely
 1175              		.align 2
 1176              	.LCOLDB54:
 1177              		.text
 1178              	.LHOTB54:
 1179 0399 90       		.align 2
 1180 039a 660F1F44 		.p2align 4,,15
 1180      0000
 1182              	_ZN12_GLOBAL__N_168TestCheckArray2DCloseFailureBecauseOfExceptionContainsCorrectDetailsD0Ev:
 1183              	.LFB1479:
 1184              		.cfi_startproc
 1185 03a0 53       		pushq	%rbx
 1186              		.cfi_def_cfa_offset 16
 1187              		.cfi_offset 3, -16
 1188 03a1 4889FB   		movq	%rdi, %rbx
 1189 03a4 48C70700 		movq	$_ZTVN12_GLOBAL__N_168TestCheckArray2DCloseFailureBecauseOfExceptionContainsCorrectDetailsE+1
 1189      000000
 1190 03ab E8000000 		call	_ZN8UnitTest4TestD2Ev
 1190      00
 1191 03b0 4889DF   		movq	%rbx, %rdi
 1192 03b3 5B       		popq	%rbx
 1193              		.cfi_def_cfa_offset 8
 1194 03b4 E9000000 		jmp	_ZdlPv
 1194      00
 1195              		.cfi_endproc
 1196              	.LFE1479:
 1198              		.section	.text.unlikely
 1199              	.LCOLDE54:
 1200              		.text
 1201              	.LHOTE54:
 1202              		.section	.text.unlikely
 1203              		.align 2
 1204              	.LCOLDB55:
 1205              		.text
 1206              	.LHOTB55:
 1207 03b9 90       		.align 2
 1208 03ba 660F1F44 		.p2align 4,,15
 1208      0000
 1210              	_ZN12_GLOBAL__N_150TestCheckArray2DCloseFailureContainsCorrectDetailsD0Ev:
 1211              	.LFB1483:
 1212              		.cfi_startproc
 1213 03c0 53       		pushq	%rbx
 1214              		.cfi_def_cfa_offset 16
 1215              		.cfi_offset 3, -16
 1216 03c1 4889FB   		movq	%rdi, %rbx
 1217 03c4 48C70700 		movq	$_ZTVN12_GLOBAL__N_150TestCheckArray2DCloseFailureContainsCorrectDetailsE+16, (%rdi)
 1217      000000
 1218 03cb E8000000 		call	_ZN8UnitTest4TestD2Ev
 1218      00
 1219 03d0 4889DF   		movq	%rbx, %rdi
 1220 03d3 5B       		popq	%rbx
 1221              		.cfi_def_cfa_offset 8
 1222 03d4 E9000000 		jmp	_ZdlPv
 1222      00
 1223              		.cfi_endproc
 1224              	.LFE1483:
 1226              		.section	.text.unlikely
 1227              	.LCOLDE55:
 1228              		.text
 1229              	.LHOTE55:
 1230              		.section	.text.unlikely
 1231              		.align 2
 1232              	.LCOLDB56:
 1233              		.text
 1234              	.LHOTB56:
 1235 03d9 90       		.align 2
 1236 03da 660F1F44 		.p2align 4,,15
 1236      0000
 1238              	_ZN12_GLOBAL__N_158TestCheckArray2DCloseFailureIncludesCheckExpectedAndActualD0Ev:
 1239              	.LFB1487:
 1240              		.cfi_startproc
 1241 03e0 53       		pushq	%rbx
 1242              		.cfi_def_cfa_offset 16
 1243              		.cfi_offset 3, -16
 1244 03e1 4889FB   		movq	%rdi, %rbx
 1245 03e4 48C70700 		movq	$_ZTVN12_GLOBAL__N_158TestCheckArray2DCloseFailureIncludesCheckExpectedAndActualE+16, (%rdi)
 1245      000000
 1246 03eb E8000000 		call	_ZN8UnitTest4TestD2Ev
 1246      00
 1247 03f0 4889DF   		movq	%rbx, %rdi
 1248 03f3 5B       		popq	%rbx
 1249              		.cfi_def_cfa_offset 8
 1250 03f4 E9000000 		jmp	_ZdlPv
 1250      00
 1251              		.cfi_endproc
 1252              	.LFE1487:
 1254              		.section	.text.unlikely
 1255              	.LCOLDE56:
 1256              		.text
 1257              	.LHOTE56:
 1258              		.section	.text.unlikely
 1259              		.align 2
 1260              	.LCOLDB57:
 1261              		.text
 1262              	.LHOTB57:
 1263 03f9 90       		.align 2
 1264 03fa 660F1F44 		.p2align 4,,15
 1264      0000
 1266              	_ZN12_GLOBAL__N_136TestCheckArray2DCloseFailsOnNotEqualD0Ev:
 1267              	.LFB1491:
 1268              		.cfi_startproc
 1269 0400 53       		pushq	%rbx
 1270              		.cfi_def_cfa_offset 16
 1271              		.cfi_offset 3, -16
 1272 0401 4889FB   		movq	%rdi, %rbx
 1273 0404 48C70700 		movq	$_ZTVN12_GLOBAL__N_136TestCheckArray2DCloseFailsOnNotEqualE+16, (%rdi)
 1273      000000
 1274 040b E8000000 		call	_ZN8UnitTest4TestD2Ev
 1274      00
 1275 0410 4889DF   		movq	%rbx, %rdi
 1276 0413 5B       		popq	%rbx
 1277              		.cfi_def_cfa_offset 8
 1278 0414 E9000000 		jmp	_ZdlPv
 1278      00
 1279              		.cfi_endproc
 1280              	.LFE1491:
 1282              		.section	.text.unlikely
 1283              	.LCOLDE57:
 1284              		.text
 1285              	.LHOTE57:
 1286              		.section	.text.unlikely
 1287              		.align 2
 1288              	.LCOLDB58:
 1289              		.text
 1290              	.LHOTB58:
 1291 0419 90       		.align 2
 1292 041a 660F1F44 		.p2align 4,,15
 1292      0000
 1294              	_ZN12_GLOBAL__N_136TestCheckArray2DCloseSucceedsOnEqualD0Ev:
 1295              	.LFB1495:
 1296              		.cfi_startproc
 1297 0420 53       		pushq	%rbx
 1298              		.cfi_def_cfa_offset 16
 1299              		.cfi_offset 3, -16
 1300 0421 4889FB   		movq	%rdi, %rbx
 1301 0424 48C70700 		movq	$_ZTVN12_GLOBAL__N_136TestCheckArray2DCloseSucceedsOnEqualE+16, (%rdi)
 1301      000000
 1302 042b E8000000 		call	_ZN8UnitTest4TestD2Ev
 1302      00
 1303 0430 4889DF   		movq	%rbx, %rdi
 1304 0433 5B       		popq	%rbx
 1305              		.cfi_def_cfa_offset 8
 1306 0434 E9000000 		jmp	_ZdlPv
 1306      00
 1307              		.cfi_endproc
 1308              	.LFE1495:
 1310              		.section	.text.unlikely
 1311              	.LCOLDE58:
 1312              		.text
 1313              	.LHOTE58:
 1314              		.section	.text.unlikely
 1315              		.align 2
 1316              	.LCOLDB59:
 1317              		.text
 1318              	.LHOTB59:
 1319 0439 90       		.align 2
 1320 043a 660F1F44 		.p2align 4,,15
 1320      0000
 1322              	_ZN12_GLOBAL__N_152TestCheckArrayCloseDoesNotHaveSideEffectsWhenFailingD0Ev:
 1323              	.LFB1499:
 1324              		.cfi_startproc
 1325 0440 53       		pushq	%rbx
 1326              		.cfi_def_cfa_offset 16
 1327              		.cfi_offset 3, -16
 1328 0441 4889FB   		movq	%rdi, %rbx
 1329 0444 48C70700 		movq	$_ZTVN12_GLOBAL__N_152TestCheckArrayCloseDoesNotHaveSideEffectsWhenFailingE+16, (%rdi)
 1329      000000
 1330 044b E8000000 		call	_ZN8UnitTest4TestD2Ev
 1330      00
 1331 0450 4889DF   		movq	%rbx, %rdi
 1332 0453 5B       		popq	%rbx
 1333              		.cfi_def_cfa_offset 8
 1334 0454 E9000000 		jmp	_ZdlPv
 1334      00
 1335              		.cfi_endproc
 1336              	.LFE1499:
 1338              		.section	.text.unlikely
 1339              	.LCOLDE59:
 1340              		.text
 1341              	.LHOTE59:
 1342              		.section	.text.unlikely
 1343              		.align 2
 1344              	.LCOLDB60:
 1345              		.text
 1346              	.LHOTB60:
 1347 0459 90       		.align 2
 1348 045a 660F1F44 		.p2align 4,,15
 1348      0000
 1350              	_ZN12_GLOBAL__N_152TestCheckArrayCloseDoesNotHaveSideEffectsWhenPassingD0Ev:
 1351              	.LFB1503:
 1352              		.cfi_startproc
 1353 0460 53       		pushq	%rbx
 1354              		.cfi_def_cfa_offset 16
 1355              		.cfi_offset 3, -16
 1356 0461 4889FB   		movq	%rdi, %rbx
 1357 0464 48C70700 		movq	$_ZTVN12_GLOBAL__N_152TestCheckArrayCloseDoesNotHaveSideEffectsWhenPassingE+16, (%rdi)
 1357      000000
 1358 046b E8000000 		call	_ZN8UnitTest4TestD2Ev
 1358      00
 1359 0470 4889DF   		movq	%rbx, %rdi
 1360 0473 5B       		popq	%rbx
 1361              		.cfi_def_cfa_offset 8
 1362 0474 E9000000 		jmp	_ZdlPv
 1362      00
 1363              		.cfi_endproc
 1364              	.LFE1503:
 1366              		.section	.text.unlikely
 1367              	.LCOLDE60:
 1368              		.text
 1369              	.LHOTE60:
 1370              		.section	.text.unlikely
 1371              		.align 2
 1372              	.LCOLDB61:
 1373              		.text
 1374              	.LHOTB61:
 1375 0479 90       		.align 2
 1376 047a 660F1F44 		.p2align 4,,15
 1376      0000
 1378              	_ZN12_GLOBAL__N_158TestCheckArrayEqualFailureOnExceptionIncludesCheckContentsD0Ev:
 1379              	.LFB1507:
 1380              		.cfi_startproc
 1381 0480 53       		pushq	%rbx
 1382              		.cfi_def_cfa_offset 16
 1383              		.cfi_offset 3, -16
 1384 0481 4889FB   		movq	%rdi, %rbx
 1385 0484 48C70700 		movq	$_ZTVN12_GLOBAL__N_158TestCheckArrayEqualFailureOnExceptionIncludesCheckContentsE+16, (%rdi)
 1385      000000
 1386 048b E8000000 		call	_ZN8UnitTest4TestD2Ev
 1386      00
 1387 0490 4889DF   		movq	%rbx, %rdi
 1388 0493 5B       		popq	%rbx
 1389              		.cfi_def_cfa_offset 8
 1390 0494 E9000000 		jmp	_ZdlPv
 1390      00
 1391              		.cfi_endproc
 1392              	.LFE1507:
 1394              		.section	.text.unlikely
 1395              	.LCOLDE61:
 1396              		.text
 1397              	.LHOTE61:
 1398              		.section	.text.unlikely
 1399              		.align 2
 1400              	.LCOLDB62:
 1401              		.text
 1402              	.LHOTB62:
 1403 0499 90       		.align 2
 1404 049a 660F1F44 		.p2align 4,,15
 1404      0000
 1406              	_ZN12_GLOBAL__N_135TestCheckArrayEqualFailsOnExceptionD0Ev:
 1407              	.LFB1511:
 1408              		.cfi_startproc
 1409 04a0 53       		pushq	%rbx
 1410              		.cfi_def_cfa_offset 16
 1411              		.cfi_offset 3, -16
 1412 04a1 4889FB   		movq	%rdi, %rbx
 1413 04a4 48C70700 		movq	$_ZTVN12_GLOBAL__N_135TestCheckArrayEqualFailsOnExceptionE+16, (%rdi)
 1413      000000
 1414 04ab E8000000 		call	_ZN8UnitTest4TestD2Ev
 1414      00
 1415 04b0 4889DF   		movq	%rbx, %rdi
 1416 04b3 5B       		popq	%rbx
 1417              		.cfi_def_cfa_offset 8
 1418 04b4 E9000000 		jmp	_ZdlPv
 1418      00
 1419              		.cfi_endproc
 1420              	.LFE1511:
 1422              		.section	.text.unlikely
 1423              	.LCOLDE62:
 1424              		.text
 1425              	.LHOTE62:
 1426              		.section	.text.unlikely
 1427              		.align 2
 1428              	.LCOLDB63:
 1429              		.text
 1430              	.LHOTB63:
 1431 04b9 90       		.align 2
 1432 04ba 660F1F44 		.p2align 4,,15
 1432      0000
 1434              	_ZN12_GLOBAL__N_145TestCheckArrayEqualFailureContainsCorrectInfoD0Ev:
 1435              	.LFB1515:
 1436              		.cfi_startproc
 1437 04c0 53       		pushq	%rbx
 1438              		.cfi_def_cfa_offset 16
 1439              		.cfi_offset 3, -16
 1440 04c1 4889FB   		movq	%rdi, %rbx
 1441 04c4 48C70700 		movq	$_ZTVN12_GLOBAL__N_145TestCheckArrayEqualFailureContainsCorrectInfoE+16, (%rdi)
 1441      000000
 1442 04cb E8000000 		call	_ZN8UnitTest4TestD2Ev
 1442      00
 1443 04d0 4889DF   		movq	%rbx, %rdi
 1444 04d3 5B       		popq	%rbx
 1445              		.cfi_def_cfa_offset 8
 1446 04d4 E9000000 		jmp	_ZdlPv
 1446      00
 1447              		.cfi_endproc
 1448              	.LFE1515:
 1450              		.section	.text.unlikely
 1451              	.LCOLDE63:
 1452              		.text
 1453              	.LHOTE63:
 1454              		.section	.text.unlikely
 1455              		.align 2
 1456              	.LCOLDB64:
 1457              		.text
 1458              	.LHOTB64:
 1459 04d9 90       		.align 2
 1460 04da 660F1F44 		.p2align 4,,15
 1460      0000
 1462              	_ZN12_GLOBAL__N_156TestCheckArrayEqualFailureIncludesCheckExpectedAndActualD0Ev:
 1463              	.LFB1519:
 1464              		.cfi_startproc
 1465 04e0 53       		pushq	%rbx
 1466              		.cfi_def_cfa_offset 16
 1467              		.cfi_offset 3, -16
 1468 04e1 4889FB   		movq	%rdi, %rbx
 1469 04e4 48C70700 		movq	$_ZTVN12_GLOBAL__N_156TestCheckArrayEqualFailureIncludesCheckExpectedAndActualE+16, (%rdi)
 1469      000000
 1470 04eb E8000000 		call	_ZN8UnitTest4TestD2Ev
 1470      00
 1471 04f0 4889DF   		movq	%rbx, %rdi
 1472 04f3 5B       		popq	%rbx
 1473              		.cfi_def_cfa_offset 8
 1474 04f4 E9000000 		jmp	_ZdlPv
 1474      00
 1475              		.cfi_endproc
 1476              	.LFE1519:
 1478              		.section	.text.unlikely
 1479              	.LCOLDE64:
 1480              		.text
 1481              	.LHOTE64:
 1482              		.section	.text.unlikely
 1483              		.align 2
 1484              	.LCOLDB65:
 1485              		.text
 1486              	.LHOTB65:
 1487 04f9 90       		.align 2
 1488 04fa 660F1F44 		.p2align 4,,15
 1488      0000
 1490              	_ZN12_GLOBAL__N_134TestCheckArrayEqualFailsOnNotEqualD0Ev:
 1491              	.LFB1523:
 1492              		.cfi_startproc
 1493 0500 53       		pushq	%rbx
 1494              		.cfi_def_cfa_offset 16
 1495              		.cfi_offset 3, -16
 1496 0501 4889FB   		movq	%rdi, %rbx
 1497 0504 48C70700 		movq	$_ZTVN12_GLOBAL__N_134TestCheckArrayEqualFailsOnNotEqualE+16, (%rdi)
 1497      000000
 1498 050b E8000000 		call	_ZN8UnitTest4TestD2Ev
 1498      00
 1499 0510 4889DF   		movq	%rbx, %rdi
 1500 0513 5B       		popq	%rbx
 1501              		.cfi_def_cfa_offset 8
 1502 0514 E9000000 		jmp	_ZdlPv
 1502      00
 1503              		.cfi_endproc
 1504              	.LFE1523:
 1506              		.section	.text.unlikely
 1507              	.LCOLDE65:
 1508              		.text
 1509              	.LHOTE65:
 1510              		.section	.text.unlikely
 1511              		.align 2
 1512              	.LCOLDB66:
 1513              		.text
 1514              	.LHOTB66:
 1515 0519 90       		.align 2
 1516 051a 660F1F44 		.p2align 4,,15
 1516      0000
 1518              	_ZN12_GLOBAL__N_133TestCheckArrayEqualSuceedsOnEqualD0Ev:
 1519              	.LFB1527:
 1520              		.cfi_startproc
 1521 0520 53       		pushq	%rbx
 1522              		.cfi_def_cfa_offset 16
 1523              		.cfi_offset 3, -16
 1524 0521 4889FB   		movq	%rdi, %rbx
 1525 0524 48C70700 		movq	$_ZTVN12_GLOBAL__N_133TestCheckArrayEqualSuceedsOnEqualE+16, (%rdi)
 1525      000000
 1526 052b E8000000 		call	_ZN8UnitTest4TestD2Ev
 1526      00
 1527 0530 4889DF   		movq	%rbx, %rdi
 1528 0533 5B       		popq	%rbx
 1529              		.cfi_def_cfa_offset 8
 1530 0534 E9000000 		jmp	_ZdlPv
 1530      00
 1531              		.cfi_endproc
 1532              	.LFE1527:
 1534              		.section	.text.unlikely
 1535              	.LCOLDE66:
 1536              		.text
 1537              	.LHOTE66:
 1538              		.section	.text.unlikely
 1539              		.align 2
 1540              	.LCOLDB67:
 1541              		.text
 1542              	.LHOTB67:
 1543 0539 90       		.align 2
 1544 053a 660F1F44 		.p2align 4,,15
 1544      0000
 1546              	_ZN12_GLOBAL__N_158TestCheckArrayCloseFailureOnExceptionIncludesCheckContentsD0Ev:
 1547              	.LFB1531:
 1548              		.cfi_startproc
 1549 0540 53       		pushq	%rbx
 1550              		.cfi_def_cfa_offset 16
 1551              		.cfi_offset 3, -16
 1552 0541 4889FB   		movq	%rdi, %rbx
 1553 0544 48C70700 		movq	$_ZTVN12_GLOBAL__N_158TestCheckArrayCloseFailureOnExceptionIncludesCheckContentsE+16, (%rdi)
 1553      000000
 1554 054b E8000000 		call	_ZN8UnitTest4TestD2Ev
 1554      00
 1555 0550 4889DF   		movq	%rbx, %rdi
 1556 0553 5B       		popq	%rbx
 1557              		.cfi_def_cfa_offset 8
 1558 0554 E9000000 		jmp	_ZdlPv
 1558      00
 1559              		.cfi_endproc
 1560              	.LFE1531:
 1562              		.section	.text.unlikely
 1563              	.LCOLDE67:
 1564              		.text
 1565              	.LHOTE67:
 1566              		.section	.text.unlikely
 1567              		.align 2
 1568              	.LCOLDB68:
 1569              		.text
 1570              	.LHOTB68:
 1571 0559 90       		.align 2
 1572 055a 660F1F44 		.p2align 4,,15
 1572      0000
 1574              	_ZN12_GLOBAL__N_135TestCheckArrayCloseFailsOnExceptionD0Ev:
 1575              	.LFB1535:
 1576              		.cfi_startproc
 1577 0560 53       		pushq	%rbx
 1578              		.cfi_def_cfa_offset 16
 1579              		.cfi_offset 3, -16
 1580 0561 4889FB   		movq	%rdi, %rbx
 1581 0564 48C70700 		movq	$_ZTVN12_GLOBAL__N_135TestCheckArrayCloseFailsOnExceptionE+16, (%rdi)
 1581      000000
 1582 056b E8000000 		call	_ZN8UnitTest4TestD2Ev
 1582      00
 1583 0570 4889DF   		movq	%rbx, %rdi
 1584 0573 5B       		popq	%rbx
 1585              		.cfi_def_cfa_offset 8
 1586 0574 E9000000 		jmp	_ZdlPv
 1586      00
 1587              		.cfi_endproc
 1588              	.LFE1535:
 1590              		.section	.text.unlikely
 1591              	.LCOLDE68:
 1592              		.text
 1593              	.LHOTE68:
 1594              		.section	.text.unlikely
 1595              		.align 2
 1596              	.LCOLDB69:
 1597              		.text
 1598              	.LHOTB69:
 1599 0579 90       		.align 2
 1600 057a 660F1F44 		.p2align 4,,15
 1600      0000
 1602              	_ZN12_GLOBAL__N_143TestCheckArrayCloseFailureIncludesToleranceD0Ev:
 1603              	.LFB1539:
 1604              		.cfi_startproc
 1605 0580 53       		pushq	%rbx
 1606              		.cfi_def_cfa_offset 16
 1607              		.cfi_offset 3, -16
 1608 0581 4889FB   		movq	%rdi, %rbx
 1609 0584 48C70700 		movq	$_ZTVN12_GLOBAL__N_143TestCheckArrayCloseFailureIncludesToleranceE+16, (%rdi)
 1609      000000
 1610 058b E8000000 		call	_ZN8UnitTest4TestD2Ev
 1610      00
 1611 0590 4889DF   		movq	%rbx, %rdi
 1612 0593 5B       		popq	%rbx
 1613              		.cfi_def_cfa_offset 8
 1614 0594 E9000000 		jmp	_ZdlPv
 1614      00
 1615              		.cfi_endproc
 1616              	.LFE1539:
 1618              		.section	.text.unlikely
 1619              	.LCOLDE69:
 1620              		.text
 1621              	.LHOTE69:
 1622              		.section	.text.unlikely
 1623              		.align 2
 1624              	.LCOLDB70:
 1625              		.text
 1626              	.LHOTB70:
 1627 0599 90       		.align 2
 1628 059a 660F1F44 		.p2align 4,,15
 1628      0000
 1630              	_ZN12_GLOBAL__N_166TestCheckArrayCloseFailureBecauseOfExceptionContainsCorrectDetailsD0Ev:
 1631              	.LFB1543:
 1632              		.cfi_startproc
 1633 05a0 53       		pushq	%rbx
 1634              		.cfi_def_cfa_offset 16
 1635              		.cfi_offset 3, -16
 1636 05a1 4889FB   		movq	%rdi, %rbx
 1637 05a4 48C70700 		movq	$_ZTVN12_GLOBAL__N_166TestCheckArrayCloseFailureBecauseOfExceptionContainsCorrectDetailsE+16,
 1637      000000
 1638 05ab E8000000 		call	_ZN8UnitTest4TestD2Ev
 1638      00
 1639 05b0 4889DF   		movq	%rbx, %rdi
 1640 05b3 5B       		popq	%rbx
 1641              		.cfi_def_cfa_offset 8
 1642 05b4 E9000000 		jmp	_ZdlPv
 1642      00
 1643              		.cfi_endproc
 1644              	.LFE1543:
 1646              		.section	.text.unlikely
 1647              	.LCOLDE70:
 1648              		.text
 1649              	.LHOTE70:
 1650              		.section	.text.unlikely
 1651              		.align 2
 1652              	.LCOLDB71:
 1653              		.text
 1654              	.LHOTB71:
 1655 05b9 90       		.align 2
 1656 05ba 660F1F44 		.p2align 4,,15
 1656      0000
 1658              	_ZN12_GLOBAL__N_148TestCheckArrayCloseFailureContainsCorrectDetailsD0Ev:
 1659              	.LFB1547:
 1660              		.cfi_startproc
 1661 05c0 53       		pushq	%rbx
 1662              		.cfi_def_cfa_offset 16
 1663              		.cfi_offset 3, -16
 1664 05c1 4889FB   		movq	%rdi, %rbx
 1665 05c4 48C70700 		movq	$_ZTVN12_GLOBAL__N_148TestCheckArrayCloseFailureContainsCorrectDetailsE+16, (%rdi)
 1665      000000
 1666 05cb E8000000 		call	_ZN8UnitTest4TestD2Ev
 1666      00
 1667 05d0 4889DF   		movq	%rbx, %rdi
 1668 05d3 5B       		popq	%rbx
 1669              		.cfi_def_cfa_offset 8
 1670 05d4 E9000000 		jmp	_ZdlPv
 1670      00
 1671              		.cfi_endproc
 1672              	.LFE1547:
 1674              		.section	.text.unlikely
 1675              	.LCOLDE71:
 1676              		.text
 1677              	.LHOTE71:
 1678              		.section	.text.unlikely
 1679              		.align 2
 1680              	.LCOLDB72:
 1681              		.text
 1682              	.LHOTB72:
 1683 05d9 90       		.align 2
 1684 05da 660F1F44 		.p2align 4,,15
 1684      0000
 1686              	_ZN12_GLOBAL__N_156TestCheckArrayCloseFailureIncludesCheckExpectedAndActualD0Ev:
 1687              	.LFB1551:
 1688              		.cfi_startproc
 1689 05e0 53       		pushq	%rbx
 1690              		.cfi_def_cfa_offset 16
 1691              		.cfi_offset 3, -16
 1692 05e1 4889FB   		movq	%rdi, %rbx
 1693 05e4 48C70700 		movq	$_ZTVN12_GLOBAL__N_156TestCheckArrayCloseFailureIncludesCheckExpectedAndActualE+16, (%rdi)
 1693      000000
 1694 05eb E8000000 		call	_ZN8UnitTest4TestD2Ev
 1694      00
 1695 05f0 4889DF   		movq	%rbx, %rdi
 1696 05f3 5B       		popq	%rbx
 1697              		.cfi_def_cfa_offset 8
 1698 05f4 E9000000 		jmp	_ZdlPv
 1698      00
 1699              		.cfi_endproc
 1700              	.LFE1551:
 1702              		.section	.text.unlikely
 1703              	.LCOLDE72:
 1704              		.text
 1705              	.LHOTE72:
 1706              		.section	.text.unlikely
 1707              		.align 2
 1708              	.LCOLDB73:
 1709              		.text
 1710              	.LHOTB73:
 1711 05f9 90       		.align 2
 1712 05fa 660F1F44 		.p2align 4,,15
 1712      0000
 1714              	_ZN12_GLOBAL__N_134TestCheckArrayCloseFailsOnNotEqualD0Ev:
 1715              	.LFB1555:
 1716              		.cfi_startproc
 1717 0600 53       		pushq	%rbx
 1718              		.cfi_def_cfa_offset 16
 1719              		.cfi_offset 3, -16
 1720 0601 4889FB   		movq	%rdi, %rbx
 1721 0604 48C70700 		movq	$_ZTVN12_GLOBAL__N_134TestCheckArrayCloseFailsOnNotEqualE+16, (%rdi)
 1721      000000
 1722 060b E8000000 		call	_ZN8UnitTest4TestD2Ev
 1722      00
 1723 0610 4889DF   		movq	%rbx, %rdi
 1724 0613 5B       		popq	%rbx
 1725              		.cfi_def_cfa_offset 8
 1726 0614 E9000000 		jmp	_ZdlPv
 1726      00
 1727              		.cfi_endproc
 1728              	.LFE1555:
 1730              		.section	.text.unlikely
 1731              	.LCOLDE73:
 1732              		.text
 1733              	.LHOTE73:
 1734              		.section	.text.unlikely
 1735              		.align 2
 1736              	.LCOLDB74:
 1737              		.text
 1738              	.LHOTB74:
 1739 0619 90       		.align 2
 1740 061a 660F1F44 		.p2align 4,,15
 1740      0000
 1742              	_ZN12_GLOBAL__N_134TestCheckArrayCloseSucceedsOnEqualD0Ev:
 1743              	.LFB1559:
 1744              		.cfi_startproc
 1745 0620 53       		pushq	%rbx
 1746              		.cfi_def_cfa_offset 16
 1747              		.cfi_offset 3, -16
 1748 0621 4889FB   		movq	%rdi, %rbx
 1749 0624 48C70700 		movq	$_ZTVN12_GLOBAL__N_134TestCheckArrayCloseSucceedsOnEqualE+16, (%rdi)
 1749      000000
 1750 062b E8000000 		call	_ZN8UnitTest4TestD2Ev
 1750      00
 1751 0630 4889DF   		movq	%rbx, %rdi
 1752 0633 5B       		popq	%rbx
 1753              		.cfi_def_cfa_offset 8
 1754 0634 E9000000 		jmp	_ZdlPv
 1754      00
 1755              		.cfi_endproc
 1756              	.LFE1559:
 1758              		.section	.text.unlikely
 1759              	.LCOLDE74:
 1760              		.text
 1761              	.LHOTE74:
 1762              		.section	.text.unlikely
 1763              		.align 2
 1764              	.LCOLDB75:
 1765              		.text
 1766              	.LHOTB75:
 1767 0639 90       		.align 2
 1768 063a 660F1F44 		.p2align 4,,15
 1768      0000
 1770              	_ZN12_GLOBAL__N_147TestCheckCloseDoesNotHaveSideEffectsWhenFailingD0Ev:
 1771              	.LFB1563:
 1772              		.cfi_startproc
 1773 0640 53       		pushq	%rbx
 1774              		.cfi_def_cfa_offset 16
 1775              		.cfi_offset 3, -16
 1776 0641 4889FB   		movq	%rdi, %rbx
 1777 0644 48C70700 		movq	$_ZTVN12_GLOBAL__N_147TestCheckCloseDoesNotHaveSideEffectsWhenFailingE+16, (%rdi)
 1777      000000
 1778 064b E8000000 		call	_ZN8UnitTest4TestD2Ev
 1778      00
 1779 0650 4889DF   		movq	%rbx, %rdi
 1780 0653 5B       		popq	%rbx
 1781              		.cfi_def_cfa_offset 8
 1782 0654 E9000000 		jmp	_ZdlPv
 1782      00
 1783              		.cfi_endproc
 1784              	.LFE1563:
 1786              		.section	.text.unlikely
 1787              	.LCOLDE75:
 1788              		.text
 1789              	.LHOTE75:
 1790              		.section	.text.unlikely
 1791              		.align 2
 1792              	.LCOLDB76:
 1793              		.text
 1794              	.LHOTB76:
 1795 0659 90       		.align 2
 1796 065a 660F1F44 		.p2align 4,,15
 1796      0000
 1798              	_ZN12_GLOBAL__N_147TestCheckCloseDoesNotHaveSideEffectsWhenPassingD0Ev:
 1799              	.LFB1567:
 1800              		.cfi_startproc
 1801 0660 53       		pushq	%rbx
 1802              		.cfi_def_cfa_offset 16
 1803              		.cfi_offset 3, -16
 1804 0661 4889FB   		movq	%rdi, %rbx
 1805 0664 48C70700 		movq	$_ZTVN12_GLOBAL__N_147TestCheckCloseDoesNotHaveSideEffectsWhenPassingE+16, (%rdi)
 1805      000000
 1806 066b E8000000 		call	_ZN8UnitTest4TestD2Ev
 1806      00
 1807 0670 4889DF   		movq	%rbx, %rdi
 1808 0673 5B       		popq	%rbx
 1809              		.cfi_def_cfa_offset 8
 1810 0674 E9000000 		jmp	_ZdlPv
 1810      00
 1811              		.cfi_endproc
 1812              	.LFE1567:
 1814              		.section	.text.unlikely
 1815              	.LCOLDE76:
 1816              		.text
 1817              	.LHOTE76:
 1818              		.section	.text.unlikely
 1819              		.align 2
 1820              	.LCOLDB77:
 1821              		.text
 1822              	.LHOTB77:
 1823 0679 90       		.align 2
 1824 067a 660F1F44 		.p2align 4,,15
 1824      0000
 1826              	_ZN12_GLOBAL__N_160TestCheckCloseFailureBecauseOfExceptionIncludesCheckContentsD0Ev:
 1827              	.LFB1571:
 1828              		.cfi_startproc
 1829 0680 53       		pushq	%rbx
 1830              		.cfi_def_cfa_offset 16
 1831              		.cfi_offset 3, -16
 1832 0681 4889FB   		movq	%rdi, %rbx
 1833 0684 48C70700 		movq	$_ZTVN12_GLOBAL__N_160TestCheckCloseFailureBecauseOfExceptionIncludesCheckContentsE+16, (%rdi
 1833      000000
 1834 068b E8000000 		call	_ZN8UnitTest4TestD2Ev
 1834      00
 1835 0690 4889DF   		movq	%rbx, %rdi
 1836 0693 5B       		popq	%rbx
 1837              		.cfi_def_cfa_offset 8
 1838 0694 E9000000 		jmp	_ZdlPv
 1838      00
 1839              		.cfi_endproc
 1840              	.LFE1571:
 1842              		.section	.text.unlikely
 1843              	.LCOLDE77:
 1844              		.text
 1845              	.LHOTE77:
 1846              		.section	.text.unlikely
 1847              		.align 2
 1848              	.LCOLDB78:
 1849              		.text
 1850              	.LHOTB78:
 1851 0699 90       		.align 2
 1852 069a 660F1F44 		.p2align 4,,15
 1852      0000
 1854              	_ZN12_GLOBAL__N_161TestCheckCloseFailureBecauseOfExceptionContainsCorrectDetailsD0Ev:
 1855              	.LFB1575:
 1856              		.cfi_startproc
 1857 06a0 53       		pushq	%rbx
 1858              		.cfi_def_cfa_offset 16
 1859              		.cfi_offset 3, -16
 1860 06a1 4889FB   		movq	%rdi, %rbx
 1861 06a4 48C70700 		movq	$_ZTVN12_GLOBAL__N_161TestCheckCloseFailureBecauseOfExceptionContainsCorrectDetailsE+16, (%rd
 1861      000000
 1862 06ab E8000000 		call	_ZN8UnitTest4TestD2Ev
 1862      00
 1863 06b0 4889DF   		movq	%rbx, %rdi
 1864 06b3 5B       		popq	%rbx
 1865              		.cfi_def_cfa_offset 8
 1866 06b4 E9000000 		jmp	_ZdlPv
 1866      00
 1867              		.cfi_endproc
 1868              	.LFE1575:
 1870              		.section	.text.unlikely
 1871              	.LCOLDE78:
 1872              		.text
 1873              	.LHOTE78:
 1874              		.section	.text.unlikely
 1875              		.align 2
 1876              	.LCOLDB79:
 1877              		.text
 1878              	.LHOTB79:
 1879 06b9 90       		.align 2
 1880 06ba 660F1F44 		.p2align 4,,15
 1880      0000
 1882              	_ZN12_GLOBAL__N_143TestCheckCloseFailureContainsCorrectDetailsD0Ev:
 1883              	.LFB1579:
 1884              		.cfi_startproc
 1885 06c0 53       		pushq	%rbx
 1886              		.cfi_def_cfa_offset 16
 1887              		.cfi_offset 3, -16
 1888 06c1 4889FB   		movq	%rdi, %rbx
 1889 06c4 48C70700 		movq	$_ZTVN12_GLOBAL__N_143TestCheckCloseFailureContainsCorrectDetailsE+16, (%rdi)
 1889      000000
 1890 06cb E8000000 		call	_ZN8UnitTest4TestD2Ev
 1890      00
 1891 06d0 4889DF   		movq	%rbx, %rdi
 1892 06d3 5B       		popq	%rbx
 1893              		.cfi_def_cfa_offset 8
 1894 06d4 E9000000 		jmp	_ZdlPv
 1894      00
 1895              		.cfi_endproc
 1896              	.LFE1579:
 1898              		.section	.text.unlikely
 1899              	.LCOLDE79:
 1900              		.text
 1901              	.LHOTE79:
 1902              		.section	.text.unlikely
 1903              		.align 2
 1904              	.LCOLDB80:
 1905              		.text
 1906              	.LHOTB80:
 1907 06d9 90       		.align 2
 1908 06da 660F1F44 		.p2align 4,,15
 1908      0000
 1910              	_ZN12_GLOBAL__N_130TestCheckCloseFailsOnExceptionD0Ev:
 1911              	.LFB1583:
 1912              		.cfi_startproc
 1913 06e0 53       		pushq	%rbx
 1914              		.cfi_def_cfa_offset 16
 1915              		.cfi_offset 3, -16
 1916 06e1 4889FB   		movq	%rdi, %rbx
 1917 06e4 48C70700 		movq	$_ZTVN12_GLOBAL__N_130TestCheckCloseFailsOnExceptionE+16, (%rdi)
 1917      000000
 1918 06eb E8000000 		call	_ZN8UnitTest4TestD2Ev
 1918      00
 1919 06f0 4889DF   		movq	%rbx, %rdi
 1920 06f3 5B       		popq	%rbx
 1921              		.cfi_def_cfa_offset 8
 1922 06f4 E9000000 		jmp	_ZdlPv
 1922      00
 1923              		.cfi_endproc
 1924              	.LFE1583:
 1926              		.section	.text.unlikely
 1927              	.LCOLDE80:
 1928              		.text
 1929              	.LHOTE80:
 1930              		.section	.text.unlikely
 1931              		.align 2
 1932              	.LCOLDB81:
 1933              		.text
 1934              	.LHOTB81:
 1935 06f9 90       		.align 2
 1936 06fa 660F1F44 		.p2align 4,,15
 1936      0000
 1938              	_ZN12_GLOBAL__N_129TestCheckCloseFailsOnNotEqualD0Ev:
 1939              	.LFB1587:
 1940              		.cfi_startproc
 1941 0700 53       		pushq	%rbx
 1942              		.cfi_def_cfa_offset 16
 1943              		.cfi_offset 3, -16
 1944 0701 4889FB   		movq	%rdi, %rbx
 1945 0704 48C70700 		movq	$_ZTVN12_GLOBAL__N_129TestCheckCloseFailsOnNotEqualE+16, (%rdi)
 1945      000000
 1946 070b E8000000 		call	_ZN8UnitTest4TestD2Ev
 1946      00
 1947 0710 4889DF   		movq	%rbx, %rdi
 1948 0713 5B       		popq	%rbx
 1949              		.cfi_def_cfa_offset 8
 1950 0714 E9000000 		jmp	_ZdlPv
 1950      00
 1951              		.cfi_endproc
 1952              	.LFE1587:
 1954              		.section	.text.unlikely
 1955              	.LCOLDE81:
 1956              		.text
 1957              	.LHOTE81:
 1958              		.section	.text.unlikely
 1959              		.align 2
 1960              	.LCOLDB82:
 1961              		.text
 1962              	.LHOTB82:
 1963 0719 90       		.align 2
 1964 071a 660F1F44 		.p2align 4,,15
 1964      0000
 1966              	_ZN12_GLOBAL__N_129TestCheckCloseSucceedsOnEqualD0Ev:
 1967              	.LFB1591:
 1968              		.cfi_startproc
 1969 0720 53       		pushq	%rbx
 1970              		.cfi_def_cfa_offset 16
 1971              		.cfi_offset 3, -16
 1972 0721 4889FB   		movq	%rdi, %rbx
 1973 0724 48C70700 		movq	$_ZTVN12_GLOBAL__N_129TestCheckCloseSucceedsOnEqualE+16, (%rdi)
 1973      000000
 1974 072b E8000000 		call	_ZN8UnitTest4TestD2Ev
 1974      00
 1975 0730 4889DF   		movq	%rbx, %rdi
 1976 0733 5B       		popq	%rbx
 1977              		.cfi_def_cfa_offset 8
 1978 0734 E9000000 		jmp	_ZdlPv
 1978      00
 1979              		.cfi_endproc
 1980              	.LFE1591:
 1982              		.section	.text.unlikely
 1983              	.LCOLDE82:
 1984              		.text
 1985              	.LHOTE82:
 1986              		.section	.text.unlikely
 1987              		.align 2
 1988              	.LCOLDB83:
 1989              		.text
 1990              	.LHOTB83:
 1991 0739 90       		.align 2
 1992 073a 660F1F44 		.p2align 4,,15
 1992      0000
 1994              	_ZN12_GLOBAL__N_147TestCheckEqualDoesNotHaveSideEffectsWhenFailingD0Ev:
 1995              	.LFB1595:
 1996              		.cfi_startproc
 1997 0740 53       		pushq	%rbx
 1998              		.cfi_def_cfa_offset 16
 1999              		.cfi_offset 3, -16
 2000 0741 4889FB   		movq	%rdi, %rbx
 2001 0744 48C70700 		movq	$_ZTVN12_GLOBAL__N_147TestCheckEqualDoesNotHaveSideEffectsWhenFailingE+16, (%rdi)
 2001      000000
 2002 074b E8000000 		call	_ZN8UnitTest4TestD2Ev
 2002      00
 2003 0750 4889DF   		movq	%rbx, %rdi
 2004 0753 5B       		popq	%rbx
 2005              		.cfi_def_cfa_offset 8
 2006 0754 E9000000 		jmp	_ZdlPv
 2006      00
 2007              		.cfi_endproc
 2008              	.LFE1595:
 2010              		.section	.text.unlikely
 2011              	.LCOLDE83:
 2012              		.text
 2013              	.LHOTE83:
 2014              		.section	.text.unlikely
 2015              		.align 2
 2016              	.LCOLDB84:
 2017              		.text
 2018              	.LHOTB84:
 2019 0759 90       		.align 2
 2020 075a 660F1F44 		.p2align 4,,15
 2020      0000
 2022              	_ZN12_GLOBAL__N_147TestCheckEqualDoesNotHaveSideEffectsWhenPassingD0Ev:
 2023              	.LFB1599:
 2024              		.cfi_startproc
 2025 0760 53       		pushq	%rbx
 2026              		.cfi_def_cfa_offset 16
 2027              		.cfi_offset 3, -16
 2028 0761 4889FB   		movq	%rdi, %rbx
 2029 0764 48C70700 		movq	$_ZTVN12_GLOBAL__N_147TestCheckEqualDoesNotHaveSideEffectsWhenPassingE+16, (%rdi)
 2029      000000
 2030 076b E8000000 		call	_ZN8UnitTest4TestD2Ev
 2030      00
 2031 0770 4889DF   		movq	%rbx, %rdi
 2032 0773 5B       		popq	%rbx
 2033              		.cfi_def_cfa_offset 8
 2034 0774 E9000000 		jmp	_ZdlPv
 2034      00
 2035              		.cfi_endproc
 2036              	.LFE1599:
 2038              		.section	.text.unlikely
 2039              	.LCOLDE84:
 2040              		.text
 2041              	.LHOTE84:
 2042              		.section	.text.unlikely
 2043              		.align 2
 2044              	.LCOLDB85:
 2045              		.text
 2046              	.LHOTB85:
 2047 0779 90       		.align 2
 2048 077a 660F1F44 		.p2align 4,,15
 2048      0000
 2050              	_ZN12_GLOBAL__N_160TestCheckEqualFailureBecauseOfExceptionIncludesCheckContentsD0Ev:
 2051              	.LFB1603:
 2052              		.cfi_startproc
 2053 0780 53       		pushq	%rbx
 2054              		.cfi_def_cfa_offset 16
 2055              		.cfi_offset 3, -16
 2056 0781 4889FB   		movq	%rdi, %rbx
 2057 0784 48C70700 		movq	$_ZTVN12_GLOBAL__N_160TestCheckEqualFailureBecauseOfExceptionIncludesCheckContentsE+16, (%rdi
 2057      000000
 2058 078b E8000000 		call	_ZN8UnitTest4TestD2Ev
 2058      00
 2059 0790 4889DF   		movq	%rbx, %rdi
 2060 0793 5B       		popq	%rbx
 2061              		.cfi_def_cfa_offset 8
 2062 0794 E9000000 		jmp	_ZdlPv
 2062      00
 2063              		.cfi_endproc
 2064              	.LFE1603:
 2066              		.section	.text.unlikely
 2067              	.LCOLDE85:
 2068              		.text
 2069              	.LHOTE85:
 2070              		.section	.text.unlikely
 2071              		.align 2
 2072              	.LCOLDB86:
 2073              		.text
 2074              	.LHOTB86:
 2075 0799 90       		.align 2
 2076 079a 660F1F44 		.p2align 4,,15
 2076      0000
 2078              	_ZN12_GLOBAL__N_161TestCheckEqualFailureBecauseOfExceptionContainsCorrectDetailsD0Ev:
 2079              	.LFB1607:
 2080              		.cfi_startproc
 2081 07a0 53       		pushq	%rbx
 2082              		.cfi_def_cfa_offset 16
 2083              		.cfi_offset 3, -16
 2084 07a1 4889FB   		movq	%rdi, %rbx
 2085 07a4 48C70700 		movq	$_ZTVN12_GLOBAL__N_161TestCheckEqualFailureBecauseOfExceptionContainsCorrectDetailsE+16, (%rd
 2085      000000
 2086 07ab E8000000 		call	_ZN8UnitTest4TestD2Ev
 2086      00
 2087 07b0 4889DF   		movq	%rbx, %rdi
 2088 07b3 5B       		popq	%rbx
 2089              		.cfi_def_cfa_offset 8
 2090 07b4 E9000000 		jmp	_ZdlPv
 2090      00
 2091              		.cfi_endproc
 2092              	.LFE1607:
 2094              		.section	.text.unlikely
 2095              	.LCOLDE86:
 2096              		.text
 2097              	.LHOTE86:
 2098              		.section	.text.unlikely
 2099              		.align 2
 2100              	.LCOLDB87:
 2101              		.text
 2102              	.LHOTB87:
 2103 07b9 90       		.align 2
 2104 07ba 660F1F44 		.p2align 4,,15
 2104      0000
 2106              	_ZN12_GLOBAL__N_143TestCheckEqualFailureContainsCorrectDetailsD0Ev:
 2107              	.LFB1611:
 2108              		.cfi_startproc
 2109 07c0 53       		pushq	%rbx
 2110              		.cfi_def_cfa_offset 16
 2111              		.cfi_offset 3, -16
 2112 07c1 4889FB   		movq	%rdi, %rbx
 2113 07c4 48C70700 		movq	$_ZTVN12_GLOBAL__N_143TestCheckEqualFailureContainsCorrectDetailsE+16, (%rdi)
 2113      000000
 2114 07cb E8000000 		call	_ZN8UnitTest4TestD2Ev
 2114      00
 2115 07d0 4889DF   		movq	%rbx, %rdi
 2116 07d3 5B       		popq	%rbx
 2117              		.cfi_def_cfa_offset 8
 2118 07d4 E9000000 		jmp	_ZdlPv
 2118      00
 2119              		.cfi_endproc
 2120              	.LFE1611:
 2122              		.section	.text.unlikely
 2123              	.LCOLDE87:
 2124              		.text
 2125              	.LHOTE87:
 2126              		.section	.text.unlikely
 2127              		.align 2
 2128              	.LCOLDB88:
 2129              		.text
 2130              	.LHOTB88:
 2131 07d9 90       		.align 2
 2132 07da 660F1F44 		.p2align 4,,15
 2132      0000
 2134              	_ZN12_GLOBAL__N_130TestCheckEqualFailsOnExceptionD0Ev:
 2135              	.LFB1615:
 2136              		.cfi_startproc
 2137 07e0 53       		pushq	%rbx
 2138              		.cfi_def_cfa_offset 16
 2139              		.cfi_offset 3, -16
 2140 07e1 4889FB   		movq	%rdi, %rbx
 2141 07e4 48C70700 		movq	$_ZTVN12_GLOBAL__N_130TestCheckEqualFailsOnExceptionE+16, (%rdi)
 2141      000000
 2142 07eb E8000000 		call	_ZN8UnitTest4TestD2Ev
 2142      00
 2143 07f0 4889DF   		movq	%rbx, %rdi
 2144 07f3 5B       		popq	%rbx
 2145              		.cfi_def_cfa_offset 8
 2146 07f4 E9000000 		jmp	_ZdlPv
 2146      00
 2147              		.cfi_endproc
 2148              	.LFE1615:
 2150              		.section	.text.unlikely
 2151              	.LCOLDE88:
 2152              		.text
 2153              	.LHOTE88:
 2154              		.section	.text.unlikely
 2155              		.align 2
 2156              	.LCOLDB89:
 2157              		.text
 2158              	.LHOTB89:
 2159 07f9 90       		.align 2
 2160 07fa 660F1F44 		.p2align 4,,15
 2160      0000
 2162              	_ZN12_GLOBAL__N_129TestCheckEqualFailsOnNotEqualD0Ev:
 2163              	.LFB1619:
 2164              		.cfi_startproc
 2165 0800 53       		pushq	%rbx
 2166              		.cfi_def_cfa_offset 16
 2167              		.cfi_offset 3, -16
 2168 0801 4889FB   		movq	%rdi, %rbx
 2169 0804 48C70700 		movq	$_ZTVN12_GLOBAL__N_129TestCheckEqualFailsOnNotEqualE+16, (%rdi)
 2169      000000
 2170 080b E8000000 		call	_ZN8UnitTest4TestD2Ev
 2170      00
 2171 0810 4889DF   		movq	%rbx, %rdi
 2172 0813 5B       		popq	%rbx
 2173              		.cfi_def_cfa_offset 8
 2174 0814 E9000000 		jmp	_ZdlPv
 2174      00
 2175              		.cfi_endproc
 2176              	.LFE1619:
 2178              		.section	.text.unlikely
 2179              	.LCOLDE89:
 2180              		.text
 2181              	.LHOTE89:
 2182              		.section	.text.unlikely
 2183              		.align 2
 2184              	.LCOLDB90:
 2185              		.text
 2186              	.LHOTB90:
 2187 0819 90       		.align 2
 2188 081a 660F1F44 		.p2align 4,,15
 2188      0000
 2190              	_ZN12_GLOBAL__N_129TestCheckEqualSucceedsOnEqualD0Ev:
 2191              	.LFB1623:
 2192              		.cfi_startproc
 2193 0820 53       		pushq	%rbx
 2194              		.cfi_def_cfa_offset 16
 2195              		.cfi_offset 3, -16
 2196 0821 4889FB   		movq	%rdi, %rbx
 2197 0824 48C70700 		movq	$_ZTVN12_GLOBAL__N_129TestCheckEqualSucceedsOnEqualE+16, (%rdi)
 2197      000000
 2198 082b E8000000 		call	_ZN8UnitTest4TestD2Ev
 2198      00
 2199 0830 4889DF   		movq	%rbx, %rdi
 2200 0833 5B       		popq	%rbx
 2201              		.cfi_def_cfa_offset 8
 2202 0834 E9000000 		jmp	_ZdlPv
 2202      00
 2203              		.cfi_endproc
 2204              	.LFE1623:
 2206              		.section	.text.unlikely
 2207              	.LCOLDE90:
 2208              		.text
 2209              	.LHOTE90:
 2210              		.section	.text.unlikely
 2211              		.align 2
 2212              	.LCOLDB91:
 2213              		.text
 2214              	.LHOTB91:
 2215 0839 90       		.align 2
 2216 083a 660F1F44 		.p2align 4,,15
 2216      0000
 2218              	_ZN12_GLOBAL__N_155TestCheckFailureBecauseOfExceptionIncludesCheckContentsD0Ev:
 2219              	.LFB1627:
 2220              		.cfi_startproc
 2221 0840 53       		pushq	%rbx
 2222              		.cfi_def_cfa_offset 16
 2223              		.cfi_offset 3, -16
 2224 0841 4889FB   		movq	%rdi, %rbx
 2225 0844 48C70700 		movq	$_ZTVN12_GLOBAL__N_155TestCheckFailureBecauseOfExceptionIncludesCheckContentsE+16, (%rdi)
 2225      000000
 2226 084b E8000000 		call	_ZN8UnitTest4TestD2Ev
 2226      00
 2227 0850 4889DF   		movq	%rbx, %rdi
 2228 0853 5B       		popq	%rbx
 2229              		.cfi_def_cfa_offset 8
 2230 0854 E9000000 		jmp	_ZdlPv
 2230      00
 2231              		.cfi_endproc
 2232              	.LFE1627:
 2234              		.section	.text.unlikely
 2235              	.LCOLDE91:
 2236              		.text
 2237              	.LHOTE91:
 2238              		.section	.text.unlikely
 2239              		.align 2
 2240              	.LCOLDB92:
 2241              		.text
 2242              	.LHOTB92:
 2243 0859 90       		.align 2
 2244 085a 660F1F44 		.p2align 4,,15
 2244      0000
 2246              	_ZN12_GLOBAL__N_125TestCheckFailsOnExceptionD0Ev:
 2247              	.LFB1631:
 2248              		.cfi_startproc
 2249 0860 53       		pushq	%rbx
 2250              		.cfi_def_cfa_offset 16
 2251              		.cfi_offset 3, -16
 2252 0861 4889FB   		movq	%rdi, %rbx
 2253 0864 48C70700 		movq	$_ZTVN12_GLOBAL__N_125TestCheckFailsOnExceptionE+16, (%rdi)
 2253      000000
 2254 086b E8000000 		call	_ZN8UnitTest4TestD2Ev
 2254      00
 2255 0870 4889DF   		movq	%rbx, %rdi
 2256 0873 5B       		popq	%rbx
 2257              		.cfi_def_cfa_offset 8
 2258 0874 E9000000 		jmp	_ZdlPv
 2258      00
 2259              		.cfi_endproc
 2260              	.LFE1631:
 2262              		.section	.text.unlikely
 2263              	.LCOLDE92:
 2264              		.text
 2265              	.LHOTE92:
 2266              		.section	.text.unlikely
 2267              		.align 2
 2268              	.LCOLDB93:
 2269              		.text
 2270              	.LHOTB93:
 2271 0879 90       		.align 2
 2272 087a 660F1F44 		.p2align 4,,15
 2272      0000
 2274              	_ZN12_GLOBAL__N_137TestCheckFailureIncludesCheckContentsD0Ev:
 2275              	.LFB1635:
 2276              		.cfi_startproc
 2277 0880 53       		pushq	%rbx
 2278              		.cfi_def_cfa_offset 16
 2279              		.cfi_offset 3, -16
 2280 0881 4889FB   		movq	%rdi, %rbx
 2281 0884 48C70700 		movq	$_ZTVN12_GLOBAL__N_137TestCheckFailureIncludesCheckContentsE+16, (%rdi)
 2281      000000
 2282 088b E8000000 		call	_ZN8UnitTest4TestD2Ev
 2282      00
 2283 0890 4889DF   		movq	%rbx, %rdi
 2284 0893 5B       		popq	%rbx
 2285              		.cfi_def_cfa_offset 8
 2286 0894 E9000000 		jmp	_ZdlPv
 2286      00
 2287              		.cfi_endproc
 2288              	.LFE1635:
 2290              		.section	.text.unlikely
 2291              	.LCOLDE93:
 2292              		.text
 2293              	.LHOTE93:
 2294              		.section	.text.unlikely
 2295              		.align 2
 2296              	.LCOLDB94:
 2297              		.text
 2298              	.LHOTB94:
 2299 0899 90       		.align 2
 2300 089a 660F1F44 		.p2align 4,,15
 2300      0000
 2302              	_ZN12_GLOBAL__N_133TestFailureReportsCorrectTestNameD0Ev:
 2303              	.LFB1639:
 2304              		.cfi_startproc
 2305 08a0 53       		pushq	%rbx
 2306              		.cfi_def_cfa_offset 16
 2307              		.cfi_offset 3, -16
 2308 08a1 4889FB   		movq	%rdi, %rbx
 2309 08a4 48C70700 		movq	$_ZTVN12_GLOBAL__N_133TestFailureReportsCorrectTestNameE+16, (%rdi)
 2309      000000
 2310 08ab E8000000 		call	_ZN8UnitTest4TestD2Ev
 2310      00
 2311 08b0 4889DF   		movq	%rbx, %rdi
 2312 08b3 5B       		popq	%rbx
 2313              		.cfi_def_cfa_offset 8
 2314 08b4 E9000000 		jmp	_ZdlPv
 2314      00
 2315              		.cfi_endproc
 2316              	.LFE1639:
 2318              		.section	.text.unlikely
 2319              	.LCOLDE94:
 2320              		.text
 2321              	.LHOTE94:
 2322              		.section	.text.unlikely
 2323              		.align 2
 2324              	.LCOLDB95:
 2325              		.text
 2326              	.LHOTB95:
 2327 08b9 90       		.align 2
 2328 08ba 660F1F44 		.p2align 4,,15
 2328      0000
 2330              	_ZN12_GLOBAL__N_121TestCheckFailsOnFalseD0Ev:
 2331              	.LFB1643:
 2332              		.cfi_startproc
 2333 08c0 53       		pushq	%rbx
 2334              		.cfi_def_cfa_offset 16
 2335              		.cfi_offset 3, -16
 2336 08c1 4889FB   		movq	%rdi, %rbx
 2337 08c4 48C70700 		movq	$_ZTVN12_GLOBAL__N_121TestCheckFailsOnFalseE+16, (%rdi)
 2337      000000
 2338 08cb E8000000 		call	_ZN8UnitTest4TestD2Ev
 2338      00
 2339 08d0 4889DF   		movq	%rbx, %rdi
 2340 08d3 5B       		popq	%rbx
 2341              		.cfi_def_cfa_offset 8
 2342 08d4 E9000000 		jmp	_ZdlPv
 2342      00
 2343              		.cfi_endproc
 2344              	.LFE1643:
 2346              		.section	.text.unlikely
 2347              	.LCOLDE95:
 2348              		.text
 2349              	.LHOTE95:
 2350              		.section	.text.unlikely
 2351              		.align 2
 2352              	.LCOLDB96:
 2353              		.text
 2354              	.LHOTB96:
 2355 08d9 90       		.align 2
 2356 08da 660F1F44 		.p2align 4,,15
 2356      0000
 2358              	_ZN12_GLOBAL__N_123TestCheckSucceedsOnTrueD0Ev:
 2359              	.LFB1647:
 2360              		.cfi_startproc
 2361 08e0 53       		pushq	%rbx
 2362              		.cfi_def_cfa_offset 16
 2363              		.cfi_offset 3, -16
 2364 08e1 4889FB   		movq	%rdi, %rbx
 2365 08e4 48C70700 		movq	$_ZTVN12_GLOBAL__N_123TestCheckSucceedsOnTrueE+16, (%rdi)
 2365      000000
 2366 08eb E8000000 		call	_ZN8UnitTest4TestD2Ev
 2366      00
 2367 08f0 4889DF   		movq	%rbx, %rdi
 2368 08f3 5B       		popq	%rbx
 2369              		.cfi_def_cfa_offset 8
 2370 08f4 E9000000 		jmp	_ZdlPv
 2370      00
 2371              		.cfi_endproc
 2372              	.LFE1647:
 2374              		.section	.text.unlikely
 2375              	.LCOLDE96:
 2376              		.text
 2377              	.LHOTE96:
 2378              		.section	.text.unlikely._ZN17RecordingReporter15ReportTestStartERKN8UnitTest11TestDetailsE,"axG",@
 2379              		.align 2
 2380              	.LCOLDB97:
 2381              		.section	.text._ZN17RecordingReporter15ReportTestStartERKN8UnitTest11TestDetailsE,"axG",@progbits,
 2382              	.LHOTB97:
 2383              		.align 2
 2384              		.p2align 4,,15
 2385              		.weak	_ZN17RecordingReporter15ReportTestStartERKN8UnitTest11TestDetailsE
 2387              	_ZN17RecordingReporter15ReportTestStartERKN8UnitTest11TestDetailsE:
 2388              	.LFB1132:
 2389              		.cfi_startproc
 2390 0000 55       		pushq	%rbp
 2391              		.cfi_def_cfa_offset 16
 2392              		.cfi_offset 6, -16
 2393 0001 53       		pushq	%rbx
 2394              		.cfi_def_cfa_offset 24
 2395              		.cfi_offset 3, -24
 2396 0002 4889F5   		movq	%rsi, %rbp
 2397 0005 4889FB   		movq	%rdi, %rbx
 2398 0008 BA000100 		movl	$256, %edx
 2398      00
 2399 000d 4883EC08 		subq	$8, %rsp
 2400              		.cfi_def_cfa_offset 32
 2401 0011 83470801 		addl	$1, 8(%rdi)
 2402 0015 488B36   		movq	(%rsi), %rsi
 2403 0018 488D7F0C 		leaq	12(%rdi), %rdi
 2404 001c E8000000 		call	__strcpy_chk
 2404      00
 2405 0021 488B7508 		movq	8(%rbp), %rsi
 2406 0025 4883C408 		addq	$8, %rsp
 2407              		.cfi_def_cfa_offset 24
 2408 0029 488DBB0C 		leaq	268(%rbx), %rdi
 2408      010000
 2409 0030 5B       		popq	%rbx
 2410              		.cfi_def_cfa_offset 16
 2411 0031 5D       		popq	%rbp
 2412              		.cfi_def_cfa_offset 8
 2413 0032 BA000100 		movl	$256, %edx
 2413      00
 2414 0037 E9000000 		jmp	__strcpy_chk
 2414      00
 2415              		.cfi_endproc
 2416              	.LFE1132:
 2418              		.section	.text.unlikely._ZN17RecordingReporter15ReportTestStartERKN8UnitTest11TestDetailsE,"axG",@
 2419              	.LCOLDE97:
 2420              		.section	.text._ZN17RecordingReporter15ReportTestStartERKN8UnitTest11TestDetailsE,"axG",@progbits,
 2421              	.LHOTE97:
 2422              		.section	.text.unlikely._ZN17RecordingReporter13ReportFailureERKN8UnitTest11TestDetailsEPKc,"axG",
 2423              		.align 2
 2424              	.LCOLDB98:
 2425              		.section	.text._ZN17RecordingReporter13ReportFailureERKN8UnitTest11TestDetailsEPKc,"axG",@progbits
 2426              	.LHOTB98:
 2427              		.align 2
 2428              		.p2align 4,,15
 2429              		.weak	_ZN17RecordingReporter13ReportFailureERKN8UnitTest11TestDetailsEPKc
 2431              	_ZN17RecordingReporter13ReportFailureERKN8UnitTest11TestDetailsEPKc:
 2432              	.LFB1133:
 2433              		.cfi_startproc
 2434 0000 4154     		pushq	%r12
 2435              		.cfi_def_cfa_offset 16
 2436              		.cfi_offset 12, -16
 2437 0002 55       		pushq	%rbp
 2438              		.cfi_def_cfa_offset 24
 2439              		.cfi_offset 6, -24
 2440 0003 4889F5   		movq	%rsi, %rbp
 2441 0006 53       		pushq	%rbx
 2442              		.cfi_def_cfa_offset 32
 2443              		.cfi_offset 3, -32
 2444 0007 83870C02 		addl	$1, 524(%rdi)
 2444      000001
 2445 000e 4889FB   		movq	%rdi, %rbx
 2446 0011 488B7610 		movq	16(%rsi), %rsi
 2447 0015 488DBF10 		leaq	528(%rdi), %rdi
 2447      020000
 2448 001c 4989D4   		movq	%rdx, %r12
 2449 001f BA000100 		movl	$256, %edx
 2449      00
 2450 0024 E8000000 		call	__strcpy_chk
 2450      00
 2451 0029 8B4518   		movl	24(%rbp), %eax
 2452 002c 488B7500 		movq	0(%rbp), %rsi
 2453 0030 488DBB14 		leaq	788(%rbx), %rdi
 2453      030000
 2454 0037 BA000100 		movl	$256, %edx
 2454      00
 2455 003c 89831003 		movl	%eax, 784(%rbx)
 2455      0000
 2456 0042 E8000000 		call	__strcpy_chk
 2456      00
 2457 0047 488B7508 		movq	8(%rbp), %rsi
 2458 004b 488DBB14 		leaq	1044(%rbx), %rdi
 2458      040000
 2459 0052 BA000100 		movl	$256, %edx
 2459      00
 2460 0057 E8000000 		call	__strcpy_chk
 2460      00
 2461 005c 488DBB14 		leaq	1300(%rbx), %rdi
 2461      050000
 2462 0063 4C89E6   		movq	%r12, %rsi
 2463 0066 BA000100 		movl	$256, %edx
 2463      00
 2464 006b 5B       		popq	%rbx
 2465              		.cfi_def_cfa_offset 24
 2466 006c 5D       		popq	%rbp
 2467              		.cfi_def_cfa_offset 16
 2468 006d 415C     		popq	%r12
 2469              		.cfi_def_cfa_offset 8
 2470 006f E9000000 		jmp	__strcpy_chk
 2470      00
 2471              		.cfi_endproc
 2472              	.LFE1133:
 2474              		.section	.text.unlikely._ZN17RecordingReporter13ReportFailureERKN8UnitTest11TestDetailsEPKc,"axG",
 2475              	.LCOLDE98:
 2476              		.section	.text._ZN17RecordingReporter13ReportFailureERKN8UnitTest11TestDetailsEPKc,"axG",@progbits
 2477              	.LHOTE98:
 2478              		.section	.text.unlikely._ZN17RecordingReporter16ReportTestFinishERKN8UnitTest11TestDetailsEf,"axG"
 2479              		.align 2
 2480              	.LCOLDB99:
 2481              		.section	.text._ZN17RecordingReporter16ReportTestFinishERKN8UnitTest11TestDetailsEf,"axG",@progbit
 2482              	.LHOTB99:
 2483              		.align 2
 2484              		.p2align 4,,15
 2485              		.weak	_ZN17RecordingReporter16ReportTestFinishERKN8UnitTest11TestDetailsEf
 2487              	_ZN17RecordingReporter16ReportTestFinishERKN8UnitTest11TestDetailsEf:
 2488              	.LFB1134:
 2489              		.cfi_startproc
 2490 0000 55       		pushq	%rbp
 2491              		.cfi_def_cfa_offset 16
 2492              		.cfi_offset 6, -16
 2493 0001 53       		pushq	%rbx
 2494              		.cfi_def_cfa_offset 24
 2495              		.cfi_offset 3, -24
 2496 0002 4889F5   		movq	%rsi, %rbp
 2497 0005 4889FB   		movq	%rdi, %rbx
 2498 0008 BA000100 		movl	$256, %edx
 2498      00
 2499 000d 4883EC18 		subq	$24, %rsp
 2500              		.cfi_def_cfa_offset 48
 2501 0011 83871406 		addl	$1, 1556(%rdi)
 2501      000001
 2502 0018 488B36   		movq	(%rsi), %rsi
 2503 001b 488DBF18 		leaq	1560(%rdi), %rdi
 2503      060000
 2504 0022 F30F1144 		movss	%xmm0, 12(%rsp)
 2504      240C
 2505 0028 E8000000 		call	__strcpy_chk
 2505      00
 2506 002d 488B7508 		movq	8(%rbp), %rsi
 2507 0031 488DBB18 		leaq	1816(%rbx), %rdi
 2507      070000
 2508 0038 BA000100 		movl	$256, %edx
 2508      00
 2509 003d E8000000 		call	__strcpy_chk
 2509      00
 2510 0042 F30F1044 		movss	12(%rsp), %xmm0
 2510      240C
 2511 0048 F30F1183 		movss	%xmm0, 2072(%rbx)
 2511      18080000 
 2512 0050 4883C418 		addq	$24, %rsp
 2513              		.cfi_def_cfa_offset 24
 2514 0054 5B       		popq	%rbx
 2515              		.cfi_def_cfa_offset 16
 2516 0055 5D       		popq	%rbp
 2517              		.cfi_def_cfa_offset 8
 2518 0056 C3       		ret
 2519              		.cfi_endproc
 2520              	.LFE1134:
 2522              		.section	.text.unlikely._ZN17RecordingReporter16ReportTestFinishERKN8UnitTest11TestDetailsEf,"axG"
 2523              	.LCOLDE99:
 2524              		.section	.text._ZN17RecordingReporter16ReportTestFinishERKN8UnitTest11TestDetailsEf,"axG",@progbit
 2525              	.LHOTE99:
 2526              		.section	.text.unlikely._ZN17RecordingReporterD2Ev,"axG",@progbits,_ZN17RecordingReporterD5Ev,comd
 2527              		.align 2
 2528              	.LCOLDB100:
 2529              		.section	.text._ZN17RecordingReporterD2Ev,"axG",@progbits,_ZN17RecordingReporterD5Ev,comdat
 2530              	.LHOTB100:
 2531              		.align 2
 2532              		.p2align 4,,15
 2533              		.weak	_ZN17RecordingReporterD2Ev
 2535              	_ZN17RecordingReporterD2Ev:
 2536              	.LFB1649:
 2537              		.cfi_startproc
 2538 0000 48C70700 		movq	$_ZTV17RecordingReporter+16, (%rdi)
 2538      000000
 2539 0007 E9000000 		jmp	_ZN8UnitTest12TestReporterD2Ev
 2539      00
 2540              		.cfi_endproc
 2541              	.LFE1649:
 2543              		.section	.text.unlikely._ZN17RecordingReporterD2Ev,"axG",@progbits,_ZN17RecordingReporterD5Ev,comd
 2544              	.LCOLDE100:
 2545              		.section	.text._ZN17RecordingReporterD2Ev,"axG",@progbits,_ZN17RecordingReporterD5Ev,comdat
 2546              	.LHOTE100:
 2547              		.weak	_ZN17RecordingReporterD1Ev
 2548              		.set	_ZN17RecordingReporterD1Ev,_ZN17RecordingReporterD2Ev
 2549              		.section	.text.unlikely._ZN17RecordingReporterD0Ev,"axG",@progbits,_ZN17RecordingReporterD5Ev,comd
 2550              		.align 2
 2551              	.LCOLDB101:
 2552              		.section	.text._ZN17RecordingReporterD0Ev,"axG",@progbits,_ZN17RecordingReporterD5Ev,comdat
 2553              	.LHOTB101:
 2554              		.align 2
 2555              		.p2align 4,,15
 2556              		.weak	_ZN17RecordingReporterD0Ev
 2558              	_ZN17RecordingReporterD0Ev:
 2559              	.LFB1651:
 2560              		.cfi_startproc
 2561 0000 53       		pushq	%rbx
 2562              		.cfi_def_cfa_offset 16
 2563              		.cfi_offset 3, -16
 2564 0001 4889FB   		movq	%rdi, %rbx
 2565 0004 48C70700 		movq	$_ZTV17RecordingReporter+16, (%rdi)
 2565      000000
 2566 000b E8000000 		call	_ZN8UnitTest12TestReporterD2Ev
 2566      00
 2567 0010 4889DF   		movq	%rbx, %rdi
 2568 0013 5B       		popq	%rbx
 2569              		.cfi_def_cfa_offset 8
 2570 0014 E9000000 		jmp	_ZdlPv
 2570      00
 2571              		.cfi_endproc
 2572              	.LFE1651:
 2574              		.section	.text.unlikely._ZN17RecordingReporterD0Ev,"axG",@progbits,_ZN17RecordingReporterD5Ev,comd
 2575              	.LCOLDE101:
 2576              		.section	.text._ZN17RecordingReporterD0Ev,"axG",@progbits,_ZN17RecordingReporterD5Ev,comdat
 2577              	.LHOTE101:
 2578              		.section	.rodata.str1.1,"aMS",@progbits,1
 2579              	.LC102:
 2580 0000 446F6800 		.string	"Doh"
 2581              		.section	.text.unlikely
 2582              	.LCOLDB103:
 2583              		.text
 2584              	.LHOTB103:
 2585 08f9 0F1F8000 		.p2align 4,,15
 2585      000000
 2587              	_ZN12_GLOBAL__N_116ThrowingFunctionEv:
 2588              	.LFB1161:
 2589              		.cfi_startproc
 2590 0900 BF080000 		movl	$8, %edi
 2590      00
 2591 0905 4883EC08 		subq	$8, %rsp
 2592              		.cfi_def_cfa_offset 16
 2593 0909 E8000000 		call	__cxa_allocate_exception
 2593      00
 2594 090e 31D2     		xorl	%edx, %edx
 2595 0910 48C70000 		movq	$.LC102, (%rax)
 2595      000000
 2596 0917 BE000000 		movl	$_ZTIPKc, %esi
 2596      00
 2597 091c 4889C7   		movq	%rax, %rdi
 2598 091f E8000000 		call	__cxa_throw
 2598      00
 2599              		.cfi_endproc
 2600              	.LFE1161:
 2602              		.section	.text.unlikely
 2603              	.LCOLDE103:
 2604              		.text
 2605              	.LHOTE103:
 2606              		.section	.rodata.str1.1
 2607              	.LC104:
 2608 0004 54657374 		.string	"Test throw"
 2608      20746872 
 2608      6F7700
 2609              		.section	.text.unlikely
 2610              		.align 2
 2611              	.LCOLDB105:
 2612              		.text
 2613              	.LHOTB105:
 2614              		.align 2
 2615 0924 6690662E 		.p2align 4,,15
 2615      0F1F8400 
 2615      00000000 
 2617              	_ZNK12_GLOBAL__N_116ThrowingObject2DixEi.isra.3:
 2618              	.LFB1657:
 2619              		.cfi_startproc
 2620 0930 BF080000 		movl	$8, %edi
 2620      00
 2621 0935 4883EC08 		subq	$8, %rsp
 2622              		.cfi_def_cfa_offset 16
 2623 0939 E8000000 		call	__cxa_allocate_exception
 2623      00
 2624 093e 31D2     		xorl	%edx, %edx
 2625 0940 48C70000 		movq	$.LC104, (%rax)
 2625      000000
 2626 0947 BE000000 		movl	$_ZTIPKc, %esi
 2626      00
 2627 094c 4889C7   		movq	%rax, %rdi
 2628 094f E8000000 		call	__cxa_throw
 2628      00
 2629              		.cfi_endproc
 2630              	.LFE1657:
 2632              		.section	.text.unlikely
 2633              	.LCOLDE105:
 2634              		.text
 2635              	.LHOTE105:
 2636              		.section	.text.unlikely
 2637              		.align 2
 2638              	.LCOLDB106:
 2639              		.text
 2640              	.LHOTB106:
 2641              		.align 2
 2642 0954 6690662E 		.p2align 4,,15
 2642      0F1F8400 
 2642      00000000 
 2644              	_ZNK12_GLOBAL__N_114ThrowingObjectixEi.isra.4:
 2645              	.LFB1658:
 2646              		.cfi_startproc
 2647 0960 BF080000 		movl	$8, %edi
 2647      00
 2648 0965 4883EC08 		subq	$8, %rsp
 2649              		.cfi_def_cfa_offset 16
 2650 0969 E8000000 		call	__cxa_allocate_exception
 2650      00
 2651 096e 31D2     		xorl	%edx, %edx
 2652 0970 48C70000 		movq	$.LC104, (%rax)
 2652      000000
 2653 0977 BE000000 		movl	$_ZTIPKc, %esi
 2653      00
 2654 097c 4889C7   		movq	%rax, %rdi
 2655 097f E8000000 		call	__cxa_throw
 2655      00
 2656              		.cfi_endproc
 2657              	.LFE1658:
 2659              		.section	.text.unlikely
 2660              	.LCOLDE106:
 2661              		.text
 2662              	.LHOTE106:
 2663              		.section	.text.unlikely._ZN8UnitTest15MemoryOutStreamD1Ev,"axG",@progbits,_ZN8UnitTest15MemoryOutS
 2664              		.align 2
 2665              	.LCOLDB107:
 2666              		.section	.text._ZN8UnitTest15MemoryOutStreamD1Ev,"axG",@progbits,_ZN8UnitTest15MemoryOutStreamD1Ev
 2667              	.LHOTB107:
 2668              		.align 2
 2669              		.p2align 4,,15
 2670              		.weak	_ZN8UnitTest15MemoryOutStreamD1Ev
 2672              	_ZN8UnitTest15MemoryOutStreamD1Ev:
 2673              	.LFB1375:
 2674              		.cfi_startproc
 2675 0000 53       		pushq	%rbx
 2676              		.cfi_def_cfa_offset 16
 2677              		.cfi_offset 3, -16
 2678 0001 4889FB   		movq	%rdi, %rbx
 2679 0004 48C70700 		movq	$_ZTVN8UnitTest15MemoryOutStreamE+24, (%rdi)
 2679      000000
 2680 000b 48C78790 		movq	$_ZTVN8UnitTest15MemoryOutStreamE+64, 144(%rdi)
 2680      00000000 
 2680      000000
 2681 0016 488B7F70 		movq	112(%rdi), %rdi
 2682 001a 488D8380 		leaq	128(%rbx), %rax
 2682      000000
 2683 0021 4839C7   		cmpq	%rax, %rdi
 2684 0024 7405     		je	.L162
 2685 0026 E8000000 		call	_ZdlPv
 2685      00
 2686              	.L162:
 2687 002b 488B7B50 		movq	80(%rbx), %rdi
 2688 002f 488D4360 		leaq	96(%rbx), %rax
 2689 0033 48C70300 		movq	$_ZTCN8UnitTest15MemoryOutStreamE0_NSt7__cxx1119basic_ostringstreamIcSt11char_traitsIcESaIcEE
 2689      000000
 2690 003a 48C78390 		movq	$_ZTCN8UnitTest15MemoryOutStreamE0_NSt7__cxx1119basic_ostringstreamIcSt11char_traitsIcESaIcEE
 2690      00000000 
 2690      000000
 2691 0045 48C74308 		movq	$_ZTVNSt7__cxx1115basic_stringbufIcSt11char_traitsIcESaIcEEE+16, 8(%rbx)
 2691      00000000 
 2692 004d 4839C7   		cmpq	%rax, %rdi
 2693 0050 7405     		je	.L163
 2694 0052 E8000000 		call	_ZdlPv
 2694      00
 2695              	.L163:
 2696 0057 488D7B40 		leaq	64(%rbx), %rdi
 2697 005b 48C74308 		movq	$_ZTVSt15basic_streambufIcSt11char_traitsIcEE+16, 8(%rbx)
 2697      00000000 
 2698 0063 E8000000 		call	_ZNSt6localeD1Ev
 2698      00
 2699 0068 48C78390 		movq	$_ZTVSt9basic_iosIcSt11char_traitsIcEE+16, 144(%rbx)
 2699      00000000 
 2699      000000
 2700 0073 488DBB90 		leaq	144(%rbx), %rdi
 2700      000000
 2701 007a 5B       		popq	%rbx
 2702              		.cfi_def_cfa_offset 8
 2703 007b E9000000 		jmp	_ZNSt8ios_baseD2Ev
 2703      00
 2704              		.cfi_endproc
 2705              	.LFE1375:
 2707              		.section	.text.unlikely._ZN8UnitTest15MemoryOutStreamD1Ev,"axG",@progbits,_ZN8UnitTest15MemoryOutS
 2708              	.LCOLDE107:
 2709              		.section	.text._ZN8UnitTest15MemoryOutStreamD1Ev,"axG",@progbits,_ZN8UnitTest15MemoryOutStreamD1Ev
 2710              	.LHOTE107:
 2711              		.set	.LTHUNK0,_ZN8UnitTest15MemoryOutStreamD1Ev
 2712              		.section	.text.unlikely._ZTv0_n24_N8UnitTest15MemoryOutStreamD1Ev,"axG",@progbits,_ZN8UnitTest15Me
 2713              	.LCOLDB108:
 2714              		.section	.text._ZN8UnitTest15MemoryOutStreamD1Ev,"axG",@progbits,_ZN8UnitTest15MemoryOutStreamD1Ev
 2715              	.LHOTB108:
 2716              		.p2align 4,,15
 2717              		.weak	_ZTv0_n24_N8UnitTest15MemoryOutStreamD1Ev
 2719              	_ZTv0_n24_N8UnitTest15MemoryOutStreamD1Ev:
 2720              	.LFB1694:
 2721              		.cfi_startproc
 2722 0080 4C8B17   		movq	(%rdi), %r10
 2723 0083 49037AE8 		addq	-24(%r10), %rdi
 2724 0087 E974FFFF 		jmp	.LTHUNK0
 2724      FF
 2725              		.cfi_endproc
 2726              	.LFE1694:
 2728              		.section	.text.unlikely._ZTv0_n24_N8UnitTest15MemoryOutStreamD1Ev,"axG",@progbits,_ZN8UnitTest15Me
 2729              	.LCOLDE108:
 2730              		.section	.text._ZN8UnitTest15MemoryOutStreamD1Ev,"axG",@progbits,_ZN8UnitTest15MemoryOutStreamD1Ev
 2731              	.LHOTE108:
 2732              		.section	.text.unlikely._ZN8UnitTest15MemoryOutStreamD0Ev,"axG",@progbits,_ZN8UnitTest15MemoryOutS
 2733              		.align 2
 2734              	.LCOLDB109:
 2735              		.section	.text._ZN8UnitTest15MemoryOutStreamD0Ev,"axG",@progbits,_ZN8UnitTest15MemoryOutStreamD0Ev
 2736              	.LHOTB109:
 2737              		.align 2
 2738              		.p2align 4,,15
 2739              		.weak	_ZN8UnitTest15MemoryOutStreamD0Ev
 2741              	_ZN8UnitTest15MemoryOutStreamD0Ev:
 2742              	.LFB1376:
 2743              		.cfi_startproc
 2744 0000 53       		pushq	%rbx
 2745              		.cfi_def_cfa_offset 16
 2746              		.cfi_offset 3, -16
 2747 0001 4889FB   		movq	%rdi, %rbx
 2748 0004 48C70700 		movq	$_ZTVN8UnitTest15MemoryOutStreamE+24, (%rdi)
 2748      000000
 2749 000b 48C78790 		movq	$_ZTVN8UnitTest15MemoryOutStreamE+64, 144(%rdi)
 2749      00000000 
 2749      000000
 2750 0016 488B7F70 		movq	112(%rdi), %rdi
 2751 001a 488D8380 		leaq	128(%rbx), %rax
 2751      000000
 2752 0021 4839C7   		cmpq	%rax, %rdi
 2753 0024 7405     		je	.L167
 2754 0026 E8000000 		call	_ZdlPv
 2754      00
 2755              	.L167:
 2756 002b 488B7B50 		movq	80(%rbx), %rdi
 2757 002f 488D4360 		leaq	96(%rbx), %rax
 2758 0033 48C70300 		movq	$_ZTCN8UnitTest15MemoryOutStreamE0_NSt7__cxx1119basic_ostringstreamIcSt11char_traitsIcESaIcEE
 2758      000000
 2759 003a 48C78390 		movq	$_ZTCN8UnitTest15MemoryOutStreamE0_NSt7__cxx1119basic_ostringstreamIcSt11char_traitsIcESaIcEE
 2759      00000000 
 2759      000000
 2760 0045 48C74308 		movq	$_ZTVNSt7__cxx1115basic_stringbufIcSt11char_traitsIcESaIcEEE+16, 8(%rbx)
 2760      00000000 
 2761 004d 4839C7   		cmpq	%rax, %rdi
 2762 0050 7405     		je	.L168
 2763 0052 E8000000 		call	_ZdlPv
 2763      00
 2764              	.L168:
 2765 0057 488D7B40 		leaq	64(%rbx), %rdi
 2766 005b 48C74308 		movq	$_ZTVSt15basic_streambufIcSt11char_traitsIcEE+16, 8(%rbx)
 2766      00000000 
 2767 0063 E8000000 		call	_ZNSt6localeD1Ev
 2767      00
 2768 0068 488DBB90 		leaq	144(%rbx), %rdi
 2768      000000
 2769 006f 48C78390 		movq	$_ZTVSt9basic_iosIcSt11char_traitsIcEE+16, 144(%rbx)
 2769      00000000 
 2769      000000
 2770 007a E8000000 		call	_ZNSt8ios_baseD2Ev
 2770      00
 2771 007f 4889DF   		movq	%rbx, %rdi
 2772 0082 5B       		popq	%rbx
 2773              		.cfi_def_cfa_offset 8
 2774 0083 E9000000 		jmp	_ZdlPv
 2774      00
 2775              		.cfi_endproc
 2776              	.LFE1376:
 2778              		.section	.text.unlikely._ZN8UnitTest15MemoryOutStreamD0Ev,"axG",@progbits,_ZN8UnitTest15MemoryOutS
 2779              	.LCOLDE109:
 2780              		.section	.text._ZN8UnitTest15MemoryOutStreamD0Ev,"axG",@progbits,_ZN8UnitTest15MemoryOutStreamD0Ev
 2781              	.LHOTE109:
 2782              		.set	.LTHUNK1,_ZN8UnitTest15MemoryOutStreamD0Ev
 2783              		.section	.text.unlikely._ZTv0_n24_N8UnitTest15MemoryOutStreamD0Ev,"axG",@progbits,_ZN8UnitTest15Me
 2784              	.LCOLDB110:
 2785              		.section	.text._ZN8UnitTest15MemoryOutStreamD0Ev,"axG",@progbits,_ZN8UnitTest15MemoryOutStreamD0Ev
 2786              	.LHOTB110:
 2787 0088 0F1F8400 		.p2align 4,,15
 2787      00000000 
 2788              		.weak	_ZTv0_n24_N8UnitTest15MemoryOutStreamD0Ev
 2790              	_ZTv0_n24_N8UnitTest15MemoryOutStreamD0Ev:
 2791              	.LFB1695:
 2792              		.cfi_startproc
 2793 0090 4C8B17   		movq	(%rdi), %r10
 2794 0093 49037AE8 		addq	-24(%r10), %rdi
 2795 0097 E964FFFF 		jmp	.LTHUNK1
 2795      FF
 2796              		.cfi_endproc
 2797              	.LFE1695:
 2799              		.section	.text.unlikely._ZTv0_n24_N8UnitTest15MemoryOutStreamD0Ev,"axG",@progbits,_ZN8UnitTest15Me
 2800              	.LCOLDE110:
 2801              		.section	.text._ZN8UnitTest15MemoryOutStreamD0Ev,"axG",@progbits,_ZN8UnitTest15MemoryOutStreamD0Ev
 2802              	.LHOTE110:
 2803              		.section	.text.unlikely._ZN17ScopedCurrentTestD2Ev,"axG",@progbits,_ZN17ScopedCurrentTestD5Ev,comd
 2804              		.align 2
 2805              	.LCOLDB111:
 2806              		.section	.text._ZN17ScopedCurrentTestD2Ev,"axG",@progbits,_ZN17ScopedCurrentTestD5Ev,comdat
 2807              	.LHOTB111:
 2808              		.align 2
 2809              		.p2align 4,,15
 2810              		.weak	_ZN17ScopedCurrentTestD2Ev
 2812              	_ZN17ScopedCurrentTestD2Ev:
 2813              	.LFB1143:
 2814              		.cfi_startproc
 2815 0000 53       		pushq	%rbx
 2816              		.cfi_def_cfa_offset 16
 2817              		.cfi_offset 3, -16
 2818 0001 4889FB   		movq	%rdi, %rbx
 2819 0004 E8000000 		call	_ZN8UnitTest11CurrentTest7ResultsEv
 2819      00
 2820 0009 488B13   		movq	(%rbx), %rdx
 2821 000c 488910   		movq	%rdx, (%rax)
 2822 000f E8000000 		call	_ZN8UnitTest11CurrentTest7DetailsEv
 2822      00
 2823 0014 488B5308 		movq	8(%rbx), %rdx
 2824 0018 488910   		movq	%rdx, (%rax)
 2825 001b 5B       		popq	%rbx
 2826              		.cfi_def_cfa_offset 8
 2827 001c C3       		ret
 2828              		.cfi_endproc
 2829              	.LFE1143:
 2831              		.section	.text.unlikely._ZN17ScopedCurrentTestD2Ev,"axG",@progbits,_ZN17ScopedCurrentTestD5Ev,comd
 2832              	.LCOLDE111:
 2833              		.section	.text._ZN17ScopedCurrentTestD2Ev,"axG",@progbits,_ZN17ScopedCurrentTestD5Ev,comdat
 2834              	.LHOTE111:
 2835              		.weak	_ZN17ScopedCurrentTestD1Ev
 2836              		.set	_ZN17ScopedCurrentTestD1Ev,_ZN17ScopedCurrentTestD2Ev
 2837              		.section	.rodata.str1.1
 2838              	.LC113:
 2839 000f 6661696C 		.string	"failure"
 2839      75726500 
 2840              		.section	.rodata.str1.8,"aMS",@progbits,1
 2841              		.align 8
 2842              	.LC114:
 2843 0000 556E6861 		.string	"Unhandled exception in CHECK(ThrowingFunction() == 1)"
 2843      6E646C65 
 2843      64206578 
 2843      63657074 
 2843      696F6E20 
 2844 0036 0000     		.align 8
 2845              	.LC115:
 2846 0038 556E6861 		.string	"Unhandled exception in CHECK(failure)"
 2846      6E646C65 
 2846      64206578 
 2846      63657074 
 2846      696F6E20 
 2847              		.section	.text.unlikely
 2848              		.align 2
 2849              	.LCOLDB116:
 2850              		.text
 2851              	.LHOTB116:
 2852              		.align 2
 2853 0984 6690662E 		.p2align 4,,15
 2853      0F1F8400 
 2853      00000000 
 2855              	_ZNK12_GLOBAL__N_125TestCheckFailsOnException7RunImplEv:
 2856              	.LFB1165:
 2857              		.cfi_startproc
 2858              		.cfi_personality 0x3,__gxx_personality_v0
 2859              		.cfi_lsda 0x3,.LLSDA1165
 2860 0990 53       		pushq	%rbx
 2861              		.cfi_def_cfa_offset 16
 2862              		.cfi_offset 3, -16
 2863 0991 4881EC90 		subq	$2192, %rsp
 2863      080000
 2864              		.cfi_def_cfa_offset 2208
 2865 0998 488D5C24 		leaq	16(%rsp), %rbx
 2865      10
 2866 099d 488D7424 		leaq	80(%rsp), %rsi
 2866      50
 2867 09a2 48C74424 		movq	$_ZTV17RecordingReporter+16, 80(%rsp)
 2867      50000000 
 2867      00
 2868 09ab 64488B04 		movq	%fs:40, %rax
 2868      25280000 
 2868      00
 2869 09b4 48898424 		movq	%rax, 2184(%rsp)
 2869      88080000 
 2870 09bc 31C0     		xorl	%eax, %eax
 2871 09be 4889DF   		movq	%rbx, %rdi
 2872 09c1 C7442458 		movl	$0, 88(%rsp)
 2872      00000000 
 2873 09c9 C784245C 		movl	$0, 604(%rsp)
 2873      02000000 
 2873      000000
 2874 09d4 C7842460 		movl	$0, 864(%rsp)
 2874      03000000 
 2874      000000
 2875 09df C7842464 		movl	$0, 1636(%rsp)
 2875      06000000 
 2875      000000
 2876 09ea C7842468 		movl	$0x00000000, 2152(%rsp)
 2876      08000000 
 2876      000000
 2877 09f5 C784246C 		movl	$0, 2156(%rsp)
 2877      08000000 
 2877      000000
 2878 0a00 C7842470 		movl	$0, 2160(%rsp)
 2878      08000000 
 2878      000000
 2879 0a0b C7842474 		movl	$0, 2164(%rsp)
 2879      08000000 
 2879      000000
 2880 0a16 C7842478 		movl	$0x00000000, 2168(%rsp)
 2880      08000000 
 2880      000000
 2881 0a21 C644245C 		movb	$0, 92(%rsp)
 2881      00
 2882 0a26 C684245C 		movb	$0, 348(%rsp)
 2882      01000000 
 2883 0a2e C6842460 		movb	$0, 608(%rsp)
 2883      02000000 
 2884 0a36 C6842464 		movb	$0, 868(%rsp)
 2884      03000000 
 2885 0a3e C6842464 		movb	$0, 1124(%rsp)
 2885      04000000 
 2886 0a46 C6842464 		movb	$0, 1380(%rsp)
 2886      05000000 
 2887 0a4e C6842468 		movb	$0, 1640(%rsp)
 2887      06000000 
 2888 0a56 C6842468 		movb	$0, 1896(%rsp)
 2888      07000000 
 2889              	.LEHB0:
 2890 0a5e E8000000 		call	_ZN8UnitTest11TestResultsC1EPNS_12TestReporterE
 2890      00
 2891 0a63 E8000000 		call	_ZN8UnitTest11CurrentTest7ResultsEv
 2891      00
 2892 0a68 488B00   		movq	(%rax), %rax
 2893 0a6b 48890424 		movq	%rax, (%rsp)
 2894 0a6f E8000000 		call	_ZN8UnitTest11CurrentTest7DetailsEv
 2894      00
 2895 0a74 488B00   		movq	(%rax), %rax
 2896 0a77 48894424 		movq	%rax, 8(%rsp)
 2896      08
 2897 0a7c E8000000 		call	_ZN8UnitTest11CurrentTest7ResultsEv
 2897      00
 2898              	.LEHE0:
 2899 0a81 488918   		movq	%rbx, (%rax)
 2900              	.LEHB1:
 2901 0a84 E877FEFF 		call	_ZN12_GLOBAL__N_116ThrowingFunctionEv
 2901      FF
 2902              	.LEHE1:
 2903              	.L183:
 2904 0a89 4889C7   		movq	%rax, %rdi
 2905 0a8c E8000000 		call	__cxa_begin_catch
 2905      00
 2906              	.LEHB2:
 2907 0a91 E8000000 		call	_ZN8UnitTest11CurrentTest7DetailsEv
 2907      00
 2908 0a96 488B30   		movq	(%rax), %rsi
 2909 0a99 488D7C24 		leaq	48(%rsp), %rdi
 2909      30
 2910 0a9e BA4D0000 		movl	$77, %edx
 2910      00
 2911 0aa3 E8000000 		call	_ZN8UnitTest11TestDetailsC1ERKS0_i
 2911      00
 2912 0aa8 E8000000 		call	_ZN8UnitTest11CurrentTest7ResultsEv
 2912      00
 2913 0aad 488B38   		movq	(%rax), %rdi
 2914 0ab0 488D7424 		leaq	48(%rsp), %rsi
 2914      30
 2915 0ab5 BA000000 		movl	$.LC114, %edx
 2915      00
 2916 0aba E8000000 		call	_ZN8UnitTest11TestResults13OnTestFailureERKNS_11TestDetailsEPKc
 2916      00
 2917              	.LEHE2:
 2918              	.LEHB3:
 2919 0abf E8000000 		call	__cxa_end_catch
 2919      00
 2920 0ac4 4889DF   		movq	%rbx, %rdi
 2921 0ac7 E8000000 		call	_ZNK8UnitTest11TestResults15GetFailureCountEv
 2921      00
 2922              	.LEHE3:
 2923 0acc 4889E7   		movq	%rsp, %rdi
 2924 0acf 89C3     		movl	%eax, %ebx
 2925              	.LEHB4:
 2926 0ad1 E8000000 		call	_ZN17ScopedCurrentTestD1Ev
 2926      00
 2927              	.LEHE4:
 2928 0ad6 488D7C24 		leaq	80(%rsp), %rdi
 2928      50
 2929 0adb 48C74424 		movq	$_ZTV17RecordingReporter+16, 80(%rsp)
 2929      50000000 
 2929      00
 2930              	.LEHB5:
 2931 0ae4 E8000000 		call	_ZN8UnitTest12TestReporterD2Ev
 2931      00
 2932              	.LEHE5:
 2933 0ae9 85DB     		testl	%ebx, %ebx
 2934 0aeb 7E3F     		jle	.L191
 2935              	.L172:
 2936 0aed 488B8424 		movq	2184(%rsp), %rax
 2936      88080000 
 2937 0af5 64483304 		xorq	%fs:40, %rax
 2937      25280000 
 2937      00
 2938 0afe 7527     		jne	.L192
 2939 0b00 4881C490 		addq	$2192, %rsp
 2939      080000
 2940              		.cfi_remember_state
 2941              		.cfi_def_cfa_offset 16
 2942 0b07 5B       		popq	%rbx
 2943              		.cfi_def_cfa_offset 8
 2944 0b08 C3       		ret
 2945              	.L182:
 2946              		.cfi_restore_state
 2947 0b09 4889C3   		movq	%rax, %rbx
 2948              	.L178:
 2949 0b0c 488D7C24 		leaq	80(%rsp), %rdi
 2949      50
 2950 0b11 48C74424 		movq	$_ZTV17RecordingReporter+16, 80(%rsp)
 2950      50000000 
 2950      00
 2951 0b1a E8000000 		call	_ZN8UnitTest12TestReporterD2Ev
 2951      00
 2952 0b1f 4889DF   		movq	%rbx, %rdi
 2953              	.LEHB6:
 2954 0b22 E8000000 		call	_Unwind_Resume
 2954      00
 2955              	.LEHE6:
 2956              	.L192:
 2957 0b27 E8000000 		call	__stack_chk_fail
 2957      00
 2958              	.L191:
 2959              	.LEHB7:
 2960 0b2c E8000000 		call	_ZN8UnitTest11CurrentTest7DetailsEv
 2960      00
 2961 0b31 488B30   		movq	(%rax), %rsi
 2962 0b34 488D7C24 		leaq	48(%rsp), %rdi
 2962      30
 2963 0b39 BA510000 		movl	$81, %edx
 2963      00
 2964 0b3e E8000000 		call	_ZN8UnitTest11TestDetailsC1ERKS0_i
 2964      00
 2965 0b43 E8000000 		call	_ZN8UnitTest11CurrentTest7ResultsEv
 2965      00
 2966 0b48 488B38   		movq	(%rax), %rdi
 2967 0b4b 488D7424 		leaq	48(%rsp), %rsi
 2967      30
 2968 0b50 BA000000 		movl	$.LC113, %edx
 2968      00
 2969 0b55 E8000000 		call	_ZN8UnitTest11TestResults13OnTestFailureERKNS_11TestDetailsEPKc
 2969      00
 2970              	.LEHE7:
 2971 0b5a EB91     		jmp	.L172
 2972              	.L184:
 2973 0b5c 4889C3   		movq	%rax, %rbx
 2974              	.L177:
 2975 0b5f 4889E7   		movq	%rsp, %rdi
 2976 0b62 E8000000 		call	_ZN17ScopedCurrentTestD1Ev
 2976      00
 2977 0b67 EBA3     		jmp	.L178
 2978              	.L185:
 2979 0b69 4889C3   		movq	%rax, %rbx
 2980 0b6c E8000000 		call	__cxa_end_catch
 2980      00
 2981 0b71 EBEC     		jmp	.L177
 2982              	.L186:
 2983 0b73 4889C7   		movq	%rax, %rdi
 2984 0b76 E8000000 		call	__cxa_begin_catch
 2984      00
 2985              	.LEHB8:
 2986 0b7b E8000000 		call	_ZN8UnitTest11CurrentTest7DetailsEv
 2986      00
 2987 0b80 488B30   		movq	(%rax), %rsi
 2988 0b83 488D7C24 		leaq	48(%rsp), %rdi
 2988      30
 2989 0b88 BA510000 		movl	$81, %edx
 2989      00
 2990 0b8d E8000000 		call	_ZN8UnitTest11TestDetailsC1ERKS0_i
 2990      00
 2991 0b92 E8000000 		call	_ZN8UnitTest11CurrentTest7ResultsEv
 2991      00
 2992 0b97 488B38   		movq	(%rax), %rdi
 2993 0b9a 488D7424 		leaq	48(%rsp), %rsi
 2993      30
 2994 0b9f BA000000 		movl	$.LC115, %edx
 2994      00
 2995 0ba4 E8000000 		call	_ZN8UnitTest11TestResults13OnTestFailureERKNS_11TestDetailsEPKc
 2995      00
 2996              	.LEHE8:
 2997              	.LEHB9:
 2998 0ba9 E8000000 		call	__cxa_end_catch
 2998      00
 2999              	.LEHE9:
 3000 0bae E93AFFFF 		jmp	.L172
 3000      FF
 3001              	.L187:
 3002 0bb3 4889C3   		movq	%rax, %rbx
 3003 0bb6 E8000000 		call	__cxa_end_catch
 3003      00
 3004 0bbb 4889DF   		movq	%rbx, %rdi
 3005              	.LEHB10:
 3006 0bbe E8000000 		call	_Unwind_Resume
 3006      00
 3007              	.LEHE10:
 3008              		.cfi_endproc
 3009              	.LFE1165:
 3010              		.globl	__gxx_personality_v0
 3011              		.section	.gcc_except_table,"a",@progbits
 3012              		.align 4
 3013              	.LLSDA1165:
 3014 0000 FF       		.byte	0xff
 3015 0001 03       		.byte	0x3
 3016 0002 49       		.uleb128 .LLSDATT1165-.LLSDATTD1165
 3017              	.LLSDATTD1165:
 3018 0003 01       		.byte	0x1
 3019 0004 3E       		.uleb128 .LLSDACSE1165-.LLSDACSB1165
 3020              	.LLSDACSB1165:
 3021 0005 CE01     		.uleb128 .LEHB0-.LFB1165
 3022 0007 23       		.uleb128 .LEHE0-.LEHB0
 3023 0008 F902     		.uleb128 .L182-.LFB1165
 3024 000a 00       		.uleb128 0
 3025 000b F401     		.uleb128 .LEHB1-.LFB1165
 3026 000d 05       		.uleb128 .LEHE1-.LEHB1
 3027 000e F901     		.uleb128 .L183-.LFB1165
 3028 0010 01       		.uleb128 0x1
 3029 0011 8102     		.uleb128 .LEHB2-.LFB1165
 3030 0013 2E       		.uleb128 .LEHE2-.LEHB2
 3031 0014 D903     		.uleb128 .L185-.LFB1165
 3032 0016 00       		.uleb128 0
 3033 0017 AF02     		.uleb128 .LEHB3-.LFB1165
 3034 0019 0D       		.uleb128 .LEHE3-.LEHB3
 3035 001a CC03     		.uleb128 .L184-.LFB1165
 3036 001c 00       		.uleb128 0
 3037 001d C102     		.uleb128 .LEHB4-.LFB1165
 3038 001f 05       		.uleb128 .LEHE4-.LEHB4
 3039 0020 F902     		.uleb128 .L182-.LFB1165
 3040 0022 00       		.uleb128 0
 3041 0023 D402     		.uleb128 .LEHB5-.LFB1165
 3042 0025 05       		.uleb128 .LEHE5-.LEHB5
 3043 0026 00       		.uleb128 0
 3044 0027 00       		.uleb128 0
 3045 0028 9203     		.uleb128 .LEHB6-.LFB1165
 3046 002a 05       		.uleb128 .LEHE6-.LEHB6
 3047 002b 00       		.uleb128 0
 3048 002c 00       		.uleb128 0
 3049 002d 9C03     		.uleb128 .LEHB7-.LFB1165
 3050 002f 2E       		.uleb128 .LEHE7-.LEHB7
 3051 0030 E303     		.uleb128 .L186-.LFB1165
 3052 0032 01       		.uleb128 0x1
 3053 0033 EB03     		.uleb128 .LEHB8-.LFB1165
 3054 0035 2E       		.uleb128 .LEHE8-.LEHB8
 3055 0036 A304     		.uleb128 .L187-.LFB1165
 3056 0038 00       		.uleb128 0
 3057 0039 9904     		.uleb128 .LEHB9-.LFB1165
 3058 003b 05       		.uleb128 .LEHE9-.LEHB9
 3059 003c 00       		.uleb128 0
 3060 003d 00       		.uleb128 0
 3061 003e AE04     		.uleb128 .LEHB10-.LFB1165
 3062 0040 05       		.uleb128 .LEHE10-.LEHB10
 3063 0041 00       		.uleb128 0
 3064 0042 00       		.uleb128 0
 3065              	.LLSDACSE1165:
 3066 0043 01       		.byte	0x1
 3067 0044 00       		.byte	0
 3068 0045 000000   		.align 4
 3069 0048 00000000 		.long	0
 3070              	
 3071              	.LLSDATT1165:
 3072              		.text
 3074              		.section	.text.unlikely
 3075              	.LCOLDE116:
 3076              		.text
 3077              	.LHOTE116:
 3078              		.section	.rodata.str1.1
 3079              	.LC117:
 3080 0017 66616C73 		.string	"false"
 3080      6500
 3081              		.section	.rodata.str1.8
 3082 005e 0000     		.align 8
 3083              	.LC118:
 3084 0060 556E6861 		.string	"Unhandled exception in CHECK(false)"
 3084      6E646C65 
 3084      64206578 
 3084      63657074 
 3084      696F6E20 
 3085 0084 00000000 		.align 8
 3086              	.LC119:
 3087 0088 556E6861 		.string	"Unhandled exception in CHECK_EQUAL(m_details.testName, reporter.lastFailedTest)"
 3087      6E646C65 
 3087      64206578 
 3087      63657074 
 3087      696F6E20 
 3088              		.section	.text.unlikely
 3089              		.align 2
 3090              	.LCOLDB120:
 3091              		.text
 3092              	.LHOTB120:
 3093 0bc3 90       		.align 2
 3094 0bc4 6690662E 		.p2align 4,,15
 3094      0F1F8400 
 3094      00000000 
 3096              	_ZNK12_GLOBAL__N_133TestFailureReportsCorrectTestName7RunImplEv:
 3097              	.LFB1156:
 3098              		.cfi_startproc
 3099              		.cfi_personality 0x3,__gxx_personality_v0
 3100              		.cfi_lsda 0x3,.LLSDA1156
 3101 0bd0 55       		pushq	%rbp
 3102              		.cfi_def_cfa_offset 16
 3103              		.cfi_offset 6, -16
 3104 0bd1 53       		pushq	%rbx
 3105              		.cfi_def_cfa_offset 24
 3106              		.cfi_offset 3, -24
 3107 0bd2 4889FD   		movq	%rdi, %rbp
 3108 0bd5 4881EC98 		subq	$2200, %rsp
 3108      080000
 3109              		.cfi_def_cfa_offset 2224
 3110 0bdc 488D5C24 		leaq	16(%rsp), %rbx
 3110      10
 3111 0be1 488D7424 		leaq	80(%rsp), %rsi
 3111      50
 3112 0be6 48C74424 		movq	$_ZTV17RecordingReporter+16, 80(%rsp)
 3112      50000000 
 3112      00
 3113 0bef 64488B04 		movq	%fs:40, %rax
 3113      25280000 
 3113      00
 3114 0bf8 48898424 		movq	%rax, 2184(%rsp)
 3114      88080000 
 3115 0c00 31C0     		xorl	%eax, %eax
 3116 0c02 4889DF   		movq	%rbx, %rdi
 3117 0c05 C7442458 		movl	$0, 88(%rsp)
 3117      00000000 
 3118 0c0d C784245C 		movl	$0, 604(%rsp)
 3118      02000000 
 3118      000000
 3119 0c18 C7842460 		movl	$0, 864(%rsp)
 3119      03000000 
 3119      000000
 3120 0c23 C7842464 		movl	$0, 1636(%rsp)
 3120      06000000 
 3120      000000
 3121 0c2e C7842468 		movl	$0x00000000, 2152(%rsp)
 3121      08000000 
 3121      000000
 3122 0c39 C784246C 		movl	$0, 2156(%rsp)
 3122      08000000 
 3122      000000
 3123 0c44 C7842470 		movl	$0, 2160(%rsp)
 3123      08000000 
 3123      000000
 3124 0c4f C7842474 		movl	$0, 2164(%rsp)
 3124      08000000 
 3124      000000
 3125 0c5a C7842478 		movl	$0x00000000, 2168(%rsp)
 3125      08000000 
 3125      000000
 3126 0c65 C644245C 		movb	$0, 92(%rsp)
 3126      00
 3127 0c6a C684245C 		movb	$0, 348(%rsp)
 3127      01000000 
 3128 0c72 C6842460 		movb	$0, 608(%rsp)
 3128      02000000 
 3129 0c7a C6842464 		movb	$0, 868(%rsp)
 3129      03000000 
 3130 0c82 C6842464 		movb	$0, 1124(%rsp)
 3130      04000000 
 3131 0c8a C6842464 		movb	$0, 1380(%rsp)
 3131      05000000 
 3132 0c92 C6842468 		movb	$0, 1640(%rsp)
 3132      06000000 
 3133 0c9a C6842468 		movb	$0, 1896(%rsp)
 3133      07000000 
 3134              	.LEHB11:
 3135 0ca2 E8000000 		call	_ZN8UnitTest11TestResultsC1EPNS_12TestReporterE
 3135      00
 3136 0ca7 E8000000 		call	_ZN8UnitTest11CurrentTest7ResultsEv
 3136      00
 3137 0cac 488B00   		movq	(%rax), %rax
 3138 0caf 48890424 		movq	%rax, (%rsp)
 3139 0cb3 E8000000 		call	_ZN8UnitTest11CurrentTest7DetailsEv
 3139      00
 3140 0cb8 488B00   		movq	(%rax), %rax
 3141 0cbb 48894424 		movq	%rax, 8(%rsp)
 3141      08
 3142 0cc0 E8000000 		call	_ZN8UnitTest11CurrentTest7ResultsEv
 3142      00
 3143              	.LEHE11:
 3144 0cc5 488918   		movq	%rbx, (%rax)
 3145              	.LEHB12:
 3146 0cc8 E8000000 		call	_ZN8UnitTest11CurrentTest7DetailsEv
 3146      00
 3147 0ccd 488D5C24 		leaq	48(%rsp), %rbx
 3147      30
 3148 0cd2 488B30   		movq	(%rax), %rsi
 3149 0cd5 BA2E0000 		movl	$46, %edx
 3149      00
 3150 0cda 4889DF   		movq	%rbx, %rdi
 3151 0cdd E8000000 		call	_ZN8UnitTest11TestDetailsC1ERKS0_i
 3151      00
 3152 0ce2 E8000000 		call	_ZN8UnitTest11CurrentTest7ResultsEv
 3152      00
 3153 0ce7 488B38   		movq	(%rax), %rdi
 3154 0cea BA000000 		movl	$.LC117, %edx
 3154      00
 3155 0cef 4889DE   		movq	%rbx, %rsi
 3156 0cf2 E8000000 		call	_ZN8UnitTest11TestResults13OnTestFailureERKNS_11TestDetailsEPKc
 3156      00
 3157              	.LEHE12:
 3158              	.L195:
 3159              	.LEHB13:
 3160 0cf7 E8000000 		call	_ZN8UnitTest11CurrentTest7ResultsEv
 3160      00
 3161 0cfc 488B1424 		movq	(%rsp), %rdx
 3162 0d00 488910   		movq	%rdx, (%rax)
 3163 0d03 E8000000 		call	_ZN8UnitTest11CurrentTest7DetailsEv
 3163      00
 3164              	.LEHE13:
 3165 0d08 488B5424 		movq	8(%rsp), %rdx
 3165      08
 3166 0d0d 488910   		movq	%rdx, (%rax)
 3167              	.LEHB14:
 3168 0d10 E8000000 		call	_ZN8UnitTest11CurrentTest7DetailsEv
 3168      00
 3169 0d15 488B30   		movq	(%rax), %rsi
 3170 0d18 BA310000 		movl	$49, %edx
 3170      00
 3171 0d1d 4889DF   		movq	%rbx, %rdi
 3172 0d20 E8000000 		call	_ZN8UnitTest11TestDetailsC1ERKS0_i
 3172      00
 3173 0d25 488B6D10 		movq	16(%rbp), %rbp
 3174 0d29 E8000000 		call	_ZN8UnitTest11CurrentTest7ResultsEv
 3174      00
 3175 0d2e 488B38   		movq	(%rax), %rdi
 3176 0d31 488D9424 		leaq	1124(%rsp), %rdx
 3176      64040000 
 3177 0d39 4889D9   		movq	%rbx, %rcx
 3178 0d3c 4889EE   		movq	%rbp, %rsi
 3179 0d3f E8000000 		call	_ZN8UnitTest10CheckEqualERNS_11TestResultsEPKcPcRKNS_11TestDetailsE
 3179      00
 3180              	.LEHE14:
 3181              	.L200:
 3182 0d44 488D7C24 		leaq	80(%rsp), %rdi
 3182      50
 3183 0d49 48C74424 		movq	$_ZTV17RecordingReporter+16, 80(%rsp)
 3183      50000000 
 3183      00
 3184              	.LEHB15:
 3185 0d52 E8000000 		call	_ZN8UnitTest12TestReporterD2Ev
 3185      00
 3186              	.LEHE15:
 3187 0d57 488B8424 		movq	2184(%rsp), %rax
 3187      88080000 
 3188 0d5f 64483304 		xorq	%fs:40, %rax
 3188      25280000 
 3188      00
 3189 0d68 750A     		jne	.L212
 3190 0d6a 4881C498 		addq	$2200, %rsp
 3190      080000
 3191              		.cfi_remember_state
 3192              		.cfi_def_cfa_offset 24
 3193 0d71 5B       		popq	%rbx
 3194              		.cfi_def_cfa_offset 16
 3195 0d72 5D       		popq	%rbp
 3196              		.cfi_def_cfa_offset 8
 3197 0d73 C3       		ret
 3198              	.L212:
 3199              		.cfi_restore_state
 3200 0d74 E8000000 		call	__stack_chk_fail
 3200      00
 3201              	.L207:
 3202 0d79 4889C7   		movq	%rax, %rdi
 3203 0d7c E8000000 		call	__cxa_begin_catch
 3203      00
 3204              	.LEHB16:
 3205 0d81 E8000000 		call	_ZN8UnitTest11CurrentTest7DetailsEv
 3205      00
 3206 0d86 488B30   		movq	(%rax), %rsi
 3207 0d89 BA310000 		movl	$49, %edx
 3207      00
 3208 0d8e 4889DF   		movq	%rbx, %rdi
 3209 0d91 E8000000 		call	_ZN8UnitTest11TestDetailsC1ERKS0_i
 3209      00
 3210 0d96 E8000000 		call	_ZN8UnitTest11CurrentTest7ResultsEv
 3210      00
 3211 0d9b 488B38   		movq	(%rax), %rdi
 3212 0d9e BA000000 		movl	$.LC119, %edx
 3212      00
 3213 0da3 4889DE   		movq	%rbx, %rsi
 3214 0da6 E8000000 		call	_ZN8UnitTest11TestResults13OnTestFailureERKNS_11TestDetailsEPKc
 3214      00
 3215              	.LEHE16:
 3216              	.LEHB17:
 3217 0dab E8000000 		call	__cxa_end_catch
 3217      00
 3218              	.LEHE17:
 3219 0db0 EB92     		jmp	.L200
 3220              	.L203:
 3221 0db2 4889C7   		movq	%rax, %rdi
 3222 0db5 E8000000 		call	__cxa_begin_catch
 3222      00
 3223              	.LEHB18:
 3224 0dba E8000000 		call	_ZN8UnitTest11CurrentTest7DetailsEv
 3224      00
 3225 0dbf 488D5C24 		leaq	48(%rsp), %rbx
 3225      30
 3226 0dc4 488B30   		movq	(%rax), %rsi
 3227 0dc7 BA2E0000 		movl	$46, %edx
 3227      00
 3228 0dcc 4889DF   		movq	%rbx, %rdi
 3229 0dcf E8000000 		call	_ZN8UnitTest11TestDetailsC1ERKS0_i
 3229      00
 3230 0dd4 E8000000 		call	_ZN8UnitTest11CurrentTest7ResultsEv
 3230      00
 3231 0dd9 488B38   		movq	(%rax), %rdi
 3232 0ddc BA000000 		movl	$.LC118, %edx
 3232      00
 3233 0de1 4889DE   		movq	%rbx, %rsi
 3234 0de4 E8000000 		call	_ZN8UnitTest11TestResults13OnTestFailureERKNS_11TestDetailsEPKc
 3234      00
 3235              	.LEHE18:
 3236              	.LEHB19:
 3237 0de9 E8000000 		call	__cxa_end_catch
 3237      00
 3238              	.LEHE19:
 3239 0dee E904FFFF 		jmp	.L195
 3239      FF
 3240              	.L206:
 3241 0df3 4889C3   		movq	%rax, %rbx
 3242              	.L198:
 3243 0df6 488D7C24 		leaq	80(%rsp), %rdi
 3243      50
 3244 0dfb 48C74424 		movq	$_ZTV17RecordingReporter+16, 80(%rsp)
 3244      50000000 
 3244      00
 3245 0e04 E8000000 		call	_ZN8UnitTest12TestReporterD2Ev
 3245      00
 3246 0e09 4889DF   		movq	%rbx, %rdi
 3247              	.LEHB20:
 3248 0e0c E8000000 		call	_Unwind_Resume
 3248      00
 3249              	.LEHE20:
 3250              	.L208:
 3251 0e11 4889C3   		movq	%rax, %rbx
 3252 0e14 E8000000 		call	__cxa_end_catch
 3252      00
 3253 0e19 EBDB     		jmp	.L198
 3254              	.L204:
 3255 0e1b 4889C3   		movq	%rax, %rbx
 3256              	.L197:
 3257 0e1e 4889E7   		movq	%rsp, %rdi
 3258 0e21 E8000000 		call	_ZN17ScopedCurrentTestD1Ev
 3258      00
 3259 0e26 EBCE     		jmp	.L198
 3260              	.L205:
 3261 0e28 4889C3   		movq	%rax, %rbx
 3262 0e2b E8000000 		call	__cxa_end_catch
 3262      00
 3263 0e30 EBEC     		jmp	.L197
 3264              		.cfi_endproc
 3265              	.LFE1156:
 3266              		.section	.gcc_except_table
 3267              		.align 4
 3268              	.LLSDA1156:
 3269 004c FF       		.byte	0xff
 3270 004d 03       		.byte	0x3
 3271 004e 45       		.uleb128 .LLSDATT1156-.LLSDATTD1156
 3272              	.LLSDATTD1156:
 3273 004f 01       		.byte	0x1
 3274 0050 3A       		.uleb128 .LLSDACSE1156-.LLSDACSB1156
 3275              	.LLSDACSB1156:
 3276 0051 D201     		.uleb128 .LEHB11-.LFB1156
 3277 0053 23       		.uleb128 .LEHE11-.LEHB11
 3278 0054 A304     		.uleb128 .L206-.LFB1156
 3279 0056 00       		.uleb128 0
 3280 0057 F801     		.uleb128 .LEHB12-.LFB1156
 3281 0059 2F       		.uleb128 .LEHE12-.LEHB12
 3282 005a E203     		.uleb128 .L203-.LFB1156
 3283 005c 01       		.uleb128 0x1
 3284 005d A702     		.uleb128 .LEHB13-.LFB1156
 3285 005f 11       		.uleb128 .LEHE13-.LEHB13
 3286 0060 A304     		.uleb128 .L206-.LFB1156
 3287 0062 00       		.uleb128 0
 3288 0063 C002     		.uleb128 .LEHB14-.LFB1156
 3289 0065 34       		.uleb128 .LEHE14-.LEHB14
 3290 0066 A903     		.uleb128 .L207-.LFB1156
 3291 0068 01       		.uleb128 0x1
 3292 0069 8203     		.uleb128 .LEHB15-.LFB1156
 3293 006b 05       		.uleb128 .LEHE15-.LEHB15
 3294 006c 00       		.uleb128 0
 3295 006d 00       		.uleb128 0
 3296 006e B103     		.uleb128 .LEHB16-.LFB1156
 3297 0070 2A       		.uleb128 .LEHE16-.LEHB16
 3298 0071 C104     		.uleb128 .L208-.LFB1156
 3299 0073 00       		.uleb128 0
 3300 0074 DB03     		.uleb128 .LEHB17-.LFB1156
 3301 0076 05       		.uleb128 .LEHE17-.LEHB17
 3302 0077 A304     		.uleb128 .L206-.LFB1156
 3303 0079 00       		.uleb128 0
 3304 007a EA03     		.uleb128 .LEHB18-.LFB1156
 3305 007c 2F       		.uleb128 .LEHE18-.LEHB18
 3306 007d D804     		.uleb128 .L205-.LFB1156
 3307 007f 00       		.uleb128 0
 3308 0080 9904     		.uleb128 .LEHB19-.LFB1156
 3309 0082 05       		.uleb128 .LEHE19-.LEHB19
 3310 0083 CB04     		.uleb128 .L204-.LFB1156
 3311 0085 00       		.uleb128 0
 3312 0086 BC04     		.uleb128 .LEHB20-.LFB1156
 3313 0088 05       		.uleb128 .LEHE20-.LEHB20
 3314 0089 00       		.uleb128 0
 3315 008a 00       		.uleb128 0
 3316              	.LLSDACSE1156:
 3317 008b 01       		.byte	0x1
 3318 008c 00       		.byte	0
 3319 008d 000000   		.align 4
 3320 0090 00000000 		.long	0
 3321              	
 3322              	.LLSDATT1156:
 3323              		.text
 3325              		.section	.text.unlikely
 3326              	.LCOLDE120:
 3327              		.text
 3328              	.LHOTE120:
 3329              		.section	.text.unlikely
 3330              		.align 2
 3331              	.LCOLDB121:
 3332              		.text
 3333              	.LHOTB121:
 3334              		.align 2
 3335 0e32 0F1F4000 		.p2align 4,,15
 3335      662E0F1F 
 3335      84000000 
 3335      0000
 3337              	_ZNK12_GLOBAL__N_121TestCheckFailsOnFalse7RunImplEv:
 3338              	.LFB1152:
 3339              		.cfi_startproc
 3340              		.cfi_personality 0x3,__gxx_personality_v0
 3341              		.cfi_lsda 0x3,.LLSDA1152
 3342 0e40 55       		pushq	%rbp
 3343              		.cfi_def_cfa_offset 16
 3344              		.cfi_offset 6, -16
 3345 0e41 53       		pushq	%rbx
 3346              		.cfi_def_cfa_offset 24
 3347              		.cfi_offset 3, -24
 3348 0e42 4881EC98 		subq	$2200, %rsp
 3348      080000
 3349              		.cfi_def_cfa_offset 2224
 3350 0e49 488D5C24 		leaq	16(%rsp), %rbx
 3350      10
 3351 0e4e 488D7424 		leaq	80(%rsp), %rsi
 3351      50
 3352 0e53 48C74424 		movq	$_ZTV17RecordingReporter+16, 80(%rsp)
 3352      50000000 
 3352      00
 3353 0e5c 64488B04 		movq	%fs:40, %rax
 3353      25280000 
 3353      00
 3354 0e65 48898424 		movq	%rax, 2184(%rsp)
 3354      88080000 
 3355 0e6d 31C0     		xorl	%eax, %eax
 3356 0e6f 4889DF   		movq	%rbx, %rdi
 3357 0e72 C7442458 		movl	$0, 88(%rsp)
 3357      00000000 
 3358 0e7a C784245C 		movl	$0, 604(%rsp)
 3358      02000000 
 3358      000000
 3359 0e85 C7842460 		movl	$0, 864(%rsp)
 3359      03000000 
 3359      000000
 3360 0e90 C7842464 		movl	$0, 1636(%rsp)
 3360      06000000 
 3360      000000
 3361 0e9b C7842468 		movl	$0x00000000, 2152(%rsp)
 3361      08000000 
 3361      000000
 3362 0ea6 C784246C 		movl	$0, 2156(%rsp)
 3362      08000000 
 3362      000000
 3363 0eb1 C7842470 		movl	$0, 2160(%rsp)
 3363      08000000 
 3363      000000
 3364 0ebc C7842474 		movl	$0, 2164(%rsp)
 3364      08000000 
 3364      000000
 3365 0ec7 C7842478 		movl	$0x00000000, 2168(%rsp)
 3365      08000000 
 3365      000000
 3366 0ed2 C644245C 		movb	$0, 92(%rsp)
 3366      00
 3367 0ed7 C684245C 		movb	$0, 348(%rsp)
 3367      01000000 
 3368 0edf C6842460 		movb	$0, 608(%rsp)
 3368      02000000 
 3369 0ee7 C6842464 		movb	$0, 868(%rsp)
 3369      03000000 
 3370 0eef C6842464 		movb	$0, 1124(%rsp)
 3370      04000000 
 3371 0ef7 C6842464 		movb	$0, 1380(%rsp)
 3371      05000000 
 3372 0eff C6842468 		movb	$0, 1640(%rsp)
 3372      06000000 
 3373 0f07 C6842468 		movb	$0, 1896(%rsp)
 3373      07000000 
 3374              	.LEHB21:
 3375 0f0f E8000000 		call	_ZN8UnitTest11TestResultsC1EPNS_12TestReporterE
 3375      00
 3376 0f14 E8000000 		call	_ZN8UnitTest11CurrentTest7ResultsEv
 3376      00
 3377 0f19 488B00   		movq	(%rax), %rax
 3378 0f1c 48890424 		movq	%rax, (%rsp)
 3379 0f20 E8000000 		call	_ZN8UnitTest11CurrentTest7DetailsEv
 3379      00
 3380 0f25 488B00   		movq	(%rax), %rax
 3381 0f28 48894424 		movq	%rax, 8(%rsp)
 3381      08
 3382 0f2d E8000000 		call	_ZN8UnitTest11CurrentTest7ResultsEv
 3382      00
 3383              	.LEHE21:
 3384 0f32 488918   		movq	%rbx, (%rax)
 3385              	.LEHB22:
 3386 0f35 E8000000 		call	_ZN8UnitTest11CurrentTest7DetailsEv
 3386      00
 3387 0f3a 488D6C24 		leaq	48(%rsp), %rbp
 3387      30
 3388 0f3f 488B30   		movq	(%rax), %rsi
 3389 0f42 BA210000 		movl	$33, %edx
 3389      00
 3390 0f47 4889EF   		movq	%rbp, %rdi
 3391 0f4a E8000000 		call	_ZN8UnitTest11TestDetailsC1ERKS0_i
 3391      00
 3392 0f4f E8000000 		call	_ZN8UnitTest11CurrentTest7ResultsEv
 3392      00
 3393 0f54 488B38   		movq	(%rax), %rdi
 3394 0f57 BA000000 		movl	$.LC117, %edx
 3394      00
 3395 0f5c 4889EE   		movq	%rbp, %rsi
 3396 0f5f E8000000 		call	_ZN8UnitTest11TestResults13OnTestFailureERKNS_11TestDetailsEPKc
 3396      00
 3397              	.LEHE22:
 3398              	.L216:
 3399 0f64 4889DF   		movq	%rbx, %rdi
 3400              	.LEHB23:
 3401 0f67 E8000000 		call	_ZNK8UnitTest11TestResults15GetFailureCountEv
 3401      00
 3402              	.LEHE23:
 3403 0f6c 89C3     		movl	%eax, %ebx
 3404              	.LEHB24:
 3405 0f6e E8000000 		call	_ZN8UnitTest11CurrentTest7ResultsEv
 3405      00
 3406 0f73 488B1424 		movq	(%rsp), %rdx
 3407 0f77 488910   		movq	%rdx, (%rax)
 3408 0f7a E8000000 		call	_ZN8UnitTest11CurrentTest7DetailsEv
 3408      00
 3409              	.LEHE24:
 3410 0f7f 488B5424 		movq	8(%rsp), %rdx
 3410      08
 3411 0f84 488D7C24 		leaq	80(%rsp), %rdi
 3411      50
 3412 0f89 488910   		movq	%rdx, (%rax)
 3413 0f8c 48C74424 		movq	$_ZTV17RecordingReporter+16, 80(%rsp)
 3413      50000000 
 3413      00
 3414              	.LEHB25:
 3415 0f95 E8000000 		call	_ZN8UnitTest12TestReporterD2Ev
 3415      00
 3416              	.LEHE25:
 3417 0f9a 85DB     		testl	%ebx, %ebx
 3418 0f9c 7E22     		jle	.L230
 3419              	.L213:
 3420 0f9e 488B8424 		movq	2184(%rsp), %rax
 3420      88080000 
 3421 0fa6 64483304 		xorq	%fs:40, %rax
 3421      25280000 
 3421      00
 3422 0faf 753B     		jne	.L231
 3423 0fb1 4881C498 		addq	$2200, %rsp
 3423      080000
 3424              		.cfi_remember_state
 3425              		.cfi_def_cfa_offset 24
 3426 0fb8 5B       		popq	%rbx
 3427              		.cfi_def_cfa_offset 16
 3428 0fb9 5D       		popq	%rbp
 3429              		.cfi_def_cfa_offset 8
 3430 0fba C3       		ret
 3431 0fbb 0F1F4400 		.p2align 4,,10
 3431      00
 3432              		.p2align 3
 3433              	.L230:
 3434              		.cfi_restore_state
 3435              	.LEHB26:
 3436 0fc0 E8000000 		call	_ZN8UnitTest11CurrentTest7DetailsEv
 3436      00
 3437 0fc5 488B30   		movq	(%rax), %rsi
 3438 0fc8 BA250000 		movl	$37, %edx
 3438      00
 3439 0fcd 4889EF   		movq	%rbp, %rdi
 3440 0fd0 E8000000 		call	_ZN8UnitTest11TestDetailsC1ERKS0_i
 3440      00
 3441 0fd5 E8000000 		call	_ZN8UnitTest11CurrentTest7ResultsEv
 3441      00
 3442 0fda 488B38   		movq	(%rax), %rdi
 3443 0fdd BA000000 		movl	$.LC113, %edx
 3443      00
 3444 0fe2 4889EE   		movq	%rbp, %rsi
 3445 0fe5 E8000000 		call	_ZN8UnitTest11TestResults13OnTestFailureERKNS_11TestDetailsEPKc
 3445      00
 3446              	.LEHE26:
 3447 0fea EBB2     		jmp	.L213
 3448              	.L231:
 3449 0fec E8000000 		call	__stack_chk_fail
 3449      00
 3450              	.L227:
 3451 0ff1 4889C7   		movq	%rax, %rdi
 3452 0ff4 E8000000 		call	__cxa_begin_catch
 3452      00
 3453              	.LEHB27:
 3454 0ff9 E8000000 		call	_ZN8UnitTest11CurrentTest7DetailsEv
 3454      00
 3455 0ffe 488B30   		movq	(%rax), %rsi
 3456 1001 BA250000 		movl	$37, %edx
 3456      00
 3457 1006 4889EF   		movq	%rbp, %rdi
 3458 1009 E8000000 		call	_ZN8UnitTest11TestDetailsC1ERKS0_i
 3458      00
 3459 100e E8000000 		call	_ZN8UnitTest11CurrentTest7ResultsEv
 3459      00
 3460 1013 488B38   		movq	(%rax), %rdi
 3461 1016 BA000000 		movl	$.LC115, %edx
 3461      00
 3462 101b 4889EE   		movq	%rbp, %rsi
 3463 101e E8000000 		call	_ZN8UnitTest11TestResults13OnTestFailureERKNS_11TestDetailsEPKc
 3463      00
 3464              	.LEHE27:
 3465              	.LEHB28:
 3466 1023 E8000000 		call	__cxa_end_catch
 3466      00
 3467              	.LEHE28:
 3468 1028 E971FFFF 		jmp	.L213
 3468      FF
 3469              	.L225:
 3470 102d 4889C3   		movq	%rax, %rbx
 3471              	.L218:
 3472 1030 4889E7   		movq	%rsp, %rdi
 3473 1033 E8000000 		call	_ZN17ScopedCurrentTestD1Ev
 3473      00
 3474              	.L219:
 3475 1038 488D7C24 		leaq	80(%rsp), %rdi
 3475      50
 3476 103d 48C74424 		movq	$_ZTV17RecordingReporter+16, 80(%rsp)
 3476      50000000 
 3476      00
 3477 1046 E8000000 		call	_ZN8UnitTest12TestReporterD2Ev
 3477      00
 3478 104b 4889DF   		movq	%rbx, %rdi
 3479              	.LEHB29:
 3480 104e E8000000 		call	_Unwind_Resume
 3480      00
 3481              	.LEHE29:
 3482              	.L228:
 3483 1053 4889C3   		movq	%rax, %rbx
 3484 1056 E8000000 		call	__cxa_end_catch
 3484      00
 3485 105b 4889DF   		movq	%rbx, %rdi
 3486              	.LEHB30:
 3487 105e E8000000 		call	_Unwind_Resume
 3487      00
 3488              	.LEHE30:
 3489              	.L224:
 3490 1063 4889C7   		movq	%rax, %rdi
 3491 1066 E8000000 		call	__cxa_begin_catch
 3491      00
 3492              	.LEHB31:
 3493 106b E8000000 		call	_ZN8UnitTest11CurrentTest7DetailsEv
 3493      00
 3494 1070 488D6C24 		leaq	48(%rsp), %rbp
 3494      30
 3495 1075 488B30   		movq	(%rax), %rsi
 3496 1078 BA210000 		movl	$33, %edx
 3496      00
 3497 107d 4889EF   		movq	%rbp, %rdi
 3498 1080 E8000000 		call	_ZN8UnitTest11TestDetailsC1ERKS0_i
 3498      00
 3499 1085 E8000000 		call	_ZN8UnitTest11CurrentTest7ResultsEv
 3499      00
 3500 108a 488B38   		movq	(%rax), %rdi
 3501 108d BA000000 		movl	$.LC118, %edx
 3501      00
 3502 1092 4889EE   		movq	%rbp, %rsi
 3503 1095 E8000000 		call	_ZN8UnitTest11TestResults13OnTestFailureERKNS_11TestDetailsEPKc
 3503      00
 3504              	.LEHE31:
 3505              	.LEHB32:
 3506 109a E8000000 		call	__cxa_end_catch
 3506      00
 3507              	.LEHE32:
 3508 109f E9C0FEFF 		jmp	.L216
 3508      FF
 3509              	.L223:
 3510 10a4 4889C3   		movq	%rax, %rbx
 3511 10a7 EB8F     		jmp	.L219
 3512              	.L226:
 3513 10a9 4889C3   		movq	%rax, %rbx
 3514 10ac E8000000 		call	__cxa_end_catch
 3514      00
 3515 10b1 E97AFFFF 		jmp	.L218
 3515      FF
 3516              		.cfi_endproc
 3517              	.LFE1152:
 3518              		.section	.gcc_except_table
 3519              		.align 4
 3520              	.LLSDA1152:
 3521 0094 FF       		.byte	0xff
 3522 0095 03       		.byte	0x3
 3523 0096 4D       		.uleb128 .LLSDATT1152-.LLSDATTD1152
 3524              	.LLSDATTD1152:
 3525 0097 01       		.byte	0x1
 3526 0098 44       		.uleb128 .LLSDACSE1152-.LLSDACSB1152
 3527              	.LLSDACSB1152:
 3528 0099 CF01     		.uleb128 .LEHB21-.LFB1152
 3529 009b 23       		.uleb128 .LEHE21-.LEHB21
 3530 009c E404     		.uleb128 .L223-.LFB1152
 3531 009e 00       		.uleb128 0
 3532 009f F501     		.uleb128 .LEHB22-.LFB1152
 3533 00a1 2F       		.uleb128 .LEHE22-.LEHB22
 3534 00a2 A304     		.uleb128 .L224-.LFB1152
 3535 00a4 01       		.uleb128 0x1
 3536 00a5 A702     		.uleb128 .LEHB23-.LFB1152
 3537 00a7 05       		.uleb128 .LEHE23-.LEHB23
 3538 00a8 ED03     		.uleb128 .L225-.LFB1152
 3539 00aa 00       		.uleb128 0
 3540 00ab AE02     		.uleb128 .LEHB24-.LFB1152
 3541 00ad 11       		.uleb128 .LEHE24-.LEHB24
 3542 00ae E404     		.uleb128 .L223-.LFB1152
 3543 00b0 00       		.uleb128 0
 3544 00b1 D502     		.uleb128 .LEHB25-.LFB1152
 3545 00b3 05       		.uleb128 .LEHE25-.LEHB25
 3546 00b4 00       		.uleb128 0
 3547 00b5 00       		.uleb128 0
 3548 00b6 8003     		.uleb128 .LEHB26-.LFB1152
 3549 00b8 2A       		.uleb128 .LEHE26-.LEHB26
 3550 00b9 B103     		.uleb128 .L227-.LFB1152
 3551 00bb 01       		.uleb128 0x1
 3552 00bc B903     		.uleb128 .LEHB27-.LFB1152
 3553 00be 2A       		.uleb128 .LEHE27-.LEHB27
 3554 00bf 9304     		.uleb128 .L228-.LFB1152
 3555 00c1 00       		.uleb128 0
 3556 00c2 E303     		.uleb128 .LEHB28-.LFB1152
 3557 00c4 05       		.uleb128 .LEHE28-.LEHB28
 3558 00c5 00       		.uleb128 0
 3559 00c6 00       		.uleb128 0
 3560 00c7 8E04     		.uleb128 .LEHB29-.LFB1152
 3561 00c9 05       		.uleb128 .LEHE29-.LEHB29
 3562 00ca 00       		.uleb128 0
 3563 00cb 00       		.uleb128 0
 3564 00cc 9E04     		.uleb128 .LEHB30-.LFB1152
 3565 00ce 05       		.uleb128 .LEHE30-.LEHB30
 3566 00cf 00       		.uleb128 0
 3567 00d0 00       		.uleb128 0
 3568 00d1 AB04     		.uleb128 .LEHB31-.LFB1152
 3569 00d3 2F       		.uleb128 .LEHE31-.LEHB31
 3570 00d4 E904     		.uleb128 .L226-.LFB1152
 3571 00d6 00       		.uleb128 0
 3572 00d7 DA04     		.uleb128 .LEHB32-.LFB1152
 3573 00d9 05       		.uleb128 .LEHE32-.LEHB32
 3574 00da ED03     		.uleb128 .L225-.LFB1152
 3575 00dc 00       		.uleb128 0
 3576              	.LLSDACSE1152:
 3577 00dd 01       		.byte	0x1
 3578 00de 00       		.byte	0
 3579 00df 00       		.align 4
 3580 00e0 00000000 		.long	0
 3581              	
 3582              	.LLSDATT1152:
 3583              		.text
 3585              		.section	.text.unlikely
 3586              	.LCOLDE121:
 3587              		.text
 3588              	.LHOTE121:
 3589              		.section	.rodata.str1.1
 3590              	.LC122:
 3591 001d 21666169 		.string	"!failure"
 3591      6C757265 
 3591      00
 3592              		.section	.rodata.str1.8
 3593              		.align 8
 3594              	.LC123:
 3595 00d8 556E6861 		.string	"Unhandled exception in CHECK(!failure)"
 3595      6E646C65 
 3595      64206578 
 3595      63657074 
 3595      696F6E20 
 3596              		.section	.text.unlikely
 3597              		.align 2
 3598              	.LCOLDB124:
 3599              		.text
 3600              	.LHOTB124:
 3601              		.align 2
 3602 10b6 662E0F1F 		.p2align 4,,15
 3602      84000000 
 3602      0000
 3604              	_ZNK12_GLOBAL__N_123TestCheckSucceedsOnTrue7RunImplEv:
 3605              	.LFB1148:
 3606              		.cfi_startproc
 3607              		.cfi_personality 0x3,__gxx_personality_v0
 3608              		.cfi_lsda 0x3,.LLSDA1148
 3609 10c0 55       		pushq	%rbp
 3610              		.cfi_def_cfa_offset 16
 3611              		.cfi_offset 6, -16
 3612 10c1 53       		pushq	%rbx
 3613              		.cfi_def_cfa_offset 24
 3614              		.cfi_offset 3, -24
 3615 10c2 4881EC78 		subq	$2168, %rsp
 3615      080000
 3616              		.cfi_def_cfa_offset 2192
 3617 10c9 488D5C24 		leaq	16(%rsp), %rbx
 3617      10
 3618 10ce 488D7424 		leaq	48(%rsp), %rsi
 3618      30
 3619 10d3 48C74424 		movq	$_ZTV17RecordingReporter+16, 48(%rsp)
 3619      30000000 
 3619      00
 3620 10dc 64488B04 		movq	%fs:40, %rax
 3620      25280000 
 3620      00
 3621 10e5 48898424 		movq	%rax, 2152(%rsp)
 3621      68080000 
 3622 10ed 31C0     		xorl	%eax, %eax
 3623 10ef 4889DF   		movq	%rbx, %rdi
 3624 10f2 C7442438 		movl	$0, 56(%rsp)
 3624      00000000 
 3625 10fa C784243C 		movl	$0, 572(%rsp)
 3625      02000000 
 3625      000000
 3626 1105 C7842440 		movl	$0, 832(%rsp)
 3626      03000000 
 3626      000000
 3627 1110 C7842444 		movl	$0, 1604(%rsp)
 3627      06000000 
 3627      000000
 3628 111b C7842448 		movl	$0x00000000, 2120(%rsp)
 3628      08000000 
 3628      000000
 3629 1126 C784244C 		movl	$0, 2124(%rsp)
 3629      08000000 
 3629      000000
 3630 1131 C7842450 		movl	$0, 2128(%rsp)
 3630      08000000 
 3630      000000
 3631 113c C7842454 		movl	$0, 2132(%rsp)
 3631      08000000 
 3631      000000
 3632 1147 C7842458 		movl	$0x00000000, 2136(%rsp)
 3632      08000000 
 3632      000000
 3633 1152 C644243C 		movb	$0, 60(%rsp)
 3633      00
 3634 1157 C684243C 		movb	$0, 316(%rsp)
 3634      01000000 
 3635 115f C6842440 		movb	$0, 576(%rsp)
 3635      02000000 
 3636 1167 C6842444 		movb	$0, 836(%rsp)
 3636      03000000 
 3637 116f C6842444 		movb	$0, 1092(%rsp)
 3637      04000000 
 3638 1177 C6842444 		movb	$0, 1348(%rsp)
 3638      05000000 
 3639 117f C6842448 		movb	$0, 1608(%rsp)
 3639      06000000 
 3640 1187 C6842448 		movb	$0, 1864(%rsp)
 3640      07000000 
 3641              	.LEHB33:
 3642 118f E8000000 		call	_ZN8UnitTest11TestResultsC1EPNS_12TestReporterE
 3642      00
 3643 1194 E8000000 		call	_ZN8UnitTest11CurrentTest7ResultsEv
 3643      00
 3644 1199 488B00   		movq	(%rax), %rax
 3645 119c 48890424 		movq	%rax, (%rsp)
 3646 11a0 E8000000 		call	_ZN8UnitTest11CurrentTest7DetailsEv
 3646      00
 3647 11a5 488B00   		movq	(%rax), %rax
 3648 11a8 48894424 		movq	%rax, 8(%rsp)
 3648      08
 3649 11ad E8000000 		call	_ZN8UnitTest11CurrentTest7ResultsEv
 3649      00
 3650              	.LEHE33:
 3651 11b2 488918   		movq	%rbx, (%rax)
 3652 11b5 4889DF   		movq	%rbx, %rdi
 3653              	.LEHB34:
 3654 11b8 E8000000 		call	_ZNK8UnitTest11TestResults15GetFailureCountEv
 3654      00
 3655              	.LEHE34:
 3656 11bd 89C5     		movl	%eax, %ebp
 3657              	.LEHB35:
 3658 11bf E8000000 		call	_ZN8UnitTest11CurrentTest7ResultsEv
 3658      00
 3659 11c4 488B1424 		movq	(%rsp), %rdx
 3660 11c8 488910   		movq	%rdx, (%rax)
 3661 11cb E8000000 		call	_ZN8UnitTest11CurrentTest7DetailsEv
 3661      00
 3662              	.LEHE35:
 3663 11d0 488B5424 		movq	8(%rsp), %rdx
 3663      08
 3664 11d5 488D7C24 		leaq	48(%rsp), %rdi
 3664      30
 3665 11da 488910   		movq	%rdx, (%rax)
 3666 11dd 48C74424 		movq	$_ZTV17RecordingReporter+16, 48(%rsp)
 3666      30000000 
 3666      00
 3667              	.LEHB36:
 3668 11e6 E8000000 		call	_ZN8UnitTest12TestReporterD2Ev
 3668      00
 3669              	.LEHE36:
 3670 11eb 85ED     		testl	%ebp, %ebp
 3671 11ed 7E2A     		jle	.L232
 3672              	.LEHB37:
 3673 11ef E8000000 		call	_ZN8UnitTest11CurrentTest7DetailsEv
 3673      00
 3674 11f4 488B30   		movq	(%rax), %rsi
 3675 11f7 BA170000 		movl	$23, %edx
 3675      00
 3676 11fc 4889DF   		movq	%rbx, %rdi
 3677 11ff E8000000 		call	_ZN8UnitTest11TestDetailsC1ERKS0_i
 3677      00
 3678 1204 E8000000 		call	_ZN8UnitTest11CurrentTest7ResultsEv
 3678      00
 3679 1209 488B38   		movq	(%rax), %rdi
 3680 120c BA000000 		movl	$.LC122, %edx
 3680      00
 3681 1211 4889DE   		movq	%rbx, %rsi
 3682 1214 E8000000 		call	_ZN8UnitTest11TestResults13OnTestFailureERKNS_11TestDetailsEPKc
 3682      00
 3683              	.LEHE37:
 3684              	.L232:
 3685 1219 488B8424 		movq	2152(%rsp), %rax
 3685      68080000 
 3686 1221 64483304 		xorq	%fs:40, %rax
 3686      25280000 
 3686      00
 3687 122a 750A     		jne	.L244
 3688 122c 4881C478 		addq	$2168, %rsp
 3688      080000
 3689              		.cfi_remember_state
 3690              		.cfi_def_cfa_offset 24
 3691 1233 5B       		popq	%rbx
 3692              		.cfi_def_cfa_offset 16
 3693 1234 5D       		popq	%rbp
 3694              		.cfi_def_cfa_offset 8
 3695 1235 C3       		ret
 3696              	.L244:
 3697              		.cfi_restore_state
 3698 1236 E8000000 		call	__stack_chk_fail
 3698      00
 3699              	.L241:
 3700 123b 4889C7   		movq	%rax, %rdi
 3701 123e E8000000 		call	__cxa_begin_catch
 3701      00
 3702              	.LEHB38:
 3703 1243 E8000000 		call	_ZN8UnitTest11CurrentTest7DetailsEv
 3703      00
 3704 1248 488B30   		movq	(%rax), %rsi
 3705 124b BA170000 		movl	$23, %edx
 3705      00
 3706 1250 4889DF   		movq	%rbx, %rdi
 3707 1253 E8000000 		call	_ZN8UnitTest11TestDetailsC1ERKS0_i
 3707      00
 3708 1258 E8000000 		call	_ZN8UnitTest11CurrentTest7ResultsEv
 3708      00
 3709 125d 488B38   		movq	(%rax), %rdi
 3710 1260 BA000000 		movl	$.LC123, %edx
 3710      00
 3711 1265 4889DE   		movq	%rbx, %rsi
 3712 1268 E8000000 		call	_ZN8UnitTest11TestResults13OnTestFailureERKNS_11TestDetailsEPKc
 3712      00
 3713              	.LEHE38:
 3714              	.LEHB39:
 3715 126d E8000000 		call	__cxa_end_catch
 3715      00
 3716              	.LEHE39:
 3717 1272 EBA5     		jmp	.L232
 3718              	.L240:
 3719 1274 4889E7   		movq	%rsp, %rdi
 3720 1277 4889C3   		movq	%rax, %rbx
 3721 127a E8000000 		call	_ZN17ScopedCurrentTestD1Ev
 3721      00
 3722              	.L235:
 3723 127f 488D7C24 		leaq	48(%rsp), %rdi
 3723      30
 3724 1284 48C74424 		movq	$_ZTV17RecordingReporter+16, 48(%rsp)
 3724      30000000 
 3724      00
 3725 128d E8000000 		call	_ZN8UnitTest12TestReporterD2Ev
 3725      00
 3726 1292 4889DF   		movq	%rbx, %rdi
 3727              	.LEHB40:
 3728 1295 E8000000 		call	_Unwind_Resume
 3728      00
 3729              	.LEHE40:
 3730              	.L239:
 3731 129a 4889C3   		movq	%rax, %rbx
 3732 129d EBE0     		jmp	.L235
 3733              	.L242:
 3734 129f 4889C3   		movq	%rax, %rbx
 3735 12a2 E8000000 		call	__cxa_end_catch
 3735      00
 3736 12a7 4889DF   		movq	%rbx, %rdi
 3737              	.LEHB41:
 3738 12aa E8000000 		call	_Unwind_Resume
 3738      00
 3739              	.LEHE41:
 3740              		.cfi_endproc
 3741              	.LFE1148:
 3742              		.section	.gcc_except_table
 3743              		.align 4
 3744              	.LLSDA1148:
 3745 00e4 FF       		.byte	0xff
 3746 00e5 03       		.byte	0x3
 3747 00e6 3D       		.uleb128 .LLSDATT1148-.LLSDATTD1148
 3748              	.LLSDATTD1148:
 3749 00e7 01       		.byte	0x1
 3750 00e8 32       		.uleb128 .LLSDACSE1148-.LLSDACSB1148
 3751              	.LLSDACSB1148:
 3752 00e9 CF01     		.uleb128 .LEHB33-.LFB1148
 3753 00eb 23       		.uleb128 .LEHE33-.LEHB33
 3754 00ec DA03     		.uleb128 .L239-.LFB1148
 3755 00ee 00       		.uleb128 0
 3756 00ef F801     		.uleb128 .LEHB34-.LFB1148
 3757 00f1 05       		.uleb128 .LEHE34-.LEHB34
 3758 00f2 B403     		.uleb128 .L240-.LFB1148
 3759 00f4 00       		.uleb128 0
 3760 00f5 FF01     		.uleb128 .LEHB35-.LFB1148
 3761 00f7 11       		.uleb128 .LEHE35-.LEHB35
 3762 00f8 DA03     		.uleb128 .L239-.LFB1148
 3763 00fa 00       		.uleb128 0
 3764 00fb A602     		.uleb128 .LEHB36-.LFB1148
 3765 00fd 05       		.uleb128 .LEHE36-.LEHB36
 3766 00fe 00       		.uleb128 0
 3767 00ff 00       		.uleb128 0
 3768 0100 AF02     		.uleb128 .LEHB37-.LFB1148
 3769 0102 2A       		.uleb128 .LEHE37-.LEHB37
 3770 0103 FB02     		.uleb128 .L241-.LFB1148
 3771 0105 01       		.uleb128 0x1
 3772 0106 8303     		.uleb128 .LEHB38-.LFB1148
 3773 0108 2A       		.uleb128 .LEHE38-.LEHB38
 3774 0109 DF03     		.uleb128 .L242-.LFB1148
 3775 010b 00       		.uleb128 0
 3776 010c AD03     		.uleb128 .LEHB39-.LFB1148
 3777 010e 05       		.uleb128 .LEHE39-.LEHB39
 3778 010f 00       		.uleb128 0
 3779 0110 00       		.uleb128 0
 3780 0111 D503     		.uleb128 .LEHB40-.LFB1148
 3781 0113 05       		.uleb128 .LEHE40-.LEHB40
 3782 0114 00       		.uleb128 0
 3783 0115 00       		.uleb128 0
 3784 0116 EA03     		.uleb128 .LEHB41-.LFB1148
 3785 0118 05       		.uleb128 .LEHE41-.LEHB41
 3786 0119 00       		.uleb128 0
 3787 011a 00       		.uleb128 0
 3788              	.LLSDACSE1148:
 3789 011b 01       		.byte	0x1
 3790 011c 00       		.byte	0
 3791 011d 000000   		.align 4
 3792 0120 00000000 		.long	0
 3793              	
 3794              	.LLSDATT1148:
 3795              		.text
 3797              		.section	.text.unlikely
 3798              	.LCOLDE124:
 3799              		.text
 3800              	.LHOTE124:
 3801              		.section	.rodata.str1.1
 3802              	.LC125:
 3803 0026 5468726F 		.string	"ThrowingFunction() == 1"
 3803      77696E67 
 3803      46756E63 
 3803      74696F6E 
 3803      2829203D 
 3804              		.section	.rodata.str1.8
 3805 00ff 00       		.align 8
 3806              	.LC126:
 3807 0100 73747273 		.string	"strstr(reporter.lastFailedMessage, \"ThrowingFunction() == 1\")"
 3807      74722872 
 3807      65706F72 
 3807      7465722E 
 3807      6C617374 
 3808 013e 0000     		.align 8
 3809              	.LC127:
 3810 0140 556E6861 		.string	"Unhandled exception in CHECK(strstr(reporter.lastFailedMessage, \"ThrowingFunction() == 1
 3810      6E646C65 
 3810      64206578 
 3810      63657074 
 3810      696F6E20 
 3811              		.section	.text.unlikely
 3812              		.align 2
 3813              	.LCOLDB128:
 3814              		.text
 3815              	.LHOTB128:
 3816 12af 90       		.align 2
 3817              		.p2align 4,,15
 3819              	_ZNK12_GLOBAL__N_155TestCheckFailureBecauseOfExceptionIncludesCheckContents7RunImplEv:
 3820              	.LFB1169:
 3821              		.cfi_startproc
 3822              		.cfi_personality 0x3,__gxx_personality_v0
 3823              		.cfi_lsda 0x3,.LLSDA1169
 3824 12b0 53       		pushq	%rbx
 3825              		.cfi_def_cfa_offset 16
 3826              		.cfi_offset 3, -16
 3827 12b1 4881EC90 		subq	$2192, %rsp
 3827      080000
 3828              		.cfi_def_cfa_offset 2208
 3829 12b8 488D5C24 		leaq	16(%rsp), %rbx
 3829      10
 3830 12bd 488D7424 		leaq	80(%rsp), %rsi
 3830      50
 3831 12c2 48C74424 		movq	$_ZTV17RecordingReporter+16, 80(%rsp)
 3831      50000000 
 3831      00
 3832 12cb 64488B04 		movq	%fs:40, %rax
 3832      25280000 
 3832      00
 3833 12d4 48898424 		movq	%rax, 2184(%rsp)
 3833      88080000 
 3834 12dc 31C0     		xorl	%eax, %eax
 3835 12de 4889DF   		movq	%rbx, %rdi
 3836 12e1 C7442458 		movl	$0, 88(%rsp)
 3836      00000000 
 3837 12e9 C784245C 		movl	$0, 604(%rsp)
 3837      02000000 
 3837      000000
 3838 12f4 C7842460 		movl	$0, 864(%rsp)
 3838      03000000 
 3838      000000
 3839 12ff C7842464 		movl	$0, 1636(%rsp)
 3839      06000000 
 3839      000000
 3840 130a C7842468 		movl	$0x00000000, 2152(%rsp)
 3840      08000000 
 3840      000000
 3841 1315 C784246C 		movl	$0, 2156(%rsp)
 3841      08000000 
 3841      000000
 3842 1320 C7842470 		movl	$0, 2160(%rsp)
 3842      08000000 
 3842      000000
 3843 132b C7842474 		movl	$0, 2164(%rsp)
 3843      08000000 
 3843      000000
 3844 1336 C7842478 		movl	$0x00000000, 2168(%rsp)
 3844      08000000 
 3844      000000
 3845 1341 C644245C 		movb	$0, 92(%rsp)
 3845      00
 3846 1346 C684245C 		movb	$0, 348(%rsp)
 3846      01000000 
 3847 134e C6842460 		movb	$0, 608(%rsp)
 3847      02000000 
 3848 1356 C6842464 		movb	$0, 868(%rsp)
 3848      03000000 
 3849 135e C6842464 		movb	$0, 1124(%rsp)
 3849      04000000 
 3850 1366 C6842464 		movb	$0, 1380(%rsp)
 3850      05000000 
 3851 136e C6842468 		movb	$0, 1640(%rsp)
 3851      06000000 
 3852 1376 C6842468 		movb	$0, 1896(%rsp)
 3852      07000000 
 3853              	.LEHB42:
 3854 137e E8000000 		call	_ZN8UnitTest11TestResultsC1EPNS_12TestReporterE
 3854      00
 3855 1383 E8000000 		call	_ZN8UnitTest11CurrentTest7ResultsEv
 3855      00
 3856 1388 488B00   		movq	(%rax), %rax
 3857 138b 48890424 		movq	%rax, (%rsp)
 3858 138f E8000000 		call	_ZN8UnitTest11CurrentTest7DetailsEv
 3858      00
 3859 1394 488B00   		movq	(%rax), %rax
 3860 1397 48894424 		movq	%rax, 8(%rsp)
 3860      08
 3861 139c E8000000 		call	_ZN8UnitTest11CurrentTest7ResultsEv
 3861      00
 3862              	.LEHE42:
 3863 13a1 488918   		movq	%rbx, (%rax)
 3864              	.LEHB43:
 3865 13a4 E857F5FF 		call	_ZN12_GLOBAL__N_116ThrowingFunctionEv
 3865      FF
 3866              	.LEHE43:
 3867              	.L257:
 3868 13a9 4889C7   		movq	%rax, %rdi
 3869 13ac E8000000 		call	__cxa_begin_catch
 3869      00
 3870              	.LEHB44:
 3871 13b1 E8000000 		call	_ZN8UnitTest11CurrentTest7DetailsEv
 3871      00
 3872 13b6 488B30   		movq	(%rax), %rsi
 3873 13b9 488D7C24 		leaq	48(%rsp), %rdi
 3873      30
 3874 13be BA5A0000 		movl	$90, %edx
 3874      00
 3875 13c3 E8000000 		call	_ZN8UnitTest11TestDetailsC1ERKS0_i
 3875      00
 3876 13c8 E8000000 		call	_ZN8UnitTest11CurrentTest7ResultsEv
 3876      00
 3877 13cd 488B38   		movq	(%rax), %rdi
 3878 13d0 488D7424 		leaq	48(%rsp), %rsi
 3878      30
 3879 13d5 BA000000 		movl	$.LC114, %edx
 3879      00
 3880 13da E8000000 		call	_ZN8UnitTest11TestResults13OnTestFailureERKNS_11TestDetailsEPKc
 3880      00
 3881              	.LEHE44:
 3882              	.LEHB45:
 3883 13df E8000000 		call	__cxa_end_catch
 3883      00
 3884              	.LEHE45:
 3885 13e4 4889E7   		movq	%rsp, %rdi
 3886              	.LEHB46:
 3887 13e7 E8000000 		call	_ZN17ScopedCurrentTestD1Ev
 3887      00
 3888              	.LEHE46:
 3889 13ec 488DBC24 		leaq	1380(%rsp), %rdi
 3889      64050000 
 3890 13f4 BE000000 		movl	$.LC125, %esi
 3890      00
 3891 13f9 E8000000 		call	strstr
 3891      00
 3892 13fe 4885C0   		testq	%rax, %rax
 3893 1401 7452     		je	.L268
 3894              	.L247:
 3895 1403 488D7C24 		leaq	80(%rsp), %rdi
 3895      50
 3896 1408 48C74424 		movq	$_ZTV17RecordingReporter+16, 80(%rsp)
 3896      50000000 
 3896      00
 3897              	.LEHB47:
 3898 1411 E8000000 		call	_ZN8UnitTest12TestReporterD2Ev
 3898      00
 3899              	.LEHE47:
 3900 1416 488B8424 		movq	2184(%rsp), %rax
 3900      88080000 
 3901 141e 64483304 		xorq	%fs:40, %rax
 3901      25280000 
 3901      00
 3902 1427 7527     		jne	.L269
 3903 1429 4881C490 		addq	$2192, %rsp
 3903      080000
 3904              		.cfi_remember_state
 3905              		.cfi_def_cfa_offset 16
 3906 1430 5B       		popq	%rbx
 3907              		.cfi_def_cfa_offset 8
 3908 1431 C3       		ret
 3909              	.L260:
 3910              		.cfi_restore_state
 3911 1432 4889C3   		movq	%rax, %rbx
 3912              	.L252:
 3913 1435 488D7C24 		leaq	80(%rsp), %rdi
 3913      50
 3914 143a 48C74424 		movq	$_ZTV17RecordingReporter+16, 80(%rsp)
 3914      50000000 
 3914      00
 3915 1443 E8000000 		call	_ZN8UnitTest12TestReporterD2Ev
 3915      00
 3916 1448 4889DF   		movq	%rbx, %rdi
 3917              	.LEHB48:
 3918 144b E8000000 		call	_Unwind_Resume
 3918      00
 3919              	.LEHE48:
 3920              	.L269:
 3921 1450 E8000000 		call	__stack_chk_fail
 3921      00
 3922              	.L268:
 3923              	.LEHB49:
 3924 1455 E8000000 		call	_ZN8UnitTest11CurrentTest7DetailsEv
 3924      00
 3925 145a 488B30   		movq	(%rax), %rsi
 3926 145d 488D7C24 		leaq	48(%rsp), %rdi
 3926      30
 3927 1462 BA5D0000 		movl	$93, %edx
 3927      00
 3928 1467 E8000000 		call	_ZN8UnitTest11TestDetailsC1ERKS0_i
 3928      00
 3929 146c E8000000 		call	_ZN8UnitTest11CurrentTest7ResultsEv
 3929      00
 3930 1471 488B38   		movq	(%rax), %rdi
 3931 1474 488D7424 		leaq	48(%rsp), %rsi
 3931      30
 3932 1479 BA000000 		movl	$.LC126, %edx
 3932      00
 3933 147e E8000000 		call	_ZN8UnitTest11TestResults13OnTestFailureERKNS_11TestDetailsEPKc
 3933      00
 3934              	.LEHE49:
 3935 1483 E97BFFFF 		jmp	.L247
 3935      FF
 3936              	.L258:
 3937 1488 4889C3   		movq	%rax, %rbx
 3938              	.L251:
 3939 148b 4889E7   		movq	%rsp, %rdi
 3940 148e E8000000 		call	_ZN17ScopedCurrentTestD1Ev
 3940      00
 3941 1493 EBA0     		jmp	.L252
 3942              	.L259:
 3943 1495 4889C3   		movq	%rax, %rbx
 3944 1498 E8000000 		call	__cxa_end_catch
 3944      00
 3945 149d EBEC     		jmp	.L251
 3946              	.L261:
 3947 149f 4889C7   		movq	%rax, %rdi
 3948 14a2 E8000000 		call	__cxa_begin_catch
 3948      00
 3949              	.LEHB50:
 3950 14a7 E8000000 		call	_ZN8UnitTest11CurrentTest7DetailsEv
 3950      00
 3951 14ac 488B30   		movq	(%rax), %rsi
 3952 14af 488D7C24 		leaq	48(%rsp), %rdi
 3952      30
 3953 14b4 BA5D0000 		movl	$93, %edx
 3953      00
 3954 14b9 E8000000 		call	_ZN8UnitTest11TestDetailsC1ERKS0_i
 3954      00
 3955 14be E8000000 		call	_ZN8UnitTest11CurrentTest7ResultsEv
 3955      00
 3956 14c3 488B38   		movq	(%rax), %rdi
 3957 14c6 488D7424 		leaq	48(%rsp), %rsi
 3957      30
 3958 14cb BA000000 		movl	$.LC127, %edx
 3958      00
 3959 14d0 E8000000 		call	_ZN8UnitTest11TestResults13OnTestFailureERKNS_11TestDetailsEPKc
 3959      00
 3960              	.LEHE50:
 3961              	.LEHB51:
 3962 14d5 E8000000 		call	__cxa_end_catch
 3962      00
 3963              	.LEHE51:
 3964 14da E924FFFF 		jmp	.L247
 3964      FF
 3965              	.L262:
 3966 14df 4889C3   		movq	%rax, %rbx
 3967 14e2 E8000000 		call	__cxa_end_catch
 3967      00
 3968 14e7 E949FFFF 		jmp	.L252
 3968      FF
 3969              		.cfi_endproc
 3970              	.LFE1169:
 3971              		.section	.gcc_except_table
 3972              		.align 4
 3973              	.LLSDA1169:
 3974 0124 FF       		.byte	0xff
 3975 0125 03       		.byte	0x3
 3976 0126 45       		.uleb128 .LLSDATT1169-.LLSDATTD1169
 3977              	.LLSDATTD1169:
 3978 0127 01       		.byte	0x1
 3979 0128 3A       		.uleb128 .LLSDACSE1169-.LLSDACSB1169
 3980              	.LLSDACSB1169:
 3981 0129 CE01     		.uleb128 .LEHB42-.LFB1169
 3982 012b 23       		.uleb128 .LEHE42-.LEHB42
 3983 012c 8203     		.uleb128 .L260-.LFB1169
 3984 012e 00       		.uleb128 0
 3985 012f F401     		.uleb128 .LEHB43-.LFB1169
 3986 0131 05       		.uleb128 .LEHE43-.LEHB43
 3987 0132 F901     		.uleb128 .L257-.LFB1169
 3988 0134 01       		.uleb128 0x1
 3989 0135 8102     		.uleb128 .LEHB44-.LFB1169
 3990 0137 2E       		.uleb128 .LEHE44-.LEHB44
 3991 0138 E503     		.uleb128 .L259-.LFB1169
 3992 013a 00       		.uleb128 0
 3993 013b AF02     		.uleb128 .LEHB45-.LFB1169
 3994 013d 05       		.uleb128 .LEHE45-.LEHB45
 3995 013e D803     		.uleb128 .L258-.LFB1169
 3996 0140 00       		.uleb128 0
 3997 0141 B702     		.uleb128 .LEHB46-.LFB1169
 3998 0143 05       		.uleb128 .LEHE46-.LEHB46
 3999 0144 8203     		.uleb128 .L260-.LFB1169
 4000 0146 00       		.uleb128 0
 4001 0147 E102     		.uleb128 .LEHB47-.LFB1169
 4002 0149 05       		.uleb128 .LEHE47-.LEHB47
 4003 014a 00       		.uleb128 0
 4004 014b 00       		.uleb128 0
 4005 014c 9B03     		.uleb128 .LEHB48-.LFB1169
 4006 014e 05       		.uleb128 .LEHE48-.LEHB48
 4007 014f 00       		.uleb128 0
 4008 0150 00       		.uleb128 0
 4009 0151 A503     		.uleb128 .LEHB49-.LFB1169
 4010 0153 2E       		.uleb128 .LEHE49-.LEHB49
 4011 0154 EF03     		.uleb128 .L261-.LFB1169
 4012 0156 01       		.uleb128 0x1
 4013 0157 F703     		.uleb128 .LEHB50-.LFB1169
 4014 0159 2E       		.uleb128 .LEHE50-.LEHB50
 4015 015a AF04     		.uleb128 .L262-.LFB1169
 4016 015c 00       		.uleb128 0
 4017 015d A504     		.uleb128 .LEHB51-.LFB1169
 4018 015f 05       		.uleb128 .LEHE51-.LEHB51
 4019 0160 8203     		.uleb128 .L260-.LFB1169
 4020 0162 00       		.uleb128 0
 4021              	.LLSDACSE1169:
 4022 0163 01       		.byte	0x1
 4023 0164 00       		.byte	0
 4024 0165 000000   		.align 4
 4025 0168 00000000 		.long	0
 4026              	
 4027              	.LLSDATT1169:
 4028              		.text
 4030              		.section	.text.unlikely
 4031              	.LCOLDE128:
 4032              		.text
 4033              	.LHOTE128:
 4034              		.section	.rodata.str1.1
 4035              	.LC129:
 4036 003e 79616464 		.string	"yaddayadda"
 4036      61796164 
 4036      646100
 4037              		.section	.rodata.str1.8
 4038 019c 00000000 		.align 8
 4039              	.LC130:
 4040 01a0 73747273 		.string	"strstr(reporter.lastFailedMessage, \"yaddayadda\")"
 4040      74722872 
 4040      65706F72 
 4040      7465722E 
 4040      6C617374 
 4041 01d1 00000000 		.align 8
 4041      000000
 4042              	.LC131:
 4043 01d8 556E6861 		.string	"Unhandled exception in CHECK(yaddayadda)"
 4043      6E646C65 
 4043      64206578 
 4043      63657074 
 4043      696F6E20 
 4044 0201 00000000 		.align 8
 4044      000000
 4045              	.LC132:
 4046 0208 556E6861 		.string	"Unhandled exception in CHECK(strstr(reporter.lastFailedMessage, \"yaddayadda\"))"
 4046      6E646C65 
 4046      64206578 
 4046      63657074 
 4046      696F6E20 
 4047              		.section	.text.unlikely
 4048              		.align 2
 4049              	.LCOLDB133:
 4050              		.text
 4051              	.LHOTB133:
 4052              		.align 2
 4053 14ec 0F1F4000 		.p2align 4,,15
 4055              	_ZNK12_GLOBAL__N_137TestCheckFailureIncludesCheckContents7RunImplEv:
 4056              	.LFB1160:
 4057              		.cfi_startproc
 4058              		.cfi_personality 0x3,__gxx_personality_v0
 4059              		.cfi_lsda 0x3,.LLSDA1160
 4060 14f0 53       		pushq	%rbx
 4061              		.cfi_def_cfa_offset 16
 4062              		.cfi_offset 3, -16
 4063 14f1 4881EC90 		subq	$2192, %rsp
 4063      080000
 4064              		.cfi_def_cfa_offset 2208
 4065 14f8 488D5C24 		leaq	16(%rsp), %rbx
 4065      10
 4066 14fd 488D7424 		leaq	80(%rsp), %rsi
 4066      50
 4067 1502 48C74424 		movq	$_ZTV17RecordingReporter+16, 80(%rsp)
 4067      50000000 
 4067      00
 4068 150b 64488B04 		movq	%fs:40, %rax
 4068      25280000 
 4068      00
 4069 1514 48898424 		movq	%rax, 2184(%rsp)
 4069      88080000 
 4070 151c 31C0     		xorl	%eax, %eax
 4071 151e 4889DF   		movq	%rbx, %rdi
 4072 1521 C7442458 		movl	$0, 88(%rsp)
 4072      00000000 
 4073 1529 C784245C 		movl	$0, 604(%rsp)
 4073      02000000 
 4073      000000
 4074 1534 C7842460 		movl	$0, 864(%rsp)
 4074      03000000 
 4074      000000
 4075 153f C7842464 		movl	$0, 1636(%rsp)
 4075      06000000 
 4075      000000
 4076 154a C7842468 		movl	$0x00000000, 2152(%rsp)
 4076      08000000 
 4076      000000
 4077 1555 C784246C 		movl	$0, 2156(%rsp)
 4077      08000000 
 4077      000000
 4078 1560 C7842470 		movl	$0, 2160(%rsp)
 4078      08000000 
 4078      000000
 4079 156b C7842474 		movl	$0, 2164(%rsp)
 4079      08000000 
 4079      000000
 4080 1576 C7842478 		movl	$0x00000000, 2168(%rsp)
 4080      08000000 
 4080      000000
 4081 1581 C644245C 		movb	$0, 92(%rsp)
 4081      00
 4082 1586 C684245C 		movb	$0, 348(%rsp)
 4082      01000000 
 4083 158e C6842460 		movb	$0, 608(%rsp)
 4083      02000000 
 4084 1596 C6842464 		movb	$0, 868(%rsp)
 4084      03000000 
 4085 159e C6842464 		movb	$0, 1124(%rsp)
 4085      04000000 
 4086 15a6 C6842464 		movb	$0, 1380(%rsp)
 4086      05000000 
 4087 15ae C6842468 		movb	$0, 1640(%rsp)
 4087      06000000 
 4088 15b6 C6842468 		movb	$0, 1896(%rsp)
 4088      07000000 
 4089              	.LEHB52:
 4090 15be E8000000 		call	_ZN8UnitTest11TestResultsC1EPNS_12TestReporterE
 4090      00
 4091 15c3 E8000000 		call	_ZN8UnitTest11CurrentTest7ResultsEv
 4091      00
 4092 15c8 488B00   		movq	(%rax), %rax
 4093 15cb 48890424 		movq	%rax, (%rsp)
 4094 15cf E8000000 		call	_ZN8UnitTest11CurrentTest7DetailsEv
 4094      00
 4095 15d4 488B00   		movq	(%rax), %rax
 4096 15d7 48894424 		movq	%rax, 8(%rsp)
 4096      08
 4097 15dc E8000000 		call	_ZN8UnitTest11CurrentTest7ResultsEv
 4097      00
 4098              	.LEHE52:
 4099 15e1 488918   		movq	%rbx, (%rax)
 4100              	.LEHB53:
 4101 15e4 E8000000 		call	_ZN8UnitTest11CurrentTest7DetailsEv
 4101      00
 4102 15e9 488D5C24 		leaq	48(%rsp), %rbx
 4102      30
 4103 15ee 488B30   		movq	(%rax), %rsi
 4104 15f1 BA3B0000 		movl	$59, %edx
 4104      00
 4105 15f6 4889DF   		movq	%rbx, %rdi
 4106 15f9 E8000000 		call	_ZN8UnitTest11TestDetailsC1ERKS0_i
 4106      00
 4107 15fe E8000000 		call	_ZN8UnitTest11CurrentTest7ResultsEv
 4107      00
 4108 1603 488B38   		movq	(%rax), %rdi
 4109 1606 BA000000 		movl	$.LC129, %edx
 4109      00
 4110 160b 4889DE   		movq	%rbx, %rsi
 4111 160e E8000000 		call	_ZN8UnitTest11TestResults13OnTestFailureERKNS_11TestDetailsEPKc
 4111      00
 4112              	.LEHE53:
 4113              	.L274:
 4114              	.LEHB54:
 4115 1613 E8000000 		call	_ZN8UnitTest11CurrentTest7ResultsEv
 4115      00
 4116 1618 488B1424 		movq	(%rsp), %rdx
 4117 161c 488910   		movq	%rdx, (%rax)
 4118 161f E8000000 		call	_ZN8UnitTest11CurrentTest7DetailsEv
 4118      00
 4119              	.LEHE54:
 4120 1624 488B5424 		movq	8(%rsp), %rdx
 4120      08
 4121 1629 488DBC24 		leaq	1380(%rsp), %rdi
 4121      64050000 
 4122 1631 BE000000 		movl	$.LC129, %esi
 4122      00
 4123 1636 488910   		movq	%rdx, (%rax)
 4124 1639 E8000000 		call	strstr
 4124      00
 4125 163e 4885C0   		testq	%rax, %rax
 4126 1641 7435     		je	.L291
 4127              	.L272:
 4128 1643 488D7C24 		leaq	80(%rsp), %rdi
 4128      50
 4129 1648 48C74424 		movq	$_ZTV17RecordingReporter+16, 80(%rsp)
 4129      50000000 
 4129      00
 4130              	.LEHB55:
 4131 1651 E8000000 		call	_ZN8UnitTest12TestReporterD2Ev
 4131      00
 4132              	.LEHE55:
 4133 1656 488B8424 		movq	2184(%rsp), %rax
 4133      88080000 
 4134 165e 64483304 		xorq	%fs:40, %rax
 4134      25280000 
 4134      00
 4135 1667 753B     		jne	.L292
 4136 1669 4881C490 		addq	$2192, %rsp
 4136      080000
 4137              		.cfi_remember_state
 4138              		.cfi_def_cfa_offset 16
 4139 1670 5B       		popq	%rbx
 4140              		.cfi_def_cfa_offset 8
 4141 1671 C3       		ret
 4142              		.p2align 4,,10
 4143 1672 660F1F44 		.p2align 3
 4143      0000
 4144              	.L291:
 4145              		.cfi_restore_state
 4146              	.LEHB56:
 4147 1678 E8000000 		call	_ZN8UnitTest11CurrentTest7DetailsEv
 4147      00
 4148 167d 488B30   		movq	(%rax), %rsi
 4149 1680 BA3E0000 		movl	$62, %edx
 4149      00
 4150 1685 4889DF   		movq	%rbx, %rdi
 4151 1688 E8000000 		call	_ZN8UnitTest11TestDetailsC1ERKS0_i
 4151      00
 4152 168d E8000000 		call	_ZN8UnitTest11CurrentTest7ResultsEv
 4152      00
 4153 1692 488B38   		movq	(%rax), %rdi
 4154 1695 BA000000 		movl	$.LC130, %edx
 4154      00
 4155 169a 4889DE   		movq	%rbx, %rsi
 4156 169d E8000000 		call	_ZN8UnitTest11TestResults13OnTestFailureERKNS_11TestDetailsEPKc
 4156      00
 4157              	.LEHE56:
 4158 16a2 EB9F     		jmp	.L272
 4159              	.L292:
 4160 16a4 E8000000 		call	__stack_chk_fail
 4160      00
 4161              	.L282:
 4162 16a9 4889C7   		movq	%rax, %rdi
 4163 16ac E8000000 		call	__cxa_begin_catch
 4163      00
 4164              	.LEHB57:
 4165 16b1 E8000000 		call	_ZN8UnitTest11CurrentTest7DetailsEv
 4165      00
 4166 16b6 488D5C24 		leaq	48(%rsp), %rbx
 4166      30
 4167 16bb 488B30   		movq	(%rax), %rsi
 4168 16be BA3B0000 		movl	$59, %edx
 4168      00
 4169 16c3 4889DF   		movq	%rbx, %rdi
 4170 16c6 E8000000 		call	_ZN8UnitTest11TestDetailsC1ERKS0_i
 4170      00
 4171 16cb E8000000 		call	_ZN8UnitTest11CurrentTest7ResultsEv
 4171      00
 4172 16d0 488B38   		movq	(%rax), %rdi
 4173 16d3 BA000000 		movl	$.LC131, %edx
 4173      00
 4174 16d8 4889DE   		movq	%rbx, %rsi
 4175 16db E8000000 		call	_ZN8UnitTest11TestResults13OnTestFailureERKNS_11TestDetailsEPKc
 4175      00
 4176              	.LEHE57:
 4177              	.LEHB58:
 4178 16e0 E8000000 		call	__cxa_end_catch
 4178      00
 4179              	.LEHE58:
 4180 16e5 E929FFFF 		jmp	.L274
 4180      FF
 4181              	.L285:
 4182 16ea 4889C3   		movq	%rax, %rbx
 4183              	.L277:
 4184 16ed 488D7C24 		leaq	80(%rsp), %rdi
 4184      50
 4185 16f2 48C74424 		movq	$_ZTV17RecordingReporter+16, 80(%rsp)
 4185      50000000 
 4185      00
 4186 16fb E8000000 		call	_ZN8UnitTest12TestReporterD2Ev
 4186      00
 4187 1700 4889DF   		movq	%rbx, %rdi
 4188              	.LEHB59:
 4189 1703 E8000000 		call	_Unwind_Resume
 4189      00
 4190              	.LEHE59:
 4191              	.L286:
 4192 1708 4889C7   		movq	%rax, %rdi
 4193 170b E8000000 		call	__cxa_begin_catch
 4193      00
 4194              	.LEHB60:
 4195 1710 E8000000 		call	_ZN8UnitTest11CurrentTest7DetailsEv
 4195      00
 4196 1715 488B30   		movq	(%rax), %rsi
 4197 1718 BA3E0000 		movl	$62, %edx
 4197      00
 4198 171d 4889DF   		movq	%rbx, %rdi
 4199 1720 E8000000 		call	_ZN8UnitTest11TestDetailsC1ERKS0_i
 4199      00
 4200 1725 E8000000 		call	_ZN8UnitTest11CurrentTest7ResultsEv
 4200      00
 4201 172a 488B38   		movq	(%rax), %rdi
 4202 172d BA000000 		movl	$.LC132, %edx
 4202      00
 4203 1732 4889DE   		movq	%rbx, %rsi
 4204 1735 E8000000 		call	_ZN8UnitTest11TestResults13OnTestFailureERKNS_11TestDetailsEPKc
 4204      00
 4205              	.LEHE60:
 4206              	.LEHB61:
 4207 173a E8000000 		call	__cxa_end_catch
 4207      00
 4208              	.LEHE61:
 4209 173f E9FFFEFF 		jmp	.L272
 4209      FF
 4210              	.L283:
 4211 1744 4889C3   		movq	%rax, %rbx
 4212              	.L276:
 4213 1747 4889E7   		movq	%rsp, %rdi
 4214 174a E8000000 		call	_ZN17ScopedCurrentTestD1Ev
 4214      00
 4215 174f EB9C     		jmp	.L277
 4216              	.L284:
 4217 1751 4889C3   		movq	%rax, %rbx
 4218 1754 E8000000 		call	__cxa_end_catch
 4218      00
 4219 1759 EBEC     		jmp	.L276
 4220              	.L287:
 4221 175b 4889C3   		movq	%rax, %rbx
 4222 175e E8000000 		call	__cxa_end_catch
 4222      00
 4223 1763 EB88     		jmp	.L277
 4224              		.cfi_endproc
 4225              	.LFE1160:
 4226              		.section	.gcc_except_table
 4227              		.align 4
 4228              	.LLSDA1160:
 4229 016c FF       		.byte	0xff
 4230 016d 03       		.byte	0x3
 4231 016e 45       		.uleb128 .LLSDATT1160-.LLSDATTD1160
 4232              	.LLSDATTD1160:
 4233 016f 01       		.byte	0x1
 4234 0170 3A       		.uleb128 .LLSDACSE1160-.LLSDACSB1160
 4235              	.LLSDACSB1160:
 4236 0171 CE01     		.uleb128 .LEHB52-.LFB1160
 4237 0173 23       		.uleb128 .LEHE52-.LEHB52
 4238 0174 FA03     		.uleb128 .L285-.LFB1160
 4239 0176 00       		.uleb128 0
 4240 0177 F401     		.uleb128 .LEHB53-.LFB1160
 4241 0179 2F       		.uleb128 .LEHE53-.LEHB53
 4242 017a B903     		.uleb128 .L282-.LFB1160
 4243 017c 01       		.uleb128 0x1
 4244 017d A302     		.uleb128 .LEHB54-.LFB1160
 4245 017f 11       		.uleb128 .LEHE54-.LEHB54
 4246 0180 FA03     		.uleb128 .L285-.LFB1160
 4247 0182 00       		.uleb128 0
 4248 0183 E102     		.uleb128 .LEHB55-.LFB1160
 4249 0185 05       		.uleb128 .LEHE55-.LEHB55
 4250 0186 00       		.uleb128 0
 4251 0187 00       		.uleb128 0
 4252 0188 8803     		.uleb128 .LEHB56-.LFB1160
 4253 018a 2A       		.uleb128 .LEHE56-.LEHB56
 4254 018b 9804     		.uleb128 .L286-.LFB1160
 4255 018d 01       		.uleb128 0x1
 4256 018e C103     		.uleb128 .LEHB57-.LFB1160
 4257 0190 2F       		.uleb128 .LEHE57-.LEHB57
 4258 0191 E104     		.uleb128 .L284-.LFB1160
 4259 0193 00       		.uleb128 0
 4260 0194 F003     		.uleb128 .LEHB58-.LFB1160
 4261 0196 05       		.uleb128 .LEHE58-.LEHB58
 4262 0197 D404     		.uleb128 .L283-.LFB1160
 4263 0199 00       		.uleb128 0
 4264 019a 9304     		.uleb128 .LEHB59-.LFB1160
 4265 019c 05       		.uleb128 .LEHE59-.LEHB59
 4266 019d 00       		.uleb128 0
 4267 019e 00       		.uleb128 0
 4268 019f A004     		.uleb128 .LEHB60-.LFB1160
 4269 01a1 2A       		.uleb128 .LEHE60-.LEHB60
 4270 01a2 EB04     		.uleb128 .L287-.LFB1160
 4271 01a4 00       		.uleb128 0
 4272 01a5 CA04     		.uleb128 .LEHB61-.LFB1160
 4273 01a7 05       		.uleb128 .LEHE61-.LEHB61
 4274 01a8 FA03     		.uleb128 .L285-.LFB1160
 4275 01aa 00       		.uleb128 0
 4276              	.LLSDACSE1160:
 4277 01ab 01       		.byte	0x1
 4278 01ac 00       		.byte	0
 4279 01ad 000000   		.align 4
 4280 01b0 00000000 		.long	0
 4281              	
 4282              	.LLSDATT1160:
 4283              		.text
 4285              		.section	.text.unlikely
 4286              	.LCOLDE133:
 4287              		.text
 4288              	.LHOTE133:
 4289              		.section	.rodata.str1.1
 4290              	.LC134:
 4291 0049 5468726F 		.string	"ThrowingFunction()"
 4291      77696E67 
 4291      46756E63 
 4291      74696F6E 
 4291      282900
 4292              		.section	.rodata.str1.8
 4293 0257 00       		.align 8
 4294              	.LC135:
 4295 0258 73747273 		.string	"strstr(reporter.lastFailedMessage, \"ThrowingFunction()\")"
 4295      74722872 
 4295      65706F72 
 4295      7465722E 
 4295      6C617374 
 4296              		.section	.rodata.str1.1
 4297              	.LC136:
 4298 005c 31323300 		.string	"123"
 4299              		.section	.rodata.str1.8
 4300 0291 00000000 		.align 8
 4300      000000
 4301              	.LC137:
 4302 0298 73747273 		.string	"strstr(reporter.lastFailedMessage, \"123\")"
 4302      74722872 
 4302      65706F72 
 4302      7465722E 
 4302      6C617374 
 4303 02c2 00000000 		.align 8
 4303      0000
 4304              	.LC138:
 4305 02c8 556E6861 		.string	"Unhandled exception in CHECK_EQUAL(ThrowingFunction(), 123)"
 4305      6E646C65 
 4305      64206578 
 4305      63657074 
 4305      696F6E20 
 4306 0304 00000000 		.align 8
 4307              	.LC139:
 4308 0308 556E6861 		.string	"Unhandled exception in CHECK(strstr(reporter.lastFailedMessage, \"ThrowingFunction()\"))"
 4308      6E646C65 
 4308      64206578 
 4308      63657074 
 4308      696F6E20 
 4309 035f 00       		.align 8
 4310              	.LC140:
 4311 0360 556E6861 		.string	"Unhandled exception in CHECK(strstr(reporter.lastFailedMessage, \"123\"))"
 4311      6E646C65 
 4311      64206578 
 4311      63657074 
 4311      696F6E20 
 4312              		.section	.text.unlikely
 4313              		.align 2
 4314              	.LCOLDB141:
 4315              		.text
 4316              	.LHOTB141:
 4317 1765 90       		.align 2
 4318 1766 662E0F1F 		.p2align 4,,15
 4318      84000000 
 4318      0000
 4320              	_ZNK12_GLOBAL__N_160TestCheckEqualFailureBecauseOfExceptionIncludesCheckContents7RunImplEv:
 4321              	.LFB1193:
 4322              		.cfi_startproc
 4323              		.cfi_personality 0x3,__gxx_personality_v0
 4324              		.cfi_lsda 0x3,.LLSDA1193
 4325 1770 53       		pushq	%rbx
 4326              		.cfi_def_cfa_offset 16
 4327              		.cfi_offset 3, -16
 4328 1771 4881EC90 		subq	$2192, %rsp
 4328      080000
 4329              		.cfi_def_cfa_offset 2208
 4330 1778 488D5C24 		leaq	16(%rsp), %rbx
 4330      10
 4331 177d 488D7424 		leaq	80(%rsp), %rsi
 4331      50
 4332 1782 48C74424 		movq	$_ZTV17RecordingReporter+16, 80(%rsp)
 4332      50000000 
 4332      00
 4333 178b 64488B04 		movq	%fs:40, %rax
 4333      25280000 
 4333      00
 4334 1794 48898424 		movq	%rax, 2184(%rsp)
 4334      88080000 
 4335 179c 31C0     		xorl	%eax, %eax
 4336 179e 4889DF   		movq	%rbx, %rdi
 4337 17a1 C7442458 		movl	$0, 88(%rsp)
 4337      00000000 
 4338 17a9 C784245C 		movl	$0, 604(%rsp)
 4338      02000000 
 4338      000000
 4339 17b4 C7842460 		movl	$0, 864(%rsp)
 4339      03000000 
 4339      000000
 4340 17bf C7842464 		movl	$0, 1636(%rsp)
 4340      06000000 
 4340      000000
 4341 17ca C7842468 		movl	$0x00000000, 2152(%rsp)
 4341      08000000 
 4341      000000
 4342 17d5 C784246C 		movl	$0, 2156(%rsp)
 4342      08000000 
 4342      000000
 4343 17e0 C7842470 		movl	$0, 2160(%rsp)
 4343      08000000 
 4343      000000
 4344 17eb C7842474 		movl	$0, 2164(%rsp)
 4344      08000000 
 4344      000000
 4345 17f6 C7842478 		movl	$0x00000000, 2168(%rsp)
 4345      08000000 
 4345      000000
 4346 1801 C644245C 		movb	$0, 92(%rsp)
 4346      00
 4347 1806 C684245C 		movb	$0, 348(%rsp)
 4347      01000000 
 4348 180e C6842460 		movb	$0, 608(%rsp)
 4348      02000000 
 4349 1816 C6842464 		movb	$0, 868(%rsp)
 4349      03000000 
 4350 181e C6842464 		movb	$0, 1124(%rsp)
 4350      04000000 
 4351 1826 C6842464 		movb	$0, 1380(%rsp)
 4351      05000000 
 4352 182e C6842468 		movb	$0, 1640(%rsp)
 4352      06000000 
 4353 1836 C6842468 		movb	$0, 1896(%rsp)
 4353      07000000 
 4354              	.LEHB62:
 4355 183e E8000000 		call	_ZN8UnitTest11TestResultsC1EPNS_12TestReporterE
 4355      00
 4356 1843 E8000000 		call	_ZN8UnitTest11CurrentTest7ResultsEv
 4356      00
 4357 1848 488B00   		movq	(%rax), %rax
 4358 184b 48890424 		movq	%rax, (%rsp)
 4359 184f E8000000 		call	_ZN8UnitTest11CurrentTest7DetailsEv
 4359      00
 4360 1854 488B00   		movq	(%rax), %rax
 4361 1857 48894424 		movq	%rax, 8(%rsp)
 4361      08
 4362 185c E8000000 		call	_ZN8UnitTest11CurrentTest7ResultsEv
 4362      00
 4363              	.LEHE62:
 4364 1861 488918   		movq	%rbx, (%rax)
 4365              	.LEHB63:
 4366 1864 E8000000 		call	_ZN8UnitTest11CurrentTest7DetailsEv
 4366      00
 4367 1869 488B30   		movq	(%rax), %rsi
 4368 186c 488D7C24 		leaq	48(%rsp), %rdi
 4368      30
 4369 1871 BAB40000 		movl	$180, %edx
 4369      00
 4370 1876 E8000000 		call	_ZN8UnitTest11TestDetailsC1ERKS0_i
 4370      00
 4371 187b E880F0FF 		call	_ZN12_GLOBAL__N_116ThrowingFunctionEv
 4371      FF
 4372              	.LEHE63:
 4373              	.L310:
 4374 1880 4889C7   		movq	%rax, %rdi
 4375 1883 E8000000 		call	__cxa_begin_catch
 4375      00
 4376              	.LEHB64:
 4377 1888 E8000000 		call	_ZN8UnitTest11CurrentTest7DetailsEv
 4377      00
 4378 188d 488B30   		movq	(%rax), %rsi
 4379 1890 488D7C24 		leaq	48(%rsp), %rdi
 4379      30
 4380 1895 BAB40000 		movl	$180, %edx
 4380      00
 4381 189a E8000000 		call	_ZN8UnitTest11TestDetailsC1ERKS0_i
 4381      00
 4382 189f E8000000 		call	_ZN8UnitTest11CurrentTest7ResultsEv
 4382      00
 4383 18a4 488B38   		movq	(%rax), %rdi
 4384 18a7 488D7424 		leaq	48(%rsp), %rsi
 4384      30
 4385 18ac BA000000 		movl	$.LC138, %edx
 4385      00
 4386 18b1 E8000000 		call	_ZN8UnitTest11TestResults13OnTestFailureERKNS_11TestDetailsEPKc
 4386      00
 4387              	.LEHE64:
 4388              	.LEHB65:
 4389 18b6 E8000000 		call	__cxa_end_catch
 4389      00
 4390              	.LEHE65:
 4391 18bb 4889E7   		movq	%rsp, %rdi
 4392              	.LEHB66:
 4393 18be E8000000 		call	_ZN17ScopedCurrentTestD1Ev
 4393      00
 4394              	.LEHE66:
 4395 18c3 488DBC24 		leaq	1380(%rsp), %rdi
 4395      64050000 
 4396 18cb BE000000 		movl	$.LC134, %esi
 4396      00
 4397 18d0 E8000000 		call	strstr
 4397      00
 4398 18d5 4885C0   		testq	%rax, %rax
 4399 18d8 0F849C00 		je	.L323
 4399      0000
 4400              	.L295:
 4401 18de 488DBC24 		leaq	1380(%rsp), %rdi
 4401      64050000 
 4402 18e6 BE000000 		movl	$.LC136, %esi
 4402      00
 4403 18eb E8000000 		call	strstr
 4403      00
 4404 18f0 4885C0   		testq	%rax, %rax
 4405 18f3 7452     		je	.L324
 4406              	.L297:
 4407 18f5 488D7C24 		leaq	80(%rsp), %rdi
 4407      50
 4408 18fa 48C74424 		movq	$_ZTV17RecordingReporter+16, 80(%rsp)
 4408      50000000 
 4408      00
 4409              	.LEHB67:
 4410 1903 E8000000 		call	_ZN8UnitTest12TestReporterD2Ev
 4410      00
 4411              	.LEHE67:
 4412 1908 488B8424 		movq	2184(%rsp), %rax
 4412      88080000 
 4413 1910 64483304 		xorq	%fs:40, %rax
 4413      25280000 
 4413      00
 4414 1919 7527     		jne	.L325
 4415 191b 4881C490 		addq	$2192, %rsp
 4415      080000
 4416              		.cfi_remember_state
 4417              		.cfi_def_cfa_offset 16
 4418 1922 5B       		popq	%rbx
 4419              		.cfi_def_cfa_offset 8
 4420 1923 C3       		ret
 4421              	.L313:
 4422              		.cfi_restore_state
 4423 1924 4889C3   		movq	%rax, %rbx
 4424              	.L302:
 4425 1927 488D7C24 		leaq	80(%rsp), %rdi
 4425      50
 4426 192c 48C74424 		movq	$_ZTV17RecordingReporter+16, 80(%rsp)
 4426      50000000 
 4426      00
 4427 1935 E8000000 		call	_ZN8UnitTest12TestReporterD2Ev
 4427      00
 4428 193a 4889DF   		movq	%rbx, %rdi
 4429              	.LEHB68:
 4430 193d E8000000 		call	_Unwind_Resume
 4430      00
 4431              	.LEHE68:
 4432              	.L325:
 4433 1942 E8000000 		call	__stack_chk_fail
 4433      00
 4434              	.L324:
 4435              	.LEHB69:
 4436 1947 E8000000 		call	_ZN8UnitTest11CurrentTest7DetailsEv
 4436      00
 4437 194c 488B30   		movq	(%rax), %rsi
 4438 194f 488D7C24 		leaq	48(%rsp), %rdi
 4438      30
 4439 1954 BAB80000 		movl	$184, %edx
 4439      00
 4440 1959 E8000000 		call	_ZN8UnitTest11TestDetailsC1ERKS0_i
 4440      00
 4441 195e E8000000 		call	_ZN8UnitTest11CurrentTest7ResultsEv
 4441      00
 4442 1963 488B38   		movq	(%rax), %rdi
 4443 1966 488D7424 		leaq	48(%rsp), %rsi
 4443      30
 4444 196b BA000000 		movl	$.LC137, %edx
 4444      00
 4445 1970 E8000000 		call	_ZN8UnitTest11TestResults13OnTestFailureERKNS_11TestDetailsEPKc
 4445      00
 4446              	.LEHE69:
 4447 1975 E97BFFFF 		jmp	.L297
 4447      FF
 4448              	.L323:
 4449              	.LEHB70:
 4450 197a E8000000 		call	_ZN8UnitTest11CurrentTest7DetailsEv
 4450      00
 4451 197f 488B30   		movq	(%rax), %rsi
 4452 1982 488D7C24 		leaq	48(%rsp), %rdi
 4452      30
 4453 1987 BAB70000 		movl	$183, %edx
 4453      00
 4454 198c E8000000 		call	_ZN8UnitTest11TestDetailsC1ERKS0_i
 4454      00
 4455 1991 E8000000 		call	_ZN8UnitTest11CurrentTest7ResultsEv
 4455      00
 4456 1996 488B38   		movq	(%rax), %rdi
 4457 1999 488D7424 		leaq	48(%rsp), %rsi
 4457      30
 4458 199e BA000000 		movl	$.LC135, %edx
 4458      00
 4459 19a3 E8000000 		call	_ZN8UnitTest11TestResults13OnTestFailureERKNS_11TestDetailsEPKc
 4459      00
 4460              	.LEHE70:
 4461 19a8 E931FFFF 		jmp	.L295
 4461      FF
 4462              	.L316:
 4463 19ad 4889C7   		movq	%rax, %rdi
 4464 19b0 E8000000 		call	__cxa_begin_catch
 4464      00
 4465              	.LEHB71:
 4466 19b5 E8000000 		call	_ZN8UnitTest11CurrentTest7DetailsEv
 4466      00
 4467 19ba 488B30   		movq	(%rax), %rsi
 4468 19bd 488D7C24 		leaq	48(%rsp), %rdi
 4468      30
 4469 19c2 BAB80000 		movl	$184, %edx
 4469      00
 4470 19c7 E8000000 		call	_ZN8UnitTest11TestDetailsC1ERKS0_i
 4470      00
 4471 19cc E8000000 		call	_ZN8UnitTest11CurrentTest7ResultsEv
 4471      00
 4472 19d1 488B38   		movq	(%rax), %rdi
 4473 19d4 488D7424 		leaq	48(%rsp), %rsi
 4473      30
 4474 19d9 BA000000 		movl	$.LC140, %edx
 4474      00
 4475 19de E8000000 		call	_ZN8UnitTest11TestResults13OnTestFailureERKNS_11TestDetailsEPKc
 4475      00
 4476              	.LEHE71:
 4477              	.LEHB72:
 4478 19e3 E8000000 		call	__cxa_end_catch
 4478      00
 4479              	.LEHE72:
 4480 19e8 E908FFFF 		jmp	.L297
 4480      FF
 4481              	.L314:
 4482 19ed 4889C7   		movq	%rax, %rdi
 4483 19f0 E8000000 		call	__cxa_begin_catch
 4483      00
 4484              	.LEHB73:
 4485 19f5 E8000000 		call	_ZN8UnitTest11CurrentTest7DetailsEv
 4485      00
 4486 19fa 488B30   		movq	(%rax), %rsi
 4487 19fd 488D7C24 		leaq	48(%rsp), %rdi
 4487      30
 4488 1a02 BAB70000 		movl	$183, %edx
 4488      00
 4489 1a07 E8000000 		call	_ZN8UnitTest11TestDetailsC1ERKS0_i
 4489      00
 4490 1a0c E8000000 		call	_ZN8UnitTest11CurrentTest7ResultsEv
 4490      00
 4491 1a11 488B38   		movq	(%rax), %rdi
 4492 1a14 488D7424 		leaq	48(%rsp), %rsi
 4492      30
 4493 1a19 BA000000 		movl	$.LC139, %edx
 4493      00
 4494 1a1e E8000000 		call	_ZN8UnitTest11TestResults13OnTestFailureERKNS_11TestDetailsEPKc
 4494      00
 4495              	.LEHE73:
 4496              	.LEHB74:
 4497 1a23 E8000000 		call	__cxa_end_catch
 4497      00
 4498              	.LEHE74:
 4499 1a28 E9B1FEFF 		jmp	.L295
 4499      FF
 4500              	.L317:
 4501 1a2d 4889C3   		movq	%rax, %rbx
 4502 1a30 E8000000 		call	__cxa_end_catch
 4502      00
 4503 1a35 E9EDFEFF 		jmp	.L302
 4503      FF
 4504              	.L315:
 4505 1a3a 4889C3   		movq	%rax, %rbx
 4506 1a3d E8000000 		call	__cxa_end_catch
 4506      00
 4507 1a42 E9E0FEFF 		jmp	.L302
 4507      FF
 4508              	.L311:
 4509 1a47 4889C3   		movq	%rax, %rbx
 4510              	.L301:
 4511 1a4a 4889E7   		movq	%rsp, %rdi
 4512 1a4d E8000000 		call	_ZN17ScopedCurrentTestD1Ev
 4512      00
 4513 1a52 E9D0FEFF 		jmp	.L302
 4513      FF
 4514              	.L312:
 4515 1a57 4889C3   		movq	%rax, %rbx
 4516 1a5a E8000000 		call	__cxa_end_catch
 4516      00
 4517 1a5f EBE9     		jmp	.L301
 4518              		.cfi_endproc
 4519              	.LFE1193:
 4520              		.section	.gcc_except_table
 4521              		.align 4
 4522              	.LLSDA1193:
 4523 01b4 FF       		.byte	0xff
 4524 01b5 03       		.byte	0x3
 4525 01b6 55       		.uleb128 .LLSDATT1193-.LLSDATTD1193
 4526              	.LLSDATTD1193:
 4527 01b7 01       		.byte	0x1
 4528 01b8 4C       		.uleb128 .LLSDACSE1193-.LLSDACSB1193
 4529              	.LLSDACSB1193:
 4530 01b9 CE01     		.uleb128 .LEHB62-.LFB1193
 4531 01bb 23       		.uleb128 .LEHE62-.LEHB62
 4532 01bc B403     		.uleb128 .L313-.LFB1193
 4533 01be 00       		.uleb128 0
 4534 01bf F401     		.uleb128 .LEHB63-.LFB1193
 4535 01c1 1C       		.uleb128 .LEHE63-.LEHB63
 4536 01c2 9002     		.uleb128 .L310-.LFB1193
 4537 01c4 01       		.uleb128 0x1
 4538 01c5 9802     		.uleb128 .LEHB64-.LFB1193
 4539 01c7 2E       		.uleb128 .LEHE64-.LEHB64
 4540 01c8 E705     		.uleb128 .L312-.LFB1193
 4541 01ca 00       		.uleb128 0
 4542 01cb C602     		.uleb128 .LEHB65-.LFB1193
 4543 01cd 05       		.uleb128 .LEHE65-.LEHB65
 4544 01ce D705     		.uleb128 .L311-.LFB1193
 4545 01d0 00       		.uleb128 0
 4546 01d1 CE02     		.uleb128 .LEHB66-.LFB1193
 4547 01d3 05       		.uleb128 .LEHE66-.LEHB66
 4548 01d4 B403     		.uleb128 .L313-.LFB1193
 4549 01d6 00       		.uleb128 0
 4550 01d7 9303     		.uleb128 .LEHB67-.LFB1193
 4551 01d9 05       		.uleb128 .LEHE67-.LEHB67
 4552 01da 00       		.uleb128 0
 4553 01db 00       		.uleb128 0
 4554 01dc CD03     		.uleb128 .LEHB68-.LFB1193
 4555 01de 05       		.uleb128 .LEHE68-.LEHB68
 4556 01df 00       		.uleb128 0
 4557 01e0 00       		.uleb128 0
 4558 01e1 D703     		.uleb128 .LEHB69-.LFB1193
 4559 01e3 2E       		.uleb128 .LEHE69-.LEHB69
 4560 01e4 BD04     		.uleb128 .L316-.LFB1193
 4561 01e6 01       		.uleb128 0x1
 4562 01e7 8A04     		.uleb128 .LEHB70-.LFB1193
 4563 01e9 2E       		.uleb128 .LEHE70-.LEHB70
 4564 01ea FD04     		.uleb128 .L314-.LFB1193
 4565 01ec 01       		.uleb128 0x1
 4566 01ed C504     		.uleb128 .LEHB71-.LFB1193
 4567 01ef 2E       		.uleb128 .LEHE71-.LEHB71
 4568 01f0 BD05     		.uleb128 .L317-.LFB1193
 4569 01f2 00       		.uleb128 0
 4570 01f3 F304     		.uleb128 .LEHB72-.LFB1193
 4571 01f5 05       		.uleb128 .LEHE72-.LEHB72
 4572 01f6 B403     		.uleb128 .L313-.LFB1193
 4573 01f8 00       		.uleb128 0
 4574 01f9 8505     		.uleb128 .LEHB73-.LFB1193
 4575 01fb 2E       		.uleb128 .LEHE73-.LEHB73
 4576 01fc CA05     		.uleb128 .L315-.LFB1193
 4577 01fe 00       		.uleb128 0
 4578 01ff B305     		.uleb128 .LEHB74-.LFB1193
 4579 0201 05       		.uleb128 .LEHE74-.LEHB74
 4580 0202 B403     		.uleb128 .L313-.LFB1193
 4581 0204 00       		.uleb128 0
 4582              	.LLSDACSE1193:
 4583 0205 01       		.byte	0x1
 4584 0206 00       		.byte	0
 4585 0207 00       		.align 4
 4586 0208 00000000 		.long	0
 4587              	
 4588              	.LLSDATT1193:
 4589              		.text
 4591              		.section	.text.unlikely
 4592              	.LCOLDE141:
 4593              		.text
 4594              	.LHOTE141:
 4595              		.section	.rodata.str1.8
 4596              		.align 8
 4597              	.LC142:
 4598 03a8 556E6861 		.string	"Unhandled exception in CHECK_EQUAL(ThrowingFunction(), 1)"
 4598      6E646C65 
 4598      64206578 
 4598      63657074 
 4598      696F6E20 
 4599              		.section	.text.unlikely
 4600              		.align 2
 4601              	.LCOLDB143:
 4602              		.text
 4603              	.LHOTB143:
 4604 1a61 90       		.align 2
 4605 1a62 0F1F4000 		.p2align 4,,15
 4605      662E0F1F 
 4605      84000000 
 4605      0000
 4607              	_ZNK12_GLOBAL__N_130TestCheckEqualFailsOnException7RunImplEv:
 4608              	.LFB1181:
 4609              		.cfi_startproc
 4610              		.cfi_personality 0x3,__gxx_personality_v0
 4611              		.cfi_lsda 0x3,.LLSDA1181
 4612 1a70 53       		pushq	%rbx
 4613              		.cfi_def_cfa_offset 16
 4614              		.cfi_offset 3, -16
 4615 1a71 4881EC90 		subq	$2192, %rsp
 4615      080000
 4616              		.cfi_def_cfa_offset 2208
 4617 1a78 488D5C24 		leaq	16(%rsp), %rbx
 4617      10
 4618 1a7d 488D7424 		leaq	80(%rsp), %rsi
 4618      50
 4619 1a82 48C74424 		movq	$_ZTV17RecordingReporter+16, 80(%rsp)
 4619      50000000 
 4619      00
 4620 1a8b 64488B04 		movq	%fs:40, %rax
 4620      25280000 
 4620      00
 4621 1a94 48898424 		movq	%rax, 2184(%rsp)
 4621      88080000 
 4622 1a9c 31C0     		xorl	%eax, %eax
 4623 1a9e 4889DF   		movq	%rbx, %rdi
 4624 1aa1 C7442458 		movl	$0, 88(%rsp)
 4624      00000000 
 4625 1aa9 C784245C 		movl	$0, 604(%rsp)
 4625      02000000 
 4625      000000
 4626 1ab4 C7842460 		movl	$0, 864(%rsp)
 4626      03000000 
 4626      000000
 4627 1abf C7842464 		movl	$0, 1636(%rsp)
 4627      06000000 
 4627      000000
 4628 1aca C7842468 		movl	$0x00000000, 2152(%rsp)
 4628      08000000 
 4628      000000
 4629 1ad5 C784246C 		movl	$0, 2156(%rsp)
 4629      08000000 
 4629      000000
 4630 1ae0 C7842470 		movl	$0, 2160(%rsp)
 4630      08000000 
 4630      000000
 4631 1aeb C7842474 		movl	$0, 2164(%rsp)
 4631      08000000 
 4631      000000
 4632 1af6 C7842478 		movl	$0x00000000, 2168(%rsp)
 4632      08000000 
 4632      000000
 4633 1b01 C644245C 		movb	$0, 92(%rsp)
 4633      00
 4634 1b06 C684245C 		movb	$0, 348(%rsp)
 4634      01000000 
 4635 1b0e C6842460 		movb	$0, 608(%rsp)
 4635      02000000 
 4636 1b16 C6842464 		movb	$0, 868(%rsp)
 4636      03000000 
 4637 1b1e C6842464 		movb	$0, 1124(%rsp)
 4637      04000000 
 4638 1b26 C6842464 		movb	$0, 1380(%rsp)
 4638      05000000 
 4639 1b2e C6842468 		movb	$0, 1640(%rsp)
 4639      06000000 
 4640 1b36 C6842468 		movb	$0, 1896(%rsp)
 4640      07000000 
 4641              	.LEHB75:
 4642 1b3e E8000000 		call	_ZN8UnitTest11TestResultsC1EPNS_12TestReporterE
 4642      00
 4643 1b43 E8000000 		call	_ZN8UnitTest11CurrentTest7ResultsEv
 4643      00
 4644 1b48 488B00   		movq	(%rax), %rax
 4645 1b4b 48890424 		movq	%rax, (%rsp)
 4646 1b4f E8000000 		call	_ZN8UnitTest11CurrentTest7DetailsEv
 4646      00
 4647 1b54 488B00   		movq	(%rax), %rax
 4648 1b57 48894424 		movq	%rax, 8(%rsp)
 4648      08
 4649 1b5c E8000000 		call	_ZN8UnitTest11CurrentTest7ResultsEv
 4649      00
 4650              	.LEHE75:
 4651 1b61 488918   		movq	%rbx, (%rax)
 4652              	.LEHB76:
 4653 1b64 E8000000 		call	_ZN8UnitTest11CurrentTest7DetailsEv
 4653      00
 4654 1b69 488B30   		movq	(%rax), %rsi
 4655 1b6c 488D7C24 		leaq	48(%rsp), %rdi
 4655      30
 4656 1b71 BA830000 		movl	$131, %edx
 4656      00
 4657 1b76 E8000000 		call	_ZN8UnitTest11TestDetailsC1ERKS0_i
 4657      00
 4658 1b7b E880EDFF 		call	_ZN12_GLOBAL__N_116ThrowingFunctionEv
 4658      FF
 4659              	.LEHE76:
 4660              	.L337:
 4661 1b80 4889C7   		movq	%rax, %rdi
 4662 1b83 E8000000 		call	__cxa_begin_catch
 4662      00
 4663              	.LEHB77:
 4664 1b88 E8000000 		call	_ZN8UnitTest11CurrentTest7DetailsEv
 4664      00
 4665 1b8d 488B30   		movq	(%rax), %rsi
 4666 1b90 488D7C24 		leaq	48(%rsp), %rdi
 4666      30
 4667 1b95 BA830000 		movl	$131, %edx
 4667      00
 4668 1b9a E8000000 		call	_ZN8UnitTest11TestDetailsC1ERKS0_i
 4668      00
 4669 1b9f E8000000 		call	_ZN8UnitTest11CurrentTest7ResultsEv
 4669      00
 4670 1ba4 488B38   		movq	(%rax), %rdi
 4671 1ba7 488D7424 		leaq	48(%rsp), %rsi
 4671      30
 4672 1bac BA000000 		movl	$.LC142, %edx
 4672      00
 4673 1bb1 E8000000 		call	_ZN8UnitTest11TestResults13OnTestFailureERKNS_11TestDetailsEPKc
 4673      00
 4674              	.LEHE77:
 4675              	.LEHB78:
 4676 1bb6 E8000000 		call	__cxa_end_catch
 4676      00
 4677 1bbb 4889DF   		movq	%rbx, %rdi
 4678 1bbe E8000000 		call	_ZNK8UnitTest11TestResults15GetFailureCountEv
 4678      00
 4679              	.LEHE78:
 4680 1bc3 4889E7   		movq	%rsp, %rdi
 4681 1bc6 89C3     		movl	%eax, %ebx
 4682              	.LEHB79:
 4683 1bc8 E8000000 		call	_ZN17ScopedCurrentTestD1Ev
 4683      00
 4684              	.LEHE79:
 4685 1bcd 488D7C24 		leaq	80(%rsp), %rdi
 4685      50
 4686 1bd2 48C74424 		movq	$_ZTV17RecordingReporter+16, 80(%rsp)
 4686      50000000 
 4686      00
 4687              	.LEHB80:
 4688 1bdb E8000000 		call	_ZN8UnitTest12TestReporterD2Ev
 4688      00
 4689              	.LEHE80:
 4690 1be0 85DB     		testl	%ebx, %ebx
 4691 1be2 7E3F     		jle	.L345
 4692              	.L326:
 4693 1be4 488B8424 		movq	2184(%rsp), %rax
 4693      88080000 
 4694 1bec 64483304 		xorq	%fs:40, %rax
 4694      25280000 
 4694      00
 4695 1bf5 7527     		jne	.L346
 4696 1bf7 4881C490 		addq	$2192, %rsp
 4696      080000
 4697              		.cfi_remember_state
 4698              		.cfi_def_cfa_offset 16
 4699 1bfe 5B       		popq	%rbx
 4700              		.cfi_def_cfa_offset 8
 4701 1bff C3       		ret
 4702              	.L336:
 4703              		.cfi_restore_state
 4704 1c00 4889C3   		movq	%rax, %rbx
 4705              	.L332:
 4706 1c03 488D7C24 		leaq	80(%rsp), %rdi
 4706      50
 4707 1c08 48C74424 		movq	$_ZTV17RecordingReporter+16, 80(%rsp)
 4707      50000000 
 4707      00
 4708 1c11 E8000000 		call	_ZN8UnitTest12TestReporterD2Ev
 4708      00
 4709 1c16 4889DF   		movq	%rbx, %rdi
 4710              	.LEHB81:
 4711 1c19 E8000000 		call	_Unwind_Resume
 4711      00
 4712              	.LEHE81:
 4713              	.L346:
 4714 1c1e E8000000 		call	__stack_chk_fail
 4714      00
 4715              	.L345:
 4716              	.LEHB82:
 4717 1c23 E8000000 		call	_ZN8UnitTest11CurrentTest7DetailsEv
 4717      00
 4718 1c28 488B30   		movq	(%rax), %rsi
 4719 1c2b 488D7C24 		leaq	48(%rsp), %rdi
 4719      30
 4720 1c30 BA870000 		movl	$135, %edx
 4720      00
 4721 1c35 E8000000 		call	_ZN8UnitTest11TestDetailsC1ERKS0_i
 4721      00
 4722 1c3a E8000000 		call	_ZN8UnitTest11CurrentTest7ResultsEv
 4722      00
 4723 1c3f 488B38   		movq	(%rax), %rdi
 4724 1c42 488D7424 		leaq	48(%rsp), %rsi
 4724      30
 4725 1c47 BA000000 		movl	$.LC113, %edx
 4725      00
 4726 1c4c E8000000 		call	_ZN8UnitTest11TestResults13OnTestFailureERKNS_11TestDetailsEPKc
 4726      00
 4727              	.LEHE82:
 4728 1c51 EB91     		jmp	.L326
 4729              	.L338:
 4730 1c53 4889C3   		movq	%rax, %rbx
 4731              	.L331:
 4732 1c56 4889E7   		movq	%rsp, %rdi
 4733 1c59 E8000000 		call	_ZN17ScopedCurrentTestD1Ev
 4733      00
 4734 1c5e EBA3     		jmp	.L332
 4735              	.L339:
 4736 1c60 4889C3   		movq	%rax, %rbx
 4737 1c63 E8000000 		call	__cxa_end_catch
 4737      00
 4738 1c68 EBEC     		jmp	.L331
 4739              	.L340:
 4740 1c6a 4889C7   		movq	%rax, %rdi
 4741 1c6d E8000000 		call	__cxa_begin_catch
 4741      00
 4742              	.LEHB83:
 4743 1c72 E8000000 		call	_ZN8UnitTest11CurrentTest7DetailsEv
 4743      00
 4744 1c77 488B30   		movq	(%rax), %rsi
 4745 1c7a 488D7C24 		leaq	48(%rsp), %rdi
 4745      30
 4746 1c7f BA870000 		movl	$135, %edx
 4746      00
 4747 1c84 E8000000 		call	_ZN8UnitTest11TestDetailsC1ERKS0_i
 4747      00
 4748 1c89 E8000000 		call	_ZN8UnitTest11CurrentTest7ResultsEv
 4748      00
 4749 1c8e 488B38   		movq	(%rax), %rdi
 4750 1c91 488D7424 		leaq	48(%rsp), %rsi
 4750      30
 4751 1c96 BA000000 		movl	$.LC115, %edx
 4751      00
 4752 1c9b E8000000 		call	_ZN8UnitTest11TestResults13OnTestFailureERKNS_11TestDetailsEPKc
 4752      00
 4753              	.LEHE83:
 4754              	.LEHB84:
 4755 1ca0 E8000000 		call	__cxa_end_catch
 4755      00
 4756              	.LEHE84:
 4757 1ca5 E93AFFFF 		jmp	.L326
 4757      FF
 4758              	.L341:
 4759 1caa 4889C3   		movq	%rax, %rbx
 4760 1cad E8000000 		call	__cxa_end_catch
 4760      00
 4761 1cb2 4889DF   		movq	%rbx, %rdi
 4762              	.LEHB85:
 4763 1cb5 E8000000 		call	_Unwind_Resume
 4763      00
 4764              	.LEHE85:
 4765              		.cfi_endproc
 4766              	.LFE1181:
 4767              		.section	.gcc_except_table
 4768              		.align 4
 4769              	.LLSDA1181:
 4770 020c FF       		.byte	0xff
 4771 020d 03       		.byte	0x3
 4772 020e 49       		.uleb128 .LLSDATT1181-.LLSDATTD1181
 4773              	.LLSDATTD1181:
 4774 020f 01       		.byte	0x1
 4775 0210 3E       		.uleb128 .LLSDACSE1181-.LLSDACSB1181
 4776              	.LLSDACSB1181:
 4777 0211 CE01     		.uleb128 .LEHB75-.LFB1181
 4778 0213 23       		.uleb128 .LEHE75-.LEHB75
 4779 0214 9003     		.uleb128 .L336-.LFB1181
 4780 0216 00       		.uleb128 0
 4781 0217 F401     		.uleb128 .LEHB76-.LFB1181
 4782 0219 1C       		.uleb128 .LEHE76-.LEHB76
 4783 021a 9002     		.uleb128 .L337-.LFB1181
 4784 021c 01       		.uleb128 0x1
 4785 021d 9802     		.uleb128 .LEHB77-.LFB1181
 4786 021f 2E       		.uleb128 .LEHE77-.LEHB77
 4787 0220 F003     		.uleb128 .L339-.LFB1181
 4788 0222 00       		.uleb128 0
 4789 0223 C602     		.uleb128 .LEHB78-.LFB1181
 4790 0225 0D       		.uleb128 .LEHE78-.LEHB78
 4791 0226 E303     		.uleb128 .L338-.LFB1181
 4792 0228 00       		.uleb128 0
 4793 0229 D802     		.uleb128 .LEHB79-.LFB1181
 4794 022b 05       		.uleb128 .LEHE79-.LEHB79
 4795 022c 9003     		.uleb128 .L336-.LFB1181
 4796 022e 00       		.uleb128 0
 4797 022f EB02     		.uleb128 .LEHB80-.LFB1181
 4798 0231 05       		.uleb128 .LEHE80-.LEHB80
 4799 0232 00       		.uleb128 0
 4800 0233 00       		.uleb128 0
 4801 0234 A903     		.uleb128 .LEHB81-.LFB1181
 4802 0236 05       		.uleb128 .LEHE81-.LEHB81
 4803 0237 00       		.uleb128 0
 4804 0238 00       		.uleb128 0
 4805 0239 B303     		.uleb128 .LEHB82-.LFB1181
 4806 023b 2E       		.uleb128 .LEHE82-.LEHB82
 4807 023c FA03     		.uleb128 .L340-.LFB1181
 4808 023e 01       		.uleb128 0x1
 4809 023f 8204     		.uleb128 .LEHB83-.LFB1181
 4810 0241 2E       		.uleb128 .LEHE83-.LEHB83
 4811 0242 BA04     		.uleb128 .L341-.LFB1181
 4812 0244 00       		.uleb128 0
 4813 0245 B004     		.uleb128 .LEHB84-.LFB1181
 4814 0247 05       		.uleb128 .LEHE84-.LEHB84
 4815 0248 00       		.uleb128 0
 4816 0249 00       		.uleb128 0
 4817 024a C504     		.uleb128 .LEHB85-.LFB1181
 4818 024c 05       		.uleb128 .LEHE85-.LEHB85
 4819 024d 00       		.uleb128 0
 4820 024e 00       		.uleb128 0
 4821              	.LLSDACSE1181:
 4822 024f 01       		.byte	0x1
 4823 0250 00       		.byte	0
 4824 0251 000000   		.align 4
 4825 0254 00000000 		.long	0
 4826              	
 4827              	.LLSDATT1181:
 4828              		.text
 4830              		.section	.text.unlikely
 4831              	.LCOLDE143:
 4832              		.text
 4833              	.LHOTE143:
 4834              		.section	.rodata.str1.1
 4835              	.LC144:
 4836 0060 64617461 		.string	"data"
 4836      00
 4837              		.section	.rodata.str1.8
 4838 03e2 00000000 		.align 8
 4838      0000
 4839              	.LC145:
 4840 03e8 73747273 		.string	"strstr(reporter.lastFailedMessage, \"data\")"
 4840      74722872 
 4840      65706F72 
 4840      7465722E 
 4840      6C617374 
 4841              		.section	.rodata.str1.1
 4842              	.LC146:
 4843 0065 6F626A00 		.string	"obj"
 4844              		.section	.rodata.str1.8
 4845 0413 00000000 		.align 8
 4845      00
 4846              	.LC147:
 4847 0418 73747273 		.string	"strstr(reporter.lastFailedMessage, \"obj\")"
 4847      74722872 
 4847      65706F72 
 4847      7465722E 
 4847      6C617374 
 4848 0442 00000000 		.align 8
 4848      0000
 4849              	.LC148:
 4850 0448 556E6861 		.string	"Unhandled exception in CHECK_ARRAY_CLOSE(data, obj)"
 4850      6E646C65 
 4850      64206578 
 4850      63657074 
 4850      696F6E20 
 4851 047c 00000000 		.align 8
 4852              	.LC149:
 4853 0480 556E6861 		.string	"Unhandled exception in CHECK(strstr(reporter.lastFailedMessage, \"data\"))"
 4853      6E646C65 
 4853      64206578 
 4853      63657074 
 4853      696F6E20 
 4854 04c9 00000000 		.align 8
 4854      000000
 4855              	.LC150:
 4856 04d0 556E6861 		.string	"Unhandled exception in CHECK(strstr(reporter.lastFailedMessage, \"obj\"))"
 4856      6E646C65 
 4856      64206578 
 4856      63657074 
 4856      696F6E20 
 4857              		.section	.text.unlikely
 4858              		.align 2
 4859              	.LCOLDB151:
 4860              		.text
 4861              	.LHOTB151:
 4862              		.align 2
 4863 1cba 660F1F44 		.p2align 4,,15
 4863      0000
 4865              	_ZNK12_GLOBAL__N_160TestCheckArray2DCloseFailureOnExceptionIncludesCheckContents7RunImplEv:
 4866              	.LFB1333:
 4867              		.cfi_startproc
 4868              		.cfi_personality 0x3,__gxx_personality_v0
 4869              		.cfi_lsda 0x3,.LLSDA1333
 4870 1cc0 53       		pushq	%rbx
 4871              		.cfi_def_cfa_offset 16
 4872              		.cfi_offset 3, -16
 4873 1cc1 4881EC90 		subq	$2192, %rsp
 4873      080000
 4874              		.cfi_def_cfa_offset 2208
 4875 1cc8 488D5C24 		leaq	16(%rsp), %rbx
 4875      10
 4876 1ccd 488D7424 		leaq	80(%rsp), %rsi
 4876      50
 4877 1cd2 48C74424 		movq	$_ZTV17RecordingReporter+16, 80(%rsp)
 4877      50000000 
 4877      00
 4878 1cdb 64488B04 		movq	%fs:40, %rax
 4878      25280000 
 4878      00
 4879 1ce4 48898424 		movq	%rax, 2184(%rsp)
 4879      88080000 
 4880 1cec 31C0     		xorl	%eax, %eax
 4881 1cee 4889DF   		movq	%rbx, %rdi
 4882 1cf1 C7442458 		movl	$0, 88(%rsp)
 4882      00000000 
 4883 1cf9 C784245C 		movl	$0, 604(%rsp)
 4883      02000000 
 4883      000000
 4884 1d04 C7842460 		movl	$0, 864(%rsp)
 4884      03000000 
 4884      000000
 4885 1d0f C7842464 		movl	$0, 1636(%rsp)
 4885      06000000 
 4885      000000
 4886 1d1a C7842468 		movl	$0x00000000, 2152(%rsp)
 4886      08000000 
 4886      000000
 4887 1d25 C784246C 		movl	$0, 2156(%rsp)
 4887      08000000 
 4887      000000
 4888 1d30 C7842470 		movl	$0, 2160(%rsp)
 4888      08000000 
 4888      000000
 4889 1d3b C7842474 		movl	$0, 2164(%rsp)
 4889      08000000 
 4889      000000
 4890 1d46 C7842478 		movl	$0x00000000, 2168(%rsp)
 4890      08000000 
 4890      000000
 4891 1d51 C644245C 		movb	$0, 92(%rsp)
 4891      00
 4892 1d56 C684245C 		movb	$0, 348(%rsp)
 4892      01000000 
 4893 1d5e C6842460 		movb	$0, 608(%rsp)
 4893      02000000 
 4894 1d66 C6842464 		movb	$0, 868(%rsp)
 4894      03000000 
 4895 1d6e C6842464 		movb	$0, 1124(%rsp)
 4895      04000000 
 4896 1d76 C6842464 		movb	$0, 1380(%rsp)
 4896      05000000 
 4897 1d7e C6842468 		movb	$0, 1640(%rsp)
 4897      06000000 
 4898 1d86 C6842468 		movb	$0, 1896(%rsp)
 4898      07000000 
 4899              	.LEHB86:
 4900 1d8e E8000000 		call	_ZN8UnitTest11TestResultsC1EPNS_12TestReporterE
 4900      00
 4901 1d93 E8000000 		call	_ZN8UnitTest11CurrentTest7ResultsEv
 4901      00
 4902 1d98 488B00   		movq	(%rax), %rax
 4903 1d9b 48890424 		movq	%rax, (%rsp)
 4904 1d9f E8000000 		call	_ZN8UnitTest11CurrentTest7DetailsEv
 4904      00
 4905 1da4 488B00   		movq	(%rax), %rax
 4906 1da7 48894424 		movq	%rax, 8(%rsp)
 4906      08
 4907 1dac E8000000 		call	_ZN8UnitTest11CurrentTest7ResultsEv
 4907      00
 4908              	.LEHE86:
 4909 1db1 488918   		movq	%rbx, (%rax)
 4910              	.LEHB87:
 4911 1db4 E8000000 		call	_ZN8UnitTest11CurrentTest7DetailsEv
 4911      00
 4912 1db9 488B30   		movq	(%rax), %rsi
 4913 1dbc 488D7C24 		leaq	48(%rsp), %rdi
 4913      30
 4914 1dc1 BAF70200 		movl	$759, %edx
 4914      00
 4915 1dc6 E8000000 		call	_ZN8UnitTest11TestDetailsC1ERKS0_i
 4915      00
 4916 1dcb E8000000 		call	_ZN8UnitTest11CurrentTest7ResultsEv
 4916      00
 4917 1dd0 E85BEBFF 		call	_ZNK12_GLOBAL__N_116ThrowingObject2DixEi.isra.3
 4917      FF
 4918              	.LEHE87:
 4919              	.L364:
 4920 1dd5 4889C7   		movq	%rax, %rdi
 4921 1dd8 E8000000 		call	__cxa_begin_catch
 4921      00
 4922              	.LEHB88:
 4923 1ddd E8000000 		call	_ZN8UnitTest11CurrentTest7DetailsEv
 4923      00
 4924 1de2 488B30   		movq	(%rax), %rsi
 4925 1de5 488D7C24 		leaq	48(%rsp), %rdi
 4925      30
 4926 1dea BAF70200 		movl	$759, %edx
 4926      00
 4927 1def E8000000 		call	_ZN8UnitTest11TestDetailsC1ERKS0_i
 4927      00
 4928 1df4 E8000000 		call	_ZN8UnitTest11CurrentTest7ResultsEv
 4928      00
 4929 1df9 488B38   		movq	(%rax), %rdi
 4930 1dfc 488D7424 		leaq	48(%rsp), %rsi
 4930      30
 4931 1e01 BA000000 		movl	$.LC148, %edx
 4931      00
 4932 1e06 E8000000 		call	_ZN8UnitTest11TestResults13OnTestFailureERKNS_11TestDetailsEPKc
 4932      00
 4933              	.LEHE88:
 4934              	.LEHB89:
 4935 1e0b E8000000 		call	__cxa_end_catch
 4935      00
 4936              	.LEHE89:
 4937 1e10 4889E7   		movq	%rsp, %rdi
 4938              	.LEHB90:
 4939 1e13 E8000000 		call	_ZN17ScopedCurrentTestD1Ev
 4939      00
 4940              	.LEHE90:
 4941 1e18 488DBC24 		leaq	1380(%rsp), %rdi
 4941      64050000 
 4942 1e20 BE000000 		movl	$.LC144, %esi
 4942      00
 4943 1e25 E8000000 		call	strstr
 4943      00
 4944 1e2a 4885C0   		testq	%rax, %rax
 4945 1e2d 0F849C00 		je	.L377
 4945      0000
 4946              	.L349:
 4947 1e33 488DBC24 		leaq	1380(%rsp), %rdi
 4947      64050000 
 4948 1e3b BE000000 		movl	$.LC146, %esi
 4948      00
 4949 1e40 E8000000 		call	strstr
 4949      00
 4950 1e45 4885C0   		testq	%rax, %rax
 4951 1e48 7452     		je	.L378
 4952              	.L351:
 4953 1e4a 488D7C24 		leaq	80(%rsp), %rdi
 4953      50
 4954 1e4f 48C74424 		movq	$_ZTV17RecordingReporter+16, 80(%rsp)
 4954      50000000 
 4954      00
 4955              	.LEHB91:
 4956 1e58 E8000000 		call	_ZN8UnitTest12TestReporterD2Ev
 4956      00
 4957              	.LEHE91:
 4958 1e5d 488B8424 		movq	2184(%rsp), %rax
 4958      88080000 
 4959 1e65 64483304 		xorq	%fs:40, %rax
 4959      25280000 
 4959      00
 4960 1e6e 7527     		jne	.L379
 4961 1e70 4881C490 		addq	$2192, %rsp
 4961      080000
 4962              		.cfi_remember_state
 4963              		.cfi_def_cfa_offset 16
 4964 1e77 5B       		popq	%rbx
 4965              		.cfi_def_cfa_offset 8
 4966 1e78 C3       		ret
 4967              	.L367:
 4968              		.cfi_restore_state
 4969 1e79 4889C3   		movq	%rax, %rbx
 4970              	.L356:
 4971 1e7c 488D7C24 		leaq	80(%rsp), %rdi
 4971      50
 4972 1e81 48C74424 		movq	$_ZTV17RecordingReporter+16, 80(%rsp)
 4972      50000000 
 4972      00
 4973 1e8a E8000000 		call	_ZN8UnitTest12TestReporterD2Ev
 4973      00
 4974 1e8f 4889DF   		movq	%rbx, %rdi
 4975              	.LEHB92:
 4976 1e92 E8000000 		call	_Unwind_Resume
 4976      00
 4977              	.LEHE92:
 4978              	.L379:
 4979 1e97 E8000000 		call	__stack_chk_fail
 4979      00
 4980              	.L378:
 4981              	.LEHB93:
 4982 1e9c E8000000 		call	_ZN8UnitTest11CurrentTest7DetailsEv
 4982      00
 4983 1ea1 488B30   		movq	(%rax), %rsi
 4984 1ea4 488D7C24 		leaq	48(%rsp), %rdi
 4984      30
 4985 1ea9 BAFB0200 		movl	$763, %edx
 4985      00
 4986 1eae E8000000 		call	_ZN8UnitTest11TestDetailsC1ERKS0_i
 4986      00
 4987 1eb3 E8000000 		call	_ZN8UnitTest11CurrentTest7ResultsEv
 4987      00
 4988 1eb8 488B38   		movq	(%rax), %rdi
 4989 1ebb 488D7424 		leaq	48(%rsp), %rsi
 4989      30
 4990 1ec0 BA000000 		movl	$.LC147, %edx
 4990      00
 4991 1ec5 E8000000 		call	_ZN8UnitTest11TestResults13OnTestFailureERKNS_11TestDetailsEPKc
 4991      00
 4992              	.LEHE93:
 4993 1eca E97BFFFF 		jmp	.L351
 4993      FF
 4994              	.L377:
 4995              	.LEHB94:
 4996 1ecf E8000000 		call	_ZN8UnitTest11CurrentTest7DetailsEv
 4996      00
 4997 1ed4 488B30   		movq	(%rax), %rsi
 4998 1ed7 488D7C24 		leaq	48(%rsp), %rdi
 4998      30
 4999 1edc BAFA0200 		movl	$762, %edx
 4999      00
 5000 1ee1 E8000000 		call	_ZN8UnitTest11TestDetailsC1ERKS0_i
 5000      00
 5001 1ee6 E8000000 		call	_ZN8UnitTest11CurrentTest7ResultsEv
 5001      00
 5002 1eeb 488B38   		movq	(%rax), %rdi
 5003 1eee 488D7424 		leaq	48(%rsp), %rsi
 5003      30
 5004 1ef3 BA000000 		movl	$.LC145, %edx
 5004      00
 5005 1ef8 E8000000 		call	_ZN8UnitTest11TestResults13OnTestFailureERKNS_11TestDetailsEPKc
 5005      00
 5006              	.LEHE94:
 5007 1efd E931FFFF 		jmp	.L349
 5007      FF
 5008              	.L370:
 5009 1f02 4889C7   		movq	%rax, %rdi
 5010 1f05 E8000000 		call	__cxa_begin_catch
 5010      00
 5011              	.LEHB95:
 5012 1f0a E8000000 		call	_ZN8UnitTest11CurrentTest7DetailsEv
 5012      00
 5013 1f0f 488B30   		movq	(%rax), %rsi
 5014 1f12 488D7C24 		leaq	48(%rsp), %rdi
 5014      30
 5015 1f17 BAFB0200 		movl	$763, %edx
 5015      00
 5016 1f1c E8000000 		call	_ZN8UnitTest11TestDetailsC1ERKS0_i
 5016      00
 5017 1f21 E8000000 		call	_ZN8UnitTest11CurrentTest7ResultsEv
 5017      00
 5018 1f26 488B38   		movq	(%rax), %rdi
 5019 1f29 488D7424 		leaq	48(%rsp), %rsi
 5019      30
 5020 1f2e BA000000 		movl	$.LC150, %edx
 5020      00
 5021 1f33 E8000000 		call	_ZN8UnitTest11TestResults13OnTestFailureERKNS_11TestDetailsEPKc
 5021      00
 5022              	.LEHE95:
 5023              	.LEHB96:
 5024 1f38 E8000000 		call	__cxa_end_catch
 5024      00
 5025              	.LEHE96:
 5026 1f3d E908FFFF 		jmp	.L351
 5026      FF
 5027              	.L368:
 5028 1f42 4889C7   		movq	%rax, %rdi
 5029 1f45 E8000000 		call	__cxa_begin_catch
 5029      00
 5030              	.LEHB97:
 5031 1f4a E8000000 		call	_ZN8UnitTest11CurrentTest7DetailsEv
 5031      00
 5032 1f4f 488B30   		movq	(%rax), %rsi
 5033 1f52 488D7C24 		leaq	48(%rsp), %rdi
 5033      30
 5034 1f57 BAFA0200 		movl	$762, %edx
 5034      00
 5035 1f5c E8000000 		call	_ZN8UnitTest11TestDetailsC1ERKS0_i
 5035      00
 5036 1f61 E8000000 		call	_ZN8UnitTest11CurrentTest7ResultsEv
 5036      00
 5037 1f66 488B38   		movq	(%rax), %rdi
 5038 1f69 488D7424 		leaq	48(%rsp), %rsi
 5038      30
 5039 1f6e BA000000 		movl	$.LC149, %edx
 5039      00
 5040 1f73 E8000000 		call	_ZN8UnitTest11TestResults13OnTestFailureERKNS_11TestDetailsEPKc
 5040      00
 5041              	.LEHE97:
 5042              	.LEHB98:
 5043 1f78 E8000000 		call	__cxa_end_catch
 5043      00
 5044              	.LEHE98:
 5045 1f7d E9B1FEFF 		jmp	.L349
 5045      FF
 5046              	.L371:
 5047 1f82 4889C3   		movq	%rax, %rbx
 5048 1f85 E8000000 		call	__cxa_end_catch
 5048      00
 5049 1f8a E9EDFEFF 		jmp	.L356
 5049      FF
 5050              	.L369:
 5051 1f8f 4889C3   		movq	%rax, %rbx
 5052 1f92 E8000000 		call	__cxa_end_catch
 5052      00
 5053 1f97 E9E0FEFF 		jmp	.L356
 5053      FF
 5054              	.L365:
 5055 1f9c 4889C3   		movq	%rax, %rbx
 5056              	.L355:
 5057 1f9f 4889E7   		movq	%rsp, %rdi
 5058 1fa2 E8000000 		call	_ZN17ScopedCurrentTestD1Ev
 5058      00
 5059 1fa7 E9D0FEFF 		jmp	.L356
 5059      FF
 5060              	.L366:
 5061 1fac 4889C3   		movq	%rax, %rbx
 5062 1faf E8000000 		call	__cxa_end_catch
 5062      00
 5063 1fb4 EBE9     		jmp	.L355
 5064              		.cfi_endproc
 5065              	.LFE1333:
 5066              		.section	.gcc_except_table
 5067              		.align 4
 5068              	.LLSDA1333:
 5069 0258 FF       		.byte	0xff
 5070 0259 03       		.byte	0x3
 5071 025a 55       		.uleb128 .LLSDATT1333-.LLSDATTD1333
 5072              	.LLSDATTD1333:
 5073 025b 01       		.byte	0x1
 5074 025c 4C       		.uleb128 .LLSDACSE1333-.LLSDACSB1333
 5075              	.LLSDACSB1333:
 5076 025d CE01     		.uleb128 .LEHB86-.LFB1333
 5077 025f 23       		.uleb128 .LEHE86-.LEHB86
 5078 0260 B903     		.uleb128 .L367-.LFB1333
 5079 0262 00       		.uleb128 0
 5080 0263 F401     		.uleb128 .LEHB87-.LFB1333
 5081 0265 21       		.uleb128 .LEHE87-.LEHB87
 5082 0266 9502     		.uleb128 .L364-.LFB1333
 5083 0268 01       		.uleb128 0x1
 5084 0269 9D02     		.uleb128 .LEHB88-.LFB1333
 5085 026b 2E       		.uleb128 .LEHE88-.LEHB88
 5086 026c EC05     		.uleb128 .L366-.LFB1333
 5087 026e 00       		.uleb128 0
 5088 026f CB02     		.uleb128 .LEHB89-.LFB1333
 5089 0271 05       		.uleb128 .LEHE89-.LEHB89
 5090 0272 DC05     		.uleb128 .L365-.LFB1333
 5091 0274 00       		.uleb128 0
 5092 0275 D302     		.uleb128 .LEHB90-.LFB1333
 5093 0277 05       		.uleb128 .LEHE90-.LEHB90
 5094 0278 B903     		.uleb128 .L367-.LFB1333
 5095 027a 00       		.uleb128 0
 5096 027b 9803     		.uleb128 .LEHB91-.LFB1333
 5097 027d 05       		.uleb128 .LEHE91-.LEHB91
 5098 027e 00       		.uleb128 0
 5099 027f 00       		.uleb128 0
 5100 0280 D203     		.uleb128 .LEHB92-.LFB1333
 5101 0282 05       		.uleb128 .LEHE92-.LEHB92
 5102 0283 00       		.uleb128 0
 5103 0284 00       		.uleb128 0
 5104 0285 DC03     		.uleb128 .LEHB93-.LFB1333
 5105 0287 2E       		.uleb128 .LEHE93-.LEHB93
 5106 0288 C204     		.uleb128 .L370-.LFB1333
 5107 028a 01       		.uleb128 0x1
 5108 028b 8F04     		.uleb128 .LEHB94-.LFB1333
 5109 028d 2E       		.uleb128 .LEHE94-.LEHB94
 5110 028e 8205     		.uleb128 .L368-.LFB1333
 5111 0290 01       		.uleb128 0x1
 5112 0291 CA04     		.uleb128 .LEHB95-.LFB1333
 5113 0293 2E       		.uleb128 .LEHE95-.LEHB95
 5114 0294 C205     		.uleb128 .L371-.LFB1333
 5115 0296 00       		.uleb128 0
 5116 0297 F804     		.uleb128 .LEHB96-.LFB1333
 5117 0299 05       		.uleb128 .LEHE96-.LEHB96
 5118 029a B903     		.uleb128 .L367-.LFB1333
 5119 029c 00       		.uleb128 0
 5120 029d 8A05     		.uleb128 .LEHB97-.LFB1333
 5121 029f 2E       		.uleb128 .LEHE97-.LEHB97
 5122 02a0 CF05     		.uleb128 .L369-.LFB1333
 5123 02a2 00       		.uleb128 0
 5124 02a3 B805     		.uleb128 .LEHB98-.LFB1333
 5125 02a5 05       		.uleb128 .LEHE98-.LEHB98
 5126 02a6 B903     		.uleb128 .L367-.LFB1333
 5127 02a8 00       		.uleb128 0
 5128              	.LLSDACSE1333:
 5129 02a9 01       		.byte	0x1
 5130 02aa 00       		.byte	0
 5131 02ab 00       		.align 4
 5132 02ac 00000000 		.long	0
 5133              	
 5134              	.LLSDATT1333:
 5135              		.text
 5137              		.section	.text.unlikely
 5138              	.LCOLDE151:
 5139              		.text
 5140              	.LHOTE151:
 5141              		.section	.text.unlikely
 5142              		.align 2
 5143              	.LCOLDB152:
 5144              		.text
 5145              	.LHOTB152:
 5146              		.align 2
 5147 1fb6 662E0F1F 		.p2align 4,,15
 5147      84000000 
 5147      0000
 5149              	_ZNK12_GLOBAL__N_137TestCheckArray2DCloseFailsOnException7RunImplEv:
 5150              	.LFB1329:
 5151              		.cfi_startproc
 5152              		.cfi_personality 0x3,__gxx_personality_v0
 5153              		.cfi_lsda 0x3,.LLSDA1329
 5154 1fc0 53       		pushq	%rbx
 5155              		.cfi_def_cfa_offset 16
 5156              		.cfi_offset 3, -16
 5157 1fc1 4881EC90 		subq	$2192, %rsp
 5157      080000
 5158              		.cfi_def_cfa_offset 2208
 5159 1fc8 488D5C24 		leaq	16(%rsp), %rbx
 5159      10
 5160 1fcd 488D7424 		leaq	80(%rsp), %rsi
 5160      50
 5161 1fd2 48C74424 		movq	$_ZTV17RecordingReporter+16, 80(%rsp)
 5161      50000000 
 5161      00
 5162 1fdb 64488B04 		movq	%fs:40, %rax
 5162      25280000 
 5162      00
 5163 1fe4 48898424 		movq	%rax, 2184(%rsp)
 5163      88080000 
 5164 1fec 31C0     		xorl	%eax, %eax
 5165 1fee 4889DF   		movq	%rbx, %rdi
 5166 1ff1 C7442458 		movl	$0, 88(%rsp)
 5166      00000000 
 5167 1ff9 C784245C 		movl	$0, 604(%rsp)
 5167      02000000 
 5167      000000
 5168 2004 C7842460 		movl	$0, 864(%rsp)
 5168      03000000 
 5168      000000
 5169 200f C7842464 		movl	$0, 1636(%rsp)
 5169      06000000 
 5169      000000
 5170 201a C7842468 		movl	$0x00000000, 2152(%rsp)
 5170      08000000 
 5170      000000
 5171 2025 C784246C 		movl	$0, 2156(%rsp)
 5171      08000000 
 5171      000000
 5172 2030 C7842470 		movl	$0, 2160(%rsp)
 5172      08000000 
 5172      000000
 5173 203b C7842474 		movl	$0, 2164(%rsp)
 5173      08000000 
 5173      000000
 5174 2046 C7842478 		movl	$0x00000000, 2168(%rsp)
 5174      08000000 
 5174      000000
 5175 2051 C644245C 		movb	$0, 92(%rsp)
 5175      00
 5176 2056 C684245C 		movb	$0, 348(%rsp)
 5176      01000000 
 5177 205e C6842460 		movb	$0, 608(%rsp)
 5177      02000000 
 5178 2066 C6842464 		movb	$0, 868(%rsp)
 5178      03000000 
 5179 206e C6842464 		movb	$0, 1124(%rsp)
 5179      04000000 
 5180 2076 C6842464 		movb	$0, 1380(%rsp)
 5180      05000000 
 5181 207e C6842468 		movb	$0, 1640(%rsp)
 5181      06000000 
 5182 2086 C6842468 		movb	$0, 1896(%rsp)
 5182      07000000 
 5183              	.LEHB99:
 5184 208e E8000000 		call	_ZN8UnitTest11TestResultsC1EPNS_12TestReporterE
 5184      00
 5185 2093 E8000000 		call	_ZN8UnitTest11CurrentTest7ResultsEv
 5185      00
 5186 2098 488B00   		movq	(%rax), %rax
 5187 209b 48890424 		movq	%rax, (%rsp)
 5188 209f E8000000 		call	_ZN8UnitTest11CurrentTest7DetailsEv
 5188      00
 5189 20a4 488B00   		movq	(%rax), %rax
 5190 20a7 48894424 		movq	%rax, 8(%rsp)
 5190      08
 5191 20ac E8000000 		call	_ZN8UnitTest11CurrentTest7ResultsEv
 5191      00
 5192              	.LEHE99:
 5193 20b1 488918   		movq	%rbx, (%rax)
 5194              	.LEHB100:
 5195 20b4 E8000000 		call	_ZN8UnitTest11CurrentTest7DetailsEv
 5195      00
 5196 20b9 488B30   		movq	(%rax), %rsi
 5197 20bc 488D7C24 		leaq	48(%rsp), %rdi
 5197      30
 5198 20c1 BAE60200 		movl	$742, %edx
 5198      00
 5199 20c6 E8000000 		call	_ZN8UnitTest11TestDetailsC1ERKS0_i
 5199      00
 5200 20cb E8000000 		call	_ZN8UnitTest11CurrentTest7ResultsEv
 5200      00
 5201 20d0 E85BE8FF 		call	_ZNK12_GLOBAL__N_116ThrowingObject2DixEi.isra.3
 5201      FF
 5202              	.LEHE100:
 5203              	.L391:
 5204 20d5 4889C7   		movq	%rax, %rdi
 5205 20d8 E8000000 		call	__cxa_begin_catch
 5205      00
 5206              	.LEHB101:
 5207 20dd E8000000 		call	_ZN8UnitTest11CurrentTest7DetailsEv
 5207      00
 5208 20e2 488B30   		movq	(%rax), %rsi
 5209 20e5 488D7C24 		leaq	48(%rsp), %rdi
 5209      30
 5210 20ea BAE60200 		movl	$742, %edx
 5210      00
 5211 20ef E8000000 		call	_ZN8UnitTest11TestDetailsC1ERKS0_i
 5211      00
 5212 20f4 E8000000 		call	_ZN8UnitTest11CurrentTest7ResultsEv
 5212      00
 5213 20f9 488B38   		movq	(%rax), %rdi
 5214 20fc 488D7424 		leaq	48(%rsp), %rsi
 5214      30
 5215 2101 BA000000 		movl	$.LC148, %edx
 5215      00
 5216 2106 E8000000 		call	_ZN8UnitTest11TestResults13OnTestFailureERKNS_11TestDetailsEPKc
 5216      00
 5217              	.LEHE101:
 5218              	.LEHB102:
 5219 210b E8000000 		call	__cxa_end_catch
 5219      00
 5220 2110 4889DF   		movq	%rbx, %rdi
 5221 2113 E8000000 		call	_ZNK8UnitTest11TestResults15GetFailureCountEv
 5221      00
 5222              	.LEHE102:
 5223 2118 4889E7   		movq	%rsp, %rdi
 5224 211b 89C3     		movl	%eax, %ebx
 5225              	.LEHB103:
 5226 211d E8000000 		call	_ZN17ScopedCurrentTestD1Ev
 5226      00
 5227              	.LEHE103:
 5228 2122 488D7C24 		leaq	80(%rsp), %rdi
 5228      50
 5229 2127 48C74424 		movq	$_ZTV17RecordingReporter+16, 80(%rsp)
 5229      50000000 
 5229      00
 5230              	.LEHB104:
 5231 2130 E8000000 		call	_ZN8UnitTest12TestReporterD2Ev
 5231      00
 5232              	.LEHE104:
 5233 2135 85DB     		testl	%ebx, %ebx
 5234 2137 7E3F     		jle	.L399
 5235              	.L380:
 5236 2139 488B8424 		movq	2184(%rsp), %rax
 5236      88080000 
 5237 2141 64483304 		xorq	%fs:40, %rax
 5237      25280000 
 5237      00
 5238 214a 7527     		jne	.L400
 5239 214c 4881C490 		addq	$2192, %rsp
 5239      080000
 5240              		.cfi_remember_state
 5241              		.cfi_def_cfa_offset 16
 5242 2153 5B       		popq	%rbx
 5243              		.cfi_def_cfa_offset 8
 5244 2154 C3       		ret
 5245              	.L390:
 5246              		.cfi_restore_state
 5247 2155 4889C3   		movq	%rax, %rbx
 5248              	.L386:
 5249 2158 488D7C24 		leaq	80(%rsp), %rdi
 5249      50
 5250 215d 48C74424 		movq	$_ZTV17RecordingReporter+16, 80(%rsp)
 5250      50000000 
 5250      00
 5251 2166 E8000000 		call	_ZN8UnitTest12TestReporterD2Ev
 5251      00
 5252 216b 4889DF   		movq	%rbx, %rdi
 5253              	.LEHB105:
 5254 216e E8000000 		call	_Unwind_Resume
 5254      00
 5255              	.LEHE105:
 5256              	.L400:
 5257 2173 E8000000 		call	__stack_chk_fail
 5257      00
 5258              	.L399:
 5259              	.LEHB106:
 5260 2178 E8000000 		call	_ZN8UnitTest11CurrentTest7DetailsEv
 5260      00
 5261 217d 488B30   		movq	(%rax), %rsi
 5262 2180 488D7C24 		leaq	48(%rsp), %rdi
 5262      30
 5263 2185 BAEB0200 		movl	$747, %edx
 5263      00
 5264 218a E8000000 		call	_ZN8UnitTest11TestDetailsC1ERKS0_i
 5264      00
 5265 218f E8000000 		call	_ZN8UnitTest11CurrentTest7ResultsEv
 5265      00
 5266 2194 488B38   		movq	(%rax), %rdi
 5267 2197 488D7424 		leaq	48(%rsp), %rsi
 5267      30
 5268 219c BA000000 		movl	$.LC113, %edx
 5268      00
 5269 21a1 E8000000 		call	_ZN8UnitTest11TestResults13OnTestFailureERKNS_11TestDetailsEPKc
 5269      00
 5270              	.LEHE106:
 5271 21a6 EB91     		jmp	.L380
 5272              	.L392:
 5273 21a8 4889C3   		movq	%rax, %rbx
 5274              	.L385:
 5275 21ab 4889E7   		movq	%rsp, %rdi
 5276 21ae E8000000 		call	_ZN17ScopedCurrentTestD1Ev
 5276      00
 5277 21b3 EBA3     		jmp	.L386
 5278              	.L393:
 5279 21b5 4889C3   		movq	%rax, %rbx
 5280 21b8 E8000000 		call	__cxa_end_catch
 5280      00
 5281 21bd EBEC     		jmp	.L385
 5282              	.L394:
 5283 21bf 4889C7   		movq	%rax, %rdi
 5284 21c2 E8000000 		call	__cxa_begin_catch
 5284      00
 5285              	.LEHB107:
 5286 21c7 E8000000 		call	_ZN8UnitTest11CurrentTest7DetailsEv
 5286      00
 5287 21cc 488B30   		movq	(%rax), %rsi
 5288 21cf 488D7C24 		leaq	48(%rsp), %rdi
 5288      30
 5289 21d4 BAEB0200 		movl	$747, %edx
 5289      00
 5290 21d9 E8000000 		call	_ZN8UnitTest11TestDetailsC1ERKS0_i
 5290      00
 5291 21de E8000000 		call	_ZN8UnitTest11CurrentTest7ResultsEv
 5291      00
 5292 21e3 488B38   		movq	(%rax), %rdi
 5293 21e6 488D7424 		leaq	48(%rsp), %rsi
 5293      30
 5294 21eb BA000000 		movl	$.LC115, %edx
 5294      00
 5295 21f0 E8000000 		call	_ZN8UnitTest11TestResults13OnTestFailureERKNS_11TestDetailsEPKc
 5295      00
 5296              	.LEHE107:
 5297              	.LEHB108:
 5298 21f5 E8000000 		call	__cxa_end_catch
 5298      00
 5299              	.LEHE108:
 5300 21fa E93AFFFF 		jmp	.L380
 5300      FF
 5301              	.L395:
 5302 21ff 4889C3   		movq	%rax, %rbx
 5303 2202 E8000000 		call	__cxa_end_catch
 5303      00
 5304 2207 4889DF   		movq	%rbx, %rdi
 5305              	.LEHB109:
 5306 220a E8000000 		call	_Unwind_Resume
 5306      00
 5307              	.LEHE109:
 5308              		.cfi_endproc
 5309              	.LFE1329:
 5310              		.section	.gcc_except_table
 5311              		.align 4
 5312              	.LLSDA1329:
 5313 02b0 FF       		.byte	0xff
 5314 02b1 03       		.byte	0x3
 5315 02b2 49       		.uleb128 .LLSDATT1329-.LLSDATTD1329
 5316              	.LLSDATTD1329:
 5317 02b3 01       		.byte	0x1
 5318 02b4 3E       		.uleb128 .LLSDACSE1329-.LLSDACSB1329
 5319              	.LLSDACSB1329:
 5320 02b5 CE01     		.uleb128 .LEHB99-.LFB1329
 5321 02b7 23       		.uleb128 .LEHE99-.LEHB99
 5322 02b8 9503     		.uleb128 .L390-.LFB1329
 5323 02ba 00       		.uleb128 0
 5324 02bb F401     		.uleb128 .LEHB100-.LFB1329
 5325 02bd 21       		.uleb128 .LEHE100-.LEHB100
 5326 02be 9502     		.uleb128 .L391-.LFB1329
 5327 02c0 01       		.uleb128 0x1
 5328 02c1 9D02     		.uleb128 .LEHB101-.LFB1329
 5329 02c3 2E       		.uleb128 .LEHE101-.LEHB101
 5330 02c4 F503     		.uleb128 .L393-.LFB1329
 5331 02c6 00       		.uleb128 0
 5332 02c7 CB02     		.uleb128 .LEHB102-.LFB1329
 5333 02c9 0D       		.uleb128 .LEHE102-.LEHB102
 5334 02ca E803     		.uleb128 .L392-.LFB1329
 5335 02cc 00       		.uleb128 0
 5336 02cd DD02     		.uleb128 .LEHB103-.LFB1329
 5337 02cf 05       		.uleb128 .LEHE103-.LEHB103
 5338 02d0 9503     		.uleb128 .L390-.LFB1329
 5339 02d2 00       		.uleb128 0
 5340 02d3 F002     		.uleb128 .LEHB104-.LFB1329
 5341 02d5 05       		.uleb128 .LEHE104-.LEHB104
 5342 02d6 00       		.uleb128 0
 5343 02d7 00       		.uleb128 0
 5344 02d8 AE03     		.uleb128 .LEHB105-.LFB1329
 5345 02da 05       		.uleb128 .LEHE105-.LEHB105
 5346 02db 00       		.uleb128 0
 5347 02dc 00       		.uleb128 0
 5348 02dd B803     		.uleb128 .LEHB106-.LFB1329
 5349 02df 2E       		.uleb128 .LEHE106-.LEHB106
 5350 02e0 FF03     		.uleb128 .L394-.LFB1329
 5351 02e2 01       		.uleb128 0x1
 5352 02e3 8704     		.uleb128 .LEHB107-.LFB1329
 5353 02e5 2E       		.uleb128 .LEHE107-.LEHB107
 5354 02e6 BF04     		.uleb128 .L395-.LFB1329
 5355 02e8 00       		.uleb128 0
 5356 02e9 B504     		.uleb128 .LEHB108-.LFB1329
 5357 02eb 05       		.uleb128 .LEHE108-.LEHB108
 5358 02ec 00       		.uleb128 0
 5359 02ed 00       		.uleb128 0
 5360 02ee CA04     		.uleb128 .LEHB109-.LFB1329
 5361 02f0 05       		.uleb128 .LEHE109-.LEHB109
 5362 02f1 00       		.uleb128 0
 5363 02f2 00       		.uleb128 0
 5364              	.LLSDACSE1329:
 5365 02f3 01       		.byte	0x1
 5366 02f4 00       		.byte	0
 5367 02f5 000000   		.align 4
 5368 02f8 00000000 		.long	0
 5369              	
 5370              	.LLSDATT1329:
 5371              		.text
 5373              		.section	.text.unlikely
 5374              	.LCOLDE152:
 5375              		.text
 5376              	.LHOTE152:
 5377              		.section	.rodata.str1.8
 5378              		.align 8
 5379              	.LC153:
 5380 0518 556E6861 		.string	"Unhandled exception in CHECK_ARRAY_EQUAL(data, obj)"
 5380      6E646C65 
 5380      64206578 
 5380      63657074 
 5380      696F6E20 
 5381              		.section	.text.unlikely
 5382              		.align 2
 5383              	.LCOLDB154:
 5384              		.text
 5385              	.LHOTB154:
 5386 220f 90       		.align 2
 5387              		.p2align 4,,15
 5389              	_ZNK12_GLOBAL__N_158TestCheckArrayEqualFailureOnExceptionIncludesCheckContents7RunImplEv:
 5390              	.LFB1291:
 5391              		.cfi_startproc
 5392              		.cfi_personality 0x3,__gxx_personality_v0
 5393              		.cfi_lsda 0x3,.LLSDA1291
 5394 2210 53       		pushq	%rbx
 5395              		.cfi_def_cfa_offset 16
 5396              		.cfi_offset 3, -16
 5397 2211 4881EC90 		subq	$2192, %rsp
 5397      080000
 5398              		.cfi_def_cfa_offset 2208
 5399 2218 488D5C24 		leaq	16(%rsp), %rbx
 5399      10
 5400 221d 488D7424 		leaq	80(%rsp), %rsi
 5400      50
 5401 2222 48C74424 		movq	$_ZTV17RecordingReporter+16, 80(%rsp)
 5401      50000000 
 5401      00
 5402 222b 64488B04 		movq	%fs:40, %rax
 5402      25280000 
 5402      00
 5403 2234 48898424 		movq	%rax, 2184(%rsp)
 5403      88080000 
 5404 223c 31C0     		xorl	%eax, %eax
 5405 223e 4889DF   		movq	%rbx, %rdi
 5406 2241 C7442458 		movl	$0, 88(%rsp)
 5406      00000000 
 5407 2249 C784245C 		movl	$0, 604(%rsp)
 5407      02000000 
 5407      000000
 5408 2254 C7842460 		movl	$0, 864(%rsp)
 5408      03000000 
 5408      000000
 5409 225f C7842464 		movl	$0, 1636(%rsp)
 5409      06000000 
 5409      000000
 5410 226a C7842468 		movl	$0x00000000, 2152(%rsp)
 5410      08000000 
 5410      000000
 5411 2275 C784246C 		movl	$0, 2156(%rsp)
 5411      08000000 
 5411      000000
 5412 2280 C7842470 		movl	$0, 2160(%rsp)
 5412      08000000 
 5412      000000
 5413 228b C7842474 		movl	$0, 2164(%rsp)
 5413      08000000 
 5413      000000
 5414 2296 C7842478 		movl	$0x00000000, 2168(%rsp)
 5414      08000000 
 5414      000000
 5415 22a1 C644245C 		movb	$0, 92(%rsp)
 5415      00
 5416 22a6 C684245C 		movb	$0, 348(%rsp)
 5416      01000000 
 5417 22ae C6842460 		movb	$0, 608(%rsp)
 5417      02000000 
 5418 22b6 C6842464 		movb	$0, 868(%rsp)
 5418      03000000 
 5419 22be C6842464 		movb	$0, 1124(%rsp)
 5419      04000000 
 5420 22c6 C6842464 		movb	$0, 1380(%rsp)
 5420      05000000 
 5421 22ce C6842468 		movb	$0, 1640(%rsp)
 5421      06000000 
 5422 22d6 C6842468 		movb	$0, 1896(%rsp)
 5422      07000000 
 5423              	.LEHB110:
 5424 22de E8000000 		call	_ZN8UnitTest11TestResultsC1EPNS_12TestReporterE
 5424      00
 5425 22e3 E8000000 		call	_ZN8UnitTest11CurrentTest7ResultsEv
 5425      00
 5426 22e8 488B00   		movq	(%rax), %rax
 5427 22eb 48890424 		movq	%rax, (%rsp)
 5428 22ef E8000000 		call	_ZN8UnitTest11CurrentTest7DetailsEv
 5428      00
 5429 22f4 488B00   		movq	(%rax), %rax
 5430 22f7 48894424 		movq	%rax, 8(%rsp)
 5430      08
 5431 22fc E8000000 		call	_ZN8UnitTest11CurrentTest7ResultsEv
 5431      00
 5432              	.LEHE110:
 5433 2301 488918   		movq	%rbx, (%rax)
 5434              	.LEHB111:
 5435 2304 E8000000 		call	_ZN8UnitTest11CurrentTest7DetailsEv
 5435      00
 5436 2309 488B30   		movq	(%rax), %rsi
 5437 230c 488D7C24 		leaq	48(%rsp), %rdi
 5437      30
 5438 2311 BA3F0200 		movl	$575, %edx
 5438      00
 5439 2316 E8000000 		call	_ZN8UnitTest11TestDetailsC1ERKS0_i
 5439      00
 5440 231b E8000000 		call	_ZN8UnitTest11CurrentTest7ResultsEv
 5440      00
 5441 2320 E83BE6FF 		call	_ZNK12_GLOBAL__N_114ThrowingObjectixEi.isra.4
 5441      FF
 5442              	.LEHE111:
 5443              	.L418:
 5444 2325 4889C7   		movq	%rax, %rdi
 5445 2328 E8000000 		call	__cxa_begin_catch
 5445      00
 5446              	.LEHB112:
 5447 232d E8000000 		call	_ZN8UnitTest11CurrentTest7DetailsEv
 5447      00
 5448 2332 488B30   		movq	(%rax), %rsi
 5449 2335 488D7C24 		leaq	48(%rsp), %rdi
 5449      30
 5450 233a BA3F0200 		movl	$575, %edx
 5450      00
 5451 233f E8000000 		call	_ZN8UnitTest11TestDetailsC1ERKS0_i
 5451      00
 5452 2344 E8000000 		call	_ZN8UnitTest11CurrentTest7ResultsEv
 5452      00
 5453 2349 488B38   		movq	(%rax), %rdi
 5454 234c 488D7424 		leaq	48(%rsp), %rsi
 5454      30
 5455 2351 BA000000 		movl	$.LC153, %edx
 5455      00
 5456 2356 E8000000 		call	_ZN8UnitTest11TestResults13OnTestFailureERKNS_11TestDetailsEPKc
 5456      00
 5457              	.LEHE112:
 5458              	.LEHB113:
 5459 235b E8000000 		call	__cxa_end_catch
 5459      00
 5460              	.LEHE113:
 5461 2360 4889E7   		movq	%rsp, %rdi
 5462              	.LEHB114:
 5463 2363 E8000000 		call	_ZN17ScopedCurrentTestD1Ev
 5463      00
 5464              	.LEHE114:
 5465 2368 488DBC24 		leaq	1380(%rsp), %rdi
 5465      64050000 
 5466 2370 BE000000 		movl	$.LC144, %esi
 5466      00
 5467 2375 E8000000 		call	strstr
 5467      00
 5468 237a 4885C0   		testq	%rax, %rax
 5469 237d 0F849C00 		je	.L431
 5469      0000
 5470              	.L403:
 5471 2383 488DBC24 		leaq	1380(%rsp), %rdi
 5471      64050000 
 5472 238b BE000000 		movl	$.LC146, %esi
 5472      00
 5473 2390 E8000000 		call	strstr
 5473      00
 5474 2395 4885C0   		testq	%rax, %rax
 5475 2398 7452     		je	.L432
 5476              	.L405:
 5477 239a 488D7C24 		leaq	80(%rsp), %rdi
 5477      50
 5478 239f 48C74424 		movq	$_ZTV17RecordingReporter+16, 80(%rsp)
 5478      50000000 
 5478      00
 5479              	.LEHB115:
 5480 23a8 E8000000 		call	_ZN8UnitTest12TestReporterD2Ev
 5480      00
 5481              	.LEHE115:
 5482 23ad 488B8424 		movq	2184(%rsp), %rax
 5482      88080000 
 5483 23b5 64483304 		xorq	%fs:40, %rax
 5483      25280000 
 5483      00
 5484 23be 7527     		jne	.L433
 5485 23c0 4881C490 		addq	$2192, %rsp
 5485      080000
 5486              		.cfi_remember_state
 5487              		.cfi_def_cfa_offset 16
 5488 23c7 5B       		popq	%rbx
 5489              		.cfi_def_cfa_offset 8
 5490 23c8 C3       		ret
 5491              	.L421:
 5492              		.cfi_restore_state
 5493 23c9 4889C3   		movq	%rax, %rbx
 5494              	.L410:
 5495 23cc 488D7C24 		leaq	80(%rsp), %rdi
 5495      50
 5496 23d1 48C74424 		movq	$_ZTV17RecordingReporter+16, 80(%rsp)
 5496      50000000 
 5496      00
 5497 23da E8000000 		call	_ZN8UnitTest12TestReporterD2Ev
 5497      00
 5498 23df 4889DF   		movq	%rbx, %rdi
 5499              	.LEHB116:
 5500 23e2 E8000000 		call	_Unwind_Resume
 5500      00
 5501              	.LEHE116:
 5502              	.L433:
 5503 23e7 E8000000 		call	__stack_chk_fail
 5503      00
 5504              	.L432:
 5505              	.LEHB117:
 5506 23ec E8000000 		call	_ZN8UnitTest11CurrentTest7DetailsEv
 5506      00
 5507 23f1 488B30   		movq	(%rax), %rsi
 5508 23f4 488D7C24 		leaq	48(%rsp), %rdi
 5508      30
 5509 23f9 BA430200 		movl	$579, %edx
 5509      00
 5510 23fe E8000000 		call	_ZN8UnitTest11TestDetailsC1ERKS0_i
 5510      00
 5511 2403 E8000000 		call	_ZN8UnitTest11CurrentTest7ResultsEv
 5511      00
 5512 2408 488B38   		movq	(%rax), %rdi
 5513 240b 488D7424 		leaq	48(%rsp), %rsi
 5513      30
 5514 2410 BA000000 		movl	$.LC147, %edx
 5514      00
 5515 2415 E8000000 		call	_ZN8UnitTest11TestResults13OnTestFailureERKNS_11TestDetailsEPKc
 5515      00
 5516              	.LEHE117:
 5517 241a E97BFFFF 		jmp	.L405
 5517      FF
 5518              	.L431:
 5519              	.LEHB118:
 5520 241f E8000000 		call	_ZN8UnitTest11CurrentTest7DetailsEv
 5520      00
 5521 2424 488B30   		movq	(%rax), %rsi
 5522 2427 488D7C24 		leaq	48(%rsp), %rdi
 5522      30
 5523 242c BA420200 		movl	$578, %edx
 5523      00
 5524 2431 E8000000 		call	_ZN8UnitTest11TestDetailsC1ERKS0_i
 5524      00
 5525 2436 E8000000 		call	_ZN8UnitTest11CurrentTest7ResultsEv
 5525      00
 5526 243b 488B38   		movq	(%rax), %rdi
 5527 243e 488D7424 		leaq	48(%rsp), %rsi
 5527      30
 5528 2443 BA000000 		movl	$.LC145, %edx
 5528      00
 5529 2448 E8000000 		call	_ZN8UnitTest11TestResults13OnTestFailureERKNS_11TestDetailsEPKc
 5529      00
 5530              	.LEHE118:
 5531 244d E931FFFF 		jmp	.L403
 5531      FF
 5532              	.L424:
 5533 2452 4889C7   		movq	%rax, %rdi
 5534 2455 E8000000 		call	__cxa_begin_catch
 5534      00
 5535              	.LEHB119:
 5536 245a E8000000 		call	_ZN8UnitTest11CurrentTest7DetailsEv
 5536      00
 5537 245f 488B30   		movq	(%rax), %rsi
 5538 2462 488D7C24 		leaq	48(%rsp), %rdi
 5538      30
 5539 2467 BA430200 		movl	$579, %edx
 5539      00
 5540 246c E8000000 		call	_ZN8UnitTest11TestDetailsC1ERKS0_i
 5540      00
 5541 2471 E8000000 		call	_ZN8UnitTest11CurrentTest7ResultsEv
 5541      00
 5542 2476 488B38   		movq	(%rax), %rdi
 5543 2479 488D7424 		leaq	48(%rsp), %rsi
 5543      30
 5544 247e BA000000 		movl	$.LC150, %edx
 5544      00
