   1              		.file	"TestTestRunner.cpp"
   2              		.section	.text.unlikely._ZN17RecordingReporter13ReportSummaryEiiif,"axG",@progbits,_ZN17RecordingR
   3              		.align 2
   4              	.LCOLDB0:
   5              		.section	.text._ZN17RecordingReporter13ReportSummaryEiiif,"axG",@progbits,_ZN17RecordingReporter13
   6              	.LHOTB0:
   7              		.align 2
   8              		.p2align 4,,15
   9              		.weak	_ZN17RecordingReporter13ReportSummaryEiiif
  11              	_ZN17RecordingReporter13ReportSummaryEiiif:
  12              	.LFB1135:
  13              		.cfi_startproc
  14 0000 89B71C08 		movl	%esi, 2076(%rdi)
  14      0000
  15 0006 89972008 		movl	%edx, 2080(%rdi)
  15      0000
  16 000c F30F1187 		movss	%xmm0, 2088(%rdi)
  16      28080000 
  17 0014 898F2408 		movl	%ecx, 2084(%rdi)
  17      0000
  18 001a C3       		ret
  19              		.cfi_endproc
  20              	.LFE1135:
  22              		.section	.text.unlikely._ZN17RecordingReporter13ReportSummaryEiiif,"axG",@progbits,_ZN17RecordingR
  23              	.LCOLDE0:
  24              		.section	.text._ZN17RecordingReporter13ReportSummaryEiiif,"axG",@progbits,_ZN17RecordingReporter13
  25              	.LHOTE0:
  26              		.section	.text.unlikely,"ax",@progbits
  27              		.align 2
  28              	.LCOLDB1:
  29              		.text
  30              	.LHOTB1:
  31              		.align 2
  32              		.p2align 4,,15
  34              	_ZN12_GLOBAL__N_180TestTestRunnerFixtureTestRunnerOnlyRunsTestsInSpecifiedSuiteAndThatPassPredicate
  35              	.LFB1467:
  36              		.cfi_startproc
  37 0000 48C70700 		movq	$_ZTVN12_GLOBAL__N_180TestTestRunnerFixtureTestRunnerOnlyRunsTestsInSpecifiedSuiteAndThatPass
  37      000000
  38 0007 E9000000 		jmp	_ZN8UnitTest4TestD2Ev
  38      00
  39              		.cfi_endproc
  40              	.LFE1467:
  42              		.section	.text.unlikely
  43              	.LCOLDE1:
  44              		.text
  45              	.LHOTE1:
  46              		.set	_ZN12_GLOBAL__N_180TestTestRunnerFixtureTestRunnerOnlyRunsTestsInSpecifiedSuiteAndThatPassPre
  47              		.section	.text.unlikely
  48              		.align 2
  49              	.LCOLDB2:
  50              		.text
  51              	.LHOTB2:
  52              		.align 2
  53 000c 0F1F4000 		.p2align 4,,15
  55              	_ZN12_GLOBAL__N_157TestTestRunnerFixtureTestRunnerRunsTestsThatPassPredicateD2Ev:
  56              	.LFB1471:
  57              		.cfi_startproc
  58 0010 48C70700 		movq	$_ZTVN12_GLOBAL__N_157TestTestRunnerFixtureTestRunnerRunsTestsThatPassPredicateE+16, (%rdi)
  58      000000
  59 0017 E9000000 		jmp	_ZN8UnitTest4TestD2Ev
  59      00
  60              		.cfi_endproc
  61              	.LFE1471:
  63              		.section	.text.unlikely
  64              	.LCOLDE2:
  65              		.text
  66              	.LHOTE2:
  67              		.set	_ZN12_GLOBAL__N_157TestTestRunnerFixtureTestRunnerRunsTestsThatPassPredicateD1Ev,_ZN12_GLOBAL
  68              		.section	.text.unlikely
  69              		.align 2
  70              	.LCOLDB3:
  71              		.text
  72              	.LHOTB3:
  73              		.align 2
  74 001c 0F1F4000 		.p2align 4,,15
  76              	_ZN12_GLOBAL__N_137TestTestMockPredicateBehavesCorrectlyD2Ev:
  77              	.LFB1475:
  78              		.cfi_startproc
  79 0020 48C70700 		movq	$_ZTVN12_GLOBAL__N_137TestTestMockPredicateBehavesCorrectlyE+16, (%rdi)
  79      000000
  80 0027 E9000000 		jmp	_ZN8UnitTest4TestD2Ev
  80      00
  81              		.cfi_endproc
  82              	.LFE1475:
  84              		.section	.text.unlikely
  85              	.LCOLDE3:
  86              		.text
  87              	.LHOTE3:
  88              		.set	_ZN12_GLOBAL__N_137TestTestMockPredicateBehavesCorrectlyD1Ev,_ZN12_GLOBAL__N_137TestTestMockP
  89              		.section	.text.unlikely
  90              		.align 2
  91              	.LCOLDB4:
  92              		.text
  93              	.LHOTB4:
  94              		.align 2
  95 002c 0F1F4000 		.p2align 4,,15
  97              	_ZN12_GLOBAL__N_152TestTestSuiteFixtureTestRunnerRunsOnlySpecifiedSuiteD2Ev:
  98              	.LFB1479:
  99              		.cfi_startproc
 100 0030 48C70700 		movq	$_ZTVN12_GLOBAL__N_152TestTestSuiteFixtureTestRunnerRunsOnlySpecifiedSuiteE+16, (%rdi)
 100      000000
 101 0037 E9000000 		jmp	_ZN8UnitTest4TestD2Ev
 101      00
 102              		.cfi_endproc
 103              	.LFE1479:
 105              		.section	.text.unlikely
 106              	.LCOLDE4:
 107              		.text
 108              	.LHOTE4:
 109              		.set	_ZN12_GLOBAL__N_152TestTestSuiteFixtureTestRunnerRunsOnlySpecifiedSuiteD1Ev,_ZN12_GLOBAL__N_1
 110              		.section	.text.unlikely
 111              		.align 2
 112              	.LCOLDB5:
 113              		.text
 114              	.LHOTB5:
 115              		.align 2
 116 003c 0F1F4000 		.p2align 4,,15
 118              	_ZN12_GLOBAL__N_162TestTestSuiteFixtureTestRunnerRunsAllSuitesIfNullSuiteIsPassedD2Ev:
 119              	.LFB1483:
 120              		.cfi_startproc
 121 0040 48C70700 		movq	$_ZTVN12_GLOBAL__N_162TestTestSuiteFixtureTestRunnerRunsAllSuitesIfNullSuiteIsPassedE+16, (%r
 121      000000
 122 0047 E9000000 		jmp	_ZN8UnitTest4TestD2Ev
 122      00
 123              		.cfi_endproc
 124              	.LFE1483:
 126              		.section	.text.unlikely
 127              	.LCOLDE5:
 128              		.text
 129              	.LHOTE5:
 130              		.set	_ZN12_GLOBAL__N_162TestTestSuiteFixtureTestRunnerRunsAllSuitesIfNullSuiteIsPassedD1Ev,_ZN12_G
 131              		.section	.text.unlikely
 132              		.align 2
 133              	.LCOLDB6:
 134              		.text
 135              	.LHOTB6:
 136              		.align 2
 137 004c 0F1F4000 		.p2align 4,,15
 139              	_ZN12_GLOBAL__N_152TestTestRunnerFixtureSlowTestWithTimeExemptionPassesD2Ev:
 140              	.LFB1491:
 141              		.cfi_startproc
 142 0050 48C70700 		movq	$_ZTVN12_GLOBAL__N_152TestTestRunnerFixtureSlowTestWithTimeExemptionPassesE+16, (%rdi)
 142      000000
 143 0057 E9000000 		jmp	_ZN8UnitTest4TestD2Ev
 143      00
 144              		.cfi_endproc
 145              	.LFE1491:
 147              		.section	.text.unlikely
 148              	.LCOLDE6:
 149              		.text
 150              	.LHOTE6:
 151              		.set	_ZN12_GLOBAL__N_152TestTestRunnerFixtureSlowTestWithTimeExemptionPassesD1Ev,_ZN12_GLOBAL__N_1
 152              		.section	.text.unlikely
 153              		.align 2
 154              	.LCOLDB7:
 155              		.text
 156              	.LHOTB7:
 157              		.align 2
 158 005c 0F1F4000 		.p2align 4,,15
 160              	_ZZN12_GLOBAL__N_154TestRunnerFixtureSlowTestWithTimeExemptionPassesHelper7RunImplEvEN16SlowExempte
 161              	.LFB1487:
 162              		.cfi_startproc
 163 0060 48C70700 		movq	$_ZTVZN12_GLOBAL__N_154TestRunnerFixtureSlowTestWithTimeExemptionPassesHelper7RunImplEvE16Slo
 163      000000
 164 0067 E9000000 		jmp	_ZN8UnitTest4TestD2Ev
 164      00
 165              		.cfi_endproc
 166              	.LFE1487:
 168              		.section	.text.unlikely
 169              	.LCOLDE7:
 170              		.text
 171              	.LHOTE7:
 172              		.set	_ZZN12_GLOBAL__N_154TestRunnerFixtureSlowTestWithTimeExemptionPassesHelper7RunImplEvEN16SlowE
 173              		.section	.text.unlikely
 174              		.align 2
 175              	.LCOLDB8:
 176              		.text
 177              	.LHOTB8:
 178              		.align 2
 179 006c 0F1F4000 		.p2align 4,,15
 181              	_ZN12_GLOBAL__N_157TestTestRunnerFixtureSlowTestHasCorrectFailureInformationD2Ev:
 182              	.LFB1495:
 183              		.cfi_startproc
 184 0070 48C70700 		movq	$_ZTVN12_GLOBAL__N_157TestTestRunnerFixtureSlowTestHasCorrectFailureInformationE+16, (%rdi)
 184      000000
 185 0077 E9000000 		jmp	_ZN8UnitTest4TestD2Ev
 185      00
 186              		.cfi_endproc
 187              	.LFE1495:
 189              		.section	.text.unlikely
 190              	.LCOLDE8:
 191              		.text
 192              	.LHOTE8:
 193              		.set	_ZN12_GLOBAL__N_157TestTestRunnerFixtureSlowTestHasCorrectFailureInformationD1Ev,_ZN12_GLOBAL
 194              		.section	.text.unlikely
 195              		.align 2
 196              	.LCOLDB9:
 197              		.text
 198              	.LHOTB9:
 199              		.align 2
 200 007c 0F1F4000 		.p2align 4,,15
 202              	_ZN12_GLOBAL__N_18SlowTestD2Ev:
 203              	.LFB1535:
 204              		.cfi_startproc
 205 0080 48C70700 		movq	$_ZTVN12_GLOBAL__N_18SlowTestE+16, (%rdi)
 205      000000
 206 0087 E9000000 		jmp	_ZN8UnitTest4TestD2Ev
 206      00
 207              		.cfi_endproc
 208              	.LFE1535:
 210              		.section	.text.unlikely
 211              	.LCOLDE9:
 212              		.text
 213              	.LHOTE9:
 214              		.set	_ZN12_GLOBAL__N_18SlowTestD1Ev,_ZN12_GLOBAL__N_18SlowTestD2Ev
 215              		.section	.text.unlikely
 216              		.align 2
 217              	.LCOLDB10:
 218              		.text
 219              	.LHOTB10:
 220              		.align 2
 221 008c 0F1F4000 		.p2align 4,,15
 223              	_ZN12_GLOBAL__N_153TestTestRunnerFixtureSlowTestFailsForLowTimeThresholdD2Ev:
 224              	.LFB1499:
 225              		.cfi_startproc
 226 0090 48C70700 		movq	$_ZTVN12_GLOBAL__N_153TestTestRunnerFixtureSlowTestFailsForLowTimeThresholdE+16, (%rdi)
 226      000000
 227 0097 E9000000 		jmp	_ZN8UnitTest4TestD2Ev
 227      00
 228              		.cfi_endproc
 229              	.LFE1499:
 231              		.section	.text.unlikely
 232              	.LCOLDE10:
 233              		.text
 234              	.LHOTE10:
 235              		.set	_ZN12_GLOBAL__N_153TestTestRunnerFixtureSlowTestFailsForLowTimeThresholdD1Ev,_ZN12_GLOBAL__N_
 236              		.section	.text.unlikely
 237              		.align 2
 238              	.LCOLDB11:
 239              		.text
 240              	.LHOTB11:
 241              		.align 2
 242 009c 0F1F4000 		.p2align 4,,15
 244              	_ZN12_GLOBAL__N_155TestTestRunnerFixtureSlowTestPassesForHighTimeThresholdD2Ev:
 245              	.LFB1503:
 246              		.cfi_startproc
 247 00a0 48C70700 		movq	$_ZTVN12_GLOBAL__N_155TestTestRunnerFixtureSlowTestPassesForHighTimeThresholdE+16, (%rdi)
 247      000000
 248 00a7 E9000000 		jmp	_ZN8UnitTest4TestD2Ev
 248      00
 249              		.cfi_endproc
 250              	.LFE1503:
 252              		.section	.text.unlikely
 253              	.LCOLDE11:
 254              		.text
 255              	.LHOTE11:
 256              		.set	_ZN12_GLOBAL__N_155TestTestRunnerFixtureSlowTestPassesForHighTimeThresholdD1Ev,_ZN12_GLOBAL__
 257              		.section	.text.unlikely
 258              		.align 2
 259              	.LCOLDB12:
 260              		.text
 261              	.LHOTB12:
 262              		.align 2
 263 00ac 0F1F4000 		.p2align 4,,15
 265              	_ZN12_GLOBAL__N_147TestTestRunnerFixtureReporterNotifiedOfFailuresD2Ev:
 266              	.LFB1507:
 267              		.cfi_startproc
 268 00b0 48C70700 		movq	$_ZTVN12_GLOBAL__N_147TestTestRunnerFixtureReporterNotifiedOfFailuresE+16, (%rdi)
 268      000000
 269 00b7 E9000000 		jmp	_ZN8UnitTest4TestD2Ev
 269      00
 270              		.cfi_endproc
 271              	.LFE1507:
 273              		.section	.text.unlikely
 274              	.LCOLDE12:
 275              		.text
 276              	.LHOTE12:
 277              		.set	_ZN12_GLOBAL__N_147TestTestRunnerFixtureReporterNotifiedOfFailuresD1Ev,_ZN12_GLOBAL__N_147Tes
 278              		.section	.text.unlikely
 279              		.align 2
 280              	.LCOLDB13:
 281              		.text
 282              	.LHOTB13:
 283              		.align 2
 284 00bc 0F1F4000 		.p2align 4,,15
 286              	_ZN12_GLOBAL__N_18MockTestD2Ev:
 287              	.LFB1547:
 288              		.cfi_startproc
 289 00c0 48C70700 		movq	$_ZTVN12_GLOBAL__N_18MockTestE+16, (%rdi)
 289      000000
 290 00c7 E9000000 		jmp	_ZN8UnitTest4TestD2Ev
 290      00
 291              		.cfi_endproc
 292              	.LFE1547:
 294              		.section	.text.unlikely
 295              	.LCOLDE13:
 296              		.text
 297              	.LHOTE13:
 298              		.set	_ZN12_GLOBAL__N_18MockTestD1Ev,_ZN12_GLOBAL__N_18MockTestD2Ev
 299              		.section	.text.unlikely
 300              		.align 2
 301              	.LCOLDB14:
 302              		.text
 303              	.LHOTB14:
 304              		.align 2
 305 00cc 0F1F4000 		.p2align 4,,15
 307              	_ZN12_GLOBAL__N_150TestTestRunnerFixtureReporterNotifiedOfFailedTestsD2Ev:
 308              	.LFB1511:
 309              		.cfi_startproc
 310 00d0 48C70700 		movq	$_ZTVN12_GLOBAL__N_150TestTestRunnerFixtureReporterNotifiedOfFailedTestsE+16, (%rdi)
 310      000000
 311 00d7 E9000000 		jmp	_ZN8UnitTest4TestD2Ev
 311      00
 312              		.cfi_endproc
 313              	.LFE1511:
 315              		.section	.text.unlikely
 316              	.LCOLDE14:
 317              		.text
 318              	.LHOTE14:
 319              		.set	_ZN12_GLOBAL__N_150TestTestRunnerFixtureReporterNotifiedOfFailedTestsD1Ev,_ZN12_GLOBAL__N_150
 320              		.section	.text.unlikely
 321              		.align 2
 322              	.LCOLDB15:
 323              		.text
 324              	.LHOTB15:
 325              		.align 2
 326 00dc 0F1F4000 		.p2align 4,,15
 328              	_ZN12_GLOBAL__N_148TestTestRunnerFixtureReporterNotifiedOfTestCountD2Ev:
 329              	.LFB1515:
 330              		.cfi_startproc
 331 00e0 48C70700 		movq	$_ZTVN12_GLOBAL__N_148TestTestRunnerFixtureReporterNotifiedOfTestCountE+16, (%rdi)
 331      000000
 332 00e7 E9000000 		jmp	_ZN8UnitTest4TestD2Ev
 332      00
 333              		.cfi_endproc
 334              	.LFE1515:
 336              		.section	.text.unlikely
 337              	.LCOLDE15:
 338              		.text
 339              	.LHOTE15:
 340              		.set	_ZN12_GLOBAL__N_148TestTestRunnerFixtureReporterNotifiedOfTestCountD1Ev,_ZN12_GLOBAL__N_148Te
 341              		.section	.text.unlikely
 342              		.align 2
 343              	.LCOLDB16:
 344              		.text
 345              	.LHOTB16:
 346              		.align 2
 347 00ec 0F1F4000 		.p2align 4,,15
 349              	_ZN12_GLOBAL__N_156TestTestRunnerFixtureTestsThatAssertAreReportedAsFailingD2Ev:
 350              	.LFB1519:
 351              		.cfi_startproc
 352 00f0 48C70700 		movq	$_ZTVN12_GLOBAL__N_156TestTestRunnerFixtureTestsThatAssertAreReportedAsFailingE+16, (%rdi)
 352      000000
 353 00f7 E9000000 		jmp	_ZN8UnitTest4TestD2Ev
 353      00
 354              		.cfi_endproc
 355              	.LFE1519:
 357              		.section	.text.unlikely
 358              	.LCOLDE16:
 359              		.text
 360              	.LHOTE16:
 361              		.set	_ZN12_GLOBAL__N_156TestTestRunnerFixtureTestsThatAssertAreReportedAsFailingD1Ev,_ZN12_GLOBAL_
 362              		.section	.text.unlikely
 363              		.align 2
 364              	.LCOLDB17:
 365              		.text
 366              	.LHOTB17:
 367              		.align 2
 368 00fc 0F1F4000 		.p2align 4,,15
 370              	_ZN12_GLOBAL__N_157TestTestRunnerFixtureCallsReportFailureOncePerFailingTestD2Ev:
 371              	.LFB1523:
 372              		.cfi_startproc
 373 0100 48C70700 		movq	$_ZTVN12_GLOBAL__N_157TestTestRunnerFixtureCallsReportFailureOncePerFailingTestE+16, (%rdi)
 373      000000
 374 0107 E9000000 		jmp	_ZN8UnitTest4TestD2Ev
 374      00
 375              		.cfi_endproc
 376              	.LFE1523:
 378              		.section	.text.unlikely
 379              	.LCOLDE17:
 380              		.text
 381              	.LHOTE17:
 382              		.set	_ZN12_GLOBAL__N_157TestTestRunnerFixtureCallsReportFailureOncePerFailingTestD1Ev,_ZN12_GLOBAL
 383              		.section	.text.unlikely
 384              		.align 2
 385              	.LCOLDB18:
 386              		.text
 387              	.LHOTB18:
 388              		.align 2
 389 010c 0F1F4000 		.p2align 4,,15
 391              	_ZN12_GLOBAL__N_156TestTestRunnerFixtureFailureCountIsZeroWhenNoTestsAreRunD2Ev:
 392              	.LFB1527:
 393              		.cfi_startproc
 394 0110 48C70700 		movq	$_ZTVN12_GLOBAL__N_156TestTestRunnerFixtureFailureCountIsZeroWhenNoTestsAreRunE+16, (%rdi)
 394      000000
 395 0117 E9000000 		jmp	_ZN8UnitTest4TestD2Ev
 395      00
 396              		.cfi_endproc
 397              	.LFE1527:
 399              		.section	.text.unlikely
 400              	.LCOLDE18:
 401              		.text
 402              	.LHOTE18:
 403              		.set	_ZN12_GLOBAL__N_156TestTestRunnerFixtureFailureCountIsZeroWhenNoTestsAreRunD1Ev,_ZN12_GLOBAL_
 404              		.section	.text.unlikely
 405              		.align 2
 406              	.LCOLDB19:
 407              		.text
 408              	.LHOTB19:
 409              		.align 2
 410 011c 0F1F4000 		.p2align 4,,15
 412              	_ZN12_GLOBAL__N_154TestTestRunnerFixtureTestFinishIsCalledWithCorrectTimeD2Ev:
 413              	.LFB1531:
 414              		.cfi_startproc
 415 0120 48C70700 		movq	$_ZTVN12_GLOBAL__N_154TestTestRunnerFixtureTestFinishIsCalledWithCorrectTimeE+16, (%rdi)
 415      000000
 416 0127 E9000000 		jmp	_ZN8UnitTest4TestD2Ev
 416      00
 417              		.cfi_endproc
 418              	.LFE1531:
 420              		.section	.text.unlikely
 421              	.LCOLDE19:
 422              		.text
 423              	.LHOTE19:
 424              		.set	_ZN12_GLOBAL__N_154TestTestRunnerFixtureTestFinishIsCalledWithCorrectTimeD1Ev,_ZN12_GLOBAL__N
 425              		.section	.text.unlikely
 426              		.align 2
 427              	.LCOLDB20:
 428              		.text
 429              	.LHOTB20:
 430              		.align 2
 431 012c 0F1F4000 		.p2align 4,,15
 433              	_ZN12_GLOBAL__N_150TestTestRunnerFixtureTestFinishIsReportedCorrectlyD2Ev:
 434              	.LFB1539:
 435              		.cfi_startproc
 436 0130 48C70700 		movq	$_ZTVN12_GLOBAL__N_150TestTestRunnerFixtureTestFinishIsReportedCorrectlyE+16, (%rdi)
 436      000000
 437 0137 E9000000 		jmp	_ZN8UnitTest4TestD2Ev
 437      00
 438              		.cfi_endproc
 439              	.LFE1539:
 441              		.section	.text.unlikely
 442              	.LCOLDE20:
 443              		.text
 444              	.LHOTE20:
 445              		.set	_ZN12_GLOBAL__N_150TestTestRunnerFixtureTestFinishIsReportedCorrectlyD1Ev,_ZN12_GLOBAL__N_150
 446              		.section	.text.unlikely
 447              		.align 2
 448              	.LCOLDB21:
 449              		.text
 450              	.LHOTB21:
 451              		.align 2
 452 013c 0F1F4000 		.p2align 4,,15
 454              	_ZN12_GLOBAL__N_149TestTestRunnerFixtureTestStartIsReportedCorrectlyD2Ev:
 455              	.LFB1543:
 456              		.cfi_startproc
 457 0140 48C70700 		movq	$_ZTVN12_GLOBAL__N_149TestTestRunnerFixtureTestStartIsReportedCorrectlyE+16, (%rdi)
 457      000000
 458 0147 E9000000 		jmp	_ZN8UnitTest4TestD2Ev
 458      00
 459              		.cfi_endproc
 460              	.LFE1543:
 462              		.section	.text.unlikely
 463              	.LCOLDE21:
 464              		.text
 465              	.LHOTE21:
 466              		.set	_ZN12_GLOBAL__N_149TestTestRunnerFixtureTestStartIsReportedCorrectlyD1Ev,_ZN12_GLOBAL__N_149T
 467              		.section	.text.unlikely
 468              		.align 2
 469              	.LCOLDB22:
 470              		.text
 471              	.LHOTB22:
 472              		.align 2
 473 014c 0F1F4000 		.p2align 4,,15
 475              	_ZN12_GLOBAL__N_180TestTestRunnerFixtureTestRunnerOnlyRunsTestsInSpecifiedSuiteAndThatPassPredicate
 476              	.LFB1469:
 477              		.cfi_startproc
 478 0150 53       		pushq	%rbx
 479              		.cfi_def_cfa_offset 16
 480              		.cfi_offset 3, -16
 481 0151 4889FB   		movq	%rdi, %rbx
 482 0154 48C70700 		movq	$_ZTVN12_GLOBAL__N_180TestTestRunnerFixtureTestRunnerOnlyRunsTestsInSpecifiedSuiteAndThatPass
 482      000000
 483 015b E8000000 		call	_ZN8UnitTest4TestD2Ev
 483      00
 484 0160 4889DF   		movq	%rbx, %rdi
 485 0163 5B       		popq	%rbx
 486              		.cfi_def_cfa_offset 8
 487 0164 E9000000 		jmp	_ZdlPv
 487      00
 488              		.cfi_endproc
 489              	.LFE1469:
 491              		.section	.text.unlikely
 492              	.LCOLDE22:
 493              		.text
 494              	.LHOTE22:
 495              		.section	.text.unlikely
 496              		.align 2
 497              	.LCOLDB23:
 498              		.text
 499              	.LHOTB23:
 500 0169 90       		.align 2
 501 016a 660F1F44 		.p2align 4,,15
 501      0000
 503              	_ZN12_GLOBAL__N_157TestTestRunnerFixtureTestRunnerRunsTestsThatPassPredicateD0Ev:
 504              	.LFB1473:
 505              		.cfi_startproc
 506 0170 53       		pushq	%rbx
 507              		.cfi_def_cfa_offset 16
 508              		.cfi_offset 3, -16
 509 0171 4889FB   		movq	%rdi, %rbx
 510 0174 48C70700 		movq	$_ZTVN12_GLOBAL__N_157TestTestRunnerFixtureTestRunnerRunsTestsThatPassPredicateE+16, (%rdi)
 510      000000
 511 017b E8000000 		call	_ZN8UnitTest4TestD2Ev
 511      00
 512 0180 4889DF   		movq	%rbx, %rdi
 513 0183 5B       		popq	%rbx
 514              		.cfi_def_cfa_offset 8
 515 0184 E9000000 		jmp	_ZdlPv
 515      00
 516              		.cfi_endproc
 517              	.LFE1473:
 519              		.section	.text.unlikely
 520              	.LCOLDE23:
 521              		.text
 522              	.LHOTE23:
 523              		.section	.text.unlikely
 524              		.align 2
 525              	.LCOLDB24:
 526              		.text
 527              	.LHOTB24:
 528 0189 90       		.align 2
 529 018a 660F1F44 		.p2align 4,,15
 529      0000
 531              	_ZN12_GLOBAL__N_137TestTestMockPredicateBehavesCorrectlyD0Ev:
 532              	.LFB1477:
 533              		.cfi_startproc
 534 0190 53       		pushq	%rbx
 535              		.cfi_def_cfa_offset 16
 536              		.cfi_offset 3, -16
 537 0191 4889FB   		movq	%rdi, %rbx
 538 0194 48C70700 		movq	$_ZTVN12_GLOBAL__N_137TestTestMockPredicateBehavesCorrectlyE+16, (%rdi)
 538      000000
 539 019b E8000000 		call	_ZN8UnitTest4TestD2Ev
 539      00
 540 01a0 4889DF   		movq	%rbx, %rdi
 541 01a3 5B       		popq	%rbx
 542              		.cfi_def_cfa_offset 8
 543 01a4 E9000000 		jmp	_ZdlPv
 543      00
 544              		.cfi_endproc
 545              	.LFE1477:
 547              		.section	.text.unlikely
 548              	.LCOLDE24:
 549              		.text
 550              	.LHOTE24:
 551              		.section	.text.unlikely
 552              		.align 2
 553              	.LCOLDB25:
 554              		.text
 555              	.LHOTB25:
 556 01a9 90       		.align 2
 557 01aa 660F1F44 		.p2align 4,,15
 557      0000
 559              	_ZN12_GLOBAL__N_152TestTestSuiteFixtureTestRunnerRunsOnlySpecifiedSuiteD0Ev:
 560              	.LFB1481:
 561              		.cfi_startproc
 562 01b0 53       		pushq	%rbx
 563              		.cfi_def_cfa_offset 16
 564              		.cfi_offset 3, -16
 565 01b1 4889FB   		movq	%rdi, %rbx
 566 01b4 48C70700 		movq	$_ZTVN12_GLOBAL__N_152TestTestSuiteFixtureTestRunnerRunsOnlySpecifiedSuiteE+16, (%rdi)
 566      000000
 567 01bb E8000000 		call	_ZN8UnitTest4TestD2Ev
 567      00
 568 01c0 4889DF   		movq	%rbx, %rdi
 569 01c3 5B       		popq	%rbx
 570              		.cfi_def_cfa_offset 8
 571 01c4 E9000000 		jmp	_ZdlPv
 571      00
 572              		.cfi_endproc
 573              	.LFE1481:
 575              		.section	.text.unlikely
 576              	.LCOLDE25:
 577              		.text
 578              	.LHOTE25:
 579              		.section	.text.unlikely
 580              		.align 2
 581              	.LCOLDB26:
 582              		.text
 583              	.LHOTB26:
 584 01c9 90       		.align 2
 585 01ca 660F1F44 		.p2align 4,,15
 585      0000
 587              	_ZN12_GLOBAL__N_162TestTestSuiteFixtureTestRunnerRunsAllSuitesIfNullSuiteIsPassedD0Ev:
 588              	.LFB1485:
 589              		.cfi_startproc
 590 01d0 53       		pushq	%rbx
 591              		.cfi_def_cfa_offset 16
 592              		.cfi_offset 3, -16
 593 01d1 4889FB   		movq	%rdi, %rbx
 594 01d4 48C70700 		movq	$_ZTVN12_GLOBAL__N_162TestTestSuiteFixtureTestRunnerRunsAllSuitesIfNullSuiteIsPassedE+16, (%r
 594      000000
 595 01db E8000000 		call	_ZN8UnitTest4TestD2Ev
 595      00
 596 01e0 4889DF   		movq	%rbx, %rdi
 597 01e3 5B       		popq	%rbx
 598              		.cfi_def_cfa_offset 8
 599 01e4 E9000000 		jmp	_ZdlPv
 599      00
 600              		.cfi_endproc
 601              	.LFE1485:
 603              		.section	.text.unlikely
 604              	.LCOLDE26:
 605              		.text
 606              	.LHOTE26:
 607              		.section	.text.unlikely
 608              		.align 2
 609              	.LCOLDB27:
 610              		.text
 611              	.LHOTB27:
 612 01e9 90       		.align 2
 613 01ea 660F1F44 		.p2align 4,,15
 613      0000
 615              	_ZZN12_GLOBAL__N_154TestRunnerFixtureSlowTestWithTimeExemptionPassesHelper7RunImplEvEN16SlowExempte
 616              	.LFB1489:
 617              		.cfi_startproc
 618 01f0 53       		pushq	%rbx
 619              		.cfi_def_cfa_offset 16
 620              		.cfi_offset 3, -16
 621 01f1 4889FB   		movq	%rdi, %rbx
 622 01f4 48C70700 		movq	$_ZTVZN12_GLOBAL__N_154TestRunnerFixtureSlowTestWithTimeExemptionPassesHelper7RunImplEvE16Slo
 622      000000
 623 01fb E8000000 		call	_ZN8UnitTest4TestD2Ev
 623      00
 624 0200 4889DF   		movq	%rbx, %rdi
 625 0203 5B       		popq	%rbx
 626              		.cfi_def_cfa_offset 8
 627 0204 E9000000 		jmp	_ZdlPv
 627      00
 628              		.cfi_endproc
 629              	.LFE1489:
 631              		.section	.text.unlikely
 632              	.LCOLDE27:
 633              		.text
 634              	.LHOTE27:
 635              		.section	.text.unlikely
 636              		.align 2
 637              	.LCOLDB28:
 638              		.text
 639              	.LHOTB28:
 640 0209 90       		.align 2
 641 020a 660F1F44 		.p2align 4,,15
 641      0000
 643              	_ZN12_GLOBAL__N_152TestTestRunnerFixtureSlowTestWithTimeExemptionPassesD0Ev:
 644              	.LFB1493:
 645              		.cfi_startproc
 646 0210 53       		pushq	%rbx
 647              		.cfi_def_cfa_offset 16
 648              		.cfi_offset 3, -16
 649 0211 4889FB   		movq	%rdi, %rbx
 650 0214 48C70700 		movq	$_ZTVN12_GLOBAL__N_152TestTestRunnerFixtureSlowTestWithTimeExemptionPassesE+16, (%rdi)
 650      000000
 651 021b E8000000 		call	_ZN8UnitTest4TestD2Ev
 651      00
 652 0220 4889DF   		movq	%rbx, %rdi
 653 0223 5B       		popq	%rbx
 654              		.cfi_def_cfa_offset 8
 655 0224 E9000000 		jmp	_ZdlPv
 655      00
 656              		.cfi_endproc
 657              	.LFE1493:
 659              		.section	.text.unlikely
 660              	.LCOLDE28:
 661              		.text
 662              	.LHOTE28:
 663              		.section	.text.unlikely
 664              		.align 2
 665              	.LCOLDB29:
 666              		.text
 667              	.LHOTB29:
 668 0229 90       		.align 2
 669 022a 660F1F44 		.p2align 4,,15
 669      0000
 671              	_ZN12_GLOBAL__N_18SlowTestD0Ev:
 672              	.LFB1537:
 673              		.cfi_startproc
 674 0230 53       		pushq	%rbx
 675              		.cfi_def_cfa_offset 16
 676              		.cfi_offset 3, -16
 677 0231 4889FB   		movq	%rdi, %rbx
 678 0234 48C70700 		movq	$_ZTVN12_GLOBAL__N_18SlowTestE+16, (%rdi)
 678      000000
 679 023b E8000000 		call	_ZN8UnitTest4TestD2Ev
 679      00
 680 0240 4889DF   		movq	%rbx, %rdi
 681 0243 5B       		popq	%rbx
 682              		.cfi_def_cfa_offset 8
 683 0244 E9000000 		jmp	_ZdlPv
 683      00
 684              		.cfi_endproc
 685              	.LFE1537:
 687              		.section	.text.unlikely
 688              	.LCOLDE29:
 689              		.text
 690              	.LHOTE29:
 691              		.section	.text.unlikely
 692              		.align 2
 693              	.LCOLDB30:
 694              		.text
 695              	.LHOTB30:
 696 0249 90       		.align 2
 697 024a 660F1F44 		.p2align 4,,15
 697      0000
 699              	_ZN12_GLOBAL__N_157TestTestRunnerFixtureSlowTestHasCorrectFailureInformationD0Ev:
 700              	.LFB1497:
 701              		.cfi_startproc
 702 0250 53       		pushq	%rbx
 703              		.cfi_def_cfa_offset 16
 704              		.cfi_offset 3, -16
 705 0251 4889FB   		movq	%rdi, %rbx
 706 0254 48C70700 		movq	$_ZTVN12_GLOBAL__N_157TestTestRunnerFixtureSlowTestHasCorrectFailureInformationE+16, (%rdi)
 706      000000
 707 025b E8000000 		call	_ZN8UnitTest4TestD2Ev
 707      00
 708 0260 4889DF   		movq	%rbx, %rdi
 709 0263 5B       		popq	%rbx
 710              		.cfi_def_cfa_offset 8
 711 0264 E9000000 		jmp	_ZdlPv
 711      00
 712              		.cfi_endproc
 713              	.LFE1497:
 715              		.section	.text.unlikely
 716              	.LCOLDE30:
 717              		.text
 718              	.LHOTE30:
 719              		.section	.text.unlikely
 720              		.align 2
 721              	.LCOLDB31:
 722              		.text
 723              	.LHOTB31:
 724 0269 90       		.align 2
 725 026a 660F1F44 		.p2align 4,,15
 725      0000
 727              	_ZN12_GLOBAL__N_153TestTestRunnerFixtureSlowTestFailsForLowTimeThresholdD0Ev:
 728              	.LFB1501:
 729              		.cfi_startproc
 730 0270 53       		pushq	%rbx
 731              		.cfi_def_cfa_offset 16
 732              		.cfi_offset 3, -16
 733 0271 4889FB   		movq	%rdi, %rbx
 734 0274 48C70700 		movq	$_ZTVN12_GLOBAL__N_153TestTestRunnerFixtureSlowTestFailsForLowTimeThresholdE+16, (%rdi)
 734      000000
 735 027b E8000000 		call	_ZN8UnitTest4TestD2Ev
 735      00
 736 0280 4889DF   		movq	%rbx, %rdi
 737 0283 5B       		popq	%rbx
 738              		.cfi_def_cfa_offset 8
 739 0284 E9000000 		jmp	_ZdlPv
 739      00
 740              		.cfi_endproc
 741              	.LFE1501:
 743              		.section	.text.unlikely
 744              	.LCOLDE31:
 745              		.text
 746              	.LHOTE31:
 747              		.section	.text.unlikely
 748              		.align 2
 749              	.LCOLDB32:
 750              		.text
 751              	.LHOTB32:
 752 0289 90       		.align 2
 753 028a 660F1F44 		.p2align 4,,15
 753      0000
 755              	_ZN12_GLOBAL__N_155TestTestRunnerFixtureSlowTestPassesForHighTimeThresholdD0Ev:
 756              	.LFB1505:
 757              		.cfi_startproc
 758 0290 53       		pushq	%rbx
 759              		.cfi_def_cfa_offset 16
 760              		.cfi_offset 3, -16
 761 0291 4889FB   		movq	%rdi, %rbx
 762 0294 48C70700 		movq	$_ZTVN12_GLOBAL__N_155TestTestRunnerFixtureSlowTestPassesForHighTimeThresholdE+16, (%rdi)
 762      000000
 763 029b E8000000 		call	_ZN8UnitTest4TestD2Ev
 763      00
 764 02a0 4889DF   		movq	%rbx, %rdi
 765 02a3 5B       		popq	%rbx
 766              		.cfi_def_cfa_offset 8
 767 02a4 E9000000 		jmp	_ZdlPv
 767      00
 768              		.cfi_endproc
 769              	.LFE1505:
 771              		.section	.text.unlikely
 772              	.LCOLDE32:
 773              		.text
 774              	.LHOTE32:
 775              		.section	.text.unlikely
 776              		.align 2
 777              	.LCOLDB33:
 778              		.text
 779              	.LHOTB33:
 780 02a9 90       		.align 2
 781 02aa 660F1F44 		.p2align 4,,15
 781      0000
 783              	_ZN12_GLOBAL__N_18MockTestD0Ev:
 784              	.LFB1549:
 785              		.cfi_startproc
 786 02b0 53       		pushq	%rbx
 787              		.cfi_def_cfa_offset 16
 788              		.cfi_offset 3, -16
 789 02b1 4889FB   		movq	%rdi, %rbx
 790 02b4 48C70700 		movq	$_ZTVN12_GLOBAL__N_18MockTestE+16, (%rdi)
 790      000000
 791 02bb E8000000 		call	_ZN8UnitTest4TestD2Ev
 791      00
 792 02c0 4889DF   		movq	%rbx, %rdi
 793 02c3 5B       		popq	%rbx
 794              		.cfi_def_cfa_offset 8
 795 02c4 E9000000 		jmp	_ZdlPv
 795      00
 796              		.cfi_endproc
 797              	.LFE1549:
 799              		.section	.text.unlikely
 800              	.LCOLDE33:
 801              		.text
 802              	.LHOTE33:
 803              		.section	.text.unlikely
 804              		.align 2
 805              	.LCOLDB34:
 806              		.text
 807              	.LHOTB34:
 808 02c9 90       		.align 2
 809 02ca 660F1F44 		.p2align 4,,15
 809      0000
 811              	_ZN12_GLOBAL__N_147TestTestRunnerFixtureReporterNotifiedOfFailuresD0Ev:
 812              	.LFB1509:
 813              		.cfi_startproc
 814 02d0 53       		pushq	%rbx
 815              		.cfi_def_cfa_offset 16
 816              		.cfi_offset 3, -16
 817 02d1 4889FB   		movq	%rdi, %rbx
 818 02d4 48C70700 		movq	$_ZTVN12_GLOBAL__N_147TestTestRunnerFixtureReporterNotifiedOfFailuresE+16, (%rdi)
 818      000000
 819 02db E8000000 		call	_ZN8UnitTest4TestD2Ev
 819      00
 820 02e0 4889DF   		movq	%rbx, %rdi
 821 02e3 5B       		popq	%rbx
 822              		.cfi_def_cfa_offset 8
 823 02e4 E9000000 		jmp	_ZdlPv
 823      00
 824              		.cfi_endproc
 825              	.LFE1509:
 827              		.section	.text.unlikely
 828              	.LCOLDE34:
 829              		.text
 830              	.LHOTE34:
 831              		.section	.text.unlikely
 832              		.align 2
 833              	.LCOLDB35:
 834              		.text
 835              	.LHOTB35:
 836 02e9 90       		.align 2
 837 02ea 660F1F44 		.p2align 4,,15
 837      0000
 839              	_ZN12_GLOBAL__N_150TestTestRunnerFixtureReporterNotifiedOfFailedTestsD0Ev:
 840              	.LFB1513:
 841              		.cfi_startproc
 842 02f0 53       		pushq	%rbx
 843              		.cfi_def_cfa_offset 16
 844              		.cfi_offset 3, -16
 845 02f1 4889FB   		movq	%rdi, %rbx
 846 02f4 48C70700 		movq	$_ZTVN12_GLOBAL__N_150TestTestRunnerFixtureReporterNotifiedOfFailedTestsE+16, (%rdi)
 846      000000
 847 02fb E8000000 		call	_ZN8UnitTest4TestD2Ev
 847      00
 848 0300 4889DF   		movq	%rbx, %rdi
 849 0303 5B       		popq	%rbx
 850              		.cfi_def_cfa_offset 8
 851 0304 E9000000 		jmp	_ZdlPv
 851      00
 852              		.cfi_endproc
 853              	.LFE1513:
 855              		.section	.text.unlikely
 856              	.LCOLDE35:
 857              		.text
 858              	.LHOTE35:
 859              		.section	.text.unlikely
 860              		.align 2
 861              	.LCOLDB36:
 862              		.text
 863              	.LHOTB36:
 864 0309 90       		.align 2
 865 030a 660F1F44 		.p2align 4,,15
 865      0000
 867              	_ZN12_GLOBAL__N_148TestTestRunnerFixtureReporterNotifiedOfTestCountD0Ev:
 868              	.LFB1517:
 869              		.cfi_startproc
 870 0310 53       		pushq	%rbx
 871              		.cfi_def_cfa_offset 16
 872              		.cfi_offset 3, -16
 873 0311 4889FB   		movq	%rdi, %rbx
 874 0314 48C70700 		movq	$_ZTVN12_GLOBAL__N_148TestTestRunnerFixtureReporterNotifiedOfTestCountE+16, (%rdi)
 874      000000
 875 031b E8000000 		call	_ZN8UnitTest4TestD2Ev
 875      00
 876 0320 4889DF   		movq	%rbx, %rdi
 877 0323 5B       		popq	%rbx
 878              		.cfi_def_cfa_offset 8
 879 0324 E9000000 		jmp	_ZdlPv
 879      00
 880              		.cfi_endproc
 881              	.LFE1517:
 883              		.section	.text.unlikely
 884              	.LCOLDE36:
 885              		.text
 886              	.LHOTE36:
 887              		.section	.text.unlikely
 888              		.align 2
 889              	.LCOLDB37:
 890              		.text
 891              	.LHOTB37:
 892 0329 90       		.align 2
 893 032a 660F1F44 		.p2align 4,,15
 893      0000
 895              	_ZN12_GLOBAL__N_156TestTestRunnerFixtureTestsThatAssertAreReportedAsFailingD0Ev:
 896              	.LFB1521:
 897              		.cfi_startproc
 898 0330 53       		pushq	%rbx
 899              		.cfi_def_cfa_offset 16
 900              		.cfi_offset 3, -16
 901 0331 4889FB   		movq	%rdi, %rbx
 902 0334 48C70700 		movq	$_ZTVN12_GLOBAL__N_156TestTestRunnerFixtureTestsThatAssertAreReportedAsFailingE+16, (%rdi)
 902      000000
 903 033b E8000000 		call	_ZN8UnitTest4TestD2Ev
 903      00
 904 0340 4889DF   		movq	%rbx, %rdi
 905 0343 5B       		popq	%rbx
 906              		.cfi_def_cfa_offset 8
 907 0344 E9000000 		jmp	_ZdlPv
 907      00
 908              		.cfi_endproc
 909              	.LFE1521:
 911              		.section	.text.unlikely
 912              	.LCOLDE37:
 913              		.text
 914              	.LHOTE37:
 915              		.section	.text.unlikely
 916              		.align 2
 917              	.LCOLDB38:
 918              		.text
 919              	.LHOTB38:
 920 0349 90       		.align 2
 921 034a 660F1F44 		.p2align 4,,15
 921      0000
 923              	_ZN12_GLOBAL__N_157TestTestRunnerFixtureCallsReportFailureOncePerFailingTestD0Ev:
 924              	.LFB1525:
 925              		.cfi_startproc
 926 0350 53       		pushq	%rbx
 927              		.cfi_def_cfa_offset 16
 928              		.cfi_offset 3, -16
 929 0351 4889FB   		movq	%rdi, %rbx
 930 0354 48C70700 		movq	$_ZTVN12_GLOBAL__N_157TestTestRunnerFixtureCallsReportFailureOncePerFailingTestE+16, (%rdi)
 930      000000
 931 035b E8000000 		call	_ZN8UnitTest4TestD2Ev
 931      00
 932 0360 4889DF   		movq	%rbx, %rdi
 933 0363 5B       		popq	%rbx
 934              		.cfi_def_cfa_offset 8
 935 0364 E9000000 		jmp	_ZdlPv
 935      00
 936              		.cfi_endproc
 937              	.LFE1525:
 939              		.section	.text.unlikely
 940              	.LCOLDE38:
 941              		.text
 942              	.LHOTE38:
 943              		.section	.text.unlikely
 944              		.align 2
 945              	.LCOLDB39:
 946              		.text
 947              	.LHOTB39:
 948 0369 90       		.align 2
 949 036a 660F1F44 		.p2align 4,,15
 949      0000
 951              	_ZN12_GLOBAL__N_156TestTestRunnerFixtureFailureCountIsZeroWhenNoTestsAreRunD0Ev:
 952              	.LFB1529:
 953              		.cfi_startproc
 954 0370 53       		pushq	%rbx
 955              		.cfi_def_cfa_offset 16
 956              		.cfi_offset 3, -16
 957 0371 4889FB   		movq	%rdi, %rbx
 958 0374 48C70700 		movq	$_ZTVN12_GLOBAL__N_156TestTestRunnerFixtureFailureCountIsZeroWhenNoTestsAreRunE+16, (%rdi)
 958      000000
 959 037b E8000000 		call	_ZN8UnitTest4TestD2Ev
 959      00
 960 0380 4889DF   		movq	%rbx, %rdi
 961 0383 5B       		popq	%rbx
 962              		.cfi_def_cfa_offset 8
 963 0384 E9000000 		jmp	_ZdlPv
 963      00
 964              		.cfi_endproc
 965              	.LFE1529:
 967              		.section	.text.unlikely
 968              	.LCOLDE39:
 969              		.text
 970              	.LHOTE39:
 971              		.section	.text.unlikely
 972              		.align 2
 973              	.LCOLDB40:
 974              		.text
 975              	.LHOTB40:
 976 0389 90       		.align 2
 977 038a 660F1F44 		.p2align 4,,15
 977      0000
 979              	_ZN12_GLOBAL__N_154TestTestRunnerFixtureTestFinishIsCalledWithCorrectTimeD0Ev:
 980              	.LFB1533:
 981              		.cfi_startproc
 982 0390 53       		pushq	%rbx
 983              		.cfi_def_cfa_offset 16
 984              		.cfi_offset 3, -16
 985 0391 4889FB   		movq	%rdi, %rbx
 986 0394 48C70700 		movq	$_ZTVN12_GLOBAL__N_154TestTestRunnerFixtureTestFinishIsCalledWithCorrectTimeE+16, (%rdi)
 986      000000
 987 039b E8000000 		call	_ZN8UnitTest4TestD2Ev
 987      00
 988 03a0 4889DF   		movq	%rbx, %rdi
 989 03a3 5B       		popq	%rbx
 990              		.cfi_def_cfa_offset 8
 991 03a4 E9000000 		jmp	_ZdlPv
 991      00
 992              		.cfi_endproc
 993              	.LFE1533:
 995              		.section	.text.unlikely
 996              	.LCOLDE40:
 997              		.text
 998              	.LHOTE40:
 999              		.section	.text.unlikely
 1000              		.align 2
 1001              	.LCOLDB41:
 1002              		.text
 1003              	.LHOTB41:
 1004 03a9 90       		.align 2
 1005 03aa 660F1F44 		.p2align 4,,15
 1005      0000
 1007              	_ZN12_GLOBAL__N_150TestTestRunnerFixtureTestFinishIsReportedCorrectlyD0Ev:
 1008              	.LFB1541:
 1009              		.cfi_startproc
 1010 03b0 53       		pushq	%rbx
 1011              		.cfi_def_cfa_offset 16
 1012              		.cfi_offset 3, -16
 1013 03b1 4889FB   		movq	%rdi, %rbx
 1014 03b4 48C70700 		movq	$_ZTVN12_GLOBAL__N_150TestTestRunnerFixtureTestFinishIsReportedCorrectlyE+16, (%rdi)
 1014      000000
 1015 03bb E8000000 		call	_ZN8UnitTest4TestD2Ev
 1015      00
 1016 03c0 4889DF   		movq	%rbx, %rdi
 1017 03c3 5B       		popq	%rbx
 1018              		.cfi_def_cfa_offset 8
 1019 03c4 E9000000 		jmp	_ZdlPv
 1019      00
 1020              		.cfi_endproc
 1021              	.LFE1541:
 1023              		.section	.text.unlikely
 1024              	.LCOLDE41:
 1025              		.text
 1026              	.LHOTE41:
 1027              		.section	.text.unlikely
 1028              		.align 2
 1029              	.LCOLDB42:
 1030              		.text
 1031              	.LHOTB42:
 1032 03c9 90       		.align 2
 1033 03ca 660F1F44 		.p2align 4,,15
 1033      0000
 1035              	_ZN12_GLOBAL__N_149TestTestRunnerFixtureTestStartIsReportedCorrectlyD0Ev:
 1036              	.LFB1545:
 1037              		.cfi_startproc
 1038 03d0 53       		pushq	%rbx
 1039              		.cfi_def_cfa_offset 16
 1040              		.cfi_offset 3, -16
 1041 03d1 4889FB   		movq	%rdi, %rbx
 1042 03d4 48C70700 		movq	$_ZTVN12_GLOBAL__N_149TestTestRunnerFixtureTestStartIsReportedCorrectlyE+16, (%rdi)
 1042      000000
 1043 03db E8000000 		call	_ZN8UnitTest4TestD2Ev
 1043      00
 1044 03e0 4889DF   		movq	%rbx, %rdi
 1045 03e3 5B       		popq	%rbx
 1046              		.cfi_def_cfa_offset 8
 1047 03e4 E9000000 		jmp	_ZdlPv
 1047      00
 1048              		.cfi_endproc
 1049              	.LFE1545:
 1051              		.section	.text.unlikely
 1052              	.LCOLDE42:
 1053              		.text
 1054              	.LHOTE42:
 1055              		.section	.text.unlikely._ZN17RecordingReporter15ReportTestStartERKN8UnitTest11TestDetailsE,"axG",@
 1056              		.align 2
 1057              	.LCOLDB43:
 1058              		.section	.text._ZN17RecordingReporter15ReportTestStartERKN8UnitTest11TestDetailsE,"axG",@progbits,
 1059              	.LHOTB43:
 1060              		.align 2
 1061              		.p2align 4,,15
 1062              		.weak	_ZN17RecordingReporter15ReportTestStartERKN8UnitTest11TestDetailsE
 1064              	_ZN17RecordingReporter15ReportTestStartERKN8UnitTest11TestDetailsE:
 1065              	.LFB1132:
 1066              		.cfi_startproc
 1067 0000 55       		pushq	%rbp
 1068              		.cfi_def_cfa_offset 16
 1069              		.cfi_offset 6, -16
 1070 0001 53       		pushq	%rbx
 1071              		.cfi_def_cfa_offset 24
 1072              		.cfi_offset 3, -24
 1073 0002 4889F5   		movq	%rsi, %rbp
 1074 0005 4889FB   		movq	%rdi, %rbx
 1075 0008 BA000100 		movl	$256, %edx
 1075      00
 1076 000d 4883EC08 		subq	$8, %rsp
 1077              		.cfi_def_cfa_offset 32
 1078 0011 83470801 		addl	$1, 8(%rdi)
 1079 0015 488B36   		movq	(%rsi), %rsi
 1080 0018 488D7F0C 		leaq	12(%rdi), %rdi
 1081 001c E8000000 		call	__strcpy_chk
 1081      00
 1082 0021 488B7508 		movq	8(%rbp), %rsi
 1083 0025 4883C408 		addq	$8, %rsp
 1084              		.cfi_def_cfa_offset 24
 1085 0029 488DBB0C 		leaq	268(%rbx), %rdi
 1085      010000
 1086 0030 5B       		popq	%rbx
 1087              		.cfi_def_cfa_offset 16
 1088 0031 5D       		popq	%rbp
 1089              		.cfi_def_cfa_offset 8
 1090 0032 BA000100 		movl	$256, %edx
 1090      00
 1091 0037 E9000000 		jmp	__strcpy_chk
 1091      00
 1092              		.cfi_endproc
 1093              	.LFE1132:
 1095              		.section	.text.unlikely._ZN17RecordingReporter15ReportTestStartERKN8UnitTest11TestDetailsE,"axG",@
 1096              	.LCOLDE43:
 1097              		.section	.text._ZN17RecordingReporter15ReportTestStartERKN8UnitTest11TestDetailsE,"axG",@progbits,
 1098              	.LHOTE43:
 1099              		.section	.text.unlikely._ZN17RecordingReporter13ReportFailureERKN8UnitTest11TestDetailsEPKc,"axG",
 1100              		.align 2
 1101              	.LCOLDB44:
 1102              		.section	.text._ZN17RecordingReporter13ReportFailureERKN8UnitTest11TestDetailsEPKc,"axG",@progbits
 1103              	.LHOTB44:
 1104              		.align 2
 1105              		.p2align 4,,15
 1106              		.weak	_ZN17RecordingReporter13ReportFailureERKN8UnitTest11TestDetailsEPKc
 1108              	_ZN17RecordingReporter13ReportFailureERKN8UnitTest11TestDetailsEPKc:
 1109              	.LFB1133:
 1110              		.cfi_startproc
 1111 0000 4154     		pushq	%r12
 1112              		.cfi_def_cfa_offset 16
 1113              		.cfi_offset 12, -16
 1114 0002 55       		pushq	%rbp
 1115              		.cfi_def_cfa_offset 24
 1116              		.cfi_offset 6, -24
 1117 0003 4889F5   		movq	%rsi, %rbp
 1118 0006 53       		pushq	%rbx
 1119              		.cfi_def_cfa_offset 32
 1120              		.cfi_offset 3, -32
 1121 0007 83870C02 		addl	$1, 524(%rdi)
 1121      000001
 1122 000e 4889FB   		movq	%rdi, %rbx
 1123 0011 488B7610 		movq	16(%rsi), %rsi
 1124 0015 488DBF10 		leaq	528(%rdi), %rdi
 1124      020000
 1125 001c 4989D4   		movq	%rdx, %r12
 1126 001f BA000100 		movl	$256, %edx
 1126      00
 1127 0024 E8000000 		call	__strcpy_chk
 1127      00
 1128 0029 8B4518   		movl	24(%rbp), %eax
 1129 002c 488B7500 		movq	0(%rbp), %rsi
 1130 0030 488DBB14 		leaq	788(%rbx), %rdi
 1130      030000
 1131 0037 BA000100 		movl	$256, %edx
 1131      00
 1132 003c 89831003 		movl	%eax, 784(%rbx)
 1132      0000
 1133 0042 E8000000 		call	__strcpy_chk
 1133      00
 1134 0047 488B7508 		movq	8(%rbp), %rsi
 1135 004b 488DBB14 		leaq	1044(%rbx), %rdi
 1135      040000
 1136 0052 BA000100 		movl	$256, %edx
 1136      00
 1137 0057 E8000000 		call	__strcpy_chk
 1137      00
 1138 005c 488DBB14 		leaq	1300(%rbx), %rdi
 1138      050000
 1139 0063 4C89E6   		movq	%r12, %rsi
 1140 0066 BA000100 		movl	$256, %edx
 1140      00
 1141 006b 5B       		popq	%rbx
 1142              		.cfi_def_cfa_offset 24
 1143 006c 5D       		popq	%rbp
 1144              		.cfi_def_cfa_offset 16
 1145 006d 415C     		popq	%r12
 1146              		.cfi_def_cfa_offset 8
 1147 006f E9000000 		jmp	__strcpy_chk
 1147      00
 1148              		.cfi_endproc
 1149              	.LFE1133:
 1151              		.section	.text.unlikely._ZN17RecordingReporter13ReportFailureERKN8UnitTest11TestDetailsEPKc,"axG",
 1152              	.LCOLDE44:
 1153              		.section	.text._ZN17RecordingReporter13ReportFailureERKN8UnitTest11TestDetailsEPKc,"axG",@progbits
 1154              	.LHOTE44:
 1155              		.section	.text.unlikely._ZN17RecordingReporter16ReportTestFinishERKN8UnitTest11TestDetailsEf,"axG"
 1156              		.align 2
 1157              	.LCOLDB45:
 1158              		.section	.text._ZN17RecordingReporter16ReportTestFinishERKN8UnitTest11TestDetailsEf,"axG",@progbit
 1159              	.LHOTB45:
 1160              		.align 2
 1161              		.p2align 4,,15
 1162              		.weak	_ZN17RecordingReporter16ReportTestFinishERKN8UnitTest11TestDetailsEf
 1164              	_ZN17RecordingReporter16ReportTestFinishERKN8UnitTest11TestDetailsEf:
 1165              	.LFB1134:
 1166              		.cfi_startproc
 1167 0000 55       		pushq	%rbp
 1168              		.cfi_def_cfa_offset 16
 1169              		.cfi_offset 6, -16
 1170 0001 53       		pushq	%rbx
 1171              		.cfi_def_cfa_offset 24
 1172              		.cfi_offset 3, -24
 1173 0002 4889F5   		movq	%rsi, %rbp
 1174 0005 4889FB   		movq	%rdi, %rbx
 1175 0008 BA000100 		movl	$256, %edx
 1175      00
 1176 000d 4883EC18 		subq	$24, %rsp
 1177              		.cfi_def_cfa_offset 48
 1178 0011 83871406 		addl	$1, 1556(%rdi)
 1178      000001
 1179 0018 488B36   		movq	(%rsi), %rsi
 1180 001b 488DBF18 		leaq	1560(%rdi), %rdi
 1180      060000
 1181 0022 F30F1144 		movss	%xmm0, 12(%rsp)
 1181      240C
 1182 0028 E8000000 		call	__strcpy_chk
 1182      00
 1183 002d 488B7508 		movq	8(%rbp), %rsi
 1184 0031 488DBB18 		leaq	1816(%rbx), %rdi
 1184      070000
 1185 0038 BA000100 		movl	$256, %edx
 1185      00
 1186 003d E8000000 		call	__strcpy_chk
 1186      00
 1187 0042 F30F1044 		movss	12(%rsp), %xmm0
 1187      240C
 1188 0048 F30F1183 		movss	%xmm0, 2072(%rbx)
 1188      18080000 
 1189 0050 4883C418 		addq	$24, %rsp
 1190              		.cfi_def_cfa_offset 24
 1191 0054 5B       		popq	%rbx
 1192              		.cfi_def_cfa_offset 16
 1193 0055 5D       		popq	%rbp
 1194              		.cfi_def_cfa_offset 8
 1195 0056 C3       		ret
 1196              		.cfi_endproc
 1197              	.LFE1134:
 1199              		.section	.text.unlikely._ZN17RecordingReporter16ReportTestFinishERKN8UnitTest11TestDetailsEf,"axG"
 1200              	.LCOLDE45:
 1201              		.section	.text._ZN17RecordingReporter16ReportTestFinishERKN8UnitTest11TestDetailsEf,"axG",@progbit
 1202              	.LHOTE45:
 1203              		.section	.text.unlikely._ZN17RecordingReporterD2Ev,"axG",@progbits,_ZN17RecordingReporterD5Ev,comd
 1204              		.align 2
 1205              	.LCOLDB46:
 1206              		.section	.text._ZN17RecordingReporterD2Ev,"axG",@progbits,_ZN17RecordingReporterD5Ev,comdat
 1207              	.LHOTB46:
 1208              		.align 2
 1209              		.p2align 4,,15
 1210              		.weak	_ZN17RecordingReporterD2Ev
 1212              	_ZN17RecordingReporterD2Ev:
 1213              	.LFB1551:
 1214              		.cfi_startproc
 1215 0000 48C70700 		movq	$_ZTV17RecordingReporter+16, (%rdi)
 1215      000000
 1216 0007 E9000000 		jmp	_ZN8UnitTest12TestReporterD2Ev
 1216      00
 1217              		.cfi_endproc
 1218              	.LFE1551:
 1220              		.section	.text.unlikely._ZN17RecordingReporterD2Ev,"axG",@progbits,_ZN17RecordingReporterD5Ev,comd
 1221              	.LCOLDE46:
 1222              		.section	.text._ZN17RecordingReporterD2Ev,"axG",@progbits,_ZN17RecordingReporterD5Ev,comdat
 1223              	.LHOTE46:
 1224              		.weak	_ZN17RecordingReporterD1Ev
 1225              		.set	_ZN17RecordingReporterD1Ev,_ZN17RecordingReporterD2Ev
 1226              		.section	.text.unlikely._ZN17RecordingReporterD0Ev,"axG",@progbits,_ZN17RecordingReporterD5Ev,comd
 1227              		.align 2
 1228              	.LCOLDB47:
 1229              		.section	.text._ZN17RecordingReporterD0Ev,"axG",@progbits,_ZN17RecordingReporterD5Ev,comdat
 1230              	.LHOTB47:
 1231              		.align 2
 1232              		.p2align 4,,15
 1233              		.weak	_ZN17RecordingReporterD0Ev
 1235              	_ZN17RecordingReporterD0Ev:
 1236              	.LFB1553:
 1237              		.cfi_startproc
 1238 0000 53       		pushq	%rbx
 1239              		.cfi_def_cfa_offset 16
 1240              		.cfi_offset 3, -16
 1241 0001 4889FB   		movq	%rdi, %rbx
 1242 0004 48C70700 		movq	$_ZTV17RecordingReporter+16, (%rdi)
 1242      000000
 1243 000b E8000000 		call	_ZN8UnitTest12TestReporterD2Ev
 1243      00
 1244 0010 4889DF   		movq	%rbx, %rdi
 1245 0013 5B       		popq	%rbx
 1246              		.cfi_def_cfa_offset 8
 1247 0014 E9000000 		jmp	_ZdlPv
 1247      00
 1248              		.cfi_endproc
 1249              	.LFE1553:
 1251              		.section	.text.unlikely._ZN17RecordingReporterD0Ev,"axG",@progbits,_ZN17RecordingReporterD5Ev,comd
 1252              	.LCOLDE47:
 1253              		.section	.text._ZN17RecordingReporterD0Ev,"axG",@progbits,_ZN17RecordingReporterD5Ev,comdat
 1254              	.LHOTE47:
 1255              		.section	.text.unlikely
 1256              		.align 2
 1257              	.LCOLDB48:
 1258              	.LHOTB48:
 1259              		.align 2
 1261              	_ZN12_GLOBAL__N_111FixtureBaseD2Ev:
 1262              	.LFB1147:
 1263              		.cfi_startproc
 1264              		.cfi_personality 0x3,__gxx_personality_v0
 1265              		.cfi_lsda 0x3,.LLSDA1147
 1266 0000 55       		pushq	%rbp
 1267              		.cfi_def_cfa_offset 16
 1268              		.cfi_offset 6, -16
 1269 0001 53       		pushq	%rbx
 1270              		.cfi_def_cfa_offset 24
 1271              		.cfi_offset 3, -24
 1272 0002 4889FB   		movq	%rdi, %rbx
 1273 0005 52       		pushq	%rdx
 1274              		.cfi_def_cfa_offset 32
 1275 0006 488D7F18 		leaq	24(%rdi), %rdi
 1276 000a 48C70700 		movq	$_ZTV17RecordingReporter+16, (%rdi)
 1276      000000
 1277              	.LEHB0:
 1278 0011 E8000000 		call	_ZN8UnitTest12TestReporterD2Ev
 1278      00
 1279              	.LEHE0:
 1280 0016 58       		popq	%rax
 1281              		.cfi_remember_state
 1282              		.cfi_def_cfa_offset 24
 1283 0017 4889DF   		movq	%rbx, %rdi
 1284 001a 5B       		popq	%rbx
 1285              		.cfi_def_cfa_offset 16
 1286 001b 5D       		popq	%rbp
 1287              		.cfi_def_cfa_offset 8
 1288              	.LEHB1:
 1289 001c E9000000 		jmp	_ZN8UnitTest10TestRunnerD1Ev
 1289      00
 1290              	.LEHE1:
 1291              	.L76:
 1292              		.cfi_restore_state
 1293 0021 4889C5   		movq	%rax, %rbp
 1294              	.L75:
 1295 0024 4889DF   		movq	%rbx, %rdi
 1296 0027 E8000000 		call	_ZN8UnitTest10TestRunnerD1Ev
 1296      00
 1297 002c 4889EF   		movq	%rbp, %rdi
 1298              	.LEHB2:
 1299 002f E8000000 		call	_Unwind_Resume
 1299      00
 1300              	.LEHE2:
 1301              		.cfi_endproc
 1302              	.LFE1147:
 1303              		.globl	__gxx_personality_v0
 1304              		.section	.gcc_except_table,"a",@progbits
 1305              	.LLSDA1147:
 1306 0000 FF       		.byte	0xff
 1307 0001 FF       		.byte	0xff
 1308 0002 01       		.byte	0x1
 1309 0003 0C       		.uleb128 .LLSDACSE1147-.LLSDACSB1147
 1310              	.LLSDACSB1147:
 1311 0004 11       		.uleb128 .LEHB0-.LFB1147
 1312 0005 05       		.uleb128 .LEHE0-.LEHB0
 1313 0006 21       		.uleb128 .L76-.LFB1147
 1314 0007 00       		.uleb128 0
 1315 0008 1C       		.uleb128 .LEHB1-.LFB1147
 1316 0009 05       		.uleb128 .LEHE1-.LEHB1
 1317 000a 00       		.uleb128 0
 1318 000b 00       		.uleb128 0
 1319 000c 2F       		.uleb128 .LEHB2-.LFB1147
 1320 000d 05       		.uleb128 .LEHE2-.LEHB2
 1321 000e 00       		.uleb128 0
 1322 000f 00       		.uleb128 0
 1323              	.LLSDACSE1147:
 1324              		.section	.text.unlikely
 1326              	.LCOLDE48:
 1327              	.LHOTE48:
 1328              		.align 2
 1329              	.LCOLDB49:
 1330              		.text
 1331              	.LHOTB49:
 1332 03e9 90       		.align 2
 1333 03ea 660F1F44 		.p2align 4,,15
 1333      0000
 1335              	_ZZN12_GLOBAL__N_154TestRunnerFixtureSlowTestWithTimeExemptionPassesHelper7RunImplEvENK16SlowExempt
 1336              	.LFB1303:
 1337              		.cfi_startproc
 1338 03f0 C6473001 		movb	$1, 48(%rdi)
 1339 03f4 BF140000 		movl	$20, %edi
 1339      00
 1340 03f9 E9000000 		jmp	_ZN8UnitTest11TimeHelpers7SleepMsEi
 1340      00
 1341              		.cfi_endproc
 1342              	.LFE1303:
 1344              		.section	.text.unlikely
 1345              	.LCOLDE49:
 1346              		.text
 1347              	.LHOTE49:
 1348              		.section	.text.unlikely
 1349              		.align 2
 1350              	.LCOLDB50:
 1351              		.text
 1352              	.LHOTB50:
 1353              		.align 2
 1354 03fe 6690     		.p2align 4,,15
 1356              	_ZNK12_GLOBAL__N_18SlowTest7RunImplEv:
 1357              	.LFB1178:
 1358              		.cfi_startproc
 1359 0400 BF140000 		movl	$20, %edi
 1359      00
 1360 0405 E9000000 		jmp	_ZN8UnitTest11TimeHelpers7SleepMsEi
 1360      00
 1361              		.cfi_endproc
 1362              	.LFE1178:
 1364              		.section	.text.unlikely
 1365              	.LCOLDE50:
 1366              		.text
 1367              	.LHOTE50:
 1368              		.section	.rodata.str1.1,"aMS",@progbits,1
 1369              	.LC51:
 1370 0000 66696C65 		.string	"file"
 1370      00
 1371              	.LC52:
 1372 0005 64657363 		.string	"desc"
 1372      00
 1373              	.LC53:
 1374 000a 6D657373 		.string	"message"
 1374      61676500 
 1375              		.section	.text.unlikely
 1376              		.align 2
 1377              	.LCOLDB54:
 1378              		.text
 1379              	.LHOTB54:
 1380              		.align 2
 1381 040a 660F1F44 		.p2align 4,,15
 1381      0000
 1383              	_ZNK12_GLOBAL__N_18MockTest7RunImplEv:
 1384              	.LFB1139:
 1385              		.cfi_startproc
 1386 0410 4155     		pushq	%r13
 1387              		.cfi_def_cfa_offset 16
 1388              		.cfi_offset 13, -16
 1389 0412 4154     		pushq	%r12
 1390              		.cfi_def_cfa_offset 24
 1391              		.cfi_offset 12, -24
 1392 0414 55       		pushq	%rbp
 1393              		.cfi_def_cfa_offset 32
 1394              		.cfi_offset 6, -32
 1395 0415 53       		pushq	%rbx
 1396              		.cfi_def_cfa_offset 40
 1397              		.cfi_offset 3, -40
 1398 0416 4889FD   		movq	%rdi, %rbp
 1399 0419 4883EC08 		subq	$8, %rsp
 1400              		.cfi_def_cfa_offset 48
 1401 041d E8000000 		call	_ZN8UnitTest11CurrentTest7ResultsEv
 1401      00
 1402 0422 4C8B28   		movq	(%rax), %r13
 1403 0425 8B4534   		movl	52(%rbp), %eax
 1404 0428 85C0     		testl	%eax, %eax
 1405 042a 7E3A     		jle	.L81
 1406 042c 31DB     		xorl	%ebx, %ebx
 1407 042e 4C8D6508 		leaq	8(%rbp), %r12
 1408 0432 EB11     		jmp	.L87
 1409              		.p2align 4,,10
 1410 0434 0F1F4000 		.p2align 3
 1411              	.L83:
 1412 0438 807D3100 		cmpb	$0, 49(%rbp)
 1413 043c 743A     		je	.L89
 1414              	.L84:
 1415 043e 83C301   		addl	$1, %ebx
 1416 0441 39C3     		cmpl	%eax, %ebx
 1417 0443 7D21     		jge	.L81
 1418              	.L87:
 1419 0445 807D3200 		cmpb	$0, 50(%rbp)
 1420 0449 74ED     		je	.L83
 1421 044b 31D2     		xorl	%edx, %edx
 1422 044d BE000000 		movl	$.LC51, %esi
 1422      00
 1423 0452 BF000000 		movl	$.LC52, %edi
 1423      00
 1424 0457 E8000000 		call	_ZN8UnitTest12ReportAssertEPKcS1_i
 1424      00
 1425 045c 8B4534   		movl	52(%rbp), %eax
 1426 045f 83C301   		addl	$1, %ebx
 1427 0462 39C3     		cmpl	%eax, %ebx
 1428 0464 7CDF     		jl	.L87
 1429              	.L81:
 1430 0466 4883C408 		addq	$8, %rsp
 1431              		.cfi_remember_state
 1432              		.cfi_def_cfa_offset 40
 1433 046a 5B       		popq	%rbx
 1434              		.cfi_def_cfa_offset 32
 1435 046b 5D       		popq	%rbp
 1436              		.cfi_def_cfa_offset 24
 1437 046c 415C     		popq	%r12
 1438              		.cfi_def_cfa_offset 16
 1439 046e 415D     		popq	%r13
 1440              		.cfi_def_cfa_offset 8
 1441 0470 C3       		ret
 1442              		.p2align 4,,10
 1443 0471 0F1F8000 		.p2align 3
 1443      000000
 1444              	.L89:
 1445              		.cfi_restore_state
 1446 0478 BA000000 		movl	$.LC53, %edx
 1446      00
 1447 047d 4C89E6   		movq	%r12, %rsi
 1448 0480 4C89EF   		movq	%r13, %rdi
 1449 0483 E8000000 		call	_ZN8UnitTest11TestResults13OnTestFailureERKNS_11TestDetailsEPKc
 1449      00
 1450 0488 8B4534   		movl	52(%rbp), %eax
 1451 048b EBB1     		jmp	.L84
 1452              		.cfi_endproc
 1453              	.LFE1139:
 1455              		.section	.text.unlikely
 1456              	.LCOLDE54:
 1457              		.text
 1458              	.LHOTE54:
 1459              		.section	.text.unlikely._ZN8UnitTest15MemoryOutStreamD1Ev,"axG",@progbits,_ZN8UnitTest15MemoryOutS
 1460              		.align 2
 1461              	.LCOLDB55:
 1462              		.section	.text._ZN8UnitTest15MemoryOutStreamD1Ev,"axG",@progbits,_ZN8UnitTest15MemoryOutStreamD1Ev
 1463              	.LHOTB55:
 1464              		.align 2
 1465              		.p2align 4,,15
 1466              		.weak	_ZN8UnitTest15MemoryOutStreamD1Ev
 1468              	_ZN8UnitTest15MemoryOutStreamD1Ev:
 1469              	.LFB1556:
 1470              		.cfi_startproc
 1471 0000 53       		pushq	%rbx
 1472              		.cfi_def_cfa_offset 16
 1473              		.cfi_offset 3, -16
 1474 0001 4889FB   		movq	%rdi, %rbx
 1475 0004 48C70700 		movq	$_ZTVN8UnitTest15MemoryOutStreamE+24, (%rdi)
 1475      000000
 1476 000b 48C78790 		movq	$_ZTVN8UnitTest15MemoryOutStreamE+64, 144(%rdi)
 1476      00000000 
 1476      000000
 1477 0016 488B7F70 		movq	112(%rdi), %rdi
 1478 001a 488D8380 		leaq	128(%rbx), %rax
 1478      000000
 1479 0021 4839C7   		cmpq	%rax, %rdi
 1480 0024 7405     		je	.L91
 1481 0026 E8000000 		call	_ZdlPv
 1481      00
 1482              	.L91:
 1483 002b 488B7B50 		movq	80(%rbx), %rdi
 1484 002f 488D4360 		leaq	96(%rbx), %rax
 1485 0033 48C70300 		movq	$_ZTCN8UnitTest15MemoryOutStreamE0_NSt7__cxx1119basic_ostringstreamIcSt11char_traitsIcESaIcEE
 1485      000000
 1486 003a 48C78390 		movq	$_ZTCN8UnitTest15MemoryOutStreamE0_NSt7__cxx1119basic_ostringstreamIcSt11char_traitsIcESaIcEE
 1486      00000000 
 1486      000000
 1487 0045 48C74308 		movq	$_ZTVNSt7__cxx1115basic_stringbufIcSt11char_traitsIcESaIcEEE+16, 8(%rbx)
 1487      00000000 
 1488 004d 4839C7   		cmpq	%rax, %rdi
 1489 0050 7405     		je	.L92
 1490 0052 E8000000 		call	_ZdlPv
 1490      00
 1491              	.L92:
 1492 0057 488D7B40 		leaq	64(%rbx), %rdi
 1493 005b 48C74308 		movq	$_ZTVSt15basic_streambufIcSt11char_traitsIcEE+16, 8(%rbx)
 1493      00000000 
 1494 0063 E8000000 		call	_ZNSt6localeD1Ev
 1494      00
 1495 0068 48C78390 		movq	$_ZTVSt9basic_iosIcSt11char_traitsIcEE+16, 144(%rbx)
 1495      00000000 
 1495      000000
 1496 0073 488DBB90 		leaq	144(%rbx), %rdi
 1496      000000
 1497 007a 5B       		popq	%rbx
 1498              		.cfi_def_cfa_offset 8
 1499 007b E9000000 		jmp	_ZNSt8ios_baseD2Ev
 1499      00
 1500              		.cfi_endproc
 1501              	.LFE1556:
 1503              		.section	.text.unlikely._ZN8UnitTest15MemoryOutStreamD1Ev,"axG",@progbits,_ZN8UnitTest15MemoryOutS
 1504              	.LCOLDE55:
 1505              		.section	.text._ZN8UnitTest15MemoryOutStreamD1Ev,"axG",@progbits,_ZN8UnitTest15MemoryOutStreamD1Ev
 1506              	.LHOTE55:
 1507              		.set	.LTHUNK0,_ZN8UnitTest15MemoryOutStreamD1Ev
 1508              		.section	.text.unlikely._ZTv0_n24_N8UnitTest15MemoryOutStreamD1Ev,"axG",@progbits,_ZN8UnitTest15Me
 1509              	.LCOLDB56:
 1510              		.section	.text._ZN8UnitTest15MemoryOutStreamD1Ev,"axG",@progbits,_ZN8UnitTest15MemoryOutStreamD1Ev
 1511              	.LHOTB56:
 1512              		.p2align 4,,15
 1513              		.weak	_ZTv0_n24_N8UnitTest15MemoryOutStreamD1Ev
 1515              	_ZTv0_n24_N8UnitTest15MemoryOutStreamD1Ev:
 1516              	.LFB1601:
 1517              		.cfi_startproc
 1518 0080 4C8B17   		movq	(%rdi), %r10
 1519 0083 49037AE8 		addq	-24(%r10), %rdi
 1520 0087 E974FFFF 		jmp	.LTHUNK0
 1520      FF
 1521              		.cfi_endproc
 1522              	.LFE1601:
 1524              		.section	.text.unlikely._ZTv0_n24_N8UnitTest15MemoryOutStreamD1Ev,"axG",@progbits,_ZN8UnitTest15Me
 1525              	.LCOLDE56:
 1526              		.section	.text._ZN8UnitTest15MemoryOutStreamD1Ev,"axG",@progbits,_ZN8UnitTest15MemoryOutStreamD1Ev
 1527              	.LHOTE56:
 1528              		.section	.text.unlikely._ZN8UnitTest15MemoryOutStreamD0Ev,"axG",@progbits,_ZN8UnitTest15MemoryOutS
 1529              		.align 2
 1530              	.LCOLDB57:
 1531              		.section	.text._ZN8UnitTest15MemoryOutStreamD0Ev,"axG",@progbits,_ZN8UnitTest15MemoryOutStreamD0Ev
 1532              	.LHOTB57:
 1533              		.align 2
 1534              		.p2align 4,,15
 1535              		.weak	_ZN8UnitTest15MemoryOutStreamD0Ev
 1537              	_ZN8UnitTest15MemoryOutStreamD0Ev:
 1538              	.LFB1557:
 1539              		.cfi_startproc
 1540 0000 53       		pushq	%rbx
 1541              		.cfi_def_cfa_offset 16
 1542              		.cfi_offset 3, -16
 1543 0001 4889FB   		movq	%rdi, %rbx
 1544 0004 48C70700 		movq	$_ZTVN8UnitTest15MemoryOutStreamE+24, (%rdi)
 1544      000000
 1545 000b 48C78790 		movq	$_ZTVN8UnitTest15MemoryOutStreamE+64, 144(%rdi)
 1545      00000000 
 1545      000000
 1546 0016 488B7F70 		movq	112(%rdi), %rdi
 1547 001a 488D8380 		leaq	128(%rbx), %rax
 1547      000000
 1548 0021 4839C7   		cmpq	%rax, %rdi
 1549 0024 7405     		je	.L95
 1550 0026 E8000000 		call	_ZdlPv
 1550      00
 1551              	.L95:
 1552 002b 488B7B50 		movq	80(%rbx), %rdi
 1553 002f 488D4360 		leaq	96(%rbx), %rax
 1554 0033 48C70300 		movq	$_ZTCN8UnitTest15MemoryOutStreamE0_NSt7__cxx1119basic_ostringstreamIcSt11char_traitsIcESaIcEE
 1554      000000
 1555 003a 48C78390 		movq	$_ZTCN8UnitTest15MemoryOutStreamE0_NSt7__cxx1119basic_ostringstreamIcSt11char_traitsIcESaIcEE
 1555      00000000 
 1555      000000
 1556 0045 48C74308 		movq	$_ZTVNSt7__cxx1115basic_stringbufIcSt11char_traitsIcESaIcEEE+16, 8(%rbx)
 1556      00000000 
 1557 004d 4839C7   		cmpq	%rax, %rdi
 1558 0050 7405     		je	.L96
 1559 0052 E8000000 		call	_ZdlPv
 1559      00
 1560              	.L96:
 1561 0057 488D7B40 		leaq	64(%rbx), %rdi
 1562 005b 48C74308 		movq	$_ZTVSt15basic_streambufIcSt11char_traitsIcEE+16, 8(%rbx)
 1562      00000000 
 1563 0063 E8000000 		call	_ZNSt6localeD1Ev
 1563      00
 1564 0068 488DBB90 		leaq	144(%rbx), %rdi
 1564      000000
 1565 006f 48C78390 		movq	$_ZTVSt9basic_iosIcSt11char_traitsIcEE+16, 144(%rbx)
 1565      00000000 
 1565      000000
 1566 007a E8000000 		call	_ZNSt8ios_baseD2Ev
 1566      00
 1567 007f 4889DF   		movq	%rbx, %rdi
 1568 0082 5B       		popq	%rbx
 1569              		.cfi_def_cfa_offset 8
 1570 0083 E9000000 		jmp	_ZdlPv
 1570      00
 1571              		.cfi_endproc
 1572              	.LFE1557:
 1574              		.section	.text.unlikely._ZN8UnitTest15MemoryOutStreamD0Ev,"axG",@progbits,_ZN8UnitTest15MemoryOutS
 1575              	.LCOLDE57:
 1576              		.section	.text._ZN8UnitTest15MemoryOutStreamD0Ev,"axG",@progbits,_ZN8UnitTest15MemoryOutStreamD0Ev
 1577              	.LHOTE57:
 1578              		.set	.LTHUNK1,_ZN8UnitTest15MemoryOutStreamD0Ev
 1579              		.section	.text.unlikely._ZTv0_n24_N8UnitTest15MemoryOutStreamD0Ev,"axG",@progbits,_ZN8UnitTest15Me
 1580              	.LCOLDB58:
 1581              		.section	.text._ZN8UnitTest15MemoryOutStreamD0Ev,"axG",@progbits,_ZN8UnitTest15MemoryOutStreamD0Ev
 1582              	.LHOTB58:
 1583 0088 0F1F8400 		.p2align 4,,15
 1583      00000000 
 1584              		.weak	_ZTv0_n24_N8UnitTest15MemoryOutStreamD0Ev
 1586              	_ZTv0_n24_N8UnitTest15MemoryOutStreamD0Ev:
 1587              	.LFB1602:
 1588              		.cfi_startproc
 1589 0090 4C8B17   		movq	(%rdi), %r10
 1590 0093 49037AE8 		addq	-24(%r10), %rdi
 1591 0097 E964FFFF 		jmp	.LTHUNK1
 1591      FF
 1592              		.cfi_endproc
 1593              	.LFE1602:
 1595              		.section	.text.unlikely._ZTv0_n24_N8UnitTest15MemoryOutStreamD0Ev,"axG",@progbits,_ZN8UnitTest15Me
 1596              	.LCOLDE58:
 1597              		.section	.text._ZN8UnitTest15MemoryOutStreamD0Ev,"axG",@progbits,_ZN8UnitTest15MemoryOutStreamD0Ev
 1598              	.LHOTE58:
 1599              		.section	.text.unlikely._ZNSt7__cxx1115basic_stringbufIcSt11char_traitsIcESaIcEED2Ev,"axG",@progbi
 1600              		.align 2
 1601              	.LCOLDB59:
 1602              		.section	.text._ZNSt7__cxx1115basic_stringbufIcSt11char_traitsIcESaIcEED2Ev,"axG",@progbits,_ZNSt7
 1603              	.LHOTB59:
 1604              		.align 2
 1605              		.p2align 4,,15
 1606              		.weak	_ZNSt7__cxx1115basic_stringbufIcSt11char_traitsIcESaIcEED2Ev
 1608              	_ZNSt7__cxx1115basic_stringbufIcSt11char_traitsIcESaIcEED2Ev:
 1609              	.LFB1371:
 1610              		.cfi_startproc
 1611 0000 53       		pushq	%rbx
 1612              		.cfi_def_cfa_offset 16
 1613              		.cfi_offset 3, -16
 1614 0001 4889FB   		movq	%rdi, %rbx
 1615 0004 48C70700 		movq	$_ZTVNSt7__cxx1115basic_stringbufIcSt11char_traitsIcESaIcEEE+16, (%rdi)
 1615      000000
 1616 000b 488B7F48 		movq	72(%rdi), %rdi
 1617 000f 488D4358 		leaq	88(%rbx), %rax
 1618 0013 4839C7   		cmpq	%rax, %rdi
 1619 0016 7405     		je	.L99
 1620 0018 E8000000 		call	_ZdlPv
 1620      00
 1621              	.L99:
 1622 001d 48C70300 		movq	$_ZTVSt15basic_streambufIcSt11char_traitsIcEE+16, (%rbx)
 1622      000000
 1623 0024 488D7B38 		leaq	56(%rbx), %rdi
 1624 0028 5B       		popq	%rbx
 1625              		.cfi_def_cfa_offset 8
 1626 0029 E9000000 		jmp	_ZNSt6localeD1Ev
 1626      00
 1627              		.cfi_endproc
 1628              	.LFE1371:
 1630              		.section	.text.unlikely._ZNSt7__cxx1115basic_stringbufIcSt11char_traitsIcESaIcEED2Ev,"axG",@progbi
 1631              	.LCOLDE59:
 1632              		.section	.text._ZNSt7__cxx1115basic_stringbufIcSt11char_traitsIcESaIcEED2Ev,"axG",@progbits,_ZNSt7
 1633              	.LHOTE59:
 1634              		.weak	_ZNSt7__cxx1115basic_stringbufIcSt11char_traitsIcESaIcEED1Ev
 1635              		.set	_ZNSt7__cxx1115basic_stringbufIcSt11char_traitsIcESaIcEED1Ev,_ZNSt7__cxx1115basic_stringbufIc
 1636              		.section	.text.unlikely._ZN8UnitTest15MemoryOutStreamC1Ev,"axG",@progbits,_ZN8UnitTest15MemoryOutS
 1637              		.align 2
 1638              	.LCOLDB60:
 1639              		.section	.text._ZN8UnitTest15MemoryOutStreamC1Ev,"axG",@progbits,_ZN8UnitTest15MemoryOutStreamC1Ev
 1640              	.LHOTB60:
 1641              		.align 2
 1642              		.p2align 4,,15
 1643              		.weak	_ZN8UnitTest15MemoryOutStreamC1Ev
 1645              	_ZN8UnitTest15MemoryOutStreamC1Ev:
 1646              	.LFB1084:
 1647              		.cfi_startproc
 1648              		.cfi_personality 0x3,__gxx_personality_v0
 1649              		.cfi_lsda 0x3,.LLSDA1084
 1650 0000 4155     		pushq	%r13
 1651              		.cfi_def_cfa_offset 16
 1652              		.cfi_offset 13, -16
 1653 0002 4154     		pushq	%r12
 1654              		.cfi_def_cfa_offset 24
 1655              		.cfi_offset 12, -24
 1656 0004 55       		pushq	%rbp
 1657              		.cfi_def_cfa_offset 32
 1658              		.cfi_offset 6, -32
 1659 0005 488DAF90 		leaq	144(%rdi), %rbp
 1659      000000
 1660 000c 53       		pushq	%rbx
 1661              		.cfi_def_cfa_offset 40
 1662              		.cfi_offset 3, -40
 1663 000d 4889FB   		movq	%rdi, %rbx
 1664 0010 4883EC08 		subq	$8, %rsp
 1665              		.cfi_def_cfa_offset 48
 1666 0014 4889EF   		movq	%rbp, %rdi
 1667 0017 E8000000 		call	_ZNSt8ios_baseC2Ev
 1667      00
 1668 001c 48C78368 		movq	$0, 360(%rbx)
 1668      01000000 
 1668      000000
 1669 0027 C6837001 		movb	$0, 368(%rbx)
 1669      000000
 1670 002e 31F6     		xorl	%esi, %esi
 1671 0030 C6837101 		movb	$0, 369(%rbx)
 1671      000000
 1672 0037 48C78378 		movq	$0, 376(%rbx)
 1672      01000000 
 1672      000000
 1673 0042 4889EF   		movq	%rbp, %rdi
 1674 0045 48C78380 		movq	$0, 384(%rbx)
 1674      01000000 
 1674      000000
 1675 0050 48C78388 		movq	$0, 392(%rbx)
 1675      01000000 
 1675      000000
 1676 005b 48C78390 		movq	$0, 400(%rbx)
 1676      01000000 
 1676      000000
 1677 0066 48C70300 		movq	$_ZTCN8UnitTest15MemoryOutStreamE0_So+24, (%rbx)
 1677      000000
 1678 006d 48C78390 		movq	$_ZTCN8UnitTest15MemoryOutStreamE0_So+64, 144(%rbx)
 1678      00000000 
 1678      000000
 1679              	.LEHB3:
 1680 0078 E8000000 		call	_ZNSt9basic_iosIcSt11char_traitsIcEE4initEPSt15basic_streambufIcS1_E
 1680      00
 1681              	.LEHE3:
 1682 007d 488D7B40 		leaq	64(%rbx), %rdi
 1683 0081 48C70300 		movq	$_ZTCN8UnitTest15MemoryOutStreamE0_NSt7__cxx1119basic_ostringstreamIcSt11char_traitsIcESaIcEE
 1683      000000
 1684 0088 48C78390 		movq	$_ZTCN8UnitTest15MemoryOutStreamE0_NSt7__cxx1119basic_ostringstreamIcSt11char_traitsIcESaIcEE
 1684      00000000 
 1684      000000
 1685 0093 48C74308 		movq	$_ZTVSt15basic_streambufIcSt11char_traitsIcEE+16, 8(%rbx)
 1685      00000000 
 1686 009b 48C74310 		movq	$0, 16(%rbx)
 1686      00000000 
 1687 00a3 4C8D6308 		leaq	8(%rbx), %r12
 1688 00a7 48C74318 		movq	$0, 24(%rbx)
 1688      00000000 
 1689 00af 48C74320 		movq	$0, 32(%rbx)
 1689      00000000 
 1690 00b7 48C74328 		movq	$0, 40(%rbx)
 1690      00000000 
 1691 00bf 48C74330 		movq	$0, 48(%rbx)
 1691      00000000 
 1692 00c7 48C74338 		movq	$0, 56(%rbx)
 1692      00000000 
 1693 00cf E8000000 		call	_ZNSt6localeC1Ev
 1693      00
 1694 00d4 488D4360 		leaq	96(%rbx), %rax
 1695 00d8 48C74358 		movq	$0, 88(%rbx)
 1695      00000000 
 1696 00e0 C6436000 		movb	$0, 96(%rbx)
 1697 00e4 4889DF   		movq	%rbx, %rdi
 1698 00e7 48C74308 		movq	$_ZTVNSt7__cxx1115basic_stringbufIcSt11char_traitsIcESaIcEEE+16, 8(%rbx)
 1698      00000000 
 1699 00ef C7434810 		movl	$16, 72(%rbx)
 1699      000000
 1700 00f6 48894350 		movq	%rax, 80(%rbx)
 1701 00fa 488B03   		movq	(%rbx), %rax
 1702 00fd 4C89E6   		movq	%r12, %rsi
 1703 0100 480378E8 		addq	-24(%rax), %rdi
 1704              	.LEHB4:
 1705 0104 E8000000 		call	_ZNSt9basic_iosIcSt11char_traitsIcEE4initEPSt15basic_streambufIcS1_E
 1705      00
 1706              	.LEHE4:
 1707 0109 488D8380 		leaq	128(%rbx), %rax
 1707      000000
 1708 0110 48C70300 		movq	$_ZTVN8UnitTest15MemoryOutStreamE+24, (%rbx)
 1708      000000
 1709 0117 48C78390 		movq	$_ZTVN8UnitTest15MemoryOutStreamE+64, 144(%rbx)
 1709      00000000 
 1709      000000
 1710 0122 48C74378 		movq	$0, 120(%rbx)
 1710      00000000 
 1711 012a C6838000 		movb	$0, 128(%rbx)
 1711      000000
 1712 0131 48894370 		movq	%rax, 112(%rbx)
 1713 0135 4883C408 		addq	$8, %rsp
 1714              		.cfi_remember_state
 1715              		.cfi_def_cfa_offset 40
 1716 0139 5B       		popq	%rbx
 1717              		.cfi_def_cfa_offset 32
 1718 013a 5D       		popq	%rbp
 1719              		.cfi_def_cfa_offset 24
 1720 013b 415C     		popq	%r12
 1721              		.cfi_def_cfa_offset 16
 1722 013d 415D     		popq	%r13
 1723              		.cfi_def_cfa_offset 8
 1724 013f C3       		ret
 1725              	.L105:
 1726              		.cfi_restore_state
 1727 0140 4989C4   		movq	%rax, %r12
 1728 0143 EB0E     		jmp	.L104
 1729              	.L106:
 1730 0145 4989C5   		movq	%rax, %r13
 1731              	.L103:
 1732 0148 4C89E7   		movq	%r12, %rdi
 1733 014b 4D89EC   		movq	%r13, %r12
 1734 014e E8000000 		call	_ZNSt7__cxx1115basic_stringbufIcSt11char_traitsIcESaIcEED1Ev
 1734      00
 1735              	.L104:
 1736 0153 4889EF   		movq	%rbp, %rdi
 1737 0156 48C78390 		movq	$_ZTVSt9basic_iosIcSt11char_traitsIcEE+16, 144(%rbx)
 1737      00000000 
 1737      000000
 1738 0161 E8000000 		call	_ZNSt8ios_baseD2Ev
 1738      00
 1739 0166 4C89E7   		movq	%r12, %rdi
 1740              	.LEHB5:
 1741 0169 E8000000 		call	_Unwind_Resume
 1741      00
 1742              	.LEHE5:
 1743              		.cfi_endproc
 1744              	.LFE1084:
 1745              		.section	.gcc_except_table
 1746              	.LLSDA1084:
 1747 0010 FF       		.byte	0xff
 1748 0011 FF       		.byte	0xff
 1749 0012 01       		.byte	0x1
 1750 0013 10       		.uleb128 .LLSDACSE1084-.LLSDACSB1084
 1751              	.LLSDACSB1084:
 1752 0014 78       		.uleb128 .LEHB3-.LFB1084
 1753 0015 05       		.uleb128 .LEHE3-.LEHB3
 1754 0016 C002     		.uleb128 .L105-.LFB1084
 1755 0018 00       		.uleb128 0
 1756 0019 8402     		.uleb128 .LEHB4-.LFB1084
 1757 001b 05       		.uleb128 .LEHE4-.LEHB4
 1758 001c C502     		.uleb128 .L106-.LFB1084
 1759 001e 00       		.uleb128 0
 1760 001f E902     		.uleb128 .LEHB5-.LFB1084
 1761 0021 05       		.uleb128 .LEHE5-.LEHB5
 1762 0022 00       		.uleb128 0
 1763 0023 00       		.uleb128 0
 1764              	.LLSDACSE1084:
 1765              		.section	.text._ZN8UnitTest15MemoryOutStreamC1Ev,"axG",@progbits,_ZN8UnitTest15MemoryOutStreamC1Ev
 1767              		.section	.text.unlikely._ZN8UnitTest15MemoryOutStreamC1Ev,"axG",@progbits,_ZN8UnitTest15MemoryOutS
 1768              	.LCOLDE60:
 1769              		.section	.text._ZN8UnitTest15MemoryOutStreamC1Ev,"axG",@progbits,_ZN8UnitTest15MemoryOutStreamC1Ev
 1770              	.LHOTE60:
 1771              		.section	.rodata.str1.1
 1772              	.LC61:
 1773 0012 556E6861 		.string	"Unhandled system exception"
 1773      6E646C65 
 1773      64207379 
 1773      7374656D 
 1773      20657863 
 1774              	.LC62:
 1775 002d 66696C65 		.string	"filename"
 1775      6E616D65 
 1775      00
 1776              	.LC63:
 1777 0036 736F6D65 		.string	"somesuite"
 1777      73756974 
 1777      6500
 1778              	.LC64:
 1779 0040 736C6F77 		.string	"slow"
 1779      00
 1780              		.section	.rodata.str1.8,"aMS",@progbits,1
 1781              		.align 8
 1782              	.LC67:
 1783 0000 7265706F 		.string	"reporter.lastFinishedTestTime >= 0.005f && reporter.lastFinishedTestTime <= 0.050f"
 1783      72746572 
 1783      2E6C6173 
 1783      7446696E 
 1783      69736865 
 1784 0053 00000000 		.align 8
 1784      00
 1785              	.LC68:
 1786 0058 556E6861 		.string	"Unhandled exception in CHECK(reporter.lastFinishedTestTime >= 0.005f && reporter.lastFini
 1786      6E646C65 
 1786      64206578 
 1786      63657074 
 1786      696F6E20 
 1787              		.section	.rodata.str1.1
 1788              	.LC69:
 1789 0045 556E6861 		.string	"Unhandled exception: "
 1789      6E646C65 
 1789      64206578 
 1789      63657074 
 1789      696F6E3A 
 1790              	.LC70:
 1791 005b 556E6861 		.string	"Unhandled exception: Crash!"
 1791      6E646C65 
 1791      64206578 
 1791      63657074 
 1791      696F6E3A 
 1792              		.section	.text.unlikely
 1793              	.LCOLDB71:
 1794              		.text
 1795              	.LHOTB71:
 1796 048d 0F1F00   		.p2align 4,,15
 1798              	_ZN8UnitTest11ExecuteTestIN12_GLOBAL__N_156TestRunnerFixtureTestFinishIsCalledWithCorrectTimeHelper
 1799              	.LFB1578:
 1800              		.cfi_startproc
 1801              		.cfi_personality 0x3,__gxx_personality_v0
 1802              		.cfi_lsda 0x3,.LLSDA1578
 1803 0490 4155     		pushq	%r13
 1804              		.cfi_def_cfa_offset 16
 1805              		.cfi_offset 13, -16
 1806 0492 4154     		pushq	%r12
 1807              		.cfi_def_cfa_offset 24
 1808              		.cfi_offset 12, -24
 1809 0494 55       		pushq	%rbp
 1810              		.cfi_def_cfa_offset 32
 1811              		.cfi_offset 6, -32
 1812 0495 53       		pushq	%rbx
 1813              		.cfi_def_cfa_offset 40
 1814              		.cfi_offset 3, -40
 1815 0496 4889F3   		movq	%rsi, %rbx
 1816 0499 4881ECC8 		subq	$1736, %rsp
 1816      060000
 1817              		.cfi_def_cfa_offset 1776
 1818 04a0 48893C24 		movq	%rdi, (%rsp)
 1819 04a4 48897424 		movq	%rsi, 8(%rsp)
 1819      08
 1820 04a9 64488B04 		movq	%fs:40, %rax
 1820      25280000 
 1820      00
 1821 04b2 48898424 		movq	%rax, 1720(%rsp)
 1821      B8060000 
 1822 04ba 31C0     		xorl	%eax, %eax
 1823              	.LEHB6:
 1824 04bc E8000000 		call	_ZN8UnitTest11CurrentTest7DetailsEv
 1824      00
 1825              	.LEHE6:
 1826 04c1 488DBC24 		leaq	592(%rsp), %rdi
 1826      50020000 
 1827 04c9 488918   		movq	%rbx, (%rax)
 1828              	.LEHB7:
 1829 04cc E8000000 		call	_ZN8UnitTest16SignalTranslatorC1Ev
 1829      00
 1830              	.LEHE7:
 1831 04d1 488B3D00 		movq	_ZN8UnitTest16SignalTranslator12s_jumpTargetE(%rip), %rdi
 1831      000000
 1832 04d8 BE010000 		movl	$1, %esi
 1832      00
 1833 04dd E8000000 		call	__sigsetjmp
 1833      00
 1834 04e2 85C0     		testl	%eax, %eax
 1835 04e4 742A     		je	.L153
 1836 04e6 BF080000 		movl	$8, %edi
 1836      00
 1837 04eb E8000000 		call	__cxa_allocate_exception
 1837      00
 1838 04f0 31D2     		xorl	%edx, %edx
 1839 04f2 48C70000 		movq	$.LC61, (%rax)
 1839      000000
 1840 04f9 BE000000 		movl	$_ZTIPKc, %esi
 1840      00
 1841 04fe 4889C7   		movq	%rax, %rdi
 1842              	.LEHB8:
 1843 0501 E8000000 		call	__cxa_throw
 1843      00
 1844 0506 662E0F1F 		.p2align 4,,10
 1844      84000000 
 1844      0000
 1845              		.p2align 3
 1846              	.L153:
 1847 0510 488D7C24 		leaq	112(%rsp), %rdi
 1847      70
 1848 0515 41B87B00 		movl	$123, %r8d
 1848      0000
 1849 051b B9000000 		movl	$.LC62, %ecx
 1849      00
 1850 0520 BA000000 		movl	$.LC63, %edx
 1850      00
 1851 0525 BE000000 		movl	$.LC64, %esi
 1851      00
 1852 052a E8000000 		call	_ZN8UnitTest4TestC2EPKcS2_S2_i
 1852      00
 1853              	.LEHE8:
 1854 052f 488B2C24 		movq	(%rsp), %rbp
 1855 0533 488D7424 		leaq	112(%rsp), %rsi
 1855      70
 1856 0538 48C74424 		movq	$_ZTVN12_GLOBAL__N_18SlowTestE+16, 112(%rsp)
 1856      70000000 
 1856      00
 1857 0541 488D9D48 		leaq	2120(%rbp), %rbx
 1857      080000
 1858 0548 4889DF   		movq	%rbx, %rdi
 1859              	.LEHB9:
 1860 054b E8000000 		call	_ZN8UnitTest8TestList3AddEPNS_4TestE
 1860      00
 1861 0550 E8000000 		call	_ZN8UnitTest11CurrentTest7ResultsEv
 1861      00
 1862 0555 4C8B20   		movq	(%rax), %r12
 1863 0558 E8000000 		call	_ZN8UnitTest11CurrentTest7DetailsEv
 1863      00
 1864 055d 4889DF   		movq	%rbx, %rdi
 1865 0560 4C8B28   		movq	(%rax), %r13
 1866 0563 E8000000 		call	_ZNK8UnitTest8TestList7GetHeadEv
 1866      00
 1867 0568 4885C0   		testq	%rax, %rax
 1868 056b 4889C3   		movq	%rax, %rbx
 1869 056e 742F     		je	.L117
 1870              		.p2align 4,,10
 1871              		.p2align 3
 1872              	.L152:
 1873 0570 31D2     		xorl	%edx, %edx
 1874 0572 4889DE   		movq	%rbx, %rsi
 1875 0575 4889EF   		movq	%rbp, %rdi
 1876 0578 E8000000 		call	_ZNK8UnitTest10TestRunner13IsTestInSuiteEPKNS_4TestEPKc
 1876      00
 1877 057d 84C0     		testb	%al, %al
 1878 057f 7415     		je	.L139
 1879 0581 488B0424 		movq	(%rsp), %rax
 1880 0585 31C9     		xorl	%ecx, %ecx
 1881 0587 4889DA   		movq	%rbx, %rdx
 1882 058a 4889EF   		movq	%rbp, %rdi
 1883 058d 488B7008 		movq	8(%rax), %rsi
 1884 0591 E8000000 		call	_ZNK8UnitTest10TestRunner7RunTestEPNS_11TestResultsEPNS_4TestEi
 1884      00
 1885              	.L139:
 1886 0596 488B5B28 		movq	40(%rbx), %rbx
 1887 059a 4885DB   		testq	%rbx, %rbx
 1888 059d 75D1     		jne	.L152
 1889              	.L117:
 1890 059f 488B3C24 		movq	(%rsp), %rdi
 1891 05a3 E8000000 		call	_ZNK8UnitTest10TestRunner6FinishEv
 1891      00
 1892 05a8 E8000000 		call	_ZN8UnitTest11CurrentTest7ResultsEv
 1892      00
 1893 05ad 4C8920   		movq	%r12, (%rax)
 1894 05b0 E8000000 		call	_ZN8UnitTest11CurrentTest7DetailsEv
 1894      00
 1895              	.LEHE9:
 1896 05b5 4C8928   		movq	%r13, (%rax)
 1897 05b8 488B0424 		movq	(%rsp), %rax
 1898 05bc F30F1080 		movss	2096(%rax), %xmm0
 1898      30080000 
 1899 05c4 0F2E0500 		ucomiss	.LC65(%rip), %xmm0
 1899      000000
 1900 05cb 7373     		jnb	.L163
 1901              	.L119:
 1902              	.LEHB10:
 1903 05cd E8000000 		call	_ZN8UnitTest11CurrentTest7DetailsEv
 1903      00
 1904 05d2 488B30   		movq	(%rax), %rsi
 1905 05d5 488D7C24 		leaq	80(%rsp), %rdi
 1905      50
 1906 05da BA620000 		movl	$98, %edx
 1906      00
 1907 05df E8000000 		call	_ZN8UnitTest11TestDetailsC1ERKS0_i
 1907      00
 1908 05e4 E8000000 		call	_ZN8UnitTest11CurrentTest7ResultsEv
 1908      00
 1909 05e9 488B38   		movq	(%rax), %rdi
 1910 05ec 488D7424 		leaq	80(%rsp), %rsi
 1910      50
 1911 05f1 BA000000 		movl	$.LC67, %edx
 1911      00
 1912 05f6 E8000000 		call	_ZN8UnitTest11TestResults13OnTestFailureERKNS_11TestDetailsEPKc
 1912      00
 1913              	.LEHE10:
 1914              	.L122:
 1915 05fb 488D7C24 		leaq	112(%rsp), %rdi
 1915      70
 1916 0600 48C74424 		movq	$_ZTVN12_GLOBAL__N_18SlowTestE+16, 112(%rsp)
 1916      70000000 
 1916      00
 1917              	.LEHB11:
 1918 0609 E8000000 		call	_ZN8UnitTest4TestD2Ev
 1918      00
 1919              	.LEHE11:
 1920 060e 488DBC24 		leaq	592(%rsp), %rdi
 1920      50020000 
 1921              	.LEHB12:
 1922 0616 E8000000 		call	_ZN8UnitTest16SignalTranslatorD1Ev
 1922      00
 1923              	.LEHE12:
 1924              	.L111:
 1925 061b 488B8424 		movq	1720(%rsp), %rax
 1925      B8060000 
 1926 0623 64483304 		xorq	%fs:40, %rax
 1926      25280000 
 1926      00
 1927 062c 0F851101 		jne	.L164
 1927      0000
 1928 0632 4881C4C8 		addq	$1736, %rsp
 1928      060000
 1929              		.cfi_remember_state
 1930              		.cfi_def_cfa_offset 40
 1931 0639 5B       		popq	%rbx
 1932              		.cfi_def_cfa_offset 32
 1933 063a 5D       		popq	%rbp
 1934              		.cfi_def_cfa_offset 24
 1935 063b 415C     		popq	%r12
 1936              		.cfi_def_cfa_offset 16
 1937 063d 415D     		popq	%r13
 1938              		.cfi_def_cfa_offset 8
 1939 063f C3       		ret
 1940              		.p2align 4,,10
 1941              		.p2align 3
 1942              	.L163:
 1943              		.cfi_restore_state
 1944 0640 F30F100D 		movss	.LC66(%rip), %xmm1
 1944      00000000 
 1945 0648 0F2EC8   		ucomiss	%xmm0, %xmm1
 1946 064b 73AE     		jnb	.L122
 1947 064d E97BFFFF 		jmp	.L119
 1947      FF
 1948              	.L147:
 1949 0652 4889C3   		movq	%rax, %rbx
 1950 0655 4889D5   		movq	%rdx, %rbp
 1951              	.L128:
 1952 0658 488DBC24 		leaq	592(%rsp), %rdi
 1952      50020000 
 1953 0660 E8000000 		call	_ZN8UnitTest16SignalTranslatorD1Ev
 1953      00
 1954 0665 4889DF   		movq	%rbx, %rdi
 1955 0668 4889EA   		movq	%rbp, %rdx
 1956              	.L129:
 1957 066b 4883FA01 		cmpq	$1, %rdx
 1958 066f 0F844E01 		je	.L131
 1958      0000
 1959 0675 4883FA02 		cmpq	$2, %rdx
 1960 0679 0F851E01 		jne	.L165
 1960      0000
 1961 067f E8000000 		call	__cxa_begin_catch
 1961      00
 1962 0684 488DBC24 		leaq	176(%rsp), %rdi
 1962      B0000000 
 1963 068c 4889C3   		movq	%rax, %rbx
 1964              	.LEHB13:
 1965 068f E8000000 		call	_ZN8UnitTest15MemoryOutStreamC1Ev
 1965      00
 1966              	.LEHE13:
 1967 0694 488B03   		movq	(%rbx), %rax
 1968 0697 4889DF   		movq	%rbx, %rdi
 1969 069a FF5010   		call	*16(%rax)
 1970 069d 488DBC24 		leaq	176(%rsp), %rdi
 1970      B0000000 
 1971 06a5 BA150000 		movl	$21, %edx
 1971      00
 1972 06aa BE000000 		movl	$.LC69, %esi
 1972      00
 1973 06af 4889C3   		movq	%rax, %rbx
 1974              	.LEHB14:
 1975 06b2 E8000000 		call	_ZSt16__ostream_insertIcSt11char_traitsIcEERSt13basic_ostreamIT_T0_ES6_PKS3_l
 1975      00
 1976 06b7 488DBC24 		leaq	176(%rsp), %rdi
 1976      B0000000 
 1977 06bf 4889DE   		movq	%rbx, %rsi
 1978 06c2 E8000000 		call	_ZStlsISt11char_traitsIcEERSt13basic_ostreamIcT_ES5_PKc
 1978      00
 1979 06c7 488DBC24 		leaq	176(%rsp), %rdi
 1979      B0000000 
 1980 06cf E8000000 		call	_ZNK8UnitTest15MemoryOutStream7GetTextEv
 1980      00
 1981 06d4 4889C3   		movq	%rax, %rbx
 1982 06d7 E8000000 		call	_ZN8UnitTest11CurrentTest7ResultsEv
 1982      00
 1983 06dc 488B7424 		movq	8(%rsp), %rsi
 1983      08
 1984 06e1 488B38   		movq	(%rax), %rdi
 1985 06e4 4889DA   		movq	%rbx, %rdx
 1986 06e7 E8000000 		call	_ZN8UnitTest11TestResults13OnTestFailureERKNS_11TestDetailsEPKc
 1986      00
 1987              	.LEHE14:
 1988 06ec 488DBC24 		leaq	176(%rsp), %rdi
 1988      B0000000 
 1989              	.LEHB15:
 1990 06f4 E8000000 		call	_ZN8UnitTest15MemoryOutStreamD1Ev
 1990      00
 1991              	.LEHE15:
 1992              	.L158:
 1993 06f9 E8000000 		call	__cxa_end_catch
 1993      00
 1994 06fe E918FFFF 		jmp	.L111
 1994      FF
 1995              	.L150:
 1996 0703 4889C7   		movq	%rax, %rdi
 1997 0706 E8000000 		call	__cxa_begin_catch
 1997      00
 1998              	.LEHB16:
 1999 070b E8000000 		call	_ZN8UnitTest11CurrentTest7DetailsEv
 1999      00
 2000 0710 488B30   		movq	(%rax), %rsi
 2001 0713 488D7C24 		leaq	48(%rsp), %rdi
 2001      30
 2002 0718 BA620000 		movl	$98, %edx
 2002      00
 2003 071d E8000000 		call	_ZN8UnitTest11TestDetailsC1ERKS0_i
 2003      00
 2004 0722 E8000000 		call	_ZN8UnitTest11CurrentTest7ResultsEv
 2004      00
 2005 0727 488B38   		movq	(%rax), %rdi
 2006 072a 488D7424 		leaq	48(%rsp), %rsi
 2006      30
 2007 072f BA000000 		movl	$.LC68, %edx
 2007      00
 2008 0734 E8000000 		call	_ZN8UnitTest11TestResults13OnTestFailureERKNS_11TestDetailsEPKc
 2008      00
 2009              	.LEHE16:
 2010              	.LEHB17:
 2011 0739 E8000000 		call	__cxa_end_catch
 2011      00
 2012              	.LEHE17:
 2013 073e E9B8FEFF 		jmp	.L122
 2013      FF
 2014              	.L164:
 2015 0743 E8000000 		call	__stack_chk_fail
 2015      00
 2016              	.L149:
 2017 0748 4889C3   		movq	%rax, %rbx
 2018 074b 4889D5   		movq	%rdx, %rbp
 2019 074e E8000000 		call	__cxa_end_catch
 2019      00
 2020              	.L127:
 2021 0753 488D7C24 		leaq	112(%rsp), %rdi
 2021      70
 2022 0758 48C74424 		movq	$_ZTVN12_GLOBAL__N_18SlowTestE+16, 112(%rsp)
 2022      70000000 
 2022      00
 2023 0761 E8000000 		call	_ZN8UnitTest4TestD2Ev
 2023      00
 2024 0766 E9EDFEFF 		jmp	.L128
 2024      FF
 2025              	.L146:
 2026 076b 4889C7   		movq	%rax, %rdi
 2027 076e E9F8FEFF 		jmp	.L129
 2027      FF
 2028              	.L148:
 2029 0773 4889C3   		movq	%rax, %rbx
 2030 0776 4889D5   		movq	%rdx, %rbp
 2031 0779 EBD8     		jmp	.L127
 2032              	.L144:
 2033 077b 488DBC24 		leaq	176(%rsp), %rdi
 2033      B0000000 
 2034 0783 4889C3   		movq	%rax, %rbx
 2035 0786 E8000000 		call	_ZN8UnitTest15MemoryOutStreamD1Ev
 2035      00
 2036              	.L137:
 2037 078b E8000000 		call	__cxa_end_catch
 2037      00
 2038 0790 4889DF   		movq	%rbx, %rdi
 2039              	.LEHB18:
 2040 0793 E8000000 		call	_Unwind_Resume
 2040      00
 2041              	.LEHE18:
 2042              	.L143:
 2043              	.L159:
 2044 0798 4889C3   		movq	%rax, %rbx
 2045 079b EBEE     		jmp	.L137
 2046              	.L165:
 2047 079d E8000000 		call	__cxa_begin_catch
 2047      00
 2048              	.LEHB19:
 2049 07a2 E8000000 		call	_ZN8UnitTest11CurrentTest7ResultsEv
 2049      00
 2050 07a7 488B7424 		movq	8(%rsp), %rsi
 2050      08
 2051 07ac 488B38   		movq	(%rax), %rdi
 2052 07af BA000000 		movl	$.LC70, %edx
 2052      00
 2053 07b4 E8000000 		call	_ZN8UnitTest11TestResults13OnTestFailureERKNS_11TestDetailsEPKc
 2053      00
 2054              	.LEHE19:
 2055              	.LEHB20:
 2056 07b9 E8000000 		call	__cxa_end_catch
 2056      00
 2057              	.LEHE20:
 2058 07be E958FEFF 		jmp	.L111
 2058      FF
 2059              	.L131:
 2060 07c3 E8000000 		call	__cxa_begin_catch
 2060      00
 2061 07c8 4889C3   		movq	%rax, %rbx
 2062 07cb 488B00   		movq	(%rax), %rax
 2063 07ce 4889DF   		movq	%rbx, %rdi
 2064 07d1 FF5010   		call	*16(%rax)
 2065 07d4 4889DF   		movq	%rbx, %rdi
 2066 07d7 4889C5   		movq	%rax, %rbp
 2067              	.LEHB21:
 2068 07da E8000000 		call	_ZNK8UnitTest15AssertException10LineNumberEv
 2068      00
 2069 07df 4889DF   		movq	%rbx, %rdi
 2070 07e2 4189C4   		movl	%eax, %r12d
 2071 07e5 E8000000 		call	_ZNK8UnitTest15AssertException8FilenameEv
 2071      00
 2072 07ea 488B5424 		movq	8(%rsp), %rdx
 2072      08
 2073 07ef 488D7C24 		leaq	16(%rsp), %rdi
 2073      10
 2074 07f4 4589E0   		movl	%r12d, %r8d
 2075 07f7 4889C1   		movq	%rax, %rcx
 2076 07fa 488B7208 		movq	8(%rdx), %rsi
 2077 07fe 488B12   		movq	(%rdx), %rdx
 2078 0801 E8000000 		call	_ZN8UnitTest11TestDetailsC1EPKcS2_S2_i
 2078      00
 2079 0806 E8000000 		call	_ZN8UnitTest11CurrentTest7ResultsEv
 2079      00
 2080 080b 488B38   		movq	(%rax), %rdi
 2081 080e 488D7424 		leaq	16(%rsp), %rsi
 2081      10
 2082 0813 4889EA   		movq	%rbp, %rdx
 2083 0816 E8000000 		call	_ZN8UnitTest11TestResults13OnTestFailureERKNS_11TestDetailsEPKc
 2083      00
 2084              	.LEHE21:
 2085 081b E9D9FEFF 		jmp	.L158
 2085      FF
 2086              	.L142:
 2087 0820 4889C3   		movq	%rax, %rbx
 2088 0823 E8000000 		call	__cxa_end_catch
 2088      00
 2089 0828 4889DF   		movq	%rbx, %rdi
 2090              	.LEHB22:
 2091 082b E8000000 		call	_Unwind_Resume
 2091      00
 2092              	.LEHE22:
 2093              	.L145:
 2094 0830 E963FFFF 		jmp	.L159
 2094      FF
 2095              		.cfi_endproc
 2096              	.LFE1578:
 2097              		.section	.gcc_except_table
 2098              		.align 4
 2099              	.LLSDA1578:
 2100 0024 FF       		.byte	0xff
 2101 0025 03       		.byte	0x3
 2102 0026 75       		.uleb128 .LLSDATT1578-.LLSDATTD1578
 2103              	.LLSDATTD1578:
 2104 0027 01       		.byte	0x1
 2105 0028 5F       		.uleb128 .LLSDACSE1578-.LLSDACSB1578
 2106              	.LLSDACSB1578:
 2107 0029 2C       		.uleb128 .LEHB6-.LFB1578
 2108 002a 05       		.uleb128 .LEHE6-.LEHB6
 2109 002b 00       		.uleb128 0
 2110 002c 00       		.uleb128 0
 2111 002d 3C       		.uleb128 .LEHB7-.LFB1578
 2112 002e 05       		.uleb128 .LEHE7-.LEHB7
 2113 002f DB05     		.uleb128 .L146-.LFB1578
 2114 0031 05       		.uleb128 0x5
 2115 0032 71       		.uleb128 .LEHB8-.LFB1578
 2116 0033 2E       		.uleb128 .LEHE8-.LEHB8
 2117 0034 C203     		.uleb128 .L147-.LFB1578
 2118 0036 07       		.uleb128 0x7
 2119 0037 BB01     		.uleb128 .LEHB9-.LFB1578
 2120 0039 6A       		.uleb128 .LEHE9-.LEHB9
 2121 003a E305     		.uleb128 .L148-.LFB1578
 2122 003c 07       		.uleb128 0x7
 2123 003d BD02     		.uleb128 .LEHB10-.LFB1578
 2124 003f 2E       		.uleb128 .LEHE10-.LEHB10
 2125 0040 F304     		.uleb128 .L150-.LFB1578
 2126 0042 01       		.uleb128 0x1
 2127 0043 F902     		.uleb128 .LEHB11-.LFB1578
 2128 0045 05       		.uleb128 .LEHE11-.LEHB11
 2129 0046 C203     		.uleb128 .L147-.LFB1578
 2130 0048 07       		.uleb128 0x7
 2131 0049 8603     		.uleb128 .LEHB12-.LFB1578
 2132 004b 05       		.uleb128 .LEHE12-.LEHB12
 2133 004c DB05     		.uleb128 .L146-.LFB1578
 2134 004e 05       		.uleb128 0x5
 2135 004f FF03     		.uleb128 .LEHB13-.LFB1578
 2136 0051 05       		.uleb128 .LEHE13-.LEHB13
 2137 0052 8806     		.uleb128 .L143-.LFB1578
 2138 0054 00       		.uleb128 0
 2139 0055 A204     		.uleb128 .LEHB14-.LFB1578
 2140 0057 3A       		.uleb128 .LEHE14-.LEHB14
 2141 0058 EB05     		.uleb128 .L144-.LFB1578
 2142 005a 00       		.uleb128 0
 2143 005b E404     		.uleb128 .LEHB15-.LFB1578
 2144 005d 05       		.uleb128 .LEHE15-.LEHB15
 2145 005e 8806     		.uleb128 .L143-.LFB1578
 2146 0060 00       		.uleb128 0
 2147 0061 FB04     		.uleb128 .LEHB16-.LFB1578
 2148 0063 2E       		.uleb128 .LEHE16-.LEHB16
 2149 0064 B805     		.uleb128 .L149-.LFB1578
 2150 0066 07       		.uleb128 0x7
 2151 0067 A905     		.uleb128 .LEHB17-.LFB1578
 2152 0069 05       		.uleb128 .LEHE17-.LEHB17
 2153 006a E305     		.uleb128 .L148-.LFB1578
 2154 006c 07       		.uleb128 0x7
 2155 006d 8306     		.uleb128 .LEHB18-.LFB1578
 2156 006f 05       		.uleb128 .LEHE18-.LEHB18
 2157 0070 00       		.uleb128 0
 2158 0071 00       		.uleb128 0
 2159 0072 9206     		.uleb128 .LEHB19-.LFB1578
 2160 0074 17       		.uleb128 .LEHE19-.LEHB19
 2161 0075 9007     		.uleb128 .L142-.LFB1578
 2162 0077 00       		.uleb128 0
 2163 0078 A906     		.uleb128 .LEHB20-.LFB1578
 2164 007a 05       		.uleb128 .LEHE20-.LEHB20
 2165 007b 00       		.uleb128 0
 2166 007c 00       		.uleb128 0
 2167 007d CA06     		.uleb128 .LEHB21-.LFB1578
 2168 007f 41       		.uleb128 .LEHE21-.LEHB21
 2169 0080 A007     		.uleb128 .L145-.LFB1578
 2170 0082 00       		.uleb128 0
 2171 0083 9B07     		.uleb128 .LEHB22-.LFB1578
 2172 0085 05       		.uleb128 .LEHE22-.LEHB22
 2173 0086 00       		.uleb128 0
 2174 0087 00       		.uleb128 0
 2175              	.LLSDACSE1578:
 2176 0088 03       		.byte	0x3
 2177 0089 00       		.byte	0
 2178 008a 02       		.byte	0x2
 2179 008b 7D       		.byte	0x7d
 2180 008c 01       		.byte	0x1
 2181 008d 7D       		.byte	0x7d
 2182 008e 00       		.byte	0
 2183 008f 7D       		.byte	0x7d
 2184              		.align 4
 2185 0090 00000000 		.long	0
 2186              	
 2187 0094 00000000 		.long	_ZTISt9exception
 2188 0098 00000000 		.long	_ZTIN8UnitTest15AssertExceptionE
 2189              	.LLSDATT1578:
 2190              		.text
 2192              		.section	.text.unlikely
 2193              	.LCOLDE71:
 2194              		.text
 2195              	.LHOTE71:
 2196              		.section	.rodata.str1.8
 2197 00c9 00000000 		.align 8
 2197      000000
 2198              	.LC73:
 2199 00d0 556E6861 		.string	"Unhandled exception while destroying fixture TestRunnerFixture"
 2199      6E646C65 
 2199      64206578 
 2199      63657074 
 2199      696F6E20 
 2200 010f 00       		.align 8
 2201              	.LC74:
 2202 0110 556E6861 		.string	"Unhandled exception while constructing fixture TestRunnerFixture"
 2202      6E646C65 
 2202      64206578 
 2202      63657074 
 2202      696F6E20 
 2203              		.section	.text.unlikely
 2204              		.align 2
 2205              	.LCOLDB75:
 2206              		.text
 2207              	.LHOTB75:
 2208 0835 90       		.align 2
 2209 0836 662E0F1F 		.p2align 4,,15
 2209      84000000 
 2209      0000
 2211              	_ZNK12_GLOBAL__N_154TestTestRunnerFixtureTestFinishIsCalledWithCorrectTime7RunImplEv:
 2212              	.LFB1185:
 2213              		.cfi_startproc
 2214              		.cfi_personality 0x3,__gxx_personality_v0
 2215              		.cfi_lsda 0x3,.LLSDA1185
 2216 0840 4155     		pushq	%r13
 2217              		.cfi_def_cfa_offset 16
 2218              		.cfi_offset 13, -16
 2219 0842 4154     		pushq	%r12
 2220              		.cfi_def_cfa_offset 24
 2221              		.cfi_offset 12, -24
 2222 0844 55       		pushq	%rbp
 2223              		.cfi_def_cfa_offset 32
 2224              		.cfi_offset 6, -32
 2225 0845 53       		pushq	%rbx
 2226              		.cfi_def_cfa_offset 40
 2227              		.cfi_offset 3, -40
 2228 0846 4889FD   		movq	%rdi, %rbp
 2229 0849 488D5F08 		leaq	8(%rdi), %rbx
 2230 084d 4881EC98 		subq	$2200, %rsp
 2230      080000
 2231              		.cfi_def_cfa_offset 2240
 2232 0854 64488B04 		movq	%fs:40, %rax
 2232      25280000 
 2232      00
 2233 085d 48898424 		movq	%rax, 2184(%rsp)
 2233      88080000 
 2234 0865 31C0     		xorl	%eax, %eax
 2235 0867 488D4424 		leaq	32(%rsp), %rax
 2235      20
 2236 086c 488D7424 		leaq	56(%rsp), %rsi
 2236      38
 2237 0871 4889C7   		movq	%rax, %rdi
 2238              	.LEHB23:
 2239 0874 E8000000 		call	_ZN8UnitTest10TestRunnerC1ERNS_12TestReporterE
 2239      00
 2240              	.LEHE23:
 2241 0879 488DBC24 		leaq	2152(%rsp), %rdi
 2241      68080000 
 2242 0881 48C74424 		movq	$_ZTV17RecordingReporter+16, 56(%rsp)
 2242      38000000 
 2242      00
 2243 088a C7442440 		movl	$0, 64(%rsp)
 2243      00000000 
 2244 0892 C7842444 		movl	$0, 580(%rsp)
 2244      02000000 
 2244      000000
 2245 089d C7842448 		movl	$0, 840(%rsp)
 2245      03000000 
 2245      000000
 2246 08a8 C784244C 		movl	$0, 1612(%rsp)
 2246      06000000 
 2246      000000
 2247 08b3 C7842450 		movl	$0x00000000, 2128(%rsp)
 2247      08000000 
 2247      000000
 2248 08be C7842454 		movl	$0, 2132(%rsp)
 2248      08000000 
 2248      000000
 2249 08c9 C7842458 		movl	$0, 2136(%rsp)
 2249      08000000 
 2249      000000
 2250 08d4 C784245C 		movl	$0, 2140(%rsp)
 2250      08000000 
 2250      000000
 2251 08df C7842460 		movl	$0x00000000, 2144(%rsp)
 2251      08000000 
 2251      000000
 2252 08ea C6442444 		movb	$0, 68(%rsp)
 2252      00
 2253 08ef C6842444 		movb	$0, 324(%rsp)
 2253      01000000 
 2254 08f7 C6842448 		movb	$0, 584(%rsp)
 2254      02000000 
 2255 08ff C684244C 		movb	$0, 844(%rsp)
 2255      03000000 
 2256 0907 C684244C 		movb	$0, 1100(%rsp)
 2256      04000000 
 2257 090f C684244C 		movb	$0, 1356(%rsp)
 2257      05000000 
 2258 0917 C6842450 		movb	$0, 1616(%rsp)
 2258      06000000 
 2259 091f C6842450 		movb	$0, 1872(%rsp)
 2259      07000000 
 2260              	.LEHB24:
 2261 0927 E8000000 		call	_ZN8UnitTest8TestListC1Ev
 2261      00
 2262              	.LEHE24:
 2263 092c 488D7C24 		leaq	32(%rsp), %rdi
 2263      20
 2264 0931 4889DE   		movq	%rbx, %rsi
 2265 0934 48899C24 		movq	%rbx, 2168(%rsp)
 2265      78080000 
 2266              	.LEHB25:
 2267 093c E84FFBFF 		call	_ZN8UnitTest11ExecuteTestIN12_GLOBAL__N_156TestRunnerFixtureTestFinishIsCalledWithCorrectTime
 2267      FF
 2268              	.LEHE25:
 2269 0941 488D7C24 		leaq	56(%rsp), %rdi
 2269      38
 2270 0946 48C74424 		movq	$_ZTV17RecordingReporter+16, 56(%rsp)
 2270      38000000 
 2270      00
 2271              	.LEHB26:
 2272 094f E8000000 		call	_ZN8UnitTest12TestReporterD2Ev
 2272      00
 2273              	.LEHE26:
 2274 0954 488D7C24 		leaq	32(%rsp), %rdi
 2274      20
 2275              	.LEHB27:
 2276 0959 E8000000 		call	_ZN8UnitTest10TestRunnerD1Ev
 2276      00
 2277              	.LEHE27:
 2278              	.L166:
 2279 095e 488B8424 		movq	2184(%rsp), %rax
 2279      88080000 
 2280 0966 64483304 		xorq	%fs:40, %rax
 2280      25280000 
 2280      00
 2281 096f 750E     		jne	.L205
 2282 0971 4881C498 		addq	$2200, %rsp
 2282      080000
 2283              		.cfi_remember_state
 2284              		.cfi_def_cfa_offset 40
 2285 0978 5B       		popq	%rbx
 2286              		.cfi_def_cfa_offset 32
 2287 0979 5D       		popq	%rbp
 2288              		.cfi_def_cfa_offset 24
 2289 097a 415C     		popq	%r12
 2290              		.cfi_def_cfa_offset 16
 2291 097c 415D     		popq	%r13
 2292              		.cfi_def_cfa_offset 8
 2293 097e C3       		ret
 2294              	.L205:
 2295              		.cfi_restore_state
 2296 097f E8000000 		call	__stack_chk_fail
 2296      00
 2297              	.L187:
 2298 0984 4889C7   		movq	%rax, %rdi
 2299 0987 41BC0100 		movl	$1, %r12d
 2299      0000
 2300              	.L169:
 2301 098d 4883FA01 		cmpq	$1, %rdx
 2302 0991 0F844501 		je	.L178
 2302      0000
 2303 0997 4883FA02 		cmpq	$2, %rdx
 2304 099b 0F85FE00 		jne	.L206
 2304      0000
 2305 09a1 E8000000 		call	__cxa_begin_catch
 2305      00
 2306 09a6 488D7C24 		leaq	32(%rsp), %rdi
 2306      20
 2307 09ab 4889C5   		movq	%rax, %rbp
 2308              	.LEHB28:
 2309 09ae E8000000 		call	_ZN8UnitTest15MemoryOutStreamC1Ev
 2309      00
 2310              	.LEHE28:
 2311 09b3 488B4500 		movq	0(%rbp), %rax
 2312 09b7 4889EF   		movq	%rbp, %rdi
 2313 09ba FF5010   		call	*16(%rax)
 2314 09bd 488D7C24 		leaq	32(%rsp), %rdi
 2314      20
 2315 09c2 BA150000 		movl	$21, %edx
 2315      00
 2316 09c7 BE000000 		movl	$.LC69, %esi
 2316      00
 2317 09cc 4889C5   		movq	%rax, %rbp
 2318              	.LEHB29:
 2319 09cf E8000000 		call	_ZSt16__ostream_insertIcSt11char_traitsIcEERSt13basic_ostreamIT_T0_ES6_PKS3_l
 2319      00
 2320 09d4 488D7C24 		leaq	32(%rsp), %rdi
 2320      20
 2321 09d9 4889EE   		movq	%rbp, %rsi
 2322 09dc E8000000 		call	_ZStlsISt11char_traitsIcEERSt13basic_ostreamIcT_ES5_PKc
 2322      00
 2323 09e1 488D7C24 		leaq	32(%rsp), %rdi
 2323      20
 2324 09e6 E8000000 		call	_ZNK8UnitTest15MemoryOutStream7GetTextEv
 2324      00
 2325 09eb 4889C5   		movq	%rax, %rbp
 2326 09ee E8000000 		call	_ZN8UnitTest11CurrentTest7ResultsEv
 2326      00
 2327 09f3 488B38   		movq	(%rax), %rdi
 2328 09f6 4889EA   		movq	%rbp, %rdx
 2329 09f9 4889DE   		movq	%rbx, %rsi
 2330 09fc E8000000 		call	_ZN8UnitTest11TestResults13OnTestFailureERKNS_11TestDetailsEPKc
 2330      00
 2331              	.LEHE29:
 2332 0a01 488D7C24 		leaq	32(%rsp), %rdi
 2332      20
 2333              	.LEHB30:
 2334 0a06 E8000000 		call	_ZN8UnitTest15MemoryOutStreamD1Ev
 2334      00
 2335              	.LEHE30:
 2336              	.L200:
 2337 0a0b E8000000 		call	__cxa_end_catch
 2337      00
 2338 0a10 E949FFFF 		jmp	.L166
 2338      FF
 2339              	.L194:
 2340 0a15 488D7C24 		leaq	32(%rsp), %rdi
 2340      20
 2341 0a1a 4989D4   		movq	%rdx, %r12
 2342 0a1d 4989C5   		movq	%rax, %r13
 2343 0a20 E8000000 		call	_ZN8UnitTest10TestRunnerD1Ev
 2343      00
 2344 0a25 4C89E2   		movq	%r12, %rdx
 2345 0a28 4C89EF   		movq	%r13, %rdi
 2346 0a2b 41BC0100 		movl	$1, %r12d
 2346      0000
 2347 0a31 E957FFFF 		jmp	.L169
 2347      FF
 2348              	.L188:
 2349 0a36 488D7C24 		leaq	32(%rsp), %rdi
 2349      20
 2350 0a3b 4989D4   		movq	%rdx, %r12
 2351 0a3e 4989C5   		movq	%rax, %r13
 2352 0a41 E8000000 		call	_ZN12_GLOBAL__N_111FixtureBaseD2Ev
 2352      00
 2353 0a46 4C89E2   		movq	%r12, %rdx
 2354 0a49 4C89EF   		movq	%r13, %rdi
 2355 0a4c 41BC0100 		movl	$1, %r12d
 2355      0000
 2356 0a52 E936FFFF 		jmp	.L169
 2356      FF
 2357              	.L193:
 2358 0a57 488D7C24 		leaq	32(%rsp), %rdi
 2358      20
 2359 0a5c 4989D4   		movq	%rdx, %r12
 2360 0a5f 4989C5   		movq	%rax, %r13
 2361 0a62 E8000000 		call	_ZN12_GLOBAL__N_111FixtureBaseD2Ev
 2361      00
 2362 0a67 4C89E2   		movq	%r12, %rdx
 2363 0a6a 4C89EF   		movq	%r13, %rdi
 2364 0a6d 4531E4   		xorl	%r12d, %r12d
 2365 0a70 E918FFFF 		jmp	.L169
 2365      FF
 2366              	.L195:
 2367 0a75 4889C7   		movq	%rax, %rdi
 2368 0a78 4531E4   		xorl	%r12d, %r12d
 2369 0a7b E90DFFFF 		jmp	.L169
 2369      FF
 2370              	.L191:
 2371 0a80 488D7C24 		leaq	32(%rsp), %rdi
 2371      20
 2372 0a85 4889C3   		movq	%rax, %rbx
 2373 0a88 E8000000 		call	_ZN8UnitTest15MemoryOutStreamD1Ev
 2373      00
 2374              	.L184:
 2375 0a8d E8000000 		call	__cxa_end_catch
 2375      00
 2376 0a92 4889DF   		movq	%rbx, %rdi
 2377              	.LEHB31:
 2378 0a95 E8000000 		call	_Unwind_Resume
 2378      00
 2379              	.LEHE31:
 2380              	.L190:
 2381              	.L201:
 2382 0a9a 4889C3   		movq	%rax, %rbx
 2383 0a9d EBEE     		jmp	.L184
 2384              	.L206:
 2385 0a9f E8000000 		call	__cxa_begin_catch
 2385      00
 2386 0aa4 4584E4   		testb	%r12b, %r12b
 2387 0aa7 BA5C0000 		movl	$92, %edx
 2387      00
 2388 0aac 4889DE   		movq	%rbx, %rsi
 2389 0aaf 4889E7   		movq	%rsp, %rdi
 2390 0ab2 0F848900 		je	.L180
 2390      0000
 2391              	.LEHB32:
 2392 0ab8 E8000000 		call	_ZN8UnitTest11TestDetailsC1ERKS0_i
 2392      00
 2393 0abd E8000000 		call	_ZN8UnitTest11CurrentTest7ResultsEv
 2393      00
 2394 0ac2 488B38   		movq	(%rax), %rdi
 2395 0ac5 BA000000 		movl	$.LC73, %edx
 2395      00
 2396 0aca 4889E6   		movq	%rsp, %rsi
 2397 0acd E8000000 		call	_ZN8UnitTest11TestResults13OnTestFailureERKNS_11TestDetailsEPKc
 2397      00
 2398              	.LEHE32:
 2399              	.L181:
 2400              	.LEHB33:
 2401 0ad2 E8000000 		call	__cxa_end_catch
 2401      00
 2402              	.LEHE33:
 2403 0ad7 E982FEFF 		jmp	.L166
 2403      FF
 2404              	.L178:
 2405 0adc E8000000 		call	__cxa_begin_catch
 2405      00
 2406 0ae1 4889C3   		movq	%rax, %rbx
 2407 0ae4 488B00   		movq	(%rax), %rax
 2408 0ae7 4889DF   		movq	%rbx, %rdi
 2409 0aea FF5010   		call	*16(%rax)
 2410 0aed 4889DF   		movq	%rbx, %rdi
 2411 0af0 4989C4   		movq	%rax, %r12
 2412              	.LEHB34:
 2413 0af3 E8000000 		call	_ZNK8UnitTest15AssertException10LineNumberEv
 2413      00
 2414 0af8 4889DF   		movq	%rbx, %rdi
 2415 0afb 4189C5   		movl	%eax, %r13d
 2416 0afe E8000000 		call	_ZNK8UnitTest15AssertException8FilenameEv
 2416      00
 2417 0b03 488B5508 		movq	8(%rbp), %rdx
 2418 0b07 488B7510 		movq	16(%rbp), %rsi
 2419 0b0b 4589E8   		movl	%r13d, %r8d
 2420 0b0e 4889C1   		movq	%rax, %rcx
 2421 0b11 4889E7   		movq	%rsp, %rdi
 2422 0b14 E8000000 		call	_ZN8UnitTest11TestDetailsC1EPKcS2_S2_i
 2422      00
 2423 0b19 E8000000 		call	_ZN8UnitTest11CurrentTest7ResultsEv
 2423      00
 2424 0b1e 488B38   		movq	(%rax), %rdi
 2425 0b21 4C89E2   		movq	%r12, %rdx
 2426 0b24 4889E6   		movq	%rsp, %rsi
 2427 0b27 E8000000 		call	_ZN8UnitTest11TestResults13OnTestFailureERKNS_11TestDetailsEPKc
 2427      00
 2428              	.LEHE34:
 2429 0b2c E9DAFEFF 		jmp	.L200
 2429      FF
 2430              	.L192:
 2431 0b31 4889C3   		movq	%rax, %rbx
 2432 0b34 E8000000 		call	__cxa_end_catch
 2432      00
 2433 0b39 4889DF   		movq	%rbx, %rdi
 2434              	.LEHB35:
 2435 0b3c E8000000 		call	_Unwind_Resume
 2435      00
 2436              	.LEHE35:
 2437              	.L180:
 2438              	.LEHB36:
 2439 0b41 E8000000 		call	_ZN8UnitTest11TestDetailsC1ERKS0_i
 2439      00
 2440 0b46 E8000000 		call	_ZN8UnitTest11CurrentTest7ResultsEv
 2440      00
 2441 0b4b 488B38   		movq	(%rax), %rdi
 2442 0b4e BA000000 		movl	$.LC74, %edx
 2442      00
 2443 0b53 4889E6   		movq	%rsp, %rsi
 2444 0b56 E8000000 		call	_ZN8UnitTest11TestResults13OnTestFailureERKNS_11TestDetailsEPKc
 2444      00
 2445              	.LEHE36:
 2446 0b5b E972FFFF 		jmp	.L181
 2446      FF
 2447              	.L189:
 2448 0b60 E935FFFF 		jmp	.L201
 2448      FF
 2449              		.cfi_endproc
 2450              	.LFE1185:
 2451              		.section	.gcc_except_table
 2452              		.align 4
 2453              	.LLSDA1185:
 2454 009c FF       		.byte	0xff
 2455 009d 03       		.byte	0x3
 2456 009e 69       		.uleb128 .LLSDATT1185-.LLSDATTD1185
 2457              	.LLSDATTD1185:
 2458 009f 01       		.byte	0x1
 2459 00a0 50       		.uleb128 .LLSDACSE1185-.LLSDACSB1185
 2460              	.LLSDACSB1185:
 2461 00a1 34       		.uleb128 .LEHB23-.LFB1185
 2462 00a2 05       		.uleb128 .LEHE23-.LEHB23
 2463 00a3 B504     		.uleb128 .L195-.LFB1185
 2464 00a5 05       		.uleb128 0x5
 2465 00a6 E701     		.uleb128 .LEHB24-.LFB1185
 2466 00a8 05       		.uleb128 .LEHE24-.LEHB24
 2467 00a9 9704     		.uleb128 .L193-.LFB1185
 2468 00ab 07       		.uleb128 0x7
 2469 00ac FC01     		.uleb128 .LEHB25-.LFB1185
 2470 00ae 05       		.uleb128 .LEHE25-.LEHB25
 2471 00af F603     		.uleb128 .L188-.LFB1185
 2472 00b1 07       		.uleb128 0x7
 2473 00b2 8F02     		.uleb128 .LEHB26-.LFB1185
 2474 00b4 05       		.uleb128 .LEHE26-.LEHB26
 2475 00b5 D503     		.uleb128 .L194-.LFB1185
 2476 00b7 07       		.uleb128 0x7
 2477 00b8 9902     		.uleb128 .LEHB27-.LFB1185
 2478 00ba 05       		.uleb128 .LEHE27-.LEHB27
 2479 00bb C402     		.uleb128 .L187-.LFB1185
 2480 00bd 05       		.uleb128 0x5
 2481 00be EE02     		.uleb128 .LEHB28-.LFB1185
 2482 00c0 05       		.uleb128 .LEHE28-.LEHB28
 2483 00c1 DA04     		.uleb128 .L190-.LFB1185
 2484 00c3 00       		.uleb128 0
 2485 00c4 8F03     		.uleb128 .LEHB29-.LFB1185
 2486 00c6 32       		.uleb128 .LEHE29-.LEHB29
 2487 00c7 C004     		.uleb128 .L191-.LFB1185
 2488 00c9 00       		.uleb128 0
 2489 00ca C603     		.uleb128 .LEHB30-.LFB1185
 2490 00cc 05       		.uleb128 .LEHE30-.LEHB30
 2491 00cd DA04     		.uleb128 .L190-.LFB1185
 2492 00cf 00       		.uleb128 0
 2493 00d0 D504     		.uleb128 .LEHB31-.LFB1185
 2494 00d2 05       		.uleb128 .LEHE31-.LEHB31
 2495 00d3 00       		.uleb128 0
 2496 00d4 00       		.uleb128 0
 2497 00d5 F804     		.uleb128 .LEHB32-.LFB1185
 2498 00d7 1A       		.uleb128 .LEHE32-.LEHB32
 2499 00d8 F105     		.uleb128 .L192-.LFB1185
 2500 00da 00       		.uleb128 0
 2501 00db 9205     		.uleb128 .LEHB33-.LFB1185
 2502 00dd 05       		.uleb128 .LEHE33-.LEHB33
 2503 00de 00       		.uleb128 0
 2504 00df 00       		.uleb128 0
 2505 00e0 B305     		.uleb128 .LEHB34-.LFB1185
 2506 00e2 39       		.uleb128 .LEHE34-.LEHB34
 2507 00e3 A006     		.uleb128 .L189-.LFB1185
 2508 00e5 00       		.uleb128 0
 2509 00e6 FC05     		.uleb128 .LEHB35-.LFB1185
 2510 00e8 05       		.uleb128 .LEHE35-.LEHB35
 2511 00e9 00       		.uleb128 0
 2512 00ea 00       		.uleb128 0
 2513 00eb 8106     		.uleb128 .LEHB36-.LFB1185
 2514 00ed 1A       		.uleb128 .LEHE36-.LEHB36
 2515 00ee F105     		.uleb128 .L192-.LFB1185
 2516 00f0 00       		.uleb128 0
 2517              	.LLSDACSE1185:
 2518 00f1 03       		.byte	0x3
 2519 00f2 00       		.byte	0
 2520 00f3 02       		.byte	0x2
 2521 00f4 7D       		.byte	0x7d
 2522 00f5 01       		.byte	0x1
 2523 00f6 7D       		.byte	0x7d
 2524 00f7 00       		.byte	0
 2525 00f8 7D       		.byte	0x7d
 2526 00f9 000000   		.align 4
 2527 00fc 00000000 		.long	0
 2528              	
 2529 0100 00000000 		.long	_ZTISt9exception
 2530 0104 00000000 		.long	_ZTIN8UnitTest15AssertExceptionE
 2531              	.LLSDATT1185:
 2532              		.text
 2534              		.section	.text.unlikely
 2535              	.LCOLDE75:
 2536              		.text
 2537              	.LHOTE75:
 2538              		.section	.text.unlikely._ZNSt7__cxx1115basic_stringbufIcSt11char_traitsIcESaIcEED0Ev,"axG",@progbi
 2539              		.align 2
 2540              	.LCOLDB76:
 2541              		.section	.text._ZNSt7__cxx1115basic_stringbufIcSt11char_traitsIcESaIcEED0Ev,"axG",@progbits,_ZNSt7
 2542              	.LHOTB76:
 2543              		.align 2
 2544              		.p2align 4,,15
 2545              		.weak	_ZNSt7__cxx1115basic_stringbufIcSt11char_traitsIcESaIcEED0Ev
 2547              	_ZNSt7__cxx1115basic_stringbufIcSt11char_traitsIcESaIcEED0Ev:
 2548              	.LFB1373:
 2549              		.cfi_startproc
 2550 0000 53       		pushq	%rbx
 2551              		.cfi_def_cfa_offset 16
 2552              		.cfi_offset 3, -16
 2553 0001 4889FB   		movq	%rdi, %rbx
 2554 0004 48C70700 		movq	$_ZTVNSt7__cxx1115basic_stringbufIcSt11char_traitsIcESaIcEEE+16, (%rdi)
 2554      000000
 2555 000b 488B7F48 		movq	72(%rdi), %rdi
 2556 000f 488D4358 		leaq	88(%rbx), %rax
 2557 0013 4839C7   		cmpq	%rax, %rdi
 2558 0016 7405     		je	.L208
 2559 0018 E8000000 		call	_ZdlPv
 2559      00
 2560              	.L208:
 2561 001d 488D7B38 		leaq	56(%rbx), %rdi
 2562 0021 48C70300 		movq	$_ZTVSt15basic_streambufIcSt11char_traitsIcEE+16, (%rbx)
 2562      000000
 2563 0028 E8000000 		call	_ZNSt6localeD1Ev
 2563      00
 2564 002d 4889DF   		movq	%rbx, %rdi
 2565 0030 5B       		popq	%rbx
 2566              		.cfi_def_cfa_offset 8
 2567 0031 E9000000 		jmp	_ZdlPv
 2567      00
 2568              		.cfi_endproc
 2569              	.LFE1373:
 2571              		.section	.text.unlikely._ZNSt7__cxx1115basic_stringbufIcSt11char_traitsIcESaIcEED0Ev,"axG",@progbi
 2572              	.LCOLDE76:
 2573              		.section	.text._ZNSt7__cxx1115basic_stringbufIcSt11char_traitsIcESaIcEED0Ev,"axG",@progbits,_ZNSt7
 2574              	.LHOTE76:
 2575              		.section	.rodata.str1.1
 2576              	.LC77:
 2577 0077 45787065 		.string	"Expected "
 2577      63746564 
 2577      2000
 2578              	.LC78:
 2579 0081 20627574 		.string	" but was "
 2579      20776173 
 2579      2000
 2580              		.section	.text.unlikely._ZN8UnitTest10CheckEqualIiiEEvRNS_11TestResultsERKT_RKT0_RKNS_11TestDetail
 2581              	.LCOLDB79:
 2582              		.section	.text._ZN8UnitTest10CheckEqualIiiEEvRNS_11TestResultsERKT_RKT0_RKNS_11TestDetailsE,"axG",
 2583              	.LHOTB79:
 2584              		.p2align 4,,15
 2585              		.weak	_ZN8UnitTest10CheckEqualIiiEEvRNS_11TestResultsERKT_RKT0_RKNS_11TestDetailsE
 2587              	_ZN8UnitTest10CheckEqualIiiEEvRNS_11TestResultsERKT_RKT0_RKNS_11TestDetailsE:
 2588              	.LFB1392:
 2589              		.cfi_startproc
 2590              		.cfi_personality 0x3,__gxx_personality_v0
 2591              		.cfi_lsda 0x3,.LLSDA1392
 2592 0000 4156     		pushq	%r14
 2593              		.cfi_def_cfa_offset 16
 2594              		.cfi_offset 14, -16
 2595 0002 4155     		pushq	%r13
 2596              		.cfi_def_cfa_offset 24
 2597              		.cfi_offset 13, -24
 2598 0004 4154     		pushq	%r12
 2599              		.cfi_def_cfa_offset 32
 2600              		.cfi_offset 12, -32
 2601 0006 55       		pushq	%rbp
 2602              		.cfi_def_cfa_offset 40
 2603              		.cfi_offset 6, -40
 2604 0007 53       		pushq	%rbx
 2605              		.cfi_def_cfa_offset 48
 2606              		.cfi_offset 3, -48
 2607 0008 4881ECA0 		subq	$416, %rsp
 2607      010000
 2608              		.cfi_def_cfa_offset 464
 2609 000f 64488B04 		movq	%fs:40, %rax
 2609      25280000 
 2609      00
 2610 0018 48898424 		movq	%rax, 408(%rsp)
 2610      98010000 
 2611 0020 31C0     		xorl	%eax, %eax
 2612 0022 8B02     		movl	(%rdx), %eax
 2613 0024 3906     		cmpl	%eax, (%rsi)
 2614 0026 0F843202 		je	.L210
 2614      0000
 2615 002c 4C8DA424 		leaq	144(%rsp), %r12
 2615      90000000 
 2616 0034 4989FD   		movq	%rdi, %r13
 2617 0037 4889F3   		movq	%rsi, %rbx
 2618 003a 4889D5   		movq	%rdx, %rbp
 2619 003d 4989CE   		movq	%rcx, %r14
 2620 0040 4C89E7   		movq	%r12, %rdi
 2621 0043 E8000000 		call	_ZNSt8ios_baseC2Ev
 2621      00
 2622 0048 31F6     		xorl	%esi, %esi
 2623 004a 4C89E7   		movq	%r12, %rdi
 2624 004d 48C78424 		movq	$0, 360(%rsp)
 2624      68010000 
 2624      00000000 
 2625 0059 C6842470 		movb	$0, 368(%rsp)
 2625      01000000 
 2626 0061 C6842471 		movb	$0, 369(%rsp)
 2626      01000000 
 2627 0069 48C78424 		movq	$0, 376(%rsp)
 2627      78010000 
 2627      00000000 
 2628 0075 48C78424 		movq	$0, 384(%rsp)
 2628      80010000 
 2628      00000000 
 2629 0081 48C78424 		movq	$0, 392(%rsp)
 2629      88010000 
 2629      00000000 
 2630 008d 48C78424 		movq	$0, 400(%rsp)
 2630      90010000 
 2630      00000000 
 2631 0099 48C70424 		movq	$_ZTCN8UnitTest15MemoryOutStreamE0_So+24, (%rsp)
 2631      00000000 
 2632 00a1 48C78424 		movq	$_ZTCN8UnitTest15MemoryOutStreamE0_So+64, 144(%rsp)
 2632      90000000 
 2632      00000000 
 2633              	.LEHB37:
 2634 00ad E8000000 		call	_ZNSt9basic_iosIcSt11char_traitsIcEE4initEPSt15basic_streambufIcS1_E
 2634      00
 2635              	.LEHE37:
 2636 00b2 488D7C24 		leaq	64(%rsp), %rdi
 2636      40
 2637 00b7 48C70424 		movq	$_ZTCN8UnitTest15MemoryOutStreamE0_NSt7__cxx1119basic_ostringstreamIcSt11char_traitsIcESaIcEE
 2637      00000000 
 2638 00bf 48C78424 		movq	$_ZTCN8UnitTest15MemoryOutStreamE0_NSt7__cxx1119basic_ostringstreamIcSt11char_traitsIcESaIcEE
 2638      90000000 
 2638      00000000 
 2639 00cb 48C74424 		movq	$_ZTVSt15basic_streambufIcSt11char_traitsIcEE+16, 8(%rsp)
 2639      08000000 
 2639      00
 2640 00d4 48C74424 		movq	$0, 16(%rsp)
 2640      10000000 
 2640      00
 2641 00dd 48C74424 		movq	$0, 24(%rsp)
 2641      18000000 
 2641      00
 2642 00e6 48C74424 		movq	$0, 32(%rsp)
 2642      20000000 
 2642      00
 2643 00ef 48C74424 		movq	$0, 40(%rsp)
 2643      28000000 
 2643      00
 2644 00f8 48C74424 		movq	$0, 48(%rsp)
 2644      30000000 
 2644      00
 2645 0101 48C74424 		movq	$0, 56(%rsp)
 2645      38000000 
 2645      00
 2646 010a E8000000 		call	_ZNSt6localeC1Ev
 2646      00
 2647 010f 488D4424 		leaq	96(%rsp), %rax
 2647      60
 2648 0114 48C74424 		movq	$0, 88(%rsp)
 2648      58000000 
 2648      00
 2649 011d C6442460 		movb	$0, 96(%rsp)
 2649      00
 2650 0122 488D7424 		leaq	8(%rsp), %rsi
 2650      08
 2651 0127 48C74424 		movq	$_ZTVNSt7__cxx1115basic_stringbufIcSt11char_traitsIcESaIcEEE+16, 8(%rsp)
 2651      08000000 
 2651      00
 2652 0130 C7442448 		movl	$16, 72(%rsp)
 2652      10000000 
 2653 0138 48894424 		movq	%rax, 80(%rsp)
 2653      50
 2654 013d 488B0424 		movq	(%rsp), %rax
 2655 0141 488B40E8 		movq	-24(%rax), %rax
 2656 0145 488D3C04 		leaq	(%rsp,%rax), %rdi
 2657              	.LEHB38:
 2658 0149 E8000000 		call	_ZNSt9basic_iosIcSt11char_traitsIcEE4initEPSt15basic_streambufIcS1_E
 2658      00
 2659              	.LEHE38:
 2660 014e 488D8424 		leaq	128(%rsp), %rax
 2660      80000000 
 2661 0156 BA090000 		movl	$9, %edx
 2661      00
 2662 015b BE000000 		movl	$.LC77, %esi
 2662      00
 2663 0160 4889E7   		movq	%rsp, %rdi
 2664 0163 48C70424 		movq	$_ZTVN8UnitTest15MemoryOutStreamE+24, (%rsp)
 2664      00000000 
 2665 016b 48C78424 		movq	$_ZTVN8UnitTest15MemoryOutStreamE+64, 144(%rsp)
 2665      90000000 
 2665      00000000 
 2666 0177 48894424 		movq	%rax, 112(%rsp)
 2666      70
 2667 017c 48C74424 		movq	$0, 120(%rsp)
 2667      78000000 
 2667      00
 2668 0185 C6842480 		movb	$0, 128(%rsp)
 2668      00000000 
 2669 018d 8B6D00   		movl	0(%rbp), %ebp
 2670 0190 8B1B     		movl	(%rbx), %ebx
 2671              	.LEHB39:
 2672 0192 E8000000 		call	_ZSt16__ostream_insertIcSt11char_traitsIcEERSt13basic_ostreamIT_T0_ES6_PKS3_l
 2672      00
 2673 0197 89DE     		movl	%ebx, %esi
 2674 0199 4889E7   		movq	%rsp, %rdi
 2675 019c E8000000 		call	_ZNSolsEi
 2675      00
 2676 01a1 BA090000 		movl	$9, %edx
 2676      00
 2677 01a6 BE000000 		movl	$.LC78, %esi
 2677      00
 2678 01ab 4889C7   		movq	%rax, %rdi
 2679 01ae 4889C3   		movq	%rax, %rbx
 2680 01b1 E8000000 		call	_ZSt16__ostream_insertIcSt11char_traitsIcEERSt13basic_ostreamIT_T0_ES6_PKS3_l
 2680      00
 2681 01b6 89EE     		movl	%ebp, %esi
 2682 01b8 4889DF   		movq	%rbx, %rdi
 2683 01bb E8000000 		call	_ZNSolsEi
 2683      00
 2684 01c0 4889E7   		movq	%rsp, %rdi
 2685 01c3 E8000000 		call	_ZNK8UnitTest15MemoryOutStream7GetTextEv
 2685      00
 2686 01c8 4889C2   		movq	%rax, %rdx
 2687 01cb 4C89F6   		movq	%r14, %rsi
 2688 01ce 4C89EF   		movq	%r13, %rdi
 2689 01d1 E8000000 		call	_ZN8UnitTest11TestResults13OnTestFailureERKNS_11TestDetailsEPKc
 2689      00
 2690              	.LEHE39:
 2691 01d6 488B7C24 		movq	112(%rsp), %rdi
 2691      70
 2692 01db 488D8424 		leaq	128(%rsp), %rax
 2692      80000000 
 2693 01e3 48C70424 		movq	$_ZTVN8UnitTest15MemoryOutStreamE+24, (%rsp)
 2693      00000000 
 2694 01eb 48C78424 		movq	$_ZTVN8UnitTest15MemoryOutStreamE+64, 144(%rsp)
 2694      90000000 
 2694      00000000 
 2695 01f7 4839C7   		cmpq	%rax, %rdi
 2696 01fa 7405     		je	.L216
 2697 01fc E8000000 		call	_ZdlPv
 2697      00
 2698              	.L216:
 2699 0201 488B7C24 		movq	80(%rsp), %rdi
 2699      50
 2700 0206 488D4424 		leaq	96(%rsp), %rax
 2700      60
 2701 020b 48C70424 		movq	$_ZTCN8UnitTest15MemoryOutStreamE0_NSt7__cxx1119basic_ostringstreamIcSt11char_traitsIcESaIcEE
 2701      00000000 
 2702 0213 48C78424 		movq	$_ZTCN8UnitTest15MemoryOutStreamE0_NSt7__cxx1119basic_ostringstreamIcSt11char_traitsIcESaIcEE
 2702      90000000 
 2702      00000000 
 2703 021f 48C74424 		movq	$_ZTVNSt7__cxx1115basic_stringbufIcSt11char_traitsIcESaIcEEE+16, 8(%rsp)
 2703      08000000 
 2703      00
 2704 0228 4839C7   		cmpq	%rax, %rdi
 2705 022b 7405     		je	.L217
 2706 022d E8000000 		call	_ZdlPv
 2706      00
 2707              	.L217:
 2708 0232 488D7C24 		leaq	64(%rsp), %rdi
 2708      40
 2709 0237 48C74424 		movq	$_ZTVSt15basic_streambufIcSt11char_traitsIcEE+16, 8(%rsp)
 2709      08000000 
 2709      00
 2710 0240 E8000000 		call	_ZNSt6localeD1Ev
 2710      00
 2711 0245 488DBC24 		leaq	144(%rsp), %rdi
 2711      90000000 
 2712 024d 48C78424 		movq	$_ZTVSt9basic_iosIcSt11char_traitsIcEE+16, 144(%rsp)
 2712      90000000 
 2712      00000000 
 2713              	.LEHB40:
 2714 0259 E8000000 		call	_ZNSt8ios_baseD2Ev
 2714      00
 2715              	.LEHE40:
 2716              	.L210:
 2717 025e 488B8424 		movq	408(%rsp), %rax
 2717      98010000 
 2718 0266 64483304 		xorq	%fs:40, %rax
 2718      25280000 
 2718      00
 2719 026f 7510     		jne	.L228
 2720 0271 4881C4A0 		addq	$416, %rsp
 2720      010000
 2721              		.cfi_remember_state
 2722              		.cfi_def_cfa_offset 48
 2723 0278 5B       		popq	%rbx
 2724              		.cfi_def_cfa_offset 40
 2725 0279 5D       		popq	%rbp
 2726              		.cfi_def_cfa_offset 32
 2727 027a 415C     		popq	%r12
 2728              		.cfi_def_cfa_offset 24
 2729 027c 415D     		popq	%r13
 2730              		.cfi_def_cfa_offset 16
 2731 027e 415E     		popq	%r14
 2732              		.cfi_def_cfa_offset 8
 2733 0280 C3       		ret
 2734              	.L228:
 2735              		.cfi_restore_state
 2736 0281 E8000000 		call	__stack_chk_fail
 2736      00
 2737              	.L221:
 2738 0286 4889C3   		movq	%rax, %rbx
 2739 0289 EB12     		jmp	.L214
 2740              	.L220:
 2741 028b 4889C3   		movq	%rax, %rbx
 2742 028e EB2E     		jmp	.L218
 2743              	.L222:
 2744 0290 4889C3   		movq	%rax, %rbx
 2745              	.L213:
 2746 0293 488D7C24 		leaq	8(%rsp), %rdi
 2746      08
 2747 0298 E8000000 		call	_ZNSt7__cxx1115basic_stringbufIcSt11char_traitsIcESaIcEED1Ev
 2747      00
 2748              	.L214:
 2749 029d 488DBC24 		leaq	144(%rsp), %rdi
 2749      90000000 
 2750 02a5 48C78424 		movq	$_ZTVSt9basic_iosIcSt11char_traitsIcEE+16, 144(%rsp)
 2750      90000000 
 2750      00000000 
 2751 02b1 E8000000 		call	_ZNSt8ios_baseD2Ev
 2751      00
 2752 02b6 4889DF   		movq	%rbx, %rdi
 2753              	.LEHB41:
 2754 02b9 E8000000 		call	_Unwind_Resume
 2754      00
 2755              	.LEHE41:
 2756              	.L218:
 2757 02be 4889E7   		movq	%rsp, %rdi
 2758 02c1 E8000000 		call	_ZN8UnitTest15MemoryOutStreamD1Ev
 2758      00
 2759 02c6 4889DF   		movq	%rbx, %rdi
 2760              	.LEHB42:
 2761 02c9 E8000000 		call	_Unwind_Resume
 2761      00
 2762              	.LEHE42:
 2763              		.cfi_endproc
 2764              	.LFE1392:
 2765              		.section	.gcc_except_table
 2766              	.LLSDA1392:
 2767 0108 FF       		.byte	0xff
 2768 0109 FF       		.byte	0xff
 2769 010a 01       		.byte	0x1
 2770 010b 21       		.uleb128 .LLSDACSE1392-.LLSDACSB1392
 2771              	.LLSDACSB1392:
 2772 010c AD01     		.uleb128 .LEHB37-.LFB1392
 2773 010e 05       		.uleb128 .LEHE37-.LEHB37
 2774 010f 8605     		.uleb128 .L221-.LFB1392
 2775 0111 00       		.uleb128 0
 2776 0112 C902     		.uleb128 .LEHB38-.LFB1392
 2777 0114 05       		.uleb128 .LEHE38-.LEHB38
 2778 0115 9005     		.uleb128 .L222-.LFB1392
 2779 0117 00       		.uleb128 0
 2780 0118 9203     		.uleb128 .LEHB39-.LFB1392
 2781 011a 44       		.uleb128 .LEHE39-.LEHB39
 2782 011b 8B05     		.uleb128 .L220-.LFB1392
 2783 011d 00       		.uleb128 0
 2784 011e D904     		.uleb128 .LEHB40-.LFB1392
 2785 0120 05       		.uleb128 .LEHE40-.LEHB40
 2786 0121 00       		.uleb128 0
 2787 0122 00       		.uleb128 0
 2788 0123 B905     		.uleb128 .LEHB41-.LFB1392
 2789 0125 05       		.uleb128 .LEHE41-.LEHB41
 2790 0126 00       		.uleb128 0
 2791 0127 00       		.uleb128 0
 2792 0128 C905     		.uleb128 .LEHB42-.LFB1392
 2793 012a 05       		.uleb128 .LEHE42-.LEHB42
 2794 012b 00       		.uleb128 0
 2795 012c 00       		.uleb128 0
 2796              	.LLSDACSE1392:
 2797              		.section	.text._ZN8UnitTest10CheckEqualIiiEEvRNS_11TestResultsERKT_RKT0_RKNS_11TestDetailsE,"axG",
 2799              		.section	.text.unlikely._ZN8UnitTest10CheckEqualIiiEEvRNS_11TestResultsERKT_RKT0_RKNS_11TestDetail
 2800              	.LCOLDE79:
 2801              		.section	.text._ZN8UnitTest10CheckEqualIiiEEvRNS_11TestResultsERKT_RKT0_RKNS_11TestDetailsE,"axG",
 2802              	.LHOTE79:
 2803              		.section	.rodata.str1.1
 2804              	.LC80:
 2805 008b 00       		.string	""
 2806              	.LC81:
 2807 008c 736C6F77 		.string	"slowexempted"
 2807      6578656D 
 2807      70746564 
 2807      00
 2808              		.section	.rodata.str1.8
 2809 0151 00000000 		.align 8
 2809      000000
 2810              	.LC82:
 2811 0158 556E6861 		.string	"Unhandled exception in CHECK_EQUAL(0, reporter.testFailedCount)"
 2811      6E646C65 
 2811      64206578 
 2811      63657074 
 2811      696F6E20 
 2812              		.section	.text.unlikely
 2813              	.LCOLDB83:
 2814              		.text
 2815              	.LHOTB83:
 2816 0b65 90662E0F 		.p2align 4,,15
 2816      1F840000 
 2816      000000
 2818              	_ZN8UnitTest11ExecuteTestIN12_GLOBAL__N_154TestRunnerFixtureSlowTestWithTimeExemptionPassesHelperEE
 2819              	.LFB1588:
 2820              		.cfi_startproc
 2821              		.cfi_personality 0x3,__gxx_personality_v0
 2822              		.cfi_lsda 0x3,.LLSDA1588
 2823 0b70 4155     		pushq	%r13
 2824              		.cfi_def_cfa_offset 16
 2825              		.cfi_offset 13, -16
 2826 0b72 4154     		pushq	%r12
 2827              		.cfi_def_cfa_offset 24
 2828              		.cfi_offset 12, -24
 2829 0b74 55       		pushq	%rbp
 2830              		.cfi_def_cfa_offset 32
 2831              		.cfi_offset 6, -32
 2832 0b75 53       		pushq	%rbx
 2833              		.cfi_def_cfa_offset 40
 2834              		.cfi_offset 3, -40
 2835 0b76 4889F3   		movq	%rsi, %rbx
 2836 0b79 4881ECD8 		subq	$1752, %rsp
 2836      060000
 2837              		.cfi_def_cfa_offset 1792
 2838 0b80 48893C24 		movq	%rdi, (%rsp)
 2839 0b84 48897424 		movq	%rsi, 8(%rsp)
 2839      08
 2840 0b89 64488B04 		movq	%fs:40, %rax
 2840      25280000 
 2840      00
 2841 0b92 48898424 		movq	%rax, 1736(%rsp)
 2841      C8060000 
 2842 0b9a 31C0     		xorl	%eax, %eax
 2843              	.LEHB43:
 2844 0b9c E8000000 		call	_ZN8UnitTest11CurrentTest7DetailsEv
 2844      00
 2845              	.LEHE43:
 2846 0ba1 488DBC24 		leaq	608(%rsp), %rdi
 2846      60020000 
 2847 0ba9 488918   		movq	%rbx, (%rax)
 2848              	.LEHB44:
 2849 0bac E8000000 		call	_ZN8UnitTest16SignalTranslatorC1Ev
 2849      00
 2850              	.LEHE44:
 2851 0bb1 488B3D00 		movq	_ZN8UnitTest16SignalTranslator12s_jumpTargetE(%rip), %rdi
 2851      000000
 2852 0bb8 BE010000 		movl	$1, %esi
 2852      00
 2853 0bbd E8000000 		call	__sigsetjmp
 2853      00
 2854 0bc2 85C0     		testl	%eax, %eax
 2855 0bc4 742A     		je	.L265
 2856 0bc6 BF080000 		movl	$8, %edi
 2856      00
 2857 0bcb E8000000 		call	__cxa_allocate_exception
 2857      00
 2858 0bd0 31D2     		xorl	%edx, %edx
 2859 0bd2 48C70000 		movq	$.LC61, (%rax)
 2859      000000
 2860 0bd9 BE000000 		movl	$_ZTIPKc, %esi
 2860      00
 2861 0bde 4889C7   		movq	%rax, %rdi
 2862              	.LEHB45:
 2863 0be1 E8000000 		call	__cxa_throw
 2863      00
 2864 0be6 662E0F1F 		.p2align 4,,10
 2864      84000000 
 2864      0000
 2865              		.p2align 3
 2866              	.L265:
 2867 0bf0 488DBC24 		leaq	128(%rsp), %rdi
 2867      80000000 
 2868 0bf8 4531C0   		xorl	%r8d, %r8d
 2869 0bfb 31C9     		xorl	%ecx, %ecx
 2870 0bfd BA000000 		movl	$.LC80, %edx
 2870      00
 2871 0c02 BE000000 		movl	$.LC81, %esi
 2871      00
 2872 0c07 E8000000 		call	_ZN8UnitTest4TestC2EPKcS2_S2_i
 2872      00
 2873              	.LEHE45:
 2874 0c0c 488B2C24 		movq	(%rsp), %rbp
 2875 0c10 488DB424 		leaq	128(%rsp), %rsi
 2875      80000000 
 2876 0c18 48C78424 		movq	$_ZTVZN12_GLOBAL__N_154TestRunnerFixtureSlowTestWithTimeExemptionPassesHelper7RunImplEvE16Slo
 2876      80000000 
 2876      00000000 
 2877 0c24 488D9D48 		leaq	2120(%rbp), %rbx
 2877      080000
 2878 0c2b 4889DF   		movq	%rbx, %rdi
 2879              	.LEHB46:
 2880 0c2e E8000000 		call	_ZN8UnitTest8TestList3AddEPNS_4TestE
 2880      00
 2881 0c33 E8000000 		call	_ZN8UnitTest11CurrentTest7ResultsEv
 2881      00
 2882 0c38 4C8B20   		movq	(%rax), %r12
 2883 0c3b E8000000 		call	_ZN8UnitTest11CurrentTest7DetailsEv
 2883      00
 2884 0c40 4889DF   		movq	%rbx, %rdi
 2885 0c43 4C8B28   		movq	(%rax), %r13
 2886 0c46 E8000000 		call	_ZNK8UnitTest8TestList7GetHeadEv
 2886      00
 2887 0c4b 4885C0   		testq	%rax, %rax
 2888 0c4e 4889C3   		movq	%rax, %rbx
 2889 0c51 7437     		je	.L235
 2890              		.p2align 4,,10
 2891 0c53 0F1F4400 		.p2align 3
 2891      00
 2892              	.L264:
 2893 0c58 31D2     		xorl	%edx, %edx
 2894 0c5a 4889DE   		movq	%rbx, %rsi
 2895 0c5d 4889EF   		movq	%rbp, %rdi
 2896 0c60 E8000000 		call	_ZNK8UnitTest10TestRunner13IsTestInSuiteEPKNS_4TestEPKc
 2896      00
 2897 0c65 84C0     		testb	%al, %al
 2898 0c67 7418     		je	.L253
 2899 0c69 488B0424 		movq	(%rsp), %rax
 2900 0c6d B9030000 		movl	$3, %ecx
 2900      00
 2901 0c72 4889DA   		movq	%rbx, %rdx
 2902 0c75 4889EF   		movq	%rbp, %rdi
 2903 0c78 488B7008 		movq	8(%rax), %rsi
 2904 0c7c E8000000 		call	_ZNK8UnitTest10TestRunner7RunTestEPNS_11TestResultsEPNS_4TestEi
 2904      00
 2905              	.L253:
 2906 0c81 488B5B28 		movq	40(%rbx), %rbx
 2907 0c85 4885DB   		testq	%rbx, %rbx
 2908 0c88 75CE     		jne	.L264
 2909              	.L235:
 2910 0c8a 488B3C24 		movq	(%rsp), %rdi
 2911 0c8e E8000000 		call	_ZNK8UnitTest10TestRunner6FinishEv
 2911      00
 2912 0c93 E8000000 		call	_ZN8UnitTest11CurrentTest7ResultsEv
 2912      00
 2913 0c98 4C8920   		movq	%r12, (%rax)
 2914 0c9b E8000000 		call	_ZN8UnitTest11CurrentTest7DetailsEv
 2914      00
 2915              	.LEHE46:
 2916 0ca0 4C8928   		movq	%r13, (%rax)
 2917              	.LEHB47:
 2918 0ca3 E8000000 		call	_ZN8UnitTest11CurrentTest7DetailsEv
 2918      00
 2919 0ca8 488B30   		movq	(%rax), %rsi
 2920 0cab 488D7C24 		leaq	96(%rsp), %rdi
 2920      60
 2921 0cb0 BADE0000 		movl	$222, %edx
 2921      00
 2922 0cb5 E8000000 		call	_ZN8UnitTest11TestDetailsC1ERKS0_i
 2922      00
 2923 0cba 488B1C24 		movq	(%rsp), %rbx
 2924 0cbe C744241C 		movl	$0, 28(%rsp)
 2924      00000000 
 2925 0cc6 4881C324 		addq	$548, %rbx
 2925      020000
 2926 0ccd E8000000 		call	_ZN8UnitTest11CurrentTest7ResultsEv
 2926      00
 2927 0cd2 488B38   		movq	(%rax), %rdi
 2928 0cd5 488D4C24 		leaq	96(%rsp), %rcx
 2928      60
 2929 0cda 488D7424 		leaq	28(%rsp), %rsi
 2929      1C
 2930 0cdf 4889DA   		movq	%rbx, %rdx
 2931 0ce2 E8000000 		call	_ZN8UnitTest10CheckEqualIiiEEvRNS_11TestResultsERKT_RKT0_RKNS_11TestDetailsE
 2931      00
 2932              	.LEHE47:
 2933              	.L239:
 2934 0ce7 488DBC24 		leaq	128(%rsp), %rdi
 2934      80000000 
 2935 0cef 48C78424 		movq	$_ZTVZN12_GLOBAL__N_154TestRunnerFixtureSlowTestWithTimeExemptionPassesHelper7RunImplEvE16Slo
 2935      80000000 
 2935      00000000 
 2936              	.LEHB48:
 2937 0cfb E8000000 		call	_ZN8UnitTest4TestD2Ev
 2937      00
 2938              	.LEHE48:
 2939 0d00 488DBC24 		leaq	608(%rsp), %rdi
 2939      60020000 
 2940              	.LEHB49:
 2941 0d08 E8000000 		call	_ZN8UnitTest16SignalTranslatorD1Ev
 2941      00
 2942              	.LEHE49:
 2943              	.L229:
 2944 0d0d 488B8424 		movq	1736(%rsp), %rax
 2944      C8060000 
 2945 0d15 64483304 		xorq	%fs:40, %rax
 2945      25280000 
 2945      00
 2946 0d1e 0F85C700 		jne	.L273
 2946      0000
 2947 0d24 4881C4D8 		addq	$1752, %rsp
 2947      060000
 2948              		.cfi_remember_state
 2949              		.cfi_def_cfa_offset 40
 2950 0d2b 5B       		popq	%rbx
 2951              		.cfi_def_cfa_offset 32
 2952 0d2c 5D       		popq	%rbp
 2953              		.cfi_def_cfa_offset 24
 2954 0d2d 415C     		popq	%r12
 2955              		.cfi_def_cfa_offset 16
 2956 0d2f 415D     		popq	%r13
 2957              		.cfi_def_cfa_offset 8
 2958 0d31 C3       		ret
 2959              	.L260:
 2960              		.cfi_restore_state
 2961 0d32 4889C3   		movq	%rax, %rbx
 2962 0d35 4889D5   		movq	%rdx, %rbp
 2963              	.L242:
 2964 0d38 488DBC24 		leaq	608(%rsp), %rdi
 2964      60020000 
 2965 0d40 E8000000 		call	_ZN8UnitTest16SignalTranslatorD1Ev
 2965      00
 2966 0d45 4889DF   		movq	%rbx, %rdi
 2967 0d48 4889EA   		movq	%rbp, %rdx
 2968              	.L243:
 2969 0d4b 4883FA01 		cmpq	$1, %rdx
 2970 0d4f 0F845401 		je	.L245
 2970      0000
 2971 0d55 4883FA02 		cmpq	$2, %rdx
 2972 0d59 0F852401 		jne	.L274
 2972      0000
 2973 0d5f E8000000 		call	__cxa_begin_catch
 2973      00
 2974 0d64 488DBC24 		leaq	192(%rsp), %rdi
 2974      C0000000 
 2975 0d6c 4889C3   		movq	%rax, %rbx
 2976              	.LEHB50:
 2977 0d6f E8000000 		call	_ZN8UnitTest15MemoryOutStreamC1Ev
 2977      00
 2978              	.LEHE50:
 2979 0d74 488B03   		movq	(%rbx), %rax
 2980 0d77 4889DF   		movq	%rbx, %rdi
 2981 0d7a FF5010   		call	*16(%rax)
 2982 0d7d 488DBC24 		leaq	192(%rsp), %rdi
 2982      C0000000 
 2983 0d85 BA150000 		movl	$21, %edx
 2983      00
 2984 0d8a BE000000 		movl	$.LC69, %esi
 2984      00
 2985 0d8f 4889C3   		movq	%rax, %rbx
 2986              	.LEHB51:
 2987 0d92 E8000000 		call	_ZSt16__ostream_insertIcSt11char_traitsIcEERSt13basic_ostreamIT_T0_ES6_PKS3_l
 2987      00
 2988 0d97 488DBC24 		leaq	192(%rsp), %rdi
 2988      C0000000 
 2989 0d9f 4889DE   		movq	%rbx, %rsi
 2990 0da2 E8000000 		call	_ZStlsISt11char_traitsIcEERSt13basic_ostreamIcT_ES5_PKc
 2990      00
 2991 0da7 488DBC24 		leaq	192(%rsp), %rdi
 2991      C0000000 
 2992 0daf E8000000 		call	_ZNK8UnitTest15MemoryOutStream7GetTextEv
 2992      00
 2993 0db4 4889C3   		movq	%rax, %rbx
 2994 0db7 E8000000 		call	_ZN8UnitTest11CurrentTest7ResultsEv
 2994      00
 2995 0dbc 488B7424 		movq	8(%rsp), %rsi
 2995      08
 2996 0dc1 488B38   		movq	(%rax), %rdi
 2997 0dc4 4889DA   		movq	%rbx, %rdx
 2998 0dc7 E8000000 		call	_ZN8UnitTest11TestResults13OnTestFailureERKNS_11TestDetailsEPKc
 2998      00
 2999              	.LEHE51:
 3000 0dcc 488DBC24 		leaq	192(%rsp), %rdi
 3000      C0000000 
 3001              	.LEHB52:
 3002 0dd4 E8000000 		call	_ZN8UnitTest15MemoryOutStreamD1Ev
 3002      00
 3003              	.LEHE52:
 3004              	.L269:
 3005 0dd9 E8000000 		call	__cxa_end_catch
 3005      00
 3006 0dde E92AFFFF 		jmp	.L229
 3006      FF
 3007              	.L259:
 3008 0de3 4889C7   		movq	%rax, %rdi
 3009 0de6 E960FFFF 		jmp	.L243
 3009      FF
 3010              	.L273:
 3011 0deb E8000000 		call	__stack_chk_fail
 3011      00
 3012              	.L263:
 3013 0df0 4889C7   		movq	%rax, %rdi
 3014 0df3 E8000000 		call	__cxa_begin_catch
 3014      00
 3015              	.LEHB53:
 3016 0df8 E8000000 		call	_ZN8UnitTest11CurrentTest7DetailsEv
 3016      00
 3017 0dfd 488B30   		movq	(%rax), %rsi
 3018 0e00 488D7C24 		leaq	64(%rsp), %rdi
 3018      40
 3019 0e05 BADE0000 		movl	$222, %edx
 3019      00
 3020 0e0a E8000000 		call	_ZN8UnitTest11TestDetailsC1ERKS0_i
 3020      00
 3021 0e0f E8000000 		call	_ZN8UnitTest11CurrentTest7ResultsEv
 3021      00
 3022 0e14 488B38   		movq	(%rax), %rdi
 3023 0e17 488D7424 		leaq	64(%rsp), %rsi
 3023      40
 3024 0e1c BA000000 		movl	$.LC82, %edx
 3024      00
 3025 0e21 E8000000 		call	_ZN8UnitTest11TestResults13OnTestFailureERKNS_11TestDetailsEPKc
 3025      00
 3026              	.LEHE53:
 3027              	.LEHB54:
 3028 0e26 E8000000 		call	__cxa_end_catch
 3028      00
 3029              	.LEHE54:
 3030 0e2b E9B7FEFF 		jmp	.L239
 3030      FF
 3031              	.L261:
 3032 0e30 4889C3   		movq	%rax, %rbx
 3033 0e33 4889D5   		movq	%rdx, %rbp
 3034              	.L241:
 3035 0e36 488DBC24 		leaq	128(%rsp), %rdi
 3035      80000000 
 3036 0e3e 48C78424 		movq	$_ZTVZN12_GLOBAL__N_154TestRunnerFixtureSlowTestWithTimeExemptionPassesHelper7RunImplEvE16Slo
 3036      80000000 
 3036      00000000 
 3037 0e4a E8000000 		call	_ZN8UnitTest4TestD2Ev
 3037      00
 3038 0e4f E9E4FEFF 		jmp	.L242
 3038      FF
 3039              	.L262:
 3040 0e54 4889C3   		movq	%rax, %rbx
 3041 0e57 4889D5   		movq	%rdx, %rbp
 3042 0e5a E8000000 		call	__cxa_end_catch
 3042      00
 3043 0e5f EBD5     		jmp	.L241
 3044              	.L257:
 3045 0e61 488DBC24 		leaq	192(%rsp), %rdi
 3045      C0000000 
 3046 0e69 4889C3   		movq	%rax, %rbx
 3047 0e6c E8000000 		call	_ZN8UnitTest15MemoryOutStreamD1Ev
 3047      00
 3048              	.L251:
 3049 0e71 E8000000 		call	__cxa_end_catch
 3049      00
 3050 0e76 4889DF   		movq	%rbx, %rdi
 3051              	.LEHB55:
 3052 0e79 E8000000 		call	_Unwind_Resume
 3052      00
 3053              	.LEHE55:
 3054              	.L256:
 3055              	.L270:
 3056 0e7e 4889C3   		movq	%rax, %rbx
 3057 0e81 EBEE     		jmp	.L251
 3058              	.L274:
 3059 0e83 E8000000 		call	__cxa_begin_catch
 3059      00
 3060              	.LEHB56:
 3061 0e88 E8000000 		call	_ZN8UnitTest11CurrentTest7ResultsEv
 3061      00
 3062 0e8d 488B7424 		movq	8(%rsp), %rsi
 3062      08
 3063 0e92 488B38   		movq	(%rax), %rdi
 3064 0e95 BA000000 		movl	$.LC70, %edx
 3064      00
 3065 0e9a E8000000 		call	_ZN8UnitTest11TestResults13OnTestFailureERKNS_11TestDetailsEPKc
 3065      00
 3066              	.LEHE56:
 3067              	.LEHB57:
 3068 0e9f E8000000 		call	__cxa_end_catch
 3068      00
 3069              	.LEHE57:
 3070 0ea4 E964FEFF 		jmp	.L229
 3070      FF
 3071              	.L245:
 3072 0ea9 E8000000 		call	__cxa_begin_catch
 3072      00
 3073 0eae 4889C3   		movq	%rax, %rbx
 3074 0eb1 488B00   		movq	(%rax), %rax
 3075 0eb4 4889DF   		movq	%rbx, %rdi
 3076 0eb7 FF5010   		call	*16(%rax)
 3077 0eba 4889DF   		movq	%rbx, %rdi
 3078 0ebd 4889C5   		movq	%rax, %rbp
 3079              	.LEHB58:
 3080 0ec0 E8000000 		call	_ZNK8UnitTest15AssertException10LineNumberEv
 3080      00
 3081 0ec5 4889DF   		movq	%rbx, %rdi
 3082 0ec8 4189C4   		movl	%eax, %r12d
 3083 0ecb E8000000 		call	_ZNK8UnitTest15AssertException8FilenameEv
 3083      00
 3084 0ed0 488B5424 		movq	8(%rsp), %rdx
 3084      08
 3085 0ed5 488D7C24 		leaq	32(%rsp), %rdi
 3085      20
 3086 0eda 4589E0   		movl	%r12d, %r8d
 3087 0edd 4889C1   		movq	%rax, %rcx
 3088 0ee0 488B7208 		movq	8(%rdx), %rsi
 3089 0ee4 488B12   		movq	(%rdx), %rdx
 3090 0ee7 E8000000 		call	_ZN8UnitTest11TestDetailsC1EPKcS2_S2_i
 3090      00
 3091 0eec E8000000 		call	_ZN8UnitTest11CurrentTest7ResultsEv
 3091      00
 3092 0ef1 488B38   		movq	(%rax), %rdi
 3093 0ef4 488D7424 		leaq	32(%rsp), %rsi
 3093      20
 3094 0ef9 4889EA   		movq	%rbp, %rdx
 3095 0efc E8000000 		call	_ZN8UnitTest11TestResults13OnTestFailureERKNS_11TestDetailsEPKc
 3095      00
 3096              	.LEHE58:
 3097 0f01 E9D3FEFF 		jmp	.L269
 3097      FF
 3098              	.L255:
 3099 0f06 4889C3   		movq	%rax, %rbx
 3100 0f09 E8000000 		call	__cxa_end_catch
 3100      00
 3101 0f0e 4889DF   		movq	%rbx, %rdi
 3102              	.LEHB59:
 3103 0f11 E8000000 		call	_Unwind_Resume
 3103      00
 3104              	.LEHE59:
 3105              	.L258:
 3106 0f16 E963FFFF 		jmp	.L270
 3106      FF
 3107              		.cfi_endproc
 3108              	.LFE1588:
 3109              		.section	.gcc_except_table
 3110 012d 000000   		.align 4
 3111              	.LLSDA1588:
 3112 0130 FF       		.byte	0xff
 3113 0131 03       		.byte	0x3
 3114 0132 75       		.uleb128 .LLSDATT1588-.LLSDATTD1588
 3115              	.LLSDATTD1588:
 3116 0133 01       		.byte	0x1
 3117 0134 5F       		.uleb128 .LLSDACSE1588-.LLSDACSB1588
 3118              	.LLSDACSB1588:
 3119 0135 2C       		.uleb128 .LEHB43-.LFB1588
 3120 0136 05       		.uleb128 .LEHE43-.LEHB43
 3121 0137 00       		.uleb128 0
 3122 0138 00       		.uleb128 0
 3123 0139 3C       		.uleb128 .LEHB44-.LFB1588
 3124 013a 05       		.uleb128 .LEHE44-.LEHB44
 3125 013b F304     		.uleb128 .L259-.LFB1588
 3126 013d 05       		.uleb128 0x5
 3127 013e 71       		.uleb128 .LEHB45-.LFB1588
 3128 013f 2B       		.uleb128 .LEHE45-.LEHB45
 3129 0140 C203     		.uleb128 .L260-.LFB1588
 3130 0142 07       		.uleb128 0x7
 3131 0143 BE01     		.uleb128 .LEHB46-.LFB1588
 3132 0145 72       		.uleb128 .LEHE46-.LEHB46
 3133 0146 C005     		.uleb128 .L261-.LFB1588
 3134 0148 07       		.uleb128 0x7
 3135 0149 B302     		.uleb128 .LEHB47-.LFB1588
 3136 014b 44       		.uleb128 .LEHE47-.LEHB47
 3137 014c 8005     		.uleb128 .L263-.LFB1588
 3138 014e 01       		.uleb128 0x1
 3139 014f 8B03     		.uleb128 .LEHB48-.LFB1588
 3140 0151 05       		.uleb128 .LEHE48-.LEHB48
 3141 0152 C203     		.uleb128 .L260-.LFB1588
 3142 0154 07       		.uleb128 0x7
 3143 0155 9803     		.uleb128 .LEHB49-.LFB1588
 3144 0157 05       		.uleb128 .LEHE49-.LEHB49
 3145 0158 F304     		.uleb128 .L259-.LFB1588
 3146 015a 05       		.uleb128 0x5
 3147 015b FF03     		.uleb128 .LEHB50-.LFB1588
 3148 015d 05       		.uleb128 .LEHE50-.LEHB50
 3149 015e 8E06     		.uleb128 .L256-.LFB1588
 3150 0160 00       		.uleb128 0
 3151 0161 A204     		.uleb128 .LEHB51-.LFB1588
 3152 0163 3A       		.uleb128 .LEHE51-.LEHB51
 3153 0164 F105     		.uleb128 .L257-.LFB1588
 3154 0166 00       		.uleb128 0
 3155 0167 E404     		.uleb128 .LEHB52-.LFB1588
 3156 0169 05       		.uleb128 .LEHE52-.LEHB52
 3157 016a 8E06     		.uleb128 .L256-.LFB1588
 3158 016c 00       		.uleb128 0
 3159 016d 8805     		.uleb128 .LEHB53-.LFB1588
 3160 016f 2E       		.uleb128 .LEHE53-.LEHB53
 3161 0170 E405     		.uleb128 .L262-.LFB1588
 3162 0172 07       		.uleb128 0x7
 3163 0173 B605     		.uleb128 .LEHB54-.LFB1588
 3164 0175 05       		.uleb128 .LEHE54-.LEHB54
 3165 0176 C005     		.uleb128 .L261-.LFB1588
 3166 0178 07       		.uleb128 0x7
 3167 0179 8906     		.uleb128 .LEHB55-.LFB1588
 3168 017b 05       		.uleb128 .LEHE55-.LEHB55
 3169 017c 00       		.uleb128 0
 3170 017d 00       		.uleb128 0
 3171 017e 9806     		.uleb128 .LEHB56-.LFB1588
 3172 0180 17       		.uleb128 .LEHE56-.LEHB56
 3173 0181 9607     		.uleb128 .L255-.LFB1588
 3174 0183 00       		.uleb128 0
 3175 0184 AF06     		.uleb128 .LEHB57-.LFB1588
 3176 0186 05       		.uleb128 .LEHE57-.LEHB57
 3177 0187 00       		.uleb128 0
 3178 0188 00       		.uleb128 0
 3179 0189 D006     		.uleb128 .LEHB58-.LFB1588
 3180 018b 41       		.uleb128 .LEHE58-.LEHB58
 3181 018c A607     		.uleb128 .L258-.LFB1588
 3182 018e 00       		.uleb128 0
 3183 018f A107     		.uleb128 .LEHB59-.LFB1588
 3184 0191 05       		.uleb128 .LEHE59-.LEHB59
 3185 0192 00       		.uleb128 0
 3186 0193 00       		.uleb128 0
 3187              	.LLSDACSE1588:
 3188 0194 03       		.byte	0x3
 3189 0195 00       		.byte	0
 3190 0196 02       		.byte	0x2
 3191 0197 7D       		.byte	0x7d
 3192 0198 01       		.byte	0x1
 3193 0199 7D       		.byte	0x7d
 3194 019a 00       		.byte	0
 3195 019b 7D       		.byte	0x7d
 3196              		.align 4
 3197 019c 00000000 		.long	0
 3198              	
 3199 01a0 00000000 		.long	_ZTISt9exception
 3200 01a4 00000000 		.long	_ZTIN8UnitTest15AssertExceptionE
 3201              	.LLSDATT1588:
 3202              		.text
 3204              		.section	.text.unlikely
 3205              	.LCOLDE83:
 3206              		.text
 3207              	.LHOTE83:
 3208              		.section	.text.unlikely
 3209              		.align 2
 3210              	.LCOLDB84:
 3211              		.text
 3212              	.LHOTB84:
 3213 0f1b 90       		.align 2
 3214 0f1c 0F1F4000 		.p2align 4,,15
 3216              	_ZNK12_GLOBAL__N_152TestTestRunnerFixtureSlowTestWithTimeExemptionPasses7RunImplEv:
 3217              	.LFB1295:
 3218              		.cfi_startproc
 3219              		.cfi_personality 0x3,__gxx_personality_v0
 3220              		.cfi_lsda 0x3,.LLSDA1295
 3221 0f20 4155     		pushq	%r13
 3222              		.cfi_def_cfa_offset 16
 3223              		.cfi_offset 13, -16
 3224 0f22 4154     		pushq	%r12
 3225              		.cfi_def_cfa_offset 24
 3226              		.cfi_offset 12, -24
 3227 0f24 55       		pushq	%rbp
 3228              		.cfi_def_cfa_offset 32
 3229              		.cfi_offset 6, -32
 3230 0f25 53       		pushq	%rbx
 3231              		.cfi_def_cfa_offset 40
 3232              		.cfi_offset 3, -40
 3233 0f26 4889FD   		movq	%rdi, %rbp
 3234 0f29 488D5F08 		leaq	8(%rdi), %rbx
 3235 0f2d 4881EC98 		subq	$2200, %rsp
 3235      080000
 3236              		.cfi_def_cfa_offset 2240
 3237 0f34 64488B04 		movq	%fs:40, %rax
 3237      25280000 
 3237      00
 3238 0f3d 48898424 		movq	%rax, 2184(%rsp)
 3238      88080000 
 3239 0f45 31C0     		xorl	%eax, %eax
 3240 0f47 488D4424 		leaq	32(%rsp), %rax
 3240      20
 3241 0f4c 488D7424 		leaq	56(%rsp), %rsi
 3241      38
 3242 0f51 4889C7   		movq	%rax, %rdi
 3243              	.LEHB60:
 3244 0f54 E8000000 		call	_ZN8UnitTest10TestRunnerC1ERNS_12TestReporterE
 3244      00
 3245              	.LEHE60:
 3246 0f59 488DBC24 		leaq	2152(%rsp), %rdi
 3246      68080000 
 3247 0f61 48C74424 		movq	$_ZTV17RecordingReporter+16, 56(%rsp)
 3247      38000000 
 3247      00
 3248 0f6a C7442440 		movl	$0, 64(%rsp)
 3248      00000000 
 3249 0f72 C7842444 		movl	$0, 580(%rsp)
 3249      02000000 
 3249      000000
 3250 0f7d C7842448 		movl	$0, 840(%rsp)
 3250      03000000 
 3250      000000
 3251 0f88 C784244C 		movl	$0, 1612(%rsp)
 3251      06000000 
 3251      000000
 3252 0f93 C7842450 		movl	$0x00000000, 2128(%rsp)
 3252      08000000 
 3252      000000
 3253 0f9e C7842454 		movl	$0, 2132(%rsp)
 3253      08000000 
 3253      000000
 3254 0fa9 C7842458 		movl	$0, 2136(%rsp)
 3254      08000000 
 3254      000000
 3255 0fb4 C784245C 		movl	$0, 2140(%rsp)
 3255      08000000 
 3255      000000
 3256 0fbf C7842460 		movl	$0x00000000, 2144(%rsp)
 3256      08000000 
 3256      000000
 3257 0fca C6442444 		movb	$0, 68(%rsp)
 3257      00
 3258 0fcf C6842444 		movb	$0, 324(%rsp)
 3258      01000000 
 3259 0fd7 C6842448 		movb	$0, 584(%rsp)
 3259      02000000 
 3260 0fdf C684244C 		movb	$0, 844(%rsp)
 3260      03000000 
 3261 0fe7 C684244C 		movb	$0, 1100(%rsp)
 3261      04000000 
 3262 0fef C684244C 		movb	$0, 1356(%rsp)
 3262      05000000 
 3263 0ff7 C6842450 		movb	$0, 1616(%rsp)
 3263      06000000 
 3264 0fff C6842450 		movb	$0, 1872(%rsp)
 3264      07000000 
 3265              	.LEHB61:
 3266 1007 E8000000 		call	_ZN8UnitTest8TestListC1Ev
 3266      00
 3267              	.LEHE61:
 3268 100c 488D7C24 		leaq	32(%rsp), %rdi
 3268      20
 3269 1011 4889DE   		movq	%rbx, %rsi
 3270 1014 48899C24 		movq	%rbx, 2168(%rsp)
 3270      78080000 
 3271              	.LEHB62:
 3272 101c E84FFBFF 		call	_ZN8UnitTest11ExecuteTestIN12_GLOBAL__N_154TestRunnerFixtureSlowTestWithTimeExemptionPassesHe
 3272      FF
 3273              	.LEHE62:
 3274 1021 488D7C24 		leaq	56(%rsp), %rdi
 3274      38
 3275 1026 48C74424 		movq	$_ZTV17RecordingReporter+16, 56(%rsp)
 3275      38000000 
 3275      00
 3276              	.LEHB63:
 3277 102f E8000000 		call	_ZN8UnitTest12TestReporterD2Ev
 3277      00
 3278              	.LEHE63:
 3279 1034 488D7C24 		leaq	32(%rsp), %rdi
 3279      20
 3280              	.LEHB64:
 3281 1039 E8000000 		call	_ZN8UnitTest10TestRunnerD1Ev
 3281      00
 3282              	.LEHE64:
 3283              	.L275:
 3284 103e 488B8424 		movq	2184(%rsp), %rax
 3284      88080000 
 3285 1046 64483304 		xorq	%fs:40, %rax
 3285      25280000 
 3285      00
 3286 104f 750E     		jne	.L314
 3287 1051 4881C498 		addq	$2200, %rsp
 3287      080000
 3288              		.cfi_remember_state
 3289              		.cfi_def_cfa_offset 40
 3290 1058 5B       		popq	%rbx
 3291              		.cfi_def_cfa_offset 32
 3292 1059 5D       		popq	%rbp
 3293              		.cfi_def_cfa_offset 24
 3294 105a 415C     		popq	%r12
 3295              		.cfi_def_cfa_offset 16
 3296 105c 415D     		popq	%r13
 3297              		.cfi_def_cfa_offset 8
 3298 105e C3       		ret
 3299              	.L314:
 3300              		.cfi_restore_state
 3301 105f E8000000 		call	__stack_chk_fail
 3301      00
 3302              	.L296:
 3303 1064 4889C7   		movq	%rax, %rdi
 3304 1067 41BC0100 		movl	$1, %r12d
 3304      0000
 3305              	.L278:
 3306 106d 4883FA01 		cmpq	$1, %rdx
 3307 1071 0F844501 		je	.L287
 3307      0000
 3308 1077 4883FA02 		cmpq	$2, %rdx
 3309 107b 0F85FE00 		jne	.L315
 3309      0000
 3310 1081 E8000000 		call	__cxa_begin_catch
 3310      00
 3311 1086 488D7C24 		leaq	32(%rsp), %rdi
 3311      20
 3312 108b 4889C5   		movq	%rax, %rbp
 3313              	.LEHB65:
 3314 108e E8000000 		call	_ZN8UnitTest15MemoryOutStreamC1Ev
 3314      00
 3315              	.LEHE65:
 3316 1093 488B4500 		movq	0(%rbp), %rax
 3317 1097 4889EF   		movq	%rbp, %rdi
 3318 109a FF5010   		call	*16(%rax)
 3319 109d 488D7C24 		leaq	32(%rsp), %rdi
 3319      20
 3320 10a2 BA150000 		movl	$21, %edx
 3320      00
 3321 10a7 BE000000 		movl	$.LC69, %esi
 3321      00
 3322 10ac 4889C5   		movq	%rax, %rbp
 3323              	.LEHB66:
 3324 10af E8000000 		call	_ZSt16__ostream_insertIcSt11char_traitsIcEERSt13basic_ostreamIT_T0_ES6_PKS3_l
 3324      00
 3325 10b4 488D7C24 		leaq	32(%rsp), %rdi
 3325      20
 3326 10b9 4889EE   		movq	%rbp, %rsi
 3327 10bc E8000000 		call	_ZStlsISt11char_traitsIcEERSt13basic_ostreamIcT_ES5_PKc
 3327      00
 3328 10c1 488D7C24 		leaq	32(%rsp), %rdi
 3328      20
 3329 10c6 E8000000 		call	_ZNK8UnitTest15MemoryOutStream7GetTextEv
 3329      00
 3330 10cb 4889C5   		movq	%rax, %rbp
 3331 10ce E8000000 		call	_ZN8UnitTest11CurrentTest7ResultsEv
 3331      00
 3332 10d3 488B38   		movq	(%rax), %rdi
 3333 10d6 4889EA   		movq	%rbp, %rdx
 3334 10d9 4889DE   		movq	%rbx, %rsi
 3335 10dc E8000000 		call	_ZN8UnitTest11TestResults13OnTestFailureERKNS_11TestDetailsEPKc
 3335      00
 3336              	.LEHE66:
 3337 10e1 488D7C24 		leaq	32(%rsp), %rdi
 3337      20
 3338              	.LEHB67:
 3339 10e6 E8000000 		call	_ZN8UnitTest15MemoryOutStreamD1Ev
 3339      00
 3340              	.LEHE67:
 3341              	.L309:
 3342 10eb E8000000 		call	__cxa_end_catch
 3342      00
 3343 10f0 E949FFFF 		jmp	.L275
 3343      FF
 3344              	.L303:
 3345 10f5 488D7C24 		leaq	32(%rsp), %rdi
 3345      20
 3346 10fa 4989D4   		movq	%rdx, %r12
 3347 10fd 4989C5   		movq	%rax, %r13
 3348 1100 E8000000 		call	_ZN8UnitTest10TestRunnerD1Ev
 3348      00
 3349 1105 4C89E2   		movq	%r12, %rdx
 3350 1108 4C89EF   		movq	%r13, %rdi
 3351 110b 41BC0100 		movl	$1, %r12d
 3351      0000
 3352 1111 E957FFFF 		jmp	.L278
 3352      FF
 3353              	.L297:
 3354 1116 488D7C24 		leaq	32(%rsp), %rdi
 3354      20
 3355 111b 4989D4   		movq	%rdx, %r12
 3356 111e 4989C5   		movq	%rax, %r13
 3357 1121 E8000000 		call	_ZN12_GLOBAL__N_111FixtureBaseD2Ev
 3357      00
 3358 1126 4C89E2   		movq	%r12, %rdx
 3359 1129 4C89EF   		movq	%r13, %rdi
 3360 112c 41BC0100 		movl	$1, %r12d
 3360      0000
 3361 1132 E936FFFF 		jmp	.L278
 3361      FF
 3362              	.L302:
 3363 1137 488D7C24 		leaq	32(%rsp), %rdi
 3363      20
 3364 113c 4989D4   		movq	%rdx, %r12
 3365 113f 4989C5   		movq	%rax, %r13
 3366 1142 E8000000 		call	_ZN12_GLOBAL__N_111FixtureBaseD2Ev
 3366      00
 3367 1147 4C89E2   		movq	%r12, %rdx
 3368 114a 4C89EF   		movq	%r13, %rdi
 3369 114d 4531E4   		xorl	%r12d, %r12d
 3370 1150 E918FFFF 		jmp	.L278
 3370      FF
 3371              	.L304:
 3372 1155 4889C7   		movq	%rax, %rdi
 3373 1158 4531E4   		xorl	%r12d, %r12d
 3374 115b E90DFFFF 		jmp	.L278
 3374      FF
 3375              	.L300:
 3376 1160 488D7C24 		leaq	32(%rsp), %rdi
 3376      20
 3377 1165 4889C3   		movq	%rax, %rbx
 3378 1168 E8000000 		call	_ZN8UnitTest15MemoryOutStreamD1Ev
 3378      00
 3379              	.L293:
 3380 116d E8000000 		call	__cxa_end_catch
 3380      00
 3381 1172 4889DF   		movq	%rbx, %rdi
 3382              	.LEHB68:
 3383 1175 E8000000 		call	_Unwind_Resume
 3383      00
 3384              	.LEHE68:
 3385              	.L299:
 3386              	.L310:
 3387 117a 4889C3   		movq	%rax, %rbx
 3388 117d EBEE     		jmp	.L293
 3389              	.L315:
 3390 117f E8000000 		call	__cxa_begin_catch
 3390      00
 3391 1184 4584E4   		testb	%r12b, %r12b
 3392 1187 BACD0000 		movl	$205, %edx
 3392      00
 3393 118c 4889DE   		movq	%rbx, %rsi
 3394 118f 4889E7   		movq	%rsp, %rdi
 3395 1192 0F848900 		je	.L289
 3395      0000
 3396              	.LEHB69:
 3397 1198 E8000000 		call	_ZN8UnitTest11TestDetailsC1ERKS0_i
 3397      00
 3398 119d E8000000 		call	_ZN8UnitTest11CurrentTest7ResultsEv
 3398      00
 3399 11a2 488B38   		movq	(%rax), %rdi
 3400 11a5 BA000000 		movl	$.LC73, %edx
 3400      00
 3401 11aa 4889E6   		movq	%rsp, %rsi
 3402 11ad E8000000 		call	_ZN8UnitTest11TestResults13OnTestFailureERKNS_11TestDetailsEPKc
 3402      00
 3403              	.LEHE69:
 3404              	.L290:
 3405              	.LEHB70:
 3406 11b2 E8000000 		call	__cxa_end_catch
 3406      00
 3407              	.LEHE70:
 3408 11b7 E982FEFF 		jmp	.L275
 3408      FF
 3409              	.L287:
 3410 11bc E8000000 		call	__cxa_begin_catch
 3410      00
 3411 11c1 4889C3   		movq	%rax, %rbx
 3412 11c4 488B00   		movq	(%rax), %rax
 3413 11c7 4889DF   		movq	%rbx, %rdi
 3414 11ca FF5010   		call	*16(%rax)
 3415 11cd 4889DF   		movq	%rbx, %rdi
 3416 11d0 4989C4   		movq	%rax, %r12
 3417              	.LEHB71:
 3418 11d3 E8000000 		call	_ZNK8UnitTest15AssertException10LineNumberEv
 3418      00
 3419 11d8 4889DF   		movq	%rbx, %rdi
 3420 11db 4189C5   		movl	%eax, %r13d
 3421 11de E8000000 		call	_ZNK8UnitTest15AssertException8FilenameEv
 3421      00
 3422 11e3 488B5508 		movq	8(%rbp), %rdx
 3423 11e7 488B7510 		movq	16(%rbp), %rsi
 3424 11eb 4589E8   		movl	%r13d, %r8d
 3425 11ee 4889C1   		movq	%rax, %rcx
 3426 11f1 4889E7   		movq	%rsp, %rdi
 3427 11f4 E8000000 		call	_ZN8UnitTest11TestDetailsC1EPKcS2_S2_i
 3427      00
 3428 11f9 E8000000 		call	_ZN8UnitTest11CurrentTest7ResultsEv
 3428      00
 3429 11fe 488B38   		movq	(%rax), %rdi
 3430 1201 4C89E2   		movq	%r12, %rdx
 3431 1204 4889E6   		movq	%rsp, %rsi
 3432 1207 E8000000 		call	_ZN8UnitTest11TestResults13OnTestFailureERKNS_11TestDetailsEPKc
 3432      00
 3433              	.LEHE71:
 3434 120c E9DAFEFF 		jmp	.L309
 3434      FF
 3435              	.L301:
 3436 1211 4889C3   		movq	%rax, %rbx
 3437 1214 E8000000 		call	__cxa_end_catch
 3437      00
 3438 1219 4889DF   		movq	%rbx, %rdi
 3439              	.LEHB72:
 3440 121c E8000000 		call	_Unwind_Resume
 3440      00
 3441              	.LEHE72:
 3442              	.L289:
 3443              	.LEHB73:
 3444 1221 E8000000 		call	_ZN8UnitTest11TestDetailsC1ERKS0_i
 3444      00
 3445 1226 E8000000 		call	_ZN8UnitTest11CurrentTest7ResultsEv
 3445      00
 3446 122b 488B38   		movq	(%rax), %rdi
 3447 122e BA000000 		movl	$.LC74, %edx
 3447      00
 3448 1233 4889E6   		movq	%rsp, %rsi
 3449 1236 E8000000 		call	_ZN8UnitTest11TestResults13OnTestFailureERKNS_11TestDetailsEPKc
 3449      00
 3450              	.LEHE73:
 3451 123b E972FFFF 		jmp	.L290
 3451      FF
 3452              	.L298:
 3453 1240 E935FFFF 		jmp	.L310
 3453      FF
 3454              		.cfi_endproc
 3455              	.LFE1295:
 3456              		.section	.gcc_except_table
 3457              		.align 4
 3458              	.LLSDA1295:
 3459 01a8 FF       		.byte	0xff
 3460 01a9 03       		.byte	0x3
 3461 01aa 69       		.uleb128 .LLSDATT1295-.LLSDATTD1295
 3462              	.LLSDATTD1295:
 3463 01ab 01       		.byte	0x1
 3464 01ac 50       		.uleb128 .LLSDACSE1295-.LLSDACSB1295
 3465              	.LLSDACSB1295:
 3466 01ad 34       		.uleb128 .LEHB60-.LFB1295
 3467 01ae 05       		.uleb128 .LEHE60-.LEHB60
 3468 01af B504     		.uleb128 .L304-.LFB1295
 3469 01b1 05       		.uleb128 0x5
 3470 01b2 E701     		.uleb128 .LEHB61-.LFB1295
 3471 01b4 05       		.uleb128 .LEHE61-.LEHB61
 3472 01b5 9704     		.uleb128 .L302-.LFB1295
 3473 01b7 07       		.uleb128 0x7
 3474 01b8 FC01     		.uleb128 .LEHB62-.LFB1295
 3475 01ba 05       		.uleb128 .LEHE62-.LEHB62
 3476 01bb F603     		.uleb128 .L297-.LFB1295
 3477 01bd 07       		.uleb128 0x7
 3478 01be 8F02     		.uleb128 .LEHB63-.LFB1295
 3479 01c0 05       		.uleb128 .LEHE63-.LEHB63
 3480 01c1 D503     		.uleb128 .L303-.LFB1295
 3481 01c3 07       		.uleb128 0x7
 3482 01c4 9902     		.uleb128 .LEHB64-.LFB1295
 3483 01c6 05       		.uleb128 .LEHE64-.LEHB64
 3484 01c7 C402     		.uleb128 .L296-.LFB1295
 3485 01c9 05       		.uleb128 0x5
 3486 01ca EE02     		.uleb128 .LEHB65-.LFB1295
 3487 01cc 05       		.uleb128 .LEHE65-.LEHB65
 3488 01cd DA04     		.uleb128 .L299-.LFB1295
 3489 01cf 00       		.uleb128 0
 3490 01d0 8F03     		.uleb128 .LEHB66-.LFB1295
 3491 01d2 32       		.uleb128 .LEHE66-.LEHB66
 3492 01d3 C004     		.uleb128 .L300-.LFB1295
 3493 01d5 00       		.uleb128 0
 3494 01d6 C603     		.uleb128 .LEHB67-.LFB1295
 3495 01d8 05       		.uleb128 .LEHE67-.LEHB67
 3496 01d9 DA04     		.uleb128 .L299-.LFB1295
 3497 01db 00       		.uleb128 0
 3498 01dc D504     		.uleb128 .LEHB68-.LFB1295
 3499 01de 05       		.uleb128 .LEHE68-.LEHB68
 3500 01df 00       		.uleb128 0
 3501 01e0 00       		.uleb128 0
 3502 01e1 F804     		.uleb128 .LEHB69-.LFB1295
 3503 01e3 1A       		.uleb128 .LEHE69-.LEHB69
 3504 01e4 F105     		.uleb128 .L301-.LFB1295
 3505 01e6 00       		.uleb128 0
 3506 01e7 9205     		.uleb128 .LEHB70-.LFB1295
 3507 01e9 05       		.uleb128 .LEHE70-.LEHB70
 3508 01ea 00       		.uleb128 0
 3509 01eb 00       		.uleb128 0
 3510 01ec B305     		.uleb128 .LEHB71-.LFB1295
 3511 01ee 39       		.uleb128 .LEHE71-.LEHB71
 3512 01ef A006     		.uleb128 .L298-.LFB1295
 3513 01f1 00       		.uleb128 0
 3514 01f2 FC05     		.uleb128 .LEHB72-.LFB1295
 3515 01f4 05       		.uleb128 .LEHE72-.LEHB72
 3516 01f5 00       		.uleb128 0
 3517 01f6 00       		.uleb128 0
 3518 01f7 8106     		.uleb128 .LEHB73-.LFB1295
 3519 01f9 1A       		.uleb128 .LEHE73-.LEHB73
 3520 01fa F105     		.uleb128 .L301-.LFB1295
 3521 01fc 00       		.uleb128 0
 3522              	.LLSDACSE1295:
 3523 01fd 03       		.byte	0x3
 3524 01fe 00       		.byte	0
 3525 01ff 02       		.byte	0x2
 3526 0200 7D       		.byte	0x7d
 3527 0201 01       		.byte	0x1
 3528 0202 7D       		.byte	0x7d
 3529 0203 00       		.byte	0
 3530 0204 7D       		.byte	0x7d
 3531 0205 000000   		.align 4
 3532 0208 00000000 		.long	0
 3533              	
 3534 020c 00000000 		.long	_ZTISt9exception
 3535 0210 00000000 		.long	_ZTIN8UnitTest15AssertExceptionE
 3536              	.LLSDATT1295:
 3537              		.text
 3539              		.section	.text.unlikely
 3540              	.LCOLDE84:
 3541              		.text
 3542              	.LHOTE84:
 3543              		.section	.rodata.str1.8
 3544              		.align 8
 3545              	.LC85:
 3546 0198 73747273 		.string	"strstr(test.m_details.filename, reporter.lastFailedFile)"
 3546      74722874 
 3546      6573742E 
 3546      6D5F6465 
 3546      7461696C 
 3547              		.section	.rodata.str1.1
 3548              	.LC86:
 3549 0099 476C6F62 		.string	"Global time constraint failed"
 3549      616C2074 
 3549      696D6520 
 3549      636F6E73 
 3549      74726169 
 3550              		.section	.rodata.str1.8
 3551 01d1 00000000 		.align 8
 3551      000000
 3552              	.LC87:
 3553 01d8 73747273 		.string	"strstr(reporter.lastFailedMessage, \"Global time constraint failed\")"
 3553      74722872 
 3553      65706F72 
 3553      7465722E 
 3553      6C617374 
 3554              		.section	.rodata.str1.1
 3555              	.LC88:
 3556 00b7 336D7300 		.string	"3ms"
 3557              		.section	.rodata.str1.8
 3558 021c 00000000 		.align 8
 3559              	.LC89:
 3560 0220 73747273 		.string	"strstr(reporter.lastFailedMessage, \"3ms\")"
 3560      74722872 
 3560      65706F72 
 3560      7465722E 
 3560      6C617374 
 3561 024a 00000000 		.align 8
 3561      0000
 3562              	.LC90:
 3563 0250 556E6861 		.string	"Unhandled exception in CHECK_EQUAL(test.m_details.testName, reporter.lastFailedTest)"
 3563      6E646C65 
 3563      64206578 
 3563      63657074 
 3563      696F6E20 
 3564 02a5 000000   		.align 8
 3565              	.LC91:
 3566 02a8 556E6861 		.string	"Unhandled exception in CHECK(strstr(test.m_details.filename, reporter.lastFailedFile))"
 3566      6E646C65 
 3566      64206578 
 3566      63657074 
 3566      696F6E20 
 3567 02ff 00       		.align 8
 3568              	.LC92:
 3569 0300 556E6861 		.string	"Unhandled exception in CHECK_EQUAL(test.m_details.lineNumber, reporter.lastFailedLine)"
 3569      6E646C65 
 3569      64206578 
 3569      63657074 
 3569      696F6E20 
 3570 0357 00       		.align 8
 3571              	.LC93:
 3572 0358 556E6861 		.string	"Unhandled exception in CHECK(strstr(reporter.lastFailedMessage, \"Global time constraint 
 3572      6E646C65 
 3572      64206578 
 3572      63657074 
 3572      696F6E20 
 3573 03ba 00000000 		.align 8
 3573      0000
 3574              	.LC94:
 3575 03c0 556E6861 		.string	"Unhandled exception in CHECK(strstr(reporter.lastFailedMessage, \"3ms\"))"
 3575      6E646C65 
 3575      64206578 
 3575      63657074 
 3575      696F6E20 
 3576              		.section	.text.unlikely
 3577              	.LCOLDB95:
 3578              		.text
 3579              	.LHOTB95:
 3580 1245 90662E0F 		.p2align 4,,15
 3580      1F840000 
 3580      000000
 3582              	_ZN8UnitTest11ExecuteTestIN12_GLOBAL__N_159TestRunnerFixtureSlowTestHasCorrectFailureInformationHel
 3583              	.LFB1587:
 3584              		.cfi_startproc
 3585              		.cfi_personality 0x3,__gxx_personality_v0
 3586              		.cfi_lsda 0x3,.LLSDA1587
 3587 1250 4155     		pushq	%r13
 3588              		.cfi_def_cfa_offset 16
 3589              		.cfi_offset 13, -16
 3590 1252 4154     		pushq	%r12
 3591              		.cfi_def_cfa_offset 24
 3592              		.cfi_offset 12, -24
 3593 1254 55       		pushq	%rbp
 3594              		.cfi_def_cfa_offset 32
 3595              		.cfi_offset 6, -32
 3596 1255 53       		pushq	%rbx
 3597              		.cfi_def_cfa_offset 40
 3598              		.cfi_offset 3, -40
 3599 1256 4889F3   		movq	%rsi, %rbx
 3600 1259 4881ECC8 		subq	$1992, %rsp
 3600      070000
 3601              		.cfi_def_cfa_offset 2032
 3602 1260 48893C24 		movq	%rdi, (%rsp)
 3603 1264 48897424 		movq	%rsi, 8(%rsp)
 3603      08
 3604 1269 64488B04 		movq	%fs:40, %rax
 3604      25280000 
 3604      00
 3605 1272 48898424 		movq	%rax, 1976(%rsp)
 3605      B8070000 
 3606 127a 31C0     		xorl	%eax, %eax
 3607              	.LEHB74:
 3608 127c E8000000 		call	_ZN8UnitTest11CurrentTest7DetailsEv
 3608      00
 3609              	.LEHE74:
 3610 1281 488DBC24 		leaq	848(%rsp), %rdi
 3610      50030000 
 3611 1289 488918   		movq	%rbx, (%rax)
 3612              	.LEHB75:
 3613 128c E8000000 		call	_ZN8UnitTest16SignalTranslatorC1Ev
 3613      00
 3614              	.LEHE75:
 3615 1291 488B3D00 		movq	_ZN8UnitTest16SignalTranslator12s_jumpTargetE(%rip), %rdi
 3615      000000
 3616 1298 BE010000 		movl	$1, %esi
 3616      00
 3617 129d E8000000 		call	__sigsetjmp
 3617      00
 3618 12a2 85C0     		testl	%eax, %eax
 3619 12a4 742A     		je	.L378
 3620 12a6 BF080000 		movl	$8, %edi
 3620      00
 3621 12ab E8000000 		call	__cxa_allocate_exception
 3621      00
 3622 12b0 31D2     		xorl	%edx, %edx
 3623 12b2 48C70000 		movq	$.LC61, (%rax)
 3623      000000
 3624 12b9 BE000000 		movl	$_ZTIPKc, %esi
 3624      00
 3625 12be 4889C7   		movq	%rax, %rdi
 3626              	.LEHB76:
 3627 12c1 E8000000 		call	__cxa_throw
 3627      00
 3628 12c6 662E0F1F 		.p2align 4,,10
 3628      84000000 
 3628      0000
 3629              		.p2align 3
 3630              	.L378:
 3631 12d0 488DBC24 		leaq	368(%rsp), %rdi
 3631      70010000 
 3632 12d8 41B87B00 		movl	$123, %r8d
 3632      0000
 3633 12de B9000000 		movl	$.LC62, %ecx
 3633      00
 3634 12e3 BA000000 		movl	$.LC63, %edx
 3634      00
 3635 12e8 BE000000 		movl	$.LC64, %esi
 3635      00
 3636 12ed E8000000 		call	_ZN8UnitTest4TestC2EPKcS2_S2_i
 3636      00
 3637              	.LEHE76:
 3638 12f2 488B2C24 		movq	(%rsp), %rbp
 3639 12f6 488DB424 		leaq	368(%rsp), %rsi
 3639      70010000 
 3640 12fe 48C78424 		movq	$_ZTVN12_GLOBAL__N_18SlowTestE+16, 368(%rsp)
 3640      70010000 
 3640      00000000 
 3641 130a 488D9D48 		leaq	2120(%rbp), %rbx
 3641      080000
 3642 1311 4889DF   		movq	%rbx, %rdi
 3643              	.LEHB77:
 3644 1314 E8000000 		call	_ZN8UnitTest8TestList3AddEPNS_4TestE
 3644      00
 3645 1319 E8000000 		call	_ZN8UnitTest11CurrentTest7ResultsEv
 3645      00
 3646 131e 4C8B20   		movq	(%rax), %r12
 3647 1321 E8000000 		call	_ZN8UnitTest11CurrentTest7DetailsEv
 3647      00
 3648 1326 4889DF   		movq	%rbx, %rdi
 3649 1329 4C8B28   		movq	(%rax), %r13
 3650 132c E8000000 		call	_ZNK8UnitTest8TestList7GetHeadEv
 3650      00
 3651 1331 4885C0   		testq	%rax, %rax
 3652 1334 4889C3   		movq	%rax, %rbx
 3653 1337 7439     		je	.L322
 3654 1339 0F1F8000 		.p2align 4,,10
 3654      000000
 3655              		.p2align 3
 3656              	.L377:
 3657 1340 31D2     		xorl	%edx, %edx
 3658 1342 4889DE   		movq	%rbx, %rsi
 3659 1345 4889EF   		movq	%rbp, %rdi
 3660 1348 E8000000 		call	_ZNK8UnitTest10TestRunner13IsTestInSuiteEPKNS_4TestEPKc
 3660      00
 3661 134d 84C0     		testb	%al, %al
 3662 134f 7418     		je	.L358
 3663 1351 488B0424 		movq	(%rsp), %rax
 3664 1355 B9030000 		movl	$3, %ecx
 3664      00
 3665 135a 4889DA   		movq	%rbx, %rdx
 3666 135d 4889EF   		movq	%rbp, %rdi
 3667 1360 488B7008 		movq	8(%rax), %rsi
 3668 1364 E8000000 		call	_ZNK8UnitTest10TestRunner7RunTestEPNS_11TestResultsEPNS_4TestEi
 3668      00
 3669              	.L358:
 3670 1369 488B5B28 		movq	40(%rbx), %rbx
 3671 136d 4885DB   		testq	%rbx, %rbx
 3672 1370 75CE     		jne	.L377
 3673              	.L322:
 3674 1372 488B3C24 		movq	(%rsp), %rdi
 3675 1376 E8000000 		call	_ZNK8UnitTest10TestRunner6FinishEv
 3675      00
 3676 137b E8000000 		call	_ZN8UnitTest11CurrentTest7ResultsEv
 3676      00
 3677 1380 4C8920   		movq	%r12, (%rax)
 3678 1383 E8000000 		call	_ZN8UnitTest11CurrentTest7DetailsEv
 3678      00
 3679              	.LEHE77:
 3680 1388 4C8928   		movq	%r13, (%rax)
 3681              	.LEHB78:
 3682 138b E8000000 		call	_ZN8UnitTest11CurrentTest7DetailsEv
 3682      00
 3683 1390 488B30   		movq	(%rax), %rsi
 3684 1393 488DBC24 		leaq	336(%rsp), %rdi
 3684      50010000 
 3685 139b BAC50000 		movl	$197, %edx
 3685      00
 3686 13a0 E8000000 		call	_ZN8UnitTest11TestDetailsC1ERKS0_i
 3686      00
 3687 13a5 488B0424 		movq	(%rsp), %rax
 3688 13a9 488B9C24 		movq	384(%rsp), %rbx
 3688      80010000 
 3689 13b1 488DA82C 		leaq	1068(%rax), %rbp
 3689      040000
 3690 13b8 E8000000 		call	_ZN8UnitTest11CurrentTest7ResultsEv
 3690      00
 3691 13bd 488B38   		movq	(%rax), %rdi
 3692 13c0 488D8C24 		leaq	336(%rsp), %rcx
 3692      50010000 
 3693 13c8 4889EA   		movq	%rbp, %rdx
 3694 13cb 4889DE   		movq	%rbx, %rsi
 3695 13ce E8000000 		call	_ZN8UnitTest10CheckEqualERNS_11TestResultsEPKcPcRKNS_11TestDetailsE
 3695      00
 3696              	.LEHE78:
 3697              	.L332:
 3698 13d3 488B0424 		movq	(%rsp), %rax
 3699 13d7 488BBC24 		movq	392(%rsp), %rdi
 3699      88010000 
 3700 13df 488DB028 		leaq	552(%rax), %rsi
 3700      020000
 3701 13e6 E8000000 		call	strstr
 3701      00
 3702 13eb 4885C0   		testq	%rax, %rax
 3703 13ee 0F840401 		je	.L386
 3703      0000
 3704              	.L325:
 3705              	.LEHB79:
 3706 13f4 E8000000 		call	_ZN8UnitTest11CurrentTest7DetailsEv
 3706      00
 3707 13f9 488B30   		movq	(%rax), %rsi
 3708 13fc 488DBC24 		leaq	208(%rsp), %rdi
 3708      D0000000 
 3709 1404 BAC70000 		movl	$199, %edx
 3709      00
 3710 1409 E8000000 		call	_ZN8UnitTest11TestDetailsC1ERKS0_i
 3710      00
 3711 140e 488B0424 		movq	(%rsp), %rax
 3712 1412 488D9828 		leaq	808(%rax), %rbx
 3712      030000
 3713 1419 E8000000 		call	_ZN8UnitTest11CurrentTest7ResultsEv
 3713      00
 3714 141e 488B38   		movq	(%rax), %rdi
 3715 1421 488D8C24 		leaq	208(%rsp), %rcx
 3715      D0000000 
 3716 1429 488DB424 		leaq	400(%rsp), %rsi
 3716      90010000 
 3717 1431 4889DA   		movq	%rbx, %rdx
 3718 1434 E8000000 		call	_ZN8UnitTest10CheckEqualIiiEEvRNS_11TestResultsERKT_RKT0_RKNS_11TestDetailsE
 3718      00
 3719              	.LEHE79:
 3720              	.L339:
 3721 1439 488B1C24 		movq	(%rsp), %rbx
 3722 143d BE000000 		movl	$.LC86, %esi
 3722      00
 3723 1442 4881C32C 		addq	$1324, %rbx
 3723      050000
 3724 1449 4889DF   		movq	%rbx, %rdi
 3725 144c E8000000 		call	strstr
 3725      00
 3726 1451 4885C0   		testq	%rax, %rax
 3727 1454 0F848E01 		je	.L387
 3727      0000
 3728              	.L327:
 3729 145a BE000000 		movl	$.LC88, %esi
 3729      00
 3730 145f 4889DF   		movq	%rbx, %rdi
 3731 1462 E8000000 		call	strstr
 3731      00
 3732 1467 4885C0   		testq	%rax, %rax
 3733 146a 7454     		je	.L388
 3734              	.L329:
 3735 146c 488DBC24 		leaq	368(%rsp), %rdi
 3735      70010000 
 3736 1474 48C78424 		movq	$_ZTVN12_GLOBAL__N_18SlowTestE+16, 368(%rsp)
 3736      70010000 
 3736      00000000 
 3737              	.LEHB80:
 3738 1480 E8000000 		call	_ZN8UnitTest4TestD2Ev
 3738      00
 3739              	.LEHE80:
 3740 1485 488DBC24 		leaq	848(%rsp), %rdi
 3740      50030000 
 3741              	.LEHB81:
 3742 148d E8000000 		call	_ZN8UnitTest16SignalTranslatorD1Ev
 3742      00
 3743              	.LEHE81:
 3744              	.L316:
 3745 1492 488B8424 		movq	1976(%rsp), %rax
 3745      B8070000 
 3746 149a 64483304 		xorq	%fs:40, %rax
 3746      25280000 
 3746      00
 3747 14a3 0F85E202 		jne	.L389
 3747      0000
 3748 14a9 4881C4C8 		addq	$1992, %rsp
 3748      070000
 3749              		.cfi_remember_state
 3750              		.cfi_def_cfa_offset 40
 3751 14b0 5B       		popq	%rbx
 3752              		.cfi_def_cfa_offset 32
 3753 14b1 5D       		popq	%rbp
 3754              		.cfi_def_cfa_offset 24
 3755 14b2 415C     		popq	%r12
 3756              		.cfi_def_cfa_offset 16
 3757 14b4 415D     		popq	%r13
 3758              		.cfi_def_cfa_offset 8
 3759 14b6 C3       		ret
 3760 14b7 660F1F84 		.p2align 4,,10
 3760      00000000 
 3760      00
 3761              		.p2align 3
 3762              	.L388:
 3763              		.cfi_restore_state
 3764              	.LEHB82:
 3765 14c0 E8000000 		call	_ZN8UnitTest11CurrentTest7DetailsEv
 3765      00
 3766 14c5 488B30   		movq	(%rax), %rsi
 3767 14c8 488D7C24 		leaq	80(%rsp), %rdi
 3767      50
 3768 14cd BACA0000 		movl	$202, %edx
 3768      00
 3769 14d2 E8000000 		call	_ZN8UnitTest11TestDetailsC1ERKS0_i
 3769      00
 3770 14d7 E8000000 		call	_ZN8UnitTest11CurrentTest7ResultsEv
 3770      00
 3771 14dc 488B38   		movq	(%rax), %rdi
 3772 14df 488D7424 		leaq	80(%rsp), %rsi
 3772      50
 3773 14e4 BA000000 		movl	$.LC89, %edx
 3773      00
 3774 14e9 E8000000 		call	_ZN8UnitTest11TestResults13OnTestFailureERKNS_11TestDetailsEPKc
 3774      00
 3775              	.LEHE82:
 3776 14ee E979FFFF 		jmp	.L329
 3776      FF
 3777              		.p2align 4,,10
 3778 14f3 0F1F4400 		.p2align 3
 3778      00
 3779              	.L386:
 3780              	.LEHB83:
 3781 14f8 E8000000 		call	_ZN8UnitTest11CurrentTest7DetailsEv
 3781      00
 3782 14fd 488B30   		movq	(%rax), %rsi
 3783 1500 488DBC24 		leaq	272(%rsp), %rdi
 3783      10010000 
 3784 1508 BAC60000 		movl	$198, %edx
 3784      00
 3785 150d E8000000 		call	_ZN8UnitTest11TestDetailsC1ERKS0_i
 3785      00
 3786 1512 E8000000 		call	_ZN8UnitTest11CurrentTest7ResultsEv
 3786      00
 3787 1517 488B38   		movq	(%rax), %rdi
 3788 151a 488DB424 		leaq	272(%rsp), %rsi
 3788      10010000 
 3789 1522 BA000000 		movl	$.LC85, %edx
 3789      00
 3790 1527 E8000000 		call	_ZN8UnitTest11TestResults13OnTestFailureERKNS_11TestDetailsEPKc
 3790      00
 3791              	.LEHE83:
 3792 152c E9C3FEFF 		jmp	.L325
 3792      FF
 3793              	.L365:
 3794 1531 4889C3   		movq	%rax, %rbx
 3795 1534 4889D5   		movq	%rdx, %rbp
 3796              	.L347:
 3797 1537 488DBC24 		leaq	848(%rsp), %rdi
 3797      50030000 
 3798 153f E8000000 		call	_ZN8UnitTest16SignalTranslatorD1Ev
 3798      00
 3799 1544 4889DF   		movq	%rbx, %rdi
 3800 1547 4889EA   		movq	%rbp, %rdx
 3801              	.L348:
 3802 154a 4883FA01 		cmpq	$1, %rdx
 3803 154e 0F84E502 		je	.L350
 3803      0000
 3804 1554 4883FA02 		cmpq	$2, %rdx
 3805 1558 0F85B502 		jne	.L390
 3805      0000
 3806 155e E8000000 		call	__cxa_begin_catch
 3806      00
 3807 1563 488DBC24 		leaq	432(%rsp), %rdi
 3807      B0010000 
 3808 156b 4889C3   		movq	%rax, %rbx
 3809              	.LEHB84:
 3810 156e E8000000 		call	_ZN8UnitTest15MemoryOutStreamC1Ev
 3810      00
 3811              	.LEHE84:
 3812 1573 488B03   		movq	(%rbx), %rax
 3813 1576 4889DF   		movq	%rbx, %rdi
 3814 1579 FF5010   		call	*16(%rax)
 3815 157c 488DBC24 		leaq	432(%rsp), %rdi
 3815      B0010000 
 3816 1584 BA150000 		movl	$21, %edx
 3816      00
 3817 1589 BE000000 		movl	$.LC69, %esi
 3817      00
 3818 158e 4889C3   		movq	%rax, %rbx
 3819              	.LEHB85:
 3820 1591 E8000000 		call	_ZSt16__ostream_insertIcSt11char_traitsIcEERSt13basic_ostreamIT_T0_ES6_PKS3_l
 3820      00
 3821 1596 488DBC24 		leaq	432(%rsp), %rdi
 3821      B0010000 
 3822 159e 4889DE   		movq	%rbx, %rsi
 3823 15a1 E8000000 		call	_ZStlsISt11char_traitsIcEERSt13basic_ostreamIcT_ES5_PKc
 3823      00
 3824 15a6 488DBC24 		leaq	432(%rsp), %rdi
 3824      B0010000 
 3825 15ae E8000000 		call	_ZNK8UnitTest15MemoryOutStream7GetTextEv
 3825      00
 3826 15b3 4889C3   		movq	%rax, %rbx
 3827 15b6 E8000000 		call	_ZN8UnitTest11CurrentTest7ResultsEv
 3827      00
 3828 15bb 488B7424 		movq	8(%rsp), %rsi
 3828      08
 3829 15c0 488B38   		movq	(%rax), %rdi
 3830 15c3 4889DA   		movq	%rbx, %rdx
 3831 15c6 E8000000 		call	_ZN8UnitTest11TestResults13OnTestFailureERKNS_11TestDetailsEPKc
 3831      00
 3832              	.LEHE85:
 3833 15cb 488DBC24 		leaq	432(%rsp), %rdi
 3833      B0010000 
 3834              	.LEHB86:
 3835 15d3 E8000000 		call	_ZN8UnitTest15MemoryOutStreamD1Ev
 3835      00
 3836              	.LEHE86:
 3837              	.L382:
 3838 15d8 E8000000 		call	__cxa_end_catch
 3838      00
 3839 15dd E9B0FEFF 		jmp	.L316
 3839      FF
 3840              		.p2align 4,,10
 3841 15e2 660F1F44 		.p2align 3
 3841      0000
 3842              	.L387:
 3843              	.LEHB87:
 3844 15e8 E8000000 		call	_ZN8UnitTest11CurrentTest7DetailsEv
 3844      00
 3845 15ed 488B30   		movq	(%rax), %rsi
 3846 15f0 488DBC24 		leaq	144(%rsp), %rdi
 3846      90000000 
 3847 15f8 BAC90000 		movl	$201, %edx
 3847      00
 3848 15fd E8000000 		call	_ZN8UnitTest11TestDetailsC1ERKS0_i
 3848      00
 3849 1602 E8000000 		call	_ZN8UnitTest11CurrentTest7ResultsEv
 3849      00
 3850 1607 488B38   		movq	(%rax), %rdi
 3851 160a 488DB424 		leaq	144(%rsp), %rsi
 3851      90000000 
 3852 1612 BA000000 		movl	$.LC87, %edx
 3852      00
 3853 1617 E8000000 		call	_ZN8UnitTest11TestResults13OnTestFailureERKNS_11TestDetailsEPKc
 3853      00
 3854              	.LEHE87:
 3855 161c E939FEFF 		jmp	.L327
 3855      FF
 3856              	.L372:
 3857 1621 4889C7   		movq	%rax, %rdi
 3858 1624 E8000000 		call	__cxa_begin_catch
 3858      00
 3859              	.LEHB88:
 3860 1629 E8000000 		call	_ZN8UnitTest11CurrentTest7DetailsEv
 3860      00
 3861 162e 488B30   		movq	(%rax), %rsi
 3862 1631 488DBC24 		leaq	176(%rsp), %rdi
 3862      B0000000 
 3863 1639 BAC70000 		movl	$199, %edx
 3863      00
 3864 163e E8000000 		call	_ZN8UnitTest11TestDetailsC1ERKS0_i
 3864      00
 3865 1643 E8000000 		call	_ZN8UnitTest11CurrentTest7ResultsEv
 3865      00
 3866 1648 488B38   		movq	(%rax), %rdi
 3867 164b 488DB424 		leaq	176(%rsp), %rsi
 3867      B0000000 
 3868 1653 BA000000 		movl	$.LC92, %edx
 3868      00
 3869 1658 E8000000 		call	_ZN8UnitTest11TestResults13OnTestFailureERKNS_11TestDetailsEPKc
 3869      00
 3870              	.LEHE88:
 3871              	.LEHB89:
 3872 165d E8000000 		call	__cxa_end_catch
 3872      00
 3873              	.LEHE89:
 3874 1662 E9D2FDFF 		jmp	.L339
 3874      FF
 3875              	.L370:
 3876 1667 4889C7   		movq	%rax, %rdi
 3877 166a E8000000 		call	__cxa_begin_catch
 3877      00
 3878              	.LEHB90:
 3879 166f E8000000 		call	_ZN8UnitTest11CurrentTest7DetailsEv
 3879      00
 3880 1674 488B30   		movq	(%rax), %rsi
 3881 1677 488D7C24 		leaq	112(%rsp), %rdi
 3881      70
 3882 167c BAC90000 		movl	$201, %edx
 3882      00
 3883 1681 E8000000 		call	_ZN8UnitTest11TestDetailsC1ERKS0_i
 3883      00
 3884 1686 E8000000 		call	_ZN8UnitTest11CurrentTest7ResultsEv
 3884      00
 3885 168b 488B38   		movq	(%rax), %rdi
 3886 168e 488D7424 		leaq	112(%rsp), %rsi
 3886      70
 3887 1693 BA000000 		movl	$.LC93, %edx
 3887      00
 3888 1698 E8000000 		call	_ZN8UnitTest11TestResults13OnTestFailureERKNS_11TestDetailsEPKc
 3888      00
 3889              	.LEHE90:
 3890              	.LEHB91:
 3891 169d E8000000 		call	__cxa_end_catch
 3891      00
 3892              	.LEHE91:
 3893 16a2 E9B3FDFF 		jmp	.L327
 3893      FF
 3894              	.L371:
 3895 16a7 4889C3   		movq	%rax, %rbx
 3896 16aa 4889D5   		movq	%rdx, %rbp
 3897 16ad E8000000 		call	__cxa_end_catch
 3897      00
 3898              	.L334:
 3899 16b2 488DBC24 		leaq	368(%rsp), %rdi
 3899      70010000 
 3900 16ba 48C78424 		movq	$_ZTVN12_GLOBAL__N_18SlowTestE+16, 368(%rsp)
 3900      70010000 
 3900      00000000 
 3901 16c6 E8000000 		call	_ZN8UnitTest4TestD2Ev
 3901      00
 3902 16cb E967FEFF 		jmp	.L347
 3902      FF
 3903              	.L369:
 3904 16d0 4889C3   		movq	%rax, %rbx
 3905 16d3 4889D5   		movq	%rdx, %rbp
 3906 16d6 E8000000 		call	__cxa_end_catch
 3906      00
 3907 16db EBD5     		jmp	.L334
 3908              	.L374:
 3909 16dd 4889C7   		movq	%rax, %rdi
 3910 16e0 E8000000 		call	__cxa_begin_catch
 3910      00
 3911              	.LEHB92:
 3912 16e5 E8000000 		call	_ZN8UnitTest11CurrentTest7DetailsEv
 3912      00
 3913 16ea 488B30   		movq	(%rax), %rsi
 3914 16ed 488DBC24 		leaq	240(%rsp), %rdi
 3914      F0000000 
 3915 16f5 BAC60000 		movl	$198, %edx
 3915      00
 3916 16fa E8000000 		call	_ZN8UnitTest11TestDetailsC1ERKS0_i
 3916      00
 3917 16ff E8000000 		call	_ZN8UnitTest11CurrentTest7ResultsEv
 3917      00
 3918 1704 488B38   		movq	(%rax), %rdi
 3919 1707 488DB424 		leaq	240(%rsp), %rsi
 3919      F0000000 
 3920 170f BA000000 		movl	$.LC91, %edx
 3920      00
 3921 1714 E8000000 		call	_ZN8UnitTest11TestResults13OnTestFailureERKNS_11TestDetailsEPKc
 3921      00
 3922              	.LEHE92:
 3923              	.LEHB93:
 3924 1719 E8000000 		call	__cxa_end_catch
 3924      00
 3925              	.LEHE93:
 3926 171e E9D1FCFF 		jmp	.L325
 3926      FF
 3927              	.L368:
 3928 1723 4889C7   		movq	%rax, %rdi
 3929 1726 E8000000 		call	__cxa_begin_catch
 3929      00
 3930              	.LEHB94:
 3931 172b E8000000 		call	_ZN8UnitTest11CurrentTest7DetailsEv
 3931      00
 3932 1730 488B30   		movq	(%rax), %rsi
 3933 1733 488D7C24 		leaq	48(%rsp), %rdi
 3933      30
 3934 1738 BACA0000 		movl	$202, %edx
 3934      00
 3935 173d E8000000 		call	_ZN8UnitTest11TestDetailsC1ERKS0_i
 3935      00
 3936 1742 E8000000 		call	_ZN8UnitTest11CurrentTest7ResultsEv
 3936      00
 3937 1747 488B38   		movq	(%rax), %rdi
 3938 174a 488D7424 		leaq	48(%rsp), %rsi
 3938      30
 3939 174f BA000000 		movl	$.LC94, %edx
 3939      00
 3940 1754 E8000000 		call	_ZN8UnitTest11TestResults13OnTestFailureERKNS_11TestDetailsEPKc
 3940      00
 3941              	.LEHE94:
 3942              	.LEHB95:
 3943 1759 E8000000 		call	__cxa_end_catch
 3943      00
 3944              	.LEHE95:
 3945 175e E909FDFF 		jmp	.L329
 3945      FF
 3946              	.L373:
 3947 1763 4889C3   		movq	%rax, %rbx
 3948 1766 4889D5   		movq	%rdx, %rbp
 3949 1769 E8000000 		call	__cxa_end_catch
 3949      00
 3950 176e E93FFFFF 		jmp	.L334
 3950      FF
 3951              	.L367:
 3952 1773 4889C3   		movq	%rax, %rbx
 3953 1776 4889D5   		movq	%rdx, %rbp
 3954 1779 E8000000 		call	__cxa_end_catch
 3954      00
 3955 177e E92FFFFF 		jmp	.L334
 3955      FF
 3956              	.L364:
 3957 1783 4889C7   		movq	%rax, %rdi
 3958 1786 E9BFFDFF 		jmp	.L348
 3958      FF
 3959              	.L389:
 3960 178b E8000000 		call	__stack_chk_fail
 3960      00
 3961              	.L376:
 3962 1790 4889C7   		movq	%rax, %rdi
 3963 1793 E8000000 		call	__cxa_begin_catch
 3963      00
 3964              	.LEHB96:
 3965 1798 E8000000 		call	_ZN8UnitTest11CurrentTest7DetailsEv
 3965      00
 3966 179d 488B30   		movq	(%rax), %rsi
 3967 17a0 488DBC24 		leaq	304(%rsp), %rdi
 3967      30010000 
 3968 17a8 BAC50000 		movl	$197, %edx
 3968      00
 3969 17ad E8000000 		call	_ZN8UnitTest11TestDetailsC1ERKS0_i
 3969      00
 3970 17b2 E8000000 		call	_ZN8UnitTest11CurrentTest7ResultsEv
 3970      00
 3971 17b7 488B38   		movq	(%rax), %rdi
 3972 17ba 488DB424 		leaq	304(%rsp), %rsi
 3972      30010000 
 3973 17c2 BA000000 		movl	$.LC90, %edx
 3973      00
 3974 17c7 E8000000 		call	_ZN8UnitTest11TestResults13OnTestFailureERKNS_11TestDetailsEPKc
 3974      00
 3975              	.LEHE96:
 3976              	.LEHB97:
 3977 17cc E8000000 		call	__cxa_end_catch
 3977      00
 3978              	.LEHE97:
 3979 17d1 E9FDFBFF 		jmp	.L332
 3979      FF
 3980              	.L366:
 3981 17d6 4889C3   		movq	%rax, %rbx
 3982 17d9 4889D5   		movq	%rdx, %rbp
 3983 17dc E9D1FEFF 		jmp	.L334
 3983      FF
 3984              	.L375:
 3985 17e1 4889C3   		movq	%rax, %rbx
 3986 17e4 4889D5   		movq	%rdx, %rbp
 3987 17e7 E8000000 		call	__cxa_end_catch
 3987      00
 3988 17ec E9C1FEFF 		jmp	.L334
 3988      FF
 3989              	.L362:
 3990 17f1 488DBC24 		leaq	432(%rsp), %rdi
 3990      B0010000 
 3991 17f9 4889C3   		movq	%rax, %rbx
 3992 17fc E8000000 		call	_ZN8UnitTest15MemoryOutStreamD1Ev
 3992      00
 3993              	.L356:
 3994 1801 E8000000 		call	__cxa_end_catch
 3994      00
 3995 1806 4889DF   		movq	%rbx, %rdi
 3996              	.LEHB98:
 3997 1809 E8000000 		call	_Unwind_Resume
 3997      00
 3998              	.LEHE98:
 3999              	.L361:
 4000              	.L383:
 4001 180e 4889C3   		movq	%rax, %rbx
 4002 1811 EBEE     		jmp	.L356
 4003              	.L390:
 4004 1813 E8000000 		call	__cxa_begin_catch
 4004      00
 4005              	.LEHB99:
 4006 1818 E8000000 		call	_ZN8UnitTest11CurrentTest7ResultsEv
 4006      00
 4007 181d 488B7424 		movq	8(%rsp), %rsi
 4007      08
 4008 1822 488B38   		movq	(%rax), %rdi
 4009 1825 BA000000 		movl	$.LC70, %edx
 4009      00
 4010 182a E8000000 		call	_ZN8UnitTest11TestResults13OnTestFailureERKNS_11TestDetailsEPKc
 4010      00
 4011              	.LEHE99:
 4012              	.LEHB100:
 4013 182f E8000000 		call	__cxa_end_catch
 4013      00
 4014              	.LEHE100:
 4015 1834 E959FCFF 		jmp	.L316
 4015      FF
 4016              	.L350:
 4017 1839 E8000000 		call	__cxa_begin_catch
 4017      00
 4018 183e 4889C3   		movq	%rax, %rbx
 4019 1841 488B00   		movq	(%rax), %rax
 4020 1844 4889DF   		movq	%rbx, %rdi
 4021 1847 FF5010   		call	*16(%rax)
 4022 184a 4889DF   		movq	%rbx, %rdi
 4023 184d 4889C5   		movq	%rax, %rbp
 4024              	.LEHB101:
 4025 1850 E8000000 		call	_ZNK8UnitTest15AssertException10LineNumberEv
 4025      00
 4026 1855 4889DF   		movq	%rbx, %rdi
 4027 1858 4189C4   		movl	%eax, %r12d
 4028 185b E8000000 		call	_ZNK8UnitTest15AssertException8FilenameEv
 4028      00
 4029 1860 488B5424 		movq	8(%rsp), %rdx
 4029      08
 4030 1865 488D7C24 		leaq	16(%rsp), %rdi
 4030      10
 4031 186a 4589E0   		movl	%r12d, %r8d
 4032 186d 4889C1   		movq	%rax, %rcx
 4033 1870 488B7208 		movq	8(%rdx), %rsi
 4034 1874 488B12   		movq	(%rdx), %rdx
 4035 1877 E8000000 		call	_ZN8UnitTest11TestDetailsC1EPKcS2_S2_i
 4035      00
 4036 187c E8000000 		call	_ZN8UnitTest11CurrentTest7ResultsEv
 4036      00
 4037 1881 488B38   		movq	(%rax), %rdi
 4038 1884 488D7424 		leaq	16(%rsp), %rsi
 4038      10
 4039 1889 4889EA   		movq	%rbp, %rdx
 4040 188c E8000000 		call	_ZN8UnitTest11TestResults13OnTestFailureERKNS_11TestDetailsEPKc
 4040      00
 4041              	.LEHE101:
 4042 1891 E942FDFF 		jmp	.L382
 4042      FF
 4043              	.L360:
 4044 1896 4889C3   		movq	%rax, %rbx
 4045 1899 E8000000 		call	__cxa_end_catch
 4045      00
 4046 189e 4889DF   		movq	%rbx, %rdi
 4047              	.LEHB102:
 4048 18a1 E8000000 		call	_Unwind_Resume
 4048      00
 4049              	.LEHE102:
 4050              	.L363:
 4051 18a6 E963FFFF 		jmp	.L383
 4051      FF
 4052              		.cfi_endproc
 4053              	.LFE1587:
 4054              		.section	.gcc_except_table
 4055              		.align 4
 4056              	.LLSDA1587:
 4057 0214 FF       		.byte	0xff
 4058 0215 03       		.byte	0x3
 4059 0216 C001     		.uleb128 .LLSDATT1587-.LLSDATTD1587
 4060              	.LLSDATTD1587:
 4061 0218 01       		.byte	0x1
 4062 0219 A701     		.uleb128 .LLSDACSE1587-.LLSDACSB1587
 4063              	.LLSDACSB1587:
 4064 021b 2C       		.uleb128 .LEHB74-.LFB1587
 4065 021c 05       		.uleb128 .LEHE74-.LEHB74
 4066 021d 00       		.uleb128 0
 4067 021e 00       		.uleb128 0
 4068 021f 3C       		.uleb128 .LEHB75-.LFB1587
 4069 0220 05       		.uleb128 .LEHE75-.LEHB75
 4070 0221 B30A     		.uleb128 .L364-.LFB1587
 4071 0223 05       		.uleb128 0x5
 4072 0224 71       		.uleb128 .LEHB76-.LFB1587
 4073 0225 31       		.uleb128 .LEHE76-.LEHB76
 4074 0226 E105     		.uleb128 .L365-.LFB1587
 4075 0228 07       		.uleb128 0x7
 4076 0229 C401     		.uleb128 .LEHB77-.LFB1587
 4077 022b 74       		.uleb128 .LEHE77-.LEHB77
 4078 022c 860B     		.uleb128 .L366-.LFB1587
 4079 022e 07       		.uleb128 0x7
 4080 022f BB02     		.uleb128 .LEHB78-.LFB1587
 4081 0231 48       		.uleb128 .LEHE78-.LEHB78
 4082 0232 C00A     		.uleb128 .L376-.LFB1587
 4083 0234 01       		.uleb128 0x1
 4084 0235 A403     		.uleb128 .LEHB79-.LFB1587
 4085 0237 45       		.uleb128 .LEHE79-.LEHB79
 4086 0238 D107     		.uleb128 .L372-.LFB1587
 4087 023a 01       		.uleb128 0x1
 4088 023b B004     		.uleb128 .LEHB80-.LFB1587
 4089 023d 05       		.uleb128 .LEHE80-.LEHB80
 4090 023e E105     		.uleb128 .L365-.LFB1587
 4091 0240 07       		.uleb128 0x7
 4092 0241 BD04     		.uleb128 .LEHB81-.LFB1587
 4093 0243 05       		.uleb128 .LEHE81-.LEHB81
 4094 0244 B30A     		.uleb128 .L364-.LFB1587
 4095 0246 05       		.uleb128 0x5
 4096 0247 F004     		.uleb128 .LEHB82-.LFB1587
 4097 0249 2E       		.uleb128 .LEHE82-.LEHB82
 4098 024a D309     		.uleb128 .L368-.LFB1587
 4099 024c 01       		.uleb128 0x1
 4100 024d A805     		.uleb128 .LEHB83-.LFB1587
 4101 024f 34       		.uleb128 .LEHE83-.LEHB83
 4102 0250 8D09     		.uleb128 .L374-.LFB1587
 4103 0252 01       		.uleb128 0x1
 4104 0253 9E06     		.uleb128 .LEHB84-.LFB1587
 4105 0255 05       		.uleb128 .LEHE84-.LEHB84
 4106 0256 BE0B     		.uleb128 .L361-.LFB1587
 4107 0258 00       		.uleb128 0
 4108 0259 C106     		.uleb128 .LEHB85-.LFB1587
 4109 025b 3A       		.uleb128 .LEHE85-.LEHB85
 4110 025c A10B     		.uleb128 .L362-.LFB1587
 4111 025e 00       		.uleb128 0
 4112 025f 8307     		.uleb128 .LEHB86-.LFB1587
 4113 0261 05       		.uleb128 .LEHE86-.LEHB86
 4114 0262 BE0B     		.uleb128 .L361-.LFB1587
 4115 0264 00       		.uleb128 0
 4116 0265 9807     		.uleb128 .LEHB87-.LFB1587
 4117 0267 34       		.uleb128 .LEHE87-.LEHB87
 4118 0268 9708     		.uleb128 .L370-.LFB1587
 4119 026a 01       		.uleb128 0x1
 4120 026b D907     		.uleb128 .LEHB88-.LFB1587
 4121 026d 34       		.uleb128 .LEHE88-.LEHB88
 4122 026e D708     		.uleb128 .L371-.LFB1587
 4123 0270 07       		.uleb128 0x7
 4124 0271 8D08     		.uleb128 .LEHB89-.LFB1587
 4125 0273 05       		.uleb128 .LEHE89-.LEHB89
 4126 0274 860B     		.uleb128 .L366-.LFB1587
 4127 0276 07       		.uleb128 0x7
 4128 0277 9F08     		.uleb128 .LEHB90-.LFB1587
 4129 0279 2E       		.uleb128 .LEHE90-.LEHB90
 4130 027a 8009     		.uleb128 .L369-.LFB1587
 4131 027c 07       		.uleb128 0x7
 4132 027d CD08     		.uleb128 .LEHB91-.LFB1587
 4133 027f 05       		.uleb128 .LEHE91-.LEHB91
 4134 0280 860B     		.uleb128 .L366-.LFB1587
 4135 0282 07       		.uleb128 0x7
 4136 0283 9509     		.uleb128 .LEHB92-.LFB1587
 4137 0285 34       		.uleb128 .LEHE92-.LEHB92
 4138 0286 930A     		.uleb128 .L373-.LFB1587
 4139 0288 07       		.uleb128 0x7
 4140 0289 C909     		.uleb128 .LEHB93-.LFB1587
 4141 028b 05       		.uleb128 .LEHE93-.LEHB93
 4142 028c 860B     		.uleb128 .L366-.LFB1587
 4143 028e 07       		.uleb128 0x7
 4144 028f DB09     		.uleb128 .LEHB94-.LFB1587
 4145 0291 2E       		.uleb128 .LEHE94-.LEHB94
 4146 0292 A30A     		.uleb128 .L367-.LFB1587
 4147 0294 07       		.uleb128 0x7
 4148 0295 890A     		.uleb128 .LEHB95-.LFB1587
 4149 0297 05       		.uleb128 .LEHE95-.LEHB95
 4150 0298 860B     		.uleb128 .L366-.LFB1587
 4151 029a 07       		.uleb128 0x7
 4152 029b C80A     		.uleb128 .LEHB96-.LFB1587
 4153 029d 34       		.uleb128 .LEHE96-.LEHB96
 4154 029e 910B     		.uleb128 .L375-.LFB1587
 4155 02a0 07       		.uleb128 0x7
 4156 02a1 FC0A     		.uleb128 .LEHB97-.LFB1587
 4157 02a3 05       		.uleb128 .LEHE97-.LEHB97
 4158 02a4 860B     		.uleb128 .L366-.LFB1587
 4159 02a6 07       		.uleb128 0x7
 4160 02a7 B90B     		.uleb128 .LEHB98-.LFB1587
 4161 02a9 05       		.uleb128 .LEHE98-.LEHB98
 4162 02aa 00       		.uleb128 0
 4163 02ab 00       		.uleb128 0
 4164 02ac C80B     		.uleb128 .LEHB99-.LFB1587
 4165 02ae 17       		.uleb128 .LEHE99-.LEHB99
 4166 02af C60C     		.uleb128 .L360-.LFB1587
 4167 02b1 00       		.uleb128 0
 4168 02b2 DF0B     		.uleb128 .LEHB100-.LFB1587
 4169 02b4 05       		.uleb128 .LEHE100-.LEHB100
 4170 02b5 00       		.uleb128 0
 4171 02b6 00       		.uleb128 0
 4172 02b7 800C     		.uleb128 .LEHB101-.LFB1587
 4173 02b9 41       		.uleb128 .LEHE101-.LEHB101
 4174 02ba D60C     		.uleb128 .L363-.LFB1587
 4175 02bc 00       		.uleb128 0
 4176 02bd D10C     		.uleb128 .LEHB102-.LFB1587
 4177 02bf 05       		.uleb128 .LEHE102-.LEHB102
 4178 02c0 00       		.uleb128 0
 4179 02c1 00       		.uleb128 0
 4180              	.LLSDACSE1587:
 4181 02c2 03       		.byte	0x3
 4182 02c3 00       		.byte	0
 4183 02c4 02       		.byte	0x2
 4184 02c5 7D       		.byte	0x7d
 4185 02c6 01       		.byte	0x1
 4186 02c7 7D       		.byte	0x7d
 4187 02c8 00       		.byte	0
 4188 02c9 7D       		.byte	0x7d
 4189 02ca 0000     		.align 4
 4190 02cc 00000000 		.long	0
 4191              	
 4192 02d0 00000000 		.long	_ZTISt9exception
 4193 02d4 00000000 		.long	_ZTIN8UnitTest15AssertExceptionE
 4194              	.LLSDATT1587:
 4195              		.text
 4197              		.section	.text.unlikely
 4198              	.LCOLDE95:
 4199              		.text
 4200              	.LHOTE95:
 4201              		.section	.text.unlikely
 4202              		.align 2
 4203              	.LCOLDB96:
 4204              		.text
 4205              	.LHOTB96:
 4206 18ab 90       		.align 2
 4207 18ac 0F1F4000 		.p2align 4,,15
 4209              	_ZNK12_GLOBAL__N_157TestTestRunnerFixtureSlowTestHasCorrectFailureInformation7RunImplEv:
 4210              	.LFB1284:
 4211              		.cfi_startproc
 4212              		.cfi_personality 0x3,__gxx_personality_v0
 4213              		.cfi_lsda 0x3,.LLSDA1284
 4214 18b0 4155     		pushq	%r13
 4215              		.cfi_def_cfa_offset 16
 4216              		.cfi_offset 13, -16
 4217 18b2 4154     		pushq	%r12
 4218              		.cfi_def_cfa_offset 24
 4219              		.cfi_offset 12, -24
 4220 18b4 55       		pushq	%rbp
 4221              		.cfi_def_cfa_offset 32
 4222              		.cfi_offset 6, -32
 4223 18b5 53       		pushq	%rbx
 4224              		.cfi_def_cfa_offset 40
 4225              		.cfi_offset 3, -40
 4226 18b6 4889FD   		movq	%rdi, %rbp
 4227 18b9 488D5F08 		leaq	8(%rdi), %rbx
 4228 18bd 4881EC98 		subq	$2200, %rsp
 4228      080000
 4229              		.cfi_def_cfa_offset 2240
 4230 18c4 64488B04 		movq	%fs:40, %rax
 4230      25280000 
 4230      00
 4231 18cd 48898424 		movq	%rax, 2184(%rsp)
 4231      88080000 
 4232 18d5 31C0     		xorl	%eax, %eax
 4233 18d7 488D4424 		leaq	32(%rsp), %rax
 4233      20
 4234 18dc 488D7424 		leaq	56(%rsp), %rsi
 4234      38
 4235 18e1 4889C7   		movq	%rax, %rdi
 4236              	.LEHB103:
 4237 18e4 E8000000 		call	_ZN8UnitTest10TestRunnerC1ERNS_12TestReporterE
 4237      00
 4238              	.LEHE103:
 4239 18e9 488DBC24 		leaq	2152(%rsp), %rdi
 4239      68080000 
 4240 18f1 48C74424 		movq	$_ZTV17RecordingReporter+16, 56(%rsp)
 4240      38000000 
 4240      00
 4241 18fa C7442440 		movl	$0, 64(%rsp)
 4241      00000000 
 4242 1902 C7842444 		movl	$0, 580(%rsp)
 4242      02000000 
 4242      000000
 4243 190d C7842448 		movl	$0, 840(%rsp)
 4243      03000000 
 4243      000000
 4244 1918 C784244C 		movl	$0, 1612(%rsp)
 4244      06000000 
 4244      000000
 4245 1923 C7842450 		movl	$0x00000000, 2128(%rsp)
 4245      08000000 
 4245      000000
 4246 192e C7842454 		movl	$0, 2132(%rsp)
 4246      08000000 
 4246      000000
 4247 1939 C7842458 		movl	$0, 2136(%rsp)
 4247      08000000 
 4247      000000
 4248 1944 C784245C 		movl	$0, 2140(%rsp)
 4248      08000000 
 4248      000000
 4249 194f C7842460 		movl	$0x00000000, 2144(%rsp)
 4249      08000000 
 4249      000000
 4250 195a C6442444 		movb	$0, 68(%rsp)
 4250      00
 4251 195f C6842444 		movb	$0, 324(%rsp)
 4251      01000000 
 4252 1967 C6842448 		movb	$0, 584(%rsp)
 4252      02000000 
 4253 196f C684244C 		movb	$0, 844(%rsp)
 4253      03000000 
 4254 1977 C684244C 		movb	$0, 1100(%rsp)
 4254      04000000 
 4255 197f C684244C 		movb	$0, 1356(%rsp)
 4255      05000000 
 4256 1987 C6842450 		movb	$0, 1616(%rsp)
 4256      06000000 
 4257 198f C6842450 		movb	$0, 1872(%rsp)
 4257      07000000 
 4258              	.LEHB104:
 4259 1997 E8000000 		call	_ZN8UnitTest8TestListC1Ev
 4259      00
 4260              	.LEHE104:
 4261 199c 488D7C24 		leaq	32(%rsp), %rdi
 4261      20
 4262 19a1 4889DE   		movq	%rbx, %rsi
 4263 19a4 48899C24 		movq	%rbx, 2168(%rsp)
 4263      78080000 
 4264              	.LEHB105:
 4265 19ac E89FF8FF 		call	_ZN8UnitTest11ExecuteTestIN12_GLOBAL__N_159TestRunnerFixtureSlowTestHasCorrectFailureInformat
 4265      FF
 4266              	.LEHE105:
 4267 19b1 488D7C24 		leaq	56(%rsp), %rdi
 4267      38
 4268 19b6 48C74424 		movq	$_ZTV17RecordingReporter+16, 56(%rsp)
 4268      38000000 
 4268      00
 4269              	.LEHB106:
 4270 19bf E8000000 		call	_ZN8UnitTest12TestReporterD2Ev
 4270      00
 4271              	.LEHE106:
 4272 19c4 488D7C24 		leaq	32(%rsp), %rdi
 4272      20
 4273              	.LEHB107:
 4274 19c9 E8000000 		call	_ZN8UnitTest10TestRunnerD1Ev
 4274      00
 4275              	.LEHE107:
 4276              	.L391:
 4277 19ce 488B8424 		movq	2184(%rsp), %rax
 4277      88080000 
 4278 19d6 64483304 		xorq	%fs:40, %rax
 4278      25280000 
 4278      00
 4279 19df 750E     		jne	.L430
 4280 19e1 4881C498 		addq	$2200, %rsp
 4280      080000
 4281              		.cfi_remember_state
 4282              		.cfi_def_cfa_offset 40
 4283 19e8 5B       		popq	%rbx
 4284              		.cfi_def_cfa_offset 32
 4285 19e9 5D       		popq	%rbp
 4286              		.cfi_def_cfa_offset 24
 4287 19ea 415C     		popq	%r12
 4288              		.cfi_def_cfa_offset 16
 4289 19ec 415D     		popq	%r13
 4290              		.cfi_def_cfa_offset 8
 4291 19ee C3       		ret
 4292              	.L430:
 4293              		.cfi_restore_state
 4294 19ef E8000000 		call	__stack_chk_fail
 4294      00
 4295              	.L412:
 4296 19f4 4889C7   		movq	%rax, %rdi
 4297 19f7 41BC0100 		movl	$1, %r12d
 4297      0000
 4298              	.L394:
 4299 19fd 4883FA01 		cmpq	$1, %rdx
 4300 1a01 0F844501 		je	.L403
 4300      0000
 4301 1a07 4883FA02 		cmpq	$2, %rdx
 4302 1a0b 0F85FE00 		jne	.L431
 4302      0000
 4303 1a11 E8000000 		call	__cxa_begin_catch
 4303      00
 4304 1a16 488D7C24 		leaq	32(%rsp), %rdi
 4304      20
 4305 1a1b 4889C5   		movq	%rax, %rbp
 4306              	.LEHB108:
 4307 1a1e E8000000 		call	_ZN8UnitTest15MemoryOutStreamC1Ev
 4307      00
 4308              	.LEHE108:
 4309 1a23 488B4500 		movq	0(%rbp), %rax
 4310 1a27 4889EF   		movq	%rbp, %rdi
 4311 1a2a FF5010   		call	*16(%rax)
 4312 1a2d 488D7C24 		leaq	32(%rsp), %rdi
 4312      20
 4313 1a32 BA150000 		movl	$21, %edx
 4313      00
 4314 1a37 BE000000 		movl	$.LC69, %esi
 4314      00
 4315 1a3c 4889C5   		movq	%rax, %rbp
 4316              	.LEHB109:
 4317 1a3f E8000000 		call	_ZSt16__ostream_insertIcSt11char_traitsIcEERSt13basic_ostreamIT_T0_ES6_PKS3_l
 4317      00
 4318 1a44 488D7C24 		leaq	32(%rsp), %rdi
 4318      20
 4319 1a49 4889EE   		movq	%rbp, %rsi
 4320 1a4c E8000000 		call	_ZStlsISt11char_traitsIcEERSt13basic_ostreamIcT_ES5_PKc
 4320      00
 4321 1a51 488D7C24 		leaq	32(%rsp), %rdi
 4321      20
 4322 1a56 E8000000 		call	_ZNK8UnitTest15MemoryOutStream7GetTextEv
 4322      00
 4323 1a5b 4889C5   		movq	%rax, %rbp
 4324 1a5e E8000000 		call	_ZN8UnitTest11CurrentTest7ResultsEv
 4324      00
 4325 1a63 488B38   		movq	(%rax), %rdi
 4326 1a66 4889EA   		movq	%rbp, %rdx
 4327 1a69 4889DE   		movq	%rbx, %rsi
 4328 1a6c E8000000 		call	_ZN8UnitTest11TestResults13OnTestFailureERKNS_11TestDetailsEPKc
 4328      00
 4329              	.LEHE109:
 4330 1a71 488D7C24 		leaq	32(%rsp), %rdi
 4330      20
 4331              	.LEHB110:
 4332 1a76 E8000000 		call	_ZN8UnitTest15MemoryOutStreamD1Ev
 4332      00
 4333              	.LEHE110:
 4334              	.L425:
 4335 1a7b E8000000 		call	__cxa_end_catch
 4335      00
 4336 1a80 E949FFFF 		jmp	.L391
 4336      FF
 4337              	.L419:
 4338 1a85 488D7C24 		leaq	32(%rsp), %rdi
 4338      20
 4339 1a8a 4989D4   		movq	%rdx, %r12
 4340 1a8d 4989C5   		movq	%rax, %r13
 4341 1a90 E8000000 		call	_ZN8UnitTest10TestRunnerD1Ev
 4341      00
 4342 1a95 4C89E2   		movq	%r12, %rdx
 4343 1a98 4C89EF   		movq	%r13, %rdi
 4344 1a9b 41BC0100 		movl	$1, %r12d
 4344      0000
 4345 1aa1 E957FFFF 		jmp	.L394
 4345      FF
 4346              	.L413:
 4347 1aa6 488D7C24 		leaq	32(%rsp), %rdi
 4347      20
 4348 1aab 4989D4   		movq	%rdx, %r12
 4349 1aae 4989C5   		movq	%rax, %r13
 4350 1ab1 E8000000 		call	_ZN12_GLOBAL__N_111FixtureBaseD2Ev
 4350      00
 4351 1ab6 4C89E2   		movq	%r12, %rdx
 4352 1ab9 4C89EF   		movq	%r13, %rdi
 4353 1abc 41BC0100 		movl	$1, %r12d
 4353      0000
 4354 1ac2 E936FFFF 		jmp	.L394
 4354      FF
 4355              	.L418:
 4356 1ac7 488D7C24 		leaq	32(%rsp), %rdi
 4356      20
 4357 1acc 4989D4   		movq	%rdx, %r12
 4358 1acf 4989C5   		movq	%rax, %r13
 4359 1ad2 E8000000 		call	_ZN12_GLOBAL__N_111FixtureBaseD2Ev
 4359      00
 4360 1ad7 4C89E2   		movq	%r12, %rdx
 4361 1ada 4C89EF   		movq	%r13, %rdi
 4362 1add 4531E4   		xorl	%r12d, %r12d
 4363 1ae0 E918FFFF 		jmp	.L394
 4363      FF
 4364              	.L420:
 4365 1ae5 4889C7   		movq	%rax, %rdi
 4366 1ae8 4531E4   		xorl	%r12d, %r12d
 4367 1aeb E90DFFFF 		jmp	.L394
 4367      FF
 4368              	.L416:
 4369 1af0 488D7C24 		leaq	32(%rsp), %rdi
 4369      20
 4370 1af5 4889C3   		movq	%rax, %rbx
 4371 1af8 E8000000 		call	_ZN8UnitTest15MemoryOutStreamD1Ev
 4371      00
 4372              	.L409:
 4373 1afd E8000000 		call	__cxa_end_catch
 4373      00
 4374 1b02 4889DF   		movq	%rbx, %rdi
 4375              	.LEHB111:
 4376 1b05 E8000000 		call	_Unwind_Resume
 4376      00
 4377              	.LEHE111:
 4378              	.L415:
 4379              	.L426:
 4380 1b0a 4889C3   		movq	%rax, %rbx
 4381 1b0d EBEE     		jmp	.L409
 4382              	.L431:
 4383 1b0f E8000000 		call	__cxa_begin_catch
 4383      00
 4384 1b14 4584E4   		testb	%r12b, %r12b
 4385 1b17 BABC0000 		movl	$188, %edx
 4385      00
 4386 1b1c 4889DE   		movq	%rbx, %rsi
 4387 1b1f 4889E7   		movq	%rsp, %rdi
 4388 1b22 0F848900 		je	.L405
 4388      0000
 4389              	.LEHB112:
 4390 1b28 E8000000 		call	_ZN8UnitTest11TestDetailsC1ERKS0_i
 4390      00
 4391 1b2d E8000000 		call	_ZN8UnitTest11CurrentTest7ResultsEv
 4391      00
 4392 1b32 488B38   		movq	(%rax), %rdi
 4393 1b35 BA000000 		movl	$.LC73, %edx
 4393      00
 4394 1b3a 4889E6   		movq	%rsp, %rsi
 4395 1b3d E8000000 		call	_ZN8UnitTest11TestResults13OnTestFailureERKNS_11TestDetailsEPKc
 4395      00
 4396              	.LEHE112:
 4397              	.L406:
 4398              	.LEHB113:
 4399 1b42 E8000000 		call	__cxa_end_catch
 4399      00
 4400              	.LEHE113:
 4401 1b47 E982FEFF 		jmp	.L391
 4401      FF
 4402              	.L403:
 4403 1b4c E8000000 		call	__cxa_begin_catch
 4403      00
 4404 1b51 4889C3   		movq	%rax, %rbx
 4405 1b54 488B00   		movq	(%rax), %rax
 4406 1b57 4889DF   		movq	%rbx, %rdi
 4407 1b5a FF5010   		call	*16(%rax)
 4408 1b5d 4889DF   		movq	%rbx, %rdi
 4409 1b60 4989C4   		movq	%rax, %r12
 4410              	.LEHB114:
 4411 1b63 E8000000 		call	_ZNK8UnitTest15AssertException10LineNumberEv
 4411      00
 4412 1b68 4889DF   		movq	%rbx, %rdi
 4413 1b6b 4189C5   		movl	%eax, %r13d
 4414 1b6e E8000000 		call	_ZNK8UnitTest15AssertException8FilenameEv
 4414      00
 4415 1b73 488B5508 		movq	8(%rbp), %rdx
 4416 1b77 488B7510 		movq	16(%rbp), %rsi
 4417 1b7b 4589E8   		movl	%r13d, %r8d
 4418 1b7e 4889C1   		movq	%rax, %rcx
 4419 1b81 4889E7   		movq	%rsp, %rdi
 4420 1b84 E8000000 		call	_ZN8UnitTest11TestDetailsC1EPKcS2_S2_i
 4420      00
 4421 1b89 E8000000 		call	_ZN8UnitTest11CurrentTest7ResultsEv
 4421      00
 4422 1b8e 488B38   		movq	(%rax), %rdi
 4423 1b91 4C89E2   		movq	%r12, %rdx
 4424 1b94 4889E6   		movq	%rsp, %rsi
 4425 1b97 E8000000 		call	_ZN8UnitTest11TestResults13OnTestFailureERKNS_11TestDetailsEPKc
 4425      00
 4426              	.LEHE114:
 4427 1b9c E9DAFEFF 		jmp	.L425
 4427      FF
 4428              	.L417:
 4429 1ba1 4889C3   		movq	%rax, %rbx
 4430 1ba4 E8000000 		call	__cxa_end_catch
 4430      00
 4431 1ba9 4889DF   		movq	%rbx, %rdi
 4432              	.LEHB115:
 4433 1bac E8000000 		call	_Unwind_Resume
 4433      00
 4434              	.LEHE115:
 4435              	.L405:
 4436              	.LEHB116:
 4437 1bb1 E8000000 		call	_ZN8UnitTest11TestDetailsC1ERKS0_i
 4437      00
 4438 1bb6 E8000000 		call	_ZN8UnitTest11CurrentTest7ResultsEv
 4438      00
 4439 1bbb 488B38   		movq	(%rax), %rdi
 4440 1bbe BA000000 		movl	$.LC74, %edx
 4440      00
 4441 1bc3 4889E6   		movq	%rsp, %rsi
 4442 1bc6 E8000000 		call	_ZN8UnitTest11TestResults13OnTestFailureERKNS_11TestDetailsEPKc
 4442      00
 4443              	.LEHE116:
 4444 1bcb E972FFFF 		jmp	.L406
 4444      FF
 4445              	.L414:
 4446 1bd0 E935FFFF 		jmp	.L426
 4446      FF
 4447              		.cfi_endproc
 4448              	.LFE1284:
 4449              		.section	.gcc_except_table
 4450              		.align 4
 4451              	.LLSDA1284:
 4452 02d8 FF       		.byte	0xff
 4453 02d9 03       		.byte	0x3
 4454 02da 69       		.uleb128 .LLSDATT1284-.LLSDATTD1284
 4455              	.LLSDATTD1284:
 4456 02db 01       		.byte	0x1
 4457 02dc 50       		.uleb128 .LLSDACSE1284-.LLSDACSB1284
 4458              	.LLSDACSB1284:
 4459 02dd 34       		.uleb128 .LEHB103-.LFB1284
 4460 02de 05       		.uleb128 .LEHE103-.LEHB103
 4461 02df B504     		.uleb128 .L420-.LFB1284
 4462 02e1 05       		.uleb128 0x5
 4463 02e2 E701     		.uleb128 .LEHB104-.LFB1284
 4464 02e4 05       		.uleb128 .LEHE104-.LEHB104
 4465 02e5 9704     		.uleb128 .L418-.LFB1284
 4466 02e7 07       		.uleb128 0x7
 4467 02e8 FC01     		.uleb128 .LEHB105-.LFB1284
 4468 02ea 05       		.uleb128 .LEHE105-.LEHB105
 4469 02eb F603     		.uleb128 .L413-.LFB1284
 4470 02ed 07       		.uleb128 0x7
 4471 02ee 8F02     		.uleb128 .LEHB106-.LFB1284
 4472 02f0 05       		.uleb128 .LEHE106-.LEHB106
 4473 02f1 D503     		.uleb128 .L419-.LFB1284
 4474 02f3 07       		.uleb128 0x7
 4475 02f4 9902     		.uleb128 .LEHB107-.LFB1284
 4476 02f6 05       		.uleb128 .LEHE107-.LEHB107
 4477 02f7 C402     		.uleb128 .L412-.LFB1284
 4478 02f9 05       		.uleb128 0x5
 4479 02fa EE02     		.uleb128 .LEHB108-.LFB1284
 4480 02fc 05       		.uleb128 .LEHE108-.LEHB108
 4481 02fd DA04     		.uleb128 .L415-.LFB1284
 4482 02ff 00       		.uleb128 0
 4483 0300 8F03     		.uleb128 .LEHB109-.LFB1284
 4484 0302 32       		.uleb128 .LEHE109-.LEHB109
 4485 0303 C004     		.uleb128 .L416-.LFB1284
 4486 0305 00       		.uleb128 0
 4487 0306 C603     		.uleb128 .LEHB110-.LFB1284
 4488 0308 05       		.uleb128 .LEHE110-.LEHB110
 4489 0309 DA04     		.uleb128 .L415-.LFB1284
 4490 030b 00       		.uleb128 0
 4491 030c D504     		.uleb128 .LEHB111-.LFB1284
 4492 030e 05       		.uleb128 .LEHE111-.LEHB111
 4493 030f 00       		.uleb128 0
 4494 0310 00       		.uleb128 0
 4495 0311 F804     		.uleb128 .LEHB112-.LFB1284
 4496 0313 1A       		.uleb128 .LEHE112-.LEHB112
 4497 0314 F105     		.uleb128 .L417-.LFB1284
 4498 0316 00       		.uleb128 0
 4499 0317 9205     		.uleb128 .LEHB113-.LFB1284
 4500 0319 05       		.uleb128 .LEHE113-.LEHB113
 4501 031a 00       		.uleb128 0
 4502 031b 00       		.uleb128 0
 4503 031c B305     		.uleb128 .LEHB114-.LFB1284
 4504 031e 39       		.uleb128 .LEHE114-.LEHB114
 4505 031f A006     		.uleb128 .L414-.LFB1284
 4506 0321 00       		.uleb128 0
 4507 0322 FC05     		.uleb128 .LEHB115-.LFB1284
 4508 0324 05       		.uleb128 .LEHE115-.LEHB115
 4509 0325 00       		.uleb128 0
 4510 0326 00       		.uleb128 0
 4511 0327 8106     		.uleb128 .LEHB116-.LFB1284
 4512 0329 1A       		.uleb128 .LEHE116-.LEHB116
 4513 032a F105     		.uleb128 .L417-.LFB1284
 4514 032c 00       		.uleb128 0
 4515              	.LLSDACSE1284:
 4516 032d 03       		.byte	0x3
 4517 032e 00       		.byte	0
 4518 032f 02       		.byte	0x2
 4519 0330 7D       		.byte	0x7d
 4520 0331 01       		.byte	0x1
 4521 0332 7D       		.byte	0x7d
 4522 0333 00       		.byte	0
 4523 0334 7D       		.byte	0x7d
 4524 0335 000000   		.align 4
 4525 0338 00000000 		.long	0
 4526              	
 4527 033c 00000000 		.long	_ZTISt9exception
 4528 0340 00000000 		.long	_ZTIN8UnitTest15AssertExceptionE
 4529              	.LLSDATT1284:
 4530              		.text
 4532              		.section	.text.unlikely
 4533              	.LCOLDE96:
 4534              		.text
 4535              	.LHOTE96:
 4536              		.section	.rodata.str1.8
 4537              		.align 8
 4538              	.LC97:
 4539 0408 556E6861 		.string	"Unhandled exception in CHECK_EQUAL(1, reporter.testFailedCount)"
 4539      6E646C65 
 4539      64206578 
 4539      63657074 
 4539      696F6E20 
 4540              		.section	.text.unlikely
 4541              	.LCOLDB98:
 4542              		.text
 4543              	.LHOTB98:
 4544 1bd5 90662E0F 		.p2align 4,,15
 4544      1F840000 
 4544      000000
 4546              	_ZN8UnitTest11ExecuteTestIN12_GLOBAL__N_155TestRunnerFixtureSlowTestFailsForLowTimeThresholdHelperE
 4547              	.LFB1586:
 4548              		.cfi_startproc
 4549              		.cfi_personality 0x3,__gxx_personality_v0
 4550              		.cfi_lsda 0x3,.LLSDA1586
 4551 1be0 4155     		pushq	%r13
 4552              		.cfi_def_cfa_offset 16
 4553              		.cfi_offset 13, -16
 4554 1be2 4154     		pushq	%r12
 4555              		.cfi_def_cfa_offset 24
 4556              		.cfi_offset 12, -24
 4557 1be4 55       		pushq	%rbp
 4558              		.cfi_def_cfa_offset 32
 4559              		.cfi_offset 6, -32
 4560 1be5 53       		pushq	%rbx
 4561              		.cfi_def_cfa_offset 40
 4562              		.cfi_offset 3, -40
 4563 1be6 4889F3   		movq	%rsi, %rbx
 4564 1be9 4881ECD8 		subq	$1752, %rsp
 4564      060000
 4565              		.cfi_def_cfa_offset 1792
 4566 1bf0 48893C24 		movq	%rdi, (%rsp)
 4567 1bf4 48897424 		movq	%rsi, 8(%rsp)
 4567      08
 4568 1bf9 64488B04 		movq	%fs:40, %rax
 4568      25280000 
 4568      00
 4569 1c02 48898424 		movq	%rax, 1736(%rsp)
 4569      C8060000 
 4570 1c0a 31C0     		xorl	%eax, %eax
 4571              	.LEHB117:
 4572 1c0c E8000000 		call	_ZN8UnitTest11CurrentTest7DetailsEv
 4572      00
 4573              	.LEHE117:
 4574 1c11 488DBC24 		leaq	608(%rsp), %rdi
 4574      60020000 
 4575 1c19 488918   		movq	%rbx, (%rax)
 4576              	.LEHB118:
 4577 1c1c E8000000 		call	_ZN8UnitTest16SignalTranslatorC1Ev
 4577      00
 4578              	.LEHE118:
 4579 1c21 488B3D00 		movq	_ZN8UnitTest16SignalTranslator12s_jumpTargetE(%rip), %rdi
 4579      000000
 4580 1c28 BE010000 		movl	$1, %esi
 4580      00
 4581 1c2d E8000000 		call	__sigsetjmp
 4581      00
 4582 1c32 85C0     		testl	%eax, %eax
 4583 1c34 742A     		je	.L468
 4584 1c36 BF080000 		movl	$8, %edi
 4584      00
 4585 1c3b E8000000 		call	__cxa_allocate_exception
 4585      00
 4586 1c40 31D2     		xorl	%edx, %edx
 4587 1c42 48C70000 		movq	$.LC61, (%rax)
 4587      000000
 4588 1c49 BE000000 		movl	$_ZTIPKc, %esi
 4588      00
 4589 1c4e 4889C7   		movq	%rax, %rdi
 4590              	.LEHB119:
 4591 1c51 E8000000 		call	__cxa_throw
 4591      00
 4592 1c56 662E0F1F 		.p2align 4,,10
 4592      84000000 
 4592      0000
 4593              		.p2align 3
 4594              	.L468:
 4595 1c60 488DBC24 		leaq	128(%rsp), %rdi
 4595      80000000 
 4596 1c68 41B87B00 		movl	$123, %r8d
 4596      0000
 4597 1c6e B9000000 		movl	$.LC62, %ecx
 4597      00
 4598 1c73 BA000000 		movl	$.LC63, %edx
 4598      00
 4599 1c78 BE000000 		movl	$.LC64, %esi
 4599      00
 4600 1c7d E8000000 		call	_ZN8UnitTest4TestC2EPKcS2_S2_i
 4600      00
 4601              	.LEHE119:
 4602 1c82 488B2C24 		movq	(%rsp), %rbp
 4603 1c86 488DB424 		leaq	128(%rsp), %rsi
 4603      80000000 
 4604 1c8e 48C78424 		movq	$_ZTVN12_GLOBAL__N_18SlowTestE+16, 128(%rsp)
 4604      80000000 
 4604      00000000 
 4605 1c9a 488D9D48 		leaq	2120(%rbp), %rbx
 4605      080000
 4606 1ca1 4889DF   		movq	%rbx, %rdi
 4607              	.LEHB120:
 4608 1ca4 E8000000 		call	_ZN8UnitTest8TestList3AddEPNS_4TestE
 4608      00
 4609 1ca9 E8000000 		call	_ZN8UnitTest11CurrentTest7ResultsEv
 4609      00
 4610 1cae 4C8B20   		movq	(%rax), %r12
 4611 1cb1 E8000000 		call	_ZN8UnitTest11CurrentTest7DetailsEv
 4611      00
 4612 1cb6 4889DF   		movq	%rbx, %rdi
 4613 1cb9 4C8B28   		movq	(%rax), %r13
 4614 1cbc E8000000 		call	_ZNK8UnitTest8TestList7GetHeadEv
 4614      00
 4615 1cc1 4885C0   		testq	%rax, %rax
 4616 1cc4 4889C3   		movq	%rax, %rbx
 4617 1cc7 7439     		je	.L438
 4618 1cc9 0F1F8000 		.p2align 4,,10
 4618      000000
 4619              		.p2align 3
 4620              	.L467:
 4621 1cd0 31D2     		xorl	%edx, %edx
 4622 1cd2 4889DE   		movq	%rbx, %rsi
 4623 1cd5 4889EF   		movq	%rbp, %rdi
 4624 1cd8 E8000000 		call	_ZNK8UnitTest10TestRunner13IsTestInSuiteEPKNS_4TestEPKc
 4624      00
 4625 1cdd 84C0     		testb	%al, %al
 4626 1cdf 7418     		je	.L456
 4627 1ce1 488B0424 		movq	(%rsp), %rax
 4628 1ce5 B9030000 		movl	$3, %ecx
 4628      00
 4629 1cea 4889DA   		movq	%rbx, %rdx
 4630 1ced 4889EF   		movq	%rbp, %rdi
 4631 1cf0 488B7008 		movq	8(%rax), %rsi
 4632 1cf4 E8000000 		call	_ZNK8UnitTest10TestRunner7RunTestEPNS_11TestResultsEPNS_4TestEi
 4632      00
 4633              	.L456:
 4634 1cf9 488B5B28 		movq	40(%rbx), %rbx
 4635 1cfd 4885DB   		testq	%rbx, %rbx
 4636 1d00 75CE     		jne	.L467
 4637              	.L438:
 4638 1d02 488B3C24 		movq	(%rsp), %rdi
 4639 1d06 E8000000 		call	_ZNK8UnitTest10TestRunner6FinishEv
 4639      00
 4640 1d0b E8000000 		call	_ZN8UnitTest11CurrentTest7ResultsEv
 4640      00
 4641 1d10 4C8920   		movq	%r12, (%rax)
 4642 1d13 E8000000 		call	_ZN8UnitTest11CurrentTest7DetailsEv
 4642      00
 4643              	.LEHE120:
 4644 1d18 4C8928   		movq	%r13, (%rax)
 4645              	.LEHB121:
 4646 1d1b E8000000 		call	_ZN8UnitTest11CurrentTest7DetailsEv
 4646      00
 4647 1d20 488B30   		movq	(%rax), %rsi
 4648 1d23 488D7C24 		leaq	96(%rsp), %rdi
 4648      60
 4649 1d28 BAB90000 		movl	$185, %edx
 4649      00
 4650 1d2d E8000000 		call	_ZN8UnitTest11TestDetailsC1ERKS0_i
 4650      00
 4651 1d32 488B1C24 		movq	(%rsp), %rbx
 4652 1d36 C744241C 		movl	$1, 28(%rsp)
 4652      01000000 
 4653 1d3e 4881C324 		addq	$548, %rbx
 4653      020000
 4654 1d45 E8000000 		call	_ZN8UnitTest11CurrentTest7ResultsEv
 4654      00
 4655 1d4a 488B38   		movq	(%rax), %rdi
 4656 1d4d 488D4C24 		leaq	96(%rsp), %rcx
 4656      60
 4657 1d52 488D7424 		leaq	28(%rsp), %rsi
 4657      1C
 4658 1d57 4889DA   		movq	%rbx, %rdx
 4659 1d5a E8000000 		call	_ZN8UnitTest10CheckEqualIiiEEvRNS_11TestResultsERKT_RKT0_RKNS_11TestDetailsE
 4659      00
 4660              	.LEHE121:
 4661              	.L442:
 4662 1d5f 488DBC24 		leaq	128(%rsp), %rdi
 4662      80000000 
 4663 1d67 48C78424 		movq	$_ZTVN12_GLOBAL__N_18SlowTestE+16, 128(%rsp)
 4663      80000000 
 4663      00000000 
 4664              	.LEHB122:
 4665 1d73 E8000000 		call	_ZN8UnitTest4TestD2Ev
 4665      00
 4666              	.LEHE122:
 4667 1d78 488DBC24 		leaq	608(%rsp), %rdi
 4667      60020000 
 4668              	.LEHB123:
 4669 1d80 E8000000 		call	_ZN8UnitTest16SignalTranslatorD1Ev
 4669      00
 4670              	.LEHE123:
 4671              	.L432:
 4672 1d85 488B8424 		movq	1736(%rsp), %rax
 4672      C8060000 
 4673 1d8d 64483304 		xorq	%fs:40, %rax
 4673      25280000 
 4673      00
 4674 1d96 0F85C700 		jne	.L476
 4674      0000
 4675 1d9c 4881C4D8 		addq	$1752, %rsp
 4675      060000
 4676              		.cfi_remember_state
 4677              		.cfi_def_cfa_offset 40
 4678 1da3 5B       		popq	%rbx
 4679              		.cfi_def_cfa_offset 32
 4680 1da4 5D       		popq	%rbp
 4681              		.cfi_def_cfa_offset 24
 4682 1da5 415C     		popq	%r12
 4683              		.cfi_def_cfa_offset 16
 4684 1da7 415D     		popq	%r13
 4685              		.cfi_def_cfa_offset 8
 4686 1da9 C3       		ret
 4687              	.L463:
 4688              		.cfi_restore_state
 4689 1daa 4889C3   		movq	%rax, %rbx
 4690 1dad 4889D5   		movq	%rdx, %rbp
 4691              	.L445:
 4692 1db0 488DBC24 		leaq	608(%rsp), %rdi
 4692      60020000 
 4693 1db8 E8000000 		call	_ZN8UnitTest16SignalTranslatorD1Ev
 4693      00
 4694 1dbd 4889DF   		movq	%rbx, %rdi
 4695 1dc0 4889EA   		movq	%rbp, %rdx
 4696              	.L446:
 4697 1dc3 4883FA01 		cmpq	$1, %rdx
 4698 1dc7 0F845401 		je	.L448
 4698      0000
 4699 1dcd 4883FA02 		cmpq	$2, %rdx
 4700 1dd1 0F852401 		jne	.L477
 4700      0000
 4701 1dd7 E8000000 		call	__cxa_begin_catch
 4701      00
 4702 1ddc 488DBC24 		leaq	192(%rsp), %rdi
 4702      C0000000 
 4703 1de4 4889C3   		movq	%rax, %rbx
 4704              	.LEHB124:
 4705 1de7 E8000000 		call	_ZN8UnitTest15MemoryOutStreamC1Ev
 4705      00
 4706              	.LEHE124:
 4707 1dec 488B03   		movq	(%rbx), %rax
 4708 1def 4889DF   		movq	%rbx, %rdi
 4709 1df2 FF5010   		call	*16(%rax)
 4710 1df5 488DBC24 		leaq	192(%rsp), %rdi
 4710      C0000000 
 4711 1dfd BA150000 		movl	$21, %edx
 4711      00
 4712 1e02 BE000000 		movl	$.LC69, %esi
 4712      00
 4713 1e07 4889C3   		movq	%rax, %rbx
 4714              	.LEHB125:
 4715 1e0a E8000000 		call	_ZSt16__ostream_insertIcSt11char_traitsIcEERSt13basic_ostreamIT_T0_ES6_PKS3_l
 4715      00
 4716 1e0f 488DBC24 		leaq	192(%rsp), %rdi
 4716      C0000000 
 4717 1e17 4889DE   		movq	%rbx, %rsi
 4718 1e1a E8000000 		call	_ZStlsISt11char_traitsIcEERSt13basic_ostreamIcT_ES5_PKc
 4718      00
 4719 1e1f 488DBC24 		leaq	192(%rsp), %rdi
 4719      C0000000 
 4720 1e27 E8000000 		call	_ZNK8UnitTest15MemoryOutStream7GetTextEv
 4720      00
 4721 1e2c 4889C3   		movq	%rax, %rbx
 4722 1e2f E8000000 		call	_ZN8UnitTest11CurrentTest7ResultsEv
 4722      00
 4723 1e34 488B7424 		movq	8(%rsp), %rsi
 4723      08
 4724 1e39 488B38   		movq	(%rax), %rdi
 4725 1e3c 4889DA   		movq	%rbx, %rdx
 4726 1e3f E8000000 		call	_ZN8UnitTest11TestResults13OnTestFailureERKNS_11TestDetailsEPKc
 4726      00
 4727              	.LEHE125:
 4728 1e44 488DBC24 		leaq	192(%rsp), %rdi
 4728      C0000000 
 4729              	.LEHB126:
 4730 1e4c E8000000 		call	_ZN8UnitTest15MemoryOutStreamD1Ev
 4730      00
 4731              	.LEHE126:
 4732              	.L472:
 4733 1e51 E8000000 		call	__cxa_end_catch
 4733      00
 4734 1e56 E92AFFFF 		jmp	.L432
 4734      FF
 4735              	.L462:
 4736 1e5b 4889C7   		movq	%rax, %rdi
 4737 1e5e E960FFFF 		jmp	.L446
 4737      FF
 4738              	.L476:
 4739 1e63 E8000000 		call	__stack_chk_fail
 4739      00
 4740              	.L466:
 4741 1e68 4889C7   		movq	%rax, %rdi
 4742 1e6b E8000000 		call	__cxa_begin_catch
 4742      00
 4743              	.LEHB127:
 4744 1e70 E8000000 		call	_ZN8UnitTest11CurrentTest7DetailsEv
 4744      00
 4745 1e75 488B30   		movq	(%rax), %rsi
 4746 1e78 488D7C24 		leaq	64(%rsp), %rdi
 4746      40
 4747 1e7d BAB90000 		movl	$185, %edx
 4747      00
 4748 1e82 E8000000 		call	_ZN8UnitTest11TestDetailsC1ERKS0_i
 4748      00
 4749 1e87 E8000000 		call	_ZN8UnitTest11CurrentTest7ResultsEv
 4749      00
 4750 1e8c 488B38   		movq	(%rax), %rdi
 4751 1e8f 488D7424 		leaq	64(%rsp), %rsi
 4751      40
 4752 1e94 BA000000 		movl	$.LC97, %edx
 4752      00
 4753 1e99 E8000000 		call	_ZN8UnitTest11TestResults13OnTestFailureERKNS_11TestDetailsEPKc
 4753      00
 4754              	.LEHE127:
 4755              	.LEHB128:
 4756 1e9e E8000000 		call	__cxa_end_catch
 4756      00
 4757              	.LEHE128:
 4758 1ea3 E9B7FEFF 		jmp	.L442
 4758      FF
 4759              	.L464:
 4760 1ea8 4889C3   		movq	%rax, %rbx
 4761 1eab 4889D5   		movq	%rdx, %rbp
 4762              	.L444:
 4763 1eae 488DBC24 		leaq	128(%rsp), %rdi
 4763      80000000 
 4764 1eb6 48C78424 		movq	$_ZTVN12_GLOBAL__N_18SlowTestE+16, 128(%rsp)
 4764      80000000 
 4764      00000000 
 4765 1ec2 E8000000 		call	_ZN8UnitTest4TestD2Ev
 4765      00
 4766 1ec7 E9E4FEFF 		jmp	.L445
 4766      FF
 4767              	.L465:
 4768 1ecc 4889C3   		movq	%rax, %rbx
 4769 1ecf 4889D5   		movq	%rdx, %rbp
 4770 1ed2 E8000000 		call	__cxa_end_catch
 4770      00
 4771 1ed7 EBD5     		jmp	.L444
 4772              	.L460:
 4773 1ed9 488DBC24 		leaq	192(%rsp), %rdi
 4773      C0000000 
 4774 1ee1 4889C3   		movq	%rax, %rbx
 4775 1ee4 E8000000 		call	_ZN8UnitTest15MemoryOutStreamD1Ev
 4775      00
 4776              	.L454:
 4777 1ee9 E8000000 		call	__cxa_end_catch
 4777      00
 4778 1eee 4889DF   		movq	%rbx, %rdi
 4779              	.LEHB129:
 4780 1ef1 E8000000 		call	_Unwind_Resume
 4780      00
 4781              	.LEHE129:
 4782              	.L459:
 4783              	.L473:
 4784 1ef6 4889C3   		movq	%rax, %rbx
 4785 1ef9 EBEE     		jmp	.L454
 4786              	.L477:
 4787 1efb E8000000 		call	__cxa_begin_catch
 4787      00
 4788              	.LEHB130:
 4789 1f00 E8000000 		call	_ZN8UnitTest11CurrentTest7ResultsEv
 4789      00
 4790 1f05 488B7424 		movq	8(%rsp), %rsi
 4790      08
 4791 1f0a 488B38   		movq	(%rax), %rdi
 4792 1f0d BA000000 		movl	$.LC70, %edx
 4792      00
 4793 1f12 E8000000 		call	_ZN8UnitTest11TestResults13OnTestFailureERKNS_11TestDetailsEPKc
 4793      00
 4794              	.LEHE130:
 4795              	.LEHB131:
 4796 1f17 E8000000 		call	__cxa_end_catch
 4796      00
 4797              	.LEHE131:
 4798 1f1c E964FEFF 		jmp	.L432
 4798      FF
 4799              	.L448:
 4800 1f21 E8000000 		call	__cxa_begin_catch
 4800      00
 4801 1f26 4889C3   		movq	%rax, %rbx
 4802 1f29 488B00   		movq	(%rax), %rax
 4803 1f2c 4889DF   		movq	%rbx, %rdi
 4804 1f2f FF5010   		call	*16(%rax)
 4805 1f32 4889DF   		movq	%rbx, %rdi
 4806 1f35 4889C5   		movq	%rax, %rbp
 4807              	.LEHB132:
 4808 1f38 E8000000 		call	_ZNK8UnitTest15AssertException10LineNumberEv
 4808      00
 4809 1f3d 4889DF   		movq	%rbx, %rdi
 4810 1f40 4189C4   		movl	%eax, %r12d
 4811 1f43 E8000000 		call	_ZNK8UnitTest15AssertException8FilenameEv
 4811      00
 4812 1f48 488B5424 		movq	8(%rsp), %rdx
 4812      08
 4813 1f4d 488D7C24 		leaq	32(%rsp), %rdi
 4813      20
 4814 1f52 4589E0   		movl	%r12d, %r8d
 4815 1f55 4889C1   		movq	%rax, %rcx
 4816 1f58 488B7208 		movq	8(%rdx), %rsi
 4817 1f5c 488B12   		movq	(%rdx), %rdx
 4818 1f5f E8000000 		call	_ZN8UnitTest11TestDetailsC1EPKcS2_S2_i
 4818      00
 4819 1f64 E8000000 		call	_ZN8UnitTest11CurrentTest7ResultsEv
 4819      00
 4820 1f69 488B38   		movq	(%rax), %rdi
 4821 1f6c 488D7424 		leaq	32(%rsp), %rsi
 4821      20
 4822 1f71 4889EA   		movq	%rbp, %rdx
 4823 1f74 E8000000 		call	_ZN8UnitTest11TestResults13OnTestFailureERKNS_11TestDetailsEPKc
 4823      00
 4824              	.LEHE132:
 4825 1f79 E9D3FEFF 		jmp	.L472
 4825      FF
 4826              	.L458:
 4827 1f7e 4889C3   		movq	%rax, %rbx
 4828 1f81 E8000000 		call	__cxa_end_catch
 4828      00
 4829 1f86 4889DF   		movq	%rbx, %rdi
 4830              	.LEHB133:
 4831 1f89 E8000000 		call	_Unwind_Resume
 4831      00
 4832              	.LEHE133:
 4833              	.L461:
 4834 1f8e E963FFFF 		jmp	.L473
 4834      FF
 4835              		.cfi_endproc
 4836              	.LFE1586:
 4837              		.section	.gcc_except_table
 4838              		.align 4
 4839              	.LLSDA1586:
 4840 0344 FF       		.byte	0xff
 4841 0345 03       		.byte	0x3
 4842 0346 75       		.uleb128 .LLSDATT1586-.LLSDATTD1586
 4843              	.LLSDATTD1586:
 4844 0347 01       		.byte	0x1
 4845 0348 5F       		.uleb128 .LLSDACSE1586-.LLSDACSB1586
 4846              	.LLSDACSB1586:
 4847 0349 2C       		.uleb128 .LEHB117-.LFB1586
 4848 034a 05       		.uleb128 .LEHE117-.LEHB117
 4849 034b 00       		.uleb128 0
 4850 034c 00       		.uleb128 0
 4851 034d 3C       		.uleb128 .LEHB118-.LFB1586
 4852 034e 05       		.uleb128 .LEHE118-.LEHB118
 4853 034f FB04     		.uleb128 .L462-.LFB1586
 4854 0351 05       		.uleb128 0x5
 4855 0352 71       		.uleb128 .LEHB119-.LFB1586
 4856 0353 31       		.uleb128 .LEHE119-.LEHB119
 4857 0354 CA03     		.uleb128 .L463-.LFB1586
 4858 0356 07       		.uleb128 0x7
 4859 0357 C401     		.uleb128 .LEHB120-.LFB1586
 4860 0359 74       		.uleb128 .LEHE120-.LEHB120
 4861 035a C805     		.uleb128 .L464-.LFB1586
 4862 035c 07       		.uleb128 0x7
 4863 035d BB02     		.uleb128 .LEHB121-.LFB1586
 4864 035f 44       		.uleb128 .LEHE121-.LEHB121
 4865 0360 8805     		.uleb128 .L466-.LFB1586
 4866 0362 01       		.uleb128 0x1
 4867 0363 9303     		.uleb128 .LEHB122-.LFB1586
 4868 0365 05       		.uleb128 .LEHE122-.LEHB122
 4869 0366 CA03     		.uleb128 .L463-.LFB1586
 4870 0368 07       		.uleb128 0x7
 4871 0369 A003     		.uleb128 .LEHB123-.LFB1586
 4872 036b 05       		.uleb128 .LEHE123-.LEHB123
 4873 036c FB04     		.uleb128 .L462-.LFB1586
 4874 036e 05       		.uleb128 0x5
 4875 036f 8704     		.uleb128 .LEHB124-.LFB1586
 4876 0371 05       		.uleb128 .LEHE124-.LEHB124
 4877 0372 9606     		.uleb128 .L459-.LFB1586
 4878 0374 00       		.uleb128 0
 4879 0375 AA04     		.uleb128 .LEHB125-.LFB1586
 4880 0377 3A       		.uleb128 .LEHE125-.LEHB125
 4881 0378 F905     		.uleb128 .L460-.LFB1586
 4882 037a 00       		.uleb128 0
 4883 037b EC04     		.uleb128 .LEHB126-.LFB1586
 4884 037d 05       		.uleb128 .LEHE126-.LEHB126
 4885 037e 9606     		.uleb128 .L459-.LFB1586
 4886 0380 00       		.uleb128 0
 4887 0381 9005     		.uleb128 .LEHB127-.LFB1586
 4888 0383 2E       		.uleb128 .LEHE127-.LEHB127
 4889 0384 EC05     		.uleb128 .L465-.LFB1586
 4890 0386 07       		.uleb128 0x7
 4891 0387 BE05     		.uleb128 .LEHB128-.LFB1586
 4892 0389 05       		.uleb128 .LEHE128-.LEHB128
 4893 038a C805     		.uleb128 .L464-.LFB1586
 4894 038c 07       		.uleb128 0x7
 4895 038d 9106     		.uleb128 .LEHB129-.LFB1586
 4896 038f 05       		.uleb128 .LEHE129-.LEHB129
 4897 0390 00       		.uleb128 0
 4898 0391 00       		.uleb128 0
 4899 0392 A006     		.uleb128 .LEHB130-.LFB1586
 4900 0394 17       		.uleb128 .LEHE130-.LEHB130
 4901 0395 9E07     		.uleb128 .L458-.LFB1586
 4902 0397 00       		.uleb128 0
 4903 0398 B706     		.uleb128 .LEHB131-.LFB1586
 4904 039a 05       		.uleb128 .LEHE131-.LEHB131
 4905 039b 00       		.uleb128 0
 4906 039c 00       		.uleb128 0
 4907 039d D806     		.uleb128 .LEHB132-.LFB1586
 4908 039f 41       		.uleb128 .LEHE132-.LEHB132
 4909 03a0 AE07     		.uleb128 .L461-.LFB1586
 4910 03a2 00       		.uleb128 0
 4911 03a3 A907     		.uleb128 .LEHB133-.LFB1586
 4912 03a5 05       		.uleb128 .LEHE133-.LEHB133
 4913 03a6 00       		.uleb128 0
 4914 03a7 00       		.uleb128 0
 4915              	.LLSDACSE1586:
 4916 03a8 03       		.byte	0x3
 4917 03a9 00       		.byte	0
 4918 03aa 02       		.byte	0x2
 4919 03ab 7D       		.byte	0x7d
 4920 03ac 01       		.byte	0x1
 4921 03ad 7D       		.byte	0x7d
 4922 03ae 00       		.byte	0
 4923 03af 7D       		.byte	0x7d
 4924              		.align 4
 4925 03b0 00000000 		.long	0
 4926              	
 4927 03b4 00000000 		.long	_ZTISt9exception
 4928 03b8 00000000 		.long	_ZTIN8UnitTest15AssertExceptionE
 4929              	.LLSDATT1586:
 4930              		.text
 4932              		.section	.text.unlikely
 4933              	.LCOLDE98:
 4934              		.text
 4935              	.LHOTE98:
 4936              		.section	.text.unlikely
 4937              		.align 2
 4938              	.LCOLDB99:
 4939              		.text
 4940              	.LHOTB99:
 4941 1f93 90       		.align 2
 4942 1f94 6690662E 		.p2align 4,,15
 4942      0F1F8400 
 4942      00000000 
 4944              	_ZNK12_GLOBAL__N_153TestTestRunnerFixtureSlowTestFailsForLowTimeThreshold7RunImplEv:
 4945              	.LFB1273:
 4946              		.cfi_startproc
 4947              		.cfi_personality 0x3,__gxx_personality_v0
 4948              		.cfi_lsda 0x3,.LLSDA1273
 4949 1fa0 4155     		pushq	%r13
 4950              		.cfi_def_cfa_offset 16
 4951              		.cfi_offset 13, -16
 4952 1fa2 4154     		pushq	%r12
 4953              		.cfi_def_cfa_offset 24
 4954              		.cfi_offset 12, -24
 4955 1fa4 55       		pushq	%rbp
 4956              		.cfi_def_cfa_offset 32
 4957              		.cfi_offset 6, -32
 4958 1fa5 53       		pushq	%rbx
 4959              		.cfi_def_cfa_offset 40
 4960              		.cfi_offset 3, -40
 4961 1fa6 4889FD   		movq	%rdi, %rbp
 4962 1fa9 488D5F08 		leaq	8(%rdi), %rbx
 4963 1fad 4881EC98 		subq	$2200, %rsp
 4963      080000
 4964              		.cfi_def_cfa_offset 2240
 4965 1fb4 64488B04 		movq	%fs:40, %rax
 4965      25280000 
 4965      00
 4966 1fbd 48898424 		movq	%rax, 2184(%rsp)
 4966      88080000 
 4967 1fc5 31C0     		xorl	%eax, %eax
 4968 1fc7 488D4424 		leaq	32(%rsp), %rax
 4968      20
 4969 1fcc 488D7424 		leaq	56(%rsp), %rsi
 4969      38
 4970 1fd1 4889C7   		movq	%rax, %rdi
 4971              	.LEHB134:
 4972 1fd4 E8000000 		call	_ZN8UnitTest10TestRunnerC1ERNS_12TestReporterE
 4972      00
 4973              	.LEHE134:
 4974 1fd9 488DBC24 		leaq	2152(%rsp), %rdi
 4974      68080000 
 4975 1fe1 48C74424 		movq	$_ZTV17RecordingReporter+16, 56(%rsp)
 4975      38000000 
 4975      00
 4976 1fea C7442440 		movl	$0, 64(%rsp)
 4976      00000000 
 4977 1ff2 C7842444 		movl	$0, 580(%rsp)
 4977      02000000 
 4977      000000
 4978 1ffd C7842448 		movl	$0, 840(%rsp)
 4978      03000000 
 4978      000000
 4979 2008 C784244C 		movl	$0, 1612(%rsp)
 4979      06000000 
 4979      000000
 4980 2013 C7842450 		movl	$0x00000000, 2128(%rsp)
 4980      08000000 
 4980      000000
 4981 201e C7842454 		movl	$0, 2132(%rsp)
 4981      08000000 
 4981      000000
 4982 2029 C7842458 		movl	$0, 2136(%rsp)
 4982      08000000 
 4982      000000
 4983 2034 C784245C 		movl	$0, 2140(%rsp)
 4983      08000000 
 4983      000000
 4984 203f C7842460 		movl	$0x00000000, 2144(%rsp)
 4984      08000000 
 4984      000000
 4985 204a C6442444 		movb	$0, 68(%rsp)
 4985      00
 4986 204f C6842444 		movb	$0, 324(%rsp)
 4986      01000000 
 4987 2057 C6842448 		movb	$0, 584(%rsp)
 4987      02000000 
 4988 205f C684244C 		movb	$0, 844(%rsp)
 4988      03000000 
 4989 2067 C684244C 		movb	$0, 1100(%rsp)
 4989      04000000 
 4990 206f C684244C 		movb	$0, 1356(%rsp)
 4990      05000000 
 4991 2077 C6842450 		movb	$0, 1616(%rsp)
 4991      06000000 
 4992 207f C6842450 		movb	$0, 1872(%rsp)
 4992      07000000 
 4993              	.LEHB135:
 4994 2087 E8000000 		call	_ZN8UnitTest8TestListC1Ev
 4994      00
 4995              	.LEHE135:
 4996 208c 488D7C24 		leaq	32(%rsp), %rdi
 4996      20
 4997 2091 4889DE   		movq	%rbx, %rsi
 4998 2094 48899C24 		movq	%rbx, 2168(%rsp)
 4998      78080000 
 4999              	.LEHB136:
 5000 209c E83FFBFF 		call	_ZN8UnitTest11ExecuteTestIN12_GLOBAL__N_155TestRunnerFixtureSlowTestFailsForLowTimeThresholdH
 5000      FF
 5001              	.LEHE136:
 5002 20a1 488D7C24 		leaq	56(%rsp), %rdi
 5002      38
 5003 20a6 48C74424 		movq	$_ZTV17RecordingReporter+16, 56(%rsp)
 5003      38000000 
 5003      00
 5004              	.LEHB137:
 5005 20af E8000000 		call	_ZN8UnitTest12TestReporterD2Ev
 5005      00
 5006              	.LEHE137:
 5007 20b4 488D7C24 		leaq	32(%rsp), %rdi
 5007      20
 5008              	.LEHB138:
 5009 20b9 E8000000 		call	_ZN8UnitTest10TestRunnerD1Ev
 5009      00
 5010              	.LEHE138:
 5011              	.L478:
 5012 20be 488B8424 		movq	2184(%rsp), %rax
 5012      88080000 
 5013 20c6 64483304 		xorq	%fs:40, %rax
 5013      25280000 
 5013      00
 5014 20cf 750E     		jne	.L517
 5015 20d1 4881C498 		addq	$2200, %rsp
 5015      080000
 5016              		.cfi_remember_state
 5017              		.cfi_def_cfa_offset 40
 5018 20d8 5B       		popq	%rbx
 5019              		.cfi_def_cfa_offset 32
 5020 20d9 5D       		popq	%rbp
 5021              		.cfi_def_cfa_offset 24
 5022 20da 415C     		popq	%r12
 5023              		.cfi_def_cfa_offset 16
 5024 20dc 415D     		popq	%r13
 5025              		.cfi_def_cfa_offset 8
 5026 20de C3       		ret
 5027              	.L517:
 5028              		.cfi_restore_state
 5029 20df E8000000 		call	__stack_chk_fail
 5029      00
 5030              	.L499:
 5031 20e4 4889C7   		movq	%rax, %rdi
 5032 20e7 41BC0100 		movl	$1, %r12d
 5032      0000
 5033              	.L481:
 5034 20ed 4883FA01 		cmpq	$1, %rdx
 5035 20f1 0F844501 		je	.L490
 5035      0000
 5036 20f7 4883FA02 		cmpq	$2, %rdx
 5037 20fb 0F85FE00 		jne	.L518
 5037      0000
 5038 2101 E8000000 		call	__cxa_begin_catch
 5038      00
 5039 2106 488D7C24 		leaq	32(%rsp), %rdi
 5039      20
 5040 210b 4889C5   		movq	%rax, %rbp
 5041              	.LEHB139:
 5042 210e E8000000 		call	_ZN8UnitTest15MemoryOutStreamC1Ev
 5042      00
 5043              	.LEHE139:
 5044 2113 488B4500 		movq	0(%rbp), %rax
 5045 2117 4889EF   		movq	%rbp, %rdi
 5046 211a FF5010   		call	*16(%rax)
 5047 211d 488D7C24 		leaq	32(%rsp), %rdi
 5047      20
 5048 2122 BA150000 		movl	$21, %edx
 5048      00
 5049 2127 BE000000 		movl	$.LC69, %esi
 5049      00
 5050 212c 4889C5   		movq	%rax, %rbp
 5051              	.LEHB140:
 5052 212f E8000000 		call	_ZSt16__ostream_insertIcSt11char_traitsIcEERSt13basic_ostreamIT_T0_ES6_PKS3_l
 5052      00
 5053 2134 488D7C24 		leaq	32(%rsp), %rdi
 5053      20
 5054 2139 4889EE   		movq	%rbp, %rsi
 5055 213c E8000000 		call	_ZStlsISt11char_traitsIcEERSt13basic_ostreamIcT_ES5_PKc
 5055      00
 5056 2141 488D7C24 		leaq	32(%rsp), %rdi
 5056      20
 5057 2146 E8000000 		call	_ZNK8UnitTest15MemoryOutStream7GetTextEv
 5057      00
 5058 214b 4889C5   		movq	%rax, %rbp
 5059 214e E8000000 		call	_ZN8UnitTest11CurrentTest7ResultsEv
 5059      00
 5060 2153 488B38   		movq	(%rax), %rdi
 5061 2156 4889EA   		movq	%rbp, %rdx
 5062 2159 4889DE   		movq	%rbx, %rsi
 5063 215c E8000000 		call	_ZN8UnitTest11TestResults13OnTestFailureERKNS_11TestDetailsEPKc
 5063      00
 5064              	.LEHE140:
 5065 2161 488D7C24 		leaq	32(%rsp), %rdi
 5065      20
 5066              	.LEHB141:
 5067 2166 E8000000 		call	_ZN8UnitTest15MemoryOutStreamD1Ev
 5067      00
 5068              	.LEHE141:
 5069              	.L512:
 5070 216b E8000000 		call	__cxa_end_catch
 5070      00
 5071 2170 E949FFFF 		jmp	.L478
 5071      FF
 5072              	.L506:
 5073 2175 488D7C24 		leaq	32(%rsp), %rdi
 5073      20
 5074 217a 4989D4   		movq	%rdx, %r12
 5075 217d 4989C5   		movq	%rax, %r13
 5076 2180 E8000000 		call	_ZN8UnitTest10TestRunnerD1Ev
 5076      00
 5077 2185 4C89E2   		movq	%r12, %rdx
 5078 2188 4C89EF   		movq	%r13, %rdi
 5079 218b 41BC0100 		movl	$1, %r12d
 5079      0000
 5080 2191 E957FFFF 		jmp	.L481
 5080      FF
 5081              	.L500:
 5082 2196 488D7C24 		leaq	32(%rsp), %rdi
 5082      20
 5083 219b 4989D4   		movq	%rdx, %r12
 5084 219e 4989C5   		movq	%rax, %r13
 5085 21a1 E8000000 		call	_ZN12_GLOBAL__N_111FixtureBaseD2Ev
 5085      00
 5086 21a6 4C89E2   		movq	%r12, %rdx
 5087 21a9 4C89EF   		movq	%r13, %rdi
 5088 21ac 41BC0100 		movl	$1, %r12d
 5088      0000
 5089 21b2 E936FFFF 		jmp	.L481
 5089      FF
 5090              	.L505:
 5091 21b7 488D7C24 		leaq	32(%rsp), %rdi
 5091      20
 5092 21bc 4989D4   		movq	%rdx, %r12
 5093 21bf 4989C5   		movq	%rax, %r13
 5094 21c2 E8000000 		call	_ZN12_GLOBAL__N_111FixtureBaseD2Ev
 5094      00
 5095 21c7 4C89E2   		movq	%r12, %rdx
 5096 21ca 4C89EF   		movq	%r13, %rdi
 5097 21cd 4531E4   		xorl	%r12d, %r12d
 5098 21d0 E918FFFF 		jmp	.L481
 5098      FF
 5099              	.L507:
 5100 21d5 4889C7   		movq	%rax, %rdi
 5101 21d8 4531E4   		xorl	%r12d, %r12d
 5102 21db E90DFFFF 		jmp	.L481
 5102      FF
 5103              	.L503:
 5104 21e0 488D7C24 		leaq	32(%rsp), %rdi
 5104      20
 5105 21e5 4889C3   		movq	%rax, %rbx
 5106 21e8 E8000000 		call	_ZN8UnitTest15MemoryOutStreamD1Ev
 5106      00
 5107              	.L496:
 5108 21ed E8000000 		call	__cxa_end_catch
 5108      00
 5109 21f2 4889DF   		movq	%rbx, %rdi
 5110              	.LEHB142:
 5111 21f5 E8000000 		call	_Unwind_Resume
 5111      00
 5112              	.LEHE142:
 5113              	.L502:
 5114              	.L513:
 5115 21fa 4889C3   		movq	%rax, %rbx
 5116 21fd EBEE     		jmp	.L496
 5117              	.L518:
 5118 21ff E8000000 		call	__cxa_begin_catch
 5118      00
 5119 2204 4584E4   		testb	%r12b, %r12b
 5120 2207 BAB30000 		movl	$179, %edx
 5120      00
 5121 220c 4889DE   		movq	%rbx, %rsi
 5122 220f 4889E7   		movq	%rsp, %rdi
 5123 2212 0F848900 		je	.L492
 5123      0000
 5124              	.LEHB143:
 5125 2218 E8000000 		call	_ZN8UnitTest11TestDetailsC1ERKS0_i
 5125      00
 5126 221d E8000000 		call	_ZN8UnitTest11CurrentTest7ResultsEv
 5126      00
 5127 2222 488B38   		movq	(%rax), %rdi
 5128 2225 BA000000 		movl	$.LC73, %edx
 5128      00
 5129 222a 4889E6   		movq	%rsp, %rsi
 5130 222d E8000000 		call	_ZN8UnitTest11TestResults13OnTestFailureERKNS_11TestDetailsEPKc
 5130      00
 5131              	.LEHE143:
 5132              	.L493:
 5133              	.LEHB144:
 5134 2232 E8000000 		call	__cxa_end_catch
 5134      00
 5135              	.LEHE144:
 5136 2237 E982FEFF 		jmp	.L478
 5136      FF
 5137              	.L490:
 5138 223c E8000000 		call	__cxa_begin_catch
 5138      00
 5139 2241 4889C3   		movq	%rax, %rbx
 5140 2244 488B00   		movq	(%rax), %rax
 5141 2247 4889DF   		movq	%rbx, %rdi
 5142 224a FF5010   		call	*16(%rax)
 5143 224d 4889DF   		movq	%rbx, %rdi
 5144 2250 4989C4   		movq	%rax, %r12
 5145              	.LEHB145:
 5146 2253 E8000000 		call	_ZNK8UnitTest15AssertException10LineNumberEv
 5146      00
 5147 2258 4889DF   		movq	%rbx, %rdi
 5148 225b 4189C5   		movl	%eax, %r13d
 5149 225e E8000000 		call	_ZNK8UnitTest15AssertException8FilenameEv
 5149      00
 5150 2263 488B5508 		movq	8(%rbp), %rdx
 5151 2267 488B7510 		movq	16(%rbp), %rsi
 5152 226b 4589E8   		movl	%r13d, %r8d
 5153 226e 4889C1   		movq	%rax, %rcx
 5154 2271 4889E7   		movq	%rsp, %rdi
 5155 2274 E8000000 		call	_ZN8UnitTest11TestDetailsC1EPKcS2_S2_i
 5155      00
 5156 2279 E8000000 		call	_ZN8UnitTest11CurrentTest7ResultsEv
 5156      00
 5157 227e 488B38   		movq	(%rax), %rdi
 5158 2281 4C89E2   		movq	%r12, %rdx
 5159 2284 4889E6   		movq	%rsp, %rsi
 5160 2287 E8000000 		call	_ZN8UnitTest11TestResults13OnTestFailureERKNS_11TestDetailsEPKc
 5160      00
 5161              	.LEHE145:
 5162 228c E9DAFEFF 		jmp	.L512
 5162      FF
 5163              	.L504:
 5164 2291 4889C3   		movq	%rax, %rbx
 5165 2294 E8000000 		call	__cxa_end_catch
 5165      00
 5166 2299 4889DF   		movq	%rbx, %rdi
 5167              	.LEHB146:
 5168 229c E8000000 		call	_Unwind_Resume
 5168      00
 5169              	.LEHE146:
 5170              	.L492:
 5171              	.LEHB147:
 5172 22a1 E8000000 		call	_ZN8UnitTest11TestDetailsC1ERKS0_i
 5172      00
 5173 22a6 E8000000 		call	_ZN8UnitTest11CurrentTest7ResultsEv
 5173      00
 5174 22ab 488B38   		movq	(%rax), %rdi
 5175 22ae BA000000 		movl	$.LC74, %edx
 5175      00
 5176 22b3 4889E6   		movq	%rsp, %rsi
 5177 22b6 E8000000 		call	_ZN8UnitTest11TestResults13OnTestFailureERKNS_11TestDetailsEPKc
 5177      00
 5178              	.LEHE147:
 5179 22bb E972FFFF 		jmp	.L493
 5179      FF
 5180              	.L501:
 5181 22c0 E935FFFF 		jmp	.L513
 5181      FF
 5182              		.cfi_endproc
 5183              	.LFE1273:
 5184              		.section	.gcc_except_table
 5185              		.align 4
 5186              	.LLSDA1273:
 5187 03bc FF       		.byte	0xff
 5188 03bd 03       		.byte	0x3
 5189 03be 69       		.uleb128 .LLSDATT1273-.LLSDATTD1273
 5190              	.LLSDATTD1273:
 5191 03bf 01       		.byte	0x1
 5192 03c0 50       		.uleb128 .LLSDACSE1273-.LLSDACSB1273
 5193              	.LLSDACSB1273:
 5194 03c1 34       		.uleb128 .LEHB134-.LFB1273
 5195 03c2 05       		.uleb128 .LEHE134-.LEHB134
 5196 03c3 B504     		.uleb128 .L507-.LFB1273
 5197 03c5 05       		.uleb128 0x5
 5198 03c6 E701     		.uleb128 .LEHB135-.LFB1273
 5199 03c8 05       		.uleb128 .LEHE135-.LEHB135
 5200 03c9 9704     		.uleb128 .L505-.LFB1273
 5201 03cb 07       		.uleb128 0x7
 5202 03cc FC01     		.uleb128 .LEHB136-.LFB1273
 5203 03ce 05       		.uleb128 .LEHE136-.LEHB136
 5204 03cf F603     		.uleb128 .L500-.LFB1273
 5205 03d1 07       		.uleb128 0x7
 5206 03d2 8F02     		.uleb128 .LEHB137-.LFB1273
 5207 03d4 05       		.uleb128 .LEHE137-.LEHB137
 5208 03d5 D503     		.uleb128 .L506-.LFB1273
 5209 03d7 07       		.uleb128 0x7
 5210 03d8 9902     		.uleb128 .LEHB138-.LFB1273
 5211 03da 05       		.uleb128 .LEHE138-.LEHB138
 5212 03db C402     		.uleb128 .L499-.LFB1273
 5213 03dd 05       		.uleb128 0x5
 5214 03de EE02     		.uleb128 .LEHB139-.LFB1273
 5215 03e0 05       		.uleb128 .LEHE139-.LEHB139
 5216 03e1 DA04     		.uleb128 .L502-.LFB1273
 5217 03e3 00       		.uleb128 0
 5218 03e4 8F03     		.uleb128 .LEHB140-.LFB1273
 5219 03e6 32       		.uleb128 .LEHE140-.LEHB140
 5220 03e7 C004     		.uleb128 .L503-.LFB1273
 5221 03e9 00       		.uleb128 0
 5222 03ea C603     		.uleb128 .LEHB141-.LFB1273
 5223 03ec 05       		.uleb128 .LEHE141-.LEHB141
 5224 03ed DA04     		.uleb128 .L502-.LFB1273
 5225 03ef 00       		.uleb128 0
 5226 03f0 D504     		.uleb128 .LEHB142-.LFB1273
 5227 03f2 05       		.uleb128 .LEHE142-.LEHB142
 5228 03f3 00       		.uleb128 0
 5229 03f4 00       		.uleb128 0
 5230 03f5 F804     		.uleb128 .LEHB143-.LFB1273
 5231 03f7 1A       		.uleb128 .LEHE143-.LEHB143
 5232 03f8 F105     		.uleb128 .L504-.LFB1273
 5233 03fa 00       		.uleb128 0
 5234 03fb 9205     		.uleb128 .LEHB144-.LFB1273
 5235 03fd 05       		.uleb128 .LEHE144-.LEHB144
 5236 03fe 00       		.uleb128 0
 5237 03ff 00       		.uleb128 0
 5238 0400 B305     		.uleb128 .LEHB145-.LFB1273
 5239 0402 39       		.uleb128 .LEHE145-.LEHB145
 5240 0403 A006     		.uleb128 .L501-.LFB1273
 5241 0405 00       		.uleb128 0
 5242 0406 FC05     		.uleb128 .LEHB146-.LFB1273
 5243 0408 05       		.uleb128 .LEHE146-.LEHB146
 5244 0409 00       		.uleb128 0
 5245 040a 00       		.uleb128 0
 5246 040b 8106     		.uleb128 .LEHB147-.LFB1273
 5247 040d 1A       		.uleb128 .LEHE147-.LEHB147
 5248 040e F105     		.uleb128 .L504-.LFB1273
 5249 0410 00       		.uleb128 0
 5250              	.LLSDACSE1273:
 5251 0411 03       		.byte	0x3
 5252 0412 00       		.byte	0
 5253 0413 02       		.byte	0x2
 5254 0414 7D       		.byte	0x7d
 5255 0415 01       		.byte	0x1
 5256 0416 7D       		.byte	0x7d
 5257 0417 00       		.byte	0
 5258 0418 7D       		.byte	0x7d
 5259 0419 000000   		.align 4
 5260 041c 00000000 		.long	0
 5261              	
 5262 0420 00000000 		.long	_ZTISt9exception
 5263 0424 00000000 		.long	_ZTIN8UnitTest15AssertExceptionE
 5264              	.LLSDATT1273:
 5265              		.text
 5267              		.section	.text.unlikely
 5268              	.LCOLDE99:
 5269              		.text
 5270              	.LHOTE99:
 5271              		.section	.text.unlikely
 5272              	.LCOLDB100:
 5273              		.text
 5274              	.LHOTB100:
 5275 22c5 90662E0F 		.p2align 4,,15
 5275      1F840000 
 5275      000000
 5277              	_ZN8UnitTest11ExecuteTestIN12_GLOBAL__N_157TestRunnerFixtureSlowTestPassesForHighTimeThresholdHelpe
 5278              	.LFB1585:
 5279              		.cfi_startproc
 5280              		.cfi_personality 0x3,__gxx_personality_v0
 5281              		.cfi_lsda 0x3,.LLSDA1585
 5282 22d0 4155     		pushq	%r13
 5283              		.cfi_def_cfa_offset 16
 5284              		.cfi_offset 13, -16
 5285 22d2 4154     		pushq	%r12
 5286              		.cfi_def_cfa_offset 24
 5287              		.cfi_offset 12, -24
 5288 22d4 55       		pushq	%rbp
 5289              		.cfi_def_cfa_offset 32
 5290              		.cfi_offset 6, -32
 5291 22d5 53       		pushq	%rbx
 5292              		.cfi_def_cfa_offset 40
 5293              		.cfi_offset 3, -40
 5294 22d6 4889F3   		movq	%rsi, %rbx
 5295 22d9 4881ECD8 		subq	$1752, %rsp
 5295      060000
 5296              		.cfi_def_cfa_offset 1792
 5297 22e0 48893C24 		movq	%rdi, (%rsp)
 5298 22e4 48897424 		movq	%rsi, 8(%rsp)
 5298      08
 5299 22e9 64488B04 		movq	%fs:40, %rax
 5299      25280000 
 5299      00
 5300 22f2 48898424 		movq	%rax, 1736(%rsp)
 5300      C8060000 
 5301 22fa 31C0     		xorl	%eax, %eax
 5302              	.LEHB148:
 5303 22fc E8000000 		call	_ZN8UnitTest11CurrentTest7DetailsEv
 5303      00
 5304              	.LEHE148:
 5305 2301 488DBC24 		leaq	608(%rsp), %rdi
 5305      60020000 
 5306 2309 488918   		movq	%rbx, (%rax)
 5307              	.LEHB149:
 5308 230c E8000000 		call	_ZN8UnitTest16SignalTranslatorC1Ev
 5308      00
 5309              	.LEHE149:
 5310 2311 488B3D00 		movq	_ZN8UnitTest16SignalTranslator12s_jumpTargetE(%rip), %rdi
 5310      000000
 5311 2318 BE010000 		movl	$1, %esi
 5311      00
 5312 231d E8000000 		call	__sigsetjmp
 5312      00
 5313 2322 85C0     		testl	%eax, %eax
 5314 2324 742A     		je	.L555
 5315 2326 BF080000 		movl	$8, %edi
 5315      00
 5316 232b E8000000 		call	__cxa_allocate_exception
 5316      00
 5317 2330 31D2     		xorl	%edx, %edx
 5318 2332 48C70000 		movq	$.LC61, (%rax)
 5318      000000
 5319 2339 BE000000 		movl	$_ZTIPKc, %esi
 5319      00
 5320 233e 4889C7   		movq	%rax, %rdi
 5321              	.LEHB150:
 5322 2341 E8000000 		call	__cxa_throw
 5322      00
 5323 2346 662E0F1F 		.p2align 4,,10
 5323      84000000 
 5323      0000
 5324              		.p2align 3
 5325              	.L555:
 5326 2350 488DBC24 		leaq	128(%rsp), %rdi
 5326      80000000 
 5327 2358 41B87B00 		movl	$123, %r8d
 5327      0000
 5328 235e B9000000 		movl	$.LC62, %ecx
 5328      00
 5329 2363 BA000000 		movl	$.LC63, %edx
 5329      00
 5330 2368 BE000000 		movl	$.LC64, %esi
 5330      00
 5331 236d E8000000 		call	_ZN8UnitTest4TestC2EPKcS2_S2_i
 5331      00
 5332              	.LEHE150:
 5333 2372 488B2C24 		movq	(%rsp), %rbp
 5334 2376 488DB424 		leaq	128(%rsp), %rsi
 5334      80000000 
 5335 237e 48C78424 		movq	$_ZTVN12_GLOBAL__N_18SlowTestE+16, 128(%rsp)
 5335      80000000 
 5335      00000000 
 5336 238a 488D9D48 		leaq	2120(%rbp), %rbx
 5336      080000
 5337 2391 4889DF   		movq	%rbx, %rdi
 5338              	.LEHB151:
 5339 2394 E8000000 		call	_ZN8UnitTest8TestList3AddEPNS_4TestE
 5339      00
 5340 2399 E8000000 		call	_ZN8UnitTest11CurrentTest7ResultsEv
 5340      00
 5341 239e 4C8B20   		movq	(%rax), %r12
 5342 23a1 E8000000 		call	_ZN8UnitTest11CurrentTest7DetailsEv
 5342      00
 5343 23a6 4889DF   		movq	%rbx, %rdi
 5344 23a9 4C8B28   		movq	(%rax), %r13
 5345 23ac E8000000 		call	_ZNK8UnitTest8TestList7GetHeadEv
 5345      00
 5346 23b1 4885C0   		testq	%rax, %rax
 5347 23b4 4889C3   		movq	%rax, %rbx
 5348 23b7 7436     		je	.L525
 5349 23b9 0F1F8000 		.p2align 4,,10
 5349      000000
 5350              		.p2align 3
 5351              	.L554:
 5352 23c0 31D2     		xorl	%edx, %edx
 5353 23c2 4889DE   		movq	%rbx, %rsi
 5354 23c5 4889EF   		movq	%rbp, %rdi
 5355 23c8 E8000000 		call	_ZNK8UnitTest10TestRunner13IsTestInSuiteEPKNS_4TestEPKc
 5355      00
 5356 23cd 84C0     		testb	%al, %al
 5357 23cf 7415     		je	.L543
 5358 23d1 488B0424 		movq	(%rsp), %rax
 5359 23d5 31C9     		xorl	%ecx, %ecx
 5360 23d7 4889DA   		movq	%rbx, %rdx
 5361 23da 4889EF   		movq	%rbp, %rdi
 5362 23dd 488B7008 		movq	8(%rax), %rsi
 5363 23e1 E8000000 		call	_ZNK8UnitTest10TestRunner7RunTestEPNS_11TestResultsEPNS_4TestEi
 5363      00
 5364              	.L543:
 5365 23e6 488B5B28 		movq	40(%rbx), %rbx
 5366 23ea 4885DB   		testq	%rbx, %rbx
 5367 23ed 75D1     		jne	.L554
 5368              	.L525:
 5369 23ef 488B3C24 		movq	(%rsp), %rdi
 5370 23f3 E8000000 		call	_ZNK8UnitTest10TestRunner6FinishEv
 5370      00
 5371 23f8 E8000000 		call	_ZN8UnitTest11CurrentTest7ResultsEv
 5371      00
 5372 23fd 4C8920   		movq	%r12, (%rax)
 5373 2400 E8000000 		call	_ZN8UnitTest11CurrentTest7DetailsEv
 5373      00
 5374              	.LEHE151:
 5375 2405 4C8928   		movq	%r13, (%rax)
 5376              	.LEHB152:
 5377 2408 E8000000 		call	_ZN8UnitTest11CurrentTest7DetailsEv
 5377      00
 5378 240d 488B30   		movq	(%rax), %rsi
 5379 2410 488D7C24 		leaq	96(%rsp), %rdi
 5379      60
 5380 2415 BAB00000 		movl	$176, %edx
 5380      00
 5381 241a E8000000 		call	_ZN8UnitTest11TestDetailsC1ERKS0_i
 5381      00
 5382 241f 488B1C24 		movq	(%rsp), %rbx
 5383 2423 C744241C 		movl	$0, 28(%rsp)
 5383      00000000 
 5384 242b 4881C324 		addq	$548, %rbx
 5384      020000
 5385 2432 E8000000 		call	_ZN8UnitTest11CurrentTest7ResultsEv
 5385      00
 5386 2437 488B38   		movq	(%rax), %rdi
 5387 243a 488D4C24 		leaq	96(%rsp), %rcx
 5387      60
 5388 243f 488D7424 		leaq	28(%rsp), %rsi
 5388      1C
 5389 2444 4889DA   		movq	%rbx, %rdx
 5390 2447 E8000000 		call	_ZN8UnitTest10CheckEqualIiiEEvRNS_11TestResultsERKT_RKT0_RKNS_11TestDetailsE
 5390      00
 5391              	.LEHE152:
 5392              	.L529:
 5393 244c 488DBC24 		leaq	128(%rsp), %rdi
 5393      80000000 
 5394 2454 48C78424 		movq	$_ZTVN12_GLOBAL__N_18SlowTestE+16, 128(%rsp)
 5394      80000000 
 5394      00000000 
 5395              	.LEHB153:
 5396 2460 E8000000 		call	_ZN8UnitTest4TestD2Ev
 5396      00
 5397              	.LEHE153:
 5398 2465 488DBC24 		leaq	608(%rsp), %rdi
 5398      60020000 
 5399              	.LEHB154:
 5400 246d E8000000 		call	_ZN8UnitTest16SignalTranslatorD1Ev
 5400      00
 5401              	.LEHE154:
 5402              	.L519:
 5403 2472 488B8424 		movq	1736(%rsp), %rax
 5403      C8060000 
 5404 247a 64483304 		xorq	%fs:40, %rax
 5404      25280000 
 5404      00
 5405 2483 0F85C700 		jne	.L563
 5405      0000
 5406 2489 4881C4D8 		addq	$1752, %rsp
 5406      060000
 5407              		.cfi_remember_state
 5408              		.cfi_def_cfa_offset 40
 5409 2490 5B       		popq	%rbx
 5410              		.cfi_def_cfa_offset 32
 5411 2491 5D       		popq	%rbp
 5412              		.cfi_def_cfa_offset 24
 5413 2492 415C     		popq	%r12
 5414              		.cfi_def_cfa_offset 16
 5415 2494 415D     		popq	%r13
 5416              		.cfi_def_cfa_offset 8
 5417 2496 C3       		ret
 5418              	.L550:
 5419              		.cfi_restore_state
 5420 2497 4889C3   		movq	%rax, %rbx
 5421 249a 4889D5   		movq	%rdx, %rbp
 5422              	.L532:
 5423 249d 488DBC24 		leaq	608(%rsp), %rdi
 5423      60020000 
 5424 24a5 E8000000 		call	_ZN8UnitTest16SignalTranslatorD1Ev
 5424      00
 5425 24aa 4889DF   		movq	%rbx, %rdi
 5426 24ad 4889EA   		movq	%rbp, %rdx
 5427              	.L533:
 5428 24b0 4883FA01 		cmpq	$1, %rdx
 5429 24b4 0F845401 		je	.L535
 5429      0000
 5430 24ba 4883FA02 		cmpq	$2, %rdx
 5431 24be 0F852401 		jne	.L564
 5431      0000
 5432 24c4 E8000000 		call	__cxa_begin_catch
 5432      00
 5433 24c9 488DBC24 		leaq	192(%rsp), %rdi
 5433      C0000000 
 5434 24d1 4889C3   		movq	%rax, %rbx
 5435              	.LEHB155:
 5436 24d4 E8000000 		call	_ZN8UnitTest15MemoryOutStreamC1Ev
 5436      00
 5437              	.LEHE155:
 5438 24d9 488B03   		movq	(%rbx), %rax
 5439 24dc 4889DF   		movq	%rbx, %rdi
 5440 24df FF5010   		call	*16(%rax)
 5441 24e2 488DBC24 		leaq	192(%rsp), %rdi
 5441      C0000000 
 5442 24ea BA150000 		movl	$21, %edx
 5442      00
 5443 24ef BE000000 		movl	$.LC69, %esi
 5443      00
 5444 24f4 4889C3   		movq	%rax, %rbx
 5445              	.LEHB156:
 5446 24f7 E8000000 		call	_ZSt16__ostream_insertIcSt11char_traitsIcEERSt13basic_ostreamIT_T0_ES6_PKS3_l
 5446      00
 5447 24fc 488DBC24 		leaq	192(%rsp), %rdi
 5447      C0000000 
 5448 2504 4889DE   		movq	%rbx, %rsi
 5449 2507 E8000000 		call	_ZStlsISt11char_traitsIcEERSt13basic_ostreamIcT_ES5_PKc
 5449      00
 5450 250c 488DBC24 		leaq	192(%rsp), %rdi
 5450      C0000000 
 5451 2514 E8000000 		call	_ZNK8UnitTest15MemoryOutStream7GetTextEv
 5451      00
 5452 2519 4889C3   		movq	%rax, %rbx
 5453 251c E8000000 		call	_ZN8UnitTest11CurrentTest7ResultsEv
 5453      00
 5454 2521 488B7424 		movq	8(%rsp), %rsi
 5454      08
 5455 2526 488B38   		movq	(%rax), %rdi
 5456 2529 4889DA   		movq	%rbx, %rdx
 5457 252c E8000000 		call	_ZN8UnitTest11TestResults13OnTestFailureERKNS_11TestDetailsEPKc
 5457      00
 5458              	.LEHE156:
 5459 2531 488DBC24 		leaq	192(%rsp), %rdi
 5459      C0000000 
 5460              	.LEHB157:
 5461 2539 E8000000 		call	_ZN8UnitTest15MemoryOutStreamD1Ev
 5461      00
 5462              	.LEHE157:
 5463              	.L559:
 5464 253e E8000000 		call	__cxa_end_catch
 5464      00
 5465 2543 E92AFFFF 		jmp	.L519
 5465      FF
 5466              	.L549:
 5467 2548 4889C7   		movq	%rax, %rdi
 5468 254b E960FFFF 		jmp	.L533
 5468      FF
 5469              	.L563:
 5470 2550 E8000000 		call	__stack_chk_fail
 5470      00
 5471              	.L553:
 5472 2555 4889C7   		movq	%rax, %rdi
 5473 2558 E8000000 		call	__cxa_begin_catch
 5473      00
 5474              	.LEHB158:
 5475 255d E8000000 		call	_ZN8UnitTest11CurrentTest7DetailsEv
 5475      00
 5476 2562 488B30   		movq	(%rax), %rsi
 5477 2565 488D7C24 		leaq	64(%rsp), %rdi
 5477      40
 5478 256a BAB00000 		movl	$176, %edx
 5478      00
 5479 256f E8000000 		call	_ZN8UnitTest11TestDetailsC1ERKS0_i
 5479      00
 5480 2574 E8000000 		call	_ZN8UnitTest11CurrentTest7ResultsEv
 5480      00
 5481 2579 488B38   		movq	(%rax), %rdi
 5482 257c 488D7424 		leaq	64(%rsp), %rsi
 5482      40
 5483 2581 BA000000 		movl	$.LC82, %edx
 5483      00
 5484 2586 E8000000 		call	_ZN8UnitTest11TestResults13OnTestFailureERKNS_11TestDetailsEPKc
 5484      00
 5485              	.LEHE158:
 5486              	.LEHB159:
 5487 258b E8000000 		call	__cxa_end_catch
 5487      00
 5488              	.LEHE159:
 5489 2590 E9B7FEFF 		jmp	.L529
 5489      FF
 5490              	.L551:
 5491 2595 4889C3   		movq	%rax, %rbx
 5492 2598 4889D5   		movq	%rdx, %rbp
 5493              	.L531:
 5494 259b 488DBC24 		leaq	128(%rsp), %rdi
 5494      80000000 
 5495 25a3 48C78424 		movq	$_ZTVN12_GLOBAL__N_18SlowTestE+16, 128(%rsp)
 5495      80000000 
 5495      00000000 
 5496 25af E8000000 		call	_ZN8UnitTest4TestD2Ev
 5496      00
 5497 25b4 E9E4FEFF 		jmp	.L532
 5497      FF
 5498              	.L552:
 5499 25b9 4889C3   		movq	%rax, %rbx
 5500 25bc 4889D5   		movq	%rdx, %rbp
 5501 25bf E8000000 		call	__cxa_end_catch
 5501      00
 5502 25c4 EBD5     		jmp	.L531
 5503              	.L547:
 5504 25c6 488DBC24 		leaq	192(%rsp), %rdi
 5504      C0000000 
 5505 25ce 4889C3   		movq	%rax, %rbx
 5506 25d1 E8000000 		call	_ZN8UnitTest15MemoryOutStreamD1Ev
 5506      00
 5507              	.L541:
 5508 25d6 E8000000 		call	__cxa_end_catch
 5508      00
 5509 25db 4889DF   		movq	%rbx, %rdi
 5510              	.LEHB160:
 5511 25de E8000000 		call	_Unwind_Resume
 5511      00
 5512              	.LEHE160:
 5513              	.L546:
 5514              	.L560:
 5515 25e3 4889C3   		movq	%rax, %rbx
 5516 25e6 EBEE     		jmp	.L541
 5517              	.L564:
 5518 25e8 E8000000 		call	__cxa_begin_catch
 5518      00
 5519              	.LEHB161:
 5520 25ed E8000000 		call	_ZN8UnitTest11CurrentTest7ResultsEv
 5520      00
 5521 25f2 488B7424 		movq	8(%rsp), %rsi
 5521      08
 5522 25f7 488B38   		movq	(%rax), %rdi
 5523 25fa BA000000 		movl	$.LC70, %edx
 5523      00
 5524 25ff E8000000 		call	_ZN8UnitTest11TestResults13OnTestFailureERKNS_11TestDetailsEPKc
 5524      00
 5525              	.LEHE161:
 5526              	.LEHB162:
 5527 2604 E8000000 		call	__cxa_end_catch
 5527      00
 5528              	.LEHE162:
 5529 2609 E964FEFF 		jmp	.L519
 5529      FF
 5530              	.L535:
 5531 260e E8000000 		call	__cxa_begin_catch
 5531      00
 5532 2613 4889C3   		movq	%rax, %rbx
 5533 2616 488B00   		movq	(%rax), %rax
 5534 2619 4889DF   		movq	%rbx, %rdi
 5535 261c FF5010   		call	*16(%rax)
 5536 261f 4889DF   		movq	%rbx, %rdi
 5537 2622 4889C5   		movq	%rax, %rbp
 5538              	.LEHB163:
 5539 2625 E8000000 		call	_ZNK8UnitTest15AssertException10LineNumberEv
 5539      00
 5540 262a 4889DF   		movq	%rbx, %rdi
 5541 262d 4189C4   		movl	%eax, %r12d
 5542 2630 E8000000 		call	_ZNK8UnitTest15AssertException8FilenameEv
 5542      00
 5543 2635 488B5424 		movq	8(%rsp), %rdx
 5543      08
 5544 263a 488D7C24 		leaq	32(%rsp), %rdi
 5544      20
 5545 263f 4589E0   		movl	%r12d, %r8d
 5546 2642 4889C1   		movq	%rax, %rcx
 5547 2645 488B7208 		movq	8(%rdx), %rsi
 5548 2649 488B12   		movq	(%rdx), %rdx
 5549 264c E8000000 		call	_ZN8UnitTest11TestDetailsC1EPKcS2_S2_i
 5549      00
 5550 2651 E8000000 		call	_ZN8UnitTest11CurrentTest7ResultsEv
 5550      00
 5551 2656 488B38   		movq	(%rax), %rdi
 5552 2659 488D7424 		leaq	32(%rsp), %rsi
 5552      20
 5553 265e 4889EA   		movq	%rbp, %rdx
 5554 2661 E8000000 		call	_ZN8UnitTest11TestResults13OnTestFailureERKNS_11TestDetailsEPKc
 5554      00
 5555              	.LEHE163:
 5556 2666 E9D3FEFF 		jmp	.L559
 5556      FF
 5557              	.L545:
 5558 266b 4889C3   		movq	%rax, %rbx
 5559 266e E8000000 		call	__cxa_end_catch
 5559      00
 5560 2673 4889DF   		movq	%rbx, %rdi
 5561              	.LEHB164:
 5562 2676 E8000000 		call	_Unwind_Resume
 5562      00
 5563              	.LEHE164:
 5564              	.L548:
 5565 267b E963FFFF 		jmp	.L560
 5565      FF
 5566              		.cfi_endproc
 5567              	.LFE1585:
 5568              		.section	.gcc_except_table
 5569              		.align 4
 5570              	.LLSDA1585:
 5571 0428 FF       		.byte	0xff
 5572 0429 03       		.byte	0x3
 5573 042a 75       		.uleb128 .LLSDATT1585-.LLSDATTD1585
 5574              	.LLSDATTD1585:
 5575 042b 01       		.byte	0x1
 5576 042c 5F       		.uleb128 .LLSDACSE1585-.LLSDACSB1585
 5577              	.LLSDACSB1585:
 5578 042d 2C       		.uleb128 .LEHB148-.LFB1585
 5579 042e 05       		.uleb128 .LEHE148-.LEHB148
 5580 042f 00       		.uleb128 0
 5581 0430 00       		.uleb128 0
 5582 0431 3C       		.uleb128 .LEHB149-.LFB1585
 5583 0432 05       		.uleb128 .LEHE149-.LEHB149
 5584 0433 F804     		.uleb128 .L549-.LFB1585
 5585 0435 05       		.uleb128 0x5
 5586 0436 71       		.uleb128 .LEHB150-.LFB1585
 5587 0437 31       		.uleb128 .LEHE150-.LEHB150
 5588 0438 C703     		.uleb128 .L550-.LFB1585
 5589 043a 07       		.uleb128 0x7
 5590 043b C401     		.uleb128 .LEHB151-.LFB1585
 5591 043d 71       		.uleb128 .LEHE151-.LEHB151
 5592 043e C505     		.uleb128 .L551-.LFB1585
 5593 0440 07       		.uleb128 0x7
 5594 0441 B802     		.uleb128 .LEHB152-.LFB1585
 5595 0443 44       		.uleb128 .LEHE152-.LEHB152
 5596 0444 8505     		.uleb128 .L553-.LFB1585
 5597 0446 01       		.uleb128 0x1
 5598 0447 9003     		.uleb128 .LEHB153-.LFB1585
 5599 0449 05       		.uleb128 .LEHE153-.LEHB153
 5600 044a C703     		.uleb128 .L550-.LFB1585
 5601 044c 07       		.uleb128 0x7
 5602 044d 9D03     		.uleb128 .LEHB154-.LFB1585
 5603 044f 05       		.uleb128 .LEHE154-.LEHB154
 5604 0450 F804     		.uleb128 .L549-.LFB1585
 5605 0452 05       		.uleb128 0x5
 5606 0453 8404     		.uleb128 .LEHB155-.LFB1585
 5607 0455 05       		.uleb128 .LEHE155-.LEHB155
 5608 0456 9306     		.uleb128 .L546-.LFB1585
 5609 0458 00       		.uleb128 0
 5610 0459 A704     		.uleb128 .LEHB156-.LFB1585
 5611 045b 3A       		.uleb128 .LEHE156-.LEHB156
 5612 045c F605     		.uleb128 .L547-.LFB1585
 5613 045e 00       		.uleb128 0
 5614 045f E904     		.uleb128 .LEHB157-.LFB1585
 5615 0461 05       		.uleb128 .LEHE157-.LEHB157
 5616 0462 9306     		.uleb128 .L546-.LFB1585
 5617 0464 00       		.uleb128 0
 5618 0465 8D05     		.uleb128 .LEHB158-.LFB1585
 5619 0467 2E       		.uleb128 .LEHE158-.LEHB158
 5620 0468 E905     		.uleb128 .L552-.LFB1585
 5621 046a 07       		.uleb128 0x7
 5622 046b BB05     		.uleb128 .LEHB159-.LFB1585
 5623 046d 05       		.uleb128 .LEHE159-.LEHB159
 5624 046e C505     		.uleb128 .L551-.LFB1585
 5625 0470 07       		.uleb128 0x7
 5626 0471 8E06     		.uleb128 .LEHB160-.LFB1585
 5627 0473 05       		.uleb128 .LEHE160-.LEHB160
 5628 0474 00       		.uleb128 0
 5629 0475 00       		.uleb128 0
 5630 0476 9D06     		.uleb128 .LEHB161-.LFB1585
 5631 0478 17       		.uleb128 .LEHE161-.LEHB161
 5632 0479 9B07     		.uleb128 .L545-.LFB1585
 5633 047b 00       		.uleb128 0
 5634 047c B406     		.uleb128 .LEHB162-.LFB1585
 5635 047e 05       		.uleb128 .LEHE162-.LEHB162
 5636 047f 00       		.uleb128 0
 5637 0480 00       		.uleb128 0
 5638 0481 D506     		.uleb128 .LEHB163-.LFB1585
 5639 0483 41       		.uleb128 .LEHE163-.LEHB163
 5640 0484 AB07     		.uleb128 .L548-.LFB1585
 5641 0486 00       		.uleb128 0
 5642 0487 A607     		.uleb128 .LEHB164-.LFB1585
 5643 0489 05       		.uleb128 .LEHE164-.LEHB164
 5644 048a 00       		.uleb128 0
 5645 048b 00       		.uleb128 0
 5646              	.LLSDACSE1585:
 5647 048c 03       		.byte	0x3
 5648 048d 00       		.byte	0
 5649 048e 02       		.byte	0x2
 5650 048f 7D       		.byte	0x7d
 5651 0490 01       		.byte	0x1
 5652 0491 7D       		.byte	0x7d
 5653 0492 00       		.byte	0
 5654 0493 7D       		.byte	0x7d
 5655              		.align 4
 5656 0494 00000000 		.long	0
 5657              	
 5658 0498 00000000 		.long	_ZTISt9exception
 5659 049c 00000000 		.long	_ZTIN8UnitTest15AssertExceptionE
 5660              	.LLSDATT1585:
 5661              		.text
 5663              		.section	.text.unlikely
 5664              	.LCOLDE100:
 5665              		.text
 5666              	.LHOTE100:
 5667              		.section	.text.unlikely
 5668              		.align 2
 5669              	.LCOLDB101:
 5670              		.text
 5671              	.LHOTB101:
 5672              		.align 2
 5673              		.p2align 4,,15
 5675              	_ZNK12_GLOBAL__N_155TestTestRunnerFixtureSlowTestPassesForHighTimeThreshold7RunImplEv:
 5676              	.LFB1262:
 5677              		.cfi_startproc
 5678              		.cfi_personality 0x3,__gxx_personality_v0
 5679              		.cfi_lsda 0x3,.LLSDA1262
 5680 2680 4155     		pushq	%r13
 5681              		.cfi_def_cfa_offset 16
 5682              		.cfi_offset 13, -16
 5683 2682 4154     		pushq	%r12
 5684              		.cfi_def_cfa_offset 24
 5685              		.cfi_offset 12, -24
 5686 2684 55       		pushq	%rbp
 5687              		.cfi_def_cfa_offset 32
 5688              		.cfi_offset 6, -32
 5689 2685 53       		pushq	%rbx
 5690              		.cfi_def_cfa_offset 40
 5691              		.cfi_offset 3, -40
 5692 2686 4889FD   		movq	%rdi, %rbp
 5693 2689 488D5F08 		leaq	8(%rdi), %rbx
 5694 268d 4881EC98 		subq	$2200, %rsp
 5694      080000
 5695              		.cfi_def_cfa_offset 2240
 5696 2694 64488B04 		movq	%fs:40, %rax
 5696      25280000 
 5696      00
 5697 269d 48898424 		movq	%rax, 2184(%rsp)
 5697      88080000 
 5698 26a5 31C0     		xorl	%eax, %eax
 5699 26a7 488D4424 		leaq	32(%rsp), %rax
 5699      20
 5700 26ac 488D7424 		leaq	56(%rsp), %rsi
 5700      38
 5701 26b1 4889C7   		movq	%rax, %rdi
 5702              	.LEHB165:
 5703 26b4 E8000000 		call	_ZN8UnitTest10TestRunnerC1ERNS_12TestReporterE
 5703      00
 5704              	.LEHE165:
 5705 26b9 488DBC24 		leaq	2152(%rsp), %rdi
 5705      68080000 
 5706 26c1 48C74424 		movq	$_ZTV17RecordingReporter+16, 56(%rsp)
 5706      38000000 
 5706      00
 5707 26ca C7442440 		movl	$0, 64(%rsp)
 5707      00000000 
 5708 26d2 C7842444 		movl	$0, 580(%rsp)
 5708      02000000 
 5708      000000
 5709 26dd C7842448 		movl	$0, 840(%rsp)
 5709      03000000 
 5709      000000
 5710 26e8 C784244C 		movl	$0, 1612(%rsp)
 5710      06000000 
 5710      000000
 5711 26f3 C7842450 		movl	$0x00000000, 2128(%rsp)
 5711      08000000 
 5711      000000
 5712 26fe C7842454 		movl	$0, 2132(%rsp)
 5712      08000000 
 5712      000000
 5713 2709 C7842458 		movl	$0, 2136(%rsp)
 5713      08000000 
 5713      000000
 5714 2714 C784245C 		movl	$0, 2140(%rsp)
 5714      08000000 
 5714      000000
 5715 271f C7842460 		movl	$0x00000000, 2144(%rsp)
 5715      08000000 
 5715      000000
 5716 272a C6442444 		movb	$0, 68(%rsp)
 5716      00
 5717 272f C6842444 		movb	$0, 324(%rsp)
 5717      01000000 
 5718 2737 C6842448 		movb	$0, 584(%rsp)
 5718      02000000 
 5719 273f C684244C 		movb	$0, 844(%rsp)
 5719      03000000 
 5720 2747 C684244C 		movb	$0, 1100(%rsp)
 5720      04000000 
 5721 274f C684244C 		movb	$0, 1356(%rsp)
 5721      05000000 
 5722 2757 C6842450 		movb	$0, 1616(%rsp)
 5722      06000000 
 5723 275f C6842450 		movb	$0, 1872(%rsp)
 5723      07000000 
 5724              	.LEHB166:
 5725 2767 E8000000 		call	_ZN8UnitTest8TestListC1Ev
 5725      00
 5726              	.LEHE166:
 5727 276c 488D7C24 		leaq	32(%rsp), %rdi
 5727      20
 5728 2771 4889DE   		movq	%rbx, %rsi
 5729 2774 48899C24 		movq	%rbx, 2168(%rsp)
 5729      78080000 
 5730              	.LEHB167:
 5731 277c E84FFBFF 		call	_ZN8UnitTest11ExecuteTestIN12_GLOBAL__N_157TestRunnerFixtureSlowTestPassesForHighTimeThreshol
 5731      FF
 5732              	.LEHE167:
 5733 2781 488D7C24 		leaq	56(%rsp), %rdi
 5733      38
 5734 2786 48C74424 		movq	$_ZTV17RecordingReporter+16, 56(%rsp)
 5734      38000000 
 5734      00
 5735              	.LEHB168:
 5736 278f E8000000 		call	_ZN8UnitTest12TestReporterD2Ev
 5736      00
 5737              	.LEHE168:
 5738 2794 488D7C24 		leaq	32(%rsp), %rdi
 5738      20
 5739              	.LEHB169:
 5740 2799 E8000000 		call	_ZN8UnitTest10TestRunnerD1Ev
 5740      00
 5741              	.LEHE169:
 5742              	.L565:
 5743 279e 488B8424 		movq	2184(%rsp), %rax
 5743      88080000 
 5744 27a6 64483304 		xorq	%fs:40, %rax
 5744      25280000 
 5744      00
 5745 27af 750E     		jne	.L604
 5746 27b1 4881C498 		addq	$2200, %rsp
 5746      080000
 5747              		.cfi_remember_state
 5748              		.cfi_def_cfa_offset 40
 5749 27b8 5B       		popq	%rbx
 5750              		.cfi_def_cfa_offset 32
 5751 27b9 5D       		popq	%rbp
 5752              		.cfi_def_cfa_offset 24
 5753 27ba 415C     		popq	%r12
 5754              		.cfi_def_cfa_offset 16
 5755 27bc 415D     		popq	%r13
 5756              		.cfi_def_cfa_offset 8
 5757 27be C3       		ret
 5758              	.L604:
 5759              		.cfi_restore_state
 5760 27bf E8000000 		call	__stack_chk_fail
 5760      00
 5761              	.L586:
 5762 27c4 4889C7   		movq	%rax, %rdi
 5763 27c7 41BC0100 		movl	$1, %r12d
 5763      0000
 5764              	.L568:
 5765 27cd 4883FA01 		cmpq	$1, %rdx
 5766 27d1 0F844501 		je	.L577
 5766      0000
 5767 27d7 4883FA02 		cmpq	$2, %rdx
 5768 27db 0F85FE00 		jne	.L605
 5768      0000
 5769 27e1 E8000000 		call	__cxa_begin_catch
 5769      00
 5770 27e6 488D7C24 		leaq	32(%rsp), %rdi
 5770      20
 5771 27eb 4889C5   		movq	%rax, %rbp
 5772              	.LEHB170:
 5773 27ee E8000000 		call	_ZN8UnitTest15MemoryOutStreamC1Ev
 5773      00
 5774              	.LEHE170:
 5775 27f3 488B4500 		movq	0(%rbp), %rax
 5776 27f7 4889EF   		movq	%rbp, %rdi
 5777 27fa FF5010   		call	*16(%rax)
 5778 27fd 488D7C24 		leaq	32(%rsp), %rdi
 5778      20
 5779 2802 BA150000 		movl	$21, %edx
 5779      00
 5780 2807 BE000000 		movl	$.LC69, %esi
 5780      00
 5781 280c 4889C5   		movq	%rax, %rbp
 5782              	.LEHB171:
 5783 280f E8000000 		call	_ZSt16__ostream_insertIcSt11char_traitsIcEERSt13basic_ostreamIT_T0_ES6_PKS3_l
 5783      00
 5784 2814 488D7C24 		leaq	32(%rsp), %rdi
 5784      20
 5785 2819 4889EE   		movq	%rbp, %rsi
 5786 281c E8000000 		call	_ZStlsISt11char_traitsIcEERSt13basic_ostreamIcT_ES5_PKc
 5786      00
 5787 2821 488D7C24 		leaq	32(%rsp), %rdi
 5787      20
 5788 2826 E8000000 		call	_ZNK8UnitTest15MemoryOutStream7GetTextEv
 5788      00
 5789 282b 4889C5   		movq	%rax, %rbp
 5790 282e E8000000 		call	_ZN8UnitTest11CurrentTest7ResultsEv
 5790      00
 5791 2833 488B38   		movq	(%rax), %rdi
 5792 2836 4889EA   		movq	%rbp, %rdx
 5793 2839 4889DE   		movq	%rbx, %rsi
 5794 283c E8000000 		call	_ZN8UnitTest11TestResults13OnTestFailureERKNS_11TestDetailsEPKc
 5794      00
 5795              	.LEHE171:
 5796 2841 488D7C24 		leaq	32(%rsp), %rdi
 5796      20
 5797              	.LEHB172:
 5798 2846 E8000000 		call	_ZN8UnitTest15MemoryOutStreamD1Ev
 5798      00
 5799              	.LEHE172:
 5800              	.L599:
 5801 284b E8000000 		call	__cxa_end_catch
 5801      00
 5802 2850 E949FFFF 		jmp	.L565
 5802      FF
 5803              	.L593:
 5804 2855 488D7C24 		leaq	32(%rsp), %rdi
 5804      20
 5805 285a 4989D4   		movq	%rdx, %r12
 5806 285d 4989C5   		movq	%rax, %r13
 5807 2860 E8000000 		call	_ZN8UnitTest10TestRunnerD1Ev
 5807      00
 5808 2865 4C89E2   		movq	%r12, %rdx
 5809 2868 4C89EF   		movq	%r13, %rdi
 5810 286b 41BC0100 		movl	$1, %r12d
 5810      0000
 5811 2871 E957FFFF 		jmp	.L568
 5811      FF
 5812              	.L587:
 5813 2876 488D7C24 		leaq	32(%rsp), %rdi
 5813      20
 5814 287b 4989D4   		movq	%rdx, %r12
 5815 287e 4989C5   		movq	%rax, %r13
 5816 2881 E8000000 		call	_ZN12_GLOBAL__N_111FixtureBaseD2Ev
 5816      00
 5817 2886 4C89E2   		movq	%r12, %rdx
 5818 2889 4C89EF   		movq	%r13, %rdi
 5819 288c 41BC0100 		movl	$1, %r12d
 5819      0000
 5820 2892 E936FFFF 		jmp	.L568
 5820      FF
 5821              	.L592:
 5822 2897 488D7C24 		leaq	32(%rsp), %rdi
 5822      20
 5823 289c 4989D4   		movq	%rdx, %r12
 5824 289f 4989C5   		movq	%rax, %r13
 5825 28a2 E8000000 		call	_ZN12_GLOBAL__N_111FixtureBaseD2Ev
 5825      00
 5826 28a7 4C89E2   		movq	%r12, %rdx
 5827 28aa 4C89EF   		movq	%r13, %rdi
 5828 28ad 4531E4   		xorl	%r12d, %r12d
 5829 28b0 E918FFFF 		jmp	.L568
 5829      FF
 5830              	.L594:
 5831 28b5 4889C7   		movq	%rax, %rdi
 5832 28b8 4531E4   		xorl	%r12d, %r12d
 5833 28bb E90DFFFF 		jmp	.L568
 5833      FF
 5834              	.L590:
 5835 28c0 488D7C24 		leaq	32(%rsp), %rdi
 5835      20
 5836 28c5 4889C3   		movq	%rax, %rbx
 5837 28c8 E8000000 		call	_ZN8UnitTest15MemoryOutStreamD1Ev
 5837      00
 5838              	.L583:
 5839 28cd E8000000 		call	__cxa_end_catch
 5839      00
 5840 28d2 4889DF   		movq	%rbx, %rdi
 5841              	.LEHB173:
 5842 28d5 E8000000 		call	_Unwind_Resume
 5842      00
 5843              	.LEHE173:
 5844              	.L589:
 5845              	.L600:
 5846 28da 4889C3   		movq	%rax, %rbx
 5847 28dd EBEE     		jmp	.L583
 5848              	.L605:
 5849 28df E8000000 		call	__cxa_begin_catch
 5849      00
 5850 28e4 4584E4   		testb	%r12b, %r12b
 5851 28e7 BAAA0000 		movl	$170, %edx
 5851      00
 5852 28ec 4889DE   		movq	%rbx, %rsi
 5853 28ef 4889E7   		movq	%rsp, %rdi
 5854 28f2 0F848900 		je	.L579
 5854      0000
 5855              	.LEHB174:
 5856 28f8 E8000000 		call	_ZN8UnitTest11TestDetailsC1ERKS0_i
 5856      00
 5857 28fd E8000000 		call	_ZN8UnitTest11CurrentTest7ResultsEv
 5857      00
 5858 2902 488B38   		movq	(%rax), %rdi
 5859 2905 BA000000 		movl	$.LC73, %edx
 5859      00
 5860 290a 4889E6   		movq	%rsp, %rsi
 5861 290d E8000000 		call	_ZN8UnitTest11TestResults13OnTestFailureERKNS_11TestDetailsEPKc
 5861      00
 5862              	.LEHE174:
 5863              	.L580:
 5864              	.LEHB175:
 5865 2912 E8000000 		call	__cxa_end_catch
 5865      00
 5866              	.LEHE175:
 5867 2917 E982FEFF 		jmp	.L565
 5867      FF
 5868              	.L577:
 5869 291c E8000000 		call	__cxa_begin_catch
 5869      00
 5870 2921 4889C3   		movq	%rax, %rbx
 5871 2924 488B00   		movq	(%rax), %rax
 5872 2927 4889DF   		movq	%rbx, %rdi
 5873 292a FF5010   		call	*16(%rax)
 5874 292d 4889DF   		movq	%rbx, %rdi
 5875 2930 4989C4   		movq	%rax, %r12
 5876              	.LEHB176:
 5877 2933 E8000000 		call	_ZNK8UnitTest15AssertException10LineNumberEv
 5877      00
 5878 2938 4889DF   		movq	%rbx, %rdi
 5879 293b 4189C5   		movl	%eax, %r13d
 5880 293e E8000000 		call	_ZNK8UnitTest15AssertException8FilenameEv
 5880      00
 5881 2943 488B5508 		movq	8(%rbp), %rdx
 5882 2947 488B7510 		movq	16(%rbp), %rsi
 5883 294b 4589E8   		movl	%r13d, %r8d
 5884 294e 4889C1   		movq	%rax, %rcx
 5885 2951 4889E7   		movq	%rsp, %rdi
 5886 2954 E8000000 		call	_ZN8UnitTest11TestDetailsC1EPKcS2_S2_i
 5886      00
 5887 2959 E8000000 		call	_ZN8UnitTest11CurrentTest7ResultsEv
 5887      00
 5888 295e 488B38   		movq	(%rax), %rdi
 5889 2961 4C89E2   		movq	%r12, %rdx
 5890 2964 4889E6   		movq	%rsp, %rsi
 5891 2967 E8000000 		call	_ZN8UnitTest11TestResults13OnTestFailureERKNS_11TestDetailsEPKc
 5891      00
 5892              	.LEHE176:
 5893 296c E9DAFEFF 		jmp	.L599
 5893      FF
 5894              	.L591:
 5895 2971 4889C3   		movq	%rax, %rbx
 5896 2974 E8000000 		call	__cxa_end_catch
 5896      00
 5897 2979 4889DF   		movq	%rbx, %rdi
 5898              	.LEHB177:
 5899 297c E8000000 		call	_Unwind_Resume
 5899      00
 5900              	.LEHE177:
 5901              	.L579:
 5902              	.LEHB178:
 5903 2981 E8000000 		call	_ZN8UnitTest11TestDetailsC1ERKS0_i
 5903      00
 5904 2986 E8000000 		call	_ZN8UnitTest11CurrentTest7ResultsEv
 5904      00
 5905 298b 488B38   		movq	(%rax), %rdi
 5906 298e BA000000 		movl	$.LC74, %edx
 5906      00
 5907 2993 4889E6   		movq	%rsp, %rsi
 5908 2996 E8000000 		call	_ZN8UnitTest11TestResults13OnTestFailureERKNS_11TestDetailsEPKc
 5908      00
 5909              	.LEHE178:
 5910 299b E972FFFF 		jmp	.L580
 5910      FF
 5911              	.L588:
 5912 29a0 E935FFFF 		jmp	.L600
 5912      FF
 5913              		.cfi_endproc
 5914              	.LFE1262:
 5915              		.section	.gcc_except_table
 5916              		.align 4
 5917              	.LLSDA1262:
 5918 04a0 FF       		.byte	0xff
 5919 04a1 03       		.byte	0x3
 5920 04a2 69       		.uleb128 .LLSDATT1262-.LLSDATTD1262
 5921              	.LLSDATTD1262:
 5922 04a3 01       		.byte	0x1
 5923 04a4 50       		.uleb128 .LLSDACSE1262-.LLSDACSB1262
 5924              	.LLSDACSB1262:
 5925 04a5 34       		.uleb128 .LEHB165-.LFB1262
 5926 04a6 05       		.uleb128 .LEHE165-.LEHB165
 5927 04a7 B504     		.uleb128 .L594-.LFB1262
 5928 04a9 05       		.uleb128 0x5
 5929 04aa E701     		.uleb128 .LEHB166-.LFB1262
 5930 04ac 05       		.uleb128 .LEHE166-.LEHB166
 5931 04ad 9704     		.uleb128 .L592-.LFB1262
 5932 04af 07       		.uleb128 0x7
 5933 04b0 FC01     		.uleb128 .LEHB167-.LFB1262
 5934 04b2 05       		.uleb128 .LEHE167-.LEHB167
 5935 04b3 F603     		.uleb128 .L587-.LFB1262
 5936 04b5 07       		.uleb128 0x7
 5937 04b6 8F02     		.uleb128 .LEHB168-.LFB1262
 5938 04b8 05       		.uleb128 .LEHE168-.LEHB168
 5939 04b9 D503     		.uleb128 .L593-.LFB1262
 5940 04bb 07       		.uleb128 0x7
 5941 04bc 9902     		.uleb128 .LEHB169-.LFB1262
 5942 04be 05       		.uleb128 .LEHE169-.LEHB169
 5943 04bf C402     		.uleb128 .L586-.LFB1262
 5944 04c1 05       		.uleb128 0x5
 5945 04c2 EE02     		.uleb128 .LEHB170-.LFB1262
 5946 04c4 05       		.uleb128 .LEHE170-.LEHB170
 5947 04c5 DA04     		.uleb128 .L589-.LFB1262
 5948 04c7 00       		.uleb128 0
 5949 04c8 8F03     		.uleb128 .LEHB171-.LFB1262
 5950 04ca 32       		.uleb128 .LEHE171-.LEHB171
 5951 04cb C004     		.uleb128 .L590-.LFB1262
 5952 04cd 00       		.uleb128 0
 5953 04ce C603     		.uleb128 .LEHB172-.LFB1262
 5954 04d0 05       		.uleb128 .LEHE172-.LEHB172
 5955 04d1 DA04     		.uleb128 .L589-.LFB1262
 5956 04d3 00       		.uleb128 0
 5957 04d4 D504     		.uleb128 .LEHB173-.LFB1262
 5958 04d6 05       		.uleb128 .LEHE173-.LEHB173
 5959 04d7 00       		.uleb128 0
 5960 04d8 00       		.uleb128 0
 5961 04d9 F804     		.uleb128 .LEHB174-.LFB1262
 5962 04db 1A       		.uleb128 .LEHE174-.LEHB174
 5963 04dc F105     		.uleb128 .L591-.LFB1262
 5964 04de 00       		.uleb128 0
 5965 04df 9205     		.uleb128 .LEHB175-.LFB1262
 5966 04e1 05       		.uleb128 .LEHE175-.LEHB175
 5967 04e2 00       		.uleb128 0
 5968 04e3 00       		.uleb128 0
 5969 04e4 B305     		.uleb128 .LEHB176-.LFB1262
 5970 04e6 39       		.uleb128 .LEHE176-.LEHB176
 5971 04e7 A006     		.uleb128 .L588-.LFB1262
 5972 04e9 00       		.uleb128 0
 5973 04ea FC05     		.uleb128 .LEHB177-.LFB1262
 5974 04ec 05       		.uleb128 .LEHE177-.LEHB177
 5975 04ed 00       		.uleb128 0
 5976 04ee 00       		.uleb128 0
 5977 04ef 8106     		.uleb128 .LEHB178-.LFB1262
 5978 04f1 1A       		.uleb128 .LEHE178-.LEHB178
 5979 04f2 F105     		.uleb128 .L591-.LFB1262
 5980 04f4 00       		.uleb128 0
 5981              	.LLSDACSE1262:
 5982 04f5 03       		.byte	0x3
 5983 04f6 00       		.byte	0
 5984 04f7 02       		.byte	0x2
 5985 04f8 7D       		.byte	0x7d
 5986 04f9 01       		.byte	0x1
 5987 04fa 7D       		.byte	0x7d
 5988 04fb 00       		.byte	0
 5989 04fc 7D       		.byte	0x7d
 5990 04fd 000000   		.align 4
 5991 0500 00000000 		.long	0
 5992              	
 5993 0504 00000000 		.long	_ZTISt9exception
 5994 0508 00000000 		.long	_ZTIN8UnitTest15AssertExceptionE
 5995              	.LLSDATT1262:
 5996              		.text
 5998              		.section	.text.unlikely
 5999              	.LCOLDE101:
 6000              		.text
 6001              	.LHOTE101:
 6002              		.section	.rodata.str1.1
 6003              	.LC102:
 6004 00bb 44656661 		.string	"DefaultSuite"
 6004      756C7453 
 6004      75697465 
 6004      00
 6005              	.LC103:
 6006 00c8 74657374 		.string	"test"
 6006      00
 6007              		.section	.rodata.str1.8
 6008              		.align 8
 6009              	.LC104:
 6010 0448 556E6861 		.string	"Unhandled exception in CHECK_EQUAL(5, reporter.summaryFailureCount)"
 6010      6E646C65 
 6010      64206578 
 6010      63657074 
 6010      696F6E20 
 6011              		.section	.text.unlikely
 6012              	.LCOLDB105:
 6013              		.text
 6014              	.LHOTB105:
 6015 29a5 90662E0F 		.p2align 4,,15
 6015      1F840000 
 6015      000000
 6017              	_ZN8UnitTest11ExecuteTestIN12_GLOBAL__N_149TestRunnerFixtureReporterNotifiedOfFailuresHelperEEEvRT_
 6018              	.LFB1584:
 6019              		.cfi_startproc
 6020              		.cfi_personality 0x3,__gxx_personality_v0
 6021              		.cfi_lsda 0x3,.LLSDA1584
 6022 29b0 4155     		pushq	%r13
 6023              		.cfi_def_cfa_offset 16
 6024              		.cfi_offset 13, -16
 6025 29b2 4154     		pushq	%r12
 6026              		.cfi_def_cfa_offset 24
 6027              		.cfi_offset 12, -24
 6028 29b4 55       		pushq	%rbp
 6029              		.cfi_def_cfa_offset 32
 6030              		.cfi_offset 6, -32
 6031 29b5 53       		pushq	%rbx
 6032              		.cfi_def_cfa_offset 40
 6033              		.cfi_offset 3, -40
 6034 29b6 4889F3   		movq	%rsi, %rbx
 6035 29b9 4881EC58 		subq	$1880, %rsp
 6035      070000
 6036              		.cfi_def_cfa_offset 1920
 6037 29c0 48893C24 		movq	%rdi, (%rsp)
 6038 29c4 48897424 		movq	%rsi, 8(%rsp)
 6038      08
 6039 29c9 64488B04 		movq	%fs:40, %rax
 6039      25280000 
 6039      00
 6040 29d2 48898424 		movq	%rax, 1864(%rsp)
 6040      48070000 
 6041 29da 31C0     		xorl	%eax, %eax
 6042              	.LEHB179:
 6043 29dc E8000000 		call	_ZN8UnitTest11CurrentTest7DetailsEv
 6043      00
 6044              	.LEHE179:
 6045 29e1 488DBC24 		leaq	736(%rsp), %rdi
 6045      E0020000 
 6046 29e9 488918   		movq	%rbx, (%rax)
 6047              	.LEHB180:
 6048 29ec E8000000 		call	_ZN8UnitTest16SignalTranslatorC1Ev
 6048      00
 6049              	.LEHE180:
 6050 29f1 488B3D00 		movq	_ZN8UnitTest16SignalTranslator12s_jumpTargetE(%rip), %rdi
 6050      000000
 6051 29f8 BE010000 		movl	$1, %esi
 6051      00
 6052 29fd E8000000 		call	__sigsetjmp
 6052      00
 6053 2a02 85C0     		testl	%eax, %eax
 6054 2a04 742A     		je	.L646
 6055 2a06 BF080000 		movl	$8, %edi
 6055      00
 6056 2a0b E8000000 		call	__cxa_allocate_exception
 6056      00
 6057 2a10 31D2     		xorl	%edx, %edx
 6058 2a12 48C70000 		movq	$.LC61, (%rax)
 6058      000000
 6059 2a19 BE000000 		movl	$_ZTIPKc, %esi
 6059      00
 6060 2a1e 4889C7   		movq	%rax, %rdi
 6061              	.LEHB181:
 6062 2a21 E8000000 		call	__cxa_throw
 6062      00
 6063 2a26 662E0F1F 		.p2align 4,,10
 6063      84000000 
 6063      0000
 6064              		.p2align 3
 6065              	.L646:
 6066 2a30 488DBC24 		leaq	128(%rsp), %rdi
 6066      80000000 
 6067 2a38 4531C0   		xorl	%r8d, %r8d
 6068 2a3b B9000000 		movl	$.LC80, %ecx
 6068      00
 6069 2a40 BA000000 		movl	$.LC102, %edx
 6069      00
 6070 2a45 BE000000 		movl	$.LC103, %esi
 6070      00
 6071 2a4a E8000000 		call	_ZN8UnitTest4TestC2EPKcS2_S2_i
 6071      00
 6072              	.LEHE181:
 6073 2a4f 488DBC24 		leaq	192(%rsp), %rdi
 6073      C0000000 
 6074 2a57 4531C0   		xorl	%r8d, %r8d
 6075 2a5a B9000000 		movl	$.LC80, %ecx
 6075      00
 6076 2a5f BA000000 		movl	$.LC102, %edx
 6076      00
 6077 2a64 BE000000 		movl	$.LC103, %esi
 6077      00
 6078 2a69 48C78424 		movq	$_ZTVN12_GLOBAL__N_18MockTestE+16, 128(%rsp)
 6078      80000000 
 6078      00000000 
 6079 2a75 C68424B1 		movb	$0, 177(%rsp)
 6079      00000000 
 6080 2a7d C68424B2 		movb	$0, 178(%rsp)
 6080      00000000 
 6081 2a85 C78424B4 		movl	$2, 180(%rsp)
 6081      00000002 
 6081      000000
 6082              	.LEHB182:
 6083 2a90 E8000000 		call	_ZN8UnitTest4TestC2EPKcS2_S2_i
 6083      00
 6084              	.LEHE182:
 6085 2a95 488DBC24 		leaq	256(%rsp), %rdi
 6085      00010000 
 6086 2a9d 4531C0   		xorl	%r8d, %r8d
 6087 2aa0 B9000000 		movl	$.LC80, %ecx
 6087      00
 6088 2aa5 BA000000 		movl	$.LC102, %edx
 6088      00
 6089 2aaa BE000000 		movl	$.LC103, %esi
 6089      00
 6090 2aaf 48C78424 		movq	$_ZTVN12_GLOBAL__N_18MockTestE+16, 192(%rsp)
 6090      C0000000 
 6090      00000000 
 6091 2abb C68424F1 		movb	$1, 241(%rsp)
 6091      00000001 
 6092 2ac3 C68424F2 		movb	$0, 242(%rsp)
 6092      00000000 
 6093 2acb C78424F4 		movl	$1, 244(%rsp)
 6093      00000001 
 6093      000000
 6094              	.LEHB183:
 6095 2ad6 E8000000 		call	_ZN8UnitTest4TestC2EPKcS2_S2_i
 6095      00
 6096              	.LEHE183:
 6097 2adb 488B2C24 		movq	(%rsp), %rbp
 6098 2adf 488DB424 		leaq	128(%rsp), %rsi
 6098      80000000 
 6099 2ae7 48C78424 		movq	$_ZTVN12_GLOBAL__N_18MockTestE+16, 256(%rsp)
 6099      00010000 
 6099      00000000 
 6100 2af3 C6842431 		movb	$0, 305(%rsp)
 6100      01000000 
 6101 2afb C6842432 		movb	$0, 306(%rsp)
 6101      01000000 
 6102 2b03 C7842434 		movl	$3, 308(%rsp)
 6102      01000003 
 6102      000000
 6103 2b0e 488D9D48 		leaq	2120(%rbp), %rbx
 6103      080000
 6104 2b15 4889DF   		movq	%rbx, %rdi
 6105              	.LEHB184:
 6106 2b18 E8000000 		call	_ZN8UnitTest8TestList3AddEPNS_4TestE
 6106      00
 6107 2b1d 488DB424 		leaq	192(%rsp), %rsi
 6107      C0000000 
 6108 2b25 4889DF   		movq	%rbx, %rdi
 6109 2b28 E8000000 		call	_ZN8UnitTest8TestList3AddEPNS_4TestE
 6109      00
 6110 2b2d 488DB424 		leaq	256(%rsp), %rsi
 6110      00010000 
 6111 2b35 4889DF   		movq	%rbx, %rdi
 6112 2b38 E8000000 		call	_ZN8UnitTest8TestList3AddEPNS_4TestE
 6112      00
 6113 2b3d E8000000 		call	_ZN8UnitTest11CurrentTest7ResultsEv
 6113      00
 6114 2b42 4C8B20   		movq	(%rax), %r12
 6115 2b45 E8000000 		call	_ZN8UnitTest11CurrentTest7DetailsEv
 6115      00
 6116 2b4a 4889DF   		movq	%rbx, %rdi
 6117 2b4d 4C8B28   		movq	(%rax), %r13
 6118 2b50 E8000000 		call	_ZNK8UnitTest8TestList7GetHeadEv
 6118      00
 6119 2b55 4885C0   		testq	%rax, %rax
 6120 2b58 4889C3   		movq	%rax, %rbx
 6121 2b5b 7432     		je	.L612
 6122 2b5d 0F1F00   		.p2align 4,,10
 6123              		.p2align 3
 6124              	.L645:
 6125 2b60 31D2     		xorl	%edx, %edx
 6126 2b62 4889DE   		movq	%rbx, %rsi
 6127 2b65 4889EF   		movq	%rbp, %rdi
 6128 2b68 E8000000 		call	_ZNK8UnitTest10TestRunner13IsTestInSuiteEPKNS_4TestEPKc
 6128      00
 6129 2b6d 84C0     		testb	%al, %al
 6130 2b6f 7415     		je	.L632
 6131 2b71 488B0424 		movq	(%rsp), %rax
 6132 2b75 31C9     		xorl	%ecx, %ecx
 6133 2b77 4889DA   		movq	%rbx, %rdx
 6134 2b7a 4889EF   		movq	%rbp, %rdi
 6135 2b7d 488B7008 		movq	8(%rax), %rsi
 6136 2b81 E8000000 		call	_ZNK8UnitTest10TestRunner7RunTestEPNS_11TestResultsEPNS_4TestEi
 6136      00
 6137              	.L632:
 6138 2b86 488B5B28 		movq	40(%rbx), %rbx
 6139 2b8a 4885DB   		testq	%rbx, %rbx
 6140 2b8d 75D1     		jne	.L645
 6141              	.L612:
 6142 2b8f 488B3C24 		movq	(%rsp), %rdi
 6143 2b93 E8000000 		call	_ZNK8UnitTest10TestRunner6FinishEv
 6143      00
 6144 2b98 E8000000 		call	_ZN8UnitTest11CurrentTest7ResultsEv
 6144      00
 6145 2b9d 4C8920   		movq	%r12, (%rax)
 6146 2ba0 E8000000 		call	_ZN8UnitTest11CurrentTest7DetailsEv
 6146      00
 6147              	.LEHE184:
 6148 2ba5 4C8928   		movq	%r13, (%rax)
 6149              	.LEHB185:
 6150 2ba8 E8000000 		call	_ZN8UnitTest11CurrentTest7DetailsEv
 6150      00
 6151 2bad 488B30   		movq	(%rax), %rsi
 6152 2bb0 488D7C24 		leaq	96(%rsp), %rdi
 6152      60
 6153 2bb5 BAA70000 		movl	$167, %edx
 6153      00
 6154 2bba E8000000 		call	_ZN8UnitTest11TestDetailsC1ERKS0_i
 6154      00
 6155 2bbf 488B1C24 		movq	(%rsp), %rbx
 6156 2bc3 C744241C 		movl	$5, 28(%rsp)
 6156      05000000 
 6157 2bcb 4881C33C 		addq	$2108, %rbx
 6157      080000
 6158 2bd2 E8000000 		call	_ZN8UnitTest11CurrentTest7ResultsEv
 6158      00
 6159 2bd7 488B38   		movq	(%rax), %rdi
 6160 2bda 488D4C24 		leaq	96(%rsp), %rcx
 6160      60
 6161 2bdf 488D7424 		leaq	28(%rsp), %rsi
 6161      1C
 6162 2be4 4889DA   		movq	%rbx, %rdx
 6163 2be7 E8000000 		call	_ZN8UnitTest10CheckEqualIiiEEvRNS_11TestResultsERKT_RKT0_RKNS_11TestDetailsE
 6163      00
 6164              	.LEHE185:
 6165              	.L616:
 6166 2bec 488DBC24 		leaq	256(%rsp), %rdi
 6166      00010000 
 6167 2bf4 48C78424 		movq	$_ZTVN12_GLOBAL__N_18MockTestE+16, 256(%rsp)
 6167      00010000 
 6167      00000000 
 6168              	.LEHB186:
 6169 2c00 E8000000 		call	_ZN8UnitTest4TestD2Ev
 6169      00
 6170              	.LEHE186:
 6171 2c05 488DBC24 		leaq	192(%rsp), %rdi
 6171      C0000000 
 6172 2c0d 48C78424 		movq	$_ZTVN12_GLOBAL__N_18MockTestE+16, 192(%rsp)
 6172      C0000000 
 6172      00000000 
 6173              	.LEHB187:
 6174 2c19 E8000000 		call	_ZN8UnitTest4TestD2Ev
 6174      00
 6175              	.LEHE187:
 6176 2c1e 488DBC24 		leaq	128(%rsp), %rdi
 6176      80000000 
 6177 2c26 48C78424 		movq	$_ZTVN12_GLOBAL__N_18MockTestE+16, 128(%rsp)
 6177      80000000 
 6177      00000000 
 6178              	.LEHB188:
 6179 2c32 E8000000 		call	_ZN8UnitTest4TestD2Ev
 6179      00
 6180              	.LEHE188:
 6181 2c37 488DBC24 		leaq	736(%rsp), %rdi
 6181      E0020000 
 6182              	.LEHB189:
 6183 2c3f E8000000 		call	_ZN8UnitTest16SignalTranslatorD1Ev
 6183      00
 6184              	.LEHE189:
 6185              	.L606:
 6186 2c44 488B8424 		movq	1864(%rsp), %rax
 6186      48070000 
 6187 2c4c 64483304 		xorq	%fs:40, %rax
 6187      25280000 
 6187      00
 6188 2c55 0F85C700 		jne	.L654
 6188      0000
 6189 2c5b 4881C458 		addq	$1880, %rsp
 6189      070000
 6190              		.cfi_remember_state
 6191              		.cfi_def_cfa_offset 40
 6192 2c62 5B       		popq	%rbx
 6193              		.cfi_def_cfa_offset 32
 6194 2c63 5D       		popq	%rbp
 6195              		.cfi_def_cfa_offset 24
 6196 2c64 415C     		popq	%r12
 6197              		.cfi_def_cfa_offset 16
 6198 2c66 415D     		popq	%r13
 6199              		.cfi_def_cfa_offset 8
 6200 2c68 C3       		ret
 6201              	.L639:
 6202              		.cfi_restore_state
 6203 2c69 4889C3   		movq	%rax, %rbx
 6204 2c6c 4889D5   		movq	%rdx, %rbp
 6205              	.L621:
 6206 2c6f 488DBC24 		leaq	736(%rsp), %rdi
 6206      E0020000 
 6207 2c77 E8000000 		call	_ZN8UnitTest16SignalTranslatorD1Ev
 6207      00
 6208 2c7c 4889DF   		movq	%rbx, %rdi
 6209 2c7f 4889EA   		movq	%rbp, %rdx
 6210              	.L622:
 6211 2c82 4883FA01 		cmpq	$1, %rdx
 6212 2c86 0F84E300 		je	.L624
 6212      0000
 6213 2c8c 4883FA02 		cmpq	$2, %rdx
 6214 2c90 0F85B300 		jne	.L655
 6214      0000
 6215 2c96 E8000000 		call	__cxa_begin_catch
 6215      00
 6216 2c9b 488DBC24 		leaq	320(%rsp), %rdi
 6216      40010000 
 6217 2ca3 4889C3   		movq	%rax, %rbx
 6218              	.LEHB190:
 6219 2ca6 E8000000 		call	_ZN8UnitTest15MemoryOutStreamC1Ev
 6219      00
 6220              	.LEHE190:
 6221 2cab 488B03   		movq	(%rbx), %rax
 6222 2cae 4889DF   		movq	%rbx, %rdi
 6223 2cb1 FF5010   		call	*16(%rax)
 6224 2cb4 488DBC24 		leaq	320(%rsp), %rdi
 6224      40010000 
 6225 2cbc BA150000 		movl	$21, %edx
 6225      00
 6226 2cc1 BE000000 		movl	$.LC69, %esi
 6226      00
 6227 2cc6 4889C3   		movq	%rax, %rbx
 6228              	.LEHB191:
 6229 2cc9 E8000000 		call	_ZSt16__ostream_insertIcSt11char_traitsIcEERSt13basic_ostreamIT_T0_ES6_PKS3_l
 6229      00
 6230 2cce 488DBC24 		leaq	320(%rsp), %rdi
 6230      40010000 
 6231 2cd6 4889DE   		movq	%rbx, %rsi
 6232 2cd9 E8000000 		call	_ZStlsISt11char_traitsIcEERSt13basic_ostreamIcT_ES5_PKc
 6232      00
 6233 2cde 488DBC24 		leaq	320(%rsp), %rdi
 6233      40010000 
 6234 2ce6 E8000000 		call	_ZNK8UnitTest15MemoryOutStream7GetTextEv
 6234      00
 6235 2ceb 4889C3   		movq	%rax, %rbx
 6236 2cee E8000000 		call	_ZN8UnitTest11CurrentTest7ResultsEv
 6236      00
 6237 2cf3 488B7424 		movq	8(%rsp), %rsi
 6237      08
 6238 2cf8 488B38   		movq	(%rax), %rdi
 6239 2cfb 4889DA   		movq	%rbx, %rdx
 6240 2cfe E8000000 		call	_ZN8UnitTest11TestResults13OnTestFailureERKNS_11TestDetailsEPKc
 6240      00
 6241              	.LEHE191:
 6242 2d03 488DBC24 		leaq	320(%rsp), %rdi
 6242      40010000 
 6243              	.LEHB192:
 6244 2d0b E8000000 		call	_ZN8UnitTest15MemoryOutStreamD1Ev
 6244      00
 6245              	.LEHE192:
 6246              	.L650:
 6247 2d10 E8000000 		call	__cxa_end_catch
 6247      00
 6248 2d15 E92AFFFF 		jmp	.L606
 6248      FF
 6249              	.L638:
 6250 2d1a 4889C7   		movq	%rax, %rdi
 6251 2d1d E960FFFF 		jmp	.L622
 6251      FF
 6252              	.L654:
 6253 2d22 E8000000 		call	__stack_chk_fail
 6253      00
 6254              	.L636:
 6255 2d27 488DBC24 		leaq	320(%rsp), %rdi
 6255      40010000 
 6256 2d2f 4889C3   		movq	%rax, %rbx
 6257 2d32 E8000000 		call	_ZN8UnitTest15MemoryOutStreamD1Ev
 6257      00
 6258              	.L630:
 6259 2d37 E8000000 		call	__cxa_end_catch
 6259      00
 6260 2d3c 4889DF   		movq	%rbx, %rdi
 6261              	.LEHB193:
 6262 2d3f E8000000 		call	_Unwind_Resume
 6262      00
 6263              	.LEHE193:
 6264              	.L635:
 6265              	.L651:
 6266 2d44 4889C3   		movq	%rax, %rbx
 6267 2d47 EBEE     		jmp	.L630
 6268              	.L655:
 6269 2d49 E8000000 		call	__cxa_begin_catch
 6269      00
 6270              	.LEHB194:
 6271 2d4e E8000000 		call	_ZN8UnitTest11CurrentTest7ResultsEv
 6271      00
 6272 2d53 488B7424 		movq	8(%rsp), %rsi
 6272      08
 6273 2d58 488B38   		movq	(%rax), %rdi
 6274 2d5b BA000000 		movl	$.LC70, %edx
 6274      00
 6275 2d60 E8000000 		call	_ZN8UnitTest11TestResults13OnTestFailureERKNS_11TestDetailsEPKc
 6275      00
 6276              	.LEHE194:
 6277              	.LEHB195:
 6278 2d65 E8000000 		call	__cxa_end_catch
 6278      00
 6279              	.LEHE195:
 6280 2d6a E9D5FEFF 		jmp	.L606
 6280      FF
 6281              	.L624:
 6282 2d6f E8000000 		call	__cxa_begin_catch
 6282      00
 6283 2d74 4889C3   		movq	%rax, %rbx
 6284 2d77 488B00   		movq	(%rax), %rax
 6285 2d7a 4889DF   		movq	%rbx, %rdi
 6286 2d7d FF5010   		call	*16(%rax)
 6287 2d80 4889DF   		movq	%rbx, %rdi
 6288 2d83 4889C5   		movq	%rax, %rbp
 6289              	.LEHB196:
 6290 2d86 E8000000 		call	_ZNK8UnitTest15AssertException10LineNumberEv
 6290      00
 6291 2d8b 4889DF   		movq	%rbx, %rdi
 6292 2d8e 4189C4   		movl	%eax, %r12d
 6293 2d91 E8000000 		call	_ZNK8UnitTest15AssertException8FilenameEv
 6293      00
 6294 2d96 488B5424 		movq	8(%rsp), %rdx
 6294      08
 6295 2d9b 488D7C24 		leaq	32(%rsp), %rdi
 6295      20
 6296 2da0 4589E0   		movl	%r12d, %r8d
 6297 2da3 4889C1   		movq	%rax, %rcx
 6298 2da6 488B7208 		movq	8(%rdx), %rsi
 6299 2daa 488B12   		movq	(%rdx), %rdx
 6300 2dad E8000000 		call	_ZN8UnitTest11TestDetailsC1EPKcS2_S2_i
 6300      00
 6301 2db2 E8000000 		call	_ZN8UnitTest11CurrentTest7ResultsEv
 6301      00
 6302 2db7 488B38   		movq	(%rax), %rdi
 6303 2dba 488D7424 		leaq	32(%rsp), %rsi
 6303      20
 6304 2dbf 4889EA   		movq	%rbp, %rdx
 6305 2dc2 E8000000 		call	_ZN8UnitTest11TestResults13OnTestFailureERKNS_11TestDetailsEPKc
 6305      00
 6306              	.LEHE196:
 6307 2dc7 E944FFFF 		jmp	.L650
 6307      FF
 6308              	.L634:
 6309 2dcc 4889C3   		movq	%rax, %rbx
 6310 2dcf E8000000 		call	__cxa_end_catch
 6310      00
 6311 2dd4 4889DF   		movq	%rbx, %rdi
 6312              	.LEHB197:
 6313 2dd7 E8000000 		call	_Unwind_Resume
 6313      00
 6314              	.LEHE197:
 6315              	.L637:
 6316 2ddc E963FFFF 		jmp	.L651
 6316      FF
 6317              	.L644:
 6318 2de1 4889C7   		movq	%rax, %rdi
 6319 2de4 E8000000 		call	__cxa_begin_catch
 6319      00
 6320              	.LEHB198:
 6321 2de9 E8000000 		call	_ZN8UnitTest11CurrentTest7DetailsEv
 6321      00
 6322 2dee 488B30   		movq	(%rax), %rsi
 6323 2df1 488D7C24 		leaq	64(%rsp), %rdi
 6323      40
 6324 2df6 BAA70000 		movl	$167, %edx
 6324      00
 6325 2dfb E8000000 		call	_ZN8UnitTest11TestDetailsC1ERKS0_i
 6325      00
 6326 2e00 E8000000 		call	_ZN8UnitTest11CurrentTest7ResultsEv
 6326      00
 6327 2e05 488B38   		movq	(%rax), %rdi
 6328 2e08 488D7424 		leaq	64(%rsp), %rsi
 6328      40
 6329 2e0d BA000000 		movl	$.LC104, %edx
 6329      00
 6330 2e12 E8000000 		call	_ZN8UnitTest11TestResults13OnTestFailureERKNS_11TestDetailsEPKc
 6330      00
 6331              	.LEHE198:
 6332              	.LEHB199:
 6333 2e17 E8000000 		call	__cxa_end_catch
 6333      00
 6334              	.LEHE199:
 6335 2e1c E9CBFDFF 		jmp	.L616
 6335      FF
 6336              	.L642:
 6337 2e21 4889C3   		movq	%rax, %rbx
 6338 2e24 4889D5   		movq	%rdx, %rbp
 6339              	.L618:
 6340 2e27 488DBC24 		leaq	256(%rsp), %rdi
 6340      00010000 
 6341 2e2f 48C78424 		movq	$_ZTVN12_GLOBAL__N_18MockTestE+16, 256(%rsp)
 6341      00010000 
 6341      00000000 
 6342 2e3b E8000000 		call	_ZN8UnitTest4TestD2Ev
 6342      00
 6343              	.L619:
 6344 2e40 488DBC24 		leaq	192(%rsp), %rdi
 6344      C0000000 
 6345 2e48 48C78424 		movq	$_ZTVN12_GLOBAL__N_18MockTestE+16, 192(%rsp)
 6345      C0000000 
 6345      00000000 
 6346 2e54 E8000000 		call	_ZN8UnitTest4TestD2Ev
 6346      00
 6347              	.L620:
 6348 2e59 488DBC24 		leaq	128(%rsp), %rdi
 6348      80000000 
 6349 2e61 48C78424 		movq	$_ZTVN12_GLOBAL__N_18MockTestE+16, 128(%rsp)
 6349      80000000 
 6349      00000000 
 6350 2e6d E8000000 		call	_ZN8UnitTest4TestD2Ev
 6350      00
 6351 2e72 E9F8FDFF 		jmp	.L621
 6351      FF
 6352              	.L643:
 6353 2e77 4889C3   		movq	%rax, %rbx
 6354 2e7a 4889D5   		movq	%rdx, %rbp
 6355 2e7d E8000000 		call	__cxa_end_catch
 6355      00
 6356 2e82 EBA3     		jmp	.L618
 6357              	.L641:
 6358 2e84 4889C3   		movq	%rax, %rbx
 6359 2e87 4889D5   		movq	%rdx, %rbp
 6360 2e8a EBB4     		jmp	.L619
 6361              	.L640:
 6362 2e8c 4889C3   		movq	%rax, %rbx
 6363 2e8f 4889D5   		movq	%rdx, %rbp
 6364 2e92 EBC5     		jmp	.L620
 6365              		.cfi_endproc
 6366              	.LFE1584:
 6367              		.section	.gcc_except_table
 6368              		.align 4
 6369              	.LLSDA1584:
 6370 050c FF       		.byte	0xff
 6371 050d 03       		.byte	0x3
 6372 050e 9001     		.uleb128 .LLSDATT1584-.LLSDATTD1584
 6373              	.LLSDATTD1584:
 6374 0510 01       		.byte	0x1
 6375 0511 78       		.uleb128 .LLSDACSE1584-.LLSDACSB1584
 6376              	.LLSDACSB1584:
 6377 0512 2C       		.uleb128 .LEHB179-.LFB1584
 6378 0513 05       		.uleb128 .LEHE179-.LEHB179
 6379 0514 00       		.uleb128 0
 6380 0515 00       		.uleb128 0
 6381 0516 3C       		.uleb128 .LEHB180-.LFB1584
 6382 0517 05       		.uleb128 .LEHE180-.LEHB180
 6383 0518 EA06     		.uleb128 .L638-.LFB1584
 6384 051a 05       		.uleb128 0x5
 6385 051b 71       		.uleb128 .LEHB181-.LFB1584
 6386 051c 2E       		.uleb128 .LEHE181-.LEHB181
 6387 051d B905     		.uleb128 .L639-.LFB1584
 6388 051f 07       		.uleb128 0x7
 6389 0520 E001     		.uleb128 .LEHB182-.LFB1584
 6390 0522 05       		.uleb128 .LEHE182-.LEHB182
 6391 0523 DC09     		.uleb128 .L640-.LFB1584
 6392 0525 07       		.uleb128 0x7
 6393 0526 A602     		.uleb128 .LEHB183-.LFB1584
 6394 0528 05       		.uleb128 .LEHE183-.LEHB183
 6395 0529 D409     		.uleb128 .L641-.LFB1584
 6396 052b 07       		.uleb128 0x7
 6397 052c E802     		.uleb128 .LEHB184-.LFB1584
 6398 052e 8D01     		.uleb128 .LEHE184-.LEHB184
 6399 0530 F108     		.uleb128 .L642-.LFB1584
 6400 0532 07       		.uleb128 0x7
 6401 0533 F803     		.uleb128 .LEHB185-.LFB1584
 6402 0535 44       		.uleb128 .LEHE185-.LEHB185
 6403 0536 B108     		.uleb128 .L644-.LFB1584
 6404 0538 01       		.uleb128 0x1
 6405 0539 D004     		.uleb128 .LEHB186-.LFB1584
 6406 053b 05       		.uleb128 .LEHE186-.LEHB186
 6407 053c D409     		.uleb128 .L641-.LFB1584
 6408 053e 07       		.uleb128 0x7
 6409 053f E904     		.uleb128 .LEHB187-.LFB1584
 6410 0541 05       		.uleb128 .LEHE187-.LEHB187
 6411 0542 DC09     		.uleb128 .L640-.LFB1584
 6412 0544 07       		.uleb128 0x7
 6413 0545 8205     		.uleb128 .LEHB188-.LFB1584
 6414 0547 05       		.uleb128 .LEHE188-.LEHB188
 6415 0548 B905     		.uleb128 .L639-.LFB1584
 6416 054a 07       		.uleb128 0x7
 6417 054b 8F05     		.uleb128 .LEHB189-.LFB1584
 6418 054d 05       		.uleb128 .LEHE189-.LEHB189
 6419 054e EA06     		.uleb128 .L638-.LFB1584
 6420 0550 05       		.uleb128 0x5
 6421 0551 F605     		.uleb128 .LEHB190-.LFB1584
 6422 0553 05       		.uleb128 .LEHE190-.LEHB190
 6423 0554 9407     		.uleb128 .L635-.LFB1584
 6424 0556 00       		.uleb128 0
 6425 0557 9906     		.uleb128 .LEHB191-.LFB1584
 6426 0559 3A       		.uleb128 .LEHE191-.LEHB191
 6427 055a F706     		.uleb128 .L636-.LFB1584
 6428 055c 00       		.uleb128 0
 6429 055d DB06     		.uleb128 .LEHB192-.LFB1584
 6430 055f 05       		.uleb128 .LEHE192-.LEHB192
 6431 0560 9407     		.uleb128 .L635-.LFB1584
 6432 0562 00       		.uleb128 0
 6433 0563 8F07     		.uleb128 .LEHB193-.LFB1584
 6434 0565 05       		.uleb128 .LEHE193-.LEHB193
 6435 0566 00       		.uleb128 0
 6436 0567 00       		.uleb128 0
 6437 0568 9E07     		.uleb128 .LEHB194-.LFB1584
 6438 056a 17       		.uleb128 .LEHE194-.LEHB194
 6439 056b 9C08     		.uleb128 .L634-.LFB1584
 6440 056d 00       		.uleb128 0
 6441 056e B507     		.uleb128 .LEHB195-.LFB1584
 6442 0570 05       		.uleb128 .LEHE195-.LEHB195
 6443 0571 00       		.uleb128 0
 6444 0572 00       		.uleb128 0
 6445 0573 D607     		.uleb128 .LEHB196-.LFB1584
 6446 0575 41       		.uleb128 .LEHE196-.LEHB196
 6447 0576 AC08     		.uleb128 .L637-.LFB1584
 6448 0578 00       		.uleb128 0
 6449 0579 A708     		.uleb128 .LEHB197-.LFB1584
 6450 057b 05       		.uleb128 .LEHE197-.LEHB197
 6451 057c 00       		.uleb128 0
 6452 057d 00       		.uleb128 0
 6453 057e B908     		.uleb128 .LEHB198-.LFB1584
 6454 0580 2E       		.uleb128 .LEHE198-.LEHB198
 6455 0581 C709     		.uleb128 .L643-.LFB1584
 6456 0583 07       		.uleb128 0x7
 6457 0584 E708     		.uleb128 .LEHB199-.LFB1584
 6458 0586 05       		.uleb128 .LEHE199-.LEHB199
 6459 0587 F108     		.uleb128 .L642-.LFB1584
 6460 0589 07       		.uleb128 0x7
 6461              	.LLSDACSE1584:
 6462 058a 03       		.byte	0x3
 6463 058b 00       		.byte	0
 6464 058c 02       		.byte	0x2
 6465 058d 7D       		.byte	0x7d
 6466 058e 01       		.byte	0x1
 6467 058f 7D       		.byte	0x7d
 6468 0590 00       		.byte	0
 6469 0591 7D       		.byte	0x7d
 6470 0592 0000     		.align 4
 6471 0594 00000000 		.long	0
 6472              	
 6473 0598 00000000 		.long	_ZTISt9exception
 6474 059c 00000000 		.long	_ZTIN8UnitTest15AssertExceptionE
 6475              	.LLSDATT1584:
 6476              		.text
 6478              		.section	.text.unlikely
 6479              	.LCOLDE105:
 6480              		.text
 6481              	.LHOTE105:
 6482              		.section	.text.unlikely
 6483              		.align 2
 6484              	.LCOLDB106:
 6485              		.text
 6486              	.LHOTB106:
 6487              		.align 2
 6488 2e94 6690662E 		.p2align 4,,15
 6488      0F1F8400 
 6488      00000000 
 6490              	_ZNK12_GLOBAL__N_147TestTestRunnerFixtureReporterNotifiedOfFailures7RunImplEv:
 6491              	.LFB1251:
 6492              		.cfi_startproc
 6493              		.cfi_personality 0x3,__gxx_personality_v0
 6494              		.cfi_lsda 0x3,.LLSDA1251
 6495 2ea0 4155     		pushq	%r13
 6496              		.cfi_def_cfa_offset 16
 6497              		.cfi_offset 13, -16
 6498 2ea2 4154     		pushq	%r12
 6499              		.cfi_def_cfa_offset 24
 6500              		.cfi_offset 12, -24
 6501 2ea4 55       		pushq	%rbp
 6502              		.cfi_def_cfa_offset 32
 6503              		.cfi_offset 6, -32
 6504 2ea5 53       		pushq	%rbx
 6505              		.cfi_def_cfa_offset 40
 6506              		.cfi_offset 3, -40
 6507 2ea6 4889FD   		movq	%rdi, %rbp
 6508 2ea9 488D5F08 		leaq	8(%rdi), %rbx
 6509 2ead 4881EC98 		subq	$2200, %rsp
 6509      080000
 6510              		.cfi_def_cfa_offset 2240
 6511 2eb4 64488B04 		movq	%fs:40, %rax
 6511      25280000 
 6511      00
 6512 2ebd 48898424 		movq	%rax, 2184(%rsp)
 6512      88080000 
 6513 2ec5 31C0     		xorl	%eax, %eax
 6514 2ec7 488D4424 		leaq	32(%rsp), %rax
 6514      20
 6515 2ecc 488D7424 		leaq	56(%rsp), %rsi
 6515      38
 6516 2ed1 4889C7   		movq	%rax, %rdi
 6517              	.LEHB200:
 6518 2ed4 E8000000 		call	_ZN8UnitTest10TestRunnerC1ERNS_12TestReporterE
 6518      00
 6519              	.LEHE200:
 6520 2ed9 488DBC24 		leaq	2152(%rsp), %rdi
 6520      68080000 
 6521 2ee1 48C74424 		movq	$_ZTV17RecordingReporter+16, 56(%rsp)
 6521      38000000 
 6521      00
 6522 2eea C7442440 		movl	$0, 64(%rsp)
 6522      00000000 
 6523 2ef2 C7842444 		movl	$0, 580(%rsp)
 6523      02000000 
 6523      000000
 6524 2efd C7842448 		movl	$0, 840(%rsp)
 6524      03000000 
 6524      000000
 6525 2f08 C784244C 		movl	$0, 1612(%rsp)
 6525      06000000 
 6525      000000
 6526 2f13 C7842450 		movl	$0x00000000, 2128(%rsp)
 6526      08000000 
 6526      000000
 6527 2f1e C7842454 		movl	$0, 2132(%rsp)
 6527      08000000 
 6527      000000
 6528 2f29 C7842458 		movl	$0, 2136(%rsp)
 6528      08000000 
 6528      000000
 6529 2f34 C784245C 		movl	$0, 2140(%rsp)
 6529      08000000 
 6529      000000
 6530 2f3f C7842460 		movl	$0x00000000, 2144(%rsp)
 6530      08000000 
 6530      000000
 6531 2f4a C6442444 		movb	$0, 68(%rsp)
 6531      00
 6532 2f4f C6842444 		movb	$0, 324(%rsp)
 6532      01000000 
 6533 2f57 C6842448 		movb	$0, 584(%rsp)
 6533      02000000 
 6534 2f5f C684244C 		movb	$0, 844(%rsp)
 6534      03000000 
 6535 2f67 C684244C 		movb	$0, 1100(%rsp)
 6535      04000000 
 6536 2f6f C684244C 		movb	$0, 1356(%rsp)
 6536      05000000 
 6537 2f77 C6842450 		movb	$0, 1616(%rsp)
 6537      06000000 
 6538 2f7f C6842450 		movb	$0, 1872(%rsp)
 6538      07000000 
 6539              	.LEHB201:
 6540 2f87 E8000000 		call	_ZN8UnitTest8TestListC1Ev
 6540      00
 6541              	.LEHE201:
 6542 2f8c 488D7C24 		leaq	32(%rsp), %rdi
 6542      20
 6543 2f91 4889DE   		movq	%rbx, %rsi
 6544 2f94 48899C24 		movq	%rbx, 2168(%rsp)
 6544      78080000 
 6545              	.LEHB202:
 6546 2f9c E80FFAFF 		call	_ZN8UnitTest11ExecuteTestIN12_GLOBAL__N_149TestRunnerFixtureReporterNotifiedOfFailuresHelperE
 6546      FF
 6547              	.LEHE202:
 6548 2fa1 488D7C24 		leaq	56(%rsp), %rdi
 6548      38
 6549 2fa6 48C74424 		movq	$_ZTV17RecordingReporter+16, 56(%rsp)
 6549      38000000 
 6549      00
 6550              	.LEHB203:
 6551 2faf E8000000 		call	_ZN8UnitTest12TestReporterD2Ev
 6551      00
 6552              	.LEHE203:
 6553 2fb4 488D7C24 		leaq	32(%rsp), %rdi
 6553      20
 6554              	.LEHB204:
 6555 2fb9 E8000000 		call	_ZN8UnitTest10TestRunnerD1Ev
 6555      00
 6556              	.LEHE204:
 6557              	.L656:
 6558 2fbe 488B8424 		movq	2184(%rsp), %rax
 6558      88080000 
 6559 2fc6 64483304 		xorq	%fs:40, %rax
 6559      25280000 
 6559      00
 6560 2fcf 750E     		jne	.L695
 6561 2fd1 4881C498 		addq	$2200, %rsp
 6561      080000
 6562              		.cfi_remember_state
 6563              		.cfi_def_cfa_offset 40
 6564 2fd8 5B       		popq	%rbx
 6565              		.cfi_def_cfa_offset 32
 6566 2fd9 5D       		popq	%rbp
 6567              		.cfi_def_cfa_offset 24
 6568 2fda 415C     		popq	%r12
 6569              		.cfi_def_cfa_offset 16
 6570 2fdc 415D     		popq	%r13
 6571              		.cfi_def_cfa_offset 8
 6572 2fde C3       		ret
 6573              	.L695:
 6574              		.cfi_restore_state
 6575 2fdf E8000000 		call	__stack_chk_fail
 6575      00
 6576              	.L677:
 6577 2fe4 4889C7   		movq	%rax, %rdi
 6578 2fe7 41BC0100 		movl	$1, %r12d
 6578      0000
 6579              	.L659:
 6580 2fed 4883FA01 		cmpq	$1, %rdx
 6581 2ff1 0F844501 		je	.L668
 6581      0000
 6582 2ff7 4883FA02 		cmpq	$2, %rdx
 6583 2ffb 0F85FE00 		jne	.L696
 6583      0000
 6584 3001 E8000000 		call	__cxa_begin_catch
 6584      00
 6585 3006 488D7C24 		leaq	32(%rsp), %rdi
 6585      20
 6586 300b 4889C5   		movq	%rax, %rbp
 6587              	.LEHB205:
 6588 300e E8000000 		call	_ZN8UnitTest15MemoryOutStreamC1Ev
 6588      00
 6589              	.LEHE205:
 6590 3013 488B4500 		movq	0(%rbp), %rax
 6591 3017 4889EF   		movq	%rbp, %rdi
 6592 301a FF5010   		call	*16(%rax)
 6593 301d 488D7C24 		leaq	32(%rsp), %rdi
 6593      20
 6594 3022 BA150000 		movl	$21, %edx
 6594      00
 6595 3027 BE000000 		movl	$.LC69, %esi
 6595      00
 6596 302c 4889C5   		movq	%rax, %rbp
 6597              	.LEHB206:
 6598 302f E8000000 		call	_ZSt16__ostream_insertIcSt11char_traitsIcEERSt13basic_ostreamIT_T0_ES6_PKS3_l
 6598      00
 6599 3034 488D7C24 		leaq	32(%rsp), %rdi
 6599      20
 6600 3039 4889EE   		movq	%rbp, %rsi
 6601 303c E8000000 		call	_ZStlsISt11char_traitsIcEERSt13basic_ostreamIcT_ES5_PKc
 6601      00
 6602 3041 488D7C24 		leaq	32(%rsp), %rdi
 6602      20
 6603 3046 E8000000 		call	_ZNK8UnitTest15MemoryOutStream7GetTextEv
 6603      00
 6604 304b 4889C5   		movq	%rax, %rbp
 6605 304e E8000000 		call	_ZN8UnitTest11CurrentTest7ResultsEv
 6605      00
 6606 3053 488B38   		movq	(%rax), %rdi
 6607 3056 4889EA   		movq	%rbp, %rdx
 6608 3059 4889DE   		movq	%rbx, %rsi
 6609 305c E8000000 		call	_ZN8UnitTest11TestResults13OnTestFailureERKNS_11TestDetailsEPKc
 6609      00
 6610              	.LEHE206:
 6611 3061 488D7C24 		leaq	32(%rsp), %rdi
 6611      20
 6612              	.LEHB207:
 6613 3066 E8000000 		call	_ZN8UnitTest15MemoryOutStreamD1Ev
 6613      00
 6614              	.LEHE207:
 6615              	.L690:
 6616 306b E8000000 		call	__cxa_end_catch
 6616      00
 6617 3070 E949FFFF 		jmp	.L656
 6617      FF
 6618              	.L684:
 6619 3075 488D7C24 		leaq	32(%rsp), %rdi
 6619      20
 6620 307a 4989D4   		movq	%rdx, %r12
 6621 307d 4989C5   		movq	%rax, %r13
 6622 3080 E8000000 		call	_ZN8UnitTest10TestRunnerD1Ev
 6622      00
 6623 3085 4C89E2   		movq	%r12, %rdx
 6624 3088 4C89EF   		movq	%r13, %rdi
 6625 308b 41BC0100 		movl	$1, %r12d
 6625      0000
 6626 3091 E957FFFF 		jmp	.L659
 6626      FF
 6627              	.L678:
 6628 3096 488D7C24 		leaq	32(%rsp), %rdi
 6628      20
 6629 309b 4989D4   		movq	%rdx, %r12
 6630 309e 4989C5   		movq	%rax, %r13
 6631 30a1 E8000000 		call	_ZN12_GLOBAL__N_111FixtureBaseD2Ev
 6631      00
 6632 30a6 4C89E2   		movq	%r12, %rdx
 6633 30a9 4C89EF   		movq	%r13, %rdi
 6634 30ac 41BC0100 		movl	$1, %r12d
 6634      0000
 6635 30b2 E936FFFF 		jmp	.L659
 6635      FF
 6636              	.L683:
 6637 30b7 488D7C24 		leaq	32(%rsp), %rdi
 6637      20
 6638 30bc 4989D4   		movq	%rdx, %r12
 6639 30bf 4989C5   		movq	%rax, %r13
 6640 30c2 E8000000 		call	_ZN12_GLOBAL__N_111FixtureBaseD2Ev
 6640      00
 6641 30c7 4C89E2   		movq	%r12, %rdx
 6642 30ca 4C89EF   		movq	%r13, %rdi
 6643 30cd 4531E4   		xorl	%r12d, %r12d
 6644 30d0 E918FFFF 		jmp	.L659
 6644      FF
 6645              	.L685:
 6646 30d5 4889C7   		movq	%rax, %rdi
 6647 30d8 4531E4   		xorl	%r12d, %r12d
 6648 30db E90DFFFF 		jmp	.L659
 6648      FF
 6649              	.L681:
 6650 30e0 488D7C24 		leaq	32(%rsp), %rdi
 6650      20
 6651 30e5 4889C3   		movq	%rax, %rbx
 6652 30e8 E8000000 		call	_ZN8UnitTest15MemoryOutStreamD1Ev
 6652      00
 6653              	.L674:
 6654 30ed E8000000 		call	__cxa_end_catch
 6654      00
 6655 30f2 4889DF   		movq	%rbx, %rdi
 6656              	.LEHB208:
 6657 30f5 E8000000 		call	_Unwind_Resume
 6657      00
 6658              	.LEHE208:
 6659              	.L680:
 6660              	.L691:
 6661 30fa 4889C3   		movq	%rax, %rbx
 6662 30fd EBEE     		jmp	.L674
 6663              	.L696:
 6664 30ff E8000000 		call	__cxa_begin_catch
 6664      00
 6665 3104 4584E4   		testb	%r12b, %r12b
 6666 3107 BA9D0000 		movl	$157, %edx
 6666      00
 6667 310c 4889DE   		movq	%rbx, %rsi
 6668 310f 4889E7   		movq	%rsp, %rdi
 6669 3112 0F848900 		je	.L670
 6669      0000
 6670              	.LEHB209:
 6671 3118 E8000000 		call	_ZN8UnitTest11TestDetailsC1ERKS0_i
 6671      00
 6672 311d E8000000 		call	_ZN8UnitTest11CurrentTest7ResultsEv
 6672      00
 6673 3122 488B38   		movq	(%rax), %rdi
 6674 3125 BA000000 		movl	$.LC73, %edx
 6674      00
 6675 312a 4889E6   		movq	%rsp, %rsi
 6676 312d E8000000 		call	_ZN8UnitTest11TestResults13OnTestFailureERKNS_11TestDetailsEPKc
 6676      00
 6677              	.LEHE209:
 6678              	.L671:
 6679              	.LEHB210:
 6680 3132 E8000000 		call	__cxa_end_catch
 6680      00
 6681              	.LEHE210:
 6682 3137 E982FEFF 		jmp	.L656
 6682      FF
 6683              	.L668:
 6684 313c E8000000 		call	__cxa_begin_catch
 6684      00
 6685 3141 4889C3   		movq	%rax, %rbx
 6686 3144 488B00   		movq	(%rax), %rax
 6687 3147 4889DF   		movq	%rbx, %rdi
 6688 314a FF5010   		call	*16(%rax)
 6689 314d 4889DF   		movq	%rbx, %rdi
 6690 3150 4989C4   		movq	%rax, %r12
 6691              	.LEHB211:
 6692 3153 E8000000 		call	_ZNK8UnitTest15AssertException10LineNumberEv
 6692      00
 6693 3158 4889DF   		movq	%rbx, %rdi
 6694 315b 4189C5   		movl	%eax, %r13d
 6695 315e E8000000 		call	_ZNK8UnitTest15AssertException8FilenameEv
 6695      00
 6696 3163 488B5508 		movq	8(%rbp), %rdx
 6697 3167 488B7510 		movq	16(%rbp), %rsi
 6698 316b 4589E8   		movl	%r13d, %r8d
 6699 316e 4889C1   		movq	%rax, %rcx
 6700 3171 4889E7   		movq	%rsp, %rdi
 6701 3174 E8000000 		call	_ZN8UnitTest11TestDetailsC1EPKcS2_S2_i
 6701      00
 6702 3179 E8000000 		call	_ZN8UnitTest11CurrentTest7ResultsEv
 6702      00
 6703 317e 488B38   		movq	(%rax), %rdi
 6704 3181 4C89E2   		movq	%r12, %rdx
 6705 3184 4889E6   		movq	%rsp, %rsi
 6706 3187 E8000000 		call	_ZN8UnitTest11TestResults13OnTestFailureERKNS_11TestDetailsEPKc
 6706      00
 6707              	.LEHE211:
 6708 318c E9DAFEFF 		jmp	.L690
 6708      FF
 6709              	.L682:
 6710 3191 4889C3   		movq	%rax, %rbx
 6711 3194 E8000000 		call	__cxa_end_catch
 6711      00
 6712 3199 4889DF   		movq	%rbx, %rdi
 6713              	.LEHB212:
 6714 319c E8000000 		call	_Unwind_Resume
 6714      00
 6715              	.LEHE212:
 6716              	.L670:
 6717              	.LEHB213:
 6718 31a1 E8000000 		call	_ZN8UnitTest11TestDetailsC1ERKS0_i
 6718      00
 6719 31a6 E8000000 		call	_ZN8UnitTest11CurrentTest7ResultsEv
 6719      00
 6720 31ab 488B38   		movq	(%rax), %rdi
 6721 31ae BA000000 		movl	$.LC74, %edx
 6721      00
 6722 31b3 4889E6   		movq	%rsp, %rsi
 6723 31b6 E8000000 		call	_ZN8UnitTest11TestResults13OnTestFailureERKNS_11TestDetailsEPKc
 6723      00
 6724              	.LEHE213:
 6725 31bb E972FFFF 		jmp	.L671
 6725      FF
 6726              	.L679:
 6727 31c0 E935FFFF 		jmp	.L691
 6727      FF
 6728              		.cfi_endproc
 6729              	.LFE1251:
 6730              		.section	.gcc_except_table
 6731              		.align 4
 6732              	.LLSDA1251:
 6733 05a0 FF       		.byte	0xff
 6734 05a1 03       		.byte	0x3
 6735 05a2 69       		.uleb128 .LLSDATT1251-.LLSDATTD1251
 6736              	.LLSDATTD1251:
 6737 05a3 01       		.byte	0x1
 6738 05a4 50       		.uleb128 .LLSDACSE1251-.LLSDACSB1251
 6739              	.LLSDACSB1251:
 6740 05a5 34       		.uleb128 .LEHB200-.LFB1251
 6741 05a6 05       		.uleb128 .LEHE200-.LEHB200
 6742 05a7 B504     		.uleb128 .L685-.LFB1251
 6743 05a9 05       		.uleb128 0x5
 6744 05aa E701     		.uleb128 .LEHB201-.LFB1251
 6745 05ac 05       		.uleb128 .LEHE201-.LEHB201
 6746 05ad 9704     		.uleb128 .L683-.LFB1251
 6747 05af 07       		.uleb128 0x7
 6748 05b0 FC01     		.uleb128 .LEHB202-.LFB1251
 6749 05b2 05       		.uleb128 .LEHE202-.LEHB202
 6750 05b3 F603     		.uleb128 .L678-.LFB1251
 6751 05b5 07       		.uleb128 0x7
 6752 05b6 8F02     		.uleb128 .LEHB203-.LFB1251
 6753 05b8 05       		.uleb128 .LEHE203-.LEHB203
 6754 05b9 D503     		.uleb128 .L684-.LFB1251
 6755 05bb 07       		.uleb128 0x7
 6756 05bc 9902     		.uleb128 .LEHB204-.LFB1251
 6757 05be 05       		.uleb128 .LEHE204-.LEHB204
 6758 05bf C402     		.uleb128 .L677-.LFB1251
 6759 05c1 05       		.uleb128 0x5
 6760 05c2 EE02     		.uleb128 .LEHB205-.LFB1251
 6761 05c4 05       		.uleb128 .LEHE205-.LEHB205
 6762 05c5 DA04     		.uleb128 .L680-.LFB1251
 6763 05c7 00       		.uleb128 0
 6764 05c8 8F03     		.uleb128 .LEHB206-.LFB1251
 6765 05ca 32       		.uleb128 .LEHE206-.LEHB206
 6766 05cb C004     		.uleb128 .L681-.LFB1251
 6767 05cd 00       		.uleb128 0
 6768 05ce C603     		.uleb128 .LEHB207-.LFB1251
 6769 05d0 05       		.uleb128 .LEHE207-.LEHB207
 6770 05d1 DA04     		.uleb128 .L680-.LFB1251
 6771 05d3 00       		.uleb128 0
 6772 05d4 D504     		.uleb128 .LEHB208-.LFB1251
 6773 05d6 05       		.uleb128 .LEHE208-.LEHB208
 6774 05d7 00       		.uleb128 0
 6775 05d8 00       		.uleb128 0
 6776 05d9 F804     		.uleb128 .LEHB209-.LFB1251
 6777 05db 1A       		.uleb128 .LEHE209-.LEHB209
 6778 05dc F105     		.uleb128 .L682-.LFB1251
 6779 05de 00       		.uleb128 0
 6780 05df 9205     		.uleb128 .LEHB210-.LFB1251
 6781 05e1 05       		.uleb128 .LEHE210-.LEHB210
 6782 05e2 00       		.uleb128 0
 6783 05e3 00       		.uleb128 0
 6784 05e4 B305     		.uleb128 .LEHB211-.LFB1251
 6785 05e6 39       		.uleb128 .LEHE211-.LEHB211
 6786 05e7 A006     		.uleb128 .L679-.LFB1251
 6787 05e9 00       		.uleb128 0
 6788 05ea FC05     		.uleb128 .LEHB212-.LFB1251
 6789 05ec 05       		.uleb128 .LEHE212-.LEHB212
 6790 05ed 00       		.uleb128 0
 6791 05ee 00       		.uleb128 0
 6792 05ef 8106     		.uleb128 .LEHB213-.LFB1251
 6793 05f1 1A       		.uleb128 .LEHE213-.LEHB213
 6794 05f2 F105     		.uleb128 .L682-.LFB1251
 6795 05f4 00       		.uleb128 0
 6796              	.LLSDACSE1251:
 6797 05f5 03       		.byte	0x3
 6798 05f6 00       		.byte	0
 6799 05f7 02       		.byte	0x2
 6800 05f8 7D       		.byte	0x7d
 6801 05f9 01       		.byte	0x1
 6802 05fa 7D       		.byte	0x7d
 6803 05fb 00       		.byte	0
 6804 05fc 7D       		.byte	0x7d
 6805 05fd 000000   		.align 4
 6806 0600 00000000 		.long	0
 6807              	
 6808 0604 00000000 		.long	_ZTISt9exception
 6809 0608 00000000 		.long	_ZTIN8UnitTest15AssertExceptionE
 6810              	.LLSDATT1251:
 6811              		.text
 6813              		.section	.text.unlikely
 6814              	.LCOLDE106:
 6815              		.text
 6816              	.LHOTE106:
 6817              		.section	.rodata.str1.8
 6818 048c 00000000 		.align 8
 6819              	.LC107:
 6820 0490 556E6861 		.string	"Unhandled exception in CHECK_EQUAL(2, reporter.summaryFailedTestCount)"
 6820      6E646C65 
 6820      64206578 
 6820      63657074 
 6820      696F6E20 
 6821              		.section	.text.unlikely
 6822              	.LCOLDB108:
 6823              		.text
 6824              	.LHOTB108:
 6825 31c5 90662E0F 		.p2align 4,,15
 6825      1F840000 
 6825      000000
 6827              	_ZN8UnitTest11ExecuteTestIN12_GLOBAL__N_152TestRunnerFixtureReporterNotifiedOfFailedTestsHelperEEEv
 6828              	.LFB1583:
 6829              		.cfi_startproc
 6830              		.cfi_personality 0x3,__gxx_personality_v0
 6831              		.cfi_lsda 0x3,.LLSDA1583
 6832 31d0 4155     		pushq	%r13
 6833              		.cfi_def_cfa_offset 16
 6834              		.cfi_offset 13, -16
 6835 31d2 4154     		pushq	%r12
 6836              		.cfi_def_cfa_offset 24
 6837              		.cfi_offset 12, -24
 6838 31d4 55       		pushq	%rbp
 6839              		.cfi_def_cfa_offset 32
 6840              		.cfi_offset 6, -32
 6841 31d5 53       		pushq	%rbx
 6842              		.cfi_def_cfa_offset 40
 6843              		.cfi_offset 3, -40
 6844 31d6 4889F3   		movq	%rsi, %rbx
 6845 31d9 4881EC58 		subq	$1880, %rsp
 6845      070000
 6846              		.cfi_def_cfa_offset 1920
 6847 31e0 48893C24 		movq	%rdi, (%rsp)
 6848 31e4 48897424 		movq	%rsi, 8(%rsp)
 6848      08
 6849 31e9 64488B04 		movq	%fs:40, %rax
 6849      25280000 
 6849      00
 6850 31f2 48898424 		movq	%rax, 1864(%rsp)
 6850      48070000 
 6851 31fa 31C0     		xorl	%eax, %eax
 6852              	.LEHB214:
 6853 31fc E8000000 		call	_ZN8UnitTest11CurrentTest7DetailsEv
 6853      00
 6854              	.LEHE214:
 6855 3201 488DBC24 		leaq	736(%rsp), %rdi
 6855      E0020000 
 6856 3209 488918   		movq	%rbx, (%rax)
 6857              	.LEHB215:
 6858 320c E8000000 		call	_ZN8UnitTest16SignalTranslatorC1Ev
 6858      00
 6859              	.LEHE215:
 6860 3211 488B3D00 		movq	_ZN8UnitTest16SignalTranslator12s_jumpTargetE(%rip), %rdi
 6860      000000
 6861 3218 BE010000 		movl	$1, %esi
 6861      00
 6862 321d E8000000 		call	__sigsetjmp
 6862      00
 6863 3222 85C0     		testl	%eax, %eax
 6864 3224 742A     		je	.L737
 6865 3226 BF080000 		movl	$8, %edi
 6865      00
 6866 322b E8000000 		call	__cxa_allocate_exception
 6866      00
 6867 3230 31D2     		xorl	%edx, %edx
 6868 3232 48C70000 		movq	$.LC61, (%rax)
 6868      000000
 6869 3239 BE000000 		movl	$_ZTIPKc, %esi
 6869      00
 6870 323e 4889C7   		movq	%rax, %rdi
 6871              	.LEHB216:
 6872 3241 E8000000 		call	__cxa_throw
 6872      00
 6873 3246 662E0F1F 		.p2align 4,,10
 6873      84000000 
 6873      0000
 6874              		.p2align 3
 6875              	.L737:
 6876 3250 488DBC24 		leaq	128(%rsp), %rdi
 6876      80000000 
 6877 3258 4531C0   		xorl	%r8d, %r8d
 6878 325b B9000000 		movl	$.LC80, %ecx
 6878      00
 6879 3260 BA000000 		movl	$.LC102, %edx
 6879      00
 6880 3265 BE000000 		movl	$.LC103, %esi
 6880      00
 6881 326a E8000000 		call	_ZN8UnitTest4TestC2EPKcS2_S2_i
 6881      00
 6882              	.LEHE216:
 6883 326f 488DBC24 		leaq	192(%rsp), %rdi
 6883      C0000000 
 6884 3277 4531C0   		xorl	%r8d, %r8d
 6885 327a B9000000 		movl	$.LC80, %ecx
 6885      00
 6886 327f BA000000 		movl	$.LC102, %edx
 6886      00
 6887 3284 BE000000 		movl	$.LC103, %esi
 6887      00
 6888 3289 48C78424 		movq	$_ZTVN12_GLOBAL__N_18MockTestE+16, 128(%rsp)
 6888      80000000 
 6888      00000000 
 6889 3295 C68424B1 		movb	$0, 177(%rsp)
 6889      00000000 
 6890 329d C68424B2 		movb	$0, 178(%rsp)
 6890      00000000 
 6891 32a5 C78424B4 		movl	$2, 180(%rsp)
 6891      00000002 
 6891      000000
 6892              	.LEHB217:
 6893 32b0 E8000000 		call	_ZN8UnitTest4TestC2EPKcS2_S2_i
 6893      00
 6894              	.LEHE217:
 6895 32b5 488DBC24 		leaq	256(%rsp), %rdi
 6895      00010000 
 6896 32bd 4531C0   		xorl	%r8d, %r8d
 6897 32c0 B9000000 		movl	$.LC80, %ecx
 6897      00
 6898 32c5 BA000000 		movl	$.LC102, %edx
 6898      00
 6899 32ca BE000000 		movl	$.LC103, %esi
 6899      00
 6900 32cf 48C78424 		movq	$_ZTVN12_GLOBAL__N_18MockTestE+16, 192(%rsp)
 6900      C0000000 
 6900      00000000 
 6901 32db C68424F1 		movb	$1, 241(%rsp)
 6901      00000001 
 6902 32e3 C68424F2 		movb	$0, 242(%rsp)
 6902      00000000 
 6903 32eb C78424F4 		movl	$1, 244(%rsp)
 6903      00000001 
 6903      000000
 6904              	.LEHB218:
 6905 32f6 E8000000 		call	_ZN8UnitTest4TestC2EPKcS2_S2_i
 6905      00
 6906              	.LEHE218:
 6907 32fb 488B2C24 		movq	(%rsp), %rbp
 6908 32ff 488DB424 		leaq	128(%rsp), %rsi
 6908      80000000 
 6909 3307 48C78424 		movq	$_ZTVN12_GLOBAL__N_18MockTestE+16, 256(%rsp)
 6909      00010000 
 6909      00000000 
 6910 3313 C6842431 		movb	$0, 305(%rsp)
 6910      01000000 
 6911 331b C6842432 		movb	$0, 306(%rsp)
 6911      01000000 
 6912 3323 C7842434 		movl	$3, 308(%rsp)
 6912      01000003 
 6912      000000
 6913 332e 488D9D48 		leaq	2120(%rbp), %rbx
 6913      080000
 6914 3335 4889DF   		movq	%rbx, %rdi
 6915              	.LEHB219:
 6916 3338 E8000000 		call	_ZN8UnitTest8TestList3AddEPNS_4TestE
 6916      00
 6917 333d 488DB424 		leaq	192(%rsp), %rsi
 6917      C0000000 
 6918 3345 4889DF   		movq	%rbx, %rdi
 6919 3348 E8000000 		call	_ZN8UnitTest8TestList3AddEPNS_4TestE
 6919      00
 6920 334d 488DB424 		leaq	256(%rsp), %rsi
 6920      00010000 
 6921 3355 4889DF   		movq	%rbx, %rdi
 6922 3358 E8000000 		call	_ZN8UnitTest8TestList3AddEPNS_4TestE
 6922      00
 6923 335d E8000000 		call	_ZN8UnitTest11CurrentTest7ResultsEv
 6923      00
 6924 3362 4C8B20   		movq	(%rax), %r12
 6925 3365 E8000000 		call	_ZN8UnitTest11CurrentTest7DetailsEv
 6925      00
 6926 336a 4889DF   		movq	%rbx, %rdi
 6927 336d 4C8B28   		movq	(%rax), %r13
 6928 3370 E8000000 		call	_ZNK8UnitTest8TestList7GetHeadEv
 6928      00
 6929 3375 4885C0   		testq	%rax, %rax
 6930 3378 4889C3   		movq	%rax, %rbx
 6931 337b 7432     		je	.L703
 6932 337d 0F1F00   		.p2align 4,,10
 6933              		.p2align 3
 6934              	.L736:
 6935 3380 31D2     		xorl	%edx, %edx
 6936 3382 4889DE   		movq	%rbx, %rsi
 6937 3385 4889EF   		movq	%rbp, %rdi
 6938 3388 E8000000 		call	_ZNK8UnitTest10TestRunner13IsTestInSuiteEPKNS_4TestEPKc
 6938      00
 6939 338d 84C0     		testb	%al, %al
 6940 338f 7415     		je	.L723
 6941 3391 488B0424 		movq	(%rsp), %rax
 6942 3395 31C9     		xorl	%ecx, %ecx
 6943 3397 4889DA   		movq	%rbx, %rdx
 6944 339a 4889EF   		movq	%rbp, %rdi
 6945 339d 488B7008 		movq	8(%rax), %rsi
 6946 33a1 E8000000 		call	_ZNK8UnitTest10TestRunner7RunTestEPNS_11TestResultsEPNS_4TestEi
 6946      00
 6947              	.L723:
 6948 33a6 488B5B28 		movq	40(%rbx), %rbx
 6949 33aa 4885DB   		testq	%rbx, %rbx
 6950 33ad 75D1     		jne	.L736
 6951              	.L703:
 6952 33af 488B3C24 		movq	(%rsp), %rdi
 6953 33b3 E8000000 		call	_ZNK8UnitTest10TestRunner6FinishEv
 6953      00
 6954 33b8 E8000000 		call	_ZN8UnitTest11CurrentTest7ResultsEv
 6954      00
 6955 33bd 4C8920   		movq	%r12, (%rax)
 6956 33c0 E8000000 		call	_ZN8UnitTest11CurrentTest7DetailsEv
 6956      00
 6957              	.LEHE219:
 6958 33c5 4C8928   		movq	%r13, (%rax)
 6959              	.LEHB220:
 6960 33c8 E8000000 		call	_ZN8UnitTest11CurrentTest7DetailsEv
 6960      00
 6961 33cd 488B30   		movq	(%rax), %rsi
 6962 33d0 488D7C24 		leaq	96(%rsp), %rdi
 6962      60
 6963 33d5 BA9A0000 		movl	$154, %edx
 6963      00
 6964 33da E8000000 		call	_ZN8UnitTest11TestDetailsC1ERKS0_i
 6964      00
 6965 33df 488B1C24 		movq	(%rsp), %rbx
 6966 33e3 C744241C 		movl	$2, 28(%rsp)
 6966      02000000 
 6967 33eb 4881C338 		addq	$2104, %rbx
 6967      080000
 6968 33f2 E8000000 		call	_ZN8UnitTest11CurrentTest7ResultsEv
 6968      00
 6969 33f7 488B38   		movq	(%rax), %rdi
 6970 33fa 488D4C24 		leaq	96(%rsp), %rcx
 6970      60
 6971 33ff 488D7424 		leaq	28(%rsp), %rsi
 6971      1C
 6972 3404 4889DA   		movq	%rbx, %rdx
 6973 3407 E8000000 		call	_ZN8UnitTest10CheckEqualIiiEEvRNS_11TestResultsERKT_RKT0_RKNS_11TestDetailsE
 6973      00
 6974              	.LEHE220:
 6975              	.L707:
 6976 340c 488DBC24 		leaq	256(%rsp), %rdi
 6976      00010000 
 6977 3414 48C78424 		movq	$_ZTVN12_GLOBAL__N_18MockTestE+16, 256(%rsp)
 6977      00010000 
 6977      00000000 
 6978              	.LEHB221:
 6979 3420 E8000000 		call	_ZN8UnitTest4TestD2Ev
 6979      00
 6980              	.LEHE221:
 6981 3425 488DBC24 		leaq	192(%rsp), %rdi
 6981      C0000000 
 6982 342d 48C78424 		movq	$_ZTVN12_GLOBAL__N_18MockTestE+16, 192(%rsp)
 6982      C0000000 
 6982      00000000 
 6983              	.LEHB222:
 6984 3439 E8000000 		call	_ZN8UnitTest4TestD2Ev
 6984      00
 6985              	.LEHE222:
 6986 343e 488DBC24 		leaq	128(%rsp), %rdi
 6986      80000000 
 6987 3446 48C78424 		movq	$_ZTVN12_GLOBAL__N_18MockTestE+16, 128(%rsp)
 6987      80000000 
 6987      00000000 
 6988              	.LEHB223:
 6989 3452 E8000000 		call	_ZN8UnitTest4TestD2Ev
 6989      00
 6990              	.LEHE223:
 6991 3457 488DBC24 		leaq	736(%rsp), %rdi
 6991      E0020000 
 6992              	.LEHB224:
 6993 345f E8000000 		call	_ZN8UnitTest16SignalTranslatorD1Ev
 6993      00
 6994              	.LEHE224:
 6995              	.L697:
 6996 3464 488B8424 		movq	1864(%rsp), %rax
 6996      48070000 
 6997 346c 64483304 		xorq	%fs:40, %rax
 6997      25280000 
 6997      00
 6998 3475 0F85C700 		jne	.L745
 6998      0000
 6999 347b 4881C458 		addq	$1880, %rsp
 6999      070000
 7000              		.cfi_remember_state
 7001              		.cfi_def_cfa_offset 40
 7002 3482 5B       		popq	%rbx
 7003              		.cfi_def_cfa_offset 32
 7004 3483 5D       		popq	%rbp
 7005              		.cfi_def_cfa_offset 24
 7006 3484 415C     		popq	%r12
 7007              		.cfi_def_cfa_offset 16
 7008 3486 415D     		popq	%r13
 7009              		.cfi_def_cfa_offset 8
 7010 3488 C3       		ret
 7011              	.L730:
 7012              		.cfi_restore_state
 7013 3489 4889C3   		movq	%rax, %rbx
 7014 348c 4889D5   		movq	%rdx, %rbp
 7015              	.L712:
 7016 348f 488DBC24 		leaq	736(%rsp), %rdi
 7016      E0020000 
 7017 3497 E8000000 		call	_ZN8UnitTest16SignalTranslatorD1Ev
 7017      00
 7018 349c 4889DF   		movq	%rbx, %rdi
 7019 349f 4889EA   		movq	%rbp, %rdx
 7020              	.L713:
 7021 34a2 4883FA01 		cmpq	$1, %rdx
 7022 34a6 0F84E300 		je	.L715
 7022      0000
 7023 34ac 4883FA02 		cmpq	$2, %rdx
 7024 34b0 0F85B300 		jne	.L746
 7024      0000
 7025 34b6 E8000000 		call	__cxa_begin_catch
 7025      00
 7026 34bb 488DBC24 		leaq	320(%rsp), %rdi
 7026      40010000 
 7027 34c3 4889C3   		movq	%rax, %rbx
 7028              	.LEHB225:
 7029 34c6 E8000000 		call	_ZN8UnitTest15MemoryOutStreamC1Ev
 7029      00
 7030              	.LEHE225:
 7031 34cb 488B03   		movq	(%rbx), %rax
 7032 34ce 4889DF   		movq	%rbx, %rdi
 7033 34d1 FF5010   		call	*16(%rax)
 7034 34d4 488DBC24 		leaq	320(%rsp), %rdi
 7034      40010000 
 7035 34dc BA150000 		movl	$21, %edx
 7035      00
 7036 34e1 BE000000 		movl	$.LC69, %esi
 7036      00
 7037 34e6 4889C3   		movq	%rax, %rbx
 7038              	.LEHB226:
 7039 34e9 E8000000 		call	_ZSt16__ostream_insertIcSt11char_traitsIcEERSt13basic_ostreamIT_T0_ES6_PKS3_l
 7039      00
 7040 34ee 488DBC24 		leaq	320(%rsp), %rdi
 7040      40010000 
 7041 34f6 4889DE   		movq	%rbx, %rsi
 7042 34f9 E8000000 		call	_ZStlsISt11char_traitsIcEERSt13basic_ostreamIcT_ES5_PKc
 7042      00
 7043 34fe 488DBC24 		leaq	320(%rsp), %rdi
 7043      40010000 
 7044 3506 E8000000 		call	_ZNK8UnitTest15MemoryOutStream7GetTextEv
 7044      00
 7045 350b 4889C3   		movq	%rax, %rbx
 7046 350e E8000000 		call	_ZN8UnitTest11CurrentTest7ResultsEv
 7046      00
 7047 3513 488B7424 		movq	8(%rsp), %rsi
 7047      08
 7048 3518 488B38   		movq	(%rax), %rdi
 7049 351b 4889DA   		movq	%rbx, %rdx
 7050 351e E8000000 		call	_ZN8UnitTest11TestResults13OnTestFailureERKNS_11TestDetailsEPKc
 7050      00
 7051              	.LEHE226:
 7052 3523 488DBC24 		leaq	320(%rsp), %rdi
 7052      40010000 
 7053              	.LEHB227:
 7054 352b E8000000 		call	_ZN8UnitTest15MemoryOutStreamD1Ev
 7054      00
 7055              	.LEHE227:
 7056              	.L741:
 7057 3530 E8000000 		call	__cxa_end_catch
 7057      00
 7058 3535 E92AFFFF 		jmp	.L697
 7058      FF
 7059              	.L729:
 7060 353a 4889C7   		movq	%rax, %rdi
 7061 353d E960FFFF 		jmp	.L713
 7061      FF
 7062              	.L745:
 7063 3542 E8000000 		call	__stack_chk_fail
 7063      00
 7064              	.L727:
 7065 3547 488DBC24 		leaq	320(%rsp), %rdi
 7065      40010000 
 7066 354f 4889C3   		movq	%rax, %rbx
 7067 3552 E8000000 		call	_ZN8UnitTest15MemoryOutStreamD1Ev
 7067      00
 7068              	.L721:
 7069 3557 E8000000 		call	__cxa_end_catch
 7069      00
 7070 355c 4889DF   		movq	%rbx, %rdi
 7071              	.LEHB228:
 7072 355f E8000000 		call	_Unwind_Resume
 7072      00
 7073              	.LEHE228:
 7074              	.L726:
 7075              	.L742:
 7076 3564 4889C3   		movq	%rax, %rbx
 7077 3567 EBEE     		jmp	.L721
 7078              	.L746:
 7079 3569 E8000000 		call	__cxa_begin_catch
 7079      00
 7080              	.LEHB229:
 7081 356e E8000000 		call	_ZN8UnitTest11CurrentTest7ResultsEv
 7081      00
 7082 3573 488B7424 		movq	8(%rsp), %rsi
 7082      08
 7083 3578 488B38   		movq	(%rax), %rdi
 7084 357b BA000000 		movl	$.LC70, %edx
 7084      00
 7085 3580 E8000000 		call	_ZN8UnitTest11TestResults13OnTestFailureERKNS_11TestDetailsEPKc
 7085      00
 7086              	.LEHE229:
 7087              	.LEHB230:
 7088 3585 E8000000 		call	__cxa_end_catch
 7088      00
 7089              	.LEHE230:
 7090 358a E9D5FEFF 		jmp	.L697
 7090      FF
 7091              	.L715:
 7092 358f E8000000 		call	__cxa_begin_catch
 7092      00
 7093 3594 4889C3   		movq	%rax, %rbx
 7094 3597 488B00   		movq	(%rax), %rax
 7095 359a 4889DF   		movq	%rbx, %rdi
 7096 359d FF5010   		call	*16(%rax)
 7097 35a0 4889DF   		movq	%rbx, %rdi
 7098 35a3 4889C5   		movq	%rax, %rbp
 7099              	.LEHB231:
 7100 35a6 E8000000 		call	_ZNK8UnitTest15AssertException10LineNumberEv
 7100      00
 7101 35ab 4889DF   		movq	%rbx, %rdi
 7102 35ae 4189C4   		movl	%eax, %r12d
 7103 35b1 E8000000 		call	_ZNK8UnitTest15AssertException8FilenameEv
 7103      00
 7104 35b6 488B5424 		movq	8(%rsp), %rdx
 7104      08
 7105 35bb 488D7C24 		leaq	32(%rsp), %rdi
 7105      20
 7106 35c0 4589E0   		movl	%r12d, %r8d
 7107 35c3 4889C1   		movq	%rax, %rcx
 7108 35c6 488B7208 		movq	8(%rdx), %rsi
 7109 35ca 488B12   		movq	(%rdx), %rdx
 7110 35cd E8000000 		call	_ZN8UnitTest11TestDetailsC1EPKcS2_S2_i
 7110      00
 7111 35d2 E8000000 		call	_ZN8UnitTest11CurrentTest7ResultsEv
 7111      00
 7112 35d7 488B38   		movq	(%rax), %rdi
 7113 35da 488D7424 		leaq	32(%rsp), %rsi
 7113      20
 7114 35df 4889EA   		movq	%rbp, %rdx
 7115 35e2 E8000000 		call	_ZN8UnitTest11TestResults13OnTestFailureERKNS_11TestDetailsEPKc
 7115      00
 7116              	.LEHE231:
 7117 35e7 E944FFFF 		jmp	.L741
 7117      FF
 7118              	.L725:
 7119 35ec 4889C3   		movq	%rax, %rbx
 7120 35ef E8000000 		call	__cxa_end_catch
 7120      00
 7121 35f4 4889DF   		movq	%rbx, %rdi
 7122              	.LEHB232:
 7123 35f7 E8000000 		call	_Unwind_Resume
 7123      00
 7124              	.LEHE232:
 7125              	.L728:
 7126 35fc E963FFFF 		jmp	.L742
 7126      FF
 7127              	.L735:
 7128 3601 4889C7   		movq	%rax, %rdi
 7129 3604 E8000000 		call	__cxa_begin_catch
 7129      00
 7130              	.LEHB233:
 7131 3609 E8000000 		call	_ZN8UnitTest11CurrentTest7DetailsEv
 7131      00
 7132 360e 488B30   		movq	(%rax), %rsi
 7133 3611 488D7C24 		leaq	64(%rsp), %rdi
 7133      40
 7134 3616 BA9A0000 		movl	$154, %edx
 7134      00
 7135 361b E8000000 		call	_ZN8UnitTest11TestDetailsC1ERKS0_i
 7135      00
 7136 3620 E8000000 		call	_ZN8UnitTest11CurrentTest7ResultsEv
 7136      00
 7137 3625 488B38   		movq	(%rax), %rdi
 7138 3628 488D7424 		leaq	64(%rsp), %rsi
 7138      40
 7139 362d BA000000 		movl	$.LC107, %edx
 7139      00
 7140 3632 E8000000 		call	_ZN8UnitTest11TestResults13OnTestFailureERKNS_11TestDetailsEPKc
 7140      00
 7141              	.LEHE233:
 7142              	.LEHB234:
 7143 3637 E8000000 		call	__cxa_end_catch
 7143      00
 7144              	.LEHE234:
 7145 363c E9CBFDFF 		jmp	.L707
 7145      FF
 7146              	.L733:
 7147 3641 4889C3   		movq	%rax, %rbx
 7148 3644 4889D5   		movq	%rdx, %rbp
 7149              	.L709:
 7150 3647 488DBC24 		leaq	256(%rsp), %rdi
 7150      00010000 
 7151 364f 48C78424 		movq	$_ZTVN12_GLOBAL__N_18MockTestE+16, 256(%rsp)
 7151      00010000 
 7151      00000000 
 7152 365b E8000000 		call	_ZN8UnitTest4TestD2Ev
 7152      00
 7153              	.L710:
 7154 3660 488DBC24 		leaq	192(%rsp), %rdi
 7154      C0000000 
 7155 3668 48C78424 		movq	$_ZTVN12_GLOBAL__N_18MockTestE+16, 192(%rsp)
 7155      C0000000 
 7155      00000000 
 7156 3674 E8000000 		call	_ZN8UnitTest4TestD2Ev
 7156      00
 7157              	.L711:
 7158 3679 488DBC24 		leaq	128(%rsp), %rdi
 7158      80000000 
 7159 3681 48C78424 		movq	$_ZTVN12_GLOBAL__N_18MockTestE+16, 128(%rsp)
 7159      80000000 
 7159      00000000 
 7160 368d E8000000 		call	_ZN8UnitTest4TestD2Ev
 7160      00
 7161 3692 E9F8FDFF 		jmp	.L712
 7161      FF
 7162              	.L734:
 7163 3697 4889C3   		movq	%rax, %rbx
 7164 369a 4889D5   		movq	%rdx, %rbp
 7165 369d E8000000 		call	__cxa_end_catch
 7165      00
 7166 36a2 EBA3     		jmp	.L709
 7167              	.L732:
 7168 36a4 4889C3   		movq	%rax, %rbx
 7169 36a7 4889D5   		movq	%rdx, %rbp
 7170 36aa EBB4     		jmp	.L710
 7171              	.L731:
 7172 36ac 4889C3   		movq	%rax, %rbx
 7173 36af 4889D5   		movq	%rdx, %rbp
 7174 36b2 EBC5     		jmp	.L711
 7175              		.cfi_endproc
 7176              	.LFE1583:
 7177              		.section	.gcc_except_table
 7178              		.align 4
 7179              	.LLSDA1583:
 7180 060c FF       		.byte	0xff
 7181 060d 03       		.byte	0x3
 7182 060e 9001     		.uleb128 .LLSDATT1583-.LLSDATTD1583
 7183              	.LLSDATTD1583:
 7184 0610 01       		.byte	0x1
 7185 0611 78       		.uleb128 .LLSDACSE1583-.LLSDACSB1583
 7186              	.LLSDACSB1583:
 7187 0612 2C       		.uleb128 .LEHB214-.LFB1583
 7188 0613 05       		.uleb128 .LEHE214-.LEHB214
 7189 0614 00       		.uleb128 0
 7190 0615 00       		.uleb128 0
 7191 0616 3C       		.uleb128 .LEHB215-.LFB1583
 7192 0617 05       		.uleb128 .LEHE215-.LEHB215
 7193 0618 EA06     		.uleb128 .L729-.LFB1583
 7194 061a 05       		.uleb128 0x5
 7195 061b 71       		.uleb128 .LEHB216-.LFB1583
 7196 061c 2E       		.uleb128 .LEHE216-.LEHB216
 7197 061d B905     		.uleb128 .L730-.LFB1583
 7198 061f 07       		.uleb128 0x7
 7199 0620 E001     		.uleb128 .LEHB217-.LFB1583
 7200 0622 05       		.uleb128 .LEHE217-.LEHB217
 7201 0623 DC09     		.uleb128 .L731-.LFB1583
 7202 0625 07       		.uleb128 0x7
 7203 0626 A602     		.uleb128 .LEHB218-.LFB1583
 7204 0628 05       		.uleb128 .LEHE218-.LEHB218
 7205 0629 D409     		.uleb128 .L732-.LFB1583
 7206 062b 07       		.uleb128 0x7
 7207 062c E802     		.uleb128 .LEHB219-.LFB1583
 7208 062e 8D01     		.uleb128 .LEHE219-.LEHB219
 7209 0630 F108     		.uleb128 .L733-.LFB1583
 7210 0632 07       		.uleb128 0x7
 7211 0633 F803     		.uleb128 .LEHB220-.LFB1583
 7212 0635 44       		.uleb128 .LEHE220-.LEHB220
 7213 0636 B108     		.uleb128 .L735-.LFB1583
 7214 0638 01       		.uleb128 0x1
 7215 0639 D004     		.uleb128 .LEHB221-.LFB1583
 7216 063b 05       		.uleb128 .LEHE221-.LEHB221
 7217 063c D409     		.uleb128 .L732-.LFB1583
 7218 063e 07       		.uleb128 0x7
 7219 063f E904     		.uleb128 .LEHB222-.LFB1583
 7220 0641 05       		.uleb128 .LEHE222-.LEHB222
 7221 0642 DC09     		.uleb128 .L731-.LFB1583
 7222 0644 07       		.uleb128 0x7
 7223 0645 8205     		.uleb128 .LEHB223-.LFB1583
 7224 0647 05       		.uleb128 .LEHE223-.LEHB223
 7225 0648 B905     		.uleb128 .L730-.LFB1583
 7226 064a 07       		.uleb128 0x7
 7227 064b 8F05     		.uleb128 .LEHB224-.LFB1583
 7228 064d 05       		.uleb128 .LEHE224-.LEHB224
 7229 064e EA06     		.uleb128 .L729-.LFB1583
 7230 0650 05       		.uleb128 0x5
 7231 0651 F605     		.uleb128 .LEHB225-.LFB1583
 7232 0653 05       		.uleb128 .LEHE225-.LEHB225
 7233 0654 9407     		.uleb128 .L726-.LFB1583
 7234 0656 00       		.uleb128 0
 7235 0657 9906     		.uleb128 .LEHB226-.LFB1583
 7236 0659 3A       		.uleb128 .LEHE226-.LEHB226
 7237 065a F706     		.uleb128 .L727-.LFB1583
 7238 065c 00       		.uleb128 0
 7239 065d DB06     		.uleb128 .LEHB227-.LFB1583
 7240 065f 05       		.uleb128 .LEHE227-.LEHB227
 7241 0660 9407     		.uleb128 .L726-.LFB1583
 7242 0662 00       		.uleb128 0
 7243 0663 8F07     		.uleb128 .LEHB228-.LFB1583
 7244 0665 05       		.uleb128 .LEHE228-.LEHB228
 7245 0666 00       		.uleb128 0
 7246 0667 00       		.uleb128 0
 7247 0668 9E07     		.uleb128 .LEHB229-.LFB1583
 7248 066a 17       		.uleb128 .LEHE229-.LEHB229
 7249 066b 9C08     		.uleb128 .L725-.LFB1583
 7250 066d 00       		.uleb128 0
 7251 066e B507     		.uleb128 .LEHB230-.LFB1583
 7252 0670 05       		.uleb128 .LEHE230-.LEHB230
 7253 0671 00       		.uleb128 0
 7254 0672 00       		.uleb128 0
 7255 0673 D607     		.uleb128 .LEHB231-.LFB1583
 7256 0675 41       		.uleb128 .LEHE231-.LEHB231
 7257 0676 AC08     		.uleb128 .L728-.LFB1583
 7258 0678 00       		.uleb128 0
 7259 0679 A708     		.uleb128 .LEHB232-.LFB1583
 7260 067b 05       		.uleb128 .LEHE232-.LEHB232
 7261 067c 00       		.uleb128 0
 7262 067d 00       		.uleb128 0
 7263 067e B908     		.uleb128 .LEHB233-.LFB1583
 7264 0680 2E       		.uleb128 .LEHE233-.LEHB233
 7265 0681 C709     		.uleb128 .L734-.LFB1583
 7266 0683 07       		.uleb128 0x7
 7267 0684 E708     		.uleb128 .LEHB234-.LFB1583
 7268 0686 05       		.uleb128 .LEHE234-.LEHB234
 7269 0687 F108     		.uleb128 .L733-.LFB1583
 7270 0689 07       		.uleb128 0x7
 7271              	.LLSDACSE1583:
 7272 068a 03       		.byte	0x3
 7273 068b 00       		.byte	0
 7274 068c 02       		.byte	0x2
 7275 068d 7D       		.byte	0x7d
 7276 068e 01       		.byte	0x1
 7277 068f 7D       		.byte	0x7d
 7278 0690 00       		.byte	0
 7279 0691 7D       		.byte	0x7d
 7280 0692 0000     		.align 4
 7281 0694 00000000 		.long	0
 7282              	
 7283 0698 00000000 		.long	_ZTISt9exception
 7284 069c 00000000 		.long	_ZTIN8UnitTest15AssertExceptionE
 7285              	.LLSDATT1583:
 7286              		.text
 7288              		.section	.text.unlikely
 7289              	.LCOLDE108:
 7290              		.text
 7291              	.LHOTE108:
 7292              		.section	.text.unlikely
 7293              		.align 2
 7294              	.LCOLDB109:
 7295              		.text
 7296              	.LHOTB109:
 7297              		.align 2
 7298 36b4 6690662E 		.p2align 4,,15
 7298      0F1F8400 
 7298      00000000 
 7300              	_ZNK12_GLOBAL__N_150TestTestRunnerFixtureReporterNotifiedOfFailedTests7RunImplEv:
 7301              	.LFB1240:
 7302              		.cfi_startproc
 7303              		.cfi_personality 0x3,__gxx_personality_v0
 7304              		.cfi_lsda 0x3,.LLSDA1240
 7305 36c0 4155     		pushq	%r13
 7306              		.cfi_def_cfa_offset 16
 7307              		.cfi_offset 13, -16
 7308 36c2 4154     		pushq	%r12
 7309              		.cfi_def_cfa_offset 24
 7310              		.cfi_offset 12, -24
 7311 36c4 55       		pushq	%rbp
 7312              		.cfi_def_cfa_offset 32
 7313              		.cfi_offset 6, -32
 7314 36c5 53       		pushq	%rbx
 7315              		.cfi_def_cfa_offset 40
 7316              		.cfi_offset 3, -40
 7317 36c6 4889FD   		movq	%rdi, %rbp
 7318 36c9 488D5F08 		leaq	8(%rdi), %rbx
 7319 36cd 4881EC98 		subq	$2200, %rsp
 7319      080000
 7320              		.cfi_def_cfa_offset 2240
 7321 36d4 64488B04 		movq	%fs:40, %rax
 7321      25280000 
 7321      00
 7322 36dd 48898424 		movq	%rax, 2184(%rsp)
 7322      88080000 
 7323 36e5 31C0     		xorl	%eax, %eax
 7324 36e7 488D4424 		leaq	32(%rsp), %rax
 7324      20
 7325 36ec 488D7424 		leaq	56(%rsp), %rsi
 7325      38
 7326 36f1 4889C7   		movq	%rax, %rdi
 7327              	.LEHB235:
 7328 36f4 E8000000 		call	_ZN8UnitTest10TestRunnerC1ERNS_12TestReporterE
 7328      00
 7329              	.LEHE235:
 7330 36f9 488DBC24 		leaq	2152(%rsp), %rdi
 7330      68080000 
 7331 3701 48C74424 		movq	$_ZTV17RecordingReporter+16, 56(%rsp)
 7331      38000000 
 7331      00
 7332 370a C7442440 		movl	$0, 64(%rsp)
 7332      00000000 
 7333 3712 C7842444 		movl	$0, 580(%rsp)
 7333      02000000 
 7333      000000
 7334 371d C7842448 		movl	$0, 840(%rsp)
 7334      03000000 
 7334      000000
 7335 3728 C784244C 		movl	$0, 1612(%rsp)
 7335      06000000 
 7335      000000
 7336 3733 C7842450 		movl	$0x00000000, 2128(%rsp)
 7336      08000000 
 7336      000000
 7337 373e C7842454 		movl	$0, 2132(%rsp)
 7337      08000000 
 7337      000000
 7338 3749 C7842458 		movl	$0, 2136(%rsp)
 7338      08000000 
 7338      000000
 7339 3754 C784245C 		movl	$0, 2140(%rsp)
 7339      08000000 
 7339      000000
 7340 375f C7842460 		movl	$0x00000000, 2144(%rsp)
 7340      08000000 
 7340      000000
 7341 376a C6442444 		movb	$0, 68(%rsp)
 7341      00
 7342 376f C6842444 		movb	$0, 324(%rsp)
 7342      01000000 
 7343 3777 C6842448 		movb	$0, 584(%rsp)
 7343      02000000 
 7344 377f C684244C 		movb	$0, 844(%rsp)
 7344      03000000 
 7345 3787 C684244C 		movb	$0, 1100(%rsp)
 7345      04000000 
 7346 378f C684244C 		movb	$0, 1356(%rsp)
 7346      05000000 
 7347 3797 C6842450 		movb	$0, 1616(%rsp)
 7347      06000000 
 7348 379f C6842450 		movb	$0, 1872(%rsp)
 7348      07000000 
 7349              	.LEHB236:
 7350 37a7 E8000000 		call	_ZN8UnitTest8TestListC1Ev
 7350      00
 7351              	.LEHE236:
 7352 37ac 488D7C24 		leaq	32(%rsp), %rdi
 7352      20
 7353 37b1 4889DE   		movq	%rbx, %rsi
 7354 37b4 48899C24 		movq	%rbx, 2168(%rsp)
 7354      78080000 
 7355              	.LEHB237:
 7356 37bc E80FFAFF 		call	_ZN8UnitTest11ExecuteTestIN12_GLOBAL__N_152TestRunnerFixtureReporterNotifiedOfFailedTestsHelp
 7356      FF
 7357              	.LEHE237:
 7358 37c1 488D7C24 		leaq	56(%rsp), %rdi
 7358      38
 7359 37c6 48C74424 		movq	$_ZTV17RecordingReporter+16, 56(%rsp)
 7359      38000000 
 7359      00
 7360              	.LEHB238:
 7361 37cf E8000000 		call	_ZN8UnitTest12TestReporterD2Ev
 7361      00
 7362              	.LEHE238:
 7363 37d4 488D7C24 		leaq	32(%rsp), %rdi
 7363      20
 7364              	.LEHB239:
 7365 37d9 E8000000 		call	_ZN8UnitTest10TestRunnerD1Ev
 7365      00
 7366              	.LEHE239:
 7367              	.L747:
 7368 37de 488B8424 		movq	2184(%rsp), %rax
 7368      88080000 
 7369 37e6 64483304 		xorq	%fs:40, %rax
 7369      25280000 
 7369      00
 7370 37ef 750E     		jne	.L786
 7371 37f1 4881C498 		addq	$2200, %rsp
 7371      080000
 7372              		.cfi_remember_state
 7373              		.cfi_def_cfa_offset 40
 7374 37f8 5B       		popq	%rbx
 7375              		.cfi_def_cfa_offset 32
 7376 37f9 5D       		popq	%rbp
 7377              		.cfi_def_cfa_offset 24
 7378 37fa 415C     		popq	%r12
 7379              		.cfi_def_cfa_offset 16
 7380 37fc 415D     		popq	%r13
 7381              		.cfi_def_cfa_offset 8
 7382 37fe C3       		ret
 7383              	.L786:
 7384              		.cfi_restore_state
 7385 37ff E8000000 		call	__stack_chk_fail
 7385      00
 7386              	.L768:
 7387 3804 4889C7   		movq	%rax, %rdi
 7388 3807 41BC0100 		movl	$1, %r12d
 7388      0000
 7389              	.L750:
 7390 380d 4883FA01 		cmpq	$1, %rdx
 7391 3811 0F844501 		je	.L759
 7391      0000
 7392 3817 4883FA02 		cmpq	$2, %rdx
 7393 381b 0F85FE00 		jne	.L787
 7393      0000
 7394 3821 E8000000 		call	__cxa_begin_catch
 7394      00
 7395 3826 488D7C24 		leaq	32(%rsp), %rdi
 7395      20
 7396 382b 4889C5   		movq	%rax, %rbp
 7397              	.LEHB240:
 7398 382e E8000000 		call	_ZN8UnitTest15MemoryOutStreamC1Ev
 7398      00
 7399              	.LEHE240:
 7400 3833 488B4500 		movq	0(%rbp), %rax
 7401 3837 4889EF   		movq	%rbp, %rdi
 7402 383a FF5010   		call	*16(%rax)
 7403 383d 488D7C24 		leaq	32(%rsp), %rdi
 7403      20
 7404 3842 BA150000 		movl	$21, %edx
 7404      00
 7405 3847 BE000000 		movl	$.LC69, %esi
 7405      00
 7406 384c 4889C5   		movq	%rax, %rbp
 7407              	.LEHB241:
 7408 384f E8000000 		call	_ZSt16__ostream_insertIcSt11char_traitsIcEERSt13basic_ostreamIT_T0_ES6_PKS3_l
 7408      00
 7409 3854 488D7C24 		leaq	32(%rsp), %rdi
 7409      20
 7410 3859 4889EE   		movq	%rbp, %rsi
 7411 385c E8000000 		call	_ZStlsISt11char_traitsIcEERSt13basic_ostreamIcT_ES5_PKc
 7411      00
 7412 3861 488D7C24 		leaq	32(%rsp), %rdi
 7412      20
 7413 3866 E8000000 		call	_ZNK8UnitTest15MemoryOutStream7GetTextEv
 7413      00
 7414 386b 4889C5   		movq	%rax, %rbp
 7415 386e E8000000 		call	_ZN8UnitTest11CurrentTest7ResultsEv
 7415      00
 7416 3873 488B38   		movq	(%rax), %rdi
 7417 3876 4889EA   		movq	%rbp, %rdx
 7418 3879 4889DE   		movq	%rbx, %rsi
 7419 387c E8000000 		call	_ZN8UnitTest11TestResults13OnTestFailureERKNS_11TestDetailsEPKc
 7419      00
 7420              	.LEHE241:
 7421 3881 488D7C24 		leaq	32(%rsp), %rdi
 7421      20
 7422              	.LEHB242:
 7423 3886 E8000000 		call	_ZN8UnitTest15MemoryOutStreamD1Ev
 7423      00
 7424              	.LEHE242:
 7425              	.L781:
 7426 388b E8000000 		call	__cxa_end_catch
 7426      00
 7427 3890 E949FFFF 		jmp	.L747
 7427      FF
 7428              	.L775:
 7429 3895 488D7C24 		leaq	32(%rsp), %rdi
 7429      20
 7430 389a 4989D4   		movq	%rdx, %r12
 7431 389d 4989C5   		movq	%rax, %r13
 7432 38a0 E8000000 		call	_ZN8UnitTest10TestRunnerD1Ev
 7432      00
 7433 38a5 4C89E2   		movq	%r12, %rdx
 7434 38a8 4C89EF   		movq	%r13, %rdi
 7435 38ab 41BC0100 		movl	$1, %r12d
 7435      0000
 7436 38b1 E957FFFF 		jmp	.L750
 7436      FF
 7437              	.L769:
 7438 38b6 488D7C24 		leaq	32(%rsp), %rdi
 7438      20
 7439 38bb 4989D4   		movq	%rdx, %r12
 7440 38be 4989C5   		movq	%rax, %r13
 7441 38c1 E8000000 		call	_ZN12_GLOBAL__N_111FixtureBaseD2Ev
 7441      00
 7442 38c6 4C89E2   		movq	%r12, %rdx
 7443 38c9 4C89EF   		movq	%r13, %rdi
 7444 38cc 41BC0100 		movl	$1, %r12d
 7444      0000
 7445 38d2 E936FFFF 		jmp	.L750
 7445      FF
 7446              	.L774:
 7447 38d7 488D7C24 		leaq	32(%rsp), %rdi
 7447      20
 7448 38dc 4989D4   		movq	%rdx, %r12
 7449 38df 4989C5   		movq	%rax, %r13
 7450 38e2 E8000000 		call	_ZN12_GLOBAL__N_111FixtureBaseD2Ev
 7450      00
 7451 38e7 4C89E2   		movq	%r12, %rdx
 7452 38ea 4C89EF   		movq	%r13, %rdi
 7453 38ed 4531E4   		xorl	%r12d, %r12d
 7454 38f0 E918FFFF 		jmp	.L750
 7454      FF
 7455              	.L776:
 7456 38f5 4889C7   		movq	%rax, %rdi
 7457 38f8 4531E4   		xorl	%r12d, %r12d
 7458 38fb E90DFFFF 		jmp	.L750
 7458      FF
 7459              	.L772:
 7460 3900 488D7C24 		leaq	32(%rsp), %rdi
 7460      20
 7461 3905 4889C3   		movq	%rax, %rbx
 7462 3908 E8000000 		call	_ZN8UnitTest15MemoryOutStreamD1Ev
 7462      00
 7463              	.L765:
 7464 390d E8000000 		call	__cxa_end_catch
 7464      00
 7465 3912 4889DF   		movq	%rbx, %rdi
 7466              	.LEHB243:
 7467 3915 E8000000 		call	_Unwind_Resume
 7467      00
 7468              	.LEHE243:
 7469              	.L771:
 7470              	.L782:
 7471 391a 4889C3   		movq	%rax, %rbx
 7472 391d EBEE     		jmp	.L765
 7473              	.L787:
 7474 391f E8000000 		call	__cxa_begin_catch
 7474      00
 7475 3924 4584E4   		testb	%r12b, %r12b
 7476 3927 BA900000 		movl	$144, %edx
 7476      00
 7477 392c 4889DE   		movq	%rbx, %rsi
 7478 392f 4889E7   		movq	%rsp, %rdi
 7479 3932 0F848900 		je	.L761
 7479      0000
 7480              	.LEHB244:
 7481 3938 E8000000 		call	_ZN8UnitTest11TestDetailsC1ERKS0_i
 7481      00
 7482 393d E8000000 		call	_ZN8UnitTest11CurrentTest7ResultsEv
 7482      00
 7483 3942 488B38   		movq	(%rax), %rdi
 7484 3945 BA000000 		movl	$.LC73, %edx
 7484      00
 7485 394a 4889E6   		movq	%rsp, %rsi
 7486 394d E8000000 		call	_ZN8UnitTest11TestResults13OnTestFailureERKNS_11TestDetailsEPKc
 7486      00
 7487              	.LEHE244:
 7488              	.L762:
 7489              	.LEHB245:
 7490 3952 E8000000 		call	__cxa_end_catch
 7490      00
 7491              	.LEHE245:
 7492 3957 E982FEFF 		jmp	.L747
 7492      FF
 7493              	.L759:
 7494 395c E8000000 		call	__cxa_begin_catch
 7494      00
 7495 3961 4889C3   		movq	%rax, %rbx
 7496 3964 488B00   		movq	(%rax), %rax
 7497 3967 4889DF   		movq	%rbx, %rdi
 7498 396a FF5010   		call	*16(%rax)
 7499 396d 4889DF   		movq	%rbx, %rdi
 7500 3970 4989C4   		movq	%rax, %r12
 7501              	.LEHB246:
 7502 3973 E8000000 		call	_ZNK8UnitTest15AssertException10LineNumberEv
 7502      00
 7503 3978 4889DF   		movq	%rbx, %rdi
 7504 397b 4189C5   		movl	%eax, %r13d
 7505 397e E8000000 		call	_ZNK8UnitTest15AssertException8FilenameEv
 7505      00
 7506 3983 488B5508 		movq	8(%rbp), %rdx
 7507 3987 488B7510 		movq	16(%rbp), %rsi
 7508 398b 4589E8   		movl	%r13d, %r8d
 7509 398e 4889C1   		movq	%rax, %rcx
 7510 3991 4889E7   		movq	%rsp, %rdi
 7511 3994 E8000000 		call	_ZN8UnitTest11TestDetailsC1EPKcS2_S2_i
 7511      00
 7512 3999 E8000000 		call	_ZN8UnitTest11CurrentTest7ResultsEv
 7512      00
 7513 399e 488B38   		movq	(%rax), %rdi
 7514 39a1 4C89E2   		movq	%r12, %rdx
 7515 39a4 4889E6   		movq	%rsp, %rsi
 7516 39a7 E8000000 		call	_ZN8UnitTest11TestResults13OnTestFailureERKNS_11TestDetailsEPKc
 7516      00
 7517              	.LEHE246:
 7518 39ac E9DAFEFF 		jmp	.L781
 7518      FF
 7519              	.L773:
 7520 39b1 4889C3   		movq	%rax, %rbx
 7521 39b4 E8000000 		call	__cxa_end_catch
 7521      00
 7522 39b9 4889DF   		movq	%rbx, %rdi
 7523              	.LEHB247:
 7524 39bc E8000000 		call	_Unwind_Resume
 7524      00
 7525              	.LEHE247:
 7526              	.L761:
 7527              	.LEHB248:
 7528 39c1 E8000000 		call	_ZN8UnitTest11TestDetailsC1ERKS0_i
 7528      00
 7529 39c6 E8000000 		call	_ZN8UnitTest11CurrentTest7ResultsEv
 7529      00
 7530 39cb 488B38   		movq	(%rax), %rdi
 7531 39ce BA000000 		movl	$.LC74, %edx
 7531      00
 7532 39d3 4889E6   		movq	%rsp, %rsi
 7533 39d6 E8000000 		call	_ZN8UnitTest11TestResults13OnTestFailureERKNS_11TestDetailsEPKc
 7533      00
 7534              	.LEHE248:
 7535 39db E972FFFF 		jmp	.L762
 7535      FF
 7536              	.L770:
 7537 39e0 E935FFFF 		jmp	.L782
 7537      FF
 7538              		.cfi_endproc
 7539              	.LFE1240:
 7540              		.section	.gcc_except_table
 7541              		.align 4
 7542              	.LLSDA1240:
 7543 06a0 FF       		.byte	0xff
 7544 06a1 03       		.byte	0x3
 7545 06a2 69       		.uleb128 .LLSDATT1240-.LLSDATTD1240
 7546              	.LLSDATTD1240:
 7547 06a3 01       		.byte	0x1
 7548 06a4 50       		.uleb128 .LLSDACSE1240-.LLSDACSB1240
 7549              	.LLSDACSB1240:
 7550 06a5 34       		.uleb128 .LEHB235-.LFB1240
 7551 06a6 05       		.uleb128 .LEHE235-.LEHB235
 7552 06a7 B504     		.uleb128 .L776-.LFB1240
 7553 06a9 05       		.uleb128 0x5
 7554 06aa E701     		.uleb128 .LEHB236-.LFB1240
 7555 06ac 05       		.uleb128 .LEHE236-.LEHB236
 7556 06ad 9704     		.uleb128 .L774-.LFB1240
 7557 06af 07       		.uleb128 0x7
 7558 06b0 FC01     		.uleb128 .LEHB237-.LFB1240
 7559 06b2 05       		.uleb128 .LEHE237-.LEHB237
 7560 06b3 F603     		.uleb128 .L769-.LFB1240
 7561 06b5 07       		.uleb128 0x7
 7562 06b6 8F02     		.uleb128 .LEHB238-.LFB1240
 7563 06b8 05       		.uleb128 .LEHE238-.LEHB238
 7564 06b9 D503     		.uleb128 .L775-.LFB1240
 7565 06bb 07       		.uleb128 0x7
 7566 06bc 9902     		.uleb128 .LEHB239-.LFB1240
 7567 06be 05       		.uleb128 .LEHE239-.LEHB239
 7568 06bf C402     		.uleb128 .L768-.LFB1240
 7569 06c1 05       		.uleb128 0x5
 7570 06c2 EE02     		.uleb128 .LEHB240-.LFB1240
 7571 06c4 05       		.uleb128 .LEHE240-.LEHB240
 7572 06c5 DA04     		.uleb128 .L771-.LFB1240
 7573 06c7 00       		.uleb128 0
 7574 06c8 8F03     		.uleb128 .LEHB241-.LFB1240
 7575 06ca 32       		.uleb128 .LEHE241-.LEHB241
 7576 06cb C004     		.uleb128 .L772-.LFB1240
 7577 06cd 00       		.uleb128 0
 7578 06ce C603     		.uleb128 .LEHB242-.LFB1240
 7579 06d0 05       		.uleb128 .LEHE242-.LEHB242
 7580 06d1 DA04     		.uleb128 .L771-.LFB1240
 7581 06d3 00       		.uleb128 0
 7582 06d4 D504     		.uleb128 .LEHB243-.LFB1240
 7583 06d6 05       		.uleb128 .LEHE243-.LEHB243
 7584 06d7 00       		.uleb128 0
 7585 06d8 00       		.uleb128 0
 7586 06d9 F804     		.uleb128 .LEHB244-.LFB1240
 7587 06db 1A       		.uleb128 .LEHE244-.LEHB244
 7588 06dc F105     		.uleb128 .L773-.LFB1240
 7589 06de 00       		.uleb128 0
 7590 06df 9205     		.uleb128 .LEHB245-.LFB1240
 7591 06e1 05       		.uleb128 .LEHE245-.LEHB245
 7592 06e2 00       		.uleb128 0
 7593 06e3 00       		.uleb128 0
 7594 06e4 B305     		.uleb128 .LEHB246-.LFB1240
 7595 06e6 39       		.uleb128 .LEHE246-.LEHB246
 7596 06e7 A006     		.uleb128 .L770-.LFB1240
 7597 06e9 00       		.uleb128 0
 7598 06ea FC05     		.uleb128 .LEHB247-.LFB1240
 7599 06ec 05       		.uleb128 .LEHE247-.LEHB247
 7600 06ed 00       		.uleb128 0
 7601 06ee 00       		.uleb128 0
 7602 06ef 8106     		.uleb128 .LEHB248-.LFB1240
 7603 06f1 1A       		.uleb128 .LEHE248-.LEHB248
 7604 06f2 F105     		.uleb128 .L773-.LFB1240
 7605 06f4 00       		.uleb128 0
 7606              	.LLSDACSE1240:
 7607 06f5 03       		.byte	0x3
 7608 06f6 00       		.byte	0
 7609 06f7 02       		.byte	0x2
 7610 06f8 7D       		.byte	0x7d
 7611 06f9 01       		.byte	0x1
 7612 06fa 7D       		.byte	0x7d
 7613 06fb 00       		.byte	0
 7614 06fc 7D       		.byte	0x7d
 7615 06fd 000000   		.align 4
 7616 0700 00000000 		.long	0
 7617              	
 7618 0704 00000000 		.long	_ZTISt9exception
 7619 0708 00000000 		.long	_ZTIN8UnitTest15AssertExceptionE
 7620              	.LLSDATT1240:
 7621              		.text
 7623              		.section	.text.unlikely
 7624              	.LCOLDE109:
 7625              		.text
 7626              	.LHOTE109:
 7627              		.section	.rodata.str1.8
 7628 04d7 00       		.align 8
 7629              	.LC110:
 7630 04d8 556E6861 		.string	"Unhandled exception in CHECK_EQUAL(3, reporter.summaryTotalTestCount)"
 7630      6E646C65 
 7630      64206578 
 7630      63657074 
 7630      696F6E20 
 7631              		.section	.text.unlikely
 7632              	.LCOLDB111:
 7633              		.text
 7634              	.LHOTB111:
 7635 39e5 90662E0F 		.p2align 4,,15
 7635      1F840000 
 7635      000000
 7637              	_ZN8UnitTest11ExecuteTestIN12_GLOBAL__N_150TestRunnerFixtureReporterNotifiedOfTestCountHelperEEEvRT
 7638              	.LFB1582:
 7639              		.cfi_startproc
 7640              		.cfi_personality 0x3,__gxx_personality_v0
 7641              		.cfi_lsda 0x3,.LLSDA1582
 7642 39f0 4155     		pushq	%r13
 7643              		.cfi_def_cfa_offset 16
 7644              		.cfi_offset 13, -16
 7645 39f2 4154     		pushq	%r12
 7646              		.cfi_def_cfa_offset 24
 7647              		.cfi_offset 12, -24
 7648 39f4 55       		pushq	%rbp
 7649              		.cfi_def_cfa_offset 32
 7650              		.cfi_offset 6, -32
 7651 39f5 53       		pushq	%rbx
 7652              		.cfi_def_cfa_offset 40
 7653              		.cfi_offset 3, -40
 7654 39f6 4889F3   		movq	%rsi, %rbx
 7655 39f9 4881EC58 		subq	$1880, %rsp
 7655      070000
 7656              		.cfi_def_cfa_offset 1920
 7657 3a00 48893C24 		movq	%rdi, (%rsp)
 7658 3a04 48897424 		movq	%rsi, 8(%rsp)
 7658      08
 7659 3a09 64488B04 		movq	%fs:40, %rax
 7659      25280000 
 7659      00
 7660 3a12 48898424 		movq	%rax, 1864(%rsp)
 7660      48070000 
 7661 3a1a 31C0     		xorl	%eax, %eax
 7662              	.LEHB249:
 7663 3a1c E8000000 		call	_ZN8UnitTest11CurrentTest7DetailsEv
 7663      00
 7664              	.LEHE249:
 7665 3a21 488DBC24 		leaq	736(%rsp), %rdi
 7665      E0020000 
 7666 3a29 488918   		movq	%rbx, (%rax)
 7667              	.LEHB250:
 7668 3a2c E8000000 		call	_ZN8UnitTest16SignalTranslatorC1Ev
 7668      00
 7669              	.LEHE250:
 7670 3a31 488B3D00 		movq	_ZN8UnitTest16SignalTranslator12s_jumpTargetE(%rip), %rdi
 7670      000000
 7671 3a38 BE010000 		movl	$1, %esi
 7671      00
 7672 3a3d E8000000 		call	__sigsetjmp
 7672      00
 7673 3a42 85C0     		testl	%eax, %eax
 7674 3a44 742A     		je	.L828
 7675 3a46 BF080000 		movl	$8, %edi
 7675      00
 7676 3a4b E8000000 		call	__cxa_allocate_exception
 7676      00
 7677 3a50 31D2     		xorl	%edx, %edx
 7678 3a52 48C70000 		movq	$.LC61, (%rax)
 7678      000000
 7679 3a59 BE000000 		movl	$_ZTIPKc, %esi
 7679      00
 7680 3a5e 4889C7   		movq	%rax, %rdi
 7681              	.LEHB251:
 7682 3a61 E8000000 		call	__cxa_throw
 7682      00
 7683 3a66 662E0F1F 		.p2align 4,,10
 7683      84000000 
 7683      0000
 7684              		.p2align 3
 7685              	.L828:
 7686 3a70 488DBC24 		leaq	128(%rsp), %rdi
 7686      80000000 
 7687 3a78 4531C0   		xorl	%r8d, %r8d
 7688 3a7b B9000000 		movl	$.LC80, %ecx
 7688      00
 7689 3a80 BA000000 		movl	$.LC102, %edx
 7689      00
 7690 3a85 BE000000 		movl	$.LC103, %esi
 7690      00
 7691 3a8a E8000000 		call	_ZN8UnitTest4TestC2EPKcS2_S2_i
 7691      00
 7692              	.LEHE251:
 7693 3a8f 488DBC24 		leaq	192(%rsp), %rdi
 7693      C0000000 
 7694 3a97 4531C0   		xorl	%r8d, %r8d
 7695 3a9a B9000000 		movl	$.LC80, %ecx
 7695      00
 7696 3a9f BA000000 		movl	$.LC102, %edx
 7696      00
 7697 3aa4 BE000000 		movl	$.LC103, %esi
 7697      00
 7698 3aa9 48C78424 		movq	$_ZTVN12_GLOBAL__N_18MockTestE+16, 128(%rsp)
 7698      80000000 
 7698      00000000 
 7699 3ab5 C68424B1 		movb	$1, 177(%rsp)
 7699      00000001 
 7700 3abd C68424B2 		movb	$0, 178(%rsp)
 7700      00000000 
 7701 3ac5 C78424B4 		movl	$1, 180(%rsp)
 7701      00000001 
 7701      000000
 7702              	.LEHB252:
 7703 3ad0 E8000000 		call	_ZN8UnitTest4TestC2EPKcS2_S2_i
 7703      00
 7704              	.LEHE252:
 7705 3ad5 488DBC24 		leaq	256(%rsp), %rdi
 7705      00010000 
 7706 3add 4531C0   		xorl	%r8d, %r8d
 7707 3ae0 B9000000 		movl	$.LC80, %ecx
 7707      00
 7708 3ae5 BA000000 		movl	$.LC102, %edx
 7708      00
 7709 3aea BE000000 		movl	$.LC103, %esi
 7709      00
 7710 3aef 48C78424 		movq	$_ZTVN12_GLOBAL__N_18MockTestE+16, 192(%rsp)
 7710      C0000000 
 7710      00000000 
 7711 3afb C68424F1 		movb	$1, 241(%rsp)
 7711      00000001 
 7712 3b03 C68424F2 		movb	$0, 242(%rsp)
 7712      00000000 
 7713 3b0b C78424F4 		movl	$1, 244(%rsp)
 7713      00000001 
 7713      000000
 7714              	.LEHB253:
 7715 3b16 E8000000 		call	_ZN8UnitTest4TestC2EPKcS2_S2_i
 7715      00
 7716              	.LEHE253:
 7717 3b1b 488B2C24 		movq	(%rsp), %rbp
 7718 3b1f 488DB424 		leaq	128(%rsp), %rsi
 7718      80000000 
 7719 3b27 48C78424 		movq	$_ZTVN12_GLOBAL__N_18MockTestE+16, 256(%rsp)
 7719      00010000 
 7719      00000000 
 7720 3b33 C6842431 		movb	$1, 305(%rsp)
 7720      01000001 
 7721 3b3b C6842432 		movb	$0, 306(%rsp)
 7721      01000000 
 7722 3b43 C7842434 		movl	$1, 308(%rsp)
 7722      01000001 
 7722      000000
 7723 3b4e 488D9D48 		leaq	2120(%rbp), %rbx
 7723      080000
 7724 3b55 4889DF   		movq	%rbx, %rdi
 7725              	.LEHB254:
 7726 3b58 E8000000 		call	_ZN8UnitTest8TestList3AddEPNS_4TestE
 7726      00
 7727 3b5d 488DB424 		leaq	192(%rsp), %rsi
 7727      C0000000 
 7728 3b65 4889DF   		movq	%rbx, %rdi
 7729 3b68 E8000000 		call	_ZN8UnitTest8TestList3AddEPNS_4TestE
 7729      00
 7730 3b6d 488DB424 		leaq	256(%rsp), %rsi
 7730      00010000 
 7731 3b75 4889DF   		movq	%rbx, %rdi
 7732 3b78 E8000000 		call	_ZN8UnitTest8TestList3AddEPNS_4TestE
 7732      00
 7733 3b7d E8000000 		call	_ZN8UnitTest11CurrentTest7ResultsEv
 7733      00
 7734 3b82 4C8B20   		movq	(%rax), %r12
 7735 3b85 E8000000 		call	_ZN8UnitTest11CurrentTest7DetailsEv
 7735      00
 7736 3b8a 4889DF   		movq	%rbx, %rdi
 7737 3b8d 4C8B28   		movq	(%rax), %r13
 7738 3b90 E8000000 		call	_ZNK8UnitTest8TestList7GetHeadEv
 7738      00
 7739 3b95 4885C0   		testq	%rax, %rax
 7740 3b98 4889C3   		movq	%rax, %rbx
 7741 3b9b 7432     		je	.L794
 7742 3b9d 0F1F00   		.p2align 4,,10
 7743              		.p2align 3
 7744              	.L827:
 7745 3ba0 31D2     		xorl	%edx, %edx
 7746 3ba2 4889DE   		movq	%rbx, %rsi
 7747 3ba5 4889EF   		movq	%rbp, %rdi
 7748 3ba8 E8000000 		call	_ZNK8UnitTest10TestRunner13IsTestInSuiteEPKNS_4TestEPKc
 7748      00
 7749 3bad 84C0     		testb	%al, %al
 7750 3baf 7415     		je	.L814
 7751 3bb1 488B0424 		movq	(%rsp), %rax
 7752 3bb5 31C9     		xorl	%ecx, %ecx
 7753 3bb7 4889DA   		movq	%rbx, %rdx
 7754 3bba 4889EF   		movq	%rbp, %rdi
 7755 3bbd 488B7008 		movq	8(%rax), %rsi
 7756 3bc1 E8000000 		call	_ZNK8UnitTest10TestRunner7RunTestEPNS_11TestResultsEPNS_4TestEi
 7756      00
 7757              	.L814:
 7758 3bc6 488B5B28 		movq	40(%rbx), %rbx
 7759 3bca 4885DB   		testq	%rbx, %rbx
 7760 3bcd 75D1     		jne	.L827
 7761              	.L794:
 7762 3bcf 488B3C24 		movq	(%rsp), %rdi
 7763 3bd3 E8000000 		call	_ZNK8UnitTest10TestRunner6FinishEv
 7763      00
 7764 3bd8 E8000000 		call	_ZN8UnitTest11CurrentTest7ResultsEv
 7764      00
 7765 3bdd 4C8920   		movq	%r12, (%rax)
 7766 3be0 E8000000 		call	_ZN8UnitTest11CurrentTest7DetailsEv
 7766      00
 7767              	.LEHE254:
 7768 3be5 4C8928   		movq	%r13, (%rax)
 7769              	.LEHB255:
 7770 3be8 E8000000 		call	_ZN8UnitTest11CurrentTest7DetailsEv
 7770      00
 7771 3bed 488B30   		movq	(%rax), %rsi
 7772 3bf0 488D7C24 		leaq	96(%rsp), %rdi
 7772      60
 7773 3bf5 BA8D0000 		movl	$141, %edx
 7773      00
 7774 3bfa E8000000 		call	_ZN8UnitTest11TestDetailsC1ERKS0_i
 7774      00
 7775 3bff 488B1C24 		movq	(%rsp), %rbx
 7776 3c03 C744241C 		movl	$3, 28(%rsp)
 7776      03000000 
 7777 3c0b 4881C334 		addq	$2100, %rbx
 7777      080000
 7778 3c12 E8000000 		call	_ZN8UnitTest11CurrentTest7ResultsEv
 7778      00
 7779 3c17 488B38   		movq	(%rax), %rdi
 7780 3c1a 488D4C24 		leaq	96(%rsp), %rcx
 7780      60
 7781 3c1f 488D7424 		leaq	28(%rsp), %rsi
 7781      1C
 7782 3c24 4889DA   		movq	%rbx, %rdx
 7783 3c27 E8000000 		call	_ZN8UnitTest10CheckEqualIiiEEvRNS_11TestResultsERKT_RKT0_RKNS_11TestDetailsE
 7783      00
 7784              	.LEHE255:
 7785              	.L798:
 7786 3c2c 488DBC24 		leaq	256(%rsp), %rdi
 7786      00010000 
 7787 3c34 48C78424 		movq	$_ZTVN12_GLOBAL__N_18MockTestE+16, 256(%rsp)
 7787      00010000 
 7787      00000000 
 7788              	.LEHB256:
 7789 3c40 E8000000 		call	_ZN8UnitTest4TestD2Ev
 7789      00
 7790              	.LEHE256:
 7791 3c45 488DBC24 		leaq	192(%rsp), %rdi
 7791      C0000000 
 7792 3c4d 48C78424 		movq	$_ZTVN12_GLOBAL__N_18MockTestE+16, 192(%rsp)
 7792      C0000000 
 7792      00000000 
 7793              	.LEHB257:
 7794 3c59 E8000000 		call	_ZN8UnitTest4TestD2Ev
 7794      00
 7795              	.LEHE257:
 7796 3c5e 488DBC24 		leaq	128(%rsp), %rdi
 7796      80000000 
 7797 3c66 48C78424 		movq	$_ZTVN12_GLOBAL__N_18MockTestE+16, 128(%rsp)
 7797      80000000 
 7797      00000000 
 7798              	.LEHB258:
 7799 3c72 E8000000 		call	_ZN8UnitTest4TestD2Ev
 7799      00
 7800              	.LEHE258:
 7801 3c77 488DBC24 		leaq	736(%rsp), %rdi
 7801      E0020000 
 7802              	.LEHB259:
 7803 3c7f E8000000 		call	_ZN8UnitTest16SignalTranslatorD1Ev
 7803      00
 7804              	.LEHE259:
 7805              	.L788:
 7806 3c84 488B8424 		movq	1864(%rsp), %rax
 7806      48070000 
 7807 3c8c 64483304 		xorq	%fs:40, %rax
 7807      25280000 
 7807      00
 7808 3c95 0F85C700 		jne	.L836
 7808      0000
 7809 3c9b 4881C458 		addq	$1880, %rsp
 7809      070000
 7810              		.cfi_remember_state
 7811              		.cfi_def_cfa_offset 40
 7812 3ca2 5B       		popq	%rbx
 7813              		.cfi_def_cfa_offset 32
 7814 3ca3 5D       		popq	%rbp
 7815              		.cfi_def_cfa_offset 24
 7816 3ca4 415C     		popq	%r12
 7817              		.cfi_def_cfa_offset 16
 7818 3ca6 415D     		popq	%r13
 7819              		.cfi_def_cfa_offset 8
 7820 3ca8 C3       		ret
 7821              	.L821:
 7822              		.cfi_restore_state
 7823 3ca9 4889C3   		movq	%rax, %rbx
 7824 3cac 4889D5   		movq	%rdx, %rbp
 7825              	.L803:
 7826 3caf 488DBC24 		leaq	736(%rsp), %rdi
 7826      E0020000 
 7827 3cb7 E8000000 		call	_ZN8UnitTest16SignalTranslatorD1Ev
 7827      00
 7828 3cbc 4889DF   		movq	%rbx, %rdi
 7829 3cbf 4889EA   		movq	%rbp, %rdx
 7830              	.L804:
 7831 3cc2 4883FA01 		cmpq	$1, %rdx
 7832 3cc6 0F84E300 		je	.L806
 7832      0000
 7833 3ccc 4883FA02 		cmpq	$2, %rdx
 7834 3cd0 0F85B300 		jne	.L837
 7834      0000
 7835 3cd6 E8000000 		call	__cxa_begin_catch
 7835      00
 7836 3cdb 488DBC24 		leaq	320(%rsp), %rdi
 7836      40010000 
 7837 3ce3 4889C3   		movq	%rax, %rbx
 7838              	.LEHB260:
 7839 3ce6 E8000000 		call	_ZN8UnitTest15MemoryOutStreamC1Ev
 7839      00
 7840              	.LEHE260:
 7841 3ceb 488B03   		movq	(%rbx), %rax
 7842 3cee 4889DF   		movq	%rbx, %rdi
 7843 3cf1 FF5010   		call	*16(%rax)
 7844 3cf4 488DBC24 		leaq	320(%rsp), %rdi
 7844      40010000 
 7845 3cfc BA150000 		movl	$21, %edx
 7845      00
 7846 3d01 BE000000 		movl	$.LC69, %esi
 7846      00
 7847 3d06 4889C3   		movq	%rax, %rbx
 7848              	.LEHB261:
 7849 3d09 E8000000 		call	_ZSt16__ostream_insertIcSt11char_traitsIcEERSt13basic_ostreamIT_T0_ES6_PKS3_l
 7849      00
 7850 3d0e 488DBC24 		leaq	320(%rsp), %rdi
 7850      40010000 
 7851 3d16 4889DE   		movq	%rbx, %rsi
 7852 3d19 E8000000 		call	_ZStlsISt11char_traitsIcEERSt13basic_ostreamIcT_ES5_PKc
 7852      00
 7853 3d1e 488DBC24 		leaq	320(%rsp), %rdi
 7853      40010000 
 7854 3d26 E8000000 		call	_ZNK8UnitTest15MemoryOutStream7GetTextEv
 7854      00
 7855 3d2b 4889C3   		movq	%rax, %rbx
 7856 3d2e E8000000 		call	_ZN8UnitTest11CurrentTest7ResultsEv
 7856      00
 7857 3d33 488B7424 		movq	8(%rsp), %rsi
 7857      08
 7858 3d38 488B38   		movq	(%rax), %rdi
 7859 3d3b 4889DA   		movq	%rbx, %rdx
 7860 3d3e E8000000 		call	_ZN8UnitTest11TestResults13OnTestFailureERKNS_11TestDetailsEPKc
 7860      00
 7861              	.LEHE261:
 7862 3d43 488DBC24 		leaq	320(%rsp), %rdi
 7862      40010000 
 7863              	.LEHB262:
 7864 3d4b E8000000 		call	_ZN8UnitTest15MemoryOutStreamD1Ev
 7864      00
 7865              	.LEHE262:
 7866              	.L832:
 7867 3d50 E8000000 		call	__cxa_end_catch
 7867      00
 7868 3d55 E92AFFFF 		jmp	.L788
 7868      FF
 7869              	.L820:
 7870 3d5a 4889C7   		movq	%rax, %rdi
 7871 3d5d E960FFFF 		jmp	.L804
 7871      FF
 7872              	.L836:
 7873 3d62 E8000000 		call	__stack_chk_fail
 7873      00
 7874              	.L818:
 7875 3d67 488DBC24 		leaq	320(%rsp), %rdi
 7875      40010000 
 7876 3d6f 4889C3   		movq	%rax, %rbx
 7877 3d72 E8000000 		call	_ZN8UnitTest15MemoryOutStreamD1Ev
 7877      00
 7878              	.L812:
 7879 3d77 E8000000 		call	__cxa_end_catch
 7879      00
 7880 3d7c 4889DF   		movq	%rbx, %rdi
 7881              	.LEHB263:
 7882 3d7f E8000000 		call	_Unwind_Resume
 7882      00
 7883              	.LEHE263:
 7884              	.L817:
 7885              	.L833:
 7886 3d84 4889C3   		movq	%rax, %rbx
 7887 3d87 EBEE     		jmp	.L812
 7888              	.L837:
 7889 3d89 E8000000 		call	__cxa_begin_catch
 7889      00
 7890              	.LEHB264:
 7891 3d8e E8000000 		call	_ZN8UnitTest11CurrentTest7ResultsEv
 7891      00
 7892 3d93 488B7424 		movq	8(%rsp), %rsi
 7892      08
 7893 3d98 488B38   		movq	(%rax), %rdi
 7894 3d9b BA000000 		movl	$.LC70, %edx
 7894      00
 7895 3da0 E8000000 		call	_ZN8UnitTest11TestResults13OnTestFailureERKNS_11TestDetailsEPKc
 7895      00
 7896              	.LEHE264:
 7897              	.LEHB265:
 7898 3da5 E8000000 		call	__cxa_end_catch
 7898      00
 7899              	.LEHE265:
 7900 3daa E9D5FEFF 		jmp	.L788
 7900      FF
 7901              	.L806:
 7902 3daf E8000000 		call	__cxa_begin_catch
 7902      00
 7903 3db4 4889C3   		movq	%rax, %rbx
 7904 3db7 488B00   		movq	(%rax), %rax
 7905 3dba 4889DF   		movq	%rbx, %rdi
 7906 3dbd FF5010   		call	*16(%rax)
 7907 3dc0 4889DF   		movq	%rbx, %rdi
 7908 3dc3 4889C5   		movq	%rax, %rbp
 7909              	.LEHB266:
 7910 3dc6 E8000000 		call	_ZNK8UnitTest15AssertException10LineNumberEv
 7910      00
 7911 3dcb 4889DF   		movq	%rbx, %rdi
 7912 3dce 4189C4   		movl	%eax, %r12d
 7913 3dd1 E8000000 		call	_ZNK8UnitTest15AssertException8FilenameEv
 7913      00
 7914 3dd6 488B5424 		movq	8(%rsp), %rdx
 7914      08
 7915 3ddb 488D7C24 		leaq	32(%rsp), %rdi
 7915      20
 7916 3de0 4589E0   		movl	%r12d, %r8d
 7917 3de3 4889C1   		movq	%rax, %rcx
 7918 3de6 488B7208 		movq	8(%rdx), %rsi
 7919 3dea 488B12   		movq	(%rdx), %rdx
 7920 3ded E8000000 		call	_ZN8UnitTest11TestDetailsC1EPKcS2_S2_i
 7920      00
 7921 3df2 E8000000 		call	_ZN8UnitTest11CurrentTest7ResultsEv
 7921      00
 7922 3df7 488B38   		movq	(%rax), %rdi
 7923 3dfa 488D7424 		leaq	32(%rsp), %rsi
 7923      20
 7924 3dff 4889EA   		movq	%rbp, %rdx
 7925 3e02 E8000000 		call	_ZN8UnitTest11TestResults13OnTestFailureERKNS_11TestDetailsEPKc
 7925      00
 7926              	.LEHE266:
 7927 3e07 E944FFFF 		jmp	.L832
 7927      FF
 7928              	.L816:
 7929 3e0c 4889C3   		movq	%rax, %rbx
 7930 3e0f E8000000 		call	__cxa_end_catch
 7930      00
 7931 3e14 4889DF   		movq	%rbx, %rdi
 7932              	.LEHB267:
 7933 3e17 E8000000 		call	_Unwind_Resume
 7933      00
 7934              	.LEHE267:
 7935              	.L819:
 7936 3e1c E963FFFF 		jmp	.L833
 7936      FF
 7937              	.L826:
 7938 3e21 4889C7   		movq	%rax, %rdi
 7939 3e24 E8000000 		call	__cxa_begin_catch
 7939      00
 7940              	.LEHB268:
 7941 3e29 E8000000 		call	_ZN8UnitTest11CurrentTest7DetailsEv
 7941      00
 7942 3e2e 488B30   		movq	(%rax), %rsi
 7943 3e31 488D7C24 		leaq	64(%rsp), %rdi
 7943      40
 7944 3e36 BA8D0000 		movl	$141, %edx
 7944      00
 7945 3e3b E8000000 		call	_ZN8UnitTest11TestDetailsC1ERKS0_i
 7945      00
 7946 3e40 E8000000 		call	_ZN8UnitTest11CurrentTest7ResultsEv
 7946      00
 7947 3e45 488B38   		movq	(%rax), %rdi
 7948 3e48 488D7424 		leaq	64(%rsp), %rsi
 7948      40
 7949 3e4d BA000000 		movl	$.LC110, %edx
 7949      00
 7950 3e52 E8000000 		call	_ZN8UnitTest11TestResults13OnTestFailureERKNS_11TestDetailsEPKc
 7950      00
 7951              	.LEHE268:
 7952              	.LEHB269:
 7953 3e57 E8000000 		call	__cxa_end_catch
 7953      00
 7954              	.LEHE269:
 7955 3e5c E9CBFDFF 		jmp	.L798
 7955      FF
 7956              	.L824:
 7957 3e61 4889C3   		movq	%rax, %rbx
 7958 3e64 4889D5   		movq	%rdx, %rbp
 7959              	.L800:
 7960 3e67 488DBC24 		leaq	256(%rsp), %rdi
 7960      00010000 
 7961 3e6f 48C78424 		movq	$_ZTVN12_GLOBAL__N_18MockTestE+16, 256(%rsp)
 7961      00010000 
 7961      00000000 
 7962 3e7b E8000000 		call	_ZN8UnitTest4TestD2Ev
 7962      00
 7963              	.L801:
 7964 3e80 488DBC24 		leaq	192(%rsp), %rdi
 7964      C0000000 
 7965 3e88 48C78424 		movq	$_ZTVN12_GLOBAL__N_18MockTestE+16, 192(%rsp)
 7965      C0000000 
 7965      00000000 
 7966 3e94 E8000000 		call	_ZN8UnitTest4TestD2Ev
 7966      00
 7967              	.L802:
 7968 3e99 488DBC24 		leaq	128(%rsp), %rdi
 7968      80000000 
 7969 3ea1 48C78424 		movq	$_ZTVN12_GLOBAL__N_18MockTestE+16, 128(%rsp)
 7969      80000000 
 7969      00000000 
 7970 3ead E8000000 		call	_ZN8UnitTest4TestD2Ev
 7970      00
 7971 3eb2 E9F8FDFF 		jmp	.L803
 7971      FF
 7972              	.L825:
 7973 3eb7 4889C3   		movq	%rax, %rbx
 7974 3eba 4889D5   		movq	%rdx, %rbp
 7975 3ebd E8000000 		call	__cxa_end_catch
 7975      00
 7976 3ec2 EBA3     		jmp	.L800
 7977              	.L823:
 7978 3ec4 4889C3   		movq	%rax, %rbx
 7979 3ec7 4889D5   		movq	%rdx, %rbp
 7980 3eca EBB4     		jmp	.L801
 7981              	.L822:
 7982 3ecc 4889C3   		movq	%rax, %rbx
 7983 3ecf 4889D5   		movq	%rdx, %rbp
 7984 3ed2 EBC5     		jmp	.L802
 7985              		.cfi_endproc
 7986              	.LFE1582:
 7987              		.section	.gcc_except_table
 7988              		.align 4
 7989              	.LLSDA1582:
 7990 070c FF       		.byte	0xff
 7991 070d 03       		.byte	0x3
 7992 070e 9001     		.uleb128 .LLSDATT1582-.LLSDATTD1582
 7993              	.LLSDATTD1582:
 7994 0710 01       		.byte	0x1
 7995 0711 78       		.uleb128 .LLSDACSE1582-.LLSDACSB1582
 7996              	.LLSDACSB1582:
 7997 0712 2C       		.uleb128 .LEHB249-.LFB1582
 7998 0713 05       		.uleb128 .LEHE249-.LEHB249
 7999 0714 00       		.uleb128 0
 8000 0715 00       		.uleb128 0
 8001 0716 3C       		.uleb128 .LEHB250-.LFB1582
 8002 0717 05       		.uleb128 .LEHE250-.LEHB250
 8003 0718 EA06     		.uleb128 .L820-.LFB1582
 8004 071a 05       		.uleb128 0x5
 8005 071b 71       		.uleb128 .LEHB251-.LFB1582
 8006 071c 2E       		.uleb128 .LEHE251-.LEHB251
 8007 071d B905     		.uleb128 .L821-.LFB1582
 8008 071f 07       		.uleb128 0x7
 8009 0720 E001     		.uleb128 .LEHB252-.LFB1582
 8010 0722 05       		.uleb128 .LEHE252-.LEHB252
 8011 0723 DC09     		.uleb128 .L822-.LFB1582
 8012 0725 07       		.uleb128 0x7
 8013 0726 A602     		.uleb128 .LEHB253-.LFB1582
 8014 0728 05       		.uleb128 .LEHE253-.LEHB253
 8015 0729 D409     		.uleb128 .L823-.LFB1582
 8016 072b 07       		.uleb128 0x7
 8017 072c E802     		.uleb128 .LEHB254-.LFB1582
 8018 072e 8D01     		.uleb128 .LEHE254-.LEHB254
 8019 0730 F108     		.uleb128 .L824-.LFB1582
 8020 0732 07       		.uleb128 0x7
 8021 0733 F803     		.uleb128 .LEHB255-.LFB1582
 8022 0735 44       		.uleb128 .LEHE255-.LEHB255
 8023 0736 B108     		.uleb128 .L826-.LFB1582
 8024 0738 01       		.uleb128 0x1
 8025 0739 D004     		.uleb128 .LEHB256-.LFB1582
 8026 073b 05       		.uleb128 .LEHE256-.LEHB256
 8027 073c D409     		.uleb128 .L823-.LFB1582
 8028 073e 07       		.uleb128 0x7
 8029 073f E904     		.uleb128 .LEHB257-.LFB1582
 8030 0741 05       		.uleb128 .LEHE257-.LEHB257
 8031 0742 DC09     		.uleb128 .L822-.LFB1582
 8032 0744 07       		.uleb128 0x7
 8033 0745 8205     		.uleb128 .LEHB258-.LFB1582
 8034 0747 05       		.uleb128 .LEHE258-.LEHB258
 8035 0748 B905     		.uleb128 .L821-.LFB1582
 8036 074a 07       		.uleb128 0x7
 8037 074b 8F05     		.uleb128 .LEHB259-.LFB1582
 8038 074d 05       		.uleb128 .LEHE259-.LEHB259
 8039 074e EA06     		.uleb128 .L820-.LFB1582
 8040 0750 05       		.uleb128 0x5
 8041 0751 F605     		.uleb128 .LEHB260-.LFB1582
 8042 0753 05       		.uleb128 .LEHE260-.LEHB260
 8043 0754 9407     		.uleb128 .L817-.LFB1582
 8044 0756 00       		.uleb128 0
 8045 0757 9906     		.uleb128 .LEHB261-.LFB1582
 8046 0759 3A       		.uleb128 .LEHE261-.LEHB261
 8047 075a F706     		.uleb128 .L818-.LFB1582
 8048 075c 00       		.uleb128 0
 8049 075d DB06     		.uleb128 .LEHB262-.LFB1582
 8050 075f 05       		.uleb128 .LEHE262-.LEHB262
 8051 0760 9407     		.uleb128 .L817-.LFB1582
 8052 0762 00       		.uleb128 0
 8053 0763 8F07     		.uleb128 .LEHB263-.LFB1582
 8054 0765 05       		.uleb128 .LEHE263-.LEHB263
 8055 0766 00       		.uleb128 0
 8056 0767 00       		.uleb128 0
 8057 0768 9E07     		.uleb128 .LEHB264-.LFB1582
 8058 076a 17       		.uleb128 .LEHE264-.LEHB264
 8059 076b 9C08     		.uleb128 .L816-.LFB1582
 8060 076d 00       		.uleb128 0
 8061 076e B507     		.uleb128 .LEHB265-.LFB1582
 8062 0770 05       		.uleb128 .LEHE265-.LEHB265
 8063 0771 00       		.uleb128 0
 8064 0772 00       		.uleb128 0
 8065 0773 D607     		.uleb128 .LEHB266-.LFB1582
 8066 0775 41       		.uleb128 .LEHE266-.LEHB266
 8067 0776 AC08     		.uleb128 .L819-.LFB1582
 8068 0778 00       		.uleb128 0
 8069 0779 A708     		.uleb128 .LEHB267-.LFB1582
 8070 077b 05       		.uleb128 .LEHE267-.LEHB267
 8071 077c 00       		.uleb128 0
 8072 077d 00       		.uleb128 0
 8073 077e B908     		.uleb128 .LEHB268-.LFB1582
 8074 0780 2E       		.uleb128 .LEHE268-.LEHB268
 8075 0781 C709     		.uleb128 .L825-.LFB1582
 8076 0783 07       		.uleb128 0x7
 8077 0784 E708     		.uleb128 .LEHB269-.LFB1582
 8078 0786 05       		.uleb128 .LEHE269-.LEHB269
 8079 0787 F108     		.uleb128 .L824-.LFB1582
 8080 0789 07       		.uleb128 0x7
 8081              	.LLSDACSE1582:
 8082 078a 03       		.byte	0x3
 8083 078b 00       		.byte	0
 8084 078c 02       		.byte	0x2
 8085 078d 7D       		.byte	0x7d
 8086 078e 01       		.byte	0x1
 8087 078f 7D       		.byte	0x7d
 8088 0790 00       		.byte	0
 8089 0791 7D       		.byte	0x7d
 8090 0792 0000     		.align 4
 8091 0794 00000000 		.long	0
 8092              	
 8093 0798 00000000 		.long	_ZTISt9exception
 8094 079c 00000000 		.long	_ZTIN8UnitTest15AssertExceptionE
 8095              	.LLSDATT1582:
 8096              		.text
 8098              		.section	.text.unlikely
 8099              	.LCOLDE111:
 8100              		.text
 8101              	.LHOTE111:
 8102              		.section	.text.unlikely
 8103              		.align 2
 8104              	.LCOLDB112:
 8105              		.text
 8106              	.LHOTB112:
 8107              		.align 2
 8108 3ed4 6690662E 		.p2align 4,,15
 8108      0F1F8400 
 8108      00000000 
 8110              	_ZNK12_GLOBAL__N_148TestTestRunnerFixtureReporterNotifiedOfTestCount7RunImplEv:
 8111              	.LFB1229:
 8112              		.cfi_startproc
 8113              		.cfi_personality 0x3,__gxx_personality_v0
 8114              		.cfi_lsda 0x3,.LLSDA1229
 8115 3ee0 4155     		pushq	%r13
 8116              		.cfi_def_cfa_offset 16
 8117              		.cfi_offset 13, -16
 8118 3ee2 4154     		pushq	%r12
 8119              		.cfi_def_cfa_offset 24
 8120              		.cfi_offset 12, -24
 8121 3ee4 55       		pushq	%rbp
 8122              		.cfi_def_cfa_offset 32
 8123              		.cfi_offset 6, -32
 8124 3ee5 53       		pushq	%rbx
 8125              		.cfi_def_cfa_offset 40
 8126              		.cfi_offset 3, -40
 8127 3ee6 4889FD   		movq	%rdi, %rbp
 8128 3ee9 488D5F08 		leaq	8(%rdi), %rbx
 8129 3eed 4881EC98 		subq	$2200, %rsp
 8129      080000
 8130              		.cfi_def_cfa_offset 2240
 8131 3ef4 64488B04 		movq	%fs:40, %rax
 8131      25280000 
 8131      00
 8132 3efd 48898424 		movq	%rax, 2184(%rsp)
 8132      88080000 
 8133 3f05 31C0     		xorl	%eax, %eax
 8134 3f07 488D4424 		leaq	32(%rsp), %rax
 8134      20
 8135 3f0c 488D7424 		leaq	56(%rsp), %rsi
 8135      38
 8136 3f11 4889C7   		movq	%rax, %rdi
 8137              	.LEHB270:
 8138 3f14 E8000000 		call	_ZN8UnitTest10TestRunnerC1ERNS_12TestReporterE
 8138      00
 8139              	.LEHE270:
 8140 3f19 488DBC24 		leaq	2152(%rsp), %rdi
 8140      68080000 
 8141 3f21 48C74424 		movq	$_ZTV17RecordingReporter+16, 56(%rsp)
 8141      38000000 
 8141      00
 8142 3f2a C7442440 		movl	$0, 64(%rsp)
 8142      00000000 
 8143 3f32 C7842444 		movl	$0, 580(%rsp)
 8143      02000000 
 8143      000000
 8144 3f3d C7842448 		movl	$0, 840(%rsp)
 8144      03000000 
 8144      000000
 8145 3f48 C784244C 		movl	$0, 1612(%rsp)
 8145      06000000 
 8145      000000
 8146 3f53 C7842450 		movl	$0x00000000, 2128(%rsp)
 8146      08000000 
 8146      000000
 8147 3f5e C7842454 		movl	$0, 2132(%rsp)
 8147      08000000 
 8147      000000
 8148 3f69 C7842458 		movl	$0, 2136(%rsp)
 8148      08000000 
 8148      000000
 8149 3f74 C784245C 		movl	$0, 2140(%rsp)
 8149      08000000 
 8149      000000
 8150 3f7f C7842460 		movl	$0x00000000, 2144(%rsp)
 8150      08000000 
 8150      000000
 8151 3f8a C6442444 		movb	$0, 68(%rsp)
 8151      00
 8152 3f8f C6842444 		movb	$0, 324(%rsp)
 8152      01000000 
 8153 3f97 C6842448 		movb	$0, 584(%rsp)
 8153      02000000 
 8154 3f9f C684244C 		movb	$0, 844(%rsp)
 8154      03000000 
 8155 3fa7 C684244C 		movb	$0, 1100(%rsp)
 8155      04000000 
 8156 3faf C684244C 		movb	$0, 1356(%rsp)
 8156      05000000 
 8157 3fb7 C6842450 		movb	$0, 1616(%rsp)
 8157      06000000 
 8158 3fbf C6842450 		movb	$0, 1872(%rsp)
 8158      07000000 
 8159              	.LEHB271:
 8160 3fc7 E8000000 		call	_ZN8UnitTest8TestListC1Ev
 8160      00
 8161              	.LEHE271:
 8162 3fcc 488D7C24 		leaq	32(%rsp), %rdi
 8162      20
 8163 3fd1 4889DE   		movq	%rbx, %rsi
 8164 3fd4 48899C24 		movq	%rbx, 2168(%rsp)
 8164      78080000 
 8165              	.LEHB272:
 8166 3fdc E80FFAFF 		call	_ZN8UnitTest11ExecuteTestIN12_GLOBAL__N_150TestRunnerFixtureReporterNotifiedOfTestCountHelper
 8166      FF
 8167              	.LEHE272:
 8168 3fe1 488D7C24 		leaq	56(%rsp), %rdi
 8168      38
 8169 3fe6 48C74424 		movq	$_ZTV17RecordingReporter+16, 56(%rsp)
 8169      38000000 
 8169      00
 8170              	.LEHB273:
 8171 3fef E8000000 		call	_ZN8UnitTest12TestReporterD2Ev
 8171      00
 8172              	.LEHE273:
 8173 3ff4 488D7C24 		leaq	32(%rsp), %rdi
 8173      20
 8174              	.LEHB274:
 8175 3ff9 E8000000 		call	_ZN8UnitTest10TestRunnerD1Ev
 8175      00
 8176              	.LEHE274:
 8177              	.L838:
 8178 3ffe 488B8424 		movq	2184(%rsp), %rax
 8178      88080000 
 8179 4006 64483304 		xorq	%fs:40, %rax
 8179      25280000 
 8179      00
 8180 400f 750E     		jne	.L877
 8181 4011 4881C498 		addq	$2200, %rsp
 8181      080000
 8182              		.cfi_remember_state
 8183              		.cfi_def_cfa_offset 40
 8184 4018 5B       		popq	%rbx
 8185              		.cfi_def_cfa_offset 32
 8186 4019 5D       		popq	%rbp
 8187              		.cfi_def_cfa_offset 24
 8188 401a 415C     		popq	%r12
 8189              		.cfi_def_cfa_offset 16
 8190 401c 415D     		popq	%r13
 8191              		.cfi_def_cfa_offset 8
 8192 401e C3       		ret
 8193              	.L877:
 8194              		.cfi_restore_state
 8195 401f E8000000 		call	__stack_chk_fail
 8195      00
 8196              	.L859:
 8197 4024 4889C7   		movq	%rax, %rdi
 8198 4027 41BC0100 		movl	$1, %r12d
 8198      0000
 8199              	.L841:
 8200 402d 4883FA01 		cmpq	$1, %rdx
 8201 4031 0F844501 		je	.L850
 8201      0000
 8202 4037 4883FA02 		cmpq	$2, %rdx
 8203 403b 0F85FE00 		jne	.L878
 8203      0000
 8204 4041 E8000000 		call	__cxa_begin_catch
 8204      00
 8205 4046 488D7C24 		leaq	32(%rsp), %rdi
 8205      20
 8206 404b 4889C5   		movq	%rax, %rbp
 8207              	.LEHB275:
 8208 404e E8000000 		call	_ZN8UnitTest15MemoryOutStreamC1Ev
 8208      00
 8209              	.LEHE275:
 8210 4053 488B4500 		movq	0(%rbp), %rax
 8211 4057 4889EF   		movq	%rbp, %rdi
 8212 405a FF5010   		call	*16(%rax)
 8213 405d 488D7C24 		leaq	32(%rsp), %rdi
 8213      20
 8214 4062 BA150000 		movl	$21, %edx
 8214      00
 8215 4067 BE000000 		movl	$.LC69, %esi
 8215      00
 8216 406c 4889C5   		movq	%rax, %rbp
 8217              	.LEHB276:
 8218 406f E8000000 		call	_ZSt16__ostream_insertIcSt11char_traitsIcEERSt13basic_ostreamIT_T0_ES6_PKS3_l
 8218      00
 8219 4074 488D7C24 		leaq	32(%rsp), %rdi
 8219      20
 8220 4079 4889EE   		movq	%rbp, %rsi
 8221 407c E8000000 		call	_ZStlsISt11char_traitsIcEERSt13basic_ostreamIcT_ES5_PKc
 8221      00
 8222 4081 488D7C24 		leaq	32(%rsp), %rdi
 8222      20
 8223 4086 E8000000 		call	_ZNK8UnitTest15MemoryOutStream7GetTextEv
 8223      00
 8224 408b 4889C5   		movq	%rax, %rbp
 8225 408e E8000000 		call	_ZN8UnitTest11CurrentTest7ResultsEv
 8225      00
 8226 4093 488B38   		movq	(%rax), %rdi
 8227 4096 4889EA   		movq	%rbp, %rdx
 8228 4099 4889DE   		movq	%rbx, %rsi
 8229 409c E8000000 		call	_ZN8UnitTest11TestResults13OnTestFailureERKNS_11TestDetailsEPKc
 8229      00
 8230              	.LEHE276:
 8231 40a1 488D7C24 		leaq	32(%rsp), %rdi
 8231      20
 8232              	.LEHB277:
 8233 40a6 E8000000 		call	_ZN8UnitTest15MemoryOutStreamD1Ev
 8233      00
 8234              	.LEHE277:
 8235              	.L872:
 8236 40ab E8000000 		call	__cxa_end_catch
 8236      00
 8237 40b0 E949FFFF 		jmp	.L838
 8237      FF
 8238              	.L866:
 8239 40b5 488D7C24 		leaq	32(%rsp), %rdi
 8239      20
 8240 40ba 4989D4   		movq	%rdx, %r12
 8241 40bd 4989C5   		movq	%rax, %r13
 8242 40c0 E8000000 		call	_ZN8UnitTest10TestRunnerD1Ev
 8242      00
 8243 40c5 4C89E2   		movq	%r12, %rdx
 8244 40c8 4C89EF   		movq	%r13, %rdi
 8245 40cb 41BC0100 		movl	$1, %r12d
 8245      0000
 8246 40d1 E957FFFF 		jmp	.L841
 8246      FF
 8247              	.L860:
 8248 40d6 488D7C24 		leaq	32(%rsp), %rdi
 8248      20
 8249 40db 4989D4   		movq	%rdx, %r12
 8250 40de 4989C5   		movq	%rax, %r13
 8251 40e1 E8000000 		call	_ZN12_GLOBAL__N_111FixtureBaseD2Ev
 8251      00
 8252 40e6 4C89E2   		movq	%r12, %rdx
 8253 40e9 4C89EF   		movq	%r13, %rdi
 8254 40ec 41BC0100 		movl	$1, %r12d
 8254      0000
 8255 40f2 E936FFFF 		jmp	.L841
 8255      FF
 8256              	.L865:
 8257 40f7 488D7C24 		leaq	32(%rsp), %rdi
 8257      20
 8258 40fc 4989D4   		movq	%rdx, %r12
 8259 40ff 4989C5   		movq	%rax, %r13
 8260 4102 E8000000 		call	_ZN12_GLOBAL__N_111FixtureBaseD2Ev
 8260      00
 8261 4107 4C89E2   		movq	%r12, %rdx
 8262 410a 4C89EF   		movq	%r13, %rdi
 8263 410d 4531E4   		xorl	%r12d, %r12d
 8264 4110 E918FFFF 		jmp	.L841
 8264      FF
 8265              	.L867:
 8266 4115 4889C7   		movq	%rax, %rdi
 8267 4118 4531E4   		xorl	%r12d, %r12d
 8268 411b E90DFFFF 		jmp	.L841
 8268      FF
 8269              	.L863:
 8270 4120 488D7C24 		leaq	32(%rsp), %rdi
 8270      20
 8271 4125 4889C3   		movq	%rax, %rbx
 8272 4128 E8000000 		call	_ZN8UnitTest15MemoryOutStreamD1Ev
 8272      00
 8273              	.L856:
 8274 412d E8000000 		call	__cxa_end_catch
 8274      00
 8275 4132 4889DF   		movq	%rbx, %rdi
 8276              	.LEHB278:
 8277 4135 E8000000 		call	_Unwind_Resume
 8277      00
 8278              	.LEHE278:
 8279              	.L862:
 8280              	.L873:
 8281 413a 4889C3   		movq	%rax, %rbx
 8282 413d EBEE     		jmp	.L856
 8283              	.L878:
 8284 413f E8000000 		call	__cxa_begin_catch
 8284      00
 8285 4144 4584E4   		testb	%r12b, %r12b
 8286 4147 BA830000 		movl	$131, %edx
 8286      00
 8287 414c 4889DE   		movq	%rbx, %rsi
 8288 414f 4889E7   		movq	%rsp, %rdi
 8289 4152 0F848900 		je	.L852
 8289      0000
 8290              	.LEHB279:
 8291 4158 E8000000 		call	_ZN8UnitTest11TestDetailsC1ERKS0_i
 8291      00
 8292 415d E8000000 		call	_ZN8UnitTest11CurrentTest7ResultsEv
 8292      00
 8293 4162 488B38   		movq	(%rax), %rdi
 8294 4165 BA000000 		movl	$.LC73, %edx
 8294      00
 8295 416a 4889E6   		movq	%rsp, %rsi
 8296 416d E8000000 		call	_ZN8UnitTest11TestResults13OnTestFailureERKNS_11TestDetailsEPKc
 8296      00
 8297              	.LEHE279:
 8298              	.L853:
 8299              	.LEHB280:
 8300 4172 E8000000 		call	__cxa_end_catch
 8300      00
 8301              	.LEHE280:
 8302 4177 E982FEFF 		jmp	.L838
 8302      FF
 8303              	.L850:
 8304 417c E8000000 		call	__cxa_begin_catch
 8304      00
 8305 4181 4889C3   		movq	%rax, %rbx
 8306 4184 488B00   		movq	(%rax), %rax
 8307 4187 4889DF   		movq	%rbx, %rdi
 8308 418a FF5010   		call	*16(%rax)
 8309 418d 4889DF   		movq	%rbx, %rdi
 8310 4190 4989C4   		movq	%rax, %r12
 8311              	.LEHB281:
 8312 4193 E8000000 		call	_ZNK8UnitTest15AssertException10LineNumberEv
 8312      00
 8313 4198 4889DF   		movq	%rbx, %rdi
 8314 419b 4189C5   		movl	%eax, %r13d
 8315 419e E8000000 		call	_ZNK8UnitTest15AssertException8FilenameEv
 8315      00
 8316 41a3 488B5508 		movq	8(%rbp), %rdx
 8317 41a7 488B7510 		movq	16(%rbp), %rsi
 8318 41ab 4589E8   		movl	%r13d, %r8d
 8319 41ae 4889C1   		movq	%rax, %rcx
 8320 41b1 4889E7   		movq	%rsp, %rdi
 8321 41b4 E8000000 		call	_ZN8UnitTest11TestDetailsC1EPKcS2_S2_i
 8321      00
 8322 41b9 E8000000 		call	_ZN8UnitTest11CurrentTest7ResultsEv
 8322      00
 8323 41be 488B38   		movq	(%rax), %rdi
 8324 41c1 4C89E2   		movq	%r12, %rdx
 8325 41c4 4889E6   		movq	%rsp, %rsi
 8326 41c7 E8000000 		call	_ZN8UnitTest11TestResults13OnTestFailureERKNS_11TestDetailsEPKc
 8326      00
 8327              	.LEHE281:
 8328 41cc E9DAFEFF 		jmp	.L872
 8328      FF
 8329              	.L864:
 8330 41d1 4889C3   		movq	%rax, %rbx
 8331 41d4 E8000000 		call	__cxa_end_catch
 8331      00
 8332 41d9 4889DF   		movq	%rbx, %rdi
 8333              	.LEHB282:
 8334 41dc E8000000 		call	_Unwind_Resume
 8334      00
 8335              	.LEHE282:
 8336              	.L852:
 8337              	.LEHB283:
 8338 41e1 E8000000 		call	_ZN8UnitTest11TestDetailsC1ERKS0_i
 8338      00
 8339 41e6 E8000000 		call	_ZN8UnitTest11CurrentTest7ResultsEv
 8339      00
 8340 41eb 488B38   		movq	(%rax), %rdi
 8341 41ee BA000000 		movl	$.LC74, %edx
 8341      00
 8342 41f3 4889E6   		movq	%rsp, %rsi
 8343 41f6 E8000000 		call	_ZN8UnitTest11TestResults13OnTestFailureERKNS_11TestDetailsEPKc
 8343      00
 8344              	.LEHE283:
 8345 41fb E972FFFF 		jmp	.L853
 8345      FF
 8346              	.L861:
 8347 4200 E935FFFF 		jmp	.L873
 8347      FF
 8348              		.cfi_endproc
 8349              	.LFE1229:
 8350              		.section	.gcc_except_table
 8351              		.align 4
 8352              	.LLSDA1229:
 8353 07a0 FF       		.byte	0xff
 8354 07a1 03       		.byte	0x3
 8355 07a2 69       		.uleb128 .LLSDATT1229-.LLSDATTD1229
 8356              	.LLSDATTD1229:
 8357 07a3 01       		.byte	0x1
 8358 07a4 50       		.uleb128 .LLSDACSE1229-.LLSDACSB1229
 8359              	.LLSDACSB1229:
 8360 07a5 34       		.uleb128 .LEHB270-.LFB1229
 8361 07a6 05       		.uleb128 .LEHE270-.LEHB270
 8362 07a7 B504     		.uleb128 .L867-.LFB1229
 8363 07a9 05       		.uleb128 0x5
 8364 07aa E701     		.uleb128 .LEHB271-.LFB1229
 8365 07ac 05       		.uleb128 .LEHE271-.LEHB271
 8366 07ad 9704     		.uleb128 .L865-.LFB1229
 8367 07af 07       		.uleb128 0x7
 8368 07b0 FC01     		.uleb128 .LEHB272-.LFB1229
 8369 07b2 05       		.uleb128 .LEHE272-.LEHB272
 8370 07b3 F603     		.uleb128 .L860-.LFB1229
 8371 07b5 07       		.uleb128 0x7
 8372 07b6 8F02     		.uleb128 .LEHB273-.LFB1229
 8373 07b8 05       		.uleb128 .LEHE273-.LEHB273
 8374 07b9 D503     		.uleb128 .L866-.LFB1229
 8375 07bb 07       		.uleb128 0x7
 8376 07bc 9902     		.uleb128 .LEHB274-.LFB1229
 8377 07be 05       		.uleb128 .LEHE274-.LEHB274
 8378 07bf C402     		.uleb128 .L859-.LFB1229
 8379 07c1 05       		.uleb128 0x5
 8380 07c2 EE02     		.uleb128 .LEHB275-.LFB1229
 8381 07c4 05       		.uleb128 .LEHE275-.LEHB275
 8382 07c5 DA04     		.uleb128 .L862-.LFB1229
 8383 07c7 00       		.uleb128 0
 8384 07c8 8F03     		.uleb128 .LEHB276-.LFB1229
 8385 07ca 32       		.uleb128 .LEHE276-.LEHB276
 8386 07cb C004     		.uleb128 .L863-.LFB1229
 8387 07cd 00       		.uleb128 0
 8388 07ce C603     		.uleb128 .LEHB277-.LFB1229
 8389 07d0 05       		.uleb128 .LEHE277-.LEHB277
 8390 07d1 DA04     		.uleb128 .L862-.LFB1229
 8391 07d3 00       		.uleb128 0
 8392 07d4 D504     		.uleb128 .LEHB278-.LFB1229
 8393 07d6 05       		.uleb128 .LEHE278-.LEHB278
 8394 07d7 00       		.uleb128 0
 8395 07d8 00       		.uleb128 0
 8396 07d9 F804     		.uleb128 .LEHB279-.LFB1229
 8397 07db 1A       		.uleb128 .LEHE279-.LEHB279
 8398 07dc F105     		.uleb128 .L864-.LFB1229
 8399 07de 00       		.uleb128 0
 8400 07df 9205     		.uleb128 .LEHB280-.LFB1229
 8401 07e1 05       		.uleb128 .LEHE280-.LEHB280
 8402 07e2 00       		.uleb128 0
 8403 07e3 00       		.uleb128 0
 8404 07e4 B305     		.uleb128 .LEHB281-.LFB1229
 8405 07e6 39       		.uleb128 .LEHE281-.LEHB281
 8406 07e7 A006     		.uleb128 .L861-.LFB1229
 8407 07e9 00       		.uleb128 0
 8408 07ea FC05     		.uleb128 .LEHB282-.LFB1229
 8409 07ec 05       		.uleb128 .LEHE282-.LEHB282
 8410 07ed 00       		.uleb128 0
 8411 07ee 00       		.uleb128 0
 8412 07ef 8106     		.uleb128 .LEHB283-.LFB1229
 8413 07f1 1A       		.uleb128 .LEHE283-.LEHB283
 8414 07f2 F105     		.uleb128 .L864-.LFB1229
 8415 07f4 00       		.uleb128 0
 8416              	.LLSDACSE1229:
 8417 07f5 03       		.byte	0x3
 8418 07f6 00       		.byte	0
 8419 07f7 02       		.byte	0x2
 8420 07f8 7D       		.byte	0x7d
 8421 07f9 01       		.byte	0x1
 8422 07fa 7D       		.byte	0x7d
 8423 07fb 00       		.byte	0
 8424 07fc 7D       		.byte	0x7d
 8425 07fd 000000   		.align 4
 8426 0800 00000000 		.long	0
 8427              	
 8428 0804 00000000 		.long	_ZTISt9exception
 8429 0808 00000000 		.long	_ZTIN8UnitTest15AssertExceptionE
 8430              	.LLSDATT1229:
 8431              		.text
 8433              		.section	.text.unlikely
 8434              	.LCOLDE112:
 8435              		.text
 8436              	.LHOTE112:
 8437              		.section	.text.unlikely
 8438              	.LCOLDB113:
 8439              		.text
 8440              	.LHOTB113:
 8441 4205 90662E0F 		.p2align 4,,15
 8441      1F840000 
 8441      000000
 8443              	_ZN8UnitTest11ExecuteTestIN12_GLOBAL__N_158TestRunnerFixtureTestsThatAssertAreReportedAsFailingHelp
 8444              	.LFB1581:
 8445              		.cfi_startproc
 8446              		.cfi_personality 0x3,__gxx_personality_v0
 8447              		.cfi_lsda 0x3,.LLSDA1581
 8448 4210 4155     		pushq	%r13
 8449              		.cfi_def_cfa_offset 16
 8450              		.cfi_offset 13, -16
 8451 4212 4154     		pushq	%r12
 8452              		.cfi_def_cfa_offset 24
 8453              		.cfi_offset 12, -24
 8454 4214 55       		pushq	%rbp
 8455              		.cfi_def_cfa_offset 32
 8456              		.cfi_offset 6, -32
 8457 4215 53       		pushq	%rbx
 8458              		.cfi_def_cfa_offset 40
 8459              		.cfi_offset 3, -40
 8460 4216 4889F3   		movq	%rsi, %rbx
 8461 4219 4881ECD8 		subq	$1752, %rsp
 8461      060000
 8462              		.cfi_def_cfa_offset 1792
 8463 4220 48893C24 		movq	%rdi, (%rsp)
 8464 4224 48897424 		movq	%rsi, 8(%rsp)
 8464      08
 8465 4229 64488B04 		movq	%fs:40, %rax
 8465      25280000 
 8465      00
 8466 4232 48898424 		movq	%rax, 1736(%rsp)
 8466      C8060000 
 8467 423a 31C0     		xorl	%eax, %eax
 8468              	.LEHB284:
 8469 423c E8000000 		call	_ZN8UnitTest11CurrentTest7DetailsEv
 8469      00
 8470              	.LEHE284:
 8471 4241 488DBC24 		leaq	608(%rsp), %rdi
 8471      60020000 
 8472 4249 488918   		movq	%rbx, (%rax)
 8473              	.LEHB285:
 8474 424c E8000000 		call	_ZN8UnitTest16SignalTranslatorC1Ev
 8474      00
 8475              	.LEHE285:
 8476 4251 488B3D00 		movq	_ZN8UnitTest16SignalTranslator12s_jumpTargetE(%rip), %rdi
 8476      000000
 8477 4258 BE010000 		movl	$1, %esi
 8477      00
 8478 425d E8000000 		call	__sigsetjmp
 8478      00
 8479 4262 85C0     		testl	%eax, %eax
 8480 4264 742A     		je	.L915
 8481 4266 BF080000 		movl	$8, %edi
 8481      00
 8482 426b E8000000 		call	__cxa_allocate_exception
 8482      00
 8483 4270 31D2     		xorl	%edx, %edx
 8484 4272 48C70000 		movq	$.LC61, (%rax)
 8484      000000
 8485 4279 BE000000 		movl	$_ZTIPKc, %esi
 8485      00
 8486 427e 4889C7   		movq	%rax, %rdi
 8487              	.LEHB286:
 8488 4281 E8000000 		call	__cxa_throw
 8488      00
 8489 4286 662E0F1F 		.p2align 4,,10
 8489      84000000 
 8489      0000
 8490              		.p2align 3
 8491              	.L915:
 8492 4290 488DBC24 		leaq	128(%rsp), %rdi
 8492      80000000 
 8493 4298 4531C0   		xorl	%r8d, %r8d
 8494 429b B9000000 		movl	$.LC80, %ecx
 8494      00
 8495 42a0 BA000000 		movl	$.LC102, %edx
 8495      00
 8496 42a5 BE000000 		movl	$.LC103, %esi
 8496      00
 8497 42aa E8000000 		call	_ZN8UnitTest4TestC2EPKcS2_S2_i
 8497      00
 8498              	.LEHE286:
 8499 42af 488B2C24 		movq	(%rsp), %rbp
 8500 42b3 488DB424 		leaq	128(%rsp), %rsi
 8500      80000000 
 8501 42bb 48C78424 		movq	$_ZTVN12_GLOBAL__N_18MockTestE+16, 128(%rsp)
 8501      80000000 
 8501      00000000 
 8502 42c7 C68424B1 		movb	$1, 177(%rsp)
 8502      00000001 
 8503 42cf C68424B2 		movb	$1, 178(%rsp)
 8503      00000001 
 8504 42d7 C78424B4 		movl	$1, 180(%rsp)
 8504      00000001 
 8504      000000
 8505 42e2 488D9D48 		leaq	2120(%rbp), %rbx
 8505      080000
 8506 42e9 4889DF   		movq	%rbx, %rdi
 8507              	.LEHB287:
 8508 42ec E8000000 		call	_ZN8UnitTest8TestList3AddEPNS_4TestE
 8508      00
 8509 42f1 E8000000 		call	_ZN8UnitTest11CurrentTest7ResultsEv
 8509      00
 8510 42f6 4C8B20   		movq	(%rax), %r12
 8511 42f9 E8000000 		call	_ZN8UnitTest11CurrentTest7DetailsEv
 8511      00
 8512 42fe 4889DF   		movq	%rbx, %rdi
 8513 4301 4C8B28   		movq	(%rax), %r13
 8514 4304 E8000000 		call	_ZNK8UnitTest8TestList7GetHeadEv
 8514      00
 8515 4309 4885C0   		testq	%rax, %rax
 8516 430c 4889C3   		movq	%rax, %rbx
 8517 430f 7436     		je	.L885
 8518              		.p2align 4,,10
 8519 4311 0F1F8000 		.p2align 3
 8519      000000
 8520              	.L914:
 8521 4318 31D2     		xorl	%edx, %edx
 8522 431a 4889DE   		movq	%rbx, %rsi
 8523 431d 4889EF   		movq	%rbp, %rdi
 8524 4320 E8000000 		call	_ZNK8UnitTest10TestRunner13IsTestInSuiteEPKNS_4TestEPKc
 8524      00
 8525 4325 84C0     		testb	%al, %al
 8526 4327 7415     		je	.L903
 8527 4329 488B0424 		movq	(%rsp), %rax
 8528 432d 31C9     		xorl	%ecx, %ecx
 8529 432f 4889DA   		movq	%rbx, %rdx
 8530 4332 4889EF   		movq	%rbp, %rdi
 8531 4335 488B7008 		movq	8(%rax), %rsi
 8532 4339 E8000000 		call	_ZNK8UnitTest10TestRunner7RunTestEPNS_11TestResultsEPNS_4TestEi
 8532      00
 8533              	.L903:
 8534 433e 488B5B28 		movq	40(%rbx), %rbx
 8535 4342 4885DB   		testq	%rbx, %rbx
 8536 4345 75D1     		jne	.L914
 8537              	.L885:
 8538 4347 488B3C24 		movq	(%rsp), %rdi
 8539 434b E8000000 		call	_ZNK8UnitTest10TestRunner6FinishEv
 8539      00
 8540 4350 E8000000 		call	_ZN8UnitTest11CurrentTest7ResultsEv
 8540      00
 8541 4355 4C8920   		movq	%r12, (%rax)
 8542 4358 E8000000 		call	_ZN8UnitTest11CurrentTest7DetailsEv
 8542      00
 8543              	.LEHE287:
 8544 435d 4C8928   		movq	%r13, (%rax)
 8545              	.LEHB288:
 8546 4360 E8000000 		call	_ZN8UnitTest11CurrentTest7DetailsEv
 8546      00
 8547 4365 488B30   		movq	(%rax), %rsi
 8548 4368 488D7C24 		leaq	96(%rsp), %rdi
 8548      60
 8549 436d BA7F0000 		movl	$127, %edx
 8549      00
 8550 4372 E8000000 		call	_ZN8UnitTest11TestDetailsC1ERKS0_i
 8550      00
 8551 4377 488B1C24 		movq	(%rsp), %rbx
 8552 437b C744241C 		movl	$1, 28(%rsp)
 8552      01000000 
 8553 4383 4881C324 		addq	$548, %rbx
 8553      020000
 8554 438a E8000000 		call	_ZN8UnitTest11CurrentTest7ResultsEv
 8554      00
 8555 438f 488B38   		movq	(%rax), %rdi
 8556 4392 488D4C24 		leaq	96(%rsp), %rcx
 8556      60
 8557 4397 488D7424 		leaq	28(%rsp), %rsi
 8557      1C
 8558 439c 4889DA   		movq	%rbx, %rdx
 8559 439f E8000000 		call	_ZN8UnitTest10CheckEqualIiiEEvRNS_11TestResultsERKT_RKT0_RKNS_11TestDetailsE
 8559      00
 8560              	.LEHE288:
 8561              	.L889:
 8562 43a4 488DBC24 		leaq	128(%rsp), %rdi
 8562      80000000 
 8563 43ac 48C78424 		movq	$_ZTVN12_GLOBAL__N_18MockTestE+16, 128(%rsp)
 8563      80000000 
 8563      00000000 
 8564              	.LEHB289:
 8565 43b8 E8000000 		call	_ZN8UnitTest4TestD2Ev
 8565      00
 8566              	.LEHE289:
 8567 43bd 488DBC24 		leaq	608(%rsp), %rdi
 8567      60020000 
 8568              	.LEHB290:
 8569 43c5 E8000000 		call	_ZN8UnitTest16SignalTranslatorD1Ev
 8569      00
 8570              	.LEHE290:
 8571              	.L879:
 8572 43ca 488B8424 		movq	1736(%rsp), %rax
 8572      C8060000 
 8573 43d2 64483304 		xorq	%fs:40, %rax
 8573      25280000 
 8573      00
 8574 43db 0F85C700 		jne	.L923
 8574      0000
 8575 43e1 4881C4D8 		addq	$1752, %rsp
 8575      060000
 8576              		.cfi_remember_state
 8577              		.cfi_def_cfa_offset 40
 8578 43e8 5B       		popq	%rbx
 8579              		.cfi_def_cfa_offset 32
 8580 43e9 5D       		popq	%rbp
 8581              		.cfi_def_cfa_offset 24
 8582 43ea 415C     		popq	%r12
 8583              		.cfi_def_cfa_offset 16
 8584 43ec 415D     		popq	%r13
 8585              		.cfi_def_cfa_offset 8
 8586 43ee C3       		ret
 8587              	.L910:
 8588              		.cfi_restore_state
 8589 43ef 4889C3   		movq	%rax, %rbx
 8590 43f2 4889D5   		movq	%rdx, %rbp
 8591              	.L892:
 8592 43f5 488DBC24 		leaq	608(%rsp), %rdi
 8592      60020000 
 8593 43fd E8000000 		call	_ZN8UnitTest16SignalTranslatorD1Ev
 8593      00
 8594 4402 4889DF   		movq	%rbx, %rdi
 8595 4405 4889EA   		movq	%rbp, %rdx
 8596              	.L893:
 8597 4408 4883FA01 		cmpq	$1, %rdx
 8598 440c 0F845401 		je	.L895
 8598      0000
 8599 4412 4883FA02 		cmpq	$2, %rdx
 8600 4416 0F852401 		jne	.L924
 8600      0000
 8601 441c E8000000 		call	__cxa_begin_catch
 8601      00
 8602 4421 488DBC24 		leaq	192(%rsp), %rdi
 8602      C0000000 
 8603 4429 4889C3   		movq	%rax, %rbx
 8604              	.LEHB291:
 8605 442c E8000000 		call	_ZN8UnitTest15MemoryOutStreamC1Ev
 8605      00
 8606              	.LEHE291:
 8607 4431 488B03   		movq	(%rbx), %rax
 8608 4434 4889DF   		movq	%rbx, %rdi
 8609 4437 FF5010   		call	*16(%rax)
 8610 443a 488DBC24 		leaq	192(%rsp), %rdi
 8610      C0000000 
 8611 4442 BA150000 		movl	$21, %edx
 8611      00
 8612 4447 BE000000 		movl	$.LC69, %esi
 8612      00
 8613 444c 4889C3   		movq	%rax, %rbx
 8614              	.LEHB292:
 8615 444f E8000000 		call	_ZSt16__ostream_insertIcSt11char_traitsIcEERSt13basic_ostreamIT_T0_ES6_PKS3_l
 8615      00
 8616 4454 488DBC24 		leaq	192(%rsp), %rdi
 8616      C0000000 
 8617 445c 4889DE   		movq	%rbx, %rsi
 8618 445f E8000000 		call	_ZStlsISt11char_traitsIcEERSt13basic_ostreamIcT_ES5_PKc
 8618      00
 8619 4464 488DBC24 		leaq	192(%rsp), %rdi
 8619      C0000000 
 8620 446c E8000000 		call	_ZNK8UnitTest15MemoryOutStream7GetTextEv
 8620      00
 8621 4471 4889C3   		movq	%rax, %rbx
 8622 4474 E8000000 		call	_ZN8UnitTest11CurrentTest7ResultsEv
 8622      00
 8623 4479 488B7424 		movq	8(%rsp), %rsi
 8623      08
 8624 447e 488B38   		movq	(%rax), %rdi
 8625 4481 4889DA   		movq	%rbx, %rdx
 8626 4484 E8000000 		call	_ZN8UnitTest11TestResults13OnTestFailureERKNS_11TestDetailsEPKc
 8626      00
 8627              	.LEHE292:
 8628 4489 488DBC24 		leaq	192(%rsp), %rdi
 8628      C0000000 
 8629              	.LEHB293:
 8630 4491 E8000000 		call	_ZN8UnitTest15MemoryOutStreamD1Ev
 8630      00
 8631              	.LEHE293:
 8632              	.L919:
 8633 4496 E8000000 		call	__cxa_end_catch
 8633      00
 8634 449b E92AFFFF 		jmp	.L879
 8634      FF
 8635              	.L909:
 8636 44a0 4889C7   		movq	%rax, %rdi
 8637 44a3 E960FFFF 		jmp	.L893
 8637      FF
 8638              	.L923:
 8639 44a8 E8000000 		call	__stack_chk_fail
 8639      00
 8640              	.L913:
 8641 44ad 4889C7   		movq	%rax, %rdi
 8642 44b0 E8000000 		call	__cxa_begin_catch
 8642      00
 8643              	.LEHB294:
 8644 44b5 E8000000 		call	_ZN8UnitTest11CurrentTest7DetailsEv
 8644      00
 8645 44ba 488B30   		movq	(%rax), %rsi
 8646 44bd 488D7C24 		leaq	64(%rsp), %rdi
 8646      40
 8647 44c2 BA7F0000 		movl	$127, %edx
 8647      00
 8648 44c7 E8000000 		call	_ZN8UnitTest11TestDetailsC1ERKS0_i
 8648      00
 8649 44cc E8000000 		call	_ZN8UnitTest11CurrentTest7ResultsEv
 8649      00
 8650 44d1 488B38   		movq	(%rax), %rdi
 8651 44d4 488D7424 		leaq	64(%rsp), %rsi
 8651      40
 8652 44d9 BA000000 		movl	$.LC97, %edx
 8652      00
 8653 44de E8000000 		call	_ZN8UnitTest11TestResults13OnTestFailureERKNS_11TestDetailsEPKc
 8653      00
 8654              	.LEHE294:
 8655              	.LEHB295:
 8656 44e3 E8000000 		call	__cxa_end_catch
 8656      00
 8657              	.LEHE295:
 8658 44e8 E9B7FEFF 		jmp	.L889
 8658      FF
 8659              	.L911:
 8660 44ed 4889C3   		movq	%rax, %rbx
 8661 44f0 4889D5   		movq	%rdx, %rbp
 8662              	.L891:
 8663 44f3 488DBC24 		leaq	128(%rsp), %rdi
 8663      80000000 
 8664 44fb 48C78424 		movq	$_ZTVN12_GLOBAL__N_18MockTestE+16, 128(%rsp)
 8664      80000000 
 8664      00000000 
 8665 4507 E8000000 		call	_ZN8UnitTest4TestD2Ev
 8665      00
 8666 450c E9E4FEFF 		jmp	.L892
 8666      FF
 8667              	.L912:
 8668 4511 4889C3   		movq	%rax, %rbx
 8669 4514 4889D5   		movq	%rdx, %rbp
 8670 4517 E8000000 		call	__cxa_end_catch
 8670      00
 8671 451c EBD5     		jmp	.L891
 8672              	.L907:
 8673 451e 488DBC24 		leaq	192(%rsp), %rdi
 8673      C0000000 
 8674 4526 4889C3   		movq	%rax, %rbx
 8675 4529 E8000000 		call	_ZN8UnitTest15MemoryOutStreamD1Ev
 8675      00
 8676              	.L901:
 8677 452e E8000000 		call	__cxa_end_catch
 8677      00
 8678 4533 4889DF   		movq	%rbx, %rdi
 8679              	.LEHB296:
 8680 4536 E8000000 		call	_Unwind_Resume
 8680      00
 8681              	.LEHE296:
 8682              	.L906:
 8683              	.L920:
 8684 453b 4889C3   		movq	%rax, %rbx
 8685 453e EBEE     		jmp	.L901
 8686              	.L924:
 8687 4540 E8000000 		call	__cxa_begin_catch
 8687      00
 8688              	.LEHB297:
 8689 4545 E8000000 		call	_ZN8UnitTest11CurrentTest7ResultsEv
 8689      00
 8690 454a 488B7424 		movq	8(%rsp), %rsi
 8690      08
 8691 454f 488B38   		movq	(%rax), %rdi
 8692 4552 BA000000 		movl	$.LC70, %edx
 8692      00
 8693 4557 E8000000 		call	_ZN8UnitTest11TestResults13OnTestFailureERKNS_11TestDetailsEPKc
 8693      00
 8694              	.LEHE297:
 8695              	.LEHB298:
 8696 455c E8000000 		call	__cxa_end_catch
 8696      00
 8697              	.LEHE298:
 8698 4561 E964FEFF 		jmp	.L879
 8698      FF
 8699              	.L895:
 8700 4566 E8000000 		call	__cxa_begin_catch
 8700      00
 8701 456b 4889C3   		movq	%rax, %rbx
 8702 456e 488B00   		movq	(%rax), %rax
 8703 4571 4889DF   		movq	%rbx, %rdi
 8704 4574 FF5010   		call	*16(%rax)
 8705 4577 4889DF   		movq	%rbx, %rdi
 8706 457a 4889C5   		movq	%rax, %rbp
 8707              	.LEHB299:
 8708 457d E8000000 		call	_ZNK8UnitTest15AssertException10LineNumberEv
 8708      00
 8709 4582 4889DF   		movq	%rbx, %rdi
 8710 4585 4189C4   		movl	%eax, %r12d
 8711 4588 E8000000 		call	_ZNK8UnitTest15AssertException8FilenameEv
 8711      00
 8712 458d 488B5424 		movq	8(%rsp), %rdx
 8712      08
 8713 4592 488D7C24 		leaq	32(%rsp), %rdi
 8713      20
 8714 4597 4589E0   		movl	%r12d, %r8d
 8715 459a 4889C1   		movq	%rax, %rcx
 8716 459d 488B7208 		movq	8(%rdx), %rsi
 8717 45a1 488B12   		movq	(%rdx), %rdx
 8718 45a4 E8000000 		call	_ZN8UnitTest11TestDetailsC1EPKcS2_S2_i
 8718      00
 8719 45a9 E8000000 		call	_ZN8UnitTest11CurrentTest7ResultsEv
 8719      00
 8720 45ae 488B38   		movq	(%rax), %rdi
 8721 45b1 488D7424 		leaq	32(%rsp), %rsi
 8721      20
 8722 45b6 4889EA   		movq	%rbp, %rdx
 8723 45b9 E8000000 		call	_ZN8UnitTest11TestResults13OnTestFailureERKNS_11TestDetailsEPKc
 8723      00
 8724              	.LEHE299:
 8725 45be E9D3FEFF 		jmp	.L919
 8725      FF
 8726              	.L905:
 8727 45c3 4889C3   		movq	%rax, %rbx
 8728 45c6 E8000000 		call	__cxa_end_catch
 8728      00
 8729 45cb 4889DF   		movq	%rbx, %rdi
 8730              	.LEHB300:
 8731 45ce E8000000 		call	_Unwind_Resume
 8731      00
 8732              	.LEHE300:
 8733              	.L908:
 8734 45d3 E963FFFF 		jmp	.L920
 8734      FF
 8735              		.cfi_endproc
 8736              	.LFE1581:
 8737              		.section	.gcc_except_table
 8738              		.align 4
 8739              	.LLSDA1581:
 8740 080c FF       		.byte	0xff
 8741 080d 03       		.byte	0x3
 8742 080e 75       		.uleb128 .LLSDATT1581-.LLSDATTD1581
 8743              	.LLSDATTD1581:
 8744 080f 01       		.byte	0x1
 8745 0810 5F       		.uleb128 .LLSDACSE1581-.LLSDACSB1581
 8746              	.LLSDACSB1581:
 8747 0811 2C       		.uleb128 .LEHB284-.LFB1581
 8748 0812 05       		.uleb128 .LEHE284-.LEHB284
 8749 0813 00       		.uleb128 0
 8750 0814 00       		.uleb128 0
 8751 0815 3C       		.uleb128 .LEHB285-.LFB1581
 8752 0816 05       		.uleb128 .LEHE285-.LEHB285
 8753 0817 9005     		.uleb128 .L909-.LFB1581
 8754 0819 05       		.uleb128 0x5
 8755 081a 71       		.uleb128 .LEHB286-.LFB1581
 8756 081b 2E       		.uleb128 .LEHE286-.LEHB286
 8757 081c DF03     		.uleb128 .L910-.LFB1581
 8758 081e 07       		.uleb128 0x7
 8759 081f DC01     		.uleb128 .LEHB287-.LFB1581
 8760 0821 71       		.uleb128 .LEHE287-.LEHB287
 8761 0822 DD05     		.uleb128 .L911-.LFB1581
 8762 0824 07       		.uleb128 0x7
 8763 0825 D002     		.uleb128 .LEHB288-.LFB1581
 8764 0827 44       		.uleb128 .LEHE288-.LEHB288
 8765 0828 9D05     		.uleb128 .L913-.LFB1581
 8766 082a 01       		.uleb128 0x1
 8767 082b A803     		.uleb128 .LEHB289-.LFB1581
 8768 082d 05       		.uleb128 .LEHE289-.LEHB289
 8769 082e DF03     		.uleb128 .L910-.LFB1581
 8770 0830 07       		.uleb128 0x7
 8771 0831 B503     		.uleb128 .LEHB290-.LFB1581
 8772 0833 05       		.uleb128 .LEHE290-.LEHB290
 8773 0834 9005     		.uleb128 .L909-.LFB1581
 8774 0836 05       		.uleb128 0x5
 8775 0837 9C04     		.uleb128 .LEHB291-.LFB1581
 8776 0839 05       		.uleb128 .LEHE291-.LEHB291
 8777 083a AB06     		.uleb128 .L906-.LFB1581
 8778 083c 00       		.uleb128 0
 8779 083d BF04     		.uleb128 .LEHB292-.LFB1581
 8780 083f 3A       		.uleb128 .LEHE292-.LEHB292
 8781 0840 8E06     		.uleb128 .L907-.LFB1581
 8782 0842 00       		.uleb128 0
 8783 0843 8105     		.uleb128 .LEHB293-.LFB1581
 8784 0845 05       		.uleb128 .LEHE293-.LEHB293
 8785 0846 AB06     		.uleb128 .L906-.LFB1581
 8786 0848 00       		.uleb128 0
 8787 0849 A505     		.uleb128 .LEHB294-.LFB1581
 8788 084b 2E       		.uleb128 .LEHE294-.LEHB294
 8789 084c 8106     		.uleb128 .L912-.LFB1581
 8790 084e 07       		.uleb128 0x7
 8791 084f D305     		.uleb128 .LEHB295-.LFB1581
 8792 0851 05       		.uleb128 .LEHE295-.LEHB295
 8793 0852 DD05     		.uleb128 .L911-.LFB1581
 8794 0854 07       		.uleb128 0x7
 8795 0855 A606     		.uleb128 .LEHB296-.LFB1581
 8796 0857 05       		.uleb128 .LEHE296-.LEHB296
 8797 0858 00       		.uleb128 0
 8798 0859 00       		.uleb128 0
 8799 085a B506     		.uleb128 .LEHB297-.LFB1581
 8800 085c 17       		.uleb128 .LEHE297-.LEHB297
 8801 085d B307     		.uleb128 .L905-.LFB1581
 8802 085f 00       		.uleb128 0
 8803 0860 CC06     		.uleb128 .LEHB298-.LFB1581
 8804 0862 05       		.uleb128 .LEHE298-.LEHB298
 8805 0863 00       		.uleb128 0
 8806 0864 00       		.uleb128 0
 8807 0865 ED06     		.uleb128 .LEHB299-.LFB1581
 8808 0867 41       		.uleb128 .LEHE299-.LEHB299
 8809 0868 C307     		.uleb128 .L908-.LFB1581
 8810 086a 00       		.uleb128 0
 8811 086b BE07     		.uleb128 .LEHB300-.LFB1581
 8812 086d 05       		.uleb128 .LEHE300-.LEHB300
 8813 086e 00       		.uleb128 0
 8814 086f 00       		.uleb128 0
 8815              	.LLSDACSE1581:
 8816 0870 03       		.byte	0x3
 8817 0871 00       		.byte	0
 8818 0872 02       		.byte	0x2
 8819 0873 7D       		.byte	0x7d
 8820 0874 01       		.byte	0x1
 8821 0875 7D       		.byte	0x7d
 8822 0876 00       		.byte	0
 8823 0877 7D       		.byte	0x7d
 8824              		.align 4
 8825 0878 00000000 		.long	0
 8826              	
 8827 087c 00000000 		.long	_ZTISt9exception
 8828 0880 00000000 		.long	_ZTIN8UnitTest15AssertExceptionE
 8829              	.LLSDATT1581:
 8830              		.text
 8832              		.section	.text.unlikely
 8833              	.LCOLDE113:
 8834              		.text
 8835              	.LHOTE113:
 8836              		.section	.text.unlikely
 8837              		.align 2
 8838              	.LCOLDB114:
 8839              		.text
 8840              	.LHOTB114:
 8841              		.align 2
 8842 45d8 0F1F8400 		.p2align 4,,15
 8842      00000000 
 8844              	_ZNK12_GLOBAL__N_156TestTestRunnerFixtureTestsThatAssertAreReportedAsFailing7RunImplEv:
 8845              	.LFB1218:
 8846              		.cfi_startproc
 8847              		.cfi_personality 0x3,__gxx_personality_v0
 8848              		.cfi_lsda 0x3,.LLSDA1218
 8849 45e0 4155     		pushq	%r13
 8850              		.cfi_def_cfa_offset 16
 8851              		.cfi_offset 13, -16
 8852 45e2 4154     		pushq	%r12
 8853              		.cfi_def_cfa_offset 24
 8854              		.cfi_offset 12, -24
 8855 45e4 55       		pushq	%rbp
 8856              		.cfi_def_cfa_offset 32
 8857              		.cfi_offset 6, -32
 8858 45e5 53       		pushq	%rbx
 8859              		.cfi_def_cfa_offset 40
 8860              		.cfi_offset 3, -40
 8861 45e6 4889FD   		movq	%rdi, %rbp
 8862 45e9 488D5F08 		leaq	8(%rdi), %rbx
 8863 45ed 4881EC98 		subq	$2200, %rsp
 8863      080000
 8864              		.cfi_def_cfa_offset 2240
 8865 45f4 64488B04 		movq	%fs:40, %rax
 8865      25280000 
 8865      00
 8866 45fd 48898424 		movq	%rax, 2184(%rsp)
 8866      88080000 
 8867 4605 31C0     		xorl	%eax, %eax
 8868 4607 488D4424 		leaq	32(%rsp), %rax
 8868      20
 8869 460c 488D7424 		leaq	56(%rsp), %rsi
 8869      38
 8870 4611 4889C7   		movq	%rax, %rdi
 8871              	.LEHB301:
 8872 4614 E8000000 		call	_ZN8UnitTest10TestRunnerC1ERNS_12TestReporterE
 8872      00
 8873              	.LEHE301:
 8874 4619 488DBC24 		leaq	2152(%rsp), %rdi
 8874      68080000 
 8875 4621 48C74424 		movq	$_ZTV17RecordingReporter+16, 56(%rsp)
 8875      38000000 
 8875      00
 8876 462a C7442440 		movl	$0, 64(%rsp)
 8876      00000000 
 8877 4632 C7842444 		movl	$0, 580(%rsp)
 8877      02000000 
 8877      000000
 8878 463d C7842448 		movl	$0, 840(%rsp)
 8878      03000000 
 8878      000000
 8879 4648 C784244C 		movl	$0, 1612(%rsp)
 8879      06000000 
 8879      000000
 8880 4653 C7842450 		movl	$0x00000000, 2128(%rsp)
 8880      08000000 
 8880      000000
 8881 465e C7842454 		movl	$0, 2132(%rsp)
 8881      08000000 
 8881      000000
 8882 4669 C7842458 		movl	$0, 2136(%rsp)
 8882      08000000 
 8882      000000
 8883 4674 C784245C 		movl	$0, 2140(%rsp)
 8883      08000000 
 8883      000000
 8884 467f C7842460 		movl	$0x00000000, 2144(%rsp)
 8884      08000000 
 8884      000000
 8885 468a C6442444 		movb	$0, 68(%rsp)
 8885      00
 8886 468f C6842444 		movb	$0, 324(%rsp)
 8886      01000000 
 8887 4697 C6842448 		movb	$0, 584(%rsp)
 8887      02000000 
 8888 469f C684244C 		movb	$0, 844(%rsp)
 8888      03000000 
 8889 46a7 C684244C 		movb	$0, 1100(%rsp)
 8889      04000000 
 8890 46af C684244C 		movb	$0, 1356(%rsp)
 8890      05000000 
 8891 46b7 C6842450 		movb	$0, 1616(%rsp)
 8891      06000000 
 8892 46bf C6842450 		movb	$0, 1872(%rsp)
 8892      07000000 
 8893              	.LEHB302:
 8894 46c7 E8000000 		call	_ZN8UnitTest8TestListC1Ev
 8894      00
 8895              	.LEHE302:
 8896 46cc 488D7C24 		leaq	32(%rsp), %rdi
 8896      20
 8897 46d1 4889DE   		movq	%rbx, %rsi
 8898 46d4 48899C24 		movq	%rbx, 2168(%rsp)
 8898      78080000 
 8899              	.LEHB303:
 8900 46dc E82FFBFF 		call	_ZN8UnitTest11ExecuteTestIN12_GLOBAL__N_158TestRunnerFixtureTestsThatAssertAreReportedAsFaili
 8900      FF
 8901              	.LEHE303:
 8902 46e1 488D7C24 		leaq	56(%rsp), %rdi
 8902      38
 8903 46e6 48C74424 		movq	$_ZTV17RecordingReporter+16, 56(%rsp)
 8903      38000000 
 8903      00
 8904              	.LEHB304:
 8905 46ef E8000000 		call	_ZN8UnitTest12TestReporterD2Ev
 8905      00
 8906              	.LEHE304:
 8907 46f4 488D7C24 		leaq	32(%rsp), %rdi
 8907      20
 8908              	.LEHB305:
 8909 46f9 E8000000 		call	_ZN8UnitTest10TestRunnerD1Ev
 8909      00
 8910              	.LEHE305:
 8911              	.L925:
 8912 46fe 488B8424 		movq	2184(%rsp), %rax
 8912      88080000 
 8913 4706 64483304 		xorq	%fs:40, %rax
 8913      25280000 
 8913      00
 8914 470f 750E     		jne	.L964
 8915 4711 4881C498 		addq	$2200, %rsp
 8915      080000
 8916              		.cfi_remember_state
 8917              		.cfi_def_cfa_offset 40
 8918 4718 5B       		popq	%rbx
 8919              		.cfi_def_cfa_offset 32
 8920 4719 5D       		popq	%rbp
 8921              		.cfi_def_cfa_offset 24
 8922 471a 415C     		popq	%r12
 8923              		.cfi_def_cfa_offset 16
 8924 471c 415D     		popq	%r13
 8925              		.cfi_def_cfa_offset 8
 8926 471e C3       		ret
 8927              	.L964:
 8928              		.cfi_restore_state
 8929 471f E8000000 		call	__stack_chk_fail
 8929      00
 8930              	.L946:
 8931 4724 4889C7   		movq	%rax, %rdi
 8932 4727 41BC0100 		movl	$1, %r12d
 8932      0000
 8933              	.L928:
 8934 472d 4883FA01 		cmpq	$1, %rdx
 8935 4731 0F844501 		je	.L937
 8935      0000
 8936 4737 4883FA02 		cmpq	$2, %rdx
 8937 473b 0F85FE00 		jne	.L965
 8937      0000
 8938 4741 E8000000 		call	__cxa_begin_catch
 8938      00
 8939 4746 488D7C24 		leaq	32(%rsp), %rdi
 8939      20
 8940 474b 4889C5   		movq	%rax, %rbp
 8941              	.LEHB306:
 8942 474e E8000000 		call	_ZN8UnitTest15MemoryOutStreamC1Ev
 8942      00
 8943              	.LEHE306:
 8944 4753 488B4500 		movq	0(%rbp), %rax
 8945 4757 4889EF   		movq	%rbp, %rdi
 8946 475a FF5010   		call	*16(%rax)
 8947 475d 488D7C24 		leaq	32(%rsp), %rdi
 8947      20
 8948 4762 BA150000 		movl	$21, %edx
 8948      00
 8949 4767 BE000000 		movl	$.LC69, %esi
 8949      00
 8950 476c 4889C5   		movq	%rax, %rbp
 8951              	.LEHB307:
 8952 476f E8000000 		call	_ZSt16__ostream_insertIcSt11char_traitsIcEERSt13basic_ostreamIT_T0_ES6_PKS3_l
 8952      00
 8953 4774 488D7C24 		leaq	32(%rsp), %rdi
 8953      20
 8954 4779 4889EE   		movq	%rbp, %rsi
 8955 477c E8000000 		call	_ZStlsISt11char_traitsIcEERSt13basic_ostreamIcT_ES5_PKc
 8955      00
 8956 4781 488D7C24 		leaq	32(%rsp), %rdi
 8956      20
 8957 4786 E8000000 		call	_ZNK8UnitTest15MemoryOutStream7GetTextEv
 8957      00
 8958 478b 4889C5   		movq	%rax, %rbp
 8959 478e E8000000 		call	_ZN8UnitTest11CurrentTest7ResultsEv
 8959      00
 8960 4793 488B38   		movq	(%rax), %rdi
 8961 4796 4889EA   		movq	%rbp, %rdx
 8962 4799 4889DE   		movq	%rbx, %rsi
 8963 479c E8000000 		call	_ZN8UnitTest11TestResults13OnTestFailureERKNS_11TestDetailsEPKc
 8963      00
 8964              	.LEHE307:
 8965 47a1 488D7C24 		leaq	32(%rsp), %rdi
 8965      20
 8966              	.LEHB308:
 8967 47a6 E8000000 		call	_ZN8UnitTest15MemoryOutStreamD1Ev
 8967      00
 8968              	.LEHE308:
 8969              	.L959:
 8970 47ab E8000000 		call	__cxa_end_catch
 8970      00
 8971 47b0 E949FFFF 		jmp	.L925
 8971      FF
 8972              	.L953:
 8973 47b5 488D7C24 		leaq	32(%rsp), %rdi
 8973      20
 8974 47ba 4989D4   		movq	%rdx, %r12
 8975 47bd 4989C5   		movq	%rax, %r13
 8976 47c0 E8000000 		call	_ZN8UnitTest10TestRunnerD1Ev
 8976      00
 8977 47c5 4C89E2   		movq	%r12, %rdx
 8978 47c8 4C89EF   		movq	%r13, %rdi
 8979 47cb 41BC0100 		movl	$1, %r12d
 8979      0000
 8980 47d1 E957FFFF 		jmp	.L928
 8980      FF
 8981              	.L947:
 8982 47d6 488D7C24 		leaq	32(%rsp), %rdi
 8982      20
 8983 47db 4989D4   		movq	%rdx, %r12
 8984 47de 4989C5   		movq	%rax, %r13
 8985 47e1 E8000000 		call	_ZN12_GLOBAL__N_111FixtureBaseD2Ev
 8985      00
 8986 47e6 4C89E2   		movq	%r12, %rdx
 8987 47e9 4C89EF   		movq	%r13, %rdi
 8988 47ec 41BC0100 		movl	$1, %r12d
 8988      0000
 8989 47f2 E936FFFF 		jmp	.L928
 8989      FF
 8990              	.L952:
 8991 47f7 488D7C24 		leaq	32(%rsp), %rdi
 8991      20
 8992 47fc 4989D4   		movq	%rdx, %r12
 8993 47ff 4989C5   		movq	%rax, %r13
 8994 4802 E8000000 		call	_ZN12_GLOBAL__N_111FixtureBaseD2Ev
 8994      00
 8995 4807 4C89E2   		movq	%r12, %rdx
 8996 480a 4C89EF   		movq	%r13, %rdi
 8997 480d 4531E4   		xorl	%r12d, %r12d
 8998 4810 E918FFFF 		jmp	.L928
 8998      FF
 8999              	.L954:
 9000 4815 4889C7   		movq	%rax, %rdi
 9001 4818 4531E4   		xorl	%r12d, %r12d
 9002 481b E90DFFFF 		jmp	.L928
 9002      FF
 9003              	.L950:
 9004 4820 488D7C24 		leaq	32(%rsp), %rdi
 9004      20
 9005 4825 4889C3   		movq	%rax, %rbx
 9006 4828 E8000000 		call	_ZN8UnitTest15MemoryOutStreamD1Ev
 9006      00
 9007              	.L943:
 9008 482d E8000000 		call	__cxa_end_catch
 9008      00
 9009 4832 4889DF   		movq	%rbx, %rdi
 9010              	.LEHB309:
 9011 4835 E8000000 		call	_Unwind_Resume
 9011      00
 9012              	.LEHE309:
 9013              	.L949:
 9014              	.L960:
 9015 483a 4889C3   		movq	%rax, %rbx
 9016 483d EBEE     		jmp	.L943
 9017              	.L965:
 9018 483f E8000000 		call	__cxa_begin_catch
 9018      00
 9019 4844 4584E4   		testb	%r12b, %r12b
 9020 4847 BA790000 		movl	$121, %edx
 9020      00
 9021 484c 4889DE   		movq	%rbx, %rsi
 9022 484f 4889E7   		movq	%rsp, %rdi
 9023 4852 0F848900 		je	.L939
 9023      0000
 9024              	.LEHB310:
 9025 4858 E8000000 		call	_ZN8UnitTest11TestDetailsC1ERKS0_i
 9025      00
 9026 485d E8000000 		call	_ZN8UnitTest11CurrentTest7ResultsEv
 9026      00
 9027 4862 488B38   		movq	(%rax), %rdi
 9028 4865 BA000000 		movl	$.LC73, %edx
 9028      00
 9029 486a 4889E6   		movq	%rsp, %rsi
 9030 486d E8000000 		call	_ZN8UnitTest11TestResults13OnTestFailureERKNS_11TestDetailsEPKc
 9030      00
 9031              	.LEHE310:
 9032              	.L940:
 9033              	.LEHB311:
 9034 4872 E8000000 		call	__cxa_end_catch
 9034      00
 9035              	.LEHE311:
 9036 4877 E982FEFF 		jmp	.L925
 9036      FF
 9037              	.L937:
 9038 487c E8000000 		call	__cxa_begin_catch
 9038      00
 9039 4881 4889C3   		movq	%rax, %rbx
 9040 4884 488B00   		movq	(%rax), %rax
 9041 4887 4889DF   		movq	%rbx, %rdi
 9042 488a FF5010   		call	*16(%rax)
 9043 488d 4889DF   		movq	%rbx, %rdi
 9044 4890 4989C4   		movq	%rax, %r12
 9045              	.LEHB312:
 9046 4893 E8000000 		call	_ZNK8UnitTest15AssertException10LineNumberEv
 9046      00
 9047 4898 4889DF   		movq	%rbx, %rdi
 9048 489b 4189C5   		movl	%eax, %r13d
 9049 489e E8000000 		call	_ZNK8UnitTest15AssertException8FilenameEv
 9049      00
 9050 48a3 488B5508 		movq	8(%rbp), %rdx
 9051 48a7 488B7510 		movq	16(%rbp), %rsi
 9052 48ab 4589E8   		movl	%r13d, %r8d
 9053 48ae 4889C1   		movq	%rax, %rcx
 9054 48b1 4889E7   		movq	%rsp, %rdi
 9055 48b4 E8000000 		call	_ZN8UnitTest11TestDetailsC1EPKcS2_S2_i
 9055      00
 9056 48b9 E8000000 		call	_ZN8UnitTest11CurrentTest7ResultsEv
 9056      00
 9057 48be 488B38   		movq	(%rax), %rdi
 9058 48c1 4C89E2   		movq	%r12, %rdx
 9059 48c4 4889E6   		movq	%rsp, %rsi
 9060 48c7 E8000000 		call	_ZN8UnitTest11TestResults13OnTestFailureERKNS_11TestDetailsEPKc
 9060      00
 9061              	.LEHE312:
 9062 48cc E9DAFEFF 		jmp	.L959
 9062      FF
 9063              	.L951:
 9064 48d1 4889C3   		movq	%rax, %rbx
 9065 48d4 E8000000 		call	__cxa_end_catch
 9065      00
 9066 48d9 4889DF   		movq	%rbx, %rdi
 9067              	.LEHB313:
 9068 48dc E8000000 		call	_Unwind_Resume
 9068      00
 9069              	.LEHE313:
 9070              	.L939:
 9071              	.LEHB314:
 9072 48e1 E8000000 		call	_ZN8UnitTest11TestDetailsC1ERKS0_i
 9072      00
 9073 48e6 E8000000 		call	_ZN8UnitTest11CurrentTest7ResultsEv
 9073      00
 9074 48eb 488B38   		movq	(%rax), %rdi
 9075 48ee BA000000 		movl	$.LC74, %edx
 9075      00
 9076 48f3 4889E6   		movq	%rsp, %rsi
 9077 48f6 E8000000 		call	_ZN8UnitTest11TestResults13OnTestFailureERKNS_11TestDetailsEPKc
 9077      00
 9078              	.LEHE314:
 9079 48fb E972FFFF 		jmp	.L940
 9079      FF
 9080              	.L948:
 9081 4900 E935FFFF 		jmp	.L960
 9081      FF
 9082              		.cfi_endproc
 9083              	.LFE1218:
 9084              		.section	.gcc_except_table
 9085              		.align 4
 9086              	.LLSDA1218:
 9087 0884 FF       		.byte	0xff
 9088 0885 03       		.byte	0x3
 9089 0886 69       		.uleb128 .LLSDATT1218-.LLSDATTD1218
 9090              	.LLSDATTD1218:
 9091 0887 01       		.byte	0x1
 9092 0888 50       		.uleb128 .LLSDACSE1218-.LLSDACSB1218
 9093              	.LLSDACSB1218:
 9094 0889 34       		.uleb128 .LEHB301-.LFB1218
 9095 088a 05       		.uleb128 .LEHE301-.LEHB301
 9096 088b B504     		.uleb128 .L954-.LFB1218
 9097 088d 05       		.uleb128 0x5
 9098 088e E701     		.uleb128 .LEHB302-.LFB1218
 9099 0890 05       		.uleb128 .LEHE302-.LEHB302
 9100 0891 9704     		.uleb128 .L952-.LFB1218
 9101 0893 07       		.uleb128 0x7
 9102 0894 FC01     		.uleb128 .LEHB303-.LFB1218
 9103 0896 05       		.uleb128 .LEHE303-.LEHB303
 9104 0897 F603     		.uleb128 .L947-.LFB1218
 9105 0899 07       		.uleb128 0x7
 9106 089a 8F02     		.uleb128 .LEHB304-.LFB1218
 9107 089c 05       		.uleb128 .LEHE304-.LEHB304
 9108 089d D503     		.uleb128 .L953-.LFB1218
 9109 089f 07       		.uleb128 0x7
 9110 08a0 9902     		.uleb128 .LEHB305-.LFB1218
 9111 08a2 05       		.uleb128 .LEHE305-.LEHB305
 9112 08a3 C402     		.uleb128 .L946-.LFB1218
 9113 08a5 05       		.uleb128 0x5
 9114 08a6 EE02     		.uleb128 .LEHB306-.LFB1218
 9115 08a8 05       		.uleb128 .LEHE306-.LEHB306
 9116 08a9 DA04     		.uleb128 .L949-.LFB1218
 9117 08ab 00       		.uleb128 0
 9118 08ac 8F03     		.uleb128 .LEHB307-.LFB1218
 9119 08ae 32       		.uleb128 .LEHE307-.LEHB307
 9120 08af C004     		.uleb128 .L950-.LFB1218
 9121 08b1 00       		.uleb128 0
 9122 08b2 C603     		.uleb128 .LEHB308-.LFB1218
 9123 08b4 05       		.uleb128 .LEHE308-.LEHB308
 9124 08b5 DA04     		.uleb128 .L949-.LFB1218
 9125 08b7 00       		.uleb128 0
 9126 08b8 D504     		.uleb128 .LEHB309-.LFB1218
 9127 08ba 05       		.uleb128 .LEHE309-.LEHB309
 9128 08bb 00       		.uleb128 0
 9129 08bc 00       		.uleb128 0
 9130 08bd F804     		.uleb128 .LEHB310-.LFB1218
 9131 08bf 1A       		.uleb128 .LEHE310-.LEHB310
 9132 08c0 F105     		.uleb128 .L951-.LFB1218
 9133 08c2 00       		.uleb128 0
 9134 08c3 9205     		.uleb128 .LEHB311-.LFB1218
 9135 08c5 05       		.uleb128 .LEHE311-.LEHB311
 9136 08c6 00       		.uleb128 0
 9137 08c7 00       		.uleb128 0
 9138 08c8 B305     		.uleb128 .LEHB312-.LFB1218
 9139 08ca 39       		.uleb128 .LEHE312-.LEHB312
 9140 08cb A006     		.uleb128 .L948-.LFB1218
 9141 08cd 00       		.uleb128 0
 9142 08ce FC05     		.uleb128 .LEHB313-.LFB1218
 9143 08d0 05       		.uleb128 .LEHE313-.LEHB313
 9144 08d1 00       		.uleb128 0
 9145 08d2 00       		.uleb128 0
 9146 08d3 8106     		.uleb128 .LEHB314-.LFB1218
 9147 08d5 1A       		.uleb128 .LEHE314-.LEHB314
 9148 08d6 F105     		.uleb128 .L951-.LFB1218
 9149 08d8 00       		.uleb128 0
 9150              	.LLSDACSE1218:
 9151 08d9 03       		.byte	0x3
 9152 08da 00       		.byte	0
 9153 08db 02       		.byte	0x2
 9154 08dc 7D       		.byte	0x7d
 9155 08dd 01       		.byte	0x1
 9156 08de 7D       		.byte	0x7d
 9157 08df 00       		.byte	0
 9158 08e0 7D       		.byte	0x7d
 9159 08e1 000000   		.align 4
 9160 08e4 00000000 		.long	0
 9161              	
 9162 08e8 00000000 		.long	_ZTISt9exception
 9163 08ec 00000000 		.long	_ZTIN8UnitTest15AssertExceptionE
 9164              	.LLSDATT1218:
 9165              		.text
 9167              		.section	.text.unlikely
 9168              	.LCOLDE114:
 9169              		.text
 9170              	.LHOTE114:
 9171              		.section	.rodata.str1.8
 9172 051e 0000     		.align 8
 9173              	.LC115:
 9174 0520 556E6861 		.string	"Unhandled exception in CHECK_EQUAL(2, RunTestsIf(list, NULL, True(), 0))"
 9174      6E646C65 
 9174      64206578 
 9174      63657074 
 9174      696F6E20 
 9175 0569 00000000 		.align 8
 9175      000000
 9176              	.LC116:
 9177 0570 556E6861 		.string	"Unhandled exception in CHECK_EQUAL(2, reporter.testFailedCount)"
 9177      6E646C65 
 9177      64206578 
 9177      63657074 
 9177      696F6E20 
 9178              		.section	.text.unlikely
 9179              	.LCOLDB117:
 9180              		.text
 9181              	.LHOTB117:
 9182 4905 90662E0F 		.p2align 4,,15
 9182      1F840000 
 9182      000000
 9184              	_ZN8UnitTest11ExecuteTestIN12_GLOBAL__N_159TestRunnerFixtureCallsReportFailureOncePerFailingTestHel
 9185              	.LFB1580:
 9186              		.cfi_startproc
 9187              		.cfi_personality 0x3,__gxx_personality_v0
 9188              		.cfi_lsda 0x3,.LLSDA1580
 9189 4910 4155     		pushq	%r13
 9190              		.cfi_def_cfa_offset 16
 9191              		.cfi_offset 13, -16
 9192 4912 4154     		pushq	%r12
 9193              		.cfi_def_cfa_offset 24
 9194              		.cfi_offset 12, -24
 9195 4914 55       		pushq	%rbp
 9196              		.cfi_def_cfa_offset 32
 9197              		.cfi_offset 6, -32
 9198 4915 53       		pushq	%rbx
 9199              		.cfi_def_cfa_offset 40
 9200              		.cfi_offset 3, -40
 9201 4916 4889F3   		movq	%rsi, %rbx
 9202 4919 4881EC98 		subq	$1944, %rsp
 9202      070000
 9203              		.cfi_def_cfa_offset 1984
 9204 4920 48893C24 		movq	%rdi, (%rsp)
 9205 4924 48897424 		movq	%rsi, 8(%rsp)
 9205      08
 9206 4929 64488B04 		movq	%fs:40, %rax
 9206      25280000 
 9206      00
 9207 4932 48898424 		movq	%rax, 1928(%rsp)
 9207      88070000 
 9208 493a 31C0     		xorl	%eax, %eax
 9209              	.LEHB315:
 9210 493c E8000000 		call	_ZN8UnitTest11CurrentTest7DetailsEv
 9210      00
 9211              	.LEHE315:
 9212 4941 488DBC24 		leaq	800(%rsp), %rdi
 9212      20030000 
 9213 4949 488918   		movq	%rbx, (%rax)
 9214              	.LEHB316:
 9215 494c E8000000 		call	_ZN8UnitTest16SignalTranslatorC1Ev
 9215      00
 9216              	.LEHE316:
 9217 4951 488B3D00 		movq	_ZN8UnitTest16SignalTranslator12s_jumpTargetE(%rip), %rdi
 9217      000000
 9218 4958 BE010000 		movl	$1, %esi
 9218      00
 9219 495d E8000000 		call	__sigsetjmp
 9219      00
 9220 4962 85C0     		testl	%eax, %eax
 9221 4964 742A     		je	.L1011
 9222 4966 BF080000 		movl	$8, %edi
 9222      00
 9223 496b E8000000 		call	__cxa_allocate_exception
 9223      00
 9224 4970 31D2     		xorl	%edx, %edx
 9225 4972 48C70000 		movq	$.LC61, (%rax)
 9225      000000
 9226 4979 BE000000 		movl	$_ZTIPKc, %esi
 9226      00
 9227 497e 4889C7   		movq	%rax, %rdi
 9228              	.LEHB317:
 9229 4981 E8000000 		call	__cxa_throw
 9229      00
 9230 4986 662E0F1F 		.p2align 4,,10
 9230      84000000 
 9230      0000
 9231              		.p2align 3
 9232              	.L1011:
 9233 4990 488DBC24 		leaq	192(%rsp), %rdi
 9233      C0000000 
 9234 4998 4531C0   		xorl	%r8d, %r8d
 9235 499b B9000000 		movl	$.LC80, %ecx
 9235      00
 9236 49a0 BA000000 		movl	$.LC102, %edx
 9236      00
 9237 49a5 BE000000 		movl	$.LC103, %esi
 9237      00
 9238 49aa E8000000 		call	_ZN8UnitTest4TestC2EPKcS2_S2_i
 9238      00
 9239              	.LEHE317:
 9240 49af 488B2C24 		movq	(%rsp), %rbp
 9241 49b3 488DB424 		leaq	192(%rsp), %rsi
 9241      C0000000 
 9242 49bb 48C78424 		movq	$_ZTVN12_GLOBAL__N_18MockTestE+16, 192(%rsp)
 9242      C0000000 
 9242      00000000 
 9243 49c7 C68424F1 		movb	$0, 241(%rsp)
 9243      00000000 
 9244 49cf C68424F2 		movb	$0, 242(%rsp)
 9244      00000000 
 9245 49d7 C78424F4 		movl	$1, 244(%rsp)
 9245      00000001 
 9245      000000
 9246 49e2 488D9D48 		leaq	2120(%rbp), %rbx
 9246      080000
 9247 49e9 4889DF   		movq	%rbx, %rdi
 9248              	.LEHB318:
 9249 49ec E8000000 		call	_ZN8UnitTest8TestList3AddEPNS_4TestE
 9249      00
 9250 49f1 488DBC24 		leaq	256(%rsp), %rdi
 9250      00010000 
 9251 49f9 4531C0   		xorl	%r8d, %r8d
 9252 49fc B9000000 		movl	$.LC80, %ecx
 9252      00
 9253 4a01 BA000000 		movl	$.LC102, %edx
 9253      00
 9254 4a06 BE000000 		movl	$.LC103, %esi
 9254      00
 9255 4a0b E8000000 		call	_ZN8UnitTest4TestC2EPKcS2_S2_i
 9255      00
 9256              	.LEHE318:
 9257 4a10 488DB424 		leaq	256(%rsp), %rsi
 9257      00010000 
 9258 4a18 4889DF   		movq	%rbx, %rdi
 9259 4a1b 48C78424 		movq	$_ZTVN12_GLOBAL__N_18MockTestE+16, 256(%rsp)
 9259      00010000 
 9259      00000000 
 9260 4a27 C6842431 		movb	$1, 305(%rsp)
 9260      01000001 
 9261 4a2f C6842432 		movb	$0, 306(%rsp)
 9261      01000000 
 9262 4a37 C7842434 		movl	$1, 308(%rsp)
 9262      01000001 
 9262      000000
 9263              	.LEHB319:
 9264 4a42 E8000000 		call	_ZN8UnitTest8TestList3AddEPNS_4TestE
 9264      00
 9265 4a47 488DBC24 		leaq	320(%rsp), %rdi
 9265      40010000 
 9266 4a4f 4531C0   		xorl	%r8d, %r8d
 9267 4a52 B9000000 		movl	$.LC80, %ecx
 9267      00
 9268 4a57 BA000000 		movl	$.LC102, %edx
 9268      00
 9269 4a5c BE000000 		movl	$.LC103, %esi
 9269      00
 9270 4a61 E8000000 		call	_ZN8UnitTest4TestC2EPKcS2_S2_i
 9270      00
 9271              	.LEHE319:
 9272 4a66 488DB424 		leaq	320(%rsp), %rsi
 9272      40010000 
 9273 4a6e 4889DF   		movq	%rbx, %rdi
 9274 4a71 48C78424 		movq	$_ZTVN12_GLOBAL__N_18MockTestE+16, 320(%rsp)
 9274      40010000 
 9274      00000000 
 9275 4a7d C6842471 		movb	$0, 369(%rsp)
 9275      01000000 
 9276 4a85 C6842472 		movb	$0, 370(%rsp)
 9276      01000000 
 9277 4a8d C7842474 		movl	$1, 372(%rsp)
 9277      01000001 
 9277      000000
 9278              	.LEHB320:
 9279 4a98 E8000000 		call	_ZN8UnitTest8TestList3AddEPNS_4TestE
 9279      00
 9280              	.LEHE320:
 9281              	.LEHB321:
 9282 4a9d E8000000 		call	_ZN8UnitTest11CurrentTest7DetailsEv
 9282      00
 9283 4aa2 488B30   		movq	(%rax), %rsi
 9284 4aa5 488DBC24 		leaq	160(%rsp), %rdi
 9284      A0000000 
 9285 4aad BA750000 		movl	$117, %edx
 9285      00
 9286 4ab2 E8000000 		call	_ZN8UnitTest11TestDetailsC1ERKS0_i
 9286      00
 9287 4ab7 E8000000 		call	_ZN8UnitTest11CurrentTest7ResultsEv
 9287      00
 9288 4abc 4C8B20   		movq	(%rax), %r12
 9289 4abf E8000000 		call	_ZN8UnitTest11CurrentTest7DetailsEv
 9289      00
 9290 4ac4 4889DF   		movq	%rbx, %rdi
 9291 4ac7 4C8B28   		movq	(%rax), %r13
 9292 4aca E8000000 		call	_ZNK8UnitTest8TestList7GetHeadEv
 9292      00
 9293 4acf 4885C0   		testq	%rax, %rax
 9294 4ad2 4889C3   		movq	%rax, %rbx
 9295 4ad5 7438     		je	.L972
 9296 4ad7 660F1F84 		.p2align 4,,10
 9296      00000000 
 9296      00
 9297              		.p2align 3
 9298              	.L1010:
 9299 4ae0 31D2     		xorl	%edx, %edx
 9300 4ae2 4889DE   		movq	%rbx, %rsi
 9301 4ae5 4889EF   		movq	%rbp, %rdi
 9302 4ae8 E8000000 		call	_ZNK8UnitTest10TestRunner13IsTestInSuiteEPKNS_4TestEPKc
 9302      00
 9303 4aed 84C0     		testb	%al, %al
 9304 4aef 7415     		je	.L995
 9305 4af1 488B0424 		movq	(%rsp), %rax
 9306 4af5 31C9     		xorl	%ecx, %ecx
 9307 4af7 4889DA   		movq	%rbx, %rdx
 9308 4afa 4889EF   		movq	%rbp, %rdi
 9309 4afd 488B7008 		movq	8(%rax), %rsi
 9310 4b01 E8000000 		call	_ZNK8UnitTest10TestRunner7RunTestEPNS_11TestResultsEPNS_4TestEi
 9310      00
 9311              	.L995:
 9312 4b06 488B5B28 		movq	40(%rbx), %rbx
 9313 4b0a 4885DB   		testq	%rbx, %rbx
 9314 4b0d 75D1     		jne	.L1010
 9315              	.L972:
 9316 4b0f 488B3C24 		movq	(%rsp), %rdi
 9317 4b13 E8000000 		call	_ZNK8UnitTest10TestRunner6FinishEv
 9317      00
 9318 4b18 89C3     		movl	%eax, %ebx
 9319 4b1a E8000000 		call	_ZN8UnitTest11CurrentTest7ResultsEv
 9319      00
 9320 4b1f 4C8920   		movq	%r12, (%rax)
 9321 4b22 E8000000 		call	_ZN8UnitTest11CurrentTest7DetailsEv
 9321      00
 9322 4b27 4C8928   		movq	%r13, (%rax)
 9323 4b2a 895C241C 		movl	%ebx, 28(%rsp)
 9324 4b2e C7442418 		movl	$2, 24(%rsp)
 9324      02000000 
 9325 4b36 E8000000 		call	_ZN8UnitTest11CurrentTest7ResultsEv
 9325      00
 9326 4b3b 488B38   		movq	(%rax), %rdi
 9327 4b3e 488D8C24 		leaq	160(%rsp), %rcx
 9327      A0000000 
 9328 4b46 488D5424 		leaq	28(%rsp), %rdx
 9328      1C
 9329 4b4b 488D7424 		leaq	24(%rsp), %rsi
 9329      18
 9330 4b50 E8000000 		call	_ZN8UnitTest10CheckEqualIiiEEvRNS_11TestResultsERKT_RKT0_RKNS_11TestDetailsE
 9330      00
 9331              	.LEHE321:
 9332              	.L976:
 9333              	.LEHB322:
 9334 4b55 E8000000 		call	_ZN8UnitTest11CurrentTest7DetailsEv
 9334      00
 9335 4b5a 488B30   		movq	(%rax), %rsi
 9336 4b5d 488D7C24 		leaq	96(%rsp), %rdi
 9336      60
 9337 4b62 BA760000 		movl	$118, %edx
 9337      00
 9338 4b67 E8000000 		call	_ZN8UnitTest11TestDetailsC1ERKS0_i
 9338      00
 9339 4b6c 488B1C24 		movq	(%rsp), %rbx
 9340 4b70 C7442414 		movl	$2, 20(%rsp)
 9340      02000000 
 9341 4b78 4881C324 		addq	$548, %rbx
 9341      020000
 9342 4b7f E8000000 		call	_ZN8UnitTest11CurrentTest7ResultsEv
 9342      00
 9343 4b84 488B38   		movq	(%rax), %rdi
 9344 4b87 488D4C24 		leaq	96(%rsp), %rcx
 9344      60
 9345 4b8c 488D7424 		leaq	20(%rsp), %rsi
 9345      14
 9346 4b91 4889DA   		movq	%rbx, %rdx
 9347 4b94 E8000000 		call	_ZN8UnitTest10CheckEqualIiiEEvRNS_11TestResultsERKT_RKT0_RKNS_11TestDetailsE
 9347      00
 9348              	.LEHE322:
 9349              	.L980:
 9350 4b99 488DBC24 		leaq	320(%rsp), %rdi
 9350      40010000 
 9351 4ba1 48C78424 		movq	$_ZTVN12_GLOBAL__N_18MockTestE+16, 320(%rsp)
 9351      40010000 
 9351      00000000 
 9352              	.LEHB323:
 9353 4bad E8000000 		call	_ZN8UnitTest4TestD2Ev
 9353      00
 9354              	.LEHE323:
 9355 4bb2 488DBC24 		leaq	256(%rsp), %rdi
 9355      00010000 
 9356 4bba 48C78424 		movq	$_ZTVN12_GLOBAL__N_18MockTestE+16, 256(%rsp)
 9356      00010000 
 9356      00000000 
 9357              	.LEHB324:
 9358 4bc6 E8000000 		call	_ZN8UnitTest4TestD2Ev
 9358      00
 9359              	.LEHE324:
 9360 4bcb 488DBC24 		leaq	192(%rsp), %rdi
 9360      C0000000 
 9361 4bd3 48C78424 		movq	$_ZTVN12_GLOBAL__N_18MockTestE+16, 192(%rsp)
 9361      C0000000 
 9361      00000000 
 9362              	.LEHB325:
 9363 4bdf E8000000 		call	_ZN8UnitTest4TestD2Ev
 9363      00
 9364              	.LEHE325:
 9365 4be4 488DBC24 		leaq	800(%rsp), %rdi
 9365      20030000 
 9366              	.LEHB326:
 9367 4bec E8000000 		call	_ZN8UnitTest16SignalTranslatorD1Ev
 9367      00
 9368              	.LEHE326:
 9369              	.L966:
 9370 4bf1 488B8424 		movq	1928(%rsp), %rax
 9370      88070000 
 9371 4bf9 64483304 		xorq	%fs:40, %rax
 9371      25280000 
 9371      00
 9372 4c02 0F858101 		jne	.L1019
 9372      0000
 9373 4c08 4881C498 		addq	$1944, %rsp
 9373      070000
 9374              		.cfi_remember_state
 9375              		.cfi_def_cfa_offset 40
 9376 4c0f 5B       		popq	%rbx
 9377              		.cfi_def_cfa_offset 32
 9378 4c10 5D       		popq	%rbp
 9379              		.cfi_def_cfa_offset 24
 9380 4c11 415C     		popq	%r12
 9381              		.cfi_def_cfa_offset 16
 9382 4c13 415D     		popq	%r13
 9383              		.cfi_def_cfa_offset 8
 9384 4c15 C3       		ret
 9385              	.L1002:
 9386              		.cfi_restore_state
 9387 4c16 4889C3   		movq	%rax, %rbx
 9388 4c19 4889D5   		movq	%rdx, %rbp
 9389              	.L984:
 9390 4c1c 488DBC24 		leaq	800(%rsp), %rdi
 9390      20030000 
 9391 4c24 E8000000 		call	_ZN8UnitTest16SignalTranslatorD1Ev
 9391      00
 9392 4c29 4889DF   		movq	%rbx, %rdi
 9393 4c2c 4889EA   		movq	%rbp, %rdx
 9394              	.L985:
 9395 4c2f 4883FA01 		cmpq	$1, %rdx
 9396 4c33 0F84DE00 		je	.L987
 9396      0000
 9397 4c39 4883FA02 		cmpq	$2, %rdx
 9398 4c3d 0F85AE00 		jne	.L1020
 9398      0000
 9399 4c43 E8000000 		call	__cxa_begin_catch
 9399      00
 9400 4c48 488DBC24 		leaq	384(%rsp), %rdi
 9400      80010000 
 9401 4c50 4889C3   		movq	%rax, %rbx
 9402              	.LEHB327:
 9403 4c53 E8000000 		call	_ZN8UnitTest15MemoryOutStreamC1Ev
 9403      00
 9404              	.LEHE327:
 9405 4c58 488B03   		movq	(%rbx), %rax
 9406 4c5b 4889DF   		movq	%rbx, %rdi
 9407 4c5e FF5010   		call	*16(%rax)
 9408 4c61 488DBC24 		leaq	384(%rsp), %rdi
 9408      80010000 
 9409 4c69 BA150000 		movl	$21, %edx
 9409      00
 9410 4c6e BE000000 		movl	$.LC69, %esi
 9410      00
 9411 4c73 4889C3   		movq	%rax, %rbx
 9412              	.LEHB328:
 9413 4c76 E8000000 		call	_ZSt16__ostream_insertIcSt11char_traitsIcEERSt13basic_ostreamIT_T0_ES6_PKS3_l
 9413      00
 9414 4c7b 488DBC24 		leaq	384(%rsp), %rdi
 9414      80010000 
 9415 4c83 4889DE   		movq	%rbx, %rsi
 9416 4c86 E8000000 		call	_ZStlsISt11char_traitsIcEERSt13basic_ostreamIcT_ES5_PKc
 9416      00
 9417 4c8b 488DBC24 		leaq	384(%rsp), %rdi
 9417      80010000 
 9418 4c93 E8000000 		call	_ZNK8UnitTest15MemoryOutStream7GetTextEv
 9418      00
 9419 4c98 4889C3   		movq	%rax, %rbx
 9420 4c9b E8000000 		call	_ZN8UnitTest11CurrentTest7ResultsEv
 9420      00
 9421 4ca0 488B7424 		movq	8(%rsp), %rsi
 9421      08
 9422 4ca5 488B38   		movq	(%rax), %rdi
 9423 4ca8 4889DA   		movq	%rbx, %rdx
 9424 4cab E8000000 		call	_ZN8UnitTest11TestResults13OnTestFailureERKNS_11TestDetailsEPKc
 9424      00
 9425              	.LEHE328:
 9426 4cb0 488DBC24 		leaq	384(%rsp), %rdi
 9426      80010000 
 9427              	.LEHB329:
 9428 4cb8 E8000000 		call	_ZN8UnitTest15MemoryOutStreamD1Ev
 9428      00
 9429              	.LEHE329:
 9430              	.L1015:
 9431 4cbd E8000000 		call	__cxa_end_catch
 9431      00
 9432 4cc2 E92AFFFF 		jmp	.L966
 9432      FF
 9433              	.L1001:
 9434 4cc7 4889C7   		movq	%rax, %rdi
 9435 4cca E960FFFF 		jmp	.L985
 9435      FF
 9436              	.L999:
 9437 4ccf 488DBC24 		leaq	384(%rsp), %rdi
 9437      80010000 
 9438 4cd7 4889C3   		movq	%rax, %rbx
 9439 4cda E8000000 		call	_ZN8UnitTest15MemoryOutStreamD1Ev
 9439      00
 9440              	.L993:
 9441 4cdf E8000000 		call	__cxa_end_catch
 9441      00
 9442 4ce4 4889DF   		movq	%rbx, %rdi
 9443              	.LEHB330:
 9444 4ce7 E8000000 		call	_Unwind_Resume
 9444      00
 9445              	.LEHE330:
 9446              	.L998:
 9447              	.L1016:
 9448 4cec 4889C3   		movq	%rax, %rbx
 9449 4cef EBEE     		jmp	.L993
 9450              	.L1020:
 9451 4cf1 E8000000 		call	__cxa_begin_catch
 9451      00
 9452              	.LEHB331:
 9453 4cf6 E8000000 		call	_ZN8UnitTest11CurrentTest7ResultsEv
 9453      00
 9454 4cfb 488B7424 		movq	8(%rsp), %rsi
 9454      08
 9455 4d00 488B38   		movq	(%rax), %rdi
 9456 4d03 BA000000 		movl	$.LC70, %edx
 9456      00
 9457 4d08 E8000000 		call	_ZN8UnitTest11TestResults13OnTestFailureERKNS_11TestDetailsEPKc
 9457      00
 9458              	.LEHE331:
 9459              	.LEHB332:
 9460 4d0d E8000000 		call	__cxa_end_catch
 9460      00
 9461              	.LEHE332:
 9462 4d12 E9DAFEFF 		jmp	.L966
 9462      FF
 9463              	.L987:
 9464 4d17 E8000000 		call	__cxa_begin_catch
 9464      00
 9465 4d1c 4889C3   		movq	%rax, %rbx
 9466 4d1f 488B00   		movq	(%rax), %rax
 9467 4d22 4889DF   		movq	%rbx, %rdi
 9468 4d25 FF5010   		call	*16(%rax)
 9469 4d28 4889DF   		movq	%rbx, %rdi
 9470 4d2b 4889C5   		movq	%rax, %rbp
 9471              	.LEHB333:
 9472 4d2e E8000000 		call	_ZNK8UnitTest15AssertException10LineNumberEv
 9472      00
 9473 4d33 4889DF   		movq	%rbx, %rdi
 9474 4d36 4189C4   		movl	%eax, %r12d
 9475 4d39 E8000000 		call	_ZNK8UnitTest15AssertException8FilenameEv
 9475      00
 9476 4d3e 488B5424 		movq	8(%rsp), %rdx
 9476      08
 9477 4d43 488D7C24 		leaq	32(%rsp), %rdi
 9477      20
 9478 4d48 4589E0   		movl	%r12d, %r8d
 9479 4d4b 4889C1   		movq	%rax, %rcx
 9480 4d4e 488B7208 		movq	8(%rdx), %rsi
 9481 4d52 488B12   		movq	(%rdx), %rdx
 9482 4d55 E8000000 		call	_ZN8UnitTest11TestDetailsC1EPKcS2_S2_i
 9482      00
 9483 4d5a E8000000 		call	_ZN8UnitTest11CurrentTest7ResultsEv
 9483      00
 9484 4d5f 488B38   		movq	(%rax), %rdi
 9485 4d62 488D7424 		leaq	32(%rsp), %rsi
 9485      20
 9486 4d67 4889EA   		movq	%rbp, %rdx
 9487 4d6a E8000000 		call	_ZN8UnitTest11TestResults13OnTestFailureERKNS_11TestDetailsEPKc
 9487      00
 9488              	.LEHE333:
 9489 4d6f E949FFFF 		jmp	.L1015
 9489      FF
 9490              	.L997:
 9491 4d74 4889C3   		movq	%rax, %rbx
 9492 4d77 E8000000 		call	__cxa_end_catch
 9492      00
 9493 4d7c 4889DF   		movq	%rbx, %rdi
 9494              	.LEHB334:
 9495 4d7f E8000000 		call	_Unwind_Resume
 9495      00
 9496              	.LEHE334:
 9497              	.L1000:
 9498 4d84 E963FFFF 		jmp	.L1016
 9498      FF
 9499              	.L1019:
 9500 4d89 E8000000 		call	__stack_chk_fail
 9500      00
 9501              	.L1007:
 9502 4d8e 4889C7   		movq	%rax, %rdi
 9503 4d91 E8000000 		call	__cxa_begin_catch
 9503      00
 9504              	.LEHB335:
 9505 4d96 E8000000 		call	_ZN8UnitTest11CurrentTest7DetailsEv
 9505      00
 9506 4d9b 488B30   		movq	(%rax), %rsi
 9507 4d9e 488D7C24 		leaq	64(%rsp), %rdi
 9507      40
 9508 4da3 BA760000 		movl	$118, %edx
 9508      00
 9509 4da8 E8000000 		call	_ZN8UnitTest11TestDetailsC1ERKS0_i
 9509      00
 9510 4dad E8000000 		call	_ZN8UnitTest11CurrentTest7ResultsEv
 9510      00
 9511 4db2 488B38   		movq	(%rax), %rdi
 9512 4db5 488D7424 		leaq	64(%rsp), %rsi
 9512      40
 9513 4dba BA000000 		movl	$.LC116, %edx
 9513      00
 9514 4dbf E8000000 		call	_ZN8UnitTest11TestResults13OnTestFailureERKNS_11TestDetailsEPKc
 9514      00
 9515              	.LEHE335:
 9516              	.LEHB336:
 9517 4dc4 E8000000 		call	__cxa_end_catch
 9517      00
 9518              	.LEHE336:
 9519 4dc9 E9CBFDFF 		jmp	.L980
 9519      FF
 9520              	.L1009:
 9521 4dce 4889C7   		movq	%rax, %rdi
 9522 4dd1 E8000000 		call	__cxa_begin_catch
 9522      00
 9523              	.LEHB337:
 9524 4dd6 E8000000 		call	_ZN8UnitTest11CurrentTest7DetailsEv
 9524      00
 9525 4ddb 488B30   		movq	(%rax), %rsi
 9526 4dde 488DBC24 		leaq	128(%rsp), %rdi
 9526      80000000 
 9527 4de6 BA750000 		movl	$117, %edx
 9527      00
 9528 4deb E8000000 		call	_ZN8UnitTest11TestDetailsC1ERKS0_i
 9528      00
 9529 4df0 E8000000 		call	_ZN8UnitTest11CurrentTest7ResultsEv
 9529      00
 9530 4df5 488B38   		movq	(%rax), %rdi
 9531 4df8 488DB424 		leaq	128(%rsp), %rsi
 9531      80000000 
 9532 4e00 BA000000 		movl	$.LC115, %edx
 9532      00
 9533 4e05 E8000000 		call	_ZN8UnitTest11TestResults13OnTestFailureERKNS_11TestDetailsEPKc
 9533      00
 9534              	.LEHE337:
 9535              	.LEHB338:
 9536 4e0a E8000000 		call	__cxa_end_catch
 9536      00
 9537              	.LEHE338:
 9538 4e0f E941FDFF 		jmp	.L976
 9538      FF
 9539              	.L1004:
 9540 4e14 4889C3   		movq	%rax, %rbx
 9541 4e17 4889D5   		movq	%rdx, %rbp
 9542              	.L982:
 9543 4e1a 488DBC24 		leaq	256(%rsp), %rdi
 9543      00010000 
 9544 4e22 48C78424 		movq	$_ZTVN12_GLOBAL__N_18MockTestE+16, 256(%rsp)
 9544      00010000 
 9544      00000000 
 9545 4e2e E8000000 		call	_ZN8UnitTest4TestD2Ev
 9545      00
 9546              	.L983:
 9547 4e33 488DBC24 		leaq	192(%rsp), %rdi
 9547      C0000000 
 9548 4e3b 48C78424 		movq	$_ZTVN12_GLOBAL__N_18MockTestE+16, 192(%rsp)
 9548      C0000000 
 9548      00000000 
 9549 4e47 E8000000 		call	_ZN8UnitTest4TestD2Ev
 9549      00
 9550 4e4c E9CBFDFF 		jmp	.L984
 9550      FF
 9551              	.L1005:
 9552 4e51 4889C3   		movq	%rax, %rbx
 9553 4e54 4889D5   		movq	%rdx, %rbp
 9554              	.L978:
 9555 4e57 488DBC24 		leaq	320(%rsp), %rdi
 9555      40010000 
 9556 4e5f 48C78424 		movq	$_ZTVN12_GLOBAL__N_18MockTestE+16, 320(%rsp)
 9556      40010000 
 9556      00000000 
 9557 4e6b E8000000 		call	_ZN8UnitTest4TestD2Ev
 9557      00
 9558 4e70 EBA8     		jmp	.L982
 9559              	.L1006:
 9560 4e72 4889C3   		movq	%rax, %rbx
 9561 4e75 4889D5   		movq	%rdx, %rbp
 9562 4e78 E8000000 		call	__cxa_end_catch
 9562      00
 9563 4e7d EBD8     		jmp	.L978
 9564              	.L1003:
 9565 4e7f 4889C3   		movq	%rax, %rbx
 9566 4e82 4889D5   		movq	%rdx, %rbp
 9567 4e85 EBAC     		jmp	.L983
 9568              	.L1008:
 9569 4e87 4889C3   		movq	%rax, %rbx
 9570 4e8a 4889D5   		movq	%rdx, %rbp
 9571 4e8d E8000000 		call	__cxa_end_catch
 9571      00
 9572 4e92 EBC3     		jmp	.L978
 9573              		.cfi_endproc
 9574              	.LFE1580:
 9575              		.section	.gcc_except_table
 9576              		.align 4
 9577              	.LLSDA1580:
 9578 08f0 FF       		.byte	0xff
 9579 08f1 03       		.byte	0x3
 9580 08f2 A401     		.uleb128 .LLSDATT1580-.LLSDATTD1580
 9581              	.LLSDATTD1580:
 9582 08f4 01       		.byte	0x1
 9583 08f5 8A01     		.uleb128 .LLSDACSE1580-.LLSDACSB1580
 9584              	.LLSDACSB1580:
 9585 08f7 2C       		.uleb128 .LEHB315-.LFB1580
 9586 08f8 05       		.uleb128 .LEHE315-.LEHB315
 9587 08f9 00       		.uleb128 0
 9588 08fa 00       		.uleb128 0
 9589 08fb 3C       		.uleb128 .LEHB316-.LFB1580
 9590 08fc 05       		.uleb128 .LEHE316-.LEHB316
 9591 08fd B707     		.uleb128 .L1001-.LFB1580
 9592 08ff 05       		.uleb128 0x5
 9593 0900 71       		.uleb128 .LEHB317-.LFB1580
 9594 0901 2E       		.uleb128 .LEHE317-.LEHB317
 9595 0902 8606     		.uleb128 .L1002-.LFB1580
 9596 0904 07       		.uleb128 0x7
 9597 0905 DC01     		.uleb128 .LEHB318-.LFB1580
 9598 0907 24       		.uleb128 .LEHE318-.LEHB318
 9599 0908 EF0A     		.uleb128 .L1003-.LFB1580
 9600 090a 07       		.uleb128 0x7
 9601 090b B202     		.uleb128 .LEHB319-.LFB1580
 9602 090d 24       		.uleb128 .LEHE319-.LEHB319
 9603 090e 840A     		.uleb128 .L1004-.LFB1580
 9604 0910 07       		.uleb128 0x7
 9605 0911 8803     		.uleb128 .LEHB320-.LFB1580
 9606 0913 05       		.uleb128 .LEHE320-.LEHB320
 9607 0914 C10A     		.uleb128 .L1005-.LFB1580
 9608 0916 07       		.uleb128 0x7
 9609 0917 8D03     		.uleb128 .LEHB321-.LFB1580
 9610 0919 B801     		.uleb128 .LEHE321-.LEHB321
 9611 091b BE09     		.uleb128 .L1009-.LFB1580
 9612 091d 01       		.uleb128 0x1
 9613 091e C504     		.uleb128 .LEHB322-.LFB1580
 9614 0920 44       		.uleb128 .LEHE322-.LEHB322
 9615 0921 FE08     		.uleb128 .L1007-.LFB1580
 9616 0923 01       		.uleb128 0x1
 9617 0924 9D05     		.uleb128 .LEHB323-.LFB1580
 9618 0926 05       		.uleb128 .LEHE323-.LEHB323
 9619 0927 840A     		.uleb128 .L1004-.LFB1580
 9620 0929 07       		.uleb128 0x7
 9621 092a B605     		.uleb128 .LEHB324-.LFB1580
 9622 092c 05       		.uleb128 .LEHE324-.LEHB324
 9623 092d EF0A     		.uleb128 .L1003-.LFB1580
 9624 092f 07       		.uleb128 0x7
 9625 0930 CF05     		.uleb128 .LEHB325-.LFB1580
 9626 0932 05       		.uleb128 .LEHE325-.LEHB325
 9627 0933 8606     		.uleb128 .L1002-.LFB1580
 9628 0935 07       		.uleb128 0x7
 9629 0936 DC05     		.uleb128 .LEHB326-.LFB1580
 9630 0938 05       		.uleb128 .LEHE326-.LEHB326
 9631 0939 B707     		.uleb128 .L1001-.LFB1580
 9632 093b 05       		.uleb128 0x5
 9633 093c C306     		.uleb128 .LEHB327-.LFB1580
 9634 093e 05       		.uleb128 .LEHE327-.LEHB327
 9635 093f DC07     		.uleb128 .L998-.LFB1580
 9636 0941 00       		.uleb128 0
 9637 0942 E606     		.uleb128 .LEHB328-.LFB1580
 9638 0944 3A       		.uleb128 .LEHE328-.LEHB328
 9639 0945 BF07     		.uleb128 .L999-.LFB1580
 9640 0947 00       		.uleb128 0
 9641 0948 A807     		.uleb128 .LEHB329-.LFB1580
 9642 094a 05       		.uleb128 .LEHE329-.LEHB329
 9643 094b DC07     		.uleb128 .L998-.LFB1580
 9644 094d 00       		.uleb128 0
 9645 094e D707     		.uleb128 .LEHB330-.LFB1580
 9646 0950 05       		.uleb128 .LEHE330-.LEHB330
 9647 0951 00       		.uleb128 0
 9648 0952 00       		.uleb128 0
 9649 0953 E607     		.uleb128 .LEHB331-.LFB1580
 9650 0955 17       		.uleb128 .LEHE331-.LEHB331
 9651 0956 E408     		.uleb128 .L997-.LFB1580
 9652 0958 00       		.uleb128 0
 9653 0959 FD07     		.uleb128 .LEHB332-.LFB1580
 9654 095b 05       		.uleb128 .LEHE332-.LEHB332
 9655 095c 00       		.uleb128 0
 9656 095d 00       		.uleb128 0
 9657 095e 9E08     		.uleb128 .LEHB333-.LFB1580
 9658 0960 41       		.uleb128 .LEHE333-.LEHB333
 9659 0961 F408     		.uleb128 .L1000-.LFB1580
 9660 0963 00       		.uleb128 0
 9661 0964 EF08     		.uleb128 .LEHB334-.LFB1580
 9662 0966 05       		.uleb128 .LEHE334-.LEHB334
 9663 0967 00       		.uleb128 0
 9664 0968 00       		.uleb128 0
 9665 0969 8609     		.uleb128 .LEHB335-.LFB1580
 9666 096b 2E       		.uleb128 .LEHE335-.LEHB335
 9667 096c E20A     		.uleb128 .L1006-.LFB1580
 9668 096e 07       		.uleb128 0x7
 9669 096f B409     		.uleb128 .LEHB336-.LFB1580
 9670 0971 05       		.uleb128 .LEHE336-.LEHB336
 9671 0972 C10A     		.uleb128 .L1005-.LFB1580
 9672 0974 07       		.uleb128 0x7
 9673 0975 C609     		.uleb128 .LEHB337-.LFB1580
 9674 0977 34       		.uleb128 .LEHE337-.LEHB337
 9675 0978 F70A     		.uleb128 .L1008-.LFB1580
 9676 097a 07       		.uleb128 0x7
 9677 097b FA09     		.uleb128 .LEHB338-.LFB1580
 9678 097d 05       		.uleb128 .LEHE338-.LEHB338
 9679 097e C10A     		.uleb128 .L1005-.LFB1580
 9680 0980 07       		.uleb128 0x7
 9681              	.LLSDACSE1580:
 9682 0981 03       		.byte	0x3
 9683 0982 00       		.byte	0
 9684 0983 02       		.byte	0x2
 9685 0984 7D       		.byte	0x7d
 9686 0985 01       		.byte	0x1
 9687 0986 7D       		.byte	0x7d
 9688 0987 00       		.byte	0
 9689 0988 7D       		.byte	0x7d
 9690 0989 000000   		.align 4
 9691 098c 00000000 		.long	0
 9692              	
 9693 0990 00000000 		.long	_ZTISt9exception
 9694 0994 00000000 		.long	_ZTIN8UnitTest15AssertExceptionE
 9695              	.LLSDATT1580:
 9696              		.text
 9698              		.section	.text.unlikely
 9699              	.LCOLDE117:
 9700              		.text
 9701              	.LHOTE117:
 9702              		.section	.text.unlikely
 9703              		.align 2
 9704              	.LCOLDB118:
 9705              		.text
 9706              	.LHOTB118:
 9707              		.align 2
 9708 4e94 6690662E 		.p2align 4,,15
 9708      0F1F8400 
 9708      00000000 
 9710              	_ZNK12_GLOBAL__N_157TestTestRunnerFixtureCallsReportFailureOncePerFailingTest7RunImplEv:
 9711              	.LFB1207:
 9712              		.cfi_startproc
 9713              		.cfi_personality 0x3,__gxx_personality_v0
 9714              		.cfi_lsda 0x3,.LLSDA1207
 9715 4ea0 4155     		pushq	%r13
 9716              		.cfi_def_cfa_offset 16
 9717              		.cfi_offset 13, -16
 9718 4ea2 4154     		pushq	%r12
 9719              		.cfi_def_cfa_offset 24
 9720              		.cfi_offset 12, -24
 9721 4ea4 55       		pushq	%rbp
 9722              		.cfi_def_cfa_offset 32
 9723              		.cfi_offset 6, -32
 9724 4ea5 53       		pushq	%rbx
 9725              		.cfi_def_cfa_offset 40
 9726              		.cfi_offset 3, -40
 9727 4ea6 4889FD   		movq	%rdi, %rbp
 9728 4ea9 488D5F08 		leaq	8(%rdi), %rbx
 9729 4ead 4881EC98 		subq	$2200, %rsp
 9729      080000
 9730              		.cfi_def_cfa_offset 2240
 9731 4eb4 64488B04 		movq	%fs:40, %rax
 9731      25280000 
 9731      00
 9732 4ebd 48898424 		movq	%rax, 2184(%rsp)
 9732      88080000 
 9733 4ec5 31C0     		xorl	%eax, %eax
 9734 4ec7 488D4424 		leaq	32(%rsp), %rax
 9734      20
 9735 4ecc 488D7424 		leaq	56(%rsp), %rsi
 9735      38
 9736 4ed1 4889C7   		movq	%rax, %rdi
 9737              	.LEHB339:
 9738 4ed4 E8000000 		call	_ZN8UnitTest10TestRunnerC1ERNS_12TestReporterE
 9738      00
 9739              	.LEHE339:
 9740 4ed9 488DBC24 		leaq	2152(%rsp), %rdi
 9740      68080000 
 9741 4ee1 48C74424 		movq	$_ZTV17RecordingReporter+16, 56(%rsp)
 9741      38000000 
 9741      00
 9742 4eea C7442440 		movl	$0, 64(%rsp)
 9742      00000000 
 9743 4ef2 C7842444 		movl	$0, 580(%rsp)
 9743      02000000 
 9743      000000
 9744 4efd C7842448 		movl	$0, 840(%rsp)
 9744      03000000 
 9744      000000
 9745 4f08 C784244C 		movl	$0, 1612(%rsp)
 9745      06000000 
 9745      000000
 9746 4f13 C7842450 		movl	$0x00000000, 2128(%rsp)
 9746      08000000 
 9746      000000
 9747 4f1e C7842454 		movl	$0, 2132(%rsp)
 9747      08000000 
 9747      000000
 9748 4f29 C7842458 		movl	$0, 2136(%rsp)
 9748      08000000 
 9748      000000
 9749 4f34 C784245C 		movl	$0, 2140(%rsp)
 9749      08000000 
 9749      000000
 9750 4f3f C7842460 		movl	$0x00000000, 2144(%rsp)
 9750      08000000 
 9750      000000
 9751 4f4a C6442444 		movb	$0, 68(%rsp)
 9751      00
 9752 4f4f C6842444 		movb	$0, 324(%rsp)
 9752      01000000 
 9753 4f57 C6842448 		movb	$0, 584(%rsp)
 9753      02000000 
 9754 4f5f C684244C 		movb	$0, 844(%rsp)
 9754      03000000 
 9755 4f67 C684244C 		movb	$0, 1100(%rsp)
 9755      04000000 
 9756 4f6f C684244C 		movb	$0, 1356(%rsp)
 9756      05000000 
 9757 4f77 C6842450 		movb	$0, 1616(%rsp)
 9757      06000000 
 9758 4f7f C6842450 		movb	$0, 1872(%rsp)
 9758      07000000 
 9759              	.LEHB340:
 9760 4f87 E8000000 		call	_ZN8UnitTest8TestListC1Ev
 9760      00
 9761              	.LEHE340:
 9762 4f8c 488D7C24 		leaq	32(%rsp), %rdi
 9762      20
 9763 4f91 4889DE   		movq	%rbx, %rsi
 9764 4f94 48899C24 		movq	%rbx, 2168(%rsp)
 9764      78080000 
 9765              	.LEHB341:
 9766 4f9c E86FF9FF 		call	_ZN8UnitTest11ExecuteTestIN12_GLOBAL__N_159TestRunnerFixtureCallsReportFailureOncePerFailingT
 9766      FF
 9767              	.LEHE341:
 9768 4fa1 488D7C24 		leaq	56(%rsp), %rdi
 9768      38
 9769 4fa6 48C74424 		movq	$_ZTV17RecordingReporter+16, 56(%rsp)
 9769      38000000 
 9769      00
 9770              	.LEHB342:
 9771 4faf E8000000 		call	_ZN8UnitTest12TestReporterD2Ev
 9771      00
 9772              	.LEHE342:
 9773 4fb4 488D7C24 		leaq	32(%rsp), %rdi
 9773      20
 9774              	.LEHB343:
 9775 4fb9 E8000000 		call	_ZN8UnitTest10TestRunnerD1Ev
 9775      00
 9776              	.LEHE343:
 9777              	.L1021:
 9778 4fbe 488B8424 		movq	2184(%rsp), %rax
 9778      88080000 
 9779 4fc6 64483304 		xorq	%fs:40, %rax
 9779      25280000 
 9779      00
 9780 4fcf 750E     		jne	.L1060
 9781 4fd1 4881C498 		addq	$2200, %rsp
 9781      080000
 9782              		.cfi_remember_state
 9783              		.cfi_def_cfa_offset 40
 9784 4fd8 5B       		popq	%rbx
 9785              		.cfi_def_cfa_offset 32
 9786 4fd9 5D       		popq	%rbp
 9787              		.cfi_def_cfa_offset 24
 9788 4fda 415C     		popq	%r12
 9789              		.cfi_def_cfa_offset 16
 9790 4fdc 415D     		popq	%r13
 9791              		.cfi_def_cfa_offset 8
 9792 4fde C3       		ret
 9793              	.L1060:
 9794              		.cfi_restore_state
 9795 4fdf E8000000 		call	__stack_chk_fail
 9795      00
 9796              	.L1042:
 9797 4fe4 4889C7   		movq	%rax, %rdi
 9798 4fe7 41BC0100 		movl	$1, %r12d
 9798      0000
 9799              	.L1024:
 9800 4fed 4883FA01 		cmpq	$1, %rdx
 9801 4ff1 0F844501 		je	.L1033
 9801      0000
 9802 4ff7 4883FA02 		cmpq	$2, %rdx
 9803 4ffb 0F85FE00 		jne	.L1061
 9803      0000
 9804 5001 E8000000 		call	__cxa_begin_catch
 9804      00
 9805 5006 488D7C24 		leaq	32(%rsp), %rdi
 9805      20
 9806 500b 4889C5   		movq	%rax, %rbp
 9807              	.LEHB344:
 9808 500e E8000000 		call	_ZN8UnitTest15MemoryOutStreamC1Ev
 9808      00
 9809              	.LEHE344:
 9810 5013 488B4500 		movq	0(%rbp), %rax
 9811 5017 4889EF   		movq	%rbp, %rdi
 9812 501a FF5010   		call	*16(%rax)
 9813 501d 488D7C24 		leaq	32(%rsp), %rdi
 9813      20
 9814 5022 BA150000 		movl	$21, %edx
 9814      00
 9815 5027 BE000000 		movl	$.LC69, %esi
 9815      00
 9816 502c 4889C5   		movq	%rax, %rbp
 9817              	.LEHB345:
 9818 502f E8000000 		call	_ZSt16__ostream_insertIcSt11char_traitsIcEERSt13basic_ostreamIT_T0_ES6_PKS3_l
 9818      00
 9819 5034 488D7C24 		leaq	32(%rsp), %rdi
 9819      20
 9820 5039 4889EE   		movq	%rbp, %rsi
 9821 503c E8000000 		call	_ZStlsISt11char_traitsIcEERSt13basic_ostreamIcT_ES5_PKc
 9821      00
 9822 5041 488D7C24 		leaq	32(%rsp), %rdi
 9822      20
 9823 5046 E8000000 		call	_ZNK8UnitTest15MemoryOutStream7GetTextEv
 9823      00
 9824 504b 4889C5   		movq	%rax, %rbp
 9825 504e E8000000 		call	_ZN8UnitTest11CurrentTest7ResultsEv
 9825      00
 9826 5053 488B38   		movq	(%rax), %rdi
 9827 5056 4889EA   		movq	%rbp, %rdx
 9828 5059 4889DE   		movq	%rbx, %rsi
 9829 505c E8000000 		call	_ZN8UnitTest11TestResults13OnTestFailureERKNS_11TestDetailsEPKc
 9829      00
 9830              	.LEHE345:
 9831 5061 488D7C24 		leaq	32(%rsp), %rdi
 9831      20
 9832              	.LEHB346:
 9833 5066 E8000000 		call	_ZN8UnitTest15MemoryOutStreamD1Ev
 9833      00
 9834              	.LEHE346:
 9835              	.L1055:
 9836 506b E8000000 		call	__cxa_end_catch
 9836      00
 9837 5070 E949FFFF 		jmp	.L1021
 9837      FF
 9838              	.L1049:
 9839 5075 488D7C24 		leaq	32(%rsp), %rdi
 9839      20
 9840 507a 4989D4   		movq	%rdx, %r12
 9841 507d 4989C5   		movq	%rax, %r13
 9842 5080 E8000000 		call	_ZN8UnitTest10TestRunnerD1Ev
 9842      00
 9843 5085 4C89E2   		movq	%r12, %rdx
 9844 5088 4C89EF   		movq	%r13, %rdi
 9845 508b 41BC0100 		movl	$1, %r12d
 9845      0000
 9846 5091 E957FFFF 		jmp	.L1024
 9846      FF
 9847              	.L1043:
 9848 5096 488D7C24 		leaq	32(%rsp), %rdi
 9848      20
 9849 509b 4989D4   		movq	%rdx, %r12
 9850 509e 4989C5   		movq	%rax, %r13
 9851 50a1 E8000000 		call	_ZN12_GLOBAL__N_111FixtureBaseD2Ev
 9851      00
 9852 50a6 4C89E2   		movq	%r12, %rdx
 9853 50a9 4C89EF   		movq	%r13, %rdi
 9854 50ac 41BC0100 		movl	$1, %r12d
 9854      0000
 9855 50b2 E936FFFF 		jmp	.L1024
 9855      FF
 9856              	.L1048:
 9857 50b7 488D7C24 		leaq	32(%rsp), %rdi
 9857      20
 9858 50bc 4989D4   		movq	%rdx, %r12
 9859 50bf 4989C5   		movq	%rax, %r13
 9860 50c2 E8000000 		call	_ZN12_GLOBAL__N_111FixtureBaseD2Ev
 9860      00
 9861 50c7 4C89E2   		movq	%r12, %rdx
 9862 50ca 4C89EF   		movq	%r13, %rdi
 9863 50cd 4531E4   		xorl	%r12d, %r12d
 9864 50d0 E918FFFF 		jmp	.L1024
 9864      FF
 9865              	.L1050:
 9866 50d5 4889C7   		movq	%rax, %rdi
 9867 50d8 4531E4   		xorl	%r12d, %r12d
 9868 50db E90DFFFF 		jmp	.L1024
 9868      FF
 9869              	.L1046:
 9870 50e0 488D7C24 		leaq	32(%rsp), %rdi
 9870      20
 9871 50e5 4889C3   		movq	%rax, %rbx
 9872 50e8 E8000000 		call	_ZN8UnitTest15MemoryOutStreamD1Ev
 9872      00
 9873              	.L1039:
 9874 50ed E8000000 		call	__cxa_end_catch
 9874      00
 9875 50f2 4889DF   		movq	%rbx, %rdi
 9876              	.LEHB347:
 9877 50f5 E8000000 		call	_Unwind_Resume
 9877      00
 9878              	.LEHE347:
 9879              	.L1045:
 9880              	.L1056:
 9881 50fa 4889C3   		movq	%rax, %rbx
 9882 50fd EBEE     		jmp	.L1039
 9883              	.L1061:
 9884 50ff E8000000 		call	__cxa_begin_catch
 9884      00
 9885 5104 4584E4   		testb	%r12b, %r12b
 9886 5107 BA6C0000 		movl	$108, %edx
 9886      00
 9887 510c 4889DE   		movq	%rbx, %rsi
 9888 510f 4889E7   		movq	%rsp, %rdi
 9889 5112 0F848900 		je	.L1035
 9889      0000
 9890              	.LEHB348:
 9891 5118 E8000000 		call	_ZN8UnitTest11TestDetailsC1ERKS0_i
 9891      00
 9892 511d E8000000 		call	_ZN8UnitTest11CurrentTest7ResultsEv
 9892      00
 9893 5122 488B38   		movq	(%rax), %rdi
 9894 5125 BA000000 		movl	$.LC73, %edx
 9894      00
 9895 512a 4889E6   		movq	%rsp, %rsi
 9896 512d E8000000 		call	_ZN8UnitTest11TestResults13OnTestFailureERKNS_11TestDetailsEPKc
 9896      00
 9897              	.LEHE348:
 9898              	.L1036:
 9899              	.LEHB349:
 9900 5132 E8000000 		call	__cxa_end_catch
 9900      00
 9901              	.LEHE349:
 9902 5137 E982FEFF 		jmp	.L1021
 9902      FF
 9903              	.L1033:
 9904 513c E8000000 		call	__cxa_begin_catch
 9904      00
 9905 5141 4889C3   		movq	%rax, %rbx
 9906 5144 488B00   		movq	(%rax), %rax
 9907 5147 4889DF   		movq	%rbx, %rdi
 9908 514a FF5010   		call	*16(%rax)
 9909 514d 4889DF   		movq	%rbx, %rdi
 9910 5150 4989C4   		movq	%rax, %r12
 9911              	.LEHB350:
 9912 5153 E8000000 		call	_ZNK8UnitTest15AssertException10LineNumberEv
 9912      00
 9913 5158 4889DF   		movq	%rbx, %rdi
 9914 515b 4189C5   		movl	%eax, %r13d
 9915 515e E8000000 		call	_ZNK8UnitTest15AssertException8FilenameEv
 9915      00
 9916 5163 488B5508 		movq	8(%rbp), %rdx
 9917 5167 488B7510 		movq	16(%rbp), %rsi
 9918 516b 4589E8   		movl	%r13d, %r8d
 9919 516e 4889C1   		movq	%rax, %rcx
 9920 5171 4889E7   		movq	%rsp, %rdi
 9921 5174 E8000000 		call	_ZN8UnitTest11TestDetailsC1EPKcS2_S2_i
 9921      00
 9922 5179 E8000000 		call	_ZN8UnitTest11CurrentTest7ResultsEv
 9922      00
 9923 517e 488B38   		movq	(%rax), %rdi
 9924 5181 4C89E2   		movq	%r12, %rdx
 9925 5184 4889E6   		movq	%rsp, %rsi
 9926 5187 E8000000 		call	_ZN8UnitTest11TestResults13OnTestFailureERKNS_11TestDetailsEPKc
 9926      00
 9927              	.LEHE350:
 9928 518c E9DAFEFF 		jmp	.L1055
 9928      FF
 9929              	.L1047:
 9930 5191 4889C3   		movq	%rax, %rbx
 9931 5194 E8000000 		call	__cxa_end_catch
 9931      00
 9932 5199 4889DF   		movq	%rbx, %rdi
 9933              	.LEHB351:
 9934 519c E8000000 		call	_Unwind_Resume
 9934      00
 9935              	.LEHE351:
 9936              	.L1035:
 9937              	.LEHB352:
 9938 51a1 E8000000 		call	_ZN8UnitTest11TestDetailsC1ERKS0_i
 9938      00
 9939 51a6 E8000000 		call	_ZN8UnitTest11CurrentTest7ResultsEv
 9939      00
 9940 51ab 488B38   		movq	(%rax), %rdi
 9941 51ae BA000000 		movl	$.LC74, %edx
 9941      00
 9942 51b3 4889E6   		movq	%rsp, %rsi
 9943 51b6 E8000000 		call	_ZN8UnitTest11TestResults13OnTestFailureERKNS_11TestDetailsEPKc
 9943      00
 9944              	.LEHE352:
 9945 51bb E972FFFF 		jmp	.L1036
 9945      FF
 9946              	.L1044:
 9947 51c0 E935FFFF 		jmp	.L1056
 9947      FF
 9948              		.cfi_endproc
 9949              	.LFE1207:
 9950              		.section	.gcc_except_table
 9951              		.align 4
 9952              	.LLSDA1207:
 9953 0998 FF       		.byte	0xff
 9954 0999 03       		.byte	0x3
 9955 099a 69       		.uleb128 .LLSDATT1207-.LLSDATTD1207
 9956              	.LLSDATTD1207:
 9957 099b 01       		.byte	0x1
 9958 099c 50       		.uleb128 .LLSDACSE1207-.LLSDACSB1207
 9959              	.LLSDACSB1207:
 9960 099d 34       		.uleb128 .LEHB339-.LFB1207
 9961 099e 05       		.uleb128 .LEHE339-.LEHB339
 9962 099f B504     		.uleb128 .L1050-.LFB1207
 9963 09a1 05       		.uleb128 0x5
 9964 09a2 E701     		.uleb128 .LEHB340-.LFB1207
 9965 09a4 05       		.uleb128 .LEHE340-.LEHB340
 9966 09a5 9704     		.uleb128 .L1048-.LFB1207
 9967 09a7 07       		.uleb128 0x7
 9968 09a8 FC01     		.uleb128 .LEHB341-.LFB1207
 9969 09aa 05       		.uleb128 .LEHE341-.LEHB341
 9970 09ab F603     		.uleb128 .L1043-.LFB1207
 9971 09ad 07       		.uleb128 0x7
 9972 09ae 8F02     		.uleb128 .LEHB342-.LFB1207
 9973 09b0 05       		.uleb128 .LEHE342-.LEHB342
 9974 09b1 D503     		.uleb128 .L1049-.LFB1207
 9975 09b3 07       		.uleb128 0x7
 9976 09b4 9902     		.uleb128 .LEHB343-.LFB1207
 9977 09b6 05       		.uleb128 .LEHE343-.LEHB343
 9978 09b7 C402     		.uleb128 .L1042-.LFB1207
 9979 09b9 05       		.uleb128 0x5
 9980 09ba EE02     		.uleb128 .LEHB344-.LFB1207
 9981 09bc 05       		.uleb128 .LEHE344-.LEHB344
 9982 09bd DA04     		.uleb128 .L1045-.LFB1207
 9983 09bf 00       		.uleb128 0
 9984 09c0 8F03     		.uleb128 .LEHB345-.LFB1207
 9985 09c2 32       		.uleb128 .LEHE345-.LEHB345
 9986 09c3 C004     		.uleb128 .L1046-.LFB1207
 9987 09c5 00       		.uleb128 0
 9988 09c6 C603     		.uleb128 .LEHB346-.LFB1207
 9989 09c8 05       		.uleb128 .LEHE346-.LEHB346
 9990 09c9 DA04     		.uleb128 .L1045-.LFB1207
 9991 09cb 00       		.uleb128 0
 9992 09cc D504     		.uleb128 .LEHB347-.LFB1207
 9993 09ce 05       		.uleb128 .LEHE347-.LEHB347
 9994 09cf 00       		.uleb128 0
 9995 09d0 00       		.uleb128 0
 9996 09d1 F804     		.uleb128 .LEHB348-.LFB1207
 9997 09d3 1A       		.uleb128 .LEHE348-.LEHB348
 9998 09d4 F105     		.uleb128 .L1047-.LFB1207
 9999 09d6 00       		.uleb128 0
 10000 09d7 9205     		.uleb128 .LEHB349-.LFB1207
 10001 09d9 05       		.uleb128 .LEHE349-.LEHB349
 10002 09da 00       		.uleb128 0
 10003 09db 00       		.uleb128 0
 10004 09dc B305     		.uleb128 .LEHB350-.LFB1207
 10005 09de 39       		.uleb128 .LEHE350-.LEHB350
 10006 09df A006     		.uleb128 .L1044-.LFB1207
 10007 09e1 00       		.uleb128 0
 10008 09e2 FC05     		.uleb128 .LEHB351-.LFB1207
 10009 09e4 05       		.uleb128 .LEHE351-.LEHB351
 10010 09e5 00       		.uleb128 0
 10011 09e6 00       		.uleb128 0
 10012 09e7 8106     		.uleb128 .LEHB352-.LFB1207
 10013 09e9 1A       		.uleb128 .LEHE352-.LEHB352
 10014 09ea F105     		.uleb128 .L1047-.LFB1207
 10015 09ec 00       		.uleb128 0
 10016              	.LLSDACSE1207:
 10017 09ed 03       		.byte	0x3
 10018 09ee 00       		.byte	0
 10019 09ef 02       		.byte	0x2
 10020 09f0 7D       		.byte	0x7d
 10021 09f1 01       		.byte	0x1
 10022 09f2 7D       		.byte	0x7d
 10023 09f3 00       		.byte	0
 10024 09f4 7D       		.byte	0x7d
 10025 09f5 000000   		.align 4
 10026 09f8 00000000 		.long	0
 10027              	
 10028 09fc 00000000 		.long	_ZTISt9exception
 10029 0a00 00000000 		.long	_ZTIN8UnitTest15AssertExceptionE
 10030              	.LLSDATT1207:
 10031              		.text
 10033              		.section	.text.unlikely
 10034              	.LCOLDE118:
 10035              		.text
 10036              	.LHOTE118:
 10037              		.section	.rodata.str1.8
 10038              		.align 8
 10039              	.LC119:
 10040 05b0 556E6861 		.string	"Unhandled exception in CHECK_EQUAL(0, RunTestsIf(list, NULL, True(), 0))"
 10040      6E646C65 
 10040      64206578 
 10040      63657074 
 10040      696F6E20 
 10041 05f9 00000000 		.align 8
 10041      000000
 10042              	.LC120:
 10043 0600 556E6861 		.string	"Unhandled exception in CHECK_EQUAL(0, reporter.testRunCount)"
 10043      6E646C65 
 10043      64206578 
 10043      63657074 
 10043      696F6E20 
 10044              		.section	.text.unlikely
 10045              	.LCOLDB121:
 10046              		.text
 10047              	.LHOTB121:
 10048 51c5 90662E0F 		.p2align 4,,15
 10048      1F840000 
 10048      000000
 10050              	_ZN8UnitTest11ExecuteTestIN12_GLOBAL__N_158TestRunnerFixtureFailureCountIsZeroWhenNoTestsAreRunHelp
 10051              	.LFB1579:
 10052              		.cfi_startproc
 10053              		.cfi_personality 0x3,__gxx_personality_v0
 10054              		.cfi_lsda 0x3,.LLSDA1579
 10055 51d0 4155     		pushq	%r13
 10056              		.cfi_def_cfa_offset 16
 10057              		.cfi_offset 13, -16
 10058 51d2 4154     		pushq	%r12
 10059              		.cfi_def_cfa_offset 24
 10060              		.cfi_offset 12, -24
 10061 51d4 55       		pushq	%rbp
 10062              		.cfi_def_cfa_offset 32
 10063              		.cfi_offset 6, -32
 10064 51d5 53       		pushq	%rbx
 10065              		.cfi_def_cfa_offset 40
 10066              		.cfi_offset 3, -40
 10067 51d6 4889F3   		movq	%rsi, %rbx
 10068 51d9 4881EC18 		subq	$1816, %rsp
 10068      070000
 10069              		.cfi_def_cfa_offset 1856
 10070 51e0 48893C24 		movq	%rdi, (%rsp)
 10071 51e4 48897424 		movq	%rsi, 8(%rsp)
 10071      08
 10072 51e9 64488B04 		movq	%fs:40, %rax
 10072      25280000 
 10072      00
 10073 51f2 48898424 		movq	%rax, 1800(%rsp)
 10073      08070000 
 10074 51fa 31C0     		xorl	%eax, %eax
 10075              	.LEHB353:
 10076 51fc E8000000 		call	_ZN8UnitTest11CurrentTest7DetailsEv
 10076      00
 10077              	.LEHE353:
 10078 5201 488DBC24 		leaq	672(%rsp), %rdi
 10078      A0020000 
 10079 5209 488918   		movq	%rbx, (%rax)
 10080              	.LEHB354:
 10081 520c E8000000 		call	_ZN8UnitTest16SignalTranslatorC1Ev
 10081      00
 10082              	.LEHE354:
 10083 5211 488B3D00 		movq	_ZN8UnitTest16SignalTranslator12s_jumpTargetE(%rip), %rdi
 10083      000000
 10084 5218 BE010000 		movl	$1, %esi
 10084      00
 10085 521d E8000000 		call	__sigsetjmp
 10085      00
 10086 5222 85C0     		testl	%eax, %eax
 10087 5224 742A     		je	.L1105
 10088 5226 BF080000 		movl	$8, %edi
 10088      00
 10089 522b E8000000 		call	__cxa_allocate_exception
 10089      00
 10090 5230 31D2     		xorl	%edx, %edx
 10091 5232 48C70000 		movq	$.LC61, (%rax)
 10091      000000
 10092 5239 BE000000 		movl	$_ZTIPKc, %esi
 10092      00
 10093 523e 4889C7   		movq	%rax, %rdi
 10094              	.LEHB355:
 10095 5241 E8000000 		call	__cxa_throw
 10095      00
 10096              	.LEHE355:
 10097 5246 662E0F1F 		.p2align 4,,10
 10097      84000000 
 10097      0000
 10098              		.p2align 3
 10099              	.L1105:
 10100              	.LEHB356:
 10101 5250 E8000000 		call	_ZN8UnitTest11CurrentTest7DetailsEv
 10101      00
 10102 5255 488B30   		movq	(%rax), %rsi
 10103 5258 488DBC24 		leaq	224(%rsp), %rdi
 10103      E0000000 
 10104 5260 BA670000 		movl	$103, %edx
 10104      00
 10105 5265 E8000000 		call	_ZN8UnitTest11TestDetailsC1ERKS0_i
 10105      00
 10106 526a 488B2C24 		movq	(%rsp), %rbp
 10107 526e 488D9D48 		leaq	2120(%rbp), %rbx
 10107      080000
 10108 5275 E8000000 		call	_ZN8UnitTest11CurrentTest7ResultsEv
 10108      00
 10109 527a 4C8B20   		movq	(%rax), %r12
 10110 527d E8000000 		call	_ZN8UnitTest11CurrentTest7DetailsEv
 10110      00
 10111 5282 4889DF   		movq	%rbx, %rdi
 10112 5285 4C8B28   		movq	(%rax), %r13
 10113 5288 E8000000 		call	_ZNK8UnitTest8TestList7GetHeadEv
 10113      00
 10114 528d 4885C0   		testq	%rax, %rax
 10115 5290 4889C3   		movq	%rax, %rbx
 10116 5293 7432     		je	.L1068
 10117              		.p2align 4,,10
 10118 5295 0F1F00   		.p2align 3
 10119              	.L1104:
 10120 5298 31D2     		xorl	%edx, %edx
 10121 529a 4889DE   		movq	%rbx, %rsi
 10122 529d 4889EF   		movq	%rbp, %rdi
 10123 52a0 E8000000 		call	_ZNK8UnitTest10TestRunner13IsTestInSuiteEPKNS_4TestEPKc
 10123      00
 10124 52a5 84C0     		testb	%al, %al
 10125 52a7 7415     		je	.L1090
 10126 52a9 488B0424 		movq	(%rsp), %rax
 10127 52ad 31C9     		xorl	%ecx, %ecx
 10128 52af 4889DA   		movq	%rbx, %rdx
 10129 52b2 4889EF   		movq	%rbp, %rdi
 10130 52b5 488B7008 		movq	8(%rax), %rsi
 10131 52b9 E8000000 		call	_ZNK8UnitTest10TestRunner7RunTestEPNS_11TestResultsEPNS_4TestEi
 10131      00
 10132              	.L1090:
 10133 52be 488B5B28 		movq	40(%rbx), %rbx
 10134 52c2 4885DB   		testq	%rbx, %rbx
 10135 52c5 75D1     		jne	.L1104
 10136              	.L1068:
 10137 52c7 488B3C24 		movq	(%rsp), %rdi
 10138 52cb E8000000 		call	_ZNK8UnitTest10TestRunner6FinishEv
 10138      00
 10139 52d0 89C3     		movl	%eax, %ebx
 10140 52d2 E8000000 		call	_ZN8UnitTest11CurrentTest7ResultsEv
 10140      00
 10141 52d7 4C8920   		movq	%r12, (%rax)
 10142 52da E8000000 		call	_ZN8UnitTest11CurrentTest7DetailsEv
 10142      00
 10143 52df 4C8928   		movq	%r13, (%rax)
 10144 52e2 895C241C 		movl	%ebx, 28(%rsp)
 10145 52e6 C7442418 		movl	$0, 24(%rsp)
 10145      00000000 
 10146 52ee E8000000 		call	_ZN8UnitTest11CurrentTest7ResultsEv
 10146      00
 10147 52f3 488B38   		movq	(%rax), %rdi
 10148 52f6 488D8C24 		leaq	224(%rsp), %rcx
 10148      E0000000 
 10149 52fe 488D5424 		leaq	28(%rsp), %rdx
 10149      1C
 10150 5303 488D7424 		leaq	24(%rsp), %rsi
 10150      18
 10151 5308 E8000000 		call	_ZN8UnitTest10CheckEqualIiiEEvRNS_11TestResultsERKT_RKT0_RKNS_11TestDetailsE
 10151      00
 10152              	.LEHE356:
 10153              	.L1072:
 10154              	.LEHB357:
 10155 530d E8000000 		call	_ZN8UnitTest11CurrentTest7DetailsEv
 10155      00
 10156 5312 488B30   		movq	(%rax), %rsi
 10157 5315 488DBC24 		leaq	160(%rsp), %rdi
 10157      A0000000 
 10158 531d BA680000 		movl	$104, %edx
 10158      00
 10159 5322 E8000000 		call	_ZN8UnitTest11TestDetailsC1ERKS0_i
 10159      00
 10160 5327 488B0424 		movq	(%rsp), %rax
 10161 532b C7442414 		movl	$0, 20(%rsp)
 10161      00000000 
 10162 5333 488D5820 		leaq	32(%rax), %rbx
 10163 5337 E8000000 		call	_ZN8UnitTest11CurrentTest7ResultsEv
 10163      00
 10164 533c 488B38   		movq	(%rax), %rdi
 10165 533f 488D8C24 		leaq	160(%rsp), %rcx
 10165      A0000000 
 10166 5347 488D7424 		leaq	20(%rsp), %rsi
 10166      14
 10167 534c 4889DA   		movq	%rbx, %rdx
 10168 534f E8000000 		call	_ZN8UnitTest10CheckEqualIiiEEvRNS_11TestResultsERKT_RKT0_RKNS_11TestDetailsE
 10168      00
 10169              	.LEHE357:
 10170              	.L1076:
 10171              	.LEHB358:
 10172 5354 E8000000 		call	_ZN8UnitTest11CurrentTest7DetailsEv
 10172      00
 10173 5359 488B30   		movq	(%rax), %rsi
 10174 535c 488D7C24 		leaq	96(%rsp), %rdi
 10174      60
 10175 5361 BA690000 		movl	$105, %edx
 10175      00
 10176 5366 E8000000 		call	_ZN8UnitTest11TestDetailsC1ERKS0_i
 10176      00
 10177 536b 488B1C24 		movq	(%rsp), %rbx
 10178 536f C7442410 		movl	$0, 16(%rsp)
 10178      00000000 
 10179 5377 4881C324 		addq	$548, %rbx
 10179      020000
 10180 537e E8000000 		call	_ZN8UnitTest11CurrentTest7ResultsEv
 10180      00
 10181 5383 488B38   		movq	(%rax), %rdi
 10182 5386 488D4C24 		leaq	96(%rsp), %rcx
 10182      60
 10183 538b 488D7424 		leaq	16(%rsp), %rsi
 10183      10
 10184 5390 4889DA   		movq	%rbx, %rdx
 10185 5393 E8000000 		call	_ZN8UnitTest10CheckEqualIiiEEvRNS_11TestResultsERKT_RKT0_RKNS_11TestDetailsE
 10185      00
 10186              	.LEHE358:
 10187              	.L1070:
 10188 5398 488DBC24 		leaq	672(%rsp), %rdi
 10188      A0020000 
 10189              	.LEHB359:
 10190 53a0 E8000000 		call	_ZN8UnitTest16SignalTranslatorD1Ev
 10190      00
 10191              	.LEHE359:
 10192              	.L1062:
 10193 53a5 488B8424 		movq	1800(%rsp), %rax
 10193      08070000 
 10194 53ad 64483304 		xorq	%fs:40, %rax
 10194      25280000 
 10194      00
 10195 53b6 0F858101 		jne	.L1113
 10195      0000
 10196 53bc 4881C418 		addq	$1816, %rsp
 10196      070000
 10197              		.cfi_remember_state
 10198              		.cfi_def_cfa_offset 40
 10199 53c3 5B       		popq	%rbx
 10200              		.cfi_def_cfa_offset 32
 10201 53c4 5D       		popq	%rbp
 10202              		.cfi_def_cfa_offset 24
 10203 53c5 415C     		popq	%r12
 10204              		.cfi_def_cfa_offset 16
 10205 53c7 415D     		popq	%r13
 10206              		.cfi_def_cfa_offset 8
 10207 53c9 C3       		ret
 10208              	.L1097:
 10209              		.cfi_restore_state
 10210 53ca 4889C3   		movq	%rax, %rbx
 10211 53cd 4889D5   		movq	%rdx, %rbp
 10212              	.L1074:
 10213 53d0 488DBC24 		leaq	672(%rsp), %rdi
 10213      A0020000 
 10214 53d8 E8000000 		call	_ZN8UnitTest16SignalTranslatorD1Ev
 10214      00
 10215 53dd 4889DF   		movq	%rbx, %rdi
 10216 53e0 4889EA   		movq	%rbp, %rdx
 10217              	.L1080:
 10218 53e3 4883FA01 		cmpq	$1, %rdx
 10219 53e7 0F84DE00 		je	.L1082
 10219      0000
 10220 53ed 4883FA02 		cmpq	$2, %rdx
 10221 53f1 0F85AE00 		jne	.L1114
 10221      0000
 10222 53f7 E8000000 		call	__cxa_begin_catch
 10222      00
 10223 53fc 488DBC24 		leaq	256(%rsp), %rdi
 10223      00010000 
 10224 5404 4889C3   		movq	%rax, %rbx
 10225              	.LEHB360:
 10226 5407 E8000000 		call	_ZN8UnitTest15MemoryOutStreamC1Ev
 10226      00
 10227              	.LEHE360:
 10228 540c 488B03   		movq	(%rbx), %rax
 10229 540f 4889DF   		movq	%rbx, %rdi
 10230 5412 FF5010   		call	*16(%rax)
 10231 5415 488DBC24 		leaq	256(%rsp), %rdi
 10231      00010000 
 10232 541d BA150000 		movl	$21, %edx
 10232      00
 10233 5422 BE000000 		movl	$.LC69, %esi
 10233      00
 10234 5427 4889C3   		movq	%rax, %rbx
 10235              	.LEHB361:
 10236 542a E8000000 		call	_ZSt16__ostream_insertIcSt11char_traitsIcEERSt13basic_ostreamIT_T0_ES6_PKS3_l
 10236      00
 10237 542f 488DBC24 		leaq	256(%rsp), %rdi
 10237      00010000 
 10238 5437 4889DE   		movq	%rbx, %rsi
 10239 543a E8000000 		call	_ZStlsISt11char_traitsIcEERSt13basic_ostreamIcT_ES5_PKc
 10239      00
 10240 543f 488DBC24 		leaq	256(%rsp), %rdi
 10240      00010000 
 10241 5447 E8000000 		call	_ZNK8UnitTest15MemoryOutStream7GetTextEv
 10241      00
 10242 544c 4889C3   		movq	%rax, %rbx
 10243 544f E8000000 		call	_ZN8UnitTest11CurrentTest7ResultsEv
 10243      00
 10244 5454 488B7424 		movq	8(%rsp), %rsi
 10244      08
 10245 5459 488B38   		movq	(%rax), %rdi
 10246 545c 4889DA   		movq	%rbx, %rdx
 10247 545f E8000000 		call	_ZN8UnitTest11TestResults13OnTestFailureERKNS_11TestDetailsEPKc
 10247      00
 10248              	.LEHE361:
 10249 5464 488DBC24 		leaq	256(%rsp), %rdi
 10249      00010000 
 10250              	.LEHB362:
 10251 546c E8000000 		call	_ZN8UnitTest15MemoryOutStreamD1Ev
 10251      00
 10252              	.LEHE362:
 10253              	.L1109:
 10254 5471 E8000000 		call	__cxa_end_catch
 10254      00
 10255 5476 E92AFFFF 		jmp	.L1062
 10255      FF
 10256              	.L1096:
 10257 547b 4889C7   		movq	%rax, %rdi
 10258 547e E960FFFF 		jmp	.L1080
 10258      FF
 10259              	.L1094:
 10260 5483 488DBC24 		leaq	256(%rsp), %rdi
 10260      00010000 
 10261 548b 4889C3   		movq	%rax, %rbx
 10262 548e E8000000 		call	_ZN8UnitTest15MemoryOutStreamD1Ev
 10262      00
 10263              	.L1088:
 10264 5493 E8000000 		call	__cxa_end_catch
 10264      00
 10265 5498 4889DF   		movq	%rbx, %rdi
 10266              	.LEHB363:
 10267 549b E8000000 		call	_Unwind_Resume
 10267      00
 10268              	.LEHE363:
 10269              	.L1093:
 10270              	.L1110:
 10271 54a0 4889C3   		movq	%rax, %rbx
 10272 54a3 EBEE     		jmp	.L1088
 10273              	.L1114:
 10274 54a5 E8000000 		call	__cxa_begin_catch
 10274      00
 10275              	.LEHB364:
 10276 54aa E8000000 		call	_ZN8UnitTest11CurrentTest7ResultsEv
 10276      00
 10277 54af 488B7424 		movq	8(%rsp), %rsi
 10277      08
 10278 54b4 488B38   		movq	(%rax), %rdi
 10279 54b7 BA000000 		movl	$.LC70, %edx
 10279      00
 10280 54bc E8000000 		call	_ZN8UnitTest11TestResults13OnTestFailureERKNS_11TestDetailsEPKc
 10280      00
 10281              	.LEHE364:
 10282              	.LEHB365:
 10283 54c1 E8000000 		call	__cxa_end_catch
 10283      00
 10284              	.LEHE365:
 10285 54c6 E9DAFEFF 		jmp	.L1062
 10285      FF
 10286              	.L1082:
 10287 54cb E8000000 		call	__cxa_begin_catch
 10287      00
 10288 54d0 4889C3   		movq	%rax, %rbx
 10289 54d3 488B00   		movq	(%rax), %rax
 10290 54d6 4889DF   		movq	%rbx, %rdi
 10291 54d9 FF5010   		call	*16(%rax)
 10292 54dc 4889DF   		movq	%rbx, %rdi
 10293 54df 4889C5   		movq	%rax, %rbp
 10294              	.LEHB366:
 10295 54e2 E8000000 		call	_ZNK8UnitTest15AssertException10LineNumberEv
 10295      00
 10296 54e7 4889DF   		movq	%rbx, %rdi
 10297 54ea 4189C4   		movl	%eax, %r12d
 10298 54ed E8000000 		call	_ZNK8UnitTest15AssertException8FilenameEv
 10298      00
 10299 54f2 488B5424 		movq	8(%rsp), %rdx
 10299      08
 10300 54f7 488D7C24 		leaq	32(%rsp), %rdi
 10300      20
 10301 54fc 4589E0   		movl	%r12d, %r8d
 10302 54ff 4889C1   		movq	%rax, %rcx
 10303 5502 488B7208 		movq	8(%rdx), %rsi
 10304 5506 488B12   		movq	(%rdx), %rdx
 10305 5509 E8000000 		call	_ZN8UnitTest11TestDetailsC1EPKcS2_S2_i
 10305      00
 10306 550e E8000000 		call	_ZN8UnitTest11CurrentTest7ResultsEv
 10306      00
 10307 5513 488B38   		movq	(%rax), %rdi
 10308 5516 488D7424 		leaq	32(%rsp), %rsi
 10308      20
 10309 551b 4889EA   		movq	%rbp, %rdx
 10310 551e E8000000 		call	_ZN8UnitTest11TestResults13OnTestFailureERKNS_11TestDetailsEPKc
 10310      00
 10311              	.LEHE366:
 10312 5523 E949FFFF 		jmp	.L1109
 10312      FF
 10313              	.L1092:
 10314 5528 4889C3   		movq	%rax, %rbx
 10315 552b E8000000 		call	__cxa_end_catch
 10315      00
 10316 5530 4889DF   		movq	%rbx, %rdi
 10317              	.LEHB367:
 10318 5533 E8000000 		call	_Unwind_Resume
 10318      00
 10319              	.LEHE367:
 10320              	.L1095:
 10321 5538 E963FFFF 		jmp	.L1110
 10321      FF
 10322              	.L1113:
 10323 553d E8000000 		call	__stack_chk_fail
 10323      00
 10324              	.L1099:
 10325 5542 4889C7   		movq	%rax, %rdi
 10326 5545 E8000000 		call	__cxa_begin_catch
 10326      00
 10327              	.LEHB368:
 10328 554a E8000000 		call	_ZN8UnitTest11CurrentTest7DetailsEv
 10328      00
 10329 554f 488B30   		movq	(%rax), %rsi
 10330 5552 488D7C24 		leaq	64(%rsp), %rdi
 10330      40
 10331 5557 BA690000 		movl	$105, %edx
 10331      00
 10332 555c E8000000 		call	_ZN8UnitTest11TestDetailsC1ERKS0_i
 10332      00
 10333 5561 E8000000 		call	_ZN8UnitTest11CurrentTest7ResultsEv
 10333      00
 10334 5566 488B38   		movq	(%rax), %rdi
 10335 5569 488D7424 		leaq	64(%rsp), %rsi
 10335      40
 10336 556e BA000000 		movl	$.LC82, %edx
 10336      00
 10337 5573 E8000000 		call	_ZN8UnitTest11TestResults13OnTestFailureERKNS_11TestDetailsEPKc
 10337      00
 10338              	.LEHE368:
 10339              	.LEHB369:
 10340 5578 E8000000 		call	__cxa_end_catch
 10340      00
 10341              	.LEHE369:
 10342 557d E916FEFF 		jmp	.L1070
 10342      FF
 10343              	.L1101:
 10344 5582 4889C7   		movq	%rax, %rdi
 10345 5585 E8000000 		call	__cxa_begin_catch
 10345      00
 10346              	.LEHB370:
 10347 558a E8000000 		call	_ZN8UnitTest11CurrentTest7DetailsEv
 10347      00
 10348 558f 488B30   		movq	(%rax), %rsi
 10349 5592 488DBC24 		leaq	128(%rsp), %rdi
 10349      80000000 
 10350 559a BA680000 		movl	$104, %edx
 10350      00
 10351 559f E8000000 		call	_ZN8UnitTest11TestDetailsC1ERKS0_i
 10351      00
 10352 55a4 E8000000 		call	_ZN8UnitTest11CurrentTest7ResultsEv
 10352      00
 10353 55a9 488B38   		movq	(%rax), %rdi
 10354 55ac 488DB424 		leaq	128(%rsp), %rsi
 10354      80000000 
 10355 55b4 BA000000 		movl	$.LC120, %edx
 10355      00
 10356 55b9 E8000000 		call	_ZN8UnitTest11TestResults13OnTestFailureERKNS_11TestDetailsEPKc
 10356      00
 10357              	.LEHE370:
 10358              	.LEHB371:
 10359 55be E8000000 		call	__cxa_end_catch
 10359      00
 10360              	.LEHE371:
 10361 55c3 E98CFDFF 		jmp	.L1076
 10361      FF
 10362              	.L1103:
 10363 55c8 4889C7   		movq	%rax, %rdi
 10364 55cb E8000000 		call	__cxa_begin_catch
 10364      00
 10365              	.LEHB372:
 10366 55d0 E8000000 		call	_ZN8UnitTest11CurrentTest7DetailsEv
 10366      00
 10367 55d5 488B30   		movq	(%rax), %rsi
 10368 55d8 488DBC24 		leaq	192(%rsp), %rdi
 10368      C0000000 
 10369 55e0 BA670000 		movl	$103, %edx
 10369      00
 10370 55e5 E8000000 		call	_ZN8UnitTest11TestDetailsC1ERKS0_i
 10370      00
 10371 55ea E8000000 		call	_ZN8UnitTest11CurrentTest7ResultsEv
 10371      00
 10372 55ef 488B38   		movq	(%rax), %rdi
 10373 55f2 488DB424 		leaq	192(%rsp), %rsi
 10373      C0000000 
 10374 55fa BA000000 		movl	$.LC119, %edx
 10374      00
 10375 55ff E8000000 		call	_ZN8UnitTest11TestResults13OnTestFailureERKNS_11TestDetailsEPKc
 10375      00
 10376              	.LEHE372:
 10377              	.LEHB373:
 10378 5604 E8000000 		call	__cxa_end_catch
 10378      00
 10379              	.LEHE373:
 10380 5609 E9FFFCFF 		jmp	.L1072
 10380      FF
 10381              	.L1098:
 10382 560e 4889C3   		movq	%rax, %rbx
 10383 5611 4889D5   		movq	%rdx, %rbp
 10384 5614 E8000000 		call	__cxa_end_catch
 10384      00
 10385 5619 E9B2FDFF 		jmp	.L1074
 10385      FF
 10386              	.L1100:
 10387 561e 4889C3   		movq	%rax, %rbx
 10388 5621 4889D5   		movq	%rdx, %rbp
 10389 5624 E8000000 		call	__cxa_end_catch
 10389      00
 10390 5629 E9A2FDFF 		jmp	.L1074
 10390      FF
 10391              	.L1102:
 10392 562e 4889C3   		movq	%rax, %rbx
 10393 5631 4889D5   		movq	%rdx, %rbp
 10394 5634 E8000000 		call	__cxa_end_catch
 10394      00
 10395 5639 E992FDFF 		jmp	.L1074
 10395      FF
 10396              		.cfi_endproc
 10397              	.LFE1579:
 10398              		.section	.gcc_except_table
 10399              		.align 4
 10400              	.LLSDA1579:
 10401 0a04 FF       		.byte	0xff
 10402 0a05 03       		.byte	0x3
 10403 0a06 9001     		.uleb128 .LLSDATT1579-.LLSDATTD1579
 10404              	.LLSDATTD1579:
 10405 0a08 01       		.byte	0x1
 10406 0a09 78       		.uleb128 .LLSDACSE1579-.LLSDACSB1579
 10407              	.LLSDACSB1579:
 10408 0a0a 2C       		.uleb128 .LEHB353-.LFB1579
 10409 0a0b 05       		.uleb128 .LEHE353-.LEHB353
 10410 0a0c 00       		.uleb128 0
 10411 0a0d 00       		.uleb128 0
 10412 0a0e 3C       		.uleb128 .LEHB354-.LFB1579
 10413 0a0f 05       		.uleb128 .LEHE354-.LEHB354
 10414 0a10 AB05     		.uleb128 .L1096-.LFB1579
 10415 0a12 05       		.uleb128 0x5
 10416 0a13 71       		.uleb128 .LEHB355-.LFB1579
 10417 0a14 05       		.uleb128 .LEHE355-.LEHB355
 10418 0a15 FA03     		.uleb128 .L1097-.LFB1579
 10419 0a17 07       		.uleb128 0x7
 10420 0a18 8001     		.uleb128 .LEHB356-.LFB1579
 10421 0a1a BD01     		.uleb128 .LEHE356-.LEHB356
 10422 0a1c F807     		.uleb128 .L1103-.LFB1579
 10423 0a1e 01       		.uleb128 0x1
 10424 0a1f BD02     		.uleb128 .LEHB357-.LFB1579
 10425 0a21 47       		.uleb128 .LEHE357-.LEHB357
 10426 0a22 B207     		.uleb128 .L1101-.LFB1579
 10427 0a24 01       		.uleb128 0x1
 10428 0a25 8403     		.uleb128 .LEHB358-.LFB1579
 10429 0a27 44       		.uleb128 .LEHE358-.LEHB358
 10430 0a28 F206     		.uleb128 .L1099-.LFB1579
 10431 0a2a 01       		.uleb128 0x1
 10432 0a2b D003     		.uleb128 .LEHB359-.LFB1579
 10433 0a2d 05       		.uleb128 .LEHE359-.LEHB359
 10434 0a2e AB05     		.uleb128 .L1096-.LFB1579
 10435 0a30 05       		.uleb128 0x5
 10436 0a31 B704     		.uleb128 .LEHB360-.LFB1579
 10437 0a33 05       		.uleb128 .LEHE360-.LEHB360
 10438 0a34 D005     		.uleb128 .L1093-.LFB1579
 10439 0a36 00       		.uleb128 0
 10440 0a37 DA04     		.uleb128 .LEHB361-.LFB1579
 10441 0a39 3A       		.uleb128 .LEHE361-.LEHB361
 10442 0a3a B305     		.uleb128 .L1094-.LFB1579
 10443 0a3c 00       		.uleb128 0
 10444 0a3d 9C05     		.uleb128 .LEHB362-.LFB1579
 10445 0a3f 05       		.uleb128 .LEHE362-.LEHB362
 10446 0a40 D005     		.uleb128 .L1093-.LFB1579
 10447 0a42 00       		.uleb128 0
 10448 0a43 CB05     		.uleb128 .LEHB363-.LFB1579
 10449 0a45 05       		.uleb128 .LEHE363-.LEHB363
 10450 0a46 00       		.uleb128 0
 10451 0a47 00       		.uleb128 0
 10452 0a48 DA05     		.uleb128 .LEHB364-.LFB1579
 10453 0a4a 17       		.uleb128 .LEHE364-.LEHB364
 10454 0a4b D806     		.uleb128 .L1092-.LFB1579
 10455 0a4d 00       		.uleb128 0
 10456 0a4e F105     		.uleb128 .LEHB365-.LFB1579
 10457 0a50 05       		.uleb128 .LEHE365-.LEHB365
 10458 0a51 00       		.uleb128 0
 10459 0a52 00       		.uleb128 0
 10460 0a53 9206     		.uleb128 .LEHB366-.LFB1579
 10461 0a55 41       		.uleb128 .LEHE366-.LEHB366
 10462 0a56 E806     		.uleb128 .L1095-.LFB1579
 10463 0a58 00       		.uleb128 0
 10464 0a59 E306     		.uleb128 .LEHB367-.LFB1579
 10465 0a5b 05       		.uleb128 .LEHE367-.LEHB367
 10466 0a5c 00       		.uleb128 0
 10467 0a5d 00       		.uleb128 0
 10468 0a5e FA06     		.uleb128 .LEHB368-.LFB1579
 10469 0a60 2E       		.uleb128 .LEHE368-.LEHB368
 10470 0a61 BE08     		.uleb128 .L1098-.LFB1579
 10471 0a63 07       		.uleb128 0x7
 10472 0a64 A807     		.uleb128 .LEHB369-.LFB1579
 10473 0a66 05       		.uleb128 .LEHE369-.LEHB369
 10474 0a67 FA03     		.uleb128 .L1097-.LFB1579
 10475 0a69 07       		.uleb128 0x7
 10476 0a6a BA07     		.uleb128 .LEHB370-.LFB1579
 10477 0a6c 34       		.uleb128 .LEHE370-.LEHB370
 10478 0a6d CE08     		.uleb128 .L1100-.LFB1579
 10479 0a6f 07       		.uleb128 0x7
 10480 0a70 EE07     		.uleb128 .LEHB371-.LFB1579
 10481 0a72 05       		.uleb128 .LEHE371-.LEHB371
 10482 0a73 FA03     		.uleb128 .L1097-.LFB1579
 10483 0a75 07       		.uleb128 0x7
 10484 0a76 8008     		.uleb128 .LEHB372-.LFB1579
 10485 0a78 34       		.uleb128 .LEHE372-.LEHB372
 10486 0a79 DE08     		.uleb128 .L1102-.LFB1579
 10487 0a7b 07       		.uleb128 0x7
 10488 0a7c B408     		.uleb128 .LEHB373-.LFB1579
 10489 0a7e 05       		.uleb128 .LEHE373-.LEHB373
 10490 0a7f FA03     		.uleb128 .L1097-.LFB1579
 10491 0a81 07       		.uleb128 0x7
 10492              	.LLSDACSE1579:
 10493 0a82 03       		.byte	0x3
 10494 0a83 00       		.byte	0
 10495 0a84 02       		.byte	0x2
 10496 0a85 7D       		.byte	0x7d
 10497 0a86 01       		.byte	0x1
 10498 0a87 7D       		.byte	0x7d
 10499 0a88 00       		.byte	0
 10500 0a89 7D       		.byte	0x7d
 10501 0a8a 0000     		.align 4
 10502 0a8c 00000000 		.long	0
 10503              	
 10504 0a90 00000000 		.long	_ZTISt9exception
 10505 0a94 00000000 		.long	_ZTIN8UnitTest15AssertExceptionE
 10506              	.LLSDATT1579:
 10507              		.text
 10509              		.section	.text.unlikely
 10510              	.LCOLDE121:
 10511              		.text
 10512              	.LHOTE121:
 10513              		.section	.text.unlikely
 10514              		.align 2
 10515              	.LCOLDB122:
 10516              		.text
 10517              	.LHOTB122:
 10518              		.align 2
 10519 563e 6690     		.p2align 4,,15
 10521              	_ZNK12_GLOBAL__N_156TestTestRunnerFixtureFailureCountIsZeroWhenNoTestsAreRun7RunImplEv:
 10522              	.LFB1196:
 10523              		.cfi_startproc
 10524              		.cfi_personality 0x3,__gxx_personality_v0
 10525              		.cfi_lsda 0x3,.LLSDA1196
 10526 5640 4155     		pushq	%r13
 10527              		.cfi_def_cfa_offset 16
 10528              		.cfi_offset 13, -16
 10529 5642 4154     		pushq	%r12
 10530              		.cfi_def_cfa_offset 24
 10531              		.cfi_offset 12, -24
 10532 5644 55       		pushq	%rbp
 10533              		.cfi_def_cfa_offset 32
 10534              		.cfi_offset 6, -32
 10535 5645 53       		pushq	%rbx
 10536              		.cfi_def_cfa_offset 40
 10537              		.cfi_offset 3, -40
 10538 5646 4889FD   		movq	%rdi, %rbp
 10539 5649 488D5F08 		leaq	8(%rdi), %rbx
 10540 564d 4881EC98 		subq	$2200, %rsp
 10540      080000
 10541              		.cfi_def_cfa_offset 2240
 10542 5654 64488B04 		movq	%fs:40, %rax
 10542      25280000 
 10542      00
 10543 565d 48898424 		movq	%rax, 2184(%rsp)
 10543      88080000 
 10544 5665 31C0     		xorl	%eax, %eax
 10545 5667 488D4424 		leaq	32(%rsp), %rax
 10545      20
 10546 566c 488D7424 		leaq	56(%rsp), %rsi
 10546      38
 10547 5671 4889C7   		movq	%rax, %rdi
 10548              	.LEHB374:
 10549 5674 E8000000 		call	_ZN8UnitTest10TestRunnerC1ERNS_12TestReporterE
 10549      00
 10550              	.LEHE374:
 10551 5679 488DBC24 		leaq	2152(%rsp), %rdi
 10551      68080000 
 10552 5681 48C74424 		movq	$_ZTV17RecordingReporter+16, 56(%rsp)
 10552      38000000 
 10552      00
 10553 568a C7442440 		movl	$0, 64(%rsp)
 10553      00000000 
 10554 5692 C7842444 		movl	$0, 580(%rsp)
 10554      02000000 
 10554      000000
 10555 569d C7842448 		movl	$0, 840(%rsp)
 10555      03000000 
 10555      000000
 10556 56a8 C784244C 		movl	$0, 1612(%rsp)
 10556      06000000 
 10556      000000
 10557 56b3 C7842450 		movl	$0x00000000, 2128(%rsp)
 10557      08000000 
 10557      000000
 10558 56be C7842454 		movl	$0, 2132(%rsp)
 10558      08000000 
 10558      000000
 10559 56c9 C7842458 		movl	$0, 2136(%rsp)
 10559      08000000 
 10559      000000
 10560 56d4 C784245C 		movl	$0, 2140(%rsp)
 10560      08000000 
 10560      000000
 10561 56df C7842460 		movl	$0x00000000, 2144(%rsp)
 10561      08000000 
 10561      000000
 10562 56ea C6442444 		movb	$0, 68(%rsp)
 10562      00
 10563 56ef C6842444 		movb	$0, 324(%rsp)
 10563      01000000 
 10564 56f7 C6842448 		movb	$0, 584(%rsp)
 10564      02000000 
 10565 56ff C684244C 		movb	$0, 844(%rsp)
 10565      03000000 
 10566 5707 C684244C 		movb	$0, 1100(%rsp)
 10566      04000000 
 10567 570f C684244C 		movb	$0, 1356(%rsp)
 10567      05000000 
 10568 5717 C6842450 		movb	$0, 1616(%rsp)
 10568      06000000 
 10569 571f C6842450 		movb	$0, 1872(%rsp)
 10569      07000000 
 10570              	.LEHB375:
 10571 5727 E8000000 		call	_ZN8UnitTest8TestListC1Ev
 10571      00
 10572              	.LEHE375:
 10573 572c 488D7C24 		leaq	32(%rsp), %rdi
 10573      20
 10574 5731 4889DE   		movq	%rbx, %rsi
 10575 5734 48899C24 		movq	%rbx, 2168(%rsp)
 10575      78080000 
 10576              	.LEHB376:
 10577 573c E88FFAFF 		call	_ZN8UnitTest11ExecuteTestIN12_GLOBAL__N_158TestRunnerFixtureFailureCountIsZeroWhenNoTestsAreR
 10577      FF
 10578              	.LEHE376:
 10579 5741 488D7C24 		leaq	56(%rsp), %rdi
 10579      38
 10580 5746 48C74424 		movq	$_ZTV17RecordingReporter+16, 56(%rsp)
 10580      38000000 
 10580      00
 10581              	.LEHB377:
 10582 574f E8000000 		call	_ZN8UnitTest12TestReporterD2Ev
 10582      00
 10583              	.LEHE377:
 10584 5754 488D7C24 		leaq	32(%rsp), %rdi
 10584      20
 10585              	.LEHB378:
 10586 5759 E8000000 		call	_ZN8UnitTest10TestRunnerD1Ev
 10586      00
 10587              	.LEHE378:
 10588              	.L1115:
 10589 575e 488B8424 		movq	2184(%rsp), %rax
 10589      88080000 
 10590 5766 64483304 		xorq	%fs:40, %rax
 10590      25280000 
 10590      00
 10591 576f 750E     		jne	.L1154
 10592 5771 4881C498 		addq	$2200, %rsp
 10592      080000
 10593              		.cfi_remember_state
 10594              		.cfi_def_cfa_offset 40
 10595 5778 5B       		popq	%rbx
 10596              		.cfi_def_cfa_offset 32
 10597 5779 5D       		popq	%rbp
 10598              		.cfi_def_cfa_offset 24
 10599 577a 415C     		popq	%r12
 10600              		.cfi_def_cfa_offset 16
 10601 577c 415D     		popq	%r13
 10602              		.cfi_def_cfa_offset 8
 10603 577e C3       		ret
 10604              	.L1154:
 10605              		.cfi_restore_state
 10606 577f E8000000 		call	__stack_chk_fail
 10606      00
 10607              	.L1136:
 10608 5784 4889C7   		movq	%rax, %rdi
 10609 5787 41BC0100 		movl	$1, %r12d
 10609      0000
 10610              	.L1118:
 10611 578d 4883FA01 		cmpq	$1, %rdx
 10612 5791 0F844501 		je	.L1127
 10612      0000
 10613 5797 4883FA02 		cmpq	$2, %rdx
 10614 579b 0F85FE00 		jne	.L1155
 10614      0000
 10615 57a1 E8000000 		call	__cxa_begin_catch
 10615      00
 10616 57a6 488D7C24 		leaq	32(%rsp), %rdi
 10616      20
 10617 57ab 4889C5   		movq	%rax, %rbp
 10618              	.LEHB379:
 10619 57ae E8000000 		call	_ZN8UnitTest15MemoryOutStreamC1Ev
 10619      00
 10620              	.LEHE379:
 10621 57b3 488B4500 		movq	0(%rbp), %rax
 10622 57b7 4889EF   		movq	%rbp, %rdi
 10623 57ba FF5010   		call	*16(%rax)
 10624 57bd 488D7C24 		leaq	32(%rsp), %rdi
 10624      20
 10625 57c2 BA150000 		movl	$21, %edx
 10625      00
 10626 57c7 BE000000 		movl	$.LC69, %esi
 10626      00
 10627 57cc 4889C5   		movq	%rax, %rbp
 10628              	.LEHB380:
 10629 57cf E8000000 		call	_ZSt16__ostream_insertIcSt11char_traitsIcEERSt13basic_ostreamIT_T0_ES6_PKS3_l
 10629      00
 10630 57d4 488D7C24 		leaq	32(%rsp), %rdi
 10630      20
 10631 57d9 4889EE   		movq	%rbp, %rsi
 10632 57dc E8000000 		call	_ZStlsISt11char_traitsIcEERSt13basic_ostreamIcT_ES5_PKc
 10632      00
 10633 57e1 488D7C24 		leaq	32(%rsp), %rdi
 10633      20
 10634 57e6 E8000000 		call	_ZNK8UnitTest15MemoryOutStream7GetTextEv
 10634      00
 10635 57eb 4889C5   		movq	%rax, %rbp
 10636 57ee E8000000 		call	_ZN8UnitTest11CurrentTest7ResultsEv
 10636      00
 10637 57f3 488B38   		movq	(%rax), %rdi
 10638 57f6 4889EA   		movq	%rbp, %rdx
 10639 57f9 4889DE   		movq	%rbx, %rsi
 10640 57fc E8000000 		call	_ZN8UnitTest11TestResults13OnTestFailureERKNS_11TestDetailsEPKc
 10640      00
 10641              	.LEHE380:
 10642 5801 488D7C24 		leaq	32(%rsp), %rdi
 10642      20
 10643              	.LEHB381:
 10644 5806 E8000000 		call	_ZN8UnitTest15MemoryOutStreamD1Ev
 10644      00
 10645              	.LEHE381:
 10646              	.L1149:
 10647 580b E8000000 		call	__cxa_end_catch
 10647      00
 10648 5810 E949FFFF 		jmp	.L1115
 10648      FF
 10649              	.L1143:
 10650 5815 488D7C24 		leaq	32(%rsp), %rdi
 10650      20
 10651 581a 4989D4   		movq	%rdx, %r12
 10652 581d 4989C5   		movq	%rax, %r13
 10653 5820 E8000000 		call	_ZN8UnitTest10TestRunnerD1Ev
 10653      00
 10654 5825 4C89E2   		movq	%r12, %rdx
 10655 5828 4C89EF   		movq	%r13, %rdi
 10656 582b 41BC0100 		movl	$1, %r12d
 10656      0000
 10657 5831 E957FFFF 		jmp	.L1118
 10657      FF
 10658              	.L1137:
 10659 5836 488D7C24 		leaq	32(%rsp), %rdi
 10659      20
 10660 583b 4989D4   		movq	%rdx, %r12
 10661 583e 4989C5   		movq	%rax, %r13
 10662 5841 E8000000 		call	_ZN12_GLOBAL__N_111FixtureBaseD2Ev
 10662      00
 10663 5846 4C89E2   		movq	%r12, %rdx
 10664 5849 4C89EF   		movq	%r13, %rdi
 10665 584c 41BC0100 		movl	$1, %r12d
 10665      0000
 10666 5852 E936FFFF 		jmp	.L1118
 10666      FF
 10667              	.L1142:
 10668 5857 488D7C24 		leaq	32(%rsp), %rdi
 10668      20
 10669 585c 4989D4   		movq	%rdx, %r12
 10670 585f 4989C5   		movq	%rax, %r13
 10671 5862 E8000000 		call	_ZN12_GLOBAL__N_111FixtureBaseD2Ev
 10671      00
 10672 5867 4C89E2   		movq	%r12, %rdx
 10673 586a 4C89EF   		movq	%r13, %rdi
 10674 586d 4531E4   		xorl	%r12d, %r12d
 10675 5870 E918FFFF 		jmp	.L1118
 10675      FF
 10676              	.L1144:
 10677 5875 4889C7   		movq	%rax, %rdi
 10678 5878 4531E4   		xorl	%r12d, %r12d
 10679 587b E90DFFFF 		jmp	.L1118
 10679      FF
 10680              	.L1140:
 10681 5880 488D7C24 		leaq	32(%rsp), %rdi
 10681      20
 10682 5885 4889C3   		movq	%rax, %rbx
 10683 5888 E8000000 		call	_ZN8UnitTest15MemoryOutStreamD1Ev
 10683      00
 10684              	.L1133:
 10685 588d E8000000 		call	__cxa_end_catch
 10685      00
 10686 5892 4889DF   		movq	%rbx, %rdi
 10687              	.LEHB382:
 10688 5895 E8000000 		call	_Unwind_Resume
 10688      00
 10689              	.LEHE382:
 10690              	.L1139:
 10691              	.L1150:
 10692 589a 4889C3   		movq	%rax, %rbx
 10693 589d EBEE     		jmp	.L1133
 10694              	.L1155:
 10695 589f E8000000 		call	__cxa_begin_catch
 10695      00
 10696 58a4 4584E4   		testb	%r12b, %r12b
 10697 58a7 BA650000 		movl	$101, %edx
 10697      00
 10698 58ac 4889DE   		movq	%rbx, %rsi
 10699 58af 4889E7   		movq	%rsp, %rdi
 10700 58b2 0F848900 		je	.L1129
 10700      0000
 10701              	.LEHB383:
 10702 58b8 E8000000 		call	_ZN8UnitTest11TestDetailsC1ERKS0_i
 10702      00
 10703 58bd E8000000 		call	_ZN8UnitTest11CurrentTest7ResultsEv
 10703      00
 10704 58c2 488B38   		movq	(%rax), %rdi
 10705 58c5 BA000000 		movl	$.LC73, %edx
 10705      00
 10706 58ca 4889E6   		movq	%rsp, %rsi
 10707 58cd E8000000 		call	_ZN8UnitTest11TestResults13OnTestFailureERKNS_11TestDetailsEPKc
 10707      00
 10708              	.LEHE383:
 10709              	.L1130:
 10710              	.LEHB384:
 10711 58d2 E8000000 		call	__cxa_end_catch
 10711      00
 10712              	.LEHE384:
 10713 58d7 E982FEFF 		jmp	.L1115
 10713      FF
 10714              	.L1127:
 10715 58dc E8000000 		call	__cxa_begin_catch
 10715      00
 10716 58e1 4889C3   		movq	%rax, %rbx
 10717 58e4 488B00   		movq	(%rax), %rax
 10718 58e7 4889DF   		movq	%rbx, %rdi
 10719 58ea FF5010   		call	*16(%rax)
 10720 58ed 4889DF   		movq	%rbx, %rdi
 10721 58f0 4989C4   		movq	%rax, %r12
 10722              	.LEHB385:
 10723 58f3 E8000000 		call	_ZNK8UnitTest15AssertException10LineNumberEv
 10723      00
 10724 58f8 4889DF   		movq	%rbx, %rdi
 10725 58fb 4189C5   		movl	%eax, %r13d
 10726 58fe E8000000 		call	_ZNK8UnitTest15AssertException8FilenameEv
 10726      00
 10727 5903 488B5508 		movq	8(%rbp), %rdx
 10728 5907 488B7510 		movq	16(%rbp), %rsi
 10729 590b 4589E8   		movl	%r13d, %r8d
 10730 590e 4889C1   		movq	%rax, %rcx
 10731 5911 4889E7   		movq	%rsp, %rdi
 10732 5914 E8000000 		call	_ZN8UnitTest11TestDetailsC1EPKcS2_S2_i
 10732      00
 10733 5919 E8000000 		call	_ZN8UnitTest11CurrentTest7ResultsEv
 10733      00
 10734 591e 488B38   		movq	(%rax), %rdi
 10735 5921 4C89E2   		movq	%r12, %rdx
 10736 5924 4889E6   		movq	%rsp, %rsi
 10737 5927 E8000000 		call	_ZN8UnitTest11TestResults13OnTestFailureERKNS_11TestDetailsEPKc
 10737      00
 10738              	.LEHE385:
 10739 592c E9DAFEFF 		jmp	.L1149
 10739      FF
 10740              	.L1141:
 10741 5931 4889C3   		movq	%rax, %rbx
 10742 5934 E8000000 		call	__cxa_end_catch
 10742      00
 10743 5939 4889DF   		movq	%rbx, %rdi
 10744              	.LEHB386:
 10745 593c E8000000 		call	_Unwind_Resume
 10745      00
 10746              	.LEHE386:
 10747              	.L1129:
 10748              	.LEHB387:
 10749 5941 E8000000 		call	_ZN8UnitTest11TestDetailsC1ERKS0_i
 10749      00
 10750 5946 E8000000 		call	_ZN8UnitTest11CurrentTest7ResultsEv
 10750      00
 10751 594b 488B38   		movq	(%rax), %rdi
 10752 594e BA000000 		movl	$.LC74, %edx
 10752      00
 10753 5953 4889E6   		movq	%rsp, %rsi
 10754 5956 E8000000 		call	_ZN8UnitTest11TestResults13OnTestFailureERKNS_11TestDetailsEPKc
 10754      00
 10755              	.LEHE387:
 10756 595b E972FFFF 		jmp	.L1130
 10756      FF
 10757              	.L1138:
 10758 5960 E935FFFF 		jmp	.L1150
 10758      FF
 10759              		.cfi_endproc
 10760              	.LFE1196:
 10761              		.section	.gcc_except_table
 10762              		.align 4
 10763              	.LLSDA1196:
 10764 0a98 FF       		.byte	0xff
 10765 0a99 03       		.byte	0x3
 10766 0a9a 69       		.uleb128 .LLSDATT1196-.LLSDATTD1196
 10767              	.LLSDATTD1196:
 10768 0a9b 01       		.byte	0x1
 10769 0a9c 50       		.uleb128 .LLSDACSE1196-.LLSDACSB1196
 10770              	.LLSDACSB1196:
 10771 0a9d 34       		.uleb128 .LEHB374-.LFB1196
 10772 0a9e 05       		.uleb128 .LEHE374-.LEHB374
 10773 0a9f B504     		.uleb128 .L1144-.LFB1196
 10774 0aa1 05       		.uleb128 0x5
 10775 0aa2 E701     		.uleb128 .LEHB375-.LFB1196
 10776 0aa4 05       		.uleb128 .LEHE375-.LEHB375
 10777 0aa5 9704     		.uleb128 .L1142-.LFB1196
 10778 0aa7 07       		.uleb128 0x7
 10779 0aa8 FC01     		.uleb128 .LEHB376-.LFB1196
 10780 0aaa 05       		.uleb128 .LEHE376-.LEHB376
 10781 0aab F603     		.uleb128 .L1137-.LFB1196
 10782 0aad 07       		.uleb128 0x7
 10783 0aae 8F02     		.uleb128 .LEHB377-.LFB1196
 10784 0ab0 05       		.uleb128 .LEHE377-.LEHB377
 10785 0ab1 D503     		.uleb128 .L1143-.LFB1196
 10786 0ab3 07       		.uleb128 0x7
 10787 0ab4 9902     		.uleb128 .LEHB378-.LFB1196
 10788 0ab6 05       		.uleb128 .LEHE378-.LEHB378
 10789 0ab7 C402     		.uleb128 .L1136-.LFB1196
 10790 0ab9 05       		.uleb128 0x5
 10791 0aba EE02     		.uleb128 .LEHB379-.LFB1196
 10792 0abc 05       		.uleb128 .LEHE379-.LEHB379
 10793 0abd DA04     		.uleb128 .L1139-.LFB1196
 10794 0abf 00       		.uleb128 0
 10795 0ac0 8F03     		.uleb128 .LEHB380-.LFB1196
 10796 0ac2 32       		.uleb128 .LEHE380-.LEHB380
 10797 0ac3 C004     		.uleb128 .L1140-.LFB1196
 10798 0ac5 00       		.uleb128 0
 10799 0ac6 C603     		.uleb128 .LEHB381-.LFB1196
 10800 0ac8 05       		.uleb128 .LEHE381-.LEHB381
 10801 0ac9 DA04     		.uleb128 .L1139-.LFB1196
 10802 0acb 00       		.uleb128 0
 10803 0acc D504     		.uleb128 .LEHB382-.LFB1196
 10804 0ace 05       		.uleb128 .LEHE382-.LEHB382
 10805 0acf 00       		.uleb128 0
 10806 0ad0 00       		.uleb128 0
 10807 0ad1 F804     		.uleb128 .LEHB383-.LFB1196
 10808 0ad3 1A       		.uleb128 .LEHE383-.LEHB383
 10809 0ad4 F105     		.uleb128 .L1141-.LFB1196
 10810 0ad6 00       		.uleb128 0
 10811 0ad7 9205     		.uleb128 .LEHB384-.LFB1196
 10812 0ad9 05       		.uleb128 .LEHE384-.LEHB384
 10813 0ada 00       		.uleb128 0
 10814 0adb 00       		.uleb128 0
 10815 0adc B305     		.uleb128 .LEHB385-.LFB1196
 10816 0ade 39       		.uleb128 .LEHE385-.LEHB385
 10817 0adf A006     		.uleb128 .L1138-.LFB1196
 10818 0ae1 00       		.uleb128 0
 10819 0ae2 FC05     		.uleb128 .LEHB386-.LFB1196
 10820 0ae4 05       		.uleb128 .LEHE386-.LEHB386
 10821 0ae5 00       		.uleb128 0
 10822 0ae6 00       		.uleb128 0
 10823 0ae7 8106     		.uleb128 .LEHB387-.LFB1196
 10824 0ae9 1A       		.uleb128 .LEHE387-.LEHB387
 10825 0aea F105     		.uleb128 .L1141-.LFB1196
 10826 0aec 00       		.uleb128 0
 10827              	.LLSDACSE1196:
 10828 0aed 03       		.byte	0x3
 10829 0aee 00       		.byte	0
 10830 0aef 02       		.byte	0x2
 10831 0af0 7D       		.byte	0x7d
 10832 0af1 01       		.byte	0x1
 10833 0af2 7D       		.byte	0x7d
 10834 0af3 00       		.byte	0
 10835 0af4 7D       		.byte	0x7d
 10836 0af5 000000   		.align 4
 10837 0af8 00000000 		.long	0
 10838              	
 10839 0afc 00000000 		.long	_ZTISt9exception
 10840 0b00 00000000 		.long	_ZTIN8UnitTest15AssertExceptionE
 10841              	.LLSDATT1196:
 10842              		.text
 10844              		.section	.text.unlikely
 10845              	.LCOLDE122:
 10846              		.text
 10847              	.LHOTE122:
 10848              		.section	.rodata.str1.1
 10849              	.LC123:
 10850 00cd 676F6F64 		.string	"goodtest"
 10850      74657374 
 10850      00
 10851              		.section	.rodata.str1.8
 10852 063d 000000   		.align 8
 10853              	.LC124:
 10854 0640 556E6861 		.string	"Unhandled exception in CHECK_EQUAL(1, reporter.testFinishedCount)"
 10854      6E646C65 
 10854      64206578 
 10854      63657074 
 10854      696F6E20 
 10855 0682 00000000 		.align 8
 10855      0000
 10856              	.LC125:
 10857 0688 556E6861 		.string	"Unhandled exception in CHECK_EQUAL(\"goodtest\", reporter.lastFinishedTest)"
 10857      6E646C65 
 10857      64206578 
 10857      63657074 
 10857      696F6E20 
 10858              		.section	.text.unlikely
 10859              	.LCOLDB126:
 10860              		.text
 10861              	.LHOTB126:
 10862 5965 90662E0F 		.p2align 4,,15
 10862      1F840000 
 10862      000000
 10864              	_ZN8UnitTest11ExecuteTestIN12_GLOBAL__N_152TestRunnerFixtureTestFinishIsReportedCorrectlyHelperEEEv
 10865              	.LFB1577:
 10866              		.cfi_startproc
 10867              		.cfi_personality 0x3,__gxx_personality_v0
 10868              		.cfi_lsda 0x3,.LLSDA1577
 10869 5970 4155     		pushq	%r13
 10870              		.cfi_def_cfa_offset 16
 10871              		.cfi_offset 13, -16
 10872 5972 4154     		pushq	%r12
 10873              		.cfi_def_cfa_offset 24
 10874              		.cfi_offset 12, -24
 10875 5974 55       		pushq	%rbp
 10876              		.cfi_def_cfa_offset 32
 10877              		.cfi_offset 6, -32
 10878 5975 53       		pushq	%rbx
 10879              		.cfi_def_cfa_offset 40
 10880              		.cfi_offset 3, -40
 10881 5976 4889F3   		movq	%rsi, %rbx
 10882 5979 4881EC18 		subq	$1816, %rsp
 10882      070000
 10883              		.cfi_def_cfa_offset 1856
 10884 5980 48893C24 		movq	%rdi, (%rsp)
 10885 5984 48897424 		movq	%rsi, 8(%rsp)
 10885      08
 10886 5989 64488B04 		movq	%fs:40, %rax
 10886      25280000 
 10886      00
 10887 5992 48898424 		movq	%rax, 1800(%rsp)
 10887      08070000 
 10888 599a 31C0     		xorl	%eax, %eax
 10889              	.LEHB388:
 10890 599c E8000000 		call	_ZN8UnitTest11CurrentTest7DetailsEv
 10890      00
 10891              	.LEHE388:
 10892 59a1 488DBC24 		leaq	672(%rsp), %rdi
 10892      A0020000 
 10893 59a9 488918   		movq	%rbx, (%rax)
 10894              	.LEHB389:
 10895 59ac E8000000 		call	_ZN8UnitTest16SignalTranslatorC1Ev
 10895      00
 10896              	.LEHE389:
 10897 59b1 488B3D00 		movq	_ZN8UnitTest16SignalTranslator12s_jumpTargetE(%rip), %rdi
 10897      000000
 10898 59b8 BE010000 		movl	$1, %esi
 10898      00
 10899 59bd E8000000 		call	__sigsetjmp
 10899      00
 10900 59c2 85C0     		testl	%eax, %eax
 10901 59c4 742A     		je	.L1197
 10902 59c6 BF080000 		movl	$8, %edi
 10902      00
 10903 59cb E8000000 		call	__cxa_allocate_exception
 10903      00
 10904 59d0 31D2     		xorl	%edx, %edx
 10905 59d2 48C70000 		movq	$.LC61, (%rax)
 10905      000000
 10906 59d9 BE000000 		movl	$_ZTIPKc, %esi
 10906      00
 10907 59de 4889C7   		movq	%rax, %rdi
 10908              	.LEHB390:
 10909 59e1 E8000000 		call	__cxa_throw
 10909      00
 10910 59e6 662E0F1F 		.p2align 4,,10
 10910      84000000 
 10910      0000
 10911              		.p2align 3
 10912              	.L1197:
 10913 59f0 488DBC24 		leaq	192(%rsp), %rdi
 10913      C0000000 
 10914 59f8 4531C0   		xorl	%r8d, %r8d
 10915 59fb B9000000 		movl	$.LC80, %ecx
 10915      00
 10916 5a00 BA000000 		movl	$.LC102, %edx
 10916      00
 10917 5a05 BE000000 		movl	$.LC123, %esi
 10917      00
 10918 5a0a E8000000 		call	_ZN8UnitTest4TestC2EPKcS2_S2_i
 10918      00
 10919              	.LEHE390:
 10920 5a0f 488B2C24 		movq	(%rsp), %rbp
 10921 5a13 488DB424 		leaq	192(%rsp), %rsi
 10921      C0000000 
 10922 5a1b 48C78424 		movq	$_ZTVN12_GLOBAL__N_18MockTestE+16, 192(%rsp)
 10922      C0000000 
 10922      00000000 
 10923 5a27 C68424F1 		movb	$1, 241(%rsp)
 10923      00000001 
 10924 5a2f C68424F2 		movb	$0, 242(%rsp)
 10924      00000000 
 10925 5a37 C78424F4 		movl	$1, 244(%rsp)
 10925      00000001 
 10925      000000
 10926 5a42 488D9D48 		leaq	2120(%rbp), %rbx
 10926      080000
 10927 5a49 4889DF   		movq	%rbx, %rdi
 10928              	.LEHB391:
 10929 5a4c E8000000 		call	_ZN8UnitTest8TestList3AddEPNS_4TestE
 10929      00
 10930 5a51 E8000000 		call	_ZN8UnitTest11CurrentTest7ResultsEv
 10930      00
 10931 5a56 4C8B20   		movq	(%rax), %r12
 10932 5a59 E8000000 		call	_ZN8UnitTest11CurrentTest7DetailsEv
 10932      00
 10933 5a5e 4889DF   		movq	%rbx, %rdi
 10934 5a61 4C8B28   		movq	(%rax), %r13
 10935 5a64 E8000000 		call	_ZNK8UnitTest8TestList7GetHeadEv
 10935      00
 10936 5a69 4885C0   		testq	%rax, %rax
 10937 5a6c 4889C3   		movq	%rax, %rbx
 10938 5a6f 7436     		je	.L1162
 10939              		.p2align 4,,10
 10940 5a71 0F1F8000 		.p2align 3
 10940      000000
 10941              	.L1196:
 10942 5a78 31D2     		xorl	%edx, %edx
 10943 5a7a 4889DE   		movq	%rbx, %rsi
 10944 5a7d 4889EF   		movq	%rbp, %rdi
 10945 5a80 E8000000 		call	_ZNK8UnitTest10TestRunner13IsTestInSuiteEPKNS_4TestEPKc
 10945      00
 10946 5a85 84C0     		testb	%al, %al
 10947 5a87 7415     		je	.L1183
 10948 5a89 488B0424 		movq	(%rsp), %rax
 10949 5a8d 31C9     		xorl	%ecx, %ecx
 10950 5a8f 4889DA   		movq	%rbx, %rdx
 10951 5a92 4889EF   		movq	%rbp, %rdi
 10952 5a95 488B7008 		movq	8(%rax), %rsi
 10953 5a99 E8000000 		call	_ZNK8UnitTest10TestRunner7RunTestEPNS_11TestResultsEPNS_4TestEi
 10953      00
 10954              	.L1183:
 10955 5a9e 488B5B28 		movq	40(%rbx), %rbx
 10956 5aa2 4885DB   		testq	%rbx, %rbx
 10957 5aa5 75D1     		jne	.L1196
 10958              	.L1162:
 10959 5aa7 488B3C24 		movq	(%rsp), %rdi
 10960 5aab E8000000 		call	_ZNK8UnitTest10TestRunner6FinishEv
 10960      00
 10961 5ab0 E8000000 		call	_ZN8UnitTest11CurrentTest7ResultsEv
 10961      00
 10962 5ab5 4C8920   		movq	%r12, (%rax)
 10963 5ab8 E8000000 		call	_ZN8UnitTest11CurrentTest7DetailsEv
 10963      00
 10964              	.LEHE391:
 10965 5abd 4C8928   		movq	%r13, (%rax)
 10966              	.LEHB392:
 10967 5ac0 E8000000 		call	_ZN8UnitTest11CurrentTest7DetailsEv
 10967      00
 10968 5ac5 488B30   		movq	(%rax), %rsi
 10969 5ac8 488DBC24 		leaq	160(%rsp), %rdi
 10969      A0000000 
 10970 5ad0 BA4E0000 		movl	$78, %edx
 10970      00
 10971 5ad5 E8000000 		call	_ZN8UnitTest11TestDetailsC1ERKS0_i
 10971      00
 10972 5ada 488B0424 		movq	(%rsp), %rax
 10973 5ade C744241C 		movl	$1, 28(%rsp)
 10973      01000000 
 10974 5ae6 488D982C 		leaq	1580(%rax), %rbx
 10974      060000
 10975 5aed E8000000 		call	_ZN8UnitTest11CurrentTest7ResultsEv
 10975      00
 10976 5af2 488B38   		movq	(%rax), %rdi
 10977 5af5 488D8C24 		leaq	160(%rsp), %rcx
 10977      A0000000 
 10978 5afd 488D7424 		leaq	28(%rsp), %rsi
 10978      1C
 10979 5b02 4889DA   		movq	%rbx, %rdx
 10980 5b05 E8000000 		call	_ZN8UnitTest10CheckEqualIiiEEvRNS_11TestResultsERKT_RKT0_RKNS_11TestDetailsE
 10980      00
 10981              	.LEHE392:
 10982              	.L1166:
 10983              	.LEHB393:
 10984 5b0a E8000000 		call	_ZN8UnitTest11CurrentTest7DetailsEv
 10984      00
 10985 5b0f 488B30   		movq	(%rax), %rsi
 10986 5b12 488D7C24 		leaq	96(%rsp), %rdi
 10986      60
 10987 5b17 BA4F0000 		movl	$79, %edx
 10987      00
 10988 5b1c E8000000 		call	_ZN8UnitTest11TestDetailsC1ERKS0_i
 10988      00
 10989 5b21 488B1C24 		movq	(%rsp), %rbx
 10990 5b25 4881C330 		addq	$1840, %rbx
 10990      070000
 10991 5b2c E8000000 		call	_ZN8UnitTest11CurrentTest7ResultsEv
 10991      00
 10992 5b31 488B38   		movq	(%rax), %rdi
 10993 5b34 488D4C24 		leaq	96(%rsp), %rcx
 10993      60
 10994 5b39 4889DA   		movq	%rbx, %rdx
 10995 5b3c BE000000 		movl	$.LC123, %esi
 10995      00
 10996 5b41 E8000000 		call	_ZN8UnitTest10CheckEqualERNS_11TestResultsEPKcPcRKNS_11TestDetailsE
 10996      00
 10997              	.LEHE393:
 10998              	.L1170:
 10999 5b46 488DBC24 		leaq	192(%rsp), %rdi
 10999      C0000000 
 11000 5b4e 48C78424 		movq	$_ZTVN12_GLOBAL__N_18MockTestE+16, 192(%rsp)
 11000      C0000000 
 11000      00000000 
 11001              	.LEHB394:
 11002 5b5a E8000000 		call	_ZN8UnitTest4TestD2Ev
 11002      00
 11003              	.LEHE394:
 11004 5b5f 488DBC24 		leaq	672(%rsp), %rdi
 11004      A0020000 
 11005              	.LEHB395:
 11006 5b67 E8000000 		call	_ZN8UnitTest16SignalTranslatorD1Ev
 11006      00
 11007              	.LEHE395:
 11008              	.L1156:
 11009 5b6c 488B8424 		movq	1800(%rsp), %rax
 11009      08070000 
 11010 5b74 64483304 		xorq	%fs:40, %rax
 11010      25280000 
 11010      00
 11011 5b7d 0F858101 		jne	.L1205
 11011      0000
 11012 5b83 4881C418 		addq	$1816, %rsp
 11012      070000
 11013              		.cfi_remember_state
 11014              		.cfi_def_cfa_offset 40
 11015 5b8a 5B       		popq	%rbx
 11016              		.cfi_def_cfa_offset 32
 11017 5b8b 5D       		popq	%rbp
 11018              		.cfi_def_cfa_offset 24
 11019 5b8c 415C     		popq	%r12
 11020              		.cfi_def_cfa_offset 16
 11021 5b8e 415D     		popq	%r13
 11022              		.cfi_def_cfa_offset 8
 11023 5b90 C3       		ret
 11024              	.L1190:
 11025              		.cfi_restore_state
 11026 5b91 4889C3   		movq	%rax, %rbx
 11027 5b94 4889D5   		movq	%rdx, %rbp
 11028              	.L1172:
 11029 5b97 488DBC24 		leaq	672(%rsp), %rdi
 11029      A0020000 
 11030 5b9f E8000000 		call	_ZN8UnitTest16SignalTranslatorD1Ev
 11030      00
 11031 5ba4 4889DF   		movq	%rbx, %rdi
 11032 5ba7 4889EA   		movq	%rbp, %rdx
 11033              	.L1173:
 11034 5baa 4883FA01 		cmpq	$1, %rdx
 11035 5bae 0F84DE00 		je	.L1175
 11035      0000
 11036 5bb4 4883FA02 		cmpq	$2, %rdx
 11037 5bb8 0F85AE00 		jne	.L1206
 11037      0000
 11038 5bbe E8000000 		call	__cxa_begin_catch
 11038      00
 11039 5bc3 488DBC24 		leaq	256(%rsp), %rdi
 11039      00010000 
 11040 5bcb 4889C3   		movq	%rax, %rbx
 11041              	.LEHB396:
 11042 5bce E8000000 		call	_ZN8UnitTest15MemoryOutStreamC1Ev
 11042      00
 11043              	.LEHE396:
 11044 5bd3 488B03   		movq	(%rbx), %rax
 11045 5bd6 4889DF   		movq	%rbx, %rdi
 11046 5bd9 FF5010   		call	*16(%rax)
 11047 5bdc 488DBC24 		leaq	256(%rsp), %rdi
 11047      00010000 
 11048 5be4 BA150000 		movl	$21, %edx
 11048      00
 11049 5be9 BE000000 		movl	$.LC69, %esi
 11049      00
 11050 5bee 4889C3   		movq	%rax, %rbx
 11051              	.LEHB397:
 11052 5bf1 E8000000 		call	_ZSt16__ostream_insertIcSt11char_traitsIcEERSt13basic_ostreamIT_T0_ES6_PKS3_l
 11052      00
 11053 5bf6 488DBC24 		leaq	256(%rsp), %rdi
 11053      00010000 
 11054 5bfe 4889DE   		movq	%rbx, %rsi
 11055 5c01 E8000000 		call	_ZStlsISt11char_traitsIcEERSt13basic_ostreamIcT_ES5_PKc
 11055      00
 11056 5c06 488DBC24 		leaq	256(%rsp), %rdi
 11056      00010000 
 11057 5c0e E8000000 		call	_ZNK8UnitTest15MemoryOutStream7GetTextEv
 11057      00
 11058 5c13 4889C3   		movq	%rax, %rbx
 11059 5c16 E8000000 		call	_ZN8UnitTest11CurrentTest7ResultsEv
 11059      00
 11060 5c1b 488B7424 		movq	8(%rsp), %rsi
 11060      08
 11061 5c20 488B38   		movq	(%rax), %rdi
 11062 5c23 4889DA   		movq	%rbx, %rdx
 11063 5c26 E8000000 		call	_ZN8UnitTest11TestResults13OnTestFailureERKNS_11TestDetailsEPKc
 11063      00
 11064              	.LEHE397:
 11065 5c2b 488DBC24 		leaq	256(%rsp), %rdi
 11065      00010000 
 11066              	.LEHB398:
 11067 5c33 E8000000 		call	_ZN8UnitTest15MemoryOutStreamD1Ev
 11067      00
 11068              	.LEHE398:
 11069              	.L1201:
 11070 5c38 E8000000 		call	__cxa_end_catch
 11070      00
 11071 5c3d E92AFFFF 		jmp	.L1156
 11071      FF
 11072              	.L1189:
 11073 5c42 4889C7   		movq	%rax, %rdi
 11074 5c45 E960FFFF 		jmp	.L1173
 11074      FF
 11075              	.L1187:
 11076 5c4a 488DBC24 		leaq	256(%rsp), %rdi
 11076      00010000 
 11077 5c52 4889C3   		movq	%rax, %rbx
 11078 5c55 E8000000 		call	_ZN8UnitTest15MemoryOutStreamD1Ev
 11078      00
 11079              	.L1181:
 11080 5c5a E8000000 		call	__cxa_end_catch
 11080      00
 11081 5c5f 4889DF   		movq	%rbx, %rdi
 11082              	.LEHB399:
 11083 5c62 E8000000 		call	_Unwind_Resume
 11083      00
 11084              	.LEHE399:
 11085              	.L1186:
 11086              	.L1202:
 11087 5c67 4889C3   		movq	%rax, %rbx
 11088 5c6a EBEE     		jmp	.L1181
 11089              	.L1206:
 11090 5c6c E8000000 		call	__cxa_begin_catch
 11090      00
 11091              	.LEHB400:
 11092 5c71 E8000000 		call	_ZN8UnitTest11CurrentTest7ResultsEv
 11092      00
 11093 5c76 488B7424 		movq	8(%rsp), %rsi
 11093      08
 11094 5c7b 488B38   		movq	(%rax), %rdi
 11095 5c7e BA000000 		movl	$.LC70, %edx
 11095      00
 11096 5c83 E8000000 		call	_ZN8UnitTest11TestResults13OnTestFailureERKNS_11TestDetailsEPKc
 11096      00
 11097              	.LEHE400:
 11098              	.LEHB401:
 11099 5c88 E8000000 		call	__cxa_end_catch
 11099      00
 11100              	.LEHE401:
 11101 5c8d E9DAFEFF 		jmp	.L1156
 11101      FF
 11102              	.L1175:
 11103 5c92 E8000000 		call	__cxa_begin_catch
 11103      00
 11104 5c97 4889C3   		movq	%rax, %rbx
 11105 5c9a 488B00   		movq	(%rax), %rax
 11106 5c9d 4889DF   		movq	%rbx, %rdi
 11107 5ca0 FF5010   		call	*16(%rax)
 11108 5ca3 4889DF   		movq	%rbx, %rdi
 11109 5ca6 4889C5   		movq	%rax, %rbp
 11110              	.LEHB402:
 11111 5ca9 E8000000 		call	_ZNK8UnitTest15AssertException10LineNumberEv
 11111      00
 11112 5cae 4889DF   		movq	%rbx, %rdi
 11113 5cb1 4189C4   		movl	%eax, %r12d
 11114 5cb4 E8000000 		call	_ZNK8UnitTest15AssertException8FilenameEv
 11114      00
 11115 5cb9 488B5424 		movq	8(%rsp), %rdx
 11115      08
 11116 5cbe 488D7C24 		leaq	32(%rsp), %rdi
 11116      20
 11117 5cc3 4589E0   		movl	%r12d, %r8d
 11118 5cc6 4889C1   		movq	%rax, %rcx
 11119 5cc9 488B7208 		movq	8(%rdx), %rsi
 11120 5ccd 488B12   		movq	(%rdx), %rdx
 11121 5cd0 E8000000 		call	_ZN8UnitTest11TestDetailsC1EPKcS2_S2_i
 11121      00
 11122 5cd5 E8000000 		call	_ZN8UnitTest11CurrentTest7ResultsEv
 11122      00
 11123 5cda 488B38   		movq	(%rax), %rdi
 11124 5cdd 488D7424 		leaq	32(%rsp), %rsi
 11124      20
 11125 5ce2 4889EA   		movq	%rbp, %rdx
 11126 5ce5 E8000000 		call	_ZN8UnitTest11TestResults13OnTestFailureERKNS_11TestDetailsEPKc
 11126      00
 11127              	.LEHE402:
 11128 5cea E949FFFF 		jmp	.L1201
 11128      FF
 11129              	.L1185:
 11130 5cef 4889C3   		movq	%rax, %rbx
 11131 5cf2 E8000000 		call	__cxa_end_catch
 11131      00
 11132 5cf7 4889DF   		movq	%rbx, %rdi
 11133              	.LEHB403:
 11134 5cfa E8000000 		call	_Unwind_Resume
 11134      00
 11135              	.LEHE403:
 11136              	.L1188:
 11137 5cff E963FFFF 		jmp	.L1202
 11137      FF
 11138              	.L1205:
 11139 5d04 E8000000 		call	__stack_chk_fail
 11139      00
 11140              	.L1193:
 11141 5d09 4889C7   		movq	%rax, %rdi
 11142 5d0c E8000000 		call	__cxa_begin_catch
 11142      00
 11143              	.LEHB404:
 11144 5d11 E8000000 		call	_ZN8UnitTest11CurrentTest7DetailsEv
 11144      00
 11145 5d16 488B30   		movq	(%rax), %rsi
 11146 5d19 488D7C24 		leaq	64(%rsp), %rdi
 11146      40
 11147 5d1e BA4F0000 		movl	$79, %edx
 11147      00
 11148 5d23 E8000000 		call	_ZN8UnitTest11TestDetailsC1ERKS0_i
 11148      00
 11149 5d28 E8000000 		call	_ZN8UnitTest11CurrentTest7ResultsEv
 11149      00
 11150 5d2d 488B38   		movq	(%rax), %rdi
 11151 5d30 488D7424 		leaq	64(%rsp), %rsi
 11151      40
 11152 5d35 BA000000 		movl	$.LC125, %edx
 11152      00
 11153 5d3a E8000000 		call	_ZN8UnitTest11TestResults13OnTestFailureERKNS_11TestDetailsEPKc
 11153      00
 11154              	.LEHE404:
 11155              	.LEHB405:
 11156 5d3f E8000000 		call	__cxa_end_catch
 11156      00
 11157              	.LEHE405:
 11158 5d44 E9FDFDFF 		jmp	.L1170
 11158      FF
 11159              	.L1195:
 11160 5d49 4889C7   		movq	%rax, %rdi
 11161 5d4c E8000000 		call	__cxa_begin_catch
 11161      00
 11162              	.LEHB406:
 11163 5d51 E8000000 		call	_ZN8UnitTest11CurrentTest7DetailsEv
 11163      00
 11164 5d56 488B30   		movq	(%rax), %rsi
 11165 5d59 488DBC24 		leaq	128(%rsp), %rdi
 11165      80000000 
 11166 5d61 BA4E0000 		movl	$78, %edx
 11166      00
 11167 5d66 E8000000 		call	_ZN8UnitTest11TestDetailsC1ERKS0_i
 11167      00
 11168 5d6b E8000000 		call	_ZN8UnitTest11CurrentTest7ResultsEv
 11168      00
 11169 5d70 488B38   		movq	(%rax), %rdi
 11170 5d73 488DB424 		leaq	128(%rsp), %rsi
 11170      80000000 
 11171 5d7b BA000000 		movl	$.LC124, %edx
 11171      00
 11172 5d80 E8000000 		call	_ZN8UnitTest11TestResults13OnTestFailureERKNS_11TestDetailsEPKc
 11172      00
 11173              	.LEHE406:
 11174              	.LEHB407:
 11175 5d85 E8000000 		call	__cxa_end_catch
 11175      00
 11176              	.LEHE407:
 11177 5d8a E97BFDFF 		jmp	.L1166
 11177      FF
 11178              	.L1191:
 11179 5d8f 4889C3   		movq	%rax, %rbx
 11180 5d92 4889D5   		movq	%rdx, %rbp
 11181              	.L1168:
 11182 5d95 488DBC24 		leaq	192(%rsp), %rdi
 11182      C0000000 
 11183 5d9d 48C78424 		movq	$_ZTVN12_GLOBAL__N_18MockTestE+16, 192(%rsp)
 11183      C0000000 
 11183      00000000 
 11184 5da9 E8000000 		call	_ZN8UnitTest4TestD2Ev
 11184      00
 11185 5dae E9E4FDFF 		jmp	.L1172
 11185      FF
 11186              	.L1192:
 11187 5db3 4889C3   		movq	%rax, %rbx
 11188 5db6 4889D5   		movq	%rdx, %rbp
 11189 5db9 E8000000 		call	__cxa_end_catch
 11189      00
 11190 5dbe EBD5     		jmp	.L1168
 11191              	.L1194:
 11192 5dc0 4889C3   		movq	%rax, %rbx
 11193 5dc3 4889D5   		movq	%rdx, %rbp
 11194 5dc6 E8000000 		call	__cxa_end_catch
 11194      00
 11195 5dcb EBC8     		jmp	.L1168
 11196              		.cfi_endproc
 11197              	.LFE1577:
 11198              		.section	.gcc_except_table
 11199              		.align 4
 11200              	.LLSDA1577:
 11201 0b04 FF       		.byte	0xff
 11202 0b05 03       		.byte	0x3
 11203 0b06 8801     		.uleb128 .LLSDATT1577-.LLSDATTD1577
 11204              	.LLSDATTD1577:
 11205 0b08 01       		.byte	0x1
 11206 0b09 71       		.uleb128 .LLSDACSE1577-.LLSDACSB1577
 11207              	.LLSDACSB1577:
 11208 0b0a 2C       		.uleb128 .LEHB388-.LFB1577
 11209 0b0b 05       		.uleb128 .LEHE388-.LEHB388
 11210 0b0c 00       		.uleb128 0
 11211 0b0d 00       		.uleb128 0
 11212 0b0e 3C       		.uleb128 .LEHB389-.LFB1577
 11213 0b0f 05       		.uleb128 .LEHE389-.LEHB389
 11214 0b10 D205     		.uleb128 .L1189-.LFB1577
 11215 0b12 05       		.uleb128 0x5
 11216 0b13 71       		.uleb128 .LEHB390-.LFB1577
 11217 0b14 2E       		.uleb128 .LEHE390-.LEHB390
 11218 0b15 A104     		.uleb128 .L1190-.LFB1577
 11219 0b17 07       		.uleb128 0x7
 11220 0b18 DC01     		.uleb128 .LEHB391-.LFB1577
 11221 0b1a 71       		.uleb128 .LEHE391-.LEHB391
 11222 0b1b 9F08     		.uleb128 .L1191-.LFB1577
 11223 0b1d 07       		.uleb128 0x7
 11224 0b1e D002     		.uleb128 .LEHB392-.LFB1577
 11225 0b20 4A       		.uleb128 .LEHE392-.LEHB392
 11226 0b21 D907     		.uleb128 .L1195-.LFB1577
 11227 0b23 01       		.uleb128 0x1
 11228 0b24 9A03     		.uleb128 .LEHB393-.LFB1577
 11229 0b26 3C       		.uleb128 .LEHE393-.LEHB393
 11230 0b27 9907     		.uleb128 .L1193-.LFB1577
 11231 0b29 01       		.uleb128 0x1
 11232 0b2a EA03     		.uleb128 .LEHB394-.LFB1577
 11233 0b2c 05       		.uleb128 .LEHE394-.LEHB394
 11234 0b2d A104     		.uleb128 .L1190-.LFB1577
 11235 0b2f 07       		.uleb128 0x7
 11236 0b30 F703     		.uleb128 .LEHB395-.LFB1577
 11237 0b32 05       		.uleb128 .LEHE395-.LEHB395
 11238 0b33 D205     		.uleb128 .L1189-.LFB1577
 11239 0b35 05       		.uleb128 0x5
 11240 0b36 DE04     		.uleb128 .LEHB396-.LFB1577
 11241 0b38 05       		.uleb128 .LEHE396-.LEHB396
 11242 0b39 F705     		.uleb128 .L1186-.LFB1577
 11243 0b3b 00       		.uleb128 0
 11244 0b3c 8105     		.uleb128 .LEHB397-.LFB1577
 11245 0b3e 3A       		.uleb128 .LEHE397-.LEHB397
 11246 0b3f DA05     		.uleb128 .L1187-.LFB1577
 11247 0b41 00       		.uleb128 0
 11248 0b42 C305     		.uleb128 .LEHB398-.LFB1577
 11249 0b44 05       		.uleb128 .LEHE398-.LEHB398
 11250 0b45 F705     		.uleb128 .L1186-.LFB1577
 11251 0b47 00       		.uleb128 0
 11252 0b48 F205     		.uleb128 .LEHB399-.LFB1577
 11253 0b4a 05       		.uleb128 .LEHE399-.LEHB399
 11254 0b4b 00       		.uleb128 0
 11255 0b4c 00       		.uleb128 0
 11256 0b4d 8106     		.uleb128 .LEHB400-.LFB1577
 11257 0b4f 17       		.uleb128 .LEHE400-.LEHB400
 11258 0b50 FF06     		.uleb128 .L1185-.LFB1577
 11259 0b52 00       		.uleb128 0
 11260 0b53 9806     		.uleb128 .LEHB401-.LFB1577
 11261 0b55 05       		.uleb128 .LEHE401-.LEHB401
 11262 0b56 00       		.uleb128 0
 11263 0b57 00       		.uleb128 0
 11264 0b58 B906     		.uleb128 .LEHB402-.LFB1577
 11265 0b5a 41       		.uleb128 .LEHE402-.LEHB402
 11266 0b5b 8F07     		.uleb128 .L1188-.LFB1577
 11267 0b5d 00       		.uleb128 0
 11268 0b5e 8A07     		.uleb128 .LEHB403-.LFB1577
 11269 0b60 05       		.uleb128 .LEHE403-.LEHB403
 11270 0b61 00       		.uleb128 0
 11271 0b62 00       		.uleb128 0
 11272 0b63 A107     		.uleb128 .LEHB404-.LFB1577
 11273 0b65 2E       		.uleb128 .LEHE404-.LEHB404
 11274 0b66 C308     		.uleb128 .L1192-.LFB1577
 11275 0b68 07       		.uleb128 0x7
 11276 0b69 CF07     		.uleb128 .LEHB405-.LFB1577
 11277 0b6b 05       		.uleb128 .LEHE405-.LEHB405
 11278 0b6c 9F08     		.uleb128 .L1191-.LFB1577
 11279 0b6e 07       		.uleb128 0x7
 11280 0b6f E107     		.uleb128 .LEHB406-.LFB1577
 11281 0b71 34       		.uleb128 .LEHE406-.LEHB406
 11282 0b72 D008     		.uleb128 .L1194-.LFB1577
 11283 0b74 07       		.uleb128 0x7
 11284 0b75 9508     		.uleb128 .LEHB407-.LFB1577
 11285 0b77 05       		.uleb128 .LEHE407-.LEHB407
 11286 0b78 9F08     		.uleb128 .L1191-.LFB1577
 11287 0b7a 07       		.uleb128 0x7
 11288              	.LLSDACSE1577:
 11289 0b7b 03       		.byte	0x3
 11290 0b7c 00       		.byte	0
 11291 0b7d 02       		.byte	0x2
 11292 0b7e 7D       		.byte	0x7d
 11293 0b7f 01       		.byte	0x1
 11294 0b80 7D       		.byte	0x7d
 11295 0b81 00       		.byte	0
 11296 0b82 7D       		.byte	0x7d
 11297 0b83 00       		.align 4
 11298 0b84 00000000 		.long	0
 11299              	
 11300 0b88 00000000 		.long	_ZTISt9exception
 11301 0b8c 00000000 		.long	_ZTIN8UnitTest15AssertExceptionE
 11302              	.LLSDATT1577:
 11303              		.text
 11305              		.section	.text.unlikely
 11306              	.LCOLDE126:
 11307              		.text
 11308              	.LHOTE126:
 11309              		.section	.text.unlikely
 11310              		.align 2
 11311              	.LCOLDB127:
 11312              		.text
 11313              	.LHOTB127:
 11314 5dcd 90       		.align 2
 11315 5dce 6690     		.p2align 4,,15
 11317              	_ZNK12_GLOBAL__N_150TestTestRunnerFixtureTestFinishIsReportedCorrectly7RunImplEv:
 11318              	.LFB1170:
 11319              		.cfi_startproc
 11320              		.cfi_personality 0x3,__gxx_personality_v0
 11321              		.cfi_lsda 0x3,.LLSDA1170
 11322 5dd0 4155     		pushq	%r13
 11323              		.cfi_def_cfa_offset 16
 11324              		.cfi_offset 13, -16
 11325 5dd2 4154     		pushq	%r12
 11326              		.cfi_def_cfa_offset 24
 11327              		.cfi_offset 12, -24
 11328 5dd4 55       		pushq	%rbp
 11329              		.cfi_def_cfa_offset 32
 11330              		.cfi_offset 6, -32
 11331 5dd5 53       		pushq	%rbx
 11332              		.cfi_def_cfa_offset 40
 11333              		.cfi_offset 3, -40
 11334 5dd6 4889FD   		movq	%rdi, %rbp
 11335 5dd9 488D5F08 		leaq	8(%rdi), %rbx
 11336 5ddd 4881EC98 		subq	$2200, %rsp
 11336      080000
 11337              		.cfi_def_cfa_offset 2240
 11338 5de4 64488B04 		movq	%fs:40, %rax
 11338      25280000 
 11338      00
 11339 5ded 48898424 		movq	%rax, 2184(%rsp)
 11339      88080000 
 11340 5df5 31C0     		xorl	%eax, %eax
 11341 5df7 488D4424 		leaq	32(%rsp), %rax
 11341      20
 11342 5dfc 488D7424 		leaq	56(%rsp), %rsi
 11342      38
 11343 5e01 4889C7   		movq	%rax, %rdi
 11344              	.LEHB408:
 11345 5e04 E8000000 		call	_ZN8UnitTest10TestRunnerC1ERNS_12TestReporterE
 11345      00
 11346              	.LEHE408:
 11347 5e09 488DBC24 		leaq	2152(%rsp), %rdi
 11347      68080000 
 11348 5e11 48C74424 		movq	$_ZTV17RecordingReporter+16, 56(%rsp)
 11348      38000000 
 11348      00
 11349 5e1a C7442440 		movl	$0, 64(%rsp)
 11349      00000000 
 11350 5e22 C7842444 		movl	$0, 580(%rsp)
 11350      02000000 
 11350      000000
 11351 5e2d C7842448 		movl	$0, 840(%rsp)
 11351      03000000 
 11351      000000
 11352 5e38 C784244C 		movl	$0, 1612(%rsp)
 11352      06000000 
 11352      000000
 11353 5e43 C7842450 		movl	$0x00000000, 2128(%rsp)
 11353      08000000 
 11353      000000
 11354 5e4e C7842454 		movl	$0, 2132(%rsp)
 11354      08000000 
 11354      000000
 11355 5e59 C7842458 		movl	$0, 2136(%rsp)
 11355      08000000 
 11355      000000
 11356 5e64 C784245C 		movl	$0, 2140(%rsp)
 11356      08000000 
 11356      000000
 11357 5e6f C7842460 		movl	$0x00000000, 2144(%rsp)
 11357      08000000 
 11357      000000
 11358 5e7a C6442444 		movb	$0, 68(%rsp)
 11358      00
 11359 5e7f C6842444 		movb	$0, 324(%rsp)
 11359      01000000 
 11360 5e87 C6842448 		movb	$0, 584(%rsp)
 11360      02000000 
 11361 5e8f C684244C 		movb	$0, 844(%rsp)
 11361      03000000 
 11362 5e97 C684244C 		movb	$0, 1100(%rsp)
 11362      04000000 
 11363 5e9f C684244C 		movb	$0, 1356(%rsp)
 11363      05000000 
 11364 5ea7 C6842450 		movb	$0, 1616(%rsp)
 11364      06000000 
 11365 5eaf C6842450 		movb	$0, 1872(%rsp)
 11365      07000000 
 11366              	.LEHB409:
 11367 5eb7 E8000000 		call	_ZN8UnitTest8TestListC1Ev
 11367      00
 11368              	.LEHE409:
 11369 5ebc 488D7C24 		leaq	32(%rsp), %rdi
 11369      20
 11370 5ec1 4889DE   		movq	%rbx, %rsi
 11371 5ec4 48899C24 		movq	%rbx, 2168(%rsp)
 11371      78080000 
 11372              	.LEHB410:
 11373 5ecc E89FFAFF 		call	_ZN8UnitTest11ExecuteTestIN12_GLOBAL__N_152TestRunnerFixtureTestFinishIsReportedCorrectlyHelp
 11373      FF
 11374              	.LEHE410:
 11375 5ed1 488D7C24 		leaq	56(%rsp), %rdi
 11375      38
 11376 5ed6 48C74424 		movq	$_ZTV17RecordingReporter+16, 56(%rsp)
 11376      38000000 
 11376      00
 11377              	.LEHB411:
 11378 5edf E8000000 		call	_ZN8UnitTest12TestReporterD2Ev
 11378      00
 11379              	.LEHE411:
 11380 5ee4 488D7C24 		leaq	32(%rsp), %rdi
 11380      20
 11381              	.LEHB412:
 11382 5ee9 E8000000 		call	_ZN8UnitTest10TestRunnerD1Ev
 11382      00
 11383              	.LEHE412:
 11384              	.L1207:
 11385 5eee 488B8424 		movq	2184(%rsp), %rax
 11385      88080000 
 11386 5ef6 64483304 		xorq	%fs:40, %rax
 11386      25280000 
 11386      00
 11387 5eff 750E     		jne	.L1246
 11388 5f01 4881C498 		addq	$2200, %rsp
 11388      080000
 11389              		.cfi_remember_state
 11390              		.cfi_def_cfa_offset 40
 11391 5f08 5B       		popq	%rbx
 11392              		.cfi_def_cfa_offset 32
 11393 5f09 5D       		popq	%rbp
 11394              		.cfi_def_cfa_offset 24
 11395 5f0a 415C     		popq	%r12
 11396              		.cfi_def_cfa_offset 16
 11397 5f0c 415D     		popq	%r13
 11398              		.cfi_def_cfa_offset 8
 11399 5f0e C3       		ret
 11400              	.L1246:
 11401              		.cfi_restore_state
 11402 5f0f E8000000 		call	__stack_chk_fail
 11402      00
 11403              	.L1228:
 11404 5f14 4889C7   		movq	%rax, %rdi
 11405 5f17 41BC0100 		movl	$1, %r12d
 11405      0000
 11406              	.L1210:
 11407 5f1d 4883FA01 		cmpq	$1, %rdx
 11408 5f21 0F844501 		je	.L1219
 11408      0000
 11409 5f27 4883FA02 		cmpq	$2, %rdx
 11410 5f2b 0F85FE00 		jne	.L1247
 11410      0000
 11411 5f31 E8000000 		call	__cxa_begin_catch
 11411      00
 11412 5f36 488D7C24 		leaq	32(%rsp), %rdi
 11412      20
 11413 5f3b 4889C5   		movq	%rax, %rbp
 11414              	.LEHB413:
 11415 5f3e E8000000 		call	_ZN8UnitTest15MemoryOutStreamC1Ev
 11415      00
 11416              	.LEHE413:
 11417 5f43 488B4500 		movq	0(%rbp), %rax
 11418 5f47 4889EF   		movq	%rbp, %rdi
 11419 5f4a FF5010   		call	*16(%rax)
 11420 5f4d 488D7C24 		leaq	32(%rsp), %rdi
 11420      20
 11421 5f52 BA150000 		movl	$21, %edx
 11421      00
 11422 5f57 BE000000 		movl	$.LC69, %esi
 11422      00
 11423 5f5c 4889C5   		movq	%rax, %rbp
 11424              	.LEHB414:
 11425 5f5f E8000000 		call	_ZSt16__ostream_insertIcSt11char_traitsIcEERSt13basic_ostreamIT_T0_ES6_PKS3_l
 11425      00
 11426 5f64 488D7C24 		leaq	32(%rsp), %rdi
 11426      20
 11427 5f69 4889EE   		movq	%rbp, %rsi
 11428 5f6c E8000000 		call	_ZStlsISt11char_traitsIcEERSt13basic_ostreamIcT_ES5_PKc
 11428      00
 11429 5f71 488D7C24 		leaq	32(%rsp), %rdi
 11429      20
 11430 5f76 E8000000 		call	_ZNK8UnitTest15MemoryOutStream7GetTextEv
 11430      00
 11431 5f7b 4889C5   		movq	%rax, %rbp
 11432 5f7e E8000000 		call	_ZN8UnitTest11CurrentTest7ResultsEv
 11432      00
 11433 5f83 488B38   		movq	(%rax), %rdi
 11434 5f86 4889EA   		movq	%rbp, %rdx
 11435 5f89 4889DE   		movq	%rbx, %rsi
 11436 5f8c E8000000 		call	_ZN8UnitTest11TestResults13OnTestFailureERKNS_11TestDetailsEPKc
 11436      00
 11437              	.LEHE414:
 11438 5f91 488D7C24 		leaq	32(%rsp), %rdi
 11438      20
 11439              	.LEHB415:
 11440 5f96 E8000000 		call	_ZN8UnitTest15MemoryOutStreamD1Ev
 11440      00
 11441              	.LEHE415:
 11442              	.L1241:
 11443 5f9b E8000000 		call	__cxa_end_catch
 11443      00
 11444 5fa0 E949FFFF 		jmp	.L1207
 11444      FF
 11445              	.L1235:
 11446 5fa5 488D7C24 		leaq	32(%rsp), %rdi
 11446      20
 11447 5faa 4989D4   		movq	%rdx, %r12
 11448 5fad 4989C5   		movq	%rax, %r13
 11449 5fb0 E8000000 		call	_ZN8UnitTest10TestRunnerD1Ev
 11449      00
 11450 5fb5 4C89E2   		movq	%r12, %rdx
 11451 5fb8 4C89EF   		movq	%r13, %rdi
 11452 5fbb 41BC0100 		movl	$1, %r12d
 11452      0000
 11453 5fc1 E957FFFF 		jmp	.L1210
 11453      FF
 11454              	.L1229:
 11455 5fc6 488D7C24 		leaq	32(%rsp), %rdi
 11455      20
 11456 5fcb 4989D4   		movq	%rdx, %r12
 11457 5fce 4989C5   		movq	%rax, %r13
 11458 5fd1 E8000000 		call	_ZN12_GLOBAL__N_111FixtureBaseD2Ev
 11458      00
 11459 5fd6 4C89E2   		movq	%r12, %rdx
 11460 5fd9 4C89EF   		movq	%r13, %rdi
 11461 5fdc 41BC0100 		movl	$1, %r12d
 11461      0000
 11462 5fe2 E936FFFF 		jmp	.L1210
 11462      FF
 11463              	.L1234:
 11464 5fe7 488D7C24 		leaq	32(%rsp), %rdi
 11464      20
 11465 5fec 4989D4   		movq	%rdx, %r12
 11466 5fef 4989C5   		movq	%rax, %r13
 11467 5ff2 E8000000 		call	_ZN12_GLOBAL__N_111FixtureBaseD2Ev
 11467      00
 11468 5ff7 4C89E2   		movq	%r12, %rdx
 11469 5ffa 4C89EF   		movq	%r13, %rdi
 11470 5ffd 4531E4   		xorl	%r12d, %r12d
 11471 6000 E918FFFF 		jmp	.L1210
 11471      FF
 11472              	.L1236:
 11473 6005 4889C7   		movq	%rax, %rdi
 11474 6008 4531E4   		xorl	%r12d, %r12d
 11475 600b E90DFFFF 		jmp	.L1210
 11475      FF
 11476              	.L1232:
 11477 6010 488D7C24 		leaq	32(%rsp), %rdi
 11477      20
 11478 6015 4889C3   		movq	%rax, %rbx
 11479 6018 E8000000 		call	_ZN8UnitTest15MemoryOutStreamD1Ev
 11479      00
 11480              	.L1225:
 11481 601d E8000000 		call	__cxa_end_catch
 11481      00
 11482 6022 4889DF   		movq	%rbx, %rdi
 11483              	.LEHB416:
 11484 6025 E8000000 		call	_Unwind_Resume
 11484      00
 11485              	.LEHE416:
 11486              	.L1231:
 11487              	.L1242:
 11488 602a 4889C3   		movq	%rax, %rbx
 11489 602d EBEE     		jmp	.L1225
 11490              	.L1247:
 11491 602f E8000000 		call	__cxa_begin_catch
 11491      00
 11492 6034 4584E4   		testb	%r12b, %r12b
 11493 6037 BA480000 		movl	$72, %edx
 11493      00
 11494 603c 4889DE   		movq	%rbx, %rsi
 11495 603f 4889E7   		movq	%rsp, %rdi
 11496 6042 0F848900 		je	.L1221
 11496      0000
 11497              	.LEHB417:
 11498 6048 E8000000 		call	_ZN8UnitTest11TestDetailsC1ERKS0_i
 11498      00
 11499 604d E8000000 		call	_ZN8UnitTest11CurrentTest7ResultsEv
 11499      00
 11500 6052 488B38   		movq	(%rax), %rdi
 11501 6055 BA000000 		movl	$.LC73, %edx
 11501      00
 11502 605a 4889E6   		movq	%rsp, %rsi
 11503 605d E8000000 		call	_ZN8UnitTest11TestResults13OnTestFailureERKNS_11TestDetailsEPKc
 11503      00
 11504              	.LEHE417:
 11505              	.L1222:
 11506              	.LEHB418:
 11507 6062 E8000000 		call	__cxa_end_catch
 11507      00
 11508              	.LEHE418:
 11509 6067 E982FEFF 		jmp	.L1207
 11509      FF
 11510              	.L1219:
 11511 606c E8000000 		call	__cxa_begin_catch
 11511      00
 11512 6071 4889C3   		movq	%rax, %rbx
 11513 6074 488B00   		movq	(%rax), %rax
 11514 6077 4889DF   		movq	%rbx, %rdi
 11515 607a FF5010   		call	*16(%rax)
 11516 607d 4889DF   		movq	%rbx, %rdi
 11517 6080 4989C4   		movq	%rax, %r12
 11518              	.LEHB419:
 11519 6083 E8000000 		call	_ZNK8UnitTest15AssertException10LineNumberEv
 11519      00
 11520 6088 4889DF   		movq	%rbx, %rdi
 11521 608b 4189C5   		movl	%eax, %r13d
 11522 608e E8000000 		call	_ZNK8UnitTest15AssertException8FilenameEv
 11522      00
 11523 6093 488B5508 		movq	8(%rbp), %rdx
 11524 6097 488B7510 		movq	16(%rbp), %rsi
 11525 609b 4589E8   		movl	%r13d, %r8d
 11526 609e 4889C1   		movq	%rax, %rcx
 11527 60a1 4889E7   		movq	%rsp, %rdi
 11528 60a4 E8000000 		call	_ZN8UnitTest11TestDetailsC1EPKcS2_S2_i
 11528      00
 11529 60a9 E8000000 		call	_ZN8UnitTest11CurrentTest7ResultsEv
 11529      00
 11530 60ae 488B38   		movq	(%rax), %rdi
 11531 60b1 4C89E2   		movq	%r12, %rdx
 11532 60b4 4889E6   		movq	%rsp, %rsi
 11533 60b7 E8000000 		call	_ZN8UnitTest11TestResults13OnTestFailureERKNS_11TestDetailsEPKc
 11533      00
 11534              	.LEHE419:
 11535 60bc E9DAFEFF 		jmp	.L1241
 11535      FF
 11536              	.L1233:
 11537 60c1 4889C3   		movq	%rax, %rbx
 11538 60c4 E8000000 		call	__cxa_end_catch
 11538      00
 11539 60c9 4889DF   		movq	%rbx, %rdi
 11540              	.LEHB420:
 11541 60cc E8000000 		call	_Unwind_Resume
 11541      00
 11542              	.LEHE420:
 11543              	.L1221:
 11544              	.LEHB421:
 11545 60d1 E8000000 		call	_ZN8UnitTest11TestDetailsC1ERKS0_i
 11545      00
 11546 60d6 E8000000 		call	_ZN8UnitTest11CurrentTest7ResultsEv
 11546      00
 11547 60db 488B38   		movq	(%rax), %rdi
 11548 60de BA000000 		movl	$.LC74, %edx
 11548      00
 11549 60e3 4889E6   		movq	%rsp, %rsi
 11550 60e6 E8000000 		call	_ZN8UnitTest11TestResults13OnTestFailureERKNS_11TestDetailsEPKc
 11550      00
 11551              	.LEHE421:
 11552 60eb E972FFFF 		jmp	.L1222
 11552      FF
 11553              	.L1230:
 11554 60f0 E935FFFF 		jmp	.L1242
 11554      FF
 11555              		.cfi_endproc
 11556              	.LFE1170:
 11557              		.section	.gcc_except_table
 11558              		.align 4
 11559              	.LLSDA1170:
 11560 0b90 FF       		.byte	0xff
 11561 0b91 03       		.byte	0x3
 11562 0b92 69       		.uleb128 .LLSDATT1170-.LLSDATTD1170
 11563              	.LLSDATTD1170:
 11564 0b93 01       		.byte	0x1
 11565 0b94 50       		.uleb128 .LLSDACSE1170-.LLSDACSB1170
 11566              	.LLSDACSB1170:
 11567 0b95 34       		.uleb128 .LEHB408-.LFB1170
 11568 0b96 05       		.uleb128 .LEHE408-.LEHB408
 11569 0b97 B504     		.uleb128 .L1236-.LFB1170
 11570 0b99 05       		.uleb128 0x5
 11571 0b9a E701     		.uleb128 .LEHB409-.LFB1170
 11572 0b9c 05       		.uleb128 .LEHE409-.LEHB409
 11573 0b9d 9704     		.uleb128 .L1234-.LFB1170
 11574 0b9f 07       		.uleb128 0x7
 11575 0ba0 FC01     		.uleb128 .LEHB410-.LFB1170
 11576 0ba2 05       		.uleb128 .LEHE410-.LEHB410
 11577 0ba3 F603     		.uleb128 .L1229-.LFB1170
 11578 0ba5 07       		.uleb128 0x7
 11579 0ba6 8F02     		.uleb128 .LEHB411-.LFB1170
 11580 0ba8 05       		.uleb128 .LEHE411-.LEHB411
 11581 0ba9 D503     		.uleb128 .L1235-.LFB1170
 11582 0bab 07       		.uleb128 0x7
 11583 0bac 9902     		.uleb128 .LEHB412-.LFB1170
 11584 0bae 05       		.uleb128 .LEHE412-.LEHB412
 11585 0baf C402     		.uleb128 .L1228-.LFB1170
 11586 0bb1 05       		.uleb128 0x5
 11587 0bb2 EE02     		.uleb128 .LEHB413-.LFB1170
 11588 0bb4 05       		.uleb128 .LEHE413-.LEHB413
 11589 0bb5 DA04     		.uleb128 .L1231-.LFB1170
 11590 0bb7 00       		.uleb128 0
 11591 0bb8 8F03     		.uleb128 .LEHB414-.LFB1170
 11592 0bba 32       		.uleb128 .LEHE414-.LEHB414
 11593 0bbb C004     		.uleb128 .L1232-.LFB1170
 11594 0bbd 00       		.uleb128 0
 11595 0bbe C603     		.uleb128 .LEHB415-.LFB1170
 11596 0bc0 05       		.uleb128 .LEHE415-.LEHB415
 11597 0bc1 DA04     		.uleb128 .L1231-.LFB1170
 11598 0bc3 00       		.uleb128 0
 11599 0bc4 D504     		.uleb128 .LEHB416-.LFB1170
 11600 0bc6 05       		.uleb128 .LEHE416-.LEHB416
 11601 0bc7 00       		.uleb128 0
 11602 0bc8 00       		.uleb128 0
 11603 0bc9 F804     		.uleb128 .LEHB417-.LFB1170
 11604 0bcb 1A       		.uleb128 .LEHE417-.LEHB417
 11605 0bcc F105     		.uleb128 .L1233-.LFB1170
 11606 0bce 00       		.uleb128 0
 11607 0bcf 9205     		.uleb128 .LEHB418-.LFB1170
 11608 0bd1 05       		.uleb128 .LEHE418-.LEHB418
 11609 0bd2 00       		.uleb128 0
 11610 0bd3 00       		.uleb128 0
 11611 0bd4 B305     		.uleb128 .LEHB419-.LFB1170
 11612 0bd6 39       		.uleb128 .LEHE419-.LEHB419
 11613 0bd7 A006     		.uleb128 .L1230-.LFB1170
 11614 0bd9 00       		.uleb128 0
 11615 0bda FC05     		.uleb128 .LEHB420-.LFB1170
 11616 0bdc 05       		.uleb128 .LEHE420-.LEHB420
 11617 0bdd 00       		.uleb128 0
 11618 0bde 00       		.uleb128 0
 11619 0bdf 8106     		.uleb128 .LEHB421-.LFB1170
 11620 0be1 1A       		.uleb128 .LEHE421-.LEHB421
 11621 0be2 F105     		.uleb128 .L1233-.LFB1170
 11622 0be4 00       		.uleb128 0
 11623              	.LLSDACSE1170:
 11624 0be5 03       		.byte	0x3
 11625 0be6 00       		.byte	0
 11626 0be7 02       		.byte	0x2
 11627 0be8 7D       		.byte	0x7d
 11628 0be9 01       		.byte	0x1
 11629 0bea 7D       		.byte	0x7d
 11630 0beb 00       		.byte	0
 11631 0bec 7D       		.byte	0x7d
 11632 0bed 000000   		.align 4
 11633 0bf0 00000000 		.long	0
 11634              	
 11635 0bf4 00000000 		.long	_ZTISt9exception
 11636 0bf8 00000000 		.long	_ZTIN8UnitTest15AssertExceptionE
 11637              	.LLSDATT1170:
 11638              		.text
 11640              		.section	.text.unlikely
 11641              	.LCOLDE127:
 11642              		.text
 11643              	.LHOTE127:
 11644              		.section	.rodata.str1.8
 11645 06d2 00000000 		.align 8
 11645      0000
 11646              	.LC128:
 11647 06d8 556E6861 		.string	"Unhandled exception in CHECK_EQUAL(1, reporter.testRunCount)"
 11647      6E646C65 
 11647      64206578 
 11647      63657074 
 11647      696F6E20 
 11648 0715 000000   		.align 8
 11649              	.LC129:
 11650 0718 556E6861 		.string	"Unhandled exception in CHECK_EQUAL(\"goodtest\", reporter.lastStartedTest)"
 11650      6E646C65 
 11650      64206578 
 11650      63657074 
 11650      696F6E20 
 11651              		.section	.text.unlikely
 11652              	.LCOLDB130:
 11653              		.text
 11654              	.LHOTB130:
 11655 60f5 90662E0F 		.p2align 4,,15
 11655      1F840000 
 11655      000000
 11657              	_ZN8UnitTest11ExecuteTestIN12_GLOBAL__N_151TestRunnerFixtureTestStartIsReportedCorrectlyHelperEEEvR
 11658              	.LFB1576:
 11659              		.cfi_startproc
 11660              		.cfi_personality 0x3,__gxx_personality_v0
 11661              		.cfi_lsda 0x3,.LLSDA1576
 11662 6100 4155     		pushq	%r13
 11663              		.cfi_def_cfa_offset 16
 11664              		.cfi_offset 13, -16
 11665 6102 4154     		pushq	%r12
 11666              		.cfi_def_cfa_offset 24
 11667              		.cfi_offset 12, -24
 11668 6104 55       		pushq	%rbp
 11669              		.cfi_def_cfa_offset 32
 11670              		.cfi_offset 6, -32
 11671 6105 53       		pushq	%rbx
 11672              		.cfi_def_cfa_offset 40
 11673              		.cfi_offset 3, -40
 11674 6106 4889F3   		movq	%rsi, %rbx
 11675 6109 4881EC18 		subq	$1816, %rsp
 11675      070000
 11676              		.cfi_def_cfa_offset 1856
 11677 6110 48893C24 		movq	%rdi, (%rsp)
 11678 6114 48897424 		movq	%rsi, 8(%rsp)
 11678      08
 11679 6119 64488B04 		movq	%fs:40, %rax
 11679      25280000 
 11679      00
 11680 6122 48898424 		movq	%rax, 1800(%rsp)
 11680      08070000 
 11681 612a 31C0     		xorl	%eax, %eax
 11682              	.LEHB422:
 11683 612c E8000000 		call	_ZN8UnitTest11CurrentTest7DetailsEv
 11683      00
 11684              	.LEHE422:
 11685 6131 488DBC24 		leaq	672(%rsp), %rdi
 11685      A0020000 
 11686 6139 488918   		movq	%rbx, (%rax)
 11687              	.LEHB423:
 11688 613c E8000000 		call	_ZN8UnitTest16SignalTranslatorC1Ev
 11688      00
 11689              	.LEHE423:
 11690 6141 488B3D00 		movq	_ZN8UnitTest16SignalTranslator12s_jumpTargetE(%rip), %rdi
 11690      000000
 11691 6148 BE010000 		movl	$1, %esi
 11691      00
 11692 614d E8000000 		call	__sigsetjmp
 11692      00
 11693 6152 85C0     		testl	%eax, %eax
 11694 6154 742A     		je	.L1289
 11695 6156 BF080000 		movl	$8, %edi
 11695      00
 11696 615b E8000000 		call	__cxa_allocate_exception
 11696      00
 11697 6160 31D2     		xorl	%edx, %edx
 11698 6162 48C70000 		movq	$.LC61, (%rax)
 11698      000000
 11699 6169 BE000000 		movl	$_ZTIPKc, %esi
 11699      00
 11700 616e 4889C7   		movq	%rax, %rdi
 11701              	.LEHB424:
 11702 6171 E8000000 		call	__cxa_throw
 11702      00
 11703 6176 662E0F1F 		.p2align 4,,10
 11703      84000000 
 11703      0000
 11704              		.p2align 3
 11705              	.L1289:
 11706 6180 488DBC24 		leaq	192(%rsp), %rdi
 11706      C0000000 
 11707 6188 4531C0   		xorl	%r8d, %r8d
 11708 618b B9000000 		movl	$.LC80, %ecx
 11708      00
 11709 6190 BA000000 		movl	$.LC102, %edx
 11709      00
 11710 6195 BE000000 		movl	$.LC123, %esi
 11710      00
 11711 619a E8000000 		call	_ZN8UnitTest4TestC2EPKcS2_S2_i
 11711      00
 11712              	.LEHE424:
 11713 619f 488B2C24 		movq	(%rsp), %rbp
 11714 61a3 488DB424 		leaq	192(%rsp), %rsi
 11714      C0000000 
 11715 61ab 48C78424 		movq	$_ZTVN12_GLOBAL__N_18MockTestE+16, 192(%rsp)
 11715      C0000000 
 11715      00000000 
 11716 61b7 C68424F1 		movb	$1, 241(%rsp)
 11716      00000001 
 11717 61bf C68424F2 		movb	$0, 242(%rsp)
 11717      00000000 
 11718 61c7 C78424F4 		movl	$1, 244(%rsp)
 11718      00000001 
 11718      000000
 11719 61d2 488D9D48 		leaq	2120(%rbp), %rbx
 11719      080000
 11720 61d9 4889DF   		movq	%rbx, %rdi
 11721              	.LEHB425:
 11722 61dc E8000000 		call	_ZN8UnitTest8TestList3AddEPNS_4TestE
 11722      00
 11723 61e1 E8000000 		call	_ZN8UnitTest11CurrentTest7ResultsEv
 11723      00
 11724 61e6 4C8B20   		movq	(%rax), %r12
 11725 61e9 E8000000 		call	_ZN8UnitTest11CurrentTest7DetailsEv
 11725      00
 11726 61ee 4889DF   		movq	%rbx, %rdi
 11727 61f1 4C8B28   		movq	(%rax), %r13
 11728 61f4 E8000000 		call	_ZNK8UnitTest8TestList7GetHeadEv
 11728      00
 11729 61f9 4885C0   		testq	%rax, %rax
 11730 61fc 4889C3   		movq	%rax, %rbx
 11731 61ff 7436     		je	.L1254
 11732              		.p2align 4,,10
 11733 6201 0F1F8000 		.p2align 3
 11733      000000
 11734              	.L1288:
 11735 6208 31D2     		xorl	%edx, %edx
 11736 620a 4889DE   		movq	%rbx, %rsi
 11737 620d 4889EF   		movq	%rbp, %rdi
 11738 6210 E8000000 		call	_ZNK8UnitTest10TestRunner13IsTestInSuiteEPKNS_4TestEPKc
 11738      00
 11739 6215 84C0     		testb	%al, %al
 11740 6217 7415     		je	.L1275
 11741 6219 488B0424 		movq	(%rsp), %rax
 11742 621d 31C9     		xorl	%ecx, %ecx
 11743 621f 4889DA   		movq	%rbx, %rdx
 11744 6222 4889EF   		movq	%rbp, %rdi
 11745 6225 488B7008 		movq	8(%rax), %rsi
 11746 6229 E8000000 		call	_ZNK8UnitTest10TestRunner7RunTestEPNS_11TestResultsEPNS_4TestEi
 11746      00
 11747              	.L1275:
 11748 622e 488B5B28 		movq	40(%rbx), %rbx
 11749 6232 4885DB   		testq	%rbx, %rbx
 11750 6235 75D1     		jne	.L1288
 11751              	.L1254:
 11752 6237 488B3C24 		movq	(%rsp), %rdi
 11753 623b E8000000 		call	_ZNK8UnitTest10TestRunner6FinishEv
 11753      00
 11754 6240 E8000000 		call	_ZN8UnitTest11CurrentTest7ResultsEv
 11754      00
 11755 6245 4C8920   		movq	%r12, (%rax)
 11756 6248 E8000000 		call	_ZN8UnitTest11CurrentTest7DetailsEv
 11756      00
 11757              	.LEHE425:
 11758 624d 4C8928   		movq	%r13, (%rax)
 11759              	.LEHB426:
 11760 6250 E8000000 		call	_ZN8UnitTest11CurrentTest7DetailsEv
 11760      00
 11761 6255 488B30   		movq	(%rax), %rsi
 11762 6258 488DBC24 		leaq	160(%rsp), %rdi
 11762      A0000000 
 11763 6260 BA440000 		movl	$68, %edx
 11763      00
 11764 6265 E8000000 		call	_ZN8UnitTest11TestDetailsC1ERKS0_i
 11764      00
 11765 626a 488B0424 		movq	(%rsp), %rax
 11766 626e C744241C 		movl	$1, 28(%rsp)
 11766      01000000 
 11767 6276 488D5820 		leaq	32(%rax), %rbx
 11768 627a E8000000 		call	_ZN8UnitTest11CurrentTest7ResultsEv
 11768      00
 11769 627f 488B38   		movq	(%rax), %rdi
 11770 6282 488D8C24 		leaq	160(%rsp), %rcx
 11770      A0000000 
 11771 628a 488D7424 		leaq	28(%rsp), %rsi
 11771      1C
 11772 628f 4889DA   		movq	%rbx, %rdx
 11773 6292 E8000000 		call	_ZN8UnitTest10CheckEqualIiiEEvRNS_11TestResultsERKT_RKT0_RKNS_11TestDetailsE
 11773      00
 11774              	.LEHE426:
 11775              	.L1258:
 11776              	.LEHB427:
 11777 6297 E8000000 		call	_ZN8UnitTest11CurrentTest7DetailsEv
 11777      00
 11778 629c 488B30   		movq	(%rax), %rsi
 11779 629f 488D7C24 		leaq	96(%rsp), %rdi
 11779      60
 11780 62a4 BA450000 		movl	$69, %edx
 11780      00
 11781 62a9 E8000000 		call	_ZN8UnitTest11TestDetailsC1ERKS0_i
 11781      00
 11782 62ae 488B1C24 		movq	(%rsp), %rbx
 11783 62b2 4881C324 		addq	$292, %rbx
 11783      010000
 11784 62b9 E8000000 		call	_ZN8UnitTest11CurrentTest7ResultsEv
 11784      00
 11785 62be 488B38   		movq	(%rax), %rdi
 11786 62c1 488D4C24 		leaq	96(%rsp), %rcx
 11786      60
 11787 62c6 4889DA   		movq	%rbx, %rdx
 11788 62c9 BE000000 		movl	$.LC123, %esi
 11788      00
 11789 62ce E8000000 		call	_ZN8UnitTest10CheckEqualERNS_11TestResultsEPKcPcRKNS_11TestDetailsE
 11789      00
 11790              	.LEHE427:
 11791              	.L1262:
 11792 62d3 488DBC24 		leaq	192(%rsp), %rdi
 11792      C0000000 
 11793 62db 48C78424 		movq	$_ZTVN12_GLOBAL__N_18MockTestE+16, 192(%rsp)
 11793      C0000000 
 11793      00000000 
 11794              	.LEHB428:
 11795 62e7 E8000000 		call	_ZN8UnitTest4TestD2Ev
 11795      00
 11796              	.LEHE428:
 11797 62ec 488DBC24 		leaq	672(%rsp), %rdi
 11797      A0020000 
 11798              	.LEHB429:
 11799 62f4 E8000000 		call	_ZN8UnitTest16SignalTranslatorD1Ev
 11799      00
 11800              	.LEHE429:
 11801              	.L1248:
 11802 62f9 488B8424 		movq	1800(%rsp), %rax
 11802      08070000 
 11803 6301 64483304 		xorq	%fs:40, %rax
 11803      25280000 
 11803      00
 11804 630a 0F858101 		jne	.L1297
 11804      0000
 11805 6310 4881C418 		addq	$1816, %rsp
 11805      070000
 11806              		.cfi_remember_state
 11807              		.cfi_def_cfa_offset 40
 11808 6317 5B       		popq	%rbx
 11809              		.cfi_def_cfa_offset 32
 11810 6318 5D       		popq	%rbp
 11811              		.cfi_def_cfa_offset 24
 11812 6319 415C     		popq	%r12
 11813              		.cfi_def_cfa_offset 16
 11814 631b 415D     		popq	%r13
 11815              		.cfi_def_cfa_offset 8
 11816 631d C3       		ret
 11817              	.L1282:
 11818              		.cfi_restore_state
 11819 631e 4889C3   		movq	%rax, %rbx
 11820 6321 4889D5   		movq	%rdx, %rbp
 11821              	.L1264:
 11822 6324 488DBC24 		leaq	672(%rsp), %rdi
 11822      A0020000 
 11823 632c E8000000 		call	_ZN8UnitTest16SignalTranslatorD1Ev
 11823      00
 11824 6331 4889DF   		movq	%rbx, %rdi
 11825 6334 4889EA   		movq	%rbp, %rdx
 11826              	.L1265:
 11827 6337 4883FA01 		cmpq	$1, %rdx
 11828 633b 0F84DE00 		je	.L1267
 11828      0000
 11829 6341 4883FA02 		cmpq	$2, %rdx
 11830 6345 0F85AE00 		jne	.L1298
 11830      0000
 11831 634b E8000000 		call	__cxa_begin_catch
 11831      00
 11832 6350 488DBC24 		leaq	256(%rsp), %rdi
 11832      00010000 
 11833 6358 4889C3   		movq	%rax, %rbx
 11834              	.LEHB430:
 11835 635b E8000000 		call	_ZN8UnitTest15MemoryOutStreamC1Ev
 11835      00
 11836              	.LEHE430:
 11837 6360 488B03   		movq	(%rbx), %rax
 11838 6363 4889DF   		movq	%rbx, %rdi
 11839 6366 FF5010   		call	*16(%rax)
 11840 6369 488DBC24 		leaq	256(%rsp), %rdi
 11840      00010000 
 11841 6371 BA150000 		movl	$21, %edx
 11841      00
 11842 6376 BE000000 		movl	$.LC69, %esi
 11842      00
 11843 637b 4889C3   		movq	%rax, %rbx
 11844              	.LEHB431:
 11845 637e E8000000 		call	_ZSt16__ostream_insertIcSt11char_traitsIcEERSt13basic_ostreamIT_T0_ES6_PKS3_l
 11845      00
 11846 6383 488DBC24 		leaq	256(%rsp), %rdi
 11846      00010000 
 11847 638b 4889DE   		movq	%rbx, %rsi
 11848 638e E8000000 		call	_ZStlsISt11char_traitsIcEERSt13basic_ostreamIcT_ES5_PKc
 11848      00
 11849 6393 488DBC24 		leaq	256(%rsp), %rdi
 11849      00010000 
 11850 639b E8000000 		call	_ZNK8UnitTest15MemoryOutStream7GetTextEv
 11850      00
 11851 63a0 4889C3   		movq	%rax, %rbx
 11852 63a3 E8000000 		call	_ZN8UnitTest11CurrentTest7ResultsEv
 11852      00
 11853 63a8 488B7424 		movq	8(%rsp), %rsi
 11853      08
 11854 63ad 488B38   		movq	(%rax), %rdi
 11855 63b0 4889DA   		movq	%rbx, %rdx
 11856 63b3 E8000000 		call	_ZN8UnitTest11TestResults13OnTestFailureERKNS_11TestDetailsEPKc
 11856      00
 11857              	.LEHE431:
 11858 63b8 488DBC24 		leaq	256(%rsp), %rdi
 11858      00010000 
 11859              	.LEHB432:
 11860 63c0 E8000000 		call	_ZN8UnitTest15MemoryOutStreamD1Ev
 11860      00
 11861              	.LEHE432:
 11862              	.L1293:
 11863 63c5 E8000000 		call	__cxa_end_catch
 11863      00
 11864 63ca E92AFFFF 		jmp	.L1248
 11864      FF
 11865              	.L1281:
 11866 63cf 4889C7   		movq	%rax, %rdi
 11867 63d2 E960FFFF 		jmp	.L1265
 11867      FF
 11868              	.L1279:
 11869 63d7 488DBC24 		leaq	256(%rsp), %rdi
 11869      00010000 
 11870 63df 4889C3   		movq	%rax, %rbx
 11871 63e2 E8000000 		call	_ZN8UnitTest15MemoryOutStreamD1Ev
 11871      00
 11872              	.L1273:
 11873 63e7 E8000000 		call	__cxa_end_catch
 11873      00
 11874 63ec 4889DF   		movq	%rbx, %rdi
 11875              	.LEHB433:
 11876 63ef E8000000 		call	_Unwind_Resume
 11876      00
 11877              	.LEHE433:
 11878              	.L1278:
 11879              	.L1294:
 11880 63f4 4889C3   		movq	%rax, %rbx
 11881 63f7 EBEE     		jmp	.L1273
 11882              	.L1298:
 11883 63f9 E8000000 		call	__cxa_begin_catch
 11883      00
 11884              	.LEHB434:
 11885 63fe E8000000 		call	_ZN8UnitTest11CurrentTest7ResultsEv
 11885      00
 11886 6403 488B7424 		movq	8(%rsp), %rsi
 11886      08
 11887 6408 488B38   		movq	(%rax), %rdi
 11888 640b BA000000 		movl	$.LC70, %edx
 11888      00
 11889 6410 E8000000 		call	_ZN8UnitTest11TestResults13OnTestFailureERKNS_11TestDetailsEPKc
 11889      00
 11890              	.LEHE434:
 11891              	.LEHB435:
 11892 6415 E8000000 		call	__cxa_end_catch
 11892      00
 11893              	.LEHE435:
 11894 641a E9DAFEFF 		jmp	.L1248
 11894      FF
 11895              	.L1267:
 11896 641f E8000000 		call	__cxa_begin_catch
 11896      00
 11897 6424 4889C3   		movq	%rax, %rbx
 11898 6427 488B00   		movq	(%rax), %rax
 11899 642a 4889DF   		movq	%rbx, %rdi
 11900 642d FF5010   		call	*16(%rax)
 11901 6430 4889DF   		movq	%rbx, %rdi
 11902 6433 4889C5   		movq	%rax, %rbp
 11903              	.LEHB436:
 11904 6436 E8000000 		call	_ZNK8UnitTest15AssertException10LineNumberEv
 11904      00
 11905 643b 4889DF   		movq	%rbx, %rdi
 11906 643e 4189C4   		movl	%eax, %r12d
 11907 6441 E8000000 		call	_ZNK8UnitTest15AssertException8FilenameEv
 11907      00
 11908 6446 488B5424 		movq	8(%rsp), %rdx
 11908      08
 11909 644b 488D7C24 		leaq	32(%rsp), %rdi
 11909      20
 11910 6450 4589E0   		movl	%r12d, %r8d
 11911 6453 4889C1   		movq	%rax, %rcx
 11912 6456 488B7208 		movq	8(%rdx), %rsi
 11913 645a 488B12   		movq	(%rdx), %rdx
 11914 645d E8000000 		call	_ZN8UnitTest11TestDetailsC1EPKcS2_S2_i
 11914      00
 11915 6462 E8000000 		call	_ZN8UnitTest11CurrentTest7ResultsEv
 11915      00
 11916 6467 488B38   		movq	(%rax), %rdi
 11917 646a 488D7424 		leaq	32(%rsp), %rsi
 11917      20
 11918 646f 4889EA   		movq	%rbp, %rdx
 11919 6472 E8000000 		call	_ZN8UnitTest11TestResults13OnTestFailureERKNS_11TestDetailsEPKc
 11919      00
 11920              	.LEHE436:
 11921 6477 E949FFFF 		jmp	.L1293
 11921      FF
 11922              	.L1277:
 11923 647c 4889C3   		movq	%rax, %rbx
 11924 647f E8000000 		call	__cxa_end_catch
 11924      00
 11925 6484 4889DF   		movq	%rbx, %rdi
 11926              	.LEHB437:
 11927 6487 E8000000 		call	_Unwind_Resume
 11927      00
 11928              	.LEHE437:
 11929              	.L1280:
 11930 648c E963FFFF 		jmp	.L1294
 11930      FF
 11931              	.L1297:
 11932 6491 E8000000 		call	__stack_chk_fail
 11932      00
 11933              	.L1285:
 11934 6496 4889C7   		movq	%rax, %rdi
 11935 6499 E8000000 		call	__cxa_begin_catch
 11935      00
 11936              	.LEHB438:
 11937 649e E8000000 		call	_ZN8UnitTest11CurrentTest7DetailsEv
 11937      00
 11938 64a3 488B30   		movq	(%rax), %rsi
 11939 64a6 488D7C24 		leaq	64(%rsp), %rdi
 11939      40
 11940 64ab BA450000 		movl	$69, %edx
 11940      00
 11941 64b0 E8000000 		call	_ZN8UnitTest11TestDetailsC1ERKS0_i
 11941      00
 11942 64b5 E8000000 		call	_ZN8UnitTest11CurrentTest7ResultsEv
 11942      00
 11943 64ba 488B38   		movq	(%rax), %rdi
 11944 64bd 488D7424 		leaq	64(%rsp), %rsi
 11944      40
 11945 64c2 BA000000 		movl	$.LC129, %edx
 11945      00
 11946 64c7 E8000000 		call	_ZN8UnitTest11TestResults13OnTestFailureERKNS_11TestDetailsEPKc
 11946      00
 11947              	.LEHE438:
 11948              	.LEHB439:
 11949 64cc E8000000 		call	__cxa_end_catch
 11949      00
 11950              	.LEHE439:
 11951 64d1 E9FDFDFF 		jmp	.L1262
 11951      FF
 11952              	.L1287:
 11953 64d6 4889C7   		movq	%rax, %rdi
 11954 64d9 E8000000 		call	__cxa_begin_catch
 11954      00
 11955              	.LEHB440:
 11956 64de E8000000 		call	_ZN8UnitTest11CurrentTest7DetailsEv
 11956      00
 11957 64e3 488B30   		movq	(%rax), %rsi
 11958 64e6 488DBC24 		leaq	128(%rsp), %rdi
 11958      80000000 
 11959 64ee BA440000 		movl	$68, %edx
 11959      00
 11960 64f3 E8000000 		call	_ZN8UnitTest11TestDetailsC1ERKS0_i
 11960      00
 11961 64f8 E8000000 		call	_ZN8UnitTest11CurrentTest7ResultsEv
 11961      00
 11962 64fd 488B38   		movq	(%rax), %rdi
 11963 6500 488DB424 		leaq	128(%rsp), %rsi
 11963      80000000 
 11964 6508 BA000000 		movl	$.LC128, %edx
 11964      00
 11965 650d E8000000 		call	_ZN8UnitTest11TestResults13OnTestFailureERKNS_11TestDetailsEPKc
 11965      00
 11966              	.LEHE440:
 11967              	.LEHB441:
 11968 6512 E8000000 		call	__cxa_end_catch
 11968      00
 11969              	.LEHE441:
 11970 6517 E97BFDFF 		jmp	.L1258
 11970      FF
 11971              	.L1283:
 11972 651c 4889C3   		movq	%rax, %rbx
 11973 651f 4889D5   		movq	%rdx, %rbp
 11974              	.L1260:
 11975 6522 488DBC24 		leaq	192(%rsp), %rdi
 11975      C0000000 
 11976 652a 48C78424 		movq	$_ZTVN12_GLOBAL__N_18MockTestE+16, 192(%rsp)
 11976      C0000000 
 11976      00000000 
 11977 6536 E8000000 		call	_ZN8UnitTest4TestD2Ev
 11977      00
 11978 653b E9E4FDFF 		jmp	.L1264
 11978      FF
 11979              	.L1284:
 11980 6540 4889C3   		movq	%rax, %rbx
 11981 6543 4889D5   		movq	%rdx, %rbp
 11982 6546 E8000000 		call	__cxa_end_catch
 11982      00
 11983 654b EBD5     		jmp	.L1260
 11984              	.L1286:
 11985 654d 4889C3   		movq	%rax, %rbx
 11986 6550 4889D5   		movq	%rdx, %rbp
 11987 6553 E8000000 		call	__cxa_end_catch
 11987      00
 11988 6558 EBC8     		jmp	.L1260
 11989              		.cfi_endproc
 11990              	.LFE1576:
 11991              		.section	.gcc_except_table
 11992              		.align 4
 11993              	.LLSDA1576:
 11994 0bfc FF       		.byte	0xff
 11995 0bfd 03       		.byte	0x3
 11996 0bfe 8801     		.uleb128 .LLSDATT1576-.LLSDATTD1576
 11997              	.LLSDATTD1576:
 11998 0c00 01       		.byte	0x1
 11999 0c01 71       		.uleb128 .LLSDACSE1576-.LLSDACSB1576
 12000              	.LLSDACSB1576:
 12001 0c02 2C       		.uleb128 .LEHB422-.LFB1576
 12002 0c03 05       		.uleb128 .LEHE422-.LEHB422
 12003 0c04 00       		.uleb128 0
 12004 0c05 00       		.uleb128 0
 12005 0c06 3C       		.uleb128 .LEHB423-.LFB1576
 12006 0c07 05       		.uleb128 .LEHE423-.LEHB423
 12007 0c08 CF05     		.uleb128 .L1281-.LFB1576
 12008 0c0a 05       		.uleb128 0x5
 12009 0c0b 71       		.uleb128 .LEHB424-.LFB1576
 12010 0c0c 2E       		.uleb128 .LEHE424-.LEHB424
 12011 0c0d 9E04     		.uleb128 .L1282-.LFB1576
 12012 0c0f 07       		.uleb128 0x7
 12013 0c10 DC01     		.uleb128 .LEHB425-.LFB1576
 12014 0c12 71       		.uleb128 .LEHE425-.LEHB425
 12015 0c13 9C08     		.uleb128 .L1283-.LFB1576
 12016 0c15 07       		.uleb128 0x7
 12017 0c16 D002     		.uleb128 .LEHB426-.LFB1576
 12018 0c18 47       		.uleb128 .LEHE426-.LEHB426
 12019 0c19 D607     		.uleb128 .L1287-.LFB1576
 12020 0c1b 01       		.uleb128 0x1
 12021 0c1c 9703     		.uleb128 .LEHB427-.LFB1576
 12022 0c1e 3C       		.uleb128 .LEHE427-.LEHB427
 12023 0c1f 9607     		.uleb128 .L1285-.LFB1576
 12024 0c21 01       		.uleb128 0x1
 12025 0c22 E703     		.uleb128 .LEHB428-.LFB1576
 12026 0c24 05       		.uleb128 .LEHE428-.LEHB428
 12027 0c25 9E04     		.uleb128 .L1282-.LFB1576
 12028 0c27 07       		.uleb128 0x7
 12029 0c28 F403     		.uleb128 .LEHB429-.LFB1576
 12030 0c2a 05       		.uleb128 .LEHE429-.LEHB429
 12031 0c2b CF05     		.uleb128 .L1281-.LFB1576
 12032 0c2d 05       		.uleb128 0x5
 12033 0c2e DB04     		.uleb128 .LEHB430-.LFB1576
 12034 0c30 05       		.uleb128 .LEHE430-.LEHB430
 12035 0c31 F405     		.uleb128 .L1278-.LFB1576
 12036 0c33 00       		.uleb128 0
 12037 0c34 FE04     		.uleb128 .LEHB431-.LFB1576
 12038 0c36 3A       		.uleb128 .LEHE431-.LEHB431
 12039 0c37 D705     		.uleb128 .L1279-.LFB1576
 12040 0c39 00       		.uleb128 0
 12041 0c3a C005     		.uleb128 .LEHB432-.LFB1576
 12042 0c3c 05       		.uleb128 .LEHE432-.LEHB432
 12043 0c3d F405     		.uleb128 .L1278-.LFB1576
 12044 0c3f 00       		.uleb128 0
 12045 0c40 EF05     		.uleb128 .LEHB433-.LFB1576
 12046 0c42 05       		.uleb128 .LEHE433-.LEHB433
 12047 0c43 00       		.uleb128 0
 12048 0c44 00       		.uleb128 0
 12049 0c45 FE05     		.uleb128 .LEHB434-.LFB1576
 12050 0c47 17       		.uleb128 .LEHE434-.LEHB434
 12051 0c48 FC06     		.uleb128 .L1277-.LFB1576
 12052 0c4a 00       		.uleb128 0
 12053 0c4b 9506     		.uleb128 .LEHB435-.LFB1576
 12054 0c4d 05       		.uleb128 .LEHE435-.LEHB435
 12055 0c4e 00       		.uleb128 0
 12056 0c4f 00       		.uleb128 0
 12057 0c50 B606     		.uleb128 .LEHB436-.LFB1576
 12058 0c52 41       		.uleb128 .LEHE436-.LEHB436
 12059 0c53 8C07     		.uleb128 .L1280-.LFB1576
 12060 0c55 00       		.uleb128 0
 12061 0c56 8707     		.uleb128 .LEHB437-.LFB1576
 12062 0c58 05       		.uleb128 .LEHE437-.LEHB437
 12063 0c59 00       		.uleb128 0
 12064 0c5a 00       		.uleb128 0
 12065 0c5b 9E07     		.uleb128 .LEHB438-.LFB1576
 12066 0c5d 2E       		.uleb128 .LEHE438-.LEHB438
 12067 0c5e C008     		.uleb128 .L1284-.LFB1576
 12068 0c60 07       		.uleb128 0x7
 12069 0c61 CC07     		.uleb128 .LEHB439-.LFB1576
 12070 0c63 05       		.uleb128 .LEHE439-.LEHB439
 12071 0c64 9C08     		.uleb128 .L1283-.LFB1576
 12072 0c66 07       		.uleb128 0x7
 12073 0c67 DE07     		.uleb128 .LEHB440-.LFB1576
 12074 0c69 34       		.uleb128 .LEHE440-.LEHB440
 12075 0c6a CD08     		.uleb128 .L1286-.LFB1576
 12076 0c6c 07       		.uleb128 0x7
 12077 0c6d 9208     		.uleb128 .LEHB441-.LFB1576
 12078 0c6f 05       		.uleb128 .LEHE441-.LEHB441
 12079 0c70 9C08     		.uleb128 .L1283-.LFB1576
 12080 0c72 07       		.uleb128 0x7
 12081              	.LLSDACSE1576:
 12082 0c73 03       		.byte	0x3
 12083 0c74 00       		.byte	0
 12084 0c75 02       		.byte	0x2
 12085 0c76 7D       		.byte	0x7d
 12086 0c77 01       		.byte	0x1
 12087 0c78 7D       		.byte	0x7d
 12088 0c79 00       		.byte	0
 12089 0c7a 7D       		.byte	0x7d
 12090 0c7b 00       		.align 4
 12091 0c7c 00000000 		.long	0
 12092              	
 12093 0c80 00000000 		.long	_ZTISt9exception
 12094 0c84 00000000 		.long	_ZTIN8UnitTest15AssertExceptionE
 12095              	.LLSDATT1576:
 12096              		.text
 12098              		.section	.text.unlikely
 12099              	.LCOLDE130:
 12100              		.text
 12101              	.LHOTE130:
 12102              		.section	.text.unlikely
 12103              		.align 2
 12104              	.LCOLDB131:
 12105              		.text
 12106              	.LHOTB131:
 12107              		.align 2
 12108 655a 660F1F44 		.p2align 4,,15
 12108      0000
 12110              	_ZNK12_GLOBAL__N_149TestTestRunnerFixtureTestStartIsReportedCorrectly7RunImplEv:
 12111              	.LFB1159:
 12112              		.cfi_startproc
 12113              		.cfi_personality 0x3,__gxx_personality_v0
 12114              		.cfi_lsda 0x3,.LLSDA1159
 12115 6560 4155     		pushq	%r13
 12116              		.cfi_def_cfa_offset 16
 12117              		.cfi_offset 13, -16
 12118 6562 4154     		pushq	%r12
 12119              		.cfi_def_cfa_offset 24
 12120              		.cfi_offset 12, -24
 12121 6564 55       		pushq	%rbp
 12122              		.cfi_def_cfa_offset 32
 12123              		.cfi_offset 6, -32
 12124 6565 53       		pushq	%rbx
 12125              		.cfi_def_cfa_offset 40
 12126              		.cfi_offset 3, -40
 12127 6566 4889FD   		movq	%rdi, %rbp
 12128 6569 488D5F08 		leaq	8(%rdi), %rbx
 12129 656d 4881EC98 		subq	$2200, %rsp
 12129      080000
 12130              		.cfi_def_cfa_offset 2240
 12131 6574 64488B04 		movq	%fs:40, %rax
 12131      25280000 
 12131      00
 12132 657d 48898424 		movq	%rax, 2184(%rsp)
 12132      88080000 
 12133 6585 31C0     		xorl	%eax, %eax
 12134 6587 488D4424 		leaq	32(%rsp), %rax
 12134      20
 12135 658c 488D7424 		leaq	56(%rsp), %rsi
 12135      38
 12136 6591 4889C7   		movq	%rax, %rdi
 12137              	.LEHB442:
 12138 6594 E8000000 		call	_ZN8UnitTest10TestRunnerC1ERNS_12TestReporterE
 12138      00
 12139              	.LEHE442:
 12140 6599 488DBC24 		leaq	2152(%rsp), %rdi
 12140      68080000 
 12141 65a1 48C74424 		movq	$_ZTV17RecordingReporter+16, 56(%rsp)
 12141      38000000 
 12141      00
 12142 65aa C7442440 		movl	$0, 64(%rsp)
 12142      00000000 
 12143 65b2 C7842444 		movl	$0, 580(%rsp)
 12143      02000000 
 12143      000000
 12144 65bd C7842448 		movl	$0, 840(%rsp)
 12144      03000000 
 12144      000000
 12145 65c8 C784244C 		movl	$0, 1612(%rsp)
 12145      06000000 
 12145      000000
 12146 65d3 C7842450 		movl	$0x00000000, 2128(%rsp)
 12146      08000000 
 12146      000000
 12147 65de C7842454 		movl	$0, 2132(%rsp)
 12147      08000000 
 12147      000000
 12148 65e9 C7842458 		movl	$0, 2136(%rsp)
 12148      08000000 
 12148      000000
 12149 65f4 C784245C 		movl	$0, 2140(%rsp)
 12149      08000000 
 12149      000000
 12150 65ff C7842460 		movl	$0x00000000, 2144(%rsp)
 12150      08000000 
 12150      000000
 12151 660a C6442444 		movb	$0, 68(%rsp)
 12151      00
 12152 660f C6842444 		movb	$0, 324(%rsp)
 12152      01000000 
 12153 6617 C6842448 		movb	$0, 584(%rsp)
 12153      02000000 
 12154 661f C684244C 		movb	$0, 844(%rsp)
 12154      03000000 
 12155 6627 C684244C 		movb	$0, 1100(%rsp)
 12155      04000000 
 12156 662f C684244C 		movb	$0, 1356(%rsp)
 12156      05000000 
 12157 6637 C6842450 		movb	$0, 1616(%rsp)
 12157      06000000 
 12158 663f C6842450 		movb	$0, 1872(%rsp)
 12158      07000000 
 12159              	.LEHB443:
 12160 6647 E8000000 		call	_ZN8UnitTest8TestListC1Ev
 12160      00
 12161              	.LEHE443:
 12162 664c 488D7C24 		leaq	32(%rsp), %rdi
 12162      20
 12163 6651 4889DE   		movq	%rbx, %rsi
 12164 6654 48899C24 		movq	%rbx, 2168(%rsp)
 12164      78080000 
 12165              	.LEHB444:
 12166 665c E89FFAFF 		call	_ZN8UnitTest11ExecuteTestIN12_GLOBAL__N_151TestRunnerFixtureTestStartIsReportedCorrectlyHelpe
 12166      FF
 12167              	.LEHE444:
 12168 6661 488D7C24 		leaq	56(%rsp), %rdi
 12168      38
 12169 6666 48C74424 		movq	$_ZTV17RecordingReporter+16, 56(%rsp)
 12169      38000000 
 12169      00
 12170              	.LEHB445:
 12171 666f E8000000 		call	_ZN8UnitTest12TestReporterD2Ev
 12171      00
 12172              	.LEHE445:
 12173 6674 488D7C24 		leaq	32(%rsp), %rdi
 12173      20
 12174              	.LEHB446:
 12175 6679 E8000000 		call	_ZN8UnitTest10TestRunnerD1Ev
 12175      00
 12176              	.LEHE446:
 12177              	.L1299:
 12178 667e 488B8424 		movq	2184(%rsp), %rax
 12178      88080000 
 12179 6686 64483304 		xorq	%fs:40, %rax
 12179      25280000 
 12179      00
 12180 668f 750E     		jne	.L1338
 12181 6691 4881C498 		addq	$2200, %rsp
 12181      080000
 12182              		.cfi_remember_state
 12183              		.cfi_def_cfa_offset 40
 12184 6698 5B       		popq	%rbx
 12185              		.cfi_def_cfa_offset 32
 12186 6699 5D       		popq	%rbp
 12187              		.cfi_def_cfa_offset 24
 12188 669a 415C     		popq	%r12
 12189              		.cfi_def_cfa_offset 16
 12190 669c 415D     		popq	%r13
 12191              		.cfi_def_cfa_offset 8
 12192 669e C3       		ret
 12193              	.L1338:
 12194              		.cfi_restore_state
 12195 669f E8000000 		call	__stack_chk_fail
 12195      00
 12196              	.L1320:
 12197 66a4 4889C7   		movq	%rax, %rdi
 12198 66a7 41BC0100 		movl	$1, %r12d
 12198      0000
 12199              	.L1302:
 12200 66ad 4883FA01 		cmpq	$1, %rdx
 12201 66b1 0F844501 		je	.L1311
 12201      0000
 12202 66b7 4883FA02 		cmpq	$2, %rdx
 12203 66bb 0F85FE00 		jne	.L1339
 12203      0000
 12204 66c1 E8000000 		call	__cxa_begin_catch
 12204      00
 12205 66c6 488D7C24 		leaq	32(%rsp), %rdi
 12205      20
 12206 66cb 4889C5   		movq	%rax, %rbp
 12207              	.LEHB447:
 12208 66ce E8000000 		call	_ZN8UnitTest15MemoryOutStreamC1Ev
 12208      00
 12209              	.LEHE447:
 12210 66d3 488B4500 		movq	0(%rbp), %rax
 12211 66d7 4889EF   		movq	%rbp, %rdi
 12212 66da FF5010   		call	*16(%rax)
 12213 66dd 488D7C24 		leaq	32(%rsp), %rdi
 12213      20
 12214 66e2 BA150000 		movl	$21, %edx
 12214      00
 12215 66e7 BE000000 		movl	$.LC69, %esi
 12215      00
 12216 66ec 4889C5   		movq	%rax, %rbp
 12217              	.LEHB448:
 12218 66ef E8000000 		call	_ZSt16__ostream_insertIcSt11char_traitsIcEERSt13basic_ostreamIT_T0_ES6_PKS3_l
 12218      00
 12219 66f4 488D7C24 		leaq	32(%rsp), %rdi
 12219      20
 12220 66f9 4889EE   		movq	%rbp, %rsi
 12221 66fc E8000000 		call	_ZStlsISt11char_traitsIcEERSt13basic_ostreamIcT_ES5_PKc
 12221      00
 12222 6701 488D7C24 		leaq	32(%rsp), %rdi
 12222      20
 12223 6706 E8000000 		call	_ZNK8UnitTest15MemoryOutStream7GetTextEv
 12223      00
 12224 670b 4889C5   		movq	%rax, %rbp
 12225 670e E8000000 		call	_ZN8UnitTest11CurrentTest7ResultsEv
 12225      00
 12226 6713 488B38   		movq	(%rax), %rdi
 12227 6716 4889EA   		movq	%rbp, %rdx
 12228 6719 4889DE   		movq	%rbx, %rsi
 12229 671c E8000000 		call	_ZN8UnitTest11TestResults13OnTestFailureERKNS_11TestDetailsEPKc
 12229      00
 12230              	.LEHE448:
 12231 6721 488D7C24 		leaq	32(%rsp), %rdi
 12231      20
 12232              	.LEHB449:
 12233 6726 E8000000 		call	_ZN8UnitTest15MemoryOutStreamD1Ev
 12233      00
 12234              	.LEHE449:
 12235              	.L1333:
 12236 672b E8000000 		call	__cxa_end_catch
 12236      00
 12237 6730 E949FFFF 		jmp	.L1299
 12237      FF
 12238              	.L1327:
 12239 6735 488D7C24 		leaq	32(%rsp), %rdi
 12239      20
 12240 673a 4989D4   		movq	%rdx, %r12
 12241 673d 4989C5   		movq	%rax, %r13
 12242 6740 E8000000 		call	_ZN8UnitTest10TestRunnerD1Ev
 12242      00
 12243 6745 4C89E2   		movq	%r12, %rdx
 12244 6748 4C89EF   		movq	%r13, %rdi
 12245 674b 41BC0100 		movl	$1, %r12d
 12245      0000
 12246 6751 E957FFFF 		jmp	.L1302
 12246      FF
 12247              	.L1321:
 12248 6756 488D7C24 		leaq	32(%rsp), %rdi
 12248      20
 12249 675b 4989D4   		movq	%rdx, %r12
 12250 675e 4989C5   		movq	%rax, %r13
 12251 6761 E8000000 		call	_ZN12_GLOBAL__N_111FixtureBaseD2Ev
 12251      00
 12252 6766 4C89E2   		movq	%r12, %rdx
 12253 6769 4C89EF   		movq	%r13, %rdi
 12254 676c 41BC0100 		movl	$1, %r12d
 12254      0000
 12255 6772 E936FFFF 		jmp	.L1302
 12255      FF
 12256              	.L1326:
 12257 6777 488D7C24 		leaq	32(%rsp), %rdi
 12257      20
 12258 677c 4989D4   		movq	%rdx, %r12
 12259 677f 4989C5   		movq	%rax, %r13
 12260 6782 E8000000 		call	_ZN12_GLOBAL__N_111FixtureBaseD2Ev
 12260      00
 12261 6787 4C89E2   		movq	%r12, %rdx
 12262 678a 4C89EF   		movq	%r13, %rdi
 12263 678d 4531E4   		xorl	%r12d, %r12d
 12264 6790 E918FFFF 		jmp	.L1302
 12264      FF
 12265              	.L1328:
 12266 6795 4889C7   		movq	%rax, %rdi
 12267 6798 4531E4   		xorl	%r12d, %r12d
 12268 679b E90DFFFF 		jmp	.L1302
 12268      FF
 12269              	.L1324:
 12270 67a0 488D7C24 		leaq	32(%rsp), %rdi
 12270      20
 12271 67a5 4889C3   		movq	%rax, %rbx
 12272 67a8 E8000000 		call	_ZN8UnitTest15MemoryOutStreamD1Ev
 12272      00
 12273              	.L1317:
 12274 67ad E8000000 		call	__cxa_end_catch
 12274      00
 12275 67b2 4889DF   		movq	%rbx, %rdi
 12276              	.LEHB450:
 12277 67b5 E8000000 		call	_Unwind_Resume
 12277      00
 12278              	.LEHE450:
 12279              	.L1323:
 12280              	.L1334:
 12281 67ba 4889C3   		movq	%rax, %rbx
 12282 67bd EBEE     		jmp	.L1317
 12283              	.L1339:
 12284 67bf E8000000 		call	__cxa_begin_catch
 12284      00
 12285 67c4 4584E4   		testb	%r12b, %r12b
 12286 67c7 BA3E0000 		movl	$62, %edx
 12286      00
 12287 67cc 4889DE   		movq	%rbx, %rsi
 12288 67cf 4889E7   		movq	%rsp, %rdi
 12289 67d2 0F848900 		je	.L1313
 12289      0000
 12290              	.LEHB451:
 12291 67d8 E8000000 		call	_ZN8UnitTest11TestDetailsC1ERKS0_i
 12291      00
 12292 67dd E8000000 		call	_ZN8UnitTest11CurrentTest7ResultsEv
 12292      00
 12293 67e2 488B38   		movq	(%rax), %rdi
 12294 67e5 BA000000 		movl	$.LC73, %edx
 12294      00
 12295 67ea 4889E6   		movq	%rsp, %rsi
 12296 67ed E8000000 		call	_ZN8UnitTest11TestResults13OnTestFailureERKNS_11TestDetailsEPKc
 12296      00
 12297              	.LEHE451:
 12298              	.L1314:
 12299              	.LEHB452:
 12300 67f2 E8000000 		call	__cxa_end_catch
 12300      00
 12301              	.LEHE452:
 12302 67f7 E982FEFF 		jmp	.L1299
 12302      FF
 12303              	.L1311:
 12304 67fc E8000000 		call	__cxa_begin_catch
 12304      00
 12305 6801 4889C3   		movq	%rax, %rbx
 12306 6804 488B00   		movq	(%rax), %rax
 12307 6807 4889DF   		movq	%rbx, %rdi
 12308 680a FF5010   		call	*16(%rax)
 12309 680d 4889DF   		movq	%rbx, %rdi
 12310 6810 4989C4   		movq	%rax, %r12
 12311              	.LEHB453:
 12312 6813 E8000000 		call	_ZNK8UnitTest15AssertException10LineNumberEv
 12312      00
 12313 6818 4889DF   		movq	%rbx, %rdi
 12314 681b 4189C5   		movl	%eax, %r13d
 12315 681e E8000000 		call	_ZNK8UnitTest15AssertException8FilenameEv
 12315      00
 12316 6823 488B5508 		movq	8(%rbp), %rdx
 12317 6827 488B7510 		movq	16(%rbp), %rsi
 12318 682b 4589E8   		movl	%r13d, %r8d
 12319 682e 4889C1   		movq	%rax, %rcx
 12320 6831 4889E7   		movq	%rsp, %rdi
 12321 6834 E8000000 		call	_ZN8UnitTest11TestDetailsC1EPKcS2_S2_i
 12321      00
 12322 6839 E8000000 		call	_ZN8UnitTest11CurrentTest7ResultsEv
 12322      00
 12323 683e 488B38   		movq	(%rax), %rdi
 12324 6841 4C89E2   		movq	%r12, %rdx
 12325 6844 4889E6   		movq	%rsp, %rsi
 12326 6847 E8000000 		call	_ZN8UnitTest11TestResults13OnTestFailureERKNS_11TestDetailsEPKc
 12326      00
 12327              	.LEHE453:
 12328 684c E9DAFEFF 		jmp	.L1333
 12328      FF
 12329              	.L1325:
 12330 6851 4889C3   		movq	%rax, %rbx
 12331 6854 E8000000 		call	__cxa_end_catch
 12331      00
 12332 6859 4889DF   		movq	%rbx, %rdi
 12333              	.LEHB454:
 12334 685c E8000000 		call	_Unwind_Resume
 12334      00
 12335              	.LEHE454:
 12336              	.L1313:
 12337              	.LEHB455:
 12338 6861 E8000000 		call	_ZN8UnitTest11TestDetailsC1ERKS0_i
 12338      00
 12339 6866 E8000000 		call	_ZN8UnitTest11CurrentTest7ResultsEv
 12339      00
 12340 686b 488B38   		movq	(%rax), %rdi
 12341 686e BA000000 		movl	$.LC74, %edx
 12341      00
 12342 6873 4889E6   		movq	%rsp, %rsi
 12343 6876 E8000000 		call	_ZN8UnitTest11TestResults13OnTestFailureERKNS_11TestDetailsEPKc
 12343      00
 12344              	.LEHE455:
 12345 687b E972FFFF 		jmp	.L1314
 12345      FF
 12346              	.L1322:
 12347 6880 E935FFFF 		jmp	.L1334
 12347      FF
 12348              		.cfi_endproc
 12349              	.LFE1159:
 12350              		.section	.gcc_except_table
 12351              		.align 4
 12352              	.LLSDA1159:
 12353 0c88 FF       		.byte	0xff
 12354 0c89 03       		.byte	0x3
 12355 0c8a 69       		.uleb128 .LLSDATT1159-.LLSDATTD1159
 12356              	.LLSDATTD1159:
 12357 0c8b 01       		.byte	0x1
 12358 0c8c 50       		.uleb128 .LLSDACSE1159-.LLSDACSB1159
 12359              	.LLSDACSB1159:
 12360 0c8d 34       		.uleb128 .LEHB442-.LFB1159
 12361 0c8e 05       		.uleb128 .LEHE442-.LEHB442
 12362 0c8f B504     		.uleb128 .L1328-.LFB1159
 12363 0c91 05       		.uleb128 0x5
 12364 0c92 E701     		.uleb128 .LEHB443-.LFB1159
 12365 0c94 05       		.uleb128 .LEHE443-.LEHB443
 12366 0c95 9704     		.uleb128 .L1326-.LFB1159
 12367 0c97 07       		.uleb128 0x7
 12368 0c98 FC01     		.uleb128 .LEHB444-.LFB1159
 12369 0c9a 05       		.uleb128 .LEHE444-.LEHB444
 12370 0c9b F603     		.uleb128 .L1321-.LFB1159
 12371 0c9d 07       		.uleb128 0x7
 12372 0c9e 8F02     		.uleb128 .LEHB445-.LFB1159
 12373 0ca0 05       		.uleb128 .LEHE445-.LEHB445
 12374 0ca1 D503     		.uleb128 .L1327-.LFB1159
 12375 0ca3 07       		.uleb128 0x7
 12376 0ca4 9902     		.uleb128 .LEHB446-.LFB1159
 12377 0ca6 05       		.uleb128 .LEHE446-.LEHB446
 12378 0ca7 C402     		.uleb128 .L1320-.LFB1159
 12379 0ca9 05       		.uleb128 0x5
 12380 0caa EE02     		.uleb128 .LEHB447-.LFB1159
 12381 0cac 05       		.uleb128 .LEHE447-.LEHB447
 12382 0cad DA04     		.uleb128 .L1323-.LFB1159
 12383 0caf 00       		.uleb128 0
 12384 0cb0 8F03     		.uleb128 .LEHB448-.LFB1159
 12385 0cb2 32       		.uleb128 .LEHE448-.LEHB448
 12386 0cb3 C004     		.uleb128 .L1324-.LFB1159
 12387 0cb5 00       		.uleb128 0
 12388 0cb6 C603     		.uleb128 .LEHB449-.LFB1159
 12389 0cb8 05       		.uleb128 .LEHE449-.LEHB449
 12390 0cb9 DA04     		.uleb128 .L1323-.LFB1159
 12391 0cbb 00       		.uleb128 0
 12392 0cbc D504     		.uleb128 .LEHB450-.LFB1159
 12393 0cbe 05       		.uleb128 .LEHE450-.LEHB450
 12394 0cbf 00       		.uleb128 0
 12395 0cc0 00       		.uleb128 0
 12396 0cc1 F804     		.uleb128 .LEHB451-.LFB1159
 12397 0cc3 1A       		.uleb128 .LEHE451-.LEHB451
 12398 0cc4 F105     		.uleb128 .L1325-.LFB1159
 12399 0cc6 00       		.uleb128 0
 12400 0cc7 9205     		.uleb128 .LEHB452-.LFB1159
 12401 0cc9 05       		.uleb128 .LEHE452-.LEHB452
 12402 0cca 00       		.uleb128 0
 12403 0ccb 00       		.uleb128 0
 12404 0ccc B305     		.uleb128 .LEHB453-.LFB1159
 12405 0cce 39       		.uleb128 .LEHE453-.LEHB453
 12406 0ccf A006     		.uleb128 .L1322-.LFB1159
 12407 0cd1 00       		.uleb128 0
 12408 0cd2 FC05     		.uleb128 .LEHB454-.LFB1159
 12409 0cd4 05       		.uleb128 .LEHE454-.LEHB454
 12410 0cd5 00       		.uleb128 0
 12411 0cd6 00       		.uleb128 0
 12412 0cd7 8106     		.uleb128 .LEHB455-.LFB1159
 12413 0cd9 1A       		.uleb128 .LEHE455-.LEHB455
 12414 0cda F105     		.uleb128 .L1325-.LFB1159
 12415 0cdc 00       		.uleb128 0
 12416              	.LLSDACSE1159:
 12417 0cdd 03       		.byte	0x3
 12418 0cde 00       		.byte	0
 12419 0cdf 02       		.byte	0x2
 12420 0ce0 7D       		.byte	0x7d
 12421 0ce1 01       		.byte	0x1
 12422 0ce2 7D       		.byte	0x7d
 12423 0ce3 00       		.byte	0
 12424 0ce4 7D       		.byte	0x7d
 12425 0ce5 000000   		.align 4
 12426 0ce8 00000000 		.long	0
 12427              	
 12428 0cec 00000000 		.long	_ZTISt9exception
 12429 0cf0 00000000 		.long	_ZTIN8UnitTest15AssertExceptionE
 12430              	.LLSDATT1159:
 12431              		.text
 12433              		.section	.text.unlikely
 12434              	.LCOLDE131:
 12435              		.text
 12436              	.LHOTE131:
 12437              		.section	.rodata.str1.1
 12438              	.LC132:
 12439 00d6 4F746865 		.string	"OtherSuite"
 12439      72537569 
 12439      746500
 12440              	.LC133:
 12441 00e1 54657374 		.string	"TestInOtherSuite"
 12441      496E4F74 
 12441      68657253 
 12441      75697465 
 12441      00
 12442              		.section	.rodata.str1.8
 12443 0761 00000000 		.align 8
 12443      000000
 12444              	.LC134:
 12445 0768 556E6861 		.string	"Unhandled exception in CHECK_EQUAL(1, reporter.summaryTotalTestCount)"
 12445      6E646C65 
 12445      64206578 
 12445      63657074 
 12445      696F6E20 
 12446 07ae 0000     		.align 8
 12447              	.LC135:
 12448 07b0 556E6861 		.string	"Unhandled exception in CHECK_EQUAL(\"TestInOtherSuite\", reporter.lastFinishedTest)"
 12448      6E646C65 
 12448      64206578 
 12448      63657074 
 12448      696F6E20 
 12449              		.section	.text.unlikely
 12450              	.LCOLDB136:
 12451              		.text
 12452              	.LHOTB136:
 12453 6885 90662E0F 		.p2align 4,,15
 12453      1F840000 
 12453      000000
 12455              	_ZN8UnitTest11ExecuteTestIN12_GLOBAL__N_154TestSuiteFixtureTestRunnerRunsOnlySpecifiedSuiteHelperEE
 12456              	.LFB1593:
 12457              		.cfi_startproc
 12458              		.cfi_personality 0x3,__gxx_personality_v0
 12459              		.cfi_lsda 0x3,.LLSDA1593
 12460 6890 4155     		pushq	%r13
 12461              		.cfi_def_cfa_offset 16
 12462              		.cfi_offset 13, -16
 12463 6892 4154     		pushq	%r12
 12464              		.cfi_def_cfa_offset 24
 12465              		.cfi_offset 12, -24
 12466 6894 55       		pushq	%rbp
 12467              		.cfi_def_cfa_offset 32
 12468              		.cfi_offset 6, -32
 12469 6895 53       		pushq	%rbx
 12470              		.cfi_def_cfa_offset 40
 12471              		.cfi_offset 3, -40
 12472 6896 4889F3   		movq	%rsi, %rbx
 12473 6899 4881ECD8 		subq	$1752, %rsp
 12473      060000
 12474              		.cfi_def_cfa_offset 1792
 12475 68a0 48893C24 		movq	%rdi, (%rsp)
 12476 68a4 48897424 		movq	%rsi, 8(%rsp)
 12476      08
 12477 68a9 64488B04 		movq	%fs:40, %rax
 12477      25280000 
 12477      00
 12478 68b2 48898424 		movq	%rax, 1736(%rsp)
 12478      C8060000 
 12479 68ba 31C0     		xorl	%eax, %eax
 12480              	.LEHB456:
 12481 68bc E8000000 		call	_ZN8UnitTest11CurrentTest7DetailsEv
 12481      00
 12482              	.LEHE456:
 12483 68c1 488DBC24 		leaq	608(%rsp), %rdi
 12483      60020000 
 12484 68c9 488918   		movq	%rbx, (%rax)
 12485              	.LEHB457:
 12486 68cc E8000000 		call	_ZN8UnitTest16SignalTranslatorC1Ev
 12486      00
 12487              	.LEHE457:
 12488 68d1 488B3D00 		movq	_ZN8UnitTest16SignalTranslator12s_jumpTargetE(%rip), %rdi
 12488      000000
 12489 68d8 BE010000 		movl	$1, %esi
 12489      00
 12490 68dd E8000000 		call	__sigsetjmp
 12490      00
 12491 68e2 85C0     		testl	%eax, %eax
 12492 68e4 742A     		je	.L1378
 12493 68e6 BF080000 		movl	$8, %edi
 12493      00
 12494 68eb E8000000 		call	__cxa_allocate_exception
 12494      00
 12495 68f0 31D2     		xorl	%edx, %edx
 12496 68f2 48C70000 		movq	$.LC61, (%rax)
 12496      000000
 12497 68f9 BE000000 		movl	$_ZTIPKc, %esi
 12497      00
 12498 68fe 4889C7   		movq	%rax, %rdi
 12499              	.LEHB458:
 12500 6901 E8000000 		call	__cxa_throw
 12500      00
 12501 6906 662E0F1F 		.p2align 4,,10
 12501      84000000 
 12501      0000
 12502              		.p2align 3
 12503              	.L1378:
 12504 6910 488B2C24 		movq	(%rsp), %rbp
 12505 6914 488D9DF0 		leaq	2288(%rbp), %rbx
 12505      080000
 12506 691b E8000000 		call	_ZN8UnitTest11CurrentTest7ResultsEv
 12506      00
 12507 6920 4C8B20   		movq	(%rax), %r12
 12508 6923 E8000000 		call	_ZN8UnitTest11CurrentTest7DetailsEv
 12508      00
 12509 6928 4889DF   		movq	%rbx, %rdi
 12510 692b 4C8B28   		movq	(%rax), %r13
 12511 692e E8000000 		call	_ZNK8UnitTest8TestList7GetHeadEv
 12511      00
 12512 6933 4885C0   		testq	%rax, %rax
 12513 6936 4889C3   		movq	%rax, %rbx
 12514 6939 7437     		je	.L1346
 12515 693b 0F1F4400 		.p2align 4,,10
 12515      00
 12516              		.p2align 3
 12517              	.L1377:
 12518 6940 BA000000 		movl	$.LC132, %edx
 12518      00
 12519 6945 4889DE   		movq	%rbx, %rsi
 12520 6948 4889EF   		movq	%rbp, %rdi
 12521 694b E8000000 		call	_ZNK8UnitTest10TestRunner13IsTestInSuiteEPKNS_4TestEPKc
 12521      00
 12522 6950 84C0     		testb	%al, %al
 12523 6952 7415     		je	.L1365
 12524 6954 488B0424 		movq	(%rsp), %rax
 12525 6958 31C9     		xorl	%ecx, %ecx
 12526 695a 4889DA   		movq	%rbx, %rdx
 12527 695d 4889EF   		movq	%rbp, %rdi
 12528 6960 488B7008 		movq	8(%rax), %rsi
 12529 6964 E8000000 		call	_ZNK8UnitTest10TestRunner7RunTestEPNS_11TestResultsEPNS_4TestEi
 12529      00
 12530              	.L1365:
 12531 6969 488B5B28 		movq	40(%rbx), %rbx
 12532 696d 4885DB   		testq	%rbx, %rbx
 12533 6970 75CE     		jne	.L1377
 12534              	.L1346:
 12535 6972 488B3C24 		movq	(%rsp), %rdi
 12536 6976 E8000000 		call	_ZNK8UnitTest10TestRunner6FinishEv
 12536      00
 12537 697b E8000000 		call	_ZN8UnitTest11CurrentTest7ResultsEv
 12537      00
 12538 6980 4C8920   		movq	%r12, (%rax)
 12539 6983 E8000000 		call	_ZN8UnitTest11CurrentTest7DetailsEv
 12539      00
 12540              	.LEHE458:
 12541 6988 4C8928   		movq	%r13, (%rax)
 12542              	.LEHB459:
 12543 698b E8000000 		call	_ZN8UnitTest11CurrentTest7DetailsEv
 12543      00
 12544 6990 488B30   		movq	(%rax), %rsi
 12545 6993 488D7C24 		leaq	64(%rsp), %rdi
 12545      40
 12546 6998 BAFB0000 		movl	$251, %edx
 12546      00
 12547 699d E8000000 		call	_ZN8UnitTest11TestDetailsC1ERKS0_i
 12547      00
 12548 69a2 488B0424 		movq	(%rsp), %rax
 12549 69a6 C744241C 		movl	$1, 28(%rsp)
 12549      01000000 
 12550 69ae 488D9834 		leaq	2100(%rax), %rbx
 12550      080000
 12551 69b5 E8000000 		call	_ZN8UnitTest11CurrentTest7ResultsEv
 12551      00
 12552 69ba 488B38   		movq	(%rax), %rdi
 12553 69bd 488D4C24 		leaq	64(%rsp), %rcx
 12553      40
 12554 69c2 488D7424 		leaq	28(%rsp), %rsi
 12554      1C
 12555 69c7 4889DA   		movq	%rbx, %rdx
 12556 69ca E8000000 		call	_ZN8UnitTest10CheckEqualIiiEEvRNS_11TestResultsERKT_RKT0_RKNS_11TestDetailsE
 12556      00
 12557              	.LEHE459:
 12558              	.L1350:
 12559              	.LEHB460:
 12560 69cf E8000000 		call	_ZN8UnitTest11CurrentTest7DetailsEv
 12560      00
 12561 69d4 488B30   		movq	(%rax), %rsi
 12562 69d7 488DBC24 		leaq	128(%rsp), %rdi
 12562      80000000 
 12563 69df BAFC0000 		movl	$252, %edx
 12563      00
 12564 69e4 E8000000 		call	_ZN8UnitTest11TestDetailsC1ERKS0_i
 12564      00
 12565 69e9 488B1C24 		movq	(%rsp), %rbx
 12566 69ed 4881C330 		addq	$1840, %rbx
 12566      070000
 12567 69f4 E8000000 		call	_ZN8UnitTest11CurrentTest7ResultsEv
 12567      00
 12568 69f9 488B38   		movq	(%rax), %rdi
 12569 69fc 488D8C24 		leaq	128(%rsp), %rcx
 12569      80000000 
 12570 6a04 4889DA   		movq	%rbx, %rdx
 12571 6a07 BE000000 		movl	$.LC133, %esi
 12571      00
 12572 6a0c E8000000 		call	_ZN8UnitTest10CheckEqualERNS_11TestResultsEPKcPcRKNS_11TestDetailsE
 12572      00
 12573              	.LEHE460:
 12574              	.L1348:
 12575 6a11 488DBC24 		leaq	608(%rsp), %rdi
 12575      60020000 
 12576              	.LEHB461:
 12577 6a19 E8000000 		call	_ZN8UnitTest16SignalTranslatorD1Ev
 12577      00
 12578              	.LEHE461:
 12579              	.L1340:
 12580 6a1e 488B8424 		movq	1736(%rsp), %rax
 12580      C8060000 
 12581 6a26 64483304 		xorq	%fs:40, %rax
 12581      25280000 
 12581      00
 12582 6a2f 0F85C700 		jne	.L1386
 12582      0000
 12583 6a35 4881C4D8 		addq	$1752, %rsp
 12583      060000
 12584              		.cfi_remember_state
 12585              		.cfi_def_cfa_offset 40
 12586 6a3c 5B       		popq	%rbx
 12587              		.cfi_def_cfa_offset 32
 12588 6a3d 5D       		popq	%rbp
 12589              		.cfi_def_cfa_offset 24
 12590 6a3e 415C     		popq	%r12
 12591              		.cfi_def_cfa_offset 16
 12592 6a40 415D     		popq	%r13
 12593              		.cfi_def_cfa_offset 8
 12594 6a42 C3       		ret
 12595              	.L1372:
 12596              		.cfi_restore_state
 12597 6a43 4889C3   		movq	%rax, %rbx
 12598 6a46 4889D5   		movq	%rdx, %rbp
 12599              	.L1352:
 12600 6a49 488DBC24 		leaq	608(%rsp), %rdi
 12600      60020000 
 12601 6a51 E8000000 		call	_ZN8UnitTest16SignalTranslatorD1Ev
 12601      00
 12602 6a56 4889DF   		movq	%rbx, %rdi
 12603 6a59 4889EA   		movq	%rbp, %rdx
 12604              	.L1355:
 12605 6a5c 4883FA01 		cmpq	$1, %rdx
 12606 6a60 0F848901 		je	.L1357
 12606      0000
 12607 6a66 4883FA02 		cmpq	$2, %rdx
 12608 6a6a 0F855901 		jne	.L1387
 12608      0000
 12609 6a70 E8000000 		call	__cxa_begin_catch
 12609      00
 12610 6a75 488DBC24 		leaq	192(%rsp), %rdi
 12610      C0000000 
 12611 6a7d 4889C3   		movq	%rax, %rbx
 12612              	.LEHB462:
 12613 6a80 E8000000 		call	_ZN8UnitTest15MemoryOutStreamC1Ev
 12613      00
 12614              	.LEHE462:
 12615 6a85 488B03   		movq	(%rbx), %rax
 12616 6a88 4889DF   		movq	%rbx, %rdi
 12617 6a8b FF5010   		call	*16(%rax)
 12618 6a8e 488DBC24 		leaq	192(%rsp), %rdi
 12618      C0000000 
 12619 6a96 BA150000 		movl	$21, %edx
 12619      00
 12620 6a9b BE000000 		movl	$.LC69, %esi
 12620      00
 12621 6aa0 4889C3   		movq	%rax, %rbx
 12622              	.LEHB463:
 12623 6aa3 E8000000 		call	_ZSt16__ostream_insertIcSt11char_traitsIcEERSt13basic_ostreamIT_T0_ES6_PKS3_l
 12623      00
 12624 6aa8 488DBC24 		leaq	192(%rsp), %rdi
 12624      C0000000 
 12625 6ab0 4889DE   		movq	%rbx, %rsi
 12626 6ab3 E8000000 		call	_ZStlsISt11char_traitsIcEERSt13basic_ostreamIcT_ES5_PKc
 12626      00
 12627 6ab8 488DBC24 		leaq	192(%rsp), %rdi
 12627      C0000000 
 12628 6ac0 E8000000 		call	_ZNK8UnitTest15MemoryOutStream7GetTextEv
 12628      00
 12629 6ac5 4889C3   		movq	%rax, %rbx
 12630 6ac8 E8000000 		call	_ZN8UnitTest11CurrentTest7ResultsEv
 12630      00
 12631 6acd 488B7424 		movq	8(%rsp), %rsi
 12631      08
 12632 6ad2 488B38   		movq	(%rax), %rdi
 12633 6ad5 4889DA   		movq	%rbx, %rdx
 12634 6ad8 E8000000 		call	_ZN8UnitTest11TestResults13OnTestFailureERKNS_11TestDetailsEPKc
 12634      00
 12635              	.LEHE463:
 12636 6add 488DBC24 		leaq	192(%rsp), %rdi
 12636      C0000000 
 12637              	.LEHB464:
 12638 6ae5 E8000000 		call	_ZN8UnitTest15MemoryOutStreamD1Ev
 12638      00
 12639              	.LEHE464:
 12640              	.L1382:
 12641 6aea E8000000 		call	__cxa_end_catch
 12641      00
 12642 6aef E92AFFFF 		jmp	.L1340
 12642      FF
 12643              	.L1371:
 12644 6af4 4889C7   		movq	%rax, %rdi
 12645 6af7 E960FFFF 		jmp	.L1355
 12645      FF
 12646              	.L1386:
 12647 6afc E8000000 		call	__stack_chk_fail
 12647      00
 12648              	.L1375:
 12649 6b01 4889C7   		movq	%rax, %rdi
 12650 6b04 E8000000 		call	__cxa_begin_catch
 12650      00
 12651              	.LEHB465:
 12652 6b09 E8000000 		call	_ZN8UnitTest11CurrentTest7DetailsEv
 12652      00
 12653 6b0e 488B30   		movq	(%rax), %rsi
 12654 6b11 488DBC24 		leaq	160(%rsp), %rdi
 12654      A0000000 
 12655 6b19 BAFC0000 		movl	$252, %edx
 12655      00
 12656 6b1e E8000000 		call	_ZN8UnitTest11TestDetailsC1ERKS0_i
 12656      00
 12657 6b23 E8000000 		call	_ZN8UnitTest11CurrentTest7ResultsEv
 12657      00
 12658 6b28 488B38   		movq	(%rax), %rdi
 12659 6b2b 488DB424 		leaq	160(%rsp), %rsi
 12659      A0000000 
 12660 6b33 BA000000 		movl	$.LC135, %edx
 12660      00
 12661 6b38 E8000000 		call	_ZN8UnitTest11TestResults13OnTestFailureERKNS_11TestDetailsEPKc
 12661      00
 12662              	.LEHE465:
 12663              	.LEHB466:
 12664 6b3d E8000000 		call	__cxa_end_catch
 12664      00
 12665              	.LEHE466:
 12666 6b42 E9CAFEFF 		jmp	.L1348
 12666      FF
 12667              	.L1373:
 12668 6b47 4889C7   		movq	%rax, %rdi
 12669 6b4a E8000000 		call	__cxa_begin_catch
 12669      00
 12670              	.LEHB467:
 12671 6b4f E8000000 		call	_ZN8UnitTest11CurrentTest7DetailsEv
 12671      00
 12672 6b54 488B30   		movq	(%rax), %rsi
 12673 6b57 488D7C24 		leaq	96(%rsp), %rdi
 12673      60
 12674 6b5c BAFB0000 		movl	$251, %edx
 12674      00
 12675 6b61 E8000000 		call	_ZN8UnitTest11TestDetailsC1ERKS0_i
 12675      00
 12676 6b66 E8000000 		call	_ZN8UnitTest11CurrentTest7ResultsEv
 12676      00
 12677 6b6b 488B38   		movq	(%rax), %rdi
 12678 6b6e 488D7424 		leaq	96(%rsp), %rsi
 12678      60
 12679 6b73 BA000000 		movl	$.LC134, %edx
 12679      00
 12680 6b78 E8000000 		call	_ZN8UnitTest11TestResults13OnTestFailureERKNS_11TestDetailsEPKc
 12680      00
 12681              	.LEHE467:
 12682              	.LEHB468:
 12683 6b7d E8000000 		call	__cxa_end_catch
 12683      00
 12684              	.LEHE468:
 12685 6b82 E948FEFF 		jmp	.L1350
 12685      FF
 12686              	.L1376:
 12687 6b87 4889C3   		movq	%rax, %rbx
 12688 6b8a 4889D5   		movq	%rdx, %rbp
 12689 6b8d E8000000 		call	__cxa_end_catch
 12689      00
 12690 6b92 E9B2FEFF 		jmp	.L1352
 12690      FF
 12691              	.L1374:
 12692 6b97 4889C3   		movq	%rax, %rbx
 12693 6b9a 4889D5   		movq	%rdx, %rbp
 12694 6b9d E8000000 		call	__cxa_end_catch
 12694      00
 12695 6ba2 E9A2FEFF 		jmp	.L1352
 12695      FF
 12696              	.L1369:
 12697 6ba7 488DBC24 		leaq	192(%rsp), %rdi
 12697      C0000000 
 12698 6baf 4889C3   		movq	%rax, %rbx
 12699 6bb2 E8000000 		call	_ZN8UnitTest15MemoryOutStreamD1Ev
 12699      00
 12700              	.L1363:
 12701 6bb7 E8000000 		call	__cxa_end_catch
 12701      00
 12702 6bbc 4889DF   		movq	%rbx, %rdi
 12703              	.LEHB469:
 12704 6bbf E8000000 		call	_Unwind_Resume
 12704      00
 12705              	.LEHE469:
 12706              	.L1368:
 12707              	.L1383:
 12708 6bc4 4889C3   		movq	%rax, %rbx
 12709 6bc7 EBEE     		jmp	.L1363
 12710              	.L1387:
 12711 6bc9 E8000000 		call	__cxa_begin_catch
 12711      00
 12712              	.LEHB470:
 12713 6bce E8000000 		call	_ZN8UnitTest11CurrentTest7ResultsEv
 12713      00
 12714 6bd3 488B7424 		movq	8(%rsp), %rsi
 12714      08
 12715 6bd8 488B38   		movq	(%rax), %rdi
 12716 6bdb BA000000 		movl	$.LC70, %edx
 12716      00
 12717 6be0 E8000000 		call	_ZN8UnitTest11TestResults13OnTestFailureERKNS_11TestDetailsEPKc
 12717      00
 12718              	.LEHE470:
 12719              	.LEHB471:
 12720 6be5 E8000000 		call	__cxa_end_catch
 12720      00
 12721              	.LEHE471:
 12722 6bea E92FFEFF 		jmp	.L1340
 12722      FF
 12723              	.L1357:
 12724 6bef E8000000 		call	__cxa_begin_catch
 12724      00
 12725 6bf4 4889C3   		movq	%rax, %rbx
 12726 6bf7 488B00   		movq	(%rax), %rax
 12727 6bfa 4889DF   		movq	%rbx, %rdi
 12728 6bfd FF5010   		call	*16(%rax)
 12729 6c00 4889DF   		movq	%rbx, %rdi
 12730 6c03 4889C5   		movq	%rax, %rbp
 12731              	.LEHB472:
 12732 6c06 E8000000 		call	_ZNK8UnitTest15AssertException10LineNumberEv
 12732      00
 12733 6c0b 4889DF   		movq	%rbx, %rdi
 12734 6c0e 4189C4   		movl	%eax, %r12d
 12735 6c11 E8000000 		call	_ZNK8UnitTest15AssertException8FilenameEv
 12735      00
 12736 6c16 488B5424 		movq	8(%rsp), %rdx
 12736      08
 12737 6c1b 488D7C24 		leaq	32(%rsp), %rdi
 12737      20
 12738 6c20 4589E0   		movl	%r12d, %r8d
 12739 6c23 4889C1   		movq	%rax, %rcx
 12740 6c26 488B7208 		movq	8(%rdx), %rsi
 12741 6c2a 488B12   		movq	(%rdx), %rdx
 12742 6c2d E8000000 		call	_ZN8UnitTest11TestDetailsC1EPKcS2_S2_i
 12742      00
 12743 6c32 E8000000 		call	_ZN8UnitTest11CurrentTest7ResultsEv
 12743      00
 12744 6c37 488B38   		movq	(%rax), %rdi
 12745 6c3a 488D7424 		leaq	32(%rsp), %rsi
 12745      20
 12746 6c3f 4889EA   		movq	%rbp, %rdx
 12747 6c42 E8000000 		call	_ZN8UnitTest11TestResults13OnTestFailureERKNS_11TestDetailsEPKc
 12747      00
 12748              	.LEHE472:
 12749 6c47 E99EFEFF 		jmp	.L1382
 12749      FF
 12750              	.L1367:
 12751 6c4c 4889C3   		movq	%rax, %rbx
 12752 6c4f E8000000 		call	__cxa_end_catch
 12752      00
 12753 6c54 4889DF   		movq	%rbx, %rdi
 12754              	.LEHB473:
 12755 6c57 E8000000 		call	_Unwind_Resume
 12755      00
 12756              	.LEHE473:
 12757              	.L1370:
 12758 6c5c E963FFFF 		jmp	.L1383
 12758      FF
 12759              		.cfi_endproc
 12760              	.LFE1593:
 12761              		.section	.gcc_except_table
 12762              		.align 4
 12763              	.LLSDA1593:
 12764 0cf4 FF       		.byte	0xff
 12765 0cf5 03       		.byte	0x3
 12766 0cf6 7D       		.uleb128 .LLSDATT1593-.LLSDATTD1593
 12767              	.LLSDATTD1593:
 12768 0cf7 01       		.byte	0x1
 12769 0cf8 66       		.uleb128 .LLSDACSE1593-.LLSDACSB1593
 12770              	.LLSDACSB1593:
 12771 0cf9 2C       		.uleb128 .LEHB456-.LFB1593
 12772 0cfa 05       		.uleb128 .LEHE456-.LEHB456
 12773 0cfb 00       		.uleb128 0
 12774 0cfc 00       		.uleb128 0
 12775 0cfd 3C       		.uleb128 .LEHB457-.LFB1593
 12776 0cfe 05       		.uleb128 .LEHE457-.LEHB457
 12777 0cff E404     		.uleb128 .L1371-.LFB1593
 12778 0d01 05       		.uleb128 0x5
 12779 0d02 71       		.uleb128 .LEHB458-.LFB1593
 12780 0d03 8701     		.uleb128 .LEHE458-.LEHB458
 12781 0d05 B303     		.uleb128 .L1372-.LFB1593
 12782 0d07 07       		.uleb128 0x7
 12783 0d08 FB01     		.uleb128 .LEHB459-.LFB1593
 12784 0d0a 44       		.uleb128 .LEHE459-.LEHB459
 12785 0d0b B705     		.uleb128 .L1373-.LFB1593
 12786 0d0d 01       		.uleb128 0x1
 12787 0d0e BF02     		.uleb128 .LEHB460-.LFB1593
 12788 0d10 42       		.uleb128 .LEHE460-.LEHB460
 12789 0d11 F104     		.uleb128 .L1375-.LFB1593
 12790 0d13 01       		.uleb128 0x1
 12791 0d14 8903     		.uleb128 .LEHB461-.LFB1593
 12792 0d16 05       		.uleb128 .LEHE461-.LEHB461
 12793 0d17 E404     		.uleb128 .L1371-.LFB1593
 12794 0d19 05       		.uleb128 0x5
 12795 0d1a F003     		.uleb128 .LEHB462-.LFB1593
 12796 0d1c 05       		.uleb128 .LEHE462-.LEHB462
 12797 0d1d B406     		.uleb128 .L1368-.LFB1593
 12798 0d1f 00       		.uleb128 0
 12799 0d20 9304     		.uleb128 .LEHB463-.LFB1593
 12800 0d22 3A       		.uleb128 .LEHE463-.LEHB463
 12801 0d23 9706     		.uleb128 .L1369-.LFB1593
 12802 0d25 00       		.uleb128 0
 12803 0d26 D504     		.uleb128 .LEHB464-.LFB1593
 12804 0d28 05       		.uleb128 .LEHE464-.LEHB464
 12805 0d29 B406     		.uleb128 .L1368-.LFB1593
 12806 0d2b 00       		.uleb128 0
 12807 0d2c F904     		.uleb128 .LEHB465-.LFB1593
 12808 0d2e 34       		.uleb128 .LEHE465-.LEHB465
 12809 0d2f F705     		.uleb128 .L1376-.LFB1593
 12810 0d31 07       		.uleb128 0x7
 12811 0d32 AD05     		.uleb128 .LEHB466-.LFB1593
 12812 0d34 05       		.uleb128 .LEHE466-.LEHB466
 12813 0d35 B303     		.uleb128 .L1372-.LFB1593
 12814 0d37 07       		.uleb128 0x7
 12815 0d38 BF05     		.uleb128 .LEHB467-.LFB1593
 12816 0d3a 2E       		.uleb128 .LEHE467-.LEHB467
 12817 0d3b 8706     		.uleb128 .L1374-.LFB1593
 12818 0d3d 07       		.uleb128 0x7
 12819 0d3e ED05     		.uleb128 .LEHB468-.LFB1593
 12820 0d40 05       		.uleb128 .LEHE468-.LEHB468
 12821 0d41 B303     		.uleb128 .L1372-.LFB1593
 12822 0d43 07       		.uleb128 0x7
 12823 0d44 AF06     		.uleb128 .LEHB469-.LFB1593
 12824 0d46 05       		.uleb128 .LEHE469-.LEHB469
 12825 0d47 00       		.uleb128 0
 12826 0d48 00       		.uleb128 0
 12827 0d49 BE06     		.uleb128 .LEHB470-.LFB1593
 12828 0d4b 17       		.uleb128 .LEHE470-.LEHB470
 12829 0d4c BC07     		.uleb128 .L1367-.LFB1593
 12830 0d4e 00       		.uleb128 0
 12831 0d4f D506     		.uleb128 .LEHB471-.LFB1593
 12832 0d51 05       		.uleb128 .LEHE471-.LEHB471
 12833 0d52 00       		.uleb128 0
 12834 0d53 00       		.uleb128 0
 12835 0d54 F606     		.uleb128 .LEHB472-.LFB1593
 12836 0d56 41       		.uleb128 .LEHE472-.LEHB472
 12837 0d57 CC07     		.uleb128 .L1370-.LFB1593
 12838 0d59 00       		.uleb128 0
 12839 0d5a C707     		.uleb128 .LEHB473-.LFB1593
 12840 0d5c 05       		.uleb128 .LEHE473-.LEHB473
 12841 0d5d 00       		.uleb128 0
 12842 0d5e 00       		.uleb128 0
 12843              	.LLSDACSE1593:
 12844 0d5f 03       		.byte	0x3
 12845 0d60 00       		.byte	0
 12846 0d61 02       		.byte	0x2
 12847 0d62 7D       		.byte	0x7d
 12848 0d63 01       		.byte	0x1
 12849 0d64 7D       		.byte	0x7d
 12850 0d65 00       		.byte	0
 12851 0d66 7D       		.byte	0x7d
 12852 0d67 00       		.align 4
 12853 0d68 00000000 		.long	0
 12854              	
 12855 0d6c 00000000 		.long	_ZTISt9exception
 12856 0d70 00000000 		.long	_ZTIN8UnitTest15AssertExceptionE
 12857              	.LLSDATT1593:
 12858              		.text
 12860              		.section	.text.unlikely
 12861              	.LCOLDE136:
 12862              		.text
 12863              	.LHOTE136:
 12864              		.section	.rodata.str1.8
 12865 0802 00000000 		.align 8
 12865      0000
 12866              	.LC137:
 12867 0808 556E6861 		.string	"Unhandled exception in CHECK_EQUAL(2, reporter.summaryTotalTestCount)"
 12867      6E646C65 
 12867      64206578 
 12867      63657074 
 12867      696F6E20 
 12868              		.section	.text.unlikely
 12869              	.LCOLDB138:
 12870              		.text
 12871              	.LHOTB138:
 12872 6c61 0F1F4400 		.p2align 4,,15
 12872      00662E0F 
 12872      1F840000 
 12872      000000
 12874              	_ZN8UnitTest11ExecuteTestIN12_GLOBAL__N_164TestSuiteFixtureTestRunnerRunsAllSuitesIfNullSuiteIsPass
 12875              	.LFB1591:
 12876              		.cfi_startproc
 12877              		.cfi_personality 0x3,__gxx_personality_v0
 12878              		.cfi_lsda 0x3,.LLSDA1591
 12879 6c70 4155     		pushq	%r13
 12880              		.cfi_def_cfa_offset 16
 12881              		.cfi_offset 13, -16
 12882 6c72 4154     		pushq	%r12
 12883              		.cfi_def_cfa_offset 24
 12884              		.cfi_offset 12, -24
 12885 6c74 55       		pushq	%rbp
 12886              		.cfi_def_cfa_offset 32
 12887              		.cfi_offset 6, -32
 12888 6c75 53       		pushq	%rbx
 12889              		.cfi_def_cfa_offset 40
 12890              		.cfi_offset 3, -40
 12891 6c76 4889F3   		movq	%rsi, %rbx
 12892 6c79 4881EC98 		subq	$1688, %rsp
 12892      060000
 12893              		.cfi_def_cfa_offset 1728
 12894 6c80 48893C24 		movq	%rdi, (%rsp)
 12895 6c84 48897424 		movq	%rsi, 8(%rsp)
 12895      08
 12896 6c89 64488B04 		movq	%fs:40, %rax
 12896      25280000 
 12896      00
 12897 6c92 48898424 		movq	%rax, 1672(%rsp)
 12897      88060000 
 12898 6c9a 31C0     		xorl	%eax, %eax
 12899              	.LEHB474:
 12900 6c9c E8000000 		call	_ZN8UnitTest11CurrentTest7DetailsEv
 12900      00
 12901              	.LEHE474:
 12902 6ca1 488DBC24 		leaq	544(%rsp), %rdi
 12902      20020000 
 12903 6ca9 488918   		movq	%rbx, (%rax)
 12904              	.LEHB475:
 12905 6cac E8000000 		call	_ZN8UnitTest16SignalTranslatorC1Ev
 12905      00
 12906              	.LEHE475:
 12907 6cb1 488B3D00 		movq	_ZN8UnitTest16SignalTranslator12s_jumpTargetE(%rip), %rdi
 12907      000000
 12908 6cb8 BE010000 		movl	$1, %esi
 12908      00
 12909 6cbd E8000000 		call	__sigsetjmp
 12909      00
 12910 6cc2 85C0     		testl	%eax, %eax
 12911 6cc4 742A     		je	.L1421
 12912 6cc6 BF080000 		movl	$8, %edi
 12912      00
 12913 6ccb E8000000 		call	__cxa_allocate_exception
 12913      00
 12914 6cd0 31D2     		xorl	%edx, %edx
 12915 6cd2 48C70000 		movq	$.LC61, (%rax)
 12915      000000
 12916 6cd9 BE000000 		movl	$_ZTIPKc, %esi
 12916      00
 12917 6cde 4889C7   		movq	%rax, %rdi
 12918              	.LEHB476:
 12919 6ce1 E8000000 		call	__cxa_throw
 12919      00
 12920 6ce6 662E0F1F 		.p2align 4,,10
 12920      84000000 
 12920      0000
 12921              		.p2align 3
 12922              	.L1421:
 12923 6cf0 488B2C24 		movq	(%rsp), %rbp
 12924 6cf4 488D9DF0 		leaq	2288(%rbp), %rbx
 12924      080000
 12925 6cfb E8000000 		call	_ZN8UnitTest11CurrentTest7ResultsEv
 12925      00
 12926 6d00 4C8B20   		movq	(%rax), %r12
 12927 6d03 E8000000 		call	_ZN8UnitTest11CurrentTest7DetailsEv
 12927      00
 12928 6d08 4889DF   		movq	%rbx, %rdi
 12929 6d0b 4C8B28   		movq	(%rax), %r13
 12930 6d0e E8000000 		call	_ZNK8UnitTest8TestList7GetHeadEv
 12930      00
 12931 6d13 4885C0   		testq	%rax, %rax
 12932 6d16 4889C3   		movq	%rax, %rbx
 12933 6d19 7434     		je	.L1394
 12934 6d1b 0F1F4400 		.p2align 4,,10
 12934      00
 12935              		.p2align 3
 12936              	.L1420:
 12937 6d20 31D2     		xorl	%edx, %edx
 12938 6d22 4889DE   		movq	%rbx, %rsi
 12939 6d25 4889EF   		movq	%rbp, %rdi
 12940 6d28 E8000000 		call	_ZNK8UnitTest10TestRunner13IsTestInSuiteEPKNS_4TestEPKc
 12940      00
 12941 6d2d 84C0     		testb	%al, %al
 12942 6d2f 7415     		je	.L1410
 12943 6d31 488B0424 		movq	(%rsp), %rax
 12944 6d35 31C9     		xorl	%ecx, %ecx
 12945 6d37 4889DA   		movq	%rbx, %rdx
 12946 6d3a 4889EF   		movq	%rbp, %rdi
 12947 6d3d 488B7008 		movq	8(%rax), %rsi
 12948 6d41 E8000000 		call	_ZNK8UnitTest10TestRunner7RunTestEPNS_11TestResultsEPNS_4TestEi
 12948      00
 12949              	.L1410:
 12950 6d46 488B5B28 		movq	40(%rbx), %rbx
 12951 6d4a 4885DB   		testq	%rbx, %rbx
 12952 6d4d 75D1     		jne	.L1420
 12953              	.L1394:
 12954 6d4f 488B3C24 		movq	(%rsp), %rdi
 12955 6d53 E8000000 		call	_ZNK8UnitTest10TestRunner6FinishEv
 12955      00
 12956 6d58 E8000000 		call	_ZN8UnitTest11CurrentTest7ResultsEv
 12956      00
 12957 6d5d 4C8920   		movq	%r12, (%rax)
 12958 6d60 E8000000 		call	_ZN8UnitTest11CurrentTest7DetailsEv
 12958      00
 12959              	.LEHE476:
 12960 6d65 4C8928   		movq	%r13, (%rax)
 12961              	.LEHB477:
 12962 6d68 E8000000 		call	_ZN8UnitTest11CurrentTest7DetailsEv
 12962      00
 12963 6d6d 488B30   		movq	(%rax), %rsi
 12964 6d70 488D7C24 		leaq	64(%rsp), %rdi
 12964      40
 12965 6d75 BAF50000 		movl	$245, %edx
 12965      00
 12966 6d7a E8000000 		call	_ZN8UnitTest11TestDetailsC1ERKS0_i
 12966      00
 12967 6d7f 488B1C24 		movq	(%rsp), %rbx
 12968 6d83 C744241C 		movl	$2, 28(%rsp)
 12968      02000000 
 12969 6d8b 4881C334 		addq	$2100, %rbx
 12969      080000
 12970 6d92 E8000000 		call	_ZN8UnitTest11CurrentTest7ResultsEv
 12970      00
 12971 6d97 488B38   		movq	(%rax), %rdi
 12972 6d9a 488D4C24 		leaq	64(%rsp), %rcx
 12972      40
 12973 6d9f 488D7424 		leaq	28(%rsp), %rsi
 12973      1C
 12974 6da4 4889DA   		movq	%rbx, %rdx
 12975 6da7 E8000000 		call	_ZN8UnitTest10CheckEqualIiiEEvRNS_11TestResultsERKT_RKT0_RKNS_11TestDetailsE
 12975      00
 12976              	.LEHE477:
 12977              	.L1396:
 12978 6dac 488DBC24 		leaq	544(%rsp), %rdi
 12978      20020000 
 12979              	.LEHB478:
 12980 6db4 E8000000 		call	_ZN8UnitTest16SignalTranslatorD1Ev
 12980      00
 12981              	.LEHE478:
 12982              	.L1388:
 12983 6db9 488B8424 		movq	1672(%rsp), %rax
 12983      88060000 
 12984 6dc1 64483304 		xorq	%fs:40, %rax
 12984      25280000 
 12984      00
 12985 6dca 0F858101 		jne	.L1429
 12985      0000
 12986 6dd0 4881C498 		addq	$1688, %rsp
 12986      060000
 12987              		.cfi_remember_state
 12988              		.cfi_def_cfa_offset 40
 12989 6dd7 5B       		popq	%rbx
 12990              		.cfi_def_cfa_offset 32
 12991 6dd8 5D       		popq	%rbp
 12992              		.cfi_def_cfa_offset 24
 12993 6dd9 415C     		popq	%r12
 12994              		.cfi_def_cfa_offset 16
 12995 6ddb 415D     		popq	%r13
 12996              		.cfi_def_cfa_offset 8
 12997 6ddd C3       		ret
 12998              	.L1417:
 12999              		.cfi_restore_state
 13000 6dde 4889C3   		movq	%rax, %rbx
 13001 6de1 4889D5   		movq	%rdx, %rbp
 13002              	.L1399:
 13003 6de4 488DBC24 		leaq	544(%rsp), %rdi
 13003      20020000 
 13004 6dec E8000000 		call	_ZN8UnitTest16SignalTranslatorD1Ev
 13004      00
 13005 6df1 4889DF   		movq	%rbx, %rdi
 13006 6df4 4889EA   		movq	%rbp, %rdx
 13007              	.L1400:
 13008 6df7 4883FA01 		cmpq	$1, %rdx
 13009 6dfb 0F84DE00 		je	.L1402
 13009      0000
 13010 6e01 4883FA02 		cmpq	$2, %rdx
 13011 6e05 0F85AE00 		jne	.L1430
 13011      0000
 13012 6e0b E8000000 		call	__cxa_begin_catch
 13012      00
 13013 6e10 488DBC24 		leaq	128(%rsp), %rdi
 13013      80000000 
 13014 6e18 4889C3   		movq	%rax, %rbx
 13015              	.LEHB479:
 13016 6e1b E8000000 		call	_ZN8UnitTest15MemoryOutStreamC1Ev
 13016      00
 13017              	.LEHE479:
 13018 6e20 488B03   		movq	(%rbx), %rax
 13019 6e23 4889DF   		movq	%rbx, %rdi
 13020 6e26 FF5010   		call	*16(%rax)
 13021 6e29 488DBC24 		leaq	128(%rsp), %rdi
 13021      80000000 
 13022 6e31 BA150000 		movl	$21, %edx
 13022      00
 13023 6e36 BE000000 		movl	$.LC69, %esi
 13023      00
 13024 6e3b 4889C3   		movq	%rax, %rbx
 13025              	.LEHB480:
 13026 6e3e E8000000 		call	_ZSt16__ostream_insertIcSt11char_traitsIcEERSt13basic_ostreamIT_T0_ES6_PKS3_l
 13026      00
 13027 6e43 488DBC24 		leaq	128(%rsp), %rdi
 13027      80000000 
 13028 6e4b 4889DE   		movq	%rbx, %rsi
 13029 6e4e E8000000 		call	_ZStlsISt11char_traitsIcEERSt13basic_ostreamIcT_ES5_PKc
 13029      00
 13030 6e53 488DBC24 		leaq	128(%rsp), %rdi
 13030      80000000 
 13031 6e5b E8000000 		call	_ZNK8UnitTest15MemoryOutStream7GetTextEv
 13031      00
 13032 6e60 4889C3   		movq	%rax, %rbx
 13033 6e63 E8000000 		call	_ZN8UnitTest11CurrentTest7ResultsEv
 13033      00
 13034 6e68 488B7424 		movq	8(%rsp), %rsi
 13034      08
 13035 6e6d 488B38   		movq	(%rax), %rdi
 13036 6e70 4889DA   		movq	%rbx, %rdx
 13037 6e73 E8000000 		call	_ZN8UnitTest11TestResults13OnTestFailureERKNS_11TestDetailsEPKc
 13037      00
 13038              	.LEHE480:
 13039 6e78 488DBC24 		leaq	128(%rsp), %rdi
 13039      80000000 
 13040              	.LEHB481:
 13041 6e80 E8000000 		call	_ZN8UnitTest15MemoryOutStreamD1Ev
 13041      00
 13042              	.LEHE481:
 13043              	.L1425:
 13044 6e85 E8000000 		call	__cxa_end_catch
 13044      00
 13045 6e8a E92AFFFF 		jmp	.L1388
 13045      FF
 13046              	.L1416:
 13047 6e8f 4889C7   		movq	%rax, %rdi
 13048 6e92 E960FFFF 		jmp	.L1400
 13048      FF
 13049              	.L1414:
 13050 6e97 488DBC24 		leaq	128(%rsp), %rdi
 13050      80000000 
 13051 6e9f 4889C3   		movq	%rax, %rbx
 13052 6ea2 E8000000 		call	_ZN8UnitTest15MemoryOutStreamD1Ev
 13052      00
 13053              	.L1408:
 13054 6ea7 E8000000 		call	__cxa_end_catch
 13054      00
 13055 6eac 4889DF   		movq	%rbx, %rdi
 13056              	.LEHB482:
 13057 6eaf E8000000 		call	_Unwind_Resume
 13057      00
 13058              	.LEHE482:
 13059              	.L1413:
 13060              	.L1426:
 13061 6eb4 4889C3   		movq	%rax, %rbx
 13062 6eb7 EBEE     		jmp	.L1408
 13063              	.L1430:
 13064 6eb9 E8000000 		call	__cxa_begin_catch
 13064      00
 13065              	.LEHB483:
 13066 6ebe E8000000 		call	_ZN8UnitTest11CurrentTest7ResultsEv
 13066      00
 13067 6ec3 488B7424 		movq	8(%rsp), %rsi
 13067      08
 13068 6ec8 488B38   		movq	(%rax), %rdi
 13069 6ecb BA000000 		movl	$.LC70, %edx
 13069      00
 13070 6ed0 E8000000 		call	_ZN8UnitTest11TestResults13OnTestFailureERKNS_11TestDetailsEPKc
 13070      00
 13071              	.LEHE483:
 13072              	.LEHB484:
 13073 6ed5 E8000000 		call	__cxa_end_catch
 13073      00
 13074              	.LEHE484:
 13075 6eda E9DAFEFF 		jmp	.L1388
 13075      FF
 13076              	.L1402:
 13077 6edf E8000000 		call	__cxa_begin_catch
 13077      00
 13078 6ee4 4889C3   		movq	%rax, %rbx
 13079 6ee7 488B00   		movq	(%rax), %rax
 13080 6eea 4889DF   		movq	%rbx, %rdi
 13081 6eed FF5010   		call	*16(%rax)
 13082 6ef0 4889DF   		movq	%rbx, %rdi
 13083 6ef3 4889C5   		movq	%rax, %rbp
 13084              	.LEHB485:
 13085 6ef6 E8000000 		call	_ZNK8UnitTest15AssertException10LineNumberEv
 13085      00
 13086 6efb 4889DF   		movq	%rbx, %rdi
 13087 6efe 4189C4   		movl	%eax, %r12d
 13088 6f01 E8000000 		call	_ZNK8UnitTest15AssertException8FilenameEv
 13088      00
 13089 6f06 488B5424 		movq	8(%rsp), %rdx
 13089      08
 13090 6f0b 488D7C24 		leaq	32(%rsp), %rdi
 13090      20
 13091 6f10 4589E0   		movl	%r12d, %r8d
 13092 6f13 4889C1   		movq	%rax, %rcx
 13093 6f16 488B7208 		movq	8(%rdx), %rsi
 13094 6f1a 488B12   		movq	(%rdx), %rdx
 13095 6f1d E8000000 		call	_ZN8UnitTest11TestDetailsC1EPKcS2_S2_i
 13095      00
 13096 6f22 E8000000 		call	_ZN8UnitTest11CurrentTest7ResultsEv
 13096      00
 13097 6f27 488B38   		movq	(%rax), %rdi
 13098 6f2a 488D7424 		leaq	32(%rsp), %rsi
 13098      20
 13099 6f2f 4889EA   		movq	%rbp, %rdx
 13100 6f32 E8000000 		call	_ZN8UnitTest11TestResults13OnTestFailureERKNS_11TestDetailsEPKc
 13100      00
 13101              	.LEHE485:
 13102 6f37 E949FFFF 		jmp	.L1425
 13102      FF
 13103              	.L1412:
 13104 6f3c 4889C3   		movq	%rax, %rbx
 13105 6f3f E8000000 		call	__cxa_end_catch
 13105      00
 13106 6f44 4889DF   		movq	%rbx, %rdi
 13107              	.LEHB486:
 13108 6f47 E8000000 		call	_Unwind_Resume
 13108      00
 13109              	.LEHE486:
 13110              	.L1415:
 13111 6f4c E963FFFF 		jmp	.L1426
 13111      FF
 13112              	.L1429:
 13113 6f51 E8000000 		call	__stack_chk_fail
 13113      00
 13114              	.L1418:
 13115 6f56 4889C7   		movq	%rax, %rdi
 13116 6f59 E8000000 		call	__cxa_begin_catch
 13116      00
 13117              	.LEHB487:
 13118 6f5e E8000000 		call	_ZN8UnitTest11CurrentTest7DetailsEv
 13118      00
 13119 6f63 488B30   		movq	(%rax), %rsi
 13120 6f66 488D7C24 		leaq	96(%rsp), %rdi
 13120      60
 13121 6f6b BAF50000 		movl	$245, %edx
 13121      00
 13122 6f70 E8000000 		call	_ZN8UnitTest11TestDetailsC1ERKS0_i
 13122      00
 13123 6f75 E8000000 		call	_ZN8UnitTest11CurrentTest7ResultsEv
 13123      00
 13124 6f7a 488B38   		movq	(%rax), %rdi
 13125 6f7d 488D7424 		leaq	96(%rsp), %rsi
 13125      60
 13126 6f82 BA000000 		movl	$.LC137, %edx
 13126      00
 13127 6f87 E8000000 		call	_ZN8UnitTest11TestResults13OnTestFailureERKNS_11TestDetailsEPKc
 13127      00
 13128              	.LEHE487:
 13129              	.LEHB488:
 13130 6f8c E8000000 		call	__cxa_end_catch
 13130      00
 13131              	.LEHE488:
 13132 6f91 E916FEFF 		jmp	.L1396
 13132      FF
 13133              	.L1419:
 13134 6f96 4889C3   		movq	%rax, %rbx
 13135 6f99 4889D5   		movq	%rdx, %rbp
 13136 6f9c E8000000 		call	__cxa_end_catch
 13136      00
 13137 6fa1 E93EFEFF 		jmp	.L1399
 13137      FF
 13138              		.cfi_endproc
 13139              	.LFE1591:
 13140              		.section	.gcc_except_table
 13141              		.align 4
 13142              	.LLSDA1591:
 13143 0d74 FF       		.byte	0xff
 13144 0d75 03       		.byte	0x3
 13145 0d76 6D       		.uleb128 .LLSDATT1591-.LLSDATTD1591
 13146              	.LLSDATTD1591:
 13147 0d77 01       		.byte	0x1
 13148 0d78 54       		.uleb128 .LLSDACSE1591-.LLSDACSB1591
 13149              	.LLSDACSB1591:
 13150 0d79 2C       		.uleb128 .LEHB474-.LFB1591
 13151 0d7a 05       		.uleb128 .LEHE474-.LEHB474
 13152 0d7b 00       		.uleb128 0
 13153 0d7c 00       		.uleb128 0
 13154 0d7d 3C       		.uleb128 .LEHB475-.LFB1591
 13155 0d7e 05       		.uleb128 .LEHE475-.LEHB475
 13156 0d7f 9F04     		.uleb128 .L1416-.LFB1591
 13157 0d81 05       		.uleb128 0x5
 13158 0d82 71       		.uleb128 .LEHB476-.LFB1591
 13159 0d83 8401     		.uleb128 .LEHE476-.LEHB476
 13160 0d85 EE02     		.uleb128 .L1417-.LFB1591
 13161 0d87 07       		.uleb128 0x7
 13162 0d88 F801     		.uleb128 .LEHB477-.LFB1591
 13163 0d8a 44       		.uleb128 .LEHE477-.LEHB477
 13164 0d8b E605     		.uleb128 .L1418-.LFB1591
 13165 0d8d 01       		.uleb128 0x1
 13166 0d8e C402     		.uleb128 .LEHB478-.LFB1591
 13167 0d90 05       		.uleb128 .LEHE478-.LEHB478
 13168 0d91 9F04     		.uleb128 .L1416-.LFB1591
 13169 0d93 05       		.uleb128 0x5
 13170 0d94 AB03     		.uleb128 .LEHB479-.LFB1591
 13171 0d96 05       		.uleb128 .LEHE479-.LEHB479
 13172 0d97 C404     		.uleb128 .L1413-.LFB1591
 13173 0d99 00       		.uleb128 0
 13174 0d9a CE03     		.uleb128 .LEHB480-.LFB1591
 13175 0d9c 3A       		.uleb128 .LEHE480-.LEHB480
 13176 0d9d A704     		.uleb128 .L1414-.LFB1591
 13177 0d9f 00       		.uleb128 0
 13178 0da0 9004     		.uleb128 .LEHB481-.LFB1591
 13179 0da2 05       		.uleb128 .LEHE481-.LEHB481
 13180 0da3 C404     		.uleb128 .L1413-.LFB1591
 13181 0da5 00       		.uleb128 0
 13182 0da6 BF04     		.uleb128 .LEHB482-.LFB1591
 13183 0da8 05       		.uleb128 .LEHE482-.LEHB482
 13184 0da9 00       		.uleb128 0
 13185 0daa 00       		.uleb128 0
 13186 0dab CE04     		.uleb128 .LEHB483-.LFB1591
 13187 0dad 17       		.uleb128 .LEHE483-.LEHB483
 13188 0dae CC05     		.uleb128 .L1412-.LFB1591
 13189 0db0 00       		.uleb128 0
 13190 0db1 E504     		.uleb128 .LEHB484-.LFB1591
 13191 0db3 05       		.uleb128 .LEHE484-.LEHB484
 13192 0db4 00       		.uleb128 0
 13193 0db5 00       		.uleb128 0
 13194 0db6 8605     		.uleb128 .LEHB485-.LFB1591
 13195 0db8 41       		.uleb128 .LEHE485-.LEHB485
 13196 0db9 DC05     		.uleb128 .L1415-.LFB1591
 13197 0dbb 00       		.uleb128 0
 13198 0dbc D705     		.uleb128 .LEHB486-.LFB1591
 13199 0dbe 05       		.uleb128 .LEHE486-.LEHB486
 13200 0dbf 00       		.uleb128 0
 13201 0dc0 00       		.uleb128 0
 13202 0dc1 EE05     		.uleb128 .LEHB487-.LFB1591
 13203 0dc3 2E       		.uleb128 .LEHE487-.LEHB487
 13204 0dc4 A606     		.uleb128 .L1419-.LFB1591
 13205 0dc6 07       		.uleb128 0x7
 13206 0dc7 9C06     		.uleb128 .LEHB488-.LFB1591
 13207 0dc9 05       		.uleb128 .LEHE488-.LEHB488
 13208 0dca EE02     		.uleb128 .L1417-.LFB1591
 13209 0dcc 07       		.uleb128 0x7
 13210              	.LLSDACSE1591:
 13211 0dcd 03       		.byte	0x3
 13212 0dce 00       		.byte	0
 13213 0dcf 02       		.byte	0x2
 13214 0dd0 7D       		.byte	0x7d
 13215 0dd1 01       		.byte	0x1
 13216 0dd2 7D       		.byte	0x7d
 13217 0dd3 00       		.byte	0
 13218 0dd4 7D       		.byte	0x7d
 13219 0dd5 000000   		.align 4
 13220 0dd8 00000000 		.long	0
 13221              	
 13222 0ddc 00000000 		.long	_ZTISt9exception
 13223 0de0 00000000 		.long	_ZTIN8UnitTest15AssertExceptionE
 13224              	.LLSDATT1591:
 13225              		.text
 13227              		.section	.text.unlikely
 13228              	.LCOLDE138:
 13229              		.text
 13230              	.LHOTE138:
 13231              		.section	.rodata.str1.1
 13232              	.LC139:
 13233 00f2 54657374 		.string	"TestTestRunner.cpp"
 13233      54657374 
 13233      52756E6E 
 13233      65722E63 
 13233      707000
 13234              	.LC140:
 13235 0105 54657374 		.string	"TestStartIsReportedCorrectly"
 13235      53746172 
 13235      74497352 
 13235      65706F72 
 13235      74656443 
 13236              	.LC141:
 13237 0122 54657374 		.string	"TestFinishIsReportedCorrectly"
 13237      46696E69 
 13237      73684973 
 13237      5265706F 
 13237      72746564 
 13238              		.section	.rodata.str1.8
 13239 084e 0000     		.align 8
 13240              	.LC142:
 13241 0850 54657374 		.string	"TestFinishIsCalledWithCorrectTime"
 13241      46696E69 
 13241      73684973 
 13241      43616C6C 
 13241      65645769 
 13242 0872 00000000 		.align 8
 13242      0000
 13243              	.LC143:
 13244 0878 4661696C 		.string	"FailureCountIsZeroWhenNoTestsAreRun"
 13244      75726543 
 13244      6F756E74 
 13244      49735A65 
 13244      726F5768 
 13245 089c 00000000 		.align 8
 13246              	.LC144:
 13247 08a0 43616C6C 		.string	"CallsReportFailureOncePerFailingTest"
 13247      73526570 
 13247      6F727446 
 13247      61696C75 
 13247      72654F6E 
 13248 08c5 000000   		.align 8
 13249              	.LC145:
 13250 08c8 54657374 		.string	"TestsThatAssertAreReportedAsFailing"
 13250      73546861 
 13250      74417373 
 13250      65727441 
 13250      72655265 
 13251              		.section	.rodata.str1.1
 13252              	.LC146:
 13253 0140 5265706F 		.string	"ReporterNotifiedOfTestCount"
 13253      72746572 
 13253      4E6F7469 
 13253      66696564 
 13253      4F665465 
 13254              	.LC147:
 13255 015c 5265706F 		.string	"ReporterNotifiedOfFailedTests"
 13255      72746572 
 13255      4E6F7469 
 13255      66696564 
 13255      4F664661 
 13256              	.LC148:
 13257 017a 5265706F 		.string	"ReporterNotifiedOfFailures"
 13257      72746572 
 13257      4E6F7469 
 13257      66696564 
 13257      4F664661 
 13258              		.section	.rodata.str1.8
 13259 08ec 00000000 		.align 8
 13260              	.LC149:
 13261 08f0 536C6F77 		.string	"SlowTestPassesForHighTimeThreshold"
 13261      54657374 
 13261      50617373 
 13261      6573466F 
 13261      72486967 
 13262 0913 00000000 		.align 8
 13262      00
 13263              	.LC150:
 13264 0918 536C6F77 		.string	"SlowTestFailsForLowTimeThreshold"
 13264      54657374 
 13264      4661696C 
 13264      73466F72 
 13264      4C6F7754 
 13265 0939 00000000 		.align 8
 13265      000000
 13266              	.LC151:
 13267 0940 536C6F77 		.string	"SlowTestHasCorrectFailureInformation"
 13267      54657374 
 13267      48617343 
 13267      6F727265 
 13267      63744661 
 13268 0965 000000   		.align 8
 13269              	.LC152:
 13270 0968 536C6F77 		.string	"SlowTestWithTimeExemptionPasses"
 13270      54657374 
 13270      57697468 
 13270      54696D65 
 13270      4578656D 
 13271              		.align 8
 13272              	.LC153:
 13273 0988 54657374 		.string	"TestRunnerRunsAllSuitesIfNullSuiteIsPassed"
 13273      52756E6E 
 13273      65725275 
 13273      6E73416C 
 13273      6C537569 
 13274 09b3 00000000 		.align 8
 13274      00
 13275              	.LC154:
 13276 09b8 54657374 		.string	"TestRunnerRunsOnlySpecifiedSuite"
 13276      52756E6E 
 13276      65725275 
 13276      6E734F6E 
 13276      6C795370 
 13277 09d9 00000000 		.align 8
 13277      000000
 13278              	.LC155:
 13279 09e0 54657374 		.string	"TestMockPredicateBehavesCorrectly"
 13279      4D6F636B 
 13279      50726564 
 13279      69636174 
 13279      65426568 
 13280 0a02 00000000 		.align 8
 13280      0000
 13281              	.LC156:
 13282 0a08 54657374 		.string	"TestRunnerRunsTestsThatPassPredicate"
 13282      52756E6E 
 13282      65725275 
 13282      6E735465 
 13282      73747354 
 13283 0a2d 000000   		.align 8
 13284              	.LC157:
 13285 0a30 54657374 		.string	"TestRunnerOnlyRunsTestsInSpecifiedSuiteAndThatPassPredicate"
 13285      52756E6E 
 13285      65724F6E 
 13285      6C795275 
 13285      6E735465 
 13286              		.section	.text.unlikely
 13287              	.LCOLDB158:
 13288              		.section	.text.startup,"ax",@progbits
 13289              	.LHOTB158:
 13290              		.p2align 4,,15
 13292              	_GLOBAL__sub_I_TestTestRunner.cpp:
 13293              	.LFB1559:
 13294              		.cfi_startproc
 13295 0000 4883EC08 		subq	$8, %rsp
 13296              		.cfi_def_cfa_offset 16
 13297 0004 41B83E00 		movl	$62, %r8d
 13297      0000
 13298 000a B9000000 		movl	$.LC139, %ecx
 13298      00
 13299 000f BA000000 		movl	$.LC102, %edx
 13299      00
 13300 0014 BE000000 		movl	$.LC140, %esi
 13300      00
 13301 0019 BF000000 		movl	$_ZN12_GLOBAL__N_157testTestRunnerFixtureTestStartIsReportedCorrectlyInstanceE, %edi
 13301      00
 13302 001e E8000000 		call	_ZN8UnitTest4TestC2EPKcS2_S2_i
 13302      00
 13303 0023 BA000000 		movl	$__dso_handle, %edx
 13303      00
 13304 0028 BE000000 		movl	$_ZN12_GLOBAL__N_157testTestRunnerFixtureTestStartIsReportedCorrectlyInstanceE, %esi
 13304      00
 13305 002d BF000000 		movl	$_ZN12_GLOBAL__N_149TestTestRunnerFixtureTestStartIsReportedCorrectlyD1Ev, %edi
 13305      00
 13306 0032 48C70500 		movq	$_ZTVN12_GLOBAL__N_149TestTestRunnerFixtureTestStartIsReportedCorrectlyE+16, _ZN12_GLOBAL__N_
 13306      00000000 
 13306      000000
 13307 003d E8000000 		call	__cxa_atexit
 13307      00
 13308 0042 E8000000 		call	_ZN8UnitTest4Test11GetTestListEv
 13308      00
 13309 0047 BA000000 		movl	$_ZN12_GLOBAL__N_157testTestRunnerFixtureTestStartIsReportedCorrectlyInstanceE, %edx
 13309      00
 13310 004c 4889C6   		movq	%rax, %rsi
 13311 004f BF000000 		movl	$_ZN12_GLOBAL__N_150adderTestRunnerFixtureTestStartIsReportedCorrectlyE, %edi
 13311      00
 13312 0054 E8000000 		call	_ZN8UnitTest9ListAdderC1ERNS_8TestListEPNS_4TestE
 13312      00
 13313 0059 41B84800 		movl	$72, %r8d
 13313      0000
 13314 005f B9000000 		movl	$.LC139, %ecx
 13314      00
 13315 0064 BA000000 		movl	$.LC102, %edx
 13315      00
 13316 0069 BE000000 		movl	$.LC141, %esi
 13316      00
 13317 006e BF000000 		movl	$_ZN12_GLOBAL__N_158testTestRunnerFixtureTestFinishIsReportedCorrectlyInstanceE, %edi
 13317      00
 13318 0073 E8000000 		call	_ZN8UnitTest4TestC2EPKcS2_S2_i
 13318      00
 13319 0078 BA000000 		movl	$__dso_handle, %edx
 13319      00
 13320 007d BE000000 		movl	$_ZN12_GLOBAL__N_158testTestRunnerFixtureTestFinishIsReportedCorrectlyInstanceE, %esi
 13320      00
 13321 0082 BF000000 		movl	$_ZN12_GLOBAL__N_150TestTestRunnerFixtureTestFinishIsReportedCorrectlyD1Ev, %edi
 13321      00
 13322 0087 48C70500 		movq	$_ZTVN12_GLOBAL__N_150TestTestRunnerFixtureTestFinishIsReportedCorrectlyE+16, _ZN12_GLOBAL__N
 13322      00000000 
 13322      000000
 13323 0092 E8000000 		call	__cxa_atexit
 13323      00
 13324 0097 E8000000 		call	_ZN8UnitTest4Test11GetTestListEv
 13324      00
 13325 009c BA000000 		movl	$_ZN12_GLOBAL__N_158testTestRunnerFixtureTestFinishIsReportedCorrectlyInstanceE, %edx
 13325      00
 13326 00a1 4889C6   		movq	%rax, %rsi
 13327 00a4 BF000000 		movl	$_ZN12_GLOBAL__N_151adderTestRunnerFixtureTestFinishIsReportedCorrectlyE, %edi
 13327      00
 13328 00a9 E8000000 		call	_ZN8UnitTest9ListAdderC1ERNS_8TestListEPNS_4TestE
 13328      00
 13329 00ae 41B85C00 		movl	$92, %r8d
 13329      0000
 13330 00b4 B9000000 		movl	$.LC139, %ecx
 13330      00
 13331 00b9 BA000000 		movl	$.LC102, %edx
 13331      00
 13332 00be BE000000 		movl	$.LC142, %esi
 13332      00
 13333 00c3 BF000000 		movl	$_ZN12_GLOBAL__N_162testTestRunnerFixtureTestFinishIsCalledWithCorrectTimeInstanceE, %edi
 13333      00
 13334 00c8 E8000000 		call	_ZN8UnitTest4TestC2EPKcS2_S2_i
 13334      00
 13335 00cd BA000000 		movl	$__dso_handle, %edx
 13335      00
 13336 00d2 BE000000 		movl	$_ZN12_GLOBAL__N_162testTestRunnerFixtureTestFinishIsCalledWithCorrectTimeInstanceE, %esi
 13336      00
 13337 00d7 BF000000 		movl	$_ZN12_GLOBAL__N_154TestTestRunnerFixtureTestFinishIsCalledWithCorrectTimeD1Ev, %edi
 13337      00
 13338 00dc 48C70500 		movq	$_ZTVN12_GLOBAL__N_154TestTestRunnerFixtureTestFinishIsCalledWithCorrectTimeE+16, _ZN12_GLOBA
 13338      00000000 
 13338      000000
 13339 00e7 E8000000 		call	__cxa_atexit
 13339      00
 13340 00ec E8000000 		call	_ZN8UnitTest4Test11GetTestListEv
 13340      00
 13341 00f1 BA000000 		movl	$_ZN12_GLOBAL__N_162testTestRunnerFixtureTestFinishIsCalledWithCorrectTimeInstanceE, %edx
 13341      00
 13342 00f6 4889C6   		movq	%rax, %rsi
 13343 00f9 BF000000 		movl	$_ZN12_GLOBAL__N_155adderTestRunnerFixtureTestFinishIsCalledWithCorrectTimeE, %edi
 13343      00
 13344 00fe E8000000 		call	_ZN8UnitTest9ListAdderC1ERNS_8TestListEPNS_4TestE
 13344      00
 13345 0103 41B86500 		movl	$101, %r8d
 13345      0000
 13346 0109 B9000000 		movl	$.LC139, %ecx
 13346      00
 13347 010e BA000000 		movl	$.LC102, %edx
 13347      00
 13348 0113 BE000000 		movl	$.LC143, %esi
 13348      00
 13349 0118 BF000000 		movl	$_ZN12_GLOBAL__N_164testTestRunnerFixtureFailureCountIsZeroWhenNoTestsAreRunInstanceE, %edi
 13349      00
 13350 011d E8000000 		call	_ZN8UnitTest4TestC2EPKcS2_S2_i
 13350      00
 13351 0122 BA000000 		movl	$__dso_handle, %edx
 13351      00
 13352 0127 BE000000 		movl	$_ZN12_GLOBAL__N_164testTestRunnerFixtureFailureCountIsZeroWhenNoTestsAreRunInstanceE, %esi
 13352      00
 13353 012c BF000000 		movl	$_ZN12_GLOBAL__N_156TestTestRunnerFixtureFailureCountIsZeroWhenNoTestsAreRunD1Ev, %edi
 13353      00
 13354 0131 48C70500 		movq	$_ZTVN12_GLOBAL__N_156TestTestRunnerFixtureFailureCountIsZeroWhenNoTestsAreRunE+16, _ZN12_GLO
 13354      00000000 
 13354      000000
 13355 013c E8000000 		call	__cxa_atexit
 13355      00
 13356 0141 E8000000 		call	_ZN8UnitTest4Test11GetTestListEv
 13356      00
 13357 0146 BA000000 		movl	$_ZN12_GLOBAL__N_164testTestRunnerFixtureFailureCountIsZeroWhenNoTestsAreRunInstanceE, %edx
 13357      00
 13358 014b 4889C6   		movq	%rax, %rsi
 13359 014e BF000000 		movl	$_ZN12_GLOBAL__N_157adderTestRunnerFixtureFailureCountIsZeroWhenNoTestsAreRunE, %edi
 13359      00
 13360 0153 E8000000 		call	_ZN8UnitTest9ListAdderC1ERNS_8TestListEPNS_4TestE
 13360      00
 13361 0158 41B86C00 		movl	$108, %r8d
 13361      0000
 13362 015e B9000000 		movl	$.LC139, %ecx
 13362      00
 13363 0163 BA000000 		movl	$.LC102, %edx
 13363      00
 13364 0168 BE000000 		movl	$.LC144, %esi
 13364      00
 13365 016d BF000000 		movl	$_ZN12_GLOBAL__N_165testTestRunnerFixtureCallsReportFailureOncePerFailingTestInstanceE, %edi
 13365      00
 13366 0172 E8000000 		call	_ZN8UnitTest4TestC2EPKcS2_S2_i
 13366      00
 13367 0177 BA000000 		movl	$__dso_handle, %edx
 13367      00
 13368 017c BE000000 		movl	$_ZN12_GLOBAL__N_165testTestRunnerFixtureCallsReportFailureOncePerFailingTestInstanceE, %esi
 13368      00
 13369 0181 BF000000 		movl	$_ZN12_GLOBAL__N_157TestTestRunnerFixtureCallsReportFailureOncePerFailingTestD1Ev, %edi
 13369      00
 13370 0186 48C70500 		movq	$_ZTVN12_GLOBAL__N_157TestTestRunnerFixtureCallsReportFailureOncePerFailingTestE+16, _ZN12_GL
 13370      00000000 
 13370      000000
 13371 0191 E8000000 		call	__cxa_atexit
 13371      00
 13372 0196 E8000000 		call	_ZN8UnitTest4Test11GetTestListEv
 13372      00
 13373 019b BA000000 		movl	$_ZN12_GLOBAL__N_165testTestRunnerFixtureCallsReportFailureOncePerFailingTestInstanceE, %edx
 13373      00
 13374 01a0 4889C6   		movq	%rax, %rsi
 13375 01a3 BF000000 		movl	$_ZN12_GLOBAL__N_158adderTestRunnerFixtureCallsReportFailureOncePerFailingTestE, %edi
 13375      00
 13376 01a8 E8000000 		call	_ZN8UnitTest9ListAdderC1ERNS_8TestListEPNS_4TestE
 13376      00
 13377 01ad 41B87900 		movl	$121, %r8d
 13377      0000
 13378 01b3 B9000000 		movl	$.LC139, %ecx
 13378      00
 13379 01b8 BA000000 		movl	$.LC102, %edx
 13379      00
 13380 01bd BE000000 		movl	$.LC145, %esi
 13380      00
 13381 01c2 BF000000 		movl	$_ZN12_GLOBAL__N_164testTestRunnerFixtureTestsThatAssertAreReportedAsFailingInstanceE, %edi
 13381      00
 13382 01c7 E8000000 		call	_ZN8UnitTest4TestC2EPKcS2_S2_i
 13382      00
 13383 01cc BA000000 		movl	$__dso_handle, %edx
 13383      00
 13384 01d1 BE000000 		movl	$_ZN12_GLOBAL__N_164testTestRunnerFixtureTestsThatAssertAreReportedAsFailingInstanceE, %esi
 13384      00
 13385 01d6 BF000000 		movl	$_ZN12_GLOBAL__N_156TestTestRunnerFixtureTestsThatAssertAreReportedAsFailingD1Ev, %edi
 13385      00
 13386 01db 48C70500 		movq	$_ZTVN12_GLOBAL__N_156TestTestRunnerFixtureTestsThatAssertAreReportedAsFailingE+16, _ZN12_GLO
 13386      00000000 
 13386      000000
 13387 01e6 E8000000 		call	__cxa_atexit
 13387      00
 13388 01eb E8000000 		call	_ZN8UnitTest4Test11GetTestListEv
 13388      00
 13389 01f0 BA000000 		movl	$_ZN12_GLOBAL__N_164testTestRunnerFixtureTestsThatAssertAreReportedAsFailingInstanceE, %edx
 13389      00
 13390 01f5 4889C6   		movq	%rax, %rsi
 13391 01f8 BF000000 		movl	$_ZN12_GLOBAL__N_157adderTestRunnerFixtureTestsThatAssertAreReportedAsFailingE, %edi
 13391      00
 13392 01fd E8000000 		call	_ZN8UnitTest9ListAdderC1ERNS_8TestListEPNS_4TestE
 13392      00
 13393 0202 41B88300 		movl	$131, %r8d
 13393      0000
 13394 0208 B9000000 		movl	$.LC139, %ecx
 13394      00
 13395 020d BA000000 		movl	$.LC102, %edx
 13395      00
 13396 0212 BE000000 		movl	$.LC146, %esi
 13396      00
 13397 0217 BF000000 		movl	$_ZN12_GLOBAL__N_156testTestRunnerFixtureReporterNotifiedOfTestCountInstanceE, %edi
 13397      00
 13398 021c E8000000 		call	_ZN8UnitTest4TestC2EPKcS2_S2_i
 13398      00
 13399 0221 BA000000 		movl	$__dso_handle, %edx
 13399      00
 13400 0226 BE000000 		movl	$_ZN12_GLOBAL__N_156testTestRunnerFixtureReporterNotifiedOfTestCountInstanceE, %esi
 13400      00
 13401 022b BF000000 		movl	$_ZN12_GLOBAL__N_148TestTestRunnerFixtureReporterNotifiedOfTestCountD1Ev, %edi
 13401      00
 13402 0230 48C70500 		movq	$_ZTVN12_GLOBAL__N_148TestTestRunnerFixtureReporterNotifiedOfTestCountE+16, _ZN12_GLOBAL__N_1
 13402      00000000 
 13402      000000
 13403 023b E8000000 		call	__cxa_atexit
 13403      00
 13404 0240 E8000000 		call	_ZN8UnitTest4Test11GetTestListEv
 13404      00
 13405 0245 BA000000 		movl	$_ZN12_GLOBAL__N_156testTestRunnerFixtureReporterNotifiedOfTestCountInstanceE, %edx
 13405      00
 13406 024a 4889C6   		movq	%rax, %rsi
 13407 024d BF000000 		movl	$_ZN12_GLOBAL__N_149adderTestRunnerFixtureReporterNotifiedOfTestCountE, %edi
 13407      00
 13408 0252 E8000000 		call	_ZN8UnitTest9ListAdderC1ERNS_8TestListEPNS_4TestE
 13408      00
 13409 0257 41B89000 		movl	$144, %r8d
 13409      0000
 13410 025d B9000000 		movl	$.LC139, %ecx
 13410      00
 13411 0262 BA000000 		movl	$.LC102, %edx
 13411      00
 13412 0267 BE000000 		movl	$.LC147, %esi
 13412      00
 13413 026c BF000000 		movl	$_ZN12_GLOBAL__N_158testTestRunnerFixtureReporterNotifiedOfFailedTestsInstanceE, %edi
 13413      00
 13414 0271 E8000000 		call	_ZN8UnitTest4TestC2EPKcS2_S2_i
 13414      00
 13415 0276 BA000000 		movl	$__dso_handle, %edx
 13415      00
 13416 027b BE000000 		movl	$_ZN12_GLOBAL__N_158testTestRunnerFixtureReporterNotifiedOfFailedTestsInstanceE, %esi
 13416      00
 13417 0280 BF000000 		movl	$_ZN12_GLOBAL__N_150TestTestRunnerFixtureReporterNotifiedOfFailedTestsD1Ev, %edi
 13417      00
 13418 0285 48C70500 		movq	$_ZTVN12_GLOBAL__N_150TestTestRunnerFixtureReporterNotifiedOfFailedTestsE+16, _ZN12_GLOBAL__N
 13418      00000000 
 13418      000000
 13419 0290 E8000000 		call	__cxa_atexit
 13419      00
 13420 0295 E8000000 		call	_ZN8UnitTest4Test11GetTestListEv
 13420      00
 13421 029a BA000000 		movl	$_ZN12_GLOBAL__N_158testTestRunnerFixtureReporterNotifiedOfFailedTestsInstanceE, %edx
 13421      00
 13422 029f 4889C6   		movq	%rax, %rsi
 13423 02a2 BF000000 		movl	$_ZN12_GLOBAL__N_151adderTestRunnerFixtureReporterNotifiedOfFailedTestsE, %edi
 13423      00
 13424 02a7 E8000000 		call	_ZN8UnitTest9ListAdderC1ERNS_8TestListEPNS_4TestE
 13424      00
 13425 02ac 41B89D00 		movl	$157, %r8d
 13425      0000
 13426 02b2 B9000000 		movl	$.LC139, %ecx
 13426      00
 13427 02b7 BA000000 		movl	$.LC102, %edx
 13427      00
 13428 02bc BE000000 		movl	$.LC148, %esi
 13428      00
 13429 02c1 BF000000 		movl	$_ZN12_GLOBAL__N_155testTestRunnerFixtureReporterNotifiedOfFailuresInstanceE, %edi
 13429      00
 13430 02c6 E8000000 		call	_ZN8UnitTest4TestC2EPKcS2_S2_i
 13430      00
 13431 02cb BA000000 		movl	$__dso_handle, %edx
 13431      00
 13432 02d0 BE000000 		movl	$_ZN12_GLOBAL__N_155testTestRunnerFixtureReporterNotifiedOfFailuresInstanceE, %esi
 13432      00
 13433 02d5 BF000000 		movl	$_ZN12_GLOBAL__N_147TestTestRunnerFixtureReporterNotifiedOfFailuresD1Ev, %edi
 13433      00
 13434 02da 48C70500 		movq	$_ZTVN12_GLOBAL__N_147TestTestRunnerFixtureReporterNotifiedOfFailuresE+16, _ZN12_GLOBAL__N_15
 13434      00000000 
 13434      000000
 13435 02e5 E8000000 		call	__cxa_atexit
 13435      00
 13436 02ea E8000000 		call	_ZN8UnitTest4Test11GetTestListEv
 13436      00
 13437 02ef BA000000 		movl	$_ZN12_GLOBAL__N_155testTestRunnerFixtureReporterNotifiedOfFailuresInstanceE, %edx
 13437      00
 13438 02f4 4889C6   		movq	%rax, %rsi
 13439 02f7 BF000000 		movl	$_ZN12_GLOBAL__N_148adderTestRunnerFixtureReporterNotifiedOfFailuresE, %edi
 13439      00
 13440 02fc E8000000 		call	_ZN8UnitTest9ListAdderC1ERNS_8TestListEPNS_4TestE
 13440      00
 13441 0301 41B8AA00 		movl	$170, %r8d
 13441      0000
 13442 0307 B9000000 		movl	$.LC139, %ecx
 13442      00
 13443 030c BA000000 		movl	$.LC102, %edx
 13443      00
 13444 0311 BE000000 		movl	$.LC149, %esi
 13444      00
 13445 0316 BF000000 		movl	$_ZN12_GLOBAL__N_163testTestRunnerFixtureSlowTestPassesForHighTimeThresholdInstanceE, %edi
 13445      00
 13446 031b E8000000 		call	_ZN8UnitTest4TestC2EPKcS2_S2_i
 13446      00
 13447 0320 BA000000 		movl	$__dso_handle, %edx
 13447      00
 13448 0325 BE000000 		movl	$_ZN12_GLOBAL__N_163testTestRunnerFixtureSlowTestPassesForHighTimeThresholdInstanceE, %esi
 13448      00
 13449 032a BF000000 		movl	$_ZN12_GLOBAL__N_155TestTestRunnerFixtureSlowTestPassesForHighTimeThresholdD1Ev, %edi
 13449      00
 13450 032f 48C70500 		movq	$_ZTVN12_GLOBAL__N_155TestTestRunnerFixtureSlowTestPassesForHighTimeThresholdE+16, _ZN12_GLOB
 13450      00000000 
 13450      000000
 13451 033a E8000000 		call	__cxa_atexit
 13451      00
 13452 033f E8000000 		call	_ZN8UnitTest4Test11GetTestListEv
 13452      00
 13453 0344 BA000000 		movl	$_ZN12_GLOBAL__N_163testTestRunnerFixtureSlowTestPassesForHighTimeThresholdInstanceE, %edx
 13453      00
 13454 0349 4889C6   		movq	%rax, %rsi
 13455 034c BF000000 		movl	$_ZN12_GLOBAL__N_156adderTestRunnerFixtureSlowTestPassesForHighTimeThresholdE, %edi
 13455      00
 13456 0351 E8000000 		call	_ZN8UnitTest9ListAdderC1ERNS_8TestListEPNS_4TestE
 13456      00
 13457 0356 41B8B300 		movl	$179, %r8d
 13457      0000
 13458 035c B9000000 		movl	$.LC139, %ecx
 13458      00
 13459 0361 BA000000 		movl	$.LC102, %edx
 13459      00
 13460 0366 BE000000 		movl	$.LC150, %esi
 13460      00
 13461 036b BF000000 		movl	$_ZN12_GLOBAL__N_161testTestRunnerFixtureSlowTestFailsForLowTimeThresholdInstanceE, %edi
 13461      00
 13462 0370 E8000000 		call	_ZN8UnitTest4TestC2EPKcS2_S2_i
 13462      00
 13463 0375 BA000000 		movl	$__dso_handle, %edx
 13463      00
 13464 037a BE000000 		movl	$_ZN12_GLOBAL__N_161testTestRunnerFixtureSlowTestFailsForLowTimeThresholdInstanceE, %esi
 13464      00
 13465 037f BF000000 		movl	$_ZN12_GLOBAL__N_153TestTestRunnerFixtureSlowTestFailsForLowTimeThresholdD1Ev, %edi
 13465      00
 13466 0384 48C70500 		movq	$_ZTVN12_GLOBAL__N_153TestTestRunnerFixtureSlowTestFailsForLowTimeThresholdE+16, _ZN12_GLOBAL
 13466      00000000 
 13466      000000
 13467 038f E8000000 		call	__cxa_atexit
 13467      00
 13468 0394 E8000000 		call	_ZN8UnitTest4Test11GetTestListEv
 13468      00
 13469 0399 BA000000 		movl	$_ZN12_GLOBAL__N_161testTestRunnerFixtureSlowTestFailsForLowTimeThresholdInstanceE, %edx
 13469      00
 13470 039e 4889C6   		movq	%rax, %rsi
 13471 03a1 BF000000 		movl	$_ZN12_GLOBAL__N_154adderTestRunnerFixtureSlowTestFailsForLowTimeThresholdE, %edi
 13471      00
 13472 03a6 E8000000 		call	_ZN8UnitTest9ListAdderC1ERNS_8TestListEPNS_4TestE
 13472      00
 13473 03ab 41B8BC00 		movl	$188, %r8d
 13473      0000
 13474 03b1 B9000000 		movl	$.LC139, %ecx
 13474      00
 13475 03b6 BA000000 		movl	$.LC102, %edx
 13475      00
 13476 03bb BE000000 		movl	$.LC151, %esi
 13476      00
 13477 03c0 BF000000 		movl	$_ZN12_GLOBAL__N_165testTestRunnerFixtureSlowTestHasCorrectFailureInformationInstanceE, %edi
 13477      00
 13478 03c5 E8000000 		call	_ZN8UnitTest4TestC2EPKcS2_S2_i
 13478      00
 13479 03ca BA000000 		movl	$__dso_handle, %edx
 13479      00
 13480 03cf BE000000 		movl	$_ZN12_GLOBAL__N_165testTestRunnerFixtureSlowTestHasCorrectFailureInformationInstanceE, %esi
 13480      00
 13481 03d4 BF000000 		movl	$_ZN12_GLOBAL__N_157TestTestRunnerFixtureSlowTestHasCorrectFailureInformationD1Ev, %edi
 13481      00
 13482 03d9 48C70500 		movq	$_ZTVN12_GLOBAL__N_157TestTestRunnerFixtureSlowTestHasCorrectFailureInformationE+16, _ZN12_GL
 13482      00000000 
 13482      000000
 13483 03e4 E8000000 		call	__cxa_atexit
 13483      00
 13484 03e9 E8000000 		call	_ZN8UnitTest4Test11GetTestListEv
 13484      00
 13485 03ee BA000000 		movl	$_ZN12_GLOBAL__N_165testTestRunnerFixtureSlowTestHasCorrectFailureInformationInstanceE, %edx
 13485      00
 13486 03f3 4889C6   		movq	%rax, %rsi
 13487 03f6 BF000000 		movl	$_ZN12_GLOBAL__N_158adderTestRunnerFixtureSlowTestHasCorrectFailureInformationE, %edi
 13487      00
 13488 03fb E8000000 		call	_ZN8UnitTest9ListAdderC1ERNS_8TestListEPNS_4TestE
 13488      00
 13489 0400 41B8CD00 		movl	$205, %r8d
 13489      0000
 13490 0406 B9000000 		movl	$.LC139, %ecx
 13490      00
 13491 040b BA000000 		movl	$.LC102, %edx
 13491      00
 13492 0410 BE000000 		movl	$.LC152, %esi
 13492      00
 13493 0415 BF000000 		movl	$_ZN12_GLOBAL__N_160testTestRunnerFixtureSlowTestWithTimeExemptionPassesInstanceE, %edi
 13493      00
 13494 041a E8000000 		call	_ZN8UnitTest4TestC2EPKcS2_S2_i
 13494      00
 13495 041f BA000000 		movl	$__dso_handle, %edx
 13495      00
 13496 0424 BE000000 		movl	$_ZN12_GLOBAL__N_160testTestRunnerFixtureSlowTestWithTimeExemptionPassesInstanceE, %esi
 13496      00
 13497 0429 BF000000 		movl	$_ZN12_GLOBAL__N_152TestTestRunnerFixtureSlowTestWithTimeExemptionPassesD1Ev, %edi
 13497      00
 13498 042e 48C70500 		movq	$_ZTVN12_GLOBAL__N_152TestTestRunnerFixtureSlowTestWithTimeExemptionPassesE+16, _ZN12_GLOBAL_
 13498      00000000 
 13498      000000
 13499 0439 E8000000 		call	__cxa_atexit
 13499      00
 13500 043e E8000000 		call	_ZN8UnitTest4Test11GetTestListEv
 13500      00
 13501 0443 BA000000 		movl	$_ZN12_GLOBAL__N_160testTestRunnerFixtureSlowTestWithTimeExemptionPassesInstanceE, %edx
 13501      00
 13502 0448 4889C6   		movq	%rax, %rsi
 13503 044b BF000000 		movl	$_ZN12_GLOBAL__N_153adderTestRunnerFixtureSlowTestWithTimeExemptionPassesE, %edi
 13503      00
 13504 0450 E8000000 		call	_ZN8UnitTest9ListAdderC1ERNS_8TestListEPNS_4TestE
 13504      00
 13505 0455 41B8F200 		movl	$242, %r8d
 13505      0000
 13506 045b B9000000 		movl	$.LC139, %ecx
 13506      00
 13507 0460 BA000000 		movl	$.LC102, %edx
 13507      00
 13508 0465 BE000000 		movl	$.LC153, %esi
 13508      00
 13509 046a BF000000 		movl	$_ZN12_GLOBAL__N_170testTestSuiteFixtureTestRunnerRunsAllSuitesIfNullSuiteIsPassedInstanceE, 
 13509      00
 13510 046f E8000000 		call	_ZN8UnitTest4TestC2EPKcS2_S2_i
 13510      00
 13511 0474 BA000000 		movl	$__dso_handle, %edx
 13511      00
 13512 0479 BE000000 		movl	$_ZN12_GLOBAL__N_170testTestSuiteFixtureTestRunnerRunsAllSuitesIfNullSuiteIsPassedInstanceE, 
 13512      00
 13513 047e BF000000 		movl	$_ZN12_GLOBAL__N_162TestTestSuiteFixtureTestRunnerRunsAllSuitesIfNullSuiteIsPassedD1Ev, %edi
 13513      00
 13514 0483 48C70500 		movq	$_ZTVN12_GLOBAL__N_162TestTestSuiteFixtureTestRunnerRunsAllSuitesIfNullSuiteIsPassedE+16, _ZN
 13514      00000000 
 13514      000000
 13515 048e E8000000 		call	__cxa_atexit
 13515      00
 13516 0493 E8000000 		call	_ZN8UnitTest4Test11GetTestListEv
 13516      00
 13517 0498 BA000000 		movl	$_ZN12_GLOBAL__N_170testTestSuiteFixtureTestRunnerRunsAllSuitesIfNullSuiteIsPassedInstanceE, 
 13517      00
 13518 049d 4889C6   		movq	%rax, %rsi
 13519 04a0 BF000000 		movl	$_ZN12_GLOBAL__N_163adderTestSuiteFixtureTestRunnerRunsAllSuitesIfNullSuiteIsPassedE, %edi
 13519      00
 13520 04a5 E8000000 		call	_ZN8UnitTest9ListAdderC1ERNS_8TestListEPNS_4TestE
 13520      00
 13521 04aa 41B8F800 		movl	$248, %r8d
 13521      0000
 13522 04b0 B9000000 		movl	$.LC139, %ecx
 13522      00
 13523 04b5 BA000000 		movl	$.LC102, %edx
 13523      00
 13524 04ba BE000000 		movl	$.LC154, %esi
 13524      00
 13525 04bf BF000000 		movl	$_ZN12_GLOBAL__N_160testTestSuiteFixtureTestRunnerRunsOnlySpecifiedSuiteInstanceE, %edi
 13525      00
 13526 04c4 E8000000 		call	_ZN8UnitTest4TestC2EPKcS2_S2_i
 13526      00
 13527 04c9 BA000000 		movl	$__dso_handle, %edx
 13527      00
 13528 04ce BE000000 		movl	$_ZN12_GLOBAL__N_160testTestSuiteFixtureTestRunnerRunsOnlySpecifiedSuiteInstanceE, %esi
 13528      00
 13529 04d3 BF000000 		movl	$_ZN12_GLOBAL__N_152TestTestSuiteFixtureTestRunnerRunsOnlySpecifiedSuiteD1Ev, %edi
 13529      00
 13530 04d8 48C70500 		movq	$_ZTVN12_GLOBAL__N_152TestTestSuiteFixtureTestRunnerRunsOnlySpecifiedSuiteE+16, _ZN12_GLOBAL_
 13530      00000000 
 13530      000000
 13531 04e3 E8000000 		call	__cxa_atexit
 13531      00
 13532 04e8 E8000000 		call	_ZN8UnitTest4Test11GetTestListEv
 13532      00
 13533 04ed BA000000 		movl	$_ZN12_GLOBAL__N_160testTestSuiteFixtureTestRunnerRunsOnlySpecifiedSuiteInstanceE, %edx
 13533      00
 13534 04f2 4889C6   		movq	%rax, %rsi
 13535 04f5 BF000000 		movl	$_ZN12_GLOBAL__N_153adderTestSuiteFixtureTestRunnerRunsOnlySpecifiedSuiteE, %edi
 13535      00
 13536 04fa E8000000 		call	_ZN8UnitTest9ListAdderC1ERNS_8TestListEPNS_4TestE
 13536      00
 13537 04ff 41B80F01 		movl	$271, %r8d
 13537      0000
 13538 0505 B9000000 		movl	$.LC139, %ecx
 13538      00
 13539 050a BA000000 		movl	$.LC102, %edx
 13539      00
 13540 050f BE000000 		movl	$.LC155, %esi
 13540      00
 13541 0514 BF000000 		movl	$_ZN12_GLOBAL__N_145testTestMockPredicateBehavesCorrectlyInstanceE, %edi
 13541      00
 13542 0519 E8000000 		call	_ZN8UnitTest4TestC2EPKcS2_S2_i
 13542      00
 13543 051e BA000000 		movl	$__dso_handle, %edx
 13543      00
 13544 0523 BE000000 		movl	$_ZN12_GLOBAL__N_145testTestMockPredicateBehavesCorrectlyInstanceE, %esi
 13544      00
 13545 0528 BF000000 		movl	$_ZN12_GLOBAL__N_137TestTestMockPredicateBehavesCorrectlyD1Ev, %edi
 13545      00
 13546 052d 48C70500 		movq	$_ZTVN12_GLOBAL__N_137TestTestMockPredicateBehavesCorrectlyE+16, _ZN12_GLOBAL__N_145testTestM
 13546      00000000 
 13546      000000
 13547 0538 E8000000 		call	__cxa_atexit
 13547      00
 13548 053d E8000000 		call	_ZN8UnitTest4Test11GetTestListEv
 13548      00
 13549 0542 BA000000 		movl	$_ZN12_GLOBAL__N_145testTestMockPredicateBehavesCorrectlyInstanceE, %edx
 13549      00
 13550 0547 4889C6   		movq	%rax, %rsi
 13551 054a BF000000 		movl	$_ZN12_GLOBAL__N_138adderTestMockPredicateBehavesCorrectlyE, %edi
 13551      00
 13552 054f E8000000 		call	_ZN8UnitTest9ListAdderC1ERNS_8TestListEPNS_4TestE
 13552      00
 13553 0554 41B81A01 		movl	$282, %r8d
 13553      0000
 13554 055a B9000000 		movl	$.LC139, %ecx
 13554      00
 13555 055f BA000000 		movl	$.LC102, %edx
 13555      00
 13556 0564 BE000000 		movl	$.LC156, %esi
 13556      00
 13557 0569 BF000000 		movl	$_ZN12_GLOBAL__N_165testTestRunnerFixtureTestRunnerRunsTestsThatPassPredicateInstanceE, %edi
 13557      00
 13558 056e E8000000 		call	_ZN8UnitTest4TestC2EPKcS2_S2_i
 13558      00
 13559 0573 BA000000 		movl	$__dso_handle, %edx
 13559      00
 13560 0578 BE000000 		movl	$_ZN12_GLOBAL__N_165testTestRunnerFixtureTestRunnerRunsTestsThatPassPredicateInstanceE, %esi
 13560      00
 13561 057d BF000000 		movl	$_ZN12_GLOBAL__N_157TestTestRunnerFixtureTestRunnerRunsTestsThatPassPredicateD1Ev, %edi
 13561      00
 13562 0582 48C70500 		movq	$_ZTVN12_GLOBAL__N_157TestTestRunnerFixtureTestRunnerRunsTestsThatPassPredicateE+16, _ZN12_GL
 13562      00000000 
 13562      000000
 13563 058d E8000000 		call	__cxa_atexit
 13563      00
 13564 0592 E8000000 		call	_ZN8UnitTest4Test11GetTestListEv
 13564      00
 13565 0597 BA000000 		movl	$_ZN12_GLOBAL__N_165testTestRunnerFixtureTestRunnerRunsTestsThatPassPredicateInstanceE, %edx
 13565      00
 13566 059c 4889C6   		movq	%rax, %rsi
 13567 059f BF000000 		movl	$_ZN12_GLOBAL__N_158adderTestRunnerFixtureTestRunnerRunsTestsThatPassPredicateE, %edi
 13567      00
 13568 05a4 E8000000 		call	_ZN8UnitTest9ListAdderC1ERNS_8TestListEPNS_4TestE
 13568      00
 13569 05a9 41B82701 		movl	$295, %r8d
 13569      0000
 13570 05af B9000000 		movl	$.LC139, %ecx
 13570      00
 13571 05b4 BA000000 		movl	$.LC102, %edx
 13571      00
 13572 05b9 BE000000 		movl	$.LC157, %esi
 13572      00
 13573 05be BF000000 		movl	$_ZN12_GLOBAL__N_188testTestRunnerFixtureTestRunnerOnlyRunsTestsInSpecifiedSuiteAndThatPassPr
 13573      00
 13574 05c3 E8000000 		call	_ZN8UnitTest4TestC2EPKcS2_S2_i
 13574      00
 13575 05c8 BA000000 		movl	$__dso_handle, %edx
 13575      00
 13576 05cd BE000000 		movl	$_ZN12_GLOBAL__N_188testTestRunnerFixtureTestRunnerOnlyRunsTestsInSpecifiedSuiteAndThatPassPr
 13576      00
 13577 05d2 BF000000 		movl	$_ZN12_GLOBAL__N_180TestTestRunnerFixtureTestRunnerOnlyRunsTestsInSpecifiedSuiteAndThatPassPr
 13577      00
 13578 05d7 48C70500 		movq	$_ZTVN12_GLOBAL__N_180TestTestRunnerFixtureTestRunnerOnlyRunsTestsInSpecifiedSuiteAndThatPass
 13578      00000000 
 13578      000000
 13579 05e2 E8000000 		call	__cxa_atexit
 13579      00
 13580 05e7 E8000000 		call	_ZN8UnitTest4Test11GetTestListEv
 13580      00
 13581 05ec BA000000 		movl	$_ZN12_GLOBAL__N_188testTestRunnerFixtureTestRunnerOnlyRunsTestsInSpecifiedSuiteAndThatPassPr
 13581      00
 13582 05f1 4889C6   		movq	%rax, %rsi
 13583 05f4 BF000000 		movl	$_ZN12_GLOBAL__N_181adderTestRunnerFixtureTestRunnerOnlyRunsTestsInSpecifiedSuiteAndThatPassP
 13583      00
 13584 05f9 4883C408 		addq	$8, %rsp
 13585              		.cfi_def_cfa_offset 8
 13586 05fd E9000000 		jmp	_ZN8UnitTest9ListAdderC1ERNS_8TestListEPNS_4TestE
 13586      00
 13587              		.cfi_endproc
 13588              	.LFE1559:
 13590              		.section	.text.unlikely
 13591              	.LCOLDE158:
 13592              		.section	.text.startup
 13593              	.LHOTE158:
 13594              		.section	.init_array,"aw"
 13595              		.align 8
 13596 0000 00000000 		.quad	_GLOBAL__sub_I_TestTestRunner.cpp
 13596      00000000 
 13597              		.section	.rodata.str1.1
 13598              	.LC159:
 13599 0195 73756974 		.string	"suite"
 13599      6500
 13600              	.LC160:
 13601 019b 62616474 		.string	"badtest"
 13601      65737400 
 13602              		.section	.rodata.str1.8
 13603 0a6c 00000000 		.align 8
 13604              	.LC161:
 13605 0a70 556E6861 		.string	"Unhandled exception in CHECK_EQUAL(\"suite\", reporter.lastStartedSuite)"
 13605      6E646C65 
 13605      64206578 
 13605      63657074 
 13605      696F6E20 
 13606              		.section	.text.unlikely
 13607              	.LCOLDB162:
 13608              		.text
 13609              	.LHOTB162:
 13610 6fa6 662E0F1F 		.p2align 4,,15
 13610      84000000 
 13610      0000
 13612              	_ZN8UnitTest11ExecuteTestIN12_GLOBAL__N_182TestRunnerFixtureTestRunnerOnlyRunsTestsInSpecifiedSuite
 13613              	.LFB1597:
 13614              		.cfi_startproc
 13615              		.cfi_personality 0x3,__gxx_personality_v0
 13616              		.cfi_lsda 0x3,.LLSDA1597
 13617 6fb0 4155     		pushq	%r13
 13618              		.cfi_def_cfa_offset 16
 13619              		.cfi_offset 13, -16
 13620 6fb2 4154     		pushq	%r12
 13621              		.cfi_def_cfa_offset 24
 13622              		.cfi_offset 12, -24
 13623 6fb4 55       		pushq	%rbp
 13624              		.cfi_def_cfa_offset 32
 13625              		.cfi_offset 6, -32
 13626 6fb5 53       		pushq	%rbx
 13627              		.cfi_def_cfa_offset 40
 13628              		.cfi_offset 3, -40
 13629 6fb6 4889F3   		movq	%rsi, %rbx
 13630 6fb9 4881EC18 		subq	$2072, %rsp
 13630      080000
 13631              		.cfi_def_cfa_offset 2112
 13632 6fc0 48893C24 		movq	%rdi, (%rsp)
 13633 6fc4 48897424 		movq	%rsi, 8(%rsp)
 13633      08
 13634 6fc9 64488B04 		movq	%fs:40, %rax
 13634      25280000 
 13634      00
 13635 6fd2 48898424 		movq	%rax, 2056(%rsp)
 13635      08080000 
 13636 6fda 31C0     		xorl	%eax, %eax
 13637              	.LEHB489:
 13638 6fdc E8000000 		call	_ZN8UnitTest11CurrentTest7DetailsEv
 13638      00
 13639              	.LEHE489:
 13640 6fe1 488DBC24 		leaq	928(%rsp), %rdi
 13640      A0030000 
 13641 6fe9 488918   		movq	%rbx, (%rax)
 13642              	.LEHB490:
 13643 6fec E8000000 		call	_ZN8UnitTest16SignalTranslatorC1Ev
 13643      00
 13644              	.LEHE490:
 13645 6ff1 488B3D00 		movq	_ZN8UnitTest16SignalTranslator12s_jumpTargetE(%rip), %rdi
 13645      000000
 13646 6ff8 BE010000 		movl	$1, %esi
 13646      00
 13647 6ffd E8000000 		call	__sigsetjmp
 13647      00
 13648 7002 85C0     		testl	%eax, %eax
 13649 7004 742A     		je	.L1486
 13650 7006 BF080000 		movl	$8, %edi
 13650      00
 13651 700b E8000000 		call	__cxa_allocate_exception
 13651      00
 13652 7010 31D2     		xorl	%edx, %edx
 13653 7012 48C70000 		movq	$.LC61, (%rax)
 13653      000000
 13654 7019 BE000000 		movl	$_ZTIPKc, %esi
 13654      00
 13655 701e 4889C7   		movq	%rax, %rdi
 13656              	.LEHB491:
 13657 7021 E8000000 		call	__cxa_throw
 13657      00
 13658 7026 662E0F1F 		.p2align 4,,10
 13658      84000000 
 13658      0000
 13659              		.p2align 3
 13660              	.L1486:
 13661 7030 488DBC24 		leaq	256(%rsp), %rdi
 13661      00010000 
 13662 7038 4531C0   		xorl	%r8d, %r8d
 13663 703b B9000000 		movl	$.LC80, %ecx
 13663      00
 13664 7040 BA000000 		movl	$.LC159, %edx
 13664      00
 13665 7045 BE000000 		movl	$.LC123, %esi
 13665      00
 13666 704a E8000000 		call	_ZN8UnitTest4TestC1EPKcS2_S2_i
 13666      00
 13667              	.LEHE491:
 13668 704f 488DBC24 		leaq	320(%rsp), %rdi
 13668      40010000 
 13669 7057 4531C0   		xorl	%r8d, %r8d
 13670 705a B9000000 		movl	$.LC80, %ecx
 13670      00
 13671 705f BA000000 		movl	$.LC102, %edx
 13671      00
 13672 7064 BE000000 		movl	$.LC123, %esi
 13672      00
 13673              	.LEHB492:
 13674 7069 E8000000 		call	_ZN8UnitTest4TestC1EPKcS2_S2_i
 13674      00
 13675              	.LEHE492:
 13676 706e 488DBC24 		leaq	384(%rsp), %rdi
 13676      80010000 
 13677 7076 4531C0   		xorl	%r8d, %r8d
 13678 7079 B9000000 		movl	$.LC80, %ecx
 13678      00
 13679 707e BA000000 		movl	$.LC159, %edx
 13679      00
 13680 7083 BE000000 		movl	$.LC160, %esi
 13680      00
 13681              	.LEHB493:
 13682 7088 E8000000 		call	_ZN8UnitTest4TestC1EPKcS2_S2_i
 13682      00
 13683              	.LEHE493:
 13684 708d 488DBC24 		leaq	448(%rsp), %rdi
 13684      C0010000 
 13685 7095 4531C0   		xorl	%r8d, %r8d
 13686 7098 B9000000 		movl	$.LC80, %ecx
 13686      00
 13687 709d BA000000 		movl	$.LC102, %edx
 13687      00
 13688 70a2 BE000000 		movl	$.LC160, %esi
 13688      00
 13689              	.LEHB494:
 13690 70a7 E8000000 		call	_ZN8UnitTest4TestC1EPKcS2_S2_i
 13690      00
 13691              	.LEHE494:
 13692 70ac 488B2C24 		movq	(%rsp), %rbp
 13693 70b0 488DB424 		leaq	256(%rsp), %rsi
 13693      00010000 
 13694 70b8 488D9D48 		leaq	2120(%rbp), %rbx
 13694      080000
 13695 70bf 4889DF   		movq	%rbx, %rdi
 13696              	.LEHB495:
 13697 70c2 E8000000 		call	_ZN8UnitTest8TestList3AddEPNS_4TestE
 13697      00
 13698 70c7 488DB424 		leaq	320(%rsp), %rsi
 13698      40010000 
 13699 70cf 4889DF   		movq	%rbx, %rdi
 13700 70d2 E8000000 		call	_ZN8UnitTest8TestList3AddEPNS_4TestE
 13700      00
 13701 70d7 488DB424 		leaq	384(%rsp), %rsi
 13701      80010000 
 13702 70df 4889DF   		movq	%rbx, %rdi
 13703 70e2 E8000000 		call	_ZN8UnitTest8TestList3AddEPNS_4TestE
 13703      00
 13704 70e7 488DB424 		leaq	448(%rsp), %rsi
 13704      C0010000 
 13705 70ef 4889DF   		movq	%rbx, %rdi
 13706 70f2 E8000000 		call	_ZN8UnitTest8TestList3AddEPNS_4TestE
 13706      00
 13707 70f7 E8000000 		call	_ZN8UnitTest11CurrentTest7ResultsEv
 13707      00
 13708 70fc 4C8B20   		movq	(%rax), %r12
 13709 70ff E8000000 		call	_ZN8UnitTest11CurrentTest7DetailsEv
 13709      00
 13710 7104 4889DF   		movq	%rbx, %rdi
 13711 7107 4C8B28   		movq	(%rax), %r13
 13712 710a E8000000 		call	_ZNK8UnitTest8TestList7GetHeadEv
 13712      00
 13713 710f 4885C0   		testq	%rax, %rax
 13714 7112 4889C3   		movq	%rax, %rbx
 13715 7115 744D     		je	.L1439
 13716 7117 660F1F84 		.p2align 4,,10
 13716      00000000 
 13716      00
 13717              		.p2align 3
 13718              	.L1485:
 13719 7120 BA000000 		movl	$.LC159, %edx
 13719      00
 13720 7125 4889DE   		movq	%rbx, %rsi
 13721 7128 4889EF   		movq	%rbp, %rdi
 13722 712b E8000000 		call	_ZNK8UnitTest10TestRunner13IsTestInSuiteEPKNS_4TestEPKc
 13722      00
 13723 7130 84C0     		testb	%al, %al
 13724 7132 7427     		je	.L1442
 13725 7134 488B7310 		movq	16(%rbx), %rsi
 13726 7138 BF000000 		movl	$.LC123, %edi
 13726      00
 13727 713d B9090000 		movl	$9, %ecx
 13727      00
 13728 7142 F3A6     		repz cmpsb
 13729 7144 7515     		jne	.L1442
 13730 7146 488B0424 		movq	(%rsp), %rax
 13731 714a 31C9     		xorl	%ecx, %ecx
 13732 714c 4889DA   		movq	%rbx, %rdx
 13733 714f 4889EF   		movq	%rbp, %rdi
 13734 7152 488B7008 		movq	8(%rax), %rsi
 13735 7156 E8000000 		call	_ZNK8UnitTest10TestRunner7RunTestEPNS_11TestResultsEPNS_4TestEi
 13735      00
 13736              	.L1442:
 13737 715b 488B5B28 		movq	40(%rbx), %rbx
 13738 715f 4885DB   		testq	%rbx, %rbx
 13739 7162 75BC     		jne	.L1485
 13740              	.L1439:
 13741 7164 488B3C24 		movq	(%rsp), %rdi
 13742 7168 E8000000 		call	_ZNK8UnitTest10TestRunner6FinishEv
 13742      00
 13743 716d E8000000 		call	_ZN8UnitTest11CurrentTest7ResultsEv
 13743      00
 13744 7172 4C8920   		movq	%r12, (%rax)
 13745 7175 E8000000 		call	_ZN8UnitTest11CurrentTest7DetailsEv
 13745      00
 13746              	.LEHE495:
 13747 717a 4C8928   		movq	%r13, (%rax)
 13748              	.LEHB496:
 13749 717d E8000000 		call	_ZN8UnitTest11CurrentTest7DetailsEv
 13749      00
 13750 7182 488B30   		movq	(%rax), %rsi
 13751 7185 488DBC24 		leaq	224(%rsp), %rdi
 13751      E0000000 
 13752 718d BA350100 		movl	$309, %edx
 13752      00
 13753 7192 E8000000 		call	_ZN8UnitTest11TestDetailsC1ERKS0_i
 13753      00
 13754 7197 488B0424 		movq	(%rsp), %rax
 13755 719b C744241C 		movl	$1, 28(%rsp)
 13755      01000000 
 13756 71a3 488D5820 		leaq	32(%rax), %rbx
 13757 71a7 E8000000 		call	_ZN8UnitTest11CurrentTest7ResultsEv
 13757      00
 13758 71ac 488B38   		movq	(%rax), %rdi
 13759 71af 488D8C24 		leaq	224(%rsp), %rcx
 13759      E0000000 
 13760 71b7 488D7424 		leaq	28(%rsp), %rsi
 13760      1C
 13761 71bc 4889DA   		movq	%rbx, %rdx
 13762 71bf E8000000 		call	_ZN8UnitTest10CheckEqualIiiEEvRNS_11TestResultsERKT_RKT0_RKNS_11TestDetailsE
 13762      00
 13763              	.LEHE496:
 13764              	.L1445:
 13765              	.LEHB497:
 13766 71c4 E8000000 		call	_ZN8UnitTest11CurrentTest7DetailsEv
 13766      00
 13767 71c9 488B30   		movq	(%rax), %rsi
 13768 71cc 488DBC24 		leaq	160(%rsp), %rdi
 13768      A0000000 
 13769 71d4 BA360100 		movl	$310, %edx
 13769      00
 13770 71d9 E8000000 		call	_ZN8UnitTest11TestDetailsC1ERKS0_i
 13770      00
 13771 71de 488B0424 		movq	(%rsp), %rax
 13772 71e2 488D9824 		leaq	292(%rax), %rbx
 13772      010000
 13773 71e9 E8000000 		call	_ZN8UnitTest11CurrentTest7ResultsEv
 13773      00
 13774 71ee 488B38   		movq	(%rax), %rdi
 13775 71f1 488D8C24 		leaq	160(%rsp), %rcx
 13775      A0000000 
 13776 71f9 4889DA   		movq	%rbx, %rdx
 13777 71fc BE000000 		movl	$.LC123, %esi
 13777      00
 13778 7201 E8000000 		call	_ZN8UnitTest10CheckEqualERNS_11TestResultsEPKcPcRKNS_11TestDetailsE
 13778      00
 13779              	.LEHE497:
 13780              	.L1449:
 13781              	.LEHB498:
 13782 7206 E8000000 		call	_ZN8UnitTest11CurrentTest7DetailsEv
 13782      00
 13783 720b 488B30   		movq	(%rax), %rsi
 13784 720e 488D7C24 		leaq	96(%rsp), %rdi
 13784      60
 13785 7213 BA370100 		movl	$311, %edx
 13785      00
 13786 7218 E8000000 		call	_ZN8UnitTest11TestDetailsC1ERKS0_i
 13786      00
 13787 721d 488B1C24 		movq	(%rsp), %rbx
 13788 7221 4883C324 		addq	$36, %rbx
 13789 7225 E8000000 		call	_ZN8UnitTest11CurrentTest7ResultsEv
 13789      00
 13790 722a 488B38   		movq	(%rax), %rdi
 13791 722d 488D4C24 		leaq	96(%rsp), %rcx
 13791      60
 13792 7232 4889DA   		movq	%rbx, %rdx
 13793 7235 BE000000 		movl	$.LC159, %esi
 13793      00
 13794 723a E8000000 		call	_ZN8UnitTest10CheckEqualERNS_11TestResultsEPKcPcRKNS_11TestDetailsE
 13794      00
 13795              	.LEHE498:
 13796              	.L1452:
 13797 723f 488DBC24 		leaq	448(%rsp), %rdi
 13797      C0010000 
 13798              	.LEHB499:
 13799 7247 E8000000 		call	_ZN8UnitTest4TestD1Ev
 13799      00
 13800              	.LEHE499:
 13801 724c 488DBC24 		leaq	384(%rsp), %rdi
 13801      80010000 
 13802              	.LEHB500:
 13803 7254 E8000000 		call	_ZN8UnitTest4TestD1Ev
 13803      00
 13804              	.LEHE500:
 13805 7259 488DBC24 		leaq	320(%rsp), %rdi
 13805      40010000 
 13806              	.LEHB501:
 13807 7261 E8000000 		call	_ZN8UnitTest4TestD1Ev
 13807      00
 13808              	.LEHE501:
 13809 7266 488DBC24 		leaq	256(%rsp), %rdi
 13809      00010000 
 13810              	.LEHB502:
 13811 726e E8000000 		call	_ZN8UnitTest4TestD1Ev
 13811      00
 13812              	.LEHE502:
 13813 7273 488DBC24 		leaq	928(%rsp), %rdi
 13813      A0030000 
 13814              	.LEHB503:
 13815 727b E8000000 		call	_ZN8UnitTest16SignalTranslatorD1Ev
 13815      00
 13816              	.LEHE503:
 13817              	.L1433:
 13818 7280 488B8424 		movq	2056(%rsp), %rax
 13818      08080000 
 13819 7288 64483304 		xorq	%fs:40, %rax
 13819      25280000 
 13819      00
 13820 7291 0F858101 		jne	.L1494
 13820      0000
 13821 7297 4881C418 		addq	$2072, %rsp
 13821      080000
 13822              		.cfi_remember_state
 13823              		.cfi_def_cfa_offset 40
 13824 729e 5B       		popq	%rbx
 13825              		.cfi_def_cfa_offset 32
 13826 729f 5D       		popq	%rbp
 13827              		.cfi_def_cfa_offset 24
 13828 72a0 415C     		popq	%r12
 13829              		.cfi_def_cfa_offset 16
 13830 72a2 415D     		popq	%r13
 13831              		.cfi_def_cfa_offset 8
 13832 72a4 C3       		ret
 13833              	.L1474:
 13834              		.cfi_restore_state
 13835 72a5 4889C3   		movq	%rax, %rbx
 13836 72a8 4889D5   		movq	%rdx, %rbp
 13837              	.L1457:
 13838 72ab 488DBC24 		leaq	928(%rsp), %rdi
 13838      A0030000 
 13839 72b3 E8000000 		call	_ZN8UnitTest16SignalTranslatorD1Ev
 13839      00
 13840 72b8 4889DF   		movq	%rbx, %rdi
 13841 72bb 4889EA   		movq	%rbp, %rdx
 13842              	.L1458:
 13843 72be 4883FA01 		cmpq	$1, %rdx
 13844 72c2 0F84DE00 		je	.L1460
 13844      0000
 13845 72c8 4883FA02 		cmpq	$2, %rdx
 13846 72cc 0F85AE00 		jne	.L1495
 13846      0000
 13847 72d2 E8000000 		call	__cxa_begin_catch
 13847      00
 13848 72d7 488DBC24 		leaq	512(%rsp), %rdi
 13848      00020000 
 13849 72df 4889C3   		movq	%rax, %rbx
 13850              	.LEHB504:
 13851 72e2 E8000000 		call	_ZN8UnitTest15MemoryOutStreamC1Ev
 13851      00
 13852              	.LEHE504:
 13853 72e7 488B03   		movq	(%rbx), %rax
 13854 72ea 4889DF   		movq	%rbx, %rdi
 13855 72ed FF5010   		call	*16(%rax)
 13856 72f0 488DBC24 		leaq	512(%rsp), %rdi
 13856      00020000 
 13857 72f8 BA150000 		movl	$21, %edx
 13857      00
 13858 72fd BE000000 		movl	$.LC69, %esi
 13858      00
 13859 7302 4889C3   		movq	%rax, %rbx
 13860              	.LEHB505:
 13861 7305 E8000000 		call	_ZSt16__ostream_insertIcSt11char_traitsIcEERSt13basic_ostreamIT_T0_ES6_PKS3_l
 13861      00
 13862 730a 488DBC24 		leaq	512(%rsp), %rdi
 13862      00020000 
 13863 7312 4889DE   		movq	%rbx, %rsi
 13864 7315 E8000000 		call	_ZStlsISt11char_traitsIcEERSt13basic_ostreamIcT_ES5_PKc
 13864      00
 13865 731a 488DBC24 		leaq	512(%rsp), %rdi
 13865      00020000 
 13866 7322 E8000000 		call	_ZNK8UnitTest15MemoryOutStream7GetTextEv
 13866      00
 13867 7327 4889C3   		movq	%rax, %rbx
 13868 732a E8000000 		call	_ZN8UnitTest11CurrentTest7ResultsEv
 13868      00
 13869 732f 488B7424 		movq	8(%rsp), %rsi
 13869      08
 13870 7334 488B38   		movq	(%rax), %rdi
 13871 7337 4889DA   		movq	%rbx, %rdx
 13872 733a E8000000 		call	_ZN8UnitTest11TestResults13OnTestFailureERKNS_11TestDetailsEPKc
 13872      00
 13873              	.LEHE505:
 13874 733f 488DBC24 		leaq	512(%rsp), %rdi
 13874      00020000 
 13875              	.LEHB506:
 13876 7347 E8000000 		call	_ZN8UnitTest15MemoryOutStreamD1Ev
 13876      00
 13877              	.LEHE506:
 13878              	.L1490:
 13879 734c E8000000 		call	__cxa_end_catch
 13879      00
 13880 7351 E92AFFFF 		jmp	.L1433
 13880      FF
 13881              	.L1473:
 13882 7356 4889C7   		movq	%rax, %rdi
 13883 7359 E960FFFF 		jmp	.L1458
 13883      FF
 13884              	.L1471:
 13885 735e 488DBC24 		leaq	512(%rsp), %rdi
 13885      00020000 
 13886 7366 4889C3   		movq	%rax, %rbx
 13887 7369 E8000000 		call	_ZN8UnitTest15MemoryOutStreamD1Ev
 13887      00
 13888              	.L1466:
 13889 736e E8000000 		call	__cxa_end_catch
 13889      00
 13890 7373 4889DF   		movq	%rbx, %rdi
 13891              	.LEHB507:
 13892 7376 E8000000 		call	_Unwind_Resume
 13892      00
 13893              	.LEHE507:
 13894              	.L1470:
 13895              	.L1491:
 13896 737b 4889C3   		movq	%rax, %rbx
 13897 737e EBEE     		jmp	.L1466
 13898              	.L1495:
 13899 7380 E8000000 		call	__cxa_begin_catch
 13899      00
 13900              	.LEHB508:
 13901 7385 E8000000 		call	_ZN8UnitTest11CurrentTest7ResultsEv
 13901      00
 13902 738a 488B7424 		movq	8(%rsp), %rsi
 13902      08
 13903 738f 488B38   		movq	(%rax), %rdi
 13904 7392 BA000000 		movl	$.LC70, %edx
 13904      00
 13905 7397 E8000000 		call	_ZN8UnitTest11TestResults13OnTestFailureERKNS_11TestDetailsEPKc
 13905      00
 13906              	.LEHE508:
 13907              	.LEHB509:
 13908 739c E8000000 		call	__cxa_end_catch
 13908      00
 13909              	.LEHE509:
 13910 73a1 E9DAFEFF 		jmp	.L1433
 13910      FF
 13911              	.L1460:
 13912 73a6 E8000000 		call	__cxa_begin_catch
 13912      00
 13913 73ab 4889C3   		movq	%rax, %rbx
 13914 73ae 488B00   		movq	(%rax), %rax
 13915 73b1 4889DF   		movq	%rbx, %rdi
 13916 73b4 FF5010   		call	*16(%rax)
 13917 73b7 4889DF   		movq	%rbx, %rdi
 13918 73ba 4889C5   		movq	%rax, %rbp
 13919              	.LEHB510:
 13920 73bd E8000000 		call	_ZNK8UnitTest15AssertException10LineNumberEv
 13920      00
 13921 73c2 4889DF   		movq	%rbx, %rdi
 13922 73c5 4189C4   		movl	%eax, %r12d
 13923 73c8 E8000000 		call	_ZNK8UnitTest15AssertException8FilenameEv
 13923      00
 13924 73cd 488B5424 		movq	8(%rsp), %rdx
 13924      08
 13925 73d2 488D7C24 		leaq	32(%rsp), %rdi
 13925      20
 13926 73d7 4589E0   		movl	%r12d, %r8d
 13927 73da 4889C1   		movq	%rax, %rcx
 13928 73dd 488B7208 		movq	8(%rdx), %rsi
 13929 73e1 488B12   		movq	(%rdx), %rdx
 13930 73e4 E8000000 		call	_ZN8UnitTest11TestDetailsC1EPKcS2_S2_i
 13930      00
 13931 73e9 E8000000 		call	_ZN8UnitTest11CurrentTest7ResultsEv
 13931      00
 13932 73ee 488B38   		movq	(%rax), %rdi
 13933 73f1 488D7424 		leaq	32(%rsp), %rsi
 13933      20
 13934 73f6 4889EA   		movq	%rbp, %rdx
 13935 73f9 E8000000 		call	_ZN8UnitTest11TestResults13OnTestFailureERKNS_11TestDetailsEPKc
 13935      00
 13936              	.LEHE510:
 13937 73fe E949FFFF 		jmp	.L1490
 13937      FF
 13938              	.L1469:
 13939 7403 4889C3   		movq	%rax, %rbx
 13940 7406 E8000000 		call	__cxa_end_catch
 13940      00
 13941 740b 4889DF   		movq	%rbx, %rdi
 13942              	.LEHB511:
 13943 740e E8000000 		call	_Unwind_Resume
 13943      00
 13944              	.LEHE511:
 13945              	.L1472:
 13946 7413 E963FFFF 		jmp	.L1491
 13946      FF
 13947              	.L1494:
 13948 7418 E8000000 		call	__stack_chk_fail
 13948      00
 13949              	.L1480:
 13950 741d 4889C7   		movq	%rax, %rdi
 13951 7420 E8000000 		call	__cxa_begin_catch
 13951      00
 13952              	.LEHB512:
 13953 7425 E8000000 		call	_ZN8UnitTest11CurrentTest7DetailsEv
 13953      00
 13954 742a 488B30   		movq	(%rax), %rsi
 13955 742d 488D7C24 		leaq	64(%rsp), %rdi
 13955      40
 13956 7432 BA370100 		movl	$311, %edx
 13956      00
 13957 7437 E8000000 		call	_ZN8UnitTest11TestDetailsC1ERKS0_i
 13957      00
 13958 743c E8000000 		call	_ZN8UnitTest11CurrentTest7ResultsEv
 13958      00
 13959 7441 488B38   		movq	(%rax), %rdi
 13960 7444 488D7424 		leaq	64(%rsp), %rsi
 13960      40
 13961 7449 BA000000 		movl	$.LC161, %edx
 13961      00
 13962 744e E8000000 		call	_ZN8UnitTest11TestResults13OnTestFailureERKNS_11TestDetailsEPKc
 13962      00
 13963              	.LEHE512:
 13964              	.LEHB513:
 13965 7453 E8000000 		call	__cxa_end_catch
 13965      00
 13966              	.LEHE513:
 13967 7458 E9E2FDFF 		jmp	.L1452
 13967      FF
 13968              	.L1482:
 13969 745d 4889C7   		movq	%rax, %rdi
 13970 7460 E8000000 		call	__cxa_begin_catch
 13970      00
 13971              	.LEHB514:
 13972 7465 E8000000 		call	_ZN8UnitTest11CurrentTest7DetailsEv
 13972      00
 13973 746a 488B30   		movq	(%rax), %rsi
 13974 746d 488DBC24 		leaq	128(%rsp), %rdi
 13974      80000000 
 13975 7475 BA360100 		movl	$310, %edx
 13975      00
 13976 747a E8000000 		call	_ZN8UnitTest11TestDetailsC1ERKS0_i
 13976      00
 13977 747f E8000000 		call	_ZN8UnitTest11CurrentTest7ResultsEv
 13977      00
 13978 7484 488B38   		movq	(%rax), %rdi
 13979 7487 488DB424 		leaq	128(%rsp), %rsi
 13979      80000000 
 13980 748f BA000000 		movl	$.LC129, %edx
 13980      00
 13981 7494 E8000000 		call	_ZN8UnitTest11TestResults13OnTestFailureERKNS_11TestDetailsEPKc
 13981      00
 13982              	.LEHE514:
 13983              	.LEHB515:
 13984 7499 E8000000 		call	__cxa_end_catch
 13984      00
 13985              	.LEHE515:
 13986 749e E963FDFF 		jmp	.L1449
 13986      FF
 13987              	.L1484:
 13988 74a3 4889C7   		movq	%rax, %rdi
 13989 74a6 E8000000 		call	__cxa_begin_catch
 13989      00
 13990              	.LEHB516:
 13991 74ab E8000000 		call	_ZN8UnitTest11CurrentTest7DetailsEv
 13991      00
 13992 74b0 488B30   		movq	(%rax), %rsi
 13993 74b3 488DBC24 		leaq	192(%rsp), %rdi
 13993      C0000000 
 13994 74bb BA350100 		movl	$309, %edx
 13994      00
 13995 74c0 E8000000 		call	_ZN8UnitTest11TestDetailsC1ERKS0_i
 13995      00
 13996 74c5 E8000000 		call	_ZN8UnitTest11CurrentTest7ResultsEv
 13996      00
 13997 74ca 488B38   		movq	(%rax), %rdi
 13998 74cd 488DB424 		leaq	192(%rsp), %rsi
 13998      C0000000 
 13999 74d5 BA000000 		movl	$.LC128, %edx
 13999      00
 14000 74da E8000000 		call	_ZN8UnitTest11TestResults13OnTestFailureERKNS_11TestDetailsEPKc
 14000      00
 14001              	.LEHE516:
 14002              	.LEHB517:
 14003 74df E8000000 		call	__cxa_end_catch
 14003      00
 14004              	.LEHE517:
 14005 74e4 E9DBFCFF 		jmp	.L1445
 14005      FF
 14006              	.L1479:
 14007 74e9 4889C3   		movq	%rax, %rbx
 14008 74ec 4889D5   		movq	%rdx, %rbp
 14009 74ef E8000000 		call	__cxa_end_catch
 14009      00
 14010              	.L1447:
 14011 74f4 488DBC24 		leaq	448(%rsp), %rdi
 14011      C0010000 
 14012 74fc E8000000 		call	_ZN8UnitTest4TestD1Ev
 14012      00
 14013              	.L1454:
 14014 7501 488DBC24 		leaq	384(%rsp), %rdi
 14014      80010000 
 14015 7509 E8000000 		call	_ZN8UnitTest4TestD1Ev
 14015      00
 14016              	.L1455:
 14017 750e 488DBC24 		leaq	320(%rsp), %rdi
 14017      40010000 
 14018 7516 E8000000 		call	_ZN8UnitTest4TestD1Ev
 14018      00
 14019              	.L1456:
 14020 751b 488DBC24 		leaq	256(%rsp), %rdi
 14020      00010000 
 14021 7523 E8000000 		call	_ZN8UnitTest4TestD1Ev
 14021      00
 14022 7528 E97EFDFF 		jmp	.L1457
 14022      FF
 14023              	.L1481:
 14024 752d 4889C3   		movq	%rax, %rbx
 14025 7530 4889D5   		movq	%rdx, %rbp
 14026 7533 E8000000 		call	__cxa_end_catch
 14026      00
 14027 7538 EBBA     		jmp	.L1447
 14028              	.L1483:
 14029 753a 4889C3   		movq	%rax, %rbx
 14030 753d 4889D5   		movq	%rdx, %rbp
 14031 7540 E8000000 		call	__cxa_end_catch
 14031      00
 14032 7545 EBAD     		jmp	.L1447
 14033              	.L1478:
 14034 7547 4889C3   		movq	%rax, %rbx
 14035 754a 4889D5   		movq	%rdx, %rbp
 14036 754d EBA5     		jmp	.L1447
 14037              	.L1477:
 14038 754f 4889C3   		movq	%rax, %rbx
 14039 7552 4889D5   		movq	%rdx, %rbp
 14040 7555 EBAA     		jmp	.L1454
 14041              	.L1476:
 14042 7557 4889C3   		movq	%rax, %rbx
 14043 755a 4889D5   		movq	%rdx, %rbp
 14044 755d EBAF     		jmp	.L1455
 14045              	.L1475:
 14046 755f 4889C3   		movq	%rax, %rbx
 14047 7562 4889D5   		movq	%rdx, %rbp
 14048 7565 EBB4     		jmp	.L1456
 14049              		.cfi_endproc
 14050              	.LFE1597:
 14051              		.section	.gcc_except_table
 14052              		.align 4
 14053              	.LLSDA1597:
 14054 0de4 FF       		.byte	0xff
 14055 0de5 03       		.byte	0x3
 14056 0de6 C001     		.uleb128 .LLSDATT1597-.LLSDATTD1597
 14057              	.LLSDATTD1597:
 14058 0de8 01       		.byte	0x1
 14059 0de9 A801     		.uleb128 .LLSDACSE1597-.LLSDACSB1597
 14060              	.LLSDACSB1597:
 14061 0deb 2C       		.uleb128 .LEHB489-.LFB1597
 14062 0dec 05       		.uleb128 .LEHE489-.LEHB489
 14063 0ded 00       		.uleb128 0
 14064 0dee 00       		.uleb128 0
 14065 0def 3C       		.uleb128 .LEHB490-.LFB1597
 14066 0df0 05       		.uleb128 .LEHE490-.LEHB490
 14067 0df1 A607     		.uleb128 .L1473-.LFB1597
 14068 0df3 05       		.uleb128 0x5
 14069 0df4 71       		.uleb128 .LEHB491-.LFB1597
 14070 0df5 2E       		.uleb128 .LEHE491-.LEHB491
 14071 0df6 F505     		.uleb128 .L1474-.LFB1597
 14072 0df8 07       		.uleb128 0x7
 14073 0df9 B901     		.uleb128 .LEHB492-.LFB1597
 14074 0dfb 05       		.uleb128 .LEHE492-.LEHB492
 14075 0dfc AF0B     		.uleb128 .L1475-.LFB1597
 14076 0dfe 07       		.uleb128 0x7
 14077 0dff D801     		.uleb128 .LEHB493-.LFB1597
 14078 0e01 05       		.uleb128 .LEHE493-.LEHB493
 14079 0e02 A70B     		.uleb128 .L1476-.LFB1597
 14080 0e04 07       		.uleb128 0x7
 14081 0e05 F701     		.uleb128 .LEHB494-.LFB1597
 14082 0e07 05       		.uleb128 .LEHE494-.LEHB494
 14083 0e08 9F0B     		.uleb128 .L1477-.LFB1597
 14084 0e0a 07       		.uleb128 0x7
 14085 0e0b 9202     		.uleb128 .LEHB495-.LFB1597
 14086 0e0d B801     		.uleb128 .LEHE495-.LEHB495
 14087 0e0f 970B     		.uleb128 .L1478-.LFB1597
 14088 0e11 07       		.uleb128 0x7
 14089 0e12 CD03     		.uleb128 .LEHB496-.LFB1597
 14090 0e14 47       		.uleb128 .LEHE496-.LEHB496
 14091 0e15 F309     		.uleb128 .L1484-.LFB1597
 14092 0e17 01       		.uleb128 0x1
 14093 0e18 9404     		.uleb128 .LEHB497-.LFB1597
 14094 0e1a 42       		.uleb128 .LEHE497-.LEHB497
 14095 0e1b AD09     		.uleb128 .L1482-.LFB1597
 14096 0e1d 01       		.uleb128 0x1
 14097 0e1e D604     		.uleb128 .LEHB498-.LFB1597
 14098 0e20 39       		.uleb128 .LEHE498-.LEHB498
 14099 0e21 ED08     		.uleb128 .L1480-.LFB1597
 14100 0e23 01       		.uleb128 0x1
 14101 0e24 9705     		.uleb128 .LEHB499-.LFB1597
 14102 0e26 05       		.uleb128 .LEHE499-.LEHB499
 14103 0e27 9F0B     		.uleb128 .L1477-.LFB1597
 14104 0e29 07       		.uleb128 0x7
 14105 0e2a A405     		.uleb128 .LEHB500-.LFB1597
 14106 0e2c 05       		.uleb128 .LEHE500-.LEHB500
 14107 0e2d A70B     		.uleb128 .L1476-.LFB1597
 14108 0e2f 07       		.uleb128 0x7
 14109 0e30 B105     		.uleb128 .LEHB501-.LFB1597
 14110 0e32 05       		.uleb128 .LEHE501-.LEHB501
 14111 0e33 AF0B     		.uleb128 .L1475-.LFB1597
 14112 0e35 07       		.uleb128 0x7
 14113 0e36 BE05     		.uleb128 .LEHB502-.LFB1597
 14114 0e38 05       		.uleb128 .LEHE502-.LEHB502
 14115 0e39 F505     		.uleb128 .L1474-.LFB1597
 14116 0e3b 07       		.uleb128 0x7
 14117 0e3c CB05     		.uleb128 .LEHB503-.LFB1597
 14118 0e3e 05       		.uleb128 .LEHE503-.LEHB503
 14119 0e3f A607     		.uleb128 .L1473-.LFB1597
 14120 0e41 05       		.uleb128 0x5
 14121 0e42 B206     		.uleb128 .LEHB504-.LFB1597
 14122 0e44 05       		.uleb128 .LEHE504-.LEHB504
 14123 0e45 CB07     		.uleb128 .L1470-.LFB1597
 14124 0e47 00       		.uleb128 0
 14125 0e48 D506     		.uleb128 .LEHB505-.LFB1597
 14126 0e4a 3A       		.uleb128 .LEHE505-.LEHB505
 14127 0e4b AE07     		.uleb128 .L1471-.LFB1597
 14128 0e4d 00       		.uleb128 0
 14129 0e4e 9707     		.uleb128 .LEHB506-.LFB1597
 14130 0e50 05       		.uleb128 .LEHE506-.LEHB506
 14131 0e51 CB07     		.uleb128 .L1470-.LFB1597
 14132 0e53 00       		.uleb128 0
 14133 0e54 C607     		.uleb128 .LEHB507-.LFB1597
 14134 0e56 05       		.uleb128 .LEHE507-.LEHB507
 14135 0e57 00       		.uleb128 0
 14136 0e58 00       		.uleb128 0
 14137 0e59 D507     		.uleb128 .LEHB508-.LFB1597
 14138 0e5b 17       		.uleb128 .LEHE508-.LEHB508
 14139 0e5c D308     		.uleb128 .L1469-.LFB1597
 14140 0e5e 00       		.uleb128 0
 14141 0e5f EC07     		.uleb128 .LEHB509-.LFB1597
 14142 0e61 05       		.uleb128 .LEHE509-.LEHB509
 14143 0e62 00       		.uleb128 0
 14144 0e63 00       		.uleb128 0
 14145 0e64 8D08     		.uleb128 .LEHB510-.LFB1597
 14146 0e66 41       		.uleb128 .LEHE510-.LEHB510
 14147 0e67 E308     		.uleb128 .L1472-.LFB1597
 14148 0e69 00       		.uleb128 0
 14149 0e6a DE08     		.uleb128 .LEHB511-.LFB1597
 14150 0e6c 05       		.uleb128 .LEHE511-.LEHB511
 14151 0e6d 00       		.uleb128 0
 14152 0e6e 00       		.uleb128 0
 14153 0e6f F508     		.uleb128 .LEHB512-.LFB1597
 14154 0e71 2E       		.uleb128 .LEHE512-.LEHB512
 14155 0e72 B90A     		.uleb128 .L1479-.LFB1597
 14156 0e74 07       		.uleb128 0x7
 14157 0e75 A309     		.uleb128 .LEHB513-.LFB1597
 14158 0e77 05       		.uleb128 .LEHE513-.LEHB513
 14159 0e78 970B     		.uleb128 .L1478-.LFB1597
 14160 0e7a 07       		.uleb128 0x7
 14161 0e7b B509     		.uleb128 .LEHB514-.LFB1597
 14162 0e7d 34       		.uleb128 .LEHE514-.LEHB514
 14163 0e7e FD0A     		.uleb128 .L1481-.LFB1597
 14164 0e80 07       		.uleb128 0x7
 14165 0e81 E909     		.uleb128 .LEHB515-.LFB1597
 14166 0e83 05       		.uleb128 .LEHE515-.LEHB515
 14167 0e84 970B     		.uleb128 .L1478-.LFB1597
 14168 0e86 07       		.uleb128 0x7
 14169 0e87 FB09     		.uleb128 .LEHB516-.LFB1597
 14170 0e89 34       		.uleb128 .LEHE516-.LEHB516
 14171 0e8a 8A0B     		.uleb128 .L1483-.LFB1597
 14172 0e8c 07       		.uleb128 0x7
 14173 0e8d AF0A     		.uleb128 .LEHB517-.LFB1597
 14174 0e8f 05       		.uleb128 .LEHE517-.LEHB517
 14175 0e90 970B     		.uleb128 .L1478-.LFB1597
 14176 0e92 07       		.uleb128 0x7
 14177              	.LLSDACSE1597:
 14178 0e93 03       		.byte	0x3
 14179 0e94 00       		.byte	0
 14180 0e95 02       		.byte	0x2
 14181 0e96 7D       		.byte	0x7d
 14182 0e97 01       		.byte	0x1
 14183 0e98 7D       		.byte	0x7d
 14184 0e99 00       		.byte	0
 14185 0e9a 7D       		.byte	0x7d
 14186 0e9b 00       		.align 4
 14187 0e9c 00000000 		.long	0
 14188              	
 14189 0ea0 00000000 		.long	_ZTISt9exception
 14190 0ea4 00000000 		.long	_ZTIN8UnitTest15AssertExceptionE
 14191              	.LLSDATT1597:
 14192              		.text
 14194              		.section	.text.unlikely
 14195              	.LCOLDE162:
 14196              		.text
 14197              	.LHOTE162:
 14198              		.section	.text.unlikely
 14199              		.align 2
 14200              	.LCOLDB163:
 14201              		.text
 14202              	.LHOTB163:
 14203 7567 90       		.align 2
 14204 7568 0F1F8400 		.p2align 4,,15
 14204      00000000 
 14206              	_ZNK12_GLOBAL__N_180TestTestRunnerFixtureTestRunnerOnlyRunsTestsInSpecifiedSuiteAndThatPassPredicat
 14207              	.LFB1357:
 14208              		.cfi_startproc
 14209              		.cfi_personality 0x3,__gxx_personality_v0
 14210              		.cfi_lsda 0x3,.LLSDA1357
 14211 7570 4155     		pushq	%r13
 14212              		.cfi_def_cfa_offset 16
 14213              		.cfi_offset 13, -16
 14214 7572 4154     		pushq	%r12
 14215              		.cfi_def_cfa_offset 24
 14216              		.cfi_offset 12, -24
 14217 7574 55       		pushq	%rbp
 14218              		.cfi_def_cfa_offset 32
 14219              		.cfi_offset 6, -32
 14220 7575 53       		pushq	%rbx
 14221              		.cfi_def_cfa_offset 40
 14222              		.cfi_offset 3, -40
 14223 7576 4889FD   		movq	%rdi, %rbp
 14224 7579 488D5F08 		leaq	8(%rdi), %rbx
 14225 757d 4881EC98 		subq	$2200, %rsp
 14225      080000
 14226              		.cfi_def_cfa_offset 2240
 14227 7584 64488B04 		movq	%fs:40, %rax
 14227      25280000 
 14227      00
 14228 758d 48898424 		movq	%rax, 2184(%rsp)
 14228      88080000 
 14229 7595 31C0     		xorl	%eax, %eax
 14230 7597 488D4424 		leaq	32(%rsp), %rax
 14230      20
 14231 759c 488D7424 		leaq	56(%rsp), %rsi
 14231      38
 14232 75a1 4889C7   		movq	%rax, %rdi
 14233              	.LEHB518:
 14234 75a4 E8000000 		call	_ZN8UnitTest10TestRunnerC1ERNS_12TestReporterE
 14234      00
 14235              	.LEHE518:
 14236 75a9 488DBC24 		leaq	2152(%rsp), %rdi
 14236      68080000 
 14237 75b1 48C74424 		movq	$_ZTV17RecordingReporter+16, 56(%rsp)
 14237      38000000 
 14237      00
 14238 75ba C7442440 		movl	$0, 64(%rsp)
 14238      00000000 
 14239 75c2 C7842444 		movl	$0, 580(%rsp)
 14239      02000000 
 14239      000000
 14240 75cd C7842448 		movl	$0, 840(%rsp)
 14240      03000000 
 14240      000000
 14241 75d8 C784244C 		movl	$0, 1612(%rsp)
 14241      06000000 
 14241      000000
 14242 75e3 C7842450 		movl	$0x00000000, 2128(%rsp)
 14242      08000000 
 14242      000000
 14243 75ee C7842454 		movl	$0, 2132(%rsp)
 14243      08000000 
 14243      000000
 14244 75f9 C7842458 		movl	$0, 2136(%rsp)
 14244      08000000 
 14244      000000
 14245 7604 C784245C 		movl	$0, 2140(%rsp)
 14245      08000000 
 14245      000000
 14246 760f C7842460 		movl	$0x00000000, 2144(%rsp)
 14246      08000000 
 14246      000000
 14247 761a C6442444 		movb	$0, 68(%rsp)
 14247      00
 14248 761f C6842444 		movb	$0, 324(%rsp)
 14248      01000000 
 14249 7627 C6842448 		movb	$0, 584(%rsp)
 14249      02000000 
 14250 762f C684244C 		movb	$0, 844(%rsp)
 14250      03000000 
 14251 7637 C684244C 		movb	$0, 1100(%rsp)
 14251      04000000 
 14252 763f C684244C 		movb	$0, 1356(%rsp)
 14252      05000000 
 14253 7647 C6842450 		movb	$0, 1616(%rsp)
 14253      06000000 
 14254 764f C6842450 		movb	$0, 1872(%rsp)
 14254      07000000 
 14255              	.LEHB519:
 14256 7657 E8000000 		call	_ZN8UnitTest8TestListC1Ev
 14256      00
 14257              	.LEHE519:
 14258 765c 488D7C24 		leaq	32(%rsp), %rdi
 14258      20
 14259 7661 4889DE   		movq	%rbx, %rsi
 14260 7664 48899C24 		movq	%rbx, 2168(%rsp)
 14260      78080000 
 14261              	.LEHB520:
 14262 766c E83FF9FF 		call	_ZN8UnitTest11ExecuteTestIN12_GLOBAL__N_182TestRunnerFixtureTestRunnerOnlyRunsTestsInSpecifie
 14262      FF
 14263              	.LEHE520:
 14264 7671 488D7C24 		leaq	56(%rsp), %rdi
 14264      38
 14265 7676 48C74424 		movq	$_ZTV17RecordingReporter+16, 56(%rsp)
 14265      38000000 
 14265      00
 14266              	.LEHB521:
 14267 767f E8000000 		call	_ZN8UnitTest12TestReporterD2Ev
 14267      00
 14268              	.LEHE521:
 14269 7684 488D7C24 		leaq	32(%rsp), %rdi
 14269      20
 14270              	.LEHB522:
 14271 7689 E8000000 		call	_ZN8UnitTest10TestRunnerD1Ev
 14271      00
 14272              	.LEHE522:
 14273              	.L1496:
 14274 768e 488B8424 		movq	2184(%rsp), %rax
 14274      88080000 
 14275 7696 64483304 		xorq	%fs:40, %rax
 14275      25280000 
 14275      00
 14276 769f 750E     		jne	.L1535
 14277 76a1 4881C498 		addq	$2200, %rsp
 14277      080000
 14278              		.cfi_remember_state
 14279              		.cfi_def_cfa_offset 40
 14280 76a8 5B       		popq	%rbx
 14281              		.cfi_def_cfa_offset 32
 14282 76a9 5D       		popq	%rbp
 14283              		.cfi_def_cfa_offset 24
 14284 76aa 415C     		popq	%r12
 14285              		.cfi_def_cfa_offset 16
 14286 76ac 415D     		popq	%r13
 14287              		.cfi_def_cfa_offset 8
 14288 76ae C3       		ret
 14289              	.L1535:
 14290              		.cfi_restore_state
 14291 76af E8000000 		call	__stack_chk_fail
 14291      00
 14292              	.L1517:
 14293 76b4 4889C7   		movq	%rax, %rdi
 14294 76b7 41BC0100 		movl	$1, %r12d
 14294      0000
 14295              	.L1499:
 14296 76bd 4883FA01 		cmpq	$1, %rdx
 14297 76c1 0F844501 		je	.L1508
 14297      0000
 14298 76c7 4883FA02 		cmpq	$2, %rdx
 14299 76cb 0F85FE00 		jne	.L1536
 14299      0000
 14300 76d1 E8000000 		call	__cxa_begin_catch
 14300      00
 14301 76d6 488D7C24 		leaq	32(%rsp), %rdi
 14301      20
 14302 76db 4889C5   		movq	%rax, %rbp
 14303              	.LEHB523:
 14304 76de E8000000 		call	_ZN8UnitTest15MemoryOutStreamC1Ev
 14304      00
 14305              	.LEHE523:
 14306 76e3 488B4500 		movq	0(%rbp), %rax
 14307 76e7 4889EF   		movq	%rbp, %rdi
 14308 76ea FF5010   		call	*16(%rax)
 14309 76ed 488D7C24 		leaq	32(%rsp), %rdi
 14309      20
 14310 76f2 BA150000 		movl	$21, %edx
 14310      00
 14311 76f7 BE000000 		movl	$.LC69, %esi
 14311      00
 14312 76fc 4889C5   		movq	%rax, %rbp
 14313              	.LEHB524:
 14314 76ff E8000000 		call	_ZSt16__ostream_insertIcSt11char_traitsIcEERSt13basic_ostreamIT_T0_ES6_PKS3_l
 14314      00
 14315 7704 488D7C24 		leaq	32(%rsp), %rdi
 14315      20
 14316 7709 4889EE   		movq	%rbp, %rsi
 14317 770c E8000000 		call	_ZStlsISt11char_traitsIcEERSt13basic_ostreamIcT_ES5_PKc
 14317      00
 14318 7711 488D7C24 		leaq	32(%rsp), %rdi
 14318      20
 14319 7716 E8000000 		call	_ZNK8UnitTest15MemoryOutStream7GetTextEv
 14319      00
 14320 771b 4889C5   		movq	%rax, %rbp
 14321 771e E8000000 		call	_ZN8UnitTest11CurrentTest7ResultsEv
 14321      00
 14322 7723 488B38   		movq	(%rax), %rdi
 14323 7726 4889EA   		movq	%rbp, %rdx
 14324 7729 4889DE   		movq	%rbx, %rsi
 14325 772c E8000000 		call	_ZN8UnitTest11TestResults13OnTestFailureERKNS_11TestDetailsEPKc
 14325      00
 14326              	.LEHE524:
 14327 7731 488D7C24 		leaq	32(%rsp), %rdi
 14327      20
 14328              	.LEHB525:
 14329 7736 E8000000 		call	_ZN8UnitTest15MemoryOutStreamD1Ev
 14329      00
 14330              	.LEHE525:
 14331              	.L1530:
 14332 773b E8000000 		call	__cxa_end_catch
 14332      00
 14333 7740 E949FFFF 		jmp	.L1496
 14333      FF
 14334              	.L1524:
 14335 7745 488D7C24 		leaq	32(%rsp), %rdi
 14335      20
 14336 774a 4989D4   		movq	%rdx, %r12
 14337 774d 4989C5   		movq	%rax, %r13
 14338 7750 E8000000 		call	_ZN8UnitTest10TestRunnerD1Ev
 14338      00
 14339 7755 4C89E2   		movq	%r12, %rdx
 14340 7758 4C89EF   		movq	%r13, %rdi
 14341 775b 41BC0100 		movl	$1, %r12d
 14341      0000
 14342 7761 E957FFFF 		jmp	.L1499
 14342      FF
 14343              	.L1518:
 14344 7766 488D7C24 		leaq	32(%rsp), %rdi
 14344      20
 14345 776b 4989D4   		movq	%rdx, %r12
 14346 776e 4989C5   		movq	%rax, %r13
 14347 7771 E8000000 		call	_ZN12_GLOBAL__N_111FixtureBaseD2Ev
 14347      00
 14348 7776 4C89E2   		movq	%r12, %rdx
 14349 7779 4C89EF   		movq	%r13, %rdi
 14350 777c 41BC0100 		movl	$1, %r12d
 14350      0000
 14351 7782 E936FFFF 		jmp	.L1499
 14351      FF
 14352              	.L1523:
 14353 7787 488D7C24 		leaq	32(%rsp), %rdi
 14353      20
 14354 778c 4989D4   		movq	%rdx, %r12
 14355 778f 4989C5   		movq	%rax, %r13
 14356 7792 E8000000 		call	_ZN12_GLOBAL__N_111FixtureBaseD2Ev
 14356      00
 14357 7797 4C89E2   		movq	%r12, %rdx
 14358 779a 4C89EF   		movq	%r13, %rdi
 14359 779d 4531E4   		xorl	%r12d, %r12d
 14360 77a0 E918FFFF 		jmp	.L1499
 14360      FF
 14361              	.L1525:
 14362 77a5 4889C7   		movq	%rax, %rdi
 14363 77a8 4531E4   		xorl	%r12d, %r12d
 14364 77ab E90DFFFF 		jmp	.L1499
 14364      FF
 14365              	.L1521:
 14366 77b0 488D7C24 		leaq	32(%rsp), %rdi
 14366      20
 14367 77b5 4889C3   		movq	%rax, %rbx
 14368 77b8 E8000000 		call	_ZN8UnitTest15MemoryOutStreamD1Ev
 14368      00
 14369              	.L1514:
 14370 77bd E8000000 		call	__cxa_end_catch
 14370      00
 14371 77c2 4889DF   		movq	%rbx, %rdi
 14372              	.LEHB526:
 14373 77c5 E8000000 		call	_Unwind_Resume
 14373      00
 14374              	.LEHE526:
 14375              	.L1520:
 14376              	.L1531:
 14377 77ca 4889C3   		movq	%rax, %rbx
 14378 77cd EBEE     		jmp	.L1514
 14379              	.L1536:
 14380 77cf E8000000 		call	__cxa_begin_catch
 14380      00
 14381 77d4 4584E4   		testb	%r12b, %r12b
 14382 77d7 BA270100 		movl	$295, %edx
 14382      00
 14383 77dc 4889DE   		movq	%rbx, %rsi
 14384 77df 4889E7   		movq	%rsp, %rdi
 14385 77e2 0F848900 		je	.L1510
 14385      0000
 14386              	.LEHB527:
 14387 77e8 E8000000 		call	_ZN8UnitTest11TestDetailsC1ERKS0_i
 14387      00
 14388 77ed E8000000 		call	_ZN8UnitTest11CurrentTest7ResultsEv
 14388      00
 14389 77f2 488B38   		movq	(%rax), %rdi
 14390 77f5 BA000000 		movl	$.LC73, %edx
 14390      00
 14391 77fa 4889E6   		movq	%rsp, %rsi
 14392 77fd E8000000 		call	_ZN8UnitTest11TestResults13OnTestFailureERKNS_11TestDetailsEPKc
 14392      00
 14393              	.LEHE527:
 14394              	.L1511:
 14395              	.LEHB528:
 14396 7802 E8000000 		call	__cxa_end_catch
 14396      00
 14397              	.LEHE528:
 14398 7807 E982FEFF 		jmp	.L1496
 14398      FF
 14399              	.L1508:
 14400 780c E8000000 		call	__cxa_begin_catch
 14400      00
 14401 7811 4889C3   		movq	%rax, %rbx
 14402 7814 488B00   		movq	(%rax), %rax
 14403 7817 4889DF   		movq	%rbx, %rdi
 14404 781a FF5010   		call	*16(%rax)
 14405 781d 4889DF   		movq	%rbx, %rdi
 14406 7820 4989C4   		movq	%rax, %r12
 14407              	.LEHB529:
 14408 7823 E8000000 		call	_ZNK8UnitTest15AssertException10LineNumberEv
 14408      00
 14409 7828 4889DF   		movq	%rbx, %rdi
 14410 782b 4189C5   		movl	%eax, %r13d
 14411 782e E8000000 		call	_ZNK8UnitTest15AssertException8FilenameEv
 14411      00
 14412 7833 488B5508 		movq	8(%rbp), %rdx
 14413 7837 488B7510 		movq	16(%rbp), %rsi
 14414 783b 4589E8   		movl	%r13d, %r8d
 14415 783e 4889C1   		movq	%rax, %rcx
 14416 7841 4889E7   		movq	%rsp, %rdi
 14417 7844 E8000000 		call	_ZN8UnitTest11TestDetailsC1EPKcS2_S2_i
 14417      00
 14418 7849 E8000000 		call	_ZN8UnitTest11CurrentTest7ResultsEv
 14418      00
 14419 784e 488B38   		movq	(%rax), %rdi
 14420 7851 4C89E2   		movq	%r12, %rdx
 14421 7854 4889E6   		movq	%rsp, %rsi
 14422 7857 E8000000 		call	_ZN8UnitTest11TestResults13OnTestFailureERKNS_11TestDetailsEPKc
 14422      00
 14423              	.LEHE529:
 14424 785c E9DAFEFF 		jmp	.L1530
 14424      FF
 14425              	.L1522:
 14426 7861 4889C3   		movq	%rax, %rbx
 14427 7864 E8000000 		call	__cxa_end_catch
 14427      00
 14428 7869 4889DF   		movq	%rbx, %rdi
 14429              	.LEHB530:
 14430 786c E8000000 		call	_Unwind_Resume
 14430      00
 14431              	.LEHE530:
 14432              	.L1510:
 14433              	.LEHB531:
 14434 7871 E8000000 		call	_ZN8UnitTest11TestDetailsC1ERKS0_i
 14434      00
 14435 7876 E8000000 		call	_ZN8UnitTest11CurrentTest7ResultsEv
 14435      00
 14436 787b 488B38   		movq	(%rax), %rdi
 14437 787e BA000000 		movl	$.LC74, %edx
 14437      00
 14438 7883 4889E6   		movq	%rsp, %rsi
 14439 7886 E8000000 		call	_ZN8UnitTest11TestResults13OnTestFailureERKNS_11TestDetailsEPKc
 14439      00
 14440              	.LEHE531:
 14441 788b E972FFFF 		jmp	.L1511
 14441      FF
 14442              	.L1519:
 14443 7890 E935FFFF 		jmp	.L1531
 14443      FF
 14444              		.cfi_endproc
 14445              	.LFE1357:
 14446              		.section	.gcc_except_table
 14447              		.align 4
 14448              	.LLSDA1357:
 14449 0ea8 FF       		.byte	0xff
 14450 0ea9 03       		.byte	0x3
 14451 0eaa 69       		.uleb128 .LLSDATT1357-.LLSDATTD1357
 14452              	.LLSDATTD1357:
 14453 0eab 01       		.byte	0x1
 14454 0eac 50       		.uleb128 .LLSDACSE1357-.LLSDACSB1357
 14455              	.LLSDACSB1357:
 14456 0ead 34       		.uleb128 .LEHB518-.LFB1357
 14457 0eae 05       		.uleb128 .LEHE518-.LEHB518
 14458 0eaf B504     		.uleb128 .L1525-.LFB1357
 14459 0eb1 05       		.uleb128 0x5
 14460 0eb2 E701     		.uleb128 .LEHB519-.LFB1357
 14461 0eb4 05       		.uleb128 .LEHE519-.LEHB519
 14462 0eb5 9704     		.uleb128 .L1523-.LFB1357
 14463 0eb7 07       		.uleb128 0x7
 14464 0eb8 FC01     		.uleb128 .LEHB520-.LFB1357
 14465 0eba 05       		.uleb128 .LEHE520-.LEHB520
 14466 0ebb F603     		.uleb128 .L1518-.LFB1357
 14467 0ebd 07       		.uleb128 0x7
 14468 0ebe 8F02     		.uleb128 .LEHB521-.LFB1357
 14469 0ec0 05       		.uleb128 .LEHE521-.LEHB521
 14470 0ec1 D503     		.uleb128 .L1524-.LFB1357
 14471 0ec3 07       		.uleb128 0x7
 14472 0ec4 9902     		.uleb128 .LEHB522-.LFB1357
 14473 0ec6 05       		.uleb128 .LEHE522-.LEHB522
 14474 0ec7 C402     		.uleb128 .L1517-.LFB1357
 14475 0ec9 05       		.uleb128 0x5
 14476 0eca EE02     		.uleb128 .LEHB523-.LFB1357
 14477 0ecc 05       		.uleb128 .LEHE523-.LEHB523
 14478 0ecd DA04     		.uleb128 .L1520-.LFB1357
 14479 0ecf 00       		.uleb128 0
 14480 0ed0 8F03     		.uleb128 .LEHB524-.LFB1357
 14481 0ed2 32       		.uleb128 .LEHE524-.LEHB524
 14482 0ed3 C004     		.uleb128 .L1521-.LFB1357
 14483 0ed5 00       		.uleb128 0
 14484 0ed6 C603     		.uleb128 .LEHB525-.LFB1357
 14485 0ed8 05       		.uleb128 .LEHE525-.LEHB525
 14486 0ed9 DA04     		.uleb128 .L1520-.LFB1357
 14487 0edb 00       		.uleb128 0
 14488 0edc D504     		.uleb128 .LEHB526-.LFB1357
 14489 0ede 05       		.uleb128 .LEHE526-.LEHB526
 14490 0edf 00       		.uleb128 0
 14491 0ee0 00       		.uleb128 0
 14492 0ee1 F804     		.uleb128 .LEHB527-.LFB1357
 14493 0ee3 1A       		.uleb128 .LEHE527-.LEHB527
 14494 0ee4 F105     		.uleb128 .L1522-.LFB1357
 14495 0ee6 00       		.uleb128 0
 14496 0ee7 9205     		.uleb128 .LEHB528-.LFB1357
 14497 0ee9 05       		.uleb128 .LEHE528-.LEHB528
 14498 0eea 00       		.uleb128 0
 14499 0eeb 00       		.uleb128 0
 14500 0eec B305     		.uleb128 .LEHB529-.LFB1357
 14501 0eee 39       		.uleb128 .LEHE529-.LEHB529
 14502 0eef A006     		.uleb128 .L1519-.LFB1357
 14503 0ef1 00       		.uleb128 0
 14504 0ef2 FC05     		.uleb128 .LEHB530-.LFB1357
 14505 0ef4 05       		.uleb128 .LEHE530-.LEHB530
 14506 0ef5 00       		.uleb128 0
 14507 0ef6 00       		.uleb128 0
 14508 0ef7 8106     		.uleb128 .LEHB531-.LFB1357
 14509 0ef9 1A       		.uleb128 .LEHE531-.LEHB531
 14510 0efa F105     		.uleb128 .L1522-.LFB1357
 14511 0efc 00       		.uleb128 0
 14512              	.LLSDACSE1357:
 14513 0efd 03       		.byte	0x3
 14514 0efe 00       		.byte	0
 14515 0eff 02       		.byte	0x2
 14516 0f00 7D       		.byte	0x7d
 14517 0f01 01       		.byte	0x1
 14518 0f02 7D       		.byte	0x7d
 14519 0f03 00       		.byte	0
 14520 0f04 7D       		.byte	0x7d
 14521 0f05 000000   		.align 4
 14522 0f08 00000000 		.long	0
 14523              	
 14524 0f0c 00000000 		.long	_ZTISt9exception
 14525 0f10 00000000 		.long	_ZTIN8UnitTest15AssertExceptionE
 14526              	.LLSDATT1357:
 14527              		.text
 14529              		.section	.text.unlikely
 14530              	.LCOLDE163:
 14531              		.text
 14532              	.LHOTE163:
 14533              		.section	.text.unlikely
 14534              	.LCOLDB164:
 14535              		.text
 14536              	.LHOTB164:
 14537 7895 90662E0F 		.p2align 4,,15
 14537      1F840000 
 14537      000000
 14539              	_ZN8UnitTest11ExecuteTestIN12_GLOBAL__N_159TestRunnerFixtureTestRunnerRunsTestsThatPassPredicateHel
 14540              	.LFB1596:
 14541              		.cfi_startproc
 14542              		.cfi_personality 0x3,__gxx_personality_v0
 14543              		.cfi_lsda 0x3,.LLSDA1596
 14544 78a0 4155     		pushq	%r13
 14545              		.cfi_def_cfa_offset 16
 14546              		.cfi_offset 13, -16
 14547 78a2 4154     		pushq	%r12
 14548              		.cfi_def_cfa_offset 24
 14549              		.cfi_offset 12, -24
 14550 78a4 55       		pushq	%rbp
 14551              		.cfi_def_cfa_offset 32
 14552              		.cfi_offset 6, -32
 14553 78a5 53       		pushq	%rbx
 14554              		.cfi_def_cfa_offset 40
 14555              		.cfi_offset 3, -40
 14556 78a6 4889F3   		movq	%rsi, %rbx
 14557 78a9 4881EC58 		subq	$1880, %rsp
 14557      070000
 14558              		.cfi_def_cfa_offset 1920
 14559 78b0 48893C24 		movq	%rdi, (%rsp)
 14560 78b4 48897424 		movq	%rsi, 8(%rsp)
 14560      08
 14561 78b9 64488B04 		movq	%fs:40, %rax
 14561      25280000 
 14561      00
 14562 78c2 48898424 		movq	%rax, 1864(%rsp)
 14562      48070000 
 14563 78ca 31C0     		xorl	%eax, %eax
 14564              	.LEHB532:
 14565 78cc E8000000 		call	_ZN8UnitTest11CurrentTest7DetailsEv
 14565      00
 14566              	.LEHE532:
 14567 78d1 488DBC24 		leaq	736(%rsp), %rdi
 14567      E0020000 
 14568 78d9 488918   		movq	%rbx, (%rax)
 14569              	.LEHB533:
 14570 78dc E8000000 		call	_ZN8UnitTest16SignalTranslatorC1Ev
 14570      00
 14571              	.LEHE533:
 14572 78e1 488B3D00 		movq	_ZN8UnitTest16SignalTranslator12s_jumpTargetE(%rip), %rdi
 14572      000000
 14573 78e8 BE010000 		movl	$1, %esi
 14573      00
 14574 78ed E8000000 		call	__sigsetjmp
 14574      00
 14575 78f2 85C0     		testl	%eax, %eax
 14576 78f4 742A     		je	.L1581
 14577 78f6 BF080000 		movl	$8, %edi
 14577      00
 14578 78fb E8000000 		call	__cxa_allocate_exception
 14578      00
 14579 7900 31D2     		xorl	%edx, %edx
 14580 7902 48C70000 		movq	$.LC61, (%rax)
 14580      000000
 14581 7909 BE000000 		movl	$_ZTIPKc, %esi
 14581      00
 14582 790e 4889C7   		movq	%rax, %rdi
 14583              	.LEHB534:
 14584 7911 E8000000 		call	__cxa_throw
 14584      00
 14585 7916 662E0F1F 		.p2align 4,,10
 14585      84000000 
 14585      0000
 14586              		.p2align 3
 14587              	.L1581:
 14588 7920 488DBC24 		leaq	192(%rsp), %rdi
 14588      C0000000 
 14589 7928 4531C0   		xorl	%r8d, %r8d
 14590 792b B9000000 		movl	$.LC80, %ecx
 14590      00
 14591 7930 BA000000 		movl	$.LC102, %edx
 14591      00
 14592 7935 BE000000 		movl	$.LC123, %esi
 14592      00
 14593 793a E8000000 		call	_ZN8UnitTest4TestC1EPKcS2_S2_i
 14593      00
 14594              	.LEHE534:
 14595 793f 488B2C24 		movq	(%rsp), %rbp
 14596 7943 488DB424 		leaq	192(%rsp), %rsi
 14596      C0000000 
 14597 794b 488D9D48 		leaq	2120(%rbp), %rbx
 14597      080000
 14598 7952 4889DF   		movq	%rbx, %rdi
 14599              	.LEHB535:
 14600 7955 E8000000 		call	_ZN8UnitTest8TestList3AddEPNS_4TestE
 14600      00
 14601 795a 488DBC24 		leaq	256(%rsp), %rdi
 14601      00010000 
 14602 7962 4531C0   		xorl	%r8d, %r8d
 14603 7965 B9000000 		movl	$.LC80, %ecx
 14603      00
 14604 796a BA000000 		movl	$.LC102, %edx
 14604      00
 14605 796f BE000000 		movl	$.LC160, %esi
 14605      00
 14606 7974 E8000000 		call	_ZN8UnitTest4TestC1EPKcS2_S2_i
 14606      00
 14607              	.LEHE535:
 14608 7979 488DB424 		leaq	256(%rsp), %rsi
 14608      00010000 
 14609 7981 4889DF   		movq	%rbx, %rdi
 14610              	.LEHB536:
 14611 7984 E8000000 		call	_ZN8UnitTest8TestList3AddEPNS_4TestE
 14611      00
 14612 7989 E8000000 		call	_ZN8UnitTest11CurrentTest7ResultsEv
 14612      00
 14613 798e 4C8B20   		movq	(%rax), %r12
 14614 7991 E8000000 		call	_ZN8UnitTest11CurrentTest7DetailsEv
 14614      00
 14615 7996 4889DF   		movq	%rbx, %rdi
 14616 7999 4C8B28   		movq	(%rax), %r13
 14617 799c E8000000 		call	_ZNK8UnitTest8TestList7GetHeadEv
 14617      00
 14618 79a1 4885C0   		testq	%rax, %rax
 14619 79a4 4889C3   		movq	%rax, %rbx
 14620 79a7 7448     		je	.L1543
 14621 79a9 0F1F8000 		.p2align 4,,10
 14621      000000
 14622              		.p2align 3
 14623              	.L1580:
 14624 79b0 31D2     		xorl	%edx, %edx
 14625 79b2 4889DE   		movq	%rbx, %rsi
 14626 79b5 4889EF   		movq	%rbp, %rdi
 14627 79b8 E8000000 		call	_ZNK8UnitTest10TestRunner13IsTestInSuiteEPKNS_4TestEPKc
 14627      00
 14628 79bd 84C0     		testb	%al, %al
 14629 79bf 7427     		je	.L1546
 14630 79c1 488B7310 		movq	16(%rbx), %rsi
 14631 79c5 BF000000 		movl	$.LC123, %edi
 14631      00
 14632 79ca B9090000 		movl	$9, %ecx
 14632      00
 14633 79cf F3A6     		repz cmpsb
 14634 79d1 7515     		jne	.L1546
 14635 79d3 488B0424 		movq	(%rsp), %rax
 14636 79d7 31C9     		xorl	%ecx, %ecx
 14637 79d9 4889DA   		movq	%rbx, %rdx
 14638 79dc 4889EF   		movq	%rbp, %rdi
 14639 79df 488B7008 		movq	8(%rax), %rsi
 14640 79e3 E8000000 		call	_ZNK8UnitTest10TestRunner7RunTestEPNS_11TestResultsEPNS_4TestEi
 14640      00
 14641              	.L1546:
 14642 79e8 488B5B28 		movq	40(%rbx), %rbx
 14643 79ec 4885DB   		testq	%rbx, %rbx
 14644 79ef 75BF     		jne	.L1580
 14645              	.L1543:
 14646 79f1 488B3C24 		movq	(%rsp), %rdi
 14647 79f5 E8000000 		call	_ZNK8UnitTest10TestRunner6FinishEv
 14647      00
 14648 79fa E8000000 		call	_ZN8UnitTest11CurrentTest7ResultsEv
 14648      00
 14649 79ff 4C8920   		movq	%r12, (%rax)
 14650 7a02 E8000000 		call	_ZN8UnitTest11CurrentTest7DetailsEv
 14650      00
 14651              	.LEHE536:
 14652 7a07 4C8928   		movq	%r13, (%rax)
 14653              	.LEHB537:
 14654 7a0a E8000000 		call	_ZN8UnitTest11CurrentTest7DetailsEv
 14654      00
 14655 7a0f 488B30   		movq	(%rax), %rsi
 14656 7a12 488DBC24 		leaq	160(%rsp), %rdi
 14656      A0000000 
 14657 7a1a BA230100 		movl	$291, %edx
 14657      00
 14658 7a1f E8000000 		call	_ZN8UnitTest11TestDetailsC1ERKS0_i
 14658      00
 14659 7a24 488B0424 		movq	(%rsp), %rax
 14660 7a28 C744241C 		movl	$1, 28(%rsp)
 14660      01000000 
 14661 7a30 488D5820 		leaq	32(%rax), %rbx
 14662 7a34 E8000000 		call	_ZN8UnitTest11CurrentTest7ResultsEv
 14662      00
 14663 7a39 488B38   		movq	(%rax), %rdi
 14664 7a3c 488D8C24 		leaq	160(%rsp), %rcx
 14664      A0000000 
 14665 7a44 488D7424 		leaq	28(%rsp), %rsi
 14665      1C
 14666 7a49 4889DA   		movq	%rbx, %rdx
 14667 7a4c E8000000 		call	_ZN8UnitTest10CheckEqualIiiEEvRNS_11TestResultsERKT_RKT0_RKNS_11TestDetailsE
 14667      00
 14668              	.LEHE537:
 14669              	.L1549:
 14670              	.LEHB538:
 14671 7a51 E8000000 		call	_ZN8UnitTest11CurrentTest7DetailsEv
 14671      00
 14672 7a56 488B30   		movq	(%rax), %rsi
 14673 7a59 488D7C24 		leaq	96(%rsp), %rdi
 14673      60
 14674 7a5e BA240100 		movl	$292, %edx
 14674      00
 14675 7a63 E8000000 		call	_ZN8UnitTest11TestDetailsC1ERKS0_i
 14675      00
 14676 7a68 488B1C24 		movq	(%rsp), %rbx
 14677 7a6c 4881C324 		addq	$292, %rbx
 14677      010000
 14678 7a73 E8000000 		call	_ZN8UnitTest11CurrentTest7ResultsEv
 14678      00
 14679 7a78 488B38   		movq	(%rax), %rdi
 14680 7a7b 488D4C24 		leaq	96(%rsp), %rcx
 14680      60
 14681 7a80 4889DA   		movq	%rbx, %rdx
 14682 7a83 BE000000 		movl	$.LC123, %esi
 14682      00
 14683 7a88 E8000000 		call	_ZN8UnitTest10CheckEqualERNS_11TestResultsEPKcPcRKNS_11TestDetailsE
 14683      00
 14684              	.LEHE538:
 14685              	.L1553:
 14686 7a8d 488DBC24 		leaq	256(%rsp), %rdi
 14686      00010000 
 14687              	.LEHB539:
 14688 7a95 E8000000 		call	_ZN8UnitTest4TestD1Ev
 14688      00
 14689              	.LEHE539:
 14690 7a9a 488DBC24 		leaq	192(%rsp), %rdi
 14690      C0000000 
 14691              	.LEHB540:
 14692 7aa2 E8000000 		call	_ZN8UnitTest4TestD1Ev
 14692      00
 14693              	.LEHE540:
 14694 7aa7 488DBC24 		leaq	736(%rsp), %rdi
 14694      E0020000 
 14695              	.LEHB541:
 14696 7aaf E8000000 		call	_ZN8UnitTest16SignalTranslatorD1Ev
 14696      00
 14697              	.LEHE541:
 14698              	.L1537:
 14699 7ab4 488B8424 		movq	1864(%rsp), %rax
 14699      48070000 
 14700 7abc 64483304 		xorq	%fs:40, %rax
 14700      25280000 
 14700      00
 14701 7ac5 0F85C700 		jne	.L1589
 14701      0000
 14702 7acb 4881C458 		addq	$1880, %rsp
 14702      070000
 14703              		.cfi_remember_state
 14704              		.cfi_def_cfa_offset 40
 14705 7ad2 5B       		popq	%rbx
 14706              		.cfi_def_cfa_offset 32
 14707 7ad3 5D       		popq	%rbp
 14708              		.cfi_def_cfa_offset 24
 14709 7ad4 415C     		popq	%r12
 14710              		.cfi_def_cfa_offset 16
 14711 7ad6 415D     		popq	%r13
 14712              		.cfi_def_cfa_offset 8
 14713 7ad8 C3       		ret
 14714              	.L1573:
 14715              		.cfi_restore_state
 14716 7ad9 4889C3   		movq	%rax, %rbx
 14717 7adc 4889D5   		movq	%rdx, %rbp
 14718              	.L1556:
 14719 7adf 488DBC24 		leaq	736(%rsp), %rdi
 14719      E0020000 
 14720 7ae7 E8000000 		call	_ZN8UnitTest16SignalTranslatorD1Ev
 14720      00
 14721 7aec 4889DF   		movq	%rbx, %rdi
 14722 7aef 4889EA   		movq	%rbp, %rdx
 14723              	.L1557:
 14724 7af2 4883FA01 		cmpq	$1, %rdx
 14725 7af6 0F84E300 		je	.L1559
 14725      0000
 14726 7afc 4883FA02 		cmpq	$2, %rdx
 14727 7b00 0F85B300 		jne	.L1590
 14727      0000
 14728 7b06 E8000000 		call	__cxa_begin_catch
 14728      00
 14729 7b0b 488DBC24 		leaq	320(%rsp), %rdi
 14729      40010000 
 14730 7b13 4889C3   		movq	%rax, %rbx
 14731              	.LEHB542:
 14732 7b16 E8000000 		call	_ZN8UnitTest15MemoryOutStreamC1Ev
 14732      00
 14733              	.LEHE542:
 14734 7b1b 488B03   		movq	(%rbx), %rax
 14735 7b1e 4889DF   		movq	%rbx, %rdi
 14736 7b21 FF5010   		call	*16(%rax)
 14737 7b24 488DBC24 		leaq	320(%rsp), %rdi
 14737      40010000 
 14738 7b2c BA150000 		movl	$21, %edx
 14738      00
 14739 7b31 BE000000 		movl	$.LC69, %esi
 14739      00
 14740 7b36 4889C3   		movq	%rax, %rbx
 14741              	.LEHB543:
 14742 7b39 E8000000 		call	_ZSt16__ostream_insertIcSt11char_traitsIcEERSt13basic_ostreamIT_T0_ES6_PKS3_l
 14742      00
 14743 7b3e 488DBC24 		leaq	320(%rsp), %rdi
 14743      40010000 
 14744 7b46 4889DE   		movq	%rbx, %rsi
 14745 7b49 E8000000 		call	_ZStlsISt11char_traitsIcEERSt13basic_ostreamIcT_ES5_PKc
 14745      00
 14746 7b4e 488DBC24 		leaq	320(%rsp), %rdi
 14746      40010000 
 14747 7b56 E8000000 		call	_ZNK8UnitTest15MemoryOutStream7GetTextEv
 14747      00
 14748 7b5b 4889C3   		movq	%rax, %rbx
 14749 7b5e E8000000 		call	_ZN8UnitTest11CurrentTest7ResultsEv
 14749      00
 14750 7b63 488B7424 		movq	8(%rsp), %rsi
 14750      08
 14751 7b68 488B38   		movq	(%rax), %rdi
 14752 7b6b 4889DA   		movq	%rbx, %rdx
 14753 7b6e E8000000 		call	_ZN8UnitTest11TestResults13OnTestFailureERKNS_11TestDetailsEPKc
 14753      00
 14754              	.LEHE543:
 14755 7b73 488DBC24 		leaq	320(%rsp), %rdi
 14755      40010000 
 14756              	.LEHB544:
 14757 7b7b E8000000 		call	_ZN8UnitTest15MemoryOutStreamD1Ev
 14757      00
 14758              	.LEHE544:
 14759              	.L1585:
 14760 7b80 E8000000 		call	__cxa_end_catch
 14760      00
 14761 7b85 E92AFFFF 		jmp	.L1537
 14761      FF
 14762              	.L1572:
 14763 7b8a 4889C7   		movq	%rax, %rdi
 14764 7b8d E960FFFF 		jmp	.L1557
 14764      FF
 14765              	.L1589:
 14766 7b92 E8000000 		call	__stack_chk_fail
 14766      00
 14767              	.L1570:
 14768 7b97 488DBC24 		leaq	320(%rsp), %rdi
 14768      40010000 
 14769 7b9f 4889C3   		movq	%rax, %rbx
 14770 7ba2 E8000000 		call	_ZN8UnitTest15MemoryOutStreamD1Ev
 14770      00
 14771              	.L1565:
 14772 7ba7 E8000000 		call	__cxa_end_catch
 14772      00
 14773 7bac 4889DF   		movq	%rbx, %rdi
 14774              	.LEHB545:
 14775 7baf E8000000 		call	_Unwind_Resume
 14775      00
 14776              	.LEHE545:
 14777              	.L1569:
 14778              	.L1586:
 14779 7bb4 4889C3   		movq	%rax, %rbx
 14780 7bb7 EBEE     		jmp	.L1565
 14781              	.L1590:
 14782 7bb9 E8000000 		call	__cxa_begin_catch
 14782      00
 14783              	.LEHB546:
 14784 7bbe E8000000 		call	_ZN8UnitTest11CurrentTest7ResultsEv
 14784      00
 14785 7bc3 488B7424 		movq	8(%rsp), %rsi
 14785      08
 14786 7bc8 488B38   		movq	(%rax), %rdi
 14787 7bcb BA000000 		movl	$.LC70, %edx
 14787      00
 14788 7bd0 E8000000 		call	_ZN8UnitTest11TestResults13OnTestFailureERKNS_11TestDetailsEPKc
 14788      00
 14789              	.LEHE546:
 14790              	.LEHB547:
 14791 7bd5 E8000000 		call	__cxa_end_catch
 14791      00
 14792              	.LEHE547:
 14793 7bda E9D5FEFF 		jmp	.L1537
 14793      FF
 14794              	.L1559:
 14795 7bdf E8000000 		call	__cxa_begin_catch
 14795      00
 14796 7be4 4889C3   		movq	%rax, %rbx
 14797 7be7 488B00   		movq	(%rax), %rax
 14798 7bea 4889DF   		movq	%rbx, %rdi
 14799 7bed FF5010   		call	*16(%rax)
 14800 7bf0 4889DF   		movq	%rbx, %rdi
 14801 7bf3 4889C5   		movq	%rax, %rbp
 14802              	.LEHB548:
 14803 7bf6 E8000000 		call	_ZNK8UnitTest15AssertException10LineNumberEv
 14803      00
 14804 7bfb 4889DF   		movq	%rbx, %rdi
 14805 7bfe 4189C4   		movl	%eax, %r12d
 14806 7c01 E8000000 		call	_ZNK8UnitTest15AssertException8FilenameEv
 14806      00
 14807 7c06 488B5424 		movq	8(%rsp), %rdx
 14807      08
 14808 7c0b 488D7C24 		leaq	32(%rsp), %rdi
 14808      20
 14809 7c10 4589E0   		movl	%r12d, %r8d
 14810 7c13 4889C1   		movq	%rax, %rcx
 14811 7c16 488B7208 		movq	8(%rdx), %rsi
 14812 7c1a 488B12   		movq	(%rdx), %rdx
 14813 7c1d E8000000 		call	_ZN8UnitTest11TestDetailsC1EPKcS2_S2_i
 14813      00
 14814 7c22 E8000000 		call	_ZN8UnitTest11CurrentTest7ResultsEv
 14814      00
 14815 7c27 488B38   		movq	(%rax), %rdi
 14816 7c2a 488D7424 		leaq	32(%rsp), %rsi
 14816      20
 14817 7c2f 4889EA   		movq	%rbp, %rdx
 14818 7c32 E8000000 		call	_ZN8UnitTest11TestResults13OnTestFailureERKNS_11TestDetailsEPKc
 14818      00
 14819              	.LEHE548:
 14820 7c37 E944FFFF 		jmp	.L1585
 14820      FF
 14821              	.L1568:
 14822 7c3c 4889C3   		movq	%rax, %rbx
 14823 7c3f E8000000 		call	__cxa_end_catch
 14823      00
 14824 7c44 4889DF   		movq	%rbx, %rdi
 14825              	.LEHB549:
 14826 7c47 E8000000 		call	_Unwind_Resume
 14826      00
 14827              	.LEHE549:
 14828              	.L1571:
 14829 7c4c E963FFFF 		jmp	.L1586
 14829      FF
 14830              	.L1577:
 14831 7c51 4889C7   		movq	%rax, %rdi
 14832 7c54 E8000000 		call	__cxa_begin_catch
 14832      00
 14833              	.LEHB550:
 14834 7c59 E8000000 		call	_ZN8UnitTest11CurrentTest7DetailsEv
 14834      00
 14835 7c5e 488B30   		movq	(%rax), %rsi
 14836 7c61 488D7C24 		leaq	64(%rsp), %rdi
 14836      40
 14837 7c66 BA240100 		movl	$292, %edx
 14837      00
 14838 7c6b E8000000 		call	_ZN8UnitTest11TestDetailsC1ERKS0_i
 14838      00
 14839 7c70 E8000000 		call	_ZN8UnitTest11CurrentTest7ResultsEv
 14839      00
 14840 7c75 488B38   		movq	(%rax), %rdi
 14841 7c78 488D7424 		leaq	64(%rsp), %rsi
 14841      40
 14842 7c7d BA000000 		movl	$.LC129, %edx
 14842      00
 14843 7c82 E8000000 		call	_ZN8UnitTest11TestResults13OnTestFailureERKNS_11TestDetailsEPKc
 14843      00
 14844              	.LEHE550:
 14845              	.LEHB551:
 14846 7c87 E8000000 		call	__cxa_end_catch
 14846      00
 14847              	.LEHE551:
 14848 7c8c E9FCFDFF 		jmp	.L1553
 14848      FF
 14849              	.L1579:
 14850 7c91 4889C7   		movq	%rax, %rdi
 14851 7c94 E8000000 		call	__cxa_begin_catch
 14851      00
 14852              	.LEHB552:
 14853 7c99 E8000000 		call	_ZN8UnitTest11CurrentTest7DetailsEv
 14853      00
 14854 7c9e 488B30   		movq	(%rax), %rsi
 14855 7ca1 488DBC24 		leaq	128(%rsp), %rdi
 14855      80000000 
 14856 7ca9 BA230100 		movl	$291, %edx
 14856      00
 14857 7cae E8000000 		call	_ZN8UnitTest11TestDetailsC1ERKS0_i
 14857      00
 14858 7cb3 E8000000 		call	_ZN8UnitTest11CurrentTest7ResultsEv
 14858      00
 14859 7cb8 488B38   		movq	(%rax), %rdi
 14860 7cbb 488DB424 		leaq	128(%rsp), %rsi
 14860      80000000 
 14861 7cc3 BA000000 		movl	$.LC128, %edx
 14861      00
 14862 7cc8 E8000000 		call	_ZN8UnitTest11TestResults13OnTestFailureERKNS_11TestDetailsEPKc
 14862      00
 14863              	.LEHE552:
 14864              	.LEHB553:
 14865 7ccd E8000000 		call	__cxa_end_catch
 14865      00
 14866              	.LEHE553:
 14867 7cd2 E97AFDFF 		jmp	.L1549
 14867      FF
 14868              	.L1576:
 14869 7cd7 4889C3   		movq	%rax, %rbx
 14870 7cda 4889D5   		movq	%rdx, %rbp
 14871 7cdd E8000000 		call	__cxa_end_catch
 14871      00
 14872              	.L1551:
 14873 7ce2 488DBC24 		leaq	256(%rsp), %rdi
 14873      00010000 
 14874 7cea E8000000 		call	_ZN8UnitTest4TestD1Ev
 14874      00
 14875              	.L1555:
 14876 7cef 488DBC24 		leaq	192(%rsp), %rdi
 14876      C0000000 
 14877 7cf7 E8000000 		call	_ZN8UnitTest4TestD1Ev
 14877      00
 14878 7cfc E9DEFDFF 		jmp	.L1556
 14878      FF
 14879              	.L1578:
 14880 7d01 4889C3   		movq	%rax, %rbx
 14881 7d04 4889D5   		movq	%rdx, %rbp
 14882 7d07 E8000000 		call	__cxa_end_catch
 14882      00
 14883 7d0c EBD4     		jmp	.L1551
 14884              	.L1575:
 14885 7d0e 4889C3   		movq	%rax, %rbx
 14886 7d11 4889D5   		movq	%rdx, %rbp
 14887 7d14 EBCC     		jmp	.L1551
 14888              	.L1574:
 14889 7d16 4889C3   		movq	%rax, %rbx
 14890 7d19 4889D5   		movq	%rdx, %rbp
 14891 7d1c EBD1     		jmp	.L1555
 14892              		.cfi_endproc
 14893              	.LFE1596:
 14894              		.section	.gcc_except_table
 14895              		.align 4
 14896              	.LLSDA1596:
 14897 0f14 FF       		.byte	0xff
 14898 0f15 03       		.byte	0x3
 14899 0f16 9401     		.uleb128 .LLSDATT1596-.LLSDATTD1596
 14900              	.LLSDATTD1596:
 14901 0f18 01       		.byte	0x1
 14902 0f19 7E       		.uleb128 .LLSDACSE1596-.LLSDACSB1596
 14903              	.LLSDACSB1596:
 14904 0f1a 2C       		.uleb128 .LEHB532-.LFB1596
 14905 0f1b 05       		.uleb128 .LEHE532-.LEHB532
 14906 0f1c 00       		.uleb128 0
 14907 0f1d 00       		.uleb128 0
 14908 0f1e 3C       		.uleb128 .LEHB533-.LFB1596
 14909 0f1f 05       		.uleb128 .LEHE533-.LEHB533
 14910 0f20 EA05     		.uleb128 .L1572-.LFB1596
 14911 0f22 05       		.uleb128 0x5
 14912 0f23 71       		.uleb128 .LEHB534-.LFB1596
 14913 0f24 2E       		.uleb128 .LEHE534-.LEHB534
 14914 0f25 B904     		.uleb128 .L1573-.LFB1596
 14915 0f27 07       		.uleb128 0x7
 14916 0f28 B501     		.uleb128 .LEHB535-.LFB1596
 14917 0f2a 24       		.uleb128 .LEHE535-.LEHB535
 14918 0f2b F608     		.uleb128 .L1574-.LFB1596
 14919 0f2d 07       		.uleb128 0x7
 14920 0f2e E401     		.uleb128 .LEHB536-.LFB1596
 14921 0f30 8301     		.uleb128 .LEHE536-.LEHB536
 14922 0f32 EE08     		.uleb128 .L1575-.LFB1596
 14923 0f34 07       		.uleb128 0x7
 14924 0f35 EA02     		.uleb128 .LEHB537-.LFB1596
 14925 0f37 47       		.uleb128 .LEHE537-.LEHB537
 14926 0f38 F107     		.uleb128 .L1579-.LFB1596
 14927 0f3a 01       		.uleb128 0x1
 14928 0f3b B103     		.uleb128 .LEHB538-.LFB1596
 14929 0f3d 3C       		.uleb128 .LEHE538-.LEHB538
 14930 0f3e B107     		.uleb128 .L1577-.LFB1596
 14931 0f40 01       		.uleb128 0x1
 14932 0f41 F503     		.uleb128 .LEHB539-.LFB1596
 14933 0f43 05       		.uleb128 .LEHE539-.LEHB539
 14934 0f44 F608     		.uleb128 .L1574-.LFB1596
 14935 0f46 07       		.uleb128 0x7
 14936 0f47 8204     		.uleb128 .LEHB540-.LFB1596
 14937 0f49 05       		.uleb128 .LEHE540-.LEHB540
 14938 0f4a B904     		.uleb128 .L1573-.LFB1596
 14939 0f4c 07       		.uleb128 0x7
 14940 0f4d 8F04     		.uleb128 .LEHB541-.LFB1596
 14941 0f4f 05       		.uleb128 .LEHE541-.LEHB541
 14942 0f50 EA05     		.uleb128 .L1572-.LFB1596
 14943 0f52 05       		.uleb128 0x5
 14944 0f53 F604     		.uleb128 .LEHB542-.LFB1596
 14945 0f55 05       		.uleb128 .LEHE542-.LEHB542
 14946 0f56 9406     		.uleb128 .L1569-.LFB1596
 14947 0f58 00       		.uleb128 0
 14948 0f59 9905     		.uleb128 .LEHB543-.LFB1596
 14949 0f5b 3A       		.uleb128 .LEHE543-.LEHB543
 14950 0f5c F705     		.uleb128 .L1570-.LFB1596
 14951 0f5e 00       		.uleb128 0
 14952 0f5f DB05     		.uleb128 .LEHB544-.LFB1596
 14953 0f61 05       		.uleb128 .LEHE544-.LEHB544
 14954 0f62 9406     		.uleb128 .L1569-.LFB1596
 14955 0f64 00       		.uleb128 0
 14956 0f65 8F06     		.uleb128 .LEHB545-.LFB1596
 14957 0f67 05       		.uleb128 .LEHE545-.LEHB545
 14958 0f68 00       		.uleb128 0
 14959 0f69 00       		.uleb128 0
 14960 0f6a 9E06     		.uleb128 .LEHB546-.LFB1596
 14961 0f6c 17       		.uleb128 .LEHE546-.LEHB546
 14962 0f6d 9C07     		.uleb128 .L1568-.LFB1596
 14963 0f6f 00       		.uleb128 0
 14964 0f70 B506     		.uleb128 .LEHB547-.LFB1596
 14965 0f72 05       		.uleb128 .LEHE547-.LEHB547
 14966 0f73 00       		.uleb128 0
 14967 0f74 00       		.uleb128 0
 14968 0f75 D606     		.uleb128 .LEHB548-.LFB1596
 14969 0f77 41       		.uleb128 .LEHE548-.LEHB548
 14970 0f78 AC07     		.uleb128 .L1571-.LFB1596
 14971 0f7a 00       		.uleb128 0
 14972 0f7b A707     		.uleb128 .LEHB549-.LFB1596
 14973 0f7d 05       		.uleb128 .LEHE549-.LEHB549
 14974 0f7e 00       		.uleb128 0
 14975 0f7f 00       		.uleb128 0
 14976 0f80 B907     		.uleb128 .LEHB550-.LFB1596
 14977 0f82 2E       		.uleb128 .LEHE550-.LEHB550
 14978 0f83 B708     		.uleb128 .L1576-.LFB1596
 14979 0f85 07       		.uleb128 0x7
 14980 0f86 E707     		.uleb128 .LEHB551-.LFB1596
 14981 0f88 05       		.uleb128 .LEHE551-.LEHB551
 14982 0f89 EE08     		.uleb128 .L1575-.LFB1596
 14983 0f8b 07       		.uleb128 0x7
 14984 0f8c F907     		.uleb128 .LEHB552-.LFB1596
 14985 0f8e 34       		.uleb128 .LEHE552-.LEHB552
 14986 0f8f E108     		.uleb128 .L1578-.LFB1596
 14987 0f91 07       		.uleb128 0x7
 14988 0f92 AD08     		.uleb128 .LEHB553-.LFB1596
 14989 0f94 05       		.uleb128 .LEHE553-.LEHB553
 14990 0f95 EE08     		.uleb128 .L1575-.LFB1596
 14991 0f97 07       		.uleb128 0x7
 14992              	.LLSDACSE1596:
 14993 0f98 03       		.byte	0x3
 14994 0f99 00       		.byte	0
 14995 0f9a 02       		.byte	0x2
 14996 0f9b 7D       		.byte	0x7d
 14997 0f9c 01       		.byte	0x1
 14998 0f9d 7D       		.byte	0x7d
 14999 0f9e 00       		.byte	0
 15000 0f9f 7D       		.byte	0x7d
 15001              		.align 4
 15002 0fa0 00000000 		.long	0
 15003              	
 15004 0fa4 00000000 		.long	_ZTISt9exception
 15005 0fa8 00000000 		.long	_ZTIN8UnitTest15AssertExceptionE
 15006              	.LLSDATT1596:
 15007              		.text
 15009              		.section	.text.unlikely
 15010              	.LCOLDE164:
 15011              		.text
 15012              	.LHOTE164:
 15013              		.section	.text.unlikely
 15014              		.align 2
 15015              	.LCOLDB165:
 15016              		.text
 15017              	.LHOTB165:
 15018              		.align 2
 15019 7d1e 6690     		.p2align 4,,15
 15021              	_ZNK12_GLOBAL__N_157TestTestRunnerFixtureTestRunnerRunsTestsThatPassPredicate7RunImplEv:
 15022              	.LFB1346:
 15023              		.cfi_startproc
 15024              		.cfi_personality 0x3,__gxx_personality_v0
 15025              		.cfi_lsda 0x3,.LLSDA1346
 15026 7d20 4155     		pushq	%r13
 15027              		.cfi_def_cfa_offset 16
 15028              		.cfi_offset 13, -16
 15029 7d22 4154     		pushq	%r12
 15030              		.cfi_def_cfa_offset 24
 15031              		.cfi_offset 12, -24
 15032 7d24 55       		pushq	%rbp
 15033              		.cfi_def_cfa_offset 32
 15034              		.cfi_offset 6, -32
 15035 7d25 53       		pushq	%rbx
 15036              		.cfi_def_cfa_offset 40
 15037              		.cfi_offset 3, -40
 15038 7d26 4889FD   		movq	%rdi, %rbp
 15039 7d29 488D5F08 		leaq	8(%rdi), %rbx
 15040 7d2d 4881EC98 		subq	$2200, %rsp
 15040      080000
 15041              		.cfi_def_cfa_offset 2240
 15042 7d34 64488B04 		movq	%fs:40, %rax
 15042      25280000 
 15042      00
 15043 7d3d 48898424 		movq	%rax, 2184(%rsp)
 15043      88080000 
 15044 7d45 31C0     		xorl	%eax, %eax
 15045 7d47 488D4424 		leaq	32(%rsp), %rax
 15045      20
 15046 7d4c 488D7424 		leaq	56(%rsp), %rsi
 15046      38
 15047 7d51 4889C7   		movq	%rax, %rdi
 15048              	.LEHB554:
 15049 7d54 E8000000 		call	_ZN8UnitTest10TestRunnerC1ERNS_12TestReporterE
 15049      00
 15050              	.LEHE554:
 15051 7d59 488DBC24 		leaq	2152(%rsp), %rdi
 15051      68080000 
 15052 7d61 48C74424 		movq	$_ZTV17RecordingReporter+16, 56(%rsp)
 15052      38000000 
 15052      00
 15053 7d6a C7442440 		movl	$0, 64(%rsp)
 15053      00000000 
 15054 7d72 C7842444 		movl	$0, 580(%rsp)
 15054      02000000 
 15054      000000
 15055 7d7d C7842448 		movl	$0, 840(%rsp)
 15055      03000000 
 15055      000000
 15056 7d88 C784244C 		movl	$0, 1612(%rsp)
 15056      06000000 
 15056      000000
 15057 7d93 C7842450 		movl	$0x00000000, 2128(%rsp)
 15057      08000000 
 15057      000000
 15058 7d9e C7842454 		movl	$0, 2132(%rsp)
 15058      08000000 
 15058      000000
 15059 7da9 C7842458 		movl	$0, 2136(%rsp)
 15059      08000000 
 15059      000000
 15060 7db4 C784245C 		movl	$0, 2140(%rsp)
 15060      08000000 
 15060      000000
 15061 7dbf C7842460 		movl	$0x00000000, 2144(%rsp)
 15061      08000000 
 15061      000000
 15062 7dca C6442444 		movb	$0, 68(%rsp)
 15062      00
 15063 7dcf C6842444 		movb	$0, 324(%rsp)
 15063      01000000 
 15064 7dd7 C6842448 		movb	$0, 584(%rsp)
 15064      02000000 
 15065 7ddf C684244C 		movb	$0, 844(%rsp)
 15065      03000000 
 15066 7de7 C684244C 		movb	$0, 1100(%rsp)
 15066      04000000 
 15067 7def C684244C 		movb	$0, 1356(%rsp)
 15067      05000000 
 15068 7df7 C6842450 		movb	$0, 1616(%rsp)
 15068      06000000 
 15069 7dff C6842450 		movb	$0, 1872(%rsp)
 15069      07000000 
 15070              	.LEHB555:
 15071 7e07 E8000000 		call	_ZN8UnitTest8TestListC1Ev
 15071      00
 15072              	.LEHE555:
 15073 7e0c 488D7C24 		leaq	32(%rsp), %rdi
 15073      20
 15074 7e11 4889DE   		movq	%rbx, %rsi
 15075 7e14 48899C24 		movq	%rbx, 2168(%rsp)
 15075      78080000 
 15076              	.LEHB556:
 15077 7e1c E87FFAFF 		call	_ZN8UnitTest11ExecuteTestIN12_GLOBAL__N_159TestRunnerFixtureTestRunnerRunsTestsThatPassPredic
 15077      FF
 15078              	.LEHE556:
 15079 7e21 488D7C24 		leaq	56(%rsp), %rdi
 15079      38
 15080 7e26 48C74424 		movq	$_ZTV17RecordingReporter+16, 56(%rsp)
 15080      38000000 
 15080      00
 15081              	.LEHB557:
 15082 7e2f E8000000 		call	_ZN8UnitTest12TestReporterD2Ev
 15082      00
 15083              	.LEHE557:
 15084 7e34 488D7C24 		leaq	32(%rsp), %rdi
 15084      20
 15085              	.LEHB558:
 15086 7e39 E8000000 		call	_ZN8UnitTest10TestRunnerD1Ev
 15086      00
 15087              	.LEHE558:
 15088              	.L1591:
 15089 7e3e 488B8424 		movq	2184(%rsp), %rax
 15089      88080000 
 15090 7e46 64483304 		xorq	%fs:40, %rax
 15090      25280000 
 15090      00
 15091 7e4f 750E     		jne	.L1630
 15092 7e51 4881C498 		addq	$2200, %rsp
 15092      080000
 15093              		.cfi_remember_state
 15094              		.cfi_def_cfa_offset 40
 15095 7e58 5B       		popq	%rbx
 15096              		.cfi_def_cfa_offset 32
 15097 7e59 5D       		popq	%rbp
 15098              		.cfi_def_cfa_offset 24
 15099 7e5a 415C     		popq	%r12
 15100              		.cfi_def_cfa_offset 16
 15101 7e5c 415D     		popq	%r13
 15102              		.cfi_def_cfa_offset 8
 15103 7e5e C3       		ret
 15104              	.L1630:
 15105              		.cfi_restore_state
 15106 7e5f E8000000 		call	__stack_chk_fail
 15106      00
 15107              	.L1612:
 15108 7e64 4889C7   		movq	%rax, %rdi
 15109 7e67 41BC0100 		movl	$1, %r12d
 15109      0000
 15110              	.L1594:
 15111 7e6d 4883FA01 		cmpq	$1, %rdx
 15112 7e71 0F844501 		je	.L1603
 15112      0000
 15113 7e77 4883FA02 		cmpq	$2, %rdx
 15114 7e7b 0F85FE00 		jne	.L1631
 15114      0000
 15115 7e81 E8000000 		call	__cxa_begin_catch
 15115      00
 15116 7e86 488D7C24 		leaq	32(%rsp), %rdi
 15116      20
 15117 7e8b 4889C5   		movq	%rax, %rbp
 15118              	.LEHB559:
 15119 7e8e E8000000 		call	_ZN8UnitTest15MemoryOutStreamC1Ev
 15119      00
 15120              	.LEHE559:
 15121 7e93 488B4500 		movq	0(%rbp), %rax
 15122 7e97 4889EF   		movq	%rbp, %rdi
 15123 7e9a FF5010   		call	*16(%rax)
 15124 7e9d 488D7C24 		leaq	32(%rsp), %rdi
 15124      20
 15125 7ea2 BA150000 		movl	$21, %edx
 15125      00
 15126 7ea7 BE000000 		movl	$.LC69, %esi
 15126      00
 15127 7eac 4889C5   		movq	%rax, %rbp
 15128              	.LEHB560:
 15129 7eaf E8000000 		call	_ZSt16__ostream_insertIcSt11char_traitsIcEERSt13basic_ostreamIT_T0_ES6_PKS3_l
 15129      00
 15130 7eb4 488D7C24 		leaq	32(%rsp), %rdi
 15130      20
 15131 7eb9 4889EE   		movq	%rbp, %rsi
 15132 7ebc E8000000 		call	_ZStlsISt11char_traitsIcEERSt13basic_ostreamIcT_ES5_PKc
 15132      00
 15133 7ec1 488D7C24 		leaq	32(%rsp), %rdi
 15133      20
 15134 7ec6 E8000000 		call	_ZNK8UnitTest15MemoryOutStream7GetTextEv
 15134      00
 15135 7ecb 4889C5   		movq	%rax, %rbp
 15136 7ece E8000000 		call	_ZN8UnitTest11CurrentTest7ResultsEv
 15136      00
 15137 7ed3 488B38   		movq	(%rax), %rdi
 15138 7ed6 4889EA   		movq	%rbp, %rdx
 15139 7ed9 4889DE   		movq	%rbx, %rsi
 15140 7edc E8000000 		call	_ZN8UnitTest11TestResults13OnTestFailureERKNS_11TestDetailsEPKc
 15140      00
 15141              	.LEHE560:
 15142 7ee1 488D7C24 		leaq	32(%rsp), %rdi
 15142      20
 15143              	.LEHB561:
 15144 7ee6 E8000000 		call	_ZN8UnitTest15MemoryOutStreamD1Ev
 15144      00
 15145              	.LEHE561:
 15146              	.L1625:
 15147 7eeb E8000000 		call	__cxa_end_catch
 15147      00
 15148 7ef0 E949FFFF 		jmp	.L1591
 15148      FF
 15149              	.L1619:
 15150 7ef5 488D7C24 		leaq	32(%rsp), %rdi
 15150      20
 15151 7efa 4989D4   		movq	%rdx, %r12
 15152 7efd 4989C5   		movq	%rax, %r13
 15153 7f00 E8000000 		call	_ZN8UnitTest10TestRunnerD1Ev
 15153      00
 15154 7f05 4C89E2   		movq	%r12, %rdx
 15155 7f08 4C89EF   		movq	%r13, %rdi
 15156 7f0b 41BC0100 		movl	$1, %r12d
 15156      0000
 15157 7f11 E957FFFF 		jmp	.L1594
 15157      FF
 15158              	.L1613:
 15159 7f16 488D7C24 		leaq	32(%rsp), %rdi
 15159      20
 15160 7f1b 4989D4   		movq	%rdx, %r12
 15161 7f1e 4989C5   		movq	%rax, %r13
 15162 7f21 E8000000 		call	_ZN12_GLOBAL__N_111FixtureBaseD2Ev
 15162      00
 15163 7f26 4C89E2   		movq	%r12, %rdx
 15164 7f29 4C89EF   		movq	%r13, %rdi
 15165 7f2c 41BC0100 		movl	$1, %r12d
 15165      0000
 15166 7f32 E936FFFF 		jmp	.L1594
 15166      FF
 15167              	.L1618:
 15168 7f37 488D7C24 		leaq	32(%rsp), %rdi
 15168      20
 15169 7f3c 4989D4   		movq	%rdx, %r12
 15170 7f3f 4989C5   		movq	%rax, %r13
 15171 7f42 E8000000 		call	_ZN12_GLOBAL__N_111FixtureBaseD2Ev
 15171      00
 15172 7f47 4C89E2   		movq	%r12, %rdx
 15173 7f4a 4C89EF   		movq	%r13, %rdi
 15174 7f4d 4531E4   		xorl	%r12d, %r12d
 15175 7f50 E918FFFF 		jmp	.L1594
 15175      FF
 15176              	.L1620:
 15177 7f55 4889C7   		movq	%rax, %rdi
 15178 7f58 4531E4   		xorl	%r12d, %r12d
 15179 7f5b E90DFFFF 		jmp	.L1594
 15179      FF
 15180              	.L1616:
 15181 7f60 488D7C24 		leaq	32(%rsp), %rdi
 15181      20
 15182 7f65 4889C3   		movq	%rax, %rbx
 15183 7f68 E8000000 		call	_ZN8UnitTest15MemoryOutStreamD1Ev
 15183      00
 15184              	.L1609:
 15185 7f6d E8000000 		call	__cxa_end_catch
 15185      00
 15186 7f72 4889DF   		movq	%rbx, %rdi
 15187              	.LEHB562:
 15188 7f75 E8000000 		call	_Unwind_Resume
 15188      00
 15189              	.LEHE562:
 15190              	.L1615:
 15191              	.L1626:
 15192 7f7a 4889C3   		movq	%rax, %rbx
 15193 7f7d EBEE     		jmp	.L1609
 15194              	.L1631:
 15195 7f7f E8000000 		call	__cxa_begin_catch
 15195      00
 15196 7f84 4584E4   		testb	%r12b, %r12b
 15197 7f87 BA1A0100 		movl	$282, %edx
 15197      00
 15198 7f8c 4889DE   		movq	%rbx, %rsi
 15199 7f8f 4889E7   		movq	%rsp, %rdi
 15200 7f92 0F848900 		je	.L1605
 15200      0000
 15201              	.LEHB563:
 15202 7f98 E8000000 		call	_ZN8UnitTest11TestDetailsC1ERKS0_i
 15202      00
 15203 7f9d E8000000 		call	_ZN8UnitTest11CurrentTest7ResultsEv
 15203      00
 15204 7fa2 488B38   		movq	(%rax), %rdi
 15205 7fa5 BA000000 		movl	$.LC73, %edx
 15205      00
 15206 7faa 4889E6   		movq	%rsp, %rsi
 15207 7fad E8000000 		call	_ZN8UnitTest11TestResults13OnTestFailureERKNS_11TestDetailsEPKc
 15207      00
 15208              	.LEHE563:
 15209              	.L1606:
 15210              	.LEHB564:
 15211 7fb2 E8000000 		call	__cxa_end_catch
 15211      00
 15212              	.LEHE564:
 15213 7fb7 E982FEFF 		jmp	.L1591
 15213      FF
 15214              	.L1603:
 15215 7fbc E8000000 		call	__cxa_begin_catch
 15215      00
 15216 7fc1 4889C3   		movq	%rax, %rbx
 15217 7fc4 488B00   		movq	(%rax), %rax
 15218 7fc7 4889DF   		movq	%rbx, %rdi
 15219 7fca FF5010   		call	*16(%rax)
 15220 7fcd 4889DF   		movq	%rbx, %rdi
 15221 7fd0 4989C4   		movq	%rax, %r12
 15222              	.LEHB565:
 15223 7fd3 E8000000 		call	_ZNK8UnitTest15AssertException10LineNumberEv
 15223      00
 15224 7fd8 4889DF   		movq	%rbx, %rdi
 15225 7fdb 4189C5   		movl	%eax, %r13d
 15226 7fde E8000000 		call	_ZNK8UnitTest15AssertException8FilenameEv
 15226      00
 15227 7fe3 488B5508 		movq	8(%rbp), %rdx
 15228 7fe7 488B7510 		movq	16(%rbp), %rsi
 15229 7feb 4589E8   		movl	%r13d, %r8d
 15230 7fee 4889C1   		movq	%rax, %rcx
 15231 7ff1 4889E7   		movq	%rsp, %rdi
 15232 7ff4 E8000000 		call	_ZN8UnitTest11TestDetailsC1EPKcS2_S2_i
 15232      00
 15233 7ff9 E8000000 		call	_ZN8UnitTest11CurrentTest7ResultsEv
 15233      00
 15234 7ffe 488B38   		movq	(%rax), %rdi
 15235 8001 4C89E2   		movq	%r12, %rdx
 15236 8004 4889E6   		movq	%rsp, %rsi
 15237 8007 E8000000 		call	_ZN8UnitTest11TestResults13OnTestFailureERKNS_11TestDetailsEPKc
 15237      00
 15238              	.LEHE565:
 15239 800c E9DAFEFF 		jmp	.L1625
 15239      FF
 15240              	.L1617:
 15241 8011 4889C3   		movq	%rax, %rbx
 15242 8014 E8000000 		call	__cxa_end_catch
 15242      00
 15243 8019 4889DF   		movq	%rbx, %rdi
 15244              	.LEHB566:
 15245 801c E8000000 		call	_Unwind_Resume
 15245      00
 15246              	.LEHE566:
 15247              	.L1605:
 15248              	.LEHB567:
 15249 8021 E8000000 		call	_ZN8UnitTest11TestDetailsC1ERKS0_i
 15249      00
 15250 8026 E8000000 		call	_ZN8UnitTest11CurrentTest7ResultsEv
 15250      00
 15251 802b 488B38   		movq	(%rax), %rdi
 15252 802e BA000000 		movl	$.LC74, %edx
 15252      00
 15253 8033 4889E6   		movq	%rsp, %rsi
 15254 8036 E8000000 		call	_ZN8UnitTest11TestResults13OnTestFailureERKNS_11TestDetailsEPKc
 15254      00
 15255              	.LEHE567:
 15256 803b E972FFFF 		jmp	.L1606
 15256      FF
 15257              	.L1614:
 15258 8040 E935FFFF 		jmp	.L1626
 15258      FF
 15259              		.cfi_endproc
 15260              	.LFE1346:
 15261              		.section	.gcc_except_table
 15262              		.align 4
 15263              	.LLSDA1346:
 15264 0fac FF       		.byte	0xff
 15265 0fad 03       		.byte	0x3
 15266 0fae 69       		.uleb128 .LLSDATT1346-.LLSDATTD1346
 15267              	.LLSDATTD1346:
 15268 0faf 01       		.byte	0x1
 15269 0fb0 50       		.uleb128 .LLSDACSE1346-.LLSDACSB1346
 15270              	.LLSDACSB1346:
 15271 0fb1 34       		.uleb128 .LEHB554-.LFB1346
 15272 0fb2 05       		.uleb128 .LEHE554-.LEHB554
 15273 0fb3 B504     		.uleb128 .L1620-.LFB1346
 15274 0fb5 05       		.uleb128 0x5
 15275 0fb6 E701     		.uleb128 .LEHB555-.LFB1346
 15276 0fb8 05       		.uleb128 .LEHE555-.LEHB555
 15277 0fb9 9704     		.uleb128 .L1618-.LFB1346
 15278 0fbb 07       		.uleb128 0x7
 15279 0fbc FC01     		.uleb128 .LEHB556-.LFB1346
 15280 0fbe 05       		.uleb128 .LEHE556-.LEHB556
 15281 0fbf F603     		.uleb128 .L1613-.LFB1346
 15282 0fc1 07       		.uleb128 0x7
 15283 0fc2 8F02     		.uleb128 .LEHB557-.LFB1346
 15284 0fc4 05       		.uleb128 .LEHE557-.LEHB557
 15285 0fc5 D503     		.uleb128 .L1619-.LFB1346
 15286 0fc7 07       		.uleb128 0x7
 15287 0fc8 9902     		.uleb128 .LEHB558-.LFB1346
 15288 0fca 05       		.uleb128 .LEHE558-.LEHB558
 15289 0fcb C402     		.uleb128 .L1612-.LFB1346
 15290 0fcd 05       		.uleb128 0x5
 15291 0fce EE02     		.uleb128 .LEHB559-.LFB1346
 15292 0fd0 05       		.uleb128 .LEHE559-.LEHB559
 15293 0fd1 DA04     		.uleb128 .L1615-.LFB1346
 15294 0fd3 00       		.uleb128 0
 15295 0fd4 8F03     		.uleb128 .LEHB560-.LFB1346
 15296 0fd6 32       		.uleb128 .LEHE560-.LEHB560
 15297 0fd7 C004     		.uleb128 .L1616-.LFB1346
 15298 0fd9 00       		.uleb128 0
 15299 0fda C603     		.uleb128 .LEHB561-.LFB1346
 15300 0fdc 05       		.uleb128 .LEHE561-.LEHB561
 15301 0fdd DA04     		.uleb128 .L1615-.LFB1346
 15302 0fdf 00       		.uleb128 0
 15303 0fe0 D504     		.uleb128 .LEHB562-.LFB1346
 15304 0fe2 05       		.uleb128 .LEHE562-.LEHB562
 15305 0fe3 00       		.uleb128 0
 15306 0fe4 00       		.uleb128 0
 15307 0fe5 F804     		.uleb128 .LEHB563-.LFB1346
 15308 0fe7 1A       		.uleb128 .LEHE563-.LEHB563
 15309 0fe8 F105     		.uleb128 .L1617-.LFB1346
 15310 0fea 00       		.uleb128 0
 15311 0feb 9205     		.uleb128 .LEHB564-.LFB1346
 15312 0fed 05       		.uleb128 .LEHE564-.LEHB564
 15313 0fee 00       		.uleb128 0
 15314 0fef 00       		.uleb128 0
 15315 0ff0 B305     		.uleb128 .LEHB565-.LFB1346
 15316 0ff2 39       		.uleb128 .LEHE565-.LEHB565
 15317 0ff3 A006     		.uleb128 .L1614-.LFB1346
 15318 0ff5 00       		.uleb128 0
 15319 0ff6 FC05     		.uleb128 .LEHB566-.LFB1346
 15320 0ff8 05       		.uleb128 .LEHE566-.LEHB566
 15321 0ff9 00       		.uleb128 0
 15322 0ffa 00       		.uleb128 0
 15323 0ffb 8106     		.uleb128 .LEHB567-.LFB1346
 15324 0ffd 1A       		.uleb128 .LEHE567-.LEHB567
 15325 0ffe F105     		.uleb128 .L1617-.LFB1346
 15326 1000 00       		.uleb128 0
 15327              	.LLSDACSE1346:
 15328 1001 03       		.byte	0x3
 15329 1002 00       		.byte	0
 15330 1003 02       		.byte	0x2
 15331 1004 7D       		.byte	0x7d
 15332 1005 01       		.byte	0x1
 15333 1006 7D       		.byte	0x7d
 15334 1007 00       		.byte	0
 15335 1008 7D       		.byte	0x7d
 15336 1009 000000   		.align 4
 15337 100c 00000000 		.long	0
 15338              	
 15339 1010 00000000 		.long	_ZTISt9exception
 15340 1014 00000000 		.long	_ZTIN8UnitTest15AssertExceptionE
 15341              	.LLSDATT1346:
 15342              		.text
 15344              		.section	.text.unlikely
 15345              	.LCOLDE165:
 15346              		.text
 15347              	.LHOTE165:
 15348              		.section	.rodata.str1.1
 15349              	.LC166:
 15350 01a3 70617373 		.string	"pass"
 15350      00
 15351              	.LC167:
 15352 01a8 6661696C 		.string	"fail"
 15352      00
 15353              	.LC168:
 15354 01ad 70726564 		.string	"predicate(&pass)"
 15354      69636174 
 15354      65282670 
 15354      61737329 
 15354      00
 15355              	.LC169:
 15356 01be 21707265 		.string	"!predicate(&fail)"
 15356      64696361 
 15356      74652826 
 15356      6661696C 
 15356      2900
 15357              		.section	.rodata.str1.8
 15358 0ab7 00       		.align 8
 15359              	.LC170:
 15360 0ab8 556E6861 		.string	"Unhandled exception in CHECK(predicate(&pass))"
 15360      6E646C65 
 15360      64206578 
 15360      63657074 
 15360      696F6E20 
 15361 0ae7 00       		.align 8
 15362              	.LC171:
 15363 0ae8 556E6861 		.string	"Unhandled exception in CHECK(!predicate(&fail))"
 15363      6E646C65 
 15363      64206578 
 15363      63657074 
 15363      696F6E20 
 15364              		.section	.text.unlikely
 15365              		.align 2
 15366              	.LCOLDB172:
 15367              		.text
 15368              	.LHOTB172:
 15369 8045 90       		.align 2
 15370 8046 662E0F1F 		.p2align 4,,15
 15370      84000000 
 15370      0000
 15372              	_ZNK12_GLOBAL__N_137TestTestMockPredicateBehavesCorrectly7RunImplEv:
 15373              	.LFB1339:
 15374              		.cfi_startproc
 15375              		.cfi_personality 0x3,__gxx_personality_v0
 15376              		.cfi_lsda 0x3,.LLSDA1339
 15377 8050 55       		pushq	%rbp
 15378              		.cfi_def_cfa_offset 16
 15379              		.cfi_offset 6, -16
 15380 8051 53       		pushq	%rbx
 15381              		.cfi_def_cfa_offset 24
 15382              		.cfi_offset 3, -24
 15383 8052 4531C0   		xorl	%r8d, %r8d
 15384 8055 B9000000 		movl	$.LC80, %ecx
 15384      00
 15385 805a BA000000 		movl	$.LC102, %edx
 15385      00
 15386 805f BE000000 		movl	$.LC166, %esi
 15386      00
 15387 8064 4881ECA8 		subq	$168, %rsp
 15387      000000
 15388              		.cfi_def_cfa_offset 192
 15389 806b 488D7C24 		leaq	32(%rsp), %rdi
 15389      20
 15390 8070 64488B04 		movq	%fs:40, %rax
 15390      25280000 
 15390      00
 15391 8079 48898424 		movq	%rax, 152(%rsp)
 15391      98000000 
 15392 8081 31C0     		xorl	%eax, %eax
 15393              	.LEHB568:
 15394 8083 E8000000 		call	_ZN8UnitTest4TestC1EPKcS2_S2_i
 15394      00
 15395              	.LEHE568:
 15396 8088 488D7C24 		leaq	96(%rsp), %rdi
 15396      60
 15397 808d 4531C0   		xorl	%r8d, %r8d
 15398 8090 B9000000 		movl	$.LC80, %ecx
 15398      00
 15399 8095 BA000000 		movl	$.LC102, %edx
 15399      00
 15400 809a BE000000 		movl	$.LC167, %esi
 15400      00
 15401              	.LEHB569:
 15402 809f E8000000 		call	_ZN8UnitTest4TestC1EPKcS2_S2_i
 15402      00
 15403              	.LEHE569:
 15404 80a4 488B7424 		movq	48(%rsp), %rsi
 15404      30
 15405 80a9 BB000000 		movl	$.LC166, %ebx
 15405      00
 15406 80ae B9050000 		movl	$5, %ecx
 15406      00
 15407 80b3 4889DF   		movq	%rbx, %rdi
 15408 80b6 F3A6     		repz cmpsb
 15409 80b8 7576     		jne	.L1655
 15410              	.L1634:
 15411 80ba 488B7424 		movq	112(%rsp), %rsi
 15411      70
 15412 80bf B9050000 		movl	$5, %ecx
 15412      00
 15413 80c4 4889DF   		movq	%rbx, %rdi
 15414 80c7 F3A6     		repz cmpsb
 15415 80c9 752A     		jne	.L1636
 15416              	.LEHB570:
 15417 80cb E8000000 		call	_ZN8UnitTest11CurrentTest7DetailsEv
 15417      00
 15418 80d0 488B30   		movq	(%rax), %rsi
 15419 80d3 BA170100 		movl	$279, %edx
 15419      00
 15420 80d8 4889E7   		movq	%rsp, %rdi
 15421 80db E8000000 		call	_ZN8UnitTest11TestDetailsC1ERKS0_i
 15421      00
 15422 80e0 E8000000 		call	_ZN8UnitTest11CurrentTest7ResultsEv
 15422      00
 15423 80e5 488B38   		movq	(%rax), %rdi
 15424 80e8 BA000000 		movl	$.LC169, %edx
 15424      00
 15425 80ed 4889E6   		movq	%rsp, %rsi
 15426 80f0 E8000000 		call	_ZN8UnitTest11TestResults13OnTestFailureERKNS_11TestDetailsEPKc
 15426      00
 15427              	.LEHE570:
 15428              	.L1636:
 15429 80f5 488D7C24 		leaq	96(%rsp), %rdi
 15429      60
 15430              	.LEHB571:
 15431 80fa E8000000 		call	_ZN8UnitTest4TestD1Ev
 15431      00
 15432              	.LEHE571:
 15433 80ff 488D7C24 		leaq	32(%rsp), %rdi
 15433      20
 15434              	.LEHB572:
 15435 8104 E8000000 		call	_ZN8UnitTest4TestD1Ev
 15435      00
 15436              	.LEHE572:
 15437 8109 488B8424 		movq	152(%rsp), %rax
 15437      98000000 
 15438 8111 64483304 		xorq	%fs:40, %rax
 15438      25280000 
 15438      00
 15439 811a 7543     		jne	.L1656
 15440 811c 4881C4A8 		addq	$168, %rsp
 15440      000000
 15441              		.cfi_remember_state
 15442              		.cfi_def_cfa_offset 24
 15443 8123 5B       		popq	%rbx
 15444              		.cfi_def_cfa_offset 16
 15445 8124 5D       		popq	%rbp
 15446              		.cfi_def_cfa_offset 8
 15447 8125 C3       		ret
 15448 8126 662E0F1F 		.p2align 4,,10
 15448      84000000 
 15448      0000
 15449              		.p2align 3
 15450              	.L1655:
 15451              		.cfi_restore_state
 15452              	.LEHB573:
 15453 8130 E8000000 		call	_ZN8UnitTest11CurrentTest7DetailsEv
 15453      00
 15454 8135 488B30   		movq	(%rax), %rsi
 15455 8138 BA160100 		movl	$278, %edx
 15455      00
 15456 813d 4889E7   		movq	%rsp, %rdi
 15457 8140 E8000000 		call	_ZN8UnitTest11TestDetailsC1ERKS0_i
 15457      00
 15458 8145 E8000000 		call	_ZN8UnitTest11CurrentTest7ResultsEv
 15458      00
 15459 814a 488B38   		movq	(%rax), %rdi
 15460 814d BA000000 		movl	$.LC168, %edx
 15460      00
 15461 8152 4889E6   		movq	%rsp, %rsi
 15462 8155 E8000000 		call	_ZN8UnitTest11TestResults13OnTestFailureERKNS_11TestDetailsEPKc
 15462      00
 15463              	.LEHE573:
 15464 815a E95BFFFF 		jmp	.L1634
 15464      FF
 15465              	.L1656:
 15466 815f E8000000 		call	__stack_chk_fail
 15466      00
 15467              	.L1646:
 15468 8164 4889C3   		movq	%rax, %rbx
 15469              	.L1644:
 15470 8167 488D7C24 		leaq	32(%rsp), %rdi
 15470      20
 15471 816c E8000000 		call	_ZN8UnitTest4TestD1Ev
 15471      00
 15472 8171 4889DF   		movq	%rbx, %rdi
 15473              	.LEHB574:
 15474 8174 E8000000 		call	_Unwind_Resume
 15474      00
 15475              	.LEHE574:
 15476              	.L1650:
 15477 8179 4889C7   		movq	%rax, %rdi
 15478 817c E8000000 		call	__cxa_begin_catch
 15478      00
 15479              	.LEHB575:
 15480 8181 E8000000 		call	_ZN8UnitTest11CurrentTest7DetailsEv
 15480      00
 15481 8186 488B30   		movq	(%rax), %rsi
 15482 8189 BA170100 		movl	$279, %edx
 15482      00
 15483 818e 4889E7   		movq	%rsp, %rdi
 15484 8191 E8000000 		call	_ZN8UnitTest11TestDetailsC1ERKS0_i
 15484      00
 15485 8196 E8000000 		call	_ZN8UnitTest11CurrentTest7ResultsEv
 15485      00
 15486 819b 488B38   		movq	(%rax), %rdi
 15487 819e BA000000 		movl	$.LC171, %edx
 15487      00
 15488 81a3 4889E6   		movq	%rsp, %rsi
 15489 81a6 E8000000 		call	_ZN8UnitTest11TestResults13OnTestFailureERKNS_11TestDetailsEPKc
 15489      00
 15490              	.LEHE575:
 15491              	.LEHB576:
 15492 81ab E8000000 		call	__cxa_end_catch
 15492      00
 15493              	.LEHE576:
 15494 81b0 E940FFFF 		jmp	.L1636
 15494      FF
 15495              	.L1647:
 15496 81b5 4889C7   		movq	%rax, %rdi
 15497 81b8 E8000000 		call	__cxa_begin_catch
 15497      00
 15498              	.LEHB577:
 15499 81bd E8000000 		call	_ZN8UnitTest11CurrentTest7DetailsEv
 15499      00
 15500 81c2 488B30   		movq	(%rax), %rsi
 15501 81c5 BA160100 		movl	$278, %edx
 15501      00
 15502 81ca 4889E7   		movq	%rsp, %rdi
 15503 81cd E8000000 		call	_ZN8UnitTest11TestDetailsC1ERKS0_i
 15503      00
 15504 81d2 E8000000 		call	_ZN8UnitTest11CurrentTest7ResultsEv
 15504      00
 15505 81d7 488B38   		movq	(%rax), %rdi
 15506 81da BA000000 		movl	$.LC170, %edx
 15506      00
 15507 81df 4889E6   		movq	%rsp, %rsi
 15508 81e2 E8000000 		call	_ZN8UnitTest11TestResults13OnTestFailureERKNS_11TestDetailsEPKc
 15508      00
 15509              	.LEHE577:
 15510              	.LEHB578:
 15511 81e7 E8000000 		call	__cxa_end_catch
 15511      00
 15512              	.LEHE578:
 15513 81ec E9C9FEFF 		jmp	.L1634
 15513      FF
 15514              	.L1648:
 15515 81f1 4889C3   		movq	%rax, %rbx
 15516              	.L1640:
 15517 81f4 488D7C24 		leaq	96(%rsp), %rdi
 15517      60
 15518 81f9 E8000000 		call	_ZN8UnitTest4TestD1Ev
 15518      00
 15519 81fe E964FFFF 		jmp	.L1644
 15519      FF
 15520              	.L1651:
 15521 8203 4889C3   		movq	%rax, %rbx
 15522 8206 E8000000 		call	__cxa_end_catch
 15522      00
 15523 820b EBE7     		jmp	.L1640
 15524              	.L1649:
 15525 820d 4889C3   		movq	%rax, %rbx
 15526 8210 E8000000 		call	__cxa_end_catch
 15526      00
 15527 8215 EBDD     		jmp	.L1640
 15528              		.cfi_endproc
 15529              	.LFE1339:
 15530              		.section	.gcc_except_table
 15531              		.align 4
 15532              	.LLSDA1339:
 15533 1018 FF       		.byte	0xff
 15534 1019 03       		.byte	0x3
 15535 101a 45       		.uleb128 .LLSDATT1339-.LLSDATTD1339
 15536              	.LLSDATTD1339:
 15537 101b 01       		.byte	0x1
 15538 101c 3C       		.uleb128 .LLSDACSE1339-.LLSDACSB1339
 15539              	.LLSDACSB1339:
 15540 101d 33       		.uleb128 .LEHB568-.LFB1339
 15541 101e 05       		.uleb128 .LEHE568-.LEHB568
 15542 101f 00       		.uleb128 0
 15543 1020 00       		.uleb128 0
 15544 1021 4F       		.uleb128 .LEHB569-.LFB1339
 15545 1022 05       		.uleb128 .LEHE569-.LEHB569
 15546 1023 9402     		.uleb128 .L1646-.LFB1339
 15547 1025 00       		.uleb128 0
 15548 1026 7B       		.uleb128 .LEHB570-.LFB1339
 15549 1027 2A       		.uleb128 .LEHE570-.LEHB570
 15550 1028 A902     		.uleb128 .L1650-.LFB1339
 15551 102a 01       		.uleb128 0x1
 15552 102b AA01     		.uleb128 .LEHB571-.LFB1339
 15553 102d 05       		.uleb128 .LEHE571-.LEHB571
 15554 102e 9402     		.uleb128 .L1646-.LFB1339
 15555 1030 00       		.uleb128 0
 15556 1031 B401     		.uleb128 .LEHB572-.LFB1339
 15557 1033 05       		.uleb128 .LEHE572-.LEHB572
 15558 1034 00       		.uleb128 0
 15559 1035 00       		.uleb128 0
 15560 1036 E001     		.uleb128 .LEHB573-.LFB1339
 15561 1038 2A       		.uleb128 .LEHE573-.LEHB573
 15562 1039 E502     		.uleb128 .L1647-.LFB1339
 15563 103b 01       		.uleb128 0x1
 15564 103c A402     		.uleb128 .LEHB574-.LFB1339
 15565 103e 05       		.uleb128 .LEHE574-.LEHB574
 15566 103f 00       		.uleb128 0
 15567 1040 00       		.uleb128 0
 15568 1041 B102     		.uleb128 .LEHB575-.LFB1339
 15569 1043 2A       		.uleb128 .LEHE575-.LEHB575
 15570 1044 B303     		.uleb128 .L1651-.LFB1339
 15571 1046 00       		.uleb128 0
 15572 1047 DB02     		.uleb128 .LEHB576-.LFB1339
 15573 1049 05       		.uleb128 .LEHE576-.LEHB576
 15574 104a A103     		.uleb128 .L1648-.LFB1339
 15575 104c 00       		.uleb128 0
 15576 104d ED02     		.uleb128 .LEHB577-.LFB1339
 15577 104f 2A       		.uleb128 .LEHE577-.LEHB577
 15578 1050 BD03     		.uleb128 .L1649-.LFB1339
 15579 1052 00       		.uleb128 0
 15580 1053 9703     		.uleb128 .LEHB578-.LFB1339
 15581 1055 05       		.uleb128 .LEHE578-.LEHB578
 15582 1056 A103     		.uleb128 .L1648-.LFB1339
 15583 1058 00       		.uleb128 0
 15584              	.LLSDACSE1339:
 15585 1059 01       		.byte	0x1
 15586 105a 00       		.byte	0
 15587 105b 00       		.align 4
 15588 105c 00000000 		.long	0
 15589              	
 15590              	.LLSDATT1339:
 15591              		.text
 15593              		.section	.text.unlikely
 15594              	.LCOLDE172:
 15595              		.text
 15596              	.LHOTE172:
 15597              		.section	.text.unlikely
 15598              		.align 2
 15599              	.LCOLDB173:
 15600              	.LHOTB173:
 15601              		.align 2
 15603              	_ZN12_GLOBAL__N_116TestSuiteFixtureD2Ev.constprop.24:
 15604              	.LFB1589:
 15605              		.cfi_startproc
 15606              		.cfi_personality 0x3,__gxx_personality_v0
 15607              		.cfi_lsda 0x3,.LLSDA1589
 15608 0034 4155     		pushq	%r13
 15609              		.cfi_def_cfa_offset 16
 15610              		.cfi_offset 13, -16
 15611 0036 4154     		pushq	%r12
 15612              		.cfi_def_cfa_offset 24
 15613              		.cfi_offset 12, -24
 15614 0038 55       		pushq	%rbp
 15615              		.cfi_def_cfa_offset 32
 15616              		.cfi_offset 6, -32
 15617 0039 53       		pushq	%rbx
 15618              		.cfi_def_cfa_offset 40
 15619              		.cfi_offset 3, -40
 15620 003a 4889FB   		movq	%rdi, %rbx
 15621 003d 52       		pushq	%rdx
 15622              		.cfi_def_cfa_offset 48
 15623 003e 488DBFB8 		leaq	2232(%rdi), %rdi
 15623      080000
 15624 0045 4C8DAB80 		leaq	2176(%rbx), %r13
 15624      080000
 15625 004c 4C8DA348 		leaq	2120(%rbx), %r12
 15625      080000
 15626              	.LEHB579:
 15627 0053 E8000000 		call	_ZN8UnitTest4TestD1Ev
 15627      00
 15628              	.LEHE579:
 15629 0058 4C89EF   		movq	%r13, %rdi
 15630              	.LEHB580:
 15631 005b E8000000 		call	_ZN8UnitTest4TestD1Ev
 15631      00
 15632              	.LEHE580:
 15633 0060 4C89E7   		movq	%r12, %rdi
 15634              	.LEHB581:
 15635 0063 E8000000 		call	_ZN8UnitTest4TestD1Ev
 15635      00
 15636              	.LEHE581:
 15637 0068 488D7B18 		leaq	24(%rbx), %rdi
 15638 006c 48C74318 		movq	$_ZTV17RecordingReporter+16, 24(%rbx)
 15638      00000000 
 15639              	.LEHB582:
 15640 0074 E8000000 		call	_ZN8UnitTest12TestReporterD2Ev
 15640      00
 15641              	.LEHE582:
 15642 0079 58       		popq	%rax
 15643              		.cfi_remember_state
 15644              		.cfi_def_cfa_offset 40
 15645 007a 4889DF   		movq	%rbx, %rdi
 15646 007d 5B       		popq	%rbx
 15647              		.cfi_def_cfa_offset 32
 15648 007e 5D       		popq	%rbp
 15649              		.cfi_def_cfa_offset 24
 15650 007f 415C     		popq	%r12
 15651              		.cfi_def_cfa_offset 16
 15652 0081 415D     		popq	%r13
 15653              		.cfi_def_cfa_offset 8
 15654              	.LEHB583:
 15655 0083 E9000000 		jmp	_ZN8UnitTest10TestRunnerD1Ev
 15655      00
 15656              	.LEHE583:
 15657              	.L1665:
 15658              		.cfi_restore_state
 15659 0088 4889C5   		movq	%rax, %rbp
 15660              	.L1658:
 15661 008b 4889DF   		movq	%rbx, %rdi
 15662 008e E8000000 		call	_ZN8UnitTest10TestRunnerD1Ev
 15662      00
 15663 0093 4889EF   		movq	%rbp, %rdi
 15664              	.LEHB584:
 15665 0096 E8000000 		call	_Unwind_Resume
 15665      00
 15666              	.LEHE584:
 15667              	.L1664:
 15668 009b 4889C5   		movq	%rax, %rbp
 15669              	.L1659:
 15670 009e 4C89EF   		movq	%r13, %rdi
 15671 00a1 E8000000 		call	_ZN8UnitTest4TestD1Ev
 15671      00
 15672 00a6 EB03     		jmp	.L1660
 15673              	.L1663:
 15674 00a8 4889C5   		movq	%rax, %rbp
 15675              	.L1660:
 15676 00ab 4C89E7   		movq	%r12, %rdi
 15677 00ae E8000000 		call	_ZN8UnitTest4TestD1Ev
 15677      00
 15678 00b3 EB03     		jmp	.L1661
 15679              	.L1662:
 15680 00b5 4889C5   		movq	%rax, %rbp
 15681              	.L1661:
 15682 00b8 4889DF   		movq	%rbx, %rdi
 15683 00bb E840FFFF 		call	_ZN12_GLOBAL__N_111FixtureBaseD2Ev
 15683      FF
 15684 00c0 4889EF   		movq	%rbp, %rdi
 15685              	.LEHB585:
 15686 00c3 E8000000 		call	_Unwind_Resume
 15686      00
 15687              	.LEHE585:
 15688              		.cfi_endproc
 15689              	.LFE1589:
 15690              		.section	.gcc_except_table
 15691              	.LLSDA1589:
 15692 1060 FF       		.byte	0xff
 15693 1061 FF       		.byte	0xff
 15694 1062 01       		.byte	0x1
 15695 1063 1E       		.uleb128 .LLSDACSE1589-.LLSDACSB1589
 15696              	.LLSDACSB1589:
 15697 1064 1F       		.uleb128 .LEHB579-.LFB1589
 15698 1065 05       		.uleb128 .LEHE579-.LEHB579
 15699 1066 67       		.uleb128 .L1664-.LFB1589
 15700 1067 00       		.uleb128 0
 15701 1068 27       		.uleb128 .LEHB580-.LFB1589
 15702 1069 05       		.uleb128 .LEHE580-.LEHB580
 15703 106a 74       		.uleb128 .L1663-.LFB1589
 15704 106b 00       		.uleb128 0
 15705 106c 2F       		.uleb128 .LEHB581-.LFB1589
 15706 106d 05       		.uleb128 .LEHE581-.LEHB581
 15707 106e 8101     		.uleb128 .L1662-.LFB1589
 15708 1070 00       		.uleb128 0
 15709 1071 40       		.uleb128 .LEHB582-.LFB1589
 15710 1072 05       		.uleb128 .LEHE582-.LEHB582
 15711 1073 54       		.uleb128 .L1665-.LFB1589
 15712 1074 00       		.uleb128 0
 15713 1075 4F       		.uleb128 .LEHB583-.LFB1589
 15714 1076 05       		.uleb128 .LEHE583-.LEHB583
 15715 1077 00       		.uleb128 0
 15716 1078 00       		.uleb128 0
 15717 1079 62       		.uleb128 .LEHB584-.LFB1589
 15718 107a 05       		.uleb128 .LEHE584-.LEHB584
 15719 107b 00       		.uleb128 0
 15720 107c 00       		.uleb128 0
 15721 107d 8F01     		.uleb128 .LEHB585-.LFB1589
 15722 107f 05       		.uleb128 .LEHE585-.LEHB585
 15723 1080 00       		.uleb128 0
 15724 1081 00       		.uleb128 0
 15725              	.LLSDACSE1589:
 15726              		.section	.text.unlikely
 15728              	.LCOLDE173:
 15729              	.LHOTE173:
 15730              		.section	.rodata.str1.1
 15731              	.LC174:
 15732 01d0 54657374 		.string	"TestInDefaultSuite"
 15732      496E4465 
 15732      6661756C 
 15732      74537569 
 15732      746500
 15733              	.LC175:
 15734 01e3 5365636F 		.string	"SecondTestInDefaultSuite"
 15734      6E645465 
 15734      7374496E 
 15734      44656661 
 15734      756C7453 
 15735              		.section	.rodata.str1.8
 15736              		.align 8
 15737              	.LC176:
 15738 0b18 556E6861 		.string	"Unhandled exception while destroying fixture TestSuiteFixture"
 15738      6E646C65 
 15738      64206578 
 15738      63657074 
 15738      696F6E20 
 15739 0b56 0000     		.align 8
 15740              	.LC177:
 15741 0b58 556E6861 		.string	"Unhandled exception while constructing fixture TestSuiteFixture"
 15741      6E646C65 
 15741      64206578 
 15741      63657074 
 15741      696F6E20 
 15742              		.section	.text.unlikely
 15743              		.align 2
 15744              	.LCOLDB178:
 15745              		.text
 15746              	.LHOTB178:
 15747 8217 90       		.align 2
 15748 8218 0F1F8400 		.p2align 4,,15
 15748      00000000 
 15750              	_ZNK12_GLOBAL__N_152TestTestSuiteFixtureTestRunnerRunsOnlySpecifiedSuite7RunImplEv:
 15751              	.LFB1327:
 15752              		.cfi_startproc
 15753              		.cfi_personality 0x3,__gxx_personality_v0
 15754              		.cfi_lsda 0x3,.LLSDA1327
 15755 8220 4155     		pushq	%r13
 15756              		.cfi_def_cfa_offset 16
 15757              		.cfi_offset 13, -16
 15758 8222 4154     		pushq	%r12
 15759              		.cfi_def_cfa_offset 24
 15760              		.cfi_offset 12, -24
 15761 8224 55       		pushq	%rbp
 15762              		.cfi_def_cfa_offset 32
 15763              		.cfi_offset 6, -32
 15764 8225 53       		pushq	%rbx
 15765              		.cfi_def_cfa_offset 40
 15766              		.cfi_offset 3, -40
 15767 8226 4889FD   		movq	%rdi, %rbp
 15768 8229 488D5F08 		leaq	8(%rdi), %rbx
 15769 822d 4881EC38 		subq	$2360, %rsp
 15769      090000
 15770              		.cfi_def_cfa_offset 2400
 15771 8234 64488B04 		movq	%fs:40, %rax
 15771      25280000 
 15771      00
 15772 823d 48898424 		movq	%rax, 2344(%rsp)
 15772      28090000 
 15773 8245 31C0     		xorl	%eax, %eax
 15774 8247 488D4424 		leaq	32(%rsp), %rax
 15774      20
 15775 824c 488D7424 		leaq	56(%rsp), %rsi
 15775      38
 15776 8251 4889C7   		movq	%rax, %rdi
 15777              	.LEHB586:
 15778 8254 E8000000 		call	_ZN8UnitTest10TestRunnerC1ERNS_12TestReporterE
 15778      00
 15779              	.LEHE586:
 15780 8259 488DBC24 		leaq	2152(%rsp), %rdi
 15780      68080000 
 15781 8261 4531C0   		xorl	%r8d, %r8d
 15782 8264 B9000000 		movl	$.LC80, %ecx
 15782      00
 15783 8269 BA000000 		movl	$.LC102, %edx
 15783      00
 15784 826e BE000000 		movl	$.LC174, %esi
 15784      00
 15785 8273 48C74424 		movq	$_ZTV17RecordingReporter+16, 56(%rsp)
 15785      38000000 
 15785      00
 15786 827c C7442440 		movl	$0, 64(%rsp)
 15786      00000000 
 15787 8284 C7842444 		movl	$0, 580(%rsp)
 15787      02000000 
 15787      000000
 15788 828f C7842448 		movl	$0, 840(%rsp)
 15788      03000000 
 15788      000000
 15789 829a C784244C 		movl	$0, 1612(%rsp)
 15789      06000000 
 15789      000000
 15790 82a5 C7842450 		movl	$0x00000000, 2128(%rsp)
 15790      08000000 
 15790      000000
 15791 82b0 C7842454 		movl	$0, 2132(%rsp)
 15791      08000000 
 15791      000000
 15792 82bb C7842458 		movl	$0, 2136(%rsp)
 15792      08000000 
 15792      000000
 15793 82c6 C784245C 		movl	$0, 2140(%rsp)
 15793      08000000 
 15793      000000
 15794 82d1 C7842460 		movl	$0x00000000, 2144(%rsp)
 15794      08000000 
 15794      000000
 15795 82dc C6442444 		movb	$0, 68(%rsp)
 15795      00
 15796 82e1 C6842444 		movb	$0, 324(%rsp)
 15796      01000000 
 15797 82e9 C6842448 		movb	$0, 584(%rsp)
 15797      02000000 
 15798 82f1 C684244C 		movb	$0, 844(%rsp)
 15798      03000000 
 15799 82f9 C684244C 		movb	$0, 1100(%rsp)
 15799      04000000 
 15800 8301 C684244C 		movb	$0, 1356(%rsp)
 15800      05000000 
 15801 8309 C6842450 		movb	$0, 1616(%rsp)
 15801      06000000 
 15802 8311 C6842450 		movb	$0, 1872(%rsp)
 15802      07000000 
 15803              	.LEHB587:
 15804 8319 E8000000 		call	_ZN8UnitTest4TestC1EPKcS2_S2_i
 15804      00
 15805              	.LEHE587:
 15806 831e 488DBC24 		leaq	2208(%rsp), %rdi
 15806      A0080000 
 15807 8326 4531C0   		xorl	%r8d, %r8d
 15808 8329 B9000000 		movl	$.LC80, %ecx
 15808      00
 15809 832e BA000000 		movl	$.LC132, %edx
 15809      00
 15810 8333 BE000000 		movl	$.LC133, %esi
 15810      00
 15811              	.LEHB588:
 15812 8338 E8000000 		call	_ZN8UnitTest4TestC1EPKcS2_S2_i
 15812      00
 15813              	.LEHE588:
 15814 833d 488DBC24 		leaq	2264(%rsp), %rdi
 15814      D8080000 
 15815 8345 4531C0   		xorl	%r8d, %r8d
 15816 8348 B9000000 		movl	$.LC80, %ecx
 15816      00
 15817 834d BA000000 		movl	$.LC102, %edx
 15817      00
 15818 8352 BE000000 		movl	$.LC175, %esi
 15818      00
 15819              	.LEHB589:
 15820 8357 E8000000 		call	_ZN8UnitTest4TestC1EPKcS2_S2_i
 15820      00
 15821              	.LEHE589:
 15822 835c 488DBC24 		leaq	2320(%rsp), %rdi
 15822      10090000 
 15823              	.LEHB590:
 15824 8364 E8000000 		call	_ZN8UnitTest8TestListC1Ev
 15824      00
 15825 8369 488D4424 		leaq	32(%rsp), %rax
 15825      20
 15826 836e 488DB424 		leaq	2152(%rsp), %rsi
 15826      68080000 
 15827 8376 488DB8F0 		leaq	2288(%rax), %rdi
 15827      080000
 15828 837d E8000000 		call	_ZN8UnitTest8TestList3AddEPNS_4TestE
 15828      00
 15829 8382 488D4424 		leaq	32(%rsp), %rax
 15829      20
 15830 8387 488DB424 		leaq	2208(%rsp), %rsi
 15830      A0080000 
 15831 838f 488DB8F0 		leaq	2288(%rax), %rdi
 15831      080000
 15832 8396 E8000000 		call	_ZN8UnitTest8TestList3AddEPNS_4TestE
 15832      00
 15833              	.LEHE590:
 15834 839b 488D7C24 		leaq	32(%rsp), %rdi
 15834      20
 15835 83a0 4889DE   		movq	%rbx, %rsi
 15836 83a3 48899C24 		movq	%rbx, 2336(%rsp)
 15836      20090000 
 15837              	.LEHB591:
 15838 83ab E8E0E4FF 		call	_ZN8UnitTest11ExecuteTestIN12_GLOBAL__N_154TestSuiteFixtureTestRunnerRunsOnlySpecifiedSuiteHe
 15838      FF
 15839              	.LEHE591:
 15840 83b0 488DBC24 		leaq	2264(%rsp), %rdi
 15840      D8080000 
 15841              	.LEHB592:
 15842 83b8 E8000000 		call	_ZN8UnitTest4TestD1Ev
 15842      00
 15843              	.LEHE592:
 15844 83bd 488DBC24 		leaq	2208(%rsp), %rdi
 15844      A0080000 
 15845              	.LEHB593:
 15846 83c5 E8000000 		call	_ZN8UnitTest4TestD1Ev
 15846      00
 15847              	.LEHE593:
 15848 83ca 488DBC24 		leaq	2152(%rsp), %rdi
 15848      68080000 
 15849              	.LEHB594:
 15850 83d2 E8000000 		call	_ZN8UnitTest4TestD1Ev
 15850      00
 15851              	.LEHE594:
 15852 83d7 488D7C24 		leaq	56(%rsp), %rdi
 15852      38
 15853 83dc 48C74424 		movq	$_ZTV17RecordingReporter+16, 56(%rsp)
 15853      38000000 
 15853      00
 15854              	.LEHB595:
 15855 83e5 E8000000 		call	_ZN8UnitTest12TestReporterD2Ev
 15855      00
 15856              	.LEHE595:
 15857 83ea 488D7C24 		leaq	32(%rsp), %rdi
 15857      20
 15858              	.LEHB596:
 15859 83ef E8000000 		call	_ZN8UnitTest10TestRunnerD1Ev
 15859      00
 15860              	.LEHE596:
 15861              	.L1667:
 15862 83f4 488B8424 		movq	2344(%rsp), %rax
 15862      28090000 
 15863 83fc 64483304 		xorq	%fs:40, %rax
 15863      25280000 
 15863      00
 15864 8405 750E     		jne	.L1718
 15865 8407 4881C438 		addq	$2360, %rsp
 15865      090000
 15866              		.cfi_remember_state
 15867              		.cfi_def_cfa_offset 40
 15868 840e 5B       		popq	%rbx
 15869              		.cfi_def_cfa_offset 32
 15870 840f 5D       		popq	%rbp
 15871              		.cfi_def_cfa_offset 24
 15872 8410 415C     		popq	%r12
 15873              		.cfi_def_cfa_offset 16
 15874 8412 415D     		popq	%r13
 15875              		.cfi_def_cfa_offset 8
 15876 8414 C3       		ret
 15877              	.L1718:
 15878              		.cfi_restore_state
 15879 8415 E8000000 		call	__stack_chk_fail
 15879      00
 15880              	.L1694:
 15881 841a 4889C7   		movq	%rax, %rdi
 15882 841d 41BC0100 		movl	$1, %r12d
 15882      0000
 15883              	.L1670:
 15884 8423 4883FA01 		cmpq	$1, %rdx
 15885 8427 0F841C01 		je	.L1685
 15885      0000
 15886 842d 4883FA02 		cmpq	$2, %rdx
 15887 8431 0F85D500 		jne	.L1719
 15887      0000
 15888 8437 E8000000 		call	__cxa_begin_catch
 15888      00
 15889 843c 488D7C24 		leaq	32(%rsp), %rdi
 15889      20
 15890 8441 4889C5   		movq	%rax, %rbp
 15891              	.LEHB597:
 15892 8444 E8000000 		call	_ZN8UnitTest15MemoryOutStreamC1Ev
 15892      00
 15893              	.LEHE597:
 15894 8449 488B4500 		movq	0(%rbp), %rax
 15895 844d 4889EF   		movq	%rbp, %rdi
 15896 8450 FF5010   		call	*16(%rax)
 15897 8453 488D7C24 		leaq	32(%rsp), %rdi
 15897      20
 15898 8458 BA150000 		movl	$21, %edx
 15898      00
 15899 845d BE000000 		movl	$.LC69, %esi
 15899      00
 15900 8462 4889C5   		movq	%rax, %rbp
 15901              	.LEHB598:
 15902 8465 E8000000 		call	_ZSt16__ostream_insertIcSt11char_traitsIcEERSt13basic_ostreamIT_T0_ES6_PKS3_l
 15902      00
 15903 846a 488D7C24 		leaq	32(%rsp), %rdi
 15903      20
 15904 846f 4889EE   		movq	%rbp, %rsi
 15905 8472 E8000000 		call	_ZStlsISt11char_traitsIcEERSt13basic_ostreamIcT_ES5_PKc
 15905      00
 15906 8477 488D7C24 		leaq	32(%rsp), %rdi
 15906      20
 15907 847c E8000000 		call	_ZNK8UnitTest15MemoryOutStream7GetTextEv
 15907      00
 15908 8481 4889C5   		movq	%rax, %rbp
 15909 8484 E8000000 		call	_ZN8UnitTest11CurrentTest7ResultsEv
 15909      00
 15910 8489 488B38   		movq	(%rax), %rdi
 15911 848c 4889EA   		movq	%rbp, %rdx
 15912 848f 4889DE   		movq	%rbx, %rsi
 15913 8492 E8000000 		call	_ZN8UnitTest11TestResults13OnTestFailureERKNS_11TestDetailsEPKc
 15913      00
 15914              	.LEHE598:
 15915 8497 488D7C24 		leaq	32(%rsp), %rdi
 15915      20
 15916              	.LEHB599:
 15917 849c E8000000 		call	_ZN8UnitTest15MemoryOutStreamD1Ev
 15917      00
 15918              	.LEHE599:
 15919              	.L1713:
 15920 84a1 E8000000 		call	__cxa_end_catch
 15920      00
 15921 84a6 E949FFFF 		jmp	.L1667
 15921      FF
 15922              	.L1707:
 15923 84ab 488D7C24 		leaq	32(%rsp), %rdi
 15923      20
 15924 84b0 4989D4   		movq	%rdx, %r12
 15925 84b3 4989C5   		movq	%rax, %r13
 15926 84b6 E8000000 		call	_ZN8UnitTest10TestRunnerD1Ev
 15926      00
 15927 84bb 4C89E2   		movq	%r12, %rdx
 15928 84be 4C89EF   		movq	%r13, %rdi
 15929 84c1 41BC0100 		movl	$1, %r12d
 15929      0000
 15930 84c7 E957FFFF 		jmp	.L1670
 15930      FF
 15931              	.L1704:
 15932 84cc 4989C5   		movq	%rax, %r13
 15933 84cf 4989D4   		movq	%rdx, %r12
 15934              	.L1682:
 15935 84d2 488D7C24 		leaq	32(%rsp), %rdi
 15935      20
 15936 84d7 E8000000 		call	_ZN12_GLOBAL__N_111FixtureBaseD2Ev
 15936      00
 15937 84dc 4C89E2   		movq	%r12, %rdx
 15938 84df 4C89EF   		movq	%r13, %rdi
 15939 84e2 41BC0100 		movl	$1, %r12d
 15939      0000
 15940 84e8 E936FFFF 		jmp	.L1670
 15940      FF
 15941              	.L1698:
 15942 84ed 488D7C24 		leaq	32(%rsp), %rdi
 15942      20
 15943 84f2 4889C3   		movq	%rax, %rbx
 15944 84f5 E8000000 		call	_ZN8UnitTest15MemoryOutStreamD1Ev
 15944      00
 15945              	.L1691:
 15946 84fa E8000000 		call	__cxa_end_catch
 15946      00
 15947 84ff 4889DF   		movq	%rbx, %rdi
 15948              	.LEHB600:
 15949 8502 E8000000 		call	_Unwind_Resume
 15949      00
 15950              	.LEHE600:
 15951              	.L1697:
 15952              	.L1714:
 15953 8507 4889C3   		movq	%rax, %rbx
 15954 850a EBEE     		jmp	.L1691
 15955              	.L1719:
 15956 850c E8000000 		call	__cxa_begin_catch
 15956      00
 15957 8511 4584E4   		testb	%r12b, %r12b
 15958 8514 BAF80000 		movl	$248, %edx
 15958      00
 15959 8519 4889DE   		movq	%rbx, %rsi
 15960 851c 4889E7   		movq	%rsp, %rdi
 15961 851f 0F848900 		je	.L1687
 15961      0000
 15962              	.LEHB601:
 15963 8525 E8000000 		call	_ZN8UnitTest11TestDetailsC1ERKS0_i
 15963      00
 15964 852a E8000000 		call	_ZN8UnitTest11CurrentTest7ResultsEv
 15964      00
 15965 852f 488B38   		movq	(%rax), %rdi
 15966 8532 BA000000 		movl	$.LC176, %edx
 15966      00
 15967 8537 4889E6   		movq	%rsp, %rsi
 15968 853a E8000000 		call	_ZN8UnitTest11TestResults13OnTestFailureERKNS_11TestDetailsEPKc
 15968      00
 15969              	.LEHE601:
 15970              	.L1688:
 15971              	.LEHB602:
 15972 853f E8000000 		call	__cxa_end_catch
 15972      00
 15973              	.LEHE602:
 15974 8544 E9ABFEFF 		jmp	.L1667
 15974      FF
 15975              	.L1685:
 15976 8549 E8000000 		call	__cxa_begin_catch
 15976      00
 15977 854e 4889C3   		movq	%rax, %rbx
 15978 8551 488B00   		movq	(%rax), %rax
 15979 8554 4889DF   		movq	%rbx, %rdi
 15980 8557 FF5010   		call	*16(%rax)
 15981 855a 4889DF   		movq	%rbx, %rdi
 15982 855d 4989C4   		movq	%rax, %r12
 15983              	.LEHB603:
 15984 8560 E8000000 		call	_ZNK8UnitTest15AssertException10LineNumberEv
 15984      00
 15985 8565 4889DF   		movq	%rbx, %rdi
 15986 8568 4189C5   		movl	%eax, %r13d
 15987 856b E8000000 		call	_ZNK8UnitTest15AssertException8FilenameEv
 15987      00
 15988 8570 488B5508 		movq	8(%rbp), %rdx
 15989 8574 488B7510 		movq	16(%rbp), %rsi
 15990 8578 4589E8   		movl	%r13d, %r8d
 15991 857b 4889C1   		movq	%rax, %rcx
 15992 857e 4889E7   		movq	%rsp, %rdi
 15993 8581 E8000000 		call	_ZN8UnitTest11TestDetailsC1EPKcS2_S2_i
 15993      00
 15994 8586 E8000000 		call	_ZN8UnitTest11CurrentTest7ResultsEv
 15994      00
 15995 858b 488B38   		movq	(%rax), %rdi
 15996 858e 4C89E2   		movq	%r12, %rdx
 15997 8591 4889E6   		movq	%rsp, %rsi
 15998 8594 E8000000 		call	_ZN8UnitTest11TestResults13OnTestFailureERKNS_11TestDetailsEPKc
 15998      00
 15999              	.LEHE603:
 16000 8599 E903FFFF 		jmp	.L1713
 16000      FF
 16001              	.L1699:
 16002 859e 4889C3   		movq	%rax, %rbx
 16003 85a1 E8000000 		call	__cxa_end_catch
 16003      00
 16004 85a6 4889DF   		movq	%rbx, %rdi
 16005              	.LEHB604:
 16006 85a9 E8000000 		call	_Unwind_Resume
 16006      00
 16007              	.LEHE604:
 16008              	.L1687:
 16009              	.LEHB605:
 16010 85ae E8000000 		call	_ZN8UnitTest11TestDetailsC1ERKS0_i
 16010      00
 16011 85b3 E8000000 		call	_ZN8UnitTest11CurrentTest7ResultsEv
 16011      00
 16012 85b8 488B38   		movq	(%rax), %rdi
 16013 85bb BA000000 		movl	$.LC177, %edx
 16013      00
 16014 85c0 4889E6   		movq	%rsp, %rsi
 16015 85c3 E8000000 		call	_ZN8UnitTest11TestResults13OnTestFailureERKNS_11TestDetailsEPKc
 16015      00
 16016              	.LEHE605:
 16017 85c8 E972FFFF 		jmp	.L1688
 16017      FF
 16018              	.L1696:
 16019 85cd E935FFFF 		jmp	.L1714
 16019      FF
 16020              	.L1705:
 16021 85d2 4989C5   		movq	%rax, %r13
 16022 85d5 4989D4   		movq	%rdx, %r12
 16023              	.L1681:
 16024 85d8 488DBC24 		leaq	2152(%rsp), %rdi
 16024      68080000 
 16025 85e0 E8000000 		call	_ZN8UnitTest4TestD1Ev
 16025      00
 16026 85e5 E9E8FEFF 		jmp	.L1682
 16026      FF
 16027              	.L1706:
 16028 85ea 488DBC24 		leaq	2208(%rsp), %rdi
 16028      A0080000 
 16029 85f2 4989C5   		movq	%rax, %r13
 16030 85f5 4989D4   		movq	%rdx, %r12
 16031 85f8 E8000000 		call	_ZN8UnitTest4TestD1Ev
 16031      00
 16032 85fd EBD9     		jmp	.L1681
 16033              	.L1695:
 16034 85ff 488D7C24 		leaq	32(%rsp), %rdi
 16034      20
 16035 8604 4989D4   		movq	%rdx, %r12
 16036 8607 4989C5   		movq	%rax, %r13
 16037 860a E8000000 		call	_ZN12_GLOBAL__N_116TestSuiteFixtureD2Ev.constprop.24
 16037      00
 16038 860f 4C89E2   		movq	%r12, %rdx
 16039 8612 4C89EF   		movq	%r13, %rdi
 16040 8615 41BC0100 		movl	$1, %r12d
 16040      0000
 16041 861b E903FEFF 		jmp	.L1670
 16041      FF
 16042              	.L1703:
 16043 8620 488DBC24 		leaq	2264(%rsp), %rdi
 16043      D8080000 
 16044 8628 4989C5   		movq	%rax, %r13
 16045 862b 4989D4   		movq	%rdx, %r12
 16046 862e E8000000 		call	_ZN8UnitTest4TestD1Ev
 16046      00
 16047              	.L1673:
 16048 8633 488DBC24 		leaq	2208(%rsp), %rdi
 16048      A0080000 
 16049 863b E8000000 		call	_ZN8UnitTest4TestD1Ev
 16049      00
 16050              	.L1674:
 16051 8640 488DBC24 		leaq	2152(%rsp), %rdi
 16051      68080000 
 16052 8648 E8000000 		call	_ZN8UnitTest4TestD1Ev
 16052      00
 16053              	.L1675:
 16054 864d 488D7C24 		leaq	32(%rsp), %rdi
 16054      20
 16055 8652 E8000000 		call	_ZN12_GLOBAL__N_111FixtureBaseD2Ev
 16055      00
 16056 8657 4C89E2   		movq	%r12, %rdx
 16057 865a 4C89EF   		movq	%r13, %rdi
 16058 865d 4531E4   		xorl	%r12d, %r12d
 16059 8660 E9BEFDFF 		jmp	.L1670
 16059      FF
 16060              	.L1702:
 16061 8665 4989C5   		movq	%rax, %r13
 16062 8668 4989D4   		movq	%rdx, %r12
 16063 866b EBC6     		jmp	.L1673
 16064              	.L1701:
 16065 866d 4989C5   		movq	%rax, %r13
 16066 8670 4989D4   		movq	%rdx, %r12
 16067 8673 EBCB     		jmp	.L1674
 16068              	.L1700:
 16069 8675 4989C5   		movq	%rax, %r13
 16070 8678 4989D4   		movq	%rdx, %r12
 16071 867b EBD0     		jmp	.L1675
 16072              	.L1708:
 16073 867d 4889C7   		movq	%rax, %rdi
 16074 8680 4531E4   		xorl	%r12d, %r12d
 16075 8683 E99BFDFF 		jmp	.L1670
 16075      FF
 16076              		.cfi_endproc
 16077              	.LFE1327:
 16078              		.section	.gcc_except_table
 16079 1082 0000     		.align 4
 16080              	.LLSDA1327:
 16081 1084 FF       		.byte	0xff
 16082 1085 03       		.byte	0x3
 16083 1086 8C01     		.uleb128 .LLSDATT1327-.LLSDATTD1327
 16084              	.LLSDATTD1327:
 16085 1088 01       		.byte	0x1
 16086 1089 74       		.uleb128 .LLSDACSE1327-.LLSDACSB1327
 16087              	.LLSDACSB1327:
 16088 108a 34       		.uleb128 .LEHB586-.LFB1327
 16089 108b 05       		.uleb128 .LEHE586-.LEHB586
 16090 108c DD08     		.uleb128 .L1708-.LFB1327
 16091 108e 05       		.uleb128 0x5
 16092 108f F901     		.uleb128 .LEHB587-.LFB1327
 16093 1091 05       		.uleb128 .LEHE587-.LEHB587
 16094 1092 D508     		.uleb128 .L1700-.LFB1327
 16095 1094 07       		.uleb128 0x7
 16096 1095 9802     		.uleb128 .LEHB588-.LFB1327
 16097 1097 05       		.uleb128 .LEHE588-.LEHB588
 16098 1098 CD08     		.uleb128 .L1701-.LFB1327
 16099 109a 07       		.uleb128 0x7
 16100 109b B702     		.uleb128 .LEHB589-.LFB1327
 16101 109d 05       		.uleb128 .LEHE589-.LEHB589
 16102 109e C508     		.uleb128 .L1702-.LFB1327
 16103 10a0 07       		.uleb128 0x7
 16104 10a1 C402     		.uleb128 .LEHB590-.LFB1327
 16105 10a3 37       		.uleb128 .LEHE590-.LEHB590
 16106 10a4 8008     		.uleb128 .L1703-.LFB1327
 16107 10a6 07       		.uleb128 0x7
 16108 10a7 8B03     		.uleb128 .LEHB591-.LFB1327
 16109 10a9 05       		.uleb128 .LEHE591-.LEHB591
 16110 10aa DF07     		.uleb128 .L1695-.LFB1327
 16111 10ac 07       		.uleb128 0x7
 16112 10ad 9803     		.uleb128 .LEHB592-.LFB1327
 16113 10af 05       		.uleb128 .LEHE592-.LEHB592
 16114 10b0 CA07     		.uleb128 .L1706-.LFB1327
 16115 10b2 07       		.uleb128 0x7
 16116 10b3 A503     		.uleb128 .LEHB593-.LFB1327
 16117 10b5 05       		.uleb128 .LEHE593-.LEHB593
 16118 10b6 B207     		.uleb128 .L1705-.LFB1327
 16119 10b8 07       		.uleb128 0x7
 16120 10b9 B203     		.uleb128 .LEHB594-.LFB1327
 16121 10bb 05       		.uleb128 .LEHE594-.LEHB594
 16122 10bc AC05     		.uleb128 .L1704-.LFB1327
 16123 10be 07       		.uleb128 0x7
 16124 10bf C503     		.uleb128 .LEHB595-.LFB1327
 16125 10c1 05       		.uleb128 .LEHE595-.LEHB595
 16126 10c2 8B05     		.uleb128 .L1707-.LFB1327
 16127 10c4 07       		.uleb128 0x7
 16128 10c5 CF03     		.uleb128 .LEHB596-.LFB1327
 16129 10c7 05       		.uleb128 .LEHE596-.LEHB596
 16130 10c8 FA03     		.uleb128 .L1694-.LFB1327
 16131 10ca 05       		.uleb128 0x5
 16132 10cb A404     		.uleb128 .LEHB597-.LFB1327
 16133 10cd 05       		.uleb128 .LEHE597-.LEHB597
 16134 10ce E705     		.uleb128 .L1697-.LFB1327
 16135 10d0 00       		.uleb128 0
 16136 10d1 C504     		.uleb128 .LEHB598-.LFB1327
 16137 10d3 32       		.uleb128 .LEHE598-.LEHB598
 16138 10d4 CD05     		.uleb128 .L1698-.LFB1327
 16139 10d6 00       		.uleb128 0
 16140 10d7 FC04     		.uleb128 .LEHB599-.LFB1327
 16141 10d9 05       		.uleb128 .LEHE599-.LEHB599
 16142 10da E705     		.uleb128 .L1697-.LFB1327
 16143 10dc 00       		.uleb128 0
 16144 10dd E205     		.uleb128 .LEHB600-.LFB1327
 16145 10df 05       		.uleb128 .LEHE600-.LEHB600
 16146 10e0 00       		.uleb128 0
 16147 10e1 00       		.uleb128 0
 16148 10e2 8506     		.uleb128 .LEHB601-.LFB1327
 16149 10e4 1A       		.uleb128 .LEHE601-.LEHB601
 16150 10e5 FE06     		.uleb128 .L1699-.LFB1327
 16151 10e7 00       		.uleb128 0
 16152 10e8 9F06     		.uleb128 .LEHB602-.LFB1327
 16153 10ea 05       		.uleb128 .LEHE602-.LEHB602
 16154 10eb 00       		.uleb128 0
 16155 10ec 00       		.uleb128 0
 16156 10ed C006     		.uleb128 .LEHB603-.LFB1327
 16157 10ef 39       		.uleb128 .LEHE603-.LEHB603
 16158 10f0 AD07     		.uleb128 .L1696-.LFB1327
 16159 10f2 00       		.uleb128 0
 16160 10f3 8907     		.uleb128 .LEHB604-.LFB1327
 16161 10f5 05       		.uleb128 .LEHE604-.LEHB604
 16162 10f6 00       		.uleb128 0
 16163 10f7 00       		.uleb128 0
 16164 10f8 8E07     		.uleb128 .LEHB605-.LFB1327
 16165 10fa 1A       		.uleb128 .LEHE605-.LEHB605
 16166 10fb FE06     		.uleb128 .L1699-.LFB1327
 16167 10fd 00       		.uleb128 0
 16168              	.LLSDACSE1327:
 16169 10fe 03       		.byte	0x3
 16170 10ff 00       		.byte	0
 16171 1100 02       		.byte	0x2
 16172 1101 7D       		.byte	0x7d
 16173 1102 01       		.byte	0x1
 16174 1103 7D       		.byte	0x7d
 16175 1104 00       		.byte	0
 16176 1105 7D       		.byte	0x7d
 16177 1106 0000     		.align 4
 16178 1108 00000000 		.long	0
 16179              	
 16180 110c 00000000 		.long	_ZTISt9exception
 16181 1110 00000000 		.long	_ZTIN8UnitTest15AssertExceptionE
 16182              	.LLSDATT1327:
 16183              		.text
 16185              		.section	.text.unlikely
 16186              	.LCOLDE178:
 16187              		.text
 16188              	.LHOTE178:
 16189              		.section	.text.unlikely
 16190              		.align 2
 16191              	.LCOLDB179:
 16192              		.text
 16193              	.LHOTB179:
 16194              		.align 2
 16195 8688 0F1F8400 		.p2align 4,,15
 16195      00000000 
 16197              	_ZNK12_GLOBAL__N_162TestTestSuiteFixtureTestRunnerRunsAllSuitesIfNullSuiteIsPassed7RunImplEv:
 16198              	.LFB1316:
 16199              		.cfi_startproc
 16200              		.cfi_personality 0x3,__gxx_personality_v0
 16201              		.cfi_lsda 0x3,.LLSDA1316
 16202 8690 4155     		pushq	%r13
 16203              		.cfi_def_cfa_offset 16
 16204              		.cfi_offset 13, -16
 16205 8692 4154     		pushq	%r12
 16206              		.cfi_def_cfa_offset 24
 16207              		.cfi_offset 12, -24
 16208 8694 55       		pushq	%rbp
 16209              		.cfi_def_cfa_offset 32
 16210              		.cfi_offset 6, -32
 16211 8695 53       		pushq	%rbx
 16212              		.cfi_def_cfa_offset 40
 16213              		.cfi_offset 3, -40
 16214 8696 4889FD   		movq	%rdi, %rbp
 16215 8699 488D5F08 		leaq	8(%rdi), %rbx
 16216 869d 4881EC38 		subq	$2360, %rsp
 16216      090000
 16217              		.cfi_def_cfa_offset 2400
 16218 86a4 64488B04 		movq	%fs:40, %rax
 16218      25280000 
 16218      00
 16219 86ad 48898424 		movq	%rax, 2344(%rsp)
 16219      28090000 
 16220 86b5 31C0     		xorl	%eax, %eax
 16221 86b7 488D4424 		leaq	32(%rsp), %rax
 16221      20
 16222 86bc 488D7424 		leaq	56(%rsp), %rsi
 16222      38
 16223 86c1 4889C7   		movq	%rax, %rdi
 16224              	.LEHB606:
 16225 86c4 E8000000 		call	_ZN8UnitTest10TestRunnerC1ERNS_12TestReporterE
 16225      00
 16226              	.LEHE606:
 16227 86c9 488DBC24 		leaq	2152(%rsp), %rdi
 16227      68080000 
 16228 86d1 4531C0   		xorl	%r8d, %r8d
 16229 86d4 B9000000 		movl	$.LC80, %ecx
 16229      00
 16230 86d9 BA000000 		movl	$.LC102, %edx
 16230      00
 16231 86de BE000000 		movl	$.LC174, %esi
 16231      00
 16232 86e3 48C74424 		movq	$_ZTV17RecordingReporter+16, 56(%rsp)
 16232      38000000 
 16232      00
 16233 86ec C7442440 		movl	$0, 64(%rsp)
 16233      00000000 
 16234 86f4 C7842444 		movl	$0, 580(%rsp)
 16234      02000000 
 16234      000000
 16235 86ff C7842448 		movl	$0, 840(%rsp)
 16235      03000000 
 16235      000000
 16236 870a C784244C 		movl	$0, 1612(%rsp)
 16236      06000000 
 16236      000000
 16237 8715 C7842450 		movl	$0x00000000, 2128(%rsp)
 16237      08000000 
 16237      000000
 16238 8720 C7842454 		movl	$0, 2132(%rsp)
 16238      08000000 
 16238      000000
 16239 872b C7842458 		movl	$0, 2136(%rsp)
 16239      08000000 
 16239      000000
 16240 8736 C784245C 		movl	$0, 2140(%rsp)
 16240      08000000 
 16240      000000
 16241 8741 C7842460 		movl	$0x00000000, 2144(%rsp)
 16241      08000000 
 16241      000000
 16242 874c C6442444 		movb	$0, 68(%rsp)
 16242      00
 16243 8751 C6842444 		movb	$0, 324(%rsp)
 16243      01000000 
 16244 8759 C6842448 		movb	$0, 584(%rsp)
 16244      02000000 
 16245 8761 C684244C 		movb	$0, 844(%rsp)
 16245      03000000 
 16246 8769 C684244C 		movb	$0, 1100(%rsp)
 16246      04000000 
 16247 8771 C684244C 		movb	$0, 1356(%rsp)
 16247      05000000 
 16248 8779 C6842450 		movb	$0, 1616(%rsp)
 16248      06000000 
 16249 8781 C6842450 		movb	$0, 1872(%rsp)
 16249      07000000 
 16250              	.LEHB607:
 16251 8789 E8000000 		call	_ZN8UnitTest4TestC1EPKcS2_S2_i
 16251      00
 16252              	.LEHE607:
 16253 878e 488DBC24 		leaq	2208(%rsp), %rdi
 16253      A0080000 
 16254 8796 4531C0   		xorl	%r8d, %r8d
 16255 8799 B9000000 		movl	$.LC80, %ecx
 16255      00
 16256 879e BA000000 		movl	$.LC132, %edx
 16256      00
 16257 87a3 BE000000 		movl	$.LC133, %esi
 16257      00
 16258              	.LEHB608:
 16259 87a8 E8000000 		call	_ZN8UnitTest4TestC1EPKcS2_S2_i
 16259      00
 16260              	.LEHE608:
 16261 87ad 488DBC24 		leaq	2264(%rsp), %rdi
 16261      D8080000 
 16262 87b5 4531C0   		xorl	%r8d, %r8d
 16263 87b8 B9000000 		movl	$.LC80, %ecx
 16263      00
 16264 87bd BA000000 		movl	$.LC102, %edx
 16264      00
 16265 87c2 BE000000 		movl	$.LC175, %esi
 16265      00
 16266              	.LEHB609:
 16267 87c7 E8000000 		call	_ZN8UnitTest4TestC1EPKcS2_S2_i
 16267      00
 16268              	.LEHE609:
 16269 87cc 488DBC24 		leaq	2320(%rsp), %rdi
 16269      10090000 
 16270              	.LEHB610:
 16271 87d4 E8000000 		call	_ZN8UnitTest8TestListC1Ev
 16271      00
 16272 87d9 488D4424 		leaq	32(%rsp), %rax
 16272      20
 16273 87de 488DB424 		leaq	2152(%rsp), %rsi
 16273      68080000 
 16274 87e6 488DB8F0 		leaq	2288(%rax), %rdi
 16274      080000
 16275 87ed E8000000 		call	_ZN8UnitTest8TestList3AddEPNS_4TestE
 16275      00
 16276 87f2 488D4424 		leaq	32(%rsp), %rax
 16276      20
 16277 87f7 488DB424 		leaq	2208(%rsp), %rsi
 16277      A0080000 
 16278 87ff 488DB8F0 		leaq	2288(%rax), %rdi
 16278      080000
 16279 8806 E8000000 		call	_ZN8UnitTest8TestList3AddEPNS_4TestE
 16279      00
 16280              	.LEHE610:
 16281 880b 488D7C24 		leaq	32(%rsp), %rdi
 16281      20
 16282 8810 4889DE   		movq	%rbx, %rsi
 16283 8813 48899C24 		movq	%rbx, 2336(%rsp)
 16283      20090000 
 16284              	.LEHB611:
 16285 881b E850E4FF 		call	_ZN8UnitTest11ExecuteTestIN12_GLOBAL__N_164TestSuiteFixtureTestRunnerRunsAllSuitesIfNullSuite
 16285      FF
 16286              	.LEHE611:
 16287 8820 488DBC24 		leaq	2264(%rsp), %rdi
 16287      D8080000 
 16288              	.LEHB612:
 16289 8828 E8000000 		call	_ZN8UnitTest4TestD1Ev
 16289      00
 16290              	.LEHE612:
 16291 882d 488DBC24 		leaq	2208(%rsp), %rdi
 16291      A0080000 
 16292              	.LEHB613:
 16293 8835 E8000000 		call	_ZN8UnitTest4TestD1Ev
 16293      00
 16294              	.LEHE613:
 16295 883a 488DBC24 		leaq	2152(%rsp), %rdi
 16295      68080000 
 16296              	.LEHB614:
 16297 8842 E8000000 		call	_ZN8UnitTest4TestD1Ev
 16297      00
 16298              	.LEHE614:
 16299 8847 488D7C24 		leaq	56(%rsp), %rdi
 16299      38
 16300 884c 48C74424 		movq	$_ZTV17RecordingReporter+16, 56(%rsp)
 16300      38000000 
 16300      00
 16301              	.LEHB615:
 16302 8855 E8000000 		call	_ZN8UnitTest12TestReporterD2Ev
 16302      00
 16303              	.LEHE615:
 16304 885a 488D7C24 		leaq	32(%rsp), %rdi
 16304      20
 16305              	.LEHB616:
 16306 885f E8000000 		call	_ZN8UnitTest10TestRunnerD1Ev
 16306      00
 16307              	.LEHE616:
 16308              	.L1720:
 16309 8864 488B8424 		movq	2344(%rsp), %rax
 16309      28090000 
 16310 886c 64483304 		xorq	%fs:40, %rax
 16310      25280000 
 16310      00
 16311 8875 750E     		jne	.L1771
 16312 8877 4881C438 		addq	$2360, %rsp
 16312      090000
 16313              		.cfi_remember_state
 16314              		.cfi_def_cfa_offset 40
 16315 887e 5B       		popq	%rbx
 16316              		.cfi_def_cfa_offset 32
 16317 887f 5D       		popq	%rbp
 16318              		.cfi_def_cfa_offset 24
 16319 8880 415C     		popq	%r12
 16320              		.cfi_def_cfa_offset 16
 16321 8882 415D     		popq	%r13
 16322              		.cfi_def_cfa_offset 8
 16323 8884 C3       		ret
 16324              	.L1771:
 16325              		.cfi_restore_state
 16326 8885 E8000000 		call	__stack_chk_fail
 16326      00
 16327              	.L1747:
 16328 888a 4889C7   		movq	%rax, %rdi
 16329 888d 41BC0100 		movl	$1, %r12d
 16329      0000
 16330              	.L1723:
 16331 8893 4883FA01 		cmpq	$1, %rdx
 16332 8897 0F841C01 		je	.L1738
 16332      0000
 16333 889d 4883FA02 		cmpq	$2, %rdx
 16334 88a1 0F85D500 		jne	.L1772
 16334      0000
 16335 88a7 E8000000 		call	__cxa_begin_catch
 16335      00
 16336 88ac 488D7C24 		leaq	32(%rsp), %rdi
 16336      20
 16337 88b1 4889C5   		movq	%rax, %rbp
 16338              	.LEHB617:
 16339 88b4 E8000000 		call	_ZN8UnitTest15MemoryOutStreamC1Ev
 16339      00
 16340              	.LEHE617:
 16341 88b9 488B4500 		movq	0(%rbp), %rax
 16342 88bd 4889EF   		movq	%rbp, %rdi
 16343 88c0 FF5010   		call	*16(%rax)
 16344 88c3 488D7C24 		leaq	32(%rsp), %rdi
 16344      20
 16345 88c8 BA150000 		movl	$21, %edx
 16345      00
 16346 88cd BE000000 		movl	$.LC69, %esi
 16346      00
 16347 88d2 4889C5   		movq	%rax, %rbp
 16348              	.LEHB618:
 16349 88d5 E8000000 		call	_ZSt16__ostream_insertIcSt11char_traitsIcEERSt13basic_ostreamIT_T0_ES6_PKS3_l
 16349      00
 16350 88da 488D7C24 		leaq	32(%rsp), %rdi
 16350      20
 16351 88df 4889EE   		movq	%rbp, %rsi
 16352 88e2 E8000000 		call	_ZStlsISt11char_traitsIcEERSt13basic_ostreamIcT_ES5_PKc
 16352      00
 16353 88e7 488D7C24 		leaq	32(%rsp), %rdi
 16353      20
 16354 88ec E8000000 		call	_ZNK8UnitTest15MemoryOutStream7GetTextEv
 16354      00
 16355 88f1 4889C5   		movq	%rax, %rbp
 16356 88f4 E8000000 		call	_ZN8UnitTest11CurrentTest7ResultsEv
 16356      00
 16357 88f9 488B38   		movq	(%rax), %rdi
 16358 88fc 4889EA   		movq	%rbp, %rdx
 16359 88ff 4889DE   		movq	%rbx, %rsi
 16360 8902 E8000000 		call	_ZN8UnitTest11TestResults13OnTestFailureERKNS_11TestDetailsEPKc
 16360      00
 16361              	.LEHE618:
 16362 8907 488D7C24 		leaq	32(%rsp), %rdi
 16362      20
 16363              	.LEHB619:
 16364 890c E8000000 		call	_ZN8UnitTest15MemoryOutStreamD1Ev
 16364      00
 16365              	.LEHE619:
 16366              	.L1766:
 16367 8911 E8000000 		call	__cxa_end_catch
 16367      00
 16368 8916 E949FFFF 		jmp	.L1720
 16368      FF
 16369              	.L1760:
 16370 891b 488D7C24 		leaq	32(%rsp), %rdi
 16370      20
 16371 8920 4989D4   		movq	%rdx, %r12
 16372 8923 4989C5   		movq	%rax, %r13
 16373 8926 E8000000 		call	_ZN8UnitTest10TestRunnerD1Ev
 16373      00
 16374 892b 4C89E2   		movq	%r12, %rdx
 16375 892e 4C89EF   		movq	%r13, %rdi
 16376 8931 41BC0100 		movl	$1, %r12d
 16376      0000
 16377 8937 E957FFFF 		jmp	.L1723
 16377      FF
 16378              	.L1757:
 16379 893c 4989C5   		movq	%rax, %r13
 16380 893f 4989D4   		movq	%rdx, %r12
 16381              	.L1735:
 16382 8942 488D7C24 		leaq	32(%rsp), %rdi
 16382      20
 16383 8947 E8000000 		call	_ZN12_GLOBAL__N_111FixtureBaseD2Ev
 16383      00
 16384 894c 4C89E2   		movq	%r12, %rdx
 16385 894f 4C89EF   		movq	%r13, %rdi
 16386 8952 41BC0100 		movl	$1, %r12d
 16386      0000
 16387 8958 E936FFFF 		jmp	.L1723
 16387      FF
 16388              	.L1751:
 16389 895d 488D7C24 		leaq	32(%rsp), %rdi
 16389      20
 16390 8962 4889C3   		movq	%rax, %rbx
 16391 8965 E8000000 		call	_ZN8UnitTest15MemoryOutStreamD1Ev
 16391      00
 16392              	.L1744:
 16393 896a E8000000 		call	__cxa_end_catch
 16393      00
 16394 896f 4889DF   		movq	%rbx, %rdi
 16395              	.LEHB620:
 16396 8972 E8000000 		call	_Unwind_Resume
 16396      00
 16397              	.LEHE620:
 16398              	.L1750:
 16399              	.L1767:
 16400 8977 4889C3   		movq	%rax, %rbx
 16401 897a EBEE     		jmp	.L1744
 16402              	.L1772:
 16403 897c E8000000 		call	__cxa_begin_catch
 16403      00
 16404 8981 4584E4   		testb	%r12b, %r12b
 16405 8984 BAF20000 		movl	$242, %edx
 16405      00
 16406 8989 4889DE   		movq	%rbx, %rsi
 16407 898c 4889E7   		movq	%rsp, %rdi
 16408 898f 0F848900 		je	.L1740
 16408      0000
 16409              	.LEHB621:
 16410 8995 E8000000 		call	_ZN8UnitTest11TestDetailsC1ERKS0_i
 16410      00
 16411 899a E8000000 		call	_ZN8UnitTest11CurrentTest7ResultsEv
 16411      00
 16412 899f 488B38   		movq	(%rax), %rdi
 16413 89a2 BA000000 		movl	$.LC176, %edx
 16413      00
 16414 89a7 4889E6   		movq	%rsp, %rsi
 16415 89aa E8000000 		call	_ZN8UnitTest11TestResults13OnTestFailureERKNS_11TestDetailsEPKc
 16415      00
 16416              	.LEHE621:
 16417              	.L1741:
 16418              	.LEHB622:
 16419 89af E8000000 		call	__cxa_end_catch
 16419      00
 16420              	.LEHE622:
 16421 89b4 E9ABFEFF 		jmp	.L1720
 16421      FF
 16422              	.L1738:
 16423 89b9 E8000000 		call	__cxa_begin_catch
 16423      00
 16424 89be 4889C3   		movq	%rax, %rbx
 16425 89c1 488B00   		movq	(%rax), %rax
 16426 89c4 4889DF   		movq	%rbx, %rdi
 16427 89c7 FF5010   		call	*16(%rax)
 16428 89ca 4889DF   		movq	%rbx, %rdi
 16429 89cd 4989C4   		movq	%rax, %r12
 16430              	.LEHB623:
 16431 89d0 E8000000 		call	_ZNK8UnitTest15AssertException10LineNumberEv
 16431      00
 16432 89d5 4889DF   		movq	%rbx, %rdi
 16433 89d8 4189C5   		movl	%eax, %r13d
 16434 89db E8000000 		call	_ZNK8UnitTest15AssertException8FilenameEv
 16434      00
 16435 89e0 488B5508 		movq	8(%rbp), %rdx
 16436 89e4 488B7510 		movq	16(%rbp), %rsi
 16437 89e8 4589E8   		movl	%r13d, %r8d
 16438 89eb 4889C1   		movq	%rax, %rcx
 16439 89ee 4889E7   		movq	%rsp, %rdi
 16440 89f1 E8000000 		call	_ZN8UnitTest11TestDetailsC1EPKcS2_S2_i
 16440      00
 16441 89f6 E8000000 		call	_ZN8UnitTest11CurrentTest7ResultsEv
 16441      00
 16442 89fb 488B38   		movq	(%rax), %rdi
 16443 89fe 4C89E2   		movq	%r12, %rdx
 16444 8a01 4889E6   		movq	%rsp, %rsi
 16445 8a04 E8000000 		call	_ZN8UnitTest11TestResults13OnTestFailureERKNS_11TestDetailsEPKc
 16445      00
 16446              	.LEHE623:
 16447 8a09 E903FFFF 		jmp	.L1766
 16447      FF
 16448              	.L1752:
 16449 8a0e 4889C3   		movq	%rax, %rbx
 16450 8a11 E8000000 		call	__cxa_end_catch
 16450      00
 16451 8a16 4889DF   		movq	%rbx, %rdi
 16452              	.LEHB624:
 16453 8a19 E8000000 		call	_Unwind_Resume
 16453      00
 16454              	.LEHE624:
 16455              	.L1740:
 16456              	.LEHB625:
 16457 8a1e E8000000 		call	_ZN8UnitTest11TestDetailsC1ERKS0_i
 16457      00
 16458 8a23 E8000000 		call	_ZN8UnitTest11CurrentTest7ResultsEv
 16458      00
 16459 8a28 488B38   		movq	(%rax), %rdi
 16460 8a2b BA000000 		movl	$.LC177, %edx
 16460      00
 16461 8a30 4889E6   		movq	%rsp, %rsi
 16462 8a33 E8000000 		call	_ZN8UnitTest11TestResults13OnTestFailureERKNS_11TestDetailsEPKc
 16462      00
 16463              	.LEHE625:
 16464 8a38 E972FFFF 		jmp	.L1741
 16464      FF
 16465              	.L1749:
 16466 8a3d E935FFFF 		jmp	.L1767
 16466      FF
 16467              	.L1758:
 16468 8a42 4989C5   		movq	%rax, %r13
 16469 8a45 4989D4   		movq	%rdx, %r12
 16470              	.L1734:
 16471 8a48 488DBC24 		leaq	2152(%rsp), %rdi
 16471      68080000 
 16472 8a50 E8000000 		call	_ZN8UnitTest4TestD1Ev
 16472      00
 16473 8a55 E9E8FEFF 		jmp	.L1735
 16473      FF
 16474              	.L1759:
 16475 8a5a 488DBC24 		leaq	2208(%rsp), %rdi
 16475      A0080000 
 16476 8a62 4989C5   		movq	%rax, %r13
 16477 8a65 4989D4   		movq	%rdx, %r12
 16478 8a68 E8000000 		call	_ZN8UnitTest4TestD1Ev
 16478      00
 16479 8a6d EBD9     		jmp	.L1734
 16480              	.L1748:
 16481 8a6f 488D7C24 		leaq	32(%rsp), %rdi
 16481      20
 16482 8a74 4989D4   		movq	%rdx, %r12
 16483 8a77 4989C5   		movq	%rax, %r13
 16484 8a7a E8000000 		call	_ZN12_GLOBAL__N_116TestSuiteFixtureD2Ev.constprop.24
 16484      00
 16485 8a7f 4C89E2   		movq	%r12, %rdx
 16486 8a82 4C89EF   		movq	%r13, %rdi
 16487 8a85 41BC0100 		movl	$1, %r12d
 16487      0000
 16488 8a8b E903FEFF 		jmp	.L1723
 16488      FF
 16489              	.L1756:
 16490 8a90 488DBC24 		leaq	2264(%rsp), %rdi
 16490      D8080000 
 16491 8a98 4989C5   		movq	%rax, %r13
 16492 8a9b 4989D4   		movq	%rdx, %r12
 16493 8a9e E8000000 		call	_ZN8UnitTest4TestD1Ev
 16493      00
 16494              	.L1726:
 16495 8aa3 488DBC24 		leaq	2208(%rsp), %rdi
 16495      A0080000 
 16496 8aab E8000000 		call	_ZN8UnitTest4TestD1Ev
 16496      00
 16497              	.L1727:
 16498 8ab0 488DBC24 		leaq	2152(%rsp), %rdi
 16498      68080000 
 16499 8ab8 E8000000 		call	_ZN8UnitTest4TestD1Ev
 16499      00
 16500              	.L1728:
 16501 8abd 488D7C24 		leaq	32(%rsp), %rdi
 16501      20
 16502 8ac2 E8000000 		call	_ZN12_GLOBAL__N_111FixtureBaseD2Ev
 16502      00
 16503 8ac7 4C89E2   		movq	%r12, %rdx
 16504 8aca 4C89EF   		movq	%r13, %rdi
 16505 8acd 4531E4   		xorl	%r12d, %r12d
 16506 8ad0 E9BEFDFF 		jmp	.L1723
 16506      FF
 16507              	.L1755:
 16508 8ad5 4989C5   		movq	%rax, %r13
 16509 8ad8 4989D4   		movq	%rdx, %r12
 16510 8adb EBC6     		jmp	.L1726
 16511              	.L1754:
 16512 8add 4989C5   		movq	%rax, %r13
 16513 8ae0 4989D4   		movq	%rdx, %r12
 16514 8ae3 EBCB     		jmp	.L1727
 16515              	.L1753:
 16516 8ae5 4989C5   		movq	%rax, %r13
 16517 8ae8 4989D4   		movq	%rdx, %r12
 16518 8aeb EBD0     		jmp	.L1728
 16519              	.L1761:
 16520 8aed 4889C7   		movq	%rax, %rdi
 16521 8af0 4531E4   		xorl	%r12d, %r12d
 16522 8af3 E99BFDFF 		jmp	.L1723
 16522      FF
 16523              		.cfi_endproc
 16524              	.LFE1316:
 16525              		.section	.gcc_except_table
 16526              		.align 4
 16527              	.LLSDA1316:
 16528 1114 FF       		.byte	0xff
 16529 1115 03       		.byte	0x3
 16530 1116 8C01     		.uleb128 .LLSDATT1316-.LLSDATTD1316
 16531              	.LLSDATTD1316:
 16532 1118 01       		.byte	0x1
 16533 1119 74       		.uleb128 .LLSDACSE1316-.LLSDACSB1316
 16534              	.LLSDACSB1316:
 16535 111a 34       		.uleb128 .LEHB606-.LFB1316
 16536 111b 05       		.uleb128 .LEHE606-.LEHB606
 16537 111c DD08     		.uleb128 .L1761-.LFB1316
 16538 111e 05       		.uleb128 0x5
 16539 111f F901     		.uleb128 .LEHB607-.LFB1316
 16540 1121 05       		.uleb128 .LEHE607-.LEHB607
 16541 1122 D508     		.uleb128 .L1753-.LFB1316
 16542 1124 07       		.uleb128 0x7
 16543 1125 9802     		.uleb128 .LEHB608-.LFB1316
 16544 1127 05       		.uleb128 .LEHE608-.LEHB608
 16545 1128 CD08     		.uleb128 .L1754-.LFB1316
 16546 112a 07       		.uleb128 0x7
 16547 112b B702     		.uleb128 .LEHB609-.LFB1316
 16548 112d 05       		.uleb128 .LEHE609-.LEHB609
 16549 112e C508     		.uleb128 .L1755-.LFB1316
 16550 1130 07       		.uleb128 0x7
 16551 1131 C402     		.uleb128 .LEHB610-.LFB1316
 16552 1133 37       		.uleb128 .LEHE610-.LEHB610
 16553 1134 8008     		.uleb128 .L1756-.LFB1316
 16554 1136 07       		.uleb128 0x7
 16555 1137 8B03     		.uleb128 .LEHB611-.LFB1316
 16556 1139 05       		.uleb128 .LEHE611-.LEHB611
 16557 113a DF07     		.uleb128 .L1748-.LFB1316
 16558 113c 07       		.uleb128 0x7
 16559 113d 9803     		.uleb128 .LEHB612-.LFB1316
 16560 113f 05       		.uleb128 .LEHE612-.LEHB612
 16561 1140 CA07     		.uleb128 .L1759-.LFB1316
 16562 1142 07       		.uleb128 0x7
 16563 1143 A503     		.uleb128 .LEHB613-.LFB1316
 16564 1145 05       		.uleb128 .LEHE613-.LEHB613
 16565 1146 B207     		.uleb128 .L1758-.LFB1316
 16566 1148 07       		.uleb128 0x7
 16567 1149 B203     		.uleb128 .LEHB614-.LFB1316
 16568 114b 05       		.uleb128 .LEHE614-.LEHB614
 16569 114c AC05     		.uleb128 .L1757-.LFB1316
 16570 114e 07       		.uleb128 0x7
 16571 114f C503     		.uleb128 .LEHB615-.LFB1316
 16572 1151 05       		.uleb128 .LEHE615-.LEHB615
 16573 1152 8B05     		.uleb128 .L1760-.LFB1316
 16574 1154 07       		.uleb128 0x7
 16575 1155 CF03     		.uleb128 .LEHB616-.LFB1316
 16576 1157 05       		.uleb128 .LEHE616-.LEHB616
 16577 1158 FA03     		.uleb128 .L1747-.LFB1316
 16578 115a 05       		.uleb128 0x5
 16579 115b A404     		.uleb128 .LEHB617-.LFB1316
 16580 115d 05       		.uleb128 .LEHE617-.LEHB617
 16581 115e E705     		.uleb128 .L1750-.LFB1316
 16582 1160 00       		.uleb128 0
 16583 1161 C504     		.uleb128 .LEHB618-.LFB1316
 16584 1163 32       		.uleb128 .LEHE618-.LEHB618
 16585 1164 CD05     		.uleb128 .L1751-.LFB1316
 16586 1166 00       		.uleb128 0
 16587 1167 FC04     		.uleb128 .LEHB619-.LFB1316
 16588 1169 05       		.uleb128 .LEHE619-.LEHB619
 16589 116a E705     		.uleb128 .L1750-.LFB1316
 16590 116c 00       		.uleb128 0
 16591 116d E205     		.uleb128 .LEHB620-.LFB1316
 16592 116f 05       		.uleb128 .LEHE620-.LEHB620
 16593 1170 00       		.uleb128 0
 16594 1171 00       		.uleb128 0
 16595 1172 8506     		.uleb128 .LEHB621-.LFB1316
 16596 1174 1A       		.uleb128 .LEHE621-.LEHB621
 16597 1175 FE06     		.uleb128 .L1752-.LFB1316
 16598 1177 00       		.uleb128 0
 16599 1178 9F06     		.uleb128 .LEHB622-.LFB1316
 16600 117a 05       		.uleb128 .LEHE622-.LEHB622
 16601 117b 00       		.uleb128 0
 16602 117c 00       		.uleb128 0
 16603 117d C006     		.uleb128 .LEHB623-.LFB1316
 16604 117f 39       		.uleb128 .LEHE623-.LEHB623
 16605 1180 AD07     		.uleb128 .L1749-.LFB1316
 16606 1182 00       		.uleb128 0
 16607 1183 8907     		.uleb128 .LEHB624-.LFB1316
 16608 1185 05       		.uleb128 .LEHE624-.LEHB624
 16609 1186 00       		.uleb128 0
 16610 1187 00       		.uleb128 0
 16611 1188 8E07     		.uleb128 .LEHB625-.LFB1316
 16612 118a 1A       		.uleb128 .LEHE625-.LEHB625
 16613 118b FE06     		.uleb128 .L1752-.LFB1316
 16614 118d 00       		.uleb128 0
 16615              	.LLSDACSE1316:
 16616 118e 03       		.byte	0x3
 16617 118f 00       		.byte	0
 16618 1190 02       		.byte	0x2
 16619 1191 7D       		.byte	0x7d
 16620 1192 01       		.byte	0x1
 16621 1193 7D       		.byte	0x7d
 16622 1194 00       		.byte	0
 16623 1195 7D       		.byte	0x7d
 16624 1196 0000     		.align 4
 16625 1198 00000000 		.long	0
 16626              	
 16627 119c 00000000 		.long	_ZTISt9exception
 16628 11a0 00000000 		.long	_ZTIN8UnitTest15AssertExceptionE
 16629              	.LLSDATT1316:
 16630              		.text
 16632              		.section	.text.unlikely
 16633              	.LCOLDE179:
 16634              		.text
 16635              	.LHOTE179:
 16636              		.weak	_ZTSN8UnitTest15MemoryOutStreamE
 16637              		.section	.rodata._ZTSN8UnitTest15MemoryOutStreamE,"aG",@progbits,_ZTSN8UnitTest15MemoryOutStreamE,
 16638              		.align 16
 16641              	_ZTSN8UnitTest15MemoryOutStreamE:
 16642 0000 4E38556E 		.string	"N8UnitTest15MemoryOutStreamE"
 16642      69745465 
 16642      73743135 
 16642      4D656D6F 
 16642      72794F75 
 16643              		.weak	_ZTIN8UnitTest15MemoryOutStreamE
 16644              		.section	.rodata._ZTIN8UnitTest15MemoryOutStreamE,"aG",@progbits,_ZTIN8UnitTest15MemoryOutStreamE,
 16645              		.align 8
 16648              	_ZTIN8UnitTest15MemoryOutStreamE:
 16649 0000 00000000 		.quad	_ZTVN10__cxxabiv120__si_class_type_infoE+16
 16649      00000000 
 16650 0008 00000000 		.quad	_ZTSN8UnitTest15MemoryOutStreamE
 16650      00000000 
 16651 0010 00000000 		.quad	_ZTINSt7__cxx1119basic_ostringstreamIcSt11char_traitsIcESaIcEEE
 16651      00000000 
 16652              		.weak	_ZTS17RecordingReporter
 16653              		.section	.rodata._ZTS17RecordingReporter,"aG",@progbits,_ZTS17RecordingReporter,comdat
 16654              		.align 16
 16657              	_ZTS17RecordingReporter:
 16658 0000 31375265 		.string	"17RecordingReporter"
 16658      636F7264 
 16658      696E6752 
 16658      65706F72 
 16658      74657200 
 16659              		.weak	_ZTI17RecordingReporter
 16660              		.section	.rodata._ZTI17RecordingReporter,"aG",@progbits,_ZTI17RecordingReporter,comdat
 16661              		.align 8
 16664              	_ZTI17RecordingReporter:
 16665 0000 00000000 		.quad	_ZTVN10__cxxabiv120__si_class_type_infoE+16
 16665      00000000 
 16666 0008 00000000 		.quad	_ZTS17RecordingReporter
 16666      00000000 
 16667 0010 00000000 		.quad	_ZTIN8UnitTest12TestReporterE
 16667      00000000 
 16668              		.section	.rodata
 16669              		.align 8
 16672              	_ZTIN12_GLOBAL__N_18MockTestE:
 16673 0000 00000000 		.quad	_ZTVN10__cxxabiv120__si_class_type_infoE+16
 16673      00000000 
 16674 0008 00000000 		.quad	_ZTSN12_GLOBAL__N_18MockTestE
 16674      00000000 
 16675 0010 00000000 		.quad	_ZTIN8UnitTest4TestE
 16675      00000000 
 16676 0018 00000000 		.align 16
 16676      00000000 
 16679              	_ZTSN12_GLOBAL__N_18MockTestE:
 16680 0020 2A4E3132 		.string	"*N12_GLOBAL__N_18MockTestE"
 16680      5F474C4F 
 16680      42414C5F 
 16680      5F4E5F31 
 16680      384D6F63 
 16681 003b 00000000 		.align 8
 16681      00
 16684              	_ZTIN12_GLOBAL__N_149TestTestRunnerFixtureTestStartIsReportedCorrectlyE:
 16685 0040 00000000 		.quad	_ZTVN10__cxxabiv120__si_class_type_infoE+16
 16685      00000000 
 16686 0048 00000000 		.quad	_ZTSN12_GLOBAL__N_149TestTestRunnerFixtureTestStartIsReportedCorrectlyE
 16686      00000000 
 16687 0050 00000000 		.quad	_ZTIN8UnitTest4TestE
 16687      00000000 
 16688 0058 00000000 		.align 32
 16688      00000000 
 16691              	_ZTSN12_GLOBAL__N_149TestTestRunnerFixtureTestStartIsReportedCorrectlyE:
 16692 0060 2A4E3132 		.string	"*N12_GLOBAL__N_149TestTestRunnerFixtureTestStartIsReportedCorrectlyE"
 16692      5F474C4F 
 16692      42414C5F 
 16692      5F4E5F31 
 16692      34395465 
 16693 00a5 000000   		.align 8
 16696              	_ZTIN12_GLOBAL__N_150TestTestRunnerFixtureTestFinishIsReportedCorrectlyE:
 16697 00a8 00000000 		.quad	_ZTVN10__cxxabiv120__si_class_type_infoE+16
 16697      00000000 
 16698 00b0 00000000 		.quad	_ZTSN12_GLOBAL__N_150TestTestRunnerFixtureTestFinishIsReportedCorrectlyE
 16698      00000000 
 16699 00b8 00000000 		.quad	_ZTIN8UnitTest4TestE
 16699      00000000 
 16700              		.align 32
 16703              	_ZTSN12_GLOBAL__N_150TestTestRunnerFixtureTestFinishIsReportedCorrectlyE:
 16704 00c0 2A4E3132 		.string	"*N12_GLOBAL__N_150TestTestRunnerFixtureTestFinishIsReportedCorrectlyE"
 16704      5F474C4F 
 16704      42414C5F 
 16704      5F4E5F31 
 16704      35305465 
 16705 0106 0000     		.align 8
 16708              	_ZTIN12_GLOBAL__N_18SlowTestE:
 16709 0108 00000000 		.quad	_ZTVN10__cxxabiv120__si_class_type_infoE+16
 16709      00000000 
 16710 0110 00000000 		.quad	_ZTSN12_GLOBAL__N_18SlowTestE
 16710      00000000 
 16711 0118 00000000 		.quad	_ZTIN8UnitTest4TestE
 16711      00000000 
 16712              		.align 16
 16715              	_ZTSN12_GLOBAL__N_18SlowTestE:
 16716 0120 2A4E3132 		.string	"*N12_GLOBAL__N_18SlowTestE"
 16716      5F474C4F 
 16716      42414C5F 
 16716      5F4E5F31 
 16716      38536C6F 
 16717 013b 00000000 		.align 8
 16717      00
 16720              	_ZTIN12_GLOBAL__N_154TestTestRunnerFixtureTestFinishIsCalledWithCorrectTimeE:
 16721 0140 00000000 		.quad	_ZTVN10__cxxabiv120__si_class_type_infoE+16
 16721      00000000 
 16722 0148 00000000 		.quad	_ZTSN12_GLOBAL__N_154TestTestRunnerFixtureTestFinishIsCalledWithCorrectTimeE
 16722      00000000 
 16723 0150 00000000 		.quad	_ZTIN8UnitTest4TestE
 16723      00000000 
 16724 0158 00000000 		.align 32
 16724      00000000 
 16727              	_ZTSN12_GLOBAL__N_154TestTestRunnerFixtureTestFinishIsCalledWithCorrectTimeE:
 16728 0160 2A4E3132 		.string	"*N12_GLOBAL__N_154TestTestRunnerFixtureTestFinishIsCalledWithCorrectTimeE"
 16728      5F474C4F 
 16728      42414C5F 
 16728      5F4E5F31 
 16728      35345465 
 16729 01aa 00000000 		.align 8
 16729      0000
 16732              	_ZTIN12_GLOBAL__N_156TestTestRunnerFixtureFailureCountIsZeroWhenNoTestsAreRunE:
 16733 01b0 00000000 		.quad	_ZTVN10__cxxabiv120__si_class_type_infoE+16
 16733      00000000 
 16734 01b8 00000000 		.quad	_ZTSN12_GLOBAL__N_156TestTestRunnerFixtureFailureCountIsZeroWhenNoTestsAreRunE
 16734      00000000 
 16735 01c0 00000000 		.quad	_ZTIN8UnitTest4TestE
 16735      00000000 
 16736 01c8 00000000 		.align 32
 16736      00000000 
 16736      00000000 
 16736      00000000 
 16736      00000000 
 16739              	_ZTSN12_GLOBAL__N_156TestTestRunnerFixtureFailureCountIsZeroWhenNoTestsAreRunE:
 16740 01e0 2A4E3132 		.string	"*N12_GLOBAL__N_156TestTestRunnerFixtureFailureCountIsZeroWhenNoTestsAreRunE"
 16740      5F474C4F 
 16740      42414C5F 
 16740      5F4E5F31 
 16740      35365465 
 16741 022c 00000000 		.align 8
 16744              	_ZTIN12_GLOBAL__N_157TestTestRunnerFixtureCallsReportFailureOncePerFailingTestE:
 16745 0230 00000000 		.quad	_ZTVN10__cxxabiv120__si_class_type_infoE+16
 16745      00000000 
 16746 0238 00000000 		.quad	_ZTSN12_GLOBAL__N_157TestTestRunnerFixtureCallsReportFailureOncePerFailingTestE
 16746      00000000 
 16747 0240 00000000 		.quad	_ZTIN8UnitTest4TestE
 16747      00000000 
 16748 0248 00000000 		.align 32
 16748      00000000 
 16748      00000000 
 16748      00000000 
 16748      00000000 
 16751              	_ZTSN12_GLOBAL__N_157TestTestRunnerFixtureCallsReportFailureOncePerFailingTestE:
 16752 0260 2A4E3132 		.string	"*N12_GLOBAL__N_157TestTestRunnerFixtureCallsReportFailureOncePerFailingTestE"
 16752      5F474C4F 
 16752      42414C5F 
 16752      5F4E5F31 
 16752      35375465 
 16753 02ad 000000   		.align 8
 16756              	_ZTIN12_GLOBAL__N_156TestTestRunnerFixtureTestsThatAssertAreReportedAsFailingE:
 16757 02b0 00000000 		.quad	_ZTVN10__cxxabiv120__si_class_type_infoE+16
 16757      00000000 
 16758 02b8 00000000 		.quad	_ZTSN12_GLOBAL__N_156TestTestRunnerFixtureTestsThatAssertAreReportedAsFailingE
 16758      00000000 
 16759 02c0 00000000 		.quad	_ZTIN8UnitTest4TestE
 16759      00000000 
 16760 02c8 00000000 		.align 32
 16760      00000000 
 16760      00000000 
 16760      00000000 
 16760      00000000 
 16763              	_ZTSN12_GLOBAL__N_156TestTestRunnerFixtureTestsThatAssertAreReportedAsFailingE:
 16764 02e0 2A4E3132 		.string	"*N12_GLOBAL__N_156TestTestRunnerFixtureTestsThatAssertAreReportedAsFailingE"
 16764      5F474C4F 
 16764      42414C5F 
 16764      5F4E5F31 
 16764      35365465 
 16765 032c 00000000 		.align 8
 16768              	_ZTIN12_GLOBAL__N_148TestTestRunnerFixtureReporterNotifiedOfTestCountE:
 16769 0330 00000000 		.quad	_ZTVN10__cxxabiv120__si_class_type_infoE+16
 16769      00000000 
 16770 0338 00000000 		.quad	_ZTSN12_GLOBAL__N_148TestTestRunnerFixtureReporterNotifiedOfTestCountE
 16770      00000000 
 16771 0340 00000000 		.quad	_ZTIN8UnitTest4TestE
 16771      00000000 
 16772 0348 00000000 		.align 32
 16772      00000000 
 16772      00000000 
 16772      00000000 
 16772      00000000 
 16775              	_ZTSN12_GLOBAL__N_148TestTestRunnerFixtureReporterNotifiedOfTestCountE:
 16776 0360 2A4E3132 		.string	"*N12_GLOBAL__N_148TestTestRunnerFixtureReporterNotifiedOfTestCountE"
 16776      5F474C4F 
 16776      42414C5F 
 16776      5F4E5F31 
 16776      34385465 
 16777 03a4 00000000 		.align 8
 16780              	_ZTIN12_GLOBAL__N_150TestTestRunnerFixtureReporterNotifiedOfFailedTestsE:
 16781 03a8 00000000 		.quad	_ZTVN10__cxxabiv120__si_class_type_infoE+16
 16781      00000000 
 16782 03b0 00000000 		.quad	_ZTSN12_GLOBAL__N_150TestTestRunnerFixtureReporterNotifiedOfFailedTestsE
 16782      00000000 
 16783 03b8 00000000 		.quad	_ZTIN8UnitTest4TestE
 16783      00000000 
 16784              		.align 32
 16787              	_ZTSN12_GLOBAL__N_150TestTestRunnerFixtureReporterNotifiedOfFailedTestsE:
 16788 03c0 2A4E3132 		.string	"*N12_GLOBAL__N_150TestTestRunnerFixtureReporterNotifiedOfFailedTestsE"
 16788      5F474C4F 
 16788      42414C5F 
 16788      5F4E5F31 
 16788      35305465 
 16789 0406 0000     		.align 8
 16792              	_ZTIN12_GLOBAL__N_147TestTestRunnerFixtureReporterNotifiedOfFailuresE:
 16793 0408 00000000 		.quad	_ZTVN10__cxxabiv120__si_class_type_infoE+16
 16793      00000000 
 16794 0410 00000000 		.quad	_ZTSN12_GLOBAL__N_147TestTestRunnerFixtureReporterNotifiedOfFailuresE
 16794      00000000 
 16795 0418 00000000 		.quad	_ZTIN8UnitTest4TestE
 16795      00000000 
 16796              		.align 32
 16799              	_ZTSN12_GLOBAL__N_147TestTestRunnerFixtureReporterNotifiedOfFailuresE:
 16800 0420 2A4E3132 		.string	"*N12_GLOBAL__N_147TestTestRunnerFixtureReporterNotifiedOfFailuresE"
 16800      5F474C4F 
 16800      42414C5F 
 16800      5F4E5F31 
 16800      34375465 
 16801 0463 00000000 		.align 8
 16801      00
 16804              	_ZTIN12_GLOBAL__N_155TestTestRunnerFixtureSlowTestPassesForHighTimeThresholdE:
 16805 0468 00000000 		.quad	_ZTVN10__cxxabiv120__si_class_type_infoE+16
 16805      00000000 
 16806 0470 00000000 		.quad	_ZTSN12_GLOBAL__N_155TestTestRunnerFixtureSlowTestPassesForHighTimeThresholdE
 16806      00000000 
 16807 0478 00000000 		.quad	_ZTIN8UnitTest4TestE
 16807      00000000 
 16808              		.align 32
 16811              	_ZTSN12_GLOBAL__N_155TestTestRunnerFixtureSlowTestPassesForHighTimeThresholdE:
 16812 0480 2A4E3132 		.string	"*N12_GLOBAL__N_155TestTestRunnerFixtureSlowTestPassesForHighTimeThresholdE"
 16812      5F474C4F 
 16812      42414C5F 
 16812      5F4E5F31 
 16812      35355465 
 16813 04cb 00000000 		.align 8
 16813      00
 16816              	_ZTIN12_GLOBAL__N_153TestTestRunnerFixtureSlowTestFailsForLowTimeThresholdE:
 16817 04d0 00000000 		.quad	_ZTVN10__cxxabiv120__si_class_type_infoE+16
 16817      00000000 
 16818 04d8 00000000 		.quad	_ZTSN12_GLOBAL__N_153TestTestRunnerFixtureSlowTestFailsForLowTimeThresholdE
 16818      00000000 
 16819 04e0 00000000 		.quad	_ZTIN8UnitTest4TestE
 16819      00000000 
 16820 04e8 00000000 		.align 32
 16820      00000000 
 16820      00000000 
 16820      00000000 
 16820      00000000 
 16823              	_ZTSN12_GLOBAL__N_153TestTestRunnerFixtureSlowTestFailsForLowTimeThresholdE:
 16824 0500 2A4E3132 		.string	"*N12_GLOBAL__N_153TestTestRunnerFixtureSlowTestFailsForLowTimeThresholdE"
 16824      5F474C4F 
 16824      42414C5F 
 16824      5F4E5F31 
 16824      35335465 
 16825 0549 00000000 		.align 8
 16825      000000
 16828              	_ZTIN12_GLOBAL__N_157TestTestRunnerFixtureSlowTestHasCorrectFailureInformationE:
 16829 0550 00000000 		.quad	_ZTVN10__cxxabiv120__si_class_type_infoE+16
 16829      00000000 
 16830 0558 00000000 		.quad	_ZTSN12_GLOBAL__N_157TestTestRunnerFixtureSlowTestHasCorrectFailureInformationE
 16830      00000000 
 16831 0560 00000000 		.quad	_ZTIN8UnitTest4TestE
 16831      00000000 
 16832 0568 00000000 		.align 32
 16832      00000000 
 16832      00000000 
 16832      00000000 
 16832      00000000 
 16835              	_ZTSN12_GLOBAL__N_157TestTestRunnerFixtureSlowTestHasCorrectFailureInformationE:
 16836 0580 2A4E3132 		.string	"*N12_GLOBAL__N_157TestTestRunnerFixtureSlowTestHasCorrectFailureInformationE"
 16836      5F474C4F 
 16836      42414C5F 
 16836      5F4E5F31 
 16836      35375465 
 16837 05cd 000000   		.align 8
 16840              	_ZTIN12_GLOBAL__N_152TestTestRunnerFixtureSlowTestWithTimeExemptionPassesE:
 16841 05d0 00000000 		.quad	_ZTVN10__cxxabiv120__si_class_type_infoE+16
 16841      00000000 
 16842 05d8 00000000 		.quad	_ZTSN12_GLOBAL__N_152TestTestRunnerFixtureSlowTestWithTimeExemptionPassesE
 16842      00000000 
 16843 05e0 00000000 		.quad	_ZTIN8UnitTest4TestE
 16843      00000000 
 16844 05e8 00000000 		.align 32
 16844      00000000 
 16844      00000000 
 16844      00000000 
 16844      00000000 
 16847              	_ZTSN12_GLOBAL__N_152TestTestRunnerFixtureSlowTestWithTimeExemptionPassesE:
 16848 0600 2A4E3132 		.string	"*N12_GLOBAL__N_152TestTestRunnerFixtureSlowTestWithTimeExemptionPassesE"
 16848      5F474C4F 
 16848      42414C5F 
 16848      5F4E5F31 
 16848      35325465 
 16849              		.align 8
 16852              	_ZTIZN12_GLOBAL__N_154TestRunnerFixtureSlowTestWithTimeExemptionPassesHelper7RunImplEvE16SlowExempt
 16853 0648 00000000 		.quad	_ZTVN10__cxxabiv120__si_class_type_infoE+16
 16853      00000000 
 16854 0650 00000000 		.quad	_ZTSZN12_GLOBAL__N_154TestRunnerFixtureSlowTestWithTimeExemptionPassesHelper7RunImplEvE16Slo
 16854      00000000 
 16855 0658 00000000 		.quad	_ZTIN8UnitTest4TestE
 16855      00000000 
 16856              		.align 32
 16859              	_ZTSZN12_GLOBAL__N_154TestRunnerFixtureSlowTestWithTimeExemptionPassesHelper7RunImplEvE16SlowExempt
 16860 0660 2A5A4E31 		.string	"*ZN12_GLOBAL__N_154TestRunnerFixtureSlowTestWithTimeExemptionPassesHelper7RunImplEvE16Slo
 16860      325F474C 
 16860      4F42414C 
 16860      5F5F4E5F 
 16860      31353454 
 16861 06c7 00       		.align 8
 16864              	_ZTIN12_GLOBAL__N_162TestTestSuiteFixtureTestRunnerRunsAllSuitesIfNullSuiteIsPassedE:
 16865 06c8 00000000 		.quad	_ZTVN10__cxxabiv120__si_class_type_infoE+16
 16865      00000000 
 16866 06d0 00000000 		.quad	_ZTSN12_GLOBAL__N_162TestTestSuiteFixtureTestRunnerRunsAllSuitesIfNullSuiteIsPassedE
 16866      00000000 
 16867 06d8 00000000 		.quad	_ZTIN8UnitTest4TestE
 16867      00000000 
 16868              		.align 32
 16871              	_ZTSN12_GLOBAL__N_162TestTestSuiteFixtureTestRunnerRunsAllSuitesIfNullSuiteIsPassedE:
 16872 06e0 2A4E3132 		.string	"*N12_GLOBAL__N_162TestTestSuiteFixtureTestRunnerRunsAllSuitesIfNullSuiteIsPassedE"
 16872      5F474C4F 
 16872      42414C5F 
 16872      5F4E5F31 
 16872      36325465 
 16873 0732 00000000 		.align 8
 16873      0000
 16876              	_ZTIN12_GLOBAL__N_152TestTestSuiteFixtureTestRunnerRunsOnlySpecifiedSuiteE:
 16877 0738 00000000 		.quad	_ZTVN10__cxxabiv120__si_class_type_infoE+16
 16877      00000000 
 16878 0740 00000000 		.quad	_ZTSN12_GLOBAL__N_152TestTestSuiteFixtureTestRunnerRunsOnlySpecifiedSuiteE
 16878      00000000 
 16879 0748 00000000 		.quad	_ZTIN8UnitTest4TestE
 16879      00000000 
 16880 0750 00000000 		.align 32
 16880      00000000 
 16880      00000000 
 16880      00000000 
 16883              	_ZTSN12_GLOBAL__N_152TestTestSuiteFixtureTestRunnerRunsOnlySpecifiedSuiteE:
 16884 0760 2A4E3132 		.string	"*N12_GLOBAL__N_152TestTestSuiteFixtureTestRunnerRunsOnlySpecifiedSuiteE"
 16884      5F474C4F 
 16884      42414C5F 
 16884      5F4E5F31 
 16884      35325465 
 16885              		.align 8
 16888              	_ZTIN12_GLOBAL__N_137TestTestMockPredicateBehavesCorrectlyE:
 16889 07a8 00000000 		.quad	_ZTVN10__cxxabiv120__si_class_type_infoE+16
 16889      00000000 
 16890 07b0 00000000 		.quad	_ZTSN12_GLOBAL__N_137TestTestMockPredicateBehavesCorrectlyE
 16890      00000000 
 16891 07b8 00000000 		.quad	_ZTIN8UnitTest4TestE
 16891      00000000 
 16892              		.align 32
 16895              	_ZTSN12_GLOBAL__N_137TestTestMockPredicateBehavesCorrectlyE:
 16896 07c0 2A4E3132 		.string	"*N12_GLOBAL__N_137TestTestMockPredicateBehavesCorrectlyE"
 16896      5F474C4F 
 16896      42414C5F 
 16896      5F4E5F31 
 16896      33375465 
 16897 07f9 00000000 		.align 8
 16897      000000
 16900              	_ZTIN12_GLOBAL__N_157TestTestRunnerFixtureTestRunnerRunsTestsThatPassPredicateE:
 16901 0800 00000000 		.quad	_ZTVN10__cxxabiv120__si_class_type_infoE+16
 16901      00000000 
 16902 0808 00000000 		.quad	_ZTSN12_GLOBAL__N_157TestTestRunnerFixtureTestRunnerRunsTestsThatPassPredicateE
 16902      00000000 
 16903 0810 00000000 		.quad	_ZTIN8UnitTest4TestE
 16903      00000000 
 16904 0818 00000000 		.align 32
 16904      00000000 
 16907              	_ZTSN12_GLOBAL__N_157TestTestRunnerFixtureTestRunnerRunsTestsThatPassPredicateE:
 16908 0820 2A4E3132 		.string	"*N12_GLOBAL__N_157TestTestRunnerFixtureTestRunnerRunsTestsThatPassPredicateE"
 16908      5F474C4F 
 16908      42414C5F 
 16908      5F4E5F31 
 16908      35375465 
 16909 086d 000000   		.align 8
 16912              	_ZTIN12_GLOBAL__N_180TestTestRunnerFixtureTestRunnerOnlyRunsTestsInSpecifiedSuiteAndThatPassPredica
 16913 0870 00000000 		.quad	_ZTVN10__cxxabiv120__si_class_type_infoE+16
 16913      00000000 
 16914 0878 00000000 		.quad	_ZTSN12_GLOBAL__N_180TestTestRunnerFixtureTestRunnerOnlyRunsTestsInSpecifiedSuiteAndThatPass
 16914      00000000 
 16915 0880 00000000 		.quad	_ZTIN8UnitTest4TestE
 16915      00000000 
 16916 0888 00000000 		.align 32
 16916      00000000 
 16916      00000000 
 16916      00000000 
 16916      00000000 
 16919              	_ZTSN12_GLOBAL__N_180TestTestRunnerFixtureTestRunnerOnlyRunsTestsInSpecifiedSuiteAndThatPassPredica
 16920 08a0 2A4E3132 		.string	"*N12_GLOBAL__N_180TestTestRunnerFixtureTestRunnerOnlyRunsTestsInSpecifiedSuiteAndThatPass
 16920      5F474C4F 
 16920      42414C5F 
 16920      5F4E5F31 
 16920      38305465 
 16921              		.hidden	_ZTCN8UnitTest15MemoryOutStreamE0_So
 16922              		.weak	_ZTCN8UnitTest15MemoryOutStreamE0_So
 16923              		.section	.rodata._ZTCN8UnitTest15MemoryOutStreamE0_So,"aG",@progbits,_ZTVN8UnitTest15MemoryOutStre
 16924              		.align 8
 16927              	_ZTCN8UnitTest15MemoryOutStreamE0_So:
 16928 0000 90000000 		.quad	144
 16928      00000000 
 16929 0008 00000000 		.quad	0
 16929      00000000 
 16930 0010 00000000 		.quad	_ZTISo
 16930      00000000 
 16931 0018 00000000 		.quad	0
 16931      00000000 
 16932 0020 00000000 		.quad	0
 16932      00000000 
 16933 0028 70FFFFFF 		.quad	-144
 16933      FFFFFFFF 
 16934 0030 70FFFFFF 		.quad	-144
 16934      FFFFFFFF 
 16935 0038 00000000 		.quad	_ZTISo
 16935      00000000 
 16936 0040 00000000 		.quad	0
 16936      00000000 
 16937 0048 00000000 		.quad	0
 16937      00000000 
 16938              		.hidden	_ZTCN8UnitTest15MemoryOutStreamE0_NSt7__cxx1119basic_ostringstreamIcSt11char_traitsIcESaIc
 16939              		.weak	_ZTCN8UnitTest15MemoryOutStreamE0_NSt7__cxx1119basic_ostringstreamIcSt11char_traitsIcESaIcEE
 16940              		.section	.rodata._ZTCN8UnitTest15MemoryOutStreamE0_NSt7__cxx1119basic_ostringstreamIcSt11char_trai
 16941              		.align 8
 16944              	_ZTCN8UnitTest15MemoryOutStreamE0_NSt7__cxx1119basic_ostringstreamIcSt11char_traitsIcESaIcEEE:
 16945 0000 90000000 		.quad	144
 16945      00000000 
 16946 0008 00000000 		.quad	0
 16946      00000000 
 16947 0010 00000000 		.quad	_ZTINSt7__cxx1119basic_ostringstreamIcSt11char_traitsIcESaIcEEE
 16947      00000000 
 16948 0018 00000000 		.quad	0
 16948      00000000 
 16949 0020 00000000 		.quad	0
 16949      00000000 
 16950 0028 70FFFFFF 		.quad	-144
 16950      FFFFFFFF 
 16951 0030 70FFFFFF 		.quad	-144
 16951      FFFFFFFF 
 16952 0038 00000000 		.quad	_ZTINSt7__cxx1119basic_ostringstreamIcSt11char_traitsIcESaIcEEE
 16952      00000000 
 16953 0040 00000000 		.quad	0
 16953      00000000 
 16954 0048 00000000 		.quad	0
 16954      00000000 
 16955              		.weak	_ZTTN8UnitTest15MemoryOutStreamE
 16956              		.section	.rodata._ZTTN8UnitTest15MemoryOutStreamE,"aG",@progbits,_ZTVN8UnitTest15MemoryOutStreamE,
 16957              		.align 8
 16960              	_ZTTN8UnitTest15MemoryOutStreamE:
 16961 0000 00000000 		.quad	_ZTVN8UnitTest15MemoryOutStreamE+24
 16961      00000000 
 16962 0008 00000000 		.quad	_ZTCN8UnitTest15MemoryOutStreamE0_NSt7__cxx1119basic_ostringstreamIcSt11char_traitsIcESaIcEE
 16962      00000000 
 16963 0010 00000000 		.quad	_ZTCN8UnitTest15MemoryOutStreamE0_So+24
 16963      00000000 
 16964 0018 00000000 		.quad	_ZTCN8UnitTest15MemoryOutStreamE0_So+64
 16964      00000000 
 16965 0020 00000000 		.quad	_ZTCN8UnitTest15MemoryOutStreamE0_NSt7__cxx1119basic_ostringstreamIcSt11char_traitsIcESaIcEE
 16965      00000000 
 16966 0028 00000000 		.quad	_ZTVN8UnitTest15MemoryOutStreamE+64
 16966      00000000 
 16967              		.weak	_ZTVN8UnitTest15MemoryOutStreamE
 16968              		.section	.rodata._ZTVN8UnitTest15MemoryOutStreamE,"aG",@progbits,_ZTVN8UnitTest15MemoryOutStreamE,
 16969              		.align 8
 16972              	_ZTVN8UnitTest15MemoryOutStreamE:
 16973 0000 90000000 		.quad	144
 16973      00000000 
 16974 0008 00000000 		.quad	0
 16974      00000000 
 16975 0010 00000000 		.quad	_ZTIN8UnitTest15MemoryOutStreamE
 16975      00000000 
 16976 0018 00000000 		.quad	_ZN8UnitTest15MemoryOutStreamD1Ev
 16976      00000000 
 16977 0020 00000000 		.quad	_ZN8UnitTest15MemoryOutStreamD0Ev
 16977      00000000 
 16978 0028 70FFFFFF 		.quad	-144
 16978      FFFFFFFF 
 16979 0030 70FFFFFF 		.quad	-144
 16979      FFFFFFFF 
 16980 0038 00000000 		.quad	_ZTIN8UnitTest15MemoryOutStreamE
 16980      00000000 
 16981 0040 00000000 		.quad	_ZTv0_n24_N8UnitTest15MemoryOutStreamD1Ev
 16981      00000000 
 16982 0048 00000000 		.quad	_ZTv0_n24_N8UnitTest15MemoryOutStreamD0Ev
 16982      00000000 
 16983              		.weak	_ZTV17RecordingReporter
 16984              		.section	.rodata._ZTV17RecordingReporter,"aG",@progbits,_ZTV17RecordingReporter,comdat
 16985              		.align 8
 16988              	_ZTV17RecordingReporter:
 16989 0000 00000000 		.quad	0
 16989      00000000 
 16990 0008 00000000 		.quad	_ZTI17RecordingReporter
 16990      00000000 
 16991 0010 00000000 		.quad	_ZN17RecordingReporterD1Ev
 16991      00000000 
 16992 0018 00000000 		.quad	_ZN17RecordingReporterD0Ev
 16992      00000000 
 16993 0020 00000000 		.quad	_ZN17RecordingReporter15ReportTestStartERKN8UnitTest11TestDetailsE
 16993      00000000 
 16994 0028 00000000 		.quad	_ZN17RecordingReporter13ReportFailureERKN8UnitTest11TestDetailsEPKc
 16994      00000000 
 16995 0030 00000000 		.quad	_ZN17RecordingReporter16ReportTestFinishERKN8UnitTest11TestDetailsEf
 16995      00000000 
 16996 0038 00000000 		.quad	_ZN17RecordingReporter13ReportSummaryEiiif
 16996      00000000 
 16997              		.section	.rodata
 16998 0904 00000000 		.align 8
 17001              	_ZTVN12_GLOBAL__N_18MockTestE:
 17002 0908 00000000 		.quad	0
 17002      00000000 
 17003 0910 00000000 		.quad	_ZTIN12_GLOBAL__N_18MockTestE
 17003      00000000 
 17004 0918 00000000 		.quad	_ZN12_GLOBAL__N_18MockTestD1Ev
 17004      00000000 
 17005 0920 00000000 		.quad	_ZN12_GLOBAL__N_18MockTestD0Ev
 17005      00000000 
 17006 0928 00000000 		.quad	_ZNK12_GLOBAL__N_18MockTest7RunImplEv
 17006      00000000 
 17007              		.align 8
 17010              	_ZTVN12_GLOBAL__N_149TestTestRunnerFixtureTestStartIsReportedCorrectlyE:
 17011 0930 00000000 		.quad	0
 17011      00000000 
 17012 0938 00000000 		.quad	_ZTIN12_GLOBAL__N_149TestTestRunnerFixtureTestStartIsReportedCorrectlyE
 17012      00000000 
 17013 0940 00000000 		.quad	_ZN12_GLOBAL__N_149TestTestRunnerFixtureTestStartIsReportedCorrectlyD1Ev
 17013      00000000 
 17014 0948 00000000 		.quad	_ZN12_GLOBAL__N_149TestTestRunnerFixtureTestStartIsReportedCorrectlyD0Ev
 17014      00000000 
 17015 0950 00000000 		.quad	_ZNK12_GLOBAL__N_149TestTestRunnerFixtureTestStartIsReportedCorrectly7RunImplEv
 17015      00000000 
 17016              		.align 8
 17019              	_ZTVN12_GLOBAL__N_150TestTestRunnerFixtureTestFinishIsReportedCorrectlyE:
 17020 0958 00000000 		.quad	0
 17020      00000000 
 17021 0960 00000000 		.quad	_ZTIN12_GLOBAL__N_150TestTestRunnerFixtureTestFinishIsReportedCorrectlyE
 17021      00000000 
 17022 0968 00000000 		.quad	_ZN12_GLOBAL__N_150TestTestRunnerFixtureTestFinishIsReportedCorrectlyD1Ev
 17022      00000000 
 17023 0970 00000000 		.quad	_ZN12_GLOBAL__N_150TestTestRunnerFixtureTestFinishIsReportedCorrectlyD0Ev
 17023      00000000 
 17024 0978 00000000 		.quad	_ZNK12_GLOBAL__N_150TestTestRunnerFixtureTestFinishIsReportedCorrectly7RunImplEv
 17024      00000000 
 17025              		.align 8
 17028              	_ZTVN12_GLOBAL__N_18SlowTestE:
 17029 0980 00000000 		.quad	0
 17029      00000000 
 17030 0988 00000000 		.quad	_ZTIN12_GLOBAL__N_18SlowTestE
 17030      00000000 
 17031 0990 00000000 		.quad	_ZN12_GLOBAL__N_18SlowTestD1Ev
 17031      00000000 
 17032 0998 00000000 		.quad	_ZN12_GLOBAL__N_18SlowTestD0Ev
 17032      00000000 
 17033 09a0 00000000 		.quad	_ZNK12_GLOBAL__N_18SlowTest7RunImplEv
 17033      00000000 
 17034              		.align 8
 17037              	_ZTVN12_GLOBAL__N_154TestTestRunnerFixtureTestFinishIsCalledWithCorrectTimeE:
 17038 09a8 00000000 		.quad	0
 17038      00000000 
 17039 09b0 00000000 		.quad	_ZTIN12_GLOBAL__N_154TestTestRunnerFixtureTestFinishIsCalledWithCorrectTimeE
 17039      00000000 
 17040 09b8 00000000 		.quad	_ZN12_GLOBAL__N_154TestTestRunnerFixtureTestFinishIsCalledWithCorrectTimeD1Ev
 17040      00000000 
 17041 09c0 00000000 		.quad	_ZN12_GLOBAL__N_154TestTestRunnerFixtureTestFinishIsCalledWithCorrectTimeD0Ev
 17041      00000000 
 17042 09c8 00000000 		.quad	_ZNK12_GLOBAL__N_154TestTestRunnerFixtureTestFinishIsCalledWithCorrectTime7RunImplEv
 17042      00000000 
 17043              		.align 8
 17046              	_ZTVN12_GLOBAL__N_156TestTestRunnerFixtureFailureCountIsZeroWhenNoTestsAreRunE:
 17047 09d0 00000000 		.quad	0
 17047      00000000 
 17048 09d8 00000000 		.quad	_ZTIN12_GLOBAL__N_156TestTestRunnerFixtureFailureCountIsZeroWhenNoTestsAreRunE
 17048      00000000 
 17049 09e0 00000000 		.quad	_ZN12_GLOBAL__N_156TestTestRunnerFixtureFailureCountIsZeroWhenNoTestsAreRunD1Ev
 17049      00000000 
 17050 09e8 00000000 		.quad	_ZN12_GLOBAL__N_156TestTestRunnerFixtureFailureCountIsZeroWhenNoTestsAreRunD0Ev
 17050      00000000 
 17051 09f0 00000000 		.quad	_ZNK12_GLOBAL__N_156TestTestRunnerFixtureFailureCountIsZeroWhenNoTestsAreRun7RunImplEv
 17051      00000000 
 17052              		.align 8
 17055              	_ZTVN12_GLOBAL__N_157TestTestRunnerFixtureCallsReportFailureOncePerFailingTestE:
 17056 09f8 00000000 		.quad	0
 17056      00000000 
 17057 0a00 00000000 		.quad	_ZTIN12_GLOBAL__N_157TestTestRunnerFixtureCallsReportFailureOncePerFailingTestE
 17057      00000000 
 17058 0a08 00000000 		.quad	_ZN12_GLOBAL__N_157TestTestRunnerFixtureCallsReportFailureOncePerFailingTestD1Ev
 17058      00000000 
 17059 0a10 00000000 		.quad	_ZN12_GLOBAL__N_157TestTestRunnerFixtureCallsReportFailureOncePerFailingTestD0Ev
 17059      00000000 
 17060 0a18 00000000 		.quad	_ZNK12_GLOBAL__N_157TestTestRunnerFixtureCallsReportFailureOncePerFailingTest7RunImplEv
 17060      00000000 
 17061              		.align 8
 17064              	_ZTVN12_GLOBAL__N_156TestTestRunnerFixtureTestsThatAssertAreReportedAsFailingE:
 17065 0a20 00000000 		.quad	0
 17065      00000000 
 17066 0a28 00000000 		.quad	_ZTIN12_GLOBAL__N_156TestTestRunnerFixtureTestsThatAssertAreReportedAsFailingE
 17066      00000000 
 17067 0a30 00000000 		.quad	_ZN12_GLOBAL__N_156TestTestRunnerFixtureTestsThatAssertAreReportedAsFailingD1Ev
 17067      00000000 
 17068 0a38 00000000 		.quad	_ZN12_GLOBAL__N_156TestTestRunnerFixtureTestsThatAssertAreReportedAsFailingD0Ev
 17068      00000000 
 17069 0a40 00000000 		.quad	_ZNK12_GLOBAL__N_156TestTestRunnerFixtureTestsThatAssertAreReportedAsFailing7RunImplEv
 17069      00000000 
 17070              		.align 8
 17073              	_ZTVN12_GLOBAL__N_148TestTestRunnerFixtureReporterNotifiedOfTestCountE:
 17074 0a48 00000000 		.quad	0
 17074      00000000 
 17075 0a50 00000000 		.quad	_ZTIN12_GLOBAL__N_148TestTestRunnerFixtureReporterNotifiedOfTestCountE
 17075      00000000 
 17076 0a58 00000000 		.quad	_ZN12_GLOBAL__N_148TestTestRunnerFixtureReporterNotifiedOfTestCountD1Ev
 17076      00000000 
 17077 0a60 00000000 		.quad	_ZN12_GLOBAL__N_148TestTestRunnerFixtureReporterNotifiedOfTestCountD0Ev
 17077      00000000 
 17078 0a68 00000000 		.quad	_ZNK12_GLOBAL__N_148TestTestRunnerFixtureReporterNotifiedOfTestCount7RunImplEv
 17078      00000000 
 17079              		.align 8
 17082              	_ZTVN12_GLOBAL__N_150TestTestRunnerFixtureReporterNotifiedOfFailedTestsE:
 17083 0a70 00000000 		.quad	0
 17083      00000000 
 17084 0a78 00000000 		.quad	_ZTIN12_GLOBAL__N_150TestTestRunnerFixtureReporterNotifiedOfFailedTestsE
 17084      00000000 
 17085 0a80 00000000 		.quad	_ZN12_GLOBAL__N_150TestTestRunnerFixtureReporterNotifiedOfFailedTestsD1Ev
 17085      00000000 
 17086 0a88 00000000 		.quad	_ZN12_GLOBAL__N_150TestTestRunnerFixtureReporterNotifiedOfFailedTestsD0Ev
 17086      00000000 
 17087 0a90 00000000 		.quad	_ZNK12_GLOBAL__N_150TestTestRunnerFixtureReporterNotifiedOfFailedTests7RunImplEv
 17087      00000000 
 17088              		.align 8
 17091              	_ZTVN12_GLOBAL__N_147TestTestRunnerFixtureReporterNotifiedOfFailuresE:
 17092 0a98 00000000 		.quad	0
 17092      00000000 
 17093 0aa0 00000000 		.quad	_ZTIN12_GLOBAL__N_147TestTestRunnerFixtureReporterNotifiedOfFailuresE
 17093      00000000 
 17094 0aa8 00000000 		.quad	_ZN12_GLOBAL__N_147TestTestRunnerFixtureReporterNotifiedOfFailuresD1Ev
 17094      00000000 
 17095 0ab0 00000000 		.quad	_ZN12_GLOBAL__N_147TestTestRunnerFixtureReporterNotifiedOfFailuresD0Ev
 17095      00000000 
 17096 0ab8 00000000 		.quad	_ZNK12_GLOBAL__N_147TestTestRunnerFixtureReporterNotifiedOfFailures7RunImplEv
 17096      00000000 
 17097              		.align 8
 17100              	_ZTVN12_GLOBAL__N_155TestTestRunnerFixtureSlowTestPassesForHighTimeThresholdE:
 17101 0ac0 00000000 		.quad	0
 17101      00000000 
 17102 0ac8 00000000 		.quad	_ZTIN12_GLOBAL__N_155TestTestRunnerFixtureSlowTestPassesForHighTimeThresholdE
 17102      00000000 
 17103 0ad0 00000000 		.quad	_ZN12_GLOBAL__N_155TestTestRunnerFixtureSlowTestPassesForHighTimeThresholdD1Ev
 17103      00000000 
 17104 0ad8 00000000 		.quad	_ZN12_GLOBAL__N_155TestTestRunnerFixtureSlowTestPassesForHighTimeThresholdD0Ev
 17104      00000000 
 17105 0ae0 00000000 		.quad	_ZNK12_GLOBAL__N_155TestTestRunnerFixtureSlowTestPassesForHighTimeThreshold7RunImplEv
 17105      00000000 
 17106              		.align 8
 17109              	_ZTVN12_GLOBAL__N_153TestTestRunnerFixtureSlowTestFailsForLowTimeThresholdE:
 17110 0ae8 00000000 		.quad	0
 17110      00000000 
 17111 0af0 00000000 		.quad	_ZTIN12_GLOBAL__N_153TestTestRunnerFixtureSlowTestFailsForLowTimeThresholdE
 17111      00000000 
 17112 0af8 00000000 		.quad	_ZN12_GLOBAL__N_153TestTestRunnerFixtureSlowTestFailsForLowTimeThresholdD1Ev
 17112      00000000 
 17113 0b00 00000000 		.quad	_ZN12_GLOBAL__N_153TestTestRunnerFixtureSlowTestFailsForLowTimeThresholdD0Ev
 17113      00000000 
 17114 0b08 00000000 		.quad	_ZNK12_GLOBAL__N_153TestTestRunnerFixtureSlowTestFailsForLowTimeThreshold7RunImplEv
 17114      00000000 
 17115              		.align 8
 17118              	_ZTVN12_GLOBAL__N_157TestTestRunnerFixtureSlowTestHasCorrectFailureInformationE:
 17119 0b10 00000000 		.quad	0
 17119      00000000 
 17120 0b18 00000000 		.quad	_ZTIN12_GLOBAL__N_157TestTestRunnerFixtureSlowTestHasCorrectFailureInformationE
 17120      00000000 
 17121 0b20 00000000 		.quad	_ZN12_GLOBAL__N_157TestTestRunnerFixtureSlowTestHasCorrectFailureInformationD1Ev
 17121      00000000 
 17122 0b28 00000000 		.quad	_ZN12_GLOBAL__N_157TestTestRunnerFixtureSlowTestHasCorrectFailureInformationD0Ev
 17122      00000000 
 17123 0b30 00000000 		.quad	_ZNK12_GLOBAL__N_157TestTestRunnerFixtureSlowTestHasCorrectFailureInformation7RunImplEv
 17123      00000000 
 17124              		.align 8
 17127              	_ZTVN12_GLOBAL__N_152TestTestRunnerFixtureSlowTestWithTimeExemptionPassesE:
 17128 0b38 00000000 		.quad	0
 17128      00000000 
 17129 0b40 00000000 		.quad	_ZTIN12_GLOBAL__N_152TestTestRunnerFixtureSlowTestWithTimeExemptionPassesE
 17129      00000000 
 17130 0b48 00000000 		.quad	_ZN12_GLOBAL__N_152TestTestRunnerFixtureSlowTestWithTimeExemptionPassesD1Ev
 17130      00000000 
 17131 0b50 00000000 		.quad	_ZN12_GLOBAL__N_152TestTestRunnerFixtureSlowTestWithTimeExemptionPassesD0Ev
 17131      00000000 
 17132 0b58 00000000 		.quad	_ZNK12_GLOBAL__N_152TestTestRunnerFixtureSlowTestWithTimeExemptionPasses7RunImplEv
 17132      00000000 
 17133              		.align 8
 17136              	_ZTVZN12_GLOBAL__N_154TestRunnerFixtureSlowTestWithTimeExemptionPassesHelper7RunImplEvE16SlowExempt
 17137 0b60 00000000 		.quad	0
 17137      00000000 
 17138 0b68 00000000 		.quad	_ZTIZN12_GLOBAL__N_154TestRunnerFixtureSlowTestWithTimeExemptionPassesHelper7RunImplEvE16Slo
 17138      00000000 
 17139 0b70 00000000 		.quad	_ZZN12_GLOBAL__N_154TestRunnerFixtureSlowTestWithTimeExemptionPassesHelper7RunImplEvEN16Slow
 17139      00000000 
 17140 0b78 00000000 		.quad	_ZZN12_GLOBAL__N_154TestRunnerFixtureSlowTestWithTimeExemptionPassesHelper7RunImplEvEN16Slow
 17140      00000000 
 17141 0b80 00000000 		.quad	_ZZN12_GLOBAL__N_154TestRunnerFixtureSlowTestWithTimeExemptionPassesHelper7RunImplEvENK16Slo
 17141      00000000 
 17142              		.align 8
 17145              	_ZTVN12_GLOBAL__N_162TestTestSuiteFixtureTestRunnerRunsAllSuitesIfNullSuiteIsPassedE:
 17146 0b88 00000000 		.quad	0
 17146      00000000 
 17147 0b90 00000000 		.quad	_ZTIN12_GLOBAL__N_162TestTestSuiteFixtureTestRunnerRunsAllSuitesIfNullSuiteIsPassedE
 17147      00000000 
 17148 0b98 00000000 		.quad	_ZN12_GLOBAL__N_162TestTestSuiteFixtureTestRunnerRunsAllSuitesIfNullSuiteIsPassedD1Ev
 17148      00000000 
 17149 0ba0 00000000 		.quad	_ZN12_GLOBAL__N_162TestTestSuiteFixtureTestRunnerRunsAllSuitesIfNullSuiteIsPassedD0Ev
 17149      00000000 
 17150 0ba8 00000000 		.quad	_ZNK12_GLOBAL__N_162TestTestSuiteFixtureTestRunnerRunsAllSuitesIfNullSuiteIsPassed7RunImplEv
 17150      00000000 
 17151              		.align 8
 17154              	_ZTVN12_GLOBAL__N_152TestTestSuiteFixtureTestRunnerRunsOnlySpecifiedSuiteE:
 17155 0bb0 00000000 		.quad	0
 17155      00000000 
 17156 0bb8 00000000 		.quad	_ZTIN12_GLOBAL__N_152TestTestSuiteFixtureTestRunnerRunsOnlySpecifiedSuiteE
 17156      00000000 
 17157 0bc0 00000000 		.quad	_ZN12_GLOBAL__N_152TestTestSuiteFixtureTestRunnerRunsOnlySpecifiedSuiteD1Ev
 17157      00000000 
 17158 0bc8 00000000 		.quad	_ZN12_GLOBAL__N_152TestTestSuiteFixtureTestRunnerRunsOnlySpecifiedSuiteD0Ev
 17158      00000000 
 17159 0bd0 00000000 		.quad	_ZNK12_GLOBAL__N_152TestTestSuiteFixtureTestRunnerRunsOnlySpecifiedSuite7RunImplEv
 17159      00000000 
 17160              		.align 8
 17163              	_ZTVN12_GLOBAL__N_137TestTestMockPredicateBehavesCorrectlyE:
 17164 0bd8 00000000 		.quad	0
 17164      00000000 
 17165 0be0 00000000 		.quad	_ZTIN12_GLOBAL__N_137TestTestMockPredicateBehavesCorrectlyE
 17165      00000000 
 17166 0be8 00000000 		.quad	_ZN12_GLOBAL__N_137TestTestMockPredicateBehavesCorrectlyD1Ev
 17166      00000000 
 17167 0bf0 00000000 		.quad	_ZN12_GLOBAL__N_137TestTestMockPredicateBehavesCorrectlyD0Ev
 17167      00000000 
 17168 0bf8 00000000 		.quad	_ZNK12_GLOBAL__N_137TestTestMockPredicateBehavesCorrectly7RunImplEv
 17168      00000000 
 17169              		.align 8
 17172              	_ZTVN12_GLOBAL__N_157TestTestRunnerFixtureTestRunnerRunsTestsThatPassPredicateE:
 17173 0c00 00000000 		.quad	0
 17173      00000000 
 17174 0c08 00000000 		.quad	_ZTIN12_GLOBAL__N_157TestTestRunnerFixtureTestRunnerRunsTestsThatPassPredicateE
 17174      00000000 
 17175 0c10 00000000 		.quad	_ZN12_GLOBAL__N_157TestTestRunnerFixtureTestRunnerRunsTestsThatPassPredicateD1Ev
 17175      00000000 
 17176 0c18 00000000 		.quad	_ZN12_GLOBAL__N_157TestTestRunnerFixtureTestRunnerRunsTestsThatPassPredicateD0Ev
 17176      00000000 
 17177 0c20 00000000 		.quad	_ZNK12_GLOBAL__N_157TestTestRunnerFixtureTestRunnerRunsTestsThatPassPredicate7RunImplEv
 17177      00000000 
 17178              		.align 8
 17181              	_ZTVN12_GLOBAL__N_180TestTestRunnerFixtureTestRunnerOnlyRunsTestsInSpecifiedSuiteAndThatPassPredica
 17182 0c28 00000000 		.quad	0
 17182      00000000 
 17183 0c30 00000000 		.quad	_ZTIN12_GLOBAL__N_180TestTestRunnerFixtureTestRunnerOnlyRunsTestsInSpecifiedSuiteAndThatPass
 17183      00000000 
 17184 0c38 00000000 		.quad	_ZN12_GLOBAL__N_180TestTestRunnerFixtureTestRunnerOnlyRunsTestsInSpecifiedSuiteAndThatPassPr
 17184      00000000 
 17185 0c40 00000000 		.quad	_ZN12_GLOBAL__N_180TestTestRunnerFixtureTestRunnerOnlyRunsTestsInSpecifiedSuiteAndThatPassPr
 17185      00000000 
 17186 0c48 00000000 		.quad	_ZNK12_GLOBAL__N_180TestTestRunnerFixtureTestRunnerOnlyRunsTestsInSpecifiedSuiteAndThatPassP
 17186      00000000 
 17187              		.local	_ZN12_GLOBAL__N_181adderTestRunnerFixtureTestRunnerOnlyRunsTestsInSpecifiedSuiteAndThatPass
 17188              		.comm	_ZN12_GLOBAL__N_181adderTestRunnerFixtureTestRunnerOnlyRunsTestsInSpecifiedSuiteAndThatPassP
 17189              		.local	_ZN12_GLOBAL__N_188testTestRunnerFixtureTestRunnerOnlyRunsTestsInSpecifiedSuiteAndThatPassP
 17190              		.comm	_ZN12_GLOBAL__N_188testTestRunnerFixtureTestRunnerOnlyRunsTestsInSpecifiedSuiteAndThatPassPr
 17191              		.local	_ZN12_GLOBAL__N_158adderTestRunnerFixtureTestRunnerRunsTestsThatPassPredicateE
 17192              		.comm	_ZN12_GLOBAL__N_158adderTestRunnerFixtureTestRunnerRunsTestsThatPassPredicateE,1,1
 17193              		.local	_ZN12_GLOBAL__N_165testTestRunnerFixtureTestRunnerRunsTestsThatPassPredicateInstanceE
 17194              		.comm	_ZN12_GLOBAL__N_165testTestRunnerFixtureTestRunnerRunsTestsThatPassPredicateInstanceE,56,32
 17195              		.local	_ZN12_GLOBAL__N_138adderTestMockPredicateBehavesCorrectlyE
 17196              		.comm	_ZN12_GLOBAL__N_138adderTestMockPredicateBehavesCorrectlyE,1,1
 17197              		.local	_ZN12_GLOBAL__N_145testTestMockPredicateBehavesCorrectlyInstanceE
 17198              		.comm	_ZN12_GLOBAL__N_145testTestMockPredicateBehavesCorrectlyInstanceE,56,32
 17199              		.local	_ZN12_GLOBAL__N_153adderTestSuiteFixtureTestRunnerRunsOnlySpecifiedSuiteE
 17200              		.comm	_ZN12_GLOBAL__N_153adderTestSuiteFixtureTestRunnerRunsOnlySpecifiedSuiteE,1,1
 17201              		.local	_ZN12_GLOBAL__N_160testTestSuiteFixtureTestRunnerRunsOnlySpecifiedSuiteInstanceE
 17202              		.comm	_ZN12_GLOBAL__N_160testTestSuiteFixtureTestRunnerRunsOnlySpecifiedSuiteInstanceE,56,32
 17203              		.local	_ZN12_GLOBAL__N_163adderTestSuiteFixtureTestRunnerRunsAllSuitesIfNullSuiteIsPassedE
 17204              		.comm	_ZN12_GLOBAL__N_163adderTestSuiteFixtureTestRunnerRunsAllSuitesIfNullSuiteIsPassedE,1,1
 17205              		.local	_ZN12_GLOBAL__N_170testTestSuiteFixtureTestRunnerRunsAllSuitesIfNullSuiteIsPassedInstanceE
 17206              		.comm	_ZN12_GLOBAL__N_170testTestSuiteFixtureTestRunnerRunsAllSuitesIfNullSuiteIsPassedInstanceE,5
 17207              		.local	_ZN12_GLOBAL__N_153adderTestRunnerFixtureSlowTestWithTimeExemptionPassesE
 17208              		.comm	_ZN12_GLOBAL__N_153adderTestRunnerFixtureSlowTestWithTimeExemptionPassesE,1,1
 17209              		.local	_ZN12_GLOBAL__N_160testTestRunnerFixtureSlowTestWithTimeExemptionPassesInstanceE
 17210              		.comm	_ZN12_GLOBAL__N_160testTestRunnerFixtureSlowTestWithTimeExemptionPassesInstanceE,56,32
 17211              		.local	_ZN12_GLOBAL__N_158adderTestRunnerFixtureSlowTestHasCorrectFailureInformationE
 17212              		.comm	_ZN12_GLOBAL__N_158adderTestRunnerFixtureSlowTestHasCorrectFailureInformationE,1,1
 17213              		.local	_ZN12_GLOBAL__N_165testTestRunnerFixtureSlowTestHasCorrectFailureInformationInstanceE
 17214              		.comm	_ZN12_GLOBAL__N_165testTestRunnerFixtureSlowTestHasCorrectFailureInformationInstanceE,56,32
 17215              		.local	_ZN12_GLOBAL__N_154adderTestRunnerFixtureSlowTestFailsForLowTimeThresholdE
 17216              		.comm	_ZN12_GLOBAL__N_154adderTestRunnerFixtureSlowTestFailsForLowTimeThresholdE,1,1
 17217              		.local	_ZN12_GLOBAL__N_161testTestRunnerFixtureSlowTestFailsForLowTimeThresholdInstanceE
 17218              		.comm	_ZN12_GLOBAL__N_161testTestRunnerFixtureSlowTestFailsForLowTimeThresholdInstanceE,56,32
 17219              		.local	_ZN12_GLOBAL__N_156adderTestRunnerFixtureSlowTestPassesForHighTimeThresholdE
 17220              		.comm	_ZN12_GLOBAL__N_156adderTestRunnerFixtureSlowTestPassesForHighTimeThresholdE,1,1
 17221              		.local	_ZN12_GLOBAL__N_163testTestRunnerFixtureSlowTestPassesForHighTimeThresholdInstanceE
 17222              		.comm	_ZN12_GLOBAL__N_163testTestRunnerFixtureSlowTestPassesForHighTimeThresholdInstanceE,56,32
 17223              		.local	_ZN12_GLOBAL__N_148adderTestRunnerFixtureReporterNotifiedOfFailuresE
 17224              		.comm	_ZN12_GLOBAL__N_148adderTestRunnerFixtureReporterNotifiedOfFailuresE,1,1
 17225              		.local	_ZN12_GLOBAL__N_155testTestRunnerFixtureReporterNotifiedOfFailuresInstanceE
 17226              		.comm	_ZN12_GLOBAL__N_155testTestRunnerFixtureReporterNotifiedOfFailuresInstanceE,56,32
 17227              		.local	_ZN12_GLOBAL__N_151adderTestRunnerFixtureReporterNotifiedOfFailedTestsE
 17228              		.comm	_ZN12_GLOBAL__N_151adderTestRunnerFixtureReporterNotifiedOfFailedTestsE,1,1
 17229              		.local	_ZN12_GLOBAL__N_158testTestRunnerFixtureReporterNotifiedOfFailedTestsInstanceE
 17230              		.comm	_ZN12_GLOBAL__N_158testTestRunnerFixtureReporterNotifiedOfFailedTestsInstanceE,56,32
 17231              		.local	_ZN12_GLOBAL__N_149adderTestRunnerFixtureReporterNotifiedOfTestCountE
 17232              		.comm	_ZN12_GLOBAL__N_149adderTestRunnerFixtureReporterNotifiedOfTestCountE,1,1
 17233              		.local	_ZN12_GLOBAL__N_156testTestRunnerFixtureReporterNotifiedOfTestCountInstanceE
 17234              		.comm	_ZN12_GLOBAL__N_156testTestRunnerFixtureReporterNotifiedOfTestCountInstanceE,56,32
 17235              		.local	_ZN12_GLOBAL__N_157adderTestRunnerFixtureTestsThatAssertAreReportedAsFailingE
 17236              		.comm	_ZN12_GLOBAL__N_157adderTestRunnerFixtureTestsThatAssertAreReportedAsFailingE,1,1
 17237              		.local	_ZN12_GLOBAL__N_164testTestRunnerFixtureTestsThatAssertAreReportedAsFailingInstanceE
 17238              		.comm	_ZN12_GLOBAL__N_164testTestRunnerFixtureTestsThatAssertAreReportedAsFailingInstanceE,56,32
 17239              		.local	_ZN12_GLOBAL__N_158adderTestRunnerFixtureCallsReportFailureOncePerFailingTestE
 17240              		.comm	_ZN12_GLOBAL__N_158adderTestRunnerFixtureCallsReportFailureOncePerFailingTestE,1,1
 17241              		.local	_ZN12_GLOBAL__N_165testTestRunnerFixtureCallsReportFailureOncePerFailingTestInstanceE
 17242              		.comm	_ZN12_GLOBAL__N_165testTestRunnerFixtureCallsReportFailureOncePerFailingTestInstanceE,56,32
 17243              		.local	_ZN12_GLOBAL__N_157adderTestRunnerFixtureFailureCountIsZeroWhenNoTestsAreRunE
 17244              		.comm	_ZN12_GLOBAL__N_157adderTestRunnerFixtureFailureCountIsZeroWhenNoTestsAreRunE,1,1
 17245              		.local	_ZN12_GLOBAL__N_164testTestRunnerFixtureFailureCountIsZeroWhenNoTestsAreRunInstanceE
 17246              		.comm	_ZN12_GLOBAL__N_164testTestRunnerFixtureFailureCountIsZeroWhenNoTestsAreRunInstanceE,56,32
 17247              		.local	_ZN12_GLOBAL__N_155adderTestRunnerFixtureTestFinishIsCalledWithCorrectTimeE
 17248              		.comm	_ZN12_GLOBAL__N_155adderTestRunnerFixtureTestFinishIsCalledWithCorrectTimeE,1,1
 17249              		.local	_ZN12_GLOBAL__N_162testTestRunnerFixtureTestFinishIsCalledWithCorrectTimeInstanceE
 17250              		.comm	_ZN12_GLOBAL__N_162testTestRunnerFixtureTestFinishIsCalledWithCorrectTimeInstanceE,56,32
 17251              		.local	_ZN12_GLOBAL__N_151adderTestRunnerFixtureTestFinishIsReportedCorrectlyE
 17252              		.comm	_ZN12_GLOBAL__N_151adderTestRunnerFixtureTestFinishIsReportedCorrectlyE,1,1
 17253              		.local	_ZN12_GLOBAL__N_158testTestRunnerFixtureTestFinishIsReportedCorrectlyInstanceE
 17254              		.comm	_ZN12_GLOBAL__N_158testTestRunnerFixtureTestFinishIsReportedCorrectlyInstanceE,56,32
 17255              		.local	_ZN12_GLOBAL__N_150adderTestRunnerFixtureTestStartIsReportedCorrectlyE
 17256              		.comm	_ZN12_GLOBAL__N_150adderTestRunnerFixtureTestStartIsReportedCorrectlyE,1,1
 17257              		.local	_ZN12_GLOBAL__N_157testTestRunnerFixtureTestStartIsReportedCorrectlyInstanceE
 17258              		.comm	_ZN12_GLOBAL__N_157testTestRunnerFixtureTestStartIsReportedCorrectlyInstanceE,56,32
 17259              		.section	.rodata.cst4,"aM",@progbits,4
 17260              		.align 4
 17261              	.LC65:
 17262 0000 0AD7A33B 		.long	1000593162
 17263              		.align 4
 17264              	.LC66:
 17265 0004 CDCC4C3D 		.long	1028443341
 17266              		.hidden	__dso_handle
 17267              		.ident	"GCC: (Ubuntu 5.4.0-6ubuntu1~16.04.5) 5.4.0 20160609"
 17268              		.section	.note.GNU-stack,"",@progbits
DEFINED SYMBOLS
                            *ABS*:0000000000000000 TestTestRunner.cpp
     /tmp/ccFraWRe.s:11     .text._ZN17RecordingReporter13ReportSummaryEiiif:0000000000000000 _ZN17RecordingReporter13ReportSummaryEiiif
     /tmp/ccFraWRe.s:34     .text:0000000000000000 _ZN12_GLOBAL__N_180TestTestRunnerFixtureTestRunnerOnlyRunsTestsInSpecifiedSuiteAndThatPassPredicateD2Ev
     /tmp/ccFraWRe.s:17181  .rodata:0000000000000c28 _ZTVN12_GLOBAL__N_180TestTestRunnerFixtureTestRunnerOnlyRunsTestsInSpecifiedSuiteAndThatPassPredicateE
     /tmp/ccFraWRe.s:34     .text:0000000000000000 _ZN12_GLOBAL__N_180TestTestRunnerFixtureTestRunnerOnlyRunsTestsInSpecifiedSuiteAndThatPassPredicateD1Ev
     /tmp/ccFraWRe.s:55     .text:0000000000000010 _ZN12_GLOBAL__N_157TestTestRunnerFixtureTestRunnerRunsTestsThatPassPredicateD2Ev
     /tmp/ccFraWRe.s:17172  .rodata:0000000000000c00 _ZTVN12_GLOBAL__N_157TestTestRunnerFixtureTestRunnerRunsTestsThatPassPredicateE
     /tmp/ccFraWRe.s:55     .text:0000000000000010 _ZN12_GLOBAL__N_157TestTestRunnerFixtureTestRunnerRunsTestsThatPassPredicateD1Ev
     /tmp/ccFraWRe.s:76     .text:0000000000000020 _ZN12_GLOBAL__N_137TestTestMockPredicateBehavesCorrectlyD2Ev
     /tmp/ccFraWRe.s:17163  .rodata:0000000000000bd8 _ZTVN12_GLOBAL__N_137TestTestMockPredicateBehavesCorrectlyE
     /tmp/ccFraWRe.s:76     .text:0000000000000020 _ZN12_GLOBAL__N_137TestTestMockPredicateBehavesCorrectlyD1Ev
     /tmp/ccFraWRe.s:97     .text:0000000000000030 _ZN12_GLOBAL__N_152TestTestSuiteFixtureTestRunnerRunsOnlySpecifiedSuiteD2Ev
     /tmp/ccFraWRe.s:17154  .rodata:0000000000000bb0 _ZTVN12_GLOBAL__N_152TestTestSuiteFixtureTestRunnerRunsOnlySpecifiedSuiteE
     /tmp/ccFraWRe.s:97     .text:0000000000000030 _ZN12_GLOBAL__N_152TestTestSuiteFixtureTestRunnerRunsOnlySpecifiedSuiteD1Ev
     /tmp/ccFraWRe.s:118    .text:0000000000000040 _ZN12_GLOBAL__N_162TestTestSuiteFixtureTestRunnerRunsAllSuitesIfNullSuiteIsPassedD2Ev
     /tmp/ccFraWRe.s:17145  .rodata:0000000000000b88 _ZTVN12_GLOBAL__N_162TestTestSuiteFixtureTestRunnerRunsAllSuitesIfNullSuiteIsPassedE
     /tmp/ccFraWRe.s:118    .text:0000000000000040 _ZN12_GLOBAL__N_162TestTestSuiteFixtureTestRunnerRunsAllSuitesIfNullSuiteIsPassedD1Ev
     /tmp/ccFraWRe.s:139    .text:0000000000000050 _ZN12_GLOBAL__N_152TestTestRunnerFixtureSlowTestWithTimeExemptionPassesD2Ev
     /tmp/ccFraWRe.s:17127  .rodata:0000000000000b38 _ZTVN12_GLOBAL__N_152TestTestRunnerFixtureSlowTestWithTimeExemptionPassesE
     /tmp/ccFraWRe.s:139    .text:0000000000000050 _ZN12_GLOBAL__N_152TestTestRunnerFixtureSlowTestWithTimeExemptionPassesD1Ev
     /tmp/ccFraWRe.s:160    .text:0000000000000060 _ZZN12_GLOBAL__N_154TestRunnerFixtureSlowTestWithTimeExemptionPassesHelper7RunImplEvEN16SlowExemptedTestD2Ev
     /tmp/ccFraWRe.s:17136  .rodata:0000000000000b60 _ZTVZN12_GLOBAL__N_154TestRunnerFixtureSlowTestWithTimeExemptionPassesHelper7RunImplEvE16SlowExemptedTest
     /tmp/ccFraWRe.s:160    .text:0000000000000060 _ZZN12_GLOBAL__N_154TestRunnerFixtureSlowTestWithTimeExemptionPassesHelper7RunImplEvEN16SlowExemptedTestD1Ev
     /tmp/ccFraWRe.s:181    .text:0000000000000070 _ZN12_GLOBAL__N_157TestTestRunnerFixtureSlowTestHasCorrectFailureInformationD2Ev
     /tmp/ccFraWRe.s:17118  .rodata:0000000000000b10 _ZTVN12_GLOBAL__N_157TestTestRunnerFixtureSlowTestHasCorrectFailureInformationE
     /tmp/ccFraWRe.s:181    .text:0000000000000070 _ZN12_GLOBAL__N_157TestTestRunnerFixtureSlowTestHasCorrectFailureInformationD1Ev
     /tmp/ccFraWRe.s:202    .text:0000000000000080 _ZN12_GLOBAL__N_18SlowTestD2Ev
     /tmp/ccFraWRe.s:17028  .rodata:0000000000000980 _ZTVN12_GLOBAL__N_18SlowTestE
     /tmp/ccFraWRe.s:202    .text:0000000000000080 _ZN12_GLOBAL__N_18SlowTestD1Ev
     /tmp/ccFraWRe.s:223    .text:0000000000000090 _ZN12_GLOBAL__N_153TestTestRunnerFixtureSlowTestFailsForLowTimeThresholdD2Ev
     /tmp/ccFraWRe.s:17109  .rodata:0000000000000ae8 _ZTVN12_GLOBAL__N_153TestTestRunnerFixtureSlowTestFailsForLowTimeThresholdE
     /tmp/ccFraWRe.s:223    .text:0000000000000090 _ZN12_GLOBAL__N_153TestTestRunnerFixtureSlowTestFailsForLowTimeThresholdD1Ev
     /tmp/ccFraWRe.s:244    .text:00000000000000a0 _ZN12_GLOBAL__N_155TestTestRunnerFixtureSlowTestPassesForHighTimeThresholdD2Ev
     /tmp/ccFraWRe.s:17100  .rodata:0000000000000ac0 _ZTVN12_GLOBAL__N_155TestTestRunnerFixtureSlowTestPassesForHighTimeThresholdE
     /tmp/ccFraWRe.s:244    .text:00000000000000a0 _ZN12_GLOBAL__N_155TestTestRunnerFixtureSlowTestPassesForHighTimeThresholdD1Ev
     /tmp/ccFraWRe.s:265    .text:00000000000000b0 _ZN12_GLOBAL__N_147TestTestRunnerFixtureReporterNotifiedOfFailuresD2Ev
     /tmp/ccFraWRe.s:17091  .rodata:0000000000000a98 _ZTVN12_GLOBAL__N_147TestTestRunnerFixtureReporterNotifiedOfFailuresE
     /tmp/ccFraWRe.s:265    .text:00000000000000b0 _ZN12_GLOBAL__N_147TestTestRunnerFixtureReporterNotifiedOfFailuresD1Ev
     /tmp/ccFraWRe.s:286    .text:00000000000000c0 _ZN12_GLOBAL__N_18MockTestD2Ev
     /tmp/ccFraWRe.s:17001  .rodata:0000000000000908 _ZTVN12_GLOBAL__N_18MockTestE
     /tmp/ccFraWRe.s:286    .text:00000000000000c0 _ZN12_GLOBAL__N_18MockTestD1Ev
     /tmp/ccFraWRe.s:307    .text:00000000000000d0 _ZN12_GLOBAL__N_150TestTestRunnerFixtureReporterNotifiedOfFailedTestsD2Ev
     /tmp/ccFraWRe.s:17082  .rodata:0000000000000a70 _ZTVN12_GLOBAL__N_150TestTestRunnerFixtureReporterNotifiedOfFailedTestsE
     /tmp/ccFraWRe.s:307    .text:00000000000000d0 _ZN12_GLOBAL__N_150TestTestRunnerFixtureReporterNotifiedOfFailedTestsD1Ev
     /tmp/ccFraWRe.s:328    .text:00000000000000e0 _ZN12_GLOBAL__N_148TestTestRunnerFixtureReporterNotifiedOfTestCountD2Ev
     /tmp/ccFraWRe.s:17073  .rodata:0000000000000a48 _ZTVN12_GLOBAL__N_148TestTestRunnerFixtureReporterNotifiedOfTestCountE
     /tmp/ccFraWRe.s:328    .text:00000000000000e0 _ZN12_GLOBAL__N_148TestTestRunnerFixtureReporterNotifiedOfTestCountD1Ev
     /tmp/ccFraWRe.s:349    .text:00000000000000f0 _ZN12_GLOBAL__N_156TestTestRunnerFixtureTestsThatAssertAreReportedAsFailingD2Ev
     /tmp/ccFraWRe.s:17064  .rodata:0000000000000a20 _ZTVN12_GLOBAL__N_156TestTestRunnerFixtureTestsThatAssertAreReportedAsFailingE
     /tmp/ccFraWRe.s:349    .text:00000000000000f0 _ZN12_GLOBAL__N_156TestTestRunnerFixtureTestsThatAssertAreReportedAsFailingD1Ev
     /tmp/ccFraWRe.s:370    .text:0000000000000100 _ZN12_GLOBAL__N_157TestTestRunnerFixtureCallsReportFailureOncePerFailingTestD2Ev
     /tmp/ccFraWRe.s:17055  .rodata:00000000000009f8 _ZTVN12_GLOBAL__N_157TestTestRunnerFixtureCallsReportFailureOncePerFailingTestE
     /tmp/ccFraWRe.s:370    .text:0000000000000100 _ZN12_GLOBAL__N_157TestTestRunnerFixtureCallsReportFailureOncePerFailingTestD1Ev
     /tmp/ccFraWRe.s:391    .text:0000000000000110 _ZN12_GLOBAL__N_156TestTestRunnerFixtureFailureCountIsZeroWhenNoTestsAreRunD2Ev
     /tmp/ccFraWRe.s:17046  .rodata:00000000000009d0 _ZTVN12_GLOBAL__N_156TestTestRunnerFixtureFailureCountIsZeroWhenNoTestsAreRunE
     /tmp/ccFraWRe.s:391    .text:0000000000000110 _ZN12_GLOBAL__N_156TestTestRunnerFixtureFailureCountIsZeroWhenNoTestsAreRunD1Ev
     /tmp/ccFraWRe.s:412    .text:0000000000000120 _ZN12_GLOBAL__N_154TestTestRunnerFixtureTestFinishIsCalledWithCorrectTimeD2Ev
     /tmp/ccFraWRe.s:17037  .rodata:00000000000009a8 _ZTVN12_GLOBAL__N_154TestTestRunnerFixtureTestFinishIsCalledWithCorrectTimeE
     /tmp/ccFraWRe.s:412    .text:0000000000000120 _ZN12_GLOBAL__N_154TestTestRunnerFixtureTestFinishIsCalledWithCorrectTimeD1Ev
     /tmp/ccFraWRe.s:433    .text:0000000000000130 _ZN12_GLOBAL__N_150TestTestRunnerFixtureTestFinishIsReportedCorrectlyD2Ev
     /tmp/ccFraWRe.s:17019  .rodata:0000000000000958 _ZTVN12_GLOBAL__N_150TestTestRunnerFixtureTestFinishIsReportedCorrectlyE
     /tmp/ccFraWRe.s:433    .text:0000000000000130 _ZN12_GLOBAL__N_150TestTestRunnerFixtureTestFinishIsReportedCorrectlyD1Ev
     /tmp/ccFraWRe.s:454    .text:0000000000000140 _ZN12_GLOBAL__N_149TestTestRunnerFixtureTestStartIsReportedCorrectlyD2Ev
     /tmp/ccFraWRe.s:17010  .rodata:0000000000000930 _ZTVN12_GLOBAL__N_149TestTestRunnerFixtureTestStartIsReportedCorrectlyE
     /tmp/ccFraWRe.s:454    .text:0000000000000140 _ZN12_GLOBAL__N_149TestTestRunnerFixtureTestStartIsReportedCorrectlyD1Ev
     /tmp/ccFraWRe.s:475    .text:0000000000000150 _ZN12_GLOBAL__N_180TestTestRunnerFixtureTestRunnerOnlyRunsTestsInSpecifiedSuiteAndThatPassPredicateD0Ev
     /tmp/ccFraWRe.s:503    .text:0000000000000170 _ZN12_GLOBAL__N_157TestTestRunnerFixtureTestRunnerRunsTestsThatPassPredicateD0Ev
     /tmp/ccFraWRe.s:531    .text:0000000000000190 _ZN12_GLOBAL__N_137TestTestMockPredicateBehavesCorrectlyD0Ev
     /tmp/ccFraWRe.s:559    .text:00000000000001b0 _ZN12_GLOBAL__N_152TestTestSuiteFixtureTestRunnerRunsOnlySpecifiedSuiteD0Ev
     /tmp/ccFraWRe.s:587    .text:00000000000001d0 _ZN12_GLOBAL__N_162TestTestSuiteFixtureTestRunnerRunsAllSuitesIfNullSuiteIsPassedD0Ev
     /tmp/ccFraWRe.s:615    .text:00000000000001f0 _ZZN12_GLOBAL__N_154TestRunnerFixtureSlowTestWithTimeExemptionPassesHelper7RunImplEvEN16SlowExemptedTestD0Ev
     /tmp/ccFraWRe.s:643    .text:0000000000000210 _ZN12_GLOBAL__N_152TestTestRunnerFixtureSlowTestWithTimeExemptionPassesD0Ev
     /tmp/ccFraWRe.s:671    .text:0000000000000230 _ZN12_GLOBAL__N_18SlowTestD0Ev
     /tmp/ccFraWRe.s:699    .text:0000000000000250 _ZN12_GLOBAL__N_157TestTestRunnerFixtureSlowTestHasCorrectFailureInformationD0Ev
     /tmp/ccFraWRe.s:727    .text:0000000000000270 _ZN12_GLOBAL__N_153TestTestRunnerFixtureSlowTestFailsForLowTimeThresholdD0Ev
     /tmp/ccFraWRe.s:755    .text:0000000000000290 _ZN12_GLOBAL__N_155TestTestRunnerFixtureSlowTestPassesForHighTimeThresholdD0Ev
     /tmp/ccFraWRe.s:783    .text:00000000000002b0 _ZN12_GLOBAL__N_18MockTestD0Ev
     /tmp/ccFraWRe.s:811    .text:00000000000002d0 _ZN12_GLOBAL__N_147TestTestRunnerFixtureReporterNotifiedOfFailuresD0Ev
     /tmp/ccFraWRe.s:839    .text:00000000000002f0 _ZN12_GLOBAL__N_150TestTestRunnerFixtureReporterNotifiedOfFailedTestsD0Ev
     /tmp/ccFraWRe.s:867    .text:0000000000000310 _ZN12_GLOBAL__N_148TestTestRunnerFixtureReporterNotifiedOfTestCountD0Ev
     /tmp/ccFraWRe.s:895    .text:0000000000000330 _ZN12_GLOBAL__N_156TestTestRunnerFixtureTestsThatAssertAreReportedAsFailingD0Ev
     /tmp/ccFraWRe.s:923    .text:0000000000000350 _ZN12_GLOBAL__N_157TestTestRunnerFixtureCallsReportFailureOncePerFailingTestD0Ev
     /tmp/ccFraWRe.s:951    .text:0000000000000370 _ZN12_GLOBAL__N_156TestTestRunnerFixtureFailureCountIsZeroWhenNoTestsAreRunD0Ev
     /tmp/ccFraWRe.s:979    .text:0000000000000390 _ZN12_GLOBAL__N_154TestTestRunnerFixtureTestFinishIsCalledWithCorrectTimeD0Ev
     /tmp/ccFraWRe.s:1007   .text:00000000000003b0 _ZN12_GLOBAL__N_150TestTestRunnerFixtureTestFinishIsReportedCorrectlyD0Ev
     /tmp/ccFraWRe.s:1035   .text:00000000000003d0 _ZN12_GLOBAL__N_149TestTestRunnerFixtureTestStartIsReportedCorrectlyD0Ev
     /tmp/ccFraWRe.s:1064   .text._ZN17RecordingReporter15ReportTestStartERKN8UnitTest11TestDetailsE:0000000000000000 _ZN17RecordingReporter15ReportTestStartERKN8UnitTest11TestDetailsE
     /tmp/ccFraWRe.s:1108   .text._ZN17RecordingReporter13ReportFailureERKN8UnitTest11TestDetailsEPKc:0000000000000000 _ZN17RecordingReporter13ReportFailureERKN8UnitTest11TestDetailsEPKc
     /tmp/ccFraWRe.s:1164   .text._ZN17RecordingReporter16ReportTestFinishERKN8UnitTest11TestDetailsEf:0000000000000000 _ZN17RecordingReporter16ReportTestFinishERKN8UnitTest11TestDetailsEf
     /tmp/ccFraWRe.s:1212   .text._ZN17RecordingReporterD2Ev:0000000000000000 _ZN17RecordingReporterD2Ev
     /tmp/ccFraWRe.s:16988  .rodata._ZTV17RecordingReporter:0000000000000000 _ZTV17RecordingReporter
     /tmp/ccFraWRe.s:1212   .text._ZN17RecordingReporterD2Ev:0000000000000000 _ZN17RecordingReporterD1Ev
     /tmp/ccFraWRe.s:1235   .text._ZN17RecordingReporterD0Ev:0000000000000000 _ZN17RecordingReporterD0Ev
     /tmp/ccFraWRe.s:1261   .text.unlikely:0000000000000000 _ZN12_GLOBAL__N_111FixtureBaseD2Ev
     /tmp/ccFraWRe.s:1335   .text:00000000000003f0 _ZZN12_GLOBAL__N_154TestRunnerFixtureSlowTestWithTimeExemptionPassesHelper7RunImplEvENK16SlowExemptedTest7RunImplEv
     /tmp/ccFraWRe.s:1356   .text:0000000000000400 _ZNK12_GLOBAL__N_18SlowTest7RunImplEv
     /tmp/ccFraWRe.s:1383   .text:0000000000000410 _ZNK12_GLOBAL__N_18MockTest7RunImplEv
     /tmp/ccFraWRe.s:1468   .text._ZN8UnitTest15MemoryOutStreamD1Ev:0000000000000000 _ZN8UnitTest15MemoryOutStreamD1Ev
     /tmp/ccFraWRe.s:16972  .rodata._ZTVN8UnitTest15MemoryOutStreamE:0000000000000000 _ZTVN8UnitTest15MemoryOutStreamE
     /tmp/ccFraWRe.s:16944  .rodata._ZTCN8UnitTest15MemoryOutStreamE0_NSt7__cxx1119basic_ostringstreamIcSt11char_traitsIcESaIcEEE:0000000000000000 _ZTCN8UnitTest15MemoryOutStreamE0_NSt7__cxx1119basic_ostringstreamIcSt11char_traitsIcESaIcEEE
     /tmp/ccFraWRe.s:1515   .text._ZN8UnitTest15MemoryOutStreamD1Ev:0000000000000080 _ZTv0_n24_N8UnitTest15MemoryOutStreamD1Ev
     /tmp/ccFraWRe.s:1537   .text._ZN8UnitTest15MemoryOutStreamD0Ev:0000000000000000 _ZN8UnitTest15MemoryOutStreamD0Ev
     /tmp/ccFraWRe.s:1586   .text._ZN8UnitTest15MemoryOutStreamD0Ev:0000000000000090 _ZTv0_n24_N8UnitTest15MemoryOutStreamD0Ev
     /tmp/ccFraWRe.s:1608   .text._ZNSt7__cxx1115basic_stringbufIcSt11char_traitsIcESaIcEED2Ev:0000000000000000 _ZNSt7__cxx1115basic_stringbufIcSt11char_traitsIcESaIcEED2Ev
     /tmp/ccFraWRe.s:1608   .text._ZNSt7__cxx1115basic_stringbufIcSt11char_traitsIcESaIcEED2Ev:0000000000000000 _ZNSt7__cxx1115basic_stringbufIcSt11char_traitsIcESaIcEED1Ev
     /tmp/ccFraWRe.s:1645   .text._ZN8UnitTest15MemoryOutStreamC1Ev:0000000000000000 _ZN8UnitTest15MemoryOutStreamC1Ev
     /tmp/ccFraWRe.s:16927  .rodata._ZTCN8UnitTest15MemoryOutStreamE0_So:0000000000000000 _ZTCN8UnitTest15MemoryOutStreamE0_So
     /tmp/ccFraWRe.s:1798   .text:0000000000000490 _ZN8UnitTest11ExecuteTestIN12_GLOBAL__N_156TestRunnerFixtureTestFinishIsCalledWithCorrectTimeHelperEEEvRT_RKNS_11TestDetailsE.constprop.35
     /tmp/ccFraWRe.s:2211   .text:0000000000000840 _ZNK12_GLOBAL__N_154TestTestRunnerFixtureTestFinishIsCalledWithCorrectTime7RunImplEv
     /tmp/ccFraWRe.s:2547   .text._ZNSt7__cxx1115basic_stringbufIcSt11char_traitsIcESaIcEED0Ev:0000000000000000 _ZNSt7__cxx1115basic_stringbufIcSt11char_traitsIcESaIcEED0Ev
     /tmp/ccFraWRe.s:2587   .text._ZN8UnitTest10CheckEqualIiiEEvRNS_11TestResultsERKT_RKT0_RKNS_11TestDetailsE:0000000000000000 _ZN8UnitTest10CheckEqualIiiEEvRNS_11TestResultsERKT_RKT0_RKNS_11TestDetailsE
     /tmp/ccFraWRe.s:2818   .text:0000000000000b70 _ZN8UnitTest11ExecuteTestIN12_GLOBAL__N_154TestRunnerFixtureSlowTestWithTimeExemptionPassesHelperEEEvRT_RKNS_11TestDetailsE.constprop.25
     /tmp/ccFraWRe.s:3216   .text:0000000000000f20 _ZNK12_GLOBAL__N_152TestTestRunnerFixtureSlowTestWithTimeExemptionPasses7RunImplEv
     /tmp/ccFraWRe.s:3582   .text:0000000000001250 _ZN8UnitTest11ExecuteTestIN12_GLOBAL__N_159TestRunnerFixtureSlowTestHasCorrectFailureInformationHelperEEEvRT_RKNS_11TestDetailsE.constprop.26
     /tmp/ccFraWRe.s:4209   .text:00000000000018b0 _ZNK12_GLOBAL__N_157TestTestRunnerFixtureSlowTestHasCorrectFailureInformation7RunImplEv
     /tmp/ccFraWRe.s:4546   .text:0000000000001be0 _ZN8UnitTest11ExecuteTestIN12_GLOBAL__N_155TestRunnerFixtureSlowTestFailsForLowTimeThresholdHelperEEEvRT_RKNS_11TestDetailsE.constprop.27
     /tmp/ccFraWRe.s:4944   .text:0000000000001fa0 _ZNK12_GLOBAL__N_153TestTestRunnerFixtureSlowTestFailsForLowTimeThreshold7RunImplEv
     /tmp/ccFraWRe.s:5277   .text:00000000000022d0 _ZN8UnitTest11ExecuteTestIN12_GLOBAL__N_157TestRunnerFixtureSlowTestPassesForHighTimeThresholdHelperEEEvRT_RKNS_11TestDetailsE.constprop.28
     /tmp/ccFraWRe.s:5675   .text:0000000000002680 _ZNK12_GLOBAL__N_155TestTestRunnerFixtureSlowTestPassesForHighTimeThreshold7RunImplEv
     /tmp/ccFraWRe.s:6017   .text:00000000000029b0 _ZN8UnitTest11ExecuteTestIN12_GLOBAL__N_149TestRunnerFixtureReporterNotifiedOfFailuresHelperEEEvRT_RKNS_11TestDetailsE.constprop.29
     /tmp/ccFraWRe.s:6490   .text:0000000000002ea0 _ZNK12_GLOBAL__N_147TestTestRunnerFixtureReporterNotifiedOfFailures7RunImplEv
     /tmp/ccFraWRe.s:6827   .text:00000000000031d0 _ZN8UnitTest11ExecuteTestIN12_GLOBAL__N_152TestRunnerFixtureReporterNotifiedOfFailedTestsHelperEEEvRT_RKNS_11TestDetailsE.constprop.30
     /tmp/ccFraWRe.s:7300   .text:00000000000036c0 _ZNK12_GLOBAL__N_150TestTestRunnerFixtureReporterNotifiedOfFailedTests7RunImplEv
     /tmp/ccFraWRe.s:7637   .text:00000000000039f0 _ZN8UnitTest11ExecuteTestIN12_GLOBAL__N_150TestRunnerFixtureReporterNotifiedOfTestCountHelperEEEvRT_RKNS_11TestDetailsE.constprop.31
     /tmp/ccFraWRe.s:8110   .text:0000000000003ee0 _ZNK12_GLOBAL__N_148TestTestRunnerFixtureReporterNotifiedOfTestCount7RunImplEv
     /tmp/ccFraWRe.s:8443   .text:0000000000004210 _ZN8UnitTest11ExecuteTestIN12_GLOBAL__N_158TestRunnerFixtureTestsThatAssertAreReportedAsFailingHelperEEEvRT_RKNS_11TestDetailsE.constprop.32
     /tmp/ccFraWRe.s:8844   .text:00000000000045e0 _ZNK12_GLOBAL__N_156TestTestRunnerFixtureTestsThatAssertAreReportedAsFailing7RunImplEv
     /tmp/ccFraWRe.s:9184   .text:0000000000004910 _ZN8UnitTest11ExecuteTestIN12_GLOBAL__N_159TestRunnerFixtureCallsReportFailureOncePerFailingTestHelperEEEvRT_RKNS_11TestDetailsE.constprop.33
     /tmp/ccFraWRe.s:9710   .text:0000000000004ea0 _ZNK12_GLOBAL__N_157TestTestRunnerFixtureCallsReportFailureOncePerFailingTest7RunImplEv
     /tmp/ccFraWRe.s:10050  .text:00000000000051d0 _ZN8UnitTest11ExecuteTestIN12_GLOBAL__N_158TestRunnerFixtureFailureCountIsZeroWhenNoTestsAreRunHelperEEEvRT_RKNS_11TestDetailsE.constprop.34
     /tmp/ccFraWRe.s:10521  .text:0000000000005640 _ZNK12_GLOBAL__N_156TestTestRunnerFixtureFailureCountIsZeroWhenNoTestsAreRun7RunImplEv
     /tmp/ccFraWRe.s:10864  .text:0000000000005970 _ZN8UnitTest11ExecuteTestIN12_GLOBAL__N_152TestRunnerFixtureTestFinishIsReportedCorrectlyHelperEEEvRT_RKNS_11TestDetailsE.constprop.36
     /tmp/ccFraWRe.s:11317  .text:0000000000005dd0 _ZNK12_GLOBAL__N_150TestTestRunnerFixtureTestFinishIsReportedCorrectly7RunImplEv
     /tmp/ccFraWRe.s:11657  .text:0000000000006100 _ZN8UnitTest11ExecuteTestIN12_GLOBAL__N_151TestRunnerFixtureTestStartIsReportedCorrectlyHelperEEEvRT_RKNS_11TestDetailsE.constprop.37
     /tmp/ccFraWRe.s:12110  .text:0000000000006560 _ZNK12_GLOBAL__N_149TestTestRunnerFixtureTestStartIsReportedCorrectly7RunImplEv
     /tmp/ccFraWRe.s:12455  .text:0000000000006890 _ZN8UnitTest11ExecuteTestIN12_GLOBAL__N_154TestSuiteFixtureTestRunnerRunsOnlySpecifiedSuiteHelperEEEvRT_RKNS_11TestDetailsE.constprop.20
     /tmp/ccFraWRe.s:12874  .text:0000000000006c70 _ZN8UnitTest11ExecuteTestIN12_GLOBAL__N_164TestSuiteFixtureTestRunnerRunsAllSuitesIfNullSuiteIsPassedHelperEEEvRT_RKNS_11TestDetailsE.constprop.22
     /tmp/ccFraWRe.s:13292  .text.startup:0000000000000000 _GLOBAL__sub_I_TestTestRunner.cpp
     /tmp/ccFraWRe.s:17258  .bss:0000000000000460 _ZN12_GLOBAL__N_157testTestRunnerFixtureTestStartIsReportedCorrectlyInstanceE
     /tmp/ccFraWRe.s:17254  .bss:0000000000000458 _ZN12_GLOBAL__N_150adderTestRunnerFixtureTestStartIsReportedCorrectlyE
     /tmp/ccFraWRe.s:17254  .bss:0000000000000420 _ZN12_GLOBAL__N_158testTestRunnerFixtureTestFinishIsReportedCorrectlyInstanceE
     /tmp/ccFraWRe.s:17250  .bss:0000000000000418 _ZN12_GLOBAL__N_151adderTestRunnerFixtureTestFinishIsReportedCorrectlyE
     /tmp/ccFraWRe.s:17250  .bss:00000000000003e0 _ZN12_GLOBAL__N_162testTestRunnerFixtureTestFinishIsCalledWithCorrectTimeInstanceE
     /tmp/ccFraWRe.s:17246  .bss:00000000000003d8 _ZN12_GLOBAL__N_155adderTestRunnerFixtureTestFinishIsCalledWithCorrectTimeE
     /tmp/ccFraWRe.s:17246  .bss:00000000000003a0 _ZN12_GLOBAL__N_164testTestRunnerFixtureFailureCountIsZeroWhenNoTestsAreRunInstanceE
     /tmp/ccFraWRe.s:17242  .bss:0000000000000398 _ZN12_GLOBAL__N_157adderTestRunnerFixtureFailureCountIsZeroWhenNoTestsAreRunE
     /tmp/ccFraWRe.s:17242  .bss:0000000000000360 _ZN12_GLOBAL__N_165testTestRunnerFixtureCallsReportFailureOncePerFailingTestInstanceE
     /tmp/ccFraWRe.s:17238  .bss:0000000000000358 _ZN12_GLOBAL__N_158adderTestRunnerFixtureCallsReportFailureOncePerFailingTestE
     /tmp/ccFraWRe.s:17238  .bss:0000000000000320 _ZN12_GLOBAL__N_164testTestRunnerFixtureTestsThatAssertAreReportedAsFailingInstanceE
     /tmp/ccFraWRe.s:17234  .bss:0000000000000318 _ZN12_GLOBAL__N_157adderTestRunnerFixtureTestsThatAssertAreReportedAsFailingE
     /tmp/ccFraWRe.s:17234  .bss:00000000000002e0 _ZN12_GLOBAL__N_156testTestRunnerFixtureReporterNotifiedOfTestCountInstanceE
     /tmp/ccFraWRe.s:17230  .bss:00000000000002d8 _ZN12_GLOBAL__N_149adderTestRunnerFixtureReporterNotifiedOfTestCountE
     /tmp/ccFraWRe.s:17230  .bss:00000000000002a0 _ZN12_GLOBAL__N_158testTestRunnerFixtureReporterNotifiedOfFailedTestsInstanceE
     /tmp/ccFraWRe.s:17226  .bss:0000000000000298 _ZN12_GLOBAL__N_151adderTestRunnerFixtureReporterNotifiedOfFailedTestsE
     /tmp/ccFraWRe.s:17226  .bss:0000000000000260 _ZN12_GLOBAL__N_155testTestRunnerFixtureReporterNotifiedOfFailuresInstanceE
     /tmp/ccFraWRe.s:17222  .bss:0000000000000258 _ZN12_GLOBAL__N_148adderTestRunnerFixtureReporterNotifiedOfFailuresE
     /tmp/ccFraWRe.s:17222  .bss:0000000000000220 _ZN12_GLOBAL__N_163testTestRunnerFixtureSlowTestPassesForHighTimeThresholdInstanceE
     /tmp/ccFraWRe.s:17218  .bss:0000000000000218 _ZN12_GLOBAL__N_156adderTestRunnerFixtureSlowTestPassesForHighTimeThresholdE
     /tmp/ccFraWRe.s:17218  .bss:00000000000001e0 _ZN12_GLOBAL__N_161testTestRunnerFixtureSlowTestFailsForLowTimeThresholdInstanceE
     /tmp/ccFraWRe.s:17214  .bss:00000000000001d8 _ZN12_GLOBAL__N_154adderTestRunnerFixtureSlowTestFailsForLowTimeThresholdE
     /tmp/ccFraWRe.s:17214  .bss:00000000000001a0 _ZN12_GLOBAL__N_165testTestRunnerFixtureSlowTestHasCorrectFailureInformationInstanceE
     /tmp/ccFraWRe.s:17210  .bss:0000000000000198 _ZN12_GLOBAL__N_158adderTestRunnerFixtureSlowTestHasCorrectFailureInformationE
     /tmp/ccFraWRe.s:17210  .bss:0000000000000160 _ZN12_GLOBAL__N_160testTestRunnerFixtureSlowTestWithTimeExemptionPassesInstanceE
     /tmp/ccFraWRe.s:17206  .bss:0000000000000158 _ZN12_GLOBAL__N_153adderTestRunnerFixtureSlowTestWithTimeExemptionPassesE
     /tmp/ccFraWRe.s:17206  .bss:0000000000000120 _ZN12_GLOBAL__N_170testTestSuiteFixtureTestRunnerRunsAllSuitesIfNullSuiteIsPassedInstanceE
     /tmp/ccFraWRe.s:17202  .bss:0000000000000118 _ZN12_GLOBAL__N_163adderTestSuiteFixtureTestRunnerRunsAllSuitesIfNullSuiteIsPassedE
     /tmp/ccFraWRe.s:17202  .bss:00000000000000e0 _ZN12_GLOBAL__N_160testTestSuiteFixtureTestRunnerRunsOnlySpecifiedSuiteInstanceE
     /tmp/ccFraWRe.s:17198  .bss:00000000000000d8 _ZN12_GLOBAL__N_153adderTestSuiteFixtureTestRunnerRunsOnlySpecifiedSuiteE
     /tmp/ccFraWRe.s:17198  .bss:00000000000000a0 _ZN12_GLOBAL__N_145testTestMockPredicateBehavesCorrectlyInstanceE
     /tmp/ccFraWRe.s:17194  .bss:0000000000000098 _ZN12_GLOBAL__N_138adderTestMockPredicateBehavesCorrectlyE
     /tmp/ccFraWRe.s:17194  .bss:0000000000000060 _ZN12_GLOBAL__N_165testTestRunnerFixtureTestRunnerRunsTestsThatPassPredicateInstanceE
     /tmp/ccFraWRe.s:17190  .bss:0000000000000058 _ZN12_GLOBAL__N_158adderTestRunnerFixtureTestRunnerRunsTestsThatPassPredicateE
     /tmp/ccFraWRe.s:17190  .bss:0000000000000020 _ZN12_GLOBAL__N_188testTestRunnerFixtureTestRunnerOnlyRunsTestsInSpecifiedSuiteAndThatPassPredicateInstanceE
                             .bss:0000000000000000 _ZN12_GLOBAL__N_181adderTestRunnerFixtureTestRunnerOnlyRunsTestsInSpecifiedSuiteAndThatPassPredicateE
     /tmp/ccFraWRe.s:13612  .text:0000000000006fb0 _ZN8UnitTest11ExecuteTestIN12_GLOBAL__N_182TestRunnerFixtureTestRunnerOnlyRunsTestsInSpecifiedSuiteAndThatPassPredicateHelperEEEvRT_RKNS_11TestDetailsE.constprop.16
     /tmp/ccFraWRe.s:14206  .text:0000000000007570 _ZNK12_GLOBAL__N_180TestTestRunnerFixtureTestRunnerOnlyRunsTestsInSpecifiedSuiteAndThatPassPredicate7RunImplEv
     /tmp/ccFraWRe.s:14539  .text:00000000000078a0 _ZN8UnitTest11ExecuteTestIN12_GLOBAL__N_159TestRunnerFixtureTestRunnerRunsTestsThatPassPredicateHelperEEEvRT_RKNS_11TestDetailsE.constprop.17
     /tmp/ccFraWRe.s:15021  .text:0000000000007d20 _ZNK12_GLOBAL__N_157TestTestRunnerFixtureTestRunnerRunsTestsThatPassPredicate7RunImplEv
     /tmp/ccFraWRe.s:15372  .text:0000000000008050 _ZNK12_GLOBAL__N_137TestTestMockPredicateBehavesCorrectly7RunImplEv
     /tmp/ccFraWRe.s:15603  .text.unlikely:0000000000000034 _ZN12_GLOBAL__N_116TestSuiteFixtureD2Ev.constprop.24
     /tmp/ccFraWRe.s:15750  .text:0000000000008220 _ZNK12_GLOBAL__N_152TestTestSuiteFixtureTestRunnerRunsOnlySpecifiedSuite7RunImplEv
     /tmp/ccFraWRe.s:16197  .text:0000000000008690 _ZNK12_GLOBAL__N_162TestTestSuiteFixtureTestRunnerRunsAllSuitesIfNullSuiteIsPassed7RunImplEv
     /tmp/ccFraWRe.s:16641  .rodata._ZTSN8UnitTest15MemoryOutStreamE:0000000000000000 _ZTSN8UnitTest15MemoryOutStreamE
     /tmp/ccFraWRe.s:16648  .rodata._ZTIN8UnitTest15MemoryOutStreamE:0000000000000000 _ZTIN8UnitTest15MemoryOutStreamE
     /tmp/ccFraWRe.s:16657  .rodata._ZTS17RecordingReporter:0000000000000000 _ZTS17RecordingReporter
     /tmp/ccFraWRe.s:16664  .rodata._ZTI17RecordingReporter:0000000000000000 _ZTI17RecordingReporter
     /tmp/ccFraWRe.s:16672  .rodata:0000000000000000 _ZTIN12_GLOBAL__N_18MockTestE
     /tmp/ccFraWRe.s:16679  .rodata:0000000000000020 _ZTSN12_GLOBAL__N_18MockTestE
     /tmp/ccFraWRe.s:16684  .rodata:0000000000000040 _ZTIN12_GLOBAL__N_149TestTestRunnerFixtureTestStartIsReportedCorrectlyE
     /tmp/ccFraWRe.s:16691  .rodata:0000000000000060 _ZTSN12_GLOBAL__N_149TestTestRunnerFixtureTestStartIsReportedCorrectlyE
     /tmp/ccFraWRe.s:16696  .rodata:00000000000000a8 _ZTIN12_GLOBAL__N_150TestTestRunnerFixtureTestFinishIsReportedCorrectlyE
     /tmp/ccFraWRe.s:16703  .rodata:00000000000000c0 _ZTSN12_GLOBAL__N_150TestTestRunnerFixtureTestFinishIsReportedCorrectlyE
     /tmp/ccFraWRe.s:16708  .rodata:0000000000000108 _ZTIN12_GLOBAL__N_18SlowTestE
     /tmp/ccFraWRe.s:16715  .rodata:0000000000000120 _ZTSN12_GLOBAL__N_18SlowTestE
     /tmp/ccFraWRe.s:16720  .rodata:0000000000000140 _ZTIN12_GLOBAL__N_154TestTestRunnerFixtureTestFinishIsCalledWithCorrectTimeE
     /tmp/ccFraWRe.s:16727  .rodata:0000000000000160 _ZTSN12_GLOBAL__N_154TestTestRunnerFixtureTestFinishIsCalledWithCorrectTimeE
     /tmp/ccFraWRe.s:16732  .rodata:00000000000001b0 _ZTIN12_GLOBAL__N_156TestTestRunnerFixtureFailureCountIsZeroWhenNoTestsAreRunE
     /tmp/ccFraWRe.s:16739  .rodata:00000000000001e0 _ZTSN12_GLOBAL__N_156TestTestRunnerFixtureFailureCountIsZeroWhenNoTestsAreRunE
     /tmp/ccFraWRe.s:16744  .rodata:0000000000000230 _ZTIN12_GLOBAL__N_157TestTestRunnerFixtureCallsReportFailureOncePerFailingTestE
     /tmp/ccFraWRe.s:16751  .rodata:0000000000000260 _ZTSN12_GLOBAL__N_157TestTestRunnerFixtureCallsReportFailureOncePerFailingTestE
     /tmp/ccFraWRe.s:16756  .rodata:00000000000002b0 _ZTIN12_GLOBAL__N_156TestTestRunnerFixtureTestsThatAssertAreReportedAsFailingE
     /tmp/ccFraWRe.s:16763  .rodata:00000000000002e0 _ZTSN12_GLOBAL__N_156TestTestRunnerFixtureTestsThatAssertAreReportedAsFailingE
     /tmp/ccFraWRe.s:16768  .rodata:0000000000000330 _ZTIN12_GLOBAL__N_148TestTestRunnerFixtureReporterNotifiedOfTestCountE
     /tmp/ccFraWRe.s:16775  .rodata:0000000000000360 _ZTSN12_GLOBAL__N_148TestTestRunnerFixtureReporterNotifiedOfTestCountE
     /tmp/ccFraWRe.s:16780  .rodata:00000000000003a8 _ZTIN12_GLOBAL__N_150TestTestRunnerFixtureReporterNotifiedOfFailedTestsE
     /tmp/ccFraWRe.s:16787  .rodata:00000000000003c0 _ZTSN12_GLOBAL__N_150TestTestRunnerFixtureReporterNotifiedOfFailedTestsE
     /tmp/ccFraWRe.s:16792  .rodata:0000000000000408 _ZTIN12_GLOBAL__N_147TestTestRunnerFixtureReporterNotifiedOfFailuresE
     /tmp/ccFraWRe.s:16799  .rodata:0000000000000420 _ZTSN12_GLOBAL__N_147TestTestRunnerFixtureReporterNotifiedOfFailuresE
     /tmp/ccFraWRe.s:16804  .rodata:0000000000000468 _ZTIN12_GLOBAL__N_155TestTestRunnerFixtureSlowTestPassesForHighTimeThresholdE
     /tmp/ccFraWRe.s:16811  .rodata:0000000000000480 _ZTSN12_GLOBAL__N_155TestTestRunnerFixtureSlowTestPassesForHighTimeThresholdE
     /tmp/ccFraWRe.s:16816  .rodata:00000000000004d0 _ZTIN12_GLOBAL__N_153TestTestRunnerFixtureSlowTestFailsForLowTimeThresholdE
     /tmp/ccFraWRe.s:16823  .rodata:0000000000000500 _ZTSN12_GLOBAL__N_153TestTestRunnerFixtureSlowTestFailsForLowTimeThresholdE
     /tmp/ccFraWRe.s:16828  .rodata:0000000000000550 _ZTIN12_GLOBAL__N_157TestTestRunnerFixtureSlowTestHasCorrectFailureInformationE
     /tmp/ccFraWRe.s:16835  .rodata:0000000000000580 _ZTSN12_GLOBAL__N_157TestTestRunnerFixtureSlowTestHasCorrectFailureInformationE
     /tmp/ccFraWRe.s:16840  .rodata:00000000000005d0 _ZTIN12_GLOBAL__N_152TestTestRunnerFixtureSlowTestWithTimeExemptionPassesE
     /tmp/ccFraWRe.s:16847  .rodata:0000000000000600 _ZTSN12_GLOBAL__N_152TestTestRunnerFixtureSlowTestWithTimeExemptionPassesE
     /tmp/ccFraWRe.s:16852  .rodata:0000000000000648 _ZTIZN12_GLOBAL__N_154TestRunnerFixtureSlowTestWithTimeExemptionPassesHelper7RunImplEvE16SlowExemptedTest
     /tmp/ccFraWRe.s:16859  .rodata:0000000000000660 _ZTSZN12_GLOBAL__N_154TestRunnerFixtureSlowTestWithTimeExemptionPassesHelper7RunImplEvE16SlowExemptedTest
     /tmp/ccFraWRe.s:16864  .rodata:00000000000006c8 _ZTIN12_GLOBAL__N_162TestTestSuiteFixtureTestRunnerRunsAllSuitesIfNullSuiteIsPassedE
     /tmp/ccFraWRe.s:16871  .rodata:00000000000006e0 _ZTSN12_GLOBAL__N_162TestTestSuiteFixtureTestRunnerRunsAllSuitesIfNullSuiteIsPassedE
     /tmp/ccFraWRe.s:16876  .rodata:0000000000000738 _ZTIN12_GLOBAL__N_152TestTestSuiteFixtureTestRunnerRunsOnlySpecifiedSuiteE
     /tmp/ccFraWRe.s:16883  .rodata:0000000000000760 _ZTSN12_GLOBAL__N_152TestTestSuiteFixtureTestRunnerRunsOnlySpecifiedSuiteE
     /tmp/ccFraWRe.s:16888  .rodata:00000000000007a8 _ZTIN12_GLOBAL__N_137TestTestMockPredicateBehavesCorrectlyE
     /tmp/ccFraWRe.s:16895  .rodata:00000000000007c0 _ZTSN12_GLOBAL__N_137TestTestMockPredicateBehavesCorrectlyE
     /tmp/ccFraWRe.s:16900  .rodata:0000000000000800 _ZTIN12_GLOBAL__N_157TestTestRunnerFixtureTestRunnerRunsTestsThatPassPredicateE
     /tmp/ccFraWRe.s:16907  .rodata:0000000000000820 _ZTSN12_GLOBAL__N_157TestTestRunnerFixtureTestRunnerRunsTestsThatPassPredicateE
     /tmp/ccFraWRe.s:16912  .rodata:0000000000000870 _ZTIN12_GLOBAL__N_180TestTestRunnerFixtureTestRunnerOnlyRunsTestsInSpecifiedSuiteAndThatPassPredicateE
     /tmp/ccFraWRe.s:16919  .rodata:00000000000008a0 _ZTSN12_GLOBAL__N_180TestTestRunnerFixtureTestRunnerOnlyRunsTestsInSpecifiedSuiteAndThatPassPredicateE
     /tmp/ccFraWRe.s:16960  .rodata._ZTTN8UnitTest15MemoryOutStreamE:0000000000000000 _ZTTN8UnitTest15MemoryOutStreamE
     /tmp/ccFraWRe.s:17261  .rodata.cst4:0000000000000000 .LC65
     /tmp/ccFraWRe.s:17264  .rodata.cst4:0000000000000004 .LC66
                           .group:0000000000000000 _ZN17RecordingReporterD5Ev
                           .group:0000000000000000 _ZNSt7__cxx1115basic_stringbufIcSt11char_traitsIcESaIcEED5Ev

UNDEFINED SYMBOLS
_ZN8UnitTest4TestD2Ev
_ZdlPv
__strcpy_chk
_ZN8UnitTest12TestReporterD2Ev
__gxx_personality_v0
_ZN8UnitTest10TestRunnerD1Ev
_Unwind_Resume
_ZN8UnitTest11TimeHelpers7SleepMsEi
_ZN8UnitTest11CurrentTest7ResultsEv
_ZN8UnitTest12ReportAssertEPKcS1_i
_ZN8UnitTest11TestResults13OnTestFailureERKNS_11TestDetailsEPKc
_ZTVNSt7__cxx1115basic_stringbufIcSt11char_traitsIcESaIcEEE
_ZTVSt15basic_streambufIcSt11char_traitsIcEE
_ZNSt6localeD1Ev
_ZTVSt9basic_iosIcSt11char_traitsIcEE
_ZNSt8ios_baseD2Ev
_ZNSt8ios_baseC2Ev
_ZNSt9basic_iosIcSt11char_traitsIcEE4initEPSt15basic_streambufIcS1_E
_ZNSt6localeC1Ev
_ZN8UnitTest11CurrentTest7DetailsEv
_ZN8UnitTest16SignalTranslatorC1Ev
_ZN8UnitTest16SignalTranslator12s_jumpTargetE
__sigsetjmp
__cxa_allocate_exception
_ZTIPKc
__cxa_throw
_ZN8UnitTest4TestC2EPKcS2_S2_i
_ZN8UnitTest8TestList3AddEPNS_4TestE
_ZNK8UnitTest8TestList7GetHeadEv
_ZNK8UnitTest10TestRunner13IsTestInSuiteEPKNS_4TestEPKc
_ZNK8UnitTest10TestRunner7RunTestEPNS_11TestResultsEPNS_4TestEi
_ZNK8UnitTest10TestRunner6FinishEv
_ZN8UnitTest11TestDetailsC1ERKS0_i
_ZN8UnitTest16SignalTranslatorD1Ev
__cxa_begin_catch
_ZSt16__ostream_insertIcSt11char_traitsIcEERSt13basic_ostreamIT_T0_ES6_PKS3_l
_ZStlsISt11char_traitsIcEERSt13basic_ostreamIcT_ES5_PKc
_ZNK8UnitTest15MemoryOutStream7GetTextEv
__cxa_end_catch
__stack_chk_fail
_ZNK8UnitTest15AssertException10LineNumberEv
_ZNK8UnitTest15AssertException8FilenameEv
_ZN8UnitTest11TestDetailsC1EPKcS2_S2_i
_ZTISt9exception
_ZTIN8UnitTest15AssertExceptionE
_ZN8UnitTest10TestRunnerC1ERNS_12TestReporterE
_ZN8UnitTest8TestListC1Ev
_ZNSolsEi
_ZN8UnitTest10CheckEqualERNS_11TestResultsEPKcPcRKNS_11TestDetailsE
strstr
__dso_handle
__cxa_atexit
_ZN8UnitTest4Test11GetTestListEv
_ZN8UnitTest9ListAdderC1ERNS_8TestListEPNS_4TestE
_ZN8UnitTest4TestC1EPKcS2_S2_i
_ZN8UnitTest4TestD1Ev
_ZTVN10__cxxabiv120__si_class_type_infoE
_ZTINSt7__cxx1119basic_ostringstreamIcSt11char_traitsIcESaIcEEE
_ZTIN8UnitTest12TestReporterE
_ZTIN8UnitTest4TestE
_ZTISo
