   1              		.file	"TestTestRunner.cpp"
   2              		.section	.text.unlikely._ZN17RecordingReporter13ReportSummaryEiiif,"axG",@progbits,_ZN17RecordingR
   3              		.align 2
   4              	.LCOLDB0:
   5              		.section	.text._ZN17RecordingReporter13ReportSummaryEiiif,"axG",@progbits,_ZN17RecordingReporter13
   6              	.LHOTB0:
   7              		.align 2
   8              		.p2align 4,,15
   9              		.weak	_ZN17RecordingReporter13ReportSummaryEiiif
  11              	_ZN17RecordingReporter13ReportSummaryEiiif:
  12              	.LFB1135:
  13              		.cfi_startproc
  14 0000 89B71C08 		movl	%esi, 2076(%rdi)
  14      0000
  15 0006 89972008 		movl	%edx, 2080(%rdi)
  15      0000
  16 000c F30F1187 		movss	%xmm0, 2088(%rdi)
  16      28080000 
  17 0014 898F2408 		movl	%ecx, 2084(%rdi)
  17      0000
  18 001a C3       		ret
  19              		.cfi_endproc
  20              	.LFE1135:
  22              		.section	.text.unlikely._ZN17RecordingReporter13ReportSummaryEiiif,"axG",@progbits,_ZN17RecordingR
  23              	.LCOLDE0:
  24              		.section	.text._ZN17RecordingReporter13ReportSummaryEiiif,"axG",@progbits,_ZN17RecordingReporter13
  25              	.LHOTE0:
  26              		.section	.text.unlikely,"ax",@progbits
  27              		.align 2
  28              	.LCOLDB1:
  29              		.text
  30              	.LHOTB1:
  31              		.align 2
  32              		.p2align 4,,15
  34              	_ZN12_GLOBAL__N_180TestTestRunnerFixtureTestRunnerOnlyRunsTestsInSpecifiedSuiteAndThatPassPredicate
  35              	.LFB1467:
  36              		.cfi_startproc
  37 0000 48C70700 		movq	$_ZTVN12_GLOBAL__N_180TestTestRunnerFixtureTestRunnerOnlyRunsTestsInSpecifiedSuiteAndThatPass
  37      000000
  38 0007 E9000000 		jmp	_ZN8UnitTest4TestD2Ev
  38      00
  39              		.cfi_endproc
  40              	.LFE1467:
  42              		.section	.text.unlikely
  43              	.LCOLDE1:
  44              		.text
  45              	.LHOTE1:
  46              		.set	_ZN12_GLOBAL__N_180TestTestRunnerFixtureTestRunnerOnlyRunsTestsInSpecifiedSuiteAndThatPassPre
  47              		.section	.text.unlikely
  48              		.align 2
  49              	.LCOLDB2:
  50              		.text
  51              	.LHOTB2:
  52              		.align 2
  53 000c 0F1F4000 		.p2align 4,,15
  55              	_ZN12_GLOBAL__N_157TestTestRunnerFixtureTestRunnerRunsTestsThatPassPredicateD2Ev:
  56              	.LFB1471:
  57              		.cfi_startproc
  58 0010 48C70700 		movq	$_ZTVN12_GLOBAL__N_157TestTestRunnerFixtureTestRunnerRunsTestsThatPassPredicateE+16, (%rdi)
  58      000000
  59 0017 E9000000 		jmp	_ZN8UnitTest4TestD2Ev
  59      00
  60              		.cfi_endproc
  61              	.LFE1471:
  63              		.section	.text.unlikely
  64              	.LCOLDE2:
  65              		.text
  66              	.LHOTE2:
  67              		.set	_ZN12_GLOBAL__N_157TestTestRunnerFixtureTestRunnerRunsTestsThatPassPredicateD1Ev,_ZN12_GLOBAL
  68              		.section	.text.unlikely
  69              		.align 2
  70              	.LCOLDB3:
  71              		.text
  72              	.LHOTB3:
  73              		.align 2
  74 001c 0F1F4000 		.p2align 4,,15
  76              	_ZN12_GLOBAL__N_137TestTestMockPredicateBehavesCorrectlyD2Ev:
  77              	.LFB1475:
  78              		.cfi_startproc
  79 0020 48C70700 		movq	$_ZTVN12_GLOBAL__N_137TestTestMockPredicateBehavesCorrectlyE+16, (%rdi)
  79      000000
  80 0027 E9000000 		jmp	_ZN8UnitTest4TestD2Ev
  80      00
  81              		.cfi_endproc
  82              	.LFE1475:
  84              		.section	.text.unlikely
  85              	.LCOLDE3:
  86              		.text
  87              	.LHOTE3:
  88              		.set	_ZN12_GLOBAL__N_137TestTestMockPredicateBehavesCorrectlyD1Ev,_ZN12_GLOBAL__N_137TestTestMockP
  89              		.section	.text.unlikely
  90              		.align 2
  91              	.LCOLDB4:
  92              		.text
  93              	.LHOTB4:
  94              		.align 2
  95 002c 0F1F4000 		.p2align 4,,15
  97              	_ZN12_GLOBAL__N_152TestTestSuiteFixtureTestRunnerRunsOnlySpecifiedSuiteD2Ev:
  98              	.LFB1479:
  99              		.cfi_startproc
 100 0030 48C70700 		movq	$_ZTVN12_GLOBAL__N_152TestTestSuiteFixtureTestRunnerRunsOnlySpecifiedSuiteE+16, (%rdi)
 100      000000
 101 0037 E9000000 		jmp	_ZN8UnitTest4TestD2Ev
 101      00
 102              		.cfi_endproc
 103              	.LFE1479:
 105              		.section	.text.unlikely
 106              	.LCOLDE4:
 107              		.text
 108              	.LHOTE4:
 109              		.set	_ZN12_GLOBAL__N_152TestTestSuiteFixtureTestRunnerRunsOnlySpecifiedSuiteD1Ev,_ZN12_GLOBAL__N_1
 110              		.section	.text.unlikely
 111              		.align 2
 112              	.LCOLDB5:
 113              		.text
 114              	.LHOTB5:
 115              		.align 2
 116 003c 0F1F4000 		.p2align 4,,15
 118              	_ZN12_GLOBAL__N_162TestTestSuiteFixtureTestRunnerRunsAllSuitesIfNullSuiteIsPassedD2Ev:
 119              	.LFB1483:
 120              		.cfi_startproc
 121 0040 48C70700 		movq	$_ZTVN12_GLOBAL__N_162TestTestSuiteFixtureTestRunnerRunsAllSuitesIfNullSuiteIsPassedE+16, (%r
 121      000000
 122 0047 E9000000 		jmp	_ZN8UnitTest4TestD2Ev
 122      00
 123              		.cfi_endproc
 124              	.LFE1483:
 126              		.section	.text.unlikely
 127              	.LCOLDE5:
 128              		.text
 129              	.LHOTE5:
 130              		.set	_ZN12_GLOBAL__N_162TestTestSuiteFixtureTestRunnerRunsAllSuitesIfNullSuiteIsPassedD1Ev,_ZN12_G
 131              		.section	.text.unlikely
 132              		.align 2
 133              	.LCOLDB6:
 134              		.text
 135              	.LHOTB6:
 136              		.align 2
 137 004c 0F1F4000 		.p2align 4,,15
 139              	_ZN12_GLOBAL__N_152TestTestRunnerFixtureSlowTestWithTimeExemptionPassesD2Ev:
 140              	.LFB1491:
 141              		.cfi_startproc
 142 0050 48C70700 		movq	$_ZTVN12_GLOBAL__N_152TestTestRunnerFixtureSlowTestWithTimeExemptionPassesE+16, (%rdi)
 142      000000
 143 0057 E9000000 		jmp	_ZN8UnitTest4TestD2Ev
 143      00
 144              		.cfi_endproc
 145              	.LFE1491:
 147              		.section	.text.unlikely
 148              	.LCOLDE6:
 149              		.text
 150              	.LHOTE6:
 151              		.set	_ZN12_GLOBAL__N_152TestTestRunnerFixtureSlowTestWithTimeExemptionPassesD1Ev,_ZN12_GLOBAL__N_1
 152              		.section	.text.unlikely
 153              		.align 2
 154              	.LCOLDB7:
 155              		.text
 156              	.LHOTB7:
 157              		.align 2
 158 005c 0F1F4000 		.p2align 4,,15
 160              	_ZZN12_GLOBAL__N_154TestRunnerFixtureSlowTestWithTimeExemptionPassesHelper7RunImplEvEN16SlowExempte
 161              	.LFB1487:
 162              		.cfi_startproc
 163 0060 48C70700 		movq	$_ZTVZN12_GLOBAL__N_154TestRunnerFixtureSlowTestWithTimeExemptionPassesHelper7RunImplEvE16Slo
 163      000000
 164 0067 E9000000 		jmp	_ZN8UnitTest4TestD2Ev
 164      00
 165              		.cfi_endproc
 166              	.LFE1487:
 168              		.section	.text.unlikely
 169              	.LCOLDE7:
 170              		.text
 171              	.LHOTE7:
 172              		.set	_ZZN12_GLOBAL__N_154TestRunnerFixtureSlowTestWithTimeExemptionPassesHelper7RunImplEvEN16SlowE
 173              		.section	.text.unlikely
 174              		.align 2
 175              	.LCOLDB8:
 176              		.text
 177              	.LHOTB8:
 178              		.align 2
 179 006c 0F1F4000 		.p2align 4,,15
 181              	_ZN12_GLOBAL__N_157TestTestRunnerFixtureSlowTestHasCorrectFailureInformationD2Ev:
 182              	.LFB1495:
 183              		.cfi_startproc
 184 0070 48C70700 		movq	$_ZTVN12_GLOBAL__N_157TestTestRunnerFixtureSlowTestHasCorrectFailureInformationE+16, (%rdi)
 184      000000
 185 0077 E9000000 		jmp	_ZN8UnitTest4TestD2Ev
 185      00
 186              		.cfi_endproc
 187              	.LFE1495:
 189              		.section	.text.unlikely
 190              	.LCOLDE8:
 191              		.text
 192              	.LHOTE8:
 193              		.set	_ZN12_GLOBAL__N_157TestTestRunnerFixtureSlowTestHasCorrectFailureInformationD1Ev,_ZN12_GLOBAL
 194              		.section	.text.unlikely
 195              		.align 2
 196              	.LCOLDB9:
 197              		.text
 198              	.LHOTB9:
 199              		.align 2
 200 007c 0F1F4000 		.p2align 4,,15
 202              	_ZN12_GLOBAL__N_18SlowTestD2Ev:
 203              	.LFB1535:
 204              		.cfi_startproc
 205 0080 48C70700 		movq	$_ZTVN12_GLOBAL__N_18SlowTestE+16, (%rdi)
 205      000000
 206 0087 E9000000 		jmp	_ZN8UnitTest4TestD2Ev
 206      00
 207              		.cfi_endproc
 208              	.LFE1535:
 210              		.section	.text.unlikely
 211              	.LCOLDE9:
 212              		.text
 213              	.LHOTE9:
 214              		.set	_ZN12_GLOBAL__N_18SlowTestD1Ev,_ZN12_GLOBAL__N_18SlowTestD2Ev
 215              		.section	.text.unlikely
 216              		.align 2
 217              	.LCOLDB10:
 218              		.text
 219              	.LHOTB10:
 220              		.align 2
 221 008c 0F1F4000 		.p2align 4,,15
 223              	_ZN12_GLOBAL__N_153TestTestRunnerFixtureSlowTestFailsForLowTimeThresholdD2Ev:
 224              	.LFB1499:
 225              		.cfi_startproc
 226 0090 48C70700 		movq	$_ZTVN12_GLOBAL__N_153TestTestRunnerFixtureSlowTestFailsForLowTimeThresholdE+16, (%rdi)
 226      000000
 227 0097 E9000000 		jmp	_ZN8UnitTest4TestD2Ev
 227      00
 228              		.cfi_endproc
 229              	.LFE1499:
 231              		.section	.text.unlikely
 232              	.LCOLDE10:
 233              		.text
 234              	.LHOTE10:
 235              		.set	_ZN12_GLOBAL__N_153TestTestRunnerFixtureSlowTestFailsForLowTimeThresholdD1Ev,_ZN12_GLOBAL__N_
 236              		.section	.text.unlikely
 237              		.align 2
 238              	.LCOLDB11:
 239              		.text
 240              	.LHOTB11:
 241              		.align 2
 242 009c 0F1F4000 		.p2align 4,,15
 244              	_ZN12_GLOBAL__N_155TestTestRunnerFixtureSlowTestPassesForHighTimeThresholdD2Ev:
 245              	.LFB1503:
 246              		.cfi_startproc
 247 00a0 48C70700 		movq	$_ZTVN12_GLOBAL__N_155TestTestRunnerFixtureSlowTestPassesForHighTimeThresholdE+16, (%rdi)
 247      000000
 248 00a7 E9000000 		jmp	_ZN8UnitTest4TestD2Ev
 248      00
 249              		.cfi_endproc
 250              	.LFE1503:
 252              		.section	.text.unlikely
 253              	.LCOLDE11:
 254              		.text
 255              	.LHOTE11:
 256              		.set	_ZN12_GLOBAL__N_155TestTestRunnerFixtureSlowTestPassesForHighTimeThresholdD1Ev,_ZN12_GLOBAL__
 257              		.section	.text.unlikely
 258              		.align 2
 259              	.LCOLDB12:
 260              		.text
 261              	.LHOTB12:
 262              		.align 2
 263 00ac 0F1F4000 		.p2align 4,,15
 265              	_ZN12_GLOBAL__N_147TestTestRunnerFixtureReporterNotifiedOfFailuresD2Ev:
 266              	.LFB1507:
 267              		.cfi_startproc
 268 00b0 48C70700 		movq	$_ZTVN12_GLOBAL__N_147TestTestRunnerFixtureReporterNotifiedOfFailuresE+16, (%rdi)
 268      000000
 269 00b7 E9000000 		jmp	_ZN8UnitTest4TestD2Ev
 269      00
 270              		.cfi_endproc
 271              	.LFE1507:
 273              		.section	.text.unlikely
 274              	.LCOLDE12:
 275              		.text
 276              	.LHOTE12:
 277              		.set	_ZN12_GLOBAL__N_147TestTestRunnerFixtureReporterNotifiedOfFailuresD1Ev,_ZN12_GLOBAL__N_147Tes
 278              		.section	.text.unlikely
 279              		.align 2
 280              	.LCOLDB13:
 281              		.text
 282              	.LHOTB13:
 283              		.align 2
 284 00bc 0F1F4000 		.p2align 4,,15
 286              	_ZN12_GLOBAL__N_18MockTestD2Ev:
 287              	.LFB1547:
 288              		.cfi_startproc
 289 00c0 48C70700 		movq	$_ZTVN12_GLOBAL__N_18MockTestE+16, (%rdi)
 289      000000
 290 00c7 E9000000 		jmp	_ZN8UnitTest4TestD2Ev
 290      00
 291              		.cfi_endproc
 292              	.LFE1547:
 294              		.section	.text.unlikely
 295              	.LCOLDE13:
 296              		.text
 297              	.LHOTE13:
 298              		.set	_ZN12_GLOBAL__N_18MockTestD1Ev,_ZN12_GLOBAL__N_18MockTestD2Ev
 299              		.section	.text.unlikely
 300              		.align 2
 301              	.LCOLDB14:
 302              		.text
 303              	.LHOTB14:
 304              		.align 2
 305 00cc 0F1F4000 		.p2align 4,,15
 307              	_ZN12_GLOBAL__N_150TestTestRunnerFixtureReporterNotifiedOfFailedTestsD2Ev:
 308              	.LFB1511:
 309              		.cfi_startproc
 310 00d0 48C70700 		movq	$_ZTVN12_GLOBAL__N_150TestTestRunnerFixtureReporterNotifiedOfFailedTestsE+16, (%rdi)
 310      000000
 311 00d7 E9000000 		jmp	_ZN8UnitTest4TestD2Ev
 311      00
 312              		.cfi_endproc
 313              	.LFE1511:
 315              		.section	.text.unlikely
 316              	.LCOLDE14:
 317              		.text
 318              	.LHOTE14:
 319              		.set	_ZN12_GLOBAL__N_150TestTestRunnerFixtureReporterNotifiedOfFailedTestsD1Ev,_ZN12_GLOBAL__N_150
 320              		.section	.text.unlikely
 321              		.align 2
 322              	.LCOLDB15:
 323              		.text
 324              	.LHOTB15:
 325              		.align 2
 326 00dc 0F1F4000 		.p2align 4,,15
 328              	_ZN12_GLOBAL__N_148TestTestRunnerFixtureReporterNotifiedOfTestCountD2Ev:
 329              	.LFB1515:
 330              		.cfi_startproc
 331 00e0 48C70700 		movq	$_ZTVN12_GLOBAL__N_148TestTestRunnerFixtureReporterNotifiedOfTestCountE+16, (%rdi)
 331      000000
 332 00e7 E9000000 		jmp	_ZN8UnitTest4TestD2Ev
 332      00
 333              		.cfi_endproc
 334              	.LFE1515:
 336              		.section	.text.unlikely
 337              	.LCOLDE15:
 338              		.text
 339              	.LHOTE15:
 340              		.set	_ZN12_GLOBAL__N_148TestTestRunnerFixtureReporterNotifiedOfTestCountD1Ev,_ZN12_GLOBAL__N_148Te
 341              		.section	.text.unlikely
 342              		.align 2
 343              	.LCOLDB16:
 344              		.text
 345              	.LHOTB16:
 346              		.align 2
 347 00ec 0F1F4000 		.p2align 4,,15
 349              	_ZN12_GLOBAL__N_156TestTestRunnerFixtureTestsThatAssertAreReportedAsFailingD2Ev:
 350              	.LFB1519:
 351              		.cfi_startproc
 352 00f0 48C70700 		movq	$_ZTVN12_GLOBAL__N_156TestTestRunnerFixtureTestsThatAssertAreReportedAsFailingE+16, (%rdi)
 352      000000
 353 00f7 E9000000 		jmp	_ZN8UnitTest4TestD2Ev
 353      00
 354              		.cfi_endproc
 355              	.LFE1519:
 357              		.section	.text.unlikely
 358              	.LCOLDE16:
 359              		.text
 360              	.LHOTE16:
 361              		.set	_ZN12_GLOBAL__N_156TestTestRunnerFixtureTestsThatAssertAreReportedAsFailingD1Ev,_ZN12_GLOBAL_
 362              		.section	.text.unlikely
 363              		.align 2
 364              	.LCOLDB17:
 365              		.text
 366              	.LHOTB17:
 367              		.align 2
 368 00fc 0F1F4000 		.p2align 4,,15
 370              	_ZN12_GLOBAL__N_157TestTestRunnerFixtureCallsReportFailureOncePerFailingTestD2Ev:
 371              	.LFB1523:
 372              		.cfi_startproc
 373 0100 48C70700 		movq	$_ZTVN12_GLOBAL__N_157TestTestRunnerFixtureCallsReportFailureOncePerFailingTestE+16, (%rdi)
 373      000000
 374 0107 E9000000 		jmp	_ZN8UnitTest4TestD2Ev
 374      00
 375              		.cfi_endproc
 376              	.LFE1523:
 378              		.section	.text.unlikely
 379              	.LCOLDE17:
 380              		.text
 381              	.LHOTE17:
 382              		.set	_ZN12_GLOBAL__N_157TestTestRunnerFixtureCallsReportFailureOncePerFailingTestD1Ev,_ZN12_GLOBAL
 383              		.section	.text.unlikely
 384              		.align 2
 385              	.LCOLDB18:
 386              		.text
 387              	.LHOTB18:
 388              		.align 2
 389 010c 0F1F4000 		.p2align 4,,15
 391              	_ZN12_GLOBAL__N_156TestTestRunnerFixtureFailureCountIsZeroWhenNoTestsAreRunD2Ev:
 392              	.LFB1527:
 393              		.cfi_startproc
 394 0110 48C70700 		movq	$_ZTVN12_GLOBAL__N_156TestTestRunnerFixtureFailureCountIsZeroWhenNoTestsAreRunE+16, (%rdi)
 394      000000
 395 0117 E9000000 		jmp	_ZN8UnitTest4TestD2Ev
 395      00
 396              		.cfi_endproc
 397              	.LFE1527:
 399              		.section	.text.unlikely
 400              	.LCOLDE18:
 401              		.text
 402              	.LHOTE18:
 403              		.set	_ZN12_GLOBAL__N_156TestTestRunnerFixtureFailureCountIsZeroWhenNoTestsAreRunD1Ev,_ZN12_GLOBAL_
 404              		.section	.text.unlikely
 405              		.align 2
 406              	.LCOLDB19:
 407              		.text
 408              	.LHOTB19:
 409              		.align 2
 410 011c 0F1F4000 		.p2align 4,,15
 412              	_ZN12_GLOBAL__N_154TestTestRunnerFixtureTestFinishIsCalledWithCorrectTimeD2Ev:
 413              	.LFB1531:
 414              		.cfi_startproc
 415 0120 48C70700 		movq	$_ZTVN12_GLOBAL__N_154TestTestRunnerFixtureTestFinishIsCalledWithCorrectTimeE+16, (%rdi)
 415      000000
 416 0127 E9000000 		jmp	_ZN8UnitTest4TestD2Ev
 416      00
 417              		.cfi_endproc
 418              	.LFE1531:
 420              		.section	.text.unlikely
 421              	.LCOLDE19:
 422              		.text
 423              	.LHOTE19:
 424              		.set	_ZN12_GLOBAL__N_154TestTestRunnerFixtureTestFinishIsCalledWithCorrectTimeD1Ev,_ZN12_GLOBAL__N
 425              		.section	.text.unlikely
 426              		.align 2
 427              	.LCOLDB20:
 428              		.text
 429              	.LHOTB20:
 430              		.align 2
 431 012c 0F1F4000 		.p2align 4,,15
 433              	_ZN12_GLOBAL__N_150TestTestRunnerFixtureTestFinishIsReportedCorrectlyD2Ev:
 434              	.LFB1539:
 435              		.cfi_startproc
 436 0130 48C70700 		movq	$_ZTVN12_GLOBAL__N_150TestTestRunnerFixtureTestFinishIsReportedCorrectlyE+16, (%rdi)
 436      000000
 437 0137 E9000000 		jmp	_ZN8UnitTest4TestD2Ev
 437      00
 438              		.cfi_endproc
 439              	.LFE1539:
 441              		.section	.text.unlikely
 442              	.LCOLDE20:
 443              		.text
 444              	.LHOTE20:
 445              		.set	_ZN12_GLOBAL__N_150TestTestRunnerFixtureTestFinishIsReportedCorrectlyD1Ev,_ZN12_GLOBAL__N_150
 446              		.section	.text.unlikely
 447              		.align 2
 448              	.LCOLDB21:
 449              		.text
 450              	.LHOTB21:
 451              		.align 2
 452 013c 0F1F4000 		.p2align 4,,15
 454              	_ZN12_GLOBAL__N_149TestTestRunnerFixtureTestStartIsReportedCorrectlyD2Ev:
 455              	.LFB1543:
 456              		.cfi_startproc
 457 0140 48C70700 		movq	$_ZTVN12_GLOBAL__N_149TestTestRunnerFixtureTestStartIsReportedCorrectlyE+16, (%rdi)
 457      000000
 458 0147 E9000000 		jmp	_ZN8UnitTest4TestD2Ev
 458      00
 459              		.cfi_endproc
 460              	.LFE1543:
 462              		.section	.text.unlikely
 463              	.LCOLDE21:
 464              		.text
 465              	.LHOTE21:
 466              		.set	_ZN12_GLOBAL__N_149TestTestRunnerFixtureTestStartIsReportedCorrectlyD1Ev,_ZN12_GLOBAL__N_149T
 467              		.section	.text.unlikely
 468              		.align 2
 469              	.LCOLDB22:
 470              		.text
 471              	.LHOTB22:
 472              		.align 2
 473 014c 0F1F4000 		.p2align 4,,15
 475              	_ZN12_GLOBAL__N_180TestTestRunnerFixtureTestRunnerOnlyRunsTestsInSpecifiedSuiteAndThatPassPredicate
 476              	.LFB1469:
 477              		.cfi_startproc
 478 0150 53       		pushq	%rbx
 479              		.cfi_def_cfa_offset 16
 480              		.cfi_offset 3, -16
 481 0151 4889FB   		movq	%rdi, %rbx
 482 0154 48C70700 		movq	$_ZTVN12_GLOBAL__N_180TestTestRunnerFixtureTestRunnerOnlyRunsTestsInSpecifiedSuiteAndThatPass
 482      000000
 483 015b E8000000 		call	_ZN8UnitTest4TestD2Ev
 483      00
 484 0160 4889DF   		movq	%rbx, %rdi
 485 0163 5B       		popq	%rbx
 486              		.cfi_def_cfa_offset 8
 487 0164 E9000000 		jmp	_ZdlPv
 487      00
 488              		.cfi_endproc
 489              	.LFE1469:
 491              		.section	.text.unlikely
 492              	.LCOLDE22:
 493              		.text
 494              	.LHOTE22:
 495              		.section	.text.unlikely
 496              		.align 2
 497              	.LCOLDB23:
 498              		.text
 499              	.LHOTB23:
 500 0169 90       		.align 2
 501 016a 660F1F44 		.p2align 4,,15
 501      0000
 503              	_ZN12_GLOBAL__N_157TestTestRunnerFixtureTestRunnerRunsTestsThatPassPredicateD0Ev:
 504              	.LFB1473:
 505              		.cfi_startproc
 506 0170 53       		pushq	%rbx
 507              		.cfi_def_cfa_offset 16
 508              		.cfi_offset 3, -16
 509 0171 4889FB   		movq	%rdi, %rbx
 510 0174 48C70700 		movq	$_ZTVN12_GLOBAL__N_157TestTestRunnerFixtureTestRunnerRunsTestsThatPassPredicateE+16, (%rdi)
 510      000000
 511 017b E8000000 		call	_ZN8UnitTest4TestD2Ev
 511      00
 512 0180 4889DF   		movq	%rbx, %rdi
 513 0183 5B       		popq	%rbx
 514              		.cfi_def_cfa_offset 8
 515 0184 E9000000 		jmp	_ZdlPv
 515      00
 516              		.cfi_endproc
 517              	.LFE1473:
 519              		.section	.text.unlikely
 520              	.LCOLDE23:
 521              		.text
 522              	.LHOTE23:
 523              		.section	.text.unlikely
 524              		.align 2
 525              	.LCOLDB24:
 526              		.text
 527              	.LHOTB24:
 528 0189 90       		.align 2
 529 018a 660F1F44 		.p2align 4,,15
 529      0000
 531              	_ZN12_GLOBAL__N_137TestTestMockPredicateBehavesCorrectlyD0Ev:
 532              	.LFB1477:
 533              		.cfi_startproc
 534 0190 53       		pushq	%rbx
 535              		.cfi_def_cfa_offset 16
 536              		.cfi_offset 3, -16
 537 0191 4889FB   		movq	%rdi, %rbx
 538 0194 48C70700 		movq	$_ZTVN12_GLOBAL__N_137TestTestMockPredicateBehavesCorrectlyE+16, (%rdi)
 538      000000
 539 019b E8000000 		call	_ZN8UnitTest4TestD2Ev
 539      00
 540 01a0 4889DF   		movq	%rbx, %rdi
 541 01a3 5B       		popq	%rbx
 542              		.cfi_def_cfa_offset 8
 543 01a4 E9000000 		jmp	_ZdlPv
 543      00
 544              		.cfi_endproc
 545              	.LFE1477:
 547              		.section	.text.unlikely
 548              	.LCOLDE24:
 549              		.text
 550              	.LHOTE24:
 551              		.section	.text.unlikely
 552              		.align 2
 553              	.LCOLDB25:
 554              		.text
 555              	.LHOTB25:
 556 01a9 90       		.align 2
 557 01aa 660F1F44 		.p2align 4,,15
 557      0000
 559              	_ZN12_GLOBAL__N_152TestTestSuiteFixtureTestRunnerRunsOnlySpecifiedSuiteD0Ev:
 560              	.LFB1481:
 561              		.cfi_startproc
 562 01b0 53       		pushq	%rbx
 563              		.cfi_def_cfa_offset 16
 564              		.cfi_offset 3, -16
 565 01b1 4889FB   		movq	%rdi, %rbx
 566 01b4 48C70700 		movq	$_ZTVN12_GLOBAL__N_152TestTestSuiteFixtureTestRunnerRunsOnlySpecifiedSuiteE+16, (%rdi)
 566      000000
 567 01bb E8000000 		call	_ZN8UnitTest4TestD2Ev
 567      00
 568 01c0 4889DF   		movq	%rbx, %rdi
 569 01c3 5B       		popq	%rbx
 570              		.cfi_def_cfa_offset 8
 571 01c4 E9000000 		jmp	_ZdlPv
 571      00
 572              		.cfi_endproc
 573              	.LFE1481:
 575              		.section	.text.unlikely
 576              	.LCOLDE25:
 577              		.text
 578              	.LHOTE25:
 579              		.section	.text.unlikely
 580              		.align 2
 581              	.LCOLDB26:
 582              		.text
 583              	.LHOTB26:
 584 01c9 90       		.align 2
 585 01ca 660F1F44 		.p2align 4,,15
 585      0000
 587              	_ZN12_GLOBAL__N_162TestTestSuiteFixtureTestRunnerRunsAllSuitesIfNullSuiteIsPassedD0Ev:
 588              	.LFB1485:
 589              		.cfi_startproc
 590 01d0 53       		pushq	%rbx
 591              		.cfi_def_cfa_offset 16
 592              		.cfi_offset 3, -16
 593 01d1 4889FB   		movq	%rdi, %rbx
 594 01d4 48C70700 		movq	$_ZTVN12_GLOBAL__N_162TestTestSuiteFixtureTestRunnerRunsAllSuitesIfNullSuiteIsPassedE+16, (%r
 594      000000
 595 01db E8000000 		call	_ZN8UnitTest4TestD2Ev
 595      00
 596 01e0 4889DF   		movq	%rbx, %rdi
 597 01e3 5B       		popq	%rbx
 598              		.cfi_def_cfa_offset 8
 599 01e4 E9000000 		jmp	_ZdlPv
 599      00
 600              		.cfi_endproc
 601              	.LFE1485:
 603              		.section	.text.unlikely
 604              	.LCOLDE26:
 605              		.text
 606              	.LHOTE26:
 607              		.section	.text.unlikely
 608              		.align 2
 609              	.LCOLDB27:
 610              		.text
 611              	.LHOTB27:
 612 01e9 90       		.align 2
 613 01ea 660F1F44 		.p2align 4,,15
 613      0000
 615              	_ZZN12_GLOBAL__N_154TestRunnerFixtureSlowTestWithTimeExemptionPassesHelper7RunImplEvEN16SlowExempte
 616              	.LFB1489:
 617              		.cfi_startproc
 618 01f0 53       		pushq	%rbx
 619              		.cfi_def_cfa_offset 16
 620              		.cfi_offset 3, -16
 621 01f1 4889FB   		movq	%rdi, %rbx
 622 01f4 48C70700 		movq	$_ZTVZN12_GLOBAL__N_154TestRunnerFixtureSlowTestWithTimeExemptionPassesHelper7RunImplEvE16Slo
 622      000000
 623 01fb E8000000 		call	_ZN8UnitTest4TestD2Ev
 623      00
 624 0200 4889DF   		movq	%rbx, %rdi
 625 0203 5B       		popq	%rbx
 626              		.cfi_def_cfa_offset 8
 627 0204 E9000000 		jmp	_ZdlPv
 627      00
 628              		.cfi_endproc
 629              	.LFE1489:
 631              		.section	.text.unlikely
 632              	.LCOLDE27:
 633              		.text
 634              	.LHOTE27:
 635              		.section	.text.unlikely
 636              		.align 2
 637              	.LCOLDB28:
 638              		.text
 639              	.LHOTB28:
 640 0209 90       		.align 2
 641 020a 660F1F44 		.p2align 4,,15
 641      0000
 643              	_ZN12_GLOBAL__N_152TestTestRunnerFixtureSlowTestWithTimeExemptionPassesD0Ev:
 644              	.LFB1493:
 645              		.cfi_startproc
 646 0210 53       		pushq	%rbx
 647              		.cfi_def_cfa_offset 16
 648              		.cfi_offset 3, -16
 649 0211 4889FB   		movq	%rdi, %rbx
 650 0214 48C70700 		movq	$_ZTVN12_GLOBAL__N_152TestTestRunnerFixtureSlowTestWithTimeExemptionPassesE+16, (%rdi)
 650      000000
 651 021b E8000000 		call	_ZN8UnitTest4TestD2Ev
 651      00
 652 0220 4889DF   		movq	%rbx, %rdi
 653 0223 5B       		popq	%rbx
 654              		.cfi_def_cfa_offset 8
 655 0224 E9000000 		jmp	_ZdlPv
 655      00
 656              		.cfi_endproc
 657              	.LFE1493:
 659              		.section	.text.unlikely
 660              	.LCOLDE28:
 661              		.text
 662              	.LHOTE28:
 663              		.section	.text.unlikely
 664              		.align 2
 665              	.LCOLDB29:
 666              		.text
 667              	.LHOTB29:
 668 0229 90       		.align 2
 669 022a 660F1F44 		.p2align 4,,15
 669      0000
 671              	_ZN12_GLOBAL__N_18SlowTestD0Ev:
 672              	.LFB1537:
 673              		.cfi_startproc
 674 0230 53       		pushq	%rbx
 675              		.cfi_def_cfa_offset 16
 676              		.cfi_offset 3, -16
 677 0231 4889FB   		movq	%rdi, %rbx
 678 0234 48C70700 		movq	$_ZTVN12_GLOBAL__N_18SlowTestE+16, (%rdi)
 678      000000
 679 023b E8000000 		call	_ZN8UnitTest4TestD2Ev
 679      00
 680 0240 4889DF   		movq	%rbx, %rdi
 681 0243 5B       		popq	%rbx
 682              		.cfi_def_cfa_offset 8
 683 0244 E9000000 		jmp	_ZdlPv
 683      00
 684              		.cfi_endproc
 685              	.LFE1537:
 687              		.section	.text.unlikely
 688              	.LCOLDE29:
 689              		.text
 690              	.LHOTE29:
 691              		.section	.text.unlikely
 692              		.align 2
 693              	.LCOLDB30:
 694              		.text
 695              	.LHOTB30:
 696 0249 90       		.align 2
 697 024a 660F1F44 		.p2align 4,,15
 697      0000
 699              	_ZN12_GLOBAL__N_157TestTestRunnerFixtureSlowTestHasCorrectFailureInformationD0Ev:
 700              	.LFB1497:
 701              		.cfi_startproc
 702 0250 53       		pushq	%rbx
 703              		.cfi_def_cfa_offset 16
 704              		.cfi_offset 3, -16
 705 0251 4889FB   		movq	%rdi, %rbx
 706 0254 48C70700 		movq	$_ZTVN12_GLOBAL__N_157TestTestRunnerFixtureSlowTestHasCorrectFailureInformationE+16, (%rdi)
 706      000000
 707 025b E8000000 		call	_ZN8UnitTest4TestD2Ev
 707      00
 708 0260 4889DF   		movq	%rbx, %rdi
 709 0263 5B       		popq	%rbx
 710              		.cfi_def_cfa_offset 8
 711 0264 E9000000 		jmp	_ZdlPv
 711      00
 712              		.cfi_endproc
 713              	.LFE1497:
 715              		.section	.text.unlikely
 716              	.LCOLDE30:
 717              		.text
 718              	.LHOTE30:
 719              		.section	.text.unlikely
 720              		.align 2
 721              	.LCOLDB31:
 722              		.text
 723              	.LHOTB31:
 724 0269 90       		.align 2
 725 026a 660F1F44 		.p2align 4,,15
 725      0000
 727              	_ZN12_GLOBAL__N_153TestTestRunnerFixtureSlowTestFailsForLowTimeThresholdD0Ev:
 728              	.LFB1501:
 729              		.cfi_startproc
 730 0270 53       		pushq	%rbx
 731              		.cfi_def_cfa_offset 16
 732              		.cfi_offset 3, -16
 733 0271 4889FB   		movq	%rdi, %rbx
 734 0274 48C70700 		movq	$_ZTVN12_GLOBAL__N_153TestTestRunnerFixtureSlowTestFailsForLowTimeThresholdE+16, (%rdi)
 734      000000
 735 027b E8000000 		call	_ZN8UnitTest4TestD2Ev
 735      00
 736 0280 4889DF   		movq	%rbx, %rdi
 737 0283 5B       		popq	%rbx
 738              		.cfi_def_cfa_offset 8
 739 0284 E9000000 		jmp	_ZdlPv
 739      00
 740              		.cfi_endproc
 741              	.LFE1501:
 743              		.section	.text.unlikely
 744              	.LCOLDE31:
 745              		.text
 746              	.LHOTE31:
 747              		.section	.text.unlikely
 748              		.align 2
 749              	.LCOLDB32:
 750              		.text
 751              	.LHOTB32:
 752 0289 90       		.align 2
 753 028a 660F1F44 		.p2align 4,,15
 753      0000
 755              	_ZN12_GLOBAL__N_155TestTestRunnerFixtureSlowTestPassesForHighTimeThresholdD0Ev:
 756              	.LFB1505:
 757              		.cfi_startproc
 758 0290 53       		pushq	%rbx
 759              		.cfi_def_cfa_offset 16
 760              		.cfi_offset 3, -16
 761 0291 4889FB   		movq	%rdi, %rbx
 762 0294 48C70700 		movq	$_ZTVN12_GLOBAL__N_155TestTestRunnerFixtureSlowTestPassesForHighTimeThresholdE+16, (%rdi)
 762      000000
 763 029b E8000000 		call	_ZN8UnitTest4TestD2Ev
 763      00
 764 02a0 4889DF   		movq	%rbx, %rdi
 765 02a3 5B       		popq	%rbx
 766              		.cfi_def_cfa_offset 8
 767 02a4 E9000000 		jmp	_ZdlPv
 767      00
 768              		.cfi_endproc
 769              	.LFE1505:
 771              		.section	.text.unlikely
 772              	.LCOLDE32:
 773              		.text
 774              	.LHOTE32:
 775              		.section	.text.unlikely
 776              		.align 2
 777              	.LCOLDB33:
 778              		.text
 779              	.LHOTB33:
 780 02a9 90       		.align 2
 781 02aa 660F1F44 		.p2align 4,,15
 781      0000
 783              	_ZN12_GLOBAL__N_18MockTestD0Ev:
 784              	.LFB1549:
 785              		.cfi_startproc
 786 02b0 53       		pushq	%rbx
 787              		.cfi_def_cfa_offset 16
 788              		.cfi_offset 3, -16
 789 02b1 4889FB   		movq	%rdi, %rbx
 790 02b4 48C70700 		movq	$_ZTVN12_GLOBAL__N_18MockTestE+16, (%rdi)
 790      000000
 791 02bb E8000000 		call	_ZN8UnitTest4TestD2Ev
 791      00
 792 02c0 4889DF   		movq	%rbx, %rdi
 793 02c3 5B       		popq	%rbx
 794              		.cfi_def_cfa_offset 8
 795 02c4 E9000000 		jmp	_ZdlPv
 795      00
 796              		.cfi_endproc
 797              	.LFE1549:
 799              		.section	.text.unlikely
 800              	.LCOLDE33:
 801              		.text
 802              	.LHOTE33:
 803              		.section	.text.unlikely
 804              		.align 2
 805              	.LCOLDB34:
 806              		.text
 807              	.LHOTB34:
 808 02c9 90       		.align 2
 809 02ca 660F1F44 		.p2align 4,,15
 809      0000
 811              	_ZN12_GLOBAL__N_147TestTestRunnerFixtureReporterNotifiedOfFailuresD0Ev:
 812              	.LFB1509:
 813              		.cfi_startproc
 814 02d0 53       		pushq	%rbx
 815              		.cfi_def_cfa_offset 16
 816              		.cfi_offset 3, -16
 817 02d1 4889FB   		movq	%rdi, %rbx
 818 02d4 48C70700 		movq	$_ZTVN12_GLOBAL__N_147TestTestRunnerFixtureReporterNotifiedOfFailuresE+16, (%rdi)
 818      000000
 819 02db E8000000 		call	_ZN8UnitTest4TestD2Ev
 819      00
 820 02e0 4889DF   		movq	%rbx, %rdi
 821 02e3 5B       		popq	%rbx
 822              		.cfi_def_cfa_offset 8
 823 02e4 E9000000 		jmp	_ZdlPv
 823      00
 824              		.cfi_endproc
 825              	.LFE1509:
 827              		.section	.text.unlikely
 828              	.LCOLDE34:
 829              		.text
 830              	.LHOTE34:
 831              		.section	.text.unlikely
 832              		.align 2
 833              	.LCOLDB35:
 834              		.text
 835              	.LHOTB35:
 836 02e9 90       		.align 2
 837 02ea 660F1F44 		.p2align 4,,15
 837      0000
 839              	_ZN12_GLOBAL__N_150TestTestRunnerFixtureReporterNotifiedOfFailedTestsD0Ev:
 840              	.LFB1513:
 841              		.cfi_startproc
 842 02f0 53       		pushq	%rbx
 843              		.cfi_def_cfa_offset 16
 844              		.cfi_offset 3, -16
 845 02f1 4889FB   		movq	%rdi, %rbx
 846 02f4 48C70700 		movq	$_ZTVN12_GLOBAL__N_150TestTestRunnerFixtureReporterNotifiedOfFailedTestsE+16, (%rdi)
 846      000000
 847 02fb E8000000 		call	_ZN8UnitTest4TestD2Ev
 847      00
 848 0300 4889DF   		movq	%rbx, %rdi
 849 0303 5B       		popq	%rbx
 850              		.cfi_def_cfa_offset 8
 851 0304 E9000000 		jmp	_ZdlPv
 851      00
 852              		.cfi_endproc
 853              	.LFE1513:
 855              		.section	.text.unlikely
 856              	.LCOLDE35:
 857              		.text
 858              	.LHOTE35:
 859              		.section	.text.unlikely
 860              		.align 2
 861              	.LCOLDB36:
 862              		.text
 863              	.LHOTB36:
 864 0309 90       		.align 2
 865 030a 660F1F44 		.p2align 4,,15
 865      0000
 867              	_ZN12_GLOBAL__N_148TestTestRunnerFixtureReporterNotifiedOfTestCountD0Ev:
 868              	.LFB1517:
 869              		.cfi_startproc
 870 0310 53       		pushq	%rbx
 871              		.cfi_def_cfa_offset 16
 872              		.cfi_offset 3, -16
 873 0311 4889FB   		movq	%rdi, %rbx
 874 0314 48C70700 		movq	$_ZTVN12_GLOBAL__N_148TestTestRunnerFixtureReporterNotifiedOfTestCountE+16, (%rdi)
 874      000000
 875 031b E8000000 		call	_ZN8UnitTest4TestD2Ev
 875      00
 876 0320 4889DF   		movq	%rbx, %rdi
 877 0323 5B       		popq	%rbx
 878              		.cfi_def_cfa_offset 8
 879 0324 E9000000 		jmp	_ZdlPv
 879      00
 880              		.cfi_endproc
 881              	.LFE1517:
 883              		.section	.text.unlikely
 884              	.LCOLDE36:
 885              		.text
 886              	.LHOTE36:
 887              		.section	.text.unlikely
 888              		.align 2
 889              	.LCOLDB37:
 890              		.text
 891              	.LHOTB37:
 892 0329 90       		.align 2
 893 032a 660F1F44 		.p2align 4,,15
 893      0000
 895              	_ZN12_GLOBAL__N_156TestTestRunnerFixtureTestsThatAssertAreReportedAsFailingD0Ev:
 896              	.LFB1521:
 897              		.cfi_startproc
 898 0330 53       		pushq	%rbx
 899              		.cfi_def_cfa_offset 16
 900              		.cfi_offset 3, -16
 901 0331 4889FB   		movq	%rdi, %rbx
 902 0334 48C70700 		movq	$_ZTVN12_GLOBAL__N_156TestTestRunnerFixtureTestsThatAssertAreReportedAsFailingE+16, (%rdi)
 902      000000
 903 033b E8000000 		call	_ZN8UnitTest4TestD2Ev
 903      00
 904 0340 4889DF   		movq	%rbx, %rdi
 905 0343 5B       		popq	%rbx
 906              		.cfi_def_cfa_offset 8
 907 0344 E9000000 		jmp	_ZdlPv
 907      00
 908              		.cfi_endproc
 909              	.LFE1521:
 911              		.section	.text.unlikely
 912              	.LCOLDE37:
 913              		.text
 914              	.LHOTE37:
 915              		.section	.text.unlikely
 916              		.align 2
 917              	.LCOLDB38:
 918              		.text
 919              	.LHOTB38:
 920 0349 90       		.align 2
 921 034a 660F1F44 		.p2align 4,,15
 921      0000
 923              	_ZN12_GLOBAL__N_157TestTestRunnerFixtureCallsReportFailureOncePerFailingTestD0Ev:
 924              	.LFB1525:
 925              		.cfi_startproc
 926 0350 53       		pushq	%rbx
 927              		.cfi_def_cfa_offset 16
 928              		.cfi_offset 3, -16
 929 0351 4889FB   		movq	%rdi, %rbx
 930 0354 48C70700 		movq	$_ZTVN12_GLOBAL__N_157TestTestRunnerFixtureCallsReportFailureOncePerFailingTestE+16, (%rdi)
 930      000000
 931 035b E8000000 		call	_ZN8UnitTest4TestD2Ev
 931      00
 932 0360 4889DF   		movq	%rbx, %rdi
 933 0363 5B       		popq	%rbx
 934              		.cfi_def_cfa_offset 8
 935 0364 E9000000 		jmp	_ZdlPv
 935      00
 936              		.cfi_endproc
 937              	.LFE1525:
 939              		.section	.text.unlikely
 940              	.LCOLDE38:
 941              		.text
 942              	.LHOTE38:
 943              		.section	.text.unlikely
 944              		.align 2
 945              	.LCOLDB39:
 946              		.text
 947              	.LHOTB39:
 948 0369 90       		.align 2
 949 036a 660F1F44 		.p2align 4,,15
 949      0000
 951              	_ZN12_GLOBAL__N_156TestTestRunnerFixtureFailureCountIsZeroWhenNoTestsAreRunD0Ev:
 952              	.LFB1529:
 953              		.cfi_startproc
 954 0370 53       		pushq	%rbx
 955              		.cfi_def_cfa_offset 16
 956              		.cfi_offset 3, -16
 957 0371 4889FB   		movq	%rdi, %rbx
 958 0374 48C70700 		movq	$_ZTVN12_GLOBAL__N_156TestTestRunnerFixtureFailureCountIsZeroWhenNoTestsAreRunE+16, (%rdi)
 958      000000
 959 037b E8000000 		call	_ZN8UnitTest4TestD2Ev
 959      00
 960 0380 4889DF   		movq	%rbx, %rdi
 961 0383 5B       		popq	%rbx
 962              		.cfi_def_cfa_offset 8
 963 0384 E9000000 		jmp	_ZdlPv
 963      00
 964              		.cfi_endproc
 965              	.LFE1529:
 967              		.section	.text.unlikely
 968              	.LCOLDE39:
 969              		.text
 970              	.LHOTE39:
 971              		.section	.text.unlikely
 972              		.align 2
 973              	.LCOLDB40:
 974              		.text
 975              	.LHOTB40:
 976 0389 90       		.align 2
 977 038a 660F1F44 		.p2align 4,,15
 977      0000
 979              	_ZN12_GLOBAL__N_154TestTestRunnerFixtureTestFinishIsCalledWithCorrectTimeD0Ev:
 980              	.LFB1533:
 981              		.cfi_startproc
 982 0390 53       		pushq	%rbx
 983              		.cfi_def_cfa_offset 16
 984              		.cfi_offset 3, -16
 985 0391 4889FB   		movq	%rdi, %rbx
 986 0394 48C70700 		movq	$_ZTVN12_GLOBAL__N_154TestTestRunnerFixtureTestFinishIsCalledWithCorrectTimeE+16, (%rdi)
 986      000000
 987 039b E8000000 		call	_ZN8UnitTest4TestD2Ev
 987      00
 988 03a0 4889DF   		movq	%rbx, %rdi
 989 03a3 5B       		popq	%rbx
 990              		.cfi_def_cfa_offset 8
 991 03a4 E9000000 		jmp	_ZdlPv
 991      00
 992              		.cfi_endproc
 993              	.LFE1533:
 995              		.section	.text.unlikely
 996              	.LCOLDE40:
 997              		.text
 998              	.LHOTE40:
 999              		.section	.text.unlikely
 1000              		.align 2
 1001              	.LCOLDB41:
 1002              		.text
 1003              	.LHOTB41:
 1004 03a9 90       		.align 2
 1005 03aa 660F1F44 		.p2align 4,,15
 1005      0000
 1007              	_ZN12_GLOBAL__N_150TestTestRunnerFixtureTestFinishIsReportedCorrectlyD0Ev:
 1008              	.LFB1541:
 1009              		.cfi_startproc
 1010 03b0 53       		pushq	%rbx
 1011              		.cfi_def_cfa_offset 16
 1012              		.cfi_offset 3, -16
 1013 03b1 4889FB   		movq	%rdi, %rbx
 1014 03b4 48C70700 		movq	$_ZTVN12_GLOBAL__N_150TestTestRunnerFixtureTestFinishIsReportedCorrectlyE+16, (%rdi)
 1014      000000
 1015 03bb E8000000 		call	_ZN8UnitTest4TestD2Ev
 1015      00
 1016 03c0 4889DF   		movq	%rbx, %rdi
 1017 03c3 5B       		popq	%rbx
 1018              		.cfi_def_cfa_offset 8
 1019 03c4 E9000000 		jmp	_ZdlPv
 1019      00
 1020              		.cfi_endproc
 1021              	.LFE1541:
 1023              		.section	.text.unlikely
 1024              	.LCOLDE41:
 1025              		.text
 1026              	.LHOTE41:
 1027              		.section	.text.unlikely
 1028              		.align 2
 1029              	.LCOLDB42:
 1030              		.text
 1031              	.LHOTB42:
 1032 03c9 90       		.align 2
 1033 03ca 660F1F44 		.p2align 4,,15
 1033      0000
 1035              	_ZN12_GLOBAL__N_149TestTestRunnerFixtureTestStartIsReportedCorrectlyD0Ev:
 1036              	.LFB1545:
 1037              		.cfi_startproc
 1038 03d0 53       		pushq	%rbx
 1039              		.cfi_def_cfa_offset 16
 1040              		.cfi_offset 3, -16
 1041 03d1 4889FB   		movq	%rdi, %rbx
 1042 03d4 48C70700 		movq	$_ZTVN12_GLOBAL__N_149TestTestRunnerFixtureTestStartIsReportedCorrectlyE+16, (%rdi)
 1042      000000
 1043 03db E8000000 		call	_ZN8UnitTest4TestD2Ev
 1043      00
 1044 03e0 4889DF   		movq	%rbx, %rdi
 1045 03e3 5B       		popq	%rbx
 1046              		.cfi_def_cfa_offset 8
 1047 03e4 E9000000 		jmp	_ZdlPv
 1047      00
 1048              		.cfi_endproc
 1049              	.LFE1545:
 1051              		.section	.text.unlikely
 1052              	.LCOLDE42:
 1053              		.text
 1054              	.LHOTE42:
 1055              		.section	.text.unlikely._ZN17RecordingReporter15ReportTestStartERKN8UnitTest11TestDetailsE,"axG",@
 1056              		.align 2
 1057              	.LCOLDB43:
 1058              		.section	.text._ZN17RecordingReporter15ReportTestStartERKN8UnitTest11TestDetailsE,"axG",@progbits,
 1059              	.LHOTB43:
 1060              		.align 2
 1061              		.p2align 4,,15
 1062              		.weak	_ZN17RecordingReporter15ReportTestStartERKN8UnitTest11TestDetailsE
 1064              	_ZN17RecordingReporter15ReportTestStartERKN8UnitTest11TestDetailsE:
 1065              	.LFB1132:
 1066              		.cfi_startproc
 1067 0000 55       		pushq	%rbp
 1068              		.cfi_def_cfa_offset 16
 1069              		.cfi_offset 6, -16
 1070 0001 53       		pushq	%rbx
 1071              		.cfi_def_cfa_offset 24
 1072              		.cfi_offset 3, -24
 1073 0002 4889F5   		movq	%rsi, %rbp
 1074 0005 4889FB   		movq	%rdi, %rbx
 1075 0008 BA000100 		movl	$256, %edx
 1075      00
 1076 000d 4883EC08 		subq	$8, %rsp
 1077              		.cfi_def_cfa_offset 32
 1078 0011 83470801 		addl	$1, 8(%rdi)
 1079 0015 488B36   		movq	(%rsi), %rsi
 1080 0018 488D7F0C 		leaq	12(%rdi), %rdi
 1081 001c E8000000 		call	__strcpy_chk
 1081      00
 1082 0021 488B7508 		movq	8(%rbp), %rsi
 1083 0025 4883C408 		addq	$8, %rsp
 1084              		.cfi_def_cfa_offset 24
 1085 0029 488DBB0C 		leaq	268(%rbx), %rdi
 1085      010000
 1086 0030 5B       		popq	%rbx
 1087              		.cfi_def_cfa_offset 16
 1088 0031 5D       		popq	%rbp
 1089              		.cfi_def_cfa_offset 8
 1090 0032 BA000100 		movl	$256, %edx
 1090      00
 1091 0037 E9000000 		jmp	__strcpy_chk
 1091      00
 1092              		.cfi_endproc
 1093              	.LFE1132:
 1095              		.section	.text.unlikely._ZN17RecordingReporter15ReportTestStartERKN8UnitTest11TestDetailsE,"axG",@
 1096              	.LCOLDE43:
 1097              		.section	.text._ZN17RecordingReporter15ReportTestStartERKN8UnitTest11TestDetailsE,"axG",@progbits,
 1098              	.LHOTE43:
 1099              		.section	.text.unlikely._ZN17RecordingReporter13ReportFailureERKN8UnitTest11TestDetailsEPKc,"axG",
 1100              		.align 2
 1101              	.LCOLDB44:
 1102              		.section	.text._ZN17RecordingReporter13ReportFailureERKN8UnitTest11TestDetailsEPKc,"axG",@progbits
 1103              	.LHOTB44:
 1104              		.align 2
 1105              		.p2align 4,,15
 1106              		.weak	_ZN17RecordingReporter13ReportFailureERKN8UnitTest11TestDetailsEPKc
 1108              	_ZN17RecordingReporter13ReportFailureERKN8UnitTest11TestDetailsEPKc:
 1109              	.LFB1133:
 1110              		.cfi_startproc
 1111 0000 4154     		pushq	%r12
 1112              		.cfi_def_cfa_offset 16
 1113              		.cfi_offset 12, -16
 1114 0002 55       		pushq	%rbp
 1115              		.cfi_def_cfa_offset 24
 1116              		.cfi_offset 6, -24
 1117 0003 4889F5   		movq	%rsi, %rbp
 1118 0006 53       		pushq	%rbx
 1119              		.cfi_def_cfa_offset 32
 1120              		.cfi_offset 3, -32
 1121 0007 83870C02 		addl	$1, 524(%rdi)
 1121      000001
 1122 000e 4889FB   		movq	%rdi, %rbx
 1123 0011 488B7610 		movq	16(%rsi), %rsi
 1124 0015 488DBF10 		leaq	528(%rdi), %rdi
 1124      020000
 1125 001c 4989D4   		movq	%rdx, %r12
 1126 001f BA000100 		movl	$256, %edx
 1126      00
 1127 0024 E8000000 		call	__strcpy_chk
 1127      00
 1128 0029 8B4518   		movl	24(%rbp), %eax
 1129 002c 488B7500 		movq	0(%rbp), %rsi
 1130 0030 488DBB14 		leaq	788(%rbx), %rdi
 1130      030000
 1131 0037 BA000100 		movl	$256, %edx
 1131      00
 1132 003c 89831003 		movl	%eax, 784(%rbx)
 1132      0000
 1133 0042 E8000000 		call	__strcpy_chk
 1133      00
 1134 0047 488B7508 		movq	8(%rbp), %rsi
 1135 004b 488DBB14 		leaq	1044(%rbx), %rdi
 1135      040000
 1136 0052 BA000100 		movl	$256, %edx
 1136      00
 1137 0057 E8000000 		call	__strcpy_chk
 1137      00
 1138 005c 488DBB14 		leaq	1300(%rbx), %rdi
 1138      050000
 1139 0063 4C89E6   		movq	%r12, %rsi
 1140 0066 BA000100 		movl	$256, %edx
 1140      00
 1141 006b 5B       		popq	%rbx
 1142              		.cfi_def_cfa_offset 24
 1143 006c 5D       		popq	%rbp
 1144              		.cfi_def_cfa_offset 16
 1145 006d 415C     		popq	%r12
 1146              		.cfi_def_cfa_offset 8
 1147 006f E9000000 		jmp	__strcpy_chk
 1147      00
 1148              		.cfi_endproc
 1149              	.LFE1133:
 1151              		.section	.text.unlikely._ZN17RecordingReporter13ReportFailureERKN8UnitTest11TestDetailsEPKc,"axG",
 1152              	.LCOLDE44:
 1153              		.section	.text._ZN17RecordingReporter13ReportFailureERKN8UnitTest11TestDetailsEPKc,"axG",@progbits
 1154              	.LHOTE44:
 1155              		.section	.text.unlikely._ZN17RecordingReporter16ReportTestFinishERKN8UnitTest11TestDetailsEf,"axG"
 1156              		.align 2
 1157              	.LCOLDB45:
 1158              		.section	.text._ZN17RecordingReporter16ReportTestFinishERKN8UnitTest11TestDetailsEf,"axG",@progbit
 1159              	.LHOTB45:
 1160              		.align 2
 1161              		.p2align 4,,15
 1162              		.weak	_ZN17RecordingReporter16ReportTestFinishERKN8UnitTest11TestDetailsEf
 1164              	_ZN17RecordingReporter16ReportTestFinishERKN8UnitTest11TestDetailsEf:
 1165              	.LFB1134:
 1166              		.cfi_startproc
 1167 0000 55       		pushq	%rbp
 1168              		.cfi_def_cfa_offset 16
 1169              		.cfi_offset 6, -16
 1170 0001 53       		pushq	%rbx
 1171              		.cfi_def_cfa_offset 24
 1172              		.cfi_offset 3, -24
 1173 0002 4889F5   		movq	%rsi, %rbp
 1174 0005 4889FB   		movq	%rdi, %rbx
 1175 0008 BA000100 		movl	$256, %edx
 1175      00
 1176 000d 4883EC18 		subq	$24, %rsp
 1177              		.cfi_def_cfa_offset 48
 1178 0011 83871406 		addl	$1, 1556(%rdi)
 1178      000001
 1179 0018 488B36   		movq	(%rsi), %rsi
 1180 001b 488DBF18 		leaq	1560(%rdi), %rdi
 1180      060000
 1181 0022 F30F1144 		movss	%xmm0, 12(%rsp)
 1181      240C
 1182 0028 E8000000 		call	__strcpy_chk
 1182      00
 1183 002d 488B7508 		movq	8(%rbp), %rsi
 1184 0031 488DBB18 		leaq	1816(%rbx), %rdi
 1184      070000
 1185 0038 BA000100 		movl	$256, %edx
 1185      00
 1186 003d E8000000 		call	__strcpy_chk
 1186      00
 1187 0042 F30F1044 		movss	12(%rsp), %xmm0
 1187      240C
 1188 0048 F30F1183 		movss	%xmm0, 2072(%rbx)
 1188      18080000 
 1189 0050 4883C418 		addq	$24, %rsp
 1190              		.cfi_def_cfa_offset 24
 1191 0054 5B       		popq	%rbx
 1192              		.cfi_def_cfa_offset 16
 1193 0055 5D       		popq	%rbp
 1194              		.cfi_def_cfa_offset 8
 1195 0056 C3       		ret
 1196              		.cfi_endproc
 1197              	.LFE1134:
 1199              		.section	.text.unlikely._ZN17RecordingReporter16ReportTestFinishERKN8UnitTest11TestDetailsEf,"axG"
 1200              	.LCOLDE45:
 1201              		.section	.text._ZN17RecordingReporter16ReportTestFinishERKN8UnitTest11TestDetailsEf,"axG",@progbit
 1202              	.LHOTE45:
 1203              		.section	.text.unlikely._ZN17RecordingReporterD2Ev,"axG",@progbits,_ZN17RecordingReporterD5Ev,comd
 1204              		.align 2
 1205              	.LCOLDB46:
 1206              		.section	.text._ZN17RecordingReporterD2Ev,"axG",@progbits,_ZN17RecordingReporterD5Ev,comdat
 1207              	.LHOTB46:
 1208              		.align 2
 1209              		.p2align 4,,15
 1210              		.weak	_ZN17RecordingReporterD2Ev
 1212              	_ZN17RecordingReporterD2Ev:
 1213              	.LFB1551:
 1214              		.cfi_startproc
 1215 0000 48C70700 		movq	$_ZTV17RecordingReporter+16, (%rdi)
 1215      000000
 1216 0007 E9000000 		jmp	_ZN8UnitTest12TestReporterD2Ev
 1216      00
 1217              		.cfi_endproc
 1218              	.LFE1551:
 1220              		.section	.text.unlikely._ZN17RecordingReporterD2Ev,"axG",@progbits,_ZN17RecordingReporterD5Ev,comd
 1221              	.LCOLDE46:
 1222              		.section	.text._ZN17RecordingReporterD2Ev,"axG",@progbits,_ZN17RecordingReporterD5Ev,comdat
 1223              	.LHOTE46:
 1224              		.weak	_ZN17RecordingReporterD1Ev
 1225              		.set	_ZN17RecordingReporterD1Ev,_ZN17RecordingReporterD2Ev
 1226              		.section	.text.unlikely._ZN17RecordingReporterD0Ev,"axG",@progbits,_ZN17RecordingReporterD5Ev,comd
 1227              		.align 2
 1228              	.LCOLDB47:
 1229              		.section	.text._ZN17RecordingReporterD0Ev,"axG",@progbits,_ZN17RecordingReporterD5Ev,comdat
 1230              	.LHOTB47:
 1231              		.align 2
 1232              		.p2align 4,,15
 1233              		.weak	_ZN17RecordingReporterD0Ev
 1235              	_ZN17RecordingReporterD0Ev:
 1236              	.LFB1553:
 1237              		.cfi_startproc
 1238 0000 53       		pushq	%rbx
 1239              		.cfi_def_cfa_offset 16
 1240              		.cfi_offset 3, -16
 1241 0001 4889FB   		movq	%rdi, %rbx
 1242 0004 48C70700 		movq	$_ZTV17RecordingReporter+16, (%rdi)
 1242      000000
 1243 000b E8000000 		call	_ZN8UnitTest12TestReporterD2Ev
 1243      00
 1244 0010 4889DF   		movq	%rbx, %rdi
 1245 0013 5B       		popq	%rbx
 1246              		.cfi_def_cfa_offset 8
 1247 0014 E9000000 		jmp	_ZdlPv
 1247      00
 1248              		.cfi_endproc
 1249              	.LFE1553:
 1251              		.section	.text.unlikely._ZN17RecordingReporterD0Ev,"axG",@progbits,_ZN17RecordingReporterD5Ev,comd
 1252              	.LCOLDE47:
 1253              		.section	.text._ZN17RecordingReporterD0Ev,"axG",@progbits,_ZN17RecordingReporterD5Ev,comdat
 1254              	.LHOTE47:
 1255              		.section	.text.unlikely
 1256              		.align 2
 1257              	.LCOLDB48:
 1258              	.LHOTB48:
 1259              		.align 2
 1261              	_ZN12_GLOBAL__N_111FixtureBaseD2Ev:
 1262              	.LFB1147:
 1263              		.cfi_startproc
 1264              		.cfi_personality 0x3,__gxx_personality_v0
 1265              		.cfi_lsda 0x3,.LLSDA1147
 1266 0000 55       		pushq	%rbp
 1267              		.cfi_def_cfa_offset 16
 1268              		.cfi_offset 6, -16
 1269 0001 53       		pushq	%rbx
 1270              		.cfi_def_cfa_offset 24
 1271              		.cfi_offset 3, -24
 1272 0002 4889FB   		movq	%rdi, %rbx
 1273 0005 52       		pushq	%rdx
 1274              		.cfi_def_cfa_offset 32
 1275 0006 488D7F18 		leaq	24(%rdi), %rdi
 1276 000a 48C70700 		movq	$_ZTV17RecordingReporter+16, (%rdi)
 1276      000000
 1277              	.LEHB0:
 1278 0011 E8000000 		call	_ZN8UnitTest12TestReporterD2Ev
 1278      00
 1279              	.LEHE0:
 1280 0016 58       		popq	%rax
 1281              		.cfi_remember_state
 1282              		.cfi_def_cfa_offset 24
 1283 0017 4889DF   		movq	%rbx, %rdi
 1284 001a 5B       		popq	%rbx
 1285              		.cfi_def_cfa_offset 16
 1286 001b 5D       		popq	%rbp
 1287              		.cfi_def_cfa_offset 8
 1288              	.LEHB1:
 1289 001c E9000000 		jmp	_ZN8UnitTest10TestRunnerD1Ev
 1289      00
 1290              	.LEHE1:
 1291              	.L76:
 1292              		.cfi_restore_state
 1293 0021 4889C5   		movq	%rax, %rbp
 1294              	.L75:
 1295 0024 4889DF   		movq	%rbx, %rdi
 1296 0027 E8000000 		call	_ZN8UnitTest10TestRunnerD1Ev
 1296      00
 1297 002c 4889EF   		movq	%rbp, %rdi
 1298              	.LEHB2:
 1299 002f E8000000 		call	_Unwind_Resume
 1299      00
 1300              	.LEHE2:
 1301              		.cfi_endproc
 1302              	.LFE1147:
 1303              		.globl	__gxx_personality_v0
 1304              		.section	.gcc_except_table,"a",@progbits
 1305              	.LLSDA1147:
 1306 0000 FF       		.byte	0xff
 1307 0001 FF       		.byte	0xff
 1308 0002 01       		.byte	0x1
 1309 0003 0C       		.uleb128 .LLSDACSE1147-.LLSDACSB1147
 1310              	.LLSDACSB1147:
 1311 0004 11       		.uleb128 .LEHB0-.LFB1147
 1312 0005 05       		.uleb128 .LEHE0-.LEHB0
 1313 0006 21       		.uleb128 .L76-.LFB1147
 1314 0007 00       		.uleb128 0
 1315 0008 1C       		.uleb128 .LEHB1-.LFB1147
 1316 0009 05       		.uleb128 .LEHE1-.LEHB1
 1317 000a 00       		.uleb128 0
 1318 000b 00       		.uleb128 0
 1319 000c 2F       		.uleb128 .LEHB2-.LFB1147
 1320 000d 05       		.uleb128 .LEHE2-.LEHB2
 1321 000e 00       		.uleb128 0
 1322 000f 00       		.uleb128 0
 1323              	.LLSDACSE1147:
 1324              		.section	.text.unlikely
 1326              	.LCOLDE48:
 1327              	.LHOTE48:
 1328              		.align 2
 1329              	.LCOLDB49:
 1330              		.text
 1331              	.LHOTB49:
 1332 03e9 90       		.align 2
 1333 03ea 660F1F44 		.p2align 4,,15
 1333      0000
 1335              	_ZZN12_GLOBAL__N_154TestRunnerFixtureSlowTestWithTimeExemptionPassesHelper7RunImplEvENK16SlowExempt
 1336              	.LFB1303:
 1337              		.cfi_startproc
 1338 03f0 C6473001 		movb	$1, 48(%rdi)
 1339 03f4 BF140000 		movl	$20, %edi
 1339      00
 1340 03f9 E9000000 		jmp	_ZN8UnitTest11TimeHelpers7SleepMsEi
 1340      00
 1341              		.cfi_endproc
 1342              	.LFE1303:
 1344              		.section	.text.unlikely
 1345              	.LCOLDE49:
 1346              		.text
 1347              	.LHOTE49:
 1348              		.section	.text.unlikely
 1349              		.align 2
 1350              	.LCOLDB50:
 1351              		.text
 1352              	.LHOTB50:
 1353              		.align 2
 1354 03fe 6690     		.p2align 4,,15
 1356              	_ZNK12_GLOBAL__N_18SlowTest7RunImplEv:
 1357              	.LFB1178:
 1358              		.cfi_startproc
 1359 0400 BF140000 		movl	$20, %edi
 1359      00
 1360 0405 E9000000 		jmp	_ZN8UnitTest11TimeHelpers7SleepMsEi
 1360      00
 1361              		.cfi_endproc
 1362              	.LFE1178:
 1364              		.section	.text.unlikely
 1365              	.LCOLDE50:
 1366              		.text
 1367              	.LHOTE50:
 1368              		.section	.rodata.str1.1,"aMS",@progbits,1
 1369              	.LC51:
 1370 0000 66696C65 		.string	"file"
 1370      00
 1371              	.LC52:
 1372 0005 64657363 		.string	"desc"
 1372      00
 1373              	.LC53:
 1374 000a 6D657373 		.string	"message"
 1374      61676500 
 1375              		.section	.text.unlikely
 1376              		.align 2
 1377              	.LCOLDB54:
 1378              		.text
 1379              	.LHOTB54:
 1380              		.align 2
 1381 040a 660F1F44 		.p2align 4,,15
 1381      0000
 1383              	_ZNK12_GLOBAL__N_18MockTest7RunImplEv:
 1384              	.LFB1139:
 1385              		.cfi_startproc
 1386 0410 4155     		pushq	%r13
 1387              		.cfi_def_cfa_offset 16
 1388              		.cfi_offset 13, -16
 1389 0412 4154     		pushq	%r12
 1390              		.cfi_def_cfa_offset 24
 1391              		.cfi_offset 12, -24
 1392 0414 55       		pushq	%rbp
 1393              		.cfi_def_cfa_offset 32
 1394              		.cfi_offset 6, -32
 1395 0415 53       		pushq	%rbx
 1396              		.cfi_def_cfa_offset 40
 1397              		.cfi_offset 3, -40
 1398 0416 4889FD   		movq	%rdi, %rbp
 1399 0419 4883EC08 		subq	$8, %rsp
 1400              		.cfi_def_cfa_offset 48
 1401 041d E8000000 		call	_ZN8UnitTest11CurrentTest7ResultsEv
 1401      00
 1402 0422 4C8B28   		movq	(%rax), %r13
 1403 0425 8B4534   		movl	52(%rbp), %eax
 1404 0428 85C0     		testl	%eax, %eax
 1405 042a 7E3A     		jle	.L81
 1406 042c 31DB     		xorl	%ebx, %ebx
 1407 042e 4C8D6508 		leaq	8(%rbp), %r12
 1408 0432 EB11     		jmp	.L87
 1409              		.p2align 4,,10
 1410 0434 0F1F4000 		.p2align 3
 1411              	.L83:
 1412 0438 807D3100 		cmpb	$0, 49(%rbp)
 1413 043c 743A     		je	.L89
 1414              	.L84:
 1415 043e 83C301   		addl	$1, %ebx
 1416 0441 39C3     		cmpl	%eax, %ebx
 1417 0443 7D21     		jge	.L81
 1418              	.L87:
 1419 0445 807D3200 		cmpb	$0, 50(%rbp)
 1420 0449 74ED     		je	.L83
 1421 044b 31D2     		xorl	%edx, %edx
 1422 044d BE000000 		movl	$.LC51, %esi
 1422      00
 1423 0452 BF000000 		movl	$.LC52, %edi
 1423      00
 1424 0457 E8000000 		call	_ZN8UnitTest12ReportAssertEPKcS1_i
 1424      00
 1425 045c 8B4534   		movl	52(%rbp), %eax
 1426 045f 83C301   		addl	$1, %ebx
 1427 0462 39C3     		cmpl	%eax, %ebx
 1428 0464 7CDF     		jl	.L87
 1429              	.L81:
 1430 0466 4883C408 		addq	$8, %rsp
 1431              		.cfi_remember_state
 1432              		.cfi_def_cfa_offset 40
 1433 046a 5B       		popq	%rbx
 1434              		.cfi_def_cfa_offset 32
 1435 046b 5D       		popq	%rbp
 1436              		.cfi_def_cfa_offset 24
 1437 046c 415C     		popq	%r12
 1438              		.cfi_def_cfa_offset 16
 1439 046e 415D     		popq	%r13
 1440              		.cfi_def_cfa_offset 8
 1441 0470 C3       		ret
 1442              		.p2align 4,,10
 1443 0471 0F1F8000 		.p2align 3
 1443      000000
 1444              	.L89:
 1445              		.cfi_restore_state
 1446 0478 BA000000 		movl	$.LC53, %edx
 1446      00
 1447 047d 4C89E6   		movq	%r12, %rsi
 1448 0480 4C89EF   		movq	%r13, %rdi
 1449 0483 E8000000 		call	_ZN8UnitTest11TestResults13OnTestFailureERKNS_11TestDetailsEPKc
 1449      00
 1450 0488 8B4534   		movl	52(%rbp), %eax
 1451 048b EBB1     		jmp	.L84
 1452              		.cfi_endproc
 1453              	.LFE1139:
 1455              		.section	.text.unlikely
 1456              	.LCOLDE54:
 1457              		.text
 1458              	.LHOTE54:
 1459              		.section	.text.unlikely._ZN8UnitTest15MemoryOutStreamD1Ev,"axG",@progbits,_ZN8UnitTest15MemoryOutS
 1460              		.align 2
 1461              	.LCOLDB55:
 1462              		.section	.text._ZN8UnitTest15MemoryOutStreamD1Ev,"axG",@progbits,_ZN8UnitTest15MemoryOutStreamD1Ev
 1463              	.LHOTB55:
 1464              		.align 2
 1465              		.p2align 4,,15
 1466              		.weak	_ZN8UnitTest15MemoryOutStreamD1Ev
 1468              	_ZN8UnitTest15MemoryOutStreamD1Ev:
 1469              	.LFB1556:
 1470              		.cfi_startproc
 1471 0000 53       		pushq	%rbx
 1472              		.cfi_def_cfa_offset 16
 1473              		.cfi_offset 3, -16
 1474 0001 4889FB   		movq	%rdi, %rbx
 1475 0004 48C70700 		movq	$_ZTVN8UnitTest15MemoryOutStreamE+24, (%rdi)
 1475      000000
 1476 000b 48C78790 		movq	$_ZTVN8UnitTest15MemoryOutStreamE+64, 144(%rdi)
 1476      00000000 
 1476      000000
 1477 0016 488B7F70 		movq	112(%rdi), %rdi
 1478 001a 488D8380 		leaq	128(%rbx), %rax
 1478      000000
 1479 0021 4839C7   		cmpq	%rax, %rdi
 1480 0024 7405     		je	.L91
 1481 0026 E8000000 		call	_ZdlPv
 1481      00
 1482              	.L91:
 1483 002b 488B7B50 		movq	80(%rbx), %rdi
 1484 002f 488D4360 		leaq	96(%rbx), %rax
 1485 0033 48C70300 		movq	$_ZTCN8UnitTest15MemoryOutStreamE0_NSt7__cxx1119basic_ostringstreamIcSt11char_traitsIcESaIcEE
 1485      000000
 1486 003a 48C78390 		movq	$_ZTCN8UnitTest15MemoryOutStreamE0_NSt7__cxx1119basic_ostringstreamIcSt11char_traitsIcESaIcEE
 1486      00000000 
 1486      000000
 1487 0045 48C74308 		movq	$_ZTVNSt7__cxx1115basic_stringbufIcSt11char_traitsIcESaIcEEE+16, 8(%rbx)
 1487      00000000 
 1488 004d 4839C7   		cmpq	%rax, %rdi
 1489 0050 7405     		je	.L92
 1490 0052 E8000000 		call	_ZdlPv
 1490      00
 1491              	.L92:
 1492 0057 488D7B40 		leaq	64(%rbx), %rdi
 1493 005b 48C74308 		movq	$_ZTVSt15basic_streambufIcSt11char_traitsIcEE+16, 8(%rbx)
 1493      00000000 
 1494 0063 E8000000 		call	_ZNSt6localeD1Ev
 1494      00
 1495 0068 48C78390 		movq	$_ZTVSt9basic_iosIcSt11char_traitsIcEE+16, 144(%rbx)
 1495      00000000 
 1495      000000
 1496 0073 488DBB90 		leaq	144(%rbx), %rdi
 1496      000000
 1497 007a 5B       		popq	%rbx
 1498              		.cfi_def_cfa_offset 8
 1499 007b E9000000 		jmp	_ZNSt8ios_baseD2Ev
 1499      00
 1500              		.cfi_endproc
 1501              	.LFE1556:
 1503              		.section	.text.unlikely._ZN8UnitTest15MemoryOutStreamD1Ev,"axG",@progbits,_ZN8UnitTest15MemoryOutS
 1504              	.LCOLDE55:
 1505              		.section	.text._ZN8UnitTest15MemoryOutStreamD1Ev,"axG",@progbits,_ZN8UnitTest15MemoryOutStreamD1Ev
 1506              	.LHOTE55:
 1507              		.set	.LTHUNK0,_ZN8UnitTest15MemoryOutStreamD1Ev
 1508              		.section	.text.unlikely._ZTv0_n24_N8UnitTest15MemoryOutStreamD1Ev,"axG",@progbits,_ZN8UnitTest15Me
 1509              	.LCOLDB56:
 1510              		.section	.text._ZN8UnitTest15MemoryOutStreamD1Ev,"axG",@progbits,_ZN8UnitTest15MemoryOutStreamD1Ev
 1511              	.LHOTB56:
 1512              		.p2align 4,,15
 1513              		.weak	_ZTv0_n24_N8UnitTest15MemoryOutStreamD1Ev
 1515              	_ZTv0_n24_N8UnitTest15MemoryOutStreamD1Ev:
 1516              	.LFB1601:
 1517              		.cfi_startproc
 1518 0080 4C8B17   		movq	(%rdi), %r10
 1519 0083 49037AE8 		addq	-24(%r10), %rdi
 1520 0087 E974FFFF 		jmp	.LTHUNK0
 1520      FF
 1521              		.cfi_endproc
 1522              	.LFE1601:
 1524              		.section	.text.unlikely._ZTv0_n24_N8UnitTest15MemoryOutStreamD1Ev,"axG",@progbits,_ZN8UnitTest15Me
 1525              	.LCOLDE56:
 1526              		.section	.text._ZN8UnitTest15MemoryOutStreamD1Ev,"axG",@progbits,_ZN8UnitTest15MemoryOutStreamD1Ev
 1527              	.LHOTE56:
 1528              		.section	.text.unlikely._ZN8UnitTest15MemoryOutStreamD0Ev,"axG",@progbits,_ZN8UnitTest15MemoryOutS
 1529              		.align 2
 1530              	.LCOLDB57:
 1531              		.section	.text._ZN8UnitTest15MemoryOutStreamD0Ev,"axG",@progbits,_ZN8UnitTest15MemoryOutStreamD0Ev
 1532              	.LHOTB57:
 1533              		.align 2
 1534              		.p2align 4,,15
 1535              		.weak	_ZN8UnitTest15MemoryOutStreamD0Ev
 1537              	_ZN8UnitTest15MemoryOutStreamD0Ev:
 1538              	.LFB1557:
 1539              		.cfi_startproc
 1540 0000 53       		pushq	%rbx
 1541              		.cfi_def_cfa_offset 16
 1542              		.cfi_offset 3, -16
 1543 0001 4889FB   		movq	%rdi, %rbx
 1544 0004 48C70700 		movq	$_ZTVN8UnitTest15MemoryOutStreamE+24, (%rdi)
 1544      000000
 1545 000b 48C78790 		movq	$_ZTVN8UnitTest15MemoryOutStreamE+64, 144(%rdi)
 1545      00000000 
 1545      000000
 1546 0016 488B7F70 		movq	112(%rdi), %rdi
 1547 001a 488D8380 		leaq	128(%rbx), %rax
 1547      000000
 1548 0021 4839C7   		cmpq	%rax, %rdi
 1549 0024 7405     		je	.L95
 1550 0026 E8000000 		call	_ZdlPv
 1550      00
 1551              	.L95:
 1552 002b 488B7B50 		movq	80(%rbx), %rdi
 1553 002f 488D4360 		leaq	96(%rbx), %rax
 1554 0033 48C70300 		movq	$_ZTCN8UnitTest15MemoryOutStreamE0_NSt7__cxx1119basic_ostringstreamIcSt11char_traitsIcESaIcEE
 1554      000000
 1555 003a 48C78390 		movq	$_ZTCN8UnitTest15MemoryOutStreamE0_NSt7__cxx1119basic_ostringstreamIcSt11char_traitsIcESaIcEE
 1555      00000000 
 1555      000000
 1556 0045 48C74308 		movq	$_ZTVNSt7__cxx1115basic_stringbufIcSt11char_traitsIcESaIcEEE+16, 8(%rbx)
 1556      00000000 
 1557 004d 4839C7   		cmpq	%rax, %rdi
 1558 0050 7405     		je	.L96
 1559 0052 E8000000 		call	_ZdlPv
 1559      00
 1560              	.L96:
 1561 0057 488D7B40 		leaq	64(%rbx), %rdi
 1562 005b 48C74308 		movq	$_ZTVSt15basic_streambufIcSt11char_traitsIcEE+16, 8(%rbx)
 1562      00000000 
 1563 0063 E8000000 		call	_ZNSt6localeD1Ev
 1563      00
 1564 0068 488DBB90 		leaq	144(%rbx), %rdi
 1564      000000
 1565 006f 48C78390 		movq	$_ZTVSt9basic_iosIcSt11char_traitsIcEE+16, 144(%rbx)
 1565      00000000 
 1565      000000
 1566 007a E8000000 		call	_ZNSt8ios_baseD2Ev
 1566      00
 1567 007f 4889DF   		movq	%rbx, %rdi
 1568 0082 5B       		popq	%rbx
 1569              		.cfi_def_cfa_offset 8
 1570 0083 E9000000 		jmp	_ZdlPv
 1570      00
 1571              		.cfi_endproc
 1572              	.LFE1557:
 1574              		.section	.text.unlikely._ZN8UnitTest15MemoryOutStreamD0Ev,"axG",@progbits,_ZN8UnitTest15MemoryOutS
 1575              	.LCOLDE57:
 1576              		.section	.text._ZN8UnitTest15MemoryOutStreamD0Ev,"axG",@progbits,_ZN8UnitTest15MemoryOutStreamD0Ev
 1577              	.LHOTE57:
 1578              		.set	.LTHUNK1,_ZN8UnitTest15MemoryOutStreamD0Ev
 1579              		.section	.text.unlikely._ZTv0_n24_N8UnitTest15MemoryOutStreamD0Ev,"axG",@progbits,_ZN8UnitTest15Me
 1580              	.LCOLDB58:
 1581              		.section	.text._ZN8UnitTest15MemoryOutStreamD0Ev,"axG",@progbits,_ZN8UnitTest15MemoryOutStreamD0Ev
 1582              	.LHOTB58:
 1583 0088 0F1F8400 		.p2align 4,,15
 1583      00000000 
 1584              		.weak	_ZTv0_n24_N8UnitTest15MemoryOutStreamD0Ev
 1586              	_ZTv0_n24_N8UnitTest15MemoryOutStreamD0Ev:
 1587              	.LFB1602:
 1588              		.cfi_startproc
 1589 0090 4C8B17   		movq	(%rdi), %r10
 1590 0093 49037AE8 		addq	-24(%r10), %rdi
 1591 0097 E964FFFF 		jmp	.LTHUNK1
 1591      FF
 1592              		.cfi_endproc
 1593              	.LFE1602:
 1595              		.section	.text.unlikely._ZTv0_n24_N8UnitTest15MemoryOutStreamD0Ev,"axG",@progbits,_ZN8UnitTest15Me
 1596              	.LCOLDE58:
 1597              		.section	.text._ZN8UnitTest15MemoryOutStreamD0Ev,"axG",@progbits,_ZN8UnitTest15MemoryOutStreamD0Ev
 1598              	.LHOTE58:
 1599              		.section	.text.unlikely._ZNSt7__cxx1115basic_stringbufIcSt11char_traitsIcESaIcEED2Ev,"axG",@progbi
 1600              		.align 2
 1601              	.LCOLDB59:
 1602              		.section	.text._ZNSt7__cxx1115basic_stringbufIcSt11char_traitsIcESaIcEED2Ev,"axG",@progbits,_ZNSt7
 1603              	.LHOTB59:
 1604              		.align 2
 1605              		.p2align 4,,15
 1606              		.weak	_ZNSt7__cxx1115basic_stringbufIcSt11char_traitsIcESaIcEED2Ev
 1608              	_ZNSt7__cxx1115basic_stringbufIcSt11char_traitsIcESaIcEED2Ev:
 1609              	.LFB1371:
 1610              		.cfi_startproc
 1611 0000 53       		pushq	%rbx
 1612              		.cfi_def_cfa_offset 16
 1613              		.cfi_offset 3, -16
 1614 0001 4889FB   		movq	%rdi, %rbx
 1615 0004 48C70700 		movq	$_ZTVNSt7__cxx1115basic_stringbufIcSt11char_traitsIcESaIcEEE+16, (%rdi)
 1615      000000
 1616 000b 488B7F48 		movq	72(%rdi), %rdi
 1617 000f 488D4358 		leaq	88(%rbx), %rax
 1618 0013 4839C7   		cmpq	%rax, %rdi
 1619 0016 7405     		je	.L99
 1620 0018 E8000000 		call	_ZdlPv
 1620      00
 1621              	.L99:
 1622 001d 48C70300 		movq	$_ZTVSt15basic_streambufIcSt11char_traitsIcEE+16, (%rbx)
 1622      000000
 1623 0024 488D7B38 		leaq	56(%rbx), %rdi
 1624 0028 5B       		popq	%rbx
 1625              		.cfi_def_cfa_offset 8
 1626 0029 E9000000 		jmp	_ZNSt6localeD1Ev
 1626      00
 1627              		.cfi_endproc
 1628              	.LFE1371:
 1630              		.section	.text.unlikely._ZNSt7__cxx1115basic_stringbufIcSt11char_traitsIcESaIcEED2Ev,"axG",@progbi
 1631              	.LCOLDE59:
 1632              		.section	.text._ZNSt7__cxx1115basic_stringbufIcSt11char_traitsIcESaIcEED2Ev,"axG",@progbits,_ZNSt7
 1633              	.LHOTE59:
 1634              		.weak	_ZNSt7__cxx1115basic_stringbufIcSt11char_traitsIcESaIcEED1Ev
 1635              		.set	_ZNSt7__cxx1115basic_stringbufIcSt11char_traitsIcESaIcEED1Ev,_ZNSt7__cxx1115basic_stringbufIc
 1636              		.section	.text.unlikely._ZN8UnitTest15MemoryOutStreamC1Ev,"axG",@progbits,_ZN8UnitTest15MemoryOutS
 1637              		.align 2
 1638              	.LCOLDB60:
 1639              		.section	.text._ZN8UnitTest15MemoryOutStreamC1Ev,"axG",@progbits,_ZN8UnitTest15MemoryOutStreamC1Ev
 1640              	.LHOTB60:
 1641              		.align 2
 1642              		.p2align 4,,15
 1643              		.weak	_ZN8UnitTest15MemoryOutStreamC1Ev
 1645              	_ZN8UnitTest15MemoryOutStreamC1Ev:
 1646              	.LFB1084:
 1647              		.cfi_startproc
 1648              		.cfi_personality 0x3,__gxx_personality_v0
 1649              		.cfi_lsda 0x3,.LLSDA1084
 1650 0000 4155     		pushq	%r13
 1651              		.cfi_def_cfa_offset 16
 1652              		.cfi_offset 13, -16
 1653 0002 4154     		pushq	%r12
 1654              		.cfi_def_cfa_offset 24
 1655              		.cfi_offset 12, -24
 1656 0004 55       		pushq	%rbp
 1657              		.cfi_def_cfa_offset 32
 1658              		.cfi_offset 6, -32
 1659 0005 488DAF90 		leaq	144(%rdi), %rbp
 1659      000000
 1660 000c 53       		pushq	%rbx
 1661              		.cfi_def_cfa_offset 40
 1662              		.cfi_offset 3, -40
 1663 000d 4889FB   		movq	%rdi, %rbx
 1664 0010 4883EC08 		subq	$8, %rsp
 1665              		.cfi_def_cfa_offset 48
 1666 0014 4889EF   		movq	%rbp, %rdi
 1667 0017 E8000000 		call	_ZNSt8ios_baseC2Ev
 1667      00
 1668 001c 48C78368 		movq	$0, 360(%rbx)
 1668      01000000 
 1668      000000
 1669 0027 C6837001 		movb	$0, 368(%rbx)
 1669      000000
 1670 002e 31F6     		xorl	%esi, %esi
 1671 0030 C6837101 		movb	$0, 369(%rbx)
 1671      000000
 1672 0037 48C78378 		movq	$0, 376(%rbx)
 1672      01000000 
 1672      000000
 1673 0042 4889EF   		movq	%rbp, %rdi
 1674 0045 48C78380 		movq	$0, 384(%rbx)
 1674      01000000 
 1674      000000
 1675 0050 48C78388 		movq	$0, 392(%rbx)
 1675      01000000 
 1675      000000
 1676 005b 48C78390 		movq	$0, 400(%rbx)
 1676      01000000 
 1676      000000
 1677 0066 48C70300 		movq	$_ZTCN8UnitTest15MemoryOutStreamE0_So+24, (%rbx)
 1677      000000
 1678 006d 48C78390 		movq	$_ZTCN8UnitTest15MemoryOutStreamE0_So+64, 144(%rbx)
 1678      00000000 
 1678      000000
 1679              	.LEHB3:
 1680 0078 E8000000 		call	_ZNSt9basic_iosIcSt11char_traitsIcEE4initEPSt15basic_streambufIcS1_E
 1680      00
 1681              	.LEHE3:
 1682 007d 488D7B40 		leaq	64(%rbx), %rdi
 1683 0081 48C70300 		movq	$_ZTCN8UnitTest15MemoryOutStreamE0_NSt7__cxx1119basic_ostringstreamIcSt11char_traitsIcESaIcEE
 1683      000000
 1684 0088 48C78390 		movq	$_ZTCN8UnitTest15MemoryOutStreamE0_NSt7__cxx1119basic_ostringstreamIcSt11char_traitsIcESaIcEE
 1684      00000000 
 1684      000000
 1685 0093 48C74308 		movq	$_ZTVSt15basic_streambufIcSt11char_traitsIcEE+16, 8(%rbx)
 1685      00000000 
 1686 009b 48C74310 		movq	$0, 16(%rbx)
 1686      00000000 
 1687 00a3 4C8D6308 		leaq	8(%rbx), %r12
 1688 00a7 48C74318 		movq	$0, 24(%rbx)
 1688      00000000 
 1689 00af 48C74320 		movq	$0, 32(%rbx)
 1689      00000000 
 1690 00b7 48C74328 		movq	$0, 40(%rbx)
 1690      00000000 
 1691 00bf 48C74330 		movq	$0, 48(%rbx)
 1691      00000000 
 1692 00c7 48C74338 		movq	$0, 56(%rbx)
 1692      00000000 
 1693 00cf E8000000 		call	_ZNSt6localeC1Ev
 1693      00
 1694 00d4 488D4360 		leaq	96(%rbx), %rax
 1695 00d8 48C74358 		movq	$0, 88(%rbx)
 1695      00000000 
 1696 00e0 C6436000 		movb	$0, 96(%rbx)
 1697 00e4 4889DF   		movq	%rbx, %rdi
 1698 00e7 48C74308 		movq	$_ZTVNSt7__cxx1115basic_stringbufIcSt11char_traitsIcESaIcEEE+16, 8(%rbx)
 1698      00000000 
 1699 00ef C7434810 		movl	$16, 72(%rbx)
 1699      000000
 1700 00f6 48894350 		movq	%rax, 80(%rbx)
 1701 00fa 488B03   		movq	(%rbx), %rax
 1702 00fd 4C89E6   		movq	%r12, %rsi
 1703 0100 480378E8 		addq	-24(%rax), %rdi
 1704              	.LEHB4:
 1705 0104 E8000000 		call	_ZNSt9basic_iosIcSt11char_traitsIcEE4initEPSt15basic_streambufIcS1_E
 1705      00
 1706              	.LEHE4:
 1707 0109 488D8380 		leaq	128(%rbx), %rax
 1707      000000
 1708 0110 48C70300 		movq	$_ZTVN8UnitTest15MemoryOutStreamE+24, (%rbx)
 1708      000000
 1709 0117 48C78390 		movq	$_ZTVN8UnitTest15MemoryOutStreamE+64, 144(%rbx)
 1709      00000000 
 1709      000000
 1710 0122 48C74378 		movq	$0, 120(%rbx)
 1710      00000000 
 1711 012a C6838000 		movb	$0, 128(%rbx)
 1711      000000
 1712 0131 48894370 		movq	%rax, 112(%rbx)
 1713 0135 4883C408 		addq	$8, %rsp
 1714              		.cfi_remember_state
 1715              		.cfi_def_cfa_offset 40
 1716 0139 5B       		popq	%rbx
 1717              		.cfi_def_cfa_offset 32
 1718 013a 5D       		popq	%rbp
 1719              		.cfi_def_cfa_offset 24
 1720 013b 415C     		popq	%r12
 1721              		.cfi_def_cfa_offset 16
 1722 013d 415D     		popq	%r13
 1723              		.cfi_def_cfa_offset 8
 1724 013f C3       		ret
 1725              	.L105:
 1726              		.cfi_restore_state
 1727 0140 4989C4   		movq	%rax, %r12
 1728 0143 EB0E     		jmp	.L104
 1729              	.L106:
 1730 0145 4989C5   		movq	%rax, %r13
 1731              	.L103:
 1732 0148 4C89E7   		movq	%r12, %rdi
 1733 014b 4D89EC   		movq	%r13, %r12
 1734 014e E8000000 		call	_ZNSt7__cxx1115basic_stringbufIcSt11char_traitsIcESaIcEED1Ev
 1734      00
 1735              	.L104:
 1736 0153 4889EF   		movq	%rbp, %rdi
 1737 0156 48C78390 		movq	$_ZTVSt9basic_iosIcSt11char_traitsIcEE+16, 144(%rbx)
 1737      00000000 
 1737      000000
 1738 0161 E8000000 		call	_ZNSt8ios_baseD2Ev
 1738      00
 1739 0166 4C89E7   		movq	%r12, %rdi
 1740              	.LEHB5:
 1741 0169 E8000000 		call	_Unwind_Resume
 1741      00
 1742              	.LEHE5:
 1743              		.cfi_endproc
 1744              	.LFE1084:
 1745              		.section	.gcc_except_table
 1746              	.LLSDA1084:
 1747 0010 FF       		.byte	0xff
 1748 0011 FF       		.byte	0xff
 1749 0012 01       		.byte	0x1
 1750 0013 10       		.uleb128 .LLSDACSE1084-.LLSDACSB1084
 1751              	.LLSDACSB1084:
 1752 0014 78       		.uleb128 .LEHB3-.LFB1084
 1753 0015 05       		.uleb128 .LEHE3-.LEHB3
 1754 0016 C002     		.uleb128 .L105-.LFB1084
 1755 0018 00       		.uleb128 0
 1756 0019 8402     		.uleb128 .LEHB4-.LFB1084
 1757 001b 05       		.uleb128 .LEHE4-.LEHB4
 1758 001c C502     		.uleb128 .L106-.LFB1084
 1759 001e 00       		.uleb128 0
 1760 001f E902     		.uleb128 .LEHB5-.LFB1084
 1761 0021 05       		.uleb128 .LEHE5-.LEHB5
 1762 0022 00       		.uleb128 0
 1763 0023 00       		.uleb128 0
 1764              	.LLSDACSE1084:
 1765              		.section	.text._ZN8UnitTest15MemoryOutStreamC1Ev,"axG",@progbits,_ZN8UnitTest15MemoryOutStreamC1Ev
 1767              		.section	.text.unlikely._ZN8UnitTest15MemoryOutStreamC1Ev,"axG",@progbits,_ZN8UnitTest15MemoryOutS
 1768              	.LCOLDE60:
 1769              		.section	.text._ZN8UnitTest15MemoryOutStreamC1Ev,"axG",@progbits,_ZN8UnitTest15MemoryOutStreamC1Ev
 1770              	.LHOTE60:
 1771              		.section	.rodata.str1.1
 1772              	.LC61:
 1773 0012 556E6861 		.string	"Unhandled system exception"
 1773      6E646C65 
 1773      64207379 
 1773      7374656D 
 1773      20657863 
 1774              	.LC62:
 1775 002d 66696C65 		.string	"filename"
 1775      6E616D65 
 1775      00
 1776              	.LC63:
 1777 0036 736F6D65 		.string	"somesuite"
 1777      73756974 
 1777      6500
 1778              	.LC64:
 1779 0040 736C6F77 		.string	"slow"
 1779      00
 1780              		.section	.rodata.str1.8,"aMS",@progbits,1
 1781              		.align 8
 1782              	.LC67:
 1783 0000 7265706F 		.string	"reporter.lastFinishedTestTime >= 0.005f && reporter.lastFinishedTestTime <= 0.050f"
 1783      72746572 
 1783      2E6C6173 
 1783      7446696E 
 1783      69736865 
 1784 0053 00000000 		.align 8
 1784      00
 1785              	.LC68:
 1786 0058 556E6861 		.string	"Unhandled exception in CHECK(reporter.lastFinishedTestTime >= 0.005f && reporter.lastFini
 1786      6E646C65 
 1786      64206578 
 1786      63657074 
 1786      696F6E20 
 1787              		.section	.rodata.str1.1
 1788              	.LC69:
 1789 0045 556E6861 		.string	"Unhandled exception: "
 1789      6E646C65 
 1789      64206578 
 1789      63657074 
 1789      696F6E3A 
 1790              	.LC70:
 1791 005b 556E6861 		.string	"Unhandled exception: Crash!"
 1791      6E646C65 
 1791      64206578 
 1791      63657074 
 1791      696F6E3A 
 1792              		.section	.text.unlikely
 1793              	.LCOLDB71:
 1794              		.text
 1795              	.LHOTB71:
 1796 048d 0F1F00   		.p2align 4,,15
 1798              	_ZN8UnitTest11ExecuteTestIN12_GLOBAL__N_156TestRunnerFixtureTestFinishIsCalledWithCorrectTimeHelper
 1799              	.LFB1578:
 1800              		.cfi_startproc
 1801              		.cfi_personality 0x3,__gxx_personality_v0
 1802              		.cfi_lsda 0x3,.LLSDA1578
 1803 0490 4155     		pushq	%r13
 1804              		.cfi_def_cfa_offset 16
 1805              		.cfi_offset 13, -16
 1806 0492 4154     		pushq	%r12
 1807              		.cfi_def_cfa_offset 24
 1808              		.cfi_offset 12, -24
 1809 0494 55       		pushq	%rbp
 1810              		.cfi_def_cfa_offset 32
 1811              		.cfi_offset 6, -32
 1812 0495 53       		pushq	%rbx
 1813              		.cfi_def_cfa_offset 40
 1814              		.cfi_offset 3, -40
 1815 0496 4889F3   		movq	%rsi, %rbx
 1816 0499 4881ECC8 		subq	$1736, %rsp
 1816      060000
 1817              		.cfi_def_cfa_offset 1776
 1818 04a0 48893C24 		movq	%rdi, (%rsp)
 1819 04a4 48897424 		movq	%rsi, 8(%rsp)
 1819      08
 1820 04a9 64488B04 		movq	%fs:40, %rax
 1820      25280000 
 1820      00
 1821 04b2 48898424 		movq	%rax, 1720(%rsp)
 1821      B8060000 
 1822 04ba 31C0     		xorl	%eax, %eax
 1823              	.LEHB6:
 1824 04bc E8000000 		call	_ZN8UnitTest11CurrentTest7DetailsEv
 1824      00
 1825              	.LEHE6:
 1826 04c1 488DBC24 		leaq	592(%rsp), %rdi
 1826      50020000 
 1827 04c9 488918   		movq	%rbx, (%rax)
 1828              	.LEHB7:
 1829 04cc E8000000 		call	_ZN8UnitTest16SignalTranslatorC1Ev
 1829      00
 1830              	.LEHE7:
 1831 04d1 488B3D00 		movq	_ZN8UnitTest16SignalTranslator12s_jumpTargetE(%rip), %rdi
 1831      000000
 1832 04d8 BE010000 		movl	$1, %esi
 1832      00
 1833 04dd E8000000 		call	__sigsetjmp
 1833      00
 1834 04e2 85C0     		testl	%eax, %eax
 1835 04e4 742A     		je	.L153
 1836 04e6 BF080000 		movl	$8, %edi
 1836      00
 1837 04eb E8000000 		call	__cxa_allocate_exception
 1837      00
 1838 04f0 31D2     		xorl	%edx, %edx
 1839 04f2 48C70000 		movq	$.LC61, (%rax)
 1839      000000
 1840 04f9 BE000000 		movl	$_ZTIPKc, %esi
 1840      00
 1841 04fe 4889C7   		movq	%rax, %rdi
 1842              	.LEHB8:
 1843 0501 E8000000 		call	__cxa_throw
 1843      00
 1844 0506 662E0F1F 		.p2align 4,,10
 1844      84000000 
 1844      0000
 1845              		.p2align 3
 1846              	.L153:
 1847 0510 488D7C24 		leaq	112(%rsp), %rdi
 1847      70
 1848 0515 41B87B00 		movl	$123, %r8d
 1848      0000
 1849 051b B9000000 		movl	$.LC62, %ecx
 1849      00
 1850 0520 BA000000 		movl	$.LC63, %edx
 1850      00
 1851 0525 BE000000 		movl	$.LC64, %esi
 1851      00
 1852 052a E8000000 		call	_ZN8UnitTest4TestC2EPKcS2_S2_i
 1852      00
 1853              	.LEHE8:
 1854 052f 488B2C24 		movq	(%rsp), %rbp
 1855 0533 488D7424 		leaq	112(%rsp), %rsi
 1855      70
 1856 0538 48C74424 		movq	$_ZTVN12_GLOBAL__N_18SlowTestE+16, 112(%rsp)
 1856      70000000 
 1856      00
 1857 0541 488D9D48 		leaq	2120(%rbp), %rbx
 1857      080000
 1858 0548 4889DF   		movq	%rbx, %rdi
 1859              	.LEHB9:
 1860 054b E8000000 		call	_ZN8UnitTest8TestList3AddEPNS_4TestE
 1860      00
 1861 0550 E8000000 		call	_ZN8UnitTest11CurrentTest7ResultsEv
 1861      00
 1862 0555 4C8B20   		movq	(%rax), %r12
 1863 0558 E8000000 		call	_ZN8UnitTest11CurrentTest7DetailsEv
 1863      00
 1864 055d 4889DF   		movq	%rbx, %rdi
 1865 0560 4C8B28   		movq	(%rax), %r13
 1866 0563 E8000000 		call	_ZNK8UnitTest8TestList7GetHeadEv
 1866      00
 1867 0568 4885C0   		testq	%rax, %rax
 1868 056b 4889C3   		movq	%rax, %rbx
 1869 056e 742F     		je	.L117
 1870              		.p2align 4,,10
 1871              		.p2align 3
 1872              	.L152:
 1873 0570 31D2     		xorl	%edx, %edx
 1874 0572 4889DE   		movq	%rbx, %rsi
 1875 0575 4889EF   		movq	%rbp, %rdi
 1876 0578 E8000000 		call	_ZNK8UnitTest10TestRunner13IsTestInSuiteEPKNS_4TestEPKc
 1876      00
 1877 057d 84C0     		testb	%al, %al
 1878 057f 7415     		je	.L139
 1879 0581 488B0424 		movq	(%rsp), %rax
 1880 0585 31C9     		xorl	%ecx, %ecx
 1881 0587 4889DA   		movq	%rbx, %rdx
 1882 058a 4889EF   		movq	%rbp, %rdi
 1883 058d 488B7008 		movq	8(%rax), %rsi
 1884 0591 E8000000 		call	_ZNK8UnitTest10TestRunner7RunTestEPNS_11TestResultsEPNS_4TestEi
 1884      00
 1885              	.L139:
 1886 0596 488B5B28 		movq	40(%rbx), %rbx
 1887 059a 4885DB   		testq	%rbx, %rbx
 1888 059d 75D1     		jne	.L152
 1889              	.L117:
 1890 059f 488B3C24 		movq	(%rsp), %rdi
 1891 05a3 E8000000 		call	_ZNK8UnitTest10TestRunner6FinishEv
 1891      00
 1892 05a8 E8000000 		call	_ZN8UnitTest11CurrentTest7ResultsEv
 1892      00
 1893 05ad 4C8920   		movq	%r12, (%rax)
 1894 05b0 E8000000 		call	_ZN8UnitTest11CurrentTest7DetailsEv
 1894      00
 1895              	.LEHE9:
 1896 05b5 4C8928   		movq	%r13, (%rax)
 1897 05b8 488B0424 		movq	(%rsp), %rax
 1898 05bc F30F1080 		movss	2096(%rax), %xmm0
 1898      30080000 
 1899 05c4 0F2E0500 		ucomiss	.LC65(%rip), %xmm0
 1899      000000
 1900 05cb 7373     		jnb	.L163
 1901              	.L119:
 1902              	.LEHB10:
 1903 05cd E8000000 		call	_ZN8UnitTest11CurrentTest7DetailsEv
 1903      00
 1904 05d2 488B30   		movq	(%rax), %rsi
 1905 05d5 488D7C24 		leaq	80(%rsp), %rdi
 1905      50
 1906 05da BA620000 		movl	$98, %edx
 1906      00
 1907 05df E8000000 		call	_ZN8UnitTest11TestDetailsC1ERKS0_i
 1907      00
 1908 05e4 E8000000 		call	_ZN8UnitTest11CurrentTest7ResultsEv
 1908      00
 1909 05e9 488B38   		movq	(%rax), %rdi
 1910 05ec 488D7424 		leaq	80(%rsp), %rsi
 1910      50
 1911 05f1 BA000000 		movl	$.LC67, %edx
 1911      00
 1912 05f6 E8000000 		call	_ZN8UnitTest11TestResults13OnTestFailureERKNS_11TestDetailsEPKc
 1912      00
 1913              	.LEHE10:
 1914              	.L122:
 1915 05fb 488D7C24 		leaq	112(%rsp), %rdi
 1915      70
 1916 0600 48C74424 		movq	$_ZTVN12_GLOBAL__N_18SlowTestE+16, 112(%rsp)
 1916      70000000 
 1916      00
 1917              	.LEHB11:
 1918 0609 E8000000 		call	_ZN8UnitTest4TestD2Ev
 1918      00
 1919              	.LEHE11:
 1920 060e 488DBC24 		leaq	592(%rsp), %rdi
 1920      50020000 
 1921              	.LEHB12:
 1922 0616 E8000000 		call	_ZN8UnitTest16SignalTranslatorD1Ev
 1922      00
 1923              	.LEHE12:
 1924              	.L111:
 1925 061b 488B8424 		movq	1720(%rsp), %rax
 1925      B8060000 
 1926 0623 64483304 		xorq	%fs:40, %rax
 1926      25280000 
 1926      00
 1927 062c 0F851101 		jne	.L164
 1927      0000
 1928 0632 4881C4C8 		addq	$1736, %rsp
 1928      060000
 1929              		.cfi_remember_state
 1930              		.cfi_def_cfa_offset 40
 1931 0639 5B       		popq	%rbx
 1932              		.cfi_def_cfa_offset 32
 1933 063a 5D       		popq	%rbp
 1934              		.cfi_def_cfa_offset 24
 1935 063b 415C     		popq	%r12
 1936              		.cfi_def_cfa_offset 16
 1937 063d 415D     		popq	%r13
 1938              		.cfi_def_cfa_offset 8
 1939 063f C3       		ret
 1940              		.p2align 4,,10
 1941              		.p2align 3
 1942              	.L163:
 1943              		.cfi_restore_state
 1944 0640 F30F100D 		movss	.LC66(%rip), %xmm1
 1944      00000000 
 1945 0648 0F2EC8   		ucomiss	%xmm0, %xmm1
 1946 064b 73AE     		jnb	.L122
 1947 064d E97BFFFF 		jmp	.L119
 1947      FF
 1948              	.L147:
 1949 0652 4889C3   		movq	%rax, %rbx
 1950 0655 4889D5   		movq	%rdx, %rbp
 1951              	.L128:
 1952 0658 488DBC24 		leaq	592(%rsp), %rdi
 1952      50020000 
 1953 0660 E8000000 		call	_ZN8UnitTest16SignalTranslatorD1Ev
 1953      00
 1954 0665 4889DF   		movq	%rbx, %rdi
 1955 0668 4889EA   		movq	%rbp, %rdx
 1956              	.L129:
 1957 066b 4883FA01 		cmpq	$1, %rdx
 1958 066f 0F844E01 		je	.L131
 1958      0000
 1959 0675 4883FA02 		cmpq	$2, %rdx
 1960 0679 0F851E01 		jne	.L165
 1960      0000
 1961 067f E8000000 		call	__cxa_begin_catch
 1961      00
 1962 0684 488DBC24 		leaq	176(%rsp), %rdi
 1962      B0000000 
 1963 068c 4889C3   		movq	%rax, %rbx
 1964              	.LEHB13:
 1965 068f E8000000 		call	_ZN8UnitTest15MemoryOutStreamC1Ev
 1965      00
 1966              	.LEHE13:
 1967 0694 488B03   		movq	(%rbx), %rax
 1968 0697 4889DF   		movq	%rbx, %rdi
 1969 069a FF5010   		call	*16(%rax)
 1970 069d 488DBC24 		leaq	176(%rsp), %rdi
 1970      B0000000 
 1971 06a5 BA150000 		movl	$21, %edx
 1971      00
 1972 06aa BE000000 		movl	$.LC69, %esi
 1972      00
 1973 06af 4889C3   		movq	%rax, %rbx
 1974              	.LEHB14:
 1975 06b2 E8000000 		call	_ZSt16__ostream_insertIcSt11char_traitsIcEERSt13basic_ostreamIT_T0_ES6_PKS3_l
 1975      00
 1976 06b7 488DBC24 		leaq	176(%rsp), %rdi
 1976      B0000000 
 1977 06bf 4889DE   		movq	%rbx, %rsi
 1978 06c2 E8000000 		call	_ZStlsISt11char_traitsIcEERSt13basic_ostreamIcT_ES5_PKc
 1978      00
 1979 06c7 488DBC24 		leaq	176(%rsp), %rdi
 1979      B0000000 
 1980 06cf E8000000 		call	_ZNK8UnitTest15MemoryOutStream7GetTextEv
 1980      00
 1981 06d4 4889C3   		movq	%rax, %rbx
 1982 06d7 E8000000 		call	_ZN8UnitTest11CurrentTest7ResultsEv
 1982      00
 1983 06dc 488B7424 		movq	8(%rsp), %rsi
 1983      08
 1984 06e1 488B38   		movq	(%rax), %rdi
 1985 06e4 4889DA   		movq	%rbx, %rdx
 1986 06e7 E8000000 		call	_ZN8UnitTest11TestResults13OnTestFailureERKNS_11TestDetailsEPKc
 1986      00
 1987              	.LEHE14:
 1988 06ec 488DBC24 		leaq	176(%rsp), %rdi
 1988      B0000000 
 1989              	.LEHB15:
 1990 06f4 E8000000 		call	_ZN8UnitTest15MemoryOutStreamD1Ev
 1990      00
 1991              	.LEHE15:
 1992              	.L158:
 1993 06f9 E8000000 		call	__cxa_end_catch
 1993      00
 1994 06fe E918FFFF 		jmp	.L111
 1994      FF
 1995              	.L150:
 1996 0703 4889C7   		movq	%rax, %rdi
 1997 0706 E8000000 		call	__cxa_begin_catch
 1997      00
 1998              	.LEHB16:
 1999 070b E8000000 		call	_ZN8UnitTest11CurrentTest7DetailsEv
 1999      00
 2000 0710 488B30   		movq	(%rax), %rsi
 2001 0713 488D7C24 		leaq	48(%rsp), %rdi
 2001      30
 2002 0718 BA620000 		movl	$98, %edx
 2002      00
 2003 071d E8000000 		call	_ZN8UnitTest11TestDetailsC1ERKS0_i
 2003      00
 2004 0722 E8000000 		call	_ZN8UnitTest11CurrentTest7ResultsEv
 2004      00
 2005 0727 488B38   		movq	(%rax), %rdi
 2006 072a 488D7424 		leaq	48(%rsp), %rsi
 2006      30
 2007 072f BA000000 		movl	$.LC68, %edx
 2007      00
 2008 0734 E8000000 		call	_ZN8UnitTest11TestResults13OnTestFailureERKNS_11TestDetailsEPKc
 2008      00
 2009              	.LEHE16:
 2010              	.LEHB17:
 2011 0739 E8000000 		call	__cxa_end_catch
 2011      00
 2012              	.LEHE17:
 2013 073e E9B8FEFF 		jmp	.L122
 2013      FF
 2014              	.L164:
 2015 0743 E8000000 		call	__stack_chk_fail
 2015      00
 2016              	.L149:
 2017 0748 4889C3   		movq	%rax, %rbx
 2018 074b 4889D5   		movq	%rdx, %rbp
 2019 074e E8000000 		call	__cxa_end_catch
 2019      00
 2020              	.L127:
 2021 0753 488D7C24 		leaq	112(%rsp), %rdi
 2021      70
 2022 0758 48C74424 		movq	$_ZTVN12_GLOBAL__N_18SlowTestE+16, 112(%rsp)
 2022      70000000 
 2022      00
 2023 0761 E8000000 		call	_ZN8UnitTest4TestD2Ev
 2023      00
 2024 0766 E9EDFEFF 		jmp	.L128
 2024      FF
 2025              	.L146:
 2026 076b 4889C7   		movq	%rax, %rdi
 2027 076e E9F8FEFF 		jmp	.L129
 2027      FF
 2028              	.L148:
 2029 0773 4889C3   		movq	%rax, %rbx
 2030 0776 4889D5   		movq	%rdx, %rbp
 2031 0779 EBD8     		jmp	.L127
 2032              	.L144:
 2033 077b 488DBC24 		leaq	176(%rsp), %rdi
 2033      B0000000 
 2034 0783 4889C3   		movq	%rax, %rbx
 2035 0786 E8000000 		call	_ZN8UnitTest15MemoryOutStreamD1Ev
 2035      00
 2036              	.L137:
 2037 078b E8000000 		call	__cxa_end_catch
 2037      00
 2038 0790 4889DF   		movq	%rbx, %rdi
 2039              	.LEHB18:
 2040 0793 E8000000 		call	_Unwind_Resume
 2040      00
 2041              	.LEHE18:
 2042              	.L143:
 2043              	.L159:
 2044 0798 4889C3   		movq	%rax, %rbx
 2045 079b EBEE     		jmp	.L137
 2046              	.L165:
 2047 079d E8000000 		call	__cxa_begin_catch
 2047      00
 2048              	.LEHB19:
 2049 07a2 E8000000 		call	_ZN8UnitTest11CurrentTest7ResultsEv
 2049      00
 2050 07a7 488B7424 		movq	8(%rsp), %rsi
 2050      08
 2051 07ac 488B38   		movq	(%rax), %rdi
 2052 07af BA000000 		movl	$.LC70, %edx
 2052      00
 2053 07b4 E8000000 		call	_ZN8UnitTest11TestResults13OnTestFailureERKNS_11TestDetailsEPKc
 2053      00
 2054              	.LEHE19:
 2055              	.LEHB20:
 2056 07b9 E8000000 		call	__cxa_end_catch
 2056      00
 2057              	.LEHE20:
 2058 07be E958FEFF 		jmp	.L111
 2058      FF
 2059              	.L131:
 2060 07c3 E8000000 		call	__cxa_begin_catch
 2060      00
 2061 07c8 4889C3   		movq	%rax, %rbx
 2062 07cb 488B00   		movq	(%rax), %rax
 2063 07ce 4889DF   		movq	%rbx, %rdi
 2064 07d1 FF5010   		call	*16(%rax)
 2065 07d4 4889DF   		movq	%rbx, %rdi
 2066 07d7 4889C5   		movq	%rax, %rbp
 2067              	.LEHB21:
 2068 07da E8000000 		call	_ZNK8UnitTest15AssertException10LineNumberEv
 2068      00
 2069 07df 4889DF   		movq	%rbx, %rdi
 2070 07e2 4189C4   		movl	%eax, %r12d
 2071 07e5 E8000000 		call	_ZNK8UnitTest15AssertException8FilenameEv
 2071      00
 2072 07ea 488B5424 		movq	8(%rsp), %rdx
 2072      08
 2073 07ef 488D7C24 		leaq	16(%rsp), %rdi
 2073      10
 2074 07f4 4589E0   		movl	%r12d, %r8d
 2075 07f7 4889C1   		movq	%rax, %rcx
 2076 07fa 488B7208 		movq	8(%rdx), %rsi
 2077 07fe 488B12   		movq	(%rdx), %rdx
 2078 0801 E8000000 		call	_ZN8UnitTest11TestDetailsC1EPKcS2_S2_i
 2078      00
 2079 0806 E8000000 		call	_ZN8UnitTest11CurrentTest7ResultsEv
 2079      00
 2080 080b 488B38   		movq	(%rax), %rdi
 2081 080e 488D7424 		leaq	16(%rsp), %rsi
 2081      10
 2082 0813 4889EA   		movq	%rbp, %rdx
 2083 0816 E8000000 		call	_ZN8UnitTest11TestResults13OnTestFailureERKNS_11TestDetailsEPKc
 2083      00
 2084              	.LEHE21:
 2085 081b E9D9FEFF 		jmp	.L158
 2085      FF
 2086              	.L142:
 2087 0820 4889C3   		movq	%rax, %rbx
 2088 0823 E8000000 		call	__cxa_end_catch
 2088      00
 2089 0828 4889DF   		movq	%rbx, %rdi
 2090              	.LEHB22:
 2091 082b E8000000 		call	_Unwind_Resume
 2091      00
 2092              	.LEHE22:
 2093              	.L145:
 2094 0830 E963FFFF 		jmp	.L159
 2094      FF
 2095              		.cfi_endproc
 2096              	.LFE1578:
 2097              		.section	.gcc_except_table
 2098              		.align 4
 2099              	.LLSDA1578:
 2100 0024 FF       		.byte	0xff
 2101 0025 03       		.byte	0x3
 2102 0026 75       		.uleb128 .LLSDATT1578-.LLSDATTD1578
 2103              	.LLSDATTD1578:
 2104 0027 01       		.byte	0x1
 2105 0028 5F       		.uleb128 .LLSDACSE1578-.LLSDACSB1578
 2106              	.LLSDACSB1578:
 2107 0029 2C       		.uleb128 .LEHB6-.LFB1578
 2108 002a 05       		.uleb128 .LEHE6-.LEHB6
 2109 002b 00       		.uleb128 0
 2110 002c 00       		.uleb128 0
 2111 002d 3C       		.uleb128 .LEHB7-.LFB1578
 2112 002e 05       		.uleb128 .LEHE7-.LEHB7
 2113 002f DB05     		.uleb128 .L146-.LFB1578
 2114 0031 05       		.uleb128 0x5
 2115 0032 71       		.uleb128 .LEHB8-.LFB1578
 2116 0033 2E       		.uleb128 .LEHE8-.LEHB8
 2117 0034 C203     		.uleb128 .L147-.LFB1578
 2118 0036 07       		.uleb128 0x7
 2119 0037 BB01     		.uleb128 .LEHB9-.LFB1578
 2120 0039 6A       		.uleb128 .LEHE9-.LEHB9
 2121 003a E305     		.uleb128 .L148-.LFB1578
 2122 003c 07       		.uleb128 0x7
 2123 003d BD02     		.uleb128 .LEHB10-.LFB1578
 2124 003f 2E       		.uleb128 .LEHE10-.LEHB10
 2125 0040 F304     		.uleb128 .L150-.LFB1578
 2126 0042 01       		.uleb128 0x1
 2127 0043 F902     		.uleb128 .LEHB11-.LFB1578
 2128 0045 05       		.uleb128 .LEHE11-.LEHB11
 2129 0046 C203     		.uleb128 .L147-.LFB1578
 2130 0048 07       		.uleb128 0x7
 2131 0049 8603     		.uleb128 .LEHB12-.LFB1578
 2132 004b 05       		.uleb128 .LEHE12-.LEHB12
 2133 004c DB05     		.uleb128 .L146-.LFB1578
 2134 004e 05       		.uleb128 0x5
 2135 004f FF03     		.uleb128 .LEHB13-.LFB1578
 2136 0051 05       		.uleb128 .LEHE13-.LEHB13
 2137 0052 8806     		.uleb128 .L143-.LFB1578
 2138 0054 00       		.uleb128 0
 2139 0055 A204     		.uleb128 .LEHB14-.LFB1578
 2140 0057 3A       		.uleb128 .LEHE14-.LEHB14
 2141 0058 EB05     		.uleb128 .L144-.LFB1578
 2142 005a 00       		.uleb128 0
 2143 005b E404     		.uleb128 .LEHB15-.LFB1578
 2144 005d 05       		.uleb128 .LEHE15-.LEHB15
 2145 005e 8806     		.uleb128 .L143-.LFB1578
 2146 0060 00       		.uleb128 0
 2147 0061 FB04     		.uleb128 .LEHB16-.LFB1578
 2148 0063 2E       		.uleb128 .LEHE16-.LEHB16
 2149 0064 B805     		.uleb128 .L149-.LFB1578
 2150 0066 07       		.uleb128 0x7
 2151 0067 A905     		.uleb128 .LEHB17-.LFB1578
 2152 0069 05       		.uleb128 .LEHE17-.LEHB17
 2153 006a E305     		.uleb128 .L148-.LFB1578
 2154 006c 07       		.uleb128 0x7
 2155 006d 8306     		.uleb128 .LEHB18-.LFB1578
 2156 006f 05       		.uleb128 .LEHE18-.LEHB18
 2157 0070 00       		.uleb128 0
 2158 0071 00       		.uleb128 0
 2159 0072 9206     		.uleb128 .LEHB19-.LFB1578
 2160 0074 17       		.uleb128 .LEHE19-.LEHB19
 2161 0075 9007     		.uleb128 .L142-.LFB1578
 2162 0077 00       		.uleb128 0
 2163 0078 A906     		.uleb128 .LEHB20-.LFB1578
 2164 007a 05       		.uleb128 .LEHE20-.LEHB20
 2165 007b 00       		.uleb128 0
 2166 007c 00       		.uleb128 0
 2167 007d CA06     		.uleb128 .LEHB21-.LFB1578
 2168 007f 41       		.uleb128 .LEHE21-.LEHB21
 2169 0080 A007     		.uleb128 .L145-.LFB1578
 2170 0082 00       		.uleb128 0
 2171 0083 9B07     		.uleb128 .LEHB22-.LFB1578
 2172 0085 05       		.uleb128 .LEHE22-.LEHB22
 2173 0086 00       		.uleb128 0
 2174 0087 00       		.uleb128 0
 2175              	.LLSDACSE1578:
 2176 0088 03       		.byte	0x3
 2177 0089 00       		.byte	0
 2178 008a 02       		.byte	0x2
 2179 008b 7D       		.byte	0x7d
 2180 008c 01       		.byte	0x1
 2181 008d 7D       		.byte	0x7d
 2182 008e 00       		.byte	0
 2183 008f 7D       		.byte	0x7d
 2184              		.align 4
 2185 0090 00000000 		.long	0
 2186              	
 2187 0094 00000000 		.long	_ZTISt9exception
 2188 0098 00000000 		.long	_ZTIN8UnitTest15AssertExceptionE
 2189              	.LLSDATT1578:
 2190              		.text
 2192              		.section	.text.unlikely
 2193              	.LCOLDE71:
 2194              		.text
 2195              	.LHOTE71:
 2196              		.section	.rodata.str1.8
 2197 00c9 00000000 		.align 8
 2197      000000
 2198              	.LC73:
 2199 00d0 556E6861 		.string	"Unhandled exception while destroying fixture TestRunnerFixture"
 2199      6E646C65 
 2199      64206578 
 2199      63657074 
 2199      696F6E20 
 2200 010f 00       		.align 8
 2201              	.LC74:
 2202 0110 556E6861 		.string	"Unhandled exception while constructing fixture TestRunnerFixture"
 2202      6E646C65 
 2202      64206578 
 2202      63657074 
 2202      696F6E20 
 2203              		.section	.text.unlikely
 2204              		.align 2
 2205              	.LCOLDB75:
 2206              		.text
 2207              	.LHOTB75:
 2208 0835 90       		.align 2
 2209 0836 662E0F1F 		.p2align 4,,15
 2209      84000000 
 2209      0000
 2211              	_ZNK12_GLOBAL__N_154TestTestRunnerFixtureTestFinishIsCalledWithCorrectTime7RunImplEv:
 2212              	.LFB1185:
 2213              		.cfi_startproc
 2214              		.cfi_personality 0x3,__gxx_personality_v0
 2215              		.cfi_lsda 0x3,.LLSDA1185
 2216 0840 4155     		pushq	%r13
 2217              		.cfi_def_cfa_offset 16
 2218              		.cfi_offset 13, -16
 2219 0842 4154     		pushq	%r12
 2220              		.cfi_def_cfa_offset 24
 2221              		.cfi_offset 12, -24
 2222 0844 55       		pushq	%rbp
 2223              		.cfi_def_cfa_offset 32
 2224              		.cfi_offset 6, -32
 2225 0845 53       		pushq	%rbx
 2226              		.cfi_def_cfa_offset 40
 2227              		.cfi_offset 3, -40
 2228 0846 4889FD   		movq	%rdi, %rbp
 2229 0849 488D5F08 		leaq	8(%rdi), %rbx
 2230 084d 4881EC98 		subq	$2200, %rsp
 2230      080000
 2231              		.cfi_def_cfa_offset 2240
 2232 0854 64488B04 		movq	%fs:40, %rax
 2232      25280000 
 2232      00
 2233 085d 48898424 		movq	%rax, 2184(%rsp)
 2233      88080000 
 2234 0865 31C0     		xorl	%eax, %eax
 2235 0867 488D4424 		leaq	32(%rsp), %rax
 2235      20
 2236 086c 488D7424 		leaq	56(%rsp), %rsi
 2236      38
 2237 0871 4889C7   		movq	%rax, %rdi
 2238              	.LEHB23:
 2239 0874 E8000000 		call	_ZN8UnitTest10TestRunnerC1ERNS_12TestReporterE
 2239      00
 2240              	.LEHE23:
 2241 0879 488DBC24 		leaq	2152(%rsp), %rdi
 2241      68080000 
 2242 0881 48C74424 		movq	$_ZTV17RecordingReporter+16, 56(%rsp)
 2242      38000000 
 2242      00
 2243 088a C7442440 		movl	$0, 64(%rsp)
 2243      00000000 
 2244 0892 C7842444 		movl	$0, 580(%rsp)
 2244      02000000 
 2244      000000
 2245 089d C7842448 		movl	$0, 840(%rsp)
 2245      03000000 
 2245      000000
 2246 08a8 C784244C 		movl	$0, 1612(%rsp)
 2246      06000000 
 2246      000000
 2247 08b3 C7842450 		movl	$0x00000000, 2128(%rsp)
 2247      08000000 
 2247      000000
 2248 08be C7842454 		movl	$0, 2132(%rsp)
 2248      08000000 
 2248      000000
 2249 08c9 C7842458 		movl	$0, 2136(%rsp)
 2249      08000000 
 2249      000000
 2250 08d4 C784245C 		movl	$0, 2140(%rsp)
 2250      08000000 
 2250      000000
 2251 08df C7842460 		movl	$0x00000000, 2144(%rsp)
 2251      08000000 
 2251      000000
 2252 08ea C6442444 		movb	$0, 68(%rsp)
 2252      00
 2253 08ef C6842444 		movb	$0, 324(%rsp)
 2253      01000000 
 2254 08f7 C6842448 		movb	$0, 584(%rsp)
 2254      02000000 
 2255 08ff C684244C 		movb	$0, 844(%rsp)
 2255      03000000 
 2256 0907 C684244C 		movb	$0, 1100(%rsp)
 2256      04000000 
 2257 090f C684244C 		movb	$0, 1356(%rsp)
 2257      05000000 
 2258 0917 C6842450 		movb	$0, 1616(%rsp)
 2258      06000000 
 2259 091f C6842450 		movb	$0, 1872(%rsp)
 2259      07000000 
 2260              	.LEHB24:
 2261 0927 E8000000 		call	_ZN8UnitTest8TestListC1Ev
 2261      00
 2262              	.LEHE24:
 2263 092c 488D7C24 		leaq	32(%rsp), %rdi
 2263      20
 2264 0931 4889DE   		movq	%rbx, %rsi
 2265 0934 48899C24 		movq	%rbx, 2168(%rsp)
 2265      78080000 
 2266              	.LEHB25:
 2267 093c E84FFBFF 		call	_ZN8UnitTest11ExecuteTestIN12_GLOBAL__N_156TestRunnerFixtureTestFinishIsCalledWithCorrectTime
 2267      FF
 2268              	.LEHE25:
 2269 0941 488D7C24 		leaq	56(%rsp), %rdi
 2269      38
 2270 0946 48C74424 		movq	$_ZTV17RecordingReporter+16, 56(%rsp)
 2270      38000000 
 2270      00
 2271              	.LEHB26:
 2272 094f E8000000 		call	_ZN8UnitTest12TestReporterD2Ev
 2272      00
 2273              	.LEHE26:
 2274 0954 488D7C24 		leaq	32(%rsp), %rdi
 2274      20
 2275              	.LEHB27:
 2276 0959 E8000000 		call	_ZN8UnitTest10TestRunnerD1Ev
 2276      00
 2277              	.LEHE27:
 2278              	.L166:
 2279 095e 488B8424 		movq	2184(%rsp), %rax
 2279      88080000 
 2280 0966 64483304 		xorq	%fs:40, %rax
 2280      25280000 
 2280      00
 2281 096f 750E     		jne	.L205
 2282 0971 4881C498 		addq	$2200, %rsp
 2282      080000
 2283              		.cfi_remember_state
 2284              		.cfi_def_cfa_offset 40
 2285 0978 5B       		popq	%rbx
 2286              		.cfi_def_cfa_offset 32
 2287 0979 5D       		popq	%rbp
 2288              		.cfi_def_cfa_offset 24
 2289 097a 415C     		popq	%r12
 2290              		.cfi_def_cfa_offset 16
 2291 097c 415D     		popq	%r13
 2292              		.cfi_def_cfa_offset 8
 2293 097e C3       		ret
 2294              	.L205:
 2295              		.cfi_restore_state
 2296 097f E8000000 		call	__stack_chk_fail
 2296      00
 2297              	.L187:
 2298 0984 4889C7   		movq	%rax, %rdi
 2299 0987 41BC0100 		movl	$1, %r12d
 2299      0000
 2300              	.L169:
 2301 098d 4883FA01 		cmpq	$1, %rdx
 2302 0991 0F844501 		je	.L178
 2302      0000
 2303 0997 4883FA02 		cmpq	$2, %rdx
 2304 099b 0F85FE00 		jne	.L206
 2304      0000
 2305 09a1 E8000000 		call	__cxa_begin_catch
 2305      00
 2306 09a6 488D7C24 		leaq	32(%rsp), %rdi
 2306      20
 2307 09ab 4889C5   		movq	%rax, %rbp
 2308              	.LEHB28:
 2309 09ae E8000000 		call	_ZN8UnitTest15MemoryOutStreamC1Ev
 2309      00
 2310              	.LEHE28:
 2311 09b3 488B4500 		movq	0(%rbp), %rax
 2312 09b7 4889EF   		movq	%rbp, %rdi
 2313 09ba FF5010   		call	*16(%rax)
 2314 09bd 488D7C24 		leaq	32(%rsp), %rdi
 2314      20
 2315 09c2 BA150000 		movl	$21, %edx
 2315      00
 2316 09c7 BE000000 		movl	$.LC69, %esi
 2316      00
 2317 09cc 4889C5   		movq	%rax, %rbp
 2318              	.LEHB29:
 2319 09cf E8000000 		call	_ZSt16__ostream_insertIcSt11char_traitsIcEERSt13basic_ostreamIT_T0_ES6_PKS3_l
 2319      00
 2320 09d4 488D7C24 		leaq	32(%rsp), %rdi
 2320      20
 2321 09d9 4889EE   		movq	%rbp, %rsi
 2322 09dc E8000000 		call	_ZStlsISt11char_traitsIcEERSt13basic_ostreamIcT_ES5_PKc
 2322      00
 2323 09e1 488D7C24 		leaq	32(%rsp), %rdi
 2323      20
 2324 09e6 E8000000 		call	_ZNK8UnitTest15MemoryOutStream7GetTextEv
 2324      00
 2325 09eb 4889C5   		movq	%rax, %rbp
 2326 09ee E8000000 		call	_ZN8UnitTest11CurrentTest7ResultsEv
 2326      00
 2327 09f3 488B38   		movq	(%rax), %rdi
 2328 09f6 4889EA   		movq	%rbp, %rdx
 2329 09f9 4889DE   		movq	%rbx, %rsi
 2330 09fc E8000000 		call	_ZN8UnitTest11TestResults13OnTestFailureERKNS_11TestDetailsEPKc
 2330      00
 2331              	.LEHE29:
 2332 0a01 488D7C24 		leaq	32(%rsp), %rdi
 2332      20
 2333              	.LEHB30:
 2334 0a06 E8000000 		call	_ZN8UnitTest15MemoryOutStreamD1Ev
 2334      00
 2335              	.LEHE30:
 2336              	.L200:
 2337 0a0b E8000000 		call	__cxa_end_catch
 2337      00
 2338 0a10 E949FFFF 		jmp	.L166
 2338      FF
 2339              	.L194:
 2340 0a15 488D7C24 		leaq	32(%rsp), %rdi
 2340      20
 2341 0a1a 4989D4   		movq	%rdx, %r12
 2342 0a1d 4989C5   		movq	%rax, %r13
 2343 0a20 E8000000 		call	_ZN8UnitTest10TestRunnerD1Ev
 2343      00
 2344 0a25 4C89E2   		movq	%r12, %rdx
 2345 0a28 4C89EF   		movq	%r13, %rdi
 2346 0a2b 41BC0100 		movl	$1, %r12d
 2346      0000
 2347 0a31 E957FFFF 		jmp	.L169
 2347      FF
 2348              	.L188:
 2349 0a36 488D7C24 		leaq	32(%rsp), %rdi
 2349      20
 2350 0a3b 4989D4   		movq	%rdx, %r12
 2351 0a3e 4989C5   		movq	%rax, %r13
 2352 0a41 E8000000 		call	_ZN12_GLOBAL__N_111FixtureBaseD2Ev
 2352      00
 2353 0a46 4C89E2   		movq	%r12, %rdx
 2354 0a49 4C89EF   		movq	%r13, %rdi
 2355 0a4c 41BC0100 		movl	$1, %r12d
 2355      0000
 2356 0a52 E936FFFF 		jmp	.L169
 2356      FF
 2357              	.L193:
 2358 0a57 488D7C24 		leaq	32(%rsp), %rdi
 2358      20
 2359 0a5c 4989D4   		movq	%rdx, %r12
 2360 0a5f 4989C5   		movq	%rax, %r13
 2361 0a62 E8000000 		call	_ZN12_GLOBAL__N_111FixtureBaseD2Ev
 2361      00
 2362 0a67 4C89E2   		movq	%r12, %rdx
 2363 0a6a 4C89EF   		movq	%r13, %rdi
 2364 0a6d 4531E4   		xorl	%r12d, %r12d
 2365 0a70 E918FFFF 		jmp	.L169
 2365      FF
 2366              	.L195:
 2367 0a75 4889C7   		movq	%rax, %rdi
 2368 0a78 4531E4   		xorl	%r12d, %r12d
 2369 0a7b E90DFFFF 		jmp	.L169
 2369      FF
 2370              	.L191:
 2371 0a80 488D7C24 		leaq	32(%rsp), %rdi
 2371      20
 2372 0a85 4889C3   		movq	%rax, %rbx
 2373 0a88 E8000000 		call	_ZN8UnitTest15MemoryOutStreamD1Ev
 2373      00
 2374              	.L184:
 2375 0a8d E8000000 		call	__cxa_end_catch
 2375      00
 2376 0a92 4889DF   		movq	%rbx, %rdi
 2377              	.LEHB31:
 2378 0a95 E8000000 		call	_Unwind_Resume
 2378      00
 2379              	.LEHE31:
 2380              	.L190:
 2381              	.L201:
 2382 0a9a 4889C3   		movq	%rax, %rbx
 2383 0a9d EBEE     		jmp	.L184
 2384              	.L206:
 2385 0a9f E8000000 		call	__cxa_begin_catch
 2385      00
 2386 0aa4 4584E4   		testb	%r12b, %r12b
 2387 0aa7 BA5C0000 		movl	$92, %edx
 2387      00
 2388 0aac 4889DE   		movq	%rbx, %rsi
 2389 0aaf 4889E7   		movq	%rsp, %rdi
 2390 0ab2 0F848900 		je	.L180
 2390      0000
 2391              	.LEHB32:
 2392 0ab8 E8000000 		call	_ZN8UnitTest11TestDetailsC1ERKS0_i
 2392      00
 2393 0abd E8000000 		call	_ZN8UnitTest11CurrentTest7ResultsEv
 2393      00
 2394 0ac2 488B38   		movq	(%rax), %rdi
 2395 0ac5 BA000000 		movl	$.LC73, %edx
 2395      00
 2396 0aca 4889E6   		movq	%rsp, %rsi
 2397 0acd E8000000 		call	_ZN8UnitTest11TestResults13OnTestFailureERKNS_11TestDetailsEPKc
 2397      00
 2398              	.LEHE32:
 2399              	.L181:
 2400              	.LEHB33:
 2401 0ad2 E8000000 		call	__cxa_end_catch
 2401      00
 2402              	.LEHE33:
 2403 0ad7 E982FEFF 		jmp	.L166
 2403      FF
 2404              	.L178:
 2405 0adc E8000000 		call	__cxa_begin_catch
 2405      00
 2406 0ae1 4889C3   		movq	%rax, %rbx
 2407 0ae4 488B00   		movq	(%rax), %rax
 2408 0ae7 4889DF   		movq	%rbx, %rdi
 2409 0aea FF5010   		call	*16(%rax)
 2410 0aed 4889DF   		movq	%rbx, %rdi
 2411 0af0 4989C4   		movq	%rax, %r12
 2412              	.LEHB34:
 2413 0af3 E8000000 		call	_ZNK8UnitTest15AssertException10LineNumberEv
 2413      00
 2414 0af8 4889DF   		movq	%rbx, %rdi
 2415 0afb 4189C5   		movl	%eax, %r13d
 2416 0afe E8000000 		call	_ZNK8UnitTest15AssertException8FilenameEv
 2416      00
 2417 0b03 488B5508 		movq	8(%rbp), %rdx
 2418 0b07 488B7510 		movq	16(%rbp), %rsi
 2419 0b0b 4589E8   		movl	%r13d, %r8d
 2420 0b0e 4889C1   		movq	%rax, %rcx
 2421 0b11 4889E7   		movq	%rsp, %rdi
 2422 0b14 E8000000 		call	_ZN8UnitTest11TestDetailsC1EPKcS2_S2_i
 2422      00
 2423 0b19 E8000000 		call	_ZN8UnitTest11CurrentTest7ResultsEv
 2423      00
 2424 0b1e 488B38   		movq	(%rax), %rdi
 2425 0b21 4C89E2   		movq	%r12, %rdx
 2426 0b24 4889E6   		movq	%rsp, %rsi
 2427 0b27 E8000000 		call	_ZN8UnitTest11TestResults13OnTestFailureERKNS_11TestDetailsEPKc
 2427      00
 2428              	.LEHE34:
 2429 0b2c E9DAFEFF 		jmp	.L200
 2429      FF
 2430              	.L192:
 2431 0b31 4889C3   		movq	%rax, %rbx
 2432 0b34 E8000000 		call	__cxa_end_catch
 2432      00
 2433 0b39 4889DF   		movq	%rbx, %rdi
 2434              	.LEHB35:
 2435 0b3c E8000000 		call	_Unwind_Resume
 2435      00
 2436              	.LEHE35:
 2437              	.L180:
 2438              	.LEHB36:
 2439 0b41 E8000000 		call	_ZN8UnitTest11TestDetailsC1ERKS0_i
 2439      00
 2440 0b46 E8000000 		call	_ZN8UnitTest11CurrentTest7ResultsEv
 2440      00
 2441 0b4b 488B38   		movq	(%rax), %rdi
 2442 0b4e BA000000 		movl	$.LC74, %edx
 2442      00
 2443 0b53 4889E6   		movq	%rsp, %rsi
 2444 0b56 E8000000 		call	_ZN8UnitTest11TestResults13OnTestFailureERKNS_11TestDetailsEPKc
 2444      00
 2445              	.LEHE36:
 2446 0b5b E972FFFF 		jmp	.L181
 2446      FF
 2447              	.L189:
 2448 0b60 E935FFFF 		jmp	.L201
 2448      FF
 2449              		.cfi_endproc
 2450              	.LFE1185:
 2451              		.section	.gcc_except_table
 2452              		.align 4
 2453              	.LLSDA1185:
 2454 009c FF       		.byte	0xff
 2455 009d 03       		.byte	0x3
 2456 009e 69       		.uleb128 .LLSDATT1185-.LLSDATTD1185
 2457              	.LLSDATTD1185:
 2458 009f 01       		.byte	0x1
 2459 00a0 50       		.uleb128 .LLSDACSE1185-.LLSDACSB1185
 2460              	.LLSDACSB1185:
 2461 00a1 34       		.uleb128 .LEHB23-.LFB1185
 2462 00a2 05       		.uleb128 .LEHE23-.LEHB23
 2463 00a3 B504     		.uleb128 .L195-.LFB1185
 2464 00a5 05       		.uleb128 0x5
 2465 00a6 E701     		.uleb128 .LEHB24-.LFB1185
 2466 00a8 05       		.uleb128 .LEHE24-.LEHB24
 2467 00a9 9704     		.uleb128 .L193-.LFB1185
 2468 00ab 07       		.uleb128 0x7
 2469 00ac FC01     		.uleb128 .LEHB25-.LFB1185
 2470 00ae 05       		.uleb128 .LEHE25-.LEHB25
 2471 00af F603     		.uleb128 .L188-.LFB1185
 2472 00b1 07       		.uleb128 0x7
 2473 00b2 8F02     		.uleb128 .LEHB26-.LFB1185
 2474 00b4 05       		.uleb128 .LEHE26-.LEHB26
 2475 00b5 D503     		.uleb128 .L194-.LFB1185
 2476 00b7 07       		.uleb128 0x7
 2477 00b8 9902     		.uleb128 .LEHB27-.LFB1185
 2478 00ba 05       		.uleb128 .LEHE27-.LEHB27
 2479 00bb C402     		.uleb128 .L187-.LFB1185
 2480 00bd 05       		.uleb128 0x5
 2481 00be EE02     		.uleb128 .LEHB28-.LFB1185
 2482 00c0 05       		.uleb128 .LEHE28-.LEHB28
 2483 00c1 DA04     		.uleb128 .L190-.LFB1185
 2484 00c3 00       		.uleb128 0
 2485 00c4 8F03     		.uleb128 .LEHB29-.LFB1185
 2486 00c6 32       		.uleb128 .LEHE29-.LEHB29
 2487 00c7 C004     		.uleb128 .L191-.LFB1185
 2488 00c9 00       		.uleb128 0
 2489 00ca C603     		.uleb128 .LEHB30-.LFB1185
 2490 00cc 05       		.uleb128 .LEHE30-.LEHB30
 2491 00cd DA04     		.uleb128 .L190-.LFB1185
 2492 00cf 00       		.uleb128 0
 2493 00d0 D504     		.uleb128 .LEHB31-.LFB1185
 2494 00d2 05       		.uleb128 .LEHE31-.LEHB31
 2495 00d3 00       		.uleb128 0
 2496 00d4 00       		.uleb128 0
 2497 00d5 F804     		.uleb128 .LEHB32-.LFB1185
 2498 00d7 1A       		.uleb128 .LEHE32-.LEHB32
 2499 00d8 F105     		.uleb128 .L192-.LFB1185
 2500 00da 00       		.uleb128 0
 2501 00db 9205     		.uleb128 .LEHB33-.LFB1185
 2502 00dd 05       		.uleb128 .LEHE33-.LEHB33
 2503 00de 00       		.uleb128 0
 2504 00df 00       		.uleb128 0
 2505 00e0 B305     		.uleb128 .LEHB34-.LFB1185
 2506 00e2 39       		.uleb128 .LEHE34-.LEHB34
 2507 00e3 A006     		.uleb128 .L189-.LFB1185
 2508 00e5 00       		.uleb128 0
 2509 00e6 FC05     		.uleb128 .LEHB35-.LFB1185
 2510 00e8 05       		.uleb128 .LEHE35-.LEHB35
 2511 00e9 00       		.uleb128 0
 2512 00ea 00       		.uleb128 0
 2513 00eb 8106     		.uleb128 .LEHB36-.LFB1185
 2514 00ed 1A       		.uleb128 .LEHE36-.LEHB36
 2515 00ee F105     		.uleb128 .L192-.LFB1185
 2516 00f0 00       		.uleb128 0
 2517              	.LLSDACSE1185:
 2518 00f1 03       		.byte	0x3
 2519 00f2 00       		.byte	0
 2520 00f3 02       		.byte	0x2
 2521 00f4 7D       		.byte	0x7d
 2522 00f5 01       		.byte	0x1
 2523 00f6 7D       		.byte	0x7d
 2524 00f7 00       		.byte	0
 2525 00f8 7D       		.byte	0x7d
 2526 00f9 000000   		.align 4
 2527 00fc 00000000 		.long	0
 2528              	
 2529 0100 00000000 		.long	_ZTISt9exception
 2530 0104 00000000 		.long	_ZTIN8UnitTest15AssertExceptionE
 2531              	.LLSDATT1185:
 2532              		.text
 2534              		.section	.text.unlikely
 2535              	.LCOLDE75:
 2536              		.text
 2537              	.LHOTE75:
 2538              		.section	.text.unlikely._ZNSt7__cxx1115basic_stringbufIcSt11char_traitsIcESaIcEED0Ev,"axG",@progbi
 2539              		.align 2
 2540              	.LCOLDB76:
 2541              		.section	.text._ZNSt7__cxx1115basic_stringbufIcSt11char_traitsIcESaIcEED0Ev,"axG",@progbits,_ZNSt7
 2542              	.LHOTB76:
 2543              		.align 2
 2544              		.p2align 4,,15
 2545              		.weak	_ZNSt7__cxx1115basic_stringbufIcSt11char_traitsIcESaIcEED0Ev
 2547              	_ZNSt7__cxx1115basic_stringbufIcSt11char_traitsIcESaIcEED0Ev:
 2548              	.LFB1373:
 2549              		.cfi_startproc
 2550 0000 53       		pushq	%rbx
 2551              		.cfi_def_cfa_offset 16
 2552              		.cfi_offset 3, -16
 2553 0001 4889FB   		movq	%rdi, %rbx
 2554 0004 48C70700 		movq	$_ZTVNSt7__cxx1115basic_stringbufIcSt11char_traitsIcESaIcEEE+16, (%rdi)
 2554      000000
 2555 000b 488B7F48 		movq	72(%rdi), %rdi
 2556 000f 488D4358 		leaq	88(%rbx), %rax
 2557 0013 4839C7   		cmpq	%rax, %rdi
 2558 0016 7405     		je	.L208
 2559 0018 E8000000 		call	_ZdlPv
 2559      00
 2560              	.L208:
 2561 001d 488D7B38 		leaq	56(%rbx), %rdi
 2562 0021 48C70300 		movq	$_ZTVSt15basic_streambufIcSt11char_traitsIcEE+16, (%rbx)
 2562      000000
 2563 0028 E8000000 		call	_ZNSt6localeD1Ev
 2563      00
 2564 002d 4889DF   		movq	%rbx, %rdi
 2565 0030 5B       		popq	%rbx
 2566              		.cfi_def_cfa_offset 8
 2567 0031 E9000000 		jmp	_ZdlPv
 2567      00
 2568              		.cfi_endproc
 2569              	.LFE1373:
 2571              		.section	.text.unlikely._ZNSt7__cxx1115basic_stringbufIcSt11char_traitsIcESaIcEED0Ev,"axG",@progbi
 2572              	.LCOLDE76:
 2573              		.section	.text._ZNSt7__cxx1115basic_stringbufIcSt11char_traitsIcESaIcEED0Ev,"axG",@progbits,_ZNSt7
 2574              	.LHOTE76:
 2575              		.section	.rodata.str1.1
 2576              	.LC77:
 2577 0077 45787065 		.string	"Expected "
 2577      63746564 
 2577      2000
 2578              	.LC78:
 2579 0081 20627574 		.string	" but was "
 2579      20776173 
 2579      2000
 2580              		.section	.text.unlikely._ZN8UnitTest10CheckEqualIiiEEvRNS_11TestResultsERKT_RKT0_RKNS_11TestDetail
 2581              	.LCOLDB79:
 2582              		.section	.text._ZN8UnitTest10CheckEqualIiiEEvRNS_11TestResultsERKT_RKT0_RKNS_11TestDetailsE,"axG",
 2583              	.LHOTB79:
 2584              		.p2align 4,,15
 2585              		.weak	_ZN8UnitTest10CheckEqualIiiEEvRNS_11TestResultsERKT_RKT0_RKNS_11TestDetailsE
 2587              	_ZN8UnitTest10CheckEqualIiiEEvRNS_11TestResultsERKT_RKT0_RKNS_11TestDetailsE:
 2588              	.LFB1392:
 2589              		.cfi_startproc
 2590              		.cfi_personality 0x3,__gxx_personality_v0
 2591              		.cfi_lsda 0x3,.LLSDA1392
 2592 0000 4156     		pushq	%r14
 2593              		.cfi_def_cfa_offset 16
 2594              		.cfi_offset 14, -16
 2595 0002 4155     		pushq	%r13
 2596              		.cfi_def_cfa_offset 24
 2597              		.cfi_offset 13, -24
 2598 0004 4154     		pushq	%r12
 2599              		.cfi_def_cfa_offset 32
 2600              		.cfi_offset 12, -32
 2601 0006 55       		pushq	%rbp
 2602              		.cfi_def_cfa_offset 40
 2603              		.cfi_offset 6, -40
 2604 0007 53       		pushq	%rbx
 2605              		.cfi_def_cfa_offset 48
 2606              		.cfi_offset 3, -48
 2607 0008 4881ECA0 		subq	$416, %rsp
 2607      010000
 2608              		.cfi_def_cfa_offset 464
 2609 000f 64488B04 		movq	%fs:40, %rax
 2609      25280000 
 2609      00
 2610 0018 48898424 		movq	%rax, 408(%rsp)
 2610      98010000 
 2611 0020 31C0     		xorl	%eax, %eax
 2612 0022 8B02     		movl	(%rdx), %eax
 2613 0024 3906     		cmpl	%eax, (%rsi)
 2614 0026 0F843202 		je	.L210
 2614      0000
 2615 002c 4C8DA424 		leaq	144(%rsp), %r12
 2615      90000000 
 2616 0034 4989FD   		movq	%rdi, %r13
 2617 0037 4889F3   		movq	%rsi, %rbx
 2618 003a 4889D5   		movq	%rdx, %rbp
 2619 003d 4989CE   		movq	%rcx, %r14
 2620 0040 4C89E7   		movq	%r12, %rdi
 2621 0043 E8000000 		call	_ZNSt8ios_baseC2Ev
 2621      00
 2622 0048 31F6     		xorl	%esi, %esi
 2623 004a 4C89E7   		movq	%r12, %rdi
 2624 004d 48C78424 		movq	$0, 360(%rsp)
 2624      68010000 
 2624      00000000 
 2625 0059 C6842470 		movb	$0, 368(%rsp)
 2625      01000000 
 2626 0061 C6842471 		movb	$0, 369(%rsp)
 2626      01000000 
 2627 0069 48C78424 		movq	$0, 376(%rsp)
 2627      78010000 
 2627      00000000 
 2628 0075 48C78424 		movq	$0, 384(%rsp)
 2628      80010000 
 2628      00000000 
 2629 0081 48C78424 		movq	$0, 392(%rsp)
 2629      88010000 
 2629      00000000 
 2630 008d 48C78424 		movq	$0, 400(%rsp)
 2630      90010000 
 2630      00000000 
 2631 0099 48C70424 		movq	$_ZTCN8UnitTest15MemoryOutStreamE0_So+24, (%rsp)
 2631      00000000 
 2632 00a1 48C78424 		movq	$_ZTCN8UnitTest15MemoryOutStreamE0_So+64, 144(%rsp)
 2632      90000000 
 2632      00000000 
 2633              	.LEHB37:
 2634 00ad E8000000 		call	_ZNSt9basic_iosIcSt11char_traitsIcEE4initEPSt15basic_streambufIcS1_E
 2634      00
 2635              	.LEHE37:
 2636 00b2 488D7C24 		leaq	64(%rsp), %rdi
 2636      40
 2637 00b7 48C70424 		movq	$_ZTCN8UnitTest15MemoryOutStreamE0_NSt7__cxx1119basic_ostringstreamIcSt11char_traitsIcESaIcEE
 2637      00000000 
 2638 00bf 48C78424 		movq	$_ZTCN8UnitTest15MemoryOutStreamE0_NSt7__cxx1119basic_ostringstreamIcSt11char_traitsIcESaIcEE
 2638      90000000 
 2638      00000000 
 2639 00cb 48C74424 		movq	$_ZTVSt15basic_streambufIcSt11char_traitsIcEE+16, 8(%rsp)
 2639      08000000 
 2639      00
 2640 00d4 48C74424 		movq	$0, 16(%rsp)
 2640      10000000 
 2640      00
 2641 00dd 48C74424 		movq	$0, 24(%rsp)
 2641      18000000 
 2641      00
 2642 00e6 48C74424 		movq	$0, 32(%rsp)
 2642      20000000 
 2642      00
 2643 00ef 48C74424 		movq	$0, 40(%rsp)
 2643      28000000 
 2643      00
 2644 00f8 48C74424 		movq	$0, 48(%rsp)
 2644      30000000 
 2644      00
 2645 0101 48C74424 		movq	$0, 56(%rsp)
 2645      38000000 
 2645      00
 2646 010a E8000000 		call	_ZNSt6localeC1Ev
 2646      00
 2647 010f 488D4424 		leaq	96(%rsp), %rax
 2647      60
 2648 0114 48C74424 		movq	$0, 88(%rsp)
 2648      58000000 
 2648      00
 2649 011d C6442460 		movb	$0, 96(%rsp)
 2649      00
 2650 0122 488D7424 		leaq	8(%rsp), %rsi
 2650      08
 2651 0127 48C74424 		movq	$_ZTVNSt7__cxx1115basic_stringbufIcSt11char_traitsIcESaIcEEE+16, 8(%rsp)
 2651      08000000 
 2651      00
 2652 0130 C7442448 		movl	$16, 72(%rsp)
 2652      10000000 
 2653 0138 48894424 		movq	%rax, 80(%rsp)
 2653      50
 2654 013d 488B0424 		movq	(%rsp), %rax
 2655 0141 488B40E8 		movq	-24(%rax), %rax
 2656 0145 488D3C04 		leaq	(%rsp,%rax), %rdi
 2657              	.LEHB38:
 2658 0149 E8000000 		call	_ZNSt9basic_iosIcSt11char_traitsIcEE4initEPSt15basic_streambufIcS1_E
 2658      00
 2659              	.LEHE38:
 2660 014e 488D8424 		leaq	128(%rsp), %rax
 2660      80000000 
 2661 0156 BA090000 		movl	$9, %edx
 2661      00
 2662 015b BE000000 		movl	$.LC77, %esi
 2662      00
 2663 0160 4889E7   		movq	%rsp, %rdi
 2664 0163 48C70424 		movq	$_ZTVN8UnitTest15MemoryOutStreamE+24, (%rsp)
 2664      00000000 
 2665 016b 48C78424 		movq	$_ZTVN8UnitTest15MemoryOutStreamE+64, 144(%rsp)
 2665      90000000 
 2665      00000000 
 2666 0177 48894424 		movq	%rax, 112(%rsp)
 2666      70
 2667 017c 48C74424 		movq	$0, 120(%rsp)
 2667      78000000 
 2667      00
 2668 0185 C6842480 		movb	$0, 128(%rsp)
 2668      00000000 
 2669 018d 8B6D00   		movl	0(%rbp), %ebp
 2670 0190 8B1B     		movl	(%rbx), %ebx
 2671              	.LEHB39:
 2672 0192 E8000000 		call	_ZSt16__ostream_insertIcSt11char_traitsIcEERSt13basic_ostreamIT_T0_ES6_PKS3_l
 2672      00
 2673 0197 89DE     		movl	%ebx, %esi
 2674 0199 4889E7   		movq	%rsp, %rdi
 2675 019c E8000000 		call	_ZNSolsEi
 2675      00
 2676 01a1 BA090000 		movl	$9, %edx
 2676      00
 2677 01a6 BE000000 		movl	$.LC78, %esi
 2677      00
 2678 01ab 4889C7   		movq	%rax, %rdi
 2679 01ae 4889C3   		movq	%rax, %rbx
 2680 01b1 E8000000 		call	_ZSt16__ostream_insertIcSt11char_traitsIcEERSt13basic_ostreamIT_T0_ES6_PKS3_l
 2680      00
 2681 01b6 89EE     		movl	%ebp, %esi
 2682 01b8 4889DF   		movq	%rbx, %rdi
 2683 01bb E8000000 		call	_ZNSolsEi
 2683      00
 2684 01c0 4889E7   		movq	%rsp, %rdi
 2685 01c3 E8000000 		call	_ZNK8UnitTest15MemoryOutStream7GetTextEv
 2685      00
 2686 01c8 4889C2   		movq	%rax, %rdx
 2687 01cb 4C89F6   		movq	%r14, %rsi
 2688 01ce 4C89EF   		movq	%r13, %rdi
 2689 01d1 E8000000 		call	_ZN8UnitTest11TestResults13OnTestFailureERKNS_11TestDetailsEPKc
 2689      00
 2690              	.LEHE39:
 2691 01d6 488B7C24 		movq	112(%rsp), %rdi
 2691      70
 2692 01db 488D8424 		leaq	128(%rsp), %rax
 2692      80000000 
 2693 01e3 48C70424 		movq	$_ZTVN8UnitTest15MemoryOutStreamE+24, (%rsp)
 2693      00000000 
 2694 01eb 48C78424 		movq	$_ZTVN8UnitTest15MemoryOutStreamE+64, 144(%rsp)
 2694      90000000 
 2694      00000000 
 2695 01f7 4839C7   		cmpq	%rax, %rdi
 2696 01fa 7405     		je	.L216
 2697 01fc E8000000 		call	_ZdlPv
 2697      00
 2698              	.L216:
 2699 0201 488B7C24 		movq	80(%rsp), %rdi
 2699      50
 2700 0206 488D4424 		leaq	96(%rsp), %rax
 2700      60
 2701 020b 48C70424 		movq	$_ZTCN8UnitTest15MemoryOutStreamE0_NSt7__cxx1119basic_ostringstreamIcSt11char_traitsIcESaIcEE
 2701      00000000 
 2702 0213 48C78424 		movq	$_ZTCN8UnitTest15MemoryOutStreamE0_NSt7__cxx1119basic_ostringstreamIcSt11char_traitsIcESaIcEE
 2702      90000000 
 2702      00000000 
 2703 021f 48C74424 		movq	$_ZTVNSt7__cxx1115basic_stringbufIcSt11char_traitsIcESaIcEEE+16, 8(%rsp)
 2703      08000000 
 2703      00
 2704 0228 4839C7   		cmpq	%rax, %rdi
 2705 022b 7405     		je	.L217
 2706 022d E8000000 		call	_ZdlPv
 2706      00
 2707              	.L217:
 2708 0232 488D7C24 		leaq	64(%rsp), %rdi
 2708      40
 2709 0237 48C74424 		movq	$_ZTVSt15basic_streambufIcSt11char_traitsIcEE+16, 8(%rsp)
 2709      08000000 
 2709      00
 2710 0240 E8000000 		call	_ZNSt6localeD1Ev
 2710      00
 2711 0245 488DBC24 		leaq	144(%rsp), %rdi
 2711      90000000 
 2712 024d 48C78424 		movq	$_ZTVSt9basic_iosIcSt11char_traitsIcEE+16, 144(%rsp)
 2712      90000000 
 2712      00000000 
 2713              	.LEHB40:
 2714 0259 E8000000 		call	_ZNSt8ios_baseD2Ev
 2714      00
 2715              	.LEHE40:
 2716              	.L210:
 2717 025e 488B8424 		movq	408(%rsp), %rax
 2717      98010000 
 2718 0266 64483304 		xorq	%fs:40, %rax
 2718      25280000 
 2718      00
 2719 026f 7510     		jne	.L228
 2720 0271 4881C4A0 		addq	$416, %rsp
 2720      010000
 2721              		.cfi_remember_state
 2722              		.cfi_def_cfa_offset 48
 2723 0278 5B       		popq	%rbx
 2724              		.cfi_def_cfa_offset 40
 2725 0279 5D       		popq	%rbp
 2726              		.cfi_def_cfa_offset 32
 2727 027a 415C     		popq	%r12
 2728              		.cfi_def_cfa_offset 24
 2729 027c 415D     		popq	%r13
 2730              		.cfi_def_cfa_offset 16
 2731 027e 415E     		popq	%r14
 2732              		.cfi_def_cfa_offset 8
 2733 0280 C3       		ret
 2734              	.L228:
 2735              		.cfi_restore_state
 2736 0281 E8000000 		call	__stack_chk_fail
 2736      00
 2737              	.L221:
 2738 0286 4889C3   		movq	%rax, %rbx
 2739 0289 EB12     		jmp	.L214
 2740              	.L220:
 2741 028b 4889C3   		movq	%rax, %rbx
 2742 028e EB2E     		jmp	.L218
 2743              	.L222:
 2744 0290 4889C3   		movq	%rax, %rbx
 2745              	.L213:
 2746 0293 488D7C24 		leaq	8(%rsp), %rdi
 2746      08
 2747 0298 E8000000 		call	_ZNSt7__cxx1115basic_stringbufIcSt11char_traitsIcESaIcEED1Ev
 2747      00
 2748              	.L214:
 2749 029d 488DBC24 		leaq	144(%rsp), %rdi
 2749      90000000 
 2750 02a5 48C78424 		movq	$_ZTVSt9basic_iosIcSt11char_traitsIcEE+16, 144(%rsp)
 2750      90000000 
 2750      00000000 
 2751 02b1 E8000000 		call	_ZNSt8ios_baseD2Ev
 2751      00
 2752 02b6 4889DF   		movq	%rbx, %rdi
 2753              	.LEHB41:
 2754 02b9 E8000000 		call	_Unwind_Resume
 2754      00
 2755              	.LEHE41:
 2756              	.L218:
 2757 02be 4889E7   		movq	%rsp, %rdi
 2758 02c1 E8000000 		call	_ZN8UnitTest15MemoryOutStreamD1Ev
 2758      00
 2759 02c6 4889DF   		movq	%rbx, %rdi
 2760              	.LEHB42:
 2761 02c9 E8000000 		call	_Unwind_Resume
 2761      00
 2762              	.LEHE42:
 2763              		.cfi_endproc
 2764              	.LFE1392:
 2765              		.section	.gcc_except_table
 2766              	.LLSDA1392:
 2767 0108 FF       		.byte	0xff
 2768 0109 FF       		.byte	0xff
 2769 010a 01       		.byte	0x1
 2770 010b 21       		.uleb128 .LLSDACSE1392-.LLSDACSB1392
 2771              	.LLSDACSB1392:
 2772 010c AD01     		.uleb128 .LEHB37-.LFB1392
 2773 010e 05       		.uleb128 .LEHE37-.LEHB37
 2774 010f 8605     		.uleb128 .L221-.LFB1392
 2775 0111 00       		.uleb128 0
 2776 0112 C902     		.uleb128 .LEHB38-.LFB1392
 2777 0114 05       		.uleb128 .LEHE38-.LEHB38
 2778 0115 9005     		.uleb128 .L222-.LFB1392
 2779 0117 00       		.uleb128 0
 2780 0118 9203     		.uleb128 .LEHB39-.LFB1392
 2781 011a 44       		.uleb128 .LEHE39-.LEHB39
 2782 011b 8B05     		.uleb128 .L220-.LFB1392
 2783 011d 00       		.uleb128 0
 2784 011e D904     		.uleb128 .LEHB40-.LFB1392
 2785 0120 05       		.uleb128 .LEHE40-.LEHB40
 2786 0121 00       		.uleb128 0
 2787 0122 00       		.uleb128 0
 2788 0123 B905     		.uleb128 .LEHB41-.LFB1392
 2789 0125 05       		.uleb128 .LEHE41-.LEHB41
 2790 0126 00       		.uleb128 0
 2791 0127 00       		.uleb128 0
 2792 0128 C905     		.uleb128 .LEHB42-.LFB1392
 2793 012a 05       		.uleb128 .LEHE42-.LEHB42
 2794 012b 00       		.uleb128 0
 2795 012c 00       		.uleb128 0
 2796              	.LLSDACSE1392:
 2797              		.section	.text._ZN8UnitTest10CheckEqualIiiEEvRNS_11TestResultsERKT_RKT0_RKNS_11TestDetailsE,"axG",
 2799              		.section	.text.unlikely._ZN8UnitTest10CheckEqualIiiEEvRNS_11TestResultsERKT_RKT0_RKNS_11TestDetail
 2800              	.LCOLDE79:
 2801              		.section	.text._ZN8UnitTest10CheckEqualIiiEEvRNS_11TestResultsERKT_RKT0_RKNS_11TestDetailsE,"axG",
 2802              	.LHOTE79:
 2803              		.section	.rodata.str1.1
 2804              	.LC80:
 2805 008b 00       		.string	""
 2806              	.LC81:
 2807 008c 736C6F77 		.string	"slowexempted"
 2807      6578656D 
 2807      70746564 
 2807      00
 2808              		.section	.rodata.str1.8
 2809 0151 00000000 		.align 8
 2809      000000
 2810              	.LC82:
 2811 0158 556E6861 		.string	"Unhandled exception in CHECK_EQUAL(0, reporter.testFailedCount)"
 2811      6E646C65 
 2811      64206578 
 2811      63657074 
 2811      696F6E20 
 2812              		.section	.text.unlikely
 2813              	.LCOLDB83:
 2814              		.text
 2815              	.LHOTB83:
 2816 0b65 90662E0F 		.p2align 4,,15
 2816      1F840000 
 2816      000000
 2818              	_ZN8UnitTest11ExecuteTestIN12_GLOBAL__N_154TestRunnerFixtureSlowTestWithTimeExemptionPassesHelperEE
 2819              	.LFB1588:
 2820              		.cfi_startproc
 2821              		.cfi_personality 0x3,__gxx_personality_v0
 2822              		.cfi_lsda 0x3,.LLSDA1588
 2823 0b70 4155     		pushq	%r13
 2824              		.cfi_def_cfa_offset 16
 2825              		.cfi_offset 13, -16
 2826 0b72 4154     		pushq	%r12
 2827              		.cfi_def_cfa_offset 24
 2828              		.cfi_offset 12, -24
 2829 0b74 55       		pushq	%rbp
 2830              		.cfi_def_cfa_offset 32
 2831              		.cfi_offset 6, -32
 2832 0b75 53       		pushq	%rbx
 2833              		.cfi_def_cfa_offset 40
 2834              		.cfi_offset 3, -40
 2835 0b76 4889F3   		movq	%rsi, %rbx
 2836 0b79 4881ECD8 		subq	$1752, %rsp
 2836      060000
 2837              		.cfi_def_cfa_offset 1792
 2838 0b80 48893C24 		movq	%rdi, (%rsp)
 2839 0b84 48897424 		movq	%rsi, 8(%rsp)
 2839      08
 2840 0b89 64488B04 		movq	%fs:40, %rax
 2840      25280000 
 2840      00
 2841 0b92 48898424 		movq	%rax, 1736(%rsp)
 2841      C8060000 
 2842 0b9a 31C0     		xorl	%eax, %eax
 2843              	.LEHB43:
 2844 0b9c E8000000 		call	_ZN8UnitTest11CurrentTest7DetailsEv
 2844      00
 2845              	.LEHE43:
 2846 0ba1 488DBC24 		leaq	608(%rsp), %rdi
 2846      60020000 
 2847 0ba9 488918   		movq	%rbx, (%rax)
 2848              	.LEHB44:
 2849 0bac E8000000 		call	_ZN8UnitTest16SignalTranslatorC1Ev
 2849      00
 2850              	.LEHE44:
 2851 0bb1 488B3D00 		movq	_ZN8UnitTest16SignalTranslator12s_jumpTargetE(%rip), %rdi
 2851      000000
 2852 0bb8 BE010000 		movl	$1, %esi
 2852      00
 2853 0bbd E8000000 		call	__sigsetjmp
 2853      00
 2854 0bc2 85C0     		testl	%eax, %eax
 2855 0bc4 742A     		je	.L265
 2856 0bc6 BF080000 		movl	$8, %edi
 2856      00
 2857 0bcb E8000000 		call	__cxa_allocate_exception
 2857      00
 2858 0bd0 31D2     		xorl	%edx, %edx
 2859 0bd2 48C70000 		movq	$.LC61, (%rax)
 2859      000000
 2860 0bd9 BE000000 		movl	$_ZTIPKc, %esi
 2860      00
 2861 0bde 4889C7   		movq	%rax, %rdi
 2862              	.LEHB45:
 2863 0be1 E8000000 		call	__cxa_throw
 2863      00
 2864 0be6 662E0F1F 		.p2align 4,,10
 2864      84000000 
 2864      0000
 2865              		.p2align 3
 2866              	.L265:
 2867 0bf0 488DBC24 		leaq	128(%rsp), %rdi
 2867      80000000 
 2868 0bf8 4531C0   		xorl	%r8d, %r8d
 2869 0bfb 31C9     		xorl	%ecx, %ecx
 2870 0bfd BA000000 		movl	$.LC80, %edx
 2870      00
 2871 0c02 BE000000 		movl	$.LC81, %esi
 2871      00
 2872 0c07 E8000000 		call	_ZN8UnitTest4TestC2EPKcS2_S2_i
 2872      00
 2873              	.LEHE45:
 2874 0c0c 488B2C24 		movq	(%rsp), %rbp
 2875 0c10 488DB424 		leaq	128(%rsp), %rsi
 2875      80000000 
 2876 0c18 48C78424 		movq	$_ZTVZN12_GLOBAL__N_154TestRunnerFixtureSlowTestWithTimeExemptionPassesHelper7RunImplEvE16Slo
 2876      80000000 
 2876      00000000 
 2877 0c24 488D9D48 		leaq	2120(%rbp), %rbx
 2877      080000
 2878 0c2b 4889DF   		movq	%rbx, %rdi
 2879              	.LEHB46:
 2880 0c2e E8000000 		call	_ZN8UnitTest8TestList3AddEPNS_4TestE
 2880      00
 2881 0c33 E8000000 		call	_ZN8UnitTest11CurrentTest7ResultsEv
 2881      00
 2882 0c38 4C8B20   		movq	(%rax), %r12
 2883 0c3b E8000000 		call	_ZN8UnitTest11CurrentTest7DetailsEv
 2883      00
 2884 0c40 4889DF   		movq	%rbx, %rdi
 2885 0c43 4C8B28   		movq	(%rax), %r13
 2886 0c46 E8000000 		call	_ZNK8UnitTest8TestList7GetHeadEv
 2886      00
 2887 0c4b 4885C0   		testq	%rax, %rax
 2888 0c4e 4889C3   		movq	%rax, %rbx
 2889 0c51 7437     		je	.L235
 2890              		.p2align 4,,10
 2891 0c53 0F1F4400 		.p2align 3
 2891      00
 2892              	.L264:
 2893 0c58 31D2     		xorl	%edx, %edx
 2894 0c5a 4889DE   		movq	%rbx, %rsi
 2895 0c5d 4889EF   		movq	%rbp, %rdi
 2896 0c60 E8000000 		call	_ZNK8UnitTest10TestRunner13IsTestInSuiteEPKNS_4TestEPKc
 2896      00
 2897 0c65 84C0     		testb	%al, %al
 2898 0c67 7418     		je	.L253
 2899 0c69 488B0424 		movq	(%rsp), %rax
 2900 0c6d B9030000 		movl	$3, %ecx
 2900      00
 2901 0c72 4889DA   		movq	%rbx, %rdx
 2902 0c75 4889EF   		movq	%rbp, %rdi
 2903 0c78 488B7008 		movq	8(%rax), %rsi
 2904 0c7c E8000000 		call	_ZNK8UnitTest10TestRunner7RunTestEPNS_11TestResultsEPNS_4TestEi
 2904      00
 2905              	.L253:
 2906 0c81 488B5B28 		movq	40(%rbx), %rbx
 2907 0c85 4885DB   		testq	%rbx, %rbx
 2908 0c88 75CE     		jne	.L264
 2909              	.L235:
 2910 0c8a 488B3C24 		movq	(%rsp), %rdi
 2911 0c8e E8000000 		call	_ZNK8UnitTest10TestRunner6FinishEv
 2911      00
 2912 0c93 E8000000 		call	_ZN8UnitTest11CurrentTest7ResultsEv
 2912      00
 2913 0c98 4C8920   		movq	%r12, (%rax)
 2914 0c9b E8000000 		call	_ZN8UnitTest11CurrentTest7DetailsEv
 2914      00
 2915              	.LEHE46:
 2916 0ca0 4C8928   		movq	%r13, (%rax)
 2917              	.LEHB47:
 2918 0ca3 E8000000 		call	_ZN8UnitTest11CurrentTest7DetailsEv
 2918      00
 2919 0ca8 488B30   		movq	(%rax), %rsi
 2920 0cab 488D7C24 		leaq	96(%rsp), %rdi
 2920      60
 2921 0cb0 BADE0000 		movl	$222, %edx
 2921      00
 2922 0cb5 E8000000 		call	_ZN8UnitTest11TestDetailsC1ERKS0_i
 2922      00
 2923 0cba 488B1C24 		movq	(%rsp), %rbx
 2924 0cbe C744241C 		movl	$0, 28(%rsp)
 2924      00000000 
 2925 0cc6 4881C324 		addq	$548, %rbx
 2925      020000
 2926 0ccd E8000000 		call	_ZN8UnitTest11CurrentTest7ResultsEv
 2926      00
 2927 0cd2 488B38   		movq	(%rax), %rdi
 2928 0cd5 488D4C24 		leaq	96(%rsp), %rcx
 2928      60
 2929 0cda 488D7424 		leaq	28(%rsp), %rsi
 2929      1C
 2930 0cdf 4889DA   		movq	%rbx, %rdx
 2931 0ce2 E8000000 		call	_ZN8UnitTest10CheckEqualIiiEEvRNS_11TestResultsERKT_RKT0_RKNS_11TestDetailsE
 2931      00
 2932              	.LEHE47:
 2933              	.L239:
 2934 0ce7 488DBC24 		leaq	128(%rsp), %rdi
 2934      80000000 
 2935 0cef 48C78424 		movq	$_ZTVZN12_GLOBAL__N_154TestRunnerFixtureSlowTestWithTimeExemptionPassesHelper7RunImplEvE16Slo
 2935      80000000 
 2935      00000000 
 2936              	.LEHB48:
 2937 0cfb E8000000 		call	_ZN8UnitTest4TestD2Ev
 2937      00
 2938              	.LEHE48:
 2939 0d00 488DBC24 		leaq	608(%rsp), %rdi
 2939      60020000 
 2940              	.LEHB49:
 2941 0d08 E8000000 		call	_ZN8UnitTest16SignalTranslatorD1Ev
 2941      00
 2942              	.LEHE49:
 2943              	.L229:
 2944 0d0d 488B8424 		movq	1736(%rsp), %rax
 2944      C8060000 
 2945 0d15 64483304 		xorq	%fs:40, %rax
 2945      25280000 
 2945      00
 2946 0d1e 0F85C700 		jne	.L273
 2946      0000
 2947 0d24 4881C4D8 		addq	$1752, %rsp
 2947      060000
 2948              		.cfi_remember_state
 2949              		.cfi_def_cfa_offset 40
 2950 0d2b 5B       		popq	%rbx
 2951              		.cfi_def_cfa_offset 32
 2952 0d2c 5D       		popq	%rbp
 2953              		.cfi_def_cfa_offset 24
 2954 0d2d 415C     		popq	%r12
 2955              		.cfi_def_cfa_offset 16
 2956 0d2f 415D     		popq	%r13
 2957              		.cfi_def_cfa_offset 8
 2958 0d31 C3       		ret
 2959              	.L260:
 2960              		.cfi_restore_state
 2961 0d32 4889C3   		movq	%rax, %rbx
 2962 0d35 4889D5   		movq	%rdx, %rbp
 2963              	.L242:
 2964 0d38 488DBC24 		leaq	608(%rsp), %rdi
 2964      60020000 
 2965 0d40 E8000000 		call	_ZN8UnitTest16SignalTranslatorD1Ev
 2965      00
 2966 0d45 4889DF   		movq	%rbx, %rdi
 2967 0d48 4889EA   		movq	%rbp, %rdx
 2968              	.L243:
 2969 0d4b 4883FA01 		cmpq	$1, %rdx
 2970 0d4f 0F845401 		je	.L245
 2970      0000
 2971 0d55 4883FA02 		cmpq	$2, %rdx
 2972 0d59 0F852401 		jne	.L274
 2972      0000
 2973 0d5f E8000000 		call	__cxa_begin_catch
 2973      00
 2974 0d64 488DBC24 		leaq	192(%rsp), %rdi
 2974      C0000000 
 2975 0d6c 4889C3   		movq	%rax, %rbx
 2976              	.LEHB50:
 2977 0d6f E8000000 		call	_ZN8UnitTest15MemoryOutStreamC1Ev
 2977      00
 2978              	.LEHE50:
 2979 0d74 488B03   		movq	(%rbx), %rax
 2980 0d77 4889DF   		movq	%rbx, %rdi
 2981 0d7a FF5010   		call	*16(%rax)
 2982 0d7d 488DBC24 		leaq	192(%rsp), %rdi
 2982      C0000000 
 2983 0d85 BA150000 		movl	$21, %edx
 2983      00
 2984 0d8a BE000000 		movl	$.LC69, %esi
 2984      00
 2985 0d8f 4889C3   		movq	%rax, %rbx
 2986              	.LEHB51:
 2987 0d92 E8000000 		call	_ZSt16__ostream_insertIcSt11char_traitsIcEERSt13basic_ostreamIT_T0_ES6_PKS3_l
 2987      00
 2988 0d97 488DBC24 		leaq	192(%rsp), %rdi
 2988      C0000000 
 2989 0d9f 4889DE   		movq	%rbx, %rsi
 2990 0da2 E8000000 		call	_ZStlsISt11char_traitsIcEERSt13basic_ostreamIcT_ES5_PKc
 2990      00
 2991 0da7 488DBC24 		leaq	192(%rsp), %rdi
 2991      C0000000 
 2992 0daf E8000000 		call	_ZNK8UnitTest15MemoryOutStream7GetTextEv
 2992      00
 2993 0db4 4889C3   		movq	%rax, %rbx
 2994 0db7 E8000000 		call	_ZN8UnitTest11CurrentTest7ResultsEv
 2994      00
 2995 0dbc 488B7424 		movq	8(%rsp), %rsi
 2995      08
 2996 0dc1 488B38   		movq	(%rax), %rdi
 2997 0dc4 4889DA   		movq	%rbx, %rdx
 2998 0dc7 E8000000 		call	_ZN8UnitTest11TestResults13OnTestFailureERKNS_11TestDetailsEPKc
 2998      00
 2999              	.LEHE51:
 3000 0dcc 488DBC24 		leaq	192(%rsp), %rdi
 3000      C0000000 
 3001              	.LEHB52:
 3002 0dd4 E8000000 		call	_ZN8UnitTest15MemoryOutStreamD1Ev
 3002      00
 3003              	.LEHE52:
 3004              	.L269:
 3005 0dd9 E8000000 		call	__cxa_end_catch
 3005      00
 3006 0dde E92AFFFF 		jmp	.L229
 3006      FF
 3007              	.L259:
 3008 0de3 4889C7   		movq	%rax, %rdi
 3009 0de6 E960FFFF 		jmp	.L243
 3009      FF
 3010              	.L273:
 3011 0deb E8000000 		call	__stack_chk_fail
 3011      00
 3012              	.L263:
 3013 0df0 4889C7   		movq	%rax, %rdi
 3014 0df3 E8000000 		call	__cxa_begin_catch
 3014      00
 3015              	.LEHB53:
 3016 0df8 E8000000 		call	_ZN8UnitTest11CurrentTest7DetailsEv
 3016      00
 3017 0dfd 488B30   		movq	(%rax), %rsi
 3018 0e00 488D7C24 		leaq	64(%rsp), %rdi
 3018      40
 3019 0e05 BADE0000 		movl	$222, %edx
 3019      00
 3020 0e0a E8000000 		call	_ZN8UnitTest11TestDetailsC1ERKS0_i
 3020      00
 3021 0e0f E8000000 		call	_ZN8UnitTest11CurrentTest7ResultsEv
 3021      00
 3022 0e14 488B38   		movq	(%rax), %rdi
 3023 0e17 488D7424 		leaq	64(%rsp), %rsi
 3023      40
 3024 0e1c BA000000 		movl	$.LC82, %edx
 3024      00
 3025 0e21 E8000000 		call	_ZN8UnitTest11TestResults13OnTestFailureERKNS_11TestDetailsEPKc
 3025      00
 3026              	.LEHE53:
 3027              	.LEHB54:
 3028 0e26 E8000000 		call	__cxa_end_catch
 3028      00
 3029              	.LEHE54:
 3030 0e2b E9B7FEFF 		jmp	.L239
 3030      FF
 3031              	.L261:
 3032 0e30 4889C3   		movq	%rax, %rbx
 3033 0e33 4889D5   		movq	%rdx, %rbp
 3034              	.L241:
 3035 0e36 488DBC24 		leaq	128(%rsp), %rdi
 3035      80000000 
 3036 0e3e 48C78424 		movq	$_ZTVZN12_GLOBAL__N_154TestRunnerFixtureSlowTestWithTimeExemptionPassesHelper7RunImplEvE16Slo
 3036      80000000 
 3036      00000000 
 3037 0e4a E8000000 		call	_ZN8UnitTest4TestD2Ev
 3037      00
 3038 0e4f E9E4FEFF 		jmp	.L242
 3038      FF
 3039              	.L262:
 3040 0e54 4889C3   		movq	%rax, %rbx
 3041 0e57 4889D5   		movq	%rdx, %rbp
 3042 0e5a E8000000 		call	__cxa_end_catch
 3042      00
 3043 0e5f EBD5     		jmp	.L241
 3044              	.L257:
 3045 0e61 488DBC24 		leaq	192(%rsp), %rdi
 3045      C0000000 
 3046 0e69 4889C3   		movq	%rax, %rbx
 3047 0e6c E8000000 		call	_ZN8UnitTest15MemoryOutStreamD1Ev
 3047      00
 3048              	.L251:
 3049 0e71 E8000000 		call	__cxa_end_catch
 3049      00
 3050 0e76 4889DF   		movq	%rbx, %rdi
 3051              	.LEHB55:
 3052 0e79 E8000000 		call	_Unwind_Resume
 3052      00
 3053              	.LEHE55:
 3054              	.L256:
 3055              	.L270:
 3056 0e7e 4889C3   		movq	%rax, %rbx
 3057 0e81 EBEE     		jmp	.L251
 3058              	.L274:
 3059 0e83 E8000000 		call	__cxa_begin_catch
 3059      00
 3060              	.LEHB56:
 3061 0e88 E8000000 		call	_ZN8UnitTest11CurrentTest7ResultsEv
 3061      00
 3062 0e8d 488B7424 		movq	8(%rsp), %rsi
 3062      08
 3063 0e92 488B38   		movq	(%rax), %rdi
 3064 0e95 BA000000 		movl	$.LC70, %edx
 3064      00
 3065 0e9a E8000000 		call	_ZN8UnitTest11TestResults13OnTestFailureERKNS_11TestDetailsEPKc
 3065      00
 3066              	.LEHE56:
 3067              	.LEHB57:
 3068 0e9f E8000000 		call	__cxa_end_catch
 3068      00
 3069              	.LEHE57:
 3070 0ea4 E964FEFF 		jmp	.L229
 3070      FF
 3071              	.L245:
 3072 0ea9 E8000000 		call	__cxa_begin_catch
 3072      00
 3073 0eae 4889C3   		movq	%rax, %rbx
 3074 0eb1 488B00   		movq	(%rax), %rax
 3075 0eb4 4889DF   		movq	%rbx, %rdi
 3076 0eb7 FF5010   		call	*16(%rax)
 3077 0eba 4889DF   		movq	%rbx, %rdi
 3078 0ebd 4889C5   		movq	%rax, %rbp
 3079              	.LEHB58:
 3080 0ec0 E8000000 		call	_ZNK8UnitTest15AssertException10LineNumberEv
 3080      00
 3081 0ec5 4889DF   		movq	%rbx, %rdi
 3082 0ec8 4189C4   		movl	%eax, %r12d
 3083 0ecb E8000000 		call	_ZNK8UnitTest15AssertException8FilenameEv
 3083      00
 3084 0ed0 488B5424 		movq	8(%rsp), %rdx
 3084      08
 3085 0ed5 488D7C24 		leaq	32(%rsp), %rdi
 3085      20
 3086 0eda 4589E0   		movl	%r12d, %r8d
 3087 0edd 4889C1   		movq	%rax, %rcx
 3088 0ee0 488B7208 		movq	8(%rdx), %rsi
 3089 0ee4 488B12   		movq	(%rdx), %rdx
 3090 0ee7 E8000000 		call	_ZN8UnitTest11TestDetailsC1EPKcS2_S2_i
 3090      00
 3091 0eec E8000000 		call	_ZN8UnitTest11CurrentTest7ResultsEv
 3091      00
 3092 0ef1 488B38   		movq	(%rax), %rdi
 3093 0ef4 488D7424 		leaq	32(%rsp), %rsi
 3093      20
 3094 0ef9 4889EA   		movq	%rbp, %rdx
 3095 0efc E8000000 		call	_ZN8UnitTest11TestResults13OnTestFailureERKNS_11TestDetailsEPKc
 3095      00
 3096              	.LEHE58:
 3097 0f01 E9D3FEFF 		jmp	.L269
 3097      FF
 3098              	.L255:
 3099 0f06 4889C3   		movq	%rax, %rbx
 3100 0f09 E8000000 		call	__cxa_end_catch
 3100      00
 3101 0f0e 4889DF   		movq	%rbx, %rdi
 3102              	.LEHB59:
 3103 0f11 E8000000 		call	_Unwind_Resume
 3103      00
 3104              	.LEHE59:
 3105              	.L258:
 3106 0f16 E963FFFF 		jmp	.L270
 3106      FF
 3107              		.cfi_endproc
 3108              	.LFE1588:
 3109              		.section	.gcc_except_table
 3110 012d 000000   		.align 4
 3111              	.LLSDA1588:
 3112 0130 FF       		.byte	0xff
 3113 0131 03       		.byte	0x3
 3114 0132 75       		.uleb128 .LLSDATT1588-.LLSDATTD1588
 3115              	.LLSDATTD1588:
 3116 0133 01       		.byte	0x1
 3117 0134 5F       		.uleb128 .LLSDACSE1588-.LLSDACSB1588
 3118              	.LLSDACSB1588:
 3119 0135 2C       		.uleb128 .LEHB43-.LFB1588
 3120 0136 05       		.uleb128 .LEHE43-.LEHB43
 3121 0137 00       		.uleb128 0
 3122 0138 00       		.uleb128 0
 3123 0139 3C       		.uleb128 .LEHB44-.LFB1588
 3124 013a 05       		.uleb128 .LEHE44-.LEHB44
 3125 013b F304     		.uleb128 .L259-.LFB1588
 3126 013d 05       		.uleb128 0x5
 3127 013e 71       		.uleb128 .LEHB45-.LFB1588
 3128 013f 2B       		.uleb128 .LEHE45-.LEHB45
 3129 0140 C203     		.uleb128 .L260-.LFB1588
 3130 0142 07       		.uleb128 0x7
 3131 0143 BE01     		.uleb128 .LEHB46-.LFB1588
 3132 0145 72       		.uleb128 .LEHE46-.LEHB46
 3133 0146 C005     		.uleb128 .L261-.LFB1588
 3134 0148 07       		.uleb128 0x7
 3135 0149 B302     		.uleb128 .LEHB47-.LFB1588
 3136 014b 44       		.uleb128 .LEHE47-.LEHB47
 3137 014c 8005     		.uleb128 .L263-.LFB1588
 3138 014e 01       		.uleb128 0x1
 3139 014f 8B03     		.uleb128 .LEHB48-.LFB1588
 3140 0151 05       		.uleb128 .LEHE48-.LEHB48
 3141 0152 C203     		.uleb128 .L260-.LFB1588
 3142 0154 07       		.uleb128 0x7
 3143 0155 9803     		.uleb128 .LEHB49-.LFB1588
 3144 0157 05       		.uleb128 .LEHE49-.LEHB49
 3145 0158 F304     		.uleb128 .L259-.LFB1588
 3146 015a 05       		.uleb128 0x5
 3147 015b FF03     		.uleb128 .LEHB50-.LFB1588
 3148 015d 05       		.uleb128 .LEHE50-.LEHB50
 3149 015e 8E06     		.uleb128 .L256-.LFB1588
 3150 0160 00       		.uleb128 0
 3151 0161 A204     		.uleb128 .LEHB51-.LFB1588
 3152 0163 3A       		.uleb128 .LEHE51-.LEHB51
 3153 0164 F105     		.uleb128 .L257-.LFB1588
 3154 0166 00       		.uleb128 0
 3155 0167 E404     		.uleb128 .LEHB52-.LFB1588
 3156 0169 05       		.uleb128 .LEHE52-.LEHB52
 3157 016a 8E06     		.uleb128 .L256-.LFB1588
 3158 016c 00       		.uleb128 0
 3159 016d 8805     		.uleb128 .LEHB53-.LFB1588
 3160 016f 2E       		.uleb128 .LEHE53-.LEHB53
 3161 0170 E405     		.uleb128 .L262-.LFB1588
 3162 0172 07       		.uleb128 0x7
 3163 0173 B605     		.uleb128 .LEHB54-.LFB1588
 3164 0175 05       		.uleb128 .LEHE54-.LEHB54
 3165 0176 C005     		.uleb128 .L261-.LFB1588
 3166 0178 07       		.uleb128 0x7
 3167 0179 8906     		.uleb128 .LEHB55-.LFB1588
 3168 017b 05       		.uleb128 .LEHE55-.LEHB55
 3169 017c 00       		.uleb128 0
 3170 017d 00       		.uleb128 0
 3171 017e 9806     		.uleb128 .LEHB56-.LFB1588
 3172 0180 17       		.uleb128 .LEHE56-.LEHB56
 3173 0181 9607     		.uleb128 .L255-.LFB1588
 3174 0183 00       		.uleb128 0
 3175 0184 AF06     		.uleb128 .LEHB57-.LFB1588
 3176 0186 05       		.uleb128 .LEHE57-.LEHB57
 3177 0187 00       		.uleb128 0
 3178 0188 00       		.uleb128 0
 3179 0189 D006     		.uleb128 .LEHB58-.LFB1588
 3180 018b 41       		.uleb128 .LEHE58-.LEHB58
 3181 018c A607     		.uleb128 .L258-.LFB1588
 3182 018e 00       		.uleb128 0
 3183 018f A107     		.uleb128 .LEHB59-.LFB1588
 3184 0191 05       		.uleb128 .LEHE59-.LEHB59
 3185 0192 00       		.uleb128 0
 3186 0193 00       		.uleb128 0
 3187              	.LLSDACSE1588:
 3188 0194 03       		.byte	0x3
 3189 0195 00       		.byte	0
 3190 0196 02       		.byte	0x2
 3191 0197 7D       		.byte	0x7d
 3192 0198 01       		.byte	0x1
 3193 0199 7D       		.byte	0x7d
 3194 019a 00       		.byte	0
 3195 019b 7D       		.byte	0x7d
 3196              		.align 4
 3197 019c 00000000 		.long	0
 3198              	
 3199 01a0 00000000 		.long	_ZTISt9exception
 3200 01a4 00000000 		.long	_ZTIN8UnitTest15AssertExceptionE
 3201              	.LLSDATT1588:
 3202              		.text
 3204              		.section	.text.unlikely
 3205              	.LCOLDE83:
 3206              		.text
 3207              	.LHOTE83:
 3208              		.section	.text.unlikely
 3209              		.align 2
 3210              	.LCOLDB84:
 3211              		.text
 3212              	.LHOTB84:
 3213 0f1b 90       		.align 2
 3214 0f1c 0F1F4000 		.p2align 4,,15
 3216              	_ZNK12_GLOBAL__N_152TestTestRunnerFixtureSlowTestWithTimeExemptionPasses7RunImplEv:
 3217              	.LFB1295:
 3218              		.cfi_startproc
 3219              		.cfi_personality 0x3,__gxx_personality_v0
 3220              		.cfi_lsda 0x3,.LLSDA1295
 3221 0f20 4155     		pushq	%r13
 3222              		.cfi_def_cfa_offset 16
 3223              		.cfi_offset 13, -16
 3224 0f22 4154     		pushq	%r12
 3225              		.cfi_def_cfa_offset 24
 3226              		.cfi_offset 12, -24
 3227 0f24 55       		pushq	%rbp
 3228              		.cfi_def_cfa_offset 32
 3229              		.cfi_offset 6, -32
 3230 0f25 53       		pushq	%rbx
 3231              		.cfi_def_cfa_offset 40
 3232              		.cfi_offset 3, -40
 3233 0f26 4889FD   		movq	%rdi, %rbp
 3234 0f29 488D5F08 		leaq	8(%rdi), %rbx
 3235 0f2d 4881EC98 		subq	$2200, %rsp
 3235      080000
 3236              		.cfi_def_cfa_offset 2240
 3237 0f34 64488B04 		movq	%fs:40, %rax
 3237      25280000 
 3237      00
 3238 0f3d 48898424 		movq	%rax, 2184(%rsp)
 3238      88080000 
 3239 0f45 31C0     		xorl	%eax, %eax
 3240 0f47 488D4424 		leaq	32(%rsp), %rax
 3240      20
 3241 0f4c 488D7424 		leaq	56(%rsp), %rsi
 3241      38
 3242 0f51 4889C7   		movq	%rax, %rdi
 3243              	.LEHB60:
 3244 0f54 E8000000 		call	_ZN8UnitTest10TestRunnerC1ERNS_12TestReporterE
 3244      00
 3245              	.LEHE60:
 3246 0f59 488DBC24 		leaq	2152(%rsp), %rdi
 3246      68080000 
 3247 0f61 48C74424 		movq	$_ZTV17RecordingReporter+16, 56(%rsp)
 3247      38000000 
 3247      00
 3248 0f6a C7442440 		movl	$0, 64(%rsp)
 3248      00000000 
 3249 0f72 C7842444 		movl	$0, 580(%rsp)
 3249      02000000 
 3249      000000
 3250 0f7d C7842448 		movl	$0, 840(%rsp)
 3250      03000000 
 3250      000000
 3251 0f88 C784244C 		movl	$0, 1612(%rsp)
 3251      06000000 
 3251      000000
 3252 0f93 C7842450 		movl	$0x00000000, 2128(%rsp)
 3252      08000000 
 3252      000000
 3253 0f9e C7842454 		movl	$0, 2132(%rsp)
 3253      08000000 
 3253      000000
 3254 0fa9 C7842458 		movl	$0, 2136(%rsp)
 3254      08000000 
 3254      000000
 3255 0fb4 C784245C 		movl	$0, 2140(%rsp)
 3255      08000000 
 3255      000000
 3256 0fbf C7842460 		movl	$0x00000000, 2144(%rsp)
 3256      08000000 
 3256      000000
 3257 0fca C6442444 		movb	$0, 68(%rsp)
 3257      00
 3258 0fcf C6842444 		movb	$0, 324(%rsp)
 3258      01000000 
 3259 0fd7 C6842448 		movb	$0, 584(%rsp)
 3259      02000000 
 3260 0fdf C684244C 		movb	$0, 844(%rsp)
 3260      03000000 
 3261 0fe7 C684244C 		movb	$0, 1100(%rsp)
 3261      04000000 
 3262 0fef C684244C 		movb	$0, 1356(%rsp)
 3262      05000000 
 3263 0ff7 C6842450 		movb	$0, 1616(%rsp)
 3263      06000000 
 3264 0fff C6842450 		movb	$0, 1872(%rsp)
 3264      07000000 
 3265              	.LEHB61:
 3266 1007 E8000000 		call	_ZN8UnitTest8TestListC1Ev
 3266      00
 3267              	.LEHE61:
 3268 100c 488D7C24 		leaq	32(%rsp), %rdi
 3268      20
 3269 1011 4889DE   		movq	%rbx, %rsi
 3270 1014 48899C24 		movq	%rbx, 2168(%rsp)
 3270      78080000 
 3271              	.LEHB62:
 3272 101c E84FFBFF 		call	_ZN8UnitTest11ExecuteTestIN12_GLOBAL__N_154TestRunnerFixtureSlowTestWithTimeExemptionPassesHe
 3272      FF
 3273              	.LEHE62:
 3274 1021 488D7C24 		leaq	56(%rsp), %rdi
 3274      38
 3275 1026 48C74424 		movq	$_ZTV17RecordingReporter+16, 56(%rsp)
 3275      38000000 
 3275      00
 3276              	.LEHB63:
 3277 102f E8000000 		call	_ZN8UnitTest12TestReporterD2Ev
 3277      00
 3278              	.LEHE63:
 3279 1034 488D7C24 		leaq	32(%rsp), %rdi
 3279      20
 3280              	.LEHB64:
 3281 1039 E8000000 		call	_ZN8UnitTest10TestRunnerD1Ev
 3281      00
 3282              	.LEHE64:
 3283              	.L275:
 3284 103e 488B8424 		movq	2184(%rsp), %rax
 3284      88080000 
 3285 1046 64483304 		xorq	%fs:40, %rax
 3285      25280000 
 3285      00
 3286 104f 750E     		jne	.L314
 3287 1051 4881C498 		addq	$2200, %rsp
 3287      080000
 3288              		.cfi_remember_state
 3289              		.cfi_def_cfa_offset 40
 3290 1058 5B       		popq	%rbx
 3291              		.cfi_def_cfa_offset 32
 3292 1059 5D       		popq	%rbp
 3293              		.cfi_def_cfa_offset 24
 3294 105a 415C     		popq	%r12
 3295              		.cfi_def_cfa_offset 16
 3296 105c 415D     		popq	%r13
 3297              		.cfi_def_cfa_offset 8
 3298 105e C3       		ret
 3299              	.L314:
 3300              		.cfi_restore_state
 3301 105f E8000000 		call	__stack_chk_fail
 3301      00
 3302              	.L296:
 3303 1064 4889C7   		movq	%rax, %rdi
 3304 1067 41BC0100 		movl	$1, %r12d
 3304      0000
 3305              	.L278:
 3306 106d 4883FA01 		cmpq	$1, %rdx
 3307 1071 0F844501 		je	.L287
 3307      0000
 3308 1077 4883FA02 		cmpq	$2, %rdx
 3309 107b 0F85FE00 		jne	.L315
 3309      0000
 3310 1081 E8000000 		call	__cxa_begin_catch
 3310      00
 3311 1086 488D7C24 		leaq	32(%rsp), %rdi
 3311      20
 3312 108b 4889C5   		movq	%rax, %rbp
 3313              	.LEHB65:
 3314 108e E8000000 		call	_ZN8UnitTest15MemoryOutStreamC1Ev
 3314      00
 3315              	.LEHE65:
 3316 1093 488B4500 		movq	0(%rbp), %rax
 3317 1097 4889EF   		movq	%rbp, %rdi
 3318 109a FF5010   		call	*16(%rax)
 3319 109d 488D7C24 		leaq	32(%rsp), %rdi
 3319      20
 3320 10a2 BA150000 		movl	$21, %edx
 3320      00
 3321 10a7 BE000000 		movl	$.LC69, %esi
 3321      00
 3322 10ac 4889C5   		movq	%rax, %rbp
 3323              	.LEHB66:
 3324 10af E8000000 		call	_ZSt16__ostream_insertIcSt11char_traitsIcEERSt13basic_ostreamIT_T0_ES6_PKS3_l
 3324      00
 3325 10b4 488D7C24 		leaq	32(%rsp), %rdi
 3325      20
 3326 10b9 4889EE   		movq	%rbp, %rsi
 3327 10bc E8000000 		call	_ZStlsISt11char_traitsIcEERSt13basic_ostreamIcT_ES5_PKc
 3327      00
 3328 10c1 488D7C24 		leaq	32(%rsp), %rdi
 3328      20
 3329 10c6 E8000000 		call	_ZNK8UnitTest15MemoryOutStream7GetTextEv
 3329      00
 3330 10cb 4889C5   		movq	%rax, %rbp
 3331 10ce E8000000 		call	_ZN8UnitTest11CurrentTest7ResultsEv
 3331      00
 3332 10d3 488B38   		movq	(%rax), %rdi
 3333 10d6 4889EA   		movq	%rbp, %rdx
 3334 10d9 4889DE   		movq	%rbx, %rsi
 3335 10dc E8000000 		call	_ZN8UnitTest11TestResults13OnTestFailureERKNS_11TestDetailsEPKc
 3335      00
 3336              	.LEHE66:
 3337 10e1 488D7C24 		leaq	32(%rsp), %rdi
 3337      20
 3338              	.LEHB67:
 3339 10e6 E8000000 		call	_ZN8UnitTest15MemoryOutStreamD1Ev
 3339      00
 3340              	.LEHE67:
 3341              	.L309:
 3342 10eb E8000000 		call	__cxa_end_catch
 3342      00
 3343 10f0 E949FFFF 		jmp	.L275
 3343      FF
 3344              	.L303:
 3345 10f5 488D7C24 		leaq	32(%rsp), %rdi
 3345      20
 3346 10fa 4989D4   		movq	%rdx, %r12
 3347 10fd 4989C5   		movq	%rax, %r13
 3348 1100 E8000000 		call	_ZN8UnitTest10TestRunnerD1Ev
 3348      00
 3349 1105 4C89E2   		movq	%r12, %rdx
 3350 1108 4C89EF   		movq	%r13, %rdi
 3351 110b 41BC0100 		movl	$1, %r12d
 3351      0000
 3352 1111 E957FFFF 		jmp	.L278
 3352      FF
 3353              	.L297:
 3354 1116 488D7C24 		leaq	32(%rsp), %rdi
 3354      20
 3355 111b 4989D4   		movq	%rdx, %r12
 3356 111e 4989C5   		movq	%rax, %r13
 3357 1121 E8000000 		call	_ZN12_GLOBAL__N_111FixtureBaseD2Ev
 3357      00
 3358 1126 4C89E2   		movq	%r12, %rdx
 3359 1129 4C89EF   		movq	%r13, %rdi
 3360 112c 41BC0100 		movl	$1, %r12d
 3360      0000
 3361 1132 E936FFFF 		jmp	.L278
 3361      FF
 3362              	.L302:
 3363 1137 488D7C24 		leaq	32(%rsp), %rdi
 3363      20
 3364 113c 4989D4   		movq	%rdx, %r12
 3365 113f 4989C5   		movq	%rax, %r13
 3366 1142 E8000000 		call	_ZN12_GLOBAL__N_111FixtureBaseD2Ev
 3366      00
 3367 1147 4C89E2   		movq	%r12, %rdx
 3368 114a 4C89EF   		movq	%r13, %rdi
 3369 114d 4531E4   		xorl	%r12d, %r12d
 3370 1150 E918FFFF 		jmp	.L278
 3370      FF
 3371              	.L304:
 3372 1155 4889C7   		movq	%rax, %rdi
 3373 1158 4531E4   		xorl	%r12d, %r12d
 3374 115b E90DFFFF 		jmp	.L278
 3374      FF
 3375              	.L300:
 3376 1160 488D7C24 		leaq	32(%rsp), %rdi
 3376      20
 3377 1165 4889C3   		movq	%rax, %rbx
 3378 1168 E8000000 		call	_ZN8UnitTest15MemoryOutStreamD1Ev
 3378      00
 3379              	.L293:
 3380 116d E8000000 		call	__cxa_end_catch
 3380      00
 3381 1172 4889DF   		movq	%rbx, %rdi
 3382              	.LEHB68:
 3383 1175 E8000000 		call	_Unwind_Resume
 3383      00
 3384              	.LEHE68:
 3385              	.L299:
 3386              	.L310:
 3387 117a 4889C3   		movq	%rax, %rbx
 3388 117d EBEE     		jmp	.L293
 3389              	.L315:
 3390 117f E8000000 		call	__cxa_begin_catch
 3390      00
 3391 1184 4584E4   		testb	%r12b, %r12b
 3392 1187 BACD0000 		movl	$205, %edx
 3392      00
 3393 118c 4889DE   		movq	%rbx, %rsi
 3394 118f 4889E7   		movq	%rsp, %rdi
 3395 1192 0F848900 		je	.L289
 3395      0000
 3396              	.LEHB69:
 3397 1198 E8000000 		call	_ZN8UnitTest11TestDetailsC1ERKS0_i
 3397      00
 3398 119d E8000000 		call	_ZN8UnitTest11CurrentTest7ResultsEv
 3398      00
 3399 11a2 488B38   		movq	(%rax), %rdi
 3400 11a5 BA000000 		movl	$.LC73, %edx
 3400      00
 3401 11aa 4889E6   		movq	%rsp, %rsi
 3402 11ad E8000000 		call	_ZN8UnitTest11TestResults13OnTestFailureERKNS_11TestDetailsEPKc
 3402      00
 3403              	.LEHE69:
 3404              	.L290:
 3405              	.LEHB70:
 3406 11b2 E8000000 		call	__cxa_end_catch
 3406      00
 3407              	.LEHE70:
 3408 11b7 E982FEFF 		jmp	.L275
 3408      FF
 3409              	.L287:
 3410 11bc E8000000 		call	__cxa_begin_catch
 3410      00
 3411 11c1 4889C3   		movq	%rax, %rbx
 3412 11c4 488B00   		movq	(%rax), %rax
 3413 11c7 4889DF   		movq	%rbx, %rdi
 3414 11ca FF5010   		call	*16(%rax)
 3415 11cd 4889DF   		movq	%rbx, %rdi
 3416 11d0 4989C4   		movq	%rax, %r12
 3417              	.LEHB71:
 3418 11d3 E8000000 		call	_ZNK8UnitTest15AssertException10LineNumberEv
 3418      00
 3419 11d8 4889DF   		movq	%rbx, %rdi
 3420 11db 4189C5   		movl	%eax, %r13d
 3421 11de E8000000 		call	_ZNK8UnitTest15AssertException8FilenameEv
 3421      00
 3422 11e3 488B5508 		movq	8(%rbp), %rdx
 3423 11e7 488B7510 		movq	16(%rbp), %rsi
 3424 11eb 4589E8   		movl	%r13d, %r8d
 3425 11ee 4889C1   		movq	%rax, %rcx
 3426 11f1 4889E7   		movq	%rsp, %rdi
 3427 11f4 E8000000 		call	_ZN8UnitTest11TestDetailsC1EPKcS2_S2_i
 3427      00
 3428 11f9 E8000000 		call	_ZN8UnitTest11CurrentTest7ResultsEv
 3428      00
 3429 11fe 488B38   		movq	(%rax), %rdi
 3430 1201 4C89E2   		movq	%r12, %rdx
 3431 1204 4889E6   		movq	%rsp, %rsi
 3432 1207 E8000000 		call	_ZN8UnitTest11TestResults13OnTestFailureERKNS_11TestDetailsEPKc
 3432      00
 3433              	.LEHE71:
 3434 120c E9DAFEFF 		jmp	.L309
 3434      FF
 3435              	.L301:
 3436 1211 4889C3   		movq	%rax, %rbx
 3437 1214 E8000000 		call	__cxa_end_catch
 3437      00
 3438 1219 4889DF   		movq	%rbx, %rdi
 3439              	.LEHB72:
 3440 121c E8000000 		call	_Unwind_Resume
 3440      00
 3441              	.LEHE72:
 3442              	.L289:
 3443              	.LEHB73:
 3444 1221 E8000000 		call	_ZN8UnitTest11TestDetailsC1ERKS0_i
 3444      00
 3445 1226 E8000000 		call	_ZN8UnitTest11CurrentTest7ResultsEv
 3445      00
 3446 122b 488B38   		movq	(%rax), %rdi
 3447 122e BA000000 		movl	$.LC74, %edx
 3447      00
 3448 1233 4889E6   		movq	%rsp, %rsi
 3449 1236 E8000000 		call	_ZN8UnitTest11TestResults13OnTestFailureERKNS_11TestDetailsEPKc
 3449      00
 3450              	.LEHE73:
 3451 123b E972FFFF 		jmp	.L290
 3451      FF
 3452              	.L298:
 3453 1240 E935FFFF 		jmp	.L310
 3453      FF
 3454              		.cfi_endproc
 3455              	.LFE1295:
 3456              		.section	.gcc_except_table
 3457              		.align 4
 3458              	.LLSDA1295:
 3459 01a8 FF       		.byte	0xff
 3460 01a9 03       		.byte	0x3
 3461 01aa 69       		.uleb128 .LLSDATT1295-.LLSDATTD1295
 3462              	.LLSDATTD1295:
 3463 01ab 01       		.byte	0x1
 3464 01ac 50       		.uleb128 .LLSDACSE1295-.LLSDACSB1295
 3465              	.LLSDACSB1295:
 3466 01ad 34       		.uleb128 .LEHB60-.LFB1295
 3467 01ae 05       		.uleb128 .LEHE60-.LEHB60
 3468 01af B504     		.uleb128 .L304-.LFB1295
 3469 01b1 05       		.uleb128 0x5
 3470 01b2 E701     		.uleb128 .LEHB61-.LFB1295
 3471 01b4 05       		.uleb128 .LEHE61-.LEHB61
 3472 01b5 9704     		.uleb128 .L302-.LFB1295
 3473 01b7 07       		.uleb128 0x7
 3474 01b8 FC01     		.uleb128 .LEHB62-.LFB1295
 3475 01ba 05       		.uleb128 .LEHE62-.LEHB62
 3476 01bb F603     		.uleb128 .L297-.LFB1295
 3477 01bd 07       		.uleb128 0x7
 3478 01be 8F02     		.uleb128 .LEHB63-.LFB1295
 3479 01c0 05       		.uleb128 .LEHE63-.LEHB63
 3480 01c1 D503     		.uleb128 .L303-.LFB1295
 3481 01c3 07       		.uleb128 0x7
 3482 01c4 9902     		.uleb128 .LEHB64-.LFB1295
 3483 01c6 05       		.uleb128 .LEHE64-.LEHB64
 3484 01c7 C402     		.uleb128 .L296-.LFB1295
 3485 01c9 05       		.uleb128 0x5
 3486 01ca EE02     		.uleb128 .LEHB65-.LFB1295
 3487 01cc 05       		.uleb128 .LEHE65-.LEHB65
 3488 01cd DA04     		.uleb128 .L299-.LFB1295
 3489 01cf 00       		.uleb128 0
 3490 01d0 8F03     		.uleb128 .LEHB66-.LFB1295
 3491 01d2 32       		.uleb128 .LEHE66-.LEHB66
 3492 01d3 C004     		.uleb128 .L300-.LFB1295
 3493 01d5 00       		.uleb128 0
 3494 01d6 C603     		.uleb128 .LEHB67-.LFB1295
 3495 01d8 05       		.uleb128 .LEHE67-.LEHB67
 3496 01d9 DA04     		.uleb128 .L299-.LFB1295
 3497 01db 00       		.uleb128 0
 3498 01dc D504     		.uleb128 .LEHB68-.LFB1295
 3499 01de 05       		.uleb128 .LEHE68-.LEHB68
 3500 01df 00       		.uleb128 0
 3501 01e0 00       		.uleb128 0
 3502 01e1 F804     		.uleb128 .LEHB69-.LFB1295
 3503 01e3 1A       		.uleb128 .LEHE69-.LEHB69
 3504 01e4 F105     		.uleb128 .L301-.LFB1295
 3505 01e6 00       		.uleb128 0
 3506 01e7 9205     		.uleb128 .LEHB70-.LFB1295
 3507 01e9 05       		.uleb128 .LEHE70-.LEHB70
 3508 01ea 00       		.uleb128 0
 3509 01eb 00       		.uleb128 0
 3510 01ec B305     		.uleb128 .LEHB71-.LFB1295
 3511 01ee 39       		.uleb128 .LEHE71-.LEHB71
 3512 01ef A006     		.uleb128 .L298-.LFB1295
 3513 01f1 00       		.uleb128 0
 3514 01f2 FC05     		.uleb128 .LEHB72-.LFB1295
 3515 01f4 05       		.uleb128 .LEHE72-.LEHB72
 3516 01f5 00       		.uleb128 0
 3517 01f6 00       		.uleb128 0
 3518 01f7 8106     		.uleb128 .LEHB73-.LFB1295
 3519 01f9 1A       		.uleb128 .LEHE73-.LEHB73
 3520 01fa F105     		.uleb128 .L301-.LFB1295
 3521 01fc 00       		.uleb128 0
 3522              	.LLSDACSE1295:
 3523 01fd 03       		.byte	0x3
 3524 01fe 00       		.byte	0
 3525 01ff 02       		.byte	0x2
 3526 0200 7D       		.byte	0x7d
 3527 0201 01       		.byte	0x1
 3528 0202 7D       		.byte	0x7d
 3529 0203 00       		.byte	0
 3530 0204 7D       		.byte	0x7d
 3531 0205 000000   		.align 4
 3532 0208 00000000 		.long	0
 3533              	
 3534 020c 00000000 		.long	_ZTISt9exception
 3535 0210 00000000 		.long	_ZTIN8UnitTest15AssertExceptionE
 3536              	.LLSDATT1295:
 3537              		.text
 3539              		.section	.text.unlikely
 3540              	.LCOLDE84:
 3541              		.text
 3542              	.LHOTE84:
 3543              		.section	.rodata.str1.8
 3544              		.align 8
 3545              	.LC85:
 3546 0198 73747273 		.string	"strstr(test.m_details.filename, reporter.lastFailedFile)"
 3546      74722874 
 3546      6573742E 
 3546      6D5F6465 
 3546      7461696C 
 3547              		.section	.rodata.str1.1
 3548              	.LC86:
 3549 0099 476C6F62 		.string	"Global time constraint failed"
 3549      616C2074 
 3549      696D6520 
 3549      636F6E73 
 3549      74726169 
 3550              		.section	.rodata.str1.8
 3551 01d1 00000000 		.align 8
 3551      000000
 3552              	.LC87:
 3553 01d8 73747273 		.string	"strstr(reporter.lastFailedMessage, \"Global time constraint failed\")"
 3553      74722872 
 3553      65706F72 
 3553      7465722E 
 3553      6C617374 
 3554              		.section	.rodata.str1.1
 3555              	.LC88:
 3556 00b7 336D7300 		.string	"3ms"
 3557              		.section	.rodata.str1.8
 3558 021c 00000000 		.align 8
 3559              	.LC89:
 3560 0220 73747273 		.string	"strstr(reporter.lastFailedMessage, \"3ms\")"
 3560      74722872 
 3560      65706F72 
 3560      7465722E 
 3560      6C617374 
 3561 024a 00000000 		.align 8
 3561      0000
 3562              	.LC90:
 3563 0250 556E6861 		.string	"Unhandled exception in CHECK_EQUAL(test.m_details.testName, reporter.lastFailedTest)"
 3563      6E646C65 
 3563      64206578 
 3563      63657074 
 3563      696F6E20 
 3564 02a5 000000   		.align 8
 3565              	.LC91:
 3566 02a8 556E6861 		.string	"Unhandled exception in CHECK(strstr(test.m_details.filename, reporter.lastFailedFile))"
 3566      6E646C65 
 3566      64206578 
 3566      63657074 
 3566      696F6E20 
 3567 02ff 00       		.align 8
 3568              	.LC92:
 3569 0300 556E6861 		.string	"Unhandled exception in CHECK_EQUAL(test.m_details.lineNumber, reporter.lastFailedLine)"
 3569      6E646C65 
 3569      64206578 
 3569      63657074 
 3569      696F6E20 
 3570 0357 00       		.align 8
 3571              	.LC93:
 3572 0358 556E6861 		.string	"Unhandled exception in CHECK(strstr(reporter.lastFailedMessage, \"Global time constraint 
 3572      6E646C65 
 3572      64206578 
 3572      63657074 
 3572      696F6E20 
 3573 03ba 00000000 		.align 8
 3573      0000
 3574              	.LC94:
 3575 03c0 556E6861 		.string	"Unhandled exception in CHECK(strstr(reporter.lastFailedMessage, \"3ms\"))"
 3575      6E646C65 
 3575      64206578 
 3575      63657074 
 3575      696F6E20 
 3576              		.section	.text.unlikely
 3577              	.LCOLDB95:
 3578              		.text
 3579              	.LHOTB95:
 3580 1245 90662E0F 		.p2align 4,,15
 3580      1F840000 
 3580      000000
 3582              	_ZN8UnitTest11ExecuteTestIN12_GLOBAL__N_159TestRunnerFixtureSlowTestHasCorrectFailureInformationHel
 3583              	.LFB1587:
 3584              		.cfi_startproc
 3585              		.cfi_personality 0x3,__gxx_personality_v0
 3586              		.cfi_lsda 0x3,.LLSDA1587
 3587 1250 4155     		pushq	%r13
 3588              		.cfi_def_cfa_offset 16
 3589              		.cfi_offset 13, -16
 3590 1252 4154     		pushq	%r12
 3591              		.cfi_def_cfa_offset 24
 3592              		.cfi_offset 12, -24
 3593 1254 55       		pushq	%rbp
 3594              		.cfi_def_cfa_offset 32
 3595              		.cfi_offset 6, -32
 3596 1255 53       		pushq	%rbx
 3597              		.cfi_def_cfa_offset 40
 3598              		.cfi_offset 3, -40
 3599 1256 4889F3   		movq	%rsi, %rbx
 3600 1259 4881ECC8 		subq	$1992, %rsp
 3600      070000
 3601              		.cfi_def_cfa_offset 2032
 3602 1260 48893C24 		movq	%rdi, (%rsp)
 3603 1264 48897424 		movq	%rsi, 8(%rsp)
 3603      08
 3604 1269 64488B04 		movq	%fs:40, %rax
 3604      25280000 
 3604      00
 3605 1272 48898424 		movq	%rax, 1976(%rsp)
 3605      B8070000 
 3606 127a 31C0     		xorl	%eax, %eax
 3607              	.LEHB74:
 3608 127c E8000000 		call	_ZN8UnitTest11CurrentTest7DetailsEv
 3608      00
 3609              	.LEHE74:
 3610 1281 488DBC24 		leaq	848(%rsp), %rdi
 3610      50030000 
 3611 1289 488918   		movq	%rbx, (%rax)
 3612              	.LEHB75:
 3613 128c E8000000 		call	_ZN8UnitTest16SignalTranslatorC1Ev
 3613      00
 3614              	.LEHE75:
 3615 1291 488B3D00 		movq	_ZN8UnitTest16SignalTranslator12s_jumpTargetE(%rip), %rdi
 3615      000000
 3616 1298 BE010000 		movl	$1, %esi
 3616      00
 3617 129d E8000000 		call	__sigsetjmp
 3617      00
 3618 12a2 85C0     		testl	%eax, %eax
 3619 12a4 742A     		je	.L378
 3620 12a6 BF080000 		movl	$8, %edi
 3620      00
 3621 12ab E8000000 		call	__cxa_allocate_exception
 3621      00
 3622 12b0 31D2     		xorl	%edx, %edx
 3623 12b2 48C70000 		movq	$.LC61, (%rax)
 3623      000000
 3624 12b9 BE000000 		movl	$_ZTIPKc, %esi
 3624      00
 3625 12be 4889C7   		movq	%rax, %rdi
 3626              	.LEHB76:
 3627 12c1 E8000000 		call	__cxa_throw
 3627      00
 3628 12c6 662E0F1F 		.p2align 4,,10
 3628      84000000 
 3628      0000
 3629              		.p2align 3
 3630              	.L378:
 3631 12d0 488DBC24 		leaq	368(%rsp), %rdi
 3631      70010000 
 3632 12d8 41B87B00 		movl	$123, %r8d
 3632      0000
 3633 12de B9000000 		movl	$.LC62, %ecx
 3633      00
 3634 12e3 BA000000 		movl	$.LC63, %edx
 3634      00
 3635 12e8 BE000000 		movl	$.LC64, %esi
 3635      00
 3636 12ed E8000000 		call	_ZN8UnitTest4TestC2EPKcS2_S2_i
 3636      00
 3637              	.LEHE76:
 3638 12f2 488B2C24 		movq	(%rsp), %rbp
 3639 12f6 488DB424 		leaq	368(%rsp), %rsi
 3639      70010000 
 3640 12fe 48C78424 		movq	$_ZTVN12_GLOBAL__N_18SlowTestE+16, 368(%rsp)
 3640      70010000 
 3640      00000000 
 3641 130a 488D9D48 		leaq	2120(%rbp), %rbx
 3641      080000
 3642 1311 4889DF   		movq	%rbx, %rdi
 3643              	.LEHB77:
 3644 1314 E8000000 		call	_ZN8UnitTest8TestList3AddEPNS_4TestE
 3644      00
 3645 1319 E8000000 		call	_ZN8UnitTest11CurrentTest7ResultsEv
 3645      00
 3646 131e 4C8B20   		movq	(%rax), %r12
 3647 1321 E8000000 		call	_ZN8UnitTest11CurrentTest7DetailsEv
 3647      00
 3648 1326 4889DF   		movq	%rbx, %rdi
 3649 1329 4C8B28   		movq	(%rax), %r13
 3650 132c E8000000 		call	_ZNK8UnitTest8TestList7GetHeadEv
 3650      00
 3651 1331 4885C0   		testq	%rax, %rax
 3652 1334 4889C3   		movq	%rax, %rbx
 3653 1337 7439     		je	.L322
 3654 1339 0F1F8000 		.p2align 4,,10
 3654      000000
 3655              		.p2align 3
 3656              	.L377:
 3657 1340 31D2     		xorl	%edx, %edx
 3658 1342 4889DE   		movq	%rbx, %rsi
 3659 1345 4889EF   		movq	%rbp, %rdi
 3660 1348 E8000000 		call	_ZNK8UnitTest10TestRunner13IsTestInSuiteEPKNS_4TestEPKc
 3660      00
 3661 134d 84C0     		testb	%al, %al
 3662 134f 7418     		je	.L358
 3663 1351 488B0424 		movq	(%rsp), %rax
 3664 1355 B9030000 		movl	$3, %ecx
 3664      00
 3665 135a 4889DA   		movq	%rbx, %rdx
 3666 135d 4889EF   		movq	%rbp, %rdi
 3667 1360 488B7008 		movq	8(%rax), %rsi
 3668 1364 E8000000 		call	_ZNK8UnitTest10TestRunner7RunTestEPNS_11TestResultsEPNS_4TestEi
 3668      00
 3669              	.L358:
 3670 1369 488B5B28 		movq	40(%rbx), %rbx
 3671 136d 4885DB   		testq	%rbx, %rbx
 3672 1370 75CE     		jne	.L377
 3673              	.L322:
 3674 1372 488B3C24 		movq	(%rsp), %rdi
 3675 1376 E8000000 		call	_ZNK8UnitTest10TestRunner6FinishEv
 3675      00
 3676 137b E8000000 		call	_ZN8UnitTest11CurrentTest7ResultsEv
 3676      00
 3677 1380 4C8920   		movq	%r12, (%rax)
 3678 1383 E8000000 		call	_ZN8UnitTest11CurrentTest7DetailsEv
 3678      00
 3679              	.LEHE77:
 3680 1388 4C8928   		movq	%r13, (%rax)
 3681              	.LEHB78:
 3682 138b E8000000 		call	_ZN8UnitTest11CurrentTest7DetailsEv
 3682      00
 3683 1390 488B30   		movq	(%rax), %rsi
 3684 1393 488DBC24 		leaq	336(%rsp), %rdi
 3684      50010000 
 3685 139b BAC50000 		movl	$197, %edx
 3685      00
 3686 13a0 E8000000 		call	_ZN8UnitTest11TestDetailsC1ERKS0_i
 3686      00
 3687 13a5 488B0424 		movq	(%rsp), %rax
 3688 13a9 488B9C24 		movq	384(%rsp), %rbx
 3688      80010000 
 3689 13b1 488DA82C 		leaq	1068(%rax), %rbp
 3689      040000
 3690 13b8 E8000000 		call	_ZN8UnitTest11CurrentTest7ResultsEv
 3690      00
 3691 13bd 488B38   		movq	(%rax), %rdi
 3692 13c0 488D8C24 		leaq	336(%rsp), %rcx
 3692      50010000 
 3693 13c8 4889EA   		movq	%rbp, %rdx
 3694 13cb 4889DE   		movq	%rbx, %rsi
 3695 13ce E8000000 		call	_ZN8UnitTest10CheckEqualERNS_11TestResultsEPKcPcRKNS_11TestDetailsE
 3695      00
 3696              	.LEHE78:
 3697              	.L332:
 3698 13d3 488B0424 		movq	(%rsp), %rax
 3699 13d7 488BBC24 		movq	392(%rsp), %rdi
 3699      88010000 
 3700 13df 488DB028 		leaq	552(%rax), %rsi
 3700      020000
 3701 13e6 E8000000 		call	strstr
 3701      00
 3702 13eb 4885C0   		testq	%rax, %rax
 3703 13ee 0F840401 		je	.L386
 3703      0000
 3704              	.L325:
 3705              	.LEHB79:
 3706 13f4 E8000000 		call	_ZN8UnitTest11CurrentTest7DetailsEv
 3706      00
 3707 13f9 488B30   		movq	(%rax), %rsi
 3708 13fc 488DBC24 		leaq	208(%rsp), %rdi
 3708      D0000000 
 3709 1404 BAC70000 		movl	$199, %edx
 3709      00
 3710 1409 E8000000 		call	_ZN8UnitTest11TestDetailsC1ERKS0_i
 3710      00
 3711 140e 488B0424 		movq	(%rsp), %rax
 3712 1412 488D9828 		leaq	808(%rax), %rbx
 3712      030000
 3713 1419 E8000000 		call	_ZN8UnitTest11CurrentTest7ResultsEv
 3713      00
 3714 141e 488B38   		movq	(%rax), %rdi
 3715 1421 488D8C24 		leaq	208(%rsp), %rcx
 3715      D0000000 
 3716 1429 488DB424 		leaq	400(%rsp), %rsi
 3716      90010000 
 3717 1431 4889DA   		movq	%rbx, %rdx
 3718 1434 E8000000 		call	_ZN8UnitTest10CheckEqualIiiEEvRNS_11TestResultsERKT_RKT0_RKNS_11TestDetailsE
 3718      00
 3719              	.LEHE79:
 3720              	.L339:
 3721 1439 488B1C24 		movq	(%rsp), %rbx
 3722 143d BE000000 		movl	$.LC86, %esi
 3722      00
 3723 1442 4881C32C 		addq	$1324, %rbx
 3723      050000
 3724 1449 4889DF   		movq	%rbx, %rdi
 3725 144c E8000000 		call	strstr
 3725      00
 3726 1451 4885C0   		testq	%rax, %rax
 3727 1454 0F848E01 		je	.L387
 3727      0000
 3728              	.L327:
 3729 145a BE000000 		movl	$.LC88, %esi
 3729      00
 3730 145f 4889DF   		movq	%rbx, %rdi
 3731 1462 E8000000 		call	strstr
 3731      00
 3732 1467 4885C0   		testq	%rax, %rax
 3733 146a 7454     		je	.L388
 3734              	.L329:
 3735 146c 488DBC24 		leaq	368(%rsp), %rdi
 3735      70010000 
 3736 1474 48C78424 		movq	$_ZTVN12_GLOBAL__N_18SlowTestE+16, 368(%rsp)
 3736      70010000 
 3736      00000000 
 3737              	.LEHB80:
 3738 1480 E8000000 		call	_ZN8UnitTest4TestD2Ev
 3738      00
 3739              	.LEHE80:
 3740 1485 488DBC24 		leaq	848(%rsp), %rdi
 3740      50030000 
 3741              	.LEHB81:
 3742 148d E8000000 		call	_ZN8UnitTest16SignalTranslatorD1Ev
 3742      00
 3743              	.LEHE81:
 3744              	.L316:
 3745 1492 488B8424 		movq	1976(%rsp), %rax
 3745      B8070000 
 3746 149a 64483304 		xorq	%fs:40, %rax
 3746      25280000 
 3746      00
 3747 14a3 0F85E202 		jne	.L389
 3747      0000
 3748 14a9 4881C4C8 		addq	$1992, %rsp
 3748      070000
 3749              		.cfi_remember_state
 3750              		.cfi_def_cfa_offset 40
 3751 14b0 5B       		popq	%rbx
 3752              		.cfi_def_cfa_offset 32
 3753 14b1 5D       		popq	%rbp
 3754              		.cfi_def_cfa_offset 24
 3755 14b2 415C     		popq	%r12
 3756              		.cfi_def_cfa_offset 16
 3757 14b4 415D     		popq	%r13
 3758              		.cfi_def_cfa_offset 8
 3759 14b6 C3       		ret
 3760 14b7 660F1F84 		.p2align 4,,10
 3760      00000000 
 3760      00
 3761              		.p2align 3
 3762              	.L388:
 3763              		.cfi_restore_state
 3764              	.LEHB82:
 3765 14c0 E8000000 		call	_ZN8UnitTest11CurrentTest7DetailsEv
 3765      00
 3766 14c5 488B30   		movq	(%rax), %rsi
 3767 14c8 488D7C24 		leaq	80(%rsp), %rdi
 3767      50
 3768 14cd BACA0000 		movl	$202, %edx
 3768      00
 3769 14d2 E8000000 		call	_ZN8UnitTest11TestDetailsC1ERKS0_i
 3769      00
 3770 14d7 E8000000 		call	_ZN8UnitTest11CurrentTest7ResultsEv
 3770      00
 3771 14dc 488B38   		movq	(%rax), %rdi
 3772 14df 488D7424 		leaq	80(%rsp), %rsi
 3772      50
 3773 14e4 BA000000 		movl	$.LC89, %edx
 3773      00
 3774 14e9 E8000000 		call	_ZN8UnitTest11TestResults13OnTestFailureERKNS_11TestDetailsEPKc
 3774      00
 3775              	.LEHE82:
 3776 14ee E979FFFF 		jmp	.L329
 3776      FF
 3777              		.p2align 4,,10
 3778 14f3 0F1F4400 		.p2align 3
 3778      00
 3779              	.L386:
 3780              	.LEHB83:
 3781 14f8 E8000000 		call	_ZN8UnitTest11CurrentTest7DetailsEv
 3781      00
 3782 14fd 488B30   		movq	(%rax), %rsi
 3783 1500 488DBC24 		leaq	272(%rsp), %rdi
 3783      10010000 
 3784 1508 BAC60000 		movl	$198, %edx
 3784      00
 3785 150d E8000000 		call	_ZN8UnitTest11TestDetailsC1ERKS0_i
 3785      00
 3786 1512 E8000000 		call	_ZN8UnitTest11CurrentTest7ResultsEv
 3786      00
 3787 1517 488B38   		movq	(%rax), %rdi
 3788 151a 488DB424 		leaq	272(%rsp), %rsi
 3788      10010000 
 3789 1522 BA000000 		movl	$.LC85, %edx
 3789      00
 3790 1527 E8000000 		call	_ZN8UnitTest11TestResults13OnTestFailureERKNS_11TestDetailsEPKc
 3790      00
 3791              	.LEHE83:
 3792 152c E9C3FEFF 		jmp	.L325
 3792      FF
 3793              	.L365:
 3794 1531 4889C3   		movq	%rax, %rbx
 3795 1534 4889D5   		movq	%rdx, %rbp
 3796              	.L347:
 3797 1537 488DBC24 		leaq	848(%rsp), %rdi
 3797      50030000 
 3798 153f E8000000 		call	_ZN8UnitTest16SignalTranslatorD1Ev
 3798      00
 3799 1544 4889DF   		movq	%rbx, %rdi
 3800 1547 4889EA   		movq	%rbp, %rdx
 3801              	.L348:
 3802 154a 4883FA01 		cmpq	$1, %rdx
 3803 154e 0F84E502 		je	.L350
 3803      0000
 3804 1554 4883FA02 		cmpq	$2, %rdx
 3805 1558 0F85B502 		jne	.L390
 3805      0000
 3806 155e E8000000 		call	__cxa_begin_catch
 3806      00
 3807 1563 488DBC24 		leaq	432(%rsp), %rdi
 3807      B0010000 
 3808 156b 4889C3   		movq	%rax, %rbx
 3809              	.LEHB84:
 3810 156e E8000000 		call	_ZN8UnitTest15MemoryOutStreamC1Ev
 3810      00
 3811              	.LEHE84:
 3812 1573 488B03   		movq	(%rbx), %rax
 3813 1576 4889DF   		movq	%rbx, %rdi
 3814 1579 FF5010   		call	*16(%rax)
 3815 157c 488DBC24 		leaq	432(%rsp), %rdi
 3815      B0010000 
 3816 1584 BA150000 		movl	$21, %edx
 3816      00
 3817 1589 BE000000 		movl	$.LC69, %esi
 3817      00
 3818 158e 4889C3   		movq	%rax, %rbx
 3819              	.LEHB85:
 3820 1591 E8000000 		call	_ZSt16__ostream_insertIcSt11char_traitsIcEERSt13basic_ostreamIT_T0_ES6_PKS3_l
 3820      00
 3821 1596 488DBC24 		leaq	432(%rsp), %rdi
 3821      B0010000 
 3822 159e 4889DE   		movq	%rbx, %rsi
 3823 15a1 E8000000 		call	_ZStlsISt11char_traitsIcEERSt13basic_ostreamIcT_ES5_PKc
 3823      00
 3824 15a6 488DBC24 		leaq	432(%rsp), %rdi
 3824      B0010000 
 3825 15ae E8000000 		call	_ZNK8UnitTest15MemoryOutStream7GetTextEv
 3825      00
 3826 15b3 4889C3   		movq	%rax, %rbx
 3827 15b6 E8000000 		call	_ZN8UnitTest11CurrentTest7ResultsEv
 3827      00
 3828 15bb 488B7424 		movq	8(%rsp), %rsi
 3828      08
 3829 15c0 488B38   		movq	(%rax), %rdi
 3830 15c3 4889DA   		movq	%rbx, %rdx
 3831 15c6 E8000000 		call	_ZN8UnitTest11TestResults13OnTestFailureERKNS_11TestDetailsEPKc
 3831      00
 3832              	.LEHE85:
 3833 15cb 488DBC24 		leaq	432(%rsp), %rdi
 3833      B0010000 
 3834              	.LEHB86:
 3835 15d3 E8000000 		call	_ZN8UnitTest15MemoryOutStreamD1Ev
 3835      00
 3836              	.LEHE86:
 3837              	.L382:
 3838 15d8 E8000000 		call	__cxa_end_catch
 3838      00
 3839 15dd E9B0FEFF 		jmp	.L316
 3839      FF
 3840              		.p2align 4,,10
 3841 15e2 660F1F44 		.p2align 3
 3841      0000
 3842              	.L387:
 3843              	.LEHB87:
 3844 15e8 E8000000 		call	_ZN8UnitTest11CurrentTest7DetailsEv
 3844      00
 3845 15ed 488B30   		movq	(%rax), %rsi
 3846 15f0 488DBC24 		leaq	144(%rsp), %rdi
 3846      90000000 
 3847 15f8 BAC90000 		movl	$201, %edx
 3847      00
 3848 15fd E8000000 		call	_ZN8UnitTest11TestDetailsC1ERKS0_i
 3848      00
 3849 1602 E8000000 		call	_ZN8UnitTest11CurrentTest7ResultsEv
 3849      00
 3850 1607 488B38   		movq	(%rax), %rdi
 3851 160a 488DB424 		leaq	144(%rsp), %rsi
 3851      90000000 
 3852 1612 BA000000 		movl	$.LC87, %edx
 3852      00
 3853 1617 E8000000 		call	_ZN8UnitTest11TestResults13OnTestFailureERKNS_11TestDetailsEPKc
 3853      00
 3854              	.LEHE87:
 3855 161c E939FEFF 		jmp	.L327
 3855      FF
 3856              	.L372:
 3857 1621 4889C7   		movq	%rax, %rdi
 3858 1624 E8000000 		call	__cxa_begin_catch
 3858      00
 3859              	.LEHB88:
 3860 1629 E8000000 		call	_ZN8UnitTest11CurrentTest7DetailsEv
 3860      00
 3861 162e 488B30   		movq	(%rax), %rsi
 3862 1631 488DBC24 		leaq	176(%rsp), %rdi
 3862      B0000000 
 3863 1639 BAC70000 		movl	$199, %edx
 3863      00
 3864 163e E8000000 		call	_ZN8UnitTest11TestDetailsC1ERKS0_i
 3864      00
 3865 1643 E8000000 		call	_ZN8UnitTest11CurrentTest7ResultsEv
 3865      00
 3866 1648 488B38   		movq	(%rax), %rdi
 3867 164b 488DB424 		leaq	176(%rsp), %rsi
 3867      B0000000 
 3868 1653 BA000000 		movl	$.LC92, %edx
 3868      00
 3869 1658 E8000000 		call	_ZN8UnitTest11TestResults13OnTestFailureERKNS_11TestDetailsEPKc
 3869      00
 3870              	.LEHE88:
 3871              	.LEHB89:
 3872 165d E8000000 		call	__cxa_end_catch
 3872      00
 3873              	.LEHE89:
 3874 1662 E9D2FDFF 		jmp	.L339
 3874      FF
 3875              	.L370:
 3876 1667 4889C7   		movq	%rax, %rdi
 3877 166a E8000000 		call	__cxa_begin_catch
 3877      00
 3878              	.LEHB90:
 3879 166f E8000000 		call	_ZN8UnitTest11CurrentTest7DetailsEv
 3879      00
 3880 1674 488B30   		movq	(%rax), %rsi
 3881 1677 488D7C24 		leaq	112(%rsp), %rdi
 3881      70
 3882 167c BAC90000 		movl	$201, %edx
 3882      00
 3883 1681 E8000000 		call	_ZN8UnitTest11TestDetailsC1ERKS0_i
 3883      00
 3884 1686 E8000000 		call	_ZN8UnitTest11CurrentTest7ResultsEv
 3884      00
 3885 168b 488B38   		movq	(%rax), %rdi
 3886 168e 488D7424 		leaq	112(%rsp), %rsi
 3886      70
 3887 1693 BA000000 		movl	$.LC93, %edx
 3887      00
 3888 1698 E8000000 		call	_ZN8UnitTest11TestResults13OnTestFailureERKNS_11TestDetailsEPKc
 3888      00
 3889              	.LEHE90:
 3890              	.LEHB91:
 3891 169d E8000000 		call	__cxa_end_catch
 3891      00
 3892              	.LEHE91:
 3893 16a2 E9B3FDFF 		jmp	.L327
 3893      FF
 3894              	.L371:
 3895 16a7 4889C3   		movq	%rax, %rbx
 3896 16aa 4889D5   		movq	%rdx, %rbp
 3897 16ad E8000000 		call	__cxa_end_catch
 3897      00
 3898              	.L334:
 3899 16b2 488DBC24 		leaq	368(%rsp), %rdi
 3899      70010000 
 3900 16ba 48C78424 		movq	$_ZTVN12_GLOBAL__N_18SlowTestE+16, 368(%rsp)
 3900      70010000 
 3900      00000000 
 3901 16c6 E8000000 		call	_ZN8UnitTest4TestD2Ev
 3901      00
 3902 16cb E967FEFF 		jmp	.L347
 3902      FF
 3903              	.L369:
 3904 16d0 4889C3   		movq	%rax, %rbx
 3905 16d3 4889D5   		movq	%rdx, %rbp
 3906 16d6 E8000000 		call	__cxa_end_catch
 3906      00
 3907 16db EBD5     		jmp	.L334
 3908              	.L374:
 3909 16dd 4889C7   		movq	%rax, %rdi
 3910 16e0 E8000000 		call	__cxa_begin_catch
 3910      00
 3911              	.LEHB92:
 3912 16e5 E8000000 		call	_ZN8UnitTest11CurrentTest7DetailsEv
 3912      00
 3913 16ea 488B30   		movq	(%rax), %rsi
 3914 16ed 488DBC24 		leaq	240(%rsp), %rdi
 3914      F0000000 
 3915 16f5 BAC60000 		movl	$198, %edx
 3915      00
 3916 16fa E8000000 		call	_ZN8UnitTest11TestDetailsC1ERKS0_i
 3916      00
 3917 16ff E8000000 		call	_ZN8UnitTest11CurrentTest7ResultsEv
 3917      00
 3918 1704 488B38   		movq	(%rax), %rdi
 3919 1707 488DB424 		leaq	240(%rsp), %rsi
 3919      F0000000 
 3920 170f BA000000 		movl	$.LC91, %edx
 3920      00
 3921 1714 E8000000 		call	_ZN8UnitTest11TestResults13OnTestFailureERKNS_11TestDetailsEPKc
 3921      00
 3922              	.LEHE92:
 3923              	.LEHB93:
 3924 1719 E8000000 		call	__cxa_end_catch
 3924      00
 3925              	.LEHE93:
 3926 171e E9D1FCFF 		jmp	.L325
 3926      FF
 3927              	.L368:
 3928 1723 4889C7   		movq	%rax, %rdi
 3929 1726 E8000000 		call	__cxa_begin_catch
 3929      00
 3930              	.LEHB94:
 3931 172b E8000000 		call	_ZN8UnitTest11CurrentTest7DetailsEv
 3931      00
 3932 1730 488B30   		movq	(%rax), %rsi
 3933 1733 488D7C24 		leaq	48(%rsp), %rdi
 3933      30
 3934 1738 BACA0000 		movl	$202, %edx
 3934      00
 3935 173d E8000000 		call	_ZN8UnitTest11TestDetailsC1ERKS0_i
 3935      00
 3936 1742 E8000000 		call	_ZN8UnitTest11CurrentTest7ResultsEv
 3936      00
 3937 1747 488B38   		movq	(%rax), %rdi
 3938 174a 488D7424 		leaq	48(%rsp), %rsi
 3938      30
 3939 174f BA000000 		movl	$.LC94, %edx
 3939      00
 3940 1754 E8000000 		call	_ZN8UnitTest11TestResults13OnTestFailureERKNS_11TestDetailsEPKc
 3940      00
 3941              	.LEHE94:
 3942              	.LEHB95:
 3943 1759 E8000000 		call	__cxa_end_catch
 3943      00
 3944              	.LEHE95:
 3945 175e E909FDFF 		jmp	.L329
 3945      FF
 3946              	.L373:
 3947 1763 4889C3   		movq	%rax, %rbx
 3948 1766 4889D5   		movq	%rdx, %rbp
 3949 1769 E8000000 		call	__cxa_end_catch
 3949      00
 3950 176e E93FFFFF 		jmp	.L334
 3950      FF
 3951              	.L367:
 3952 1773 4889C3   		movq	%rax, %rbx
 3953 1776 4889D5   		movq	%rdx, %rbp
 3954 1779 E8000000 		call	__cxa_end_catch
 3954      00
 3955 177e E92FFFFF 		jmp	.L334
 3955      FF
 3956              	.L364:
 3957 1783 4889C7   		movq	%rax, %rdi
 3958 1786 E9BFFDFF 		jmp	.L348
 3958      FF
 3959              	.L389:
 3960 178b E8000000 		call	__stack_chk_fail
 3960      00
 3961              	.L376:
 3962 1790 4889C7   		movq	%rax, %rdi
 3963 1793 E8000000 		call	__cxa_begin_catch
 3963      00
 3964              	.LEHB96:
 3965 1798 E8000000 		call	_ZN8UnitTest11CurrentTest7DetailsEv
 3965      00
 3966 179d 488B30   		movq	(%rax), %rsi
 3967 17a0 488DBC24 		leaq	304(%rsp), %rdi
 3967      30010000 
 3968 17a8 BAC50000 		movl	$197, %edx
 3968      00
 3969 17ad E8000000 		call	_ZN8UnitTest11TestDetailsC1ERKS0_i
 3969      00
 3970 17b2 E8000000 		call	_ZN8UnitTest11CurrentTest7ResultsEv
 3970      00
 3971 17b7 488B38   		movq	(%rax), %rdi
 3972 17ba 488DB424 		leaq	304(%rsp), %rsi
 3972      30010000 
 3973 17c2 BA000000 		movl	$.LC90, %edx
 3973      00
 3974 17c7 E8000000 		call	_ZN8UnitTest11TestResults13OnTestFailureERKNS_11TestDetailsEPKc
 3974      00
 3975              	.LEHE96:
 3976              	.LEHB97:
 3977 17cc E8000000 		call	__cxa_end_catch
 3977      00
 3978              	.LEHE97:
 3979 17d1 E9FDFBFF 		jmp	.L332
 3979      FF
 3980              	.L366:
 3981 17d6 4889C3   		movq	%rax, %rbx
 3982 17d9 4889D5   		movq	%rdx, %rbp
 3983 17dc E9D1FEFF 		jmp	.L334
 3983      FF
 3984              	.L375:
 3985 17e1 4889C3   		movq	%rax, %rbx
 3986 17e4 4889D5   		movq	%rdx, %rbp
 3987 17e7 E8000000 		call	__cxa_end_catch
 3987      00
 3988 17ec E9C1FEFF 		jmp	.L334
 3988      FF
 3989              	.L362:
 3990 17f1 488DBC24 		leaq	432(%rsp), %rdi
 3990      B0010000 
 3991 17f9 4889C3   		movq	%rax, %rbx
 3992 17fc E8000000 		call	_ZN8UnitTest15MemoryOutStreamD1Ev
 3992      00
 3993              	.L356:
 3994 1801 E8000000 		call	__cxa_end_catch
 3994      00
 3995 1806 4889DF   		movq	%rbx, %rdi
 3996              	.LEHB98:
 3997 1809 E8000000 		call	_Unwind_Resume
 3997      00
 3998              	.LEHE98:
 3999              	.L361:
 4000              	.L383:
 4001 180e 4889C3   		movq	%rax, %rbx
 4002 1811 EBEE     		jmp	.L356
 4003              	.L390:
 4004 1813 E8000000 		call	__cxa_begin_catch
 4004      00
 4005              	.LEHB99:
 4006 1818 E8000000 		call	_ZN8UnitTest11CurrentTest7ResultsEv
 4006      00
 4007 181d 488B7424 		movq	8(%rsp), %rsi
 4007      08
 4008 1822 488B38   		movq	(%rax), %rdi
 4009 1825 BA000000 		movl	$.LC70, %edx
 4009      00
 4010 182a E8000000 		call	_ZN8UnitTest11TestResults13OnTestFailureERKNS_11TestDetailsEPKc
 4010      00
 4011              	.LEHE99:
 4012              	.LEHB100:
 4013 182f E8000000 		call	__cxa_end_catch
 4013      00
 4014              	.LEHE100:
 4015 1834 E959FCFF 		jmp	.L316
 4015      FF
 4016              	.L350:
 4017 1839 E8000000 		call	__cxa_begin_catch
 4017      00
 4018 183e 4889C3   		movq	%rax, %rbx
 4019 1841 488B00   		movq	(%rax), %rax
 4020 1844 4889DF   		movq	%rbx, %rdi
 4021 1847 FF5010   		call	*16(%rax)
 4022 184a 4889DF   		movq	%rbx, %rdi
 4023 184d 4889C5   		movq	%rax, %rbp
 4024              	.LEHB101:
 4025 1850 E8000000 		call	_ZNK8UnitTest15AssertException10LineNumberEv
 4025      00
 4026 1855 4889DF   		movq	%rbx, %rdi
 4027 1858 4189C4   		movl	%eax, %r12d
 4028 185b E8000000 		call	_ZNK8UnitTest15AssertException8FilenameEv
 4028      00
 4029 1860 488B5424 		movq	8(%rsp), %rdx
 4029      08
 4030 1865 488D7C24 		leaq	16(%rsp), %rdi
 4030      10
 4031 186a 4589E0   		movl	%r12d, %r8d
 4032 186d 4889C1   		movq	%rax, %rcx
 4033 1870 488B7208 		movq	8(%rdx), %rsi
 4034 1874 488B12   		movq	(%rdx), %rdx
 4035 1877 E8000000 		call	_ZN8UnitTest11TestDetailsC1EPKcS2_S2_i
 4035      00
 4036 187c E8000000 		call	_ZN8UnitTest11CurrentTest7ResultsEv
 4036      00
 4037 1881 488B38   		movq	(%rax), %rdi
 4038 1884 488D7424 		leaq	16(%rsp), %rsi
 4038      10
 4039 1889 4889EA   		movq	%rbp, %rdx
 4040 188c E8000000 		call	_ZN8UnitTest11TestResults13OnTestFailureERKNS_11TestDetailsEPKc
 4040      00
 4041              	.LEHE101:
 4042 1891 E942FDFF 		jmp	.L382
 4042      FF
 4043              	.L360:
 4044 1896 4889C3   		movq	%rax, %rbx
 4045 1899 E8000000 		call	__cxa_end_catch
 4045      00
 4046 189e 4889DF   		movq	%rbx, %rdi
 4047              	.LEHB102:
 4048 18a1 E8000000 		call	_Unwind_Resume
 4048      00
 4049              	.LEHE102:
 4050              	.L363:
 4051 18a6 E963FFFF 		jmp	.L383
 4051      FF
 4052              		.cfi_endproc
 4053              	.LFE1587:
 4054              		.section	.gcc_except_table
 4055              		.align 4
 4056              	.LLSDA1587:
 4057 0214 FF       		.byte	0xff
 4058 0215 03       		.byte	0x3
 4059 0216 C001     		.uleb128 .LLSDATT1587-.LLSDATTD1587
 4060              	.LLSDATTD1587:
 4061 0218 01       		.byte	0x1
 4062 0219 A701     		.uleb128 .LLSDACSE1587-.LLSDACSB1587
 4063              	.LLSDACSB1587:
 4064 021b 2C       		.uleb128 .LEHB74-.LFB1587
 4065 021c 05       		.uleb128 .LEHE74-.LEHB74
 4066 021d 00       		.uleb128 0
 4067 021e 00       		.uleb128 0
 4068 021f 3C       		.uleb128 .LEHB75-.LFB1587
 4069 0220 05       		.uleb128 .LEHE75-.LEHB75
 4070 0221 B30A     		.uleb128 .L364-.LFB1587
 4071 0223 05       		.uleb128 0x5
 4072 0224 71       		.uleb128 .LEHB76-.LFB1587
 4073 0225 31       		.uleb128 .LEHE76-.LEHB76
 4074 0226 E105     		.uleb128 .L365-.LFB1587
 4075 0228 07       		.uleb128 0x7
 4076 0229 C401     		.uleb128 .LEHB77-.LFB1587
 4077 022b 74       		.uleb128 .LEHE77-.LEHB77
 4078 022c 860B     		.uleb128 .L366-.LFB1587
 4079 022e 07       		.uleb128 0x7
 4080 022f BB02     		.uleb128 .LEHB78-.LFB1587
 4081 0231 48       		.uleb128 .LEHE78-.LEHB78
 4082 0232 C00A     		.uleb128 .L376-.LFB1587
 4083 0234 01       		.uleb128 0x1
 4084 0235 A403     		.uleb128 .LEHB79-.LFB1587
 4085 0237 45       		.uleb128 .LEHE79-.LEHB79
 4086 0238 D107     		.uleb128 .L372-.LFB1587
 4087 023a 01       		.uleb128 0x1
 4088 023b B004     		.uleb128 .LEHB80-.LFB1587
 4089 023d 05       		.uleb128 .LEHE80-.LEHB80
 4090 023e E105     		.uleb128 .L365-.LFB1587
 4091 0240 07       		.uleb128 0x7
 4092 0241 BD04     		.uleb128 .LEHB81-.LFB1587
 4093 0243 05       		.uleb128 .LEHE81-.LEHB81
 4094 0244 B30A     		.uleb128 .L364-.LFB1587
 4095 0246 05       		.uleb128 0x5
 4096 0247 F004     		.uleb128 .LEHB82-.LFB1587
 4097 0249 2E       		.uleb128 .LEHE82-.LEHB82
 4098 024a D309     		.uleb128 .L368-.LFB1587
 4099 024c 01       		.uleb128 0x1
 4100 024d A805     		.uleb128 .LEHB83-.LFB1587
 4101 024f 34       		.uleb128 .LEHE83-.LEHB83
 4102 0250 8D09     		.uleb128 .L374-.LFB1587
 4103 0252 01       		.uleb128 0x1
 4104 0253 9E06     		.uleb128 .LEHB84-.LFB1587
 4105 0255 05       		.uleb128 .LEHE84-.LEHB84
 4106 0256 BE0B     		.uleb128 .L361-.LFB1587
 4107 0258 00       		.uleb128 0
 4108 0259 C106     		.uleb128 .LEHB85-.LFB1587
 4109 025b 3A       		.uleb128 .LEHE85-.LEHB85
 4110 025c A10B     		.uleb128 .L362-.LFB1587
 4111 025e 00       		.uleb128 0
 4112 025f 8307     		.uleb128 .LEHB86-.LFB1587
 4113 0261 05       		.uleb128 .LEHE86-.LEHB86
 4114 0262 BE0B     		.uleb128 .L361-.LFB1587
 4115 0264 00       		.uleb128 0
 4116 0265 9807     		.uleb128 .LEHB87-.LFB1587
 4117 0267 34       		.uleb128 .LEHE87-.LEHB87
 4118 0268 9708     		.uleb128 .L370-.LFB1587
 4119 026a 01       		.uleb128 0x1
 4120 026b D907     		.uleb128 .LEHB88-.LFB1587
 4121 026d 34       		.uleb128 .LEHE88-.LEHB88
 4122 026e D708     		.uleb128 .L371-.LFB1587
 4123 0270 07       		.uleb128 0x7
 4124 0271 8D08     		.uleb128 .LEHB89-.LFB1587
 4125 0273 05       		.uleb128 .LEHE89-.LEHB89
 4126 0274 860B     		.uleb128 .L366-.LFB1587
 4127 0276 07       		.uleb128 0x7
 4128 0277 9F08     		.uleb128 .LEHB90-.LFB1587
 4129 0279 2E       		.uleb128 .LEHE90-.LEHB90
 4130 027a 8009     		.uleb128 .L369-.LFB1587
 4131 027c 07       		.uleb128 0x7
 4132 027d CD08     		.uleb128 .LEHB91-.LFB1587
 4133 027f 05       		.uleb128 .LEHE91-.LEHB91
 4134 0280 860B     		.uleb128 .L366-.LFB1587
 4135 0282 07       		.uleb128 0x7
 4136 0283 9509     		.uleb128 .LEHB92-.LFB1587
 4137 0285 34       		.uleb128 .LEHE92-.LEHB92
 4138 0286 930A     		.uleb128 .L373-.LFB1587
 4139 0288 07       		.uleb128 0x7
 4140 0289 C909     		.uleb128 .LEHB93-.LFB1587
 4141 028b 05       		.uleb128 .LEHE93-.LEHB93
 4142 028c 860B     		.uleb128 .L366-.LFB1587
 4143 028e 07       		.uleb128 0x7
 4144 028f DB09     		.uleb128 .LEHB94-.LFB1587
 4145 0291 2E       		.uleb128 .LEHE94-.LEHB94
 4146 0292 A30A     		.uleb128 .L367-.LFB1587
 4147 0294 07       		.uleb128 0x7
 4148 0295 890A     		.uleb128 .LEHB95-.LFB1587
 4149 0297 05       		.uleb128 .LEHE95-.LEHB95
 4150 0298 860B     		.uleb128 .L366-.LFB1587
 4151 029a 07       		.uleb128 0x7
 4152 029b C80A     		.uleb128 .LEHB96-.LFB1587
 4153 029d 34       		.uleb128 .LEHE96-.LEHB96
 4154 029e 910B     		.uleb128 .L375-.LFB1587
 4155 02a0 07       		.uleb128 0x7
 4156 02a1 FC0A     		.uleb128 .LEHB97-.LFB1587
 4157 02a3 05       		.uleb128 .LEHE97-.LEHB97
 4158 02a4 860B     		.uleb128 .L366-.LFB1587
 4159 02a6 07       		.uleb128 0x7
 4160 02a7 B90B     		.uleb128 .LEHB98-.LFB1587
 4161 02a9 05       		.uleb128 .LEHE98-.LEHB98
 4162 02aa 00       		.uleb128 0
 4163 02ab 00       		.uleb128 0
 4164 02ac C80B     		.uleb128 .LEHB99-.LFB1587
 4165 02ae 17       		.uleb128 .LEHE99-.LEHB99
 4166 02af C60C     		.uleb128 .L360-.LFB1587
 4167 02b1 00       		.uleb128 0
 4168 02b2 DF0B     		.uleb128 .LEHB100-.LFB1587
 4169 02b4 05       		.uleb128 .LEHE100-.LEHB100
 4170 02b5 00       		.uleb128 0
 4171 02b6 00       		.uleb128 0
 4172 02b7 800C     		.uleb128 .LEHB101-.LFB1587
 4173 02b9 41       		.uleb128 .LEHE101-.LEHB101
 4174 02ba D60C     		.uleb128 .L363-.LFB1587
 4175 02bc 00       		.uleb128 0
 4176 02bd D10C     		.uleb128 .LEHB102-.LFB1587
 4177 02bf 05       		.uleb128 .LEHE102-.LEHB102
 4178 02c0 00       		.uleb128 0
 4179 02c1 00       		.uleb128 0
 4180              	.LLSDACSE1587:
 4181 02c2 03       		.byte	0x3
 4182 02c3 00       		.byte	0
 4183 02c4 02       		.byte	0x2
 4184 02c5 7D       		.byte	0x7d
 4185 02c6 01       		.byte	0x1
 4186 02c7 7D       		.byte	0x7d
 4187 02c8 00       		.byte	0
 4188 02c9 7D       		.byte	0x7d
 4189 02ca 0000     		.align 4
 4190 02cc 00000000 		.long	0
 4191              	
 4192 02d0 00000000 		.long	_ZTISt9exception
 4193 02d4 00000000 		.long	_ZTIN8UnitTest15AssertExceptionE
 4194              	.LLSDATT1587:
 4195              		.text
 4197              		.section	.text.unlikely
 4198              	.LCOLDE95:
 4199              		.text
 4200              	.LHOTE95:
 4201              		.section	.text.unlikely
 4202              		.align 2
 4203              	.LCOLDB96:
 4204              		.text
 4205              	.LHOTB96:
 4206 18ab 90       		.align 2
 4207 18ac 0F1F4000 		.p2align 4,,15
 4209              	_ZNK12_GLOBAL__N_157TestTestRunnerFixtureSlowTestHasCorrectFailureInformation7RunImplEv:
 4210              	.LFB1284:
 4211              		.cfi_startproc
 4212              		.cfi_personality 0x3,__gxx_personality_v0
 4213              		.cfi_lsda 0x3,.LLSDA1284
 4214 18b0 4155     		pushq	%r13
 4215              		.cfi_def_cfa_offset 16
 4216              		.cfi_offset 13, -16
 4217 18b2 4154     		pushq	%r12
 4218              		.cfi_def_cfa_offset 24
 4219              		.cfi_offset 12, -24
 4220 18b4 55       		pushq	%rbp
 4221              		.cfi_def_cfa_offset 32
 4222              		.cfi_offset 6, -32
 4223 18b5 53       		pushq	%rbx
 4224              		.cfi_def_cfa_offset 40
 4225              		.cfi_offset 3, -40
 4226 18b6 4889FD   		movq	%rdi, %rbp
 4227 18b9 488D5F08 		leaq	8(%rdi), %rbx
 4228 18bd 4881EC98 		subq	$2200, %rsp
 4228      080000
 4229              		.cfi_def_cfa_offset 2240
 4230 18c4 64488B04 		movq	%fs:40, %rax
 4230      25280000 
 4230      00
 4231 18cd 48898424 		movq	%rax, 2184(%rsp)
 4231      88080000 
 4232 18d5 31C0     		xorl	%eax, %eax
 4233 18d7 488D4424 		leaq	32(%rsp), %rax
 4233      20
 4234 18dc 488D7424 		leaq	56(%rsp), %rsi
 4234      38
 4235 18e1 4889C7   		movq	%rax, %rdi
 4236              	.LEHB103:
 4237 18e4 E8000000 		call	_ZN8UnitTest10TestRunnerC1ERNS_12TestReporterE
 4237      00
 4238              	.LEHE103:
 4239 18e9 488DBC24 		leaq	2152(%rsp), %rdi
 4239      68080000 
 4240 18f1 48C74424 		movq	$_ZTV17RecordingReporter+16, 56(%rsp)
 4240      38000000 
 4240      00
 4241 18fa C7442440 		movl	$0, 64(%rsp)
 4241      00000000 
 4242 1902 C7842444 		movl	$0, 580(%rsp)
 4242      02000000 
 4242      000000
 4243 190d C7842448 		movl	$0, 840(%rsp)
 4243      03000000 
 4243      000000
 4244 1918 C784244C 		movl	$0, 1612(%rsp)
 4244      06000000 
 4244      000000
 4245 1923 C7842450 		movl	$0x00000000, 2128(%rsp)
 4245      08000000 
 4245      000000
 4246 192e C7842454 		movl	$0, 2132(%rsp)
 4246      08000000 
 4246      000000
 4247 1939 C7842458 		movl	$0, 2136(%rsp)
 4247      08000000 
 4247      000000
 4248 1944 C784245C 		movl	$0, 2140(%rsp)
 4248      08000000 
 4248      000000
 4249 194f C7842460 		movl	$0x00000000, 2144(%rsp)
 4249      08000000 
 4249      000000
 4250 195a C6442444 		movb	$0, 68(%rsp)
 4250      00
 4251 195f C6842444 		movb	$0, 324(%rsp)
 4251      01000000 
 4252 1967 C6842448 		movb	$0, 584(%rsp)
 4252      02000000 
 4253 196f C684244C 		movb	$0, 844(%rsp)
 4253      03000000 
 4254 1977 C684244C 		movb	$0, 1100(%rsp)
 4254      04000000 
 4255 197f C684244C 		movb	$0, 1356(%rsp)
 4255      05000000 
 4256 1987 C6842450 		movb	$0, 1616(%rsp)
 4256      06000000 
 4257 198f C6842450 		movb	$0, 1872(%rsp)
 4257      07000000 
 4258              	.LEHB104:
 4259 1997 E8000000 		call	_ZN8UnitTest8TestListC1Ev
 4259      00
 4260              	.LEHE104:
 4261 199c 488D7C24 		leaq	32(%rsp), %rdi
 4261      20
 4262 19a1 4889DE   		movq	%rbx, %rsi
 4263 19a4 48899C24 		movq	%rbx, 2168(%rsp)
 4263      78080000 
 4264              	.LEHB105:
 4265 19ac E89FF8FF 		call	_ZN8UnitTest11ExecuteTestIN12_GLOBAL__N_159TestRunnerFixtureSlowTestHasCorrectFailureInformat
 4265      FF
 4266              	.LEHE105:
 4267 19b1 488D7C24 		leaq	56(%rsp), %rdi
 4267      38
 4268 19b6 48C74424 		movq	$_ZTV17RecordingReporter+16, 56(%rsp)
 4268      38000000 
 4268      00
 4269              	.LEHB106:
 4270 19bf E8000000 		call	_ZN8UnitTest12TestReporterD2Ev
 4270      00
 4271              	.LEHE106:
 4272 19c4 488D7C24 		leaq	32(%rsp), %rdi
 4272      20
 4273              	.LEHB107:
 4274 19c9 E8000000 		call	_ZN8UnitTest10TestRunnerD1Ev
 4274      00
 4275              	.LEHE107:
 4276              	.L391:
 4277 19ce 488B8424 		movq	2184(%rsp), %rax
 4277      88080000 
 4278 19d6 64483304 		xorq	%fs:40, %rax
 4278      25280000 
 4278      00
 4279 19df 750E     		jne	.L430
 4280 19e1 4881C498 		addq	$2200, %rsp
 4280      080000
 4281              		.cfi_remember_state
 4282              		.cfi_def_cfa_offset 40
 4283 19e8 5B       		popq	%rbx
 4284              		.cfi_def_cfa_offset 32
 4285 19e9 5D       		popq	%rbp
 4286              		.cfi_def_cfa_offset 24
 4287 19ea 415C     		popq	%r12
 4288              		.cfi_def_cfa_offset 16
 4289 19ec 415D     		popq	%r13
 4290              		.cfi_def_cfa_offset 8
 4291 19ee C3       		ret
 4292              	.L430:
 4293              		.cfi_restore_state
 4294 19ef E8000000 		call	__stack_chk_fail
 4294      00
 4295              	.L412:
 4296 19f4 4889C7   		movq	%rax, %rdi
 4297 19f7 41BC0100 		movl	$1, %r12d
 4297      0000
 4298              	.L394:
 4299 19fd 4883FA01 		cmpq	$1, %rdx
 4300 1a01 0F844501 		je	.L403
 4300      0000
 4301 1a07 4883FA02 		cmpq	$2, %rdx
 4302 1a0b 0F85FE00 		jne	.L431
 4302      0000
 4303 1a11 E8000000 		call	__cxa_begin_catch
 4303      00
 4304 1a16 488D7C24 		leaq	32(%rsp), %rdi
 4304      20
 4305 1a1b 4889C5   		movq	%rax, %rbp
 4306              	.LEHB108:
 4307 1a1e E8000000 		call	_ZN8UnitTest15MemoryOutStreamC1Ev
 4307      00
 4308              	.LEHE108:
 4309 1a23 488B4500 		movq	0(%rbp), %rax
 4310 1a27 4889EF   		movq	%rbp, %rdi
 4311 1a2a FF5010   		call	*16(%rax)
 4312 1a2d 488D7C24 		leaq	32(%rsp), %rdi
 4312      20
 4313 1a32 BA150000 		movl	$21, %edx
 4313      00
 4314 1a37 BE000000 		movl	$.LC69, %esi
 4314      00
 4315 1a3c 4889C5   		movq	%rax, %rbp
 4316              	.LEHB109:
 4317 1a3f E8000000 		call	_ZSt16__ostream_insertIcSt11char_traitsIcEERSt13basic_ostreamIT_T0_ES6_PKS3_l
 4317      00
 4318 1a44 488D7C24 		leaq	32(%rsp), %rdi
 4318      20
 4319 1a49 4889EE   		movq	%rbp, %rsi
 4320 1a4c E8000000 		call	_ZStlsISt11char_traitsIcEERSt13basic_ostreamIcT_ES5_PKc
 4320      00
 4321 1a51 488D7C24 		leaq	32(%rsp), %rdi
 4321      20
 4322 1a56 E8000000 		call	_ZNK8UnitTest15MemoryOutStream7GetTextEv
 4322      00
 4323 1a5b 4889C5   		movq	%rax, %rbp
 4324 1a5e E8000000 		call	_ZN8UnitTest11CurrentTest7ResultsEv
 4324      00
 4325 1a63 488B38   		movq	(%rax), %rdi
 4326 1a66 4889EA   		movq	%rbp, %rdx
 4327 1a69 4889DE   		movq	%rbx, %rsi
 4328 1a6c E8000000 		call	_ZN8UnitTest11TestResults13OnTestFailureERKNS_11TestDetailsEPKc
 4328      00
 4329              	.LEHE109:
 4330 1a71 488D7C24 		leaq	32(%rsp), %rdi
 4330      20
 4331              	.LEHB110:
 4332 1a76 E8000000 		call	_ZN8UnitTest15MemoryOutStreamD1Ev
 4332      00
 4333              	.LEHE110:
 4334              	.L425:
 4335 1a7b E8000000 		call	__cxa_end_catch
 4335      00
 4336 1a80 E949FFFF 		jmp	.L391
 4336      FF
 4337              	.L419:
 4338 1a85 488D7C24 		leaq	32(%rsp), %rdi
 4338      20
 4339 1a8a 4989D4   		movq	%rdx, %r12
 4340 1a8d 4989C5   		movq	%rax, %r13
 4341 1a90 E8000000 		call	_ZN8UnitTest10TestRunnerD1Ev
 4341      00
 4342 1a95 4C89E2   		movq	%r12, %rdx
 4343 1a98 4C89EF   		movq	%r13, %rdi
 4344 1a9b 41BC0100 		movl	$1, %r12d
 4344      0000
 4345 1aa1 E957FFFF 		jmp	.L394
 4345      FF
 4346              	.L413:
 4347 1aa6 488D7C24 		leaq	32(%rsp), %rdi
 4347      20
 4348 1aab 4989D4   		movq	%rdx, %r12
 4349 1aae 4989C5   		movq	%rax, %r13
 4350 1ab1 E8000000 		call	_ZN12_GLOBAL__N_111FixtureBaseD2Ev
 4350      00
 4351 1ab6 4C89E2   		movq	%r12, %rdx
 4352 1ab9 4C89EF   		movq	%r13, %rdi
 4353 1abc 41BC0100 		movl	$1, %r12d
 4353      0000
 4354 1ac2 E936FFFF 		jmp	.L394
 4354      FF
 4355              	.L418:
 4356 1ac7 488D7C24 		leaq	32(%rsp), %rdi
 4356      20
 4357 1acc 4989D4   		movq	%rdx, %r12
 4358 1acf 4989C5   		movq	%rax, %r13
 4359 1ad2 E8000000 		call	_ZN12_GLOBAL__N_111FixtureBaseD2Ev
 4359      00
 4360 1ad7 4C89E2   		movq	%r12, %rdx
 4361 1ada 4C89EF   		movq	%r13, %rdi
 4362 1add 4531E4   		xorl	%r12d, %r12d
 4363 1ae0 E918FFFF 		jmp	.L394
 4363      FF
 4364              	.L420:
 4365 1ae5 4889C7   		movq	%rax, %rdi
 4366 1ae8 4531E4   		xorl	%r12d, %r12d
 4367 1aeb E90DFFFF 		jmp	.L394
 4367      FF
 4368              	.L416:
 4369 1af0 488D7C24 		leaq	32(%rsp), %rdi
 4369      20
 4370 1af5 4889C3   		movq	%rax, %rbx
 4371 1af8 E8000000 		call	_ZN8UnitTest15MemoryOutStreamD1Ev
 4371      00
 4372              	.L409:
 4373 1afd E8000000 		call	__cxa_end_catch
 4373      00
 4374 1b02 4889DF   		movq	%rbx, %rdi
 4375              	.LEHB111:
 4376 1b05 E8000000 		call	_Unwind_Resume
 4376      00
 4377              	.LEHE111:
 4378              	.L415:
 4379              	.L426:
 4380 1b0a 4889C3   		movq	%rax, %rbx
 4381 1b0d EBEE     		jmp	.L409
 4382              	.L431:
 4383 1b0f E8000000 		call	__cxa_begin_catch
 4383      00
 4384 1b14 4584E4   		testb	%r12b, %r12b
 4385 1b17 BABC0000 		movl	$188, %edx
 4385      00
 4386 1b1c 4889DE   		movq	%rbx, %rsi
 4387 1b1f 4889E7   		movq	%rsp, %rdi
 4388 1b22 0F848900 		je	.L405
 4388      0000
 4389              	.LEHB112:
 4390 1b28 E8000000 		call	_ZN8UnitTest11TestDetailsC1ERKS0_i
 4390      00
 4391 1b2d E8000000 		call	_ZN8UnitTest11CurrentTest7ResultsEv
 4391      00
 4392 1b32 488B38   		movq	(%rax), %rdi
 4393 1b35 BA000000 		movl	$.LC73, %edx
 4393      00
 4394 1b3a 4889E6   		movq	%rsp, %rsi
 4395 1b3d E8000000 		call	_ZN8UnitTest11TestResults13OnTestFailureERKNS_11TestDetailsEPKc
 4395      00
 4396              	.LEHE112:
 4397              	.L406:
 4398              	.LEHB113:
 4399 1b42 E8000000 		call	__cxa_end_catch
 4399      00
 4400              	.LEHE113:
 4401 1b47 E982FEFF 		jmp	.L391
 4401      FF
 4402              	.L403:
 4403 1b4c E8000000 		call	__cxa_begin_catch
 4403      00
 4404 1b51 4889C3   		movq	%rax, %rbx
 4405 1b54 488B00   		movq	(%rax), %rax
 4406 1b57 4889DF   		movq	%rbx, %rdi
 4407 1b5a FF5010   		call	*16(%rax)
 4408 1b5d 4889DF   		movq	%rbx, %rdi
 4409 1b60 4989C4   		movq	%rax, %r12
 4410              	.LEHB114:
 4411 1b63 E8000000 		call	_ZNK8UnitTest15AssertException10LineNumberEv
 4411      00
 4412 1b68 4889DF   		movq	%rbx, %rdi
 4413 1b6b 4189C5   		movl	%eax, %r13d
 4414 1b6e E8000000 		call	_ZNK8UnitTest15AssertException8FilenameEv
 4414      00
 4415 1b73 488B5508 		movq	8(%rbp), %rdx
 4416 1b77 488B7510 		movq	16(%rbp), %rsi
 4417 1b7b 4589E8   		movl	%r13d, %r8d
 4418 1b7e 4889C1   		movq	%rax, %rcx
 4419 1b81 4889E7   		movq	%rsp, %rdi
 4420 1b84 E8000000 		call	_ZN8UnitTest11TestDetailsC1EPKcS2_S2_i
 4420      00
 4421 1b89 E8000000 		call	_ZN8UnitTest11CurrentTest7ResultsEv
 4421      00
 4422 1b8e 488B38   		movq	(%rax), %rdi
 4423 1b91 4C89E2   		movq	%r12, %rdx
 4424 1b94 4889E6   		movq	%rsp, %rsi
 4425 1b97 E8000000 		call	_ZN8UnitTest11TestResults13OnTestFailureERKNS_11TestDetailsEPKc
 4425      00
 4426              	.LEHE114:
 4427 1b9c E9DAFEFF 		jmp	.L425
 4427      FF
 4428              	.L417:
 4429 1ba1 4889C3   		movq	%rax, %rbx
 4430 1ba4 E8000000 		call	__cxa_end_catch
 4430      00
 4431 1ba9 4889DF   		movq	%rbx, %rdi
 4432              	.LEHB115:
 4433 1bac E8000000 		call	_Unwind_Resume
 4433      00
 4434              	.LEHE115:
 4435              	.L405:
 4436              	.LEHB116:
 4437 1bb1 E8000000 		call	_ZN8UnitTest11TestDetailsC1ERKS0_i
 4437      00
 4438 1bb6 E8000000 		call	_ZN8UnitTest11CurrentTest7ResultsEv
 4438      00
 4439 1bbb 488B38   		movq	(%rax), %rdi
 4440 1bbe BA000000 		movl	$.LC74, %edx
 4440      00
 4441 1bc3 4889E6   		movq	%rsp, %rsi
 4442 1bc6 E8000000 		call	_ZN8UnitTest11TestResults13OnTestFailureERKNS_11TestDetailsEPKc
 4442      00
 4443              	.LEHE116:
 4444 1bcb E972FFFF 		jmp	.L406
 4444      FF
 4445              	.L414:
 4446 1bd0 E935FFFF 		jmp	.L426
 4446      FF
 4447              		.cfi_endproc
 4448              	.LFE1284:
 4449              		.section	.gcc_except_table
 4450              		.align 4
 4451              	.LLSDA1284:
 4452 02d8 FF       		.byte	0xff
 4453 02d9 03       		.byte	0x3
 4454 02da 69       		.uleb128 .LLSDATT1284-.LLSDATTD1284
 4455              	.LLSDATTD1284:
 4456 02db 01       		.byte	0x1
 4457 02dc 50       		.uleb128 .LLSDACSE1284-.LLSDACSB1284
 4458              	.LLSDACSB1284:
 4459 02dd 34       		.uleb128 .LEHB103-.LFB1284
 4460 02de 05       		.uleb128 .LEHE103-.LEHB103
 4461 02df B504     		.uleb128 .L420-.LFB1284
 4462 02e1 05       		.uleb128 0x5
 4463 02e2 E701     		.uleb128 .LEHB104-.LFB1284
 4464 02e4 05       		.uleb128 .LEHE104-.LEHB104
 4465 02e5 9704     		.uleb128 .L418-.LFB1284
 4466 02e7 07       		.uleb128 0x7
 4467 02e8 FC01     		.uleb128 .LEHB105-.LFB1284
 4468 02ea 05       		.uleb128 .LEHE105-.LEHB105
 4469 02eb F603     		.uleb128 .L413-.LFB1284
 4470 02ed 07       		.uleb128 0x7
 4471 02ee 8F02     		.uleb128 .LEHB106-.LFB1284
 4472 02f0 05       		.uleb128 .LEHE106-.LEHB106
 4473 02f1 D503     		.uleb128 .L419-.LFB1284
 4474 02f3 07       		.uleb128 0x7
 4475 02f4 9902     		.uleb128 .LEHB107-.LFB1284
 4476 02f6 05       		.uleb128 .LEHE107-.LEHB107
 4477 02f7 C402     		.uleb128 .L412-.LFB1284
 4478 02f9 05       		.uleb128 0x5
 4479 02fa EE02     		.uleb128 .LEHB108-.LFB1284
 4480 02fc 05       		.uleb128 .LEHE108-.LEHB108
 4481 02fd DA04     		.uleb128 .L415-.LFB1284
 4482 02ff 00       		.uleb128 0
 4483 0300 8F03     		.uleb128 .LEHB109-.LFB1284
 4484 0302 32       		.uleb128 .LEHE109-.LEHB109
 4485 0303 C004     		.uleb128 .L416-.LFB1284
 4486 0305 00       		.uleb128 0
 4487 0306 C603     		.uleb128 .LEHB110-.LFB1284
 4488 0308 05       		.uleb128 .LEHE110-.LEHB110
 4489 0309 DA04     		.uleb128 .L415-.LFB1284
 4490 030b 00       		.uleb128 0
 4491 030c D504     		.uleb128 .LEHB111-.LFB1284
 4492 030e 05       		.uleb128 .LEHE111-.LEHB111
 4493 030f 00       		.uleb128 0
 4494 0310 00       		.uleb128 0
 4495 0311 F804     		.uleb128 .LEHB112-.LFB1284
 4496 0313 1A       		.uleb128 .LEHE112-.LEHB112
 4497 0314 F105     		.uleb128 .L417-.LFB1284
 4498 0316 00       		.uleb128 0
 4499 0317 9205     		.uleb128 .LEHB113-.LFB1284
 4500 0319 05       		.uleb128 .LEHE113-.LEHB113
 4501 031a 00       		.uleb128 0
 4502 031b 00       		.uleb128 0
 4503 031c B305     		.uleb128 .LEHB114-.LFB1284
 4504 031e 39       		.uleb128 .LEHE114-.LEHB114
 4505 031f A006     		.uleb128 .L414-.LFB1284
 4506 0321 00       		.uleb128 0
 4507 0322 FC05     		.uleb128 .LEHB115-.LFB1284
 4508 0324 05       		.uleb128 .LEHE115-.LEHB115
 4509 0325 00       		.uleb128 0
 4510 0326 00       		.uleb128 0
 4511 0327 8106     		.uleb128 .LEHB116-.LFB1284
 4512 0329 1A       		.uleb128 .LEHE116-.LEHB116
 4513 032a F105     		.uleb128 .L417-.LFB1284
 4514 032c 00       		.uleb128 0
 4515              	.LLSDACSE1284:
 4516 032d 03       		.byte	0x3
 4517 032e 00       		.byte	0
 4518 032f 02       		.byte	0x2
 4519 0330 7D       		.byte	0x7d
 4520 0331 01       		.byte	0x1
 4521 0332 7D       		.byte	0x7d
 4522 0333 00       		.byte	0
 4523 0334 7D       		.byte	0x7d
 4524 0335 000000   		.align 4
 4525 0338 00000000 		.long	0
 4526              	
 4527 033c 00000000 		.long	_ZTISt9exception
 4528 0340 00000000 		.long	_ZTIN8UnitTest15AssertExceptionE
 4529              	.LLSDATT1284:
 4530              		.text
 4532              		.section	.text.unlikely
 4533              	.LCOLDE96:
 4534              		.text
 4535              	.LHOTE96:
 4536              		.section	.rodata.str1.8
 4537              		.align 8
 4538              	.LC97:
 4539 0408 556E6861 		.string	"Unhandled exception in CHECK_EQUAL(1, reporter.testFailedCount)"
 4539      6E646C65 
 4539      64206578 
 4539      63657074 
 4539      696F6E20 
 4540              		.section	.text.unlikely
 4541              	.LCOLDB98:
 4542              		.text
 4543              	.LHOTB98:
 4544 1bd5 90662E0F 		.p2align 4,,15
 4544      1F840000 
 4544      000000
 4546              	_ZN8UnitTest11ExecuteTestIN12_GLOBAL__N_155TestRunnerFixtureSlowTestFailsForLowTimeThresholdHelperE
 4547              	.LFB1586:
 4548              		.cfi_startproc
 4549              		.cfi_personality 0x3,__gxx_personality_v0
 4550              		.cfi_lsda 0x3,.LLSDA1586
 4551 1be0 4155     		pushq	%r13
 4552              		.cfi_def_cfa_offset 16
 4553              		.cfi_offset 13, -16
 4554 1be2 4154     		pushq	%r12
 4555              		.cfi_def_cfa_offset 24
 4556              		.cfi_offset 12, -24
 4557 1be4 55       		pushq	%rbp
 4558              		.cfi_def_cfa_offset 32
 4559              		.cfi_offset 6, -32
 4560 1be5 53       		pushq	%rbx
 4561              		.cfi_def_cfa_offset 40
 4562              		.cfi_offset 3, -40
 4563 1be6 4889F3   		movq	%rsi, %rbx
 4564 1be9 4881ECD8 		subq	$1752, %rsp
 4564      060000
 4565              		.cfi_def_cfa_offset 1792
 4566 1bf0 48893C24 		movq	%rdi, (%rsp)
 4567 1bf4 48897424 		movq	%rsi, 8(%rsp)
 4567      08
 4568 1bf9 64488B04 		movq	%fs:40, %rax
 4568      25280000 
 4568      00
 4569 1c02 48898424 		movq	%rax, 1736(%rsp)
 4569      C8060000 
 4570 1c0a 31C0     		xorl	%eax, %eax
 4571              	.LEHB117:
 4572 1c0c E8000000 		call	_ZN8UnitTest11CurrentTest7DetailsEv
 4572      00
 4573              	.LEHE117:
 4574 1c11 488DBC24 		leaq	608(%rsp), %rdi
 4574      60020000 
 4575 1c19 488918   		movq	%rbx, (%rax)
 4576              	.LEHB118:
 4577 1c1c E8000000 		call	_ZN8UnitTest16SignalTranslatorC1Ev
 4577      00
 4578              	.LEHE118:
 4579 1c21 488B3D00 		movq	_ZN8UnitTest16SignalTranslator12s_jumpTargetE(%rip), %rdi
 4579      000000
 4580 1c28 BE010000 		movl	$1, %esi
 4580      00
 4581 1c2d E8000000 		call	__sigsetjmp
 4581      00
 4582 1c32 85C0     		testl	%eax, %eax
 4583 1c34 742A     		je	.L468
 4584 1c36 BF080000 		movl	$8, %edi
 4584      00
 4585 1c3b E8000000 		call	__cxa_allocate_exception
 4585      00
 4586 1c40 31D2     		xorl	%edx, %edx
 4587 1c42 48C70000 		movq	$.LC61, (%rax)
 4587      000000
 4588 1c49 BE000000 		movl	$_ZTIPKc, %esi
 4588      00
 4589 1c4e 4889C7   		movq	%rax, %rdi
 4590              	.LEHB119:
 4591 1c51 E8000000 		call	__cxa_throw
 4591      00
 4592 1c56 662E0F1F 		.p2align 4,,10
 4592      84000000 
 4592      0000
 4593              		.p2align 3
 4594              	.L468:
 4595 1c60 488DBC24 		leaq	128(%rsp), %rdi
 4595      80000000 
 4596 1c68 41B87B00 		movl	$123, %r8d
 4596      0000
 4597 1c6e B9000000 		movl	$.LC62, %ecx
 4597      00
 4598 1c73 BA000000 		movl	$.LC63, %edx
 4598      00
 4599 1c78 BE000000 		movl	$.LC64, %esi
 4599      00
 4600 1c7d E8000000 		call	_ZN8UnitTest4TestC2EPKcS2_S2_i
 4600      00
 4601              	.LEHE119:
 4602 1c82 488B2C24 		movq	(%rsp), %rbp
 4603 1c86 488DB424 		leaq	128(%rsp), %rsi
 4603      80000000 
 4604 1c8e 48C78424 		movq	$_ZTVN12_GLOBAL__N_18SlowTestE+16, 128(%rsp)
 4604      80000000 
 4604      00000000 
 4605 1c9a 488D9D48 		leaq	2120(%rbp), %rbx
 4605      080000
 4606 1ca1 4889DF   		movq	%rbx, %rdi
 4607              	.LEHB120:
 4608 1ca4 E8000000 		call	_ZN8UnitTest8TestList3AddEPNS_4TestE
 4608      00
 4609 1ca9 E8000000 		call	_ZN8UnitTest11CurrentTest7ResultsEv
 4609      00
 4610 1cae 4C8B20   		movq	(%rax), %r12
 4611 1cb1 E8000000 		call	_ZN8UnitTest11CurrentTest7DetailsEv
 4611      00
 4612 1cb6 4889DF   		movq	%rbx, %rdi
 4613 1cb9 4C8B28   		movq	(%rax), %r13
 4614 1cbc E8000000 		call	_ZNK8UnitTest8TestList7GetHeadEv
 4614      00
 4615 1cc1 4885C0   		testq	%rax, %rax
 4616 1cc4 4889C3   		movq	%rax, %rbx
 4617 1cc7 7439     		je	.L438
 4618 1cc9 0F1F8000 		.p2align 4,,10
 4618      000000
 4619              		.p2align 3
 4620              	.L467:
 4621 1cd0 31D2     		xorl	%edx, %edx
 4622 1cd2 4889DE   		movq	%rbx, %rsi
 4623 1cd5 4889EF   		movq	%rbp, %rdi
 4624 1cd8 E8000000 		call	_ZNK8UnitTest10TestRunner13IsTestInSuiteEPKNS_4TestEPKc
 4624      00
 4625 1cdd 84C0     		testb	%al, %al
 4626 1cdf 7418     		je	.L456
 4627 1ce1 488B0424 		movq	(%rsp), %rax
 4628 1ce5 B9030000 		movl	$3, %ecx
 4628      00
 4629 1cea 4889DA   		movq	%rbx, %rdx
 4630 1ced 4889EF   		movq	%rbp, %rdi
 4631 1cf0 488B7008 		movq	8(%rax), %rsi
 4632 1cf4 E8000000 		call	_ZNK8UnitTest10TestRunner7RunTestEPNS_11TestResultsEPNS_4TestEi
 4632      00
 4633              	.L456:
 4634 1cf9 488B5B28 		movq	40(%rbx), %rbx
 4635 1cfd 4885DB   		testq	%rbx, %rbx
 4636 1d00 75CE     		jne	.L467
 4637              	.L438:
 4638 1d02 488B3C24 		movq	(%rsp), %rdi
 4639 1d06 E8000000 		call	_ZNK8UnitTest10TestRunner6FinishEv
 4639      00
 4640 1d0b E8000000 		call	_ZN8UnitTest11CurrentTest7ResultsEv
 4640      00
 4641 1d10 4C8920   		movq	%r12, (%rax)
 4642 1d13 E8000000 		call	_ZN8UnitTest11CurrentTest7DetailsEv
 4642      00
 4643              	.LEHE120:
 4644 1d18 4C8928   		movq	%r13, (%rax)
 4645              	.LEHB121:
 4646 1d1b E8000000 		call	_ZN8UnitTest11CurrentTest7DetailsEv
 4646      00
 4647 1d20 488B30   		movq	(%rax), %rsi
 4648 1d23 488D7C24 		leaq	96(%rsp), %rdi
 4648      60
 4649 1d28 BAB90000 		movl	$185, %edx
 4649      00
 4650 1d2d E8000000 		call	_ZN8UnitTest11TestDetailsC1ERKS0_i
 4650      00
 4651 1d32 488B1C24 		movq	(%rsp), %rbx
 4652 1d36 C744241C 		movl	$1, 28(%rsp)
 4652      01000000 
 4653 1d3e 4881C324 		addq	$548, %rbx
 4653      020000
 4654 1d45 E8000000 		call	_ZN8UnitTest11CurrentTest7ResultsEv
 4654      00
 4655 1d4a 488B38   		movq	(%rax), %rdi
 4656 1d4d 488D4C24 		leaq	96(%rsp), %rcx
 4656      60
 4657 1d52 488D7424 		leaq	28(%rsp), %rsi
 4657      1C
 4658 1d57 4889DA   		movq	%rbx, %rdx
 4659 1d5a E8000000 		call	_ZN8UnitTest10CheckEqualIiiEEvRNS_11TestResultsERKT_RKT0_RKNS_11TestDetailsE
 4659      00
 4660              	.LEHE121:
 4661              	.L442:
 4662 1d5f 488DBC24 		leaq	128(%rsp), %rdi
 4662      80000000 
 4663 1d67 48C78424 		movq	$_ZTVN12_GLOBAL__N_18SlowTestE+16, 128(%rsp)
 4663      80000000 
 4663      00000000 
 4664              	.LEHB122:
 4665 1d73 E8000000 		call	_ZN8UnitTest4TestD2Ev
 4665      00
 4666              	.LEHE122:
 4667 1d78 488DBC24 		leaq	608(%rsp), %rdi
 4667      60020000 
 4668              	.LEHB123:
 4669 1d80 E8000000 		call	_ZN8UnitTest16SignalTranslatorD1Ev
 4669      00
 4670              	.LEHE123:
 4671              	.L432:
 4672 1d85 488B8424 		movq	1736(%rsp), %rax
 4672      C8060000 
 4673 1d8d 64483304 		xorq	%fs:40, %rax
 4673      25280000 
 4673      00
 4674 1d96 0F85C700 		jne	.L476
 4674      0000
 4675 1d9c 4881C4D8 		addq	$1752, %rsp
 4675      060000
 4676              		.cfi_remember_state
 4677              		.cfi_def_cfa_offset 40
 4678 1da3 5B       		popq	%rbx
 4679              		.cfi_def_cfa_offset 32
 4680 1da4 5D       		popq	%rbp
 4681              		.cfi_def_cfa_offset 24
 4682 1da5 415C     		popq	%r12
 4683              		.cfi_def_cfa_offset 16
 4684 1da7 415D     		popq	%r13
 4685              		.cfi_def_cfa_offset 8
 4686 1da9 C3       		ret
 4687              	.L463:
 4688              		.cfi_restore_state
 4689 1daa 4889C3   		movq	%rax, %rbx
 4690 1dad 4889D5   		movq	%rdx, %rbp
 4691              	.L445:
 4692 1db0 488DBC24 		leaq	608(%rsp), %rdi
 4692      60020000 
 4693 1db8 E8000000 		call	_ZN8UnitTest16SignalTranslatorD1Ev
 4693      00
 4694 1dbd 4889DF   		movq	%rbx, %rdi
 4695 1dc0 4889EA   		movq	%rbp, %rdx
 4696              	.L446:
 4697 1dc3 4883FA01 		cmpq	$1, %rdx
 4698 1dc7 0F845401 		je	.L448
 4698      0000
 4699 1dcd 4883FA02 		cmpq	$2, %rdx
 4700 1dd1 0F852401 		jne	.L477
 4700      0000
 4701 1dd7 E8000000 		call	__cxa_begin_catch
 4701      00
 4702 1ddc 488DBC24 		leaq	192(%rsp), %rdi
 4702      C0000000 
 4703 1de4 4889C3   		movq	%rax, %rbx
 4704              	.LEHB124:
 4705 1de7 E8000000 		call	_ZN8UnitTest15MemoryOutStreamC1Ev
 4705      00
 4706              	.LEHE124:
 4707 1dec 488B03   		movq	(%rbx), %rax
 4708 1def 4889DF   		movq	%rbx, %rdi
 4709 1df2 FF5010   		call	*16(%rax)
 4710 1df5 488DBC24 		leaq	192(%rsp), %rdi
 4710      C0000000 
 4711 1dfd BA150000 		movl	$21, %edx
 4711      00
 4712 1e02 BE000000 		movl	$.LC69, %esi
 4712      00
 4713 1e07 4889C3   		movq	%rax, %rbx
 4714              	.LEHB125:
 4715 1e0a E8000000 		call	_ZSt16__ostream_insertIcSt11char_traitsIcEERSt13basic_ostreamIT_T0_ES6_PKS3_l
 4715      00
 4716 1e0f 488DBC24 		leaq	192(%rsp), %rdi
 4716      C0000000 
 4717 1e17 4889DE   		movq	%rbx, %rsi
 4718 1e1a E8000000 		call	_ZStlsISt11char_traitsIcEERSt13basic_ostreamIcT_ES5_PKc
 4718      00
 4719 1e1f 488DBC24 		leaq	192(%rsp), %rdi
 4719      C0000000 
 4720 1e27 E8000000 		call	_ZNK8UnitTest15MemoryOutStream7GetTextEv
 4720      00
 4721 1e2c 4889C3   		movq	%rax, %rbx
 4722 1e2f E8000000 		call	_ZN8UnitTest11CurrentTest7ResultsEv
 4722      00
 4723 1e34 488B7424 		movq	8(%rsp), %rsi
 4723      08
 4724 1e39 488B38   		movq	(%rax), %rdi
 4725 1e3c 4889DA   		movq	%rbx, %rdx
 4726 1e3f E8000000 		call	_ZN8UnitTest11TestResults13OnTestFailureERKNS_11TestDetailsEPKc
 4726      00
 4727              	.LEHE125:
 4728 1e44 488DBC24 		leaq	192(%rsp), %rdi
 4728      C0000000 
 4729              	.LEHB126:
 4730 1e4c E8000000 		call	_ZN8UnitTest15MemoryOutStreamD1Ev
 4730      00
 4731              	.LEHE126:
 4732              	.L472:
 4733 1e51 E8000000 		call	__cxa_end_catch
 4733      00
 4734 1e56 E92AFFFF 		jmp	.L432
 4734      FF
 4735              	.L462:
 4736 1e5b 4889C7   		movq	%rax, %rdi
 4737 1e5e E960FFFF 		jmp	.L446
 4737      FF
 4738              	.L476:
 4739 1e63 E8000000 		call	__stack_chk_fail
 4739      00
 4740              	.L466:
 4741 1e68 4889C7   		movq	%rax, %rdi
 4742 1e6b E8000000 		call	__cxa_begin_catch
 4742      00
 4743              	.LEHB127:
 4744 1e70 E8000000 		call	_ZN8UnitTest11CurrentTest7DetailsEv
 4744      00
 4745 1e75 488B30   		movq	(%rax), %rsi
 4746 1e78 488D7C24 		leaq	64(%rsp), %rdi
 4746      40
 4747 1e7d BAB90000 		movl	$185, %edx
 4747      00
 4748 1e82 E8000000 		call	_ZN8UnitTest11TestDetailsC1ERKS0_i
 4748      00
 4749 1e87 E8000000 		call	_ZN8UnitTest11CurrentTest7ResultsEv
 4749      00
 4750 1e8c 488B38   		movq	(%rax), %rdi
 4751 1e8f 488D7424 		leaq	64(%rsp), %rsi
 4751      40
 4752 1e94 BA000000 		movl	$.LC97, %edx
 4752      00
 4753 1e99 E8000000 		call	_ZN8UnitTest11TestResults13OnTestFailureERKNS_11TestDetailsEPKc
 4753      00
 4754              	.LEHE127:
 4755              	.LEHB128:
 4756 1e9e E8000000 		call	__cxa_end_catch
 4756      00
 4757              	.LEHE128:
 4758 1ea3 E9B7FEFF 		jmp	.L442
 4758      FF
 4759              	.L464:
 4760 1ea8 4889C3   		movq	%rax, %rbx
 4761 1eab 4889D5   		movq	%rdx, %rbp
 4762              	.L444:
 4763 1eae 488DBC24 		leaq	128(%rsp), %rdi
 4763      80000000 
 4764 1eb6 48C78424 		movq	$_ZTVN12_GLOBAL__N_18SlowTestE+16, 128(%rsp)
 4764      80000000 
 4764      00000000 
 4765 1ec2 E8000000 		call	_ZN8UnitTest4TestD2Ev
 4765      00
 4766 1ec7 E9E4FEFF 		jmp	.L445
 4766      FF
 4767              	.L465:
 4768 1ecc 4889C3   		movq	%rax, %rbx
 4769 1ecf 4889D5   		movq	%rdx, %rbp
 4770 1ed2 E8000000 		call	__cxa_end_catch
 4770      00
 4771 1ed7 EBD5     		jmp	.L444
 4772              	.L460:
 4773 1ed9 488DBC24 		leaq	192(%rsp), %rdi
 4773      C0000000 
 4774 1ee1 4889C3   		movq	%rax, %rbx
 4775 1ee4 E8000000 		call	_ZN8UnitTest15MemoryOutStreamD1Ev
 4775      00
 4776              	.L454:
 4777 1ee9 E8000000 		call	__cxa_end_catch
 4777      00
 4778 1eee 4889DF   		movq	%rbx, %rdi
 4779              	.LEHB129:
 4780 1ef1 E8000000 		call	_Unwind_Resume
 4780      00
 4781              	.LEHE129:
 4782              	.L459:
 4783              	.L473:
 4784 1ef6 4889C3   		movq	%rax, %rbx
 4785 1ef9 EBEE     		jmp	.L454
 4786              	.L477:
 4787 1efb E8000000 		call	__cxa_begin_catch
 4787      00
 4788              	.LEHB130:
 4789 1f00 E8000000 		call	_ZN8UnitTest11CurrentTest7ResultsEv
 4789      00
 4790 1f05 488B7424 		movq	8(%rsp), %rsi
 4790      08
 4791 1f0a 488B38   		movq	(%rax), %rdi
 4792 1f0d BA000000 		movl	$.LC70, %edx
 4792      00
 4793 1f12 E8000000 		call	_ZN8UnitTest11TestResults13OnTestFailureERKNS_11TestDetailsEPKc
 4793      00
 4794              	.LEHE130:
 4795              	.LEHB131:
 4796 1f17 E8000000 		call	__cxa_end_catch
 4796      00
 4797              	.LEHE131:
 4798 1f1c E964FEFF 		jmp	.L432
 4798      FF
 4799              	.L448:
 4800 1f21 E8000000 		call	__cxa_begin_catch
 4800      00
 4801 1f26 4889C3   		movq	%rax, %rbx
 4802 1f29 488B00   		movq	(%rax), %rax
 4803 1f2c 4889DF   		movq	%rbx, %rdi
 4804 1f2f FF5010   		call	*16(%rax)
 4805 1f32 4889DF   		movq	%rbx, %rdi
 4806 1f35 4889C5   		movq	%rax, %rbp
 4807              	.LEHB132:
 4808 1f38 E8000000 		call	_ZNK8UnitTest15AssertException10LineNumberEv
 4808      00
 4809 1f3d 4889DF   		movq	%rbx, %rdi
 4810 1f40 4189C4   		movl	%eax, %r12d
 4811 1f43 E8000000 		call	_ZNK8UnitTest15AssertException8FilenameEv
 4811      00
 4812 1f48 488B5424 		movq	8(%rsp), %rdx
 4812      08
 4813 1f4d 488D7C24 		leaq	32(%rsp), %rdi
 4813      20
 4814 1f52 4589E0   		movl	%r12d, %r8d
 4815 1f55 4889C1   		movq	%rax, %rcx
 4816 1f58 488B7208 		movq	8(%rdx), %rsi
 4817 1f5c 488B12   		movq	(%rdx), %rdx
 4818 1f5f E8000000 		call	_ZN8UnitTest11TestDetailsC1EPKcS2_S2_i
 4818      00
 4819 1f64 E8000000 		call	_ZN8UnitTest11CurrentTest7ResultsEv
 4819      00
 4820 1f69 488B38   		movq	(%rax), %rdi
 4821 1f6c 488D7424 		leaq	32(%rsp), %rsi
 4821      20
 4822 1f71 4889EA   		movq	%rbp, %rdx
 4823 1f74 E8000000 		call	_ZN8UnitTest11TestResults13OnTestFailureERKNS_11TestDetailsEPKc
 4823      00
 4824              	.LEHE132:
 4825 1f79 E9D3FEFF 		jmp	.L472
 4825      FF
 4826              	.L458:
 4827 1f7e 4889C3   		movq	%rax, %rbx
 4828 1f81 E8000000 		call	__cxa_end_catch
 4828      00
 4829 1f86 4889DF   		movq	%rbx, %rdi
 4830              	.LEHB133:
 4831 1f89 E8000000 		call	_Unwind_Resume
 4831      00
 4832              	.LEHE133:
 4833              	.L461:
 4834 1f8e E963FFFF 		jmp	.L473
 4834      FF
 4835              		.cfi_endproc
 4836              	.LFE1586:
 4837              		.section	.gcc_except_table
 4838              		.align 4
 4839              	.LLSDA1586:
 4840 0344 FF       		.byte	0xff
 4841 0345 03       		.byte	0x3
 4842 0346 75       		.uleb128 .LLSDATT1586-.LLSDATTD1586
 4843              	.LLSDATTD1586:
 4844 0347 01       		.byte	0x1
 4845 0348 5F       		.uleb128 .LLSDACSE1586-.LLSDACSB1586
 4846              	.LLSDACSB1586:
 4847 0349 2C       		.uleb128 .LEHB117-.LFB1586
 4848 034a 05       		.uleb128 .LEHE117-.LEHB117
 4849 034b 00       		.uleb128 0
 4850 034c 00       		.uleb128 0
 4851 034d 3C       		.uleb128 .LEHB118-.LFB1586
 4852 034e 05       		.uleb128 .LEHE118-.LEHB118
 4853 034f FB04     		.uleb128 .L462-.LFB1586
 4854 0351 05       		.uleb128 0x5
 4855 0352 71       		.uleb128 .LEHB119-.LFB1586
 4856 0353 31       		.uleb128 .LEHE119-.LEHB119
 4857 0354 CA03     		.uleb128 .L463-.LFB1586
 4858 0356 07       		.uleb128 0x7
 4859 0357 C401     		.uleb128 .LEHB120-.LFB1586
 4860 0359 74       		.uleb128 .LEHE120-.LEHB120
 4861 035a C805     		.uleb128 .L464-.LFB1586
 4862 035c 07       		.uleb128 0x7
 4863 035d BB02     		.uleb128 .LEHB121-.LFB1586
 4864 035f 44       		.uleb128 .LEHE121-.LEHB121
 4865 0360 8805     		.uleb128 .L466-.LFB1586
 4866 0362 01       		.uleb128 0x1
 4867 0363 9303     		.uleb128 .LEHB122-.LFB1586
 4868 0365 05       		.uleb128 .LEHE122-.LEHB122
 4869 0366 CA03     		.uleb128 .L463-.LFB1586
 4870 0368 07       		.uleb128 0x7
 4871 0369 A003     		.uleb128 .LEHB123-.LFB1586
 4872 036b 05       		.uleb128 .LEHE123-.LEHB123
 4873 036c FB04     		.uleb128 .L462-.LFB1586
 4874 036e 05       		.uleb128 0x5
 4875 036f 8704     		.uleb128 .LEHB124-.LFB1586
 4876 0371 05       		.uleb128 .LEHE124-.LEHB124
 4877 0372 9606     		.uleb128 .L459-.LFB1586
 4878 0374 00       		.uleb128 0
 4879 0375 AA04     		.uleb128 .LEHB125-.LFB1586
 4880 0377 3A       		.uleb128 .LEHE125-.LEHB125
 4881 0378 F905     		.uleb128 .L460-.LFB1586
 4882 037a 00       		.uleb128 0
 4883 037b EC04     		.uleb128 .LEHB126-.LFB1586
 4884 037d 05       		.uleb128 .LEHE126-.LEHB126
 4885 037e 9606     		.uleb128 .L459-.LFB1586
 4886 0380 00       		.uleb128 0
 4887 0381 9005     		.uleb128 .LEHB127-.LFB1586
 4888 0383 2E       		.uleb128 .LEHE127-.LEHB127
 4889 0384 EC05     		.uleb128 .L465-.LFB1586
 4890 0386 07       		.uleb128 0x7
 4891 0387 BE05     		.uleb128 .LEHB128-.LFB1586
 4892 0389 05       		.uleb128 .LEHE128-.LEHB128
 4893 038a C805     		.uleb128 .L464-.LFB1586
 4894 038c 07       		.uleb128 0x7
 4895 038d 9106     		.uleb128 .LEHB129-.LFB1586
 4896 038f 05       		.uleb128 .LEHE129-.LEHB129
 4897 0390 00       		.uleb128 0
 4898 0391 00       		.uleb128 0
 4899 0392 A006     		.uleb128 .LEHB130-.LFB1586
 4900 0394 17       		.uleb128 .LEHE130-.LEHB130
 4901 0395 9E07     		.uleb128 .L458-.LFB1586
 4902 0397 00       		.uleb128 0
 4903 0398 B706     		.uleb128 .LEHB131-.LFB1586
 4904 039a 05       		.uleb128 .LEHE131-.LEHB131
 4905 039b 00       		.uleb128 0
 4906 039c 00       		.uleb128 0
 4907 039d D806     		.uleb128 .LEHB132-.LFB1586
 4908 039f 41       		.uleb128 .LEHE132-.LEHB132
 4909 03a0 AE07     		.uleb128 .L461-.LFB1586
 4910 03a2 00       		.uleb128 0
 4911 03a3 A907     		.uleb128 .LEHB133-.LFB1586
 4912 03a5 05       		.uleb128 .LEHE133-.LEHB133
 4913 03a6 00       		.uleb128 0
 4914 03a7 00       		.uleb128 0
 4915              	.LLSDACSE1586:
 4916 03a8 03       		.byte	0x3
 4917 03a9 00       		.byte	0
 4918 03aa 02       		.byte	0x2
 4919 03ab 7D       		.byte	0x7d
 4920 03ac 01       		.byte	0x1
 4921 03ad 7D       		.byte	0x7d
 4922 03ae 00       		.byte	0
 4923 03af 7D       		.byte	0x7d
 4924              		.align 4
 4925 03b0 00000000 		.long	0
 4926              	
 4927 03b4 00000000 		.long	_ZTISt9exception
 4928 03b8 00000000 		.long	_ZTIN8UnitTest15AssertExceptionE
 4929              	.LLSDATT1586:
 4930              		.text
 4932              		.section	.text.unlikely
 4933              	.LCOLDE98:
 4934              		.text
 4935              	.LHOTE98:
 4936              		.section	.text.unlikely
 4937              		.align 2
 4938              	.LCOLDB99:
 4939              		.text
 4940              	.LHOTB99:
 4941 1f93 90       		.align 2
 4942 1f94 6690662E 		.p2align 4,,15
 4942      0F1F8400 
 4942      00000000 
 4944              	_ZNK12_GLOBAL__N_153TestTestRunnerFixtureSlowTestFailsForLowTimeThreshold7RunImplEv:
 4945              	.LFB1273:
 4946              		.cfi_startproc
 4947              		.cfi_personality 0x3,__gxx_personality_v0
 4948              		.cfi_lsda 0x3,.LLSDA1273
 4949 1fa0 4155     		pushq	%r13
 4950              		.cfi_def_cfa_offset 16
 4951              		.cfi_offset 13, -16
 4952 1fa2 4154     		pushq	%r12
 4953              		.cfi_def_cfa_offset 24
 4954              		.cfi_offset 12, -24
 4955 1fa4 55       		pushq	%rbp
 4956              		.cfi_def_cfa_offset 32
 4957              		.cfi_offset 6, -32
 4958 1fa5 53       		pushq	%rbx
 4959              		.cfi_def_cfa_offset 40
 4960              		.cfi_offset 3, -40
 4961 1fa6 4889FD   		movq	%rdi, %rbp
 4962 1fa9 488D5F08 		leaq	8(%rdi), %rbx
 4963 1fad 4881EC98 		subq	$2200, %rsp
 4963      080000
 4964              		.cfi_def_cfa_offset 2240
 4965 1fb4 64488B04 		movq	%fs:40, %rax
 4965      25280000 
 4965      00
 4966 1fbd 48898424 		movq	%rax, 2184(%rsp)
 4966      88080000 
 4967 1fc5 31C0     		xorl	%eax, %eax
 4968 1fc7 488D4424 		leaq	32(%rsp), %rax
 4968      20
 4969 1fcc 488D7424 		leaq	56(%rsp), %rsi
 4969      38
 4970 1fd1 4889C7   		movq	%rax, %rdi
 4971              	.LEHB134:
 4972 1fd4 E8000000 		call	_ZN8UnitTest10TestRunnerC1ERNS_12TestReporterE
 4972      00
 4973              	.LEHE134:
 4974 1fd9 488DBC24 		leaq	2152(%rsp), %rdi
 4974      68080000 
 4975 1fe1 48C74424 		movq	$_ZTV17RecordingReporter+16, 56(%rsp)
 4975      38000000 
 4975      00
 4976 1fea C7442440 		movl	$0, 64(%rsp)
 4976      00000000 
 4977 1ff2 C7842444 		movl	$0, 580(%rsp)
 4977      02000000 
 4977      000000
 4978 1ffd C7842448 		movl	$0, 840(%rsp)
 4978      03000000 
 4978      000000
 4979 2008 C784244C 		movl	$0, 1612(%rsp)
 4979      06000000 
 4979      000000
 4980 2013 C7842450 		movl	$0x00000000, 2128(%rsp)
 4980      08000000 
 4980      000000
 4981 201e C7842454 		movl	$0, 2132(%rsp)
 4981      08000000 
 4981      000000
 4982 2029 C7842458 		movl	$0, 2136(%rsp)
 4982      08000000 
 4982      000000
 4983 2034 C784245C 		movl	$0, 2140(%rsp)
 4983      08000000 
 4983      000000
 4984 203f C7842460 		movl	$0x00000000, 2144(%rsp)
 4984      08000000 
 4984      000000
 4985 204a C6442444 		movb	$0, 68(%rsp)
 4985      00
 4986 204f C6842444 		movb	$0, 324(%rsp)
 4986      01000000 
 4987 2057 C6842448 		movb	$0, 584(%rsp)
 4987      02000000 
 4988 205f C684244C 		movb	$0, 844(%rsp)
 4988      03000000 
 4989 2067 C684244C 		movb	$0, 1100(%rsp)
 4989      04000000 
 4990 206f C684244C 		movb	$0, 1356(%rsp)
 4990      05000000 
 4991 2077 C6842450 		movb	$0, 1616(%rsp)
 4991      06000000 
 4992 207f C6842450 		movb	$0, 1872(%rsp)
 4992      07000000 
 4993              	.LEHB135:
 4994 2087 E8000000 		call	_ZN8UnitTest8TestListC1Ev
 4994      00
 4995              	.LEHE135:
 4996 208c 488D7C24 		leaq	32(%rsp), %rdi
 4996      20
 4997 2091 4889DE   		movq	%rbx, %rsi
 4998 2094 48899C24 		movq	%rbx, 2168(%rsp)
 4998      78080000 
 4999              	.LEHB136:
 5000 209c E83FFBFF 		call	_ZN8UnitTest11ExecuteTestIN12_GLOBAL__N_155TestRunnerFixtureSlowTestFailsForLowTimeThresholdH
 5000      FF
 5001              	.LEHE136:
 5002 20a1 488D7C24 		leaq	56(%rsp), %rdi
 5002      38
 5003 20a6 48C74424 		movq	$_ZTV17RecordingReporter+16, 56(%rsp)
 5003      38000000 
 5003      00
 5004              	.LEHB137:
 5005 20af E8000000 		call	_ZN8UnitTest12TestReporterD2Ev
 5005      00
 5006              	.LEHE137:
 5007 20b4 488D7C24 		leaq	32(%rsp), %rdi
 5007      20
 5008              	.LEHB138:
 5009 20b9 E8000000 		call	_ZN8UnitTest10TestRunnerD1Ev
 5009      00
 5010              	.LEHE138:
 5011              	.L478:
 5012 20be 488B8424 		movq	2184(%rsp), %rax
 5012      88080000 
 5013 20c6 64483304 		xorq	%fs:40, %rax
 5013      25280000 
 5013      00
 5014 20cf 750E     		jne	.L517
 5015 20d1 4881C498 		addq	$2200, %rsp
 5015      080000
 5016              		.cfi_remember_state
 5017              		.cfi_def_cfa_offset 40
 5018 20d8 5B       		popq	%rbx
 5019              		.cfi_def_cfa_offset 32
 5020 20d9 5D       		popq	%rbp
 5021              		.cfi_def_cfa_offset 24
 5022 20da 415C     		popq	%r12
 5023              		.cfi_def_cfa_offset 16
 5024 20dc 415D     		popq	%r13
 5025              		.cfi_def_cfa_offset 8
 5026 20de C3       		ret
 5027              	.L517:
 5028              		.cfi_restore_state
 5029 20df E8000000 		call	__stack_chk_fail
 5029      00
 5030              	.L499:
 5031 20e4 4889C7   		movq	%rax, %rdi
 5032 20e7 41BC0100 		movl	$1, %r12d
 5032      0000
 5033              	.L481:
 5034 20ed 4883FA01 		cmpq	$1, %rdx
 5035 20f1 0F844501 		je	.L490
 5035      0000
 5036 20f7 4883FA02 		cmpq	$2, %rdx
 5037 20fb 0F85FE00 		jne	.L518
 5037      0000
 5038 2101 E8000000 		call	__cxa_begin_catch
 5038      00
 5039 2106 488D7C24 		leaq	32(%rsp), %rdi
 5039      20
 5040 210b 4889C5   		movq	%rax, %rbp
 5041              	.LEHB139:
 5042 210e E8000000 		call	_ZN8UnitTest15MemoryOutStreamC1Ev
 5042      00
 5043              	.LEHE139:
 5044 2113 488B4500 		movq	0(%rbp), %rax
 5045 2117 4889EF   		movq	%rbp, %rdi
 5046 211a FF5010   		call	*16(%rax)
 5047 211d 488D7C24 		leaq	32(%rsp), %rdi
 5047      20
 5048 2122 BA150000 		movl	$21, %edx
 5048      00
 5049 2127 BE000000 		movl	$.LC69, %esi
 5049      00
 5050 212c 4889C5   		movq	%rax, %rbp
 5051              	.LEHB140:
 5052 212f E8000000 		call	_ZSt16__ostream_insertIcSt11char_traitsIcEERSt13basic_ostreamIT_T0_ES6_PKS3_l
 5052      00
 5053 2134 488D7C24 		leaq	32(%rsp), %rdi
 5053      20
 5054 2139 4889EE   		movq	%rbp, %rsi
 5055 213c E8000000 		call	_ZStlsISt11char_traitsIcEERSt13basic_ostreamIcT_ES5_PKc
 5055      00
 5056 2141 488D7C24 		leaq	32(%rsp), %rdi
 5056      20
 5057 2146 E8000000 		call	_ZNK8UnitTest15MemoryOutStream7GetTextEv
 5057      00
 5058 214b 4889C5   		movq	%rax, %rbp
 5059 214e E8000000 		call	_ZN8UnitTest11CurrentTest7ResultsEv
 5059      00
 5060 2153 488B38   		movq	(%rax), %rdi
 5061 2156 4889EA   		movq	%rbp, %rdx
 5062 2159 4889DE   		movq	%rbx, %rsi
 5063 215c E8000000 		call	_ZN8UnitTest11TestResults13OnTestFailureERKNS_11TestDetailsEPKc
 5063      00
 5064              	.LEHE140:
 5065 2161 488D7C24 		leaq	32(%rsp), %rdi
 5065      20
 5066              	.LEHB141:
 5067 2166 E8000000 		call	_ZN8UnitTest15MemoryOutStreamD1Ev
 5067      00
 5068              	.LEHE141:
 5069              	.L512:
 5070 216b E8000000 		call	__cxa_end_catch
 5070      00
 5071 2170 E949FFFF 		jmp	.L478
 5071      FF
 5072              	.L506:
 5073 2175 488D7C24 		leaq	32(%rsp), %rdi
 5073      20
 5074 217a 4989D4   		movq	%rdx, %r12
 5075 217d 4989C5   		movq	%rax, %r13
 5076 2180 E8000000 		call	_ZN8UnitTest10TestRunnerD1Ev
 5076      00
 5077 2185 4C89E2   		movq	%r12, %rdx
 5078 2188 4C89EF   		movq	%r13, %rdi
 5079 218b 41BC0100 		movl	$1, %r12d
 5079      0000
 5080 2191 E957FFFF 		jmp	.L481
 5080      FF
 5081              	.L500:
 5082 2196 488D7C24 		leaq	32(%rsp), %rdi
 5082      20
 5083 219b 4989D4   		movq	%rdx, %r12
 5084 219e 4989C5   		movq	%rax, %r13
 5085 21a1 E8000000 		call	_ZN12_GLOBAL__N_111FixtureBaseD2Ev
 5085      00
 5086 21a6 4C89E2   		movq	%r12, %rdx
 5087 21a9 4C89EF   		movq	%r13, %rdi
 5088 21ac 41BC0100 		movl	$1, %r12d
 5088      0000
 5089 21b2 E936FFFF 		jmp	.L481
 5089      FF
 5090              	.L505:
 5091 21b7 488D7C24 		leaq	32(%rsp), %rdi
 5091      20
 5092 21bc 4989D4   		movq	%rdx, %r12
 5093 21bf 4989C5   		movq	%rax, %r13
 5094 21c2 E8000000 		call	_ZN12_GLOBAL__N_111FixtureBaseD2Ev
 5094      00
 5095 21c7 4C89E2   		movq	%r12, %rdx
 5096 21ca 4C89EF   		movq	%r13, %rdi
 5097 21cd 4531E4   		xorl	%r12d, %r12d
 5098 21d0 E918FFFF 		jmp	.L481
 5098      FF
 5099              	.L507:
 5100 21d5 4889C7   		movq	%rax, %rdi
 5101 21d8 4531E4   		xorl	%r12d, %r12d
 5102 21db E90DFFFF 		jmp	.L481
 5102      FF
 5103              	.L503:
 5104 21e0 488D7C24 		leaq	32(%rsp), %rdi
 5104      20
 5105 21e5 4889C3   		movq	%rax, %rbx
 5106 21e8 E8000000 		call	_ZN8UnitTest15MemoryOutStreamD1Ev
 5106      00
 5107              	.L496:
 5108 21ed E8000000 		call	__cxa_end_catch
 5108      00
 5109 21f2 4889DF   		movq	%rbx, %rdi
 5110              	.LEHB142:
 5111 21f5 E8000000 		call	_Unwind_Resume
 5111      00
 5112              	.LEHE142:
 5113              	.L502:
 5114              	.L513:
 5115 21fa 4889C3   		movq	%rax, %rbx
 5116 21fd EBEE     		jmp	.L496
 5117              	.L518:
 5118 21ff E8000000 		call	__cxa_begin_catch
 5118      00
 5119 2204 4584E4   		testb	%r12b, %r12b
 5120 2207 BAB30000 		movl	$179, %edx
 5120      00
 5121 220c 4889DE   		movq	%rbx, %rsi
 5122 220f 4889E7   		movq	%rsp, %rdi
 5123 2212 0F848900 		je	.L492
 5123      0000
 5124              	.LEHB143:
 5125 2218 E8000000 		call	_ZN8UnitTest11TestDetailsC1ERKS0_i
 5125      00
 5126 221d E8000000 		call	_ZN8UnitTest11CurrentTest7ResultsEv
 5126      00
 5127 2222 488B38   		movq	(%rax), %rdi
 5128 2225 BA000000 		movl	$.LC73, %edx
 5128      00
 5129 222a 4889E6   		movq	%rsp, %rsi
 5130 222d E8000000 		call	_ZN8UnitTest11TestResults13OnTestFailureERKNS_11TestDetailsEPKc
 5130      00
 5131              	.LEHE143:
 5132              	.L493:
 5133              	.LEHB144:
 5134 2232 E8000000 		call	__cxa_end_catch
 5134      00
 5135              	.LEHE144:
 5136 2237 E982FEFF 		jmp	.L478
 5136      FF
 5137              	.L490:
 5138 223c E8000000 		call	__cxa_begin_catch
 5138      00
 5139 2241 4889C3   		movq	%rax, %rbx
 5140 2244 488B00   		movq	(%rax), %rax
 5141 2247 4889DF   		movq	%rbx, %rdi
 5142 224a FF5010   		call	*16(%rax)
 5143 224d 4889DF   		movq	%rbx, %rdi
 5144 2250 4989C4   		movq	%rax, %r12
 5145              	.LEHB145:
 5146 2253 E8000000 		call	_ZNK8UnitTest15AssertException10LineNumberEv
 5146      00
 5147 2258 4889DF   		movq	%rbx, %rdi
 5148 225b 4189C5   		movl	%eax, %r13d
 5149 225e E8000000 		call	_ZNK8UnitTest15AssertException8FilenameEv
 5149      00
 5150 2263 488B5508 		movq	8(%rbp), %rdx
 5151 2267 488B7510 		movq	16(%rbp), %rsi
 5152 226b 4589E8   		movl	%r13d, %r8d
 5153 226e 4889C1   		movq	%rax, %rcx
 5154 2271 4889E7   		movq	%rsp, %rdi
 5155 2274 E8000000 		call	_ZN8UnitTest11TestDetailsC1EPKcS2_S2_i
 5155      00
 5156 2279 E8000000 		call	_ZN8UnitTest11CurrentTest7ResultsEv
 5156      00
 5157 227e 488B38   		movq	(%rax), %rdi
 5158 2281 4C89E2   		movq	%r12, %rdx
 5159 2284 4889E6   		movq	%rsp, %rsi
 5160 2287 E8000000 		call	_ZN8UnitTest11TestResults13OnTestFailureERKNS_11TestDetailsEPKc
 5160      00
 5161              	.LEHE145:
 5162 228c E9DAFEFF 		jmp	.L512
 5162      FF
 5163              	.L504:
 5164 2291 4889C3   		movq	%rax, %rbx
 5165 2294 E8000000 		call	__cxa_end_catch
 5165      00
 5166 2299 4889DF   		movq	%rbx, %rdi
 5167              	.LEHB146:
 5168 229c E8000000 		call	_Unwind_Resume
 5168      00
 5169              	.LEHE146:
 5170              	.L492:
 5171              	.LEHB147:
 5172 22a1 E8000000 		call	_ZN8UnitTest11TestDetailsC1ERKS0_i
 5172      00
 5173 22a6 E8000000 		call	_ZN8UnitTest11CurrentTest7ResultsEv
 5173      00
 5174 22ab 488B38   		movq	(%rax), %rdi
 5175 22ae BA000000 		movl	$.LC74, %edx
 5175      00
 5176 22b3 4889E6   		movq	%rsp, %rsi
 5177 22b6 E8000000 		call	_ZN8UnitTest11TestResults13OnTestFailureERKNS_11TestDetailsEPKc
 5177      00
 5178              	.LEHE147:
 5179 22bb E972FFFF 		jmp	.L493
 5179      FF
 5180              	.L501:
 5181 22c0 E935FFFF 		jmp	.L513
 5181      FF
 5182              		.cfi_endproc
 5183              	.LFE1273:
 5184              		.section	.gcc_except_table
 5185              		.align 4
 5186              	.LLSDA1273:
 5187 03bc FF       		.byte	0xff
 5188 03bd 03       		.byte	0x3
 5189 03be 69       		.uleb128 .LLSDATT1273-.LLSDATTD1273
 5190              	.LLSDATTD1273:
 5191 03bf 01       		.byte	0x1
 5192 03c0 50       		.uleb128 .LLSDACSE1273-.LLSDACSB1273
 5193              	.LLSDACSB1273:
 5194 03c1 34       		.uleb128 .LEHB134-.LFB1273
 5195 03c2 05       		.uleb128 .LEHE134-.LEHB134
 5196 03c3 B504     		.uleb128 .L507-.LFB1273
 5197 03c5 05       		.uleb128 0x5
 5198 03c6 E701     		.uleb128 .LEHB135-.LFB1273
 5199 03c8 05       		.uleb128 .LEHE135-.LEHB135
 5200 03c9 9704     		.uleb128 .L505-.LFB1273
 5201 03cb 07       		.uleb128 0x7
 5202 03cc FC01     		.uleb128 .LEHB136-.LFB1273
 5203 03ce 05       		.uleb128 .LEHE136-.LEHB136
 5204 03cf F603     		.uleb128 .L500-.LFB1273
 5205 03d1 07       		.uleb128 0x7
 5206 03d2 8F02     		.uleb128 .LEHB137-.LFB1273
 5207 03d4 05       		.uleb128 .LEHE137-.LEHB137
 5208 03d5 D503     		.uleb128 .L506-.LFB1273
 5209 03d7 07       		.uleb128 0x7
 5210 03d8 9902     		.uleb128 .LEHB138-.LFB1273
 5211 03da 05       		.uleb128 .LEHE138-.LEHB138
 5212 03db C402     		.uleb128 .L499-.LFB1273
 5213 03dd 05       		.uleb128 0x5
 5214 03de EE02     		.uleb128 .LEHB139-.LFB1273
 5215 03e0 05       		.uleb128 .LEHE139-.LEHB139
 5216 03e1 DA04     		.uleb128 .L502-.LFB1273
 5217 03e3 00       		.uleb128 0
 5218 03e4 8F03     		.uleb128 .LEHB140-.LFB1273
 5219 03e6 32       		.uleb128 .LEHE140-.LEHB140
 5220 03e7 C004     		.uleb128 .L503-.LFB1273
 5221 03e9 00       		.uleb128 0
 5222 03ea C603     		.uleb128 .LEHB141-.LFB1273
 5223 03ec 05       		.uleb128 .LEHE141-.LEHB141
 5224 03ed DA04     		.uleb128 .L502-.LFB1273
 5225 03ef 00       		.uleb128 0
 5226 03f0 D504     		.uleb128 .LEHB142-.LFB1273
 5227 03f2 05       		.uleb128 .LEHE142-.LEHB142
 5228 03f3 00       		.uleb128 0
 5229 03f4 00       		.uleb128 0
 5230 03f5 F804     		.uleb128 .LEHB143-.LFB1273
 5231 03f7 1A       		.uleb128 .LEHE143-.LEHB143
 5232 03f8 F105     		.uleb128 .L504-.LFB1273
 5233 03fa 00       		.uleb128 0
 5234 03fb 9205     		.uleb128 .LEHB144-.LFB1273
 5235 03fd 05       		.uleb128 .LEHE144-.LEHB144
 5236 03fe 00       		.uleb128 0
 5237 03ff 00       		.uleb128 0
 5238 0400 B305     		.uleb128 .LEHB145-.LFB1273
 5239 0402 39       		.uleb128 .LEHE145-.LEHB145
 5240 0403 A006     		.uleb128 .L501-.LFB1273
 5241 0405 00       		.uleb128 0
 5242 0406 FC05     		.uleb128 .LEHB146-.LFB1273
 5243 0408 05       		.uleb128 .LEHE146-.LEHB146
 5244 0409 00       		.uleb128 0
 5245 040a 00       		.uleb128 0
 5246 040b 8106     		.uleb128 .LEHB147-.LFB1273
 5247 040d 1A       		.uleb128 .LEHE147-.LEHB147
 5248 040e F105     		.uleb128 .L504-.LFB1273
 5249 0410 00       		.uleb128 0
 5250              	.LLSDACSE1273:
 5251 0411 03       		.byte	0x3
 5252 0412 00       		.byte	0
 5253 0413 02       		.byte	0x2
 5254 0414 7D       		.byte	0x7d
 5255 0415 01       		.byte	0x1
 5256 0416 7D       		.byte	0x7d
 5257 0417 00       		.byte	0
 5258 0418 7D       		.byte	0x7d
 5259 0419 000000   		.align 4
 5260 041c 00000000 		.long	0
 5261              	
 5262 0420 00000000 		.long	_ZTISt9exception
 5263 0424 00000000 		.long	_ZTIN8UnitTest15AssertExceptionE
 5264              	.LLSDATT1273:
 5265              		.text
 5267              		.section	.text.unlikely
 5268              	.LCOLDE99:
 5269              		.text
 5270              	.LHOTE99:
 5271              		.section	.text.unlikely
 5272              	.LCOLDB100:
 5273              		.text
 5274              	.LHOTB100:
 5275 22c5 90662E0F 		.p2align 4,,15
 5275      1F840000 
 5275      000000
 5277              	_ZN8UnitTest11ExecuteTestIN12_GLOBAL__N_157TestRunnerFixtureSlowTestPassesForHighTimeThresholdHelpe
 5278              	.LFB1585:
 5279              		.cfi_startproc
 5280              		.cfi_personality 0x3,__gxx_personality_v0
 5281              		.cfi_lsda 0x3,.LLSDA1585
 5282 22d0 4155     		pushq	%r13
 5283              		.cfi_def_cfa_offset 16
 5284              		.cfi_offset 13, -16
 5285 22d2 4154     		pushq	%r12
 5286              		.cfi_def_cfa_offset 24
 5287              		.cfi_offset 12, -24
 5288 22d4 55       		pushq	%rbp
 5289              		.cfi_def_cfa_offset 32
 5290              		.cfi_offset 6, -32
 5291 22d5 53       		pushq	%rbx
 5292              		.cfi_def_cfa_offset 40
 5293              		.cfi_offset 3, -40
 5294 22d6 4889F3   		movq	%rsi, %rbx
 5295 22d9 4881ECD8 		subq	$1752, %rsp
 5295      060000
 5296              		.cfi_def_cfa_offset 1792
 5297 22e0 48893C24 		movq	%rdi, (%rsp)
 5298 22e4 48897424 		movq	%rsi, 8(%rsp)
 5298      08
 5299 22e9 64488B04 		movq	%fs:40, %rax
 5299      25280000 
 5299      00
 5300 22f2 48898424 		movq	%rax, 1736(%rsp)
 5300      C8060000 
 5301 22fa 31C0     		xorl	%eax, %eax
 5302              	.LEHB148:
 5303 22fc E8000000 		call	_ZN8UnitTest11CurrentTest7DetailsEv
 5303      00
 5304              	.LEHE148:
 5305 2301 488DBC24 		leaq	608(%rsp), %rdi
 5305      60020000 
 5306 2309 488918   		movq	%rbx, (%rax)
 5307              	.LEHB149:
 5308 230c E8000000 		call	_ZN8UnitTest16SignalTranslatorC1Ev
 5308      00
 5309              	.LEHE149:
 5310 2311 488B3D00 		movq	_ZN8UnitTest16SignalTranslator12s_jumpTargetE(%rip), %rdi
 5310      000000
 5311 2318 BE010000 		movl	$1, %esi
 5311      00
 5312 231d E8000000 		call	__sigsetjmp
 5312      00
 5313 2322 85C0     		testl	%eax, %eax
 5314 2324 742A     		je	.L555
 5315 2326 BF080000 		movl	$8, %edi
 5315      00
 5316 232b E8000000 		call	__cxa_allocate_exception
 5316      00
 5317 2330 31D2     		xorl	%edx, %edx
 5318 2332 48C70000 		movq	$.LC61, (%rax)
 5318      000000
 5319 2339 BE000000 		movl	$_ZTIPKc, %esi
 5319      00
 5320 233e 4889C7   		movq	%rax, %rdi
 5321              	.LEHB150:
 5322 2341 E8000000 		call	__cxa_throw
 5322      00
 5323 2346 662E0F1F 		.p2align 4,,10
 5323      84000000 
 5323      0000
 5324              		.p2align 3
 5325              	.L555:
 5326 2350 488DBC24 		leaq	128(%rsp), %rdi
 5326      80000000 
 5327 2358 41B87B00 		movl	$123, %r8d
 5327      0000
 5328 235e B9000000 		movl	$.LC62, %ecx
 5328      00
 5329 2363 BA000000 		movl	$.LC63, %edx
 5329      00
 5330 2368 BE000000 		movl	$.LC64, %esi
 5330      00
 5331 236d E8000000 		call	_ZN8UnitTest4TestC2EPKcS2_S2_i
 5331      00
 5332              	.LEHE150:
 5333 2372 488B2C24 		movq	(%rsp), %rbp
 5334 2376 488DB424 		leaq	128(%rsp), %rsi
 5334      80000000 
 5335 237e 48C78424 		movq	$_ZTVN12_GLOBAL__N_18SlowTestE+16, 128(%rsp)
 5335      80000000 
 5335      00000000 
 5336 238a 488D9D48 		leaq	2120(%rbp), %rbx
 5336      080000
 5337 2391 4889DF   		movq	%rbx, %rdi
 5338              	.LEHB151:
 5339 2394 E8000000 		call	_ZN8UnitTest8TestList3AddEPNS_4TestE
 5339      00
 5340 2399 E8000000 		call	_ZN8UnitTest11CurrentTest7ResultsEv
 5340      00
 5341 239e 4C8B20   		movq	(%rax), %r12
 5342 23a1 E8000000 		call	_ZN8UnitTest11CurrentTest7DetailsEv
 5342      00
 5343 23a6 4889DF   		movq	%rbx, %rdi
 5344 23a9 4C8B28   		movq	(%rax), %r13
 5345 23ac E8000000 		call	_ZNK8UnitTest8TestList7GetHeadEv
 5345      00
 5346 23b1 4885C0   		testq	%rax, %rax
 5347 23b4 4889C3   		movq	%rax, %rbx
 5348 23b7 7436     		je	.L525
 5349 23b9 0F1F8000 		.p2align 4,,10
 5349      000000
 5350              		.p2align 3
 5351              	.L554:
 5352 23c0 31D2     		xorl	%edx, %edx
 5353 23c2 4889DE   		movq	%rbx, %rsi
 5354 23c5 4889EF   		movq	%rbp, %rdi
 5355 23c8 E8000000 		call	_ZNK8UnitTest10TestRunner13IsTestInSuiteEPKNS_4TestEPKc
 5355      00
 5356 23cd 84C0     		testb	%al, %al
 5357 23cf 7415     		je	.L543
 5358 23d1 488B0424 		movq	(%rsp), %rax
 5359 23d5 31C9     		xorl	%ecx, %ecx
 5360 23d7 4889DA   		movq	%rbx, %rdx
 5361 23da 4889EF   		movq	%rbp, %rdi
 5362 23dd 488B7008 		movq	8(%rax), %rsi
 5363 23e1 E8000000 		call	_ZNK8UnitTest10TestRunner7RunTestEPNS_11TestResultsEPNS_4TestEi
 5363      00
 5364              	.L543:
 5365 23e6 488B5B28 		movq	40(%rbx), %rbx
 5366 23ea 4885DB   		testq	%rbx, %rbx
 5367 23ed 75D1     		jne	.L554
 5368              	.L525:
 5369 23ef 488B3C24 		movq	(%rsp), %rdi
 5370 23f3 E8000000 		call	_ZNK8UnitTest10TestRunner6FinishEv
 5370      00
 5371 23f8 E8000000 		call	_ZN8UnitTest11CurrentTest7ResultsEv
 5371      00
 5372 23fd 4C8920   		movq	%r12, (%rax)
 5373 2400 E8000000 		call	_ZN8UnitTest11CurrentTest7DetailsEv
 5373      00
 5374              	.LEHE151:
 5375 2405 4C8928   		movq	%r13, (%rax)
 5376              	.LEHB152:
 5377 2408 E8000000 		call	_ZN8UnitTest11CurrentTest7DetailsEv
 5377      00
 5378 240d 488B30   		movq	(%rax), %rsi
 5379 2410 488D7C24 		leaq	96(%rsp), %rdi
 5379      60
 5380 2415 BAB00000 		movl	$176, %edx
 5380      00
 5381 241a E8000000 		call	_ZN8UnitTest11TestDetailsC1ERKS0_i
 5381      00
 5382 241f 488B1C24 		movq	(%rsp), %rbx
 5383 2423 C744241C 		movl	$0, 28(%rsp)
 5383      00000000 
 5384 242b 4881C324 		addq	$548, %rbx
 5384      020000
 5385 2432 E8000000 		call	_ZN8UnitTest11CurrentTest7ResultsEv
 5385      00
 5386 2437 488B38   		movq	(%rax), %rdi
 5387 243a 488D4C24 		leaq	96(%rsp), %rcx
 5387      60
 5388 243f 488D7424 		leaq	28(%rsp), %rsi
 5388      1C
 5389 2444 4889DA   		movq	%rbx, %rdx
 5390 2447 E8000000 		call	_ZN8UnitTest10CheckEqualIiiEEvRNS_11TestResultsERKT_RKT0_RKNS_11TestDetailsE
 5390      00
 5391              	.LEHE152:
 5392              	.L529:
 5393 244c 488DBC24 		leaq	128(%rsp), %rdi
 5393      80000000 
 5394 2454 48C78424 		movq	$_ZTVN12_GLOBAL__N_18SlowTestE+16, 128(%rsp)
 5394      80000000 
 5394      00000000 
 5395              	.LEHB153:
 5396 2460 E8000000 		call	_ZN8UnitTest4TestD2Ev
 5396      00
 5397              	.LEHE153:
 5398 2465 488DBC24 		leaq	608(%rsp), %rdi
 5398      60020000 
 5399              	.LEHB154:
 5400 246d E8000000 		call	_ZN8UnitTest16SignalTranslatorD1Ev
 5400      00
 5401              	.LEHE154:
 5402              	.L519:
 5403 2472 488B8424 		movq	1736(%rsp), %rax
 5403      C8060000 
 5404 247a 64483304 		xorq	%fs:40, %rax
 5404      25280000 
 5404      00
 5405 2483 0F85C700 		jne	.L563
 5405      0000
 5406 2489 4881C4D8 		addq	$1752, %rsp
 5406      060000
 5407              		.cfi_remember_state
 5408              		.cfi_def_cfa_offset 40
 5409 2490 5B       		popq	%rbx
 5410              		.cfi_def_cfa_offset 32
 5411 2491 5D       		popq	%rbp
 5412              		.cfi_def_cfa_offset 24
 5413 2492 415C     		popq	%r12
 5414              		.cfi_def_cfa_offset 16
 5415 2494 415D     		popq	%r13
 5416              		.cfi_def_cfa_offset 8
 5417 2496 C3       		ret
 5418              	.L550:
 5419              		.cfi_restore_state
 5420 2497 4889C3   		movq	%rax, %rbx
 5421 249a 4889D5   		movq	%rdx, %rbp
 5422              	.L532:
 5423 249d 488DBC24 		leaq	608(%rsp), %rdi
 5423      60020000 
 5424 24a5 E8000000 		call	_ZN8UnitTest16SignalTranslatorD1Ev
 5424      00
 5425 24aa 4889DF   		movq	%rbx, %rdi
