   1              		.file	"TestXmlTestReporter.cpp"
   2              		.section	.text.unlikely,"ax",@progbits
   3              		.align 2
   4              	.LCOLDB0:
   5              		.text
   6              	.LHOTB0:
   7              		.align 2
   8              		.p2align 4,,15
  10              	_ZN12_GLOBAL__N_142TestXmlTestReporterFixtureMultipleFailuresD2Ev:
  11              	.LFB1580:
  12              		.cfi_startproc
  13 0000 48C70700 		movq	$_ZTVN12_GLOBAL__N_142TestXmlTestReporterFixtureMultipleFailuresE+16, (%rdi)
  13      000000
  14 0007 E9000000 		jmp	_ZN8UnitTest4TestD2Ev
  14      00
  15              		.cfi_endproc
  16              	.LFE1580:
  18              		.section	.text.unlikely
  19              	.LCOLDE0:
  20              		.text
  21              	.LHOTE0:
  22              		.set	_ZN12_GLOBAL__N_142TestXmlTestReporterFixtureMultipleFailuresD1Ev,_ZN12_GLOBAL__N_142TestXmlT
  23              		.section	.text.unlikely
  24              		.align 2
  25              	.LCOLDB1:
  26              		.text
  27              	.LHOTB1:
  28              		.align 2
  29 000c 0F1F4000 		.p2align 4,,15
  31              	_ZN12_GLOBAL__N_149TestXmlTestReporterFixtureOneFailureAndOneSuccessD2Ev:
  32              	.LFB1584:
  33              		.cfi_startproc
  34 0010 48C70700 		movq	$_ZTVN12_GLOBAL__N_149TestXmlTestReporterFixtureOneFailureAndOneSuccessE+16, (%rdi)
  34      000000
  35 0017 E9000000 		jmp	_ZN8UnitTest4TestD2Ev
  35      00
  36              		.cfi_endproc
  37              	.LFE1584:
  39              		.section	.text.unlikely
  40              	.LCOLDE1:
  41              		.text
  42              	.LHOTE1:
  43              		.set	_ZN12_GLOBAL__N_149TestXmlTestReporterFixtureOneFailureAndOneSuccessD1Ev,_ZN12_GLOBAL__N_149T
  44              		.section	.text.unlikely
  45              		.align 2
  46              	.LCOLDB2:
  47              		.text
  48              	.LHOTB2:
  49              		.align 2
  50 001c 0F1F4000 		.p2align 4,,15
  52              	_ZN12_GLOBAL__N_152TestXmlTestReporterFixtureFailureMessageIsXMLEscapedD2Ev:
  53              	.LFB1588:
  54              		.cfi_startproc
  55 0020 48C70700 		movq	$_ZTVN12_GLOBAL__N_152TestXmlTestReporterFixtureFailureMessageIsXMLEscapedE+16, (%rdi)
  55      000000
  56 0027 E9000000 		jmp	_ZN8UnitTest4TestD2Ev
  56      00
  57              		.cfi_endproc
  58              	.LFE1588:
  60              		.section	.text.unlikely
  61              	.LCOLDE2:
  62              		.text
  63              	.LHOTE2:
  64              		.set	_ZN12_GLOBAL__N_152TestXmlTestReporterFixtureFailureMessageIsXMLEscapedD1Ev,_ZN12_GLOBAL__N_1
  65              		.section	.text.unlikely
  66              		.align 2
  67              	.LCOLDB3:
  68              		.text
  69              	.LHOTB3:
  70              		.align 2
  71 002c 0F1F4000 		.p2align 4,,15
  73              	_ZN12_GLOBAL__N_161TestXmlTestReporterFixtureSingleFailedTestReportSummaryFormatD2Ev:
  74              	.LFB1592:
  75              		.cfi_startproc
  76 0030 48C70700 		movq	$_ZTVN12_GLOBAL__N_161TestXmlTestReporterFixtureSingleFailedTestReportSummaryFormatE+16, (%rd
  76      000000
  77 0037 E9000000 		jmp	_ZN8UnitTest4TestD2Ev
  77      00
  78              		.cfi_endproc
  79              	.LFE1592:
  81              		.section	.text.unlikely
  82              	.LCOLDE3:
  83              		.text
  84              	.LHOTE3:
  85              		.set	_ZN12_GLOBAL__N_161TestXmlTestReporterFixtureSingleFailedTestReportSummaryFormatD1Ev,_ZN12_GL
  86              		.section	.text.unlikely
  87              		.align 2
  88              	.LCOLDB4:
  89              		.text
  90              	.LHOTB4:
  91              		.align 2
  92 003c 0F1F4000 		.p2align 4,,15
  94              	_ZN12_GLOBAL__N_165TestXmlTestReporterFixtureSingleSuccessfulTestReportSummaryFormatD2Ev:
  95              	.LFB1596:
  96              		.cfi_startproc
  97 0040 48C70700 		movq	$_ZTVN12_GLOBAL__N_165TestXmlTestReporterFixtureSingleSuccessfulTestReportSummaryFormatE+16, 
  97      000000
  98 0047 E9000000 		jmp	_ZN8UnitTest4TestD2Ev
  98      00
  99              		.cfi_endproc
 100              	.LFE1596:
 102              		.section	.text.unlikely
 103              	.LCOLDE4:
 104              		.text
 105              	.LHOTE4:
 106              		.set	_ZN12_GLOBAL__N_165TestXmlTestReporterFixtureSingleSuccessfulTestReportSummaryFormatD1Ev,_ZN1
 107              		.section	.text.unlikely
 108              		.align 2
 109              	.LCOLDB5:
 110              		.text
 111              	.LHOTB5:
 112              		.align 2
 113 004c 0F1F4000 		.p2align 4,,15
 115              	_ZN12_GLOBAL__N_150TestXmlTestReporterFixtureEmptyReportSummaryFormatD2Ev:
 116              	.LFB1600:
 117              		.cfi_startproc
 118 0050 48C70700 		movq	$_ZTVN12_GLOBAL__N_150TestXmlTestReporterFixtureEmptyReportSummaryFormatE+16, (%rdi)
 118      000000
 119 0057 E9000000 		jmp	_ZN8UnitTest4TestD2Ev
 119      00
 120              		.cfi_endproc
 121              	.LFE1600:
 123              		.section	.text.unlikely
 124              	.LCOLDE5:
 125              		.text
 126              	.LHOTE5:
 127              		.set	_ZN12_GLOBAL__N_150TestXmlTestReporterFixtureEmptyReportSummaryFormatD1Ev,_ZN12_GLOBAL__N_150
 128              		.section	.text.unlikely
 129              		.align 2
 130              	.LCOLDB6:
 131              		.text
 132              	.LHOTB6:
 133              		.align 2
 134 005c 0F1F4000 		.p2align 4,,15
 136              	_ZN12_GLOBAL__N_166TestXmlTestReporterFixtureOutputIsCachedUntilReportSummaryIsCalledD2Ev:
 137              	.LFB1604:
 138              		.cfi_startproc
 139 0060 48C70700 		movq	$_ZTVN12_GLOBAL__N_166TestXmlTestReporterFixtureOutputIsCachedUntilReportSummaryIsCalledE+16,
 139      000000
 140 0067 E9000000 		jmp	_ZN8UnitTest4TestD2Ev
 140      00
 141              		.cfi_endproc
 142              	.LFE1604:
 144              		.section	.text.unlikely
 145              	.LCOLDE6:
 146              		.text
 147              	.LHOTE6:
 148              		.set	_ZN12_GLOBAL__N_166TestXmlTestReporterFixtureOutputIsCachedUntilReportSummaryIsCalledD1Ev,_ZN
 149              		.section	.text.unlikely
 150              		.align 2
 151              	.LCOLDB7:
 152              		.text
 153              	.LHOTB7:
 154              		.align 2
 155 006c 0F1F4000 		.p2align 4,,15
 157              	_ZN12_GLOBAL__N_154TestXmlTestReporterFixtureMultipleCharactersAreEscapedD2Ev:
 158              	.LFB1608:
 159              		.cfi_startproc
 160 0070 48C70700 		movq	$_ZTVN12_GLOBAL__N_154TestXmlTestReporterFixtureMultipleCharactersAreEscapedE+16, (%rdi)
 160      000000
 161 0077 E9000000 		jmp	_ZN8UnitTest4TestD2Ev
 161      00
 162              		.cfi_endproc
 163              	.LFE1608:
 165              		.section	.text.unlikely
 166              	.LCOLDE7:
 167              		.text
 168              	.LHOTE7:
 169              		.set	_ZN12_GLOBAL__N_154TestXmlTestReporterFixtureMultipleCharactersAreEscapedD1Ev,_ZN12_GLOBAL__N
 170              		.section	.text.unlikely
 171              		.align 2
 172              	.LCOLDB8:
 173              		.text
 174              	.LHOTB8:
 175              		.align 2
 176 007c 0F1F4000 		.p2align 4,,15
 178              	_ZN12_GLOBAL__N_142TestXmlTestReporterFixtureMultipleFailuresD0Ev:
 179              	.LFB1582:
 180              		.cfi_startproc
 181 0080 53       		pushq	%rbx
 182              		.cfi_def_cfa_offset 16
 183              		.cfi_offset 3, -16
 184 0081 4889FB   		movq	%rdi, %rbx
 185 0084 48C70700 		movq	$_ZTVN12_GLOBAL__N_142TestXmlTestReporterFixtureMultipleFailuresE+16, (%rdi)
 185      000000
 186 008b E8000000 		call	_ZN8UnitTest4TestD2Ev
 186      00
 187 0090 4889DF   		movq	%rbx, %rdi
 188 0093 5B       		popq	%rbx
 189              		.cfi_def_cfa_offset 8
 190 0094 E9000000 		jmp	_ZdlPv
 190      00
 191              		.cfi_endproc
 192              	.LFE1582:
 194              		.section	.text.unlikely
 195              	.LCOLDE8:
 196              		.text
 197              	.LHOTE8:
 198              		.section	.text.unlikely
 199              		.align 2
 200              	.LCOLDB9:
 201              		.text
 202              	.LHOTB9:
 203 0099 90       		.align 2
 204 009a 660F1F44 		.p2align 4,,15
 204      0000
 206              	_ZN12_GLOBAL__N_149TestXmlTestReporterFixtureOneFailureAndOneSuccessD0Ev:
 207              	.LFB1586:
 208              		.cfi_startproc
 209 00a0 53       		pushq	%rbx
 210              		.cfi_def_cfa_offset 16
 211              		.cfi_offset 3, -16
 212 00a1 4889FB   		movq	%rdi, %rbx
 213 00a4 48C70700 		movq	$_ZTVN12_GLOBAL__N_149TestXmlTestReporterFixtureOneFailureAndOneSuccessE+16, (%rdi)
 213      000000
 214 00ab E8000000 		call	_ZN8UnitTest4TestD2Ev
 214      00
 215 00b0 4889DF   		movq	%rbx, %rdi
 216 00b3 5B       		popq	%rbx
 217              		.cfi_def_cfa_offset 8
 218 00b4 E9000000 		jmp	_ZdlPv
 218      00
 219              		.cfi_endproc
 220              	.LFE1586:
 222              		.section	.text.unlikely
 223              	.LCOLDE9:
 224              		.text
 225              	.LHOTE9:
 226              		.section	.text.unlikely
 227              		.align 2
 228              	.LCOLDB10:
 229              		.text
 230              	.LHOTB10:
 231 00b9 90       		.align 2
 232 00ba 660F1F44 		.p2align 4,,15
 232      0000
 234              	_ZN12_GLOBAL__N_152TestXmlTestReporterFixtureFailureMessageIsXMLEscapedD0Ev:
 235              	.LFB1590:
 236              		.cfi_startproc
 237 00c0 53       		pushq	%rbx
 238              		.cfi_def_cfa_offset 16
 239              		.cfi_offset 3, -16
 240 00c1 4889FB   		movq	%rdi, %rbx
 241 00c4 48C70700 		movq	$_ZTVN12_GLOBAL__N_152TestXmlTestReporterFixtureFailureMessageIsXMLEscapedE+16, (%rdi)
 241      000000
 242 00cb E8000000 		call	_ZN8UnitTest4TestD2Ev
 242      00
 243 00d0 4889DF   		movq	%rbx, %rdi
 244 00d3 5B       		popq	%rbx
 245              		.cfi_def_cfa_offset 8
 246 00d4 E9000000 		jmp	_ZdlPv
 246      00
 247              		.cfi_endproc
 248              	.LFE1590:
 250              		.section	.text.unlikely
 251              	.LCOLDE10:
 252              		.text
 253              	.LHOTE10:
 254              		.section	.text.unlikely
 255              		.align 2
 256              	.LCOLDB11:
 257              		.text
 258              	.LHOTB11:
 259 00d9 90       		.align 2
 260 00da 660F1F44 		.p2align 4,,15
 260      0000
 262              	_ZN12_GLOBAL__N_161TestXmlTestReporterFixtureSingleFailedTestReportSummaryFormatD0Ev:
 263              	.LFB1594:
 264              		.cfi_startproc
 265 00e0 53       		pushq	%rbx
 266              		.cfi_def_cfa_offset 16
 267              		.cfi_offset 3, -16
 268 00e1 4889FB   		movq	%rdi, %rbx
 269 00e4 48C70700 		movq	$_ZTVN12_GLOBAL__N_161TestXmlTestReporterFixtureSingleFailedTestReportSummaryFormatE+16, (%rd
 269      000000
 270 00eb E8000000 		call	_ZN8UnitTest4TestD2Ev
 270      00
 271 00f0 4889DF   		movq	%rbx, %rdi
 272 00f3 5B       		popq	%rbx
 273              		.cfi_def_cfa_offset 8
 274 00f4 E9000000 		jmp	_ZdlPv
 274      00
 275              		.cfi_endproc
 276              	.LFE1594:
 278              		.section	.text.unlikely
 279              	.LCOLDE11:
 280              		.text
 281              	.LHOTE11:
 282              		.section	.text.unlikely
 283              		.align 2
 284              	.LCOLDB12:
 285              		.text
 286              	.LHOTB12:
 287 00f9 90       		.align 2
 288 00fa 660F1F44 		.p2align 4,,15
 288      0000
 290              	_ZN12_GLOBAL__N_165TestXmlTestReporterFixtureSingleSuccessfulTestReportSummaryFormatD0Ev:
 291              	.LFB1598:
 292              		.cfi_startproc
 293 0100 53       		pushq	%rbx
 294              		.cfi_def_cfa_offset 16
 295              		.cfi_offset 3, -16
 296 0101 4889FB   		movq	%rdi, %rbx
 297 0104 48C70700 		movq	$_ZTVN12_GLOBAL__N_165TestXmlTestReporterFixtureSingleSuccessfulTestReportSummaryFormatE+16, 
 297      000000
 298 010b E8000000 		call	_ZN8UnitTest4TestD2Ev
 298      00
 299 0110 4889DF   		movq	%rbx, %rdi
 300 0113 5B       		popq	%rbx
 301              		.cfi_def_cfa_offset 8
 302 0114 E9000000 		jmp	_ZdlPv
 302      00
 303              		.cfi_endproc
 304              	.LFE1598:
 306              		.section	.text.unlikely
 307              	.LCOLDE12:
 308              		.text
 309              	.LHOTE12:
 310              		.section	.text.unlikely
 311              		.align 2
 312              	.LCOLDB13:
 313              		.text
 314              	.LHOTB13:
 315 0119 90       		.align 2
 316 011a 660F1F44 		.p2align 4,,15
 316      0000
 318              	_ZN12_GLOBAL__N_150TestXmlTestReporterFixtureEmptyReportSummaryFormatD0Ev:
 319              	.LFB1602:
 320              		.cfi_startproc
 321 0120 53       		pushq	%rbx
 322              		.cfi_def_cfa_offset 16
 323              		.cfi_offset 3, -16
 324 0121 4889FB   		movq	%rdi, %rbx
 325 0124 48C70700 		movq	$_ZTVN12_GLOBAL__N_150TestXmlTestReporterFixtureEmptyReportSummaryFormatE+16, (%rdi)
 325      000000
 326 012b E8000000 		call	_ZN8UnitTest4TestD2Ev
 326      00
 327 0130 4889DF   		movq	%rbx, %rdi
 328 0133 5B       		popq	%rbx
 329              		.cfi_def_cfa_offset 8
 330 0134 E9000000 		jmp	_ZdlPv
 330      00
 331              		.cfi_endproc
 332              	.LFE1602:
 334              		.section	.text.unlikely
 335              	.LCOLDE13:
 336              		.text
 337              	.LHOTE13:
 338              		.section	.text.unlikely
 339              		.align 2
 340              	.LCOLDB14:
 341              		.text
 342              	.LHOTB14:
 343 0139 90       		.align 2
 344 013a 660F1F44 		.p2align 4,,15
 344      0000
 346              	_ZN12_GLOBAL__N_166TestXmlTestReporterFixtureOutputIsCachedUntilReportSummaryIsCalledD0Ev:
 347              	.LFB1606:
 348              		.cfi_startproc
 349 0140 53       		pushq	%rbx
 350              		.cfi_def_cfa_offset 16
 351              		.cfi_offset 3, -16
 352 0141 4889FB   		movq	%rdi, %rbx
 353 0144 48C70700 		movq	$_ZTVN12_GLOBAL__N_166TestXmlTestReporterFixtureOutputIsCachedUntilReportSummaryIsCalledE+16,
 353      000000
 354 014b E8000000 		call	_ZN8UnitTest4TestD2Ev
 354      00
 355 0150 4889DF   		movq	%rbx, %rdi
 356 0153 5B       		popq	%rbx
 357              		.cfi_def_cfa_offset 8
 358 0154 E9000000 		jmp	_ZdlPv
 358      00
 359              		.cfi_endproc
 360              	.LFE1606:
 362              		.section	.text.unlikely
 363              	.LCOLDE14:
 364              		.text
 365              	.LHOTE14:
 366              		.section	.text.unlikely
 367              		.align 2
 368              	.LCOLDB15:
 369              		.text
 370              	.LHOTB15:
 371 0159 90       		.align 2
 372 015a 660F1F44 		.p2align 4,,15
 372      0000
 374              	_ZN12_GLOBAL__N_154TestXmlTestReporterFixtureMultipleCharactersAreEscapedD0Ev:
 375              	.LFB1610:
 376              		.cfi_startproc
 377 0160 53       		pushq	%rbx
 378              		.cfi_def_cfa_offset 16
 379              		.cfi_offset 3, -16
 380 0161 4889FB   		movq	%rdi, %rbx
 381 0164 48C70700 		movq	$_ZTVN12_GLOBAL__N_154TestXmlTestReporterFixtureMultipleCharactersAreEscapedE+16, (%rdi)
 381      000000
 382 016b E8000000 		call	_ZN8UnitTest4TestD2Ev
 382      00
 383 0170 4889DF   		movq	%rbx, %rdi
 384 0173 5B       		popq	%rbx
 385              		.cfi_def_cfa_offset 8
 386 0174 E9000000 		jmp	_ZdlPv
 386      00
 387              		.cfi_endproc
 388              	.LFE1610:
 390              		.section	.text.unlikely
 391              	.LCOLDE15:
 392              		.text
 393              	.LHOTE15:
 394              		.section	.text.unlikely._ZN8UnitTest15MemoryOutStreamD1Ev,"axG",@progbits,_ZN8UnitTest15MemoryOutS
 395              		.align 2
 396              	.LCOLDB16:
 397              		.section	.text._ZN8UnitTest15MemoryOutStreamD1Ev,"axG",@progbits,_ZN8UnitTest15MemoryOutStreamD1Ev
 398              	.LHOTB16:
 399              		.align 2
 400              		.p2align 4,,15
 401              		.weak	_ZN8UnitTest15MemoryOutStreamD1Ev
 403              	_ZN8UnitTest15MemoryOutStreamD1Ev:
 404              	.LFB1613:
 405              		.cfi_startproc
 406 0000 53       		pushq	%rbx
 407              		.cfi_def_cfa_offset 16
 408              		.cfi_offset 3, -16
 409 0001 4889FB   		movq	%rdi, %rbx
 410 0004 48C70700 		movq	$_ZTVN8UnitTest15MemoryOutStreamE+24, (%rdi)
 410      000000
 411 000b 48C78790 		movq	$_ZTVN8UnitTest15MemoryOutStreamE+64, 144(%rdi)
 411      00000000 
 411      000000
 412 0016 488B7F70 		movq	112(%rdi), %rdi
 413 001a 488D8380 		leaq	128(%rbx), %rax
 413      000000
 414 0021 4839C7   		cmpq	%rax, %rdi
 415 0024 7405     		je	.L26
 416 0026 E8000000 		call	_ZdlPv
 416      00
 417              	.L26:
 418 002b 488B7B50 		movq	80(%rbx), %rdi
 419 002f 488D4360 		leaq	96(%rbx), %rax
 420 0033 48C70300 		movq	$_ZTCN8UnitTest15MemoryOutStreamE0_NSt7__cxx1119basic_ostringstreamIcSt11char_traitsIcESaIcEE
 420      000000
 421 003a 48C78390 		movq	$_ZTCN8UnitTest15MemoryOutStreamE0_NSt7__cxx1119basic_ostringstreamIcSt11char_traitsIcESaIcEE
 421      00000000 
 421      000000
 422 0045 48C74308 		movq	$_ZTVNSt7__cxx1115basic_stringbufIcSt11char_traitsIcESaIcEEE+16, 8(%rbx)
 422      00000000 
 423 004d 4839C7   		cmpq	%rax, %rdi
 424 0050 7405     		je	.L27
 425 0052 E8000000 		call	_ZdlPv
 425      00
 426              	.L27:
 427 0057 488D7B40 		leaq	64(%rbx), %rdi
 428 005b 48C74308 		movq	$_ZTVSt15basic_streambufIcSt11char_traitsIcEE+16, 8(%rbx)
 428      00000000 
 429 0063 E8000000 		call	_ZNSt6localeD1Ev
 429      00
 430 0068 48C78390 		movq	$_ZTVSt9basic_iosIcSt11char_traitsIcEE+16, 144(%rbx)
 430      00000000 
 430      000000
 431 0073 488DBB90 		leaq	144(%rbx), %rdi
 431      000000
 432 007a 5B       		popq	%rbx
 433              		.cfi_def_cfa_offset 8
 434 007b E9000000 		jmp	_ZNSt8ios_baseD2Ev
 434      00
 435              		.cfi_endproc
 436              	.LFE1613:
 438              		.section	.text.unlikely._ZN8UnitTest15MemoryOutStreamD1Ev,"axG",@progbits,_ZN8UnitTest15MemoryOutS
 439              	.LCOLDE16:
 440              		.section	.text._ZN8UnitTest15MemoryOutStreamD1Ev,"axG",@progbits,_ZN8UnitTest15MemoryOutStreamD1Ev
 441              	.LHOTE16:
 442              		.set	.LTHUNK0,_ZN8UnitTest15MemoryOutStreamD1Ev
 443              		.section	.text.unlikely._ZTv0_n24_N8UnitTest15MemoryOutStreamD1Ev,"axG",@progbits,_ZN8UnitTest15Me
 444              	.LCOLDB17:
 445              		.section	.text._ZN8UnitTest15MemoryOutStreamD1Ev,"axG",@progbits,_ZN8UnitTest15MemoryOutStreamD1Ev
 446              	.LHOTB17:
 447              		.p2align 4,,15
 448              		.weak	_ZTv0_n24_N8UnitTest15MemoryOutStreamD1Ev
 450              	_ZTv0_n24_N8UnitTest15MemoryOutStreamD1Ev:
 451              	.LFB1727:
 452              		.cfi_startproc
 453 0080 4C8B17   		movq	(%rdi), %r10
 454 0083 49037AE8 		addq	-24(%r10), %rdi
 455 0087 E974FFFF 		jmp	.LTHUNK0
 455      FF
 456              		.cfi_endproc
 457              	.LFE1727:
 459              		.section	.text.unlikely._ZTv0_n24_N8UnitTest15MemoryOutStreamD1Ev,"axG",@progbits,_ZN8UnitTest15Me
 460              	.LCOLDE17:
 461              		.section	.text._ZN8UnitTest15MemoryOutStreamD1Ev,"axG",@progbits,_ZN8UnitTest15MemoryOutStreamD1Ev
 462              	.LHOTE17:
 463              		.section	.text.unlikely
 464              		.align 2
 465              	.LCOLDB18:
 466              	.LHOTB18:
 467              		.align 2
 469              	_ZN12_GLOBAL__N_122XmlTestReporterFixtureD2Ev.constprop.46:
 470              	.LFB1708:
 471              		.cfi_startproc
 472              		.cfi_personality 0x3,__gxx_personality_v0
 473              		.cfi_lsda 0x3,.LLSDA1708
 474 0000 4156     		pushq	%r14
 475              		.cfi_def_cfa_offset 16
 476              		.cfi_offset 14, -16
 477 0002 4155     		pushq	%r13
 478              		.cfi_def_cfa_offset 24
 479              		.cfi_offset 13, -24
 480 0004 4154     		pushq	%r12
 481              		.cfi_def_cfa_offset 32
 482              		.cfi_offset 12, -32
 483 0006 55       		pushq	%rbp
 484              		.cfi_def_cfa_offset 40
 485              		.cfi_offset 6, -40
 486 0007 53       		pushq	%rbx
 487              		.cfi_def_cfa_offset 48
 488              		.cfi_offset 3, -48
 489 0008 4C8BAF88 		movq	392(%rdi), %r13
 489      010000
 490 000f 4889FB   		movq	%rdi, %rbx
 491 0012 488BAF80 		movq	384(%rdi), %rbp
 491      010000
 492 0019 48C78778 		movq	$_ZTVN8UnitTest20DeferredTestReporterE+16, 376(%rdi)
 492      01000000 
 492      000000
 493              	.L39:
 494 0024 4939ED   		cmpq	%rbp, %r13
 495 0027 7471     		je	.L31
 496 0029 4C8B7568 		movq	104(%rbp), %r14
 497 002d 4C8B6560 		movq	96(%rbp), %r12
 498              	.L34:
 499 0031 4D39E6   		cmpq	%r12, %r14
 500 0034 741A     		je	.L32
 501 0036 498B7C24 		movq	8(%r12), %rdi
 501      08
 502 003b 498D4424 		leaq	24(%r12), %rax
 502      18
 503 0040 4839C7   		cmpq	%rax, %rdi
 504 0043 7405     		je	.L33
 505 0045 E8000000 		call	_ZdlPv
 505      00
 506              	.L33:
 507 004a 4983C428 		addq	$40, %r12
 508 004e EBE1     		jmp	.L34
 509              	.L32:
 510 0050 488B7D60 		movq	96(%rbp), %rdi
 511 0054 4885FF   		testq	%rdi, %rdi
 512 0057 7405     		je	.L35
 513 0059 E8000000 		call	_ZdlPv
 513      00
 514              	.L35:
 515 005e 488B7D40 		movq	64(%rbp), %rdi
 516 0062 488D4550 		leaq	80(%rbp), %rax
 517 0066 4839C7   		cmpq	%rax, %rdi
 518 0069 7405     		je	.L36
 519 006b E8000000 		call	_ZdlPv
 519      00
 520              	.L36:
 521 0070 488B7D20 		movq	32(%rbp), %rdi
 522 0074 488D4530 		leaq	48(%rbp), %rax
 523 0078 4839C7   		cmpq	%rax, %rdi
 524 007b 7405     		je	.L37
 525 007d E8000000 		call	_ZdlPv
 525      00
 526              	.L37:
 527 0082 488B7D00 		movq	0(%rbp), %rdi
 528 0086 488D4510 		leaq	16(%rbp), %rax
 529 008a 4839C7   		cmpq	%rax, %rdi
 530 008d 7405     		je	.L38
 531 008f E8000000 		call	_ZdlPv
 531      00
 532              	.L38:
 533 0094 4883ED80 		subq	$-128, %rbp
 534 0098 EB8A     		jmp	.L39
 535              	.L31:
 536 009a 488BBB80 		movq	384(%rbx), %rdi
 536      010000
 537 00a1 4885FF   		testq	%rdi, %rdi
 538 00a4 7405     		je	.L40
 539 00a6 E8000000 		call	_ZdlPv
 539      00
 540              	.L40:
 541 00ab 488DBB78 		leaq	376(%rbx), %rdi
 541      010000
 542              	.LEHB0:
 543 00b2 E8000000 		call	_ZN8UnitTest12TestReporterD2Ev
 543      00
 544              	.LEHE0:
 545 00b7 488B7B50 		movq	80(%rbx), %rdi
 546 00bb 488D4360 		leaq	96(%rbx), %rax
 547 00bf 48C70300 		movq	$_ZTVNSt7__cxx1119basic_ostringstreamIcSt11char_traitsIcESaIcEEE+24, (%rbx)
 547      000000
 548 00c6 48C74370 		movq	$_ZTVNSt7__cxx1119basic_ostringstreamIcSt11char_traitsIcESaIcEEE+64, 112(%rbx)
 548      00000000 
 549 00ce 48C74308 		movq	$_ZTVNSt7__cxx1115basic_stringbufIcSt11char_traitsIcESaIcEEE+16, 8(%rbx)
 549      00000000 
 550 00d6 4839C7   		cmpq	%rax, %rdi
 551 00d9 7405     		je	.L41
 552 00db E8000000 		call	_ZdlPv
 552      00
 553              	.L41:
 554 00e0 488D7B40 		leaq	64(%rbx), %rdi
 555 00e4 48C74308 		movq	$_ZTVSt15basic_streambufIcSt11char_traitsIcEE+16, 8(%rbx)
 555      00000000 
 556 00ec E8000000 		call	_ZNSt6localeD1Ev
 556      00
 557 00f1 488B0500 		movq	_ZTTNSt7__cxx1119basic_ostringstreamIcSt11char_traitsIcESaIcEEE+8(%rip), %rax
 557      000000
 558 00f8 488B1500 		movq	_ZTTNSt7__cxx1119basic_ostringstreamIcSt11char_traitsIcESaIcEEE+16(%rip), %rdx
 558      000000
 559 00ff 488D7B70 		leaq	112(%rbx), %rdi
 560 0103 488B40E8 		movq	-24(%rax), %rax
 561 0107 48891403 		movq	%rdx, (%rbx,%rax)
 562 010b 48C74370 		movq	$_ZTVSt9basic_iosIcSt11char_traitsIcEE+16, 112(%rbx)
 562      00000000 
 563 0113 5B       		popq	%rbx
 564              		.cfi_remember_state
 565              		.cfi_def_cfa_offset 40
 566 0114 5D       		popq	%rbp
 567              		.cfi_def_cfa_offset 32
 568 0115 415C     		popq	%r12
 569              		.cfi_def_cfa_offset 24
 570 0117 415D     		popq	%r13
 571              		.cfi_def_cfa_offset 16
 572 0119 415E     		popq	%r14
 573              		.cfi_def_cfa_offset 8
 574              	.LEHB1:
 575 011b E9000000 		jmp	_ZNSt8ios_baseD2Ev
 575      00
 576              	.LEHE1:
 577              	.L43:
 578              		.cfi_restore_state
 579 0120 4889C5   		movq	%rax, %rbp
 580              	.L42:
 581 0123 4889DF   		movq	%rbx, %rdi
 582 0126 E8000000 		call	_ZNSt7__cxx1119basic_ostringstreamIcSt11char_traitsIcESaIcEED1Ev
 582      00
 583 012b 4889EF   		movq	%rbp, %rdi
 584              	.LEHB2:
 585 012e E8000000 		call	_Unwind_Resume
 585      00
 586              	.LEHE2:
 587              		.cfi_endproc
 588              	.LFE1708:
 589              		.globl	__gxx_personality_v0
 590              		.section	.gcc_except_table,"a",@progbits
 591              	.LLSDA1708:
 592 0000 FF       		.byte	0xff
 593 0001 FF       		.byte	0xff
 594 0002 01       		.byte	0x1
 595 0003 10       		.uleb128 .LLSDACSE1708-.LLSDACSB1708
 596              	.LLSDACSB1708:
 597 0004 B201     		.uleb128 .LEHB0-.LFB1708
 598 0006 05       		.uleb128 .LEHE0-.LEHB0
 599 0007 A002     		.uleb128 .L43-.LFB1708
 600 0009 00       		.uleb128 0
 601 000a 9B02     		.uleb128 .LEHB1-.LFB1708
 602 000c 05       		.uleb128 .LEHE1-.LEHB1
 603 000d 00       		.uleb128 0
 604 000e 00       		.uleb128 0
 605 000f AE02     		.uleb128 .LEHB2-.LFB1708
 606 0011 05       		.uleb128 .LEHE2-.LEHB2
 607 0012 00       		.uleb128 0
 608 0013 00       		.uleb128 0
 609              	.LLSDACSE1708:
 610              		.section	.text.unlikely
 612              	.LCOLDE18:
 613              	.LHOTE18:
 614              		.section	.text.unlikely._ZN8UnitTest15MemoryOutStreamD0Ev,"axG",@progbits,_ZN8UnitTest15MemoryOutS
 615              		.align 2
 616              	.LCOLDB19:
 617              		.section	.text._ZN8UnitTest15MemoryOutStreamD0Ev,"axG",@progbits,_ZN8UnitTest15MemoryOutStreamD0Ev
 618              	.LHOTB19:
 619              		.align 2
 620              		.p2align 4,,15
 621              		.weak	_ZN8UnitTest15MemoryOutStreamD0Ev
 623              	_ZN8UnitTest15MemoryOutStreamD0Ev:
 624              	.LFB1614:
 625              		.cfi_startproc
 626 0000 53       		pushq	%rbx
 627              		.cfi_def_cfa_offset 16
 628              		.cfi_offset 3, -16
 629 0001 4889FB   		movq	%rdi, %rbx
 630 0004 48C70700 		movq	$_ZTVN8UnitTest15MemoryOutStreamE+24, (%rdi)
 630      000000
 631 000b 48C78790 		movq	$_ZTVN8UnitTest15MemoryOutStreamE+64, 144(%rdi)
 631      00000000 
 631      000000
 632 0016 488B7F70 		movq	112(%rdi), %rdi
 633 001a 488D8380 		leaq	128(%rbx), %rax
 633      000000
 634 0021 4839C7   		cmpq	%rax, %rdi
 635 0024 7405     		je	.L52
 636 0026 E8000000 		call	_ZdlPv
 636      00
 637              	.L52:
 638 002b 488B7B50 		movq	80(%rbx), %rdi
 639 002f 488D4360 		leaq	96(%rbx), %rax
 640 0033 48C70300 		movq	$_ZTCN8UnitTest15MemoryOutStreamE0_NSt7__cxx1119basic_ostringstreamIcSt11char_traitsIcESaIcEE
 640      000000
 641 003a 48C78390 		movq	$_ZTCN8UnitTest15MemoryOutStreamE0_NSt7__cxx1119basic_ostringstreamIcSt11char_traitsIcESaIcEE
 641      00000000 
 641      000000
 642 0045 48C74308 		movq	$_ZTVNSt7__cxx1115basic_stringbufIcSt11char_traitsIcESaIcEEE+16, 8(%rbx)
 642      00000000 
 643 004d 4839C7   		cmpq	%rax, %rdi
 644 0050 7405     		je	.L53
 645 0052 E8000000 		call	_ZdlPv
 645      00
 646              	.L53:
 647 0057 488D7B40 		leaq	64(%rbx), %rdi
 648 005b 48C74308 		movq	$_ZTVSt15basic_streambufIcSt11char_traitsIcEE+16, 8(%rbx)
 648      00000000 
 649 0063 E8000000 		call	_ZNSt6localeD1Ev
 649      00
 650 0068 488DBB90 		leaq	144(%rbx), %rdi
 650      000000
 651 006f 48C78390 		movq	$_ZTVSt9basic_iosIcSt11char_traitsIcEE+16, 144(%rbx)
 651      00000000 
 651      000000
 652 007a E8000000 		call	_ZNSt8ios_baseD2Ev
 652      00
 653 007f 4889DF   		movq	%rbx, %rdi
 654 0082 5B       		popq	%rbx
 655              		.cfi_def_cfa_offset 8
 656 0083 E9000000 		jmp	_ZdlPv
 656      00
 657              		.cfi_endproc
 658              	.LFE1614:
 660              		.section	.text.unlikely._ZN8UnitTest15MemoryOutStreamD0Ev,"axG",@progbits,_ZN8UnitTest15MemoryOutS
 661              	.LCOLDE19:
 662              		.section	.text._ZN8UnitTest15MemoryOutStreamD0Ev,"axG",@progbits,_ZN8UnitTest15MemoryOutStreamD0Ev
 663              	.LHOTE19:
 664              		.set	.LTHUNK1,_ZN8UnitTest15MemoryOutStreamD0Ev
 665              		.section	.text.unlikely._ZTv0_n24_N8UnitTest15MemoryOutStreamD0Ev,"axG",@progbits,_ZN8UnitTest15Me
 666              	.LCOLDB20:
 667              		.section	.text._ZN8UnitTest15MemoryOutStreamD0Ev,"axG",@progbits,_ZN8UnitTest15MemoryOutStreamD0Ev
 668              	.LHOTB20:
 669 0088 0F1F8400 		.p2align 4,,15
 669      00000000 
 670              		.weak	_ZTv0_n24_N8UnitTest15MemoryOutStreamD0Ev
 672              	_ZTv0_n24_N8UnitTest15MemoryOutStreamD0Ev:
 673              	.LFB1729:
 674              		.cfi_startproc
 675 0090 4C8B17   		movq	(%rdi), %r10
 676 0093 49037AE8 		addq	-24(%r10), %rdi
 677 0097 E964FFFF 		jmp	.LTHUNK1
 677      FF
 678              		.cfi_endproc
 679              	.LFE1729:
 681              		.section	.text.unlikely._ZTv0_n24_N8UnitTest15MemoryOutStreamD0Ev,"axG",@progbits,_ZN8UnitTest15Me
 682              	.LCOLDE20:
 683              		.section	.text._ZN8UnitTest15MemoryOutStreamD0Ev,"axG",@progbits,_ZN8UnitTest15MemoryOutStreamD0Ev
 684              	.LHOTE20:
 685              		.section	.text.unlikely._ZNSt7__cxx1115basic_stringbufIcSt11char_traitsIcESaIcEED2Ev,"axG",@progbi
 686              		.align 2
 687              	.LCOLDB21:
 688              		.section	.text._ZNSt7__cxx1115basic_stringbufIcSt11char_traitsIcESaIcEED2Ev,"axG",@progbits,_ZNSt7
 689              	.LHOTB21:
 690              		.align 2
 691              		.p2align 4,,15
 692              		.weak	_ZNSt7__cxx1115basic_stringbufIcSt11char_traitsIcESaIcEED2Ev
 694              	_ZNSt7__cxx1115basic_stringbufIcSt11char_traitsIcESaIcEED2Ev:
 695              	.LFB1464:
 696              		.cfi_startproc
 697 0000 53       		pushq	%rbx
 698              		.cfi_def_cfa_offset 16
 699              		.cfi_offset 3, -16
 700 0001 4889FB   		movq	%rdi, %rbx
 701 0004 48C70700 		movq	$_ZTVNSt7__cxx1115basic_stringbufIcSt11char_traitsIcESaIcEEE+16, (%rdi)
 701      000000
 702 000b 488B7F48 		movq	72(%rdi), %rdi
 703 000f 488D4358 		leaq	88(%rbx), %rax
 704 0013 4839C7   		cmpq	%rax, %rdi
 705 0016 7405     		je	.L56
 706 0018 E8000000 		call	_ZdlPv
 706      00
 707              	.L56:
 708 001d 48C70300 		movq	$_ZTVSt15basic_streambufIcSt11char_traitsIcEE+16, (%rbx)
 708      000000
 709 0024 488D7B38 		leaq	56(%rbx), %rdi
 710 0028 5B       		popq	%rbx
 711              		.cfi_def_cfa_offset 8
 712 0029 E9000000 		jmp	_ZNSt6localeD1Ev
 712      00
 713              		.cfi_endproc
 714              	.LFE1464:
 716              		.section	.text.unlikely._ZNSt7__cxx1115basic_stringbufIcSt11char_traitsIcESaIcEED2Ev,"axG",@progbi
 717              	.LCOLDE21:
 718              		.section	.text._ZNSt7__cxx1115basic_stringbufIcSt11char_traitsIcESaIcEED2Ev,"axG",@progbits,_ZNSt7
 719              	.LHOTE21:
 720              		.weak	_ZNSt7__cxx1115basic_stringbufIcSt11char_traitsIcESaIcEED1Ev
 721              		.set	_ZNSt7__cxx1115basic_stringbufIcSt11char_traitsIcESaIcEED1Ev,_ZNSt7__cxx1115basic_stringbufIc
 722              		.section	.text.unlikely._ZN8UnitTest15MemoryOutStreamC1Ev,"axG",@progbits,_ZN8UnitTest15MemoryOutS
 723              		.align 2
 724              	.LCOLDB22:
 725              		.section	.text._ZN8UnitTest15MemoryOutStreamC1Ev,"axG",@progbits,_ZN8UnitTest15MemoryOutStreamC1Ev
 726              	.LHOTB22:
 727              		.align 2
 728              		.p2align 4,,15
 729              		.weak	_ZN8UnitTest15MemoryOutStreamC1Ev
 731              	_ZN8UnitTest15MemoryOutStreamC1Ev:
 732              	.LFB1084:
 733              		.cfi_startproc
 734              		.cfi_personality 0x3,__gxx_personality_v0
 735              		.cfi_lsda 0x3,.LLSDA1084
 736 0000 4155     		pushq	%r13
 737              		.cfi_def_cfa_offset 16
 738              		.cfi_offset 13, -16
 739 0002 4154     		pushq	%r12
 740              		.cfi_def_cfa_offset 24
 741              		.cfi_offset 12, -24
 742 0004 55       		pushq	%rbp
 743              		.cfi_def_cfa_offset 32
 744              		.cfi_offset 6, -32
 745 0005 488DAF90 		leaq	144(%rdi), %rbp
 745      000000
 746 000c 53       		pushq	%rbx
 747              		.cfi_def_cfa_offset 40
 748              		.cfi_offset 3, -40
 749 000d 4889FB   		movq	%rdi, %rbx
 750 0010 4883EC08 		subq	$8, %rsp
 751              		.cfi_def_cfa_offset 48
 752 0014 4889EF   		movq	%rbp, %rdi
 753 0017 E8000000 		call	_ZNSt8ios_baseC2Ev
 753      00
 754 001c 48C78368 		movq	$0, 360(%rbx)
 754      01000000 
 754      000000
 755 0027 C6837001 		movb	$0, 368(%rbx)
 755      000000
 756 002e 31F6     		xorl	%esi, %esi
 757 0030 C6837101 		movb	$0, 369(%rbx)
 757      000000
 758 0037 48C78378 		movq	$0, 376(%rbx)
 758      01000000 
 758      000000
 759 0042 4889EF   		movq	%rbp, %rdi
 760 0045 48C78380 		movq	$0, 384(%rbx)
 760      01000000 
 760      000000
 761 0050 48C78388 		movq	$0, 392(%rbx)
 761      01000000 
 761      000000
 762 005b 48C78390 		movq	$0, 400(%rbx)
 762      01000000 
 762      000000
 763 0066 48C70300 		movq	$_ZTCN8UnitTest15MemoryOutStreamE0_So+24, (%rbx)
 763      000000
 764 006d 48C78390 		movq	$_ZTCN8UnitTest15MemoryOutStreamE0_So+64, 144(%rbx)
 764      00000000 
 764      000000
 765              	.LEHB3:
 766 0078 E8000000 		call	_ZNSt9basic_iosIcSt11char_traitsIcEE4initEPSt15basic_streambufIcS1_E
 766      00
 767              	.LEHE3:
 768 007d 488D7B40 		leaq	64(%rbx), %rdi
 769 0081 48C70300 		movq	$_ZTCN8UnitTest15MemoryOutStreamE0_NSt7__cxx1119basic_ostringstreamIcSt11char_traitsIcESaIcEE
 769      000000
 770 0088 48C78390 		movq	$_ZTCN8UnitTest15MemoryOutStreamE0_NSt7__cxx1119basic_ostringstreamIcSt11char_traitsIcESaIcEE
 770      00000000 
 770      000000
 771 0093 48C74308 		movq	$_ZTVSt15basic_streambufIcSt11char_traitsIcEE+16, 8(%rbx)
 771      00000000 
 772 009b 48C74310 		movq	$0, 16(%rbx)
 772      00000000 
 773 00a3 4C8D6308 		leaq	8(%rbx), %r12
 774 00a7 48C74318 		movq	$0, 24(%rbx)
 774      00000000 
 775 00af 48C74320 		movq	$0, 32(%rbx)
 775      00000000 
 776 00b7 48C74328 		movq	$0, 40(%rbx)
 776      00000000 
 777 00bf 48C74330 		movq	$0, 48(%rbx)
 777      00000000 
 778 00c7 48C74338 		movq	$0, 56(%rbx)
 778      00000000 
 779 00cf E8000000 		call	_ZNSt6localeC1Ev
 779      00
 780 00d4 488D4360 		leaq	96(%rbx), %rax
 781 00d8 48C74358 		movq	$0, 88(%rbx)
 781      00000000 
 782 00e0 C6436000 		movb	$0, 96(%rbx)
 783 00e4 4889DF   		movq	%rbx, %rdi
 784 00e7 48C74308 		movq	$_ZTVNSt7__cxx1115basic_stringbufIcSt11char_traitsIcESaIcEEE+16, 8(%rbx)
 784      00000000 
 785 00ef C7434810 		movl	$16, 72(%rbx)
 785      000000
 786 00f6 48894350 		movq	%rax, 80(%rbx)
 787 00fa 488B03   		movq	(%rbx), %rax
 788 00fd 4C89E6   		movq	%r12, %rsi
 789 0100 480378E8 		addq	-24(%rax), %rdi
 790              	.LEHB4:
 791 0104 E8000000 		call	_ZNSt9basic_iosIcSt11char_traitsIcEE4initEPSt15basic_streambufIcS1_E
 791      00
 792              	.LEHE4:
 793 0109 488D8380 		leaq	128(%rbx), %rax
 793      000000
 794 0110 48C70300 		movq	$_ZTVN8UnitTest15MemoryOutStreamE+24, (%rbx)
 794      000000
 795 0117 48C78390 		movq	$_ZTVN8UnitTest15MemoryOutStreamE+64, 144(%rbx)
 795      00000000 
 795      000000
 796 0122 48C74378 		movq	$0, 120(%rbx)
 796      00000000 
 797 012a C6838000 		movb	$0, 128(%rbx)
 797      000000
 798 0131 48894370 		movq	%rax, 112(%rbx)
 799 0135 4883C408 		addq	$8, %rsp
 800              		.cfi_remember_state
 801              		.cfi_def_cfa_offset 40
 802 0139 5B       		popq	%rbx
 803              		.cfi_def_cfa_offset 32
 804 013a 5D       		popq	%rbp
 805              		.cfi_def_cfa_offset 24
 806 013b 415C     		popq	%r12
 807              		.cfi_def_cfa_offset 16
 808 013d 415D     		popq	%r13
 809              		.cfi_def_cfa_offset 8
 810 013f C3       		ret
 811              	.L62:
 812              		.cfi_restore_state
 813 0140 4989C4   		movq	%rax, %r12
 814 0143 EB0E     		jmp	.L61
 815              	.L63:
 816 0145 4989C5   		movq	%rax, %r13
 817              	.L60:
 818 0148 4C89E7   		movq	%r12, %rdi
 819 014b 4D89EC   		movq	%r13, %r12
 820 014e E8000000 		call	_ZNSt7__cxx1115basic_stringbufIcSt11char_traitsIcESaIcEED1Ev
 820      00
 821              	.L61:
 822 0153 4889EF   		movq	%rbp, %rdi
 823 0156 48C78390 		movq	$_ZTVSt9basic_iosIcSt11char_traitsIcEE+16, 144(%rbx)
 823      00000000 
 823      000000
 824 0161 E8000000 		call	_ZNSt8ios_baseD2Ev
 824      00
 825 0166 4C89E7   		movq	%r12, %rdi
 826              	.LEHB5:
 827 0169 E8000000 		call	_Unwind_Resume
 827      00
 828              	.LEHE5:
 829              		.cfi_endproc
 830              	.LFE1084:
 831              		.section	.gcc_except_table
 832              	.LLSDA1084:
 833 0014 FF       		.byte	0xff
 834 0015 FF       		.byte	0xff
 835 0016 01       		.byte	0x1
 836 0017 10       		.uleb128 .LLSDACSE1084-.LLSDACSB1084
 837              	.LLSDACSB1084:
 838 0018 78       		.uleb128 .LEHB3-.LFB1084
 839 0019 05       		.uleb128 .LEHE3-.LEHB3
 840 001a C002     		.uleb128 .L62-.LFB1084
 841 001c 00       		.uleb128 0
 842 001d 8402     		.uleb128 .LEHB4-.LFB1084
 843 001f 05       		.uleb128 .LEHE4-.LEHB4
 844 0020 C502     		.uleb128 .L63-.LFB1084
 845 0022 00       		.uleb128 0
 846 0023 E902     		.uleb128 .LEHB5-.LFB1084
 847 0025 05       		.uleb128 .LEHE5-.LEHB5
 848 0026 00       		.uleb128 0
 849 0027 00       		.uleb128 0
 850              	.LLSDACSE1084:
 851              		.section	.text._ZN8UnitTest15MemoryOutStreamC1Ev,"axG",@progbits,_ZN8UnitTest15MemoryOutStreamC1Ev
 853              		.section	.text.unlikely._ZN8UnitTest15MemoryOutStreamC1Ev,"axG",@progbits,_ZN8UnitTest15MemoryOutS
 854              	.LCOLDE22:
 855              		.section	.text._ZN8UnitTest15MemoryOutStreamC1Ev,"axG",@progbits,_ZN8UnitTest15MemoryOutStreamC1Ev
 856              	.LHOTE22:
 857              		.section	.rodata.str1.1,"aMS",@progbits,1
 858              	.LC23:
 859 0000 556E6861 		.string	"Unhandled system exception"
 859      6E646C65 
 859      64207379 
 859      7374656D 
 859      20657863 
 860              	.LC24:
 861 001b 00       		.string	""
 862              	.LC25:
 863 001c 6D657373 		.string	"message"
 863      61676500 
 864              	.LC27:
 865 0024 6F757470 		.string	"output.str().empty()"
 865      75742E73 
 865      74722829 
 865      2E656D70 
 865      74792829 
 866              	.LC28:
 867 0039 216F7574 		.string	"!output.str().empty()"
 867      7075742E 
 867      73747228 
 867      292E656D 
 867      70747928 
 868              		.section	.rodata.str1.8,"aMS",@progbits,1
 869              		.align 8
 870              	.LC29:
 871 0000 556E6861 		.string	"Unhandled exception in CHECK(output.str().empty())"
 871      6E646C65 
 871      64206578 
 871      63657074 
 871      696F6E20 
 872 0033 00000000 		.align 8
 872      00
 873              	.LC30:
 874 0038 556E6861 		.string	"Unhandled exception in CHECK(!output.str().empty())"
 874      6E646C65 
 874      64206578 
 874      63657074 
 874      696F6E20 
 875              		.section	.rodata.str1.1
 876              	.LC31:
 877 004f 556E6861 		.string	"Unhandled exception: "
 877      6E646C65 
 877      64206578 
 877      63657074 
 877      696F6E3A 
 878              	.LC32:
 879 0065 556E6861 		.string	"Unhandled exception: Crash!"
 879      6E646C65 
 879      64206578 
 879      63657074 
 879      696F6E3A 
 880              		.section	.rodata.str1.8
 881 006c 00000000 		.align 8
 882              	.LC33:
 883 0070 62617369 		.string	"basic_string::_M_construct null not valid"
 883      635F7374 
 883      72696E67 
 883      3A3A5F4D 
 883      5F636F6E 
 884              		.section	.text.unlikely
 885              	.LCOLDB34:
 886              		.text
 887              	.LHOTB34:
 888 0179 0F1F8000 		.p2align 4,,15
 888      000000
 890              	_ZN8UnitTest11ExecuteTestIN12_GLOBAL__N_168XmlTestReporterFixtureOutputIsCachedUntilReportSummaryIs
 891              	.LFB1712:
 892              		.cfi_startproc
 893              		.cfi_personality 0x3,__gxx_personality_v0
 894              		.cfi_lsda 0x3,.LLSDA1712
 895 0180 4154     		pushq	%r12
 896              		.cfi_def_cfa_offset 16
 897              		.cfi_offset 12, -16
 898 0182 55       		pushq	%rbp
 899              		.cfi_def_cfa_offset 24
 900              		.cfi_offset 6, -24
 901 0183 53       		pushq	%rbx
 902              		.cfi_def_cfa_offset 32
 903              		.cfi_offset 3, -32
 904 0184 4889F3   		movq	%rsi, %rbx
 905 0187 4881ECC0 		subq	$1984, %rsp
 905      070000
 906              		.cfi_def_cfa_offset 2016
 907 018e 48893C24 		movq	%rdi, (%rsp)
 908 0192 48897424 		movq	%rsi, 8(%rsp)
 908      08
 909 0197 64488B04 		movq	%fs:40, %rax
 909      25280000 
 909      00
 910 01a0 48898424 		movq	%rax, 1976(%rsp)
 910      B8070000 
 911 01a8 31C0     		xorl	%eax, %eax
 912              	.LEHB6:
 913 01aa E8000000 		call	_ZN8UnitTest11CurrentTest7DetailsEv
 913      00
 914              	.LEHE6:
 915 01af 488DBC24 		leaq	848(%rsp), %rdi
 915      50030000 
 916 01b7 488918   		movq	%rbx, (%rax)
 917              	.LEHB7:
 918 01ba E8000000 		call	_ZN8UnitTest16SignalTranslatorC1Ev
 918      00
 919              	.LEHE7:
 920 01bf 488B3D00 		movq	_ZN8UnitTest16SignalTranslator12s_jumpTargetE(%rip), %rdi
 920      000000
 921 01c6 BE010000 		movl	$1, %esi
 921      00
 922 01cb E8000000 		call	__sigsetjmp
 922      00
 923 01d0 85C0     		testl	%eax, %eax
 924 01d2 0F85C000 		jne	.L204
 924      0000
 925 01d8 B9000000 		movl	$.LC24, %ecx
 925      00
 926 01dd 488D7C24 		leaq	80(%rsp), %rdi
 926      50
 927 01e2 4531C0   		xorl	%r8d, %r8d
 928 01e5 4889CA   		movq	%rcx, %rdx
 929 01e8 4889CE   		movq	%rcx, %rsi
 930              	.LEHB8:
 931 01eb E8000000 		call	_ZN8UnitTest11TestDetailsC1EPKcS2_S2_i
 931      00
 932 01f0 488B1C24 		movq	(%rsp), %rbx
 933 01f4 488D7424 		leaq	80(%rsp), %rsi
 933      50
 934 01f9 488DAB78 		leaq	376(%rbx), %rbp
 934      010000
 935 0200 4889EF   		movq	%rbp, %rdi
 936 0203 E8000000 		call	_ZN8UnitTest20DeferredTestReporter15ReportTestStartERKNS_11TestDetailsE
 936      00
 937 0208 488D7424 		leaq	80(%rsp), %rsi
 937      50
 938 020d BA000000 		movl	$.LC25, %edx
 938      00
 939 0212 4889EF   		movq	%rbp, %rdi
 940 0215 E8000000 		call	_ZN8UnitTest20DeferredTestReporter13ReportFailureERKNS_11TestDetailsEPKc
 940      00
 941 021a 488D7424 		leaq	80(%rsp), %rsi
 941      50
 942 021f F30F1005 		movss	.LC26(%rip), %xmm0
 942      00000000 
 943 0227 4889EF   		movq	%rbp, %rdi
 944 022a E8000000 		call	_ZN8UnitTest20DeferredTestReporter16ReportTestFinishERKNS_11TestDetailsEf
 944      00
 945              	.LEHE8:
 946 022f 488B5330 		movq	48(%rbx), %rdx
 947 0233 488D8424 		leaq	256(%rsp), %rax
 947      00010000 
 948 023b 48C78424 		movq	$0, 248(%rsp)
 948      F8000000 
 948      00000000 
 949 0247 C6842400 		movb	$0, 256(%rsp)
 949      01000000 
 950 024f 48898424 		movq	%rax, 240(%rsp)
 950      F0000000 
 951 0257 4889D8   		movq	%rbx, %rax
 952 025a 4885D2   		testq	%rdx, %rdx
 953 025d 0F844507 		je	.L71
 953      0000
 954 0263 488B5B20 		movq	32(%rbx), %rbx
 955 0267 4839DA   		cmpq	%rbx, %rdx
 956 026a 0F867001 		jbe	.L72
 956      0000
 957 0270 4C8B6028 		movq	40(%rax), %r12
 958 0274 488D8424 		leaq	352(%rsp), %rax
 958      60010000 
 959 027c 48898424 		movq	%rax, 336(%rsp)
 959      50010000 
 960 0284 4D85E4   		testq	%r12, %r12
 961 0287 7537     		jne	.L205
 962 0289 BF000000 		movl	$.LC33, %edi
 962      00
 963              	.LEHB9:
 964 028e E8000000 		call	_ZSt19__throw_logic_errorPKc
 964      00
 965              	.LEHE9:
 966              		.p2align 4,,10
 967 0293 0F1F4400 		.p2align 3
 967      00
 968              	.L204:
 969 0298 BF080000 		movl	$8, %edi
 969      00
 970 029d E8000000 		call	__cxa_allocate_exception
 970      00
 971 02a2 31D2     		xorl	%edx, %edx
 972 02a4 48C70000 		movq	$.LC23, (%rax)
 972      000000
 973 02ab BE000000 		movl	$_ZTIPKc, %esi
 973      00
 974 02b0 4889C7   		movq	%rax, %rdi
 975              	.LEHB10:
 976 02b3 E8000000 		call	__cxa_throw
 976      00
 977              	.LEHE10:
 978 02b8 0F1F8400 		.p2align 4,,10
 978      00000000 
 979              		.p2align 3
 980              	.L205:
 981 02c0 4C29E2   		subq	%r12, %rdx
 982 02c3 4883FA0F 		cmpq	$15, %rdx
 983 02c7 4889D3   		movq	%rdx, %rbx
 984 02ca 48895424 		movq	%rdx, 16(%rsp)
 984      10
 985 02cf 0F87AB01 		ja	.L206
 985      0000
 986 02d5 4883FB01 		cmpq	$1, %rbx
 987 02d9 0F844106 		je	.L207
 987      0000
 988 02df 4885DB   		testq	%rbx, %rbx
 989 02e2 4889C2   		movq	%rax, %rdx
 990 02e5 0F85D706 		jne	.L208
 990      0000
 991              	.L77:
 992 02eb 488DB424 		leaq	336(%rsp), %rsi
 992      50010000 
 993 02f3 488DBC24 		leaq	240(%rsp), %rdi
 993      F0000000 
 994 02fb 48899C24 		movq	%rbx, 344(%rsp)
 994      58010000 
 995 0303 C6041A00 		movb	$0, (%rdx,%rbx)
 996              	.LEHB11:
 997 0307 E8000000 		call	_ZNSt7__cxx1112basic_stringIcSt11char_traitsIcESaIcEE9_M_assignERKS4_
 997      00
 998              	.LEHE11:
 999 030c 488BBC24 		movq	336(%rsp), %rdi
 999      50010000 
 1000 0314 488D8424 		leaq	352(%rsp), %rax
 1000      60010000 
 1001 031c 4839C7   		cmpq	%rax, %rdi
 1002 031f 7405     		je	.L79
 1003              	.L190:
 1004 0321 E8000000 		call	_ZdlPv
 1004      00
 1005              	.L79:
 1006 0326 488BBC24 		movq	240(%rsp), %rdi
 1006      F0000000 
 1007 032e 488D8424 		leaq	256(%rsp), %rax
 1007      00010000 
 1008 0336 488B9C24 		movq	248(%rsp), %rbx
 1008      F8000000 
 1009 033e 4839C7   		cmpq	%rax, %rdi
 1010 0341 7405     		je	.L102
 1011 0343 E8000000 		call	_ZdlPv
 1011      00
 1012              	.L102:
 1013 0348 4885DB   		testq	%rbx, %rbx
 1014 034b 0F857703 		jne	.L209
 1014      0000
 1015              	.L103:
 1016 0351 F30F1005 		movss	.LC26(%rip), %xmm0
 1016      00000000 
 1017 0359 B9010000 		movl	$1, %ecx
 1017      00
 1018 035e BA010000 		movl	$1, %edx
 1018      00
 1019 0363 BE010000 		movl	$1, %esi
 1019      00
 1020 0368 4889EF   		movq	%rbp, %rdi
 1021              	.LEHB12:
 1022 036b E8000000 		call	_ZN8UnitTest15XmlTestReporter13ReportSummaryEiiif
 1022      00
 1023              	.LEHE12:
 1024 0370 488D8424 		leaq	288(%rsp), %rax
 1024      20010000 
 1025 0378 48C78424 		movq	$0, 280(%rsp)
 1025      18010000 
 1025      00000000 
 1026 0384 C6842420 		movb	$0, 288(%rsp)
 1026      01000000 
 1027 038c 48898424 		movq	%rax, 272(%rsp)
 1027      10010000 
 1028 0394 488B0424 		movq	(%rsp), %rax
 1029 0398 488B5030 		movq	48(%rax), %rdx
 1030 039c 4885D2   		testq	%rdx, %rdx
 1031 039f 0F84E305 		je	.L104
 1031      0000
 1032 03a5 488B5820 		movq	32(%rax), %rbx
 1033 03a9 488B6828 		movq	40(%rax), %rbp
 1034 03ad 4839DA   		cmpq	%rbx, %rdx
 1035 03b0 0F866A01 		jbe	.L105
 1035      0000
 1036 03b6 488D8424 		leaq	416(%rsp), %rax
 1036      A0010000 
 1037 03be 4885ED   		testq	%rbp, %rbp
 1038 03c1 48898424 		movq	%rax, 400(%rsp)
 1038      90010000 
 1039 03c9 0F858101 		jne	.L210
 1039      0000
 1040 03cf BF000000 		movl	$.LC33, %edi
 1040      00
 1041              	.LEHB13:
 1042 03d4 E8000000 		call	_ZSt19__throw_logic_errorPKc
 1042      00
 1043              	.LEHE13:
 1044 03d9 0F1F8000 		.p2align 4,,10
 1044      000000
 1045              		.p2align 3
 1046              	.L72:
 1047 03e0 488B0424 		movq	(%rsp), %rax
 1048 03e4 4C8B6028 		movq	40(%rax), %r12
 1049 03e8 488D8424 		leaq	320(%rsp), %rax
 1049      40010000 
 1050 03f0 48898424 		movq	%rax, 304(%rsp)
 1050      30010000 
 1051 03f8 4D85E4   		testq	%r12, %r12
 1052 03fb 7513     		jne	.L83
 1053 03fd 4885DB   		testq	%rbx, %rbx
 1054 0400 740E     		je	.L83
 1055 0402 BF000000 		movl	$.LC33, %edi
 1055      00
 1056              	.LEHB14:
 1057 0407 E8000000 		call	_ZSt19__throw_logic_errorPKc
 1057      00
 1058              	.LEHE14:
 1059 040c 0F1F4000 		.p2align 4,,10
 1060              		.p2align 3
 1061              	.L83:
 1062 0410 4C29E3   		subq	%r12, %rbx
 1063 0413 4883FB0F 		cmpq	$15, %rbx
 1064 0417 48895C24 		movq	%rbx, 24(%rsp)
 1064      18
 1065 041c 0F87AE00 		ja	.L211
 1065      0000
 1066 0422 4883FB01 		cmpq	$1, %rbx
 1067 0426 0F843C05 		je	.L212
 1067      0000
 1068 042c 4885DB   		testq	%rbx, %rbx
 1069 042f 488D8424 		leaq	320(%rsp), %rax
 1069      40010000 
 1070 0437 0F859D05 		jne	.L213
 1070      0000
 1071              	.L86:
 1072 043d 488DB424 		leaq	304(%rsp), %rsi
 1072      30010000 
 1073 0445 488DBC24 		leaq	240(%rsp), %rdi
 1073      F0000000 
 1074 044d 48899C24 		movq	%rbx, 312(%rsp)
 1074      38010000 
 1075 0455 C6041800 		movb	$0, (%rax,%rbx)
 1076              	.LEHB15:
 1077 0459 E8000000 		call	_ZNSt7__cxx1112basic_stringIcSt11char_traitsIcESaIcEE9_M_assignERKS4_
 1077      00
 1078              	.LEHE15:
 1079 045e 488BBC24 		movq	304(%rsp), %rdi
 1079      30010000 
 1080 0466 488D8424 		leaq	320(%rsp), %rax
 1080      40010000 
 1081 046e 4839C7   		cmpq	%rax, %rdi
 1082 0471 0F85AAFE 		jne	.L190
 1082      FFFF
 1083 0477 E9AAFEFF 		jmp	.L79
 1083      FF
 1084 047c 0F1F4000 		.p2align 4,,10
 1085              		.p2align 3
 1086              	.L206:
 1087 0480 488D7424 		leaq	16(%rsp), %rsi
 1087      10
 1088 0485 488DBC24 		leaq	336(%rsp), %rdi
 1088      50010000 
 1089 048d 31D2     		xorl	%edx, %edx
 1090              	.LEHB16:
 1091 048f E8000000 		call	_ZNSt7__cxx1112basic_stringIcSt11char_traitsIcESaIcEE9_M_createERmm
 1091      00
 1092 0494 4889C7   		movq	%rax, %rdi
 1093 0497 48898424 		movq	%rax, 336(%rsp)
 1093      50010000 
 1094 049f 488B4424 		movq	16(%rsp), %rax
 1094      10
 1095 04a4 48898424 		movq	%rax, 352(%rsp)
 1095      60010000 
 1096              	.L75:
 1097 04ac 4889DA   		movq	%rbx, %rdx
 1098 04af 4C89E6   		movq	%r12, %rsi
 1099 04b2 E8000000 		call	memcpy
 1099      00
 1100 04b7 488B5C24 		movq	16(%rsp), %rbx
 1100      10
 1101 04bc 488B9424 		movq	336(%rsp), %rdx
 1101      50010000 
 1102 04c4 E922FEFF 		jmp	.L77
 1102      FF
 1103 04c9 0F1F8000 		.p2align 4,,10
 1103      000000
 1104              		.p2align 3
 1105              	.L211:
 1106 04d0 488D7424 		leaq	24(%rsp), %rsi
 1106      18
 1107 04d5 488DBC24 		leaq	304(%rsp), %rdi
 1107      30010000 
 1108 04dd 31D2     		xorl	%edx, %edx
 1109 04df E8000000 		call	_ZNSt7__cxx1112basic_stringIcSt11char_traitsIcESaIcEE9_M_createERmm
 1109      00
 1110              	.LEHE16:
 1111 04e4 4889C7   		movq	%rax, %rdi
 1112 04e7 48898424 		movq	%rax, 304(%rsp)
 1112      30010000 
 1113 04ef 488B4424 		movq	24(%rsp), %rax
 1113      18
 1114 04f4 48898424 		movq	%rax, 320(%rsp)
 1114      40010000 
 1115              	.L84:
 1116 04fc 4889DA   		movq	%rbx, %rdx
 1117 04ff 4C89E6   		movq	%r12, %rsi
 1118 0502 E8000000 		call	memcpy
 1118      00
 1119 0507 488B5C24 		movq	24(%rsp), %rbx
 1119      18
 1120 050c 488B8424 		movq	304(%rsp), %rax
 1120      30010000 
 1121 0514 E924FFFF 		jmp	.L86
 1121      FF
 1122 0519 0F1F8000 		.p2align 4,,10
 1122      000000
 1123              		.p2align 3
 1124              	.L105:
 1125 0520 488D8424 		leaq	384(%rsp), %rax
 1125      80010000 
 1126 0528 4885ED   		testq	%rbp, %rbp
 1127 052b 48898424 		movq	%rax, 368(%rsp)
 1127      70010000 
 1128 0533 0F85DF00 		jne	.L116
 1128      0000
 1129 0539 4885DB   		testq	%rbx, %rbx
 1130 053c 0F84D600 		je	.L116
 1130      0000
 1131 0542 BF000000 		movl	$.LC33, %edi
 1131      00
 1132              	.LEHB17:
 1133 0547 E8000000 		call	_ZSt19__throw_logic_errorPKc
 1133      00
 1134              	.LEHE17:
 1135 054c 0F1F4000 		.p2align 4,,10
 1136              		.p2align 3
 1137              	.L210:
 1138 0550 4829EA   		subq	%rbp, %rdx
 1139 0553 4883FA0F 		cmpq	$15, %rdx
 1140 0557 4889D3   		movq	%rdx, %rbx
 1141 055a 48895424 		movq	%rdx, 32(%rsp)
 1141      20
 1142 055f 0F879B01 		ja	.L214
 1142      0000
 1143 0565 4883FB01 		cmpq	$1, %rbx
 1144 0569 0F84E103 		je	.L215
 1144      0000
 1145 056f 4885DB   		testq	%rbx, %rbx
 1146 0572 4889C2   		movq	%rax, %rdx
 1147 0575 0F855704 		jne	.L216
 1147      0000
 1148              	.L110:
 1149 057b 488DB424 		leaq	400(%rsp), %rsi
 1149      90010000 
 1150 0583 488DBC24 		leaq	272(%rsp), %rdi
 1150      10010000 
 1151 058b 48899C24 		movq	%rbx, 408(%rsp)
 1151      98010000 
 1152 0593 C6041A00 		movb	$0, (%rdx,%rbx)
 1153              	.LEHB18:
 1154 0597 E8000000 		call	_ZNSt7__cxx1112basic_stringIcSt11char_traitsIcESaIcEE9_M_assignERKS4_
 1154      00
 1155              	.LEHE18:
 1156 059c 488BBC24 		movq	400(%rsp), %rdi
 1156      90010000 
 1157 05a4 488D8424 		leaq	416(%rsp), %rax
 1157      A0010000 
 1158 05ac 4839C7   		cmpq	%rax, %rdi
 1159 05af 7405     		je	.L112
 1160              	.L192:
 1161 05b1 E8000000 		call	_ZdlPv
 1161      00
 1162              	.L112:
 1163 05b6 488BBC24 		movq	272(%rsp), %rdi
 1163      10010000 
 1164 05be 488D8424 		leaq	288(%rsp), %rax
 1164      20010000 
 1165 05c6 488B9C24 		movq	280(%rsp), %rbx
 1165      18010000 
 1166 05ce 4839C7   		cmpq	%rax, %rdi
 1167 05d1 7405     		je	.L135
 1168 05d3 E8000000 		call	_ZdlPv
 1168      00
 1169              	.L135:
 1170 05d8 4885DB   		testq	%rbx, %rbx
 1171 05db 0F84A700 		je	.L217
 1171      0000
 1172              	.L136:
 1173 05e1 488DBC24 		leaq	848(%rsp), %rdi
 1173      50030000 
 1174              	.LEHB19:
 1175 05e9 E8000000 		call	_ZN8UnitTest16SignalTranslatorD1Ev
 1175      00
 1176              	.LEHE19:
 1177              	.L68:
 1178 05ee 488B8424 		movq	1976(%rsp), %rax
 1178      B8070000 
 1179 05f6 64483304 		xorq	%fs:40, %rax
 1179      25280000 
 1179      00
 1180 05ff 0F85DD03 		jne	.L218
 1180      0000
 1181 0605 4881C4C0 		addq	$1984, %rsp
 1181      070000
 1182              		.cfi_remember_state
 1183              		.cfi_def_cfa_offset 32
 1184 060c 5B       		popq	%rbx
 1185              		.cfi_def_cfa_offset 24
 1186 060d 5D       		popq	%rbp
 1187              		.cfi_def_cfa_offset 16
 1188 060e 415C     		popq	%r12
 1189              		.cfi_def_cfa_offset 8
 1190 0610 C3       		ret
 1191              		.p2align 4,,10
 1192 0611 0F1F8000 		.p2align 3
 1192      000000
 1193              	.L116:
 1194              		.cfi_restore_state
 1195 0618 4829EB   		subq	%rbp, %rbx
 1196 061b 4883FB0F 		cmpq	$15, %rbx
 1197 061f 48895C24 		movq	%rbx, 40(%rsp)
 1197      28
 1198 0624 0F872601 		ja	.L219
 1198      0000
 1199 062a 4883FB01 		cmpq	$1, %rbx
 1200 062e 0F840403 		je	.L220
 1200      0000
 1201 0634 4885DB   		testq	%rbx, %rbx
 1202 0637 488D8424 		leaq	384(%rsp), %rax
 1202      80010000 
 1203 063f 0F858503 		jne	.L221
 1203      0000
 1204              	.L119:
 1205 0645 488DB424 		leaq	368(%rsp), %rsi
 1205      70010000 
 1206 064d 488DBC24 		leaq	272(%rsp), %rdi
 1206      10010000 
 1207 0655 48899C24 		movq	%rbx, 376(%rsp)
 1207      78010000 
 1208 065d C6041800 		movb	$0, (%rax,%rbx)
 1209              	.LEHB20:
 1210 0661 E8000000 		call	_ZNSt7__cxx1112basic_stringIcSt11char_traitsIcESaIcEE9_M_assignERKS4_
 1210      00
 1211              	.LEHE20:
 1212 0666 488BBC24 		movq	368(%rsp), %rdi
 1212      70010000 
 1213 066e 488D8424 		leaq	384(%rsp), %rax
 1213      80010000 
 1214 0676 4839C7   		cmpq	%rax, %rdi
 1215 0679 0F8532FF 		jne	.L192
 1215      FFFF
 1216 067f E932FFFF 		jmp	.L112
 1216      FF
 1217              		.p2align 4,,10
 1218 0684 0F1F4000 		.p2align 3
 1219              	.L217:
 1220              	.LEHB21:
 1221 0688 E8000000 		call	_ZN8UnitTest11CurrentTest7DetailsEv
 1221      00
 1222 068d 488B30   		movq	(%rax), %rsi
 1223 0690 488DBC24 		leaq	176(%rsp), %rdi
 1223      B0000000 
 1224 0698 BA410000 		movl	$65, %edx
 1224      00
 1225 069d E8000000 		call	_ZN8UnitTest11TestDetailsC1ERKS0_i
 1225      00
 1226 06a2 E8000000 		call	_ZN8UnitTest11CurrentTest7ResultsEv
 1226      00
 1227 06a7 488B38   		movq	(%rax), %rdi
 1228 06aa 488DB424 		leaq	176(%rsp), %rsi
 1228      B0000000 
 1229 06b2 BA000000 		movl	$.LC28, %edx
 1229      00
 1230 06b7 E8000000 		call	_ZN8UnitTest11TestResults13OnTestFailureERKNS_11TestDetailsEPKc
 1230      00
 1231              	.LEHE21:
 1232 06bc E920FFFF 		jmp	.L136
 1232      FF
 1233              		.p2align 4,,10
 1234 06c1 0F1F8000 		.p2align 3
 1234      000000
 1235              	.L209:
 1236              	.LEHB22:
 1237 06c8 E8000000 		call	_ZN8UnitTest11CurrentTest7DetailsEv
 1237      00
 1238 06cd 488B30   		movq	(%rax), %rsi
 1239 06d0 488D7C24 		leaq	112(%rsp), %rdi
 1239      70
 1240 06d5 BA3E0000 		movl	$62, %edx
 1240      00
 1241 06da E8000000 		call	_ZN8UnitTest11TestDetailsC1ERKS0_i
 1241      00
 1242 06df E8000000 		call	_ZN8UnitTest11CurrentTest7ResultsEv
 1242      00
 1243 06e4 488B38   		movq	(%rax), %rdi
 1244 06e7 488D7424 		leaq	112(%rsp), %rsi
 1244      70
 1245 06ec BA000000 		movl	$.LC27, %edx
 1245      00
 1246 06f1 E8000000 		call	_ZN8UnitTest11TestResults13OnTestFailureERKNS_11TestDetailsEPKc
 1246      00
 1247              	.LEHE22:
 1248 06f6 E956FCFF 		jmp	.L103
 1248      FF
 1249 06fb 0F1F4400 		.p2align 4,,10
 1249      00
 1250              		.p2align 3
 1251              	.L214:
 1252 0700 488D7424 		leaq	32(%rsp), %rsi
 1252      20
 1253 0705 488DBC24 		leaq	400(%rsp), %rdi
 1253      90010000 
 1254 070d 31D2     		xorl	%edx, %edx
 1255              	.LEHB23:
 1256 070f E8000000 		call	_ZNSt7__cxx1112basic_stringIcSt11char_traitsIcESaIcEE9_M_createERmm
 1256      00
 1257 0714 4889C7   		movq	%rax, %rdi
 1258 0717 48898424 		movq	%rax, 400(%rsp)
 1258      90010000 
 1259 071f 488B4424 		movq	32(%rsp), %rax
 1259      20
 1260 0724 48898424 		movq	%rax, 416(%rsp)
 1260      A0010000 
 1261              	.L108:
 1262 072c 4889DA   		movq	%rbx, %rdx
 1263 072f 4889EE   		movq	%rbp, %rsi
 1264 0732 E8000000 		call	memcpy
 1264      00
 1265 0737 488B5C24 		movq	32(%rsp), %rbx
 1265      20
 1266 073c 488B9424 		movq	400(%rsp), %rdx
 1266      90010000 
 1267 0744 E932FEFF 		jmp	.L110
 1267      FF
 1268 0749 0F1F8000 		.p2align 4,,10
 1268      000000
 1269              		.p2align 3
 1270              	.L219:
 1271 0750 488D7424 		leaq	40(%rsp), %rsi
 1271      28
 1272 0755 488DBC24 		leaq	368(%rsp), %rdi
 1272      70010000 
 1273 075d 31D2     		xorl	%edx, %edx
 1274 075f E8000000 		call	_ZNSt7__cxx1112basic_stringIcSt11char_traitsIcESaIcEE9_M_createERmm
 1274      00
 1275              	.LEHE23:
 1276 0764 4889C7   		movq	%rax, %rdi
 1277 0767 48898424 		movq	%rax, 368(%rsp)
 1277      70010000 
 1278 076f 488B4424 		movq	40(%rsp), %rax
 1278      28
 1279 0774 48898424 		movq	%rax, 384(%rsp)
 1279      80010000 
 1280              	.L117:
 1281 077c 4889DA   		movq	%rbx, %rdx
 1282 077f 4889EE   		movq	%rbp, %rsi
 1283 0782 E8000000 		call	memcpy
 1283      00
 1284 0787 488B5C24 		movq	40(%rsp), %rbx
 1284      28
 1285 078c 488B8424 		movq	368(%rsp), %rax
 1285      70010000 
 1286 0794 E9ACFEFF 		jmp	.L119
 1286      FF
 1287              	.L169:
 1288 0799 4889C3   		movq	%rax, %rbx
 1289 079c 4889D5   		movq	%rdx, %rbp
 1290              	.L139:
 1291 079f 488DBC24 		leaq	848(%rsp), %rdi
 1291      50030000 
 1292 07a7 E8000000 		call	_ZN8UnitTest16SignalTranslatorD1Ev
 1292      00
 1293 07ac 4889DF   		movq	%rbx, %rdi
 1294 07af 4889EA   		movq	%rbp, %rdx
 1295              	.L141:
 1296 07b2 4883FA01 		cmpq	$1, %rdx
 1297 07b6 0F848302 		je	.L143
 1297      0000
 1298 07bc 4883FA02 		cmpq	$2, %rdx
 1299 07c0 0F855302 		jne	.L222
 1299      0000
 1300 07c6 E8000000 		call	__cxa_begin_catch
 1300      00
 1301 07cb 488DBC24 		leaq	432(%rsp), %rdi
 1301      B0010000 
 1302 07d3 4889C3   		movq	%rax, %rbx
 1303              	.LEHB24:
 1304 07d6 E8000000 		call	_ZN8UnitTest15MemoryOutStreamC1Ev
 1304      00
 1305              	.LEHE24:
 1306 07db 488B03   		movq	(%rbx), %rax
 1307 07de 4889DF   		movq	%rbx, %rdi
 1308 07e1 FF5010   		call	*16(%rax)
 1309 07e4 488DBC24 		leaq	432(%rsp), %rdi
 1309      B0010000 
 1310 07ec BA150000 		movl	$21, %edx
 1310      00
 1311 07f1 BE000000 		movl	$.LC31, %esi
 1311      00
 1312 07f6 4889C3   		movq	%rax, %rbx
 1313              	.LEHB25:
 1314 07f9 E8000000 		call	_ZSt16__ostream_insertIcSt11char_traitsIcEERSt13basic_ostreamIT_T0_ES6_PKS3_l
 1314      00
 1315 07fe 488DBC24 		leaq	432(%rsp), %rdi
 1315      B0010000 
 1316 0806 4889DE   		movq	%rbx, %rsi
 1317 0809 E8000000 		call	_ZStlsISt11char_traitsIcEERSt13basic_ostreamIcT_ES5_PKc
 1317      00
 1318 080e 488DBC24 		leaq	432(%rsp), %rdi
 1318      B0010000 
 1319 0816 E8000000 		call	_ZNK8UnitTest15MemoryOutStream7GetTextEv
 1319      00
 1320 081b 4889C3   		movq	%rax, %rbx
 1321 081e E8000000 		call	_ZN8UnitTest11CurrentTest7ResultsEv
 1321      00
 1322 0823 488B7424 		movq	8(%rsp), %rsi
 1322      08
 1323 0828 488B38   		movq	(%rax), %rdi
 1324 082b 4889DA   		movq	%rbx, %rdx
 1325 082e E8000000 		call	_ZN8UnitTest11TestResults13OnTestFailureERKNS_11TestDetailsEPKc
 1325      00
 1326              	.LEHE25:
 1327 0833 488DBC24 		leaq	432(%rsp), %rdi
 1327      B0010000 
 1328              	.LEHB26:
 1329 083b E8000000 		call	_ZN8UnitTest15MemoryOutStreamD1Ev
 1329      00
 1330              	.LEHE26:
 1331              	.L193:
 1332 0840 E8000000 		call	__cxa_end_catch
 1332      00
 1333 0845 E9A4FDFF 		jmp	.L68
 1333      FF
 1334              	.L174:
 1335 084a 4889C3   		movq	%rax, %rbx
 1336              	.L91:
 1337 084d 488BBC24 		movq	240(%rsp), %rdi
 1337      F0000000 
 1338 0855 488D8424 		leaq	256(%rsp), %rax
 1338      00010000 
 1339 085d 4839C7   		cmpq	%rax, %rdi
 1340 0860 7405     		je	.L98
 1341 0862 E8000000 		call	_ZdlPv
 1341      00
 1342              	.L98:
 1343 0867 4889D8   		movq	%rbx, %rax
 1344              	.L97:
 1345 086a 4889C7   		movq	%rax, %rdi
 1346 086d E8000000 		call	__cxa_begin_catch
 1346      00
 1347              	.LEHB27:
 1348 0872 E8000000 		call	_ZN8UnitTest11CurrentTest7DetailsEv
 1348      00
 1349 0877 488B30   		movq	(%rax), %rsi
 1350 087a 488DBC24 		leaq	144(%rsp), %rdi
 1350      90000000 
 1351 0882 BA3E0000 		movl	$62, %edx
 1351      00
 1352 0887 E8000000 		call	_ZN8UnitTest11TestDetailsC1ERKS0_i
 1352      00
 1353 088c E8000000 		call	_ZN8UnitTest11CurrentTest7ResultsEv
 1353      00
 1354 0891 488B38   		movq	(%rax), %rdi
 1355 0894 488DB424 		leaq	144(%rsp), %rsi
 1355      90000000 
 1356 089c BA000000 		movl	$.LC29, %edx
 1356      00
 1357 08a1 E8000000 		call	_ZN8UnitTest11TestResults13OnTestFailureERKNS_11TestDetailsEPKc
 1357      00
 1358              	.LEHE27:
 1359              	.LEHB28:
 1360 08a6 E8000000 		call	__cxa_end_catch
 1360      00
 1361              	.LEHE28:
 1362 08ab E9A1FAFF 		jmp	.L103
 1362      FF
 1363              	.L177:
 1364 08b0 4889C3   		movq	%rax, %rbx
 1365              	.L124:
 1366 08b3 488BBC24 		movq	272(%rsp), %rdi
 1366      10010000 
 1367 08bb 488D8424 		leaq	288(%rsp), %rax
 1367      20010000 
 1368 08c3 4839C7   		cmpq	%rax, %rdi
 1369 08c6 7405     		je	.L131
 1370 08c8 E8000000 		call	_ZdlPv
 1370      00
 1371              	.L131:
 1372 08cd 4889D8   		movq	%rbx, %rax
 1373              	.L130:
 1374 08d0 4889C7   		movq	%rax, %rdi
 1375 08d3 E8000000 		call	__cxa_begin_catch
 1375      00
 1376              	.LEHB29:
 1377 08d8 E8000000 		call	_ZN8UnitTest11CurrentTest7DetailsEv
 1377      00
 1378 08dd 488B30   		movq	(%rax), %rsi
 1379 08e0 488DBC24 		leaq	208(%rsp), %rdi
 1379      D0000000 
 1380 08e8 BA410000 		movl	$65, %edx
 1380      00
 1381 08ed E8000000 		call	_ZN8UnitTest11TestDetailsC1ERKS0_i
 1381      00
 1382 08f2 E8000000 		call	_ZN8UnitTest11CurrentTest7ResultsEv
 1382      00
 1383 08f7 488B38   		movq	(%rax), %rdi
 1384 08fa 488DB424 		leaq	208(%rsp), %rsi
 1384      D0000000 
 1385 0902 BA000000 		movl	$.LC30, %edx
 1385      00
 1386 0907 E8000000 		call	_ZN8UnitTest11TestResults13OnTestFailureERKNS_11TestDetailsEPKc
 1386      00
 1387              	.LEHE29:
 1388              	.LEHB30:
 1389 090c E8000000 		call	__cxa_end_catch
 1389      00
 1390              	.LEHE30:
 1391 0911 E9CBFCFF 		jmp	.L136
 1391      FF
 1392 0916 662E0F1F 		.p2align 4,,10
 1392      84000000 
 1392      0000
 1393              		.p2align 3
 1394              	.L207:
 1395 0920 410FB614 		movzbl	(%r12), %edx
 1395      24
 1396 0925 88942460 		movb	%dl, 352(%rsp)
 1396      010000
 1397 092c 4889C2   		movq	%rax, %rdx
 1398 092f E9B7F9FF 		jmp	.L77
 1398      FF
 1399              		.p2align 4,,10
 1400 0934 0F1F4000 		.p2align 3
 1401              	.L220:
 1402 0938 0FB64500 		movzbl	0(%rbp), %eax
 1403 093c 88842480 		movb	%al, 384(%rsp)
 1403      010000
 1404 0943 488D8424 		leaq	384(%rsp), %rax
 1404      80010000 
 1405 094b E9F5FCFF 		jmp	.L119
 1405      FF
 1406              		.p2align 4,,10
 1407              		.p2align 3
 1408              	.L215:
 1409 0950 0FB65500 		movzbl	0(%rbp), %edx
 1410 0954 889424A0 		movb	%dl, 416(%rsp)
 1410      010000
 1411 095b 4889C2   		movq	%rax, %rdx
 1412 095e E918FCFF 		jmp	.L110
 1412      FF
 1413              		.p2align 4,,10
 1414 0963 0F1F4400 		.p2align 3
 1414      00
 1415              	.L212:
 1416 0968 410FB604 		movzbl	(%r12), %eax
 1416      24
 1417 096d 88842440 		movb	%al, 320(%rsp)
 1417      010000
 1418 0974 488D8424 		leaq	320(%rsp), %rax
 1418      40010000 
 1419 097c E9BCFAFF 		jmp	.L86
 1419      FF
 1420              		.p2align 4,,10
 1421 0981 0F1F8000 		.p2align 3
 1421      000000
 1422              	.L104:
 1423 0988 4889C6   		movq	%rax, %rsi
 1424 098b 488DBC24 		leaq	272(%rsp), %rdi
 1424      10010000 
 1425 0993 4883C650 		addq	$80, %rsi
 1426              	.LEHB31:
 1427 0997 E8000000 		call	_ZNSt7__cxx1112basic_stringIcSt11char_traitsIcESaIcEE9_M_assignERKS4_
 1427      00
 1428              	.LEHE31:
 1429 099c E915FCFF 		jmp	.L112
 1429      FF
 1430              		.p2align 4,,10
 1431 09a1 0F1F8000 		.p2align 3
 1431      000000
 1432              	.L71:
 1433 09a8 488B0424 		movq	(%rsp), %rax
 1434 09ac 488DBC24 		leaq	240(%rsp), %rdi
 1434      F0000000 
 1435 09b4 488D7050 		leaq	80(%rax), %rsi
 1436              	.LEHB32:
 1437 09b8 E8000000 		call	_ZNSt7__cxx1112basic_stringIcSt11char_traitsIcESaIcEE9_M_assignERKS4_
 1437      00
 1438              	.LEHE32:
 1439 09bd E964F9FF 		jmp	.L79
 1439      FF
 1440              	.L208:
 1441 09c2 4889C7   		movq	%rax, %rdi
 1442 09c5 E9E2FAFF 		jmp	.L75
 1442      FF
 1443              	.L221:
 1444 09ca 4889C7   		movq	%rax, %rdi
 1445 09cd E9AAFDFF 		jmp	.L117
 1445      FF
 1446              	.L216:
 1447 09d2 4889C7   		movq	%rax, %rdi
 1448 09d5 E952FDFF 		jmp	.L108
 1448      FF
 1449              	.L213:
 1450 09da 4889C7   		movq	%rax, %rdi
 1451 09dd E91AFBFF 		jmp	.L84
 1451      FF
 1452              	.L218:
 1453 09e2 E8000000 		call	__stack_chk_fail
 1453      00
 1454              	.L171:
 1455 09e7 4889C3   		movq	%rax, %rbx
 1456 09ea 4889D5   		movq	%rdx, %rbp
 1457 09ed E8000000 		call	__cxa_end_catch
 1457      00
 1458 09f2 E9A8FDFF 		jmp	.L139
 1458      FF
 1459              	.L166:
 1460 09f7 488DBC24 		leaq	432(%rsp), %rdi
 1460      B0010000 
 1461 09ff 4889C3   		movq	%rax, %rbx
 1462 0a02 E8000000 		call	_ZN8UnitTest15MemoryOutStreamD1Ev
 1462      00
 1463              	.L149:
 1464 0a07 E8000000 		call	__cxa_end_catch
 1464      00
 1465 0a0c 4889DF   		movq	%rbx, %rdi
 1466              	.LEHB33:
 1467 0a0f E8000000 		call	_Unwind_Resume
 1467      00
 1468              	.LEHE33:
 1469              	.L165:
 1470              	.L194:
 1471 0a14 4889C3   		movq	%rax, %rbx
 1472 0a17 EBEE     		jmp	.L149
 1473              	.L222:
 1474 0a19 E8000000 		call	__cxa_begin_catch
 1474      00
 1475              	.LEHB34:
 1476 0a1e E8000000 		call	_ZN8UnitTest11CurrentTest7ResultsEv
 1476      00
 1477 0a23 488B7424 		movq	8(%rsp), %rsi
 1477      08
 1478 0a28 488B38   		movq	(%rax), %rdi
 1479 0a2b BA000000 		movl	$.LC32, %edx
 1479      00
 1480 0a30 E8000000 		call	_ZN8UnitTest11TestResults13OnTestFailureERKNS_11TestDetailsEPKc
 1480      00
 1481              	.LEHE34:
 1482              	.LEHB35:
 1483 0a35 E8000000 		call	__cxa_end_catch
 1483      00
 1484              	.LEHE35:
 1485 0a3a E9AFFBFF 		jmp	.L68
 1485      FF
 1486              	.L143:
 1487 0a3f E8000000 		call	__cxa_begin_catch
 1487      00
 1488 0a44 4889C3   		movq	%rax, %rbx
 1489 0a47 488B00   		movq	(%rax), %rax
 1490 0a4a 4889DF   		movq	%rbx, %rdi
 1491 0a4d FF5010   		call	*16(%rax)
 1492 0a50 4889DF   		movq	%rbx, %rdi
 1493 0a53 4889C5   		movq	%rax, %rbp
 1494              	.LEHB36:
 1495 0a56 E8000000 		call	_ZNK8UnitTest15AssertException10LineNumberEv
 1495      00
 1496 0a5b 4889DF   		movq	%rbx, %rdi
 1497 0a5e 4189C4   		movl	%eax, %r12d
 1498 0a61 E8000000 		call	_ZNK8UnitTest15AssertException8FilenameEv
 1498      00
 1499 0a66 488B5424 		movq	8(%rsp), %rdx
 1499      08
 1500 0a6b 488D7C24 		leaq	48(%rsp), %rdi
 1500      30
 1501 0a70 4589E0   		movl	%r12d, %r8d
 1502 0a73 4889C1   		movq	%rax, %rcx
 1503 0a76 488B7208 		movq	8(%rdx), %rsi
 1504 0a7a 488B12   		movq	(%rdx), %rdx
 1505 0a7d E8000000 		call	_ZN8UnitTest11TestDetailsC1EPKcS2_S2_i
 1505      00
 1506 0a82 E8000000 		call	_ZN8UnitTest11CurrentTest7ResultsEv
 1506      00
 1507 0a87 488B38   		movq	(%rax), %rdi
 1508 0a8a 488D7424 		leaq	48(%rsp), %rsi
 1508      30
 1509 0a8f 4889EA   		movq	%rbp, %rdx
 1510 0a92 E8000000 		call	_ZN8UnitTest11TestResults13OnTestFailureERKNS_11TestDetailsEPKc
 1510      00
 1511              	.LEHE36:
 1512 0a97 E9A4FDFF 		jmp	.L193
 1512      FF
 1513              	.L164:
 1514 0a9c 4889C3   		movq	%rax, %rbx
 1515 0a9f E8000000 		call	__cxa_end_catch
 1515      00
 1516 0aa4 4889DF   		movq	%rbx, %rdi
 1517              	.LEHB37:
 1518 0aa7 E8000000 		call	_Unwind_Resume
 1518      00
 1519              	.LEHE37:
 1520              	.L167:
 1521 0aac E963FFFF 		jmp	.L194
 1521      FF
 1522              	.L179:
 1523 0ab1 488BBC24 		movq	400(%rsp), %rdi
 1523      90010000 
 1524 0ab9 4889C3   		movq	%rax, %rbx
 1525 0abc 488D8424 		leaq	416(%rsp), %rax
 1525      A0010000 
 1526 0ac4 4839C7   		cmpq	%rax, %rdi
 1527 0ac7 0F84E6FD 		je	.L124
 1527      FFFF
 1528              	.L191:
 1529 0acd E8000000 		call	_ZdlPv
 1529      00
 1530 0ad2 E9DCFDFF 		jmp	.L124
 1530      FF
 1531              	.L175:
 1532 0ad7 488BBC24 		movq	304(%rsp), %rdi
 1532      30010000 
 1533 0adf 4889C3   		movq	%rax, %rbx
 1534 0ae2 488D8424 		leaq	320(%rsp), %rax
 1534      40010000 
 1535 0aea 4839C7   		cmpq	%rax, %rdi
 1536 0aed 0F845AFD 		je	.L91
 1536      FFFF
 1537              	.L189:
 1538 0af3 E8000000 		call	_ZdlPv
 1538      00
 1539 0af8 E950FDFF 		jmp	.L91
 1539      FF
 1540              	.L176:
 1541 0afd 488BBC24 		movq	336(%rsp), %rdi
 1541      50010000 
 1542 0b05 4889C3   		movq	%rax, %rbx
 1543 0b08 488D8424 		leaq	352(%rsp), %rax
 1543      60010000 
 1544 0b10 4839C7   		cmpq	%rax, %rdi
 1545 0b13 75DE     		jne	.L189
 1546 0b15 E933FDFF 		jmp	.L91
 1546      FF
 1547              	.L168:
 1548 0b1a 4889C7   		movq	%rax, %rdi
 1549 0b1d E990FCFF 		jmp	.L141
 1549      FF
 1550              	.L173:
 1551 0b22 4889C3   		movq	%rax, %rbx
 1552 0b25 4889D5   		movq	%rdx, %rbp
 1553 0b28 E8000000 		call	__cxa_end_catch
 1553      00
 1554 0b2d E96DFCFF 		jmp	.L139
 1554      FF
 1555              	.L178:
 1556 0b32 488BBC24 		movq	368(%rsp), %rdi
 1556      70010000 
 1557 0b3a 4889C3   		movq	%rax, %rbx
 1558 0b3d 488D8424 		leaq	384(%rsp), %rax
 1558      80010000 
 1559 0b45 4839C7   		cmpq	%rax, %rdi
 1560 0b48 7583     		jne	.L191
 1561 0b4a E964FDFF 		jmp	.L124
 1561      FF
 1562              	.L170:
 1563 0b4f E916FDFF 		jmp	.L97
 1563      FF
 1564              	.L172:
 1565 0b54 E977FDFF 		jmp	.L130
 1565      FF
 1566              		.cfi_endproc
 1567              	.LFE1712:
 1568              		.section	.gcc_except_table
 1569              		.align 4
 1570              	.LLSDA1712:
 1571 0028 FF       		.byte	0xff
 1572 0029 03       		.byte	0x3
 1573 002a D001     		.uleb128 .LLSDATT1712-.LLSDATTD1712
 1574              	.LLSDATTD1712:
 1575 002c 01       		.byte	0x1
 1576 002d B901     		.uleb128 .LLSDACSE1712-.LLSDACSB1712
 1577              	.LLSDACSB1712:
 1578 002f 2A       		.uleb128 .LEHB6-.LFB1712
 1579 0030 05       		.uleb128 .LEHE6-.LEHB6
 1580 0031 00       		.uleb128 0
 1581 0032 00       		.uleb128 0
 1582 0033 3A       		.uleb128 .LEHB7-.LFB1712
 1583 0034 05       		.uleb128 .LEHE7-.LEHB7
 1584 0035 9A13     		.uleb128 .L168-.LFB1712
 1585 0037 05       		.uleb128 0x5
 1586 0038 6B       		.uleb128 .LEHB8-.LFB1712
 1587 0039 44       		.uleb128 .LEHE8-.LEHB8
 1588 003a 990C     		.uleb128 .L169-.LFB1712
 1589 003c 07       		.uleb128 0x7
 1590 003d 8E02     		.uleb128 .LEHB9-.LFB1712
 1591 003f 05       		.uleb128 .LEHE9-.LEHB9
 1592 0040 CA0D     		.uleb128 .L174-.LFB1712
 1593 0042 01       		.uleb128 0x1
 1594 0043 B302     		.uleb128 .LEHB10-.LFB1712
 1595 0045 05       		.uleb128 .LEHE10-.LEHB10
 1596 0046 990C     		.uleb128 .L169-.LFB1712
 1597 0048 07       		.uleb128 0x7
 1598 0049 8703     		.uleb128 .LEHB11-.LFB1712
 1599 004b 05       		.uleb128 .LEHE11-.LEHB11
 1600 004c FD12     		.uleb128 .L176-.LFB1712
 1601 004e 01       		.uleb128 0x1
 1602 004f EB03     		.uleb128 .LEHB12-.LFB1712
 1603 0051 05       		.uleb128 .LEHE12-.LEHB12
 1604 0052 990C     		.uleb128 .L169-.LFB1712
 1605 0054 07       		.uleb128 0x7
 1606 0055 D404     		.uleb128 .LEHB13-.LFB1712
 1607 0057 05       		.uleb128 .LEHE13-.LEHB13
 1608 0058 B00E     		.uleb128 .L177-.LFB1712
 1609 005a 01       		.uleb128 0x1
 1610 005b 8705     		.uleb128 .LEHB14-.LFB1712
 1611 005d 05       		.uleb128 .LEHE14-.LEHB14
 1612 005e CA0D     		.uleb128 .L174-.LFB1712
 1613 0060 01       		.uleb128 0x1
 1614 0061 D905     		.uleb128 .LEHB15-.LFB1712
 1615 0063 05       		.uleb128 .LEHE15-.LEHB15
 1616 0064 D712     		.uleb128 .L175-.LFB1712
 1617 0066 01       		.uleb128 0x1
 1618 0067 8F06     		.uleb128 .LEHB16-.LFB1712
 1619 0069 55       		.uleb128 .LEHE16-.LEHB16
 1620 006a CA0D     		.uleb128 .L174-.LFB1712
 1621 006c 01       		.uleb128 0x1
 1622 006d C707     		.uleb128 .LEHB17-.LFB1712
 1623 006f 05       		.uleb128 .LEHE17-.LEHB17
 1624 0070 B00E     		.uleb128 .L177-.LFB1712
 1625 0072 01       		.uleb128 0x1
 1626 0073 9708     		.uleb128 .LEHB18-.LFB1712
 1627 0075 05       		.uleb128 .LEHE18-.LEHB18
 1628 0076 B112     		.uleb128 .L179-.LFB1712
 1629 0078 01       		.uleb128 0x1
 1630 0079 E908     		.uleb128 .LEHB19-.LFB1712
 1631 007b 05       		.uleb128 .LEHE19-.LEHB19
 1632 007c 9A13     		.uleb128 .L168-.LFB1712
 1633 007e 05       		.uleb128 0x5
 1634 007f E109     		.uleb128 .LEHB20-.LFB1712
 1635 0081 05       		.uleb128 .LEHE20-.LEHB20
 1636 0082 B213     		.uleb128 .L178-.LFB1712
 1637 0084 01       		.uleb128 0x1
 1638 0085 880A     		.uleb128 .LEHB21-.LFB1712
 1639 0087 34       		.uleb128 .LEHE21-.LEHB21
 1640 0088 D413     		.uleb128 .L172-.LFB1712
 1641 008a 01       		.uleb128 0x1
 1642 008b C80A     		.uleb128 .LEHB22-.LFB1712
 1643 008d 2E       		.uleb128 .LEHE22-.LEHB22
 1644 008e CF13     		.uleb128 .L170-.LFB1712
 1645 0090 01       		.uleb128 0x1
 1646 0091 8F0B     		.uleb128 .LEHB23-.LFB1712
 1647 0093 55       		.uleb128 .LEHE23-.LEHB23
 1648 0094 B00E     		.uleb128 .L177-.LFB1712
 1649 0096 01       		.uleb128 0x1
 1650 0097 D60C     		.uleb128 .LEHB24-.LFB1712
 1651 0099 05       		.uleb128 .LEHE24-.LEHB24
 1652 009a 9411     		.uleb128 .L165-.LFB1712
 1653 009c 00       		.uleb128 0
 1654 009d F90C     		.uleb128 .LEHB25-.LFB1712
 1655 009f 3A       		.uleb128 .LEHE25-.LEHB25
 1656 00a0 F710     		.uleb128 .L166-.LFB1712
 1657 00a2 00       		.uleb128 0
 1658 00a3 BB0D     		.uleb128 .LEHB26-.LFB1712
 1659 00a5 05       		.uleb128 .LEHE26-.LEHB26
 1660 00a6 9411     		.uleb128 .L165-.LFB1712
 1661 00a8 00       		.uleb128 0
 1662 00a9 F20D     		.uleb128 .LEHB27-.LFB1712
 1663 00ab 34       		.uleb128 .LEHE27-.LEHB27
 1664 00ac E710     		.uleb128 .L171-.LFB1712
 1665 00ae 07       		.uleb128 0x7
 1666 00af A60E     		.uleb128 .LEHB28-.LFB1712
 1667 00b1 05       		.uleb128 .LEHE28-.LEHB28
 1668 00b2 990C     		.uleb128 .L169-.LFB1712
 1669 00b4 07       		.uleb128 0x7
 1670 00b5 D80E     		.uleb128 .LEHB29-.LFB1712
 1671 00b7 34       		.uleb128 .LEHE29-.LEHB29
 1672 00b8 A213     		.uleb128 .L173-.LFB1712
 1673 00ba 07       		.uleb128 0x7
 1674 00bb 8C0F     		.uleb128 .LEHB30-.LFB1712
 1675 00bd 05       		.uleb128 .LEHE30-.LEHB30
 1676 00be 990C     		.uleb128 .L169-.LFB1712
 1677 00c0 07       		.uleb128 0x7
 1678 00c1 9710     		.uleb128 .LEHB31-.LFB1712
 1679 00c3 05       		.uleb128 .LEHE31-.LEHB31
 1680 00c4 B00E     		.uleb128 .L177-.LFB1712
 1681 00c6 01       		.uleb128 0x1
 1682 00c7 B810     		.uleb128 .LEHB32-.LFB1712
 1683 00c9 05       		.uleb128 .LEHE32-.LEHB32
 1684 00ca CA0D     		.uleb128 .L174-.LFB1712
 1685 00cc 01       		.uleb128 0x1
 1686 00cd 8F11     		.uleb128 .LEHB33-.LFB1712
 1687 00cf 05       		.uleb128 .LEHE33-.LEHB33
 1688 00d0 00       		.uleb128 0
 1689 00d1 00       		.uleb128 0
 1690 00d2 9E11     		.uleb128 .LEHB34-.LFB1712
 1691 00d4 17       		.uleb128 .LEHE34-.LEHB34
 1692 00d5 9C12     		.uleb128 .L164-.LFB1712
 1693 00d7 00       		.uleb128 0
 1694 00d8 B511     		.uleb128 .LEHB35-.LFB1712
 1695 00da 05       		.uleb128 .LEHE35-.LEHB35
 1696 00db 00       		.uleb128 0
 1697 00dc 00       		.uleb128 0
 1698 00dd D611     		.uleb128 .LEHB36-.LFB1712
 1699 00df 41       		.uleb128 .LEHE36-.LEHB36
 1700 00e0 AC12     		.uleb128 .L167-.LFB1712
 1701 00e2 00       		.uleb128 0
 1702 00e3 A712     		.uleb128 .LEHB37-.LFB1712
 1703 00e5 05       		.uleb128 .LEHE37-.LEHB37
 1704 00e6 00       		.uleb128 0
 1705 00e7 00       		.uleb128 0
 1706              	.LLSDACSE1712:
 1707 00e8 03       		.byte	0x3
 1708 00e9 00       		.byte	0
 1709 00ea 02       		.byte	0x2
 1710 00eb 7D       		.byte	0x7d
 1711 00ec 01       		.byte	0x1
 1712 00ed 7D       		.byte	0x7d
 1713 00ee 00       		.byte	0
 1714 00ef 7D       		.byte	0x7d
 1715              		.align 4
 1716 00f0 00000000 		.long	0
 1717              	
 1718 00f4 00000000 		.long	_ZTISt9exception
 1719 00f8 00000000 		.long	_ZTIN8UnitTest15AssertExceptionE
 1720              	.LLSDATT1712:
 1721              		.text
 1723              		.section	.text.unlikely
 1724              	.LCOLDE34:
 1725              		.text
 1726              	.LHOTE34:
 1727              		.section	.rodata.str1.8
 1728 009a 00000000 		.align 8
 1728      0000
 1729              	.LC35:
 1730 00a0 556E6861 		.string	"Unhandled exception while destroying fixture XmlTestReporterFixture"
 1730      6E646C65 
 1730      64206578 
 1730      63657074 
 1730      696F6E20 
 1731 00e4 00000000 		.align 8
 1732              	.LC36:
 1733 00e8 556E6861 		.string	"Unhandled exception while constructing fixture XmlTestReporterFixture"
 1733      6E646C65 
 1733      64206578 
 1733      63657074 
 1733      696F6E20 
 1734              		.section	.text.unlikely
 1735 0133 90       		.align 2
 1736              	.LCOLDB37:
 1737              		.text
 1738              	.LHOTB37:
 1739 0b59 90       		.align 2
 1740 0b5a 660F1F44 		.p2align 4,,15
 1740      0000
 1742              	_ZNK12_GLOBAL__N_166TestXmlTestReporterFixtureOutputIsCachedUntilReportSummaryIsCalled7RunImplEv:
 1743              	.LFB1384:
 1744              		.cfi_startproc
 1745              		.cfi_personality 0x3,__gxx_personality_v0
 1746              		.cfi_lsda 0x3,.LLSDA1384
 1747 0b60 4157     		pushq	%r15
 1748              		.cfi_def_cfa_offset 16
 1749              		.cfi_offset 15, -16
 1750 0b62 4156     		pushq	%r14
 1751              		.cfi_def_cfa_offset 24
 1752              		.cfi_offset 14, -24
 1753 0b64 4989FF   		movq	%rdi, %r15
 1754 0b67 4155     		pushq	%r13
 1755              		.cfi_def_cfa_offset 32
 1756              		.cfi_offset 13, -32
 1757 0b69 4154     		pushq	%r12
 1758              		.cfi_def_cfa_offset 40
 1759              		.cfi_offset 12, -40
 1760 0b6b 4C8D7708 		leaq	8(%rdi), %r14
 1761 0b6f 55       		pushq	%rbp
 1762              		.cfi_def_cfa_offset 48
 1763              		.cfi_offset 6, -48
 1764 0b70 53       		pushq	%rbx
 1765              		.cfi_def_cfa_offset 56
 1766              		.cfi_offset 3, -56
 1767 0b71 4881ECD8 		subq	$472, %rsp
 1767      010000
 1768              		.cfi_def_cfa_offset 528
 1769 0b78 488DBC24 		leaq	144(%rsp), %rdi
 1769      90000000 
 1770 0b80 64488B04 		movq	%fs:40, %rax
 1770      25280000 
 1770      00
 1771 0b89 48898424 		movq	%rax, 456(%rsp)
 1771      C8010000 
 1772 0b91 31C0     		xorl	%eax, %eax
 1773 0b93 E8000000 		call	_ZNSt8ios_baseC2Ev
 1773      00
 1774 0b98 488B0500 		movq	_ZTTNSt7__cxx1119basic_ostringstreamIcSt11char_traitsIcESaIcEEE+8(%rip), %rax
 1774      000000
 1775 0b9f C6842470 		movb	$0, 368(%rsp)
 1775      01000000 
 1776 0ba7 488D7C24 		leaq	32(%rsp), %rdi
 1776      20
 1777 0bac 48C78424 		movq	$_ZTVSt9basic_iosIcSt11char_traitsIcEE+16, 144(%rsp)
 1777      90000000 
 1777      00000000 
 1778 0bb8 48C78424 		movq	$0, 360(%rsp)
 1778      68010000 
 1778      00000000 
 1779 0bc4 31F6     		xorl	%esi, %esi
 1780 0bc6 C6842471 		movb	$0, 369(%rsp)
 1780      01000000 
 1781 0bce 48C78424 		movq	$0, 376(%rsp)
 1781      78010000 
 1781      00000000 
 1782 0bda 480378E8 		addq	-24(%rax), %rdi
 1783 0bde 48894424 		movq	%rax, 32(%rsp)
 1783      20
 1784 0be3 488B0500 		movq	_ZTTNSt7__cxx1119basic_ostringstreamIcSt11char_traitsIcESaIcEEE+16(%rip), %rax
 1784      000000
 1785 0bea 48C78424 		movq	$0, 384(%rsp)
 1785      80010000 
 1785      00000000 
 1786 0bf6 48C78424 		movq	$0, 392(%rsp)
 1786      88010000 
 1786      00000000 
 1787 0c02 48C78424 		movq	$0, 400(%rsp)
 1787      90010000 
 1787      00000000 
 1788 0c0e 488907   		movq	%rax, (%rdi)
 1789              	.LEHB38:
 1790 0c11 E8000000 		call	_ZNSt9basic_iosIcSt11char_traitsIcEE4initEPSt15basic_streambufIcS1_E
 1790      00
 1791              	.LEHE38:
 1792 0c16 488D7C24 		leaq	96(%rsp), %rdi
 1792      60
 1793 0c1b 48C74424 		movq	$_ZTVNSt7__cxx1119basic_ostringstreamIcSt11char_traitsIcESaIcEEE+24, 32(%rsp)
 1793      20000000 
 1793      00
 1794 0c24 48C78424 		movq	$_ZTVNSt7__cxx1119basic_ostringstreamIcSt11char_traitsIcESaIcEEE+64, 144(%rsp)
 1794      90000000 
 1794      00000000 
 1795 0c30 48C74424 		movq	$_ZTVSt15basic_streambufIcSt11char_traitsIcEE+16, 40(%rsp)
 1795      28000000 
 1795      00
 1796 0c39 48C74424 		movq	$0, 48(%rsp)
 1796      30000000 
 1796      00
 1797 0c42 48C74424 		movq	$0, 56(%rsp)
 1797      38000000 
 1797      00
 1798 0c4b 48C74424 		movq	$0, 64(%rsp)
 1798      40000000 
 1798      00
 1799 0c54 48C74424 		movq	$0, 72(%rsp)
 1799      48000000 
 1799      00
 1800 0c5d 48C74424 		movq	$0, 80(%rsp)
 1800      50000000 
 1800      00
 1801 0c66 48C74424 		movq	$0, 88(%rsp)
 1801      58000000 
 1801      00
 1802 0c6f E8000000 		call	_ZNSt6localeC1Ev
 1802      00
 1803 0c74 488D8424 		leaq	128(%rsp), %rax
 1803      80000000 
 1804 0c7c 488D7424 		leaq	40(%rsp), %rsi
 1804      28
 1805 0c81 48C74424 		movq	$_ZTVNSt7__cxx1115basic_stringbufIcSt11char_traitsIcESaIcEEE+16, 40(%rsp)
 1805      28000000 
 1805      00
 1806 0c8a C7442468 		movl	$16, 104(%rsp)
 1806      10000000 
 1807 0c92 48C74424 		movq	$0, 120(%rsp)
 1807      78000000 
 1807      00
 1808 0c9b 48894424 		movq	%rax, 112(%rsp)
 1808      70
 1809 0ca0 488D4424 		leaq	32(%rsp), %rax
 1809      20
 1810 0ca5 C6842480 		movb	$0, 128(%rsp)
 1810      00000000 
 1811 0cad 488D7870 		leaq	112(%rax), %rdi
 1812              	.LEHB39:
 1813 0cb1 E8000000 		call	_ZNSt9basic_iosIcSt11char_traitsIcEE4initEPSt15basic_streambufIcS1_E
 1813      00
 1814              	.LEHE39:
 1815 0cb6 488D4424 		leaq	32(%rsp), %rax
 1815      20
 1816 0cbb 488DBC24 		leaq	408(%rsp), %rdi
 1816      98010000 
 1817 0cc3 4889C6   		movq	%rax, %rsi
 1818              	.LEHB40:
 1819 0cc6 E8000000 		call	_ZN8UnitTest15XmlTestReporterC1ERSo
 1819      00
 1820              	.LEHE40:
 1821 0ccb 488D7C24 		leaq	32(%rsp), %rdi
 1821      20
 1822 0cd0 4C89F6   		movq	%r14, %rsi
 1823 0cd3 4C89B424 		movq	%r14, 448(%rsp)
 1823      C0010000 
 1824              	.LEHB41:
 1825 0cdb E8A0F4FF 		call	_ZN8UnitTest11ExecuteTestIN12_GLOBAL__N_168XmlTestReporterFixtureOutputIsCachedUntilReportSum
 1825      FF
 1826              	.LEHE41:
 1827 0ce0 4C8BA424 		movq	424(%rsp), %r12
 1827      A8010000 
 1828 0ce8 488BAC24 		movq	416(%rsp), %rbp
 1828      A0010000 
 1829 0cf0 48C78424 		movq	$_ZTVN8UnitTest20DeferredTestReporterE+16, 408(%rsp)
 1829      98010000 
 1829      00000000 
 1830 0cfc 4939EC   		cmpq	%rbp, %r12
 1831 0cff 0F848600 		je	.L230
 1831      0000
 1832              		.p2align 4,,10
 1833 0d05 0F1F00   		.p2align 3
 1834              	.L238:
 1835 0d08 488B5D68 		movq	104(%rbp), %rbx
 1836 0d0c 4C8B6D60 		movq	96(%rbp), %r13
 1837 0d10 4C39EB   		cmpq	%r13, %rbx
 1838 0d13 7422     		je	.L231
 1839              		.p2align 4,,10
 1840 0d15 0F1F00   		.p2align 3
 1841              	.L233:
 1842 0d18 498B7D08 		movq	8(%r13), %rdi
 1843 0d1c 498D5518 		leaq	24(%r13), %rdx
 1844 0d20 4839D7   		cmpq	%rdx, %rdi
 1845 0d23 7405     		je	.L232
 1846 0d25 E8000000 		call	_ZdlPv
 1846      00
 1847              	.L232:
 1848 0d2a 4983C528 		addq	$40, %r13
 1849 0d2e 4C39EB   		cmpq	%r13, %rbx
 1850 0d31 75E5     		jne	.L233
 1851 0d33 488B5D60 		movq	96(%rbp), %rbx
 1852              	.L231:
 1853 0d37 4885DB   		testq	%rbx, %rbx
 1854 0d3a 7408     		je	.L234
 1855 0d3c 4889DF   		movq	%rbx, %rdi
 1856 0d3f E8000000 		call	_ZdlPv
 1856      00
 1857              	.L234:
 1858 0d44 488B7D40 		movq	64(%rbp), %rdi
 1859 0d48 488D4550 		leaq	80(%rbp), %rax
 1860 0d4c 4839C7   		cmpq	%rax, %rdi
 1861 0d4f 7405     		je	.L235
 1862 0d51 E8000000 		call	_ZdlPv
 1862      00
 1863              	.L235:
 1864 0d56 488B7D20 		movq	32(%rbp), %rdi
 1865 0d5a 488D4530 		leaq	48(%rbp), %rax
 1866 0d5e 4839C7   		cmpq	%rax, %rdi
 1867 0d61 7405     		je	.L236
 1868 0d63 E8000000 		call	_ZdlPv
 1868      00
 1869              	.L236:
 1870 0d68 488B7D00 		movq	0(%rbp), %rdi
 1871 0d6c 488D4510 		leaq	16(%rbp), %rax
 1872 0d70 4839C7   		cmpq	%rax, %rdi
 1873 0d73 7405     		je	.L237
 1874 0d75 E8000000 		call	_ZdlPv
 1874      00
 1875              	.L237:
 1876 0d7a 4883ED80 		subq	$-128, %rbp
 1877 0d7e 4939EC   		cmpq	%rbp, %r12
 1878 0d81 7585     		jne	.L238
 1879 0d83 4C8BA424 		movq	416(%rsp), %r12
 1879      A0010000 
 1880              	.L230:
 1881 0d8b 4D85E4   		testq	%r12, %r12
 1882 0d8e 7408     		je	.L239
 1883 0d90 4C89E7   		movq	%r12, %rdi
 1884 0d93 E8000000 		call	_ZdlPv
 1884      00
 1885              	.L239:
 1886 0d98 488DBC24 		leaq	408(%rsp), %rdi
 1886      98010000 
 1887              	.LEHB42:
 1888 0da0 E8000000 		call	_ZN8UnitTest12TestReporterD2Ev
 1888      00
 1889              	.LEHE42:
 1890 0da5 488B7C24 		movq	112(%rsp), %rdi
 1890      70
 1891 0daa 488D8424 		leaq	128(%rsp), %rax
 1891      80000000 
 1892 0db2 48C74424 		movq	$_ZTVNSt7__cxx1119basic_ostringstreamIcSt11char_traitsIcESaIcEEE+24, 32(%rsp)
 1892      20000000 
 1892      00
 1893 0dbb 48C78424 		movq	$_ZTVNSt7__cxx1119basic_ostringstreamIcSt11char_traitsIcESaIcEEE+64, 144(%rsp)
 1893      90000000 
 1893      00000000 
 1894 0dc7 48C74424 		movq	$_ZTVNSt7__cxx1115basic_stringbufIcSt11char_traitsIcESaIcEEE+16, 40(%rsp)
 1894      28000000 
 1894      00
 1895 0dd0 4839C7   		cmpq	%rax, %rdi
 1896 0dd3 7405     		je	.L240
 1897 0dd5 E8000000 		call	_ZdlPv
 1897      00
 1898              	.L240:
 1899 0dda 488D7C24 		leaq	96(%rsp), %rdi
 1899      60
 1900 0ddf 48C74424 		movq	$_ZTVSt15basic_streambufIcSt11char_traitsIcEE+16, 40(%rsp)
 1900      28000000 
 1900      00
 1901 0de8 E8000000 		call	_ZNSt6localeD1Ev
 1901      00
 1902 0ded 488B0500 		movq	_ZTTNSt7__cxx1119basic_ostringstreamIcSt11char_traitsIcESaIcEEE+8(%rip), %rax
 1902      000000
 1903 0df4 488B0D00 		movq	_ZTTNSt7__cxx1119basic_ostringstreamIcSt11char_traitsIcESaIcEEE+16(%rip), %rcx
 1903      000000
 1904 0dfb 488DBC24 		leaq	144(%rsp), %rdi
 1904      90000000 
 1905 0e03 488B40E8 		movq	-24(%rax), %rax
 1906 0e07 48894C04 		movq	%rcx, 32(%rsp,%rax)
 1906      20
 1907 0e0c 48C78424 		movq	$_ZTVSt9basic_iosIcSt11char_traitsIcEE+16, 144(%rsp)
 1907      90000000 
 1907      00000000 
 1908              	.LEHB43:
 1909 0e18 E8000000 		call	_ZNSt8ios_baseD2Ev
 1909      00
 1910              	.LEHE43:
 1911              	.L223:
 1912 0e1d 488B8424 		movq	456(%rsp), %rax
 1912      C8010000 
 1913 0e25 64483304 		xorq	%fs:40, %rax
 1913      25280000 
 1913      00
 1914 0e2e 0F85C000 		jne	.L283
 1914      0000
 1915 0e34 4881C4D8 		addq	$472, %rsp
 1915      010000
 1916              		.cfi_remember_state
 1917              		.cfi_def_cfa_offset 56
 1918 0e3b 5B       		popq	%rbx
 1919              		.cfi_def_cfa_offset 48
 1920 0e3c 5D       		popq	%rbp
 1921              		.cfi_def_cfa_offset 40
 1922 0e3d 415C     		popq	%r12
 1923              		.cfi_def_cfa_offset 32
 1924 0e3f 415D     		popq	%r13
 1925              		.cfi_def_cfa_offset 24
 1926 0e41 415E     		popq	%r14
 1927              		.cfi_def_cfa_offset 16
 1928 0e43 415F     		popq	%r15
 1929              		.cfi_def_cfa_offset 8
 1930 0e45 C3       		ret
 1931              	.L263:
 1932              		.cfi_restore_state
 1933 0e46 4889C3   		movq	%rax, %rbx
 1934 0e49 4889D5   		movq	%rdx, %rbp
 1935              	.L226:
 1936 0e4c 488DBC24 		leaq	144(%rsp), %rdi
 1936      90000000 
 1937 0e54 48C78424 		movq	$_ZTVSt9basic_iosIcSt11char_traitsIcEE+16, 144(%rsp)
 1937      90000000 
 1937      00000000 
 1938 0e60 E8000000 		call	_ZNSt8ios_baseD2Ev
 1938      00
 1939 0e65 4889DF   		movq	%rbx, %rdi
 1940 0e68 4889EA   		movq	%rbp, %rdx
 1941 0e6b 31DB     		xorl	%ebx, %ebx
 1942              	.L227:
 1943 0e6d 4883FA01 		cmpq	$1, %rdx
 1944 0e71 0F84EA00 		je	.L247
 1944      0000
 1945 0e77 4883FA02 		cmpq	$2, %rdx
 1946 0e7b 0F85A400 		jne	.L284
 1946      0000
 1947 0e81 E8000000 		call	__cxa_begin_catch
 1947      00
 1948 0e86 488D7C24 		leaq	32(%rsp), %rdi
 1948      20
 1949 0e8b 4889C3   		movq	%rax, %rbx
 1950              	.LEHB44:
 1951 0e8e E8000000 		call	_ZN8UnitTest15MemoryOutStreamC1Ev
 1951      00
 1952              	.LEHE44:
 1953 0e93 488B03   		movq	(%rbx), %rax
 1954 0e96 4889DF   		movq	%rbx, %rdi
 1955 0e99 FF5010   		call	*16(%rax)
 1956 0e9c 488D7C24 		leaq	32(%rsp), %rdi
 1956      20
 1957 0ea1 BA150000 		movl	$21, %edx
 1957      00
 1958 0ea6 BE000000 		movl	$.LC31, %esi
 1958      00
 1959 0eab 4889C3   		movq	%rax, %rbx
 1960              	.LEHB45:
 1961 0eae E8000000 		call	_ZSt16__ostream_insertIcSt11char_traitsIcEERSt13basic_ostreamIT_T0_ES6_PKS3_l
 1961      00
 1962 0eb3 488D7C24 		leaq	32(%rsp), %rdi
 1962      20
 1963 0eb8 4889DE   		movq	%rbx, %rsi
 1964 0ebb E8000000 		call	_ZStlsISt11char_traitsIcEERSt13basic_ostreamIcT_ES5_PKc
 1964      00
 1965 0ec0 488D7C24 		leaq	32(%rsp), %rdi
 1965      20
 1966 0ec5 E8000000 		call	_ZNK8UnitTest15MemoryOutStream7GetTextEv
 1966      00
 1967 0eca 4889C3   		movq	%rax, %rbx
 1968 0ecd E8000000 		call	_ZN8UnitTest11CurrentTest7ResultsEv
 1968      00
 1969 0ed2 488B38   		movq	(%rax), %rdi
 1970 0ed5 4889DA   		movq	%rbx, %rdx
 1971 0ed8 4C89F6   		movq	%r14, %rsi
 1972 0edb E8000000 		call	_ZN8UnitTest11TestResults13OnTestFailureERKNS_11TestDetailsEPKc
 1972      00
 1973              	.LEHE45:
 1974 0ee0 488D7C24 		leaq	32(%rsp), %rdi
 1974      20
 1975              	.LEHB46:
 1976 0ee5 E8000000 		call	_ZN8UnitTest15MemoryOutStreamD1Ev
 1976      00
 1977              	.LEHE46:
 1978              	.L278:
 1979 0eea E8000000 		call	__cxa_end_catch
 1979      00
 1980 0eef E929FFFF 		jmp	.L223
 1980      FF
 1981              	.L283:
 1982 0ef4 E8000000 		call	__stack_chk_fail
 1982      00
 1983              	.L256:
 1984 0ef9 4889C7   		movq	%rax, %rdi
 1985 0efc BB010000 		movl	$1, %ebx
 1985      00
 1986 0f01 E967FFFF 		jmp	.L227
 1986      FF
 1987              	.L260:
 1988 0f06 488D7C24 		leaq	32(%rsp), %rdi
 1988      20
 1989 0f0b 4889C3   		movq	%rax, %rbx
 1990 0f0e E8000000 		call	_ZN8UnitTest15MemoryOutStreamD1Ev
 1990      00
 1991              	.L253:
 1992 0f13 E8000000 		call	__cxa_end_catch
 1992      00
 1993 0f18 4889DF   		movq	%rbx, %rdi
 1994              	.LEHB47:
 1995 0f1b E8000000 		call	_Unwind_Resume
 1995      00
 1996              	.LEHE47:
 1997              	.L259:
 1998              	.L279:
 1999 0f20 4889C3   		movq	%rax, %rbx
 2000 0f23 EBEE     		jmp	.L253
 2001              	.L284:
 2002 0f25 E8000000 		call	__cxa_begin_catch
 2002      00
 2003 0f2a 84DB     		testb	%bl, %bl
 2004 0f2c BA370000 		movl	$55, %edx
 2004      00
 2005 0f31 4C89F6   		movq	%r14, %rsi
 2006 0f34 4889E7   		movq	%rsp, %rdi
 2007 0f37 0F848900 		je	.L249
 2007      0000
 2008              	.LEHB48:
 2009 0f3d E8000000 		call	_ZN8UnitTest11TestDetailsC1ERKS0_i
 2009      00
 2010 0f42 E8000000 		call	_ZN8UnitTest11CurrentTest7ResultsEv
 2010      00
 2011 0f47 488B38   		movq	(%rax), %rdi
 2012 0f4a BA000000 		movl	$.LC35, %edx
 2012      00
 2013 0f4f 4889E6   		movq	%rsp, %rsi
 2014 0f52 E8000000 		call	_ZN8UnitTest11TestResults13OnTestFailureERKNS_11TestDetailsEPKc
 2014      00
 2015              	.LEHE48:
 2016              	.L250:
 2017              	.LEHB49:
 2018 0f57 E8000000 		call	__cxa_end_catch
 2018      00
 2019              	.LEHE49:
 2020 0f5c E9BCFEFF 		jmp	.L223
 2020      FF
 2021              	.L247:
 2022 0f61 E8000000 		call	__cxa_begin_catch
 2022      00
 2023 0f66 4889C3   		movq	%rax, %rbx
 2024 0f69 488B00   		movq	(%rax), %rax
 2025 0f6c 4889DF   		movq	%rbx, %rdi
 2026 0f6f FF5010   		call	*16(%rax)
 2027 0f72 4889DF   		movq	%rbx, %rdi
 2028 0f75 4889C5   		movq	%rax, %rbp
 2029              	.LEHB50:
 2030 0f78 E8000000 		call	_ZNK8UnitTest15AssertException10LineNumberEv
 2030      00
 2031 0f7d 4889DF   		movq	%rbx, %rdi
 2032 0f80 4189C4   		movl	%eax, %r12d
 2033 0f83 E8000000 		call	_ZNK8UnitTest15AssertException8FilenameEv
 2033      00
 2034 0f88 498B5708 		movq	8(%r15), %rdx
 2035 0f8c 498B7710 		movq	16(%r15), %rsi
 2036 0f90 4589E0   		movl	%r12d, %r8d
 2037 0f93 4889C1   		movq	%rax, %rcx
 2038 0f96 4889E7   		movq	%rsp, %rdi
 2039 0f99 E8000000 		call	_ZN8UnitTest11TestDetailsC1EPKcS2_S2_i
 2039      00
 2040 0f9e E8000000 		call	_ZN8UnitTest11CurrentTest7ResultsEv
 2040      00
 2041 0fa3 488B38   		movq	(%rax), %rdi
 2042 0fa6 4889EA   		movq	%rbp, %rdx
 2043 0fa9 4889E6   		movq	%rsp, %rsi
 2044 0fac E8000000 		call	_ZN8UnitTest11TestResults13OnTestFailureERKNS_11TestDetailsEPKc
 2044      00
 2045              	.LEHE50:
 2046 0fb1 E934FFFF 		jmp	.L278
 2046      FF
 2047              	.L261:
 2048 0fb6 4889C3   		movq	%rax, %rbx
 2049 0fb9 E8000000 		call	__cxa_end_catch
 2049      00
 2050 0fbe 4889DF   		movq	%rbx, %rdi
 2051              	.LEHB51:
 2052 0fc1 E8000000 		call	_Unwind_Resume
 2052      00
 2053              	.LEHE51:
 2054              	.L249:
 2055              	.LEHB52:
 2056 0fc6 E8000000 		call	_ZN8UnitTest11TestDetailsC1ERKS0_i
 2056      00
 2057 0fcb E8000000 		call	_ZN8UnitTest11CurrentTest7ResultsEv
 2057      00
 2058 0fd0 488B38   		movq	(%rax), %rdi
 2059 0fd3 BA000000 		movl	$.LC36, %edx
 2059      00
 2060 0fd8 4889E6   		movq	%rsp, %rsi
 2061 0fdb E8000000 		call	_ZN8UnitTest11TestResults13OnTestFailureERKNS_11TestDetailsEPKc
 2061      00
 2062              	.LEHE52:
 2063 0fe0 E972FFFF 		jmp	.L250
 2063      FF
 2064              	.L258:
 2065 0fe5 E936FFFF 		jmp	.L279
 2065      FF
 2066              	.L265:
 2067 0fea 488D7C24 		leaq	32(%rsp), %rdi
 2067      20
 2068 0fef 4889C3   		movq	%rax, %rbx
 2069 0ff2 4889D5   		movq	%rdx, %rbp
 2070 0ff5 E8000000 		call	_ZNSt7__cxx1119basic_ostringstreamIcSt11char_traitsIcESaIcEED1Ev
 2070      00
 2071 0ffa 4889DF   		movq	%rbx, %rdi
 2072 0ffd 4889EA   		movq	%rbp, %rdx
 2073 1000 BB010000 		movl	$1, %ebx
 2073      00
 2074 1005 E963FEFF 		jmp	.L227
 2074      FF
 2075              	.L257:
 2076 100a 488D7C24 		leaq	32(%rsp), %rdi
 2076      20
 2077 100f 4889C3   		movq	%rax, %rbx
 2078 1012 4889D5   		movq	%rdx, %rbp
 2079 1015 E8000000 		call	_ZN12_GLOBAL__N_122XmlTestReporterFixtureD2Ev.constprop.46
 2079      00
 2080 101a 4889DF   		movq	%rbx, %rdi
 2081 101d 4889EA   		movq	%rbp, %rdx
 2082 1020 BB010000 		movl	$1, %ebx
 2082      00
 2083 1025 E943FEFF 		jmp	.L227
 2083      FF
 2084              	.L262:
 2085 102a 488D7C24 		leaq	32(%rsp), %rdi
 2085      20
 2086 102f 4889C3   		movq	%rax, %rbx
 2087 1032 4889D5   		movq	%rdx, %rbp
 2088 1035 E8000000 		call	_ZNSt7__cxx1119basic_ostringstreamIcSt11char_traitsIcESaIcEED1Ev
 2088      00
 2089 103a 4889DF   		movq	%rbx, %rdi
 2090 103d 4889EA   		movq	%rbp, %rdx
 2091 1040 31DB     		xorl	%ebx, %ebx
 2092 1042 E926FEFF 		jmp	.L227
 2092      FF
 2093              	.L264:
 2094 1047 488D7C24 		leaq	40(%rsp), %rdi
 2094      28
 2095 104c 4889C3   		movq	%rax, %rbx
 2096 104f 4889D5   		movq	%rdx, %rbp
 2097 1052 E8000000 		call	_ZNSt7__cxx1115basic_stringbufIcSt11char_traitsIcESaIcEED1Ev
 2097      00
 2098 1057 488B0500 		movq	_ZTTNSt7__cxx1119basic_ostringstreamIcSt11char_traitsIcESaIcEEE+8(%rip), %rax
 2098      000000
 2099 105e 488B0D00 		movq	_ZTTNSt7__cxx1119basic_ostringstreamIcSt11char_traitsIcESaIcEEE+16(%rip), %rcx
 2099      000000
 2100 1065 488B40E8 		movq	-24(%rax), %rax
 2101 1069 48894C04 		movq	%rcx, 32(%rsp,%rax)
 2101      20
 2102 106e E9D9FDFF 		jmp	.L226
 2102      FF
 2103              		.cfi_endproc
 2104              	.LFE1384:
 2105              		.section	.gcc_except_table
 2106              		.align 4
 2107              	.LLSDA1384:
 2108 00fc FF       		.byte	0xff
 2109 00fd 03       		.byte	0x3
 2110 00fe 6D       		.uleb128 .LLSDATT1384-.LLSDATTD1384
 2111              	.LLSDATTD1384:
 2112 00ff 01       		.byte	0x1
 2113 0100 57       		.uleb128 .LLSDACSE1384-.LLSDACSB1384
 2114              	.LLSDACSB1384:
 2115 0101 B101     		.uleb128 .LEHB38-.LFB1384
 2116 0103 05       		.uleb128 .LEHE38-.LEHB38
 2117 0104 E605     		.uleb128 .L263-.LFB1384
 2118 0106 07       		.uleb128 0x7
 2119 0107 D102     		.uleb128 .LEHB39-.LFB1384
 2120 0109 05       		.uleb128 .LEHE39-.LEHB39
 2121 010a E709     		.uleb128 .L264-.LFB1384
 2122 010c 07       		.uleb128 0x7
 2123 010d E602     		.uleb128 .LEHB40-.LFB1384
 2124 010f 05       		.uleb128 .LEHE40-.LEHB40
 2125 0110 CA09     		.uleb128 .L262-.LFB1384
 2126 0112 07       		.uleb128 0x7
 2127 0113 FB02     		.uleb128 .LEHB41-.LFB1384
 2128 0115 05       		.uleb128 .LEHE41-.LEHB41
 2129 0116 AA09     		.uleb128 .L257-.LFB1384
 2130 0118 07       		.uleb128 0x7
 2131 0119 C004     		.uleb128 .LEHB42-.LFB1384
 2132 011b 05       		.uleb128 .LEHE42-.LEHB42
 2133 011c 8A09     		.uleb128 .L265-.LFB1384
 2134 011e 07       		.uleb128 0x7
 2135 011f B805     		.uleb128 .LEHB43-.LFB1384
 2136 0121 05       		.uleb128 .LEHE43-.LEHB43
 2137 0122 9907     		.uleb128 .L256-.LFB1384
 2138 0124 05       		.uleb128 0x5
 2139 0125 AE06     		.uleb128 .LEHB44-.LFB1384
 2140 0127 05       		.uleb128 .LEHE44-.LEHB44
 2141 0128 C007     		.uleb128 .L259-.LFB1384
 2142 012a 00       		.uleb128 0
 2143 012b CE06     		.uleb128 .LEHB45-.LFB1384
 2144 012d 32       		.uleb128 .LEHE45-.LEHB45
 2145 012e A607     		.uleb128 .L260-.LFB1384
 2146 0130 00       		.uleb128 0
 2147 0131 8507     		.uleb128 .LEHB46-.LFB1384
 2148 0133 05       		.uleb128 .LEHE46-.LEHB46
 2149 0134 C007     		.uleb128 .L259-.LFB1384
 2150 0136 00       		.uleb128 0
 2151 0137 BB07     		.uleb128 .LEHB47-.LFB1384
 2152 0139 05       		.uleb128 .LEHE47-.LEHB47
 2153 013a 00       		.uleb128 0
 2154 013b 00       		.uleb128 0
 2155 013c DD07     		.uleb128 .LEHB48-.LFB1384
 2156 013e 1A       		.uleb128 .LEHE48-.LEHB48
 2157 013f D608     		.uleb128 .L261-.LFB1384
 2158 0141 00       		.uleb128 0
 2159 0142 F707     		.uleb128 .LEHB49-.LFB1384
 2160 0144 05       		.uleb128 .LEHE49-.LEHB49
 2161 0145 00       		.uleb128 0
 2162 0146 00       		.uleb128 0
 2163 0147 9808     		.uleb128 .LEHB50-.LFB1384
 2164 0149 39       		.uleb128 .LEHE50-.LEHB50
 2165 014a 8509     		.uleb128 .L258-.LFB1384
 2166 014c 00       		.uleb128 0
 2167 014d E108     		.uleb128 .LEHB51-.LFB1384
 2168 014f 05       		.uleb128 .LEHE51-.LEHB51
 2169 0150 00       		.uleb128 0
 2170 0151 00       		.uleb128 0
 2171 0152 E608     		.uleb128 .LEHB52-.LFB1384
 2172 0154 1A       		.uleb128 .LEHE52-.LEHB52
 2173 0155 D608     		.uleb128 .L261-.LFB1384
 2174 0157 00       		.uleb128 0
 2175              	.LLSDACSE1384:
 2176 0158 03       		.byte	0x3
 2177 0159 00       		.byte	0
 2178 015a 02       		.byte	0x2
 2179 015b 7D       		.byte	0x7d
 2180 015c 01       		.byte	0x1
 2181 015d 7D       		.byte	0x7d
 2182 015e 00       		.byte	0
 2183 015f 7D       		.byte	0x7d
 2184              		.align 4
 2185 0160 00000000 		.long	0
 2186              	
 2187 0164 00000000 		.long	_ZTISt9exception
 2188 0168 00000000 		.long	_ZTIN8UnitTest15AssertExceptionE
 2189              	.LLSDATT1384:
 2190              		.text
 2192              		.section	.text.unlikely
 2193              	.LCOLDE37:
 2194              		.text
 2195              	.LHOTE37:
 2196              		.section	.text.unlikely._ZNSt7__cxx1115basic_stringbufIcSt11char_traitsIcESaIcEED0Ev,"axG",@progbi
 2197              		.align 2
 2198              	.LCOLDB38:
 2199              		.section	.text._ZNSt7__cxx1115basic_stringbufIcSt11char_traitsIcESaIcEED0Ev,"axG",@progbits,_ZNSt7
 2200              	.LHOTB38:
 2201              		.align 2
 2202              		.p2align 4,,15
 2203              		.weak	_ZNSt7__cxx1115basic_stringbufIcSt11char_traitsIcESaIcEED0Ev
 2205              	_ZNSt7__cxx1115basic_stringbufIcSt11char_traitsIcESaIcEED0Ev:
 2206              	.LFB1466:
 2207              		.cfi_startproc
 2208 0000 53       		pushq	%rbx
 2209              		.cfi_def_cfa_offset 16
 2210              		.cfi_offset 3, -16
 2211 0001 4889FB   		movq	%rdi, %rbx
 2212 0004 48C70700 		movq	$_ZTVNSt7__cxx1115basic_stringbufIcSt11char_traitsIcESaIcEEE+16, (%rdi)
 2212      000000
 2213 000b 488B7F48 		movq	72(%rdi), %rdi
 2214 000f 488D4358 		leaq	88(%rbx), %rax
 2215 0013 4839C7   		cmpq	%rax, %rdi
 2216 0016 7405     		je	.L286
 2217 0018 E8000000 		call	_ZdlPv
 2217      00
 2218              	.L286:
 2219 001d 488D7B38 		leaq	56(%rbx), %rdi
 2220 0021 48C70300 		movq	$_ZTVSt15basic_streambufIcSt11char_traitsIcEE+16, (%rbx)
 2220      000000
 2221 0028 E8000000 		call	_ZNSt6localeD1Ev
 2221      00
 2222 002d 4889DF   		movq	%rbx, %rdi
 2223 0030 5B       		popq	%rbx
 2224              		.cfi_def_cfa_offset 8
 2225 0031 E9000000 		jmp	_ZdlPv
 2225      00
 2226              		.cfi_endproc
 2227              	.LFE1466:
 2229              		.section	.text.unlikely._ZNSt7__cxx1115basic_stringbufIcSt11char_traitsIcESaIcEED0Ev,"axG",@progbi
 2230              	.LCOLDE38:
 2231              		.section	.text._ZNSt7__cxx1115basic_stringbufIcSt11char_traitsIcESaIcEED0Ev,"axG",@progbits,_ZNSt7
 2232              	.LHOTE38:
 2233              		.section	.rodata.str1.1
 2234              	.LC39:
 2235 0081 45787065 		.string	"Expected "
 2235      63746564 
 2235      2000
 2236              	.LC40:
 2237 008b 20627574 		.string	" but was "
 2237      20776173 
 2237      2000
 2238              		.section	.text.unlikely._ZN8UnitTest10CheckEqualIPKcNSt7__cxx1112basic_stringIcSt11char_traitsIcES
 2239              	.LCOLDB41:
 2240              		.section	.text._ZN8UnitTest10CheckEqualIPKcNSt7__cxx1112basic_stringIcSt11char_traitsIcESaIcEEEEEv
 2241              	.LHOTB41:
 2242              		.p2align 4,,15
 2243              		.weak	_ZN8UnitTest10CheckEqualIPKcNSt7__cxx1112basic_stringIcSt11char_traitsIcESaIcEEEEEvRNS_11Tes
 2245              	_ZN8UnitTest10CheckEqualIPKcNSt7__cxx1112basic_stringIcSt11char_traitsIcESaIcEEEEEvRNS_11TestResult
 2246              	.LFB1486:
 2247              		.cfi_startproc
 2248              		.cfi_personality 0x3,__gxx_personality_v0
 2249              		.cfi_lsda 0x3,.LLSDA1486
 2250 0000 4156     		pushq	%r14
 2251              		.cfi_def_cfa_offset 16
 2252              		.cfi_offset 14, -16
 2253 0002 4155     		pushq	%r13
 2254              		.cfi_def_cfa_offset 24
 2255              		.cfi_offset 13, -24
 2256 0004 4989CD   		movq	%rcx, %r13
 2257 0007 4154     		pushq	%r12
 2258              		.cfi_def_cfa_offset 32
 2259              		.cfi_offset 12, -32
 2260 0009 55       		pushq	%rbp
 2261              		.cfi_def_cfa_offset 40
 2262              		.cfi_offset 6, -40
 2263 000a 4889F5   		movq	%rsi, %rbp
 2264 000d 53       		pushq	%rbx
 2265              		.cfi_def_cfa_offset 48
 2266              		.cfi_offset 3, -48
 2267 000e 4989FC   		movq	%rdi, %r12
 2268 0011 4889D7   		movq	%rdx, %rdi
 2269 0014 4889D3   		movq	%rdx, %rbx
 2270 0017 4881ECA0 		subq	$416, %rsp
 2270      010000
 2271              		.cfi_def_cfa_offset 464
 2272 001e 488B36   		movq	(%rsi), %rsi
 2273 0021 64488B04 		movq	%fs:40, %rax
 2273      25280000 
 2273      00
 2274 002a 48898424 		movq	%rax, 408(%rsp)
 2274      98010000 
 2275 0032 31C0     		xorl	%eax, %eax
 2276              	.LEHB53:
 2277 0034 E8000000 		call	_ZNKSt7__cxx1112basic_stringIcSt11char_traitsIcESaIcEE7compareEPKc
 2277      00
 2278              	.LEHE53:
 2279 0039 85C0     		testl	%eax, %eax
 2280 003b 752B     		jne	.L314
 2281              	.L288:
 2282 003d 488B8424 		movq	408(%rsp), %rax
 2282      98010000 
 2283 0045 64483304 		xorq	%fs:40, %rax
 2283      25280000 
 2283      00
 2284 004e 0F857802 		jne	.L315
 2284      0000
 2285 0054 4881C4A0 		addq	$416, %rsp
 2285      010000
 2286              		.cfi_remember_state
 2287              		.cfi_def_cfa_offset 48
 2288 005b 5B       		popq	%rbx
 2289              		.cfi_def_cfa_offset 40
 2290 005c 5D       		popq	%rbp
 2291              		.cfi_def_cfa_offset 32
 2292 005d 415C     		popq	%r12
 2293              		.cfi_def_cfa_offset 24
 2294 005f 415D     		popq	%r13
 2295              		.cfi_def_cfa_offset 16
 2296 0061 415E     		popq	%r14
 2297              		.cfi_def_cfa_offset 8
 2298 0063 C3       		ret
 2299              		.p2align 4,,10
 2300 0064 0F1F4000 		.p2align 3
 2301              	.L314:
 2302              		.cfi_restore_state
 2303 0068 4C8DB424 		leaq	144(%rsp), %r14
 2303      90000000 
 2304 0070 4C89F7   		movq	%r14, %rdi
 2305 0073 E8000000 		call	_ZNSt8ios_baseC2Ev
 2305      00
 2306 0078 31F6     		xorl	%esi, %esi
 2307 007a 4C89F7   		movq	%r14, %rdi
 2308 007d 48C78424 		movq	$0, 360(%rsp)
 2308      68010000 
 2308      00000000 
 2309 0089 C6842470 		movb	$0, 368(%rsp)
 2309      01000000 
 2310 0091 C6842471 		movb	$0, 369(%rsp)
 2310      01000000 
 2311 0099 48C78424 		movq	$0, 376(%rsp)
 2311      78010000 
 2311      00000000 
 2312 00a5 48C78424 		movq	$0, 384(%rsp)
 2312      80010000 
 2312      00000000 
 2313 00b1 48C78424 		movq	$0, 392(%rsp)
 2313      88010000 
 2313      00000000 
 2314 00bd 48C78424 		movq	$0, 400(%rsp)
 2314      90010000 
 2314      00000000 
 2315 00c9 48C70424 		movq	$_ZTCN8UnitTest15MemoryOutStreamE0_So+24, (%rsp)
 2315      00000000 
 2316 00d1 48C78424 		movq	$_ZTCN8UnitTest15MemoryOutStreamE0_So+64, 144(%rsp)
 2316      90000000 
 2316      00000000 
 2317              	.LEHB54:
 2318 00dd E8000000 		call	_ZNSt9basic_iosIcSt11char_traitsIcEE4initEPSt15basic_streambufIcS1_E
 2318      00
 2319              	.LEHE54:
 2320 00e2 488D7C24 		leaq	64(%rsp), %rdi
 2320      40
 2321 00e7 48C70424 		movq	$_ZTCN8UnitTest15MemoryOutStreamE0_NSt7__cxx1119basic_ostringstreamIcSt11char_traitsIcESaIcEE
 2321      00000000 
 2322 00ef 48C78424 		movq	$_ZTCN8UnitTest15MemoryOutStreamE0_NSt7__cxx1119basic_ostringstreamIcSt11char_traitsIcESaIcEE
 2322      90000000 
 2322      00000000 
 2323 00fb 48C74424 		movq	$_ZTVSt15basic_streambufIcSt11char_traitsIcEE+16, 8(%rsp)
 2323      08000000 
 2323      00
 2324 0104 48C74424 		movq	$0, 16(%rsp)
 2324      10000000 
 2324      00
 2325 010d 48C74424 		movq	$0, 24(%rsp)
 2325      18000000 
 2325      00
 2326 0116 48C74424 		movq	$0, 32(%rsp)
 2326      20000000 
 2326      00
 2327 011f 48C74424 		movq	$0, 40(%rsp)
 2327      28000000 
 2327      00
 2328 0128 48C74424 		movq	$0, 48(%rsp)
 2328      30000000 
 2328      00
 2329 0131 48C74424 		movq	$0, 56(%rsp)
 2329      38000000 
 2329      00
 2330 013a E8000000 		call	_ZNSt6localeC1Ev
 2330      00
 2331 013f 488D4424 		leaq	96(%rsp), %rax
 2331      60
 2332 0144 48C74424 		movq	$0, 88(%rsp)
 2332      58000000 
 2332      00
 2333 014d C6442460 		movb	$0, 96(%rsp)
 2333      00
 2334 0152 488D7424 		leaq	8(%rsp), %rsi
 2334      08
 2335 0157 48C74424 		movq	$_ZTVNSt7__cxx1115basic_stringbufIcSt11char_traitsIcESaIcEEE+16, 8(%rsp)
 2335      08000000 
 2335      00
 2336 0160 C7442448 		movl	$16, 72(%rsp)
 2336      10000000 
 2337 0168 48894424 		movq	%rax, 80(%rsp)
 2337      50
 2338 016d 488B0424 		movq	(%rsp), %rax
 2339 0171 488B40E8 		movq	-24(%rax), %rax
 2340 0175 488D3C04 		leaq	(%rsp,%rax), %rdi
 2341              	.LEHB55:
 2342 0179 E8000000 		call	_ZNSt9basic_iosIcSt11char_traitsIcEE4initEPSt15basic_streambufIcS1_E
 2342      00
 2343              	.LEHE55:
 2344 017e 488D8424 		leaq	128(%rsp), %rax
 2344      80000000 
 2345 0186 BA090000 		movl	$9, %edx
 2345      00
 2346 018b BE000000 		movl	$.LC39, %esi
 2346      00
 2347 0190 4889E7   		movq	%rsp, %rdi
 2348 0193 48C70424 		movq	$_ZTVN8UnitTest15MemoryOutStreamE+24, (%rsp)
 2348      00000000 
 2349 019b 48C78424 		movq	$_ZTVN8UnitTest15MemoryOutStreamE+64, 144(%rsp)
 2349      90000000 
 2349      00000000 
 2350 01a7 48894424 		movq	%rax, 112(%rsp)
 2350      70
 2351 01ac 48C74424 		movq	$0, 120(%rsp)
 2351      78000000 
 2351      00
 2352 01b5 C6842480 		movb	$0, 128(%rsp)
 2352      00000000 
 2353 01bd 488B6D00 		movq	0(%rbp), %rbp
 2354              	.LEHB56:
 2355 01c1 E8000000 		call	_ZSt16__ostream_insertIcSt11char_traitsIcEERSt13basic_ostreamIT_T0_ES6_PKS3_l
 2355      00
 2356 01c6 4885ED   		testq	%rbp, %rbp
 2357 01c9 0F84E100 		je	.L316
 2357      0000
 2358 01cf 4889EF   		movq	%rbp, %rdi
 2359 01d2 E8000000 		call	strlen
 2359      00
 2360 01d7 4889EE   		movq	%rbp, %rsi
 2361 01da 4889C2   		movq	%rax, %rdx
 2362 01dd 4889E7   		movq	%rsp, %rdi
 2363 01e0 E8000000 		call	_ZSt16__ostream_insertIcSt11char_traitsIcEERSt13basic_ostreamIT_T0_ES6_PKS3_l
 2363      00
 2364              	.L296:
 2365 01e5 BA090000 		movl	$9, %edx
 2365      00
 2366 01ea BE000000 		movl	$.LC40, %esi
 2366      00
 2367 01ef 4889E7   		movq	%rsp, %rdi
 2368 01f2 E8000000 		call	_ZSt16__ostream_insertIcSt11char_traitsIcEERSt13basic_ostreamIT_T0_ES6_PKS3_l
 2368      00
 2369 01f7 488B5308 		movq	8(%rbx), %rdx
 2370 01fb 488B33   		movq	(%rbx), %rsi
 2371 01fe 4889E7   		movq	%rsp, %rdi
 2372 0201 E8000000 		call	_ZSt16__ostream_insertIcSt11char_traitsIcEERSt13basic_ostreamIT_T0_ES6_PKS3_l
 2372      00
 2373 0206 4889E7   		movq	%rsp, %rdi
 2374 0209 E8000000 		call	_ZNK8UnitTest15MemoryOutStream7GetTextEv
 2374      00
 2375 020e 4889C2   		movq	%rax, %rdx
 2376 0211 4C89EE   		movq	%r13, %rsi
 2377 0214 4C89E7   		movq	%r12, %rdi
 2378 0217 E8000000 		call	_ZN8UnitTest11TestResults13OnTestFailureERKNS_11TestDetailsEPKc
 2378      00
 2379              	.LEHE56:
 2380 021c 488B7C24 		movq	112(%rsp), %rdi
 2380      70
 2381 0221 488D8424 		leaq	128(%rsp), %rax
 2381      80000000 
 2382 0229 48C70424 		movq	$_ZTVN8UnitTest15MemoryOutStreamE+24, (%rsp)
 2382      00000000 
 2383 0231 48C78424 		movq	$_ZTVN8UnitTest15MemoryOutStreamE+64, 144(%rsp)
 2383      90000000 
 2383      00000000 
 2384 023d 4839C7   		cmpq	%rax, %rdi
 2385 0240 7405     		je	.L297
 2386 0242 E8000000 		call	_ZdlPv
 2386      00
 2387              	.L297:
 2388 0247 488B7C24 		movq	80(%rsp), %rdi
 2388      50
 2389 024c 488D4424 		leaq	96(%rsp), %rax
 2389      60
 2390 0251 48C70424 		movq	$_ZTCN8UnitTest15MemoryOutStreamE0_NSt7__cxx1119basic_ostringstreamIcSt11char_traitsIcESaIcEE
 2390      00000000 
 2391 0259 48C78424 		movq	$_ZTCN8UnitTest15MemoryOutStreamE0_NSt7__cxx1119basic_ostringstreamIcSt11char_traitsIcESaIcEE
 2391      90000000 
 2391      00000000 
 2392 0265 48C74424 		movq	$_ZTVNSt7__cxx1115basic_stringbufIcSt11char_traitsIcESaIcEEE+16, 8(%rsp)
 2392      08000000 
 2392      00
 2393 026e 4839C7   		cmpq	%rax, %rdi
 2394 0271 7405     		je	.L298
 2395 0273 E8000000 		call	_ZdlPv
 2395      00
 2396              	.L298:
 2397 0278 488D7C24 		leaq	64(%rsp), %rdi
 2397      40
 2398 027d 48C74424 		movq	$_ZTVSt15basic_streambufIcSt11char_traitsIcEE+16, 8(%rsp)
 2398      08000000 
 2398      00
 2399 0286 E8000000 		call	_ZNSt6localeD1Ev
 2399      00
 2400 028b 488DBC24 		leaq	144(%rsp), %rdi
 2400      90000000 
 2401 0293 48C78424 		movq	$_ZTVSt9basic_iosIcSt11char_traitsIcEE+16, 144(%rsp)
 2401      90000000 
 2401      00000000 
 2402              	.LEHB57:
 2403 029f E8000000 		call	_ZNSt8ios_baseD2Ev
 2403      00
 2404              	.LEHE57:
 2405 02a4 E994FDFF 		jmp	.L288
 2405      FF
 2406 02a9 0F1F8000 		.p2align 4,,10
 2406      000000
 2407              		.p2align 3
 2408              	.L316:
 2409 02b0 488B0424 		movq	(%rsp), %rax
 2410 02b4 488B40E8 		movq	-24(%rax), %rax
 2411 02b8 488D3C04 		leaq	(%rsp,%rax), %rdi
 2412 02bc 8B7720   		movl	32(%rdi), %esi
 2413 02bf 83CE01   		orl	$1, %esi
 2414              	.LEHB58:
 2415 02c2 E8000000 		call	_ZNSt9basic_iosIcSt11char_traitsIcEE5clearESt12_Ios_Iostate
 2415      00
 2416              	.LEHE58:
 2417 02c7 E919FFFF 		jmp	.L296
 2417      FF
 2418              	.L315:
 2419 02cc E8000000 		call	__stack_chk_fail
 2419      00
 2420              	.L302:
 2421 02d1 4889C3   		movq	%rax, %rbx
 2422 02d4 EB14     		jmp	.L292
 2423              	.L303:
 2424 02d6 4889C3   		movq	%rax, %rbx
 2425 02d9 EB05     		jmp	.L291
 2426              	.L301:
 2427 02db 4889C3   		movq	%rax, %rbx
 2428 02de EB2B     		jmp	.L299
 2429              	.L291:
 2430 02e0 488D7C24 		leaq	8(%rsp), %rdi
 2430      08
 2431 02e5 E8000000 		call	_ZNSt7__cxx1115basic_stringbufIcSt11char_traitsIcESaIcEED1Ev
 2431      00
 2432              	.L292:
 2433 02ea 488DBC24 		leaq	144(%rsp), %rdi
 2433      90000000 
 2434 02f2 48C78424 		movq	$_ZTVSt9basic_iosIcSt11char_traitsIcEE+16, 144(%rsp)
 2434      90000000 
 2434      00000000 
 2435 02fe E8000000 		call	_ZNSt8ios_baseD2Ev
 2435      00
 2436 0303 4889DF   		movq	%rbx, %rdi
 2437              	.LEHB59:
 2438 0306 E8000000 		call	_Unwind_Resume
 2438      00
 2439              	.LEHE59:
 2440              	.L299:
 2441 030b 4889E7   		movq	%rsp, %rdi
 2442 030e E8000000 		call	_ZN8UnitTest15MemoryOutStreamD1Ev
 2442      00
 2443 0313 4889DF   		movq	%rbx, %rdi
 2444              	.LEHB60:
 2445 0316 E8000000 		call	_Unwind_Resume
 2445      00
 2446              	.LEHE60:
 2447              		.cfi_endproc
 2448              	.LFE1486:
 2449              		.section	.gcc_except_table
 2450              	.LLSDA1486:
 2451 016c FF       		.byte	0xff
 2452 016d FF       		.byte	0xff
 2453 016e 01       		.byte	0x1
 2454 016f 2B       		.uleb128 .LLSDACSE1486-.LLSDACSB1486
 2455              	.LLSDACSB1486:
 2456 0170 34       		.uleb128 .LEHB53-.LFB1486
 2457 0171 05       		.uleb128 .LEHE53-.LEHB53
 2458 0172 00       		.uleb128 0
 2459 0173 00       		.uleb128 0
 2460 0174 DD01     		.uleb128 .LEHB54-.LFB1486
 2461 0176 05       		.uleb128 .LEHE54-.LEHB54
 2462 0177 D105     		.uleb128 .L302-.LFB1486
 2463 0179 00       		.uleb128 0
 2464 017a F902     		.uleb128 .LEHB55-.LFB1486
 2465 017c 05       		.uleb128 .LEHE55-.LEHB55
 2466 017d D605     		.uleb128 .L303-.LFB1486
 2467 017f 00       		.uleb128 0
 2468 0180 C103     		.uleb128 .LEHB56-.LFB1486
 2469 0182 5B       		.uleb128 .LEHE56-.LEHB56
 2470 0183 DB05     		.uleb128 .L301-.LFB1486
 2471 0185 00       		.uleb128 0
 2472 0186 9F05     		.uleb128 .LEHB57-.LFB1486
 2473 0188 05       		.uleb128 .LEHE57-.LEHB57
 2474 0189 00       		.uleb128 0
 2475 018a 00       		.uleb128 0
 2476 018b C205     		.uleb128 .LEHB58-.LFB1486
 2477 018d 05       		.uleb128 .LEHE58-.LEHB58
 2478 018e DB05     		.uleb128 .L301-.LFB1486
 2479 0190 00       		.uleb128 0
 2480 0191 8606     		.uleb128 .LEHB59-.LFB1486
 2481 0193 05       		.uleb128 .LEHE59-.LEHB59
 2482 0194 00       		.uleb128 0
 2483 0195 00       		.uleb128 0
 2484 0196 9606     		.uleb128 .LEHB60-.LFB1486
 2485 0198 05       		.uleb128 .LEHE60-.LEHB60
 2486 0199 00       		.uleb128 0
 2487 019a 00       		.uleb128 0
 2488              	.LLSDACSE1486:
 2489              		.section	.text._ZN8UnitTest10CheckEqualIPKcNSt7__cxx1112basic_stringIcSt11char_traitsIcESaIcEEEEEv
 2491              		.section	.text.unlikely._ZN8UnitTest10CheckEqualIPKcNSt7__cxx1112basic_stringIcSt11char_traitsIcES
 2492              	.LCOLDE41:
 2493              		.section	.text._ZN8UnitTest10CheckEqualIPKcNSt7__cxx1112basic_stringIcSt11char_traitsIcESaIcEEEEEv
 2494              	.LHOTE41:
 2495              		.section	.rodata.str1.1
 2496              	.LC42:
 2497 0095 6661696C 		.string	"fail.h"
 2497      2E6800
 2498              	.LC43:
 2499 009c 73756974 		.string	"suite"
 2499      6500
 2500              	.LC44:
 2501 00a2 4661696C 		.string	"FailedTest"
 2501      65645465 
 2501      737400
 2502              	.LC45:
 2503 00ad 65787065 		.string	"expected 1 but was 2"
 2503      63746564 
 2503      20312062 
 2503      75742077 
 2503      61732032 
 2504              	.LC46:
 2505 00c2 65787065 		.string	"expected one but was two"
 2505      63746564 
 2505      206F6E65 
 2505      20627574 
 2505      20776173 
 2506              		.section	.rodata.str1.8
 2507 012e 0000     		.align 8
 2508              	.LC49:
 2509 0130 3C3F786D 		.ascii	"<?xml version=\"1.0\""
 2509      6C207665 
 2509      7273696F 
 2509      6E3D2231 
 2509      2E3022
 2510 0143 3F3E3C75 		.string	"?><unittest-results tests=\"1\" failedtests=\"1\" failures=\"2\" time=\"1.1\"><test suite
 2510      6E697474 
 2510      6573742D 
 2510      72657375 
 2510      6C747320 
 2511 0244 00000000 		.align 8
 2512              	.LC50:
 2513 0248 556E6861 		.string	"Unhandled exception in CHECK_EQUAL(expected, output.str())"
 2513      6E646C65 
 2513      64206578 
 2513      63657074 
 2513      696F6E20 
 2514              		.section	.text.unlikely
 2515              	.LCOLDB51:
 2516              		.text
 2517              	.LHOTB51:
 2518 1073 0F1F0066 		.p2align 4,,15
 2518      2E0F1F84 
 2518      00000000 
 2518      00
 2520              	_ZN8UnitTest11ExecuteTestIN12_GLOBAL__N_144XmlTestReporterFixtureMultipleFailuresHelperEEEvRT_RKNS_
 2521              	.LFB1724:
 2522              		.cfi_startproc
 2523              		.cfi_personality 0x3,__gxx_personality_v0
 2524              		.cfi_lsda 0x3,.LLSDA1724
 2525 1080 4154     		pushq	%r12
 2526              		.cfi_def_cfa_offset 16
 2527              		.cfi_offset 12, -16
 2528 1082 55       		pushq	%rbp
 2529              		.cfi_def_cfa_offset 24
 2530              		.cfi_offset 6, -24
 2531 1083 53       		pushq	%rbx
 2532              		.cfi_def_cfa_offset 32
 2533              		.cfi_offset 3, -32
 2534 1084 4889F3   		movq	%rsi, %rbx
 2535 1087 4881EC40 		subq	$1856, %rsp
 2535      070000
 2536              		.cfi_def_cfa_offset 1888
 2537 108e 48893C24 		movq	%rdi, (%rsp)
 2538 1092 48897424 		movq	%rsi, 8(%rsp)
 2538      08
 2539 1097 64488B04 		movq	%fs:40, %rax
 2539      25280000 
 2539      00
 2540 10a0 48898424 		movq	%rax, 1848(%rsp)
 2540      38070000 
 2541 10a8 31C0     		xorl	%eax, %eax
 2542              	.LEHB61:
 2543 10aa E8000000 		call	_ZN8UnitTest11CurrentTest7DetailsEv
 2543      00
 2544              	.LEHE61:
 2545 10af 488DBC24 		leaq	720(%rsp), %rdi
 2545      D0020000 
 2546 10b7 488918   		movq	%rbx, (%rax)
 2547              	.LEHB62:
 2548 10ba E8000000 		call	_ZN8UnitTest16SignalTranslatorC1Ev
 2548      00
 2549              	.LEHE62:
 2550 10bf 488B3D00 		movq	_ZN8UnitTest16SignalTranslator12s_jumpTargetE(%rip), %rdi
 2550      000000
 2551 10c6 BE010000 		movl	$1, %esi
 2551      00
 2552 10cb E8000000 		call	__sigsetjmp
 2552      00
 2553 10d0 85C0     		testl	%eax, %eax
 2554 10d2 0F853801 		jne	.L403
 2554      0000
 2555 10d8 488D7C24 		leaq	80(%rsp), %rdi
 2555      50
 2556 10dd 41B80100 		movl	$1, %r8d
 2556      0000
 2557 10e3 B9000000 		movl	$.LC42, %ecx
 2557      00
 2558 10e8 BA000000 		movl	$.LC43, %edx
 2558      00
 2559 10ed BE000000 		movl	$.LC44, %esi
 2559      00
 2560              	.LEHB63:
 2561 10f2 E8000000 		call	_ZN8UnitTest11TestDetailsC1EPKcS2_S2_i
 2561      00
 2562 10f7 488D7C24 		leaq	112(%rsp), %rdi
 2562      70
 2563 10fc 41B81F00 		movl	$31, %r8d
 2563      0000
 2564 1102 B9000000 		movl	$.LC42, %ecx
 2564      00
 2565 1107 BA000000 		movl	$.LC43, %edx
 2565      00
 2566 110c BE000000 		movl	$.LC44, %esi
 2566      00
 2567 1111 E8000000 		call	_ZN8UnitTest11TestDetailsC1EPKcS2_S2_i
 2567      00
 2568 1116 488B2C24 		movq	(%rsp), %rbp
 2569 111a 488D7424 		leaq	80(%rsp), %rsi
 2569      50
 2570 111f 488D9D78 		leaq	376(%rbp), %rbx
 2570      010000
 2571 1126 4889DF   		movq	%rbx, %rdi
 2572 1129 E8000000 		call	_ZN8UnitTest20DeferredTestReporter15ReportTestStartERKNS_11TestDetailsE
 2572      00
 2573 112e 488D7424 		leaq	80(%rsp), %rsi
 2573      50
 2574 1133 BA000000 		movl	$.LC45, %edx
 2574      00
 2575 1138 4889DF   		movq	%rbx, %rdi
 2576 113b E8000000 		call	_ZN8UnitTest20DeferredTestReporter13ReportFailureERKNS_11TestDetailsEPKc
 2576      00
 2577 1140 488D7424 		leaq	112(%rsp), %rsi
 2577      70
 2578 1145 BA000000 		movl	$.LC46, %edx
 2578      00
 2579 114a 4889DF   		movq	%rbx, %rdi
 2580 114d E8000000 		call	_ZN8UnitTest20DeferredTestReporter13ReportFailureERKNS_11TestDetailsEPKc
 2580      00
 2581 1152 488D7424 		leaq	80(%rsp), %rsi
 2581      50
 2582 1157 F30F1005 		movss	.LC47(%rip), %xmm0
 2582      00000000 
 2583 115f 4889DF   		movq	%rbx, %rdi
 2584 1162 E8000000 		call	_ZN8UnitTest20DeferredTestReporter16ReportTestFinishERKNS_11TestDetailsEf
 2584      00
 2585 1167 F30F1005 		movss	.LC48(%rip), %xmm0
 2585      00000000 
 2586 116f B9020000 		movl	$2, %ecx
 2586      00
 2587 1174 BA010000 		movl	$1, %edx
 2587      00
 2588 1179 BE010000 		movl	$1, %esi
 2588      00
 2589 117e 4889DF   		movq	%rbx, %rdi
 2590 1181 E8000000 		call	_ZN8UnitTest15XmlTestReporter13ReportSummaryEiiif
 2590      00
 2591              	.LEHE63:
 2592 1186 48C74424 		movq	$.LC49, 24(%rsp)
 2592      18000000 
 2592      00
 2593              	.LEHB64:
 2594 118f E8000000 		call	_ZN8UnitTest11CurrentTest7DetailsEv
 2594      00
 2595 1194 488B30   		movq	(%rax), %rsi
 2596 1197 488DBC24 		leaq	144(%rsp), %rdi
 2596      90000000 
 2597 119f BAB40000 		movl	$180, %edx
 2597      00
 2598 11a4 E8000000 		call	_ZN8UnitTest11TestDetailsC1ERKS0_i
 2598      00
 2599              	.LEHE64:
 2600 11a9 488B5530 		movq	48(%rbp), %rdx
 2601 11ad 488D8424 		leaq	224(%rsp), %rax
 2601      E0000000 
 2602 11b5 48C78424 		movq	$0, 216(%rsp)
 2602      D8000000 
 2602      00000000 
 2603 11c1 C68424E0 		movb	$0, 224(%rsp)
 2603      00000000 
 2604 11c9 48898424 		movq	%rax, 208(%rsp)
 2604      D0000000 
 2605 11d1 4885D2   		testq	%rdx, %rdx
 2606 11d4 0F84A603 		je	.L320
 2606      0000
 2607 11da 488B5D20 		movq	32(%rbp), %rbx
 2608 11de 4839DA   		cmpq	%rbx, %rdx
 2609 11e1 0F862101 		jbe	.L321
 2609      0000
 2610 11e7 488B6D28 		movq	40(%rbp), %rbp
 2611 11eb 488D8424 		leaq	288(%rsp), %rax
 2611      20010000 
 2612 11f3 48898424 		movq	%rax, 272(%rsp)
 2612      10010000 
 2613 11fb 4885ED   		testq	%rbp, %rbp
 2614 11fe 7530     		jne	.L404
 2615 1200 BF000000 		movl	$.LC33, %edi
 2615      00
 2616              	.LEHB65:
 2617 1205 E8000000 		call	_ZSt19__throw_logic_errorPKc
 2617      00
 2618              	.LEHE65:
 2619 120a 660F1F44 		.p2align 4,,10
 2619      0000
 2620              		.p2align 3
 2621              	.L403:
 2622 1210 BF080000 		movl	$8, %edi
 2622      00
 2623 1215 E8000000 		call	__cxa_allocate_exception
 2623      00
 2624 121a 31D2     		xorl	%edx, %edx
 2625 121c 48C70000 		movq	$.LC23, (%rax)
 2625      000000
 2626 1223 BE000000 		movl	$_ZTIPKc, %esi
 2626      00
 2627 1228 4889C7   		movq	%rax, %rdi
 2628              	.LEHB66:
 2629 122b E8000000 		call	__cxa_throw
 2629      00
 2630              	.LEHE66:
 2631              		.p2align 4,,10
 2632              		.p2align 3
 2633              	.L404:
 2634 1230 4829EA   		subq	%rbp, %rdx
 2635 1233 4883FA0F 		cmpq	$15, %rdx
 2636 1237 4889D3   		movq	%rdx, %rbx
 2637 123a 48895424 		movq	%rdx, 32(%rsp)
 2637      20
 2638 123f 0F87AB01 		ja	.L405
 2638      0000
 2639 1245 4883FB01 		cmpq	$1, %rbx
 2640 1249 0F840103 		je	.L406
 2640      0000
 2641 124f 4885DB   		testq	%rbx, %rbx
 2642 1252 4889C2   		movq	%rax, %rdx
 2643 1255 0F853F03 		jne	.L407
 2643      0000
 2644              	.L326:
 2645 125b 488DB424 		leaq	272(%rsp), %rsi
 2645      10010000 
 2646 1263 488DBC24 		leaq	208(%rsp), %rdi
 2646      D0000000 
 2647 126b 48899C24 		movq	%rbx, 280(%rsp)
 2647      18010000 
 2648 1273 C6041A00 		movb	$0, (%rdx,%rbx)
 2649              	.LEHB67:
 2650 1277 E8000000 		call	_ZNSt7__cxx1112basic_stringIcSt11char_traitsIcESaIcEE9_M_assignERKS4_
 2650      00
 2651              	.LEHE67:
 2652 127c 488BBC24 		movq	272(%rsp), %rdi
 2652      10010000 
 2653 1284 488D8424 		leaq	288(%rsp), %rax
 2653      20010000 
 2654 128c 4839C7   		cmpq	%rax, %rdi
 2655 128f 7405     		je	.L328
 2656              	.L393:
 2657 1291 E8000000 		call	_ZdlPv
 2657      00
 2658              	.L328:
 2659              	.LEHB68:
 2660 1296 E8000000 		call	_ZN8UnitTest11CurrentTest7ResultsEv
 2660      00
 2661 129b 488B38   		movq	(%rax), %rdi
 2662 129e 488D8C24 		leaq	144(%rsp), %rcx
 2662      90000000 
 2663 12a6 488D9424 		leaq	208(%rsp), %rdx
 2663      D0000000 
 2664 12ae 488D7424 		leaq	24(%rsp), %rsi
 2664      18
 2665 12b3 E8000000 		call	_ZN8UnitTest10CheckEqualIPKcNSt7__cxx1112basic_stringIcSt11char_traitsIcESaIcEEEEEvRNS_11Test
 2665      00
 2666              	.LEHE68:
 2667 12b8 488BBC24 		movq	208(%rsp), %rdi
 2667      D0000000 
 2668 12c0 488D8424 		leaq	224(%rsp), %rax
 2668      E0000000 
 2669 12c8 4839C7   		cmpq	%rax, %rdi
 2670 12cb 7405     		je	.L349
 2671 12cd E8000000 		call	_ZdlPv
 2671      00
 2672              	.L349:
 2673 12d2 488DBC24 		leaq	720(%rsp), %rdi
 2673      D0020000 
 2674              	.LEHB69:
 2675 12da E8000000 		call	_ZN8UnitTest16SignalTranslatorD1Ev
 2675      00
 2676              	.LEHE69:
 2677              	.L317:
 2678 12df 488B8424 		movq	1848(%rsp), %rax
 2678      38070000 
 2679 12e7 64483304 		xorq	%fs:40, %rax
 2679      25280000 
 2679      00
 2680 12f0 0F85B402 		jne	.L408
 2680      0000
 2681 12f6 4881C440 		addq	$1856, %rsp
 2681      070000
 2682              		.cfi_remember_state
 2683              		.cfi_def_cfa_offset 32
 2684 12fd 5B       		popq	%rbx
 2685              		.cfi_def_cfa_offset 24
 2686 12fe 5D       		popq	%rbp
 2687              		.cfi_def_cfa_offset 16
 2688 12ff 415C     		popq	%r12
 2689              		.cfi_def_cfa_offset 8
 2690 1301 C3       		ret
 2691              		.p2align 4,,10
 2692 1302 660F1F44 		.p2align 3
 2692      0000
 2693              	.L321:
 2694              		.cfi_restore_state
 2695 1308 488B0424 		movq	(%rsp), %rax
 2696 130c 488B6828 		movq	40(%rax), %rbp
 2697 1310 488D8424 		leaq	256(%rsp), %rax
 2697      00010000 
 2698 1318 48898424 		movq	%rax, 240(%rsp)
 2698      F0000000 
 2699 1320 4885ED   		testq	%rbp, %rbp
 2700 1323 7513     		jne	.L332
 2701 1325 4885DB   		testq	%rbx, %rbx
 2702 1328 740E     		je	.L332
 2703 132a BF000000 		movl	$.LC33, %edi
 2703      00
 2704              	.LEHB70:
 2705 132f E8000000 		call	_ZSt19__throw_logic_errorPKc
 2705      00
 2706              	.LEHE70:
 2707              		.p2align 4,,10
 2708 1334 0F1F4000 		.p2align 3
 2709              	.L332:
 2710 1338 4829EB   		subq	%rbp, %rbx
 2711 133b 4883FB0F 		cmpq	$15, %rbx
 2712 133f 48895C24 		movq	%rbx, 40(%rsp)
 2712      28
 2713 1344 775A     		ja	.L409
 2714 1346 4883FB01 		cmpq	$1, %rbx
 2715 134a 0F841802 		je	.L410
 2715      0000
 2716 1350 4885DB   		testq	%rbx, %rbx
 2717 1353 488D8424 		leaq	256(%rsp), %rax
 2717      00010000 
 2718 135b 0F854102 		jne	.L411
 2718      0000
 2719              	.L335:
 2720 1361 488DB424 		leaq	240(%rsp), %rsi
 2720      F0000000 
 2721 1369 488DBC24 		leaq	208(%rsp), %rdi
 2721      D0000000 
 2722 1371 48899C24 		movq	%rbx, 248(%rsp)
 2722      F8000000 
 2723 1379 C6041800 		movb	$0, (%rax,%rbx)
 2724              	.LEHB71:
 2725 137d E8000000 		call	_ZNSt7__cxx1112basic_stringIcSt11char_traitsIcESaIcEE9_M_assignERKS4_
 2725      00
 2726              	.LEHE71:
 2727 1382 488BBC24 		movq	240(%rsp), %rdi
 2727      F0000000 
 2728 138a 488D8424 		leaq	256(%rsp), %rax
 2728      00010000 
 2729 1392 4839C7   		cmpq	%rax, %rdi
 2730 1395 0F85F6FE 		jne	.L393
 2730      FFFF
 2731 139b E9F6FEFF 		jmp	.L328
 2731      FF
 2732              		.p2align 4,,10
 2733              		.p2align 3
 2734              	.L409:
 2735 13a0 488D7424 		leaq	40(%rsp), %rsi
 2735      28
 2736 13a5 488DBC24 		leaq	240(%rsp), %rdi
 2736      F0000000 
 2737 13ad 31D2     		xorl	%edx, %edx
 2738              	.LEHB72:
 2739 13af E8000000 		call	_ZNSt7__cxx1112basic_stringIcSt11char_traitsIcESaIcEE9_M_createERmm
 2739      00
 2740 13b4 4889C7   		movq	%rax, %rdi
 2741 13b7 48898424 		movq	%rax, 240(%rsp)
 2741      F0000000 
 2742 13bf 488B4424 		movq	40(%rsp), %rax
 2742      28
 2743 13c4 48898424 		movq	%rax, 256(%rsp)
 2743      00010000 
 2744              	.L333:
 2745 13cc 4889DA   		movq	%rbx, %rdx
 2746 13cf 4889EE   		movq	%rbp, %rsi
 2747 13d2 E8000000 		call	memcpy
 2747      00
 2748 13d7 488B5C24 		movq	40(%rsp), %rbx
 2748      28
 2749 13dc 488B8424 		movq	240(%rsp), %rax
 2749      F0000000 
 2750 13e4 E978FFFF 		jmp	.L335
 2750      FF
 2751 13e9 0F1F8000 		.p2align 4,,10
 2751      000000
 2752              		.p2align 3
 2753              	.L405:
 2754 13f0 488D7424 		leaq	32(%rsp), %rsi
 2754      20
 2755 13f5 488DBC24 		leaq	272(%rsp), %rdi
 2755      10010000 
 2756 13fd 31D2     		xorl	%edx, %edx
 2757 13ff E8000000 		call	_ZNSt7__cxx1112basic_stringIcSt11char_traitsIcESaIcEE9_M_createERmm
 2757      00
 2758              	.LEHE72:
 2759 1404 4889C7   		movq	%rax, %rdi
 2760 1407 48898424 		movq	%rax, 272(%rsp)
 2760      10010000 
 2761 140f 488B4424 		movq	32(%rsp), %rax
 2761      20
 2762 1414 48898424 		movq	%rax, 288(%rsp)
 2762      20010000 
 2763              	.L324:
 2764 141c 4889DA   		movq	%rbx, %rdx
 2765 141f 4889EE   		movq	%rbp, %rsi
 2766 1422 E8000000 		call	memcpy
 2766      00
 2767 1427 488B5C24 		movq	32(%rsp), %rbx
 2767      20
 2768 142c 488B9424 		movq	272(%rsp), %rdx
 2768      10010000 
 2769 1434 E922FEFF 		jmp	.L326
 2769      FF
 2770              	.L379:
 2771 1439 4889C3   		movq	%rax, %rbx
 2772 143c 4889D5   		movq	%rdx, %rbp
 2773              	.L356:
 2774 143f 488DBC24 		leaq	720(%rsp), %rdi
 2774      D0020000 
 2775 1447 E8000000 		call	_ZN8UnitTest16SignalTranslatorD1Ev
 2775      00
 2776 144c 4889DF   		movq	%rbx, %rdi
 2777 144f 4889EA   		movq	%rbp, %rdx
 2778              	.L357:
 2779 1452 4883FA01 		cmpq	$1, %rdx
 2780 1456 0F840002 		je	.L359
 2780      0000
 2781 145c 4883FA02 		cmpq	$2, %rdx
 2782 1460 0F85D001 		jne	.L412
 2782      0000
 2783 1466 E8000000 		call	__cxa_begin_catch
 2783      00
 2784 146b 488DBC24 		leaq	304(%rsp), %rdi
 2784      30010000 
 2785 1473 4889C3   		movq	%rax, %rbx
 2786              	.LEHB73:
 2787 1476 E8000000 		call	_ZN8UnitTest15MemoryOutStreamC1Ev
 2787      00
 2788              	.LEHE73:
 2789 147b 488B03   		movq	(%rbx), %rax
 2790 147e 4889DF   		movq	%rbx, %rdi
 2791 1481 FF5010   		call	*16(%rax)
 2792 1484 488DBC24 		leaq	304(%rsp), %rdi
 2792      30010000 
 2793 148c BA150000 		movl	$21, %edx
 2793      00
 2794 1491 BE000000 		movl	$.LC31, %esi
 2794      00
 2795 1496 4889C3   		movq	%rax, %rbx
 2796              	.LEHB74:
 2797 1499 E8000000 		call	_ZSt16__ostream_insertIcSt11char_traitsIcEERSt13basic_ostreamIT_T0_ES6_PKS3_l
 2797      00
 2798 149e 488DBC24 		leaq	304(%rsp), %rdi
 2798      30010000 
 2799 14a6 4889DE   		movq	%rbx, %rsi
 2800 14a9 E8000000 		call	_ZStlsISt11char_traitsIcEERSt13basic_ostreamIcT_ES5_PKc
 2800      00
 2801 14ae 488DBC24 		leaq	304(%rsp), %rdi
 2801      30010000 
 2802 14b6 E8000000 		call	_ZNK8UnitTest15MemoryOutStream7GetTextEv
 2802      00
 2803 14bb 4889C3   		movq	%rax, %rbx
 2804 14be E8000000 		call	_ZN8UnitTest11CurrentTest7ResultsEv
 2804      00
 2805 14c3 488B7424 		movq	8(%rsp), %rsi
 2805      08
 2806 14c8 488B38   		movq	(%rax), %rdi
 2807 14cb 4889DA   		movq	%rbx, %rdx
 2808 14ce E8000000 		call	_ZN8UnitTest11TestResults13OnTestFailureERKNS_11TestDetailsEPKc
 2808      00
 2809              	.LEHE74:
 2810 14d3 488DBC24 		leaq	304(%rsp), %rdi
 2810      30010000 
 2811              	.LEHB75:
 2812 14db E8000000 		call	_ZN8UnitTest15MemoryOutStreamD1Ev
 2812      00
 2813              	.LEHE75:
 2814              	.L394:
 2815 14e0 E8000000 		call	__cxa_end_catch
 2815      00
 2816 14e5 E9F5FDFF 		jmp	.L317
 2816      FF
 2817              	.L383:
 2818              	.L398:
 2819 14ea 4889C3   		movq	%rax, %rbx
 2820              	.L397:
 2821 14ed 488BBC24 		movq	208(%rsp), %rdi
 2821      D0000000 
 2822 14f5 488D8424 		leaq	224(%rsp), %rax
 2822      E0000000 
 2823 14fd 4839C7   		cmpq	%rax, %rdi
 2824 1500 7405     		je	.L354
 2825 1502 E8000000 		call	_ZdlPv
 2825      00
 2826              	.L354:
 2827 1507 4889D8   		movq	%rbx, %rax
 2828              	.L346:
 2829 150a 4889C7   		movq	%rax, %rdi
 2830 150d E8000000 		call	__cxa_begin_catch
 2830      00
 2831              	.LEHB76:
 2832 1512 E8000000 		call	_ZN8UnitTest11CurrentTest7DetailsEv
 2832      00
 2833 1517 488B30   		movq	(%rax), %rsi
 2834 151a 488DBC24 		leaq	176(%rsp), %rdi
 2834      B0000000 
 2835 1522 BAB40000 		movl	$180, %edx
 2835      00
 2836 1527 E8000000 		call	_ZN8UnitTest11TestDetailsC1ERKS0_i
 2836      00
 2837 152c E8000000 		call	_ZN8UnitTest11CurrentTest7ResultsEv
 2837      00
 2838 1531 488B38   		movq	(%rax), %rdi
 2839 1534 488DB424 		leaq	176(%rsp), %rsi
 2839      B0000000 
 2840 153c BA000000 		movl	$.LC50, %edx
 2840      00
 2841 1541 E8000000 		call	_ZN8UnitTest11TestResults13OnTestFailureERKNS_11TestDetailsEPKc
 2841      00
 2842              	.LEHE76:
 2843              	.LEHB77:
 2844 1546 E8000000 		call	__cxa_end_catch
 2844      00
 2845              	.LEHE77:
 2846 154b E982FDFF 		jmp	.L349
 2846      FF
 2847              		.p2align 4,,10
 2848              		.p2align 3
 2849              	.L406:
 2850 1550 0FB65500 		movzbl	0(%rbp), %edx
 2851 1554 88942420 		movb	%dl, 288(%rsp)
 2851      010000
 2852 155b 4889C2   		movq	%rax, %rdx
 2853 155e E9F8FCFF 		jmp	.L326
 2853      FF
 2854              		.p2align 4,,10
 2855 1563 0F1F4400 		.p2align 3
 2855      00
 2856              	.L410:
 2857 1568 0FB64500 		movzbl	0(%rbp), %eax
 2858 156c 88842400 		movb	%al, 256(%rsp)
 2858      010000
 2859 1573 488D8424 		leaq	256(%rsp), %rax
 2859      00010000 
 2860 157b E9E1FDFF 		jmp	.L335
 2860      FF
 2861              		.p2align 4,,10
 2862              		.p2align 3
 2863              	.L320:
 2864 1580 488B3424 		movq	(%rsp), %rsi
 2865 1584 488DBC24 		leaq	208(%rsp), %rdi
 2865      D0000000 
 2866 158c 4883C650 		addq	$80, %rsi
 2867              	.LEHB78:
 2868 1590 E8000000 		call	_ZNSt7__cxx1112basic_stringIcSt11char_traitsIcESaIcEE9_M_assignERKS4_
 2868      00
 2869              	.LEHE78:
 2870 1595 E9FCFCFF 		jmp	.L328
 2870      FF
 2871              	.L407:
 2872 159a 4889C7   		movq	%rax, %rdi
 2873 159d E97AFEFF 		jmp	.L324
 2873      FF
 2874              	.L411:
 2875 15a2 4889C7   		movq	%rax, %rdi
 2876 15a5 E922FEFF 		jmp	.L333
 2876      FF
 2877              	.L408:
 2878 15aa E8000000 		call	__stack_chk_fail
 2878      00
 2879              	.L381:
 2880 15af E936FFFF 		jmp	.L398
 2880      FF
 2881              	.L385:
 2882 15b4 488BBC24 		movq	272(%rsp), %rdi
 2882      10010000 
 2883 15bc 4889C3   		movq	%rax, %rbx
 2884 15bf 488D8424 		leaq	288(%rsp), %rax
 2884      20010000 
 2885 15c7 4839C7   		cmpq	%rax, %rdi
 2886 15ca 0F841DFF 		je	.L397
 2886      FFFF
 2887              	.L392:
 2888 15d0 E8000000 		call	_ZdlPv
 2888      00
 2889 15d5 E913FFFF 		jmp	.L397
 2889      FF
 2890              	.L384:
 2891 15da 488BBC24 		movq	240(%rsp), %rdi
 2891      F0000000 
 2892 15e2 4889C3   		movq	%rax, %rbx
 2893 15e5 488D8424 		leaq	256(%rsp), %rax
 2893      00010000 
 2894 15ed 4839C7   		cmpq	%rax, %rdi
 2895 15f0 75DE     		jne	.L392
 2896 15f2 E9F6FEFF 		jmp	.L397
 2896      FF
 2897              	.L382:
 2898 15f7 4889C3   		movq	%rax, %rbx
 2899 15fa 4889D5   		movq	%rdx, %rbp
 2900 15fd E8000000 		call	__cxa_end_catch
 2900      00
 2901 1602 E938FEFF 		jmp	.L356
 2901      FF
 2902              	.L380:
 2903 1607 E9FEFEFF 		jmp	.L346
 2903      FF
 2904              	.L378:
 2905 160c 4889C7   		movq	%rax, %rdi
 2906 160f E93EFEFF 		jmp	.L357
 2906      FF
 2907              	.L376:
 2908 1614 488DBC24 		leaq	304(%rsp), %rdi
 2908      30010000 
 2909 161c 4889C3   		movq	%rax, %rbx
 2910 161f E8000000 		call	_ZN8UnitTest15MemoryOutStreamD1Ev
 2910      00
 2911              	.L365:
 2912 1624 E8000000 		call	__cxa_end_catch
 2912      00
 2913 1629 4889DF   		movq	%rbx, %rdi
 2914              	.LEHB79:
 2915 162c E8000000 		call	_Unwind_Resume
 2915      00
 2916              	.LEHE79:
 2917              	.L375:
 2918              	.L395:
 2919 1631 4889C3   		movq	%rax, %rbx
 2920 1634 EBEE     		jmp	.L365
 2921              	.L412:
 2922 1636 E8000000 		call	__cxa_begin_catch
 2922      00
 2923              	.LEHB80:
 2924 163b E8000000 		call	_ZN8UnitTest11CurrentTest7ResultsEv
 2924      00
 2925 1640 488B7424 		movq	8(%rsp), %rsi
 2925      08
 2926 1645 488B38   		movq	(%rax), %rdi
 2927 1648 BA000000 		movl	$.LC32, %edx
 2927      00
 2928 164d E8000000 		call	_ZN8UnitTest11TestResults13OnTestFailureERKNS_11TestDetailsEPKc
 2928      00
 2929              	.LEHE80:
 2930              	.LEHB81:
 2931 1652 E8000000 		call	__cxa_end_catch
 2931      00
 2932              	.LEHE81:
 2933 1657 E983FCFF 		jmp	.L317
 2933      FF
 2934              	.L359:
 2935 165c E8000000 		call	__cxa_begin_catch
 2935      00
 2936 1661 4889C3   		movq	%rax, %rbx
 2937 1664 488B00   		movq	(%rax), %rax
 2938 1667 4889DF   		movq	%rbx, %rdi
 2939 166a FF5010   		call	*16(%rax)
 2940 166d 4889DF   		movq	%rbx, %rdi
 2941 1670 4889C5   		movq	%rax, %rbp
 2942              	.LEHB82:
 2943 1673 E8000000 		call	_ZNK8UnitTest15AssertException10LineNumberEv
 2943      00
 2944 1678 4889DF   		movq	%rbx, %rdi
 2945 167b 4189C4   		movl	%eax, %r12d
 2946 167e E8000000 		call	_ZNK8UnitTest15AssertException8FilenameEv
 2946      00
 2947 1683 488B5424 		movq	8(%rsp), %rdx
 2947      08
 2948 1688 488D7C24 		leaq	48(%rsp), %rdi
 2948      30
 2949 168d 4589E0   		movl	%r12d, %r8d
 2950 1690 4889C1   		movq	%rax, %rcx
 2951 1693 488B7208 		movq	8(%rdx), %rsi
 2952 1697 488B12   		movq	(%rdx), %rdx
 2953 169a E8000000 		call	_ZN8UnitTest11TestDetailsC1EPKcS2_S2_i
 2953      00
 2954 169f E8000000 		call	_ZN8UnitTest11CurrentTest7ResultsEv
 2954      00
 2955 16a4 488B38   		movq	(%rax), %rdi
 2956 16a7 488D7424 		leaq	48(%rsp), %rsi
 2956      30
 2957 16ac 4889EA   		movq	%rbp, %rdx
 2958 16af E8000000 		call	_ZN8UnitTest11TestResults13OnTestFailureERKNS_11TestDetailsEPKc
 2958      00
 2959              	.LEHE82:
 2960 16b4 E927FEFF 		jmp	.L394
 2960      FF
 2961              	.L374:
 2962 16b9 4889C3   		movq	%rax, %rbx
 2963 16bc E8000000 		call	__cxa_end_catch
 2963      00
 2964 16c1 4889DF   		movq	%rbx, %rdi
 2965              	.LEHB83:
 2966 16c4 E8000000 		call	_Unwind_Resume
 2966      00
 2967              	.LEHE83:
 2968              	.L377:
 2969 16c9 E963FFFF 		jmp	.L395
 2969      FF
 2970              		.cfi_endproc
 2971              	.LFE1724:
 2972              		.section	.gcc_except_table
 2973 019b 00       		.align 4
 2974              	.LLSDA1724:
 2975 019c FF       		.byte	0xff
 2976 019d 03       		.byte	0x3
 2977 019e 9C01     		.uleb128 .LLSDATT1724-.LLSDATTD1724
 2978              	.LLSDATTD1724:
 2979 01a0 01       		.byte	0x1
 2980 01a1 8401     		.uleb128 .LLSDACSE1724-.LLSDACSB1724
 2981              	.LLSDACSB1724:
 2982 01a3 2A       		.uleb128 .LEHB61-.LFB1724
 2983 01a4 05       		.uleb128 .LEHE61-.LEHB61
 2984 01a5 00       		.uleb128 0
 2985 01a6 00       		.uleb128 0
 2986 01a7 3A       		.uleb128 .LEHB62-.LFB1724
 2987 01a8 05       		.uleb128 .LEHE62-.LEHB62
 2988 01a9 8C0B     		.uleb128 .L378-.LFB1724
 2989 01ab 05       		.uleb128 0x5
 2990 01ac 72       		.uleb128 .LEHB63-.LFB1724
 2991 01ad 9401     		.uleb128 .LEHE63-.LEHB63
 2992 01af B907     		.uleb128 .L379-.LFB1724
 2993 01b1 07       		.uleb128 0x7
 2994 01b2 8F02     		.uleb128 .LEHB64-.LFB1724
 2995 01b4 1A       		.uleb128 .LEHE64-.LEHB64
 2996 01b5 870B     		.uleb128 .L380-.LFB1724
 2997 01b7 01       		.uleb128 0x1
 2998 01b8 8503     		.uleb128 .LEHB65-.LFB1724
 2999 01ba 05       		.uleb128 .LEHE65-.LEHB65
 3000 01bb EA08     		.uleb128 .L383-.LFB1724
 3001 01bd 01       		.uleb128 0x1
 3002 01be AB03     		.uleb128 .LEHB66-.LFB1724
 3003 01c0 05       		.uleb128 .LEHE66-.LEHB66
 3004 01c1 B907     		.uleb128 .L379-.LFB1724
 3005 01c3 07       		.uleb128 0x7
 3006 01c4 F703     		.uleb128 .LEHB67-.LFB1724
 3007 01c6 05       		.uleb128 .LEHE67-.LEHB67
 3008 01c7 B40A     		.uleb128 .L385-.LFB1724
 3009 01c9 01       		.uleb128 0x1
 3010 01ca 9604     		.uleb128 .LEHB68-.LFB1724
 3011 01cc 22       		.uleb128 .LEHE68-.LEHB68
 3012 01cd AF0A     		.uleb128 .L381-.LFB1724
 3013 01cf 01       		.uleb128 0x1
 3014 01d0 DA04     		.uleb128 .LEHB69-.LFB1724
 3015 01d2 05       		.uleb128 .LEHE69-.LEHB69
 3016 01d3 8C0B     		.uleb128 .L378-.LFB1724
 3017 01d5 05       		.uleb128 0x5
 3018 01d6 AF05     		.uleb128 .LEHB70-.LFB1724
 3019 01d8 05       		.uleb128 .LEHE70-.LEHB70
 3020 01d9 EA08     		.uleb128 .L383-.LFB1724
 3021 01db 01       		.uleb128 0x1
 3022 01dc FD05     		.uleb128 .LEHB71-.LFB1724
 3023 01de 05       		.uleb128 .LEHE71-.LEHB71
 3024 01df DA0A     		.uleb128 .L384-.LFB1724
 3025 01e1 01       		.uleb128 0x1
 3026 01e2 AF06     		.uleb128 .LEHB72-.LFB1724
 3027 01e4 55       		.uleb128 .LEHE72-.LEHB72
 3028 01e5 EA08     		.uleb128 .L383-.LFB1724
 3029 01e7 01       		.uleb128 0x1
 3030 01e8 F607     		.uleb128 .LEHB73-.LFB1724
 3031 01ea 05       		.uleb128 .LEHE73-.LEHB73
 3032 01eb B10B     		.uleb128 .L375-.LFB1724
 3033 01ed 00       		.uleb128 0
 3034 01ee 9908     		.uleb128 .LEHB74-.LFB1724
 3035 01f0 3A       		.uleb128 .LEHE74-.LEHB74
 3036 01f1 940B     		.uleb128 .L376-.LFB1724
 3037 01f3 00       		.uleb128 0
 3038 01f4 DB08     		.uleb128 .LEHB75-.LFB1724
 3039 01f6 05       		.uleb128 .LEHE75-.LEHB75
 3040 01f7 B10B     		.uleb128 .L375-.LFB1724
 3041 01f9 00       		.uleb128 0
 3042 01fa 9209     		.uleb128 .LEHB76-.LFB1724
 3043 01fc 34       		.uleb128 .LEHE76-.LEHB76
 3044 01fd F70A     		.uleb128 .L382-.LFB1724
 3045 01ff 07       		.uleb128 0x7
 3046 0200 C609     		.uleb128 .LEHB77-.LFB1724
 3047 0202 05       		.uleb128 .LEHE77-.LEHB77
 3048 0203 B907     		.uleb128 .L379-.LFB1724
 3049 0205 07       		.uleb128 0x7
 3050 0206 900A     		.uleb128 .LEHB78-.LFB1724
 3051 0208 05       		.uleb128 .LEHE78-.LEHB78
 3052 0209 EA08     		.uleb128 .L383-.LFB1724
 3053 020b 01       		.uleb128 0x1
 3054 020c AC0B     		.uleb128 .LEHB79-.LFB1724
 3055 020e 05       		.uleb128 .LEHE79-.LEHB79
 3056 020f 00       		.uleb128 0
 3057 0210 00       		.uleb128 0
 3058 0211 BB0B     		.uleb128 .LEHB80-.LFB1724
 3059 0213 17       		.uleb128 .LEHE80-.LEHB80
 3060 0214 B90C     		.uleb128 .L374-.LFB1724
 3061 0216 00       		.uleb128 0
 3062 0217 D20B     		.uleb128 .LEHB81-.LFB1724
 3063 0219 05       		.uleb128 .LEHE81-.LEHB81
 3064 021a 00       		.uleb128 0
 3065 021b 00       		.uleb128 0
 3066 021c F30B     		.uleb128 .LEHB82-.LFB1724
 3067 021e 41       		.uleb128 .LEHE82-.LEHB82
 3068 021f C90C     		.uleb128 .L377-.LFB1724
 3069 0221 00       		.uleb128 0
 3070 0222 C40C     		.uleb128 .LEHB83-.LFB1724
 3071 0224 05       		.uleb128 .LEHE83-.LEHB83
 3072 0225 00       		.uleb128 0
 3073 0226 00       		.uleb128 0
 3074              	.LLSDACSE1724:
 3075 0227 03       		.byte	0x3
 3076 0228 00       		.byte	0
 3077 0229 02       		.byte	0x2
 3078 022a 7D       		.byte	0x7d
 3079 022b 01       		.byte	0x1
 3080 022c 7D       		.byte	0x7d
 3081 022d 00       		.byte	0
 3082 022e 7D       		.byte	0x7d
 3083 022f 00       		.align 4
 3084 0230 00000000 		.long	0
 3085              	
 3086 0234 00000000 		.long	_ZTISt9exception
 3087 0238 00000000 		.long	_ZTIN8UnitTest15AssertExceptionE
 3088              	.LLSDATT1724:
 3089              		.text
 3091              		.section	.text.unlikely
 3092              	.LCOLDE51:
 3093              		.text
 3094              	.LHOTE51:
 3095              		.section	.text.unlikely
 3096              		.align 2
 3097              	.LCOLDB52:
 3098              		.text
 3099              	.LHOTB52:
 3100              		.align 2
 3101 16ce 6690     		.p2align 4,,15
 3103              	_ZNK12_GLOBAL__N_142TestXmlTestReporterFixtureMultipleFailures7RunImplEv:
 3104              	.LFB1450:
 3105              		.cfi_startproc
 3106              		.cfi_personality 0x3,__gxx_personality_v0
 3107              		.cfi_lsda 0x3,.LLSDA1450
 3108 16d0 4157     		pushq	%r15
 3109              		.cfi_def_cfa_offset 16
 3110              		.cfi_offset 15, -16
 3111 16d2 4156     		pushq	%r14
 3112              		.cfi_def_cfa_offset 24
 3113              		.cfi_offset 14, -24
 3114 16d4 4989FF   		movq	%rdi, %r15
 3115 16d7 4155     		pushq	%r13
 3116              		.cfi_def_cfa_offset 32
 3117              		.cfi_offset 13, -32
 3118 16d9 4154     		pushq	%r12
 3119              		.cfi_def_cfa_offset 40
 3120              		.cfi_offset 12, -40
 3121 16db 4C8D7708 		leaq	8(%rdi), %r14
 3122 16df 55       		pushq	%rbp
 3123              		.cfi_def_cfa_offset 48
 3124              		.cfi_offset 6, -48
 3125 16e0 53       		pushq	%rbx
 3126              		.cfi_def_cfa_offset 56
 3127              		.cfi_offset 3, -56
 3128 16e1 4881ECD8 		subq	$472, %rsp
 3128      010000
 3129              		.cfi_def_cfa_offset 528
 3130 16e8 488DBC24 		leaq	144(%rsp), %rdi
 3130      90000000 
 3131 16f0 64488B04 		movq	%fs:40, %rax
 3131      25280000 
 3131      00
 3132 16f9 48898424 		movq	%rax, 456(%rsp)
 3132      C8010000 
 3133 1701 31C0     		xorl	%eax, %eax
 3134 1703 E8000000 		call	_ZNSt8ios_baseC2Ev
 3134      00
 3135 1708 488B0500 		movq	_ZTTNSt7__cxx1119basic_ostringstreamIcSt11char_traitsIcESaIcEEE+8(%rip), %rax
 3135      000000
 3136 170f C6842470 		movb	$0, 368(%rsp)
 3136      01000000 
 3137 1717 488D7C24 		leaq	32(%rsp), %rdi
 3137      20
 3138 171c 48C78424 		movq	$_ZTVSt9basic_iosIcSt11char_traitsIcEE+16, 144(%rsp)
 3138      90000000 
 3138      00000000 
 3139 1728 48C78424 		movq	$0, 360(%rsp)
 3139      68010000 
 3139      00000000 
 3140 1734 31F6     		xorl	%esi, %esi
 3141 1736 C6842471 		movb	$0, 369(%rsp)
 3141      01000000 
 3142 173e 48C78424 		movq	$0, 376(%rsp)
 3142      78010000 
 3142      00000000 
 3143 174a 480378E8 		addq	-24(%rax), %rdi
 3144 174e 48894424 		movq	%rax, 32(%rsp)
 3144      20
 3145 1753 488B0500 		movq	_ZTTNSt7__cxx1119basic_ostringstreamIcSt11char_traitsIcESaIcEEE+16(%rip), %rax
 3145      000000
 3146 175a 48C78424 		movq	$0, 384(%rsp)
 3146      80010000 
 3146      00000000 
 3147 1766 48C78424 		movq	$0, 392(%rsp)
 3147      88010000 
 3147      00000000 
 3148 1772 48C78424 		movq	$0, 400(%rsp)
 3148      90010000 
 3148      00000000 
 3149 177e 488907   		movq	%rax, (%rdi)
 3150              	.LEHB84:
 3151 1781 E8000000 		call	_ZNSt9basic_iosIcSt11char_traitsIcEE4initEPSt15basic_streambufIcS1_E
 3151      00
 3152              	.LEHE84:
 3153 1786 488D7C24 		leaq	96(%rsp), %rdi
 3153      60
 3154 178b 48C74424 		movq	$_ZTVNSt7__cxx1119basic_ostringstreamIcSt11char_traitsIcESaIcEEE+24, 32(%rsp)
 3154      20000000 
 3154      00
 3155 1794 48C78424 		movq	$_ZTVNSt7__cxx1119basic_ostringstreamIcSt11char_traitsIcESaIcEEE+64, 144(%rsp)
 3155      90000000 
 3155      00000000 
 3156 17a0 48C74424 		movq	$_ZTVSt15basic_streambufIcSt11char_traitsIcEE+16, 40(%rsp)
 3156      28000000 
 3156      00
 3157 17a9 48C74424 		movq	$0, 48(%rsp)
 3157      30000000 
 3157      00
 3158 17b2 48C74424 		movq	$0, 56(%rsp)
 3158      38000000 
 3158      00
 3159 17bb 48C74424 		movq	$0, 64(%rsp)
 3159      40000000 
 3159      00
 3160 17c4 48C74424 		movq	$0, 72(%rsp)
 3160      48000000 
 3160      00
 3161 17cd 48C74424 		movq	$0, 80(%rsp)
 3161      50000000 
 3161      00
 3162 17d6 48C74424 		movq	$0, 88(%rsp)
 3162      58000000 
 3162      00
 3163 17df E8000000 		call	_ZNSt6localeC1Ev
 3163      00
 3164 17e4 488D8424 		leaq	128(%rsp), %rax
 3164      80000000 
 3165 17ec 488D7424 		leaq	40(%rsp), %rsi
 3165      28
 3166 17f1 48C74424 		movq	$_ZTVNSt7__cxx1115basic_stringbufIcSt11char_traitsIcESaIcEEE+16, 40(%rsp)
 3166      28000000 
 3166      00
 3167 17fa C7442468 		movl	$16, 104(%rsp)
 3167      10000000 
 3168 1802 48C74424 		movq	$0, 120(%rsp)
 3168      78000000 
 3168      00
 3169 180b 48894424 		movq	%rax, 112(%rsp)
 3169      70
 3170 1810 488D4424 		leaq	32(%rsp), %rax
 3170      20
 3171 1815 C6842480 		movb	$0, 128(%rsp)
 3171      00000000 
 3172 181d 488D7870 		leaq	112(%rax), %rdi
 3173              	.LEHB85:
 3174 1821 E8000000 		call	_ZNSt9basic_iosIcSt11char_traitsIcEE4initEPSt15basic_streambufIcS1_E
 3174      00
 3175              	.LEHE85:
 3176 1826 488D4424 		leaq	32(%rsp), %rax
 3176      20
 3177 182b 488DBC24 		leaq	408(%rsp), %rdi
 3177      98010000 
 3178 1833 4889C6   		movq	%rax, %rsi
 3179              	.LEHB86:
 3180 1836 E8000000 		call	_ZN8UnitTest15XmlTestReporterC1ERSo
 3180      00
 3181              	.LEHE86:
 3182 183b 488D7C24 		leaq	32(%rsp), %rdi
 3182      20
 3183 1840 4C89F6   		movq	%r14, %rsi
 3184 1843 4C89B424 		movq	%r14, 448(%rsp)
 3184      C0010000 
 3185              	.LEHB87:
 3186 184b E830F8FF 		call	_ZN8UnitTest11ExecuteTestIN12_GLOBAL__N_144XmlTestReporterFixtureMultipleFailuresHelperEEEvRT
 3186      FF
 3187              	.LEHE87:
 3188 1850 4C8BA424 		movq	424(%rsp), %r12
 3188      A8010000 
 3189 1858 488BAC24 		movq	416(%rsp), %rbp
 3189      A0010000 
 3190 1860 48C78424 		movq	$_ZTVN8UnitTest20DeferredTestReporterE+16, 408(%rsp)
 3190      98010000 
 3190      00000000 
 3191 186c 4939EC   		cmpq	%rbp, %r12
 3192 186f 0F848600 		je	.L420
 3192      0000
 3193              		.p2align 4,,10
 3194 1875 0F1F00   		.p2align 3
 3195              	.L428:
 3196 1878 488B5D68 		movq	104(%rbp), %rbx
 3197 187c 4C8B6D60 		movq	96(%rbp), %r13
 3198 1880 4C39EB   		cmpq	%r13, %rbx
 3199 1883 7422     		je	.L421
 3200              		.p2align 4,,10
 3201 1885 0F1F00   		.p2align 3
 3202              	.L423:
 3203 1888 498B7D08 		movq	8(%r13), %rdi
 3204 188c 498D5518 		leaq	24(%r13), %rdx
 3205 1890 4839D7   		cmpq	%rdx, %rdi
 3206 1893 7405     		je	.L422
 3207 1895 E8000000 		call	_ZdlPv
 3207      00
 3208              	.L422:
 3209 189a 4983C528 		addq	$40, %r13
 3210 189e 4C39EB   		cmpq	%r13, %rbx
 3211 18a1 75E5     		jne	.L423
 3212 18a3 488B5D60 		movq	96(%rbp), %rbx
 3213              	.L421:
 3214 18a7 4885DB   		testq	%rbx, %rbx
 3215 18aa 7408     		je	.L424
 3216 18ac 4889DF   		movq	%rbx, %rdi
 3217 18af E8000000 		call	_ZdlPv
 3217      00
 3218              	.L424:
 3219 18b4 488B7D40 		movq	64(%rbp), %rdi
 3220 18b8 488D4550 		leaq	80(%rbp), %rax
 3221 18bc 4839C7   		cmpq	%rax, %rdi
 3222 18bf 7405     		je	.L425
 3223 18c1 E8000000 		call	_ZdlPv
 3223      00
 3224              	.L425:
 3225 18c6 488B7D20 		movq	32(%rbp), %rdi
 3226 18ca 488D4530 		leaq	48(%rbp), %rax
 3227 18ce 4839C7   		cmpq	%rax, %rdi
 3228 18d1 7405     		je	.L426
 3229 18d3 E8000000 		call	_ZdlPv
 3229      00
 3230              	.L426:
 3231 18d8 488B7D00 		movq	0(%rbp), %rdi
 3232 18dc 488D4510 		leaq	16(%rbp), %rax
 3233 18e0 4839C7   		cmpq	%rax, %rdi
 3234 18e3 7405     		je	.L427
 3235 18e5 E8000000 		call	_ZdlPv
 3235      00
 3236              	.L427:
 3237 18ea 4883ED80 		subq	$-128, %rbp
 3238 18ee 4939EC   		cmpq	%rbp, %r12
 3239 18f1 7585     		jne	.L428
 3240 18f3 4C8BA424 		movq	416(%rsp), %r12
 3240      A0010000 
 3241              	.L420:
 3242 18fb 4D85E4   		testq	%r12, %r12
 3243 18fe 7408     		je	.L429
 3244 1900 4C89E7   		movq	%r12, %rdi
 3245 1903 E8000000 		call	_ZdlPv
 3245      00
 3246              	.L429:
 3247 1908 488DBC24 		leaq	408(%rsp), %rdi
 3247      98010000 
 3248              	.LEHB88:
 3249 1910 E8000000 		call	_ZN8UnitTest12TestReporterD2Ev
 3249      00
 3250              	.LEHE88:
 3251 1915 488B7C24 		movq	112(%rsp), %rdi
 3251      70
 3252 191a 488D8424 		leaq	128(%rsp), %rax
 3252      80000000 
 3253 1922 48C74424 		movq	$_ZTVNSt7__cxx1119basic_ostringstreamIcSt11char_traitsIcESaIcEEE+24, 32(%rsp)
 3253      20000000 
 3253      00
 3254 192b 48C78424 		movq	$_ZTVNSt7__cxx1119basic_ostringstreamIcSt11char_traitsIcESaIcEEE+64, 144(%rsp)
 3254      90000000 
 3254      00000000 
 3255 1937 48C74424 		movq	$_ZTVNSt7__cxx1115basic_stringbufIcSt11char_traitsIcESaIcEEE+16, 40(%rsp)
 3255      28000000 
 3255      00
 3256 1940 4839C7   		cmpq	%rax, %rdi
 3257 1943 7405     		je	.L430
 3258 1945 E8000000 		call	_ZdlPv
 3258      00
 3259              	.L430:
 3260 194a 488D7C24 		leaq	96(%rsp), %rdi
 3260      60
 3261 194f 48C74424 		movq	$_ZTVSt15basic_streambufIcSt11char_traitsIcEE+16, 40(%rsp)
 3261      28000000 
 3261      00
 3262 1958 E8000000 		call	_ZNSt6localeD1Ev
 3262      00
 3263 195d 488B0500 		movq	_ZTTNSt7__cxx1119basic_ostringstreamIcSt11char_traitsIcESaIcEEE+8(%rip), %rax
 3263      000000
 3264 1964 488B0D00 		movq	_ZTTNSt7__cxx1119basic_ostringstreamIcSt11char_traitsIcESaIcEEE+16(%rip), %rcx
 3264      000000
 3265 196b 488DBC24 		leaq	144(%rsp), %rdi
 3265      90000000 
 3266 1973 488B40E8 		movq	-24(%rax), %rax
 3267 1977 48894C04 		movq	%rcx, 32(%rsp,%rax)
 3267      20
 3268 197c 48C78424 		movq	$_ZTVSt9basic_iosIcSt11char_traitsIcEE+16, 144(%rsp)
 3268      90000000 
 3268      00000000 
 3269              	.LEHB89:
 3270 1988 E8000000 		call	_ZNSt8ios_baseD2Ev
 3270      00
 3271              	.LEHE89:
 3272              	.L413:
 3273 198d 488B8424 		movq	456(%rsp), %rax
 3273      C8010000 
 3274 1995 64483304 		xorq	%fs:40, %rax
 3274      25280000 
 3274      00
 3275 199e 0F85C000 		jne	.L473
 3275      0000
 3276 19a4 4881C4D8 		addq	$472, %rsp
 3276      010000
 3277              		.cfi_remember_state
 3278              		.cfi_def_cfa_offset 56
 3279 19ab 5B       		popq	%rbx
 3280              		.cfi_def_cfa_offset 48
 3281 19ac 5D       		popq	%rbp
 3282              		.cfi_def_cfa_offset 40
 3283 19ad 415C     		popq	%r12
 3284              		.cfi_def_cfa_offset 32
 3285 19af 415D     		popq	%r13
 3286              		.cfi_def_cfa_offset 24
 3287 19b1 415E     		popq	%r14
 3288              		.cfi_def_cfa_offset 16
 3289 19b3 415F     		popq	%r15
 3290              		.cfi_def_cfa_offset 8
 3291 19b5 C3       		ret
 3292              	.L453:
 3293              		.cfi_restore_state
 3294 19b6 4889C3   		movq	%rax, %rbx
 3295 19b9 4889D5   		movq	%rdx, %rbp
 3296              	.L416:
 3297 19bc 488DBC24 		leaq	144(%rsp), %rdi
 3297      90000000 
 3298 19c4 48C78424 		movq	$_ZTVSt9basic_iosIcSt11char_traitsIcEE+16, 144(%rsp)
 3298      90000000 
 3298      00000000 
 3299 19d0 E8000000 		call	_ZNSt8ios_baseD2Ev
 3299      00
 3300 19d5 4889DF   		movq	%rbx, %rdi
 3301 19d8 4889EA   		movq	%rbp, %rdx
 3302 19db 31DB     		xorl	%ebx, %ebx
 3303              	.L417:
 3304 19dd 4883FA01 		cmpq	$1, %rdx
 3305 19e1 0F84EA00 		je	.L437
 3305      0000
 3306 19e7 4883FA02 		cmpq	$2, %rdx
 3307 19eb 0F85A400 		jne	.L474
 3307      0000
 3308 19f1 E8000000 		call	__cxa_begin_catch
 3308      00
 3309 19f6 488D7C24 		leaq	32(%rsp), %rdi
 3309      20
 3310 19fb 4889C3   		movq	%rax, %rbx
 3311              	.LEHB90:
 3312 19fe E8000000 		call	_ZN8UnitTest15MemoryOutStreamC1Ev
 3312      00
 3313              	.LEHE90:
 3314 1a03 488B03   		movq	(%rbx), %rax
 3315 1a06 4889DF   		movq	%rbx, %rdi
 3316 1a09 FF5010   		call	*16(%rax)
 3317 1a0c 488D7C24 		leaq	32(%rsp), %rdi
 3317      20
 3318 1a11 BA150000 		movl	$21, %edx
 3318      00
 3319 1a16 BE000000 		movl	$.LC31, %esi
 3319      00
 3320 1a1b 4889C3   		movq	%rax, %rbx
 3321              	.LEHB91:
 3322 1a1e E8000000 		call	_ZSt16__ostream_insertIcSt11char_traitsIcEERSt13basic_ostreamIT_T0_ES6_PKS3_l
 3322      00
 3323 1a23 488D7C24 		leaq	32(%rsp), %rdi
 3323      20
 3324 1a28 4889DE   		movq	%rbx, %rsi
 3325 1a2b E8000000 		call	_ZStlsISt11char_traitsIcEERSt13basic_ostreamIcT_ES5_PKc
 3325      00
 3326 1a30 488D7C24 		leaq	32(%rsp), %rdi
 3326      20
 3327 1a35 E8000000 		call	_ZNK8UnitTest15MemoryOutStream7GetTextEv
 3327      00
 3328 1a3a 4889C3   		movq	%rax, %rbx
 3329 1a3d E8000000 		call	_ZN8UnitTest11CurrentTest7ResultsEv
 3329      00
 3330 1a42 488B38   		movq	(%rax), %rdi
 3331 1a45 4889DA   		movq	%rbx, %rdx
 3332 1a48 4C89F6   		movq	%r14, %rsi
 3333 1a4b E8000000 		call	_ZN8UnitTest11TestResults13OnTestFailureERKNS_11TestDetailsEPKc
 3333      00
 3334              	.LEHE91:
 3335 1a50 488D7C24 		leaq	32(%rsp), %rdi
 3335      20
 3336              	.LEHB92:
 3337 1a55 E8000000 		call	_ZN8UnitTest15MemoryOutStreamD1Ev
 3337      00
 3338              	.LEHE92:
 3339              	.L468:
 3340 1a5a E8000000 		call	__cxa_end_catch
 3340      00
 3341 1a5f E929FFFF 		jmp	.L413
 3341      FF
 3342              	.L473:
 3343 1a64 E8000000 		call	__stack_chk_fail
 3343      00
 3344              	.L446:
 3345 1a69 4889C7   		movq	%rax, %rdi
 3346 1a6c BB010000 		movl	$1, %ebx
 3346      00
 3347 1a71 E967FFFF 		jmp	.L417
 3347      FF
 3348              	.L450:
 3349 1a76 488D7C24 		leaq	32(%rsp), %rdi
 3349      20
 3350 1a7b 4889C3   		movq	%rax, %rbx
 3351 1a7e E8000000 		call	_ZN8UnitTest15MemoryOutStreamD1Ev
 3351      00
 3352              	.L443:
 3353 1a83 E8000000 		call	__cxa_end_catch
 3353      00
 3354 1a88 4889DF   		movq	%rbx, %rdi
 3355              	.LEHB93:
 3356 1a8b E8000000 		call	_Unwind_Resume
 3356      00
 3357              	.LEHE93:
 3358              	.L449:
 3359              	.L469:
 3360 1a90 4889C3   		movq	%rax, %rbx
 3361 1a93 EBEE     		jmp	.L443
 3362              	.L474:
 3363 1a95 E8000000 		call	__cxa_begin_catch
 3363      00
 3364 1a9a 84DB     		testb	%bl, %bl
 3365 1a9c BA9F0000 		movl	$159, %edx
 3365      00
 3366 1aa1 4C89F6   		movq	%r14, %rsi
 3367 1aa4 4889E7   		movq	%rsp, %rdi
 3368 1aa7 0F848900 		je	.L439
 3368      0000
 3369              	.LEHB94:
 3370 1aad E8000000 		call	_ZN8UnitTest11TestDetailsC1ERKS0_i
 3370      00
 3371 1ab2 E8000000 		call	_ZN8UnitTest11CurrentTest7ResultsEv
 3371      00
 3372 1ab7 488B38   		movq	(%rax), %rdi
 3373 1aba BA000000 		movl	$.LC35, %edx
 3373      00
 3374 1abf 4889E6   		movq	%rsp, %rsi
 3375 1ac2 E8000000 		call	_ZN8UnitTest11TestResults13OnTestFailureERKNS_11TestDetailsEPKc
 3375      00
 3376              	.LEHE94:
 3377              	.L440:
 3378              	.LEHB95:
 3379 1ac7 E8000000 		call	__cxa_end_catch
 3379      00
 3380              	.LEHE95:
 3381 1acc E9BCFEFF 		jmp	.L413
 3381      FF
 3382              	.L437:
 3383 1ad1 E8000000 		call	__cxa_begin_catch
 3383      00
 3384 1ad6 4889C3   		movq	%rax, %rbx
 3385 1ad9 488B00   		movq	(%rax), %rax
 3386 1adc 4889DF   		movq	%rbx, %rdi
 3387 1adf FF5010   		call	*16(%rax)
 3388 1ae2 4889DF   		movq	%rbx, %rdi
 3389 1ae5 4889C5   		movq	%rax, %rbp
 3390              	.LEHB96:
 3391 1ae8 E8000000 		call	_ZNK8UnitTest15AssertException10LineNumberEv
 3391      00
 3392 1aed 4889DF   		movq	%rbx, %rdi
 3393 1af0 4189C4   		movl	%eax, %r12d
 3394 1af3 E8000000 		call	_ZNK8UnitTest15AssertException8FilenameEv
 3394      00
 3395 1af8 498B5708 		movq	8(%r15), %rdx
 3396 1afc 498B7710 		movq	16(%r15), %rsi
 3397 1b00 4589E0   		movl	%r12d, %r8d
 3398 1b03 4889C1   		movq	%rax, %rcx
 3399 1b06 4889E7   		movq	%rsp, %rdi
 3400 1b09 E8000000 		call	_ZN8UnitTest11TestDetailsC1EPKcS2_S2_i
 3400      00
 3401 1b0e E8000000 		call	_ZN8UnitTest11CurrentTest7ResultsEv
 3401      00
 3402 1b13 488B38   		movq	(%rax), %rdi
 3403 1b16 4889EA   		movq	%rbp, %rdx
 3404 1b19 4889E6   		movq	%rsp, %rsi
 3405 1b1c E8000000 		call	_ZN8UnitTest11TestResults13OnTestFailureERKNS_11TestDetailsEPKc
 3405      00
 3406              	.LEHE96:
 3407 1b21 E934FFFF 		jmp	.L468
 3407      FF
 3408              	.L451:
 3409 1b26 4889C3   		movq	%rax, %rbx
 3410 1b29 E8000000 		call	__cxa_end_catch
 3410      00
 3411 1b2e 4889DF   		movq	%rbx, %rdi
 3412              	.LEHB97:
 3413 1b31 E8000000 		call	_Unwind_Resume
 3413      00
 3414              	.LEHE97:
 3415              	.L439:
 3416              	.LEHB98:
 3417 1b36 E8000000 		call	_ZN8UnitTest11TestDetailsC1ERKS0_i
 3417      00
 3418 1b3b E8000000 		call	_ZN8UnitTest11CurrentTest7ResultsEv
 3418      00
 3419 1b40 488B38   		movq	(%rax), %rdi
 3420 1b43 BA000000 		movl	$.LC36, %edx
 3420      00
 3421 1b48 4889E6   		movq	%rsp, %rsi
 3422 1b4b E8000000 		call	_ZN8UnitTest11TestResults13OnTestFailureERKNS_11TestDetailsEPKc
 3422      00
 3423              	.LEHE98:
 3424 1b50 E972FFFF 		jmp	.L440
 3424      FF
 3425              	.L448:
 3426 1b55 E936FFFF 		jmp	.L469
 3426      FF
 3427              	.L455:
 3428 1b5a 488D7C24 		leaq	32(%rsp), %rdi
 3428      20
 3429 1b5f 4889C3   		movq	%rax, %rbx
 3430 1b62 4889D5   		movq	%rdx, %rbp
 3431 1b65 E8000000 		call	_ZNSt7__cxx1119basic_ostringstreamIcSt11char_traitsIcESaIcEED1Ev
 3431      00
 3432 1b6a 4889DF   		movq	%rbx, %rdi
 3433 1b6d 4889EA   		movq	%rbp, %rdx
 3434 1b70 BB010000 		movl	$1, %ebx
 3434      00
 3435 1b75 E963FEFF 		jmp	.L417
 3435      FF
 3436              	.L447:
 3437 1b7a 488D7C24 		leaq	32(%rsp), %rdi
 3437      20
 3438 1b7f 4889C3   		movq	%rax, %rbx
 3439 1b82 4889D5   		movq	%rdx, %rbp
 3440 1b85 E8000000 		call	_ZN12_GLOBAL__N_122XmlTestReporterFixtureD2Ev.constprop.46
 3440      00
 3441 1b8a 4889DF   		movq	%rbx, %rdi
 3442 1b8d 4889EA   		movq	%rbp, %rdx
 3443 1b90 BB010000 		movl	$1, %ebx
 3443      00
 3444 1b95 E943FEFF 		jmp	.L417
 3444      FF
 3445              	.L452:
 3446 1b9a 488D7C24 		leaq	32(%rsp), %rdi
 3446      20
 3447 1b9f 4889C3   		movq	%rax, %rbx
 3448 1ba2 4889D5   		movq	%rdx, %rbp
 3449 1ba5 E8000000 		call	_ZNSt7__cxx1119basic_ostringstreamIcSt11char_traitsIcESaIcEED1Ev
 3449      00
 3450 1baa 4889DF   		movq	%rbx, %rdi
 3451 1bad 4889EA   		movq	%rbp, %rdx
 3452 1bb0 31DB     		xorl	%ebx, %ebx
 3453 1bb2 E926FEFF 		jmp	.L417
 3453      FF
 3454              	.L454:
 3455 1bb7 488D7C24 		leaq	40(%rsp), %rdi
 3455      28
 3456 1bbc 4889C3   		movq	%rax, %rbx
 3457 1bbf 4889D5   		movq	%rdx, %rbp
 3458 1bc2 E8000000 		call	_ZNSt7__cxx1115basic_stringbufIcSt11char_traitsIcESaIcEED1Ev
 3458      00
 3459 1bc7 488B0500 		movq	_ZTTNSt7__cxx1119basic_ostringstreamIcSt11char_traitsIcESaIcEEE+8(%rip), %rax
 3459      000000
 3460 1bce 488B0D00 		movq	_ZTTNSt7__cxx1119basic_ostringstreamIcSt11char_traitsIcESaIcEEE+16(%rip), %rcx
 3460      000000
 3461 1bd5 488B40E8 		movq	-24(%rax), %rax
 3462 1bd9 48894C04 		movq	%rcx, 32(%rsp,%rax)
 3462      20
 3463 1bde E9D9FDFF 		jmp	.L416
 3463      FF
 3464              		.cfi_endproc
 3465              	.LFE1450:
 3466              		.section	.gcc_except_table
 3467              		.align 4
 3468              	.LLSDA1450:
 3469 023c FF       		.byte	0xff
 3470 023d 03       		.byte	0x3
 3471 023e 6D       		.uleb128 .LLSDATT1450-.LLSDATTD1450
 3472              	.LLSDATTD1450:
 3473 023f 01       		.byte	0x1
 3474 0240 57       		.uleb128 .LLSDACSE1450-.LLSDACSB1450
 3475              	.LLSDACSB1450:
 3476 0241 B101     		.uleb128 .LEHB84-.LFB1450
 3477 0243 05       		.uleb128 .LEHE84-.LEHB84
 3478 0244 E605     		.uleb128 .L453-.LFB1450
 3479 0246 07       		.uleb128 0x7
 3480 0247 D102     		.uleb128 .LEHB85-.LFB1450
 3481 0249 05       		.uleb128 .LEHE85-.LEHB85
 3482 024a E709     		.uleb128 .L454-.LFB1450
 3483 024c 07       		.uleb128 0x7
 3484 024d E602     		.uleb128 .LEHB86-.LFB1450
 3485 024f 05       		.uleb128 .LEHE86-.LEHB86
 3486 0250 CA09     		.uleb128 .L452-.LFB1450
 3487 0252 07       		.uleb128 0x7
 3488 0253 FB02     		.uleb128 .LEHB87-.LFB1450
 3489 0255 05       		.uleb128 .LEHE87-.LEHB87
 3490 0256 AA09     		.uleb128 .L447-.LFB1450
 3491 0258 07       		.uleb128 0x7
 3492 0259 C004     		.uleb128 .LEHB88-.LFB1450
 3493 025b 05       		.uleb128 .LEHE88-.LEHB88
 3494 025c 8A09     		.uleb128 .L455-.LFB1450
 3495 025e 07       		.uleb128 0x7
 3496 025f B805     		.uleb128 .LEHB89-.LFB1450
 3497 0261 05       		.uleb128 .LEHE89-.LEHB89
 3498 0262 9907     		.uleb128 .L446-.LFB1450
 3499 0264 05       		.uleb128 0x5
 3500 0265 AE06     		.uleb128 .LEHB90-.LFB1450
 3501 0267 05       		.uleb128 .LEHE90-.LEHB90
 3502 0268 C007     		.uleb128 .L449-.LFB1450
 3503 026a 00       		.uleb128 0
 3504 026b CE06     		.uleb128 .LEHB91-.LFB1450
 3505 026d 32       		.uleb128 .LEHE91-.LEHB91
 3506 026e A607     		.uleb128 .L450-.LFB1450
 3507 0270 00       		.uleb128 0
 3508 0271 8507     		.uleb128 .LEHB92-.LFB1450
 3509 0273 05       		.uleb128 .LEHE92-.LEHB92
 3510 0274 C007     		.uleb128 .L449-.LFB1450
 3511 0276 00       		.uleb128 0
 3512 0277 BB07     		.uleb128 .LEHB93-.LFB1450
 3513 0279 05       		.uleb128 .LEHE93-.LEHB93
 3514 027a 00       		.uleb128 0
 3515 027b 00       		.uleb128 0
 3516 027c DD07     		.uleb128 .LEHB94-.LFB1450
 3517 027e 1A       		.uleb128 .LEHE94-.LEHB94
 3518 027f D608     		.uleb128 .L451-.LFB1450
 3519 0281 00       		.uleb128 0
 3520 0282 F707     		.uleb128 .LEHB95-.LFB1450
 3521 0284 05       		.uleb128 .LEHE95-.LEHB95
 3522 0285 00       		.uleb128 0
 3523 0286 00       		.uleb128 0
 3524 0287 9808     		.uleb128 .LEHB96-.LFB1450
 3525 0289 39       		.uleb128 .LEHE96-.LEHB96
 3526 028a 8509     		.uleb128 .L448-.LFB1450
 3527 028c 00       		.uleb128 0
 3528 028d E108     		.uleb128 .LEHB97-.LFB1450
 3529 028f 05       		.uleb128 .LEHE97-.LEHB97
 3530 0290 00       		.uleb128 0
 3531 0291 00       		.uleb128 0
 3532 0292 E608     		.uleb128 .LEHB98-.LFB1450
 3533 0294 1A       		.uleb128 .LEHE98-.LEHB98
 3534 0295 D608     		.uleb128 .L451-.LFB1450
 3535 0297 00       		.uleb128 0
 3536              	.LLSDACSE1450:
 3537 0298 03       		.byte	0x3
 3538 0299 00       		.byte	0
 3539 029a 02       		.byte	0x2
 3540 029b 7D       		.byte	0x7d
 3541 029c 01       		.byte	0x1
 3542 029d 7D       		.byte	0x7d
 3543 029e 00       		.byte	0
 3544 029f 7D       		.byte	0x7d
 3545              		.align 4
 3546 02a0 00000000 		.long	0
 3547              	
 3548 02a4 00000000 		.long	_ZTISt9exception
 3549 02a8 00000000 		.long	_ZTIN8UnitTest15AssertExceptionE
 3550              	.LLSDATT1450:
 3551              		.text
 3553              		.section	.text.unlikely
 3554              	.LCOLDE52:
 3555              		.text
 3556              	.LHOTE52:
 3557              		.section	.rodata.str1.1
 3558              	.LC53:
 3559 00db 53756363 		.string	"SucceededTest"
 3559      65656465 
 3559      64546573 
 3559      7400
 3560              		.section	.rodata.str1.8
 3561 0283 00000000 		.align 8
 3561      00
 3562              	.LC54:
 3563 0288 3C3F786D 		.ascii	"<?xml versio"
 3563      6C207665 
 3563      7273696F 
 3564 0294 6E3D2231 		.string	"n=\"1.0\"?><unittest-results tests=\"2\" failedtests=\"1\" failures=\"1\" time=\"1.1\"><t
 3564      2E30223F 
 3564      3E3C756E 
 3564      69747465 
 3564      73742D72 
 3565              		.section	.text.unlikely
 3566              	.LCOLDB55:
 3567              		.text
 3568              	.LHOTB55:
 3569 1be3 0F1F0066 		.p2align 4,,15
 3569      2E0F1F84 
 3569      00000000 
 3569      00
 3571              	_ZN8UnitTest11ExecuteTestIN12_GLOBAL__N_151XmlTestReporterFixtureOneFailureAndOneSuccessHelperEEEvR
 3572              	.LFB1722:
 3573              		.cfi_startproc
 3574              		.cfi_personality 0x3,__gxx_personality_v0
 3575              		.cfi_lsda 0x3,.LLSDA1722
 3576 1bf0 4154     		pushq	%r12
 3577              		.cfi_def_cfa_offset 16
 3578              		.cfi_offset 12, -16
 3579 1bf2 55       		pushq	%rbp
 3580              		.cfi_def_cfa_offset 24
 3581              		.cfi_offset 6, -24
 3582 1bf3 53       		pushq	%rbx
 3583              		.cfi_def_cfa_offset 32
 3584              		.cfi_offset 3, -32
 3585 1bf4 4889F3   		movq	%rsi, %rbx
 3586 1bf7 4881EC40 		subq	$1856, %rsp
 3586      070000
 3587              		.cfi_def_cfa_offset 1888
 3588 1bfe 48893C24 		movq	%rdi, (%rsp)
 3589 1c02 48897424 		movq	%rsi, 8(%rsp)
 3589      08
 3590 1c07 64488B04 		movq	%fs:40, %rax
 3590      25280000 
 3590      00
 3591 1c10 48898424 		movq	%rax, 1848(%rsp)
 3591      38070000 
 3592 1c18 31C0     		xorl	%eax, %eax
 3593              	.LEHB99:
 3594 1c1a E8000000 		call	_ZN8UnitTest11CurrentTest7DetailsEv
 3594      00
 3595              	.LEHE99:
 3596 1c1f 488DBC24 		leaq	720(%rsp), %rdi
 3596      D0020000 
 3597 1c27 488918   		movq	%rbx, (%rax)
 3598              	.LEHB100:
 3599 1c2a E8000000 		call	_ZN8UnitTest16SignalTranslatorC1Ev
 3599      00
 3600              	.LEHE100:
 3601 1c2f 488B3D00 		movq	_ZN8UnitTest16SignalTranslator12s_jumpTargetE(%rip), %rdi
 3601      000000
 3602 1c36 BE010000 		movl	$1, %esi
 3602      00
 3603 1c3b E8000000 		call	__sigsetjmp
 3603      00
 3604 1c40 85C0     		testl	%eax, %eax
 3605 1c42 0F854801 		jne	.L561
 3605      0000
 3606 1c48 488D7C24 		leaq	80(%rsp), %rdi
 3606      50
 3607 1c4d 41B80100 		movl	$1, %r8d
 3607      0000
 3608 1c53 B9000000 		movl	$.LC42, %ecx
 3608      00
 3609 1c58 BA000000 		movl	$.LC43, %edx
 3609      00
 3610 1c5d BE000000 		movl	$.LC44, %esi
 3610      00
 3611              	.LEHB101:
 3612 1c62 E8000000 		call	_ZN8UnitTest11TestDetailsC1EPKcS2_S2_i
 3612      00
 3613 1c67 488B2C24 		movq	(%rsp), %rbp
 3614 1c6b 488D7424 		leaq	80(%rsp), %rsi
 3614      50
 3615 1c70 488D9D78 		leaq	376(%rbp), %rbx
 3615      010000
 3616 1c77 4889DF   		movq	%rbx, %rdi
 3617 1c7a E8000000 		call	_ZN8UnitTest20DeferredTestReporter15ReportTestStartERKNS_11TestDetailsE
 3617      00
 3618 1c7f 488D7424 		leaq	80(%rsp), %rsi
 3618      50
 3619 1c84 BA000000 		movl	$.LC45, %edx
 3619      00
 3620 1c89 4889DF   		movq	%rbx, %rdi
 3621 1c8c E8000000 		call	_ZN8UnitTest20DeferredTestReporter13ReportFailureERKNS_11TestDetailsEPKc
 3621      00
 3622 1c91 488D7424 		leaq	80(%rsp), %rsi
 3622      50
 3623 1c96 F30F1005 		movss	.LC47(%rip), %xmm0
 3623      00000000 
 3624 1c9e 4889DF   		movq	%rbx, %rdi
 3625 1ca1 E8000000 		call	_ZN8UnitTest20DeferredTestReporter16ReportTestFinishERKNS_11TestDetailsEf
 3625      00
 3626 1ca6 488D7C24 		leaq	112(%rsp), %rdi
 3626      70
 3627 1cab 4531C0   		xorl	%r8d, %r8d
 3628 1cae B9000000 		movl	$.LC24, %ecx
 3628      00
 3629 1cb3 BA000000 		movl	$.LC43, %edx
 3629      00
 3630 1cb8 BE000000 		movl	$.LC53, %esi
 3630      00
 3631 1cbd E8000000 		call	_ZN8UnitTest11TestDetailsC1EPKcS2_S2_i
 3631      00
 3632 1cc2 488D7424 		leaq	112(%rsp), %rsi
 3632      70
 3633 1cc7 4889DF   		movq	%rbx, %rdi
 3634 1cca E8000000 		call	_ZN8UnitTest20DeferredTestReporter15ReportTestStartERKNS_11TestDetailsE
 3634      00
 3635 1ccf 488D7424 		leaq	112(%rsp), %rsi
 3635      70
 3636 1cd4 F30F1005 		movss	.LC26(%rip), %xmm0
 3636      00000000 
 3637 1cdc 4889DF   		movq	%rbx, %rdi
 3638 1cdf E8000000 		call	_ZN8UnitTest20DeferredTestReporter16ReportTestFinishERKNS_11TestDetailsEf
 3638      00
 3639 1ce4 F30F1005 		movss	.LC48(%rip), %xmm0
 3639      00000000 
 3640 1cec B9010000 		movl	$1, %ecx
 3640      00
 3641 1cf1 BA010000 		movl	$1, %edx
 3641      00
 3642 1cf6 BE020000 		movl	$2, %esi
 3642      00
 3643 1cfb 4889DF   		movq	%rbx, %rdi
 3644 1cfe E8000000 		call	_ZN8UnitTest15XmlTestReporter13ReportSummaryEiiif
 3644      00
 3645              	.LEHE101:
 3646 1d03 48C74424 		movq	$.LC54, 24(%rsp)
 3646      18000000 
 3646      00
 3647              	.LEHB102:
 3648 1d0c E8000000 		call	_ZN8UnitTest11CurrentTest7DetailsEv
 3648      00
 3649 1d11 488B30   		movq	(%rax), %rsi
 3650 1d14 488DBC24 		leaq	144(%rsp), %rdi
 3650      90000000 
 3651 1d1c BA9C0000 		movl	$156, %edx
 3651      00
 3652 1d21 E8000000 		call	_ZN8UnitTest11TestDetailsC1ERKS0_i
 3652      00
 3653              	.LEHE102:
 3654 1d26 488B5530 		movq	48(%rbp), %rdx
 3655 1d2a 488D8424 		leaq	224(%rsp), %rax
 3655      E0000000 
 3656 1d32 48C78424 		movq	$0, 216(%rsp)
 3656      D8000000 
 3656      00000000 
 3657 1d3e C68424E0 		movb	$0, 224(%rsp)
 3657      00000000 
 3658 1d46 48898424 		movq	%rax, 208(%rsp)
 3658      D0000000 
 3659 1d4e 4885D2   		testq	%rdx, %rdx
 3660 1d51 0F84A903 		je	.L478
 3660      0000
 3661 1d57 488B5D20 		movq	32(%rbp), %rbx
 3662 1d5b 4839DA   		cmpq	%rbx, %rdx
 3663 1d5e 0F862401 		jbe	.L479
 3663      0000
 3664 1d64 488B6D28 		movq	40(%rbp), %rbp
 3665 1d68 488D8424 		leaq	288(%rsp), %rax
 3665      20010000 
 3666 1d70 48898424 		movq	%rax, 272(%rsp)
 3666      10010000 
 3667 1d78 4885ED   		testq	%rbp, %rbp
 3668 1d7b 7533     		jne	.L562
 3669 1d7d BF000000 		movl	$.LC33, %edi
 3669      00
 3670              	.LEHB103:
 3671 1d82 E8000000 		call	_ZSt19__throw_logic_errorPKc
 3671      00
 3672              	.LEHE103:
 3673 1d87 660F1F84 		.p2align 4,,10
 3673      00000000 
 3673      00
 3674              		.p2align 3
 3675              	.L561:
 3676 1d90 BF080000 		movl	$8, %edi
 3676      00
 3677 1d95 E8000000 		call	__cxa_allocate_exception
 3677      00
 3678 1d9a 31D2     		xorl	%edx, %edx
 3679 1d9c 48C70000 		movq	$.LC23, (%rax)
 3679      000000
 3680 1da3 BE000000 		movl	$_ZTIPKc, %esi
 3680      00
 3681 1da8 4889C7   		movq	%rax, %rdi
 3682              	.LEHB104:
 3683 1dab E8000000 		call	__cxa_throw
 3683      00
 3684              	.LEHE104:
 3685              		.p2align 4,,10
 3686              		.p2align 3
 3687              	.L562:
 3688 1db0 4829EA   		subq	%rbp, %rdx
 3689 1db3 4883FA0F 		cmpq	$15, %rdx
 3690 1db7 4889D3   		movq	%rdx, %rbx
 3691 1dba 48895424 		movq	%rdx, 32(%rsp)
 3691      20
 3692 1dbf 0F87AB01 		ja	.L563
 3692      0000
 3693 1dc5 4883FB01 		cmpq	$1, %rbx
 3694 1dc9 0F840103 		je	.L564
 3694      0000
 3695 1dcf 4885DB   		testq	%rbx, %rbx
 3696 1dd2 4889C2   		movq	%rax, %rdx
 3697 1dd5 0F853F03 		jne	.L565
 3697      0000
 3698              	.L484:
 3699 1ddb 488DB424 		leaq	272(%rsp), %rsi
 3699      10010000 
 3700 1de3 488DBC24 		leaq	208(%rsp), %rdi
 3700      D0000000 
 3701 1deb 48899C24 		movq	%rbx, 280(%rsp)
 3701      18010000 
 3702 1df3 C6041A00 		movb	$0, (%rdx,%rbx)
 3703              	.LEHB105:
 3704 1df7 E8000000 		call	_ZNSt7__cxx1112basic_stringIcSt11char_traitsIcESaIcEE9_M_assignERKS4_
 3704      00
 3705              	.LEHE105:
 3706 1dfc 488BBC24 		movq	272(%rsp), %rdi
 3706      10010000 
 3707 1e04 488D8424 		leaq	288(%rsp), %rax
 3707      20010000 
 3708 1e0c 4839C7   		cmpq	%rax, %rdi
 3709 1e0f 7405     		je	.L486
 3710              	.L551:
 3711 1e11 E8000000 		call	_ZdlPv
 3711      00
 3712              	.L486:
 3713              	.LEHB106:
 3714 1e16 E8000000 		call	_ZN8UnitTest11CurrentTest7ResultsEv
 3714      00
 3715 1e1b 488B38   		movq	(%rax), %rdi
 3716 1e1e 488D8C24 		leaq	144(%rsp), %rcx
 3716      90000000 
 3717 1e26 488D9424 		leaq	208(%rsp), %rdx
 3717      D0000000 
 3718 1e2e 488D7424 		leaq	24(%rsp), %rsi
 3718      18
 3719 1e33 E8000000 		call	_ZN8UnitTest10CheckEqualIPKcNSt7__cxx1112basic_stringIcSt11char_traitsIcESaIcEEEEEvRNS_11Test
 3719      00
 3720              	.LEHE106:
 3721 1e38 488BBC24 		movq	208(%rsp), %rdi
 3721      D0000000 
 3722 1e40 488D8424 		leaq	224(%rsp), %rax
 3722      E0000000 
 3723 1e48 4839C7   		cmpq	%rax, %rdi
 3724 1e4b 7405     		je	.L507
 3725 1e4d E8000000 		call	_ZdlPv
 3725      00
 3726              	.L507:
 3727 1e52 488DBC24 		leaq	720(%rsp), %rdi
 3727      D0020000 
 3728              	.LEHB107:
 3729 1e5a E8000000 		call	_ZN8UnitTest16SignalTranslatorD1Ev
 3729      00
 3730              	.LEHE107:
 3731              	.L475:
 3732 1e5f 488B8424 		movq	1848(%rsp), %rax
 3732      38070000 
 3733 1e67 64483304 		xorq	%fs:40, %rax
 3733      25280000 
 3733      00
 3734 1e70 0F85B402 		jne	.L566
 3734      0000
 3735 1e76 4881C440 		addq	$1856, %rsp
 3735      070000
 3736              		.cfi_remember_state
 3737              		.cfi_def_cfa_offset 32
 3738 1e7d 5B       		popq	%rbx
 3739              		.cfi_def_cfa_offset 24
 3740 1e7e 5D       		popq	%rbp
 3741              		.cfi_def_cfa_offset 16
 3742 1e7f 415C     		popq	%r12
 3743              		.cfi_def_cfa_offset 8
 3744 1e81 C3       		ret
 3745              		.p2align 4,,10
 3746 1e82 660F1F44 		.p2align 3
 3746      0000
 3747              	.L479:
 3748              		.cfi_restore_state
 3749 1e88 488B0424 		movq	(%rsp), %rax
 3750 1e8c 488B6828 		movq	40(%rax), %rbp
 3751 1e90 488D8424 		leaq	256(%rsp), %rax
 3751      00010000 
 3752 1e98 48898424 		movq	%rax, 240(%rsp)
 3752      F0000000 
 3753 1ea0 4885ED   		testq	%rbp, %rbp
 3754 1ea3 7513     		jne	.L490
 3755 1ea5 4885DB   		testq	%rbx, %rbx
 3756 1ea8 740E     		je	.L490
 3757 1eaa BF000000 		movl	$.LC33, %edi
 3757      00
 3758              	.LEHB108:
 3759 1eaf E8000000 		call	_ZSt19__throw_logic_errorPKc
 3759      00
 3760              	.LEHE108:
 3761              		.p2align 4,,10
 3762 1eb4 0F1F4000 		.p2align 3
 3763              	.L490:
 3764 1eb8 4829EB   		subq	%rbp, %rbx
 3765 1ebb 4883FB0F 		cmpq	$15, %rbx
 3766 1ebf 48895C24 		movq	%rbx, 40(%rsp)
 3766      28
 3767 1ec4 775A     		ja	.L567
 3768 1ec6 4883FB01 		cmpq	$1, %rbx
 3769 1eca 0F841802 		je	.L568
 3769      0000
 3770 1ed0 4885DB   		testq	%rbx, %rbx
 3771 1ed3 488D8424 		leaq	256(%rsp), %rax
 3771      00010000 
 3772 1edb 0F854102 		jne	.L569
 3772      0000
 3773              	.L493:
 3774 1ee1 488DB424 		leaq	240(%rsp), %rsi
 3774      F0000000 
 3775 1ee9 488DBC24 		leaq	208(%rsp), %rdi
 3775      D0000000 
 3776 1ef1 48899C24 		movq	%rbx, 248(%rsp)
 3776      F8000000 
 3777 1ef9 C6041800 		movb	$0, (%rax,%rbx)
 3778              	.LEHB109:
 3779 1efd E8000000 		call	_ZNSt7__cxx1112basic_stringIcSt11char_traitsIcESaIcEE9_M_assignERKS4_
 3779      00
 3780              	.LEHE109:
 3781 1f02 488BBC24 		movq	240(%rsp), %rdi
 3781      F0000000 
 3782 1f0a 488D8424 		leaq	256(%rsp), %rax
 3782      00010000 
 3783 1f12 4839C7   		cmpq	%rax, %rdi
 3784 1f15 0F85F6FE 		jne	.L551
 3784      FFFF
 3785 1f1b E9F6FEFF 		jmp	.L486
 3785      FF
 3786              		.p2align 4,,10
 3787              		.p2align 3
 3788              	.L567:
 3789 1f20 488D7424 		leaq	40(%rsp), %rsi
 3789      28
 3790 1f25 488DBC24 		leaq	240(%rsp), %rdi
 3790      F0000000 
 3791 1f2d 31D2     		xorl	%edx, %edx
 3792              	.LEHB110:
 3793 1f2f E8000000 		call	_ZNSt7__cxx1112basic_stringIcSt11char_traitsIcESaIcEE9_M_createERmm
 3793      00
 3794 1f34 4889C7   		movq	%rax, %rdi
 3795 1f37 48898424 		movq	%rax, 240(%rsp)
 3795      F0000000 
 3796 1f3f 488B4424 		movq	40(%rsp), %rax
 3796      28
 3797 1f44 48898424 		movq	%rax, 256(%rsp)
 3797      00010000 
 3798              	.L491:
 3799 1f4c 4889DA   		movq	%rbx, %rdx
 3800 1f4f 4889EE   		movq	%rbp, %rsi
 3801 1f52 E8000000 		call	memcpy
 3801      00
 3802 1f57 488B5C24 		movq	40(%rsp), %rbx
 3802      28
 3803 1f5c 488B8424 		movq	240(%rsp), %rax
 3803      F0000000 
 3804 1f64 E978FFFF 		jmp	.L493
 3804      FF
 3805 1f69 0F1F8000 		.p2align 4,,10
 3805      000000
 3806              		.p2align 3
 3807              	.L563:
 3808 1f70 488D7424 		leaq	32(%rsp), %rsi
 3808      20
 3809 1f75 488DBC24 		leaq	272(%rsp), %rdi
 3809      10010000 
 3810 1f7d 31D2     		xorl	%edx, %edx
 3811 1f7f E8000000 		call	_ZNSt7__cxx1112basic_stringIcSt11char_traitsIcESaIcEE9_M_createERmm
 3811      00
 3812              	.LEHE110:
 3813 1f84 4889C7   		movq	%rax, %rdi
 3814 1f87 48898424 		movq	%rax, 272(%rsp)
 3814      10010000 
 3815 1f8f 488B4424 		movq	32(%rsp), %rax
 3815      20
 3816 1f94 48898424 		movq	%rax, 288(%rsp)
 3816      20010000 
 3817              	.L482:
 3818 1f9c 4889DA   		movq	%rbx, %rdx
 3819 1f9f 4889EE   		movq	%rbp, %rsi
 3820 1fa2 E8000000 		call	memcpy
 3820      00
 3821 1fa7 488B5C24 		movq	32(%rsp), %rbx
 3821      20
 3822 1fac 488B9424 		movq	272(%rsp), %rdx
 3822      10010000 
 3823 1fb4 E922FEFF 		jmp	.L484
 3823      FF
 3824              	.L537:
 3825 1fb9 4889C3   		movq	%rax, %rbx
 3826 1fbc 4889D5   		movq	%rdx, %rbp
 3827              	.L514:
 3828 1fbf 488DBC24 		leaq	720(%rsp), %rdi
 3828      D0020000 
 3829 1fc7 E8000000 		call	_ZN8UnitTest16SignalTranslatorD1Ev
 3829      00
 3830 1fcc 4889DF   		movq	%rbx, %rdi
 3831 1fcf 4889EA   		movq	%rbp, %rdx
 3832              	.L515:
 3833 1fd2 4883FA01 		cmpq	$1, %rdx
 3834 1fd6 0F840002 		je	.L517
 3834      0000
 3835 1fdc 4883FA02 		cmpq	$2, %rdx
 3836 1fe0 0F85D001 		jne	.L570
 3836      0000
 3837 1fe6 E8000000 		call	__cxa_begin_catch
 3837      00
 3838 1feb 488DBC24 		leaq	304(%rsp), %rdi
 3838      30010000 
 3839 1ff3 4889C3   		movq	%rax, %rbx
 3840              	.LEHB111:
 3841 1ff6 E8000000 		call	_ZN8UnitTest15MemoryOutStreamC1Ev
 3841      00
 3842              	.LEHE111:
 3843 1ffb 488B03   		movq	(%rbx), %rax
 3844 1ffe 4889DF   		movq	%rbx, %rdi
 3845 2001 FF5010   		call	*16(%rax)
 3846 2004 488DBC24 		leaq	304(%rsp), %rdi
 3846      30010000 
 3847 200c BA150000 		movl	$21, %edx
 3847      00
 3848 2011 BE000000 		movl	$.LC31, %esi
 3848      00
 3849 2016 4889C3   		movq	%rax, %rbx
 3850              	.LEHB112:
 3851 2019 E8000000 		call	_ZSt16__ostream_insertIcSt11char_traitsIcEERSt13basic_ostreamIT_T0_ES6_PKS3_l
 3851      00
 3852 201e 488DBC24 		leaq	304(%rsp), %rdi
 3852      30010000 
 3853 2026 4889DE   		movq	%rbx, %rsi
 3854 2029 E8000000 		call	_ZStlsISt11char_traitsIcEERSt13basic_ostreamIcT_ES5_PKc
 3854      00
 3855 202e 488DBC24 		leaq	304(%rsp), %rdi
 3855      30010000 
 3856 2036 E8000000 		call	_ZNK8UnitTest15MemoryOutStream7GetTextEv
 3856      00
 3857 203b 4889C3   		movq	%rax, %rbx
 3858 203e E8000000 		call	_ZN8UnitTest11CurrentTest7ResultsEv
 3858      00
 3859 2043 488B7424 		movq	8(%rsp), %rsi
 3859      08
 3860 2048 488B38   		movq	(%rax), %rdi
 3861 204b 4889DA   		movq	%rbx, %rdx
 3862 204e E8000000 		call	_ZN8UnitTest11TestResults13OnTestFailureERKNS_11TestDetailsEPKc
 3862      00
 3863              	.LEHE112:
 3864 2053 488DBC24 		leaq	304(%rsp), %rdi
 3864      30010000 
 3865              	.LEHB113:
 3866 205b E8000000 		call	_ZN8UnitTest15MemoryOutStreamD1Ev
 3866      00
 3867              	.LEHE113:
 3868              	.L552:
 3869 2060 E8000000 		call	__cxa_end_catch
 3869      00
 3870 2065 E9F5FDFF 		jmp	.L475
 3870      FF
 3871              	.L541:
 3872              	.L556:
 3873 206a 4889C3   		movq	%rax, %rbx
 3874              	.L555:
 3875 206d 488BBC24 		movq	208(%rsp), %rdi
 3875      D0000000 
 3876 2075 488D8424 		leaq	224(%rsp), %rax
 3876      E0000000 
 3877 207d 4839C7   		cmpq	%rax, %rdi
 3878 2080 7405     		je	.L512
 3879 2082 E8000000 		call	_ZdlPv
 3879      00
 3880              	.L512:
 3881 2087 4889D8   		movq	%rbx, %rax
 3882              	.L504:
 3883 208a 4889C7   		movq	%rax, %rdi
 3884 208d E8000000 		call	__cxa_begin_catch
 3884      00
 3885              	.LEHB114:
 3886 2092 E8000000 		call	_ZN8UnitTest11CurrentTest7DetailsEv
 3886      00
 3887 2097 488B30   		movq	(%rax), %rsi
 3888 209a 488DBC24 		leaq	176(%rsp), %rdi
 3888      B0000000 
 3889 20a2 BA9C0000 		movl	$156, %edx
 3889      00
 3890 20a7 E8000000 		call	_ZN8UnitTest11TestDetailsC1ERKS0_i
 3890      00
 3891 20ac E8000000 		call	_ZN8UnitTest11CurrentTest7ResultsEv
 3891      00
 3892 20b1 488B38   		movq	(%rax), %rdi
 3893 20b4 488DB424 		leaq	176(%rsp), %rsi
 3893      B0000000 
 3894 20bc BA000000 		movl	$.LC50, %edx
 3894      00
 3895 20c1 E8000000 		call	_ZN8UnitTest11TestResults13OnTestFailureERKNS_11TestDetailsEPKc
 3895      00
 3896              	.LEHE114:
 3897              	.LEHB115:
 3898 20c6 E8000000 		call	__cxa_end_catch
 3898      00
 3899              	.LEHE115:
 3900 20cb E982FDFF 		jmp	.L507
 3900      FF
 3901              		.p2align 4,,10
 3902              		.p2align 3
 3903              	.L564:
 3904 20d0 0FB65500 		movzbl	0(%rbp), %edx
 3905 20d4 88942420 		movb	%dl, 288(%rsp)
 3905      010000
 3906 20db 4889C2   		movq	%rax, %rdx
 3907 20de E9F8FCFF 		jmp	.L484
 3907      FF
 3908              		.p2align 4,,10
 3909 20e3 0F1F4400 		.p2align 3
 3909      00
 3910              	.L568:
 3911 20e8 0FB64500 		movzbl	0(%rbp), %eax
 3912 20ec 88842400 		movb	%al, 256(%rsp)
 3912      010000
 3913 20f3 488D8424 		leaq	256(%rsp), %rax
 3913      00010000 
 3914 20fb E9E1FDFF 		jmp	.L493
 3914      FF
 3915              		.p2align 4,,10
 3916              		.p2align 3
 3917              	.L478:
 3918 2100 488B3424 		movq	(%rsp), %rsi
 3919 2104 488DBC24 		leaq	208(%rsp), %rdi
 3919      D0000000 
 3920 210c 4883C650 		addq	$80, %rsi
 3921              	.LEHB116:
 3922 2110 E8000000 		call	_ZNSt7__cxx1112basic_stringIcSt11char_traitsIcESaIcEE9_M_assignERKS4_
 3922      00
 3923              	.LEHE116:
 3924 2115 E9FCFCFF 		jmp	.L486
 3924      FF
 3925              	.L565:
 3926 211a 4889C7   		movq	%rax, %rdi
 3927 211d E97AFEFF 		jmp	.L482
 3927      FF
 3928              	.L569:
 3929 2122 4889C7   		movq	%rax, %rdi
 3930 2125 E922FEFF 		jmp	.L491
 3930      FF
 3931              	.L566:
 3932 212a E8000000 		call	__stack_chk_fail
 3932      00
 3933              	.L539:
 3934 212f E936FFFF 		jmp	.L556
 3934      FF
 3935              	.L543:
 3936 2134 488BBC24 		movq	272(%rsp), %rdi
 3936      10010000 
 3937 213c 4889C3   		movq	%rax, %rbx
 3938 213f 488D8424 		leaq	288(%rsp), %rax
 3938      20010000 
 3939 2147 4839C7   		cmpq	%rax, %rdi
 3940 214a 0F841DFF 		je	.L555
 3940      FFFF
 3941              	.L550:
 3942 2150 E8000000 		call	_ZdlPv
 3942      00
 3943 2155 E913FFFF 		jmp	.L555
 3943      FF
 3944              	.L542:
 3945 215a 488BBC24 		movq	240(%rsp), %rdi
 3945      F0000000 
 3946 2162 4889C3   		movq	%rax, %rbx
 3947 2165 488D8424 		leaq	256(%rsp), %rax
 3947      00010000 
 3948 216d 4839C7   		cmpq	%rax, %rdi
 3949 2170 75DE     		jne	.L550
 3950 2172 E9F6FEFF 		jmp	.L555
 3950      FF
 3951              	.L540:
 3952 2177 4889C3   		movq	%rax, %rbx
 3953 217a 4889D5   		movq	%rdx, %rbp
 3954 217d E8000000 		call	__cxa_end_catch
 3954      00
 3955 2182 E938FEFF 		jmp	.L514
 3955      FF
 3956              	.L538:
 3957 2187 E9FEFEFF 		jmp	.L504
 3957      FF
 3958              	.L536:
 3959 218c 4889C7   		movq	%rax, %rdi
 3960 218f E93EFEFF 		jmp	.L515
 3960      FF
 3961              	.L534:
 3962 2194 488DBC24 		leaq	304(%rsp), %rdi
 3962      30010000 
 3963 219c 4889C3   		movq	%rax, %rbx
 3964 219f E8000000 		call	_ZN8UnitTest15MemoryOutStreamD1Ev
 3964      00
 3965              	.L523:
 3966 21a4 E8000000 		call	__cxa_end_catch
 3966      00
 3967 21a9 4889DF   		movq	%rbx, %rdi
 3968              	.LEHB117:
 3969 21ac E8000000 		call	_Unwind_Resume
 3969      00
 3970              	.LEHE117:
 3971              	.L533:
 3972              	.L553:
 3973 21b1 4889C3   		movq	%rax, %rbx
 3974 21b4 EBEE     		jmp	.L523
 3975              	.L570:
 3976 21b6 E8000000 		call	__cxa_begin_catch
 3976      00
 3977              	.LEHB118:
 3978 21bb E8000000 		call	_ZN8UnitTest11CurrentTest7ResultsEv
 3978      00
 3979 21c0 488B7424 		movq	8(%rsp), %rsi
 3979      08
 3980 21c5 488B38   		movq	(%rax), %rdi
 3981 21c8 BA000000 		movl	$.LC32, %edx
 3981      00
 3982 21cd E8000000 		call	_ZN8UnitTest11TestResults13OnTestFailureERKNS_11TestDetailsEPKc
 3982      00
 3983              	.LEHE118:
 3984              	.LEHB119:
 3985 21d2 E8000000 		call	__cxa_end_catch
 3985      00
 3986              	.LEHE119:
 3987 21d7 E983FCFF 		jmp	.L475
 3987      FF
 3988              	.L517:
 3989 21dc E8000000 		call	__cxa_begin_catch
 3989      00
 3990 21e1 4889C3   		movq	%rax, %rbx
 3991 21e4 488B00   		movq	(%rax), %rax
 3992 21e7 4889DF   		movq	%rbx, %rdi
 3993 21ea FF5010   		call	*16(%rax)
 3994 21ed 4889DF   		movq	%rbx, %rdi
 3995 21f0 4889C5   		movq	%rax, %rbp
 3996              	.LEHB120:
 3997 21f3 E8000000 		call	_ZNK8UnitTest15AssertException10LineNumberEv
 3997      00
 3998 21f8 4889DF   		movq	%rbx, %rdi
 3999 21fb 4189C4   		movl	%eax, %r12d
 4000 21fe E8000000 		call	_ZNK8UnitTest15AssertException8FilenameEv
 4000      00
 4001 2203 488B5424 		movq	8(%rsp), %rdx
 4001      08
 4002 2208 488D7C24 		leaq	48(%rsp), %rdi
 4002      30
 4003 220d 4589E0   		movl	%r12d, %r8d
 4004 2210 4889C1   		movq	%rax, %rcx
 4005 2213 488B7208 		movq	8(%rdx), %rsi
 4006 2217 488B12   		movq	(%rdx), %rdx
 4007 221a E8000000 		call	_ZN8UnitTest11TestDetailsC1EPKcS2_S2_i
 4007      00
 4008 221f E8000000 		call	_ZN8UnitTest11CurrentTest7ResultsEv
 4008      00
 4009 2224 488B38   		movq	(%rax), %rdi
 4010 2227 488D7424 		leaq	48(%rsp), %rsi
 4010      30
 4011 222c 4889EA   		movq	%rbp, %rdx
 4012 222f E8000000 		call	_ZN8UnitTest11TestResults13OnTestFailureERKNS_11TestDetailsEPKc
 4012      00
 4013              	.LEHE120:
 4014 2234 E927FEFF 		jmp	.L552
 4014      FF
 4015              	.L532:
 4016 2239 4889C3   		movq	%rax, %rbx
 4017 223c E8000000 		call	__cxa_end_catch
 4017      00
 4018 2241 4889DF   		movq	%rbx, %rdi
 4019              	.LEHB121:
 4020 2244 E8000000 		call	_Unwind_Resume
 4020      00
 4021              	.LEHE121:
 4022              	.L535:
 4023 2249 E963FFFF 		jmp	.L553
 4023      FF
 4024              		.cfi_endproc
 4025              	.LFE1722:
 4026              		.section	.gcc_except_table
 4027              		.align 4
 4028              	.LLSDA1722:
 4029 02ac FF       		.byte	0xff
 4030 02ad 03       		.byte	0x3
 4031 02ae 9C01     		.uleb128 .LLSDATT1722-.LLSDATTD1722
 4032              	.LLSDATTD1722:
 4033 02b0 01       		.byte	0x1
 4034 02b1 8401     		.uleb128 .LLSDACSE1722-.LLSDACSB1722
 4035              	.LLSDACSB1722:
 4036 02b3 2A       		.uleb128 .LEHB99-.LFB1722
 4037 02b4 05       		.uleb128 .LEHE99-.LEHB99
 4038 02b5 00       		.uleb128 0
 4039 02b6 00       		.uleb128 0
 4040 02b7 3A       		.uleb128 .LEHB100-.LFB1722
 4041 02b8 05       		.uleb128 .LEHE100-.LEHB100
 4042 02b9 9C0B     		.uleb128 .L536-.LFB1722
 4043 02bb 05       		.uleb128 0x5
 4044 02bc 72       		.uleb128 .LEHB101-.LFB1722
 4045 02bd A101     		.uleb128 .LEHE101-.LEHB101
 4046 02bf C907     		.uleb128 .L537-.LFB1722
 4047 02c1 07       		.uleb128 0x7
 4048 02c2 9C02     		.uleb128 .LEHB102-.LFB1722
 4049 02c4 1A       		.uleb128 .LEHE102-.LEHB102
 4050 02c5 970B     		.uleb128 .L538-.LFB1722
 4051 02c7 01       		.uleb128 0x1
 4052 02c8 9203     		.uleb128 .LEHB103-.LFB1722
 4053 02ca 05       		.uleb128 .LEHE103-.LEHB103
 4054 02cb FA08     		.uleb128 .L541-.LFB1722
 4055 02cd 01       		.uleb128 0x1
 4056 02ce BB03     		.uleb128 .LEHB104-.LFB1722
 4057 02d0 05       		.uleb128 .LEHE104-.LEHB104
 4058 02d1 C907     		.uleb128 .L537-.LFB1722
 4059 02d3 07       		.uleb128 0x7
 4060 02d4 8704     		.uleb128 .LEHB105-.LFB1722
 4061 02d6 05       		.uleb128 .LEHE105-.LEHB105
 4062 02d7 C40A     		.uleb128 .L543-.LFB1722
 4063 02d9 01       		.uleb128 0x1
 4064 02da A604     		.uleb128 .LEHB106-.LFB1722
 4065 02dc 22       		.uleb128 .LEHE106-.LEHB106
 4066 02dd BF0A     		.uleb128 .L539-.LFB1722
 4067 02df 01       		.uleb128 0x1
 4068 02e0 EA04     		.uleb128 .LEHB107-.LFB1722
 4069 02e2 05       		.uleb128 .LEHE107-.LEHB107
 4070 02e3 9C0B     		.uleb128 .L536-.LFB1722
 4071 02e5 05       		.uleb128 0x5
 4072 02e6 BF05     		.uleb128 .LEHB108-.LFB1722
 4073 02e8 05       		.uleb128 .LEHE108-.LEHB108
 4074 02e9 FA08     		.uleb128 .L541-.LFB1722
 4075 02eb 01       		.uleb128 0x1
 4076 02ec 8D06     		.uleb128 .LEHB109-.LFB1722
 4077 02ee 05       		.uleb128 .LEHE109-.LEHB109
 4078 02ef EA0A     		.uleb128 .L542-.LFB1722
 4079 02f1 01       		.uleb128 0x1
 4080 02f2 BF06     		.uleb128 .LEHB110-.LFB1722
 4081 02f4 55       		.uleb128 .LEHE110-.LEHB110
 4082 02f5 FA08     		.uleb128 .L541-.LFB1722
 4083 02f7 01       		.uleb128 0x1
 4084 02f8 8608     		.uleb128 .LEHB111-.LFB1722
 4085 02fa 05       		.uleb128 .LEHE111-.LEHB111
 4086 02fb C10B     		.uleb128 .L533-.LFB1722
 4087 02fd 00       		.uleb128 0
 4088 02fe A908     		.uleb128 .LEHB112-.LFB1722
 4089 0300 3A       		.uleb128 .LEHE112-.LEHB112
 4090 0301 A40B     		.uleb128 .L534-.LFB1722
 4091 0303 00       		.uleb128 0
 4092 0304 EB08     		.uleb128 .LEHB113-.LFB1722
 4093 0306 05       		.uleb128 .LEHE113-.LEHB113
 4094 0307 C10B     		.uleb128 .L533-.LFB1722
 4095 0309 00       		.uleb128 0
 4096 030a A209     		.uleb128 .LEHB114-.LFB1722
 4097 030c 34       		.uleb128 .LEHE114-.LEHB114
 4098 030d 870B     		.uleb128 .L540-.LFB1722
 4099 030f 07       		.uleb128 0x7
 4100 0310 D609     		.uleb128 .LEHB115-.LFB1722
 4101 0312 05       		.uleb128 .LEHE115-.LEHB115
 4102 0313 C907     		.uleb128 .L537-.LFB1722
 4103 0315 07       		.uleb128 0x7
 4104 0316 A00A     		.uleb128 .LEHB116-.LFB1722
 4105 0318 05       		.uleb128 .LEHE116-.LEHB116
 4106 0319 FA08     		.uleb128 .L541-.LFB1722
 4107 031b 01       		.uleb128 0x1
 4108 031c BC0B     		.uleb128 .LEHB117-.LFB1722
 4109 031e 05       		.uleb128 .LEHE117-.LEHB117
 4110 031f 00       		.uleb128 0
 4111 0320 00       		.uleb128 0
 4112 0321 CB0B     		.uleb128 .LEHB118-.LFB1722
 4113 0323 17       		.uleb128 .LEHE118-.LEHB118
 4114 0324 C90C     		.uleb128 .L532-.LFB1722
 4115 0326 00       		.uleb128 0
 4116 0327 E20B     		.uleb128 .LEHB119-.LFB1722
 4117 0329 05       		.uleb128 .LEHE119-.LEHB119
 4118 032a 00       		.uleb128 0
 4119 032b 00       		.uleb128 0
 4120 032c 830C     		.uleb128 .LEHB120-.LFB1722
 4121 032e 41       		.uleb128 .LEHE120-.LEHB120
 4122 032f D90C     		.uleb128 .L535-.LFB1722
 4123 0331 00       		.uleb128 0
 4124 0332 D40C     		.uleb128 .LEHB121-.LFB1722
 4125 0334 05       		.uleb128 .LEHE121-.LEHB121
 4126 0335 00       		.uleb128 0
 4127 0336 00       		.uleb128 0
 4128              	.LLSDACSE1722:
 4129 0337 03       		.byte	0x3
 4130 0338 00       		.byte	0
 4131 0339 02       		.byte	0x2
 4132 033a 7D       		.byte	0x7d
 4133 033b 01       		.byte	0x1
 4134 033c 7D       		.byte	0x7d
 4135 033d 00       		.byte	0
 4136 033e 7D       		.byte	0x7d
 4137 033f 00       		.align 4
 4138 0340 00000000 		.long	0
 4139              	
 4140 0344 00000000 		.long	_ZTISt9exception
 4141 0348 00000000 		.long	_ZTIN8UnitTest15AssertExceptionE
 4142              	.LLSDATT1722:
 4143              		.text
 4145              		.section	.text.unlikely
 4146              	.LCOLDE55:
 4147              		.text
 4148              	.LHOTE55:
 4149              		.section	.text.unlikely
 4150              		.align 2
 4151              	.LCOLDB56:
 4152              		.text
 4153              	.LHOTB56:
 4154              		.align 2
 4155 224e 6690     		.p2align 4,,15
 4157              	_ZNK12_GLOBAL__N_149TestXmlTestReporterFixtureOneFailureAndOneSuccess7RunImplEv:
 4158              	.LFB1439:
 4159              		.cfi_startproc
 4160              		.cfi_personality 0x3,__gxx_personality_v0
 4161              		.cfi_lsda 0x3,.LLSDA1439
 4162 2250 4157     		pushq	%r15
 4163              		.cfi_def_cfa_offset 16
 4164              		.cfi_offset 15, -16
 4165 2252 4156     		pushq	%r14
 4166              		.cfi_def_cfa_offset 24
 4167              		.cfi_offset 14, -24
 4168 2254 4989FF   		movq	%rdi, %r15
 4169 2257 4155     		pushq	%r13
 4170              		.cfi_def_cfa_offset 32
 4171              		.cfi_offset 13, -32
 4172 2259 4154     		pushq	%r12
 4173              		.cfi_def_cfa_offset 40
 4174              		.cfi_offset 12, -40
 4175 225b 4C8D7708 		leaq	8(%rdi), %r14
 4176 225f 55       		pushq	%rbp
 4177              		.cfi_def_cfa_offset 48
 4178              		.cfi_offset 6, -48
 4179 2260 53       		pushq	%rbx
 4180              		.cfi_def_cfa_offset 56
 4181              		.cfi_offset 3, -56
 4182 2261 4881ECD8 		subq	$472, %rsp
 4182      010000
 4183              		.cfi_def_cfa_offset 528
 4184 2268 488DBC24 		leaq	144(%rsp), %rdi
 4184      90000000 
 4185 2270 64488B04 		movq	%fs:40, %rax
 4185      25280000 
 4185      00
 4186 2279 48898424 		movq	%rax, 456(%rsp)
 4186      C8010000 
 4187 2281 31C0     		xorl	%eax, %eax
 4188 2283 E8000000 		call	_ZNSt8ios_baseC2Ev
 4188      00
 4189 2288 488B0500 		movq	_ZTTNSt7__cxx1119basic_ostringstreamIcSt11char_traitsIcESaIcEEE+8(%rip), %rax
 4189      000000
 4190 228f C6842470 		movb	$0, 368(%rsp)
 4190      01000000 
 4191 2297 488D7C24 		leaq	32(%rsp), %rdi
 4191      20
 4192 229c 48C78424 		movq	$_ZTVSt9basic_iosIcSt11char_traitsIcEE+16, 144(%rsp)
 4192      90000000 
 4192      00000000 
 4193 22a8 48C78424 		movq	$0, 360(%rsp)
 4193      68010000 
 4193      00000000 
 4194 22b4 31F6     		xorl	%esi, %esi
 4195 22b6 C6842471 		movb	$0, 369(%rsp)
 4195      01000000 
 4196 22be 48C78424 		movq	$0, 376(%rsp)
 4196      78010000 
 4196      00000000 
 4197 22ca 480378E8 		addq	-24(%rax), %rdi
 4198 22ce 48894424 		movq	%rax, 32(%rsp)
 4198      20
 4199 22d3 488B0500 		movq	_ZTTNSt7__cxx1119basic_ostringstreamIcSt11char_traitsIcESaIcEEE+16(%rip), %rax
 4199      000000
 4200 22da 48C78424 		movq	$0, 384(%rsp)
 4200      80010000 
 4200      00000000 
 4201 22e6 48C78424 		movq	$0, 392(%rsp)
 4201      88010000 
 4201      00000000 
 4202 22f2 48C78424 		movq	$0, 400(%rsp)
 4202      90010000 
 4202      00000000 
 4203 22fe 488907   		movq	%rax, (%rdi)
 4204              	.LEHB122:
 4205 2301 E8000000 		call	_ZNSt9basic_iosIcSt11char_traitsIcEE4initEPSt15basic_streambufIcS1_E
 4205      00
 4206              	.LEHE122:
 4207 2306 488D7C24 		leaq	96(%rsp), %rdi
 4207      60
 4208 230b 48C74424 		movq	$_ZTVNSt7__cxx1119basic_ostringstreamIcSt11char_traitsIcESaIcEEE+24, 32(%rsp)
 4208      20000000 
 4208      00
 4209 2314 48C78424 		movq	$_ZTVNSt7__cxx1119basic_ostringstreamIcSt11char_traitsIcESaIcEEE+64, 144(%rsp)
 4209      90000000 
 4209      00000000 
 4210 2320 48C74424 		movq	$_ZTVSt15basic_streambufIcSt11char_traitsIcEE+16, 40(%rsp)
 4210      28000000 
 4210      00
 4211 2329 48C74424 		movq	$0, 48(%rsp)
 4211      30000000 
 4211      00
 4212 2332 48C74424 		movq	$0, 56(%rsp)
 4212      38000000 
 4212      00
 4213 233b 48C74424 		movq	$0, 64(%rsp)
 4213      40000000 
 4213      00
 4214 2344 48C74424 		movq	$0, 72(%rsp)
 4214      48000000 
 4214      00
 4215 234d 48C74424 		movq	$0, 80(%rsp)
 4215      50000000 
 4215      00
 4216 2356 48C74424 		movq	$0, 88(%rsp)
 4216      58000000 
 4216      00
 4217 235f E8000000 		call	_ZNSt6localeC1Ev
 4217      00
 4218 2364 488D8424 		leaq	128(%rsp), %rax
 4218      80000000 
 4219 236c 488D7424 		leaq	40(%rsp), %rsi
 4219      28
 4220 2371 48C74424 		movq	$_ZTVNSt7__cxx1115basic_stringbufIcSt11char_traitsIcESaIcEEE+16, 40(%rsp)
 4220      28000000 
 4220      00
 4221 237a C7442468 		movl	$16, 104(%rsp)
 4221      10000000 
 4222 2382 48C74424 		movq	$0, 120(%rsp)
 4222      78000000 
 4222      00
 4223 238b 48894424 		movq	%rax, 112(%rsp)
 4223      70
 4224 2390 488D4424 		leaq	32(%rsp), %rax
 4224      20
 4225 2395 C6842480 		movb	$0, 128(%rsp)
 4225      00000000 
 4226 239d 488D7870 		leaq	112(%rax), %rdi
 4227              	.LEHB123:
 4228 23a1 E8000000 		call	_ZNSt9basic_iosIcSt11char_traitsIcEE4initEPSt15basic_streambufIcS1_E
 4228      00
 4229              	.LEHE123:
 4230 23a6 488D4424 		leaq	32(%rsp), %rax
 4230      20
 4231 23ab 488DBC24 		leaq	408(%rsp), %rdi
 4231      98010000 
 4232 23b3 4889C6   		movq	%rax, %rsi
 4233              	.LEHB124:
 4234 23b6 E8000000 		call	_ZN8UnitTest15XmlTestReporterC1ERSo
 4234      00
 4235              	.LEHE124:
 4236 23bb 488D7C24 		leaq	32(%rsp), %rdi
 4236      20
 4237 23c0 4C89F6   		movq	%r14, %rsi
 4238 23c3 4C89B424 		movq	%r14, 448(%rsp)
 4238      C0010000 
 4239              	.LEHB125:
 4240 23cb E820F8FF 		call	_ZN8UnitTest11ExecuteTestIN12_GLOBAL__N_151XmlTestReporterFixtureOneFailureAndOneSuccessHelpe
 4240      FF
 4241              	.LEHE125:
 4242 23d0 4C8BA424 		movq	424(%rsp), %r12
 4242      A8010000 
 4243 23d8 488BAC24 		movq	416(%rsp), %rbp
 4243      A0010000 
 4244 23e0 48C78424 		movq	$_ZTVN8UnitTest20DeferredTestReporterE+16, 408(%rsp)
 4244      98010000 
 4244      00000000 
 4245 23ec 4939EC   		cmpq	%rbp, %r12
 4246 23ef 0F848600 		je	.L578
 4246      0000
 4247              		.p2align 4,,10
 4248 23f5 0F1F00   		.p2align 3
 4249              	.L586:
 4250 23f8 488B5D68 		movq	104(%rbp), %rbx
 4251 23fc 4C8B6D60 		movq	96(%rbp), %r13
 4252 2400 4C39EB   		cmpq	%r13, %rbx
 4253 2403 7422     		je	.L579
 4254              		.p2align 4,,10
 4255 2405 0F1F00   		.p2align 3
 4256              	.L581:
 4257 2408 498B7D08 		movq	8(%r13), %rdi
 4258 240c 498D5518 		leaq	24(%r13), %rdx
 4259 2410 4839D7   		cmpq	%rdx, %rdi
 4260 2413 7405     		je	.L580
 4261 2415 E8000000 		call	_ZdlPv
 4261      00
 4262              	.L580:
 4263 241a 4983C528 		addq	$40, %r13
 4264 241e 4C39EB   		cmpq	%r13, %rbx
 4265 2421 75E5     		jne	.L581
 4266 2423 488B5D60 		movq	96(%rbp), %rbx
 4267              	.L579:
 4268 2427 4885DB   		testq	%rbx, %rbx
 4269 242a 7408     		je	.L582
 4270 242c 4889DF   		movq	%rbx, %rdi
 4271 242f E8000000 		call	_ZdlPv
 4271      00
 4272              	.L582:
 4273 2434 488B7D40 		movq	64(%rbp), %rdi
 4274 2438 488D4550 		leaq	80(%rbp), %rax
 4275 243c 4839C7   		cmpq	%rax, %rdi
 4276 243f 7405     		je	.L583
 4277 2441 E8000000 		call	_ZdlPv
 4277      00
 4278              	.L583:
 4279 2446 488B7D20 		movq	32(%rbp), %rdi
 4280 244a 488D4530 		leaq	48(%rbp), %rax
 4281 244e 4839C7   		cmpq	%rax, %rdi
 4282 2451 7405     		je	.L584
 4283 2453 E8000000 		call	_ZdlPv
 4283      00
 4284              	.L584:
 4285 2458 488B7D00 		movq	0(%rbp), %rdi
 4286 245c 488D4510 		leaq	16(%rbp), %rax
 4287 2460 4839C7   		cmpq	%rax, %rdi
 4288 2463 7405     		je	.L585
 4289 2465 E8000000 		call	_ZdlPv
 4289      00
 4290              	.L585:
 4291 246a 4883ED80 		subq	$-128, %rbp
 4292 246e 4939EC   		cmpq	%rbp, %r12
 4293 2471 7585     		jne	.L586
 4294 2473 4C8BA424 		movq	416(%rsp), %r12
 4294      A0010000 
 4295              	.L578:
 4296 247b 4D85E4   		testq	%r12, %r12
 4297 247e 7408     		je	.L587
 4298 2480 4C89E7   		movq	%r12, %rdi
 4299 2483 E8000000 		call	_ZdlPv
 4299      00
 4300              	.L587:
 4301 2488 488DBC24 		leaq	408(%rsp), %rdi
 4301      98010000 
 4302              	.LEHB126:
 4303 2490 E8000000 		call	_ZN8UnitTest12TestReporterD2Ev
 4303      00
 4304              	.LEHE126:
 4305 2495 488B7C24 		movq	112(%rsp), %rdi
 4305      70
 4306 249a 488D8424 		leaq	128(%rsp), %rax
 4306      80000000 
 4307 24a2 48C74424 		movq	$_ZTVNSt7__cxx1119basic_ostringstreamIcSt11char_traitsIcESaIcEEE+24, 32(%rsp)
 4307      20000000 
 4307      00
 4308 24ab 48C78424 		movq	$_ZTVNSt7__cxx1119basic_ostringstreamIcSt11char_traitsIcESaIcEEE+64, 144(%rsp)
 4308      90000000 
 4308      00000000 
 4309 24b7 48C74424 		movq	$_ZTVNSt7__cxx1115basic_stringbufIcSt11char_traitsIcESaIcEEE+16, 40(%rsp)
 4309      28000000 
 4309      00
 4310 24c0 4839C7   		cmpq	%rax, %rdi
 4311 24c3 7405     		je	.L588
 4312 24c5 E8000000 		call	_ZdlPv
 4312      00
 4313              	.L588:
 4314 24ca 488D7C24 		leaq	96(%rsp), %rdi
 4314      60
 4315 24cf 48C74424 		movq	$_ZTVSt15basic_streambufIcSt11char_traitsIcEE+16, 40(%rsp)
 4315      28000000 
 4315      00
 4316 24d8 E8000000 		call	_ZNSt6localeD1Ev
 4316      00
 4317 24dd 488B0500 		movq	_ZTTNSt7__cxx1119basic_ostringstreamIcSt11char_traitsIcESaIcEEE+8(%rip), %rax
 4317      000000
 4318 24e4 488B0D00 		movq	_ZTTNSt7__cxx1119basic_ostringstreamIcSt11char_traitsIcESaIcEEE+16(%rip), %rcx
 4318      000000
 4319 24eb 488DBC24 		leaq	144(%rsp), %rdi
 4319      90000000 
 4320 24f3 488B40E8 		movq	-24(%rax), %rax
 4321 24f7 48894C04 		movq	%rcx, 32(%rsp,%rax)
 4321      20
 4322 24fc 48C78424 		movq	$_ZTVSt9basic_iosIcSt11char_traitsIcEE+16, 144(%rsp)
 4322      90000000 
 4322      00000000 
 4323              	.LEHB127:
 4324 2508 E8000000 		call	_ZNSt8ios_baseD2Ev
 4324      00
 4325              	.LEHE127:
 4326              	.L571:
 4327 250d 488B8424 		movq	456(%rsp), %rax
 4327      C8010000 
 4328 2515 64483304 		xorq	%fs:40, %rax
 4328      25280000 
 4328      00
 4329 251e 0F85C000 		jne	.L631
 4329      0000
 4330 2524 4881C4D8 		addq	$472, %rsp
 4330      010000
 4331              		.cfi_remember_state
 4332              		.cfi_def_cfa_offset 56
 4333 252b 5B       		popq	%rbx
 4334              		.cfi_def_cfa_offset 48
 4335 252c 5D       		popq	%rbp
 4336              		.cfi_def_cfa_offset 40
 4337 252d 415C     		popq	%r12
 4338              		.cfi_def_cfa_offset 32
 4339 252f 415D     		popq	%r13
 4340              		.cfi_def_cfa_offset 24
 4341 2531 415E     		popq	%r14
 4342              		.cfi_def_cfa_offset 16
 4343 2533 415F     		popq	%r15
 4344              		.cfi_def_cfa_offset 8
 4345 2535 C3       		ret
 4346              	.L611:
 4347              		.cfi_restore_state
 4348 2536 4889C3   		movq	%rax, %rbx
 4349 2539 4889D5   		movq	%rdx, %rbp
 4350              	.L574:
 4351 253c 488DBC24 		leaq	144(%rsp), %rdi
 4351      90000000 
 4352 2544 48C78424 		movq	$_ZTVSt9basic_iosIcSt11char_traitsIcEE+16, 144(%rsp)
 4352      90000000 
 4352      00000000 
 4353 2550 E8000000 		call	_ZNSt8ios_baseD2Ev
 4353      00
 4354 2555 4889DF   		movq	%rbx, %rdi
 4355 2558 4889EA   		movq	%rbp, %rdx
 4356 255b 31DB     		xorl	%ebx, %ebx
 4357              	.L575:
 4358 255d 4883FA01 		cmpq	$1, %rdx
 4359 2561 0F84EA00 		je	.L595
 4359      0000
 4360 2567 4883FA02 		cmpq	$2, %rdx
 4361 256b 0F85A400 		jne	.L632
 4361      0000
 4362 2571 E8000000 		call	__cxa_begin_catch
 4362      00
 4363 2576 488D7C24 		leaq	32(%rsp), %rdi
 4363      20
 4364 257b 4889C3   		movq	%rax, %rbx
 4365              	.LEHB128:
 4366 257e E8000000 		call	_ZN8UnitTest15MemoryOutStreamC1Ev
 4366      00
 4367              	.LEHE128:
 4368 2583 488B03   		movq	(%rbx), %rax
 4369 2586 4889DF   		movq	%rbx, %rdi
 4370 2589 FF5010   		call	*16(%rax)
 4371 258c 488D7C24 		leaq	32(%rsp), %rdi
 4371      20
 4372 2591 BA150000 		movl	$21, %edx
 4372      00
 4373 2596 BE000000 		movl	$.LC31, %esi
 4373      00
 4374 259b 4889C3   		movq	%rax, %rbx
 4375              	.LEHB129:
 4376 259e E8000000 		call	_ZSt16__ostream_insertIcSt11char_traitsIcEERSt13basic_ostreamIT_T0_ES6_PKS3_l
 4376      00
 4377 25a3 488D7C24 		leaq	32(%rsp), %rdi
 4377      20
 4378 25a8 4889DE   		movq	%rbx, %rsi
 4379 25ab E8000000 		call	_ZStlsISt11char_traitsIcEERSt13basic_ostreamIcT_ES5_PKc
 4379      00
 4380 25b0 488D7C24 		leaq	32(%rsp), %rdi
 4380      20
 4381 25b5 E8000000 		call	_ZNK8UnitTest15MemoryOutStream7GetTextEv
 4381      00
 4382 25ba 4889C3   		movq	%rax, %rbx
 4383 25bd E8000000 		call	_ZN8UnitTest11CurrentTest7ResultsEv
 4383      00
 4384 25c2 488B38   		movq	(%rax), %rdi
 4385 25c5 4889DA   		movq	%rbx, %rdx
 4386 25c8 4C89F6   		movq	%r14, %rsi
 4387 25cb E8000000 		call	_ZN8UnitTest11TestResults13OnTestFailureERKNS_11TestDetailsEPKc
 4387      00
 4388              	.LEHE129:
 4389 25d0 488D7C24 		leaq	32(%rsp), %rdi
 4389      20
 4390              	.LEHB130:
 4391 25d5 E8000000 		call	_ZN8UnitTest15MemoryOutStreamD1Ev
 4391      00
 4392              	.LEHE130:
 4393              	.L626:
 4394 25da E8000000 		call	__cxa_end_catch
 4394      00
 4395 25df E929FFFF 		jmp	.L571
 4395      FF
 4396              	.L631:
 4397 25e4 E8000000 		call	__stack_chk_fail
 4397      00
 4398              	.L604:
 4399 25e9 4889C7   		movq	%rax, %rdi
 4400 25ec BB010000 		movl	$1, %ebx
 4400      00
 4401 25f1 E967FFFF 		jmp	.L575
 4401      FF
 4402              	.L608:
 4403 25f6 488D7C24 		leaq	32(%rsp), %rdi
 4403      20
 4404 25fb 4889C3   		movq	%rax, %rbx
 4405 25fe E8000000 		call	_ZN8UnitTest15MemoryOutStreamD1Ev
 4405      00
 4406              	.L601:
 4407 2603 E8000000 		call	__cxa_end_catch
 4407      00
 4408 2608 4889DF   		movq	%rbx, %rdi
 4409              	.LEHB131:
 4410 260b E8000000 		call	_Unwind_Resume
 4410      00
 4411              	.LEHE131:
 4412              	.L607:
 4413              	.L627:
 4414 2610 4889C3   		movq	%rax, %rbx
 4415 2613 EBEE     		jmp	.L601
 4416              	.L632:
 4417 2615 E8000000 		call	__cxa_begin_catch
 4417      00
 4418 261a 84DB     		testb	%bl, %bl
 4419 261c BA870000 		movl	$135, %edx
 4419      00
 4420 2621 4C89F6   		movq	%r14, %rsi
 4421 2624 4889E7   		movq	%rsp, %rdi
 4422 2627 0F848900 		je	.L597
 4422      0000
 4423              	.LEHB132:
 4424 262d E8000000 		call	_ZN8UnitTest11TestDetailsC1ERKS0_i
 4424      00
 4425 2632 E8000000 		call	_ZN8UnitTest11CurrentTest7ResultsEv
 4425      00
 4426 2637 488B38   		movq	(%rax), %rdi
 4427 263a BA000000 		movl	$.LC35, %edx
 4427      00
 4428 263f 4889E6   		movq	%rsp, %rsi
 4429 2642 E8000000 		call	_ZN8UnitTest11TestResults13OnTestFailureERKNS_11TestDetailsEPKc
 4429      00
 4430              	.LEHE132:
 4431              	.L598:
 4432              	.LEHB133:
 4433 2647 E8000000 		call	__cxa_end_catch
 4433      00
 4434              	.LEHE133:
 4435 264c E9BCFEFF 		jmp	.L571
 4435      FF
 4436              	.L595:
 4437 2651 E8000000 		call	__cxa_begin_catch
 4437      00
 4438 2656 4889C3   		movq	%rax, %rbx
 4439 2659 488B00   		movq	(%rax), %rax
 4440 265c 4889DF   		movq	%rbx, %rdi
 4441 265f FF5010   		call	*16(%rax)
 4442 2662 4889DF   		movq	%rbx, %rdi
 4443 2665 4889C5   		movq	%rax, %rbp
 4444              	.LEHB134:
 4445 2668 E8000000 		call	_ZNK8UnitTest15AssertException10LineNumberEv
 4445      00
 4446 266d 4889DF   		movq	%rbx, %rdi
 4447 2670 4189C4   		movl	%eax, %r12d
 4448 2673 E8000000 		call	_ZNK8UnitTest15AssertException8FilenameEv
 4448      00
 4449 2678 498B5708 		movq	8(%r15), %rdx
 4450 267c 498B7710 		movq	16(%r15), %rsi
 4451 2680 4589E0   		movl	%r12d, %r8d
 4452 2683 4889C1   		movq	%rax, %rcx
 4453 2686 4889E7   		movq	%rsp, %rdi
 4454 2689 E8000000 		call	_ZN8UnitTest11TestDetailsC1EPKcS2_S2_i
 4454      00
 4455 268e E8000000 		call	_ZN8UnitTest11CurrentTest7ResultsEv
 4455      00
 4456 2693 488B38   		movq	(%rax), %rdi
 4457 2696 4889EA   		movq	%rbp, %rdx
 4458 2699 4889E6   		movq	%rsp, %rsi
 4459 269c E8000000 		call	_ZN8UnitTest11TestResults13OnTestFailureERKNS_11TestDetailsEPKc
 4459      00
 4460              	.LEHE134:
 4461 26a1 E934FFFF 		jmp	.L626
 4461      FF
 4462              	.L609:
 4463 26a6 4889C3   		movq	%rax, %rbx
 4464 26a9 E8000000 		call	__cxa_end_catch
 4464      00
 4465 26ae 4889DF   		movq	%rbx, %rdi
 4466              	.LEHB135:
 4467 26b1 E8000000 		call	_Unwind_Resume
 4467      00
 4468              	.LEHE135:
 4469              	.L597:
 4470              	.LEHB136:
 4471 26b6 E8000000 		call	_ZN8UnitTest11TestDetailsC1ERKS0_i
 4471      00
 4472 26bb E8000000 		call	_ZN8UnitTest11CurrentTest7ResultsEv
 4472      00
 4473 26c0 488B38   		movq	(%rax), %rdi
 4474 26c3 BA000000 		movl	$.LC36, %edx
 4474      00
 4475 26c8 4889E6   		movq	%rsp, %rsi
 4476 26cb E8000000 		call	_ZN8UnitTest11TestResults13OnTestFailureERKNS_11TestDetailsEPKc
 4476      00
 4477              	.LEHE136:
 4478 26d0 E972FFFF 		jmp	.L598
 4478      FF
 4479              	.L606:
 4480 26d5 E936FFFF 		jmp	.L627
 4480      FF
 4481              	.L613:
 4482 26da 488D7C24 		leaq	32(%rsp), %rdi
 4482      20
 4483 26df 4889C3   		movq	%rax, %rbx
 4484 26e2 4889D5   		movq	%rdx, %rbp
 4485 26e5 E8000000 		call	_ZNSt7__cxx1119basic_ostringstreamIcSt11char_traitsIcESaIcEED1Ev
 4485      00
 4486 26ea 4889DF   		movq	%rbx, %rdi
 4487 26ed 4889EA   		movq	%rbp, %rdx
 4488 26f0 BB010000 		movl	$1, %ebx
 4488      00
 4489 26f5 E963FEFF 		jmp	.L575
 4489      FF
 4490              	.L605:
 4491 26fa 488D7C24 		leaq	32(%rsp), %rdi
 4491      20
 4492 26ff 4889C3   		movq	%rax, %rbx
 4493 2702 4889D5   		movq	%rdx, %rbp
 4494 2705 E8000000 		call	_ZN12_GLOBAL__N_122XmlTestReporterFixtureD2Ev.constprop.46
 4494      00
 4495 270a 4889DF   		movq	%rbx, %rdi
 4496 270d 4889EA   		movq	%rbp, %rdx
 4497 2710 BB010000 		movl	$1, %ebx
 4497      00
 4498 2715 E943FEFF 		jmp	.L575
 4498      FF
 4499              	.L610:
 4500 271a 488D7C24 		leaq	32(%rsp), %rdi
 4500      20
 4501 271f 4889C3   		movq	%rax, %rbx
 4502 2722 4889D5   		movq	%rdx, %rbp
 4503 2725 E8000000 		call	_ZNSt7__cxx1119basic_ostringstreamIcSt11char_traitsIcESaIcEED1Ev
 4503      00
 4504 272a 4889DF   		movq	%rbx, %rdi
 4505 272d 4889EA   		movq	%rbp, %rdx
 4506 2730 31DB     		xorl	%ebx, %ebx
 4507 2732 E926FEFF 		jmp	.L575
 4507      FF
 4508              	.L612:
 4509 2737 488D7C24 		leaq	40(%rsp), %rdi
 4509      28
 4510 273c 4889C3   		movq	%rax, %rbx
 4511 273f 4889D5   		movq	%rdx, %rbp
 4512 2742 E8000000 		call	_ZNSt7__cxx1115basic_stringbufIcSt11char_traitsIcESaIcEED1Ev
 4512      00
 4513 2747 488B0500 		movq	_ZTTNSt7__cxx1119basic_ostringstreamIcSt11char_traitsIcESaIcEEE+8(%rip), %rax
 4513      000000
 4514 274e 488B0D00 		movq	_ZTTNSt7__cxx1119basic_ostringstreamIcSt11char_traitsIcESaIcEEE+16(%rip), %rcx
 4514      000000
 4515 2755 488B40E8 		movq	-24(%rax), %rax
 4516 2759 48894C04 		movq	%rcx, 32(%rsp,%rax)
 4516      20
 4517 275e E9D9FDFF 		jmp	.L574
 4517      FF
 4518              		.cfi_endproc
 4519              	.LFE1439:
 4520              		.section	.gcc_except_table
 4521              		.align 4
 4522              	.LLSDA1439:
 4523 034c FF       		.byte	0xff
 4524 034d 03       		.byte	0x3
 4525 034e 6D       		.uleb128 .LLSDATT1439-.LLSDATTD1439
 4526              	.LLSDATTD1439:
 4527 034f 01       		.byte	0x1
 4528 0350 57       		.uleb128 .LLSDACSE1439-.LLSDACSB1439
 4529              	.LLSDACSB1439:
 4530 0351 B101     		.uleb128 .LEHB122-.LFB1439
 4531 0353 05       		.uleb128 .LEHE122-.LEHB122
 4532 0354 E605     		.uleb128 .L611-.LFB1439
 4533 0356 07       		.uleb128 0x7
 4534 0357 D102     		.uleb128 .LEHB123-.LFB1439
 4535 0359 05       		.uleb128 .LEHE123-.LEHB123
 4536 035a E709     		.uleb128 .L612-.LFB1439
 4537 035c 07       		.uleb128 0x7
 4538 035d E602     		.uleb128 .LEHB124-.LFB1439
 4539 035f 05       		.uleb128 .LEHE124-.LEHB124
 4540 0360 CA09     		.uleb128 .L610-.LFB1439
 4541 0362 07       		.uleb128 0x7
 4542 0363 FB02     		.uleb128 .LEHB125-.LFB1439
 4543 0365 05       		.uleb128 .LEHE125-.LEHB125
 4544 0366 AA09     		.uleb128 .L605-.LFB1439
 4545 0368 07       		.uleb128 0x7
 4546 0369 C004     		.uleb128 .LEHB126-.LFB1439
 4547 036b 05       		.uleb128 .LEHE126-.LEHB126
 4548 036c 8A09     		.uleb128 .L613-.LFB1439
 4549 036e 07       		.uleb128 0x7
 4550 036f B805     		.uleb128 .LEHB127-.LFB1439
 4551 0371 05       		.uleb128 .LEHE127-.LEHB127
 4552 0372 9907     		.uleb128 .L604-.LFB1439
 4553 0374 05       		.uleb128 0x5
 4554 0375 AE06     		.uleb128 .LEHB128-.LFB1439
 4555 0377 05       		.uleb128 .LEHE128-.LEHB128
 4556 0378 C007     		.uleb128 .L607-.LFB1439
 4557 037a 00       		.uleb128 0
 4558 037b CE06     		.uleb128 .LEHB129-.LFB1439
 4559 037d 32       		.uleb128 .LEHE129-.LEHB129
 4560 037e A607     		.uleb128 .L608-.LFB1439
 4561 0380 00       		.uleb128 0
 4562 0381 8507     		.uleb128 .LEHB130-.LFB1439
 4563 0383 05       		.uleb128 .LEHE130-.LEHB130
 4564 0384 C007     		.uleb128 .L607-.LFB1439
 4565 0386 00       		.uleb128 0
 4566 0387 BB07     		.uleb128 .LEHB131-.LFB1439
 4567 0389 05       		.uleb128 .LEHE131-.LEHB131
 4568 038a 00       		.uleb128 0
 4569 038b 00       		.uleb128 0
 4570 038c DD07     		.uleb128 .LEHB132-.LFB1439
 4571 038e 1A       		.uleb128 .LEHE132-.LEHB132
 4572 038f D608     		.uleb128 .L609-.LFB1439
 4573 0391 00       		.uleb128 0
 4574 0392 F707     		.uleb128 .LEHB133-.LFB1439
 4575 0394 05       		.uleb128 .LEHE133-.LEHB133
 4576 0395 00       		.uleb128 0
 4577 0396 00       		.uleb128 0
 4578 0397 9808     		.uleb128 .LEHB134-.LFB1439
 4579 0399 39       		.uleb128 .LEHE134-.LEHB134
 4580 039a 8509     		.uleb128 .L606-.LFB1439
 4581 039c 00       		.uleb128 0
 4582 039d E108     		.uleb128 .LEHB135-.LFB1439
 4583 039f 05       		.uleb128 .LEHE135-.LEHB135
 4584 03a0 00       		.uleb128 0
 4585 03a1 00       		.uleb128 0
 4586 03a2 E608     		.uleb128 .LEHB136-.LFB1439
 4587 03a4 1A       		.uleb128 .LEHE136-.LEHB136
 4588 03a5 D608     		.uleb128 .L609-.LFB1439
 4589 03a7 00       		.uleb128 0
 4590              	.LLSDACSE1439:
 4591 03a8 03       		.byte	0x3
 4592 03a9 00       		.byte	0
 4593 03aa 02       		.byte	0x2
 4594 03ab 7D       		.byte	0x7d
 4595 03ac 01       		.byte	0x1
 4596 03ad 7D       		.byte	0x7d
 4597 03ae 00       		.byte	0
 4598 03af 7D       		.byte	0x7d
 4599              		.align 4
 4600 03b0 00000000 		.long	0
 4601              	
 4602 03b4 00000000 		.long	_ZTISt9exception
 4603 03b8 00000000 		.long	_ZTIN8UnitTest15AssertExceptionE
 4604              	.LLSDATT1439:
 4605              		.text
 4607              		.section	.text.unlikely
 4608              	.LCOLDE56:
 4609              		.text
 4610              	.LHOTE56:
 4611              		.section	.rodata.str1.1
 4612              	.LC57:
 4613 00e9 66696C65 		.string	"filename.h"
 4613      6E616D65 
 4613      2E6800
 4614              	.LC58:
 4615 00f4 54657374 		.string	"TestName"
 4615      4E616D65 
 4615      00
 4616              	.LC59:
 4617 00fd 2227263C 		.string	"\"'&<>"
 4617      3E00
 4618              		.section	.rodata.str1.8
 4619 0395 000000   		.align 8
 4620              	.LC60:
 4621 0398 3C3F786D 		.string	"<?xml version=\"1.0\"?><unittest-results tests=\"1\" failedtests=\"1\" failures=\"1\" tim
 4621      6C207665 
 4621      7273696F 
 4621      6E3D2231 
 4621      2E30223F 
 4622              		.section	.text.unlikely
 4623              	.LCOLDB61:
 4624              		.text
 4625              	.LHOTB61:
 4626 2763 0F1F0066 		.p2align 4,,15
 4626      2E0F1F84 
 4626      00000000 
 4626      00
 4628              	_ZN8UnitTest11ExecuteTestIN12_GLOBAL__N_154XmlTestReporterFixtureFailureMessageIsXMLEscapedHelperEE
 4629              	.LFB1720:
 4630              		.cfi_startproc
 4631              		.cfi_personality 0x3,__gxx_personality_v0
 4632              		.cfi_lsda 0x3,.LLSDA1720
 4633 2770 4154     		pushq	%r12
 4634              		.cfi_def_cfa_offset 16
 4635              		.cfi_offset 12, -16
 4636 2772 55       		pushq	%rbp
 4637              		.cfi_def_cfa_offset 24
 4638              		.cfi_offset 6, -24
 4639 2773 53       		pushq	%rbx
 4640              		.cfi_def_cfa_offset 32
 4641              		.cfi_offset 3, -32
 4642 2774 4889F3   		movq	%rsi, %rbx
 4643 2777 4881EC20 		subq	$1824, %rsp
 4643      070000
 4644              		.cfi_def_cfa_offset 1856
 4645 277e 48893C24 		movq	%rdi, (%rsp)
 4646 2782 48897424 		movq	%rsi, 8(%rsp)
 4646      08
 4647 2787 64488B04 		movq	%fs:40, %rax
 4647      25280000 
 4647      00
 4648 2790 48898424 		movq	%rax, 1816(%rsp)
 4648      18070000 
 4649 2798 31C0     		xorl	%eax, %eax
 4650              	.LEHB137:
 4651 279a E8000000 		call	_ZN8UnitTest11CurrentTest7DetailsEv
 4651      00
 4652              	.LEHE137:
 4653 279f 488DBC24 		leaq	688(%rsp), %rdi
 4653      B0020000 
 4654 27a7 488918   		movq	%rbx, (%rax)
 4655              	.LEHB138:
 4656 27aa E8000000 		call	_ZN8UnitTest16SignalTranslatorC1Ev
 4656      00
 4657              	.LEHE138:
 4658 27af 488B3D00 		movq	_ZN8UnitTest16SignalTranslator12s_jumpTargetE(%rip), %rdi
 4658      000000
 4659 27b6 BE010000 		movl	$1, %esi
 4659      00
 4660 27bb E8000000 		call	__sigsetjmp
 4660      00
 4661 27c0 85C0     		testl	%eax, %eax
 4662 27c2 0F850801 		jne	.L719
 4662      0000
 4663 27c8 488D7C24 		leaq	80(%rsp), %rdi
 4663      50
 4664 27cd 41B8E110 		movl	$4321, %r8d
 4664      0000
 4665 27d3 B9000000 		movl	$.LC57, %ecx
 4665      00
 4666 27d8 BA000000 		movl	$.LC43, %edx
 4666      00
 4667 27dd BE000000 		movl	$.LC58, %esi
 4667      00
 4668              	.LEHB139:
 4669 27e2 E8000000 		call	_ZN8UnitTest11TestDetailsC1EPKcS2_S2_i
 4669      00
 4670 27e7 488B2C24 		movq	(%rsp), %rbp
 4671 27eb 488D7424 		leaq	80(%rsp), %rsi
 4671      50
 4672 27f0 488D9D78 		leaq	376(%rbp), %rbx
 4672      010000
 4673 27f7 4889DF   		movq	%rbx, %rdi
 4674 27fa E8000000 		call	_ZN8UnitTest20DeferredTestReporter15ReportTestStartERKNS_11TestDetailsE
 4674      00
 4675 27ff 488D7424 		leaq	80(%rsp), %rsi
 4675      50
 4676 2804 BA000000 		movl	$.LC59, %edx
 4676      00
 4677 2809 4889DF   		movq	%rbx, %rdi
 4678 280c E8000000 		call	_ZN8UnitTest20DeferredTestReporter13ReportFailureERKNS_11TestDetailsEPKc
 4678      00
 4679 2811 488D7424 		leaq	80(%rsp), %rsi
 4679      50
 4680 2816 F30F1005 		movss	.LC47(%rip), %xmm0
 4680      00000000 
 4681 281e 4889DF   		movq	%rbx, %rdi
 4682 2821 E8000000 		call	_ZN8UnitTest20DeferredTestReporter16ReportTestFinishERKNS_11TestDetailsEf
 4682      00
 4683 2826 F30F1005 		movss	.LC47(%rip), %xmm0
 4683      00000000 
 4684 282e B9010000 		movl	$1, %ecx
 4684      00
 4685 2833 BA010000 		movl	$1, %edx
 4685      00
 4686 2838 BE010000 		movl	$1, %esi
 4686      00
 4687 283d 4889DF   		movq	%rbx, %rdi
 4688 2840 E8000000 		call	_ZN8UnitTest15XmlTestReporter13ReportSummaryEiiif
 4688      00
 4689              	.LEHE139:
 4690 2845 48C74424 		movq	$.LC60, 24(%rsp)
 4690      18000000 
 4690      00
 4691              	.LEHB140:
 4692 284e E8000000 		call	_ZN8UnitTest11CurrentTest7DetailsEv
 4692      00
 4693 2853 488B30   		movq	(%rax), %rsi
 4694 2856 488D7C24 		leaq	112(%rsp), %rdi
 4694      70
 4695 285b BA840000 		movl	$132, %edx
 4695      00
 4696 2860 E8000000 		call	_ZN8UnitTest11TestDetailsC1ERKS0_i
 4696      00
 4697              	.LEHE140:
 4698 2865 488B5530 		movq	48(%rbp), %rdx
 4699 2869 488D8424 		leaq	192(%rsp), %rax
 4699      C0000000 
 4700 2871 48C78424 		movq	$0, 184(%rsp)
 4700      B8000000 
 4700      00000000 
 4701 287d C68424C0 		movb	$0, 192(%rsp)
 4701      00000000 
 4702 2885 48898424 		movq	%rax, 176(%rsp)
 4702      B0000000 
 4703 288d 4885D2   		testq	%rdx, %rdx
 4704 2890 0F84AA03 		je	.L636
 4704      0000
 4705 2896 488B5D20 		movq	32(%rbp), %rbx
 4706 289a 4839DA   		cmpq	%rbx, %rdx
 4707 289d 0F861D01 		jbe	.L637
 4707      0000
 4708 28a3 488B6D28 		movq	40(%rbp), %rbp
 4709 28a7 488D8424 		leaq	256(%rsp), %rax
 4709      00010000 
 4710 28af 48898424 		movq	%rax, 240(%rsp)
 4710      F0000000 
 4711 28b7 4885ED   		testq	%rbp, %rbp
 4712 28ba 7534     		jne	.L720
 4713 28bc BF000000 		movl	$.LC33, %edi
 4713      00
 4714              	.LEHB141:
 4715 28c1 E8000000 		call	_ZSt19__throw_logic_errorPKc
 4715      00
 4716              	.LEHE141:
 4717 28c6 662E0F1F 		.p2align 4,,10
 4717      84000000 
 4717      0000
 4718              		.p2align 3
 4719              	.L719:
 4720 28d0 BF080000 		movl	$8, %edi
 4720      00
 4721 28d5 E8000000 		call	__cxa_allocate_exception
 4721      00
 4722 28da 31D2     		xorl	%edx, %edx
 4723 28dc 48C70000 		movq	$.LC23, (%rax)
 4723      000000
 4724 28e3 BE000000 		movl	$_ZTIPKc, %esi
 4724      00
 4725 28e8 4889C7   		movq	%rax, %rdi
 4726              	.LEHB142:
 4727 28eb E8000000 		call	__cxa_throw
 4727      00
 4728              	.LEHE142:
 4729              		.p2align 4,,10
 4730              		.p2align 3
 4731              	.L720:
 4732 28f0 4829EA   		subq	%rbp, %rdx
 4733 28f3 4883FA0F 		cmpq	$15, %rdx
 4734 28f7 4889D3   		movq	%rdx, %rbx
 4735 28fa 48895424 		movq	%rdx, 32(%rsp)
 4735      20
 4736 28ff 0F87AB01 		ja	.L721
 4736      0000
 4737 2905 4883FB01 		cmpq	$1, %rbx
 4738 2909 0F840103 		je	.L722
 4738      0000
 4739 290f 4885DB   		testq	%rbx, %rbx
 4740 2912 4889C2   		movq	%rax, %rdx
 4741 2915 0F853F03 		jne	.L723
 4741      0000
 4742              	.L642:
 4743 291b 488DB424 		leaq	240(%rsp), %rsi
 4743      F0000000 
 4744 2923 488DBC24 		leaq	176(%rsp), %rdi
 4744      B0000000 
 4745 292b 48899C24 		movq	%rbx, 248(%rsp)
 4745      F8000000 
 4746 2933 C6041A00 		movb	$0, (%rdx,%rbx)
 4747              	.LEHB143:
 4748 2937 E8000000 		call	_ZNSt7__cxx1112basic_stringIcSt11char_traitsIcESaIcEE9_M_assignERKS4_
 4748      00
 4749              	.LEHE143:
 4750 293c 488BBC24 		movq	240(%rsp), %rdi
 4750      F0000000 
 4751 2944 488D8424 		leaq	256(%rsp), %rax
 4751      00010000 
 4752 294c 4839C7   		cmpq	%rax, %rdi
 4753 294f 7405     		je	.L644
 4754              	.L709:
 4755 2951 E8000000 		call	_ZdlPv
 4755      00
 4756              	.L644:
 4757              	.LEHB144:
 4758 2956 E8000000 		call	_ZN8UnitTest11CurrentTest7ResultsEv
 4758      00
 4759 295b 488B38   		movq	(%rax), %rdi
 4760 295e 488D4C24 		leaq	112(%rsp), %rcx
 4760      70
 4761 2963 488D9424 		leaq	176(%rsp), %rdx
 4761      B0000000 
 4762 296b 488D7424 		leaq	24(%rsp), %rsi
 4762      18
 4763 2970 E8000000 		call	_ZN8UnitTest10CheckEqualIPKcNSt7__cxx1112basic_stringIcSt11char_traitsIcESaIcEEEEEvRNS_11Test
 4763      00
 4764              	.LEHE144:
 4765 2975 488BBC24 		movq	176(%rsp), %rdi
 4765      B0000000 
 4766 297d 488D8424 		leaq	192(%rsp), %rax
 4766      C0000000 
 4767 2985 4839C7   		cmpq	%rax, %rdi
 4768 2988 7405     		je	.L665
 4769 298a E8000000 		call	_ZdlPv
 4769      00
 4770              	.L665:
 4771 298f 488DBC24 		leaq	688(%rsp), %rdi
 4771      B0020000 
 4772              	.LEHB145:
 4773 2997 E8000000 		call	_ZN8UnitTest16SignalTranslatorD1Ev
 4773      00
 4774              	.LEHE145:
 4775              	.L633:
 4776 299c 488B8424 		movq	1816(%rsp), %rax
 4776      18070000 
 4777 29a4 64483304 		xorq	%fs:40, %rax
 4777      25280000 
 4777      00
 4778 29ad 0F85B702 		jne	.L724
 4778      0000
 4779 29b3 4881C420 		addq	$1824, %rsp
 4779      070000
 4780              		.cfi_remember_state
 4781              		.cfi_def_cfa_offset 32
 4782 29ba 5B       		popq	%rbx
 4783              		.cfi_def_cfa_offset 24
 4784 29bb 5D       		popq	%rbp
 4785              		.cfi_def_cfa_offset 16
 4786 29bc 415C     		popq	%r12
 4787              		.cfi_def_cfa_offset 8
 4788 29be C3       		ret
 4789 29bf 90       		.p2align 4,,10
 4790              		.p2align 3
 4791              	.L637:
 4792              		.cfi_restore_state
 4793 29c0 488B0424 		movq	(%rsp), %rax
 4794 29c4 488B6828 		movq	40(%rax), %rbp
 4795 29c8 488D8424 		leaq	224(%rsp), %rax
 4795      E0000000 
 4796 29d0 48898424 		movq	%rax, 208(%rsp)
 4796      D0000000 
 4797 29d8 4885ED   		testq	%rbp, %rbp
 4798 29db 7513     		jne	.L648
 4799 29dd 4885DB   		testq	%rbx, %rbx
 4800 29e0 740E     		je	.L648
 4801 29e2 BF000000 		movl	$.LC33, %edi
 4801      00
 4802              	.LEHB146:
 4803 29e7 E8000000 		call	_ZSt19__throw_logic_errorPKc
 4803      00
 4804              	.LEHE146:
 4805 29ec 0F1F4000 		.p2align 4,,10
 4806              		.p2align 3
 4807              	.L648:
 4808 29f0 4829EB   		subq	%rbp, %rbx
 4809 29f3 4883FB0F 		cmpq	$15, %rbx
 4810 29f7 48895C24 		movq	%rbx, 40(%rsp)
 4810      28
 4811 29fc 7762     		ja	.L725
 4812 29fe 4883FB01 		cmpq	$1, %rbx
 4813 2a02 0F842002 		je	.L726
 4813      0000
 4814 2a08 4885DB   		testq	%rbx, %rbx
 4815 2a0b 488D8424 		leaq	224(%rsp), %rax
 4815      E0000000 
 4816 2a13 0F854902 		jne	.L727
 4816      0000
 4817              	.L651:
 4818 2a19 488DB424 		leaq	208(%rsp), %rsi
 4818      D0000000 
 4819 2a21 488DBC24 		leaq	176(%rsp), %rdi
 4819      B0000000 
 4820 2a29 48899C24 		movq	%rbx, 216(%rsp)
 4820      D8000000 
 4821 2a31 C6041800 		movb	$0, (%rax,%rbx)
 4822              	.LEHB147:
 4823 2a35 E8000000 		call	_ZNSt7__cxx1112basic_stringIcSt11char_traitsIcESaIcEE9_M_assignERKS4_
 4823      00
 4824              	.LEHE147:
 4825 2a3a 488BBC24 		movq	208(%rsp), %rdi
 4825      D0000000 
 4826 2a42 488D8424 		leaq	224(%rsp), %rax
 4826      E0000000 
 4827 2a4a 4839C7   		cmpq	%rax, %rdi
 4828 2a4d 0F85FEFE 		jne	.L709
 4828      FFFF
 4829 2a53 E9FEFEFF 		jmp	.L644
 4829      FF
 4830 2a58 0F1F8400 		.p2align 4,,10
 4830      00000000 
 4831              		.p2align 3
 4832              	.L725:
 4833 2a60 488D7424 		leaq	40(%rsp), %rsi
 4833      28
 4834 2a65 488DBC24 		leaq	208(%rsp), %rdi
 4834      D0000000 
 4835 2a6d 31D2     		xorl	%edx, %edx
 4836              	.LEHB148:
 4837 2a6f E8000000 		call	_ZNSt7__cxx1112basic_stringIcSt11char_traitsIcESaIcEE9_M_createERmm
 4837      00
 4838 2a74 4889C7   		movq	%rax, %rdi
 4839 2a77 48898424 		movq	%rax, 208(%rsp)
 4839      D0000000 
 4840 2a7f 488B4424 		movq	40(%rsp), %rax
 4840      28
 4841 2a84 48898424 		movq	%rax, 224(%rsp)
 4841      E0000000 
 4842              	.L649:
 4843 2a8c 4889DA   		movq	%rbx, %rdx
 4844 2a8f 4889EE   		movq	%rbp, %rsi
 4845 2a92 E8000000 		call	memcpy
 4845      00
 4846 2a97 488B5C24 		movq	40(%rsp), %rbx
 4846      28
 4847 2a9c 488B8424 		movq	208(%rsp), %rax
 4847      D0000000 
 4848 2aa4 E970FFFF 		jmp	.L651
 4848      FF
 4849 2aa9 0F1F8000 		.p2align 4,,10
 4849      000000
 4850              		.p2align 3
 4851              	.L721:
 4852 2ab0 488D7424 		leaq	32(%rsp), %rsi
 4852      20
 4853 2ab5 488DBC24 		leaq	240(%rsp), %rdi
 4853      F0000000 
 4854 2abd 31D2     		xorl	%edx, %edx
 4855 2abf E8000000 		call	_ZNSt7__cxx1112basic_stringIcSt11char_traitsIcESaIcEE9_M_createERmm
 4855      00
 4856              	.LEHE148:
 4857 2ac4 4889C7   		movq	%rax, %rdi
 4858 2ac7 48898424 		movq	%rax, 240(%rsp)
 4858      F0000000 
 4859 2acf 488B4424 		movq	32(%rsp), %rax
 4859      20
 4860 2ad4 48898424 		movq	%rax, 256(%rsp)
 4860      00010000 
 4861              	.L640:
 4862 2adc 4889DA   		movq	%rbx, %rdx
 4863 2adf 4889EE   		movq	%rbp, %rsi
 4864 2ae2 E8000000 		call	memcpy
 4864      00
 4865 2ae7 488B5C24 		movq	32(%rsp), %rbx
 4865      20
 4866 2aec 488B9424 		movq	240(%rsp), %rdx
 4866      F0000000 
 4867 2af4 E922FEFF 		jmp	.L642
 4867      FF
 4868              	.L695:
 4869 2af9 4889C3   		movq	%rax, %rbx
 4870 2afc 4889D5   		movq	%rdx, %rbp
 4871              	.L672:
 4872 2aff 488DBC24 		leaq	688(%rsp), %rdi
 4872      B0020000 
 4873 2b07 E8000000 		call	_ZN8UnitTest16SignalTranslatorD1Ev
 4873      00
 4874 2b0c 4889DF   		movq	%rbx, %rdi
 4875 2b0f 4889EA   		movq	%rbp, %rdx
 4876              	.L673:
 4877 2b12 4883FA01 		cmpq	$1, %rdx
 4878 2b16 0F840002 		je	.L675
 4878      0000
 4879 2b1c 4883FA02 		cmpq	$2, %rdx
 4880 2b20 0F85D001 		jne	.L728
 4880      0000
 4881 2b26 E8000000 		call	__cxa_begin_catch
 4881      00
 4882 2b2b 488DBC24 		leaq	272(%rsp), %rdi
 4882      10010000 
 4883 2b33 4889C3   		movq	%rax, %rbx
 4884              	.LEHB149:
 4885 2b36 E8000000 		call	_ZN8UnitTest15MemoryOutStreamC1Ev
 4885      00
 4886              	.LEHE149:
 4887 2b3b 488B03   		movq	(%rbx), %rax
 4888 2b3e 4889DF   		movq	%rbx, %rdi
 4889 2b41 FF5010   		call	*16(%rax)
 4890 2b44 488DBC24 		leaq	272(%rsp), %rdi
 4890      10010000 
 4891 2b4c BA150000 		movl	$21, %edx
 4891      00
 4892 2b51 BE000000 		movl	$.LC31, %esi
 4892      00
 4893 2b56 4889C3   		movq	%rax, %rbx
 4894              	.LEHB150:
 4895 2b59 E8000000 		call	_ZSt16__ostream_insertIcSt11char_traitsIcEERSt13basic_ostreamIT_T0_ES6_PKS3_l
 4895      00
 4896 2b5e 488DBC24 		leaq	272(%rsp), %rdi
 4896      10010000 
 4897 2b66 4889DE   		movq	%rbx, %rsi
 4898 2b69 E8000000 		call	_ZStlsISt11char_traitsIcEERSt13basic_ostreamIcT_ES5_PKc
 4898      00
 4899 2b6e 488DBC24 		leaq	272(%rsp), %rdi
 4899      10010000 
 4900 2b76 E8000000 		call	_ZNK8UnitTest15MemoryOutStream7GetTextEv
 4900      00
 4901 2b7b 4889C3   		movq	%rax, %rbx
 4902 2b7e E8000000 		call	_ZN8UnitTest11CurrentTest7ResultsEv
 4902      00
 4903 2b83 488B7424 		movq	8(%rsp), %rsi
 4903      08
 4904 2b88 488B38   		movq	(%rax), %rdi
 4905 2b8b 4889DA   		movq	%rbx, %rdx
 4906 2b8e E8000000 		call	_ZN8UnitTest11TestResults13OnTestFailureERKNS_11TestDetailsEPKc
 4906      00
 4907              	.LEHE150:
 4908 2b93 488DBC24 		leaq	272(%rsp), %rdi
 4908      10010000 
 4909              	.LEHB151:
 4910 2b9b E8000000 		call	_ZN8UnitTest15MemoryOutStreamD1Ev
 4910      00
 4911              	.LEHE151:
 4912              	.L710:
 4913 2ba0 E8000000 		call	__cxa_end_catch
 4913      00
 4914 2ba5 E9F2FDFF 		jmp	.L633
 4914      FF
 4915              	.L699:
 4916              	.L714:
 4917 2baa 4889C3   		movq	%rax, %rbx
 4918              	.L713:
 4919 2bad 488BBC24 		movq	176(%rsp), %rdi
 4919      B0000000 
 4920 2bb5 488D8424 		leaq	192(%rsp), %rax
 4920      C0000000 
 4921 2bbd 4839C7   		cmpq	%rax, %rdi
 4922 2bc0 7405     		je	.L670
 4923 2bc2 E8000000 		call	_ZdlPv
 4923      00
 4924              	.L670:
 4925 2bc7 4889D8   		movq	%rbx, %rax
 4926              	.L662:
 4927 2bca 4889C7   		movq	%rax, %rdi
 4928 2bcd E8000000 		call	__cxa_begin_catch
 4928      00
 4929              	.LEHB152:
 4930 2bd2 E8000000 		call	_ZN8UnitTest11CurrentTest7DetailsEv
 4930      00
 4931 2bd7 488B30   		movq	(%rax), %rsi
 4932 2bda 488DBC24 		leaq	144(%rsp), %rdi
 4932      90000000 
 4933 2be2 BA840000 		movl	$132, %edx
 4933      00
 4934 2be7 E8000000 		call	_ZN8UnitTest11TestDetailsC1ERKS0_i
 4934      00
 4935 2bec E8000000 		call	_ZN8UnitTest11CurrentTest7ResultsEv
 4935      00
 4936 2bf1 488B38   		movq	(%rax), %rdi
 4937 2bf4 488DB424 		leaq	144(%rsp), %rsi
 4937      90000000 
 4938 2bfc BA000000 		movl	$.LC50, %edx
 4938      00
 4939 2c01 E8000000 		call	_ZN8UnitTest11TestResults13OnTestFailureERKNS_11TestDetailsEPKc
 4939      00
 4940              	.LEHE152:
 4941              	.LEHB153:
 4942 2c06 E8000000 		call	__cxa_end_catch
 4942      00
 4943              	.LEHE153:
 4944 2c0b E97FFDFF 		jmp	.L665
 4944      FF
 4945              		.p2align 4,,10
 4946              		.p2align 3
 4947              	.L722:
 4948 2c10 0FB65500 		movzbl	0(%rbp), %edx
 4949 2c14 88942400 		movb	%dl, 256(%rsp)
 4949      010000
 4950 2c1b 4889C2   		movq	%rax, %rdx
 4951 2c1e E9F8FCFF 		jmp	.L642
 4951      FF
 4952              		.p2align 4,,10
 4953 2c23 0F1F4400 		.p2align 3
 4953      00
 4954              	.L726:
 4955 2c28 0FB64500 		movzbl	0(%rbp), %eax
 4956 2c2c 888424E0 		movb	%al, 224(%rsp)
 4956      000000
 4957 2c33 488D8424 		leaq	224(%rsp), %rax
 4957      E0000000 
 4958 2c3b E9D9FDFF 		jmp	.L651
 4958      FF
 4959              		.p2align 4,,10
 4960              		.p2align 3
 4961              	.L636:
 4962 2c40 488B3424 		movq	(%rsp), %rsi
 4963 2c44 488DBC24 		leaq	176(%rsp), %rdi
 4963      B0000000 
 4964 2c4c 4883C650 		addq	$80, %rsi
 4965              	.LEHB154:
 4966 2c50 E8000000 		call	_ZNSt7__cxx1112basic_stringIcSt11char_traitsIcESaIcEE9_M_assignERKS4_
 4966      00
 4967              	.LEHE154:
 4968 2c55 E9FCFCFF 		jmp	.L644
 4968      FF
 4969              	.L723:
 4970 2c5a 4889C7   		movq	%rax, %rdi
 4971 2c5d E97AFEFF 		jmp	.L640
 4971      FF
 4972              	.L727:
 4973 2c62 4889C7   		movq	%rax, %rdi
 4974 2c65 E922FEFF 		jmp	.L649
 4974      FF
 4975              	.L724:
 4976 2c6a E8000000 		call	__stack_chk_fail
 4976      00
 4977              	.L697:
 4978 2c6f E936FFFF 		jmp	.L714
 4978      FF
 4979              	.L701:
 4980 2c74 488BBC24 		movq	240(%rsp), %rdi
 4980      F0000000 
 4981 2c7c 4889C3   		movq	%rax, %rbx
 4982 2c7f 488D8424 		leaq	256(%rsp), %rax
 4982      00010000 
 4983 2c87 4839C7   		cmpq	%rax, %rdi
 4984 2c8a 0F841DFF 		je	.L713
 4984      FFFF
 4985              	.L708:
 4986 2c90 E8000000 		call	_ZdlPv
 4986      00
 4987 2c95 E913FFFF 		jmp	.L713
 4987      FF
 4988              	.L700:
 4989 2c9a 488BBC24 		movq	208(%rsp), %rdi
 4989      D0000000 
 4990 2ca2 4889C3   		movq	%rax, %rbx
 4991 2ca5 488D8424 		leaq	224(%rsp), %rax
 4991      E0000000 
 4992 2cad 4839C7   		cmpq	%rax, %rdi
 4993 2cb0 75DE     		jne	.L708
 4994 2cb2 E9F6FEFF 		jmp	.L713
 4994      FF
 4995              	.L698:
 4996 2cb7 4889C3   		movq	%rax, %rbx
 4997 2cba 4889D5   		movq	%rdx, %rbp
 4998 2cbd E8000000 		call	__cxa_end_catch
 4998      00
 4999 2cc2 E938FEFF 		jmp	.L672
 4999      FF
 5000              	.L696:
 5001 2cc7 E9FEFEFF 		jmp	.L662
 5001      FF
 5002              	.L694:
 5003 2ccc 4889C7   		movq	%rax, %rdi
 5004 2ccf E93EFEFF 		jmp	.L673
 5004      FF
 5005              	.L692:
 5006 2cd4 488DBC24 		leaq	272(%rsp), %rdi
 5006      10010000 
 5007 2cdc 4889C3   		movq	%rax, %rbx
 5008 2cdf E8000000 		call	_ZN8UnitTest15MemoryOutStreamD1Ev
 5008      00
 5009              	.L681:
 5010 2ce4 E8000000 		call	__cxa_end_catch
 5010      00
 5011 2ce9 4889DF   		movq	%rbx, %rdi
 5012              	.LEHB155:
 5013 2cec E8000000 		call	_Unwind_Resume
 5013      00
 5014              	.LEHE155:
 5015              	.L691:
 5016              	.L711:
 5017 2cf1 4889C3   		movq	%rax, %rbx
 5018 2cf4 EBEE     		jmp	.L681
 5019              	.L728:
 5020 2cf6 E8000000 		call	__cxa_begin_catch
 5020      00
 5021              	.LEHB156:
 5022 2cfb E8000000 		call	_ZN8UnitTest11CurrentTest7ResultsEv
 5022      00
 5023 2d00 488B7424 		movq	8(%rsp), %rsi
 5023      08
 5024 2d05 488B38   		movq	(%rax), %rdi
 5025 2d08 BA000000 		movl	$.LC32, %edx
 5025      00
 5026 2d0d E8000000 		call	_ZN8UnitTest11TestResults13OnTestFailureERKNS_11TestDetailsEPKc
 5026      00
 5027              	.LEHE156:
 5028              	.LEHB157:
 5029 2d12 E8000000 		call	__cxa_end_catch
 5029      00
 5030              	.LEHE157:
 5031 2d17 E980FCFF 		jmp	.L633
 5031      FF
 5032              	.L675:
 5033 2d1c E8000000 		call	__cxa_begin_catch
 5033      00
 5034 2d21 4889C3   		movq	%rax, %rbx
 5035 2d24 488B00   		movq	(%rax), %rax
 5036 2d27 4889DF   		movq	%rbx, %rdi
 5037 2d2a FF5010   		call	*16(%rax)
 5038 2d2d 4889DF   		movq	%rbx, %rdi
 5039 2d30 4889C5   		movq	%rax, %rbp
 5040              	.LEHB158:
 5041 2d33 E8000000 		call	_ZNK8UnitTest15AssertException10LineNumberEv
 5041      00
 5042 2d38 4889DF   		movq	%rbx, %rdi
 5043 2d3b 4189C4   		movl	%eax, %r12d
 5044 2d3e E8000000 		call	_ZNK8UnitTest15AssertException8FilenameEv
 5044      00
 5045 2d43 488B5424 		movq	8(%rsp), %rdx
 5045      08
 5046 2d48 488D7C24 		leaq	48(%rsp), %rdi
 5046      30
 5047 2d4d 4589E0   		movl	%r12d, %r8d
 5048 2d50 4889C1   		movq	%rax, %rcx
 5049 2d53 488B7208 		movq	8(%rdx), %rsi
 5050 2d57 488B12   		movq	(%rdx), %rdx
 5051 2d5a E8000000 		call	_ZN8UnitTest11TestDetailsC1EPKcS2_S2_i
 5051      00
 5052 2d5f E8000000 		call	_ZN8UnitTest11CurrentTest7ResultsEv
 5052      00
 5053 2d64 488B38   		movq	(%rax), %rdi
 5054 2d67 488D7424 		leaq	48(%rsp), %rsi
 5054      30
 5055 2d6c 4889EA   		movq	%rbp, %rdx
 5056 2d6f E8000000 		call	_ZN8UnitTest11TestResults13OnTestFailureERKNS_11TestDetailsEPKc
 5056      00
 5057              	.LEHE158:
 5058 2d74 E927FEFF 		jmp	.L710
 5058      FF
 5059              	.L690:
 5060 2d79 4889C3   		movq	%rax, %rbx
 5061 2d7c E8000000 		call	__cxa_end_catch
 5061      00
 5062 2d81 4889DF   		movq	%rbx, %rdi
 5063              	.LEHB159:
 5064 2d84 E8000000 		call	_Unwind_Resume
 5064      00
 5065              	.LEHE159:
 5066              	.L693:
 5067 2d89 E963FFFF 		jmp	.L711
 5067      FF
 5068              		.cfi_endproc
 5069              	.LFE1720:
 5070              		.section	.gcc_except_table
 5071              		.align 4
 5072              	.LLSDA1720:
 5073 03bc FF       		.byte	0xff
 5074 03bd 03       		.byte	0x3
 5075 03be 9C01     		.uleb128 .LLSDATT1720-.LLSDATTD1720
 5076              	.LLSDATTD1720:
 5077 03c0 01       		.byte	0x1
 5078 03c1 8301     		.uleb128 .LLSDACSE1720-.LLSDACSB1720
 5079              	.LLSDACSB1720:
 5080 03c3 2A       		.uleb128 .LEHB137-.LFB1720
 5081 03c4 05       		.uleb128 .LEHE137-.LEHB137
 5082 03c5 00       		.uleb128 0
 5083 03c6 00       		.uleb128 0
 5084 03c7 3A       		.uleb128 .LEHB138-.LFB1720
 5085 03c8 05       		.uleb128 .LEHE138-.LEHB138
 5086 03c9 DC0A     		.uleb128 .L694-.LFB1720
 5087 03cb 05       		.uleb128 0x5
 5088 03cc 72       		.uleb128 .LEHB139-.LFB1720
 5089 03cd 63       		.uleb128 .LEHE139-.LEHB139
 5090 03ce 8907     		.uleb128 .L695-.LFB1720
 5091 03d0 07       		.uleb128 0x7
 5092 03d1 DE01     		.uleb128 .LEHB140-.LFB1720
 5093 03d3 17       		.uleb128 .LEHE140-.LEHB140
 5094 03d4 D70A     		.uleb128 .L696-.LFB1720
 5095 03d6 01       		.uleb128 0x1
 5096 03d7 D102     		.uleb128 .LEHB141-.LFB1720
 5097 03d9 05       		.uleb128 .LEHE141-.LEHB141
 5098 03da BA08     		.uleb128 .L699-.LFB1720
 5099 03dc 01       		.uleb128 0x1
 5100 03dd FB02     		.uleb128 .LEHB142-.LFB1720
 5101 03df 05       		.uleb128 .LEHE142-.LEHB142
 5102 03e0 8907     		.uleb128 .L695-.LFB1720
 5103 03e2 07       		.uleb128 0x7
 5104 03e3 C703     		.uleb128 .LEHB143-.LFB1720
 5105 03e5 05       		.uleb128 .LEHE143-.LEHB143
 5106 03e6 840A     		.uleb128 .L701-.LFB1720
 5107 03e8 01       		.uleb128 0x1
 5108 03e9 E603     		.uleb128 .LEHB144-.LFB1720
 5109 03eb 1F       		.uleb128 .LEHE144-.LEHB144
 5110 03ec FF09     		.uleb128 .L697-.LFB1720
 5111 03ee 01       		.uleb128 0x1
 5112 03ef A704     		.uleb128 .LEHB145-.LFB1720
 5113 03f1 05       		.uleb128 .LEHE145-.LEHB145
 5114 03f2 DC0A     		.uleb128 .L694-.LFB1720
 5115 03f4 05       		.uleb128 0x5
 5116 03f5 F704     		.uleb128 .LEHB146-.LFB1720
 5117 03f7 05       		.uleb128 .LEHE146-.LEHB146
 5118 03f8 BA08     		.uleb128 .L699-.LFB1720
 5119 03fa 01       		.uleb128 0x1
 5120 03fb C505     		.uleb128 .LEHB147-.LFB1720
 5121 03fd 05       		.uleb128 .LEHE147-.LEHB147
 5122 03fe AA0A     		.uleb128 .L700-.LFB1720
 5123 0400 01       		.uleb128 0x1
 5124 0401 FF05     		.uleb128 .LEHB148-.LFB1720
 5125 0403 55       		.uleb128 .LEHE148-.LEHB148
 5126 0404 BA08     		.uleb128 .L699-.LFB1720
 5127 0406 01       		.uleb128 0x1
 5128 0407 C607     		.uleb128 .LEHB149-.LFB1720
 5129 0409 05       		.uleb128 .LEHE149-.LEHB149
 5130 040a 810B     		.uleb128 .L691-.LFB1720
 5131 040c 00       		.uleb128 0
 5132 040d E907     		.uleb128 .LEHB150-.LFB1720
 5133 040f 3A       		.uleb128 .LEHE150-.LEHB150
 5134 0410 E40A     		.uleb128 .L692-.LFB1720
 5135 0412 00       		.uleb128 0
 5136 0413 AB08     		.uleb128 .LEHB151-.LFB1720
 5137 0415 05       		.uleb128 .LEHE151-.LEHB151
 5138 0416 810B     		.uleb128 .L691-.LFB1720
 5139 0418 00       		.uleb128 0
 5140 0419 E208     		.uleb128 .LEHB152-.LFB1720
 5141 041b 34       		.uleb128 .LEHE152-.LEHB152
 5142 041c C70A     		.uleb128 .L698-.LFB1720
 5143 041e 07       		.uleb128 0x7
 5144 041f 9609     		.uleb128 .LEHB153-.LFB1720
 5145 0421 05       		.uleb128 .LEHE153-.LEHB153
 5146 0422 8907     		.uleb128 .L695-.LFB1720
 5147 0424 07       		.uleb128 0x7
 5148 0425 E009     		.uleb128 .LEHB154-.LFB1720
 5149 0427 05       		.uleb128 .LEHE154-.LEHB154
 5150 0428 BA08     		.uleb128 .L699-.LFB1720
 5151 042a 01       		.uleb128 0x1
 5152 042b FC0A     		.uleb128 .LEHB155-.LFB1720
 5153 042d 05       		.uleb128 .LEHE155-.LEHB155
 5154 042e 00       		.uleb128 0
 5155 042f 00       		.uleb128 0
 5156 0430 8B0B     		.uleb128 .LEHB156-.LFB1720
 5157 0432 17       		.uleb128 .LEHE156-.LEHB156
 5158 0433 890C     		.uleb128 .L690-.LFB1720
 5159 0435 00       		.uleb128 0
 5160 0436 A20B     		.uleb128 .LEHB157-.LFB1720
 5161 0438 05       		.uleb128 .LEHE157-.LEHB157
 5162 0439 00       		.uleb128 0
 5163 043a 00       		.uleb128 0
 5164 043b C30B     		.uleb128 .LEHB158-.LFB1720
 5165 043d 41       		.uleb128 .LEHE158-.LEHB158
 5166 043e 990C     		.uleb128 .L693-.LFB1720
 5167 0440 00       		.uleb128 0
 5168 0441 940C     		.uleb128 .LEHB159-.LFB1720
 5169 0443 05       		.uleb128 .LEHE159-.LEHB159
 5170 0444 00       		.uleb128 0
 5171 0445 00       		.uleb128 0
 5172              	.LLSDACSE1720:
 5173 0446 03       		.byte	0x3
 5174 0447 00       		.byte	0
 5175 0448 02       		.byte	0x2
 5176 0449 7D       		.byte	0x7d
 5177 044a 01       		.byte	0x1
 5178 044b 7D       		.byte	0x7d
 5179 044c 00       		.byte	0
 5180 044d 7D       		.byte	0x7d
 5181 044e 0000     		.align 4
 5182 0450 00000000 		.long	0
 5183              	
 5184 0454 00000000 		.long	_ZTISt9exception
 5185 0458 00000000 		.long	_ZTIN8UnitTest15AssertExceptionE
 5186              	.LLSDATT1720:
 5187              		.text
 5189              		.section	.text.unlikely
 5190              	.LCOLDE61:
 5191              		.text
 5192              	.LHOTE61:
 5193              		.section	.text.unlikely
 5194              		.align 2
 5195              	.LCOLDB62:
 5196              		.text
 5197              	.LHOTB62:
 5198              		.align 2
 5199 2d8e 6690     		.p2align 4,,15
 5201              	_ZNK12_GLOBAL__N_152TestXmlTestReporterFixtureFailureMessageIsXMLEscaped7RunImplEv:
 5202              	.LFB1428:
 5203              		.cfi_startproc
 5204              		.cfi_personality 0x3,__gxx_personality_v0
 5205              		.cfi_lsda 0x3,.LLSDA1428
 5206 2d90 4157     		pushq	%r15
 5207              		.cfi_def_cfa_offset 16
 5208              		.cfi_offset 15, -16
 5209 2d92 4156     		pushq	%r14
 5210              		.cfi_def_cfa_offset 24
 5211              		.cfi_offset 14, -24
 5212 2d94 4989FF   		movq	%rdi, %r15
 5213 2d97 4155     		pushq	%r13
 5214              		.cfi_def_cfa_offset 32
 5215              		.cfi_offset 13, -32
 5216 2d99 4154     		pushq	%r12
 5217              		.cfi_def_cfa_offset 40
 5218              		.cfi_offset 12, -40
 5219 2d9b 4C8D7708 		leaq	8(%rdi), %r14
 5220 2d9f 55       		pushq	%rbp
 5221              		.cfi_def_cfa_offset 48
 5222              		.cfi_offset 6, -48
 5223 2da0 53       		pushq	%rbx
 5224              		.cfi_def_cfa_offset 56
 5225              		.cfi_offset 3, -56
 5226 2da1 4881ECD8 		subq	$472, %rsp
 5226      010000
 5227              		.cfi_def_cfa_offset 528
 5228 2da8 488DBC24 		leaq	144(%rsp), %rdi
 5228      90000000 
 5229 2db0 64488B04 		movq	%fs:40, %rax
 5229      25280000 
 5229      00
 5230 2db9 48898424 		movq	%rax, 456(%rsp)
 5230      C8010000 
 5231 2dc1 31C0     		xorl	%eax, %eax
 5232 2dc3 E8000000 		call	_ZNSt8ios_baseC2Ev
 5232      00
 5233 2dc8 488B0500 		movq	_ZTTNSt7__cxx1119basic_ostringstreamIcSt11char_traitsIcESaIcEEE+8(%rip), %rax
 5233      000000
 5234 2dcf C6842470 		movb	$0, 368(%rsp)
 5234      01000000 
 5235 2dd7 488D7C24 		leaq	32(%rsp), %rdi
 5235      20
 5236 2ddc 48C78424 		movq	$_ZTVSt9basic_iosIcSt11char_traitsIcEE+16, 144(%rsp)
 5236      90000000 
 5236      00000000 
 5237 2de8 48C78424 		movq	$0, 360(%rsp)
 5237      68010000 
 5237      00000000 
 5238 2df4 31F6     		xorl	%esi, %esi
 5239 2df6 C6842471 		movb	$0, 369(%rsp)
 5239      01000000 
 5240 2dfe 48C78424 		movq	$0, 376(%rsp)
 5240      78010000 
 5240      00000000 
 5241 2e0a 480378E8 		addq	-24(%rax), %rdi
 5242 2e0e 48894424 		movq	%rax, 32(%rsp)
 5242      20
 5243 2e13 488B0500 		movq	_ZTTNSt7__cxx1119basic_ostringstreamIcSt11char_traitsIcESaIcEEE+16(%rip), %rax
 5243      000000
 5244 2e1a 48C78424 		movq	$0, 384(%rsp)
 5244      80010000 
 5244      00000000 
 5245 2e26 48C78424 		movq	$0, 392(%rsp)
 5245      88010000 
 5245      00000000 
 5246 2e32 48C78424 		movq	$0, 400(%rsp)
 5246      90010000 
 5246      00000000 
 5247 2e3e 488907   		movq	%rax, (%rdi)
 5248              	.LEHB160:
 5249 2e41 E8000000 		call	_ZNSt9basic_iosIcSt11char_traitsIcEE4initEPSt15basic_streambufIcS1_E
 5249      00
 5250              	.LEHE160:
 5251 2e46 488D7C24 		leaq	96(%rsp), %rdi
 5251      60
 5252 2e4b 48C74424 		movq	$_ZTVNSt7__cxx1119basic_ostringstreamIcSt11char_traitsIcESaIcEEE+24, 32(%rsp)
 5252      20000000 
 5252      00
 5253 2e54 48C78424 		movq	$_ZTVNSt7__cxx1119basic_ostringstreamIcSt11char_traitsIcESaIcEEE+64, 144(%rsp)
 5253      90000000 
 5253      00000000 
 5254 2e60 48C74424 		movq	$_ZTVSt15basic_streambufIcSt11char_traitsIcEE+16, 40(%rsp)
 5254      28000000 
 5254      00
 5255 2e69 48C74424 		movq	$0, 48(%rsp)
 5255      30000000 
 5255      00
 5256 2e72 48C74424 		movq	$0, 56(%rsp)
 5256      38000000 
 5256      00
 5257 2e7b 48C74424 		movq	$0, 64(%rsp)
 5257      40000000 
 5257      00
 5258 2e84 48C74424 		movq	$0, 72(%rsp)
 5258      48000000 
 5258      00
 5259 2e8d 48C74424 		movq	$0, 80(%rsp)
 5259      50000000 
 5259      00
 5260 2e96 48C74424 		movq	$0, 88(%rsp)
 5260      58000000 
 5260      00
 5261 2e9f E8000000 		call	_ZNSt6localeC1Ev
 5261      00
 5262 2ea4 488D8424 		leaq	128(%rsp), %rax
 5262      80000000 
 5263 2eac 488D7424 		leaq	40(%rsp), %rsi
 5263      28
 5264 2eb1 48C74424 		movq	$_ZTVNSt7__cxx1115basic_stringbufIcSt11char_traitsIcESaIcEEE+16, 40(%rsp)
 5264      28000000 
 5264      00
 5265 2eba C7442468 		movl	$16, 104(%rsp)
 5265      10000000 
 5266 2ec2 48C74424 		movq	$0, 120(%rsp)
 5266      78000000 
 5266      00
 5267 2ecb 48894424 		movq	%rax, 112(%rsp)
 5267      70
 5268 2ed0 488D4424 		leaq	32(%rsp), %rax
 5268      20
 5269 2ed5 C6842480 		movb	$0, 128(%rsp)
 5269      00000000 
 5270 2edd 488D7870 		leaq	112(%rax), %rdi
 5271              	.LEHB161:
 5272 2ee1 E8000000 		call	_ZNSt9basic_iosIcSt11char_traitsIcEE4initEPSt15basic_streambufIcS1_E
 5272      00
 5273              	.LEHE161:
 5274 2ee6 488D4424 		leaq	32(%rsp), %rax
 5274      20
 5275 2eeb 488DBC24 		leaq	408(%rsp), %rdi
 5275      98010000 
 5276 2ef3 4889C6   		movq	%rax, %rsi
 5277              	.LEHB162:
 5278 2ef6 E8000000 		call	_ZN8UnitTest15XmlTestReporterC1ERSo
 5278      00
 5279              	.LEHE162:
 5280 2efb 488D7C24 		leaq	32(%rsp), %rdi
 5280      20
 5281 2f00 4C89F6   		movq	%r14, %rsi
 5282 2f03 4C89B424 		movq	%r14, 448(%rsp)
 5282      C0010000 
 5283              	.LEHB163:
 5284 2f0b E860F8FF 		call	_ZN8UnitTest11ExecuteTestIN12_GLOBAL__N_154XmlTestReporterFixtureFailureMessageIsXMLEscapedHe
 5284      FF
 5285              	.LEHE163:
 5286 2f10 4C8BA424 		movq	424(%rsp), %r12
 5286      A8010000 
 5287 2f18 488BAC24 		movq	416(%rsp), %rbp
 5287      A0010000 
 5288 2f20 48C78424 		movq	$_ZTVN8UnitTest20DeferredTestReporterE+16, 408(%rsp)
 5288      98010000 
 5288      00000000 
 5289 2f2c 4939EC   		cmpq	%rbp, %r12
 5290 2f2f 0F848600 		je	.L736
 5290      0000
 5291              		.p2align 4,,10
 5292 2f35 0F1F00   		.p2align 3
 5293              	.L744:
 5294 2f38 488B5D68 		movq	104(%rbp), %rbx
 5295 2f3c 4C8B6D60 		movq	96(%rbp), %r13
 5296 2f40 4C39EB   		cmpq	%r13, %rbx
 5297 2f43 7422     		je	.L737
 5298              		.p2align 4,,10
 5299 2f45 0F1F00   		.p2align 3
 5300              	.L739:
 5301 2f48 498B7D08 		movq	8(%r13), %rdi
 5302 2f4c 498D5518 		leaq	24(%r13), %rdx
 5303 2f50 4839D7   		cmpq	%rdx, %rdi
 5304 2f53 7405     		je	.L738
 5305 2f55 E8000000 		call	_ZdlPv
 5305      00
 5306              	.L738:
 5307 2f5a 4983C528 		addq	$40, %r13
 5308 2f5e 4C39EB   		cmpq	%r13, %rbx
 5309 2f61 75E5     		jne	.L739
 5310 2f63 488B5D60 		movq	96(%rbp), %rbx
 5311              	.L737:
 5312 2f67 4885DB   		testq	%rbx, %rbx
 5313 2f6a 7408     		je	.L740
 5314 2f6c 4889DF   		movq	%rbx, %rdi
 5315 2f6f E8000000 		call	_ZdlPv
 5315      00
 5316              	.L740:
 5317 2f74 488B7D40 		movq	64(%rbp), %rdi
 5318 2f78 488D4550 		leaq	80(%rbp), %rax
 5319 2f7c 4839C7   		cmpq	%rax, %rdi
 5320 2f7f 7405     		je	.L741
 5321 2f81 E8000000 		call	_ZdlPv
 5321      00
 5322              	.L741:
 5323 2f86 488B7D20 		movq	32(%rbp), %rdi
 5324 2f8a 488D4530 		leaq	48(%rbp), %rax
 5325 2f8e 4839C7   		cmpq	%rax, %rdi
 5326 2f91 7405     		je	.L742
 5327 2f93 E8000000 		call	_ZdlPv
 5327      00
 5328              	.L742:
 5329 2f98 488B7D00 		movq	0(%rbp), %rdi
 5330 2f9c 488D4510 		leaq	16(%rbp), %rax
 5331 2fa0 4839C7   		cmpq	%rax, %rdi
 5332 2fa3 7405     		je	.L743
 5333 2fa5 E8000000 		call	_ZdlPv
 5333      00
 5334              	.L743:
 5335 2faa 4883ED80 		subq	$-128, %rbp
 5336 2fae 4939EC   		cmpq	%rbp, %r12
 5337 2fb1 7585     		jne	.L744
 5338 2fb3 4C8BA424 		movq	416(%rsp), %r12
 5338      A0010000 
 5339              	.L736:
 5340 2fbb 4D85E4   		testq	%r12, %r12
 5341 2fbe 7408     		je	.L745
 5342 2fc0 4C89E7   		movq	%r12, %rdi
 5343 2fc3 E8000000 		call	_ZdlPv
 5343      00
 5344              	.L745:
 5345 2fc8 488DBC24 		leaq	408(%rsp), %rdi
 5345      98010000 
 5346              	.LEHB164:
 5347 2fd0 E8000000 		call	_ZN8UnitTest12TestReporterD2Ev
 5347      00
 5348              	.LEHE164:
 5349 2fd5 488B7C24 		movq	112(%rsp), %rdi
 5349      70
 5350 2fda 488D8424 		leaq	128(%rsp), %rax
 5350      80000000 
 5351 2fe2 48C74424 		movq	$_ZTVNSt7__cxx1119basic_ostringstreamIcSt11char_traitsIcESaIcEEE+24, 32(%rsp)
 5351      20000000 
 5351      00
 5352 2feb 48C78424 		movq	$_ZTVNSt7__cxx1119basic_ostringstreamIcSt11char_traitsIcESaIcEEE+64, 144(%rsp)
 5352      90000000 
 5352      00000000 
 5353 2ff7 48C74424 		movq	$_ZTVNSt7__cxx1115basic_stringbufIcSt11char_traitsIcESaIcEEE+16, 40(%rsp)
 5353      28000000 
 5353      00
 5354 3000 4839C7   		cmpq	%rax, %rdi
 5355 3003 7405     		je	.L746
 5356 3005 E8000000 		call	_ZdlPv
 5356      00
 5357              	.L746:
 5358 300a 488D7C24 		leaq	96(%rsp), %rdi
 5358      60
 5359 300f 48C74424 		movq	$_ZTVSt15basic_streambufIcSt11char_traitsIcEE+16, 40(%rsp)
 5359      28000000 
 5359      00
 5360 3018 E8000000 		call	_ZNSt6localeD1Ev
 5360      00
 5361 301d 488B0500 		movq	_ZTTNSt7__cxx1119basic_ostringstreamIcSt11char_traitsIcESaIcEEE+8(%rip), %rax
 5361      000000
 5362 3024 488B0D00 		movq	_ZTTNSt7__cxx1119basic_ostringstreamIcSt11char_traitsIcESaIcEEE+16(%rip), %rcx
 5362      000000
 5363 302b 488DBC24 		leaq	144(%rsp), %rdi
 5363      90000000 
 5364 3033 488B40E8 		movq	-24(%rax), %rax
 5365 3037 48894C04 		movq	%rcx, 32(%rsp,%rax)
 5365      20
 5366 303c 48C78424 		movq	$_ZTVSt9basic_iosIcSt11char_traitsIcEE+16, 144(%rsp)
 5366      90000000 
 5366      00000000 
 5367              	.LEHB165:
 5368 3048 E8000000 		call	_ZNSt8ios_baseD2Ev
 5368      00
 5369              	.LEHE165:
 5370              	.L729:
 5371 304d 488B8424 		movq	456(%rsp), %rax
 5371      C8010000 
 5372 3055 64483304 		xorq	%fs:40, %rax
 5372      25280000 
 5372      00
 5373 305e 0F85C000 		jne	.L789
 5373      0000
 5374 3064 4881C4D8 		addq	$472, %rsp
 5374      010000
 5375              		.cfi_remember_state
 5376              		.cfi_def_cfa_offset 56
 5377 306b 5B       		popq	%rbx
 5378              		.cfi_def_cfa_offset 48
 5379 306c 5D       		popq	%rbp
 5380              		.cfi_def_cfa_offset 40
 5381 306d 415C     		popq	%r12
 5382              		.cfi_def_cfa_offset 32
 5383 306f 415D     		popq	%r13
 5384              		.cfi_def_cfa_offset 24
 5385 3071 415E     		popq	%r14
 5386              		.cfi_def_cfa_offset 16
 5387 3073 415F     		popq	%r15
 5388              		.cfi_def_cfa_offset 8
 5389 3075 C3       		ret
 5390              	.L769:
 5391              		.cfi_restore_state
 5392 3076 4889C3   		movq	%rax, %rbx
 5393 3079 4889D5   		movq	%rdx, %rbp
 5394              	.L732:
 5395 307c 488DBC24 		leaq	144(%rsp), %rdi
 5395      90000000 
 5396 3084 48C78424 		movq	$_ZTVSt9basic_iosIcSt11char_traitsIcEE+16, 144(%rsp)
 5396      90000000 
 5396      00000000 
 5397 3090 E8000000 		call	_ZNSt8ios_baseD2Ev
 5397      00
 5398 3095 4889DF   		movq	%rbx, %rdi
 5399 3098 4889EA   		movq	%rbp, %rdx
 5400 309b 31DB     		xorl	%ebx, %ebx
 5401              	.L733:
 5402 309d 4883FA01 		cmpq	$1, %rdx
 5403 30a1 0F84EA00 		je	.L753
 5403      0000
 5404 30a7 4883FA02 		cmpq	$2, %rdx
 5405 30ab 0F85A400 		jne	.L790
 5405      0000
 5406 30b1 E8000000 		call	__cxa_begin_catch
 5406      00
 5407 30b6 488D7C24 		leaq	32(%rsp), %rdi
 5407      20
 5408 30bb 4889C3   		movq	%rax, %rbx
 5409              	.LEHB166:
 5410 30be E8000000 		call	_ZN8UnitTest15MemoryOutStreamC1Ev
 5410      00
 5411              	.LEHE166:
 5412 30c3 488B03   		movq	(%rbx), %rax
 5413 30c6 4889DF   		movq	%rbx, %rdi
 5414 30c9 FF5010   		call	*16(%rax)
 5415 30cc 488D7C24 		leaq	32(%rsp), %rdi
 5415      20
 5416 30d1 BA150000 		movl	$21, %edx
 5416      00
 5417 30d6 BE000000 		movl	$.LC31, %esi
 5417      00
 5418 30db 4889C3   		movq	%rax, %rbx
 5419              	.LEHB167:
 5420 30de E8000000 		call	_ZSt16__ostream_insertIcSt11char_traitsIcEERSt13basic_ostreamIT_T0_ES6_PKS3_l
 5420      00
 5421 30e3 488D7C24 		leaq	32(%rsp), %rdi
 5421      20
 5422 30e8 4889DE   		movq	%rbx, %rsi
 5423 30eb E8000000 		call	_ZStlsISt11char_traitsIcEERSt13basic_ostreamIcT_ES5_PKc
 5423      00
 5424 30f0 488D7C24 		leaq	32(%rsp), %rdi
 5424      20
 5425 30f5 E8000000 		call	_ZNK8UnitTest15MemoryOutStream7GetTextEv
 5425      00
 5426 30fa 4889C3   		movq	%rax, %rbx
 5427 30fd E8000000 		call	_ZN8UnitTest11CurrentTest7ResultsEv
 5427      00
 5428 3102 488B38   		movq	(%rax), %rdi
 5429 3105 4889DA   		movq	%rbx, %rdx
 5430 3108 4C89F6   		movq	%r14, %rsi
 5431 310b E8000000 		call	_ZN8UnitTest11TestResults13OnTestFailureERKNS_11TestDetailsEPKc
 5431      00
 5432              	.LEHE167:
 5433 3110 488D7C24 		leaq	32(%rsp), %rdi
 5433      20
 5434              	.LEHB168:
 5435 3115 E8000000 		call	_ZN8UnitTest15MemoryOutStreamD1Ev
 5435      00
 5436              	.LEHE168:
 5437              	.L784:
 5438 311a E8000000 		call	__cxa_end_catch
 5438      00
 5439 311f E929FFFF 		jmp	.L729
 5439      FF
 5440              	.L789:
 5441 3124 E8000000 		call	__stack_chk_fail
 5441      00
 5442              	.L762:
 5443 3129 4889C7   		movq	%rax, %rdi
 5444 312c BB010000 		movl	$1, %ebx
 5444      00
 5445 3131 E967FFFF 		jmp	.L733
 5445      FF
 5446              	.L766:
 5447 3136 488D7C24 		leaq	32(%rsp), %rdi
 5447      20
 5448 313b 4889C3   		movq	%rax, %rbx
 5449 313e E8000000 		call	_ZN8UnitTest15MemoryOutStreamD1Ev
 5449      00
 5450              	.L759:
 5451 3143 E8000000 		call	__cxa_end_catch
 5451      00
 5452 3148 4889DF   		movq	%rbx, %rdi
 5453              	.LEHB169:
 5454 314b E8000000 		call	_Unwind_Resume
 5454      00
 5455              	.LEHE169:
 5456              	.L765:
 5457              	.L785:
 5458 3150 4889C3   		movq	%rax, %rbx
 5459 3153 EBEE     		jmp	.L759
 5460              	.L790:
 5461 3155 E8000000 		call	__cxa_begin_catch
 5461      00
 5462 315a 84DB     		testb	%bl, %bl
 5463 315c BA730000 		movl	$115, %edx
 5463      00
 5464 3161 4C89F6   		movq	%r14, %rsi
 5465 3164 4889E7   		movq	%rsp, %rdi
 5466 3167 0F848900 		je	.L755
 5466      0000
 5467              	.LEHB170:
 5468 316d E8000000 		call	_ZN8UnitTest11TestDetailsC1ERKS0_i
 5468      00
 5469 3172 E8000000 		call	_ZN8UnitTest11CurrentTest7ResultsEv
 5469      00
 5470 3177 488B38   		movq	(%rax), %rdi
 5471 317a BA000000 		movl	$.LC35, %edx
 5471      00
 5472 317f 4889E6   		movq	%rsp, %rsi
 5473 3182 E8000000 		call	_ZN8UnitTest11TestResults13OnTestFailureERKNS_11TestDetailsEPKc
 5473      00
 5474              	.LEHE170:
 5475              	.L756:
 5476              	.LEHB171:
 5477 3187 E8000000 		call	__cxa_end_catch
 5477      00
 5478              	.LEHE171:
 5479 318c E9BCFEFF 		jmp	.L729
 5479      FF
 5480              	.L753:
 5481 3191 E8000000 		call	__cxa_begin_catch
 5481      00
 5482 3196 4889C3   		movq	%rax, %rbx
 5483 3199 488B00   		movq	(%rax), %rax
 5484 319c 4889DF   		movq	%rbx, %rdi
 5485 319f FF5010   		call	*16(%rax)
 5486 31a2 4889DF   		movq	%rbx, %rdi
 5487 31a5 4889C5   		movq	%rax, %rbp
 5488              	.LEHB172:
 5489 31a8 E8000000 		call	_ZNK8UnitTest15AssertException10LineNumberEv
 5489      00
 5490 31ad 4889DF   		movq	%rbx, %rdi
 5491 31b0 4189C4   		movl	%eax, %r12d
 5492 31b3 E8000000 		call	_ZNK8UnitTest15AssertException8FilenameEv
 5492      00
 5493 31b8 498B5708 		movq	8(%r15), %rdx
 5494 31bc 498B7710 		movq	16(%r15), %rsi
 5495 31c0 4589E0   		movl	%r12d, %r8d
 5496 31c3 4889C1   		movq	%rax, %rcx
 5497 31c6 4889E7   		movq	%rsp, %rdi
 5498 31c9 E8000000 		call	_ZN8UnitTest11TestDetailsC1EPKcS2_S2_i
 5498      00
 5499 31ce E8000000 		call	_ZN8UnitTest11CurrentTest7ResultsEv
 5499      00
 5500 31d3 488B38   		movq	(%rax), %rdi
 5501 31d6 4889EA   		movq	%rbp, %rdx
 5502 31d9 4889E6   		movq	%rsp, %rsi
 5503 31dc E8000000 		call	_ZN8UnitTest11TestResults13OnTestFailureERKNS_11TestDetailsEPKc
 5503      00
 5504              	.LEHE172:
 5505 31e1 E934FFFF 		jmp	.L784
 5505      FF
 5506              	.L767:
 5507 31e6 4889C3   		movq	%rax, %rbx
 5508 31e9 E8000000 		call	__cxa_end_catch
 5508      00
 5509 31ee 4889DF   		movq	%rbx, %rdi
 5510              	.LEHB173:
 5511 31f1 E8000000 		call	_Unwind_Resume
 5511      00
 5512              	.LEHE173:
 5513              	.L755:
 5514              	.LEHB174:
 5515 31f6 E8000000 		call	_ZN8UnitTest11TestDetailsC1ERKS0_i
 5515      00
 5516 31fb E8000000 		call	_ZN8UnitTest11CurrentTest7ResultsEv
 5516      00
 5517 3200 488B38   		movq	(%rax), %rdi
 5518 3203 BA000000 		movl	$.LC36, %edx
 5518      00
 5519 3208 4889E6   		movq	%rsp, %rsi
 5520 320b E8000000 		call	_ZN8UnitTest11TestResults13OnTestFailureERKNS_11TestDetailsEPKc
 5520      00
 5521              	.LEHE174:
 5522 3210 E972FFFF 		jmp	.L756
 5522      FF
 5523              	.L764:
 5524 3215 E936FFFF 		jmp	.L785
 5524      FF
 5525              	.L771:
 5526 321a 488D7C24 		leaq	32(%rsp), %rdi
 5526      20
 5527 321f 4889C3   		movq	%rax, %rbx
 5528 3222 4889D5   		movq	%rdx, %rbp
 5529 3225 E8000000 		call	_ZNSt7__cxx1119basic_ostringstreamIcSt11char_traitsIcESaIcEED1Ev
 5529      00
 5530 322a 4889DF   		movq	%rbx, %rdi
 5531 322d 4889EA   		movq	%rbp, %rdx
 5532 3230 BB010000 		movl	$1, %ebx
 5532      00
 5533 3235 E963FEFF 		jmp	.L733
 5533      FF
 5534              	.L763:
 5535 323a 488D7C24 		leaq	32(%rsp), %rdi
 5535      20
 5536 323f 4889C3   		movq	%rax, %rbx
 5537 3242 4889D5   		movq	%rdx, %rbp
 5538 3245 E8000000 		call	_ZN12_GLOBAL__N_122XmlTestReporterFixtureD2Ev.constprop.46
 5538      00
 5539 324a 4889DF   		movq	%rbx, %rdi
 5540 324d 4889EA   		movq	%rbp, %rdx
 5541 3250 BB010000 		movl	$1, %ebx
 5541      00
 5542 3255 E943FEFF 		jmp	.L733
 5542      FF
 5543              	.L768:
 5544 325a 488D7C24 		leaq	32(%rsp), %rdi
 5544      20
 5545 325f 4889C3   		movq	%rax, %rbx
 5546 3262 4889D5   		movq	%rdx, %rbp
 5547 3265 E8000000 		call	_ZNSt7__cxx1119basic_ostringstreamIcSt11char_traitsIcESaIcEED1Ev
 5547      00
 5548 326a 4889DF   		movq	%rbx, %rdi
 5549 326d 4889EA   		movq	%rbp, %rdx
 5550 3270 31DB     		xorl	%ebx, %ebx
 5551 3272 E926FEFF 		jmp	.L733
 5551      FF
 5552              	.L770:
 5553 3277 488D7C24 		leaq	40(%rsp), %rdi
 5553      28
 5554 327c 4889C3   		movq	%rax, %rbx
 5555 327f 4889D5   		movq	%rdx, %rbp
 5556 3282 E8000000 		call	_ZNSt7__cxx1115basic_stringbufIcSt11char_traitsIcESaIcEED1Ev
 5556      00
 5557 3287 488B0500 		movq	_ZTTNSt7__cxx1119basic_ostringstreamIcSt11char_traitsIcESaIcEEE+8(%rip), %rax
 5557      000000
 5558 328e 488B0D00 		movq	_ZTTNSt7__cxx1119basic_ostringstreamIcSt11char_traitsIcESaIcEEE+16(%rip), %rcx
 5558      000000
 5559 3295 488B40E8 		movq	-24(%rax), %rax
 5560 3299 48894C04 		movq	%rcx, 32(%rsp,%rax)
 5560      20
 5561 329e E9D9FDFF 		jmp	.L732
 5561      FF
 5562              		.cfi_endproc
 5563              	.LFE1428:
 5564              		.section	.gcc_except_table
 5565              		.align 4
 5566              	.LLSDA1428:
 5567 045c FF       		.byte	0xff
 5568 045d 03       		.byte	0x3
 5569 045e 6D       		.uleb128 .LLSDATT1428-.LLSDATTD1428
 5570              	.LLSDATTD1428:
 5571 045f 01       		.byte	0x1
 5572 0460 57       		.uleb128 .LLSDACSE1428-.LLSDACSB1428
 5573              	.LLSDACSB1428:
 5574 0461 B101     		.uleb128 .LEHB160-.LFB1428
 5575 0463 05       		.uleb128 .LEHE160-.LEHB160
 5576 0464 E605     		.uleb128 .L769-.LFB1428
 5577 0466 07       		.uleb128 0x7
 5578 0467 D102     		.uleb128 .LEHB161-.LFB1428
 5579 0469 05       		.uleb128 .LEHE161-.LEHB161
 5580 046a E709     		.uleb128 .L770-.LFB1428
 5581 046c 07       		.uleb128 0x7
 5582 046d E602     		.uleb128 .LEHB162-.LFB1428
 5583 046f 05       		.uleb128 .LEHE162-.LEHB162
 5584 0470 CA09     		.uleb128 .L768-.LFB1428
 5585 0472 07       		.uleb128 0x7
 5586 0473 FB02     		.uleb128 .LEHB163-.LFB1428
 5587 0475 05       		.uleb128 .LEHE163-.LEHB163
 5588 0476 AA09     		.uleb128 .L763-.LFB1428
 5589 0478 07       		.uleb128 0x7
 5590 0479 C004     		.uleb128 .LEHB164-.LFB1428
 5591 047b 05       		.uleb128 .LEHE164-.LEHB164
 5592 047c 8A09     		.uleb128 .L771-.LFB1428
 5593 047e 07       		.uleb128 0x7
 5594 047f B805     		.uleb128 .LEHB165-.LFB1428
 5595 0481 05       		.uleb128 .LEHE165-.LEHB165
 5596 0482 9907     		.uleb128 .L762-.LFB1428
 5597 0484 05       		.uleb128 0x5
 5598 0485 AE06     		.uleb128 .LEHB166-.LFB1428
 5599 0487 05       		.uleb128 .LEHE166-.LEHB166
 5600 0488 C007     		.uleb128 .L765-.LFB1428
 5601 048a 00       		.uleb128 0
 5602 048b CE06     		.uleb128 .LEHB167-.LFB1428
 5603 048d 32       		.uleb128 .LEHE167-.LEHB167
 5604 048e A607     		.uleb128 .L766-.LFB1428
 5605 0490 00       		.uleb128 0
 5606 0491 8507     		.uleb128 .LEHB168-.LFB1428
 5607 0493 05       		.uleb128 .LEHE168-.LEHB168
 5608 0494 C007     		.uleb128 .L765-.LFB1428
 5609 0496 00       		.uleb128 0
 5610 0497 BB07     		.uleb128 .LEHB169-.LFB1428
 5611 0499 05       		.uleb128 .LEHE169-.LEHB169
 5612 049a 00       		.uleb128 0
 5613 049b 00       		.uleb128 0
 5614 049c DD07     		.uleb128 .LEHB170-.LFB1428
 5615 049e 1A       		.uleb128 .LEHE170-.LEHB170
 5616 049f D608     		.uleb128 .L767-.LFB1428
 5617 04a1 00       		.uleb128 0
 5618 04a2 F707     		.uleb128 .LEHB171-.LFB1428
 5619 04a4 05       		.uleb128 .LEHE171-.LEHB171
 5620 04a5 00       		.uleb128 0
 5621 04a6 00       		.uleb128 0
 5622 04a7 9808     		.uleb128 .LEHB172-.LFB1428
 5623 04a9 39       		.uleb128 .LEHE172-.LEHB172
 5624 04aa 8509     		.uleb128 .L764-.LFB1428
 5625 04ac 00       		.uleb128 0
 5626 04ad E108     		.uleb128 .LEHB173-.LFB1428
 5627 04af 05       		.uleb128 .LEHE173-.LEHB173
 5628 04b0 00       		.uleb128 0
 5629 04b1 00       		.uleb128 0
 5630 04b2 E608     		.uleb128 .LEHB174-.LFB1428
 5631 04b4 1A       		.uleb128 .LEHE174-.LEHB174
 5632 04b5 D608     		.uleb128 .L767-.LFB1428
 5633 04b7 00       		.uleb128 0
 5634              	.LLSDACSE1428:
 5635 04b8 03       		.byte	0x3
 5636 04b9 00       		.byte	0
 5637 04ba 02       		.byte	0x2
 5638 04bb 7D       		.byte	0x7d
 5639 04bc 01       		.byte	0x1
 5640 04bd 7D       		.byte	0x7d
 5641 04be 00       		.byte	0
 5642 04bf 7D       		.byte	0x7d
 5643              		.align 4
 5644 04c0 00000000 		.long	0
 5645              	
 5646 04c4 00000000 		.long	_ZTISt9exception
 5647 04c8 00000000 		.long	_ZTIN8UnitTest15AssertExceptionE
 5648              	.LLSDATT1428:
 5649              		.text
 5651              		.section	.text.unlikely
 5652              	.LCOLDE62:
 5653              		.text
 5654              	.LHOTE62:
 5655              		.section	.rodata.str1.1
 5656              	.LC63:
 5657 0103 41204669 		.string	"A File"
 5657      6C6500
 5658              	.LC64:
 5659 010a 41205465 		.string	"A Test"
 5659      737400
 5660              	.LC65:
 5661 0111 41204661 		.string	"A Failure"
 5661      696C7572 
 5661      6500
 5662              		.section	.rodata.str1.8
 5663 047c 00000000 		.align 8
 5664              	.LC66:
 5665 0480 3C3F786D 		.string	"<?xml version=\"1.0\"?><unittest-results tests=\"1\" failedtests=\"1\" failures=\"1\" tim
 5665      6C207665 
 5665      7273696F 
 5665      6E3D2231 
 5665      2E30223F 
 5666              		.section	.text.unlikely
 5667              	.LCOLDB67:
 5668              		.text
 5669              	.LHOTB67:
 5670 32a3 0F1F0066 		.p2align 4,,15
 5670      2E0F1F84 
 5670      00000000 
 5670      00
 5672              	_ZN8UnitTest11ExecuteTestIN12_GLOBAL__N_163XmlTestReporterFixtureSingleFailedTestReportSummaryForma
 5673              	.LFB1718:
 5674              		.cfi_startproc
 5675              		.cfi_personality 0x3,__gxx_personality_v0
 5676              		.cfi_lsda 0x3,.LLSDA1718
 5677 32b0 4154     		pushq	%r12
 5678              		.cfi_def_cfa_offset 16
 5679              		.cfi_offset 12, -16
 5680 32b2 55       		pushq	%rbp
 5681              		.cfi_def_cfa_offset 24
 5682              		.cfi_offset 6, -24
 5683 32b3 53       		pushq	%rbx
 5684              		.cfi_def_cfa_offset 32
 5685              		.cfi_offset 3, -32
 5686 32b4 4889F3   		movq	%rsi, %rbx
 5687 32b7 4881EC20 		subq	$1824, %rsp
 5687      070000
 5688              		.cfi_def_cfa_offset 1856
 5689 32be 48893C24 		movq	%rdi, (%rsp)
 5690 32c2 48897424 		movq	%rsi, 8(%rsp)
 5690      08
 5691 32c7 64488B04 		movq	%fs:40, %rax
 5691      25280000 
 5691      00
 5692 32d0 48898424 		movq	%rax, 1816(%rsp)
 5692      18070000 
 5693 32d8 31C0     		xorl	%eax, %eax
 5694              	.LEHB175:
 5695 32da E8000000 		call	_ZN8UnitTest11CurrentTest7DetailsEv
 5695      00
 5696              	.LEHE175:
 5697 32df 488DBC24 		leaq	688(%rsp), %rdi
 5697      B0020000 
 5698 32e7 488918   		movq	%rbx, (%rax)
 5699              	.LEHB176:
 5700 32ea E8000000 		call	_ZN8UnitTest16SignalTranslatorC1Ev
 5700      00
 5701              	.LEHE176:
 5702 32ef 488B3D00 		movq	_ZN8UnitTest16SignalTranslator12s_jumpTargetE(%rip), %rdi
 5702      000000
 5703 32f6 BE010000 		movl	$1, %esi
 5703      00
 5704 32fb E8000000 		call	__sigsetjmp
 5704      00
 5705 3300 85C0     		testl	%eax, %eax
 5706 3302 0F85F000 		jne	.L877
 5706      0000
 5707 3308 488D7C24 		leaq	80(%rsp), %rdi
 5707      50
 5708 330d 41B8E110 		movl	$4321, %r8d
 5708      0000
 5709 3313 B9000000 		movl	$.LC63, %ecx
 5709      00
 5710 3318 BA000000 		movl	$.LC43, %edx
 5710      00
 5711 331d BE000000 		movl	$.LC64, %esi
 5711      00
 5712              	.LEHB177:
 5713 3322 E8000000 		call	_ZN8UnitTest11TestDetailsC1EPKcS2_S2_i
 5713      00
 5714 3327 488B2C24 		movq	(%rsp), %rbp
 5715 332b 488D7424 		leaq	80(%rsp), %rsi
 5715      50
 5716 3330 488D9D78 		leaq	376(%rbp), %rbx
 5716      010000
 5717 3337 4889DF   		movq	%rbx, %rdi
 5718 333a E8000000 		call	_ZN8UnitTest20DeferredTestReporter15ReportTestStartERKNS_11TestDetailsE
 5718      00
 5719 333f 488D7424 		leaq	80(%rsp), %rsi
 5719      50
 5720 3344 BA000000 		movl	$.LC65, %edx
 5720      00
 5721 3349 4889DF   		movq	%rbx, %rdi
 5722 334c E8000000 		call	_ZN8UnitTest20DeferredTestReporter13ReportFailureERKNS_11TestDetailsEPKc
 5722      00
 5723 3351 F30F1005 		movss	.LC47(%rip), %xmm0
 5723      00000000 
 5724 3359 B9010000 		movl	$1, %ecx
 5724      00
 5725 335e BA010000 		movl	$1, %edx
 5725      00
 5726 3363 BE010000 		movl	$1, %esi
 5726      00
 5727 3368 4889DF   		movq	%rbx, %rdi
 5728 336b E8000000 		call	_ZN8UnitTest15XmlTestReporter13ReportSummaryEiiif
 5728      00
 5729              	.LEHE177:
 5730 3370 48C74424 		movq	$.LC66, 24(%rsp)
 5730      18000000 
 5730      00
 5731              	.LEHB178:
 5732 3379 E8000000 		call	_ZN8UnitTest11CurrentTest7DetailsEv
 5732      00
 5733 337e 488B30   		movq	(%rax), %rsi
 5734 3381 488D7C24 		leaq	112(%rsp), %rdi
 5734      70
 5735 3386 BA700000 		movl	$112, %edx
 5735      00
 5736 338b E8000000 		call	_ZN8UnitTest11TestDetailsC1ERKS0_i
 5736      00
 5737              	.LEHE178:
 5738 3390 488B5530 		movq	48(%rbp), %rdx
 5739 3394 488D8424 		leaq	192(%rsp), %rax
 5739      C0000000 
 5740 339c 48C78424 		movq	$0, 184(%rsp)
 5740      B8000000 
 5740      00000000 
 5741 33a8 C68424C0 		movb	$0, 192(%rsp)
 5741      00000000 
 5742 33b0 48898424 		movq	%rax, 176(%rsp)
 5742      B0000000 
 5743 33b8 4885D2   		testq	%rdx, %rdx
 5744 33bb 0F84AF03 		je	.L794
 5744      0000
 5745 33c1 488B5D20 		movq	32(%rbp), %rbx
 5746 33c5 4839DA   		cmpq	%rbx, %rdx
 5747 33c8 0F862201 		jbe	.L795
 5747      0000
 5748 33ce 488B6D28 		movq	40(%rbp), %rbp
 5749 33d2 488D8424 		leaq	256(%rsp), %rax
 5749      00010000 
 5750 33da 48898424 		movq	%rax, 240(%rsp)
 5750      F0000000 
 5751 33e2 4885ED   		testq	%rbp, %rbp
 5752 33e5 7539     		jne	.L878
 5753 33e7 BF000000 		movl	$.LC33, %edi
 5753      00
 5754              	.LEHB179:
 5755 33ec E8000000 		call	_ZSt19__throw_logic_errorPKc
 5755      00
 5756              	.LEHE179:
 5757              		.p2align 4,,10
 5758 33f1 0F1F8000 		.p2align 3
 5758      000000
 5759              	.L877:
 5760 33f8 BF080000 		movl	$8, %edi
 5760      00
 5761 33fd E8000000 		call	__cxa_allocate_exception
 5761      00
 5762 3402 31D2     		xorl	%edx, %edx
 5763 3404 48C70000 		movq	$.LC23, (%rax)
 5763      000000
 5764 340b BE000000 		movl	$_ZTIPKc, %esi
 5764      00
 5765 3410 4889C7   		movq	%rax, %rdi
 5766              	.LEHB180:
 5767 3413 E8000000 		call	__cxa_throw
 5767      00
 5768              	.LEHE180:
 5769 3418 0F1F8400 		.p2align 4,,10
 5769      00000000 
 5770              		.p2align 3
 5771              	.L878:
 5772 3420 4829EA   		subq	%rbp, %rdx
 5773 3423 4883FA0F 		cmpq	$15, %rdx
 5774 3427 4889D3   		movq	%rdx, %rbx
 5775 342a 48895424 		movq	%rdx, 32(%rsp)
 5775      20
 5776 342f 0F87AB01 		ja	.L879
 5776      0000
 5777 3435 4883FB01 		cmpq	$1, %rbx
 5778 3439 0F840103 		je	.L880
 5778      0000
 5779 343f 4885DB   		testq	%rbx, %rbx
 5780 3442 4889C2   		movq	%rax, %rdx
 5781 3445 0F853F03 		jne	.L881
 5781      0000
 5782              	.L800:
 5783 344b 488DB424 		leaq	240(%rsp), %rsi
 5783      F0000000 
 5784 3453 488DBC24 		leaq	176(%rsp), %rdi
 5784      B0000000 
 5785 345b 48899C24 		movq	%rbx, 248(%rsp)
 5785      F8000000 
 5786 3463 C6041A00 		movb	$0, (%rdx,%rbx)
 5787              	.LEHB181:
 5788 3467 E8000000 		call	_ZNSt7__cxx1112basic_stringIcSt11char_traitsIcESaIcEE9_M_assignERKS4_
 5788      00
 5789              	.LEHE181:
 5790 346c 488BBC24 		movq	240(%rsp), %rdi
 5790      F0000000 
 5791 3474 488D8424 		leaq	256(%rsp), %rax
 5791      00010000 
 5792 347c 4839C7   		cmpq	%rax, %rdi
 5793 347f 7405     		je	.L802
 5794              	.L867:
 5795 3481 E8000000 		call	_ZdlPv
 5795      00
 5796              	.L802:
 5797              	.LEHB182:
 5798 3486 E8000000 		call	_ZN8UnitTest11CurrentTest7ResultsEv
 5798      00
 5799 348b 488B38   		movq	(%rax), %rdi
 5800 348e 488D4C24 		leaq	112(%rsp), %rcx
 5800      70
 5801 3493 488D9424 		leaq	176(%rsp), %rdx
 5801      B0000000 
 5802 349b 488D7424 		leaq	24(%rsp), %rsi
 5802      18
 5803 34a0 E8000000 		call	_ZN8UnitTest10CheckEqualIPKcNSt7__cxx1112basic_stringIcSt11char_traitsIcESaIcEEEEEvRNS_11Test
 5803      00
 5804              	.LEHE182:
 5805 34a5 488BBC24 		movq	176(%rsp), %rdi
 5805      B0000000 
 5806 34ad 488D8424 		leaq	192(%rsp), %rax
 5806      C0000000 
 5807 34b5 4839C7   		cmpq	%rax, %rdi
 5808 34b8 7405     		je	.L823
 5809 34ba E8000000 		call	_ZdlPv
 5809      00
 5810              	.L823:
 5811 34bf 488DBC24 		leaq	688(%rsp), %rdi
 5811      B0020000 
 5812              	.LEHB183:
 5813 34c7 E8000000 		call	_ZN8UnitTest16SignalTranslatorD1Ev
 5813      00
 5814              	.LEHE183:
 5815              	.L791:
 5816 34cc 488B8424 		movq	1816(%rsp), %rax
 5816      18070000 
 5817 34d4 64483304 		xorq	%fs:40, %rax
 5817      25280000 
 5817      00
 5818 34dd 0F85B702 		jne	.L882
 5818      0000
 5819 34e3 4881C420 		addq	$1824, %rsp
 5819      070000
 5820              		.cfi_remember_state
 5821              		.cfi_def_cfa_offset 32
 5822 34ea 5B       		popq	%rbx
 5823              		.cfi_def_cfa_offset 24
 5824 34eb 5D       		popq	%rbp
 5825              		.cfi_def_cfa_offset 16
 5826 34ec 415C     		popq	%r12
 5827              		.cfi_def_cfa_offset 8
 5828 34ee C3       		ret
 5829 34ef 90       		.p2align 4,,10
 5830              		.p2align 3
 5831              	.L795:
 5832              		.cfi_restore_state
 5833 34f0 488B0424 		movq	(%rsp), %rax
 5834 34f4 488B6828 		movq	40(%rax), %rbp
 5835 34f8 488D8424 		leaq	224(%rsp), %rax
 5835      E0000000 
 5836 3500 48898424 		movq	%rax, 208(%rsp)
 5836      D0000000 
 5837 3508 4885ED   		testq	%rbp, %rbp
 5838 350b 7513     		jne	.L806
 5839 350d 4885DB   		testq	%rbx, %rbx
 5840 3510 740E     		je	.L806
 5841 3512 BF000000 		movl	$.LC33, %edi
 5841      00
 5842              	.LEHB184:
 5843 3517 E8000000 		call	_ZSt19__throw_logic_errorPKc
 5843      00
 5844              	.LEHE184:
 5845 351c 0F1F4000 		.p2align 4,,10
 5846              		.p2align 3
 5847              	.L806:
 5848 3520 4829EB   		subq	%rbp, %rbx
 5849 3523 4883FB0F 		cmpq	$15, %rbx
 5850 3527 48895C24 		movq	%rbx, 40(%rsp)
 5850      28
 5851 352c 7762     		ja	.L883
 5852 352e 4883FB01 		cmpq	$1, %rbx
 5853 3532 0F842002 		je	.L884
 5853      0000
 5854 3538 4885DB   		testq	%rbx, %rbx
 5855 353b 488D8424 		leaq	224(%rsp), %rax
 5855      E0000000 
 5856 3543 0F854902 		jne	.L885
 5856      0000
 5857              	.L809:
 5858 3549 488DB424 		leaq	208(%rsp), %rsi
 5858      D0000000 
 5859 3551 488DBC24 		leaq	176(%rsp), %rdi
 5859      B0000000 
 5860 3559 48899C24 		movq	%rbx, 216(%rsp)
 5860      D8000000 
 5861 3561 C6041800 		movb	$0, (%rax,%rbx)
 5862              	.LEHB185:
 5863 3565 E8000000 		call	_ZNSt7__cxx1112basic_stringIcSt11char_traitsIcESaIcEE9_M_assignERKS4_
 5863      00
 5864              	.LEHE185:
 5865 356a 488BBC24 		movq	208(%rsp), %rdi
 5865      D0000000 
 5866 3572 488D8424 		leaq	224(%rsp), %rax
 5866      E0000000 
 5867 357a 4839C7   		cmpq	%rax, %rdi
 5868 357d 0F85FEFE 		jne	.L867
 5868      FFFF
 5869 3583 E9FEFEFF 		jmp	.L802
 5869      FF
 5870 3588 0F1F8400 		.p2align 4,,10
 5870      00000000 
 5871              		.p2align 3
 5872              	.L883:
 5873 3590 488D7424 		leaq	40(%rsp), %rsi
 5873      28
 5874 3595 488DBC24 		leaq	208(%rsp), %rdi
 5874      D0000000 
 5875 359d 31D2     		xorl	%edx, %edx
 5876              	.LEHB186:
 5877 359f E8000000 		call	_ZNSt7__cxx1112basic_stringIcSt11char_traitsIcESaIcEE9_M_createERmm
 5877      00
 5878 35a4 4889C7   		movq	%rax, %rdi
 5879 35a7 48898424 		movq	%rax, 208(%rsp)
 5879      D0000000 
 5880 35af 488B4424 		movq	40(%rsp), %rax
 5880      28
 5881 35b4 48898424 		movq	%rax, 224(%rsp)
 5881      E0000000 
 5882              	.L807:
 5883 35bc 4889DA   		movq	%rbx, %rdx
 5884 35bf 4889EE   		movq	%rbp, %rsi
 5885 35c2 E8000000 		call	memcpy
 5885      00
 5886 35c7 488B5C24 		movq	40(%rsp), %rbx
 5886      28
 5887 35cc 488B8424 		movq	208(%rsp), %rax
 5887      D0000000 
 5888 35d4 E970FFFF 		jmp	.L809
 5888      FF
 5889 35d9 0F1F8000 		.p2align 4,,10
 5889      000000
 5890              		.p2align 3
 5891              	.L879:
 5892 35e0 488D7424 		leaq	32(%rsp), %rsi
 5892      20
 5893 35e5 488DBC24 		leaq	240(%rsp), %rdi
 5893      F0000000 
 5894 35ed 31D2     		xorl	%edx, %edx
 5895 35ef E8000000 		call	_ZNSt7__cxx1112basic_stringIcSt11char_traitsIcESaIcEE9_M_createERmm
 5895      00
 5896              	.LEHE186:
 5897 35f4 4889C7   		movq	%rax, %rdi
 5898 35f7 48898424 		movq	%rax, 240(%rsp)
 5898      F0000000 
 5899 35ff 488B4424 		movq	32(%rsp), %rax
 5899      20
 5900 3604 48898424 		movq	%rax, 256(%rsp)
 5900      00010000 
 5901              	.L798:
 5902 360c 4889DA   		movq	%rbx, %rdx
 5903 360f 4889EE   		movq	%rbp, %rsi
 5904 3612 E8000000 		call	memcpy
 5904      00
 5905 3617 488B5C24 		movq	32(%rsp), %rbx
 5905      20
 5906 361c 488B9424 		movq	240(%rsp), %rdx
 5906      F0000000 
 5907 3624 E922FEFF 		jmp	.L800
 5907      FF
 5908              	.L853:
 5909 3629 4889C3   		movq	%rax, %rbx
 5910 362c 4889D5   		movq	%rdx, %rbp
 5911              	.L830:
 5912 362f 488DBC24 		leaq	688(%rsp), %rdi
 5912      B0020000 
 5913 3637 E8000000 		call	_ZN8UnitTest16SignalTranslatorD1Ev
 5913      00
 5914 363c 4889DF   		movq	%rbx, %rdi
 5915 363f 4889EA   		movq	%rbp, %rdx
 5916              	.L831:
 5917 3642 4883FA01 		cmpq	$1, %rdx
 5918 3646 0F840002 		je	.L833
 5918      0000
 5919 364c 4883FA02 		cmpq	$2, %rdx
 5920 3650 0F85D001 		jne	.L886
 5920      0000
 5921 3656 E8000000 		call	__cxa_begin_catch
 5921      00
 5922 365b 488DBC24 		leaq	272(%rsp), %rdi
 5922      10010000 
 5923 3663 4889C3   		movq	%rax, %rbx
 5924              	.LEHB187:
 5925 3666 E8000000 		call	_ZN8UnitTest15MemoryOutStreamC1Ev
 5925      00
 5926              	.LEHE187:
 5927 366b 488B03   		movq	(%rbx), %rax
 5928 366e 4889DF   		movq	%rbx, %rdi
 5929 3671 FF5010   		call	*16(%rax)
 5930 3674 488DBC24 		leaq	272(%rsp), %rdi
 5930      10010000 
 5931 367c BA150000 		movl	$21, %edx
 5931      00
 5932 3681 BE000000 		movl	$.LC31, %esi
 5932      00
 5933 3686 4889C3   		movq	%rax, %rbx
 5934              	.LEHB188:
 5935 3689 E8000000 		call	_ZSt16__ostream_insertIcSt11char_traitsIcEERSt13basic_ostreamIT_T0_ES6_PKS3_l
 5935      00
 5936 368e 488DBC24 		leaq	272(%rsp), %rdi
 5936      10010000 
 5937 3696 4889DE   		movq	%rbx, %rsi
 5938 3699 E8000000 		call	_ZStlsISt11char_traitsIcEERSt13basic_ostreamIcT_ES5_PKc
 5938      00
 5939 369e 488DBC24 		leaq	272(%rsp), %rdi
 5939      10010000 
 5940 36a6 E8000000 		call	_ZNK8UnitTest15MemoryOutStream7GetTextEv
 5940      00
 5941 36ab 4889C3   		movq	%rax, %rbx
 5942 36ae E8000000 		call	_ZN8UnitTest11CurrentTest7ResultsEv
 5942      00
 5943 36b3 488B7424 		movq	8(%rsp), %rsi
 5943      08
 5944 36b8 488B38   		movq	(%rax), %rdi
 5945 36bb 4889DA   		movq	%rbx, %rdx
 5946 36be E8000000 		call	_ZN8UnitTest11TestResults13OnTestFailureERKNS_11TestDetailsEPKc
 5946      00
 5947              	.LEHE188:
 5948 36c3 488DBC24 		leaq	272(%rsp), %rdi
 5948      10010000 
 5949              	.LEHB189:
 5950 36cb E8000000 		call	_ZN8UnitTest15MemoryOutStreamD1Ev
 5950      00
 5951              	.LEHE189:
 5952              	.L868:
 5953 36d0 E8000000 		call	__cxa_end_catch
 5953      00
 5954 36d5 E9F2FDFF 		jmp	.L791
 5954      FF
 5955              	.L857:
 5956              	.L872:
 5957 36da 4889C3   		movq	%rax, %rbx
 5958              	.L871:
 5959 36dd 488BBC24 		movq	176(%rsp), %rdi
 5959      B0000000 
 5960 36e5 488D8424 		leaq	192(%rsp), %rax
 5960      C0000000 
 5961 36ed 4839C7   		cmpq	%rax, %rdi
 5962 36f0 7405     		je	.L828
 5963 36f2 E8000000 		call	_ZdlPv
 5963      00
 5964              	.L828:
 5965 36f7 4889D8   		movq	%rbx, %rax
 5966              	.L820:
 5967 36fa 4889C7   		movq	%rax, %rdi
 5968 36fd E8000000 		call	__cxa_begin_catch
 5968      00
 5969              	.LEHB190:
 5970 3702 E8000000 		call	_ZN8UnitTest11CurrentTest7DetailsEv
 5970      00
 5971 3707 488B30   		movq	(%rax), %rsi
 5972 370a 488DBC24 		leaq	144(%rsp), %rdi
 5972      90000000 
 5973 3712 BA700000 		movl	$112, %edx
 5973      00
 5974 3717 E8000000 		call	_ZN8UnitTest11TestDetailsC1ERKS0_i
 5974      00
 5975 371c E8000000 		call	_ZN8UnitTest11CurrentTest7ResultsEv
 5975      00
 5976 3721 488B38   		movq	(%rax), %rdi
 5977 3724 488DB424 		leaq	144(%rsp), %rsi
 5977      90000000 
 5978 372c BA000000 		movl	$.LC50, %edx
 5978      00
 5979 3731 E8000000 		call	_ZN8UnitTest11TestResults13OnTestFailureERKNS_11TestDetailsEPKc
 5979      00
 5980              	.LEHE190:
 5981              	.LEHB191:
 5982 3736 E8000000 		call	__cxa_end_catch
 5982      00
 5983              	.LEHE191:
 5984 373b E97FFDFF 		jmp	.L823
 5984      FF
 5985              		.p2align 4,,10
 5986              		.p2align 3
 5987              	.L880:
 5988 3740 0FB65500 		movzbl	0(%rbp), %edx
 5989 3744 88942400 		movb	%dl, 256(%rsp)
 5989      010000
 5990 374b 4889C2   		movq	%rax, %rdx
 5991 374e E9F8FCFF 		jmp	.L800
 5991      FF
 5992              		.p2align 4,,10
 5993 3753 0F1F4400 		.p2align 3
 5993      00
 5994              	.L884:
 5995 3758 0FB64500 		movzbl	0(%rbp), %eax
 5996 375c 888424E0 		movb	%al, 224(%rsp)
 5996      000000
 5997 3763 488D8424 		leaq	224(%rsp), %rax
 5997      E0000000 
 5998 376b E9D9FDFF 		jmp	.L809
 5998      FF
 5999              		.p2align 4,,10
 6000              		.p2align 3
 6001              	.L794:
 6002 3770 488B3424 		movq	(%rsp), %rsi
 6003 3774 488DBC24 		leaq	176(%rsp), %rdi
 6003      B0000000 
 6004 377c 4883C650 		addq	$80, %rsi
 6005              	.LEHB192:
 6006 3780 E8000000 		call	_ZNSt7__cxx1112basic_stringIcSt11char_traitsIcESaIcEE9_M_assignERKS4_
 6006      00
 6007              	.LEHE192:
 6008 3785 E9FCFCFF 		jmp	.L802
 6008      FF
 6009              	.L881:
 6010 378a 4889C7   		movq	%rax, %rdi
 6011 378d E97AFEFF 		jmp	.L798
 6011      FF
 6012              	.L885:
 6013 3792 4889C7   		movq	%rax, %rdi
 6014 3795 E922FEFF 		jmp	.L807
 6014      FF
 6015              	.L882:
 6016 379a E8000000 		call	__stack_chk_fail
 6016      00
 6017              	.L855:
 6018 379f E936FFFF 		jmp	.L872
 6018      FF
 6019              	.L859:
 6020 37a4 488BBC24 		movq	240(%rsp), %rdi
 6020      F0000000 
 6021 37ac 4889C3   		movq	%rax, %rbx
 6022 37af 488D8424 		leaq	256(%rsp), %rax
 6022      00010000 
 6023 37b7 4839C7   		cmpq	%rax, %rdi
 6024 37ba 0F841DFF 		je	.L871
 6024      FFFF
 6025              	.L866:
 6026 37c0 E8000000 		call	_ZdlPv
 6026      00
 6027 37c5 E913FFFF 		jmp	.L871
 6027      FF
 6028              	.L858:
 6029 37ca 488BBC24 		movq	208(%rsp), %rdi
 6029      D0000000 
 6030 37d2 4889C3   		movq	%rax, %rbx
 6031 37d5 488D8424 		leaq	224(%rsp), %rax
 6031      E0000000 
 6032 37dd 4839C7   		cmpq	%rax, %rdi
 6033 37e0 75DE     		jne	.L866
 6034 37e2 E9F6FEFF 		jmp	.L871
 6034      FF
 6035              	.L856:
 6036 37e7 4889C3   		movq	%rax, %rbx
 6037 37ea 4889D5   		movq	%rdx, %rbp
 6038 37ed E8000000 		call	__cxa_end_catch
 6038      00
 6039 37f2 E938FEFF 		jmp	.L830
 6039      FF
 6040              	.L854:
 6041 37f7 E9FEFEFF 		jmp	.L820
 6041      FF
 6042              	.L852:
 6043 37fc 4889C7   		movq	%rax, %rdi
 6044 37ff E93EFEFF 		jmp	.L831
 6044      FF
 6045              	.L850:
 6046 3804 488DBC24 		leaq	272(%rsp), %rdi
 6046      10010000 
 6047 380c 4889C3   		movq	%rax, %rbx
 6048 380f E8000000 		call	_ZN8UnitTest15MemoryOutStreamD1Ev
 6048      00
 6049              	.L839:
 6050 3814 E8000000 		call	__cxa_end_catch
 6050      00
 6051 3819 4889DF   		movq	%rbx, %rdi
 6052              	.LEHB193:
 6053 381c E8000000 		call	_Unwind_Resume
 6053      00
 6054              	.LEHE193:
 6055              	.L849:
 6056              	.L869:
 6057 3821 4889C3   		movq	%rax, %rbx
 6058 3824 EBEE     		jmp	.L839
 6059              	.L886:
 6060 3826 E8000000 		call	__cxa_begin_catch
 6060      00
 6061              	.LEHB194:
 6062 382b E8000000 		call	_ZN8UnitTest11CurrentTest7ResultsEv
 6062      00
 6063 3830 488B7424 		movq	8(%rsp), %rsi
 6063      08
 6064 3835 488B38   		movq	(%rax), %rdi
 6065 3838 BA000000 		movl	$.LC32, %edx
 6065      00
 6066 383d E8000000 		call	_ZN8UnitTest11TestResults13OnTestFailureERKNS_11TestDetailsEPKc
 6066      00
 6067              	.LEHE194:
 6068              	.LEHB195:
 6069 3842 E8000000 		call	__cxa_end_catch
 6069      00
 6070              	.LEHE195:
 6071 3847 E980FCFF 		jmp	.L791
 6071      FF
 6072              	.L833:
 6073 384c E8000000 		call	__cxa_begin_catch
 6073      00
 6074 3851 4889C3   		movq	%rax, %rbx
 6075 3854 488B00   		movq	(%rax), %rax
 6076 3857 4889DF   		movq	%rbx, %rdi
 6077 385a FF5010   		call	*16(%rax)
 6078 385d 4889DF   		movq	%rbx, %rdi
 6079 3860 4889C5   		movq	%rax, %rbp
 6080              	.LEHB196:
 6081 3863 E8000000 		call	_ZNK8UnitTest15AssertException10LineNumberEv
 6081      00
 6082 3868 4889DF   		movq	%rbx, %rdi
 6083 386b 4189C4   		movl	%eax, %r12d
 6084 386e E8000000 		call	_ZNK8UnitTest15AssertException8FilenameEv
 6084      00
 6085 3873 488B5424 		movq	8(%rsp), %rdx
 6085      08
 6086 3878 488D7C24 		leaq	48(%rsp), %rdi
 6086      30
 6087 387d 4589E0   		movl	%r12d, %r8d
 6088 3880 4889C1   		movq	%rax, %rcx
 6089 3883 488B7208 		movq	8(%rdx), %rsi
 6090 3887 488B12   		movq	(%rdx), %rdx
 6091 388a E8000000 		call	_ZN8UnitTest11TestDetailsC1EPKcS2_S2_i
 6091      00
 6092 388f E8000000 		call	_ZN8UnitTest11CurrentTest7ResultsEv
 6092      00
 6093 3894 488B38   		movq	(%rax), %rdi
 6094 3897 488D7424 		leaq	48(%rsp), %rsi
 6094      30
 6095 389c 4889EA   		movq	%rbp, %rdx
 6096 389f E8000000 		call	_ZN8UnitTest11TestResults13OnTestFailureERKNS_11TestDetailsEPKc
 6096      00
 6097              	.LEHE196:
 6098 38a4 E927FEFF 		jmp	.L868
 6098      FF
 6099              	.L848:
 6100 38a9 4889C3   		movq	%rax, %rbx
 6101 38ac E8000000 		call	__cxa_end_catch
 6101      00
 6102 38b1 4889DF   		movq	%rbx, %rdi
 6103              	.LEHB197:
 6104 38b4 E8000000 		call	_Unwind_Resume
 6104      00
 6105              	.LEHE197:
 6106              	.L851:
 6107 38b9 E963FFFF 		jmp	.L869
 6107      FF
 6108              		.cfi_endproc
 6109              	.LFE1718:
 6110              		.section	.gcc_except_table
 6111              		.align 4
 6112              	.LLSDA1718:
 6113 04cc FF       		.byte	0xff
 6114 04cd 03       		.byte	0x3
 6115 04ce 9C01     		.uleb128 .LLSDATT1718-.LLSDATTD1718
 6116              	.LLSDATTD1718:
 6117 04d0 01       		.byte	0x1
 6118 04d1 8301     		.uleb128 .LLSDACSE1718-.LLSDACSB1718
 6119              	.LLSDACSB1718:
 6120 04d3 2A       		.uleb128 .LEHB175-.LFB1718
 6121 04d4 05       		.uleb128 .LEHE175-.LEHB175
 6122 04d5 00       		.uleb128 0
 6123 04d6 00       		.uleb128 0
 6124 04d7 3A       		.uleb128 .LEHB176-.LFB1718
 6125 04d8 05       		.uleb128 .LEHE176-.LEHB176
 6126 04d9 CC0A     		.uleb128 .L852-.LFB1718
 6127 04db 05       		.uleb128 0x5
 6128 04dc 72       		.uleb128 .LEHB177-.LFB1718
 6129 04dd 4E       		.uleb128 .LEHE177-.LEHB177
 6130 04de F906     		.uleb128 .L853-.LFB1718
 6131 04e0 07       		.uleb128 0x7
 6132 04e1 C901     		.uleb128 .LEHB178-.LFB1718
 6133 04e3 17       		.uleb128 .LEHE178-.LEHB178
 6134 04e4 C70A     		.uleb128 .L854-.LFB1718
 6135 04e6 01       		.uleb128 0x1
 6136 04e7 BC02     		.uleb128 .LEHB179-.LFB1718
 6137 04e9 05       		.uleb128 .LEHE179-.LEHB179
 6138 04ea AA08     		.uleb128 .L857-.LFB1718
 6139 04ec 01       		.uleb128 0x1
 6140 04ed E302     		.uleb128 .LEHB180-.LFB1718
 6141 04ef 05       		.uleb128 .LEHE180-.LEHB180
 6142 04f0 F906     		.uleb128 .L853-.LFB1718
 6143 04f2 07       		.uleb128 0x7
 6144 04f3 B703     		.uleb128 .LEHB181-.LFB1718
 6145 04f5 05       		.uleb128 .LEHE181-.LEHB181
 6146 04f6 F409     		.uleb128 .L859-.LFB1718
 6147 04f8 01       		.uleb128 0x1
 6148 04f9 D603     		.uleb128 .LEHB182-.LFB1718
 6149 04fb 1F       		.uleb128 .LEHE182-.LEHB182
 6150 04fc EF09     		.uleb128 .L855-.LFB1718
 6151 04fe 01       		.uleb128 0x1
 6152 04ff 9704     		.uleb128 .LEHB183-.LFB1718
 6153 0501 05       		.uleb128 .LEHE183-.LEHB183
 6154 0502 CC0A     		.uleb128 .L852-.LFB1718
 6155 0504 05       		.uleb128 0x5
 6156 0505 E704     		.uleb128 .LEHB184-.LFB1718
 6157 0507 05       		.uleb128 .LEHE184-.LEHB184
 6158 0508 AA08     		.uleb128 .L857-.LFB1718
 6159 050a 01       		.uleb128 0x1
 6160 050b B505     		.uleb128 .LEHB185-.LFB1718
 6161 050d 05       		.uleb128 .LEHE185-.LEHB185
 6162 050e 9A0A     		.uleb128 .L858-.LFB1718
 6163 0510 01       		.uleb128 0x1
 6164 0511 EF05     		.uleb128 .LEHB186-.LFB1718
 6165 0513 55       		.uleb128 .LEHE186-.LEHB186
 6166 0514 AA08     		.uleb128 .L857-.LFB1718
 6167 0516 01       		.uleb128 0x1
 6168 0517 B607     		.uleb128 .LEHB187-.LFB1718
 6169 0519 05       		.uleb128 .LEHE187-.LEHB187
 6170 051a F10A     		.uleb128 .L849-.LFB1718
 6171 051c 00       		.uleb128 0
 6172 051d D907     		.uleb128 .LEHB188-.LFB1718
 6173 051f 3A       		.uleb128 .LEHE188-.LEHB188
 6174 0520 D40A     		.uleb128 .L850-.LFB1718
 6175 0522 00       		.uleb128 0
 6176 0523 9B08     		.uleb128 .LEHB189-.LFB1718
 6177 0525 05       		.uleb128 .LEHE189-.LEHB189
 6178 0526 F10A     		.uleb128 .L849-.LFB1718
 6179 0528 00       		.uleb128 0
 6180 0529 D208     		.uleb128 .LEHB190-.LFB1718
 6181 052b 34       		.uleb128 .LEHE190-.LEHB190
 6182 052c B70A     		.uleb128 .L856-.LFB1718
 6183 052e 07       		.uleb128 0x7
 6184 052f 8609     		.uleb128 .LEHB191-.LFB1718
 6185 0531 05       		.uleb128 .LEHE191-.LEHB191
 6186 0532 F906     		.uleb128 .L853-.LFB1718
 6187 0534 07       		.uleb128 0x7
 6188 0535 D009     		.uleb128 .LEHB192-.LFB1718
 6189 0537 05       		.uleb128 .LEHE192-.LEHB192
 6190 0538 AA08     		.uleb128 .L857-.LFB1718
 6191 053a 01       		.uleb128 0x1
 6192 053b EC0A     		.uleb128 .LEHB193-.LFB1718
 6193 053d 05       		.uleb128 .LEHE193-.LEHB193
 6194 053e 00       		.uleb128 0
 6195 053f 00       		.uleb128 0
 6196 0540 FB0A     		.uleb128 .LEHB194-.LFB1718
 6197 0542 17       		.uleb128 .LEHE194-.LEHB194
 6198 0543 F90B     		.uleb128 .L848-.LFB1718
 6199 0545 00       		.uleb128 0
 6200 0546 920B     		.uleb128 .LEHB195-.LFB1718
 6201 0548 05       		.uleb128 .LEHE195-.LEHB195
 6202 0549 00       		.uleb128 0
 6203 054a 00       		.uleb128 0
 6204 054b B30B     		.uleb128 .LEHB196-.LFB1718
 6205 054d 41       		.uleb128 .LEHE196-.LEHB196
 6206 054e 890C     		.uleb128 .L851-.LFB1718
 6207 0550 00       		.uleb128 0
 6208 0551 840C     		.uleb128 .LEHB197-.LFB1718
 6209 0553 05       		.uleb128 .LEHE197-.LEHB197
 6210 0554 00       		.uleb128 0
 6211 0555 00       		.uleb128 0
 6212              	.LLSDACSE1718:
 6213 0556 03       		.byte	0x3
 6214 0557 00       		.byte	0
 6215 0558 02       		.byte	0x2
 6216 0559 7D       		.byte	0x7d
 6217 055a 01       		.byte	0x1
 6218 055b 7D       		.byte	0x7d
 6219 055c 00       		.byte	0
 6220 055d 7D       		.byte	0x7d
 6221 055e 0000     		.align 4
 6222 0560 00000000 		.long	0
 6223              	
 6224 0564 00000000 		.long	_ZTISt9exception
 6225 0568 00000000 		.long	_ZTIN8UnitTest15AssertExceptionE
 6226              	.LLSDATT1718:
 6227              		.text
 6229              		.section	.text.unlikely
 6230              	.LCOLDE67:
 6231              		.text
 6232              	.LHOTE67:
 6233              		.section	.text.unlikely
 6234              		.align 2
 6235              	.LCOLDB68:
 6236              		.text
 6237              	.LHOTB68:
 6238              		.align 2
 6239 38be 6690     		.p2align 4,,15
 6241              	_ZNK12_GLOBAL__N_161TestXmlTestReporterFixtureSingleFailedTestReportSummaryFormat7RunImplEv:
 6242              	.LFB1417:
 6243              		.cfi_startproc
 6244              		.cfi_personality 0x3,__gxx_personality_v0
 6245              		.cfi_lsda 0x3,.LLSDA1417
 6246 38c0 4157     		pushq	%r15
 6247              		.cfi_def_cfa_offset 16
 6248              		.cfi_offset 15, -16
 6249 38c2 4156     		pushq	%r14
 6250              		.cfi_def_cfa_offset 24
 6251              		.cfi_offset 14, -24
 6252 38c4 4989FF   		movq	%rdi, %r15
 6253 38c7 4155     		pushq	%r13
 6254              		.cfi_def_cfa_offset 32
 6255              		.cfi_offset 13, -32
 6256 38c9 4154     		pushq	%r12
 6257              		.cfi_def_cfa_offset 40
 6258              		.cfi_offset 12, -40
 6259 38cb 4C8D7708 		leaq	8(%rdi), %r14
 6260 38cf 55       		pushq	%rbp
 6261              		.cfi_def_cfa_offset 48
 6262              		.cfi_offset 6, -48
 6263 38d0 53       		pushq	%rbx
 6264              		.cfi_def_cfa_offset 56
 6265              		.cfi_offset 3, -56
 6266 38d1 4881ECD8 		subq	$472, %rsp
 6266      010000
 6267              		.cfi_def_cfa_offset 528
 6268 38d8 488DBC24 		leaq	144(%rsp), %rdi
 6268      90000000 
 6269 38e0 64488B04 		movq	%fs:40, %rax
 6269      25280000 
 6269      00
 6270 38e9 48898424 		movq	%rax, 456(%rsp)
 6270      C8010000 
 6271 38f1 31C0     		xorl	%eax, %eax
 6272 38f3 E8000000 		call	_ZNSt8ios_baseC2Ev
 6272      00
 6273 38f8 488B0500 		movq	_ZTTNSt7__cxx1119basic_ostringstreamIcSt11char_traitsIcESaIcEEE+8(%rip), %rax
 6273      000000
 6274 38ff C6842470 		movb	$0, 368(%rsp)
 6274      01000000 
 6275 3907 488D7C24 		leaq	32(%rsp), %rdi
 6275      20
 6276 390c 48C78424 		movq	$_ZTVSt9basic_iosIcSt11char_traitsIcEE+16, 144(%rsp)
 6276      90000000 
 6276      00000000 
 6277 3918 48C78424 		movq	$0, 360(%rsp)
 6277      68010000 
 6277      00000000 
 6278 3924 31F6     		xorl	%esi, %esi
 6279 3926 C6842471 		movb	$0, 369(%rsp)
 6279      01000000 
 6280 392e 48C78424 		movq	$0, 376(%rsp)
 6280      78010000 
 6280      00000000 
 6281 393a 480378E8 		addq	-24(%rax), %rdi
 6282 393e 48894424 		movq	%rax, 32(%rsp)
 6282      20
 6283 3943 488B0500 		movq	_ZTTNSt7__cxx1119basic_ostringstreamIcSt11char_traitsIcESaIcEEE+16(%rip), %rax
 6283      000000
 6284 394a 48C78424 		movq	$0, 384(%rsp)
 6284      80010000 
 6284      00000000 
 6285 3956 48C78424 		movq	$0, 392(%rsp)
 6285      88010000 
 6285      00000000 
 6286 3962 48C78424 		movq	$0, 400(%rsp)
 6286      90010000 
 6286      00000000 
 6287 396e 488907   		movq	%rax, (%rdi)
 6288              	.LEHB198:
 6289 3971 E8000000 		call	_ZNSt9basic_iosIcSt11char_traitsIcEE4initEPSt15basic_streambufIcS1_E
 6289      00
 6290              	.LEHE198:
 6291 3976 488D7C24 		leaq	96(%rsp), %rdi
 6291      60
 6292 397b 48C74424 		movq	$_ZTVNSt7__cxx1119basic_ostringstreamIcSt11char_traitsIcESaIcEEE+24, 32(%rsp)
 6292      20000000 
 6292      00
 6293 3984 48C78424 		movq	$_ZTVNSt7__cxx1119basic_ostringstreamIcSt11char_traitsIcESaIcEEE+64, 144(%rsp)
 6293      90000000 
 6293      00000000 
 6294 3990 48C74424 		movq	$_ZTVSt15basic_streambufIcSt11char_traitsIcEE+16, 40(%rsp)
 6294      28000000 
 6294      00
 6295 3999 48C74424 		movq	$0, 48(%rsp)
 6295      30000000 
 6295      00
 6296 39a2 48C74424 		movq	$0, 56(%rsp)
 6296      38000000 
 6296      00
 6297 39ab 48C74424 		movq	$0, 64(%rsp)
 6297      40000000 
 6297      00
 6298 39b4 48C74424 		movq	$0, 72(%rsp)
 6298      48000000 
 6298      00
 6299 39bd 48C74424 		movq	$0, 80(%rsp)
 6299      50000000 
 6299      00
 6300 39c6 48C74424 		movq	$0, 88(%rsp)
 6300      58000000 
 6300      00
 6301 39cf E8000000 		call	_ZNSt6localeC1Ev
 6301      00
 6302 39d4 488D8424 		leaq	128(%rsp), %rax
 6302      80000000 
 6303 39dc 488D7424 		leaq	40(%rsp), %rsi
 6303      28
 6304 39e1 48C74424 		movq	$_ZTVNSt7__cxx1115basic_stringbufIcSt11char_traitsIcESaIcEEE+16, 40(%rsp)
 6304      28000000 
 6304      00
 6305 39ea C7442468 		movl	$16, 104(%rsp)
 6305      10000000 
 6306 39f2 48C74424 		movq	$0, 120(%rsp)
 6306      78000000 
 6306      00
 6307 39fb 48894424 		movq	%rax, 112(%rsp)
 6307      70
 6308 3a00 488D4424 		leaq	32(%rsp), %rax
 6308      20
 6309 3a05 C6842480 		movb	$0, 128(%rsp)
 6309      00000000 
 6310 3a0d 488D7870 		leaq	112(%rax), %rdi
 6311              	.LEHB199:
 6312 3a11 E8000000 		call	_ZNSt9basic_iosIcSt11char_traitsIcEE4initEPSt15basic_streambufIcS1_E
 6312      00
 6313              	.LEHE199:
 6314 3a16 488D4424 		leaq	32(%rsp), %rax
 6314      20
 6315 3a1b 488DBC24 		leaq	408(%rsp), %rdi
 6315      98010000 
 6316 3a23 4889C6   		movq	%rax, %rsi
 6317              	.LEHB200:
 6318 3a26 E8000000 		call	_ZN8UnitTest15XmlTestReporterC1ERSo
 6318      00
 6319              	.LEHE200:
 6320 3a2b 488D7C24 		leaq	32(%rsp), %rdi
 6320      20
 6321 3a30 4C89F6   		movq	%r14, %rsi
 6322 3a33 4C89B424 		movq	%r14, 448(%rsp)
 6322      C0010000 
 6323              	.LEHB201:
 6324 3a3b E870F8FF 		call	_ZN8UnitTest11ExecuteTestIN12_GLOBAL__N_163XmlTestReporterFixtureSingleFailedTestReportSummar
 6324      FF
 6325              	.LEHE201:
 6326 3a40 4C8BA424 		movq	424(%rsp), %r12
 6326      A8010000 
 6327 3a48 488BAC24 		movq	416(%rsp), %rbp
 6327      A0010000 
 6328 3a50 48C78424 		movq	$_ZTVN8UnitTest20DeferredTestReporterE+16, 408(%rsp)
 6328      98010000 
 6328      00000000 
 6329 3a5c 4939EC   		cmpq	%rbp, %r12
 6330 3a5f 0F848600 		je	.L894
 6330      0000
 6331              		.p2align 4,,10
 6332 3a65 0F1F00   		.p2align 3
 6333              	.L902:
 6334 3a68 488B5D68 		movq	104(%rbp), %rbx
 6335 3a6c 4C8B6D60 		movq	96(%rbp), %r13
 6336 3a70 4C39EB   		cmpq	%r13, %rbx
 6337 3a73 7422     		je	.L895
 6338              		.p2align 4,,10
 6339 3a75 0F1F00   		.p2align 3
 6340              	.L897:
 6341 3a78 498B7D08 		movq	8(%r13), %rdi
 6342 3a7c 498D5518 		leaq	24(%r13), %rdx
 6343 3a80 4839D7   		cmpq	%rdx, %rdi
 6344 3a83 7405     		je	.L896
 6345 3a85 E8000000 		call	_ZdlPv
 6345      00
 6346              	.L896:
 6347 3a8a 4983C528 		addq	$40, %r13
 6348 3a8e 4C39EB   		cmpq	%r13, %rbx
 6349 3a91 75E5     		jne	.L897
 6350 3a93 488B5D60 		movq	96(%rbp), %rbx
 6351              	.L895:
 6352 3a97 4885DB   		testq	%rbx, %rbx
 6353 3a9a 7408     		je	.L898
 6354 3a9c 4889DF   		movq	%rbx, %rdi
 6355 3a9f E8000000 		call	_ZdlPv
 6355      00
 6356              	.L898:
 6357 3aa4 488B7D40 		movq	64(%rbp), %rdi
 6358 3aa8 488D4550 		leaq	80(%rbp), %rax
 6359 3aac 4839C7   		cmpq	%rax, %rdi
 6360 3aaf 7405     		je	.L899
 6361 3ab1 E8000000 		call	_ZdlPv
 6361      00
 6362              	.L899:
 6363 3ab6 488B7D20 		movq	32(%rbp), %rdi
 6364 3aba 488D4530 		leaq	48(%rbp), %rax
 6365 3abe 4839C7   		cmpq	%rax, %rdi
 6366 3ac1 7405     		je	.L900
 6367 3ac3 E8000000 		call	_ZdlPv
 6367      00
 6368              	.L900:
 6369 3ac8 488B7D00 		movq	0(%rbp), %rdi
 6370 3acc 488D4510 		leaq	16(%rbp), %rax
 6371 3ad0 4839C7   		cmpq	%rax, %rdi
 6372 3ad3 7405     		je	.L901
 6373 3ad5 E8000000 		call	_ZdlPv
 6373      00
 6374              	.L901:
 6375 3ada 4883ED80 		subq	$-128, %rbp
 6376 3ade 4939EC   		cmpq	%rbp, %r12
 6377 3ae1 7585     		jne	.L902
 6378 3ae3 4C8BA424 		movq	416(%rsp), %r12
 6378      A0010000 
 6379              	.L894:
 6380 3aeb 4D85E4   		testq	%r12, %r12
 6381 3aee 7408     		je	.L903
 6382 3af0 4C89E7   		movq	%r12, %rdi
 6383 3af3 E8000000 		call	_ZdlPv
 6383      00
 6384              	.L903:
 6385 3af8 488DBC24 		leaq	408(%rsp), %rdi
 6385      98010000 
 6386              	.LEHB202:
 6387 3b00 E8000000 		call	_ZN8UnitTest12TestReporterD2Ev
 6387      00
 6388              	.LEHE202:
 6389 3b05 488B7C24 		movq	112(%rsp), %rdi
 6389      70
 6390 3b0a 488D8424 		leaq	128(%rsp), %rax
 6390      80000000 
 6391 3b12 48C74424 		movq	$_ZTVNSt7__cxx1119basic_ostringstreamIcSt11char_traitsIcESaIcEEE+24, 32(%rsp)
 6391      20000000 
 6391      00
 6392 3b1b 48C78424 		movq	$_ZTVNSt7__cxx1119basic_ostringstreamIcSt11char_traitsIcESaIcEEE+64, 144(%rsp)
 6392      90000000 
 6392      00000000 
 6393 3b27 48C74424 		movq	$_ZTVNSt7__cxx1115basic_stringbufIcSt11char_traitsIcESaIcEEE+16, 40(%rsp)
 6393      28000000 
 6393      00
 6394 3b30 4839C7   		cmpq	%rax, %rdi
 6395 3b33 7405     		je	.L904
 6396 3b35 E8000000 		call	_ZdlPv
 6396      00
 6397              	.L904:
 6398 3b3a 488D7C24 		leaq	96(%rsp), %rdi
 6398      60
 6399 3b3f 48C74424 		movq	$_ZTVSt15basic_streambufIcSt11char_traitsIcEE+16, 40(%rsp)
 6399      28000000 
 6399      00
 6400 3b48 E8000000 		call	_ZNSt6localeD1Ev
 6400      00
 6401 3b4d 488B0500 		movq	_ZTTNSt7__cxx1119basic_ostringstreamIcSt11char_traitsIcESaIcEEE+8(%rip), %rax
 6401      000000
 6402 3b54 488B0D00 		movq	_ZTTNSt7__cxx1119basic_ostringstreamIcSt11char_traitsIcESaIcEEE+16(%rip), %rcx
 6402      000000
 6403 3b5b 488DBC24 		leaq	144(%rsp), %rdi
 6403      90000000 
 6404 3b63 488B40E8 		movq	-24(%rax), %rax
 6405 3b67 48894C04 		movq	%rcx, 32(%rsp,%rax)
 6405      20
 6406 3b6c 48C78424 		movq	$_ZTVSt9basic_iosIcSt11char_traitsIcEE+16, 144(%rsp)
 6406      90000000 
 6406      00000000 
 6407              	.LEHB203:
 6408 3b78 E8000000 		call	_ZNSt8ios_baseD2Ev
 6408      00
 6409              	.LEHE203:
 6410              	.L887:
 6411 3b7d 488B8424 		movq	456(%rsp), %rax
 6411      C8010000 
 6412 3b85 64483304 		xorq	%fs:40, %rax
 6412      25280000 
 6412      00
 6413 3b8e 0F85C000 		jne	.L947
 6413      0000
 6414 3b94 4881C4D8 		addq	$472, %rsp
 6414      010000
 6415              		.cfi_remember_state
 6416              		.cfi_def_cfa_offset 56
 6417 3b9b 5B       		popq	%rbx
 6418              		.cfi_def_cfa_offset 48
 6419 3b9c 5D       		popq	%rbp
 6420              		.cfi_def_cfa_offset 40
 6421 3b9d 415C     		popq	%r12
 6422              		.cfi_def_cfa_offset 32
 6423 3b9f 415D     		popq	%r13
 6424              		.cfi_def_cfa_offset 24
 6425 3ba1 415E     		popq	%r14
 6426              		.cfi_def_cfa_offset 16
 6427 3ba3 415F     		popq	%r15
 6428              		.cfi_def_cfa_offset 8
 6429 3ba5 C3       		ret
 6430              	.L927:
 6431              		.cfi_restore_state
 6432 3ba6 4889C3   		movq	%rax, %rbx
 6433 3ba9 4889D5   		movq	%rdx, %rbp
 6434              	.L890:
 6435 3bac 488DBC24 		leaq	144(%rsp), %rdi
 6435      90000000 
 6436 3bb4 48C78424 		movq	$_ZTVSt9basic_iosIcSt11char_traitsIcEE+16, 144(%rsp)
 6436      90000000 
 6436      00000000 
 6437 3bc0 E8000000 		call	_ZNSt8ios_baseD2Ev
 6437      00
 6438 3bc5 4889DF   		movq	%rbx, %rdi
 6439 3bc8 4889EA   		movq	%rbp, %rdx
 6440 3bcb 31DB     		xorl	%ebx, %ebx
 6441              	.L891:
 6442 3bcd 4883FA01 		cmpq	$1, %rdx
 6443 3bd1 0F84EA00 		je	.L911
 6443      0000
 6444 3bd7 4883FA02 		cmpq	$2, %rdx
 6445 3bdb 0F85A400 		jne	.L948
 6445      0000
 6446 3be1 E8000000 		call	__cxa_begin_catch
 6446      00
 6447 3be6 488D7C24 		leaq	32(%rsp), %rdi
 6447      20
 6448 3beb 4889C3   		movq	%rax, %rbx
 6449              	.LEHB204:
 6450 3bee E8000000 		call	_ZN8UnitTest15MemoryOutStreamC1Ev
 6450      00
 6451              	.LEHE204:
 6452 3bf3 488B03   		movq	(%rbx), %rax
 6453 3bf6 4889DF   		movq	%rbx, %rdi
 6454 3bf9 FF5010   		call	*16(%rax)
 6455 3bfc 488D7C24 		leaq	32(%rsp), %rdi
 6455      20
 6456 3c01 BA150000 		movl	$21, %edx
 6456      00
 6457 3c06 BE000000 		movl	$.LC31, %esi
 6457      00
 6458 3c0b 4889C3   		movq	%rax, %rbx
 6459              	.LEHB205:
 6460 3c0e E8000000 		call	_ZSt16__ostream_insertIcSt11char_traitsIcEERSt13basic_ostreamIT_T0_ES6_PKS3_l
 6460      00
 6461 3c13 488D7C24 		leaq	32(%rsp), %rdi
 6461      20
 6462 3c18 4889DE   		movq	%rbx, %rsi
 6463 3c1b E8000000 		call	_ZStlsISt11char_traitsIcEERSt13basic_ostreamIcT_ES5_PKc
 6463      00
 6464 3c20 488D7C24 		leaq	32(%rsp), %rdi
 6464      20
 6465 3c25 E8000000 		call	_ZNK8UnitTest15MemoryOutStream7GetTextEv
 6465      00
 6466 3c2a 4889C3   		movq	%rax, %rbx
 6467 3c2d E8000000 		call	_ZN8UnitTest11CurrentTest7ResultsEv
 6467      00
 6468 3c32 488B38   		movq	(%rax), %rdi
 6469 3c35 4889DA   		movq	%rbx, %rdx
 6470 3c38 4C89F6   		movq	%r14, %rsi
 6471 3c3b E8000000 		call	_ZN8UnitTest11TestResults13OnTestFailureERKNS_11TestDetailsEPKc
 6471      00
 6472              	.LEHE205:
 6473 3c40 488D7C24 		leaq	32(%rsp), %rdi
 6473      20
 6474              	.LEHB206:
 6475 3c45 E8000000 		call	_ZN8UnitTest15MemoryOutStreamD1Ev
 6475      00
 6476              	.LEHE206:
 6477              	.L942:
 6478 3c4a E8000000 		call	__cxa_end_catch
 6478      00
 6479 3c4f E929FFFF 		jmp	.L887
 6479      FF
 6480              	.L947:
 6481 3c54 E8000000 		call	__stack_chk_fail
 6481      00
 6482              	.L920:
 6483 3c59 4889C7   		movq	%rax, %rdi
 6484 3c5c BB010000 		movl	$1, %ebx
 6484      00
 6485 3c61 E967FFFF 		jmp	.L891
 6485      FF
 6486              	.L924:
 6487 3c66 488D7C24 		leaq	32(%rsp), %rdi
 6487      20
 6488 3c6b 4889C3   		movq	%rax, %rbx
 6489 3c6e E8000000 		call	_ZN8UnitTest15MemoryOutStreamD1Ev
 6489      00
 6490              	.L917:
 6491 3c73 E8000000 		call	__cxa_end_catch
 6491      00
 6492 3c78 4889DF   		movq	%rbx, %rdi
 6493              	.LEHB207:
 6494 3c7b E8000000 		call	_Unwind_Resume
 6494      00
 6495              	.LEHE207:
 6496              	.L923:
 6497              	.L943:
 6498 3c80 4889C3   		movq	%rax, %rbx
 6499 3c83 EBEE     		jmp	.L917
 6500              	.L948:
 6501 3c85 E8000000 		call	__cxa_begin_catch
 6501      00
 6502 3c8a 84DB     		testb	%bl, %bl
 6503 3c8c BA600000 		movl	$96, %edx
 6503      00
 6504 3c91 4C89F6   		movq	%r14, %rsi
 6505 3c94 4889E7   		movq	%rsp, %rdi
 6506 3c97 0F848900 		je	.L913
 6506      0000
 6507              	.LEHB208:
 6508 3c9d E8000000 		call	_ZN8UnitTest11TestDetailsC1ERKS0_i
 6508      00
 6509 3ca2 E8000000 		call	_ZN8UnitTest11CurrentTest7ResultsEv
 6509      00
 6510 3ca7 488B38   		movq	(%rax), %rdi
 6511 3caa BA000000 		movl	$.LC35, %edx
 6511      00
 6512 3caf 4889E6   		movq	%rsp, %rsi
 6513 3cb2 E8000000 		call	_ZN8UnitTest11TestResults13OnTestFailureERKNS_11TestDetailsEPKc
 6513      00
 6514              	.LEHE208:
 6515              	.L914:
 6516              	.LEHB209:
 6517 3cb7 E8000000 		call	__cxa_end_catch
 6517      00
 6518              	.LEHE209:
 6519 3cbc E9BCFEFF 		jmp	.L887
 6519      FF
 6520              	.L911:
 6521 3cc1 E8000000 		call	__cxa_begin_catch
 6521      00
 6522 3cc6 4889C3   		movq	%rax, %rbx
 6523 3cc9 488B00   		movq	(%rax), %rax
 6524 3ccc 4889DF   		movq	%rbx, %rdi
 6525 3ccf FF5010   		call	*16(%rax)
 6526 3cd2 4889DF   		movq	%rbx, %rdi
 6527 3cd5 4889C5   		movq	%rax, %rbp
 6528              	.LEHB210:
 6529 3cd8 E8000000 		call	_ZNK8UnitTest15AssertException10LineNumberEv
 6529      00
 6530 3cdd 4889DF   		movq	%rbx, %rdi
 6531 3ce0 4189C4   		movl	%eax, %r12d
 6532 3ce3 E8000000 		call	_ZNK8UnitTest15AssertException8FilenameEv
 6532      00
 6533 3ce8 498B5708 		movq	8(%r15), %rdx
 6534 3cec 498B7710 		movq	16(%r15), %rsi
 6535 3cf0 4589E0   		movl	%r12d, %r8d
 6536 3cf3 4889C1   		movq	%rax, %rcx
 6537 3cf6 4889E7   		movq	%rsp, %rdi
 6538 3cf9 E8000000 		call	_ZN8UnitTest11TestDetailsC1EPKcS2_S2_i
 6538      00
 6539 3cfe E8000000 		call	_ZN8UnitTest11CurrentTest7ResultsEv
 6539      00
 6540 3d03 488B38   		movq	(%rax), %rdi
 6541 3d06 4889EA   		movq	%rbp, %rdx
 6542 3d09 4889E6   		movq	%rsp, %rsi
 6543 3d0c E8000000 		call	_ZN8UnitTest11TestResults13OnTestFailureERKNS_11TestDetailsEPKc
 6543      00
 6544              	.LEHE210:
 6545 3d11 E934FFFF 		jmp	.L942
 6545      FF
 6546              	.L925:
 6547 3d16 4889C3   		movq	%rax, %rbx
 6548 3d19 E8000000 		call	__cxa_end_catch
 6548      00
 6549 3d1e 4889DF   		movq	%rbx, %rdi
 6550              	.LEHB211:
 6551 3d21 E8000000 		call	_Unwind_Resume
 6551      00
 6552              	.LEHE211:
 6553              	.L913:
 6554              	.LEHB212:
 6555 3d26 E8000000 		call	_ZN8UnitTest11TestDetailsC1ERKS0_i
 6555      00
 6556 3d2b E8000000 		call	_ZN8UnitTest11CurrentTest7ResultsEv
 6556      00
 6557 3d30 488B38   		movq	(%rax), %rdi
 6558 3d33 BA000000 		movl	$.LC36, %edx
 6558      00
 6559 3d38 4889E6   		movq	%rsp, %rsi
 6560 3d3b E8000000 		call	_ZN8UnitTest11TestResults13OnTestFailureERKNS_11TestDetailsEPKc
 6560      00
 6561              	.LEHE212:
 6562 3d40 E972FFFF 		jmp	.L914
 6562      FF
 6563              	.L922:
 6564 3d45 E936FFFF 		jmp	.L943
 6564      FF
 6565              	.L929:
 6566 3d4a 488D7C24 		leaq	32(%rsp), %rdi
 6566      20
 6567 3d4f 4889C3   		movq	%rax, %rbx
 6568 3d52 4889D5   		movq	%rdx, %rbp
 6569 3d55 E8000000 		call	_ZNSt7__cxx1119basic_ostringstreamIcSt11char_traitsIcESaIcEED1Ev
 6569      00
 6570 3d5a 4889DF   		movq	%rbx, %rdi
 6571 3d5d 4889EA   		movq	%rbp, %rdx
 6572 3d60 BB010000 		movl	$1, %ebx
 6572      00
 6573 3d65 E963FEFF 		jmp	.L891
 6573      FF
 6574              	.L921:
 6575 3d6a 488D7C24 		leaq	32(%rsp), %rdi
 6575      20
 6576 3d6f 4889C3   		movq	%rax, %rbx
 6577 3d72 4889D5   		movq	%rdx, %rbp
 6578 3d75 E8000000 		call	_ZN12_GLOBAL__N_122XmlTestReporterFixtureD2Ev.constprop.46
 6578      00
 6579 3d7a 4889DF   		movq	%rbx, %rdi
 6580 3d7d 4889EA   		movq	%rbp, %rdx
 6581 3d80 BB010000 		movl	$1, %ebx
 6581      00
 6582 3d85 E943FEFF 		jmp	.L891
 6582      FF
 6583              	.L926:
 6584 3d8a 488D7C24 		leaq	32(%rsp), %rdi
 6584      20
 6585 3d8f 4889C3   		movq	%rax, %rbx
 6586 3d92 4889D5   		movq	%rdx, %rbp
 6587 3d95 E8000000 		call	_ZNSt7__cxx1119basic_ostringstreamIcSt11char_traitsIcESaIcEED1Ev
 6587      00
 6588 3d9a 4889DF   		movq	%rbx, %rdi
 6589 3d9d 4889EA   		movq	%rbp, %rdx
 6590 3da0 31DB     		xorl	%ebx, %ebx
 6591 3da2 E926FEFF 		jmp	.L891
 6591      FF
 6592              	.L928:
 6593 3da7 488D7C24 		leaq	40(%rsp), %rdi
 6593      28
 6594 3dac 4889C3   		movq	%rax, %rbx
 6595 3daf 4889D5   		movq	%rdx, %rbp
 6596 3db2 E8000000 		call	_ZNSt7__cxx1115basic_stringbufIcSt11char_traitsIcESaIcEED1Ev
 6596      00
 6597 3db7 488B0500 		movq	_ZTTNSt7__cxx1119basic_ostringstreamIcSt11char_traitsIcESaIcEEE+8(%rip), %rax
 6597      000000
 6598 3dbe 488B0D00 		movq	_ZTTNSt7__cxx1119basic_ostringstreamIcSt11char_traitsIcESaIcEEE+16(%rip), %rcx
 6598      000000
 6599 3dc5 488B40E8 		movq	-24(%rax), %rax
 6600 3dc9 48894C04 		movq	%rcx, 32(%rsp,%rax)
 6600      20
 6601 3dce E9D9FDFF 		jmp	.L890
 6601      FF
 6602              		.cfi_endproc
 6603              	.LFE1417:
 6604              		.section	.gcc_except_table
 6605              		.align 4
 6606              	.LLSDA1417:
 6607 056c FF       		.byte	0xff
 6608 056d 03       		.byte	0x3
 6609 056e 6D       		.uleb128 .LLSDATT1417-.LLSDATTD1417
 6610              	.LLSDATTD1417:
 6611 056f 01       		.byte	0x1
 6612 0570 57       		.uleb128 .LLSDACSE1417-.LLSDACSB1417
 6613              	.LLSDACSB1417:
 6614 0571 B101     		.uleb128 .LEHB198-.LFB1417
 6615 0573 05       		.uleb128 .LEHE198-.LEHB198
 6616 0574 E605     		.uleb128 .L927-.LFB1417
 6617 0576 07       		.uleb128 0x7
 6618 0577 D102     		.uleb128 .LEHB199-.LFB1417
 6619 0579 05       		.uleb128 .LEHE199-.LEHB199
 6620 057a E709     		.uleb128 .L928-.LFB1417
 6621 057c 07       		.uleb128 0x7
 6622 057d E602     		.uleb128 .LEHB200-.LFB1417
 6623 057f 05       		.uleb128 .LEHE200-.LEHB200
 6624 0580 CA09     		.uleb128 .L926-.LFB1417
 6625 0582 07       		.uleb128 0x7
 6626 0583 FB02     		.uleb128 .LEHB201-.LFB1417
 6627 0585 05       		.uleb128 .LEHE201-.LEHB201
 6628 0586 AA09     		.uleb128 .L921-.LFB1417
 6629 0588 07       		.uleb128 0x7
 6630 0589 C004     		.uleb128 .LEHB202-.LFB1417
 6631 058b 05       		.uleb128 .LEHE202-.LEHB202
 6632 058c 8A09     		.uleb128 .L929-.LFB1417
 6633 058e 07       		.uleb128 0x7
 6634 058f B805     		.uleb128 .LEHB203-.LFB1417
 6635 0591 05       		.uleb128 .LEHE203-.LEHB203
 6636 0592 9907     		.uleb128 .L920-.LFB1417
 6637 0594 05       		.uleb128 0x5
 6638 0595 AE06     		.uleb128 .LEHB204-.LFB1417
 6639 0597 05       		.uleb128 .LEHE204-.LEHB204
 6640 0598 C007     		.uleb128 .L923-.LFB1417
 6641 059a 00       		.uleb128 0
 6642 059b CE06     		.uleb128 .LEHB205-.LFB1417
 6643 059d 32       		.uleb128 .LEHE205-.LEHB205
 6644 059e A607     		.uleb128 .L924-.LFB1417
 6645 05a0 00       		.uleb128 0
 6646 05a1 8507     		.uleb128 .LEHB206-.LFB1417
 6647 05a3 05       		.uleb128 .LEHE206-.LEHB206
 6648 05a4 C007     		.uleb128 .L923-.LFB1417
 6649 05a6 00       		.uleb128 0
 6650 05a7 BB07     		.uleb128 .LEHB207-.LFB1417
 6651 05a9 05       		.uleb128 .LEHE207-.LEHB207
 6652 05aa 00       		.uleb128 0
 6653 05ab 00       		.uleb128 0
 6654 05ac DD07     		.uleb128 .LEHB208-.LFB1417
 6655 05ae 1A       		.uleb128 .LEHE208-.LEHB208
 6656 05af D608     		.uleb128 .L925-.LFB1417
 6657 05b1 00       		.uleb128 0
 6658 05b2 F707     		.uleb128 .LEHB209-.LFB1417
 6659 05b4 05       		.uleb128 .LEHE209-.LEHB209
 6660 05b5 00       		.uleb128 0
 6661 05b6 00       		.uleb128 0
 6662 05b7 9808     		.uleb128 .LEHB210-.LFB1417
 6663 05b9 39       		.uleb128 .LEHE210-.LEHB210
 6664 05ba 8509     		.uleb128 .L922-.LFB1417
 6665 05bc 00       		.uleb128 0
 6666 05bd E108     		.uleb128 .LEHB211-.LFB1417
 6667 05bf 05       		.uleb128 .LEHE211-.LEHB211
 6668 05c0 00       		.uleb128 0
 6669 05c1 00       		.uleb128 0
 6670 05c2 E608     		.uleb128 .LEHB212-.LFB1417
 6671 05c4 1A       		.uleb128 .LEHE212-.LEHB212
 6672 05c5 D608     		.uleb128 .L925-.LFB1417
 6673 05c7 00       		.uleb128 0
 6674              	.LLSDACSE1417:
 6675 05c8 03       		.byte	0x3
 6676 05c9 00       		.byte	0
 6677 05ca 02       		.byte	0x2
 6678 05cb 7D       		.byte	0x7d
 6679 05cc 01       		.byte	0x1
 6680 05cd 7D       		.byte	0x7d
 6681 05ce 00       		.byte	0
 6682 05cf 7D       		.byte	0x7d
 6683              		.align 4
 6684 05d0 00000000 		.long	0
 6685              	
 6686 05d4 00000000 		.long	_ZTISt9exception
 6687 05d8 00000000 		.long	_ZTIN8UnitTest15AssertExceptionE
 6688              	.LLSDATT1417:
 6689              		.text
 6691              		.section	.text.unlikely
 6692              	.LCOLDE68:
 6693              		.text
 6694              	.LHOTE68:
 6695              		.section	.rodata.str1.1
 6696              	.LC69:
 6697 011b 44656661 		.string	"DefaultSuite"
 6697      756C7453 
 6697      75697465 
 6697      00
 6698              		.section	.rodata.str1.8
 6699 054c 00000000 		.align 8
 6700              	.LC70:
 6701 0550 3C3F786D 		.string	"<?xml version=\"1.0\"?><unittest-results tests=\"1\" failedtests=\"0\" failures=\"0\" tim
 6701      6C207665 
 6701      7273696F 
 6701      6E3D2231 
 6701      2E30223F 
 6702              		.section	.text.unlikely
 6703              	.LCOLDB71:
 6704              		.text
 6705              	.LHOTB71:
 6706 3dd3 0F1F0066 		.p2align 4,,15
 6706      2E0F1F84 
 6706      00000000 
 6706      00
 6708              	_ZN8UnitTest11ExecuteTestIN12_GLOBAL__N_167XmlTestReporterFixtureSingleSuccessfulTestReportSummaryF
 6709              	.LFB1716:
 6710              		.cfi_startproc
 6711              		.cfi_personality 0x3,__gxx_personality_v0
 6712              		.cfi_lsda 0x3,.LLSDA1716
 6713 3de0 4154     		pushq	%r12
 6714              		.cfi_def_cfa_offset 16
 6715              		.cfi_offset 12, -16
 6716 3de2 55       		pushq	%rbp
 6717              		.cfi_def_cfa_offset 24
 6718              		.cfi_offset 6, -24
 6719 3de3 53       		pushq	%rbx
 6720              		.cfi_def_cfa_offset 32
 6721              		.cfi_offset 3, -32
 6722 3de4 4889F3   		movq	%rsi, %rbx
 6723 3de7 4881EC20 		subq	$1824, %rsp
 6723      070000
 6724              		.cfi_def_cfa_offset 1856
 6725 3dee 48893C24 		movq	%rdi, (%rsp)
 6726 3df2 48897424 		movq	%rsi, 8(%rsp)
 6726      08
 6727 3df7 64488B04 		movq	%fs:40, %rax
 6727      25280000 
 6727      00
 6728 3e00 48898424 		movq	%rax, 1816(%rsp)
 6728      18070000 
 6729 3e08 31C0     		xorl	%eax, %eax
 6730              	.LEHB213:
 6731 3e0a E8000000 		call	_ZN8UnitTest11CurrentTest7DetailsEv
 6731      00
 6732              	.LEHE213:
 6733 3e0f 488DBC24 		leaq	688(%rsp), %rdi
 6733      B0020000 
 6734 3e17 488918   		movq	%rbx, (%rax)
 6735              	.LEHB214:
 6736 3e1a E8000000 		call	_ZN8UnitTest16SignalTranslatorC1Ev
 6736      00
 6737              	.LEHE214:
 6738 3e1f 488B3D00 		movq	_ZN8UnitTest16SignalTranslator12s_jumpTargetE(%rip), %rdi
 6738      000000
 6739 3e26 BE010000 		movl	$1, %esi
 6739      00
 6740 3e2b E8000000 		call	__sigsetjmp
 6740      00
 6741 3e30 85C0     		testl	%eax, %eax
 6742 3e32 0F85D800 		jne	.L1035
 6742      0000
 6743 3e38 488D7C24 		leaq	80(%rsp), %rdi
 6743      50
 6744 3e3d 4531C0   		xorl	%r8d, %r8d
 6745 3e40 B9000000 		movl	$.LC24, %ecx
 6745      00
 6746 3e45 BA000000 		movl	$.LC69, %edx
 6746      00
 6747 3e4a BE000000 		movl	$.LC58, %esi
 6747      00
 6748              	.LEHB215:
 6749 3e4f E8000000 		call	_ZN8UnitTest11TestDetailsC1EPKcS2_S2_i
 6749      00
 6750 3e54 488B2C24 		movq	(%rsp), %rbp
 6751 3e58 488D7424 		leaq	80(%rsp), %rsi
 6751      50
 6752 3e5d 488D9D78 		leaq	376(%rbp), %rbx
 6752      010000
 6753 3e64 4889DF   		movq	%rbx, %rdi
 6754 3e67 E8000000 		call	_ZN8UnitTest20DeferredTestReporter15ReportTestStartERKNS_11TestDetailsE
 6754      00
 6755 3e6c F30F1005 		movss	.LC47(%rip), %xmm0
 6755      00000000 
 6756 3e74 31C9     		xorl	%ecx, %ecx
 6757 3e76 31D2     		xorl	%edx, %edx
 6758 3e78 BE010000 		movl	$1, %esi
 6758      00
 6759 3e7d 4889DF   		movq	%rbx, %rdi
 6760 3e80 E8000000 		call	_ZN8UnitTest15XmlTestReporter13ReportSummaryEiiif
 6760      00
 6761              	.LEHE215:
 6762 3e85 48C74424 		movq	$.LC70, 24(%rsp)
 6762      18000000 
 6762      00
 6763              	.LEHB216:
 6764 3e8e E8000000 		call	_ZN8UnitTest11CurrentTest7DetailsEv
 6764      00
 6765 3e93 488B30   		movq	(%rax), %rsi
 6766 3e96 488D7C24 		leaq	112(%rsp), %rdi
 6766      70
 6767 3e9b BA5D0000 		movl	$93, %edx
 6767      00
 6768 3ea0 E8000000 		call	_ZN8UnitTest11TestDetailsC1ERKS0_i
 6768      00
 6769              	.LEHE216:
 6770 3ea5 488B5530 		movq	48(%rbp), %rdx
 6771 3ea9 488D8424 		leaq	192(%rsp), %rax
 6771      C0000000 
 6772 3eb1 48C78424 		movq	$0, 184(%rsp)
 6772      B8000000 
 6772      00000000 
 6773 3ebd C68424C0 		movb	$0, 192(%rsp)
 6773      00000000 
 6774 3ec5 48898424 		movq	%rax, 176(%rsp)
 6774      B0000000 
 6775 3ecd 4885D2   		testq	%rdx, %rdx
 6776 3ed0 0F84AA03 		je	.L952
 6776      0000
 6777 3ed6 488B5D20 		movq	32(%rbp), %rbx
 6778 3eda 4839DA   		cmpq	%rbx, %rdx
 6779 3edd 0F861D01 		jbe	.L953
 6779      0000
 6780 3ee3 488B6D28 		movq	40(%rbp), %rbp
 6781 3ee7 488D8424 		leaq	256(%rsp), %rax
 6781      00010000 
 6782 3eef 48898424 		movq	%rax, 240(%rsp)
 6782      F0000000 
 6783 3ef7 4885ED   		testq	%rbp, %rbp
 6784 3efa 7534     		jne	.L1036
 6785 3efc BF000000 		movl	$.LC33, %edi
 6785      00
 6786              	.LEHB217:
 6787 3f01 E8000000 		call	_ZSt19__throw_logic_errorPKc
 6787      00
 6788              	.LEHE217:
 6789 3f06 662E0F1F 		.p2align 4,,10
 6789      84000000 
 6789      0000
 6790              		.p2align 3
 6791              	.L1035:
 6792 3f10 BF080000 		movl	$8, %edi
 6792      00
 6793 3f15 E8000000 		call	__cxa_allocate_exception
 6793      00
 6794 3f1a 31D2     		xorl	%edx, %edx
 6795 3f1c 48C70000 		movq	$.LC23, (%rax)
 6795      000000
 6796 3f23 BE000000 		movl	$_ZTIPKc, %esi
 6796      00
 6797 3f28 4889C7   		movq	%rax, %rdi
 6798              	.LEHB218:
 6799 3f2b E8000000 		call	__cxa_throw
 6799      00
 6800              	.LEHE218:
 6801              		.p2align 4,,10
 6802              		.p2align 3
 6803              	.L1036:
 6804 3f30 4829EA   		subq	%rbp, %rdx
 6805 3f33 4883FA0F 		cmpq	$15, %rdx
 6806 3f37 4889D3   		movq	%rdx, %rbx
 6807 3f3a 48895424 		movq	%rdx, 32(%rsp)
 6807      20
 6808 3f3f 0F87AB01 		ja	.L1037
 6808      0000
 6809 3f45 4883FB01 		cmpq	$1, %rbx
 6810 3f49 0F840103 		je	.L1038
 6810      0000
 6811 3f4f 4885DB   		testq	%rbx, %rbx
 6812 3f52 4889C2   		movq	%rax, %rdx
 6813 3f55 0F853F03 		jne	.L1039
 6813      0000
 6814              	.L958:
 6815 3f5b 488DB424 		leaq	240(%rsp), %rsi
 6815      F0000000 
 6816 3f63 488DBC24 		leaq	176(%rsp), %rdi
 6816      B0000000 
 6817 3f6b 48899C24 		movq	%rbx, 248(%rsp)
 6817      F8000000 
 6818 3f73 C6041A00 		movb	$0, (%rdx,%rbx)
 6819              	.LEHB219:
 6820 3f77 E8000000 		call	_ZNSt7__cxx1112basic_stringIcSt11char_traitsIcESaIcEE9_M_assignERKS4_
 6820      00
 6821              	.LEHE219:
 6822 3f7c 488BBC24 		movq	240(%rsp), %rdi
 6822      F0000000 
 6823 3f84 488D8424 		leaq	256(%rsp), %rax
 6823      00010000 
 6824 3f8c 4839C7   		cmpq	%rax, %rdi
 6825 3f8f 7405     		je	.L960
 6826              	.L1025:
 6827 3f91 E8000000 		call	_ZdlPv
 6827      00
 6828              	.L960:
 6829              	.LEHB220:
 6830 3f96 E8000000 		call	_ZN8UnitTest11CurrentTest7ResultsEv
 6830      00
 6831 3f9b 488B38   		movq	(%rax), %rdi
 6832 3f9e 488D4C24 		leaq	112(%rsp), %rcx
 6832      70
 6833 3fa3 488D9424 		leaq	176(%rsp), %rdx
 6833      B0000000 
 6834 3fab 488D7424 		leaq	24(%rsp), %rsi
 6834      18
 6835 3fb0 E8000000 		call	_ZN8UnitTest10CheckEqualIPKcNSt7__cxx1112basic_stringIcSt11char_traitsIcESaIcEEEEEvRNS_11Test
 6835      00
 6836              	.LEHE220:
 6837 3fb5 488BBC24 		movq	176(%rsp), %rdi
 6837      B0000000 
 6838 3fbd 488D8424 		leaq	192(%rsp), %rax
 6838      C0000000 
 6839 3fc5 4839C7   		cmpq	%rax, %rdi
 6840 3fc8 7405     		je	.L981
 6841 3fca E8000000 		call	_ZdlPv
 6841      00
 6842              	.L981:
 6843 3fcf 488DBC24 		leaq	688(%rsp), %rdi
 6843      B0020000 
 6844              	.LEHB221:
 6845 3fd7 E8000000 		call	_ZN8UnitTest16SignalTranslatorD1Ev
 6845      00
 6846              	.LEHE221:
 6847              	.L949:
 6848 3fdc 488B8424 		movq	1816(%rsp), %rax
 6848      18070000 
 6849 3fe4 64483304 		xorq	%fs:40, %rax
 6849      25280000 
 6849      00
 6850 3fed 0F85B702 		jne	.L1040
 6850      0000
 6851 3ff3 4881C420 		addq	$1824, %rsp
 6851      070000
 6852              		.cfi_remember_state
 6853              		.cfi_def_cfa_offset 32
 6854 3ffa 5B       		popq	%rbx
 6855              		.cfi_def_cfa_offset 24
 6856 3ffb 5D       		popq	%rbp
 6857              		.cfi_def_cfa_offset 16
 6858 3ffc 415C     		popq	%r12
 6859              		.cfi_def_cfa_offset 8
 6860 3ffe C3       		ret
 6861 3fff 90       		.p2align 4,,10
 6862              		.p2align 3
 6863              	.L953:
 6864              		.cfi_restore_state
 6865 4000 488B0424 		movq	(%rsp), %rax
 6866 4004 488B6828 		movq	40(%rax), %rbp
 6867 4008 488D8424 		leaq	224(%rsp), %rax
 6867      E0000000 
 6868 4010 48898424 		movq	%rax, 208(%rsp)
 6868      D0000000 
 6869 4018 4885ED   		testq	%rbp, %rbp
 6870 401b 7513     		jne	.L964
 6871 401d 4885DB   		testq	%rbx, %rbx
 6872 4020 740E     		je	.L964
 6873 4022 BF000000 		movl	$.LC33, %edi
 6873      00
 6874              	.LEHB222:
 6875 4027 E8000000 		call	_ZSt19__throw_logic_errorPKc
 6875      00
 6876              	.LEHE222:
 6877 402c 0F1F4000 		.p2align 4,,10
 6878              		.p2align 3
 6879              	.L964:
 6880 4030 4829EB   		subq	%rbp, %rbx
 6881 4033 4883FB0F 		cmpq	$15, %rbx
 6882 4037 48895C24 		movq	%rbx, 40(%rsp)
 6882      28
 6883 403c 7762     		ja	.L1041
 6884 403e 4883FB01 		cmpq	$1, %rbx
 6885 4042 0F842002 		je	.L1042
 6885      0000
 6886 4048 4885DB   		testq	%rbx, %rbx
 6887 404b 488D8424 		leaq	224(%rsp), %rax
 6887      E0000000 
 6888 4053 0F854902 		jne	.L1043
 6888      0000
 6889              	.L967:
 6890 4059 488DB424 		leaq	208(%rsp), %rsi
 6890      D0000000 
 6891 4061 488DBC24 		leaq	176(%rsp), %rdi
 6891      B0000000 
 6892 4069 48899C24 		movq	%rbx, 216(%rsp)
 6892      D8000000 
 6893 4071 C6041800 		movb	$0, (%rax,%rbx)
 6894              	.LEHB223:
 6895 4075 E8000000 		call	_ZNSt7__cxx1112basic_stringIcSt11char_traitsIcESaIcEE9_M_assignERKS4_
 6895      00
 6896              	.LEHE223:
 6897 407a 488BBC24 		movq	208(%rsp), %rdi
 6897      D0000000 
 6898 4082 488D8424 		leaq	224(%rsp), %rax
 6898      E0000000 
 6899 408a 4839C7   		cmpq	%rax, %rdi
 6900 408d 0F85FEFE 		jne	.L1025
 6900      FFFF
 6901 4093 E9FEFEFF 		jmp	.L960
 6901      FF
 6902 4098 0F1F8400 		.p2align 4,,10
 6902      00000000 
 6903              		.p2align 3
 6904              	.L1041:
 6905 40a0 488D7424 		leaq	40(%rsp), %rsi
 6905      28
 6906 40a5 488DBC24 		leaq	208(%rsp), %rdi
 6906      D0000000 
 6907 40ad 31D2     		xorl	%edx, %edx
 6908              	.LEHB224:
 6909 40af E8000000 		call	_ZNSt7__cxx1112basic_stringIcSt11char_traitsIcESaIcEE9_M_createERmm
 6909      00
 6910 40b4 4889C7   		movq	%rax, %rdi
 6911 40b7 48898424 		movq	%rax, 208(%rsp)
 6911      D0000000 
 6912 40bf 488B4424 		movq	40(%rsp), %rax
 6912      28
 6913 40c4 48898424 		movq	%rax, 224(%rsp)
 6913      E0000000 
 6914              	.L965:
 6915 40cc 4889DA   		movq	%rbx, %rdx
 6916 40cf 4889EE   		movq	%rbp, %rsi
 6917 40d2 E8000000 		call	memcpy
 6917      00
 6918 40d7 488B5C24 		movq	40(%rsp), %rbx
 6918      28
 6919 40dc 488B8424 		movq	208(%rsp), %rax
 6919      D0000000 
 6920 40e4 E970FFFF 		jmp	.L967
 6920      FF
 6921 40e9 0F1F8000 		.p2align 4,,10
 6921      000000
 6922              		.p2align 3
 6923              	.L1037:
 6924 40f0 488D7424 		leaq	32(%rsp), %rsi
 6924      20
 6925 40f5 488DBC24 		leaq	240(%rsp), %rdi
 6925      F0000000 
 6926 40fd 31D2     		xorl	%edx, %edx
 6927 40ff E8000000 		call	_ZNSt7__cxx1112basic_stringIcSt11char_traitsIcESaIcEE9_M_createERmm
 6927      00
 6928              	.LEHE224:
 6929 4104 4889C7   		movq	%rax, %rdi
 6930 4107 48898424 		movq	%rax, 240(%rsp)
 6930      F0000000 
 6931 410f 488B4424 		movq	32(%rsp), %rax
 6931      20
 6932 4114 48898424 		movq	%rax, 256(%rsp)
 6932      00010000 
 6933              	.L956:
 6934 411c 4889DA   		movq	%rbx, %rdx
 6935 411f 4889EE   		movq	%rbp, %rsi
 6936 4122 E8000000 		call	memcpy
 6936      00
 6937 4127 488B5C24 		movq	32(%rsp), %rbx
 6937      20
 6938 412c 488B9424 		movq	240(%rsp), %rdx
 6938      F0000000 
 6939 4134 E922FEFF 		jmp	.L958
 6939      FF
 6940              	.L1011:
 6941 4139 4889C3   		movq	%rax, %rbx
 6942 413c 4889D5   		movq	%rdx, %rbp
 6943              	.L988:
 6944 413f 488DBC24 		leaq	688(%rsp), %rdi
 6944      B0020000 
 6945 4147 E8000000 		call	_ZN8UnitTest16SignalTranslatorD1Ev
 6945      00
 6946 414c 4889DF   		movq	%rbx, %rdi
 6947 414f 4889EA   		movq	%rbp, %rdx
 6948              	.L989:
 6949 4152 4883FA01 		cmpq	$1, %rdx
 6950 4156 0F840002 		je	.L991
 6950      0000
 6951 415c 4883FA02 		cmpq	$2, %rdx
 6952 4160 0F85D001 		jne	.L1044
 6952      0000
 6953 4166 E8000000 		call	__cxa_begin_catch
 6953      00
 6954 416b 488DBC24 		leaq	272(%rsp), %rdi
 6954      10010000 
 6955 4173 4889C3   		movq	%rax, %rbx
 6956              	.LEHB225:
 6957 4176 E8000000 		call	_ZN8UnitTest15MemoryOutStreamC1Ev
 6957      00
 6958              	.LEHE225:
 6959 417b 488B03   		movq	(%rbx), %rax
 6960 417e 4889DF   		movq	%rbx, %rdi
 6961 4181 FF5010   		call	*16(%rax)
 6962 4184 488DBC24 		leaq	272(%rsp), %rdi
 6962      10010000 
 6963 418c BA150000 		movl	$21, %edx
 6963      00
 6964 4191 BE000000 		movl	$.LC31, %esi
 6964      00
 6965 4196 4889C3   		movq	%rax, %rbx
 6966              	.LEHB226:
 6967 4199 E8000000 		call	_ZSt16__ostream_insertIcSt11char_traitsIcEERSt13basic_ostreamIT_T0_ES6_PKS3_l
 6967      00
 6968 419e 488DBC24 		leaq	272(%rsp), %rdi
 6968      10010000 
 6969 41a6 4889DE   		movq	%rbx, %rsi
 6970 41a9 E8000000 		call	_ZStlsISt11char_traitsIcEERSt13basic_ostreamIcT_ES5_PKc
 6970      00
 6971 41ae 488DBC24 		leaq	272(%rsp), %rdi
 6971      10010000 
 6972 41b6 E8000000 		call	_ZNK8UnitTest15MemoryOutStream7GetTextEv
 6972      00
 6973 41bb 4889C3   		movq	%rax, %rbx
 6974 41be E8000000 		call	_ZN8UnitTest11CurrentTest7ResultsEv
 6974      00
 6975 41c3 488B7424 		movq	8(%rsp), %rsi
 6975      08
 6976 41c8 488B38   		movq	(%rax), %rdi
 6977 41cb 4889DA   		movq	%rbx, %rdx
 6978 41ce E8000000 		call	_ZN8UnitTest11TestResults13OnTestFailureERKNS_11TestDetailsEPKc
 6978      00
 6979              	.LEHE226:
 6980 41d3 488DBC24 		leaq	272(%rsp), %rdi
 6980      10010000 
 6981              	.LEHB227:
 6982 41db E8000000 		call	_ZN8UnitTest15MemoryOutStreamD1Ev
 6982      00
 6983              	.LEHE227:
 6984              	.L1026:
 6985 41e0 E8000000 		call	__cxa_end_catch
 6985      00
 6986 41e5 E9F2FDFF 		jmp	.L949
 6986      FF
 6987              	.L1015:
 6988              	.L1030:
 6989 41ea 4889C3   		movq	%rax, %rbx
 6990              	.L1029:
 6991 41ed 488BBC24 		movq	176(%rsp), %rdi
 6991      B0000000 
 6992 41f5 488D8424 		leaq	192(%rsp), %rax
 6992      C0000000 
 6993 41fd 4839C7   		cmpq	%rax, %rdi
 6994 4200 7405     		je	.L986
 6995 4202 E8000000 		call	_ZdlPv
 6995      00
 6996              	.L986:
 6997 4207 4889D8   		movq	%rbx, %rax
 6998              	.L978:
 6999 420a 4889C7   		movq	%rax, %rdi
 7000 420d E8000000 		call	__cxa_begin_catch
 7000      00
 7001              	.LEHB228:
 7002 4212 E8000000 		call	_ZN8UnitTest11CurrentTest7DetailsEv
 7002      00
 7003 4217 488B30   		movq	(%rax), %rsi
 7004 421a 488DBC24 		leaq	144(%rsp), %rdi
 7004      90000000 
 7005 4222 BA5D0000 		movl	$93, %edx
 7005      00
 7006 4227 E8000000 		call	_ZN8UnitTest11TestDetailsC1ERKS0_i
 7006      00
 7007 422c E8000000 		call	_ZN8UnitTest11CurrentTest7ResultsEv
 7007      00
 7008 4231 488B38   		movq	(%rax), %rdi
 7009 4234 488DB424 		leaq	144(%rsp), %rsi
 7009      90000000 
 7010 423c BA000000 		movl	$.LC50, %edx
 7010      00
 7011 4241 E8000000 		call	_ZN8UnitTest11TestResults13OnTestFailureERKNS_11TestDetailsEPKc
 7011      00
 7012              	.LEHE228:
 7013              	.LEHB229:
 7014 4246 E8000000 		call	__cxa_end_catch
 7014      00
 7015              	.LEHE229:
 7016 424b E97FFDFF 		jmp	.L981
 7016      FF
 7017              		.p2align 4,,10
 7018              		.p2align 3
 7019              	.L1038:
 7020 4250 0FB65500 		movzbl	0(%rbp), %edx
 7021 4254 88942400 		movb	%dl, 256(%rsp)
 7021      010000
 7022 425b 4889C2   		movq	%rax, %rdx
 7023 425e E9F8FCFF 		jmp	.L958
 7023      FF
 7024              		.p2align 4,,10
 7025 4263 0F1F4400 		.p2align 3
 7025      00
 7026              	.L1042:
 7027 4268 0FB64500 		movzbl	0(%rbp), %eax
 7028 426c 888424E0 		movb	%al, 224(%rsp)
 7028      000000
 7029 4273 488D8424 		leaq	224(%rsp), %rax
 7029      E0000000 
 7030 427b E9D9FDFF 		jmp	.L967
 7030      FF
 7031              		.p2align 4,,10
 7032              		.p2align 3
 7033              	.L952:
 7034 4280 488B3424 		movq	(%rsp), %rsi
 7035 4284 488DBC24 		leaq	176(%rsp), %rdi
 7035      B0000000 
 7036 428c 4883C650 		addq	$80, %rsi
 7037              	.LEHB230:
 7038 4290 E8000000 		call	_ZNSt7__cxx1112basic_stringIcSt11char_traitsIcESaIcEE9_M_assignERKS4_
 7038      00
 7039              	.LEHE230:
 7040 4295 E9FCFCFF 		jmp	.L960
 7040      FF
 7041              	.L1039:
 7042 429a 4889C7   		movq	%rax, %rdi
 7043 429d E97AFEFF 		jmp	.L956
 7043      FF
 7044              	.L1043:
 7045 42a2 4889C7   		movq	%rax, %rdi
 7046 42a5 E922FEFF 		jmp	.L965
 7046      FF
 7047              	.L1040:
 7048 42aa E8000000 		call	__stack_chk_fail
 7048      00
 7049              	.L1013:
 7050 42af E936FFFF 		jmp	.L1030
 7050      FF
 7051              	.L1017:
 7052 42b4 488BBC24 		movq	240(%rsp), %rdi
 7052      F0000000 
 7053 42bc 4889C3   		movq	%rax, %rbx
 7054 42bf 488D8424 		leaq	256(%rsp), %rax
 7054      00010000 
 7055 42c7 4839C7   		cmpq	%rax, %rdi
 7056 42ca 0F841DFF 		je	.L1029
 7056      FFFF
 7057              	.L1024:
 7058 42d0 E8000000 		call	_ZdlPv
 7058      00
 7059 42d5 E913FFFF 		jmp	.L1029
 7059      FF
 7060              	.L1016:
 7061 42da 488BBC24 		movq	208(%rsp), %rdi
 7061      D0000000 
 7062 42e2 4889C3   		movq	%rax, %rbx
 7063 42e5 488D8424 		leaq	224(%rsp), %rax
 7063      E0000000 
 7064 42ed 4839C7   		cmpq	%rax, %rdi
 7065 42f0 75DE     		jne	.L1024
 7066 42f2 E9F6FEFF 		jmp	.L1029
 7066      FF
 7067              	.L1014:
 7068 42f7 4889C3   		movq	%rax, %rbx
 7069 42fa 4889D5   		movq	%rdx, %rbp
 7070 42fd E8000000 		call	__cxa_end_catch
 7070      00
 7071 4302 E938FEFF 		jmp	.L988
 7071      FF
 7072              	.L1012:
 7073 4307 E9FEFEFF 		jmp	.L978
 7073      FF
 7074              	.L1010:
 7075 430c 4889C7   		movq	%rax, %rdi
 7076 430f E93EFEFF 		jmp	.L989
 7076      FF
 7077              	.L1008:
 7078 4314 488DBC24 		leaq	272(%rsp), %rdi
 7078      10010000 
 7079 431c 4889C3   		movq	%rax, %rbx
 7080 431f E8000000 		call	_ZN8UnitTest15MemoryOutStreamD1Ev
 7080      00
 7081              	.L997:
 7082 4324 E8000000 		call	__cxa_end_catch
 7082      00
 7083 4329 4889DF   		movq	%rbx, %rdi
 7084              	.LEHB231:
 7085 432c E8000000 		call	_Unwind_Resume
 7085      00
 7086              	.LEHE231:
 7087              	.L1007:
 7088              	.L1027:
 7089 4331 4889C3   		movq	%rax, %rbx
 7090 4334 EBEE     		jmp	.L997
 7091              	.L1044:
 7092 4336 E8000000 		call	__cxa_begin_catch
 7092      00
 7093              	.LEHB232:
 7094 433b E8000000 		call	_ZN8UnitTest11CurrentTest7ResultsEv
 7094      00
 7095 4340 488B7424 		movq	8(%rsp), %rsi
 7095      08
 7096 4345 488B38   		movq	(%rax), %rdi
 7097 4348 BA000000 		movl	$.LC32, %edx
 7097      00
 7098 434d E8000000 		call	_ZN8UnitTest11TestResults13OnTestFailureERKNS_11TestDetailsEPKc
 7098      00
 7099              	.LEHE232:
 7100              	.LEHB233:
 7101 4352 E8000000 		call	__cxa_end_catch
 7101      00
 7102              	.LEHE233:
 7103 4357 E980FCFF 		jmp	.L949
 7103      FF
 7104              	.L991:
 7105 435c E8000000 		call	__cxa_begin_catch
 7105      00
 7106 4361 4889C3   		movq	%rax, %rbx
 7107 4364 488B00   		movq	(%rax), %rax
 7108 4367 4889DF   		movq	%rbx, %rdi
 7109 436a FF5010   		call	*16(%rax)
 7110 436d 4889DF   		movq	%rbx, %rdi
 7111 4370 4889C5   		movq	%rax, %rbp
 7112              	.LEHB234:
 7113 4373 E8000000 		call	_ZNK8UnitTest15AssertException10LineNumberEv
 7113      00
 7114 4378 4889DF   		movq	%rbx, %rdi
 7115 437b 4189C4   		movl	%eax, %r12d
 7116 437e E8000000 		call	_ZNK8UnitTest15AssertException8FilenameEv
 7116      00
 7117 4383 488B5424 		movq	8(%rsp), %rdx
 7117      08
 7118 4388 488D7C24 		leaq	48(%rsp), %rdi
 7118      30
 7119 438d 4589E0   		movl	%r12d, %r8d
 7120 4390 4889C1   		movq	%rax, %rcx
 7121 4393 488B7208 		movq	8(%rdx), %rsi
 7122 4397 488B12   		movq	(%rdx), %rdx
 7123 439a E8000000 		call	_ZN8UnitTest11TestDetailsC1EPKcS2_S2_i
 7123      00
 7124 439f E8000000 		call	_ZN8UnitTest11CurrentTest7ResultsEv
 7124      00
 7125 43a4 488B38   		movq	(%rax), %rdi
 7126 43a7 488D7424 		leaq	48(%rsp), %rsi
 7126      30
 7127 43ac 4889EA   		movq	%rbp, %rdx
 7128 43af E8000000 		call	_ZN8UnitTest11TestResults13OnTestFailureERKNS_11TestDetailsEPKc
 7128      00
 7129              	.LEHE234:
 7130 43b4 E927FEFF 		jmp	.L1026
 7130      FF
 7131              	.L1006:
 7132 43b9 4889C3   		movq	%rax, %rbx
 7133 43bc E8000000 		call	__cxa_end_catch
 7133      00
 7134 43c1 4889DF   		movq	%rbx, %rdi
 7135              	.LEHB235:
 7136 43c4 E8000000 		call	_Unwind_Resume
 7136      00
 7137              	.LEHE235:
 7138              	.L1009:
 7139 43c9 E963FFFF 		jmp	.L1027
 7139      FF
 7140              		.cfi_endproc
 7141              	.LFE1716:
 7142              		.section	.gcc_except_table
 7143              		.align 4
 7144              	.LLSDA1716:
 7145 05dc FF       		.byte	0xff
 7146 05dd 03       		.byte	0x3
 7147 05de 9C01     		.uleb128 .LLSDATT1716-.LLSDATTD1716
 7148              	.LLSDATTD1716:
 7149 05e0 01       		.byte	0x1
 7150 05e1 8301     		.uleb128 .LLSDACSE1716-.LLSDACSB1716
 7151              	.LLSDACSB1716:
 7152 05e3 2A       		.uleb128 .LEHB213-.LFB1716
 7153 05e4 05       		.uleb128 .LEHE213-.LEHB213
 7154 05e5 00       		.uleb128 0
 7155 05e6 00       		.uleb128 0
 7156 05e7 3A       		.uleb128 .LEHB214-.LFB1716
 7157 05e8 05       		.uleb128 .LEHE214-.LEHB214
 7158 05e9 AC0A     		.uleb128 .L1010-.LFB1716
 7159 05eb 05       		.uleb128 0x5
 7160 05ec 6F       		.uleb128 .LEHB215-.LFB1716
 7161 05ed 36       		.uleb128 .LEHE215-.LEHB215
 7162 05ee D906     		.uleb128 .L1011-.LFB1716
 7163 05f0 07       		.uleb128 0x7
 7164 05f1 AE01     		.uleb128 .LEHB216-.LFB1716
 7165 05f3 17       		.uleb128 .LEHE216-.LEHB216
 7166 05f4 A70A     		.uleb128 .L1012-.LFB1716
 7167 05f6 01       		.uleb128 0x1
 7168 05f7 A102     		.uleb128 .LEHB217-.LFB1716
 7169 05f9 05       		.uleb128 .LEHE217-.LEHB217
 7170 05fa 8A08     		.uleb128 .L1015-.LFB1716
 7171 05fc 01       		.uleb128 0x1
 7172 05fd CB02     		.uleb128 .LEHB218-.LFB1716
 7173 05ff 05       		.uleb128 .LEHE218-.LEHB218
 7174 0600 D906     		.uleb128 .L1011-.LFB1716
 7175 0602 07       		.uleb128 0x7
 7176 0603 9703     		.uleb128 .LEHB219-.LFB1716
 7177 0605 05       		.uleb128 .LEHE219-.LEHB219
 7178 0606 D409     		.uleb128 .L1017-.LFB1716
 7179 0608 01       		.uleb128 0x1
 7180 0609 B603     		.uleb128 .LEHB220-.LFB1716
 7181 060b 1F       		.uleb128 .LEHE220-.LEHB220
 7182 060c CF09     		.uleb128 .L1013-.LFB1716
 7183 060e 01       		.uleb128 0x1
 7184 060f F703     		.uleb128 .LEHB221-.LFB1716
 7185 0611 05       		.uleb128 .LEHE221-.LEHB221
 7186 0612 AC0A     		.uleb128 .L1010-.LFB1716
 7187 0614 05       		.uleb128 0x5
 7188 0615 C704     		.uleb128 .LEHB222-.LFB1716
 7189 0617 05       		.uleb128 .LEHE222-.LEHB222
 7190 0618 8A08     		.uleb128 .L1015-.LFB1716
 7191 061a 01       		.uleb128 0x1
 7192 061b 9505     		.uleb128 .LEHB223-.LFB1716
 7193 061d 05       		.uleb128 .LEHE223-.LEHB223
 7194 061e FA09     		.uleb128 .L1016-.LFB1716
 7195 0620 01       		.uleb128 0x1
 7196 0621 CF05     		.uleb128 .LEHB224-.LFB1716
 7197 0623 55       		.uleb128 .LEHE224-.LEHB224
 7198 0624 8A08     		.uleb128 .L1015-.LFB1716
 7199 0626 01       		.uleb128 0x1
 7200 0627 9607     		.uleb128 .LEHB225-.LFB1716
 7201 0629 05       		.uleb128 .LEHE225-.LEHB225
 7202 062a D10A     		.uleb128 .L1007-.LFB1716
 7203 062c 00       		.uleb128 0
 7204 062d B907     		.uleb128 .LEHB226-.LFB1716
 7205 062f 3A       		.uleb128 .LEHE226-.LEHB226
 7206 0630 B40A     		.uleb128 .L1008-.LFB1716
 7207 0632 00       		.uleb128 0
 7208 0633 FB07     		.uleb128 .LEHB227-.LFB1716
 7209 0635 05       		.uleb128 .LEHE227-.LEHB227
 7210 0636 D10A     		.uleb128 .L1007-.LFB1716
 7211 0638 00       		.uleb128 0
 7212 0639 B208     		.uleb128 .LEHB228-.LFB1716
 7213 063b 34       		.uleb128 .LEHE228-.LEHB228
 7214 063c 970A     		.uleb128 .L1014-.LFB1716
 7215 063e 07       		.uleb128 0x7
 7216 063f E608     		.uleb128 .LEHB229-.LFB1716
 7217 0641 05       		.uleb128 .LEHE229-.LEHB229
 7218 0642 D906     		.uleb128 .L1011-.LFB1716
 7219 0644 07       		.uleb128 0x7
 7220 0645 B009     		.uleb128 .LEHB230-.LFB1716
 7221 0647 05       		.uleb128 .LEHE230-.LEHB230
 7222 0648 8A08     		.uleb128 .L1015-.LFB1716
 7223 064a 01       		.uleb128 0x1
 7224 064b CC0A     		.uleb128 .LEHB231-.LFB1716
 7225 064d 05       		.uleb128 .LEHE231-.LEHB231
 7226 064e 00       		.uleb128 0
 7227 064f 00       		.uleb128 0
 7228 0650 DB0A     		.uleb128 .LEHB232-.LFB1716
 7229 0652 17       		.uleb128 .LEHE232-.LEHB232
 7230 0653 D90B     		.uleb128 .L1006-.LFB1716
 7231 0655 00       		.uleb128 0
 7232 0656 F20A     		.uleb128 .LEHB233-.LFB1716
 7233 0658 05       		.uleb128 .LEHE233-.LEHB233
 7234 0659 00       		.uleb128 0
 7235 065a 00       		.uleb128 0
 7236 065b 930B     		.uleb128 .LEHB234-.LFB1716
 7237 065d 41       		.uleb128 .LEHE234-.LEHB234
 7238 065e E90B     		.uleb128 .L1009-.LFB1716
 7239 0660 00       		.uleb128 0
 7240 0661 E40B     		.uleb128 .LEHB235-.LFB1716
 7241 0663 05       		.uleb128 .LEHE235-.LEHB235
 7242 0664 00       		.uleb128 0
 7243 0665 00       		.uleb128 0
 7244              	.LLSDACSE1716:
 7245 0666 03       		.byte	0x3
 7246 0667 00       		.byte	0
 7247 0668 02       		.byte	0x2
 7248 0669 7D       		.byte	0x7d
 7249 066a 01       		.byte	0x1
 7250 066b 7D       		.byte	0x7d
 7251 066c 00       		.byte	0
 7252 066d 7D       		.byte	0x7d
 7253 066e 0000     		.align 4
 7254 0670 00000000 		.long	0
 7255              	
 7256 0674 00000000 		.long	_ZTISt9exception
 7257 0678 00000000 		.long	_ZTIN8UnitTest15AssertExceptionE
 7258              	.LLSDATT1716:
 7259              		.text
 7261              		.section	.text.unlikely
 7262              	.LCOLDE71:
 7263              		.text
 7264              	.LHOTE71:
 7265              		.section	.text.unlikely
 7266              		.align 2
 7267              	.LCOLDB72:
 7268              		.text
 7269              	.LHOTB72:
 7270              		.align 2
 7271 43ce 6690     		.p2align 4,,15
 7273              	_ZNK12_GLOBAL__N_165TestXmlTestReporterFixtureSingleSuccessfulTestReportSummaryFormat7RunImplEv:
 7274              	.LFB1406:
 7275              		.cfi_startproc
 7276              		.cfi_personality 0x3,__gxx_personality_v0
 7277              		.cfi_lsda 0x3,.LLSDA1406
 7278 43d0 4157     		pushq	%r15
 7279              		.cfi_def_cfa_offset 16
 7280              		.cfi_offset 15, -16
 7281 43d2 4156     		pushq	%r14
 7282              		.cfi_def_cfa_offset 24
 7283              		.cfi_offset 14, -24
 7284 43d4 4989FF   		movq	%rdi, %r15
 7285 43d7 4155     		pushq	%r13
 7286              		.cfi_def_cfa_offset 32
 7287              		.cfi_offset 13, -32
 7288 43d9 4154     		pushq	%r12
 7289              		.cfi_def_cfa_offset 40
 7290              		.cfi_offset 12, -40
 7291 43db 4C8D7708 		leaq	8(%rdi), %r14
 7292 43df 55       		pushq	%rbp
 7293              		.cfi_def_cfa_offset 48
 7294              		.cfi_offset 6, -48
 7295 43e0 53       		pushq	%rbx
 7296              		.cfi_def_cfa_offset 56
 7297              		.cfi_offset 3, -56
 7298 43e1 4881ECD8 		subq	$472, %rsp
 7298      010000
 7299              		.cfi_def_cfa_offset 528
 7300 43e8 488DBC24 		leaq	144(%rsp), %rdi
 7300      90000000 
 7301 43f0 64488B04 		movq	%fs:40, %rax
 7301      25280000 
 7301      00
 7302 43f9 48898424 		movq	%rax, 456(%rsp)
 7302      C8010000 
 7303 4401 31C0     		xorl	%eax, %eax
 7304 4403 E8000000 		call	_ZNSt8ios_baseC2Ev
 7304      00
 7305 4408 488B0500 		movq	_ZTTNSt7__cxx1119basic_ostringstreamIcSt11char_traitsIcESaIcEEE+8(%rip), %rax
 7305      000000
 7306 440f C6842470 		movb	$0, 368(%rsp)
 7306      01000000 
 7307 4417 488D7C24 		leaq	32(%rsp), %rdi
 7307      20
 7308 441c 48C78424 		movq	$_ZTVSt9basic_iosIcSt11char_traitsIcEE+16, 144(%rsp)
 7308      90000000 
 7308      00000000 
 7309 4428 48C78424 		movq	$0, 360(%rsp)
 7309      68010000 
 7309      00000000 
 7310 4434 31F6     		xorl	%esi, %esi
 7311 4436 C6842471 		movb	$0, 369(%rsp)
 7311      01000000 
 7312 443e 48C78424 		movq	$0, 376(%rsp)
 7312      78010000 
 7312      00000000 
 7313 444a 480378E8 		addq	-24(%rax), %rdi
 7314 444e 48894424 		movq	%rax, 32(%rsp)
 7314      20
 7315 4453 488B0500 		movq	_ZTTNSt7__cxx1119basic_ostringstreamIcSt11char_traitsIcESaIcEEE+16(%rip), %rax
 7315      000000
 7316 445a 48C78424 		movq	$0, 384(%rsp)
 7316      80010000 
 7316      00000000 
 7317 4466 48C78424 		movq	$0, 392(%rsp)
 7317      88010000 
 7317      00000000 
 7318 4472 48C78424 		movq	$0, 400(%rsp)
 7318      90010000 
 7318      00000000 
 7319 447e 488907   		movq	%rax, (%rdi)
 7320              	.LEHB236:
 7321 4481 E8000000 		call	_ZNSt9basic_iosIcSt11char_traitsIcEE4initEPSt15basic_streambufIcS1_E
 7321      00
 7322              	.LEHE236:
 7323 4486 488D7C24 		leaq	96(%rsp), %rdi
 7323      60
 7324 448b 48C74424 		movq	$_ZTVNSt7__cxx1119basic_ostringstreamIcSt11char_traitsIcESaIcEEE+24, 32(%rsp)
 7324      20000000 
 7324      00
 7325 4494 48C78424 		movq	$_ZTVNSt7__cxx1119basic_ostringstreamIcSt11char_traitsIcESaIcEEE+64, 144(%rsp)
 7325      90000000 
 7325      00000000 
 7326 44a0 48C74424 		movq	$_ZTVSt15basic_streambufIcSt11char_traitsIcEE+16, 40(%rsp)
 7326      28000000 
 7326      00
 7327 44a9 48C74424 		movq	$0, 48(%rsp)
 7327      30000000 
 7327      00
 7328 44b2 48C74424 		movq	$0, 56(%rsp)
 7328      38000000 
 7328      00
 7329 44bb 48C74424 		movq	$0, 64(%rsp)
 7329      40000000 
 7329      00
 7330 44c4 48C74424 		movq	$0, 72(%rsp)
 7330      48000000 
 7330      00
 7331 44cd 48C74424 		movq	$0, 80(%rsp)
 7331      50000000 
 7331      00
 7332 44d6 48C74424 		movq	$0, 88(%rsp)
 7332      58000000 
 7332      00
 7333 44df E8000000 		call	_ZNSt6localeC1Ev
 7333      00
 7334 44e4 488D8424 		leaq	128(%rsp), %rax
 7334      80000000 
 7335 44ec 488D7424 		leaq	40(%rsp), %rsi
 7335      28
 7336 44f1 48C74424 		movq	$_ZTVNSt7__cxx1115basic_stringbufIcSt11char_traitsIcESaIcEEE+16, 40(%rsp)
 7336      28000000 
 7336      00
 7337 44fa C7442468 		movl	$16, 104(%rsp)
 7337      10000000 
 7338 4502 48C74424 		movq	$0, 120(%rsp)
 7338      78000000 
 7338      00
 7339 450b 48894424 		movq	%rax, 112(%rsp)
 7339      70
 7340 4510 488D4424 		leaq	32(%rsp), %rax
 7340      20
 7341 4515 C6842480 		movb	$0, 128(%rsp)
 7341      00000000 
 7342 451d 488D7870 		leaq	112(%rax), %rdi
 7343              	.LEHB237:
 7344 4521 E8000000 		call	_ZNSt9basic_iosIcSt11char_traitsIcEE4initEPSt15basic_streambufIcS1_E
 7344      00
 7345              	.LEHE237:
 7346 4526 488D4424 		leaq	32(%rsp), %rax
 7346      20
 7347 452b 488DBC24 		leaq	408(%rsp), %rdi
 7347      98010000 
 7348 4533 4889C6   		movq	%rax, %rsi
 7349              	.LEHB238:
 7350 4536 E8000000 		call	_ZN8UnitTest15XmlTestReporterC1ERSo
 7350      00
 7351              	.LEHE238:
 7352 453b 488D7C24 		leaq	32(%rsp), %rdi
 7352      20
 7353 4540 4C89F6   		movq	%r14, %rsi
 7354 4543 4C89B424 		movq	%r14, 448(%rsp)
 7354      C0010000 
 7355              	.LEHB239:
 7356 454b E890F8FF 		call	_ZN8UnitTest11ExecuteTestIN12_GLOBAL__N_167XmlTestReporterFixtureSingleSuccessfulTestReportSu
 7356      FF
 7357              	.LEHE239:
 7358 4550 4C8BA424 		movq	424(%rsp), %r12
 7358      A8010000 
 7359 4558 488BAC24 		movq	416(%rsp), %rbp
 7359      A0010000 
 7360 4560 48C78424 		movq	$_ZTVN8UnitTest20DeferredTestReporterE+16, 408(%rsp)
 7360      98010000 
 7360      00000000 
 7361 456c 4939EC   		cmpq	%rbp, %r12
 7362 456f 0F848600 		je	.L1052
 7362      0000
 7363              		.p2align 4,,10
 7364 4575 0F1F00   		.p2align 3
 7365              	.L1060:
 7366 4578 488B5D68 		movq	104(%rbp), %rbx
 7367 457c 4C8B6D60 		movq	96(%rbp), %r13
 7368 4580 4C39EB   		cmpq	%r13, %rbx
 7369 4583 7422     		je	.L1053
 7370              		.p2align 4,,10
 7371 4585 0F1F00   		.p2align 3
 7372              	.L1055:
 7373 4588 498B7D08 		movq	8(%r13), %rdi
 7374 458c 498D5518 		leaq	24(%r13), %rdx
 7375 4590 4839D7   		cmpq	%rdx, %rdi
 7376 4593 7405     		je	.L1054
 7377 4595 E8000000 		call	_ZdlPv
 7377      00
 7378              	.L1054:
 7379 459a 4983C528 		addq	$40, %r13
 7380 459e 4C39EB   		cmpq	%r13, %rbx
 7381 45a1 75E5     		jne	.L1055
 7382 45a3 488B5D60 		movq	96(%rbp), %rbx
 7383              	.L1053:
 7384 45a7 4885DB   		testq	%rbx, %rbx
 7385 45aa 7408     		je	.L1056
 7386 45ac 4889DF   		movq	%rbx, %rdi
 7387 45af E8000000 		call	_ZdlPv
 7387      00
 7388              	.L1056:
 7389 45b4 488B7D40 		movq	64(%rbp), %rdi
 7390 45b8 488D4550 		leaq	80(%rbp), %rax
 7391 45bc 4839C7   		cmpq	%rax, %rdi
 7392 45bf 7405     		je	.L1057
 7393 45c1 E8000000 		call	_ZdlPv
 7393      00
 7394              	.L1057:
 7395 45c6 488B7D20 		movq	32(%rbp), %rdi
 7396 45ca 488D4530 		leaq	48(%rbp), %rax
 7397 45ce 4839C7   		cmpq	%rax, %rdi
 7398 45d1 7405     		je	.L1058
 7399 45d3 E8000000 		call	_ZdlPv
 7399      00
 7400              	.L1058:
 7401 45d8 488B7D00 		movq	0(%rbp), %rdi
 7402 45dc 488D4510 		leaq	16(%rbp), %rax
 7403 45e0 4839C7   		cmpq	%rax, %rdi
 7404 45e3 7405     		je	.L1059
 7405 45e5 E8000000 		call	_ZdlPv
 7405      00
 7406              	.L1059:
 7407 45ea 4883ED80 		subq	$-128, %rbp
 7408 45ee 4939EC   		cmpq	%rbp, %r12
 7409 45f1 7585     		jne	.L1060
 7410 45f3 4C8BA424 		movq	416(%rsp), %r12
 7410      A0010000 
 7411              	.L1052:
 7412 45fb 4D85E4   		testq	%r12, %r12
 7413 45fe 7408     		je	.L1061
 7414 4600 4C89E7   		movq	%r12, %rdi
 7415 4603 E8000000 		call	_ZdlPv
 7415      00
 7416              	.L1061:
 7417 4608 488DBC24 		leaq	408(%rsp), %rdi
 7417      98010000 
 7418              	.LEHB240:
 7419 4610 E8000000 		call	_ZN8UnitTest12TestReporterD2Ev
 7419      00
 7420              	.LEHE240:
 7421 4615 488B7C24 		movq	112(%rsp), %rdi
 7421      70
 7422 461a 488D8424 		leaq	128(%rsp), %rax
 7422      80000000 
 7423 4622 48C74424 		movq	$_ZTVNSt7__cxx1119basic_ostringstreamIcSt11char_traitsIcESaIcEEE+24, 32(%rsp)
 7423      20000000 
 7423      00
 7424 462b 48C78424 		movq	$_ZTVNSt7__cxx1119basic_ostringstreamIcSt11char_traitsIcESaIcEEE+64, 144(%rsp)
 7424      90000000 
 7424      00000000 
 7425 4637 48C74424 		movq	$_ZTVNSt7__cxx1115basic_stringbufIcSt11char_traitsIcESaIcEEE+16, 40(%rsp)
 7425      28000000 
 7425      00
 7426 4640 4839C7   		cmpq	%rax, %rdi
 7427 4643 7405     		je	.L1062
 7428 4645 E8000000 		call	_ZdlPv
 7428      00
 7429              	.L1062:
 7430 464a 488D7C24 		leaq	96(%rsp), %rdi
 7430      60
 7431 464f 48C74424 		movq	$_ZTVSt15basic_streambufIcSt11char_traitsIcEE+16, 40(%rsp)
 7431      28000000 
 7431      00
 7432 4658 E8000000 		call	_ZNSt6localeD1Ev
 7432      00
 7433 465d 488B0500 		movq	_ZTTNSt7__cxx1119basic_ostringstreamIcSt11char_traitsIcESaIcEEE+8(%rip), %rax
 7433      000000
 7434 4664 488B0D00 		movq	_ZTTNSt7__cxx1119basic_ostringstreamIcSt11char_traitsIcESaIcEEE+16(%rip), %rcx
 7434      000000
 7435 466b 488DBC24 		leaq	144(%rsp), %rdi
 7435      90000000 
 7436 4673 488B40E8 		movq	-24(%rax), %rax
 7437 4677 48894C04 		movq	%rcx, 32(%rsp,%rax)
 7437      20
 7438 467c 48C78424 		movq	$_ZTVSt9basic_iosIcSt11char_traitsIcEE+16, 144(%rsp)
 7438      90000000 
 7438      00000000 
 7439              	.LEHB241:
 7440 4688 E8000000 		call	_ZNSt8ios_baseD2Ev
 7440      00
 7441              	.LEHE241:
 7442              	.L1045:
 7443 468d 488B8424 		movq	456(%rsp), %rax
 7443      C8010000 
 7444 4695 64483304 		xorq	%fs:40, %rax
 7444      25280000 
 7444      00
 7445 469e 0F85C000 		jne	.L1105
 7445      0000
 7446 46a4 4881C4D8 		addq	$472, %rsp
 7446      010000
 7447              		.cfi_remember_state
 7448              		.cfi_def_cfa_offset 56
 7449 46ab 5B       		popq	%rbx
 7450              		.cfi_def_cfa_offset 48
 7451 46ac 5D       		popq	%rbp
 7452              		.cfi_def_cfa_offset 40
 7453 46ad 415C     		popq	%r12
 7454              		.cfi_def_cfa_offset 32
 7455 46af 415D     		popq	%r13
 7456              		.cfi_def_cfa_offset 24
 7457 46b1 415E     		popq	%r14
 7458              		.cfi_def_cfa_offset 16
 7459 46b3 415F     		popq	%r15
 7460              		.cfi_def_cfa_offset 8
 7461 46b5 C3       		ret
 7462              	.L1085:
 7463              		.cfi_restore_state
 7464 46b6 4889C3   		movq	%rax, %rbx
 7465 46b9 4889D5   		movq	%rdx, %rbp
 7466              	.L1048:
 7467 46bc 488DBC24 		leaq	144(%rsp), %rdi
 7467      90000000 
 7468 46c4 48C78424 		movq	$_ZTVSt9basic_iosIcSt11char_traitsIcEE+16, 144(%rsp)
 7468      90000000 
 7468      00000000 
 7469 46d0 E8000000 		call	_ZNSt8ios_baseD2Ev
 7469      00
 7470 46d5 4889DF   		movq	%rbx, %rdi
 7471 46d8 4889EA   		movq	%rbp, %rdx
 7472 46db 31DB     		xorl	%ebx, %ebx
 7473              	.L1049:
 7474 46dd 4883FA01 		cmpq	$1, %rdx
 7475 46e1 0F84EA00 		je	.L1069
 7475      0000
 7476 46e7 4883FA02 		cmpq	$2, %rdx
 7477 46eb 0F85A400 		jne	.L1106
 7477      0000
 7478 46f1 E8000000 		call	__cxa_begin_catch
 7478      00
 7479 46f6 488D7C24 		leaq	32(%rsp), %rdi
 7479      20
 7480 46fb 4889C3   		movq	%rax, %rbx
 7481              	.LEHB242:
 7482 46fe E8000000 		call	_ZN8UnitTest15MemoryOutStreamC1Ev
 7482      00
 7483              	.LEHE242:
 7484 4703 488B03   		movq	(%rbx), %rax
 7485 4706 4889DF   		movq	%rbx, %rdi
 7486 4709 FF5010   		call	*16(%rax)
 7487 470c 488D7C24 		leaq	32(%rsp), %rdi
 7487      20
 7488 4711 BA150000 		movl	$21, %edx
 7488      00
 7489 4716 BE000000 		movl	$.LC31, %esi
 7489      00
 7490 471b 4889C3   		movq	%rax, %rbx
 7491              	.LEHB243:
 7492 471e E8000000 		call	_ZSt16__ostream_insertIcSt11char_traitsIcEERSt13basic_ostreamIT_T0_ES6_PKS3_l
 7492      00
 7493 4723 488D7C24 		leaq	32(%rsp), %rdi
 7493      20
 7494 4728 4889DE   		movq	%rbx, %rsi
 7495 472b E8000000 		call	_ZStlsISt11char_traitsIcEERSt13basic_ostreamIcT_ES5_PKc
 7495      00
 7496 4730 488D7C24 		leaq	32(%rsp), %rdi
 7496      20
 7497 4735 E8000000 		call	_ZNK8UnitTest15MemoryOutStream7GetTextEv
 7497      00
 7498 473a 4889C3   		movq	%rax, %rbx
 7499 473d E8000000 		call	_ZN8UnitTest11CurrentTest7ResultsEv
 7499      00
 7500 4742 488B38   		movq	(%rax), %rdi
 7501 4745 4889DA   		movq	%rbx, %rdx
 7502 4748 4C89F6   		movq	%r14, %rsi
 7503 474b E8000000 		call	_ZN8UnitTest11TestResults13OnTestFailureERKNS_11TestDetailsEPKc
 7503      00
 7504              	.LEHE243:
 7505 4750 488D7C24 		leaq	32(%rsp), %rdi
 7505      20
 7506              	.LEHB244:
 7507 4755 E8000000 		call	_ZN8UnitTest15MemoryOutStreamD1Ev
 7507      00
 7508              	.LEHE244:
 7509              	.L1100:
 7510 475a E8000000 		call	__cxa_end_catch
 7510      00
 7511 475f E929FFFF 		jmp	.L1045
 7511      FF
 7512              	.L1105:
 7513 4764 E8000000 		call	__stack_chk_fail
 7513      00
 7514              	.L1078:
 7515 4769 4889C7   		movq	%rax, %rdi
 7516 476c BB010000 		movl	$1, %ebx
 7516      00
 7517 4771 E967FFFF 		jmp	.L1049
 7517      FF
 7518              	.L1082:
 7519 4776 488D7C24 		leaq	32(%rsp), %rdi
 7519      20
 7520 477b 4889C3   		movq	%rax, %rbx
 7521 477e E8000000 		call	_ZN8UnitTest15MemoryOutStreamD1Ev
 7521      00
 7522              	.L1075:
 7523 4783 E8000000 		call	__cxa_end_catch
 7523      00
 7524 4788 4889DF   		movq	%rbx, %rdi
 7525              	.LEHB245:
 7526 478b E8000000 		call	_Unwind_Resume
 7526      00
 7527              	.LEHE245:
 7528              	.L1081:
 7529              	.L1101:
 7530 4790 4889C3   		movq	%rax, %rbx
 7531 4793 EBEE     		jmp	.L1075
 7532              	.L1106:
 7533 4795 E8000000 		call	__cxa_begin_catch
 7533      00
 7534 479a 84DB     		testb	%bl, %bl
 7535 479c BA500000 		movl	$80, %edx
 7535      00
 7536 47a1 4C89F6   		movq	%r14, %rsi
 7537 47a4 4889E7   		movq	%rsp, %rdi
 7538 47a7 0F848900 		je	.L1071
 7538      0000
 7539              	.LEHB246:
 7540 47ad E8000000 		call	_ZN8UnitTest11TestDetailsC1ERKS0_i
 7540      00
 7541 47b2 E8000000 		call	_ZN8UnitTest11CurrentTest7ResultsEv
 7541      00
 7542 47b7 488B38   		movq	(%rax), %rdi
 7543 47ba BA000000 		movl	$.LC35, %edx
 7543      00
 7544 47bf 4889E6   		movq	%rsp, %rsi
 7545 47c2 E8000000 		call	_ZN8UnitTest11TestResults13OnTestFailureERKNS_11TestDetailsEPKc
 7545      00
 7546              	.LEHE246:
 7547              	.L1072:
 7548              	.LEHB247:
 7549 47c7 E8000000 		call	__cxa_end_catch
 7549      00
 7550              	.LEHE247:
 7551 47cc E9BCFEFF 		jmp	.L1045
 7551      FF
 7552              	.L1069:
 7553 47d1 E8000000 		call	__cxa_begin_catch
 7553      00
 7554 47d6 4889C3   		movq	%rax, %rbx
 7555 47d9 488B00   		movq	(%rax), %rax
 7556 47dc 4889DF   		movq	%rbx, %rdi
 7557 47df FF5010   		call	*16(%rax)
 7558 47e2 4889DF   		movq	%rbx, %rdi
 7559 47e5 4889C5   		movq	%rax, %rbp
 7560              	.LEHB248:
 7561 47e8 E8000000 		call	_ZNK8UnitTest15AssertException10LineNumberEv
 7561      00
 7562 47ed 4889DF   		movq	%rbx, %rdi
 7563 47f0 4189C4   		movl	%eax, %r12d
 7564 47f3 E8000000 		call	_ZNK8UnitTest15AssertException8FilenameEv
 7564      00
 7565 47f8 498B5708 		movq	8(%r15), %rdx
 7566 47fc 498B7710 		movq	16(%r15), %rsi
 7567 4800 4589E0   		movl	%r12d, %r8d
 7568 4803 4889C1   		movq	%rax, %rcx
 7569 4806 4889E7   		movq	%rsp, %rdi
 7570 4809 E8000000 		call	_ZN8UnitTest11TestDetailsC1EPKcS2_S2_i
 7570      00
 7571 480e E8000000 		call	_ZN8UnitTest11CurrentTest7ResultsEv
 7571      00
 7572 4813 488B38   		movq	(%rax), %rdi
 7573 4816 4889EA   		movq	%rbp, %rdx
 7574 4819 4889E6   		movq	%rsp, %rsi
 7575 481c E8000000 		call	_ZN8UnitTest11TestResults13OnTestFailureERKNS_11TestDetailsEPKc
 7575      00
 7576              	.LEHE248:
 7577 4821 E934FFFF 		jmp	.L1100
 7577      FF
 7578              	.L1083:
 7579 4826 4889C3   		movq	%rax, %rbx
 7580 4829 E8000000 		call	__cxa_end_catch
 7580      00
 7581 482e 4889DF   		movq	%rbx, %rdi
 7582              	.LEHB249:
 7583 4831 E8000000 		call	_Unwind_Resume
 7583      00
 7584              	.LEHE249:
 7585              	.L1071:
 7586              	.LEHB250:
 7587 4836 E8000000 		call	_ZN8UnitTest11TestDetailsC1ERKS0_i
 7587      00
 7588 483b E8000000 		call	_ZN8UnitTest11CurrentTest7ResultsEv
 7588      00
 7589 4840 488B38   		movq	(%rax), %rdi
 7590 4843 BA000000 		movl	$.LC36, %edx
 7590      00
 7591 4848 4889E6   		movq	%rsp, %rsi
 7592 484b E8000000 		call	_ZN8UnitTest11TestResults13OnTestFailureERKNS_11TestDetailsEPKc
 7592      00
 7593              	.LEHE250:
 7594 4850 E972FFFF 		jmp	.L1072
 7594      FF
 7595              	.L1080:
 7596 4855 E936FFFF 		jmp	.L1101
 7596      FF
 7597              	.L1087:
 7598 485a 488D7C24 		leaq	32(%rsp), %rdi
 7598      20
 7599 485f 4889C3   		movq	%rax, %rbx
 7600 4862 4889D5   		movq	%rdx, %rbp
 7601 4865 E8000000 		call	_ZNSt7__cxx1119basic_ostringstreamIcSt11char_traitsIcESaIcEED1Ev
 7601      00
 7602 486a 4889DF   		movq	%rbx, %rdi
 7603 486d 4889EA   		movq	%rbp, %rdx
 7604 4870 BB010000 		movl	$1, %ebx
 7604      00
 7605 4875 E963FEFF 		jmp	.L1049
 7605      FF
 7606              	.L1079:
 7607 487a 488D7C24 		leaq	32(%rsp), %rdi
 7607      20
 7608 487f 4889C3   		movq	%rax, %rbx
 7609 4882 4889D5   		movq	%rdx, %rbp
 7610 4885 E8000000 		call	_ZN12_GLOBAL__N_122XmlTestReporterFixtureD2Ev.constprop.46
 7610      00
 7611 488a 4889DF   		movq	%rbx, %rdi
 7612 488d 4889EA   		movq	%rbp, %rdx
 7613 4890 BB010000 		movl	$1, %ebx
 7613      00
 7614 4895 E943FEFF 		jmp	.L1049
 7614      FF
 7615              	.L1084:
 7616 489a 488D7C24 		leaq	32(%rsp), %rdi
 7616      20
 7617 489f 4889C3   		movq	%rax, %rbx
 7618 48a2 4889D5   		movq	%rdx, %rbp
 7619 48a5 E8000000 		call	_ZNSt7__cxx1119basic_ostringstreamIcSt11char_traitsIcESaIcEED1Ev
 7619      00
 7620 48aa 4889DF   		movq	%rbx, %rdi
 7621 48ad 4889EA   		movq	%rbp, %rdx
 7622 48b0 31DB     		xorl	%ebx, %ebx
 7623 48b2 E926FEFF 		jmp	.L1049
 7623      FF
 7624              	.L1086:
 7625 48b7 488D7C24 		leaq	40(%rsp), %rdi
 7625      28
 7626 48bc 4889C3   		movq	%rax, %rbx
 7627 48bf 4889D5   		movq	%rdx, %rbp
 7628 48c2 E8000000 		call	_ZNSt7__cxx1115basic_stringbufIcSt11char_traitsIcESaIcEED1Ev
 7628      00
 7629 48c7 488B0500 		movq	_ZTTNSt7__cxx1119basic_ostringstreamIcSt11char_traitsIcESaIcEEE+8(%rip), %rax
 7629      000000
 7630 48ce 488B0D00 		movq	_ZTTNSt7__cxx1119basic_ostringstreamIcSt11char_traitsIcESaIcEEE+16(%rip), %rcx
 7630      000000
 7631 48d5 488B40E8 		movq	-24(%rax), %rax
 7632 48d9 48894C04 		movq	%rcx, 32(%rsp,%rax)
 7632      20
 7633 48de E9D9FDFF 		jmp	.L1048
 7633      FF
 7634              		.cfi_endproc
 7635              	.LFE1406:
 7636              		.section	.gcc_except_table
 7637              		.align 4
 7638              	.LLSDA1406:
 7639 067c FF       		.byte	0xff
 7640 067d 03       		.byte	0x3
 7641 067e 6D       		.uleb128 .LLSDATT1406-.LLSDATTD1406
 7642              	.LLSDATTD1406:
 7643 067f 01       		.byte	0x1
 7644 0680 57       		.uleb128 .LLSDACSE1406-.LLSDACSB1406
 7645              	.LLSDACSB1406:
 7646 0681 B101     		.uleb128 .LEHB236-.LFB1406
 7647 0683 05       		.uleb128 .LEHE236-.LEHB236
 7648 0684 E605     		.uleb128 .L1085-.LFB1406
 7649 0686 07       		.uleb128 0x7
 7650 0687 D102     		.uleb128 .LEHB237-.LFB1406
 7651 0689 05       		.uleb128 .LEHE237-.LEHB237
 7652 068a E709     		.uleb128 .L1086-.LFB1406
 7653 068c 07       		.uleb128 0x7
 7654 068d E602     		.uleb128 .LEHB238-.LFB1406
 7655 068f 05       		.uleb128 .LEHE238-.LEHB238
 7656 0690 CA09     		.uleb128 .L1084-.LFB1406
 7657 0692 07       		.uleb128 0x7
 7658 0693 FB02     		.uleb128 .LEHB239-.LFB1406
 7659 0695 05       		.uleb128 .LEHE239-.LEHB239
 7660 0696 AA09     		.uleb128 .L1079-.LFB1406
 7661 0698 07       		.uleb128 0x7
 7662 0699 C004     		.uleb128 .LEHB240-.LFB1406
 7663 069b 05       		.uleb128 .LEHE240-.LEHB240
 7664 069c 8A09     		.uleb128 .L1087-.LFB1406
 7665 069e 07       		.uleb128 0x7
 7666 069f B805     		.uleb128 .LEHB241-.LFB1406
 7667 06a1 05       		.uleb128 .LEHE241-.LEHB241
 7668 06a2 9907     		.uleb128 .L1078-.LFB1406
 7669 06a4 05       		.uleb128 0x5
 7670 06a5 AE06     		.uleb128 .LEHB242-.LFB1406
 7671 06a7 05       		.uleb128 .LEHE242-.LEHB242
 7672 06a8 C007     		.uleb128 .L1081-.LFB1406
 7673 06aa 00       		.uleb128 0
 7674 06ab CE06     		.uleb128 .LEHB243-.LFB1406
 7675 06ad 32       		.uleb128 .LEHE243-.LEHB243
 7676 06ae A607     		.uleb128 .L1082-.LFB1406
 7677 06b0 00       		.uleb128 0
 7678 06b1 8507     		.uleb128 .LEHB244-.LFB1406
 7679 06b3 05       		.uleb128 .LEHE244-.LEHB244
 7680 06b4 C007     		.uleb128 .L1081-.LFB1406
 7681 06b6 00       		.uleb128 0
 7682 06b7 BB07     		.uleb128 .LEHB245-.LFB1406
 7683 06b9 05       		.uleb128 .LEHE245-.LEHB245
 7684 06ba 00       		.uleb128 0
 7685 06bb 00       		.uleb128 0
 7686 06bc DD07     		.uleb128 .LEHB246-.LFB1406
 7687 06be 1A       		.uleb128 .LEHE246-.LEHB246
 7688 06bf D608     		.uleb128 .L1083-.LFB1406
 7689 06c1 00       		.uleb128 0
 7690 06c2 F707     		.uleb128 .LEHB247-.LFB1406
 7691 06c4 05       		.uleb128 .LEHE247-.LEHB247
 7692 06c5 00       		.uleb128 0
 7693 06c6 00       		.uleb128 0
 7694 06c7 9808     		.uleb128 .LEHB248-.LFB1406
 7695 06c9 39       		.uleb128 .LEHE248-.LEHB248
 7696 06ca 8509     		.uleb128 .L1080-.LFB1406
 7697 06cc 00       		.uleb128 0
 7698 06cd E108     		.uleb128 .LEHB249-.LFB1406
 7699 06cf 05       		.uleb128 .LEHE249-.LEHB249
 7700 06d0 00       		.uleb128 0
 7701 06d1 00       		.uleb128 0
 7702 06d2 E608     		.uleb128 .LEHB250-.LFB1406
 7703 06d4 1A       		.uleb128 .LEHE250-.LEHB250
 7704 06d5 D608     		.uleb128 .L1083-.LFB1406
 7705 06d7 00       		.uleb128 0
 7706              	.LLSDACSE1406:
 7707 06d8 03       		.byte	0x3
 7708 06d9 00       		.byte	0
 7709 06da 02       		.byte	0x2
 7710 06db 7D       		.byte	0x7d
 7711 06dc 01       		.byte	0x1
 7712 06dd 7D       		.byte	0x7d
 7713 06de 00       		.byte	0
 7714 06df 7D       		.byte	0x7d
 7715              		.align 4
 7716 06e0 00000000 		.long	0
 7717              	
 7718 06e4 00000000 		.long	_ZTISt9exception
 7719 06e8 00000000 		.long	_ZTIN8UnitTest15AssertExceptionE
 7720              	.LLSDATT1406:
 7721              		.text
 7723              		.section	.text.unlikely
 7724              	.LCOLDE72:
 7725              		.text
 7726              	.LHOTE72:
 7727              		.section	.rodata.str1.8
 7728 05f2 00000000 		.align 8
 7728      0000
 7729              	.LC73:
 7730 05f8 3C3F786D 		.string	"<?xml version=\"1.0\"?><unittest-results tests=\"0\" failedtests=\"0\" failures=\"0\" tim
 7730      6C207665 
 7730      7273696F 
 7730      6E3D2231 
 7730      2E30223F 
 7731              		.section	.text.unlikely
 7732              	.LCOLDB74:
 7733              		.text
 7734              	.LHOTB74:
 7735 48e3 0F1F0066 		.p2align 4,,15
 7735      2E0F1F84 
 7735      00000000 
 7735      00
 7737              	_ZN8UnitTest11ExecuteTestIN12_GLOBAL__N_152XmlTestReporterFixtureEmptyReportSummaryFormatHelperEEEv
 7738              	.LFB1714:
 7739              		.cfi_startproc
 7740              		.cfi_personality 0x3,__gxx_personality_v0
 7741              		.cfi_lsda 0x3,.LLSDA1714
 7742 48f0 4154     		pushq	%r12
 7743              		.cfi_def_cfa_offset 16
 7744              		.cfi_offset 12, -16
 7745 48f2 55       		pushq	%rbp
 7746              		.cfi_def_cfa_offset 24
 7747              		.cfi_offset 6, -24
 7748 48f3 53       		pushq	%rbx
 7749              		.cfi_def_cfa_offset 32
 7750              		.cfi_offset 3, -32
 7751 48f4 4889F3   		movq	%rsi, %rbx
 7752 48f7 4881EC00 		subq	$1792, %rsp
 7752      070000
 7753              		.cfi_def_cfa_offset 1824
 7754 48fe 48893C24 		movq	%rdi, (%rsp)
 7755 4902 48897424 		movq	%rsi, 8(%rsp)
 7755      08
 7756 4907 64488B04 		movq	%fs:40, %rax
 7756      25280000 
 7756      00
 7757 4910 48898424 		movq	%rax, 1784(%rsp)
 7757      F8060000 
 7758 4918 31C0     		xorl	%eax, %eax
 7759              	.LEHB251:
 7760 491a E8000000 		call	_ZN8UnitTest11CurrentTest7DetailsEv
 7760      00
 7761              	.LEHE251:
 7762 491f 488DBC24 		leaq	656(%rsp), %rdi
 7762      90020000 
 7763 4927 488918   		movq	%rbx, (%rax)
 7764              	.LEHB252:
 7765 492a E8000000 		call	_ZN8UnitTest16SignalTranslatorC1Ev
 7765      00
 7766              	.LEHE252:
 7767 492f 488B3D00 		movq	_ZN8UnitTest16SignalTranslator12s_jumpTargetE(%rip), %rdi
 7767      000000
 7768 4936 BE010000 		movl	$1, %esi
 7768      00
 7769 493b E8000000 		call	__sigsetjmp
 7769      00
 7770 4940 85C0     		testl	%eax, %eax
 7771 4942 0F85A800 		jne	.L1193
 7771      0000
 7772 4948 488B1C24 		movq	(%rsp), %rbx
 7773 494c F30F1005 		movss	.LC47(%rip), %xmm0
 7773      00000000 
 7774 4954 31C9     		xorl	%ecx, %ecx
 7775 4956 31D2     		xorl	%edx, %edx
 7776 4958 31F6     		xorl	%esi, %esi
 7777 495a 488DBB78 		leaq	376(%rbx), %rdi
 7777      010000
 7778              	.LEHB253:
 7779 4961 E8000000 		call	_ZN8UnitTest15XmlTestReporter13ReportSummaryEiiif
 7779      00
 7780              	.LEHE253:
 7781 4966 48C74424 		movq	$.LC73, 24(%rsp)
 7781      18000000 
 7781      00
 7782              	.LEHB254:
 7783 496f E8000000 		call	_ZN8UnitTest11CurrentTest7DetailsEv
 7783      00
 7784 4974 488B30   		movq	(%rax), %rsi
 7785 4977 488D7C24 		leaq	80(%rsp), %rdi
 7785      50
 7786 497c BA4D0000 		movl	$77, %edx
 7786      00
 7787 4981 E8000000 		call	_ZN8UnitTest11TestDetailsC1ERKS0_i
 7787      00
 7788              	.LEHE254:
 7789 4986 488B5330 		movq	48(%rbx), %rdx
 7790 498a 488D8424 		leaq	160(%rsp), %rax
 7790      A0000000 
 7791 4992 48C78424 		movq	$0, 152(%rsp)
 7791      98000000 
 7791      00000000 
 7792 499e C68424A0 		movb	$0, 160(%rsp)
 7792      00000000 
 7793 49a6 48898424 		movq	%rax, 144(%rsp)
 7793      90000000 
 7794 49ae 4889D8   		movq	%rbx, %rax
 7795 49b1 4885D2   		testq	%rdx, %rdx
 7796 49b4 0F84A603 		je	.L1110
 7796      0000
 7797 49ba 488B5B20 		movq	32(%rbx), %rbx
 7798 49be 4839DA   		cmpq	%rbx, %rdx
 7799 49c1 0F861901 		jbe	.L1111
 7799      0000
 7800 49c7 488B6828 		movq	40(%rax), %rbp
 7801 49cb 488D8424 		leaq	224(%rsp), %rax
 7801      E0000000 
 7802 49d3 48898424 		movq	%rax, 208(%rsp)
 7802      D0000000 
 7803 49db 4885ED   		testq	%rbp, %rbp
 7804 49de 7530     		jne	.L1194
 7805 49e0 BF000000 		movl	$.LC33, %edi
 7805      00
 7806              	.LEHB255:
 7807 49e5 E8000000 		call	_ZSt19__throw_logic_errorPKc
 7807      00
 7808              	.LEHE255:
 7809 49ea 660F1F44 		.p2align 4,,10
 7809      0000
 7810              		.p2align 3
 7811              	.L1193:
 7812 49f0 BF080000 		movl	$8, %edi
 7812      00
 7813 49f5 E8000000 		call	__cxa_allocate_exception
 7813      00
 7814 49fa 31D2     		xorl	%edx, %edx
 7815 49fc 48C70000 		movq	$.LC23, (%rax)
 7815      000000
 7816 4a03 BE000000 		movl	$_ZTIPKc, %esi
 7816      00
 7817 4a08 4889C7   		movq	%rax, %rdi
 7818              	.LEHB256:
 7819 4a0b E8000000 		call	__cxa_throw
 7819      00
 7820              	.LEHE256:
 7821              		.p2align 4,,10
 7822              		.p2align 3
 7823              	.L1194:
 7824 4a10 4829EA   		subq	%rbp, %rdx
 7825 4a13 4883FA0F 		cmpq	$15, %rdx
 7826 4a17 4889D3   		movq	%rdx, %rbx
 7827 4a1a 48895424 		movq	%rdx, 32(%rsp)
 7827      20
 7828 4a1f 0F87AB01 		ja	.L1195
 7828      0000
 7829 4a25 4883FB01 		cmpq	$1, %rbx
 7830 4a29 0F840103 		je	.L1196
 7830      0000
 7831 4a2f 4885DB   		testq	%rbx, %rbx
 7832 4a32 4889C2   		movq	%rax, %rdx
 7833 4a35 0F853F03 		jne	.L1197
 7833      0000
 7834              	.L1116:
 7835 4a3b 488DB424 		leaq	208(%rsp), %rsi
 7835      D0000000 
 7836 4a43 488DBC24 		leaq	144(%rsp), %rdi
 7836      90000000 
 7837 4a4b 48899C24 		movq	%rbx, 216(%rsp)
 7837      D8000000 
 7838 4a53 C6041A00 		movb	$0, (%rdx,%rbx)
 7839              	.LEHB257:
 7840 4a57 E8000000 		call	_ZNSt7__cxx1112basic_stringIcSt11char_traitsIcESaIcEE9_M_assignERKS4_
 7840      00
 7841              	.LEHE257:
 7842 4a5c 488BBC24 		movq	208(%rsp), %rdi
 7842      D0000000 
 7843 4a64 488D8424 		leaq	224(%rsp), %rax
 7843      E0000000 
 7844 4a6c 4839C7   		cmpq	%rax, %rdi
 7845 4a6f 7405     		je	.L1118
 7846              	.L1183:
 7847 4a71 E8000000 		call	_ZdlPv
 7847      00
 7848              	.L1118:
 7849              	.LEHB258:
 7850 4a76 E8000000 		call	_ZN8UnitTest11CurrentTest7ResultsEv
 7850      00
 7851 4a7b 488B38   		movq	(%rax), %rdi
 7852 4a7e 488D4C24 		leaq	80(%rsp), %rcx
 7852      50
 7853 4a83 488D9424 		leaq	144(%rsp), %rdx
 7853      90000000 
 7854 4a8b 488D7424 		leaq	24(%rsp), %rsi
 7854      18
 7855 4a90 E8000000 		call	_ZN8UnitTest10CheckEqualIPKcNSt7__cxx1112basic_stringIcSt11char_traitsIcESaIcEEEEEvRNS_11Test
 7855      00
 7856              	.LEHE258:
 7857 4a95 488BBC24 		movq	144(%rsp), %rdi
 7857      90000000 
 7858 4a9d 488D8424 		leaq	160(%rsp), %rax
 7858      A0000000 
 7859 4aa5 4839C7   		cmpq	%rax, %rdi
 7860 4aa8 7405     		je	.L1139
 7861 4aaa E8000000 		call	_ZdlPv
 7861      00
 7862              	.L1139:
 7863 4aaf 488DBC24 		leaq	656(%rsp), %rdi
 7863      90020000 
 7864              	.LEHB259:
 7865 4ab7 E8000000 		call	_ZN8UnitTest16SignalTranslatorD1Ev
 7865      00
 7866              	.LEHE259:
 7867              	.L1107:
 7868 4abc 488B8424 		movq	1784(%rsp), %rax
 7868      F8060000 
 7869 4ac4 64483304 		xorq	%fs:40, %rax
 7869      25280000 
 7869      00
 7870 4acd 0F85B702 		jne	.L1198
 7870      0000
 7871 4ad3 4881C400 		addq	$1792, %rsp
 7871      070000
 7872              		.cfi_remember_state
 7873              		.cfi_def_cfa_offset 32
 7874 4ada 5B       		popq	%rbx
 7875              		.cfi_def_cfa_offset 24
 7876 4adb 5D       		popq	%rbp
 7877              		.cfi_def_cfa_offset 16
 7878 4adc 415C     		popq	%r12
 7879              		.cfi_def_cfa_offset 8
 7880 4ade C3       		ret
 7881 4adf 90       		.p2align 4,,10
 7882              		.p2align 3
 7883              	.L1111:
 7884              		.cfi_restore_state
 7885 4ae0 488B0424 		movq	(%rsp), %rax
 7886 4ae4 488B6828 		movq	40(%rax), %rbp
 7887 4ae8 488D8424 		leaq	192(%rsp), %rax
 7887      C0000000 
 7888 4af0 48898424 		movq	%rax, 176(%rsp)
 7888      B0000000 
 7889 4af8 4885ED   		testq	%rbp, %rbp
 7890 4afb 7513     		jne	.L1122
 7891 4afd 4885DB   		testq	%rbx, %rbx
 7892 4b00 740E     		je	.L1122
 7893 4b02 BF000000 		movl	$.LC33, %edi
 7893      00
 7894              	.LEHB260:
 7895 4b07 E8000000 		call	_ZSt19__throw_logic_errorPKc
 7895      00
 7896              	.LEHE260:
 7897 4b0c 0F1F4000 		.p2align 4,,10
 7898              		.p2align 3
 7899              	.L1122:
 7900 4b10 4829EB   		subq	%rbp, %rbx
 7901 4b13 4883FB0F 		cmpq	$15, %rbx
 7902 4b17 48895C24 		movq	%rbx, 40(%rsp)
 7902      28
 7903 4b1c 7762     		ja	.L1199
 7904 4b1e 4883FB01 		cmpq	$1, %rbx
 7905 4b22 0F842002 		je	.L1200
 7905      0000
 7906 4b28 4885DB   		testq	%rbx, %rbx
 7907 4b2b 488D8424 		leaq	192(%rsp), %rax
 7907      C0000000 
 7908 4b33 0F854902 		jne	.L1201
 7908      0000
 7909              	.L1125:
 7910 4b39 488DB424 		leaq	176(%rsp), %rsi
 7910      B0000000 
 7911 4b41 488DBC24 		leaq	144(%rsp), %rdi
 7911      90000000 
 7912 4b49 48899C24 		movq	%rbx, 184(%rsp)
 7912      B8000000 
 7913 4b51 C6041800 		movb	$0, (%rax,%rbx)
 7914              	.LEHB261:
 7915 4b55 E8000000 		call	_ZNSt7__cxx1112basic_stringIcSt11char_traitsIcESaIcEE9_M_assignERKS4_
 7915      00
 7916              	.LEHE261:
 7917 4b5a 488BBC24 		movq	176(%rsp), %rdi
 7917      B0000000 
 7918 4b62 488D8424 		leaq	192(%rsp), %rax
 7918      C0000000 
 7919 4b6a 4839C7   		cmpq	%rax, %rdi
 7920 4b6d 0F85FEFE 		jne	.L1183
 7920      FFFF
 7921 4b73 E9FEFEFF 		jmp	.L1118
 7921      FF
 7922 4b78 0F1F8400 		.p2align 4,,10
 7922      00000000 
 7923              		.p2align 3
 7924              	.L1199:
 7925 4b80 488D7424 		leaq	40(%rsp), %rsi
 7925      28
 7926 4b85 488DBC24 		leaq	176(%rsp), %rdi
 7926      B0000000 
 7927 4b8d 31D2     		xorl	%edx, %edx
 7928              	.LEHB262:
 7929 4b8f E8000000 		call	_ZNSt7__cxx1112basic_stringIcSt11char_traitsIcESaIcEE9_M_createERmm
 7929      00
 7930 4b94 4889C7   		movq	%rax, %rdi
 7931 4b97 48898424 		movq	%rax, 176(%rsp)
 7931      B0000000 
 7932 4b9f 488B4424 		movq	40(%rsp), %rax
 7932      28
 7933 4ba4 48898424 		movq	%rax, 192(%rsp)
 7933      C0000000 
 7934              	.L1123:
 7935 4bac 4889DA   		movq	%rbx, %rdx
 7936 4baf 4889EE   		movq	%rbp, %rsi
 7937 4bb2 E8000000 		call	memcpy
 7937      00
 7938 4bb7 488B5C24 		movq	40(%rsp), %rbx
 7938      28
 7939 4bbc 488B8424 		movq	176(%rsp), %rax
 7939      B0000000 
 7940 4bc4 E970FFFF 		jmp	.L1125
 7940      FF
 7941 4bc9 0F1F8000 		.p2align 4,,10
 7941      000000
 7942              		.p2align 3
 7943              	.L1195:
 7944 4bd0 488D7424 		leaq	32(%rsp), %rsi
 7944      20
 7945 4bd5 488DBC24 		leaq	208(%rsp), %rdi
 7945      D0000000 
 7946 4bdd 31D2     		xorl	%edx, %edx
 7947 4bdf E8000000 		call	_ZNSt7__cxx1112basic_stringIcSt11char_traitsIcESaIcEE9_M_createERmm
 7947      00
 7948              	.LEHE262:
 7949 4be4 4889C7   		movq	%rax, %rdi
 7950 4be7 48898424 		movq	%rax, 208(%rsp)
 7950      D0000000 
 7951 4bef 488B4424 		movq	32(%rsp), %rax
 7951      20
 7952 4bf4 48898424 		movq	%rax, 224(%rsp)
 7952      E0000000 
 7953              	.L1114:
 7954 4bfc 4889DA   		movq	%rbx, %rdx
 7955 4bff 4889EE   		movq	%rbp, %rsi
 7956 4c02 E8000000 		call	memcpy
 7956      00
 7957 4c07 488B5C24 		movq	32(%rsp), %rbx
 7957      20
 7958 4c0c 488B9424 		movq	208(%rsp), %rdx
 7958      D0000000 
 7959 4c14 E922FEFF 		jmp	.L1116
 7959      FF
 7960              	.L1169:
 7961 4c19 4889C3   		movq	%rax, %rbx
 7962 4c1c 4889D5   		movq	%rdx, %rbp
 7963              	.L1146:
 7964 4c1f 488DBC24 		leaq	656(%rsp), %rdi
 7964      90020000 
 7965 4c27 E8000000 		call	_ZN8UnitTest16SignalTranslatorD1Ev
 7965      00
 7966 4c2c 4889DF   		movq	%rbx, %rdi
 7967 4c2f 4889EA   		movq	%rbp, %rdx
 7968              	.L1147:
 7969 4c32 4883FA01 		cmpq	$1, %rdx
 7970 4c36 0F840002 		je	.L1149
 7970      0000
 7971 4c3c 4883FA02 		cmpq	$2, %rdx
 7972 4c40 0F85D001 		jne	.L1202
 7972      0000
 7973 4c46 E8000000 		call	__cxa_begin_catch
 7973      00
 7974 4c4b 488DBC24 		leaq	240(%rsp), %rdi
 7974      F0000000 
 7975 4c53 4889C3   		movq	%rax, %rbx
 7976              	.LEHB263:
 7977 4c56 E8000000 		call	_ZN8UnitTest15MemoryOutStreamC1Ev
 7977      00
 7978              	.LEHE263:
 7979 4c5b 488B03   		movq	(%rbx), %rax
 7980 4c5e 4889DF   		movq	%rbx, %rdi
 7981 4c61 FF5010   		call	*16(%rax)
 7982 4c64 488DBC24 		leaq	240(%rsp), %rdi
 7982      F0000000 
 7983 4c6c BA150000 		movl	$21, %edx
 7983      00
 7984 4c71 BE000000 		movl	$.LC31, %esi
 7984      00
 7985 4c76 4889C3   		movq	%rax, %rbx
 7986              	.LEHB264:
 7987 4c79 E8000000 		call	_ZSt16__ostream_insertIcSt11char_traitsIcEERSt13basic_ostreamIT_T0_ES6_PKS3_l
 7987      00
 7988 4c7e 488DBC24 		leaq	240(%rsp), %rdi
 7988      F0000000 
 7989 4c86 4889DE   		movq	%rbx, %rsi
 7990 4c89 E8000000 		call	_ZStlsISt11char_traitsIcEERSt13basic_ostreamIcT_ES5_PKc
 7990      00
 7991 4c8e 488DBC24 		leaq	240(%rsp), %rdi
 7991      F0000000 
 7992 4c96 E8000000 		call	_ZNK8UnitTest15MemoryOutStream7GetTextEv
 7992      00
 7993 4c9b 4889C3   		movq	%rax, %rbx
 7994 4c9e E8000000 		call	_ZN8UnitTest11CurrentTest7ResultsEv
 7994      00
 7995 4ca3 488B7424 		movq	8(%rsp), %rsi
 7995      08
 7996 4ca8 488B38   		movq	(%rax), %rdi
 7997 4cab 4889DA   		movq	%rbx, %rdx
 7998 4cae E8000000 		call	_ZN8UnitTest11TestResults13OnTestFailureERKNS_11TestDetailsEPKc
 7998      00
 7999              	.LEHE264:
 8000 4cb3 488DBC24 		leaq	240(%rsp), %rdi
 8000      F0000000 
 8001              	.LEHB265:
 8002 4cbb E8000000 		call	_ZN8UnitTest15MemoryOutStreamD1Ev
 8002      00
 8003              	.LEHE265:
 8004              	.L1184:
 8005 4cc0 E8000000 		call	__cxa_end_catch
 8005      00
 8006 4cc5 E9F2FDFF 		jmp	.L1107
 8006      FF
 8007              	.L1173:
 8008              	.L1188:
 8009 4cca 4889C3   		movq	%rax, %rbx
 8010              	.L1187:
 8011 4ccd 488BBC24 		movq	144(%rsp), %rdi
 8011      90000000 
 8012 4cd5 488D8424 		leaq	160(%rsp), %rax
 8012      A0000000 
 8013 4cdd 4839C7   		cmpq	%rax, %rdi
 8014 4ce0 7405     		je	.L1144
 8015 4ce2 E8000000 		call	_ZdlPv
 8015      00
 8016              	.L1144:
 8017 4ce7 4889D8   		movq	%rbx, %rax
 8018              	.L1136:
 8019 4cea 4889C7   		movq	%rax, %rdi
 8020 4ced E8000000 		call	__cxa_begin_catch
 8020      00
 8021              	.LEHB266:
 8022 4cf2 E8000000 		call	_ZN8UnitTest11CurrentTest7DetailsEv
 8022      00
 8023 4cf7 488B30   		movq	(%rax), %rsi
 8024 4cfa 488D7C24 		leaq	112(%rsp), %rdi
 8024      70
 8025 4cff BA4D0000 		movl	$77, %edx
 8025      00
 8026 4d04 E8000000 		call	_ZN8UnitTest11TestDetailsC1ERKS0_i
 8026      00
 8027 4d09 E8000000 		call	_ZN8UnitTest11CurrentTest7ResultsEv
 8027      00
 8028 4d0e 488B38   		movq	(%rax), %rdi
 8029 4d11 488D7424 		leaq	112(%rsp), %rsi
 8029      70
 8030 4d16 BA000000 		movl	$.LC50, %edx
 8030      00
 8031 4d1b E8000000 		call	_ZN8UnitTest11TestResults13OnTestFailureERKNS_11TestDetailsEPKc
 8031      00
 8032              	.LEHE266:
 8033              	.LEHB267:
 8034 4d20 E8000000 		call	__cxa_end_catch
 8034      00
 8035              	.LEHE267:
 8036 4d25 E985FDFF 		jmp	.L1139
 8036      FF
 8037 4d2a 660F1F44 		.p2align 4,,10
 8037      0000
 8038              		.p2align 3
 8039              	.L1196:
 8040 4d30 0FB65500 		movzbl	0(%rbp), %edx
 8041 4d34 889424E0 		movb	%dl, 224(%rsp)
 8041      000000
 8042 4d3b 4889C2   		movq	%rax, %rdx
 8043 4d3e E9F8FCFF 		jmp	.L1116
 8043      FF
 8044              		.p2align 4,,10
 8045 4d43 0F1F4400 		.p2align 3
 8045      00
 8046              	.L1200:
 8047 4d48 0FB64500 		movzbl	0(%rbp), %eax
 8048 4d4c 888424C0 		movb	%al, 192(%rsp)
 8048      000000
 8049 4d53 488D8424 		leaq	192(%rsp), %rax
 8049      C0000000 
 8050 4d5b E9D9FDFF 		jmp	.L1125
 8050      FF
 8051              		.p2align 4,,10
 8052              		.p2align 3
 8053              	.L1110:
 8054 4d60 488B3424 		movq	(%rsp), %rsi
 8055 4d64 488DBC24 		leaq	144(%rsp), %rdi
 8055      90000000 
 8056 4d6c 4883C650 		addq	$80, %rsi
 8057              	.LEHB268:
 8058 4d70 E8000000 		call	_ZNSt7__cxx1112basic_stringIcSt11char_traitsIcESaIcEE9_M_assignERKS4_
 8058      00
 8059              	.LEHE268:
 8060 4d75 E9FCFCFF 		jmp	.L1118
 8060      FF
 8061              	.L1197:
 8062 4d7a 4889C7   		movq	%rax, %rdi
 8063 4d7d E97AFEFF 		jmp	.L1114
 8063      FF
 8064              	.L1201:
 8065 4d82 4889C7   		movq	%rax, %rdi
 8066 4d85 E922FEFF 		jmp	.L1123
 8066      FF
 8067              	.L1198:
 8068 4d8a E8000000 		call	__stack_chk_fail
 8068      00
 8069              	.L1171:
 8070 4d8f E936FFFF 		jmp	.L1188
 8070      FF
 8071              	.L1175:
 8072 4d94 488BBC24 		movq	208(%rsp), %rdi
 8072      D0000000 
 8073 4d9c 4889C3   		movq	%rax, %rbx
 8074 4d9f 488D8424 		leaq	224(%rsp), %rax
 8074      E0000000 
 8075 4da7 4839C7   		cmpq	%rax, %rdi
 8076 4daa 0F841DFF 		je	.L1187
 8076      FFFF
 8077              	.L1182:
 8078 4db0 E8000000 		call	_ZdlPv
 8078      00
 8079 4db5 E913FFFF 		jmp	.L1187
 8079      FF
 8080              	.L1174:
 8081 4dba 488BBC24 		movq	176(%rsp), %rdi
 8081      B0000000 
 8082 4dc2 4889C3   		movq	%rax, %rbx
 8083 4dc5 488D8424 		leaq	192(%rsp), %rax
 8083      C0000000 
 8084 4dcd 4839C7   		cmpq	%rax, %rdi
 8085 4dd0 75DE     		jne	.L1182
 8086 4dd2 E9F6FEFF 		jmp	.L1187
 8086      FF
 8087              	.L1172:
 8088 4dd7 4889C3   		movq	%rax, %rbx
 8089 4dda 4889D5   		movq	%rdx, %rbp
 8090 4ddd E8000000 		call	__cxa_end_catch
 8090      00
 8091 4de2 E938FEFF 		jmp	.L1146
 8091      FF
 8092              	.L1170:
 8093 4de7 E9FEFEFF 		jmp	.L1136
 8093      FF
 8094              	.L1168:
 8095 4dec 4889C7   		movq	%rax, %rdi
 8096 4def E93EFEFF 		jmp	.L1147
 8096      FF
 8097              	.L1166:
 8098 4df4 488DBC24 		leaq	240(%rsp), %rdi
 8098      F0000000 
 8099 4dfc 4889C3   		movq	%rax, %rbx
 8100 4dff E8000000 		call	_ZN8UnitTest15MemoryOutStreamD1Ev
 8100      00
 8101              	.L1155:
 8102 4e04 E8000000 		call	__cxa_end_catch
 8102      00
 8103 4e09 4889DF   		movq	%rbx, %rdi
 8104              	.LEHB269:
 8105 4e0c E8000000 		call	_Unwind_Resume
 8105      00
 8106              	.LEHE269:
 8107              	.L1165:
 8108              	.L1185:
 8109 4e11 4889C3   		movq	%rax, %rbx
 8110 4e14 EBEE     		jmp	.L1155
 8111              	.L1202:
 8112 4e16 E8000000 		call	__cxa_begin_catch
 8112      00
 8113              	.LEHB270:
 8114 4e1b E8000000 		call	_ZN8UnitTest11CurrentTest7ResultsEv
 8114      00
 8115 4e20 488B7424 		movq	8(%rsp), %rsi
 8115      08
 8116 4e25 488B38   		movq	(%rax), %rdi
 8117 4e28 BA000000 		movl	$.LC32, %edx
 8117      00
 8118 4e2d E8000000 		call	_ZN8UnitTest11TestResults13OnTestFailureERKNS_11TestDetailsEPKc
 8118      00
 8119              	.LEHE270:
 8120              	.LEHB271:
 8121 4e32 E8000000 		call	__cxa_end_catch
 8121      00
 8122              	.LEHE271:
 8123 4e37 E980FCFF 		jmp	.L1107
 8123      FF
 8124              	.L1149:
 8125 4e3c E8000000 		call	__cxa_begin_catch
 8125      00
 8126 4e41 4889C3   		movq	%rax, %rbx
 8127 4e44 488B00   		movq	(%rax), %rax
 8128 4e47 4889DF   		movq	%rbx, %rdi
 8129 4e4a FF5010   		call	*16(%rax)
 8130 4e4d 4889DF   		movq	%rbx, %rdi
 8131 4e50 4889C5   		movq	%rax, %rbp
 8132              	.LEHB272:
 8133 4e53 E8000000 		call	_ZNK8UnitTest15AssertException10LineNumberEv
 8133      00
 8134 4e58 4889DF   		movq	%rbx, %rdi
 8135 4e5b 4189C4   		movl	%eax, %r12d
 8136 4e5e E8000000 		call	_ZNK8UnitTest15AssertException8FilenameEv
 8136      00
 8137 4e63 488B5424 		movq	8(%rsp), %rdx
 8137      08
 8138 4e68 488D7C24 		leaq	48(%rsp), %rdi
 8138      30
 8139 4e6d 4589E0   		movl	%r12d, %r8d
 8140 4e70 4889C1   		movq	%rax, %rcx
 8141 4e73 488B7208 		movq	8(%rdx), %rsi
 8142 4e77 488B12   		movq	(%rdx), %rdx
 8143 4e7a E8000000 		call	_ZN8UnitTest11TestDetailsC1EPKcS2_S2_i
 8143      00
 8144 4e7f E8000000 		call	_ZN8UnitTest11CurrentTest7ResultsEv
 8144      00
 8145 4e84 488B38   		movq	(%rax), %rdi
 8146 4e87 488D7424 		leaq	48(%rsp), %rsi
 8146      30
 8147 4e8c 4889EA   		movq	%rbp, %rdx
 8148 4e8f E8000000 		call	_ZN8UnitTest11TestResults13OnTestFailureERKNS_11TestDetailsEPKc
 8148      00
 8149              	.LEHE272:
 8150 4e94 E927FEFF 		jmp	.L1184
 8150      FF
 8151              	.L1164:
 8152 4e99 4889C3   		movq	%rax, %rbx
 8153 4e9c E8000000 		call	__cxa_end_catch
 8153      00
 8154 4ea1 4889DF   		movq	%rbx, %rdi
 8155              	.LEHB273:
 8156 4ea4 E8000000 		call	_Unwind_Resume
 8156      00
 8157              	.LEHE273:
 8158              	.L1167:
 8159 4ea9 E963FFFF 		jmp	.L1185
 8159      FF
 8160              		.cfi_endproc
 8161              	.LFE1714:
 8162              		.section	.gcc_except_table
 8163              		.align 4
 8164              	.LLSDA1714:
 8165 06ec FF       		.byte	0xff
 8166 06ed 03       		.byte	0x3
 8167 06ee 9C01     		.uleb128 .LLSDATT1714-.LLSDATTD1714
 8168              	.LLSDATTD1714:
 8169 06f0 01       		.byte	0x1
 8170 06f1 8201     		.uleb128 .LLSDACSE1714-.LLSDACSB1714
 8171              	.LLSDACSB1714:
 8172 06f3 2A       		.uleb128 .LEHB251-.LFB1714
 8173 06f4 05       		.uleb128 .LEHE251-.LEHB251
 8174 06f5 00       		.uleb128 0
 8175 06f6 00       		.uleb128 0
 8176 06f7 3A       		.uleb128 .LEHB252-.LFB1714
 8177 06f8 05       		.uleb128 .LEHE252-.LEHB252
 8178 06f9 FC09     		.uleb128 .L1168-.LFB1714
 8179 06fb 05       		.uleb128 0x5
 8180 06fc 71       		.uleb128 .LEHB253-.LFB1714
 8181 06fd 05       		.uleb128 .LEHE253-.LEHB253
 8182 06fe A906     		.uleb128 .L1169-.LFB1714
 8183 0700 07       		.uleb128 0x7
 8184 0701 7F       		.uleb128 .LEHB254-.LFB1714
 8185 0702 17       		.uleb128 .LEHE254-.LEHB254
 8186 0703 F709     		.uleb128 .L1170-.LFB1714
 8187 0705 01       		.uleb128 0x1
 8188 0706 F501     		.uleb128 .LEHB255-.LFB1714
 8189 0708 05       		.uleb128 .LEHE255-.LEHB255
 8190 0709 DA07     		.uleb128 .L1173-.LFB1714
 8191 070b 01       		.uleb128 0x1
 8192 070c 9B02     		.uleb128 .LEHB256-.LFB1714
 8193 070e 05       		.uleb128 .LEHE256-.LEHB256
 8194 070f A906     		.uleb128 .L1169-.LFB1714
 8195 0711 07       		.uleb128 0x7
 8196 0712 E702     		.uleb128 .LEHB257-.LFB1714
 8197 0714 05       		.uleb128 .LEHE257-.LEHB257
 8198 0715 A409     		.uleb128 .L1175-.LFB1714
 8199 0717 01       		.uleb128 0x1
 8200 0718 8603     		.uleb128 .LEHB258-.LFB1714
 8201 071a 1F       		.uleb128 .LEHE258-.LEHB258
 8202 071b 9F09     		.uleb128 .L1171-.LFB1714
 8203 071d 01       		.uleb128 0x1
 8204 071e C703     		.uleb128 .LEHB259-.LFB1714
 8205 0720 05       		.uleb128 .LEHE259-.LEHB259
 8206 0721 FC09     		.uleb128 .L1168-.LFB1714
 8207 0723 05       		.uleb128 0x5
 8208 0724 9704     		.uleb128 .LEHB260-.LFB1714
 8209 0726 05       		.uleb128 .LEHE260-.LEHB260
 8210 0727 DA07     		.uleb128 .L1173-.LFB1714
 8211 0729 01       		.uleb128 0x1
 8212 072a E504     		.uleb128 .LEHB261-.LFB1714
 8213 072c 05       		.uleb128 .LEHE261-.LEHB261
 8214 072d CA09     		.uleb128 .L1174-.LFB1714
 8215 072f 01       		.uleb128 0x1
 8216 0730 9F05     		.uleb128 .LEHB262-.LFB1714
 8217 0732 55       		.uleb128 .LEHE262-.LEHB262
 8218 0733 DA07     		.uleb128 .L1173-.LFB1714
 8219 0735 01       		.uleb128 0x1
 8220 0736 E606     		.uleb128 .LEHB263-.LFB1714
 8221 0738 05       		.uleb128 .LEHE263-.LEHB263
 8222 0739 A10A     		.uleb128 .L1165-.LFB1714
 8223 073b 00       		.uleb128 0
 8224 073c 8907     		.uleb128 .LEHB264-.LFB1714
 8225 073e 3A       		.uleb128 .LEHE264-.LEHB264
 8226 073f 840A     		.uleb128 .L1166-.LFB1714
 8227 0741 00       		.uleb128 0
 8228 0742 CB07     		.uleb128 .LEHB265-.LFB1714
 8229 0744 05       		.uleb128 .LEHE265-.LEHB265
 8230 0745 A10A     		.uleb128 .L1165-.LFB1714
 8231 0747 00       		.uleb128 0
 8232 0748 8208     		.uleb128 .LEHB266-.LFB1714
 8233 074a 2E       		.uleb128 .LEHE266-.LEHB266
 8234 074b E709     		.uleb128 .L1172-.LFB1714
 8235 074d 07       		.uleb128 0x7
 8236 074e B008     		.uleb128 .LEHB267-.LFB1714
 8237 0750 05       		.uleb128 .LEHE267-.LEHB267
 8238 0751 A906     		.uleb128 .L1169-.LFB1714
 8239 0753 07       		.uleb128 0x7
 8240 0754 8009     		.uleb128 .LEHB268-.LFB1714
 8241 0756 05       		.uleb128 .LEHE268-.LEHB268
 8242 0757 DA07     		.uleb128 .L1173-.LFB1714
 8243 0759 01       		.uleb128 0x1
 8244 075a 9C0A     		.uleb128 .LEHB269-.LFB1714
 8245 075c 05       		.uleb128 .LEHE269-.LEHB269
 8246 075d 00       		.uleb128 0
 8247 075e 00       		.uleb128 0
 8248 075f AB0A     		.uleb128 .LEHB270-.LFB1714
 8249 0761 17       		.uleb128 .LEHE270-.LEHB270
 8250 0762 A90B     		.uleb128 .L1164-.LFB1714
 8251 0764 00       		.uleb128 0
 8252 0765 C20A     		.uleb128 .LEHB271-.LFB1714
 8253 0767 05       		.uleb128 .LEHE271-.LEHB271
 8254 0768 00       		.uleb128 0
 8255 0769 00       		.uleb128 0
 8256 076a E30A     		.uleb128 .LEHB272-.LFB1714
 8257 076c 41       		.uleb128 .LEHE272-.LEHB272
 8258 076d B90B     		.uleb128 .L1167-.LFB1714
 8259 076f 00       		.uleb128 0
 8260 0770 B40B     		.uleb128 .LEHB273-.LFB1714
 8261 0772 05       		.uleb128 .LEHE273-.LEHB273
 8262 0773 00       		.uleb128 0
 8263 0774 00       		.uleb128 0
 8264              	.LLSDACSE1714:
 8265 0775 03       		.byte	0x3
 8266 0776 00       		.byte	0
 8267 0777 02       		.byte	0x2
 8268 0778 7D       		.byte	0x7d
 8269 0779 01       		.byte	0x1
 8270 077a 7D       		.byte	0x7d
 8271 077b 00       		.byte	0
 8272 077c 7D       		.byte	0x7d
 8273 077d 000000   		.align 4
 8274 0780 00000000 		.long	0
 8275              	
 8276 0784 00000000 		.long	_ZTISt9exception
 8277 0788 00000000 		.long	_ZTIN8UnitTest15AssertExceptionE
 8278              	.LLSDATT1714:
 8279              		.text
 8281              		.section	.text.unlikely
 8282              	.LCOLDE74:
 8283              		.text
 8284              	.LHOTE74:
 8285              		.section	.text.unlikely
 8286              		.align 2
 8287              	.LCOLDB75:
 8288              		.text
 8289              	.LHOTB75:
 8290              		.align 2
 8291 4eae 6690     		.p2align 4,,15
 8293              	_ZNK12_GLOBAL__N_150TestXmlTestReporterFixtureEmptyReportSummaryFormat7RunImplEv:
 8294              	.LFB1395:
 8295              		.cfi_startproc
 8296              		.cfi_personality 0x3,__gxx_personality_v0
 8297              		.cfi_lsda 0x3,.LLSDA1395
 8298 4eb0 4157     		pushq	%r15
 8299              		.cfi_def_cfa_offset 16
 8300              		.cfi_offset 15, -16
 8301 4eb2 4156     		pushq	%r14
 8302              		.cfi_def_cfa_offset 24
 8303              		.cfi_offset 14, -24
 8304 4eb4 4989FF   		movq	%rdi, %r15
 8305 4eb7 4155     		pushq	%r13
 8306              		.cfi_def_cfa_offset 32
 8307              		.cfi_offset 13, -32
 8308 4eb9 4154     		pushq	%r12
 8309              		.cfi_def_cfa_offset 40
 8310              		.cfi_offset 12, -40
 8311 4ebb 4C8D7708 		leaq	8(%rdi), %r14
 8312 4ebf 55       		pushq	%rbp
 8313              		.cfi_def_cfa_offset 48
 8314              		.cfi_offset 6, -48
 8315 4ec0 53       		pushq	%rbx
 8316              		.cfi_def_cfa_offset 56
 8317              		.cfi_offset 3, -56
 8318 4ec1 4881ECD8 		subq	$472, %rsp
 8318      010000
 8319              		.cfi_def_cfa_offset 528
 8320 4ec8 488DBC24 		leaq	144(%rsp), %rdi
 8320      90000000 
 8321 4ed0 64488B04 		movq	%fs:40, %rax
 8321      25280000 
 8321      00
 8322 4ed9 48898424 		movq	%rax, 456(%rsp)
 8322      C8010000 
 8323 4ee1 31C0     		xorl	%eax, %eax
 8324 4ee3 E8000000 		call	_ZNSt8ios_baseC2Ev
 8324      00
 8325 4ee8 488B0500 		movq	_ZTTNSt7__cxx1119basic_ostringstreamIcSt11char_traitsIcESaIcEEE+8(%rip), %rax
 8325      000000
 8326 4eef C6842470 		movb	$0, 368(%rsp)
 8326      01000000 
 8327 4ef7 488D7C24 		leaq	32(%rsp), %rdi
 8327      20
 8328 4efc 48C78424 		movq	$_ZTVSt9basic_iosIcSt11char_traitsIcEE+16, 144(%rsp)
 8328      90000000 
 8328      00000000 
 8329 4f08 48C78424 		movq	$0, 360(%rsp)
 8329      68010000 
 8329      00000000 
 8330 4f14 31F6     		xorl	%esi, %esi
 8331 4f16 C6842471 		movb	$0, 369(%rsp)
 8331      01000000 
 8332 4f1e 48C78424 		movq	$0, 376(%rsp)
 8332      78010000 
 8332      00000000 
 8333 4f2a 480378E8 		addq	-24(%rax), %rdi
 8334 4f2e 48894424 		movq	%rax, 32(%rsp)
 8334      20
 8335 4f33 488B0500 		movq	_ZTTNSt7__cxx1119basic_ostringstreamIcSt11char_traitsIcESaIcEEE+16(%rip), %rax
 8335      000000
 8336 4f3a 48C78424 		movq	$0, 384(%rsp)
 8336      80010000 
 8336      00000000 
 8337 4f46 48C78424 		movq	$0, 392(%rsp)
 8337      88010000 
 8337      00000000 
 8338 4f52 48C78424 		movq	$0, 400(%rsp)
 8338      90010000 
 8338      00000000 
 8339 4f5e 488907   		movq	%rax, (%rdi)
 8340              	.LEHB274:
 8341 4f61 E8000000 		call	_ZNSt9basic_iosIcSt11char_traitsIcEE4initEPSt15basic_streambufIcS1_E
 8341      00
 8342              	.LEHE274:
 8343 4f66 488D7C24 		leaq	96(%rsp), %rdi
 8343      60
 8344 4f6b 48C74424 		movq	$_ZTVNSt7__cxx1119basic_ostringstreamIcSt11char_traitsIcESaIcEEE+24, 32(%rsp)
 8344      20000000 
 8344      00
 8345 4f74 48C78424 		movq	$_ZTVNSt7__cxx1119basic_ostringstreamIcSt11char_traitsIcESaIcEEE+64, 144(%rsp)
 8345      90000000 
 8345      00000000 
 8346 4f80 48C74424 		movq	$_ZTVSt15basic_streambufIcSt11char_traitsIcEE+16, 40(%rsp)
 8346      28000000 
 8346      00
 8347 4f89 48C74424 		movq	$0, 48(%rsp)
 8347      30000000 
 8347      00
 8348 4f92 48C74424 		movq	$0, 56(%rsp)
 8348      38000000 
 8348      00
 8349 4f9b 48C74424 		movq	$0, 64(%rsp)
 8349      40000000 
 8349      00
 8350 4fa4 48C74424 		movq	$0, 72(%rsp)
 8350      48000000 
 8350      00
 8351 4fad 48C74424 		movq	$0, 80(%rsp)
 8351      50000000 
 8351      00
 8352 4fb6 48C74424 		movq	$0, 88(%rsp)
 8352      58000000 
 8352      00
 8353 4fbf E8000000 		call	_ZNSt6localeC1Ev
 8353      00
 8354 4fc4 488D8424 		leaq	128(%rsp), %rax
 8354      80000000 
 8355 4fcc 488D7424 		leaq	40(%rsp), %rsi
 8355      28
 8356 4fd1 48C74424 		movq	$_ZTVNSt7__cxx1115basic_stringbufIcSt11char_traitsIcESaIcEEE+16, 40(%rsp)
 8356      28000000 
 8356      00
 8357 4fda C7442468 		movl	$16, 104(%rsp)
 8357      10000000 
 8358 4fe2 48C74424 		movq	$0, 120(%rsp)
 8358      78000000 
 8358      00
 8359 4feb 48894424 		movq	%rax, 112(%rsp)
 8359      70
 8360 4ff0 488D4424 		leaq	32(%rsp), %rax
 8360      20
 8361 4ff5 C6842480 		movb	$0, 128(%rsp)
 8361      00000000 
 8362 4ffd 488D7870 		leaq	112(%rax), %rdi
 8363              	.LEHB275:
 8364 5001 E8000000 		call	_ZNSt9basic_iosIcSt11char_traitsIcEE4initEPSt15basic_streambufIcS1_E
 8364      00
 8365              	.LEHE275:
 8366 5006 488D4424 		leaq	32(%rsp), %rax
 8366      20
 8367 500b 488DBC24 		leaq	408(%rsp), %rdi
 8367      98010000 
 8368 5013 4889C6   		movq	%rax, %rsi
 8369              	.LEHB276:
 8370 5016 E8000000 		call	_ZN8UnitTest15XmlTestReporterC1ERSo
 8370      00
 8371              	.LEHE276:
 8372 501b 488D7C24 		leaq	32(%rsp), %rdi
 8372      20
 8373 5020 4C89F6   		movq	%r14, %rsi
 8374 5023 4C89B424 		movq	%r14, 448(%rsp)
 8374      C0010000 
 8375              	.LEHB277:
 8376 502b E8C0F8FF 		call	_ZN8UnitTest11ExecuteTestIN12_GLOBAL__N_152XmlTestReporterFixtureEmptyReportSummaryFormatHelp
 8376      FF
 8377              	.LEHE277:
 8378 5030 4C8BA424 		movq	424(%rsp), %r12
 8378      A8010000 
 8379 5038 488BAC24 		movq	416(%rsp), %rbp
 8379      A0010000 
 8380 5040 48C78424 		movq	$_ZTVN8UnitTest20DeferredTestReporterE+16, 408(%rsp)
 8380      98010000 
 8380      00000000 
 8381 504c 4939EC   		cmpq	%rbp, %r12
 8382 504f 0F848600 		je	.L1210
 8382      0000
 8383              		.p2align 4,,10
 8384 5055 0F1F00   		.p2align 3
 8385              	.L1218:
 8386 5058 488B5D68 		movq	104(%rbp), %rbx
 8387 505c 4C8B6D60 		movq	96(%rbp), %r13
 8388 5060 4C39EB   		cmpq	%r13, %rbx
 8389 5063 7422     		je	.L1211
 8390              		.p2align 4,,10
 8391 5065 0F1F00   		.p2align 3
 8392              	.L1213:
 8393 5068 498B7D08 		movq	8(%r13), %rdi
 8394 506c 498D5518 		leaq	24(%r13), %rdx
 8395 5070 4839D7   		cmpq	%rdx, %rdi
 8396 5073 7405     		je	.L1212
 8397 5075 E8000000 		call	_ZdlPv
 8397      00
 8398              	.L1212:
 8399 507a 4983C528 		addq	$40, %r13
 8400 507e 4C39EB   		cmpq	%r13, %rbx
 8401 5081 75E5     		jne	.L1213
 8402 5083 488B5D60 		movq	96(%rbp), %rbx
 8403              	.L1211:
 8404 5087 4885DB   		testq	%rbx, %rbx
 8405 508a 7408     		je	.L1214
 8406 508c 4889DF   		movq	%rbx, %rdi
 8407 508f E8000000 		call	_ZdlPv
 8407      00
 8408              	.L1214:
 8409 5094 488B7D40 		movq	64(%rbp), %rdi
 8410 5098 488D4550 		leaq	80(%rbp), %rax
 8411 509c 4839C7   		cmpq	%rax, %rdi
 8412 509f 7405     		je	.L1215
 8413 50a1 E8000000 		call	_ZdlPv
 8413      00
 8414              	.L1215:
 8415 50a6 488B7D20 		movq	32(%rbp), %rdi
 8416 50aa 488D4530 		leaq	48(%rbp), %rax
 8417 50ae 4839C7   		cmpq	%rax, %rdi
 8418 50b1 7405     		je	.L1216
 8419 50b3 E8000000 		call	_ZdlPv
 8419      00
 8420              	.L1216:
 8421 50b8 488B7D00 		movq	0(%rbp), %rdi
 8422 50bc 488D4510 		leaq	16(%rbp), %rax
 8423 50c0 4839C7   		cmpq	%rax, %rdi
 8424 50c3 7405     		je	.L1217
 8425 50c5 E8000000 		call	_ZdlPv
 8425      00
 8426              	.L1217:
 8427 50ca 4883ED80 		subq	$-128, %rbp
 8428 50ce 4939EC   		cmpq	%rbp, %r12
 8429 50d1 7585     		jne	.L1218
 8430 50d3 4C8BA424 		movq	416(%rsp), %r12
 8430      A0010000 
 8431              	.L1210:
 8432 50db 4D85E4   		testq	%r12, %r12
 8433 50de 7408     		je	.L1219
 8434 50e0 4C89E7   		movq	%r12, %rdi
 8435 50e3 E8000000 		call	_ZdlPv
 8435      00
 8436              	.L1219:
 8437 50e8 488DBC24 		leaq	408(%rsp), %rdi
 8437      98010000 
 8438              	.LEHB278:
 8439 50f0 E8000000 		call	_ZN8UnitTest12TestReporterD2Ev
 8439      00
 8440              	.LEHE278:
 8441 50f5 488B7C24 		movq	112(%rsp), %rdi
 8441      70
 8442 50fa 488D8424 		leaq	128(%rsp), %rax
 8442      80000000 
 8443 5102 48C74424 		movq	$_ZTVNSt7__cxx1119basic_ostringstreamIcSt11char_traitsIcESaIcEEE+24, 32(%rsp)
 8443      20000000 
 8443      00
 8444 510b 48C78424 		movq	$_ZTVNSt7__cxx1119basic_ostringstreamIcSt11char_traitsIcESaIcEEE+64, 144(%rsp)
 8444      90000000 
 8444      00000000 
 8445 5117 48C74424 		movq	$_ZTVNSt7__cxx1115basic_stringbufIcSt11char_traitsIcESaIcEEE+16, 40(%rsp)
 8445      28000000 
 8445      00
 8446 5120 4839C7   		cmpq	%rax, %rdi
 8447 5123 7405     		je	.L1220
 8448 5125 E8000000 		call	_ZdlPv
 8448      00
 8449              	.L1220:
 8450 512a 488D7C24 		leaq	96(%rsp), %rdi
 8450      60
 8451 512f 48C74424 		movq	$_ZTVSt15basic_streambufIcSt11char_traitsIcEE+16, 40(%rsp)
 8451      28000000 
 8451      00
 8452 5138 E8000000 		call	_ZNSt6localeD1Ev
 8452      00
 8453 513d 488B0500 		movq	_ZTTNSt7__cxx1119basic_ostringstreamIcSt11char_traitsIcESaIcEEE+8(%rip), %rax
 8453      000000
 8454 5144 488B0D00 		movq	_ZTTNSt7__cxx1119basic_ostringstreamIcSt11char_traitsIcESaIcEEE+16(%rip), %rcx
 8454      000000
 8455 514b 488DBC24 		leaq	144(%rsp), %rdi
 8455      90000000 
 8456 5153 488B40E8 		movq	-24(%rax), %rax
 8457 5157 48894C04 		movq	%rcx, 32(%rsp,%rax)
 8457      20
 8458 515c 48C78424 		movq	$_ZTVSt9basic_iosIcSt11char_traitsIcEE+16, 144(%rsp)
 8458      90000000 
 8458      00000000 
 8459              	.LEHB279:
 8460 5168 E8000000 		call	_ZNSt8ios_baseD2Ev
 8460      00
 8461              	.LEHE279:
 8462              	.L1203:
 8463 516d 488B8424 		movq	456(%rsp), %rax
 8463      C8010000 
 8464 5175 64483304 		xorq	%fs:40, %rax
 8464      25280000 
 8464      00
 8465 517e 0F85C000 		jne	.L1263
 8465      0000
 8466 5184 4881C4D8 		addq	$472, %rsp
 8466      010000
 8467              		.cfi_remember_state
 8468              		.cfi_def_cfa_offset 56
 8469 518b 5B       		popq	%rbx
 8470              		.cfi_def_cfa_offset 48
 8471 518c 5D       		popq	%rbp
 8472              		.cfi_def_cfa_offset 40
 8473 518d 415C     		popq	%r12
 8474              		.cfi_def_cfa_offset 32
 8475 518f 415D     		popq	%r13
 8476              		.cfi_def_cfa_offset 24
 8477 5191 415E     		popq	%r14
 8478              		.cfi_def_cfa_offset 16
 8479 5193 415F     		popq	%r15
 8480              		.cfi_def_cfa_offset 8
 8481 5195 C3       		ret
 8482              	.L1243:
 8483              		.cfi_restore_state
 8484 5196 4889C3   		movq	%rax, %rbx
 8485 5199 4889D5   		movq	%rdx, %rbp
 8486              	.L1206:
 8487 519c 488DBC24 		leaq	144(%rsp), %rdi
 8487      90000000 
 8488 51a4 48C78424 		movq	$_ZTVSt9basic_iosIcSt11char_traitsIcEE+16, 144(%rsp)
 8488      90000000 
 8488      00000000 
 8489 51b0 E8000000 		call	_ZNSt8ios_baseD2Ev
 8489      00
 8490 51b5 4889DF   		movq	%rbx, %rdi
 8491 51b8 4889EA   		movq	%rbp, %rdx
 8492 51bb 31DB     		xorl	%ebx, %ebx
 8493              	.L1207:
 8494 51bd 4883FA01 		cmpq	$1, %rdx
 8495 51c1 0F84EA00 		je	.L1227
 8495      0000
 8496 51c7 4883FA02 		cmpq	$2, %rdx
 8497 51cb 0F85A400 		jne	.L1264
 8497      0000
 8498 51d1 E8000000 		call	__cxa_begin_catch
 8498      00
 8499 51d6 488D7C24 		leaq	32(%rsp), %rdi
 8499      20
 8500 51db 4889C3   		movq	%rax, %rbx
 8501              	.LEHB280:
 8502 51de E8000000 		call	_ZN8UnitTest15MemoryOutStreamC1Ev
 8502      00
 8503              	.LEHE280:
 8504 51e3 488B03   		movq	(%rbx), %rax
 8505 51e6 4889DF   		movq	%rbx, %rdi
 8506 51e9 FF5010   		call	*16(%rax)
 8507 51ec 488D7C24 		leaq	32(%rsp), %rdi
 8507      20
 8508 51f1 BA150000 		movl	$21, %edx
 8508      00
 8509 51f6 BE000000 		movl	$.LC31, %esi
 8509      00
 8510 51fb 4889C3   		movq	%rax, %rbx
 8511              	.LEHB281:
 8512 51fe E8000000 		call	_ZSt16__ostream_insertIcSt11char_traitsIcEERSt13basic_ostreamIT_T0_ES6_PKS3_l
 8512      00
 8513 5203 488D7C24 		leaq	32(%rsp), %rdi
 8513      20
 8514 5208 4889DE   		movq	%rbx, %rsi
 8515 520b E8000000 		call	_ZStlsISt11char_traitsIcEERSt13basic_ostreamIcT_ES5_PKc
 8515      00
 8516 5210 488D7C24 		leaq	32(%rsp), %rdi
 8516      20
 8517 5215 E8000000 		call	_ZNK8UnitTest15MemoryOutStream7GetTextEv
 8517      00
 8518 521a 4889C3   		movq	%rax, %rbx
 8519 521d E8000000 		call	_ZN8UnitTest11CurrentTest7ResultsEv
 8519      00
 8520 5222 488B38   		movq	(%rax), %rdi
 8521 5225 4889DA   		movq	%rbx, %rdx
 8522 5228 4C89F6   		movq	%r14, %rsi
 8523 522b E8000000 		call	_ZN8UnitTest11TestResults13OnTestFailureERKNS_11TestDetailsEPKc
 8523      00
 8524              	.LEHE281:
 8525 5230 488D7C24 		leaq	32(%rsp), %rdi
 8525      20
 8526              	.LEHB282:
 8527 5235 E8000000 		call	_ZN8UnitTest15MemoryOutStreamD1Ev
 8527      00
 8528              	.LEHE282:
 8529              	.L1258:
 8530 523a E8000000 		call	__cxa_end_catch
 8530      00
 8531 523f E929FFFF 		jmp	.L1203
 8531      FF
 8532              	.L1263:
 8533 5244 E8000000 		call	__stack_chk_fail
 8533      00
 8534              	.L1236:
 8535 5249 4889C7   		movq	%rax, %rdi
 8536 524c BB010000 		movl	$1, %ebx
 8536      00
 8537 5251 E967FFFF 		jmp	.L1207
 8537      FF
 8538              	.L1240:
 8539 5256 488D7C24 		leaq	32(%rsp), %rdi
 8539      20
 8540 525b 4889C3   		movq	%rax, %rbx
 8541 525e E8000000 		call	_ZN8UnitTest15MemoryOutStreamD1Ev
 8541      00
 8542              	.L1233:
 8543 5263 E8000000 		call	__cxa_end_catch
 8543      00
 8544 5268 4889DF   		movq	%rbx, %rdi
 8545              	.LEHB283:
 8546 526b E8000000 		call	_Unwind_Resume
 8546      00
 8547              	.LEHE283:
 8548              	.L1239:
 8549              	.L1259:
 8550 5270 4889C3   		movq	%rax, %rbx
 8551 5273 EBEE     		jmp	.L1233
 8552              	.L1264:
 8553 5275 E8000000 		call	__cxa_begin_catch
 8553      00
 8554 527a 84DB     		testb	%bl, %bl
 8555 527c BA440000 		movl	$68, %edx
 8555      00
 8556 5281 4C89F6   		movq	%r14, %rsi
 8557 5284 4889E7   		movq	%rsp, %rdi
 8558 5287 0F848900 		je	.L1229
 8558      0000
 8559              	.LEHB284:
 8560 528d E8000000 		call	_ZN8UnitTest11TestDetailsC1ERKS0_i
 8560      00
 8561 5292 E8000000 		call	_ZN8UnitTest11CurrentTest7ResultsEv
 8561      00
 8562 5297 488B38   		movq	(%rax), %rdi
 8563 529a BA000000 		movl	$.LC35, %edx
 8563      00
 8564 529f 4889E6   		movq	%rsp, %rsi
 8565 52a2 E8000000 		call	_ZN8UnitTest11TestResults13OnTestFailureERKNS_11TestDetailsEPKc
 8565      00
 8566              	.LEHE284:
 8567              	.L1230:
 8568              	.LEHB285:
 8569 52a7 E8000000 		call	__cxa_end_catch
 8569      00
 8570              	.LEHE285:
 8571 52ac E9BCFEFF 		jmp	.L1203
 8571      FF
 8572              	.L1227:
 8573 52b1 E8000000 		call	__cxa_begin_catch
 8573      00
 8574 52b6 4889C3   		movq	%rax, %rbx
 8575 52b9 488B00   		movq	(%rax), %rax
 8576 52bc 4889DF   		movq	%rbx, %rdi
 8577 52bf FF5010   		call	*16(%rax)
 8578 52c2 4889DF   		movq	%rbx, %rdi
 8579 52c5 4889C5   		movq	%rax, %rbp
 8580              	.LEHB286:
 8581 52c8 E8000000 		call	_ZNK8UnitTest15AssertException10LineNumberEv
 8581      00
 8582 52cd 4889DF   		movq	%rbx, %rdi
 8583 52d0 4189C4   		movl	%eax, %r12d
 8584 52d3 E8000000 		call	_ZNK8UnitTest15AssertException8FilenameEv
 8584      00
 8585 52d8 498B5708 		movq	8(%r15), %rdx
 8586 52dc 498B7710 		movq	16(%r15), %rsi
 8587 52e0 4589E0   		movl	%r12d, %r8d
 8588 52e3 4889C1   		movq	%rax, %rcx
 8589 52e6 4889E7   		movq	%rsp, %rdi
 8590 52e9 E8000000 		call	_ZN8UnitTest11TestDetailsC1EPKcS2_S2_i
 8590      00
 8591 52ee E8000000 		call	_ZN8UnitTest11CurrentTest7ResultsEv
 8591      00
 8592 52f3 488B38   		movq	(%rax), %rdi
 8593 52f6 4889EA   		movq	%rbp, %rdx
 8594 52f9 4889E6   		movq	%rsp, %rsi
 8595 52fc E8000000 		call	_ZN8UnitTest11TestResults13OnTestFailureERKNS_11TestDetailsEPKc
 8595      00
 8596              	.LEHE286:
 8597 5301 E934FFFF 		jmp	.L1258
 8597      FF
 8598              	.L1241:
 8599 5306 4889C3   		movq	%rax, %rbx
 8600 5309 E8000000 		call	__cxa_end_catch
 8600      00
 8601 530e 4889DF   		movq	%rbx, %rdi
 8602              	.LEHB287:
 8603 5311 E8000000 		call	_Unwind_Resume
 8603      00
 8604              	.LEHE287:
 8605              	.L1229:
 8606              	.LEHB288:
 8607 5316 E8000000 		call	_ZN8UnitTest11TestDetailsC1ERKS0_i
 8607      00
 8608 531b E8000000 		call	_ZN8UnitTest11CurrentTest7ResultsEv
 8608      00
 8609 5320 488B38   		movq	(%rax), %rdi
 8610 5323 BA000000 		movl	$.LC36, %edx
 8610      00
 8611 5328 4889E6   		movq	%rsp, %rsi
 8612 532b E8000000 		call	_ZN8UnitTest11TestResults13OnTestFailureERKNS_11TestDetailsEPKc
 8612      00
 8613              	.LEHE288:
 8614 5330 E972FFFF 		jmp	.L1230
 8614      FF
 8615              	.L1238:
 8616 5335 E936FFFF 		jmp	.L1259
 8616      FF
 8617              	.L1245:
 8618 533a 488D7C24 		leaq	32(%rsp), %rdi
 8618      20
 8619 533f 4889C3   		movq	%rax, %rbx
 8620 5342 4889D5   		movq	%rdx, %rbp
 8621 5345 E8000000 		call	_ZNSt7__cxx1119basic_ostringstreamIcSt11char_traitsIcESaIcEED1Ev
 8621      00
 8622 534a 4889DF   		movq	%rbx, %rdi
 8623 534d 4889EA   		movq	%rbp, %rdx
 8624 5350 BB010000 		movl	$1, %ebx
 8624      00
 8625 5355 E963FEFF 		jmp	.L1207
 8625      FF
 8626              	.L1237:
 8627 535a 488D7C24 		leaq	32(%rsp), %rdi
 8627      20
 8628 535f 4889C3   		movq	%rax, %rbx
 8629 5362 4889D5   		movq	%rdx, %rbp
 8630 5365 E8000000 		call	_ZN12_GLOBAL__N_122XmlTestReporterFixtureD2Ev.constprop.46
 8630      00
 8631 536a 4889DF   		movq	%rbx, %rdi
 8632 536d 4889EA   		movq	%rbp, %rdx
 8633 5370 BB010000 		movl	$1, %ebx
 8633      00
 8634 5375 E943FEFF 		jmp	.L1207
 8634      FF
 8635              	.L1242:
 8636 537a 488D7C24 		leaq	32(%rsp), %rdi
 8636      20
 8637 537f 4889C3   		movq	%rax, %rbx
 8638 5382 4889D5   		movq	%rdx, %rbp
 8639 5385 E8000000 		call	_ZNSt7__cxx1119basic_ostringstreamIcSt11char_traitsIcESaIcEED1Ev
 8639      00
 8640 538a 4889DF   		movq	%rbx, %rdi
 8641 538d 4889EA   		movq	%rbp, %rdx
 8642 5390 31DB     		xorl	%ebx, %ebx
 8643 5392 E926FEFF 		jmp	.L1207
 8643      FF
 8644              	.L1244:
 8645 5397 488D7C24 		leaq	40(%rsp), %rdi
 8645      28
 8646 539c 4889C3   		movq	%rax, %rbx
 8647 539f 4889D5   		movq	%rdx, %rbp
 8648 53a2 E8000000 		call	_ZNSt7__cxx1115basic_stringbufIcSt11char_traitsIcESaIcEED1Ev
 8648      00
 8649 53a7 488B0500 		movq	_ZTTNSt7__cxx1119basic_ostringstreamIcSt11char_traitsIcESaIcEEE+8(%rip), %rax
 8649      000000
 8650 53ae 488B0D00 		movq	_ZTTNSt7__cxx1119basic_ostringstreamIcSt11char_traitsIcESaIcEEE+16(%rip), %rcx
 8650      000000
 8651 53b5 488B40E8 		movq	-24(%rax), %rax
 8652 53b9 48894C04 		movq	%rcx, 32(%rsp,%rax)
 8652      20
 8653 53be E9D9FDFF 		jmp	.L1206
 8653      FF
 8654              		.cfi_endproc
 8655              	.LFE1395:
 8656              		.section	.gcc_except_table
 8657              		.align 4
 8658              	.LLSDA1395:
 8659 078c FF       		.byte	0xff
 8660 078d 03       		.byte	0x3
 8661 078e 6D       		.uleb128 .LLSDATT1395-.LLSDATTD1395
 8662              	.LLSDATTD1395:
 8663 078f 01       		.byte	0x1
 8664 0790 57       		.uleb128 .LLSDACSE1395-.LLSDACSB1395
 8665              	.LLSDACSB1395:
 8666 0791 B101     		.uleb128 .LEHB274-.LFB1395
 8667 0793 05       		.uleb128 .LEHE274-.LEHB274
 8668 0794 E605     		.uleb128 .L1243-.LFB1395
 8669 0796 07       		.uleb128 0x7
 8670 0797 D102     		.uleb128 .LEHB275-.LFB1395
 8671 0799 05       		.uleb128 .LEHE275-.LEHB275
 8672 079a E709     		.uleb128 .L1244-.LFB1395
 8673 079c 07       		.uleb128 0x7
 8674 079d E602     		.uleb128 .LEHB276-.LFB1395
 8675 079f 05       		.uleb128 .LEHE276-.LEHB276
 8676 07a0 CA09     		.uleb128 .L1242-.LFB1395
 8677 07a2 07       		.uleb128 0x7
 8678 07a3 FB02     		.uleb128 .LEHB277-.LFB1395
 8679 07a5 05       		.uleb128 .LEHE277-.LEHB277
 8680 07a6 AA09     		.uleb128 .L1237-.LFB1395
 8681 07a8 07       		.uleb128 0x7
 8682 07a9 C004     		.uleb128 .LEHB278-.LFB1395
 8683 07ab 05       		.uleb128 .LEHE278-.LEHB278
 8684 07ac 8A09     		.uleb128 .L1245-.LFB1395
 8685 07ae 07       		.uleb128 0x7
 8686 07af B805     		.uleb128 .LEHB279-.LFB1395
 8687 07b1 05       		.uleb128 .LEHE279-.LEHB279
 8688 07b2 9907     		.uleb128 .L1236-.LFB1395
 8689 07b4 05       		.uleb128 0x5
 8690 07b5 AE06     		.uleb128 .LEHB280-.LFB1395
 8691 07b7 05       		.uleb128 .LEHE280-.LEHB280
 8692 07b8 C007     		.uleb128 .L1239-.LFB1395
 8693 07ba 00       		.uleb128 0
 8694 07bb CE06     		.uleb128 .LEHB281-.LFB1395
 8695 07bd 32       		.uleb128 .LEHE281-.LEHB281
 8696 07be A607     		.uleb128 .L1240-.LFB1395
 8697 07c0 00       		.uleb128 0
 8698 07c1 8507     		.uleb128 .LEHB282-.LFB1395
 8699 07c3 05       		.uleb128 .LEHE282-.LEHB282
 8700 07c4 C007     		.uleb128 .L1239-.LFB1395
 8701 07c6 00       		.uleb128 0
 8702 07c7 BB07     		.uleb128 .LEHB283-.LFB1395
 8703 07c9 05       		.uleb128 .LEHE283-.LEHB283
 8704 07ca 00       		.uleb128 0
 8705 07cb 00       		.uleb128 0
 8706 07cc DD07     		.uleb128 .LEHB284-.LFB1395
 8707 07ce 1A       		.uleb128 .LEHE284-.LEHB284
 8708 07cf D608     		.uleb128 .L1241-.LFB1395
 8709 07d1 00       		.uleb128 0
 8710 07d2 F707     		.uleb128 .LEHB285-.LFB1395
 8711 07d4 05       		.uleb128 .LEHE285-.LEHB285
 8712 07d5 00       		.uleb128 0
 8713 07d6 00       		.uleb128 0
 8714 07d7 9808     		.uleb128 .LEHB286-.LFB1395
 8715 07d9 39       		.uleb128 .LEHE286-.LEHB286
 8716 07da 8509     		.uleb128 .L1238-.LFB1395
 8717 07dc 00       		.uleb128 0
 8718 07dd E108     		.uleb128 .LEHB287-.LFB1395
 8719 07df 05       		.uleb128 .LEHE287-.LEHB287
 8720 07e0 00       		.uleb128 0
 8721 07e1 00       		.uleb128 0
 8722 07e2 E608     		.uleb128 .LEHB288-.LFB1395
 8723 07e4 1A       		.uleb128 .LEHE288-.LEHB288
 8724 07e5 D608     		.uleb128 .L1241-.LFB1395
 8725 07e7 00       		.uleb128 0
 8726              	.LLSDACSE1395:
 8727 07e8 03       		.byte	0x3
 8728 07e9 00       		.byte	0
 8729 07ea 02       		.byte	0x2
 8730 07eb 7D       		.byte	0x7d
 8731 07ec 01       		.byte	0x1
 8732 07ed 7D       		.byte	0x7d
 8733 07ee 00       		.byte	0
 8734 07ef 7D       		.byte	0x7d
 8735              		.align 4
 8736 07f0 00000000 		.long	0
 8737              	
 8738 07f4 00000000 		.long	_ZTISt9exception
 8739 07f8 00000000 		.long	_ZTIN8UnitTest15AssertExceptionE
 8740              	.LLSDATT1395:
 8741              		.text
 8743              		.section	.text.unlikely
 8744              	.LCOLDE75:
 8745              		.text
 8746              	.LHOTE75:
 8747              		.section	.rodata.str1.1
 8748              	.LC76:
 8749 0128 22222727 		.string	"\"\"''&&<<>>"
 8749      26263C3C 
 8749      3E3E00
 8750              		.section	.rodata.str1.8
 8751 0665 000000   		.align 8
 8752              	.LC77:
 8753 0668 3C3F786D 		.string	"<?xml version=\"1.0\"?><unittest-results tests=\"1\" failedtests=\"2\" failures=\"3\" tim
 8753      6C207665 
 8753      7273696F 
 8753      6E3D2231 
 8753      2E30223F 
 8754              		.section	.text.unlikely
 8755              	.LCOLDB78:
 8756              		.text
 8757              	.LHOTB78:
 8758 53c3 0F1F0066 		.p2align 4,,15
 8758      2E0F1F84 
 8758      00000000 
 8758      00
 8760              	_ZN8UnitTest11ExecuteTestIN12_GLOBAL__N_156XmlTestReporterFixtureMultipleCharactersAreEscapedHelper
 8761              	.LFB1710:
 8762              		.cfi_startproc
 8763              		.cfi_personality 0x3,__gxx_personality_v0
 8764              		.cfi_lsda 0x3,.LLSDA1710
 8765 53d0 4154     		pushq	%r12
 8766              		.cfi_def_cfa_offset 16
 8767              		.cfi_offset 12, -16
 8768 53d2 55       		pushq	%rbp
 8769              		.cfi_def_cfa_offset 24
 8770              		.cfi_offset 6, -24
 8771 53d3 53       		pushq	%rbx
 8772              		.cfi_def_cfa_offset 32
 8773              		.cfi_offset 3, -32
 8774 53d4 4889F3   		movq	%rsi, %rbx
 8775 53d7 4881EC20 		subq	$1824, %rsp
 8775      070000
 8776              		.cfi_def_cfa_offset 1856
 8777 53de 48893C24 		movq	%rdi, (%rsp)
 8778 53e2 48897424 		movq	%rsi, 8(%rsp)
 8778      08
 8779 53e7 64488B04 		movq	%fs:40, %rax
 8779      25280000 
 8779      00
 8780 53f0 48898424 		movq	%rax, 1816(%rsp)
 8780      18070000 
 8781 53f8 31C0     		xorl	%eax, %eax
 8782              	.LEHB289:
 8783 53fa E8000000 		call	_ZN8UnitTest11CurrentTest7DetailsEv
 8783      00
 8784              	.LEHE289:
 8785 53ff 488DBC24 		leaq	688(%rsp), %rdi
 8785      B0020000 
 8786 5407 488918   		movq	%rbx, (%rax)
 8787              	.LEHB290:
 8788 540a E8000000 		call	_ZN8UnitTest16SignalTranslatorC1Ev
 8788      00
 8789              	.LEHE290:
 8790 540f 488B3D00 		movq	_ZN8UnitTest16SignalTranslator12s_jumpTargetE(%rip), %rdi
 8790      000000
 8791 5416 BE010000 		movl	$1, %esi
 8791      00
 8792 541b E8000000 		call	__sigsetjmp
 8792      00
 8793 5420 85C0     		testl	%eax, %eax
 8794 5422 0F850801 		jne	.L1351
 8794      0000
 8795 5428 488D7C24 		leaq	80(%rsp), %rdi
 8795      50
 8796 542d 41B8E110 		movl	$4321, %r8d
 8796      0000
 8797 5433 B9000000 		movl	$.LC57, %ecx
 8797      00
 8798 5438 BA000000 		movl	$.LC43, %edx
 8798      00
 8799 543d BE000000 		movl	$.LC58, %esi
 8799      00
 8800              	.LEHB291:
 8801 5442 E8000000 		call	_ZN8UnitTest11TestDetailsC1EPKcS2_S2_i
 8801      00
 8802 5447 488B2C24 		movq	(%rsp), %rbp
 8803 544b 488D7424 		leaq	80(%rsp), %rsi
 8803      50
 8804 5450 488D9D78 		leaq	376(%rbp), %rbx
 8804      010000
 8805 5457 4889DF   		movq	%rbx, %rdi
 8806 545a E8000000 		call	_ZN8UnitTest20DeferredTestReporter15ReportTestStartERKNS_11TestDetailsE
 8806      00
 8807 545f 488D7424 		leaq	80(%rsp), %rsi
 8807      50
 8808 5464 BA000000 		movl	$.LC76, %edx
 8808      00
 8809 5469 4889DF   		movq	%rbx, %rdi
 8810 546c E8000000 		call	_ZN8UnitTest20DeferredTestReporter13ReportFailureERKNS_11TestDetailsEPKc
 8810      00
 8811 5471 488D7424 		leaq	80(%rsp), %rsi
 8811      50
 8812 5476 F30F1005 		movss	.LC47(%rip), %xmm0
 8812      00000000 
 8813 547e 4889DF   		movq	%rbx, %rdi
 8814 5481 E8000000 		call	_ZN8UnitTest20DeferredTestReporter16ReportTestFinishERKNS_11TestDetailsEf
 8814      00
 8815 5486 F30F1005 		movss	.LC47(%rip), %xmm0
 8815      00000000 
 8816 548e B9030000 		movl	$3, %ecx
 8816      00
 8817 5493 BA020000 		movl	$2, %edx
 8817      00
 8818 5498 BE010000 		movl	$1, %esi
 8818      00
 8819 549d 4889DF   		movq	%rbx, %rdi
 8820 54a0 E8000000 		call	_ZN8UnitTest15XmlTestReporter13ReportSummaryEiiif
 8820      00
 8821              	.LEHE291:
 8822 54a5 48C74424 		movq	$.LC77, 24(%rsp)
 8822      18000000 
 8822      00
 8823              	.LEHB292:
 8824 54ae E8000000 		call	_ZN8UnitTest11CurrentTest7DetailsEv
 8824      00
 8825 54b3 488B30   		movq	(%rax), %rsi
 8826 54b6 488D7C24 		leaq	112(%rsp), %rdi
 8826      70
 8827 54bb BA340000 		movl	$52, %edx
 8827      00
 8828 54c0 E8000000 		call	_ZN8UnitTest11TestDetailsC1ERKS0_i
 8828      00
 8829              	.LEHE292:
 8830 54c5 488B5530 		movq	48(%rbp), %rdx
 8831 54c9 488D8424 		leaq	192(%rsp), %rax
 8831      C0000000 
 8832 54d1 48C78424 		movq	$0, 184(%rsp)
 8832      B8000000 
 8832      00000000 
 8833 54dd C68424C0 		movb	$0, 192(%rsp)
 8833      00000000 
 8834 54e5 48898424 		movq	%rax, 176(%rsp)
 8834      B0000000 
 8835 54ed 4885D2   		testq	%rdx, %rdx
 8836 54f0 0F84AA03 		je	.L1268
 8836      0000
 8837 54f6 488B5D20 		movq	32(%rbp), %rbx
 8838 54fa 4839DA   		cmpq	%rbx, %rdx
 8839 54fd 0F861D01 		jbe	.L1269
 8839      0000
 8840 5503 488B6D28 		movq	40(%rbp), %rbp
 8841 5507 488D8424 		leaq	256(%rsp), %rax
 8841      00010000 
 8842 550f 48898424 		movq	%rax, 240(%rsp)
 8842      F0000000 
 8843 5517 4885ED   		testq	%rbp, %rbp
 8844 551a 7534     		jne	.L1352
 8845 551c BF000000 		movl	$.LC33, %edi
 8845      00
 8846              	.LEHB293:
 8847 5521 E8000000 		call	_ZSt19__throw_logic_errorPKc
 8847      00
 8848              	.LEHE293:
 8849 5526 662E0F1F 		.p2align 4,,10
 8849      84000000 
 8849      0000
 8850              		.p2align 3
 8851              	.L1351:
 8852 5530 BF080000 		movl	$8, %edi
 8852      00
 8853 5535 E8000000 		call	__cxa_allocate_exception
 8853      00
 8854 553a 31D2     		xorl	%edx, %edx
 8855 553c 48C70000 		movq	$.LC23, (%rax)
 8855      000000
 8856 5543 BE000000 		movl	$_ZTIPKc, %esi
 8856      00
 8857 5548 4889C7   		movq	%rax, %rdi
 8858              	.LEHB294:
 8859 554b E8000000 		call	__cxa_throw
 8859      00
 8860              	.LEHE294:
 8861              		.p2align 4,,10
 8862              		.p2align 3
 8863              	.L1352:
 8864 5550 4829EA   		subq	%rbp, %rdx
 8865 5553 4883FA0F 		cmpq	$15, %rdx
 8866 5557 4889D3   		movq	%rdx, %rbx
 8867 555a 48895424 		movq	%rdx, 32(%rsp)
 8867      20
 8868 555f 0F87AB01 		ja	.L1353
 8868      0000
 8869 5565 4883FB01 		cmpq	$1, %rbx
 8870 5569 0F840103 		je	.L1354
 8870      0000
 8871 556f 4885DB   		testq	%rbx, %rbx
 8872 5572 4889C2   		movq	%rax, %rdx
 8873 5575 0F853F03 		jne	.L1355
 8873      0000
 8874              	.L1274:
 8875 557b 488DB424 		leaq	240(%rsp), %rsi
 8875      F0000000 
 8876 5583 488DBC24 		leaq	176(%rsp), %rdi
 8876      B0000000 
 8877 558b 48899C24 		movq	%rbx, 248(%rsp)
 8877      F8000000 
 8878 5593 C6041A00 		movb	$0, (%rdx,%rbx)
 8879              	.LEHB295:
 8880 5597 E8000000 		call	_ZNSt7__cxx1112basic_stringIcSt11char_traitsIcESaIcEE9_M_assignERKS4_
 8880      00
 8881              	.LEHE295:
 8882 559c 488BBC24 		movq	240(%rsp), %rdi
 8882      F0000000 
 8883 55a4 488D8424 		leaq	256(%rsp), %rax
 8883      00010000 
 8884 55ac 4839C7   		cmpq	%rax, %rdi
 8885 55af 7405     		je	.L1276
 8886              	.L1341:
 8887 55b1 E8000000 		call	_ZdlPv
 8887      00
 8888              	.L1276:
 8889              	.LEHB296:
 8890 55b6 E8000000 		call	_ZN8UnitTest11CurrentTest7ResultsEv
 8890      00
 8891 55bb 488B38   		movq	(%rax), %rdi
 8892 55be 488D4C24 		leaq	112(%rsp), %rcx
 8892      70
 8893 55c3 488D9424 		leaq	176(%rsp), %rdx
 8893      B0000000 
 8894 55cb 488D7424 		leaq	24(%rsp), %rsi
 8894      18
 8895 55d0 E8000000 		call	_ZN8UnitTest10CheckEqualIPKcNSt7__cxx1112basic_stringIcSt11char_traitsIcESaIcEEEEEvRNS_11Test
 8895      00
 8896              	.LEHE296:
 8897 55d5 488BBC24 		movq	176(%rsp), %rdi
 8897      B0000000 
 8898 55dd 488D8424 		leaq	192(%rsp), %rax
 8898      C0000000 
 8899 55e5 4839C7   		cmpq	%rax, %rdi
 8900 55e8 7405     		je	.L1297
 8901 55ea E8000000 		call	_ZdlPv
 8901      00
 8902              	.L1297:
 8903 55ef 488DBC24 		leaq	688(%rsp), %rdi
 8903      B0020000 
 8904              	.LEHB297:
 8905 55f7 E8000000 		call	_ZN8UnitTest16SignalTranslatorD1Ev
 8905      00
 8906              	.LEHE297:
 8907              	.L1265:
 8908 55fc 488B8424 		movq	1816(%rsp), %rax
 8908      18070000 
 8909 5604 64483304 		xorq	%fs:40, %rax
 8909      25280000 
 8909      00
 8910 560d 0F85B702 		jne	.L1356
 8910      0000
 8911 5613 4881C420 		addq	$1824, %rsp
 8911      070000
 8912              		.cfi_remember_state
 8913              		.cfi_def_cfa_offset 32
 8914 561a 5B       		popq	%rbx
 8915              		.cfi_def_cfa_offset 24
 8916 561b 5D       		popq	%rbp
 8917              		.cfi_def_cfa_offset 16
 8918 561c 415C     		popq	%r12
 8919              		.cfi_def_cfa_offset 8
 8920 561e C3       		ret
 8921 561f 90       		.p2align 4,,10
 8922              		.p2align 3
 8923              	.L1269:
 8924              		.cfi_restore_state
 8925 5620 488B0424 		movq	(%rsp), %rax
 8926 5624 488B6828 		movq	40(%rax), %rbp
 8927 5628 488D8424 		leaq	224(%rsp), %rax
 8927      E0000000 
 8928 5630 48898424 		movq	%rax, 208(%rsp)
 8928      D0000000 
 8929 5638 4885ED   		testq	%rbp, %rbp
 8930 563b 7513     		jne	.L1280
 8931 563d 4885DB   		testq	%rbx, %rbx
 8932 5640 740E     		je	.L1280
 8933 5642 BF000000 		movl	$.LC33, %edi
 8933      00
 8934              	.LEHB298:
 8935 5647 E8000000 		call	_ZSt19__throw_logic_errorPKc
 8935      00
 8936              	.LEHE298:
 8937 564c 0F1F4000 		.p2align 4,,10
 8938              		.p2align 3
 8939              	.L1280:
 8940 5650 4829EB   		subq	%rbp, %rbx
 8941 5653 4883FB0F 		cmpq	$15, %rbx
 8942 5657 48895C24 		movq	%rbx, 40(%rsp)
 8942      28
 8943 565c 7762     		ja	.L1357
 8944 565e 4883FB01 		cmpq	$1, %rbx
 8945 5662 0F842002 		je	.L1358
 8945      0000
 8946 5668 4885DB   		testq	%rbx, %rbx
 8947 566b 488D8424 		leaq	224(%rsp), %rax
 8947      E0000000 
 8948 5673 0F854902 		jne	.L1359
 8948      0000
 8949              	.L1283:
 8950 5679 488DB424 		leaq	208(%rsp), %rsi
 8950      D0000000 
 8951 5681 488DBC24 		leaq	176(%rsp), %rdi
 8951      B0000000 
 8952 5689 48899C24 		movq	%rbx, 216(%rsp)
 8952      D8000000 
 8953 5691 C6041800 		movb	$0, (%rax,%rbx)
 8954              	.LEHB299:
 8955 5695 E8000000 		call	_ZNSt7__cxx1112basic_stringIcSt11char_traitsIcESaIcEE9_M_assignERKS4_
 8955      00
 8956              	.LEHE299:
 8957 569a 488BBC24 		movq	208(%rsp), %rdi
 8957      D0000000 
 8958 56a2 488D8424 		leaq	224(%rsp), %rax
 8958      E0000000 
 8959 56aa 4839C7   		cmpq	%rax, %rdi
 8960 56ad 0F85FEFE 		jne	.L1341
 8960      FFFF
 8961 56b3 E9FEFEFF 		jmp	.L1276
 8961      FF
 8962 56b8 0F1F8400 		.p2align 4,,10
 8962      00000000 
 8963              		.p2align 3
 8964              	.L1357:
 8965 56c0 488D7424 		leaq	40(%rsp), %rsi
 8965      28
 8966 56c5 488DBC24 		leaq	208(%rsp), %rdi
 8966      D0000000 
 8967 56cd 31D2     		xorl	%edx, %edx
 8968              	.LEHB300:
 8969 56cf E8000000 		call	_ZNSt7__cxx1112basic_stringIcSt11char_traitsIcESaIcEE9_M_createERmm
 8969      00
 8970 56d4 4889C7   		movq	%rax, %rdi
 8971 56d7 48898424 		movq	%rax, 208(%rsp)
 8971      D0000000 
 8972 56df 488B4424 		movq	40(%rsp), %rax
 8972      28
 8973 56e4 48898424 		movq	%rax, 224(%rsp)
 8973      E0000000 
 8974              	.L1281:
 8975 56ec 4889DA   		movq	%rbx, %rdx
 8976 56ef 4889EE   		movq	%rbp, %rsi
 8977 56f2 E8000000 		call	memcpy
 8977      00
 8978 56f7 488B5C24 		movq	40(%rsp), %rbx
 8978      28
 8979 56fc 488B8424 		movq	208(%rsp), %rax
 8979      D0000000 
 8980 5704 E970FFFF 		jmp	.L1283
 8980      FF
 8981 5709 0F1F8000 		.p2align 4,,10
 8981      000000
 8982              		.p2align 3
 8983              	.L1353:
 8984 5710 488D7424 		leaq	32(%rsp), %rsi
 8984      20
 8985 5715 488DBC24 		leaq	240(%rsp), %rdi
 8985      F0000000 
 8986 571d 31D2     		xorl	%edx, %edx
 8987 571f E8000000 		call	_ZNSt7__cxx1112basic_stringIcSt11char_traitsIcESaIcEE9_M_createERmm
 8987      00
 8988              	.LEHE300:
 8989 5724 4889C7   		movq	%rax, %rdi
 8990 5727 48898424 		movq	%rax, 240(%rsp)
 8990      F0000000 
 8991 572f 488B4424 		movq	32(%rsp), %rax
 8991      20
 8992 5734 48898424 		movq	%rax, 256(%rsp)
 8992      00010000 
 8993              	.L1272:
 8994 573c 4889DA   		movq	%rbx, %rdx
 8995 573f 4889EE   		movq	%rbp, %rsi
 8996 5742 E8000000 		call	memcpy
 8996      00
 8997 5747 488B5C24 		movq	32(%rsp), %rbx
 8997      20
 8998 574c 488B9424 		movq	240(%rsp), %rdx
 8998      F0000000 
 8999 5754 E922FEFF 		jmp	.L1274
 8999      FF
 9000              	.L1327:
 9001 5759 4889C3   		movq	%rax, %rbx
 9002 575c 4889D5   		movq	%rdx, %rbp
 9003              	.L1304:
 9004 575f 488DBC24 		leaq	688(%rsp), %rdi
 9004      B0020000 
 9005 5767 E8000000 		call	_ZN8UnitTest16SignalTranslatorD1Ev
 9005      00
 9006 576c 4889DF   		movq	%rbx, %rdi
 9007 576f 4889EA   		movq	%rbp, %rdx
 9008              	.L1305:
 9009 5772 4883FA01 		cmpq	$1, %rdx
 9010 5776 0F840002 		je	.L1307
 9010      0000
 9011 577c 4883FA02 		cmpq	$2, %rdx
 9012 5780 0F85D001 		jne	.L1360
 9012      0000
 9013 5786 E8000000 		call	__cxa_begin_catch
 9013      00
 9014 578b 488DBC24 		leaq	272(%rsp), %rdi
 9014      10010000 
 9015 5793 4889C3   		movq	%rax, %rbx
 9016              	.LEHB301:
 9017 5796 E8000000 		call	_ZN8UnitTest15MemoryOutStreamC1Ev
 9017      00
 9018              	.LEHE301:
 9019 579b 488B03   		movq	(%rbx), %rax
 9020 579e 4889DF   		movq	%rbx, %rdi
 9021 57a1 FF5010   		call	*16(%rax)
 9022 57a4 488DBC24 		leaq	272(%rsp), %rdi
 9022      10010000 
 9023 57ac BA150000 		movl	$21, %edx
 9023      00
 9024 57b1 BE000000 		movl	$.LC31, %esi
 9024      00
 9025 57b6 4889C3   		movq	%rax, %rbx
 9026              	.LEHB302:
 9027 57b9 E8000000 		call	_ZSt16__ostream_insertIcSt11char_traitsIcEERSt13basic_ostreamIT_T0_ES6_PKS3_l
 9027      00
 9028 57be 488DBC24 		leaq	272(%rsp), %rdi
 9028      10010000 
 9029 57c6 4889DE   		movq	%rbx, %rsi
 9030 57c9 E8000000 		call	_ZStlsISt11char_traitsIcEERSt13basic_ostreamIcT_ES5_PKc
 9030      00
 9031 57ce 488DBC24 		leaq	272(%rsp), %rdi
 9031      10010000 
 9032 57d6 E8000000 		call	_ZNK8UnitTest15MemoryOutStream7GetTextEv
 9032      00
 9033 57db 4889C3   		movq	%rax, %rbx
 9034 57de E8000000 		call	_ZN8UnitTest11CurrentTest7ResultsEv
 9034      00
 9035 57e3 488B7424 		movq	8(%rsp), %rsi
 9035      08
 9036 57e8 488B38   		movq	(%rax), %rdi
 9037 57eb 4889DA   		movq	%rbx, %rdx
 9038 57ee E8000000 		call	_ZN8UnitTest11TestResults13OnTestFailureERKNS_11TestDetailsEPKc
 9038      00
 9039              	.LEHE302:
 9040 57f3 488DBC24 		leaq	272(%rsp), %rdi
 9040      10010000 
 9041              	.LEHB303:
 9042 57fb E8000000 		call	_ZN8UnitTest15MemoryOutStreamD1Ev
 9042      00
 9043              	.LEHE303:
 9044              	.L1342:
 9045 5800 E8000000 		call	__cxa_end_catch
 9045      00
 9046 5805 E9F2FDFF 		jmp	.L1265
 9046      FF
 9047              	.L1331:
 9048              	.L1346:
 9049 580a 4889C3   		movq	%rax, %rbx
 9050              	.L1345:
 9051 580d 488BBC24 		movq	176(%rsp), %rdi
 9051      B0000000 
 9052 5815 488D8424 		leaq	192(%rsp), %rax
 9052      C0000000 
 9053 581d 4839C7   		cmpq	%rax, %rdi
 9054 5820 7405     		je	.L1302
 9055 5822 E8000000 		call	_ZdlPv
 9055      00
 9056              	.L1302:
 9057 5827 4889D8   		movq	%rbx, %rax
 9058              	.L1294:
 9059 582a 4889C7   		movq	%rax, %rdi
 9060 582d E8000000 		call	__cxa_begin_catch
 9060      00
 9061              	.LEHB304:
 9062 5832 E8000000 		call	_ZN8UnitTest11CurrentTest7DetailsEv
 9062      00
 9063 5837 488B30   		movq	(%rax), %rsi
 9064 583a 488DBC24 		leaq	144(%rsp), %rdi
 9064      90000000 
 9065 5842 BA340000 		movl	$52, %edx
 9065      00
 9066 5847 E8000000 		call	_ZN8UnitTest11TestDetailsC1ERKS0_i
 9066      00
 9067 584c E8000000 		call	_ZN8UnitTest11CurrentTest7ResultsEv
 9067      00
 9068 5851 488B38   		movq	(%rax), %rdi
 9069 5854 488DB424 		leaq	144(%rsp), %rsi
 9069      90000000 
 9070 585c BA000000 		movl	$.LC50, %edx
 9070      00
 9071 5861 E8000000 		call	_ZN8UnitTest11TestResults13OnTestFailureERKNS_11TestDetailsEPKc
 9071      00
 9072              	.LEHE304:
 9073              	.LEHB305:
 9074 5866 E8000000 		call	__cxa_end_catch
 9074      00
 9075              	.LEHE305:
 9076 586b E97FFDFF 		jmp	.L1297
 9076      FF
 9077              		.p2align 4,,10
 9078              		.p2align 3
 9079              	.L1354:
 9080 5870 0FB65500 		movzbl	0(%rbp), %edx
 9081 5874 88942400 		movb	%dl, 256(%rsp)
 9081      010000
 9082 587b 4889C2   		movq	%rax, %rdx
 9083 587e E9F8FCFF 		jmp	.L1274
 9083      FF
 9084              		.p2align 4,,10
 9085 5883 0F1F4400 		.p2align 3
 9085      00
 9086              	.L1358:
 9087 5888 0FB64500 		movzbl	0(%rbp), %eax
 9088 588c 888424E0 		movb	%al, 224(%rsp)
 9088      000000
 9089 5893 488D8424 		leaq	224(%rsp), %rax
 9089      E0000000 
 9090 589b E9D9FDFF 		jmp	.L1283
 9090      FF
 9091              		.p2align 4,,10
 9092              		.p2align 3
 9093              	.L1268:
 9094 58a0 488B3424 		movq	(%rsp), %rsi
 9095 58a4 488DBC24 		leaq	176(%rsp), %rdi
 9095      B0000000 
 9096 58ac 4883C650 		addq	$80, %rsi
 9097              	.LEHB306:
 9098 58b0 E8000000 		call	_ZNSt7__cxx1112basic_stringIcSt11char_traitsIcESaIcEE9_M_assignERKS4_
 9098      00
 9099              	.LEHE306:
 9100 58b5 E9FCFCFF 		jmp	.L1276
 9100      FF
 9101              	.L1355:
 9102 58ba 4889C7   		movq	%rax, %rdi
 9103 58bd E97AFEFF 		jmp	.L1272
 9103      FF
 9104              	.L1359:
 9105 58c2 4889C7   		movq	%rax, %rdi
 9106 58c5 E922FEFF 		jmp	.L1281
 9106      FF
 9107              	.L1356:
 9108 58ca E8000000 		call	__stack_chk_fail
 9108      00
 9109              	.L1329:
 9110 58cf E936FFFF 		jmp	.L1346
 9110      FF
 9111              	.L1333:
 9112 58d4 488BBC24 		movq	240(%rsp), %rdi
 9112      F0000000 
 9113 58dc 4889C3   		movq	%rax, %rbx
 9114 58df 488D8424 		leaq	256(%rsp), %rax
 9114      00010000 
 9115 58e7 4839C7   		cmpq	%rax, %rdi
 9116 58ea 0F841DFF 		je	.L1345
 9116      FFFF
 9117              	.L1340:
 9118 58f0 E8000000 		call	_ZdlPv
 9118      00
 9119 58f5 E913FFFF 		jmp	.L1345
 9119      FF
 9120              	.L1332:
 9121 58fa 488BBC24 		movq	208(%rsp), %rdi
 9121      D0000000 
 9122 5902 4889C3   		movq	%rax, %rbx
 9123 5905 488D8424 		leaq	224(%rsp), %rax
 9123      E0000000 
 9124 590d 4839C7   		cmpq	%rax, %rdi
 9125 5910 75DE     		jne	.L1340
 9126 5912 E9F6FEFF 		jmp	.L1345
 9126      FF
 9127              	.L1330:
 9128 5917 4889C3   		movq	%rax, %rbx
 9129 591a 4889D5   		movq	%rdx, %rbp
 9130 591d E8000000 		call	__cxa_end_catch
 9130      00
 9131 5922 E938FEFF 		jmp	.L1304
 9131      FF
 9132              	.L1328:
 9133 5927 E9FEFEFF 		jmp	.L1294
 9133      FF
 9134              	.L1326:
 9135 592c 4889C7   		movq	%rax, %rdi
 9136 592f E93EFEFF 		jmp	.L1305
 9136      FF
 9137              	.L1324:
 9138 5934 488DBC24 		leaq	272(%rsp), %rdi
 9138      10010000 
 9139 593c 4889C3   		movq	%rax, %rbx
 9140 593f E8000000 		call	_ZN8UnitTest15MemoryOutStreamD1Ev
 9140      00
 9141              	.L1313:
 9142 5944 E8000000 		call	__cxa_end_catch
 9142      00
 9143 5949 4889DF   		movq	%rbx, %rdi
 9144              	.LEHB307:
 9145 594c E8000000 		call	_Unwind_Resume
 9145      00
 9146              	.LEHE307:
 9147              	.L1323:
 9148              	.L1343:
 9149 5951 4889C3   		movq	%rax, %rbx
 9150 5954 EBEE     		jmp	.L1313
 9151              	.L1360:
 9152 5956 E8000000 		call	__cxa_begin_catch
 9152      00
 9153              	.LEHB308:
 9154 595b E8000000 		call	_ZN8UnitTest11CurrentTest7ResultsEv
 9154      00
 9155 5960 488B7424 		movq	8(%rsp), %rsi
 9155      08
 9156 5965 488B38   		movq	(%rax), %rdi
 9157 5968 BA000000 		movl	$.LC32, %edx
 9157      00
 9158 596d E8000000 		call	_ZN8UnitTest11TestResults13OnTestFailureERKNS_11TestDetailsEPKc
 9158      00
 9159              	.LEHE308:
 9160              	.LEHB309:
 9161 5972 E8000000 		call	__cxa_end_catch
 9161      00
 9162              	.LEHE309:
 9163 5977 E980FCFF 		jmp	.L1265
 9163      FF
 9164              	.L1307:
 9165 597c E8000000 		call	__cxa_begin_catch
 9165      00
 9166 5981 4889C3   		movq	%rax, %rbx
 9167 5984 488B00   		movq	(%rax), %rax
 9168 5987 4889DF   		movq	%rbx, %rdi
 9169 598a FF5010   		call	*16(%rax)
 9170 598d 4889DF   		movq	%rbx, %rdi
 9171 5990 4889C5   		movq	%rax, %rbp
 9172              	.LEHB310:
 9173 5993 E8000000 		call	_ZNK8UnitTest15AssertException10LineNumberEv
 9173      00
 9174 5998 4889DF   		movq	%rbx, %rdi
 9175 599b 4189C4   		movl	%eax, %r12d
 9176 599e E8000000 		call	_ZNK8UnitTest15AssertException8FilenameEv
 9176      00
 9177 59a3 488B5424 		movq	8(%rsp), %rdx
 9177      08
 9178 59a8 488D7C24 		leaq	48(%rsp), %rdi
 9178      30
 9179 59ad 4589E0   		movl	%r12d, %r8d
 9180 59b0 4889C1   		movq	%rax, %rcx
 9181 59b3 488B7208 		movq	8(%rdx), %rsi
 9182 59b7 488B12   		movq	(%rdx), %rdx
 9183 59ba E8000000 		call	_ZN8UnitTest11TestDetailsC1EPKcS2_S2_i
 9183      00
 9184 59bf E8000000 		call	_ZN8UnitTest11CurrentTest7ResultsEv
 9184      00
 9185 59c4 488B38   		movq	(%rax), %rdi
 9186 59c7 488D7424 		leaq	48(%rsp), %rsi
 9186      30
 9187 59cc 4889EA   		movq	%rbp, %rdx
 9188 59cf E8000000 		call	_ZN8UnitTest11TestResults13OnTestFailureERKNS_11TestDetailsEPKc
 9188      00
 9189              	.LEHE310:
 9190 59d4 E927FEFF 		jmp	.L1342
 9190      FF
 9191              	.L1322:
 9192 59d9 4889C3   		movq	%rax, %rbx
 9193 59dc E8000000 		call	__cxa_end_catch
 9193      00
 9194 59e1 4889DF   		movq	%rbx, %rdi
 9195              	.LEHB311:
 9196 59e4 E8000000 		call	_Unwind_Resume
 9196      00
 9197              	.LEHE311:
 9198              	.L1325:
 9199 59e9 E963FFFF 		jmp	.L1343
 9199      FF
 9200              		.cfi_endproc
 9201              	.LFE1710:
 9202              		.section	.gcc_except_table
 9203              		.align 4
 9204              	.LLSDA1710:
 9205 07fc FF       		.byte	0xff
 9206 07fd 03       		.byte	0x3
 9207 07fe 9C01     		.uleb128 .LLSDATT1710-.LLSDATTD1710
 9208              	.LLSDATTD1710:
 9209 0800 01       		.byte	0x1
 9210 0801 8301     		.uleb128 .LLSDACSE1710-.LLSDACSB1710
 9211              	.LLSDACSB1710:
 9212 0803 2A       		.uleb128 .LEHB289-.LFB1710
 9213 0804 05       		.uleb128 .LEHE289-.LEHB289
 9214 0805 00       		.uleb128 0
 9215 0806 00       		.uleb128 0
 9216 0807 3A       		.uleb128 .LEHB290-.LFB1710
 9217 0808 05       		.uleb128 .LEHE290-.LEHB290
 9218 0809 DC0A     		.uleb128 .L1326-.LFB1710
 9219 080b 05       		.uleb128 0x5
 9220 080c 72       		.uleb128 .LEHB291-.LFB1710
 9221 080d 63       		.uleb128 .LEHE291-.LEHB291
 9222 080e 8907     		.uleb128 .L1327-.LFB1710
 9223 0810 07       		.uleb128 0x7
 9224 0811 DE01     		.uleb128 .LEHB292-.LFB1710
 9225 0813 17       		.uleb128 .LEHE292-.LEHB292
 9226 0814 D70A     		.uleb128 .L1328-.LFB1710
 9227 0816 01       		.uleb128 0x1
 9228 0817 D102     		.uleb128 .LEHB293-.LFB1710
 9229 0819 05       		.uleb128 .LEHE293-.LEHB293
 9230 081a BA08     		.uleb128 .L1331-.LFB1710
 9231 081c 01       		.uleb128 0x1
 9232 081d FB02     		.uleb128 .LEHB294-.LFB1710
 9233 081f 05       		.uleb128 .LEHE294-.LEHB294
 9234 0820 8907     		.uleb128 .L1327-.LFB1710
 9235 0822 07       		.uleb128 0x7
 9236 0823 C703     		.uleb128 .LEHB295-.LFB1710
 9237 0825 05       		.uleb128 .LEHE295-.LEHB295
 9238 0826 840A     		.uleb128 .L1333-.LFB1710
 9239 0828 01       		.uleb128 0x1
 9240 0829 E603     		.uleb128 .LEHB296-.LFB1710
 9241 082b 1F       		.uleb128 .LEHE296-.LEHB296
 9242 082c FF09     		.uleb128 .L1329-.LFB1710
 9243 082e 01       		.uleb128 0x1
 9244 082f A704     		.uleb128 .LEHB297-.LFB1710
 9245 0831 05       		.uleb128 .LEHE297-.LEHB297
 9246 0832 DC0A     		.uleb128 .L1326-.LFB1710
 9247 0834 05       		.uleb128 0x5
 9248 0835 F704     		.uleb128 .LEHB298-.LFB1710
 9249 0837 05       		.uleb128 .LEHE298-.LEHB298
 9250 0838 BA08     		.uleb128 .L1331-.LFB1710
 9251 083a 01       		.uleb128 0x1
 9252 083b C505     		.uleb128 .LEHB299-.LFB1710
 9253 083d 05       		.uleb128 .LEHE299-.LEHB299
 9254 083e AA0A     		.uleb128 .L1332-.LFB1710
 9255 0840 01       		.uleb128 0x1
 9256 0841 FF05     		.uleb128 .LEHB300-.LFB1710
 9257 0843 55       		.uleb128 .LEHE300-.LEHB300
 9258 0844 BA08     		.uleb128 .L1331-.LFB1710
 9259 0846 01       		.uleb128 0x1
 9260 0847 C607     		.uleb128 .LEHB301-.LFB1710
 9261 0849 05       		.uleb128 .LEHE301-.LEHB301
 9262 084a 810B     		.uleb128 .L1323-.LFB1710
 9263 084c 00       		.uleb128 0
 9264 084d E907     		.uleb128 .LEHB302-.LFB1710
 9265 084f 3A       		.uleb128 .LEHE302-.LEHB302
 9266 0850 E40A     		.uleb128 .L1324-.LFB1710
 9267 0852 00       		.uleb128 0
 9268 0853 AB08     		.uleb128 .LEHB303-.LFB1710
 9269 0855 05       		.uleb128 .LEHE303-.LEHB303
 9270 0856 810B     		.uleb128 .L1323-.LFB1710
 9271 0858 00       		.uleb128 0
 9272 0859 E208     		.uleb128 .LEHB304-.LFB1710
 9273 085b 34       		.uleb128 .LEHE304-.LEHB304
 9274 085c C70A     		.uleb128 .L1330-.LFB1710
 9275 085e 07       		.uleb128 0x7
 9276 085f 9609     		.uleb128 .LEHB305-.LFB1710
 9277 0861 05       		.uleb128 .LEHE305-.LEHB305
 9278 0862 8907     		.uleb128 .L1327-.LFB1710
 9279 0864 07       		.uleb128 0x7
 9280 0865 E009     		.uleb128 .LEHB306-.LFB1710
 9281 0867 05       		.uleb128 .LEHE306-.LEHB306
 9282 0868 BA08     		.uleb128 .L1331-.LFB1710
 9283 086a 01       		.uleb128 0x1
 9284 086b FC0A     		.uleb128 .LEHB307-.LFB1710
 9285 086d 05       		.uleb128 .LEHE307-.LEHB307
 9286 086e 00       		.uleb128 0
 9287 086f 00       		.uleb128 0
 9288 0870 8B0B     		.uleb128 .LEHB308-.LFB1710
 9289 0872 17       		.uleb128 .LEHE308-.LEHB308
 9290 0873 890C     		.uleb128 .L1322-.LFB1710
 9291 0875 00       		.uleb128 0
 9292 0876 A20B     		.uleb128 .LEHB309-.LFB1710
 9293 0878 05       		.uleb128 .LEHE309-.LEHB309
 9294 0879 00       		.uleb128 0
 9295 087a 00       		.uleb128 0
 9296 087b C30B     		.uleb128 .LEHB310-.LFB1710
 9297 087d 41       		.uleb128 .LEHE310-.LEHB310
 9298 087e 990C     		.uleb128 .L1325-.LFB1710
 9299 0880 00       		.uleb128 0
 9300 0881 940C     		.uleb128 .LEHB311-.LFB1710
 9301 0883 05       		.uleb128 .LEHE311-.LEHB311
 9302 0884 00       		.uleb128 0
 9303 0885 00       		.uleb128 0
 9304              	.LLSDACSE1710:
 9305 0886 03       		.byte	0x3
 9306 0887 00       		.byte	0
 9307 0888 02       		.byte	0x2
 9308 0889 7D       		.byte	0x7d
 9309 088a 01       		.byte	0x1
 9310 088b 7D       		.byte	0x7d
 9311 088c 00       		.byte	0
 9312 088d 7D       		.byte	0x7d
 9313 088e 0000     		.align 4
 9314 0890 00000000 		.long	0
 9315              	
 9316 0894 00000000 		.long	_ZTISt9exception
 9317 0898 00000000 		.long	_ZTIN8UnitTest15AssertExceptionE
 9318              	.LLSDATT1710:
 9319              		.text
 9321              		.section	.text.unlikely
 9322              	.LCOLDE78:
 9323              		.text
 9324              	.LHOTE78:
 9325              		.section	.text.unlikely
 9326              		.align 2
 9327              	.LCOLDB79:
 9328              		.text
 9329              	.LHOTB79:
 9330              		.align 2
 9331 59ee 6690     		.p2align 4,,15
 9333              	_ZNK12_GLOBAL__N_154TestXmlTestReporterFixtureMultipleCharactersAreEscaped7RunImplEv:
 9334              	.LFB1373:
 9335              		.cfi_startproc
 9336              		.cfi_personality 0x3,__gxx_personality_v0
 9337              		.cfi_lsda 0x3,.LLSDA1373
 9338 59f0 4157     		pushq	%r15
 9339              		.cfi_def_cfa_offset 16
 9340              		.cfi_offset 15, -16
 9341 59f2 4156     		pushq	%r14
 9342              		.cfi_def_cfa_offset 24
 9343              		.cfi_offset 14, -24
 9344 59f4 4989FF   		movq	%rdi, %r15
 9345 59f7 4155     		pushq	%r13
 9346              		.cfi_def_cfa_offset 32
 9347              		.cfi_offset 13, -32
 9348 59f9 4154     		pushq	%r12
 9349              		.cfi_def_cfa_offset 40
 9350              		.cfi_offset 12, -40
 9351 59fb 4C8D7708 		leaq	8(%rdi), %r14
 9352 59ff 55       		pushq	%rbp
 9353              		.cfi_def_cfa_offset 48
 9354              		.cfi_offset 6, -48
 9355 5a00 53       		pushq	%rbx
 9356              		.cfi_def_cfa_offset 56
 9357              		.cfi_offset 3, -56
 9358 5a01 4881ECD8 		subq	$472, %rsp
 9358      010000
 9359              		.cfi_def_cfa_offset 528
 9360 5a08 488DBC24 		leaq	144(%rsp), %rdi
 9360      90000000 
 9361 5a10 64488B04 		movq	%fs:40, %rax
 9361      25280000 
 9361      00
 9362 5a19 48898424 		movq	%rax, 456(%rsp)
 9362      C8010000 
 9363 5a21 31C0     		xorl	%eax, %eax
 9364 5a23 E8000000 		call	_ZNSt8ios_baseC2Ev
 9364      00
 9365 5a28 488B0500 		movq	_ZTTNSt7__cxx1119basic_ostringstreamIcSt11char_traitsIcESaIcEEE+8(%rip), %rax
 9365      000000
 9366 5a2f C6842470 		movb	$0, 368(%rsp)
 9366      01000000 
 9367 5a37 488D7C24 		leaq	32(%rsp), %rdi
 9367      20
 9368 5a3c 48C78424 		movq	$_ZTVSt9basic_iosIcSt11char_traitsIcEE+16, 144(%rsp)
 9368      90000000 
 9368      00000000 
 9369 5a48 48C78424 		movq	$0, 360(%rsp)
 9369      68010000 
 9369      00000000 
 9370 5a54 31F6     		xorl	%esi, %esi
 9371 5a56 C6842471 		movb	$0, 369(%rsp)
 9371      01000000 
 9372 5a5e 48C78424 		movq	$0, 376(%rsp)
 9372      78010000 
 9372      00000000 
 9373 5a6a 480378E8 		addq	-24(%rax), %rdi
 9374 5a6e 48894424 		movq	%rax, 32(%rsp)
 9374      20
 9375 5a73 488B0500 		movq	_ZTTNSt7__cxx1119basic_ostringstreamIcSt11char_traitsIcESaIcEEE+16(%rip), %rax
 9375      000000
 9376 5a7a 48C78424 		movq	$0, 384(%rsp)
 9376      80010000 
 9376      00000000 
 9377 5a86 48C78424 		movq	$0, 392(%rsp)
 9377      88010000 
 9377      00000000 
 9378 5a92 48C78424 		movq	$0, 400(%rsp)
 9378      90010000 
 9378      00000000 
 9379 5a9e 488907   		movq	%rax, (%rdi)
 9380              	.LEHB312:
 9381 5aa1 E8000000 		call	_ZNSt9basic_iosIcSt11char_traitsIcEE4initEPSt15basic_streambufIcS1_E
 9381      00
 9382              	.LEHE312:
 9383 5aa6 488D7C24 		leaq	96(%rsp), %rdi
 9383      60
 9384 5aab 48C74424 		movq	$_ZTVNSt7__cxx1119basic_ostringstreamIcSt11char_traitsIcESaIcEEE+24, 32(%rsp)
 9384      20000000 
 9384      00
 9385 5ab4 48C78424 		movq	$_ZTVNSt7__cxx1119basic_ostringstreamIcSt11char_traitsIcESaIcEEE+64, 144(%rsp)
 9385      90000000 
 9385      00000000 
 9386 5ac0 48C74424 		movq	$_ZTVSt15basic_streambufIcSt11char_traitsIcEE+16, 40(%rsp)
 9386      28000000 
 9386      00
 9387 5ac9 48C74424 		movq	$0, 48(%rsp)
 9387      30000000 
 9387      00
 9388 5ad2 48C74424 		movq	$0, 56(%rsp)
 9388      38000000 
 9388      00
 9389 5adb 48C74424 		movq	$0, 64(%rsp)
 9389      40000000 
 9389      00
 9390 5ae4 48C74424 		movq	$0, 72(%rsp)
 9390      48000000 
 9390      00
 9391 5aed 48C74424 		movq	$0, 80(%rsp)
 9391      50000000 
 9391      00
 9392 5af6 48C74424 		movq	$0, 88(%rsp)
 9392      58000000 
 9392      00
 9393 5aff E8000000 		call	_ZNSt6localeC1Ev
 9393      00
 9394 5b04 488D8424 		leaq	128(%rsp), %rax
 9394      80000000 
 9395 5b0c 488D7424 		leaq	40(%rsp), %rsi
 9395      28
 9396 5b11 48C74424 		movq	$_ZTVNSt7__cxx1115basic_stringbufIcSt11char_traitsIcESaIcEEE+16, 40(%rsp)
 9396      28000000 
 9396      00
 9397 5b1a C7442468 		movl	$16, 104(%rsp)
 9397      10000000 
 9398 5b22 48C74424 		movq	$0, 120(%rsp)
 9398      78000000 
 9398      00
 9399 5b2b 48894424 		movq	%rax, 112(%rsp)
 9399      70
 9400 5b30 488D4424 		leaq	32(%rsp), %rax
 9400      20
 9401 5b35 C6842480 		movb	$0, 128(%rsp)
 9401      00000000 
 9402 5b3d 488D7870 		leaq	112(%rax), %rdi
 9403              	.LEHB313:
 9404 5b41 E8000000 		call	_ZNSt9basic_iosIcSt11char_traitsIcEE4initEPSt15basic_streambufIcS1_E
 9404      00
 9405              	.LEHE313:
 9406 5b46 488D4424 		leaq	32(%rsp), %rax
 9406      20
 9407 5b4b 488DBC24 		leaq	408(%rsp), %rdi
 9407      98010000 
 9408 5b53 4889C6   		movq	%rax, %rsi
 9409              	.LEHB314:
 9410 5b56 E8000000 		call	_ZN8UnitTest15XmlTestReporterC1ERSo
 9410      00
 9411              	.LEHE314:
 9412 5b5b 488D7C24 		leaq	32(%rsp), %rdi
 9412      20
 9413 5b60 4C89F6   		movq	%r14, %rsi
 9414 5b63 4C89B424 		movq	%r14, 448(%rsp)
 9414      C0010000 
 9415              	.LEHB315:
 9416 5b6b E860F8FF 		call	_ZN8UnitTest11ExecuteTestIN12_GLOBAL__N_156XmlTestReporterFixtureMultipleCharactersAreEscaped
 9416      FF
 9417              	.LEHE315:
 9418 5b70 4C8BA424 		movq	424(%rsp), %r12
 9418      A8010000 
 9419 5b78 488BAC24 		movq	416(%rsp), %rbp
 9419      A0010000 
 9420 5b80 48C78424 		movq	$_ZTVN8UnitTest20DeferredTestReporterE+16, 408(%rsp)
 9420      98010000 
 9420      00000000 
 9421 5b8c 4939EC   		cmpq	%rbp, %r12
 9422 5b8f 0F848600 		je	.L1368
 9422      0000
 9423              		.p2align 4,,10
 9424 5b95 0F1F00   		.p2align 3
 9425              	.L1376:
 9426 5b98 488B5D68 		movq	104(%rbp), %rbx
 9427 5b9c 4C8B6D60 		movq	96(%rbp), %r13
 9428 5ba0 4C39EB   		cmpq	%r13, %rbx
 9429 5ba3 7422     		je	.L1369
 9430              		.p2align 4,,10
 9431 5ba5 0F1F00   		.p2align 3
 9432              	.L1371:
 9433 5ba8 498B7D08 		movq	8(%r13), %rdi
 9434 5bac 498D5518 		leaq	24(%r13), %rdx
 9435 5bb0 4839D7   		cmpq	%rdx, %rdi
 9436 5bb3 7405     		je	.L1370
 9437 5bb5 E8000000 		call	_ZdlPv
 9437      00
 9438              	.L1370:
 9439 5bba 4983C528 		addq	$40, %r13
 9440 5bbe 4C39EB   		cmpq	%r13, %rbx
 9441 5bc1 75E5     		jne	.L1371
 9442 5bc3 488B5D60 		movq	96(%rbp), %rbx
 9443              	.L1369:
 9444 5bc7 4885DB   		testq	%rbx, %rbx
 9445 5bca 7408     		je	.L1372
 9446 5bcc 4889DF   		movq	%rbx, %rdi
 9447 5bcf E8000000 		call	_ZdlPv
 9447      00
 9448              	.L1372:
 9449 5bd4 488B7D40 		movq	64(%rbp), %rdi
 9450 5bd8 488D4550 		leaq	80(%rbp), %rax
 9451 5bdc 4839C7   		cmpq	%rax, %rdi
 9452 5bdf 7405     		je	.L1373
 9453 5be1 E8000000 		call	_ZdlPv
 9453      00
 9454              	.L1373:
 9455 5be6 488B7D20 		movq	32(%rbp), %rdi
 9456 5bea 488D4530 		leaq	48(%rbp), %rax
 9457 5bee 4839C7   		cmpq	%rax, %rdi
 9458 5bf1 7405     		je	.L1374
 9459 5bf3 E8000000 		call	_ZdlPv
 9459      00
 9460              	.L1374:
 9461 5bf8 488B7D00 		movq	0(%rbp), %rdi
 9462 5bfc 488D4510 		leaq	16(%rbp), %rax
 9463 5c00 4839C7   		cmpq	%rax, %rdi
 9464 5c03 7405     		je	.L1375
 9465 5c05 E8000000 		call	_ZdlPv
 9465      00
 9466              	.L1375:
 9467 5c0a 4883ED80 		subq	$-128, %rbp
 9468 5c0e 4939EC   		cmpq	%rbp, %r12
 9469 5c11 7585     		jne	.L1376
 9470 5c13 4C8BA424 		movq	416(%rsp), %r12
 9470      A0010000 
 9471              	.L1368:
 9472 5c1b 4D85E4   		testq	%r12, %r12
 9473 5c1e 7408     		je	.L1377
 9474 5c20 4C89E7   		movq	%r12, %rdi
 9475 5c23 E8000000 		call	_ZdlPv
 9475      00
 9476              	.L1377:
 9477 5c28 488DBC24 		leaq	408(%rsp), %rdi
 9477      98010000 
 9478              	.LEHB316:
 9479 5c30 E8000000 		call	_ZN8UnitTest12TestReporterD2Ev
 9479      00
 9480              	.LEHE316:
 9481 5c35 488B7C24 		movq	112(%rsp), %rdi
 9481      70
 9482 5c3a 488D8424 		leaq	128(%rsp), %rax
 9482      80000000 
 9483 5c42 48C74424 		movq	$_ZTVNSt7__cxx1119basic_ostringstreamIcSt11char_traitsIcESaIcEEE+24, 32(%rsp)
 9483      20000000 
 9483      00
 9484 5c4b 48C78424 		movq	$_ZTVNSt7__cxx1119basic_ostringstreamIcSt11char_traitsIcESaIcEEE+64, 144(%rsp)
 9484      90000000 
 9484      00000000 
 9485 5c57 48C74424 		movq	$_ZTVNSt7__cxx1115basic_stringbufIcSt11char_traitsIcESaIcEEE+16, 40(%rsp)
 9485      28000000 
 9485      00
 9486 5c60 4839C7   		cmpq	%rax, %rdi
 9487 5c63 7405     		je	.L1378
 9488 5c65 E8000000 		call	_ZdlPv
 9488      00
 9489              	.L1378:
 9490 5c6a 488D7C24 		leaq	96(%rsp), %rdi
 9490      60
 9491 5c6f 48C74424 		movq	$_ZTVSt15basic_streambufIcSt11char_traitsIcEE+16, 40(%rsp)
 9491      28000000 
 9491      00
 9492 5c78 E8000000 		call	_ZNSt6localeD1Ev
 9492      00
 9493 5c7d 488B0500 		movq	_ZTTNSt7__cxx1119basic_ostringstreamIcSt11char_traitsIcESaIcEEE+8(%rip), %rax
 9493      000000
 9494 5c84 488B0D00 		movq	_ZTTNSt7__cxx1119basic_ostringstreamIcSt11char_traitsIcESaIcEEE+16(%rip), %rcx
 9494      000000
 9495 5c8b 488DBC24 		leaq	144(%rsp), %rdi
 9495      90000000 
 9496 5c93 488B40E8 		movq	-24(%rax), %rax
 9497 5c97 48894C04 		movq	%rcx, 32(%rsp,%rax)
 9497      20
 9498 5c9c 48C78424 		movq	$_ZTVSt9basic_iosIcSt11char_traitsIcEE+16, 144(%rsp)
 9498      90000000 
 9498      00000000 
 9499              	.LEHB317:
 9500 5ca8 E8000000 		call	_ZNSt8ios_baseD2Ev
 9500      00
 9501              	.LEHE317:
 9502              	.L1361:
 9503 5cad 488B8424 		movq	456(%rsp), %rax
 9503      C8010000 
 9504 5cb5 64483304 		xorq	%fs:40, %rax
 9504      25280000 
 9504      00
 9505 5cbe 0F85C000 		jne	.L1421
 9505      0000
 9506 5cc4 4881C4D8 		addq	$472, %rsp
 9506      010000
 9507              		.cfi_remember_state
 9508              		.cfi_def_cfa_offset 56
 9509 5ccb 5B       		popq	%rbx
 9510              		.cfi_def_cfa_offset 48
 9511 5ccc 5D       		popq	%rbp
 9512              		.cfi_def_cfa_offset 40
 9513 5ccd 415C     		popq	%r12
 9514              		.cfi_def_cfa_offset 32
 9515 5ccf 415D     		popq	%r13
 9516              		.cfi_def_cfa_offset 24
 9517 5cd1 415E     		popq	%r14
 9518              		.cfi_def_cfa_offset 16
 9519 5cd3 415F     		popq	%r15
 9520              		.cfi_def_cfa_offset 8
 9521 5cd5 C3       		ret
 9522              	.L1401:
 9523              		.cfi_restore_state
 9524 5cd6 4889C3   		movq	%rax, %rbx
 9525 5cd9 4889D5   		movq	%rdx, %rbp
 9526              	.L1364:
 9527 5cdc 488DBC24 		leaq	144(%rsp), %rdi
 9527      90000000 
 9528 5ce4 48C78424 		movq	$_ZTVSt9basic_iosIcSt11char_traitsIcEE+16, 144(%rsp)
 9528      90000000 
 9528      00000000 
 9529 5cf0 E8000000 		call	_ZNSt8ios_baseD2Ev
 9529      00
 9530 5cf5 4889DF   		movq	%rbx, %rdi
 9531 5cf8 4889EA   		movq	%rbp, %rdx
 9532 5cfb 31DB     		xorl	%ebx, %ebx
 9533              	.L1365:
 9534 5cfd 4883FA01 		cmpq	$1, %rdx
 9535 5d01 0F84EA00 		je	.L1385
 9535      0000
 9536 5d07 4883FA02 		cmpq	$2, %rdx
 9537 5d0b 0F85A400 		jne	.L1422
 9537      0000
 9538 5d11 E8000000 		call	__cxa_begin_catch
 9538      00
 9539 5d16 488D7C24 		leaq	32(%rsp), %rdi
 9539      20
 9540 5d1b 4889C3   		movq	%rax, %rbx
 9541              	.LEHB318:
 9542 5d1e E8000000 		call	_ZN8UnitTest15MemoryOutStreamC1Ev
 9542      00
 9543              	.LEHE318:
 9544 5d23 488B03   		movq	(%rbx), %rax
 9545 5d26 4889DF   		movq	%rbx, %rdi
 9546 5d29 FF5010   		call	*16(%rax)
 9547 5d2c 488D7C24 		leaq	32(%rsp), %rdi
 9547      20
 9548 5d31 BA150000 		movl	$21, %edx
 9548      00
 9549 5d36 BE000000 		movl	$.LC31, %esi
 9549      00
 9550 5d3b 4889C3   		movq	%rax, %rbx
 9551              	.LEHB319:
 9552 5d3e E8000000 		call	_ZSt16__ostream_insertIcSt11char_traitsIcEERSt13basic_ostreamIT_T0_ES6_PKS3_l
 9552      00
 9553 5d43 488D7C24 		leaq	32(%rsp), %rdi
 9553      20
 9554 5d48 4889DE   		movq	%rbx, %rsi
 9555 5d4b E8000000 		call	_ZStlsISt11char_traitsIcEERSt13basic_ostreamIcT_ES5_PKc
 9555      00
 9556 5d50 488D7C24 		leaq	32(%rsp), %rdi
 9556      20
 9557 5d55 E8000000 		call	_ZNK8UnitTest15MemoryOutStream7GetTextEv
 9557      00
 9558 5d5a 4889C3   		movq	%rax, %rbx
 9559 5d5d E8000000 		call	_ZN8UnitTest11CurrentTest7ResultsEv
 9559      00
 9560 5d62 488B38   		movq	(%rax), %rdi
 9561 5d65 4889DA   		movq	%rbx, %rdx
 9562 5d68 4C89F6   		movq	%r14, %rsi
 9563 5d6b E8000000 		call	_ZN8UnitTest11TestResults13OnTestFailureERKNS_11TestDetailsEPKc
 9563      00
 9564              	.LEHE319:
 9565 5d70 488D7C24 		leaq	32(%rsp), %rdi
 9565      20
 9566              	.LEHB320:
 9567 5d75 E8000000 		call	_ZN8UnitTest15MemoryOutStreamD1Ev
 9567      00
 9568              	.LEHE320:
 9569              	.L1416:
 9570 5d7a E8000000 		call	__cxa_end_catch
 9570      00
 9571 5d7f E929FFFF 		jmp	.L1361
 9571      FF
 9572              	.L1421:
 9573 5d84 E8000000 		call	__stack_chk_fail
 9573      00
 9574              	.L1394:
 9575 5d89 4889C7   		movq	%rax, %rdi
 9576 5d8c BB010000 		movl	$1, %ebx
 9576      00
 9577 5d91 E967FFFF 		jmp	.L1365
 9577      FF
 9578              	.L1398:
 9579 5d96 488D7C24 		leaq	32(%rsp), %rdi
 9579      20
 9580 5d9b 4889C3   		movq	%rax, %rbx
 9581 5d9e E8000000 		call	_ZN8UnitTest15MemoryOutStreamD1Ev
 9581      00
 9582              	.L1391:
 9583 5da3 E8000000 		call	__cxa_end_catch
 9583      00
 9584 5da8 4889DF   		movq	%rbx, %rdi
 9585              	.LEHB321:
 9586 5dab E8000000 		call	_Unwind_Resume
 9586      00
 9587              	.LEHE321:
 9588              	.L1397:
 9589              	.L1417:
 9590 5db0 4889C3   		movq	%rax, %rbx
 9591 5db3 EBEE     		jmp	.L1391
 9592              	.L1422:
 9593 5db5 E8000000 		call	__cxa_begin_catch
 9593      00
 9594 5dba 84DB     		testb	%bl, %bl
 9595 5dbc BA220000 		movl	$34, %edx
 9595      00
 9596 5dc1 4C89F6   		movq	%r14, %rsi
 9597 5dc4 4889E7   		movq	%rsp, %rdi
 9598 5dc7 0F848900 		je	.L1387
 9598      0000
 9599              	.LEHB322:
 9600 5dcd E8000000 		call	_ZN8UnitTest11TestDetailsC1ERKS0_i
 9600      00
 9601 5dd2 E8000000 		call	_ZN8UnitTest11CurrentTest7ResultsEv
 9601      00
 9602 5dd7 488B38   		movq	(%rax), %rdi
 9603 5dda BA000000 		movl	$.LC35, %edx
 9603      00
 9604 5ddf 4889E6   		movq	%rsp, %rsi
 9605 5de2 E8000000 		call	_ZN8UnitTest11TestResults13OnTestFailureERKNS_11TestDetailsEPKc
 9605      00
 9606              	.LEHE322:
 9607              	.L1388:
 9608              	.LEHB323:
 9609 5de7 E8000000 		call	__cxa_end_catch
 9609      00
 9610              	.LEHE323:
 9611 5dec E9BCFEFF 		jmp	.L1361
 9611      FF
 9612              	.L1385:
 9613 5df1 E8000000 		call	__cxa_begin_catch
 9613      00
 9614 5df6 4889C3   		movq	%rax, %rbx
 9615 5df9 488B00   		movq	(%rax), %rax
 9616 5dfc 4889DF   		movq	%rbx, %rdi
 9617 5dff FF5010   		call	*16(%rax)
 9618 5e02 4889DF   		movq	%rbx, %rdi
 9619 5e05 4889C5   		movq	%rax, %rbp
 9620              	.LEHB324:
 9621 5e08 E8000000 		call	_ZNK8UnitTest15AssertException10LineNumberEv
 9621      00
 9622 5e0d 4889DF   		movq	%rbx, %rdi
 9623 5e10 4189C4   		movl	%eax, %r12d
 9624 5e13 E8000000 		call	_ZNK8UnitTest15AssertException8FilenameEv
 9624      00
 9625 5e18 498B5708 		movq	8(%r15), %rdx
 9626 5e1c 498B7710 		movq	16(%r15), %rsi
 9627 5e20 4589E0   		movl	%r12d, %r8d
 9628 5e23 4889C1   		movq	%rax, %rcx
 9629 5e26 4889E7   		movq	%rsp, %rdi
 9630 5e29 E8000000 		call	_ZN8UnitTest11TestDetailsC1EPKcS2_S2_i
 9630      00
 9631 5e2e E8000000 		call	_ZN8UnitTest11CurrentTest7ResultsEv
 9631      00
 9632 5e33 488B38   		movq	(%rax), %rdi
 9633 5e36 4889EA   		movq	%rbp, %rdx
 9634 5e39 4889E6   		movq	%rsp, %rsi
 9635 5e3c E8000000 		call	_ZN8UnitTest11TestResults13OnTestFailureERKNS_11TestDetailsEPKc
 9635      00
 9636              	.LEHE324:
 9637 5e41 E934FFFF 		jmp	.L1416
 9637      FF
 9638              	.L1399:
 9639 5e46 4889C3   		movq	%rax, %rbx
 9640 5e49 E8000000 		call	__cxa_end_catch
 9640      00
 9641 5e4e 4889DF   		movq	%rbx, %rdi
 9642              	.LEHB325:
 9643 5e51 E8000000 		call	_Unwind_Resume
 9643      00
 9644              	.LEHE325:
 9645              	.L1387:
 9646              	.LEHB326:
 9647 5e56 E8000000 		call	_ZN8UnitTest11TestDetailsC1ERKS0_i
 9647      00
 9648 5e5b E8000000 		call	_ZN8UnitTest11CurrentTest7ResultsEv
 9648      00
 9649 5e60 488B38   		movq	(%rax), %rdi
 9650 5e63 BA000000 		movl	$.LC36, %edx
 9650      00
 9651 5e68 4889E6   		movq	%rsp, %rsi
 9652 5e6b E8000000 		call	_ZN8UnitTest11TestResults13OnTestFailureERKNS_11TestDetailsEPKc
 9652      00
 9653              	.LEHE326:
 9654 5e70 E972FFFF 		jmp	.L1388
 9654      FF
 9655              	.L1396:
 9656 5e75 E936FFFF 		jmp	.L1417
 9656      FF
 9657              	.L1403:
 9658 5e7a 488D7C24 		leaq	32(%rsp), %rdi
 9658      20
 9659 5e7f 4889C3   		movq	%rax, %rbx
 9660 5e82 4889D5   		movq	%rdx, %rbp
 9661 5e85 E8000000 		call	_ZNSt7__cxx1119basic_ostringstreamIcSt11char_traitsIcESaIcEED1Ev
 9661      00
 9662 5e8a 4889DF   		movq	%rbx, %rdi
 9663 5e8d 4889EA   		movq	%rbp, %rdx
 9664 5e90 BB010000 		movl	$1, %ebx
 9664      00
 9665 5e95 E963FEFF 		jmp	.L1365
 9665      FF
 9666              	.L1395:
 9667 5e9a 488D7C24 		leaq	32(%rsp), %rdi
 9667      20
 9668 5e9f 4889C3   		movq	%rax, %rbx
 9669 5ea2 4889D5   		movq	%rdx, %rbp
 9670 5ea5 E8000000 		call	_ZN12_GLOBAL__N_122XmlTestReporterFixtureD2Ev.constprop.46
 9670      00
 9671 5eaa 4889DF   		movq	%rbx, %rdi
 9672 5ead 4889EA   		movq	%rbp, %rdx
 9673 5eb0 BB010000 		movl	$1, %ebx
 9673      00
 9674 5eb5 E943FEFF 		jmp	.L1365
 9674      FF
 9675              	.L1400:
 9676 5eba 488D7C24 		leaq	32(%rsp), %rdi
 9676      20
 9677 5ebf 4889C3   		movq	%rax, %rbx
 9678 5ec2 4889D5   		movq	%rdx, %rbp
 9679 5ec5 E8000000 		call	_ZNSt7__cxx1119basic_ostringstreamIcSt11char_traitsIcESaIcEED1Ev
 9679      00
 9680 5eca 4889DF   		movq	%rbx, %rdi
 9681 5ecd 4889EA   		movq	%rbp, %rdx
 9682 5ed0 31DB     		xorl	%ebx, %ebx
 9683 5ed2 E926FEFF 		jmp	.L1365
 9683      FF
 9684              	.L1402:
 9685 5ed7 488D7C24 		leaq	40(%rsp), %rdi
 9685      28
 9686 5edc 4889C3   		movq	%rax, %rbx
 9687 5edf 4889D5   		movq	%rdx, %rbp
 9688 5ee2 E8000000 		call	_ZNSt7__cxx1115basic_stringbufIcSt11char_traitsIcESaIcEED1Ev
 9688      00
 9689 5ee7 488B0500 		movq	_ZTTNSt7__cxx1119basic_ostringstreamIcSt11char_traitsIcESaIcEEE+8(%rip), %rax
 9689      000000
 9690 5eee 488B0D00 		movq	_ZTTNSt7__cxx1119basic_ostringstreamIcSt11char_traitsIcESaIcEEE+16(%rip), %rcx
 9690      000000
 9691 5ef5 488B40E8 		movq	-24(%rax), %rax
 9692 5ef9 48894C04 		movq	%rcx, 32(%rsp,%rax)
 9692      20
 9693 5efe E9D9FDFF 		jmp	.L1364
 9693      FF
 9694              		.cfi_endproc
 9695              	.LFE1373:
 9696              		.section	.gcc_except_table
 9697              		.align 4
 9698              	.LLSDA1373:
 9699 089c FF       		.byte	0xff
 9700 089d 03       		.byte	0x3
 9701 089e 6D       		.uleb128 .LLSDATT1373-.LLSDATTD1373
 9702              	.LLSDATTD1373:
 9703 089f 01       		.byte	0x1
 9704 08a0 57       		.uleb128 .LLSDACSE1373-.LLSDACSB1373
 9705              	.LLSDACSB1373:
 9706 08a1 B101     		.uleb128 .LEHB312-.LFB1373
 9707 08a3 05       		.uleb128 .LEHE312-.LEHB312
 9708 08a4 E605     		.uleb128 .L1401-.LFB1373
 9709 08a6 07       		.uleb128 0x7
 9710 08a7 D102     		.uleb128 .LEHB313-.LFB1373
 9711 08a9 05       		.uleb128 .LEHE313-.LEHB313
 9712 08aa E709     		.uleb128 .L1402-.LFB1373
 9713 08ac 07       		.uleb128 0x7
 9714 08ad E602     		.uleb128 .LEHB314-.LFB1373
 9715 08af 05       		.uleb128 .LEHE314-.LEHB314
 9716 08b0 CA09     		.uleb128 .L1400-.LFB1373
 9717 08b2 07       		.uleb128 0x7
 9718 08b3 FB02     		.uleb128 .LEHB315-.LFB1373
 9719 08b5 05       		.uleb128 .LEHE315-.LEHB315
 9720 08b6 AA09     		.uleb128 .L1395-.LFB1373
 9721 08b8 07       		.uleb128 0x7
 9722 08b9 C004     		.uleb128 .LEHB316-.LFB1373
 9723 08bb 05       		.uleb128 .LEHE316-.LEHB316
 9724 08bc 8A09     		.uleb128 .L1403-.LFB1373
 9725 08be 07       		.uleb128 0x7
 9726 08bf B805     		.uleb128 .LEHB317-.LFB1373
 9727 08c1 05       		.uleb128 .LEHE317-.LEHB317
 9728 08c2 9907     		.uleb128 .L1394-.LFB1373
 9729 08c4 05       		.uleb128 0x5
 9730 08c5 AE06     		.uleb128 .LEHB318-.LFB1373
 9731 08c7 05       		.uleb128 .LEHE318-.LEHB318
 9732 08c8 C007     		.uleb128 .L1397-.LFB1373
 9733 08ca 00       		.uleb128 0
 9734 08cb CE06     		.uleb128 .LEHB319-.LFB1373
 9735 08cd 32       		.uleb128 .LEHE319-.LEHB319
 9736 08ce A607     		.uleb128 .L1398-.LFB1373
 9737 08d0 00       		.uleb128 0
 9738 08d1 8507     		.uleb128 .LEHB320-.LFB1373
 9739 08d3 05       		.uleb128 .LEHE320-.LEHB320
 9740 08d4 C007     		.uleb128 .L1397-.LFB1373
 9741 08d6 00       		.uleb128 0
 9742 08d7 BB07     		.uleb128 .LEHB321-.LFB1373
 9743 08d9 05       		.uleb128 .LEHE321-.LEHB321
 9744 08da 00       		.uleb128 0
 9745 08db 00       		.uleb128 0
 9746 08dc DD07     		.uleb128 .LEHB322-.LFB1373
 9747 08de 1A       		.uleb128 .LEHE322-.LEHB322
 9748 08df D608     		.uleb128 .L1399-.LFB1373
 9749 08e1 00       		.uleb128 0
 9750 08e2 F707     		.uleb128 .LEHB323-.LFB1373
 9751 08e4 05       		.uleb128 .LEHE323-.LEHB323
 9752 08e5 00       		.uleb128 0
 9753 08e6 00       		.uleb128 0
 9754 08e7 9808     		.uleb128 .LEHB324-.LFB1373
 9755 08e9 39       		.uleb128 .LEHE324-.LEHB324
 9756 08ea 8509     		.uleb128 .L1396-.LFB1373
 9757 08ec 00       		.uleb128 0
 9758 08ed E108     		.uleb128 .LEHB325-.LFB1373
 9759 08ef 05       		.uleb128 .LEHE325-.LEHB325
 9760 08f0 00       		.uleb128 0
 9761 08f1 00       		.uleb128 0
 9762 08f2 E608     		.uleb128 .LEHB326-.LFB1373
 9763 08f4 1A       		.uleb128 .LEHE326-.LEHB326
 9764 08f5 D608     		.uleb128 .L1399-.LFB1373
 9765 08f7 00       		.uleb128 0
 9766              	.LLSDACSE1373:
 9767 08f8 03       		.byte	0x3
 9768 08f9 00       		.byte	0
 9769 08fa 02       		.byte	0x2
 9770 08fb 7D       		.byte	0x7d
 9771 08fc 01       		.byte	0x1
 9772 08fd 7D       		.byte	0x7d
 9773 08fe 00       		.byte	0
 9774 08ff 7D       		.byte	0x7d
 9775              		.align 4
 9776 0900 00000000 		.long	0
 9777              	
 9778 0904 00000000 		.long	_ZTISt9exception
 9779 0908 00000000 		.long	_ZTIN8UnitTest15AssertExceptionE
 9780              	.LLSDATT1373:
 9781              		.text
 9783              		.section	.text.unlikely
 9784              	.LCOLDE79:
 9785              		.text
 9786              	.LHOTE79:
 9787              		.section	.rodata.str1.1
 9788              	.LC80:
 9789 0133 54657374 		.string	"TestXmlTestReporter.cpp"
 9789      586D6C54 
 9789      65737452 
 9789      65706F72 
 9789      7465722E 
 9790              	.LC81:
 9791 014b 4D756C74 		.string	"MultipleCharactersAreEscaped"
 9791      69706C65 
 9791      43686172 
 9791      61637465 
 9791      72734172 
 9792              		.section	.rodata.str1.8
 9793 0765 000000   		.align 8
 9794              	.LC82:
 9795 0768 4F757470 		.string	"OutputIsCachedUntilReportSummaryIsCalled"
 9795      75744973 
 9795      43616368 
 9795      6564556E 
 9795      74696C52 
 9796              		.section	.rodata.str1.1
 9797              	.LC83:
 9798 0168 456D7074 		.string	"EmptyReportSummaryFormat"
 9798      79526570 
 9798      6F727453 
 9798      756D6D61 
 9798      7279466F 
 9799              		.section	.rodata.str1.8
 9800 0791 00000000 		.align 8
 9800      000000
 9801              	.LC84:
 9802 0798 53696E67 		.string	"SingleSuccessfulTestReportSummaryFormat"
 9802      6C655375 
 9802      63636573 
 9802      7366756C 
 9802      54657374 
 9803              		.align 8
 9804              	.LC85:
 9805 07c0 53696E67 		.string	"SingleFailedTestReportSummaryFormat"
 9805      6C654661 
 9805      696C6564 
 9805      54657374 
 9805      5265706F 
 9806              		.section	.rodata.str1.1
 9807              	.LC86:
 9808 0181 4661696C 		.string	"FailureMessageIsXMLEscaped"
 9808      7572654D 
 9808      65737361 
 9808      67654973 
 9808      584D4C45 
 9809              	.LC87:
 9810 019c 4F6E6546 		.string	"OneFailureAndOneSuccess"
 9810      61696C75 
 9810      7265416E 
 9810      644F6E65 
 9810      53756363 
 9811              	.LC88:
 9812 01b4 4D756C74 		.string	"MultipleFailures"
 9812      69706C65 
 9812      4661696C 
 9812      75726573 
 9812      00
 9813              		.section	.text.unlikely
 9814              	.LCOLDB89:
 9815              		.section	.text.startup,"ax",@progbits
 9816              	.LHOTB89:
 9817              		.p2align 4,,15
 9819              	_GLOBAL__sub_I_TestXmlTestReporter.cpp:
 9820              	.LFB1678:
 9821              		.cfi_startproc
 9822 0000 4883EC08 		subq	$8, %rsp
 9823              		.cfi_def_cfa_offset 16
 9824 0004 41B82200 		movl	$34, %r8d
 9824      0000
 9825 000a B9000000 		movl	$.LC80, %ecx
 9825      00
 9826 000f BA000000 		movl	$.LC69, %edx
 9826      00
 9827 0014 BE000000 		movl	$.LC81, %esi
 9827      00
 9828 0019 BF000000 		movl	$_ZN12_GLOBAL__N_162testXmlTestReporterFixtureMultipleCharactersAreEscapedInstanceE, %edi
 9828      00
 9829 001e E8000000 		call	_ZN8UnitTest4TestC2EPKcS2_S2_i
 9829      00
 9830 0023 BA000000 		movl	$__dso_handle, %edx
 9830      00
 9831 0028 BE000000 		movl	$_ZN12_GLOBAL__N_162testXmlTestReporterFixtureMultipleCharactersAreEscapedInstanceE, %esi
 9831      00
 9832 002d BF000000 		movl	$_ZN12_GLOBAL__N_154TestXmlTestReporterFixtureMultipleCharactersAreEscapedD1Ev, %edi
 9832      00
 9833 0032 48C70500 		movq	$_ZTVN12_GLOBAL__N_154TestXmlTestReporterFixtureMultipleCharactersAreEscapedE+16, _ZN12_GLOBA
 9833      00000000 
 9833      000000
 9834 003d E8000000 		call	__cxa_atexit
 9834      00
 9835 0042 E8000000 		call	_ZN8UnitTest4Test11GetTestListEv
 9835      00
 9836 0047 BA000000 		movl	$_ZN12_GLOBAL__N_162testXmlTestReporterFixtureMultipleCharactersAreEscapedInstanceE, %edx
 9836      00
 9837 004c 4889C6   		movq	%rax, %rsi
 9838 004f BF000000 		movl	$_ZN12_GLOBAL__N_155adderXmlTestReporterFixtureMultipleCharactersAreEscapedE, %edi
 9838      00
 9839 0054 E8000000 		call	_ZN8UnitTest9ListAdderC1ERNS_8TestListEPNS_4TestE
 9839      00
 9840 0059 41B83700 		movl	$55, %r8d
 9840      0000
 9841 005f B9000000 		movl	$.LC80, %ecx
 9841      00
 9842 0064 BA000000 		movl	$.LC69, %edx
 9842      00
 9843 0069 BE000000 		movl	$.LC82, %esi
 9843      00
 9844 006e BF000000 		movl	$_ZN12_GLOBAL__N_174testXmlTestReporterFixtureOutputIsCachedUntilReportSummaryIsCalledInstanc
 9844      00
 9845 0073 E8000000 		call	_ZN8UnitTest4TestC2EPKcS2_S2_i
 9845      00
 9846 0078 BA000000 		movl	$__dso_handle, %edx
 9846      00
 9847 007d BE000000 		movl	$_ZN12_GLOBAL__N_174testXmlTestReporterFixtureOutputIsCachedUntilReportSummaryIsCalledInstanc
 9847      00
 9848 0082 BF000000 		movl	$_ZN12_GLOBAL__N_166TestXmlTestReporterFixtureOutputIsCachedUntilReportSummaryIsCalledD1Ev, %
 9848      00
 9849 0087 48C70500 		movq	$_ZTVN12_GLOBAL__N_166TestXmlTestReporterFixtureOutputIsCachedUntilReportSummaryIsCalledE+16,
 9849      00000000 
 9849      000000
 9850 0092 E8000000 		call	__cxa_atexit
 9850      00
 9851 0097 E8000000 		call	_ZN8UnitTest4Test11GetTestListEv
 9851      00
 9852 009c BA000000 		movl	$_ZN12_GLOBAL__N_174testXmlTestReporterFixtureOutputIsCachedUntilReportSummaryIsCalledInstanc
 9852      00
 9853 00a1 4889C6   		movq	%rax, %rsi
 9854 00a4 BF000000 		movl	$_ZN12_GLOBAL__N_167adderXmlTestReporterFixtureOutputIsCachedUntilReportSummaryIsCalledE, %ed
 9854      00
 9855 00a9 E8000000 		call	_ZN8UnitTest9ListAdderC1ERNS_8TestListEPNS_4TestE
 9855      00
 9856 00ae 41B84400 		movl	$68, %r8d
 9856      0000
 9857 00b4 B9000000 		movl	$.LC80, %ecx
 9857      00
 9858 00b9 BA000000 		movl	$.LC69, %edx
 9858      00
 9859 00be BE000000 		movl	$.LC83, %esi
 9859      00
 9860 00c3 BF000000 		movl	$_ZN12_GLOBAL__N_158testXmlTestReporterFixtureEmptyReportSummaryFormatInstanceE, %edi
 9860      00
 9861 00c8 E8000000 		call	_ZN8UnitTest4TestC2EPKcS2_S2_i
 9861      00
 9862 00cd BA000000 		movl	$__dso_handle, %edx
 9862      00
 9863 00d2 BE000000 		movl	$_ZN12_GLOBAL__N_158testXmlTestReporterFixtureEmptyReportSummaryFormatInstanceE, %esi
 9863      00
 9864 00d7 BF000000 		movl	$_ZN12_GLOBAL__N_150TestXmlTestReporterFixtureEmptyReportSummaryFormatD1Ev, %edi
 9864      00
 9865 00dc 48C70500 		movq	$_ZTVN12_GLOBAL__N_150TestXmlTestReporterFixtureEmptyReportSummaryFormatE+16, _ZN12_GLOBAL__N
 9865      00000000 
 9865      000000
 9866 00e7 E8000000 		call	__cxa_atexit
 9866      00
 9867 00ec E8000000 		call	_ZN8UnitTest4Test11GetTestListEv
 9867      00
 9868 00f1 BA000000 		movl	$_ZN12_GLOBAL__N_158testXmlTestReporterFixtureEmptyReportSummaryFormatInstanceE, %edx
 9868      00
 9869 00f6 4889C6   		movq	%rax, %rsi
 9870 00f9 BF000000 		movl	$_ZN12_GLOBAL__N_151adderXmlTestReporterFixtureEmptyReportSummaryFormatE, %edi
 9870      00
 9871 00fe E8000000 		call	_ZN8UnitTest9ListAdderC1ERNS_8TestListEPNS_4TestE
 9871      00
 9872 0103 41B85000 		movl	$80, %r8d
 9872      0000
 9873 0109 B9000000 		movl	$.LC80, %ecx
 9873      00
 9874 010e BA000000 		movl	$.LC69, %edx
 9874      00
 9875 0113 BE000000 		movl	$.LC84, %esi
 9875      00
 9876 0118 BF000000 		movl	$_ZN12_GLOBAL__N_173testXmlTestReporterFixtureSingleSuccessfulTestReportSummaryFormatInstance
 9876      00
 9877 011d E8000000 		call	_ZN8UnitTest4TestC2EPKcS2_S2_i
 9877      00
 9878 0122 BA000000 		movl	$__dso_handle, %edx
 9878      00
 9879 0127 BE000000 		movl	$_ZN12_GLOBAL__N_173testXmlTestReporterFixtureSingleSuccessfulTestReportSummaryFormatInstance
 9879      00
 9880 012c BF000000 		movl	$_ZN12_GLOBAL__N_165TestXmlTestReporterFixtureSingleSuccessfulTestReportSummaryFormatD1Ev, %e
 9880      00
 9881 0131 48C70500 		movq	$_ZTVN12_GLOBAL__N_165TestXmlTestReporterFixtureSingleSuccessfulTestReportSummaryFormatE+16, 
 9881      00000000 
 9881      000000
 9882 013c E8000000 		call	__cxa_atexit
 9882      00
 9883 0141 E8000000 		call	_ZN8UnitTest4Test11GetTestListEv
 9883      00
 9884 0146 BA000000 		movl	$_ZN12_GLOBAL__N_173testXmlTestReporterFixtureSingleSuccessfulTestReportSummaryFormatInstance
 9884      00
 9885 014b 4889C6   		movq	%rax, %rsi
 9886 014e BF000000 		movl	$_ZN12_GLOBAL__N_166adderXmlTestReporterFixtureSingleSuccessfulTestReportSummaryFormatE, %edi
 9886      00
 9887 0153 E8000000 		call	_ZN8UnitTest9ListAdderC1ERNS_8TestListEPNS_4TestE
 9887      00
 9888 0158 41B86000 		movl	$96, %r8d
 9888      0000
 9889 015e B9000000 		movl	$.LC80, %ecx
 9889      00
 9890 0163 BA000000 		movl	$.LC69, %edx
 9890      00
 9891 0168 BE000000 		movl	$.LC85, %esi
 9891      00
 9892 016d BF000000 		movl	$_ZN12_GLOBAL__N_169testXmlTestReporterFixtureSingleFailedTestReportSummaryFormatInstanceE, %
 9892      00
 9893 0172 E8000000 		call	_ZN8UnitTest4TestC2EPKcS2_S2_i
 9893      00
 9894 0177 BA000000 		movl	$__dso_handle, %edx
 9894      00
 9895 017c BE000000 		movl	$_ZN12_GLOBAL__N_169testXmlTestReporterFixtureSingleFailedTestReportSummaryFormatInstanceE, %
 9895      00
 9896 0181 BF000000 		movl	$_ZN12_GLOBAL__N_161TestXmlTestReporterFixtureSingleFailedTestReportSummaryFormatD1Ev, %edi
 9896      00
 9897 0186 48C70500 		movq	$_ZTVN12_GLOBAL__N_161TestXmlTestReporterFixtureSingleFailedTestReportSummaryFormatE+16, _ZN1
 9897      00000000 
 9897      000000
 9898 0191 E8000000 		call	__cxa_atexit
 9898      00
 9899 0196 E8000000 		call	_ZN8UnitTest4Test11GetTestListEv
 9899      00
 9900 019b BA000000 		movl	$_ZN12_GLOBAL__N_169testXmlTestReporterFixtureSingleFailedTestReportSummaryFormatInstanceE, %
 9900      00
 9901 01a0 4889C6   		movq	%rax, %rsi
 9902 01a3 BF000000 		movl	$_ZN12_GLOBAL__N_162adderXmlTestReporterFixtureSingleFailedTestReportSummaryFormatE, %edi
 9902      00
 9903 01a8 E8000000 		call	_ZN8UnitTest9ListAdderC1ERNS_8TestListEPNS_4TestE
 9903      00
 9904 01ad 41B87300 		movl	$115, %r8d
 9904      0000
 9905 01b3 B9000000 		movl	$.LC80, %ecx
 9905      00
 9906 01b8 BA000000 		movl	$.LC69, %edx
 9906      00
 9907 01bd BE000000 		movl	$.LC86, %esi
 9907      00
 9908 01c2 BF000000 		movl	$_ZN12_GLOBAL__N_160testXmlTestReporterFixtureFailureMessageIsXMLEscapedInstanceE, %edi
 9908      00
 9909 01c7 E8000000 		call	_ZN8UnitTest4TestC2EPKcS2_S2_i
 9909      00
 9910 01cc BA000000 		movl	$__dso_handle, %edx
 9910      00
 9911 01d1 BE000000 		movl	$_ZN12_GLOBAL__N_160testXmlTestReporterFixtureFailureMessageIsXMLEscapedInstanceE, %esi
 9911      00
 9912 01d6 BF000000 		movl	$_ZN12_GLOBAL__N_152TestXmlTestReporterFixtureFailureMessageIsXMLEscapedD1Ev, %edi
 9912      00
 9913 01db 48C70500 		movq	$_ZTVN12_GLOBAL__N_152TestXmlTestReporterFixtureFailureMessageIsXMLEscapedE+16, _ZN12_GLOBAL_
 9913      00000000 
 9913      000000
 9914 01e6 E8000000 		call	__cxa_atexit
 9914      00
 9915 01eb E8000000 		call	_ZN8UnitTest4Test11GetTestListEv
 9915      00
 9916 01f0 BA000000 		movl	$_ZN12_GLOBAL__N_160testXmlTestReporterFixtureFailureMessageIsXMLEscapedInstanceE, %edx
 9916      00
 9917 01f5 4889C6   		movq	%rax, %rsi
 9918 01f8 BF000000 		movl	$_ZN12_GLOBAL__N_153adderXmlTestReporterFixtureFailureMessageIsXMLEscapedE, %edi
 9918      00
 9919 01fd E8000000 		call	_ZN8UnitTest9ListAdderC1ERNS_8TestListEPNS_4TestE
 9919      00
 9920 0202 41B88700 		movl	$135, %r8d
 9920      0000
 9921 0208 B9000000 		movl	$.LC80, %ecx
 9921      00
 9922 020d BA000000 		movl	$.LC69, %edx
 9922      00
 9923 0212 BE000000 		movl	$.LC87, %esi
 9923      00
 9924 0217 BF000000 		movl	$_ZN12_GLOBAL__N_157testXmlTestReporterFixtureOneFailureAndOneSuccessInstanceE, %edi
 9924      00
 9925 021c E8000000 		call	_ZN8UnitTest4TestC2EPKcS2_S2_i
 9925      00
 9926 0221 BA000000 		movl	$__dso_handle, %edx
 9926      00
 9927 0226 BE000000 		movl	$_ZN12_GLOBAL__N_157testXmlTestReporterFixtureOneFailureAndOneSuccessInstanceE, %esi
 9927      00
 9928 022b BF000000 		movl	$_ZN12_GLOBAL__N_149TestXmlTestReporterFixtureOneFailureAndOneSuccessD1Ev, %edi
 9928      00
 9929 0230 48C70500 		movq	$_ZTVN12_GLOBAL__N_149TestXmlTestReporterFixtureOneFailureAndOneSuccessE+16, _ZN12_GLOBAL__N_
 9929      00000000 
 9929      000000
 9930 023b E8000000 		call	__cxa_atexit
 9930      00
 9931 0240 E8000000 		call	_ZN8UnitTest4Test11GetTestListEv
 9931      00
 9932 0245 BA000000 		movl	$_ZN12_GLOBAL__N_157testXmlTestReporterFixtureOneFailureAndOneSuccessInstanceE, %edx
 9932      00
 9933 024a 4889C6   		movq	%rax, %rsi
 9934 024d BF000000 		movl	$_ZN12_GLOBAL__N_150adderXmlTestReporterFixtureOneFailureAndOneSuccessE, %edi
 9934      00
 9935 0252 E8000000 		call	_ZN8UnitTest9ListAdderC1ERNS_8TestListEPNS_4TestE
 9935      00
 9936 0257 41B89F00 		movl	$159, %r8d
 9936      0000
 9937 025d B9000000 		movl	$.LC80, %ecx
 9937      00
 9938 0262 BA000000 		movl	$.LC69, %edx
 9938      00
 9939 0267 BE000000 		movl	$.LC88, %esi
 9939      00
 9940 026c BF000000 		movl	$_ZN12_GLOBAL__N_150testXmlTestReporterFixtureMultipleFailuresInstanceE, %edi
 9940      00
 9941 0271 E8000000 		call	_ZN8UnitTest4TestC2EPKcS2_S2_i
 9941      00
 9942 0276 BA000000 		movl	$__dso_handle, %edx
 9942      00
 9943 027b BE000000 		movl	$_ZN12_GLOBAL__N_150testXmlTestReporterFixtureMultipleFailuresInstanceE, %esi
 9943      00
 9944 0280 BF000000 		movl	$_ZN12_GLOBAL__N_142TestXmlTestReporterFixtureMultipleFailuresD1Ev, %edi
 9944      00
 9945 0285 48C70500 		movq	$_ZTVN12_GLOBAL__N_142TestXmlTestReporterFixtureMultipleFailuresE+16, _ZN12_GLOBAL__N_150test
 9945      00000000 
 9945      000000
 9946 0290 E8000000 		call	__cxa_atexit
 9946      00
 9947 0295 E8000000 		call	_ZN8UnitTest4Test11GetTestListEv
 9947      00
 9948 029a BA000000 		movl	$_ZN12_GLOBAL__N_150testXmlTestReporterFixtureMultipleFailuresInstanceE, %edx
 9948      00
 9949 029f 4889C6   		movq	%rax, %rsi
 9950 02a2 BF000000 		movl	$_ZN12_GLOBAL__N_143adderXmlTestReporterFixtureMultipleFailuresE, %edi
 9950      00
 9951 02a7 4883C408 		addq	$8, %rsp
 9952              		.cfi_def_cfa_offset 8
 9953 02ab E9000000 		jmp	_ZN8UnitTest9ListAdderC1ERNS_8TestListEPNS_4TestE
 9953      00
 9954              		.cfi_endproc
 9955              	.LFE1678:
 9957              		.section	.text.unlikely
 9958              	.LCOLDE89:
 9959              		.section	.text.startup
 9960              	.LHOTE89:
 9961              		.section	.init_array,"aw"
 9962              		.align 8
 9963 0000 00000000 		.quad	_GLOBAL__sub_I_TestXmlTestReporter.cpp
 9963      00000000 
 9964              		.weak	_ZTSN8UnitTest15MemoryOutStreamE
 9965              		.section	.rodata._ZTSN8UnitTest15MemoryOutStreamE,"aG",@progbits,_ZTSN8UnitTest15MemoryOutStreamE,
 9966              		.align 16
 9969              	_ZTSN8UnitTest15MemoryOutStreamE:
 9970 0000 4E38556E 		.string	"N8UnitTest15MemoryOutStreamE"
 9970      69745465 
 9970      73743135 
 9970      4D656D6F 
 9970      72794F75 
 9971              		.weak	_ZTIN8UnitTest15MemoryOutStreamE
 9972              		.section	.rodata._ZTIN8UnitTest15MemoryOutStreamE,"aG",@progbits,_ZTIN8UnitTest15MemoryOutStreamE,
 9973              		.align 8
 9976              	_ZTIN8UnitTest15MemoryOutStreamE:
 9977 0000 00000000 		.quad	_ZTVN10__cxxabiv120__si_class_type_infoE+16
 9977      00000000 
 9978 0008 00000000 		.quad	_ZTSN8UnitTest15MemoryOutStreamE
 9978      00000000 
 9979 0010 00000000 		.quad	_ZTINSt7__cxx1119basic_ostringstreamIcSt11char_traitsIcESaIcEEE
 9979      00000000 
 9980              		.section	.rodata
 9981              		.align 8
 9984              	_ZTIN12_GLOBAL__N_154TestXmlTestReporterFixtureMultipleCharactersAreEscapedE:
 9985 0000 00000000 		.quad	_ZTVN10__cxxabiv120__si_class_type_infoE+16
 9985      00000000 
 9986 0008 00000000 		.quad	_ZTSN12_GLOBAL__N_154TestXmlTestReporterFixtureMultipleCharactersAreEscapedE
 9986      00000000 
 9987 0010 00000000 		.quad	_ZTIN8UnitTest4TestE
 9987      00000000 
 9988 0018 00000000 		.align 32
 9988      00000000 
 9991              	_ZTSN12_GLOBAL__N_154TestXmlTestReporterFixtureMultipleCharactersAreEscapedE:
 9992 0020 2A4E3132 		.string	"*N12_GLOBAL__N_154TestXmlTestReporterFixtureMultipleCharactersAreEscapedE"
 9992      5F474C4F 
 9992      42414C5F 
 9992      5F4E5F31 
 9992      35345465 
 9993 006a 00000000 		.align 8
 9993      0000
 9996              	_ZTIN12_GLOBAL__N_166TestXmlTestReporterFixtureOutputIsCachedUntilReportSummaryIsCalledE:
 9997 0070 00000000 		.quad	_ZTVN10__cxxabiv120__si_class_type_infoE+16
 9997      00000000 
 9998 0078 00000000 		.quad	_ZTSN12_GLOBAL__N_166TestXmlTestReporterFixtureOutputIsCachedUntilReportSummaryIsCalledE
 9998      00000000 
 9999 0080 00000000 		.quad	_ZTIN8UnitTest4TestE
 9999      00000000 
 10000 0088 00000000 		.align 32
 10000      00000000 
 10000      00000000 
 10000      00000000 
 10000      00000000 
 10003              	_ZTSN12_GLOBAL__N_166TestXmlTestReporterFixtureOutputIsCachedUntilReportSummaryIsCalledE:
 10004 00a0 2A4E3132 		.string	"*N12_GLOBAL__N_166TestXmlTestReporterFixtureOutputIsCachedUntilReportSummaryIsCalledE"
 10004      5F474C4F 
 10004      42414C5F 
 10004      5F4E5F31 
 10004      36365465 
 10005 00f6 0000     		.align 8
 10008              	_ZTIN12_GLOBAL__N_150TestXmlTestReporterFixtureEmptyReportSummaryFormatE:
 10009 00f8 00000000 		.quad	_ZTVN10__cxxabiv120__si_class_type_infoE+16
 10009      00000000 
 10010 0100 00000000 		.quad	_ZTSN12_GLOBAL__N_150TestXmlTestReporterFixtureEmptyReportSummaryFormatE
 10010      00000000 
 10011 0108 00000000 		.quad	_ZTIN8UnitTest4TestE
 10011      00000000 
 10012 0110 00000000 		.align 32
 10012      00000000 
 10012      00000000 
 10012      00000000 
 10015              	_ZTSN12_GLOBAL__N_150TestXmlTestReporterFixtureEmptyReportSummaryFormatE:
 10016 0120 2A4E3132 		.string	"*N12_GLOBAL__N_150TestXmlTestReporterFixtureEmptyReportSummaryFormatE"
 10016      5F474C4F 
 10016      42414C5F 
 10016      5F4E5F31 
 10016      35305465 
 10017 0166 0000     		.align 8
 10020              	_ZTIN12_GLOBAL__N_165TestXmlTestReporterFixtureSingleSuccessfulTestReportSummaryFormatE:
 10021 0168 00000000 		.quad	_ZTVN10__cxxabiv120__si_class_type_infoE+16
 10021      00000000 
 10022 0170 00000000 		.quad	_ZTSN12_GLOBAL__N_165TestXmlTestReporterFixtureSingleSuccessfulTestReportSummaryFormatE
 10022      00000000 
 10023 0178 00000000 		.quad	_ZTIN8UnitTest4TestE
 10023      00000000 
 10024              		.align 32
 10027              	_ZTSN12_GLOBAL__N_165TestXmlTestReporterFixtureSingleSuccessfulTestReportSummaryFormatE:
 10028 0180 2A4E3132 		.string	"*N12_GLOBAL__N_165TestXmlTestReporterFixtureSingleSuccessfulTestReportSummaryFormatE"
 10028      5F474C4F 
 10028      42414C5F 
 10028      5F4E5F31 
 10028      36355465 
 10029 01d5 000000   		.align 8
 10032              	_ZTIN12_GLOBAL__N_161TestXmlTestReporterFixtureSingleFailedTestReportSummaryFormatE:
 10033 01d8 00000000 		.quad	_ZTVN10__cxxabiv120__si_class_type_infoE+16
 10033      00000000 
 10034 01e0 00000000 		.quad	_ZTSN12_GLOBAL__N_161TestXmlTestReporterFixtureSingleFailedTestReportSummaryFormatE
 10034      00000000 
 10035 01e8 00000000 		.quad	_ZTIN8UnitTest4TestE
 10035      00000000 
 10036 01f0 00000000 		.align 32
 10036      00000000 
 10036      00000000 
 10036      00000000 
 10039              	_ZTSN12_GLOBAL__N_161TestXmlTestReporterFixtureSingleFailedTestReportSummaryFormatE:
 10040 0200 2A4E3132 		.string	"*N12_GLOBAL__N_161TestXmlTestReporterFixtureSingleFailedTestReportSummaryFormatE"
 10040      5F474C4F 
 10040      42414C5F 
 10040      5F4E5F31 
 10040      36315465 
 10041 0251 00000000 		.align 8
 10041      000000
 10044              	_ZTIN12_GLOBAL__N_152TestXmlTestReporterFixtureFailureMessageIsXMLEscapedE:
 10045 0258 00000000 		.quad	_ZTVN10__cxxabiv120__si_class_type_infoE+16
 10045      00000000 
 10046 0260 00000000 		.quad	_ZTSN12_GLOBAL__N_152TestXmlTestReporterFixtureFailureMessageIsXMLEscapedE
 10046      00000000 
 10047 0268 00000000 		.quad	_ZTIN8UnitTest4TestE
 10047      00000000 
 10048 0270 00000000 		.align 32
 10048      00000000 
 10048      00000000 
 10048      00000000 
 10051              	_ZTSN12_GLOBAL__N_152TestXmlTestReporterFixtureFailureMessageIsXMLEscapedE:
 10052 0280 2A4E3132 		.string	"*N12_GLOBAL__N_152TestXmlTestReporterFixtureFailureMessageIsXMLEscapedE"
 10052      5F474C4F 
 10052      42414C5F 
 10052      5F4E5F31 
 10052      35325465 
 10053              		.align 8
 10056              	_ZTIN12_GLOBAL__N_149TestXmlTestReporterFixtureOneFailureAndOneSuccessE:
 10057 02c8 00000000 		.quad	_ZTVN10__cxxabiv120__si_class_type_infoE+16
 10057      00000000 
 10058 02d0 00000000 		.quad	_ZTSN12_GLOBAL__N_149TestXmlTestReporterFixtureOneFailureAndOneSuccessE
 10058      00000000 
 10059 02d8 00000000 		.quad	_ZTIN8UnitTest4TestE
 10059      00000000 
 10060              		.align 32
 10063              	_ZTSN12_GLOBAL__N_149TestXmlTestReporterFixtureOneFailureAndOneSuccessE:
 10064 02e0 2A4E3132 		.string	"*N12_GLOBAL__N_149TestXmlTestReporterFixtureOneFailureAndOneSuccessE"
 10064      5F474C4F 
 10064      42414C5F 
 10064      5F4E5F31 
 10064      34395465 
 10065 0325 000000   		.align 8
 10068              	_ZTIN12_GLOBAL__N_142TestXmlTestReporterFixtureMultipleFailuresE:
 10069 0328 00000000 		.quad	_ZTVN10__cxxabiv120__si_class_type_infoE+16
 10069      00000000 
 10070 0330 00000000 		.quad	_ZTSN12_GLOBAL__N_142TestXmlTestReporterFixtureMultipleFailuresE
 10070      00000000 
 10071 0338 00000000 		.quad	_ZTIN8UnitTest4TestE
 10071      00000000 
 10072              		.align 32
 10075              	_ZTSN12_GLOBAL__N_142TestXmlTestReporterFixtureMultipleFailuresE:
 10076 0340 2A4E3132 		.string	"*N12_GLOBAL__N_142TestXmlTestReporterFixtureMultipleFailuresE"
 10076      5F474C4F 
 10076      42414C5F 
 10076      5F4E5F31 
 10076      34325465 
 10077              		.hidden	_ZTCN8UnitTest15MemoryOutStreamE0_So
 10078              		.weak	_ZTCN8UnitTest15MemoryOutStreamE0_So
 10079              		.section	.rodata._ZTCN8UnitTest15MemoryOutStreamE0_So,"aG",@progbits,_ZTVN8UnitTest15MemoryOutStre
 10080              		.align 8
 10083              	_ZTCN8UnitTest15MemoryOutStreamE0_So:
 10084 0000 90000000 		.quad	144
 10084      00000000 
 10085 0008 00000000 		.quad	0
 10085      00000000 
 10086 0010 00000000 		.quad	_ZTISo
 10086      00000000 
 10087 0018 00000000 		.quad	0
 10087      00000000 
 10088 0020 00000000 		.quad	0
 10088      00000000 
 10089 0028 70FFFFFF 		.quad	-144
 10089      FFFFFFFF 
 10090 0030 70FFFFFF 		.quad	-144
 10090      FFFFFFFF 
 10091 0038 00000000 		.quad	_ZTISo
 10091      00000000 
 10092 0040 00000000 		.quad	0
 10092      00000000 
 10093 0048 00000000 		.quad	0
 10093      00000000 
 10094              		.hidden	_ZTCN8UnitTest15MemoryOutStreamE0_NSt7__cxx1119basic_ostringstreamIcSt11char_traitsIcESaIc
 10095              		.weak	_ZTCN8UnitTest15MemoryOutStreamE0_NSt7__cxx1119basic_ostringstreamIcSt11char_traitsIcESaIcEE
 10096              		.section	.rodata._ZTCN8UnitTest15MemoryOutStreamE0_NSt7__cxx1119basic_ostringstreamIcSt11char_trai
 10097              		.align 8
 10100              	_ZTCN8UnitTest15MemoryOutStreamE0_NSt7__cxx1119basic_ostringstreamIcSt11char_traitsIcESaIcEEE:
 10101 0000 90000000 		.quad	144
 10101      00000000 
 10102 0008 00000000 		.quad	0
 10102      00000000 
 10103 0010 00000000 		.quad	_ZTINSt7__cxx1119basic_ostringstreamIcSt11char_traitsIcESaIcEEE
 10103      00000000 
 10104 0018 00000000 		.quad	0
 10104      00000000 
 10105 0020 00000000 		.quad	0
 10105      00000000 
 10106 0028 70FFFFFF 		.quad	-144
 10106      FFFFFFFF 
 10107 0030 70FFFFFF 		.quad	-144
 10107      FFFFFFFF 
 10108 0038 00000000 		.quad	_ZTINSt7__cxx1119basic_ostringstreamIcSt11char_traitsIcESaIcEEE
 10108      00000000 
 10109 0040 00000000 		.quad	0
 10109      00000000 
 10110 0048 00000000 		.quad	0
 10110      00000000 
 10111              		.weak	_ZTTN8UnitTest15MemoryOutStreamE
 10112              		.section	.rodata._ZTTN8UnitTest15MemoryOutStreamE,"aG",@progbits,_ZTVN8UnitTest15MemoryOutStreamE,
 10113              		.align 8
 10116              	_ZTTN8UnitTest15MemoryOutStreamE:
 10117 0000 00000000 		.quad	_ZTVN8UnitTest15MemoryOutStreamE+24
 10117      00000000 
 10118 0008 00000000 		.quad	_ZTCN8UnitTest15MemoryOutStreamE0_NSt7__cxx1119basic_ostringstreamIcSt11char_traitsIcESaIcEE
 10118      00000000 
 10119 0010 00000000 		.quad	_ZTCN8UnitTest15MemoryOutStreamE0_So+24
 10119      00000000 
 10120 0018 00000000 		.quad	_ZTCN8UnitTest15MemoryOutStreamE0_So+64
 10120      00000000 
 10121 0020 00000000 		.quad	_ZTCN8UnitTest15MemoryOutStreamE0_NSt7__cxx1119basic_ostringstreamIcSt11char_traitsIcESaIcEE
 10121      00000000 
 10122 0028 00000000 		.quad	_ZTVN8UnitTest15MemoryOutStreamE+64
 10122      00000000 
 10123              		.weak	_ZTVN8UnitTest15MemoryOutStreamE
 10124              		.section	.rodata._ZTVN8UnitTest15MemoryOutStreamE,"aG",@progbits,_ZTVN8UnitTest15MemoryOutStreamE,
 10125              		.align 8
 10128              	_ZTVN8UnitTest15MemoryOutStreamE:
 10129 0000 90000000 		.quad	144
 10129      00000000 
 10130 0008 00000000 		.quad	0
 10130      00000000 
 10131 0010 00000000 		.quad	_ZTIN8UnitTest15MemoryOutStreamE
 10131      00000000 
 10132 0018 00000000 		.quad	_ZN8UnitTest15MemoryOutStreamD1Ev
 10132      00000000 
 10133 0020 00000000 		.quad	_ZN8UnitTest15MemoryOutStreamD0Ev
 10133      00000000 
 10134 0028 70FFFFFF 		.quad	-144
 10134      FFFFFFFF 
 10135 0030 70FFFFFF 		.quad	-144
 10135      FFFFFFFF 
 10136 0038 00000000 		.quad	_ZTIN8UnitTest15MemoryOutStreamE
 10136      00000000 
 10137 0040 00000000 		.quad	_ZTv0_n24_N8UnitTest15MemoryOutStreamD1Ev
 10137      00000000 
 10138 0048 00000000 		.quad	_ZTv0_n24_N8UnitTest15MemoryOutStreamD0Ev
 10138      00000000 
 10139              		.section	.rodata
 10140 037e 0000     		.align 8
 10143              	_ZTVN12_GLOBAL__N_154TestXmlTestReporterFixtureMultipleCharactersAreEscapedE:
 10144 0380 00000000 		.quad	0
 10144      00000000 
 10145 0388 00000000 		.quad	_ZTIN12_GLOBAL__N_154TestXmlTestReporterFixtureMultipleCharactersAreEscapedE
 10145      00000000 
 10146 0390 00000000 		.quad	_ZN12_GLOBAL__N_154TestXmlTestReporterFixtureMultipleCharactersAreEscapedD1Ev
 10146      00000000 
 10147 0398 00000000 		.quad	_ZN12_GLOBAL__N_154TestXmlTestReporterFixtureMultipleCharactersAreEscapedD0Ev
 10147      00000000 
 10148 03a0 00000000 		.quad	_ZNK12_GLOBAL__N_154TestXmlTestReporterFixtureMultipleCharactersAreEscaped7RunImplEv
 10148      00000000 
 10149              		.align 8
 10152              	_ZTVN12_GLOBAL__N_166TestXmlTestReporterFixtureOutputIsCachedUntilReportSummaryIsCalledE:
 10153 03a8 00000000 		.quad	0
 10153      00000000 
 10154 03b0 00000000 		.quad	_ZTIN12_GLOBAL__N_166TestXmlTestReporterFixtureOutputIsCachedUntilReportSummaryIsCalledE
 10154      00000000 
 10155 03b8 00000000 		.quad	_ZN12_GLOBAL__N_166TestXmlTestReporterFixtureOutputIsCachedUntilReportSummaryIsCalledD1Ev
 10155      00000000 
 10156 03c0 00000000 		.quad	_ZN12_GLOBAL__N_166TestXmlTestReporterFixtureOutputIsCachedUntilReportSummaryIsCalledD0Ev
 10156      00000000 
 10157 03c8 00000000 		.quad	_ZNK12_GLOBAL__N_166TestXmlTestReporterFixtureOutputIsCachedUntilReportSummaryIsCalled7RunIm
 10157      00000000 
 10158              		.align 8
 10161              	_ZTVN12_GLOBAL__N_150TestXmlTestReporterFixtureEmptyReportSummaryFormatE:
 10162 03d0 00000000 		.quad	0
 10162      00000000 
 10163 03d8 00000000 		.quad	_ZTIN12_GLOBAL__N_150TestXmlTestReporterFixtureEmptyReportSummaryFormatE
 10163      00000000 
 10164 03e0 00000000 		.quad	_ZN12_GLOBAL__N_150TestXmlTestReporterFixtureEmptyReportSummaryFormatD1Ev
 10164      00000000 
 10165 03e8 00000000 		.quad	_ZN12_GLOBAL__N_150TestXmlTestReporterFixtureEmptyReportSummaryFormatD0Ev
 10165      00000000 
 10166 03f0 00000000 		.quad	_ZNK12_GLOBAL__N_150TestXmlTestReporterFixtureEmptyReportSummaryFormat7RunImplEv
 10166      00000000 
 10167              		.align 8
 10170              	_ZTVN12_GLOBAL__N_165TestXmlTestReporterFixtureSingleSuccessfulTestReportSummaryFormatE:
 10171 03f8 00000000 		.quad	0
 10171      00000000 
 10172 0400 00000000 		.quad	_ZTIN12_GLOBAL__N_165TestXmlTestReporterFixtureSingleSuccessfulTestReportSummaryFormatE
 10172      00000000 
 10173 0408 00000000 		.quad	_ZN12_GLOBAL__N_165TestXmlTestReporterFixtureSingleSuccessfulTestReportSummaryFormatD1Ev
 10173      00000000 
 10174 0410 00000000 		.quad	_ZN12_GLOBAL__N_165TestXmlTestReporterFixtureSingleSuccessfulTestReportSummaryFormatD0Ev
 10174      00000000 
 10175 0418 00000000 		.quad	_ZNK12_GLOBAL__N_165TestXmlTestReporterFixtureSingleSuccessfulTestReportSummaryFormat7RunImp
 10175      00000000 
 10176              		.align 8
 10179              	_ZTVN12_GLOBAL__N_161TestXmlTestReporterFixtureSingleFailedTestReportSummaryFormatE:
 10180 0420 00000000 		.quad	0
 10180      00000000 
 10181 0428 00000000 		.quad	_ZTIN12_GLOBAL__N_161TestXmlTestReporterFixtureSingleFailedTestReportSummaryFormatE
 10181      00000000 
 10182 0430 00000000 		.quad	_ZN12_GLOBAL__N_161TestXmlTestReporterFixtureSingleFailedTestReportSummaryFormatD1Ev
 10182      00000000 
 10183 0438 00000000 		.quad	_ZN12_GLOBAL__N_161TestXmlTestReporterFixtureSingleFailedTestReportSummaryFormatD0Ev
 10183      00000000 
 10184 0440 00000000 		.quad	_ZNK12_GLOBAL__N_161TestXmlTestReporterFixtureSingleFailedTestReportSummaryFormat7RunImplEv
 10184      00000000 
 10185              		.align 8
 10188              	_ZTVN12_GLOBAL__N_152TestXmlTestReporterFixtureFailureMessageIsXMLEscapedE:
 10189 0448 00000000 		.quad	0
 10189      00000000 
 10190 0450 00000000 		.quad	_ZTIN12_GLOBAL__N_152TestXmlTestReporterFixtureFailureMessageIsXMLEscapedE
 10190      00000000 
 10191 0458 00000000 		.quad	_ZN12_GLOBAL__N_152TestXmlTestReporterFixtureFailureMessageIsXMLEscapedD1Ev
 10191      00000000 
 10192 0460 00000000 		.quad	_ZN12_GLOBAL__N_152TestXmlTestReporterFixtureFailureMessageIsXMLEscapedD0Ev
 10192      00000000 
 10193 0468 00000000 		.quad	_ZNK12_GLOBAL__N_152TestXmlTestReporterFixtureFailureMessageIsXMLEscaped7RunImplEv
 10193      00000000 
 10194              		.align 8
 10197              	_ZTVN12_GLOBAL__N_149TestXmlTestReporterFixtureOneFailureAndOneSuccessE:
 10198 0470 00000000 		.quad	0
 10198      00000000 
 10199 0478 00000000 		.quad	_ZTIN12_GLOBAL__N_149TestXmlTestReporterFixtureOneFailureAndOneSuccessE
 10199      00000000 
 10200 0480 00000000 		.quad	_ZN12_GLOBAL__N_149TestXmlTestReporterFixtureOneFailureAndOneSuccessD1Ev
 10200      00000000 
 10201 0488 00000000 		.quad	_ZN12_GLOBAL__N_149TestXmlTestReporterFixtureOneFailureAndOneSuccessD0Ev
 10201      00000000 
 10202 0490 00000000 		.quad	_ZNK12_GLOBAL__N_149TestXmlTestReporterFixtureOneFailureAndOneSuccess7RunImplEv
 10202      00000000 
 10203              		.align 8
 10206              	_ZTVN12_GLOBAL__N_142TestXmlTestReporterFixtureMultipleFailuresE:
 10207 0498 00000000 		.quad	0
 10207      00000000 
 10208 04a0 00000000 		.quad	_ZTIN12_GLOBAL__N_142TestXmlTestReporterFixtureMultipleFailuresE
 10208      00000000 
 10209 04a8 00000000 		.quad	_ZN12_GLOBAL__N_142TestXmlTestReporterFixtureMultipleFailuresD1Ev
 10209      00000000 
 10210 04b0 00000000 		.quad	_ZN12_GLOBAL__N_142TestXmlTestReporterFixtureMultipleFailuresD0Ev
 10210      00000000 
 10211 04b8 00000000 		.quad	_ZNK12_GLOBAL__N_142TestXmlTestReporterFixtureMultipleFailures7RunImplEv
 10211      00000000 
 10212              		.local	_ZN12_GLOBAL__N_143adderXmlTestReporterFixtureMultipleFailuresE
 10213              		.comm	_ZN12_GLOBAL__N_143adderXmlTestReporterFixtureMultipleFailuresE,1,1
 10214              		.local	_ZN12_GLOBAL__N_150testXmlTestReporterFixtureMultipleFailuresInstanceE
 10215              		.comm	_ZN12_GLOBAL__N_150testXmlTestReporterFixtureMultipleFailuresInstanceE,56,32
 10216              		.local	_ZN12_GLOBAL__N_150adderXmlTestReporterFixtureOneFailureAndOneSuccessE
 10217              		.comm	_ZN12_GLOBAL__N_150adderXmlTestReporterFixtureOneFailureAndOneSuccessE,1,1
 10218              		.local	_ZN12_GLOBAL__N_157testXmlTestReporterFixtureOneFailureAndOneSuccessInstanceE
 10219              		.comm	_ZN12_GLOBAL__N_157testXmlTestReporterFixtureOneFailureAndOneSuccessInstanceE,56,32
 10220              		.local	_ZN12_GLOBAL__N_153adderXmlTestReporterFixtureFailureMessageIsXMLEscapedE
 10221              		.comm	_ZN12_GLOBAL__N_153adderXmlTestReporterFixtureFailureMessageIsXMLEscapedE,1,1
 10222              		.local	_ZN12_GLOBAL__N_160testXmlTestReporterFixtureFailureMessageIsXMLEscapedInstanceE
 10223              		.comm	_ZN12_GLOBAL__N_160testXmlTestReporterFixtureFailureMessageIsXMLEscapedInstanceE,56,32
 10224              		.local	_ZN12_GLOBAL__N_162adderXmlTestReporterFixtureSingleFailedTestReportSummaryFormatE
 10225              		.comm	_ZN12_GLOBAL__N_162adderXmlTestReporterFixtureSingleFailedTestReportSummaryFormatE,1,1
 10226              		.local	_ZN12_GLOBAL__N_169testXmlTestReporterFixtureSingleFailedTestReportSummaryFormatInstanceE
 10227              		.comm	_ZN12_GLOBAL__N_169testXmlTestReporterFixtureSingleFailedTestReportSummaryFormatInstanceE,56
 10228              		.local	_ZN12_GLOBAL__N_166adderXmlTestReporterFixtureSingleSuccessfulTestReportSummaryFormatE
 10229              		.comm	_ZN12_GLOBAL__N_166adderXmlTestReporterFixtureSingleSuccessfulTestReportSummaryFormatE,1,1
 10230              		.local	_ZN12_GLOBAL__N_173testXmlTestReporterFixtureSingleSuccessfulTestReportSummaryFormatInstanc
 10231              		.comm	_ZN12_GLOBAL__N_173testXmlTestReporterFixtureSingleSuccessfulTestReportSummaryFormatInstance
 10232              		.local	_ZN12_GLOBAL__N_151adderXmlTestReporterFixtureEmptyReportSummaryFormatE
 10233              		.comm	_ZN12_GLOBAL__N_151adderXmlTestReporterFixtureEmptyReportSummaryFormatE,1,1
 10234              		.local	_ZN12_GLOBAL__N_158testXmlTestReporterFixtureEmptyReportSummaryFormatInstanceE
 10235              		.comm	_ZN12_GLOBAL__N_158testXmlTestReporterFixtureEmptyReportSummaryFormatInstanceE,56,32
 10236              		.local	_ZN12_GLOBAL__N_167adderXmlTestReporterFixtureOutputIsCachedUntilReportSummaryIsCalledE
 10237              		.comm	_ZN12_GLOBAL__N_167adderXmlTestReporterFixtureOutputIsCachedUntilReportSummaryIsCalledE,1,1
 10238              		.local	_ZN12_GLOBAL__N_174testXmlTestReporterFixtureOutputIsCachedUntilReportSummaryIsCalledInstan
 10239              		.comm	_ZN12_GLOBAL__N_174testXmlTestReporterFixtureOutputIsCachedUntilReportSummaryIsCalledInstanc
 10240              		.local	_ZN12_GLOBAL__N_155adderXmlTestReporterFixtureMultipleCharactersAreEscapedE
 10241              		.comm	_ZN12_GLOBAL__N_155adderXmlTestReporterFixtureMultipleCharactersAreEscapedE,1,1
 10242              		.local	_ZN12_GLOBAL__N_162testXmlTestReporterFixtureMultipleCharactersAreEscapedInstanceE
 10243              		.comm	_ZN12_GLOBAL__N_162testXmlTestReporterFixtureMultipleCharactersAreEscapedInstanceE,56,32
 10244              		.section	.rodata.cst4,"aM",@progbits,4
 10245              		.align 4
 10246              	.LC26:
 10247 0000 0000803F 		.long	1065353216
 10248              		.align 4
 10249              	.LC47:
 10250 0004 CDCCCC3D 		.long	1036831949
 10251              		.align 4
 10252              	.LC48:
 10253 0008 CDCC8C3F 		.long	1066192077
 10254              		.hidden	__dso_handle
 10255              		.ident	"GCC: (Ubuntu 5.4.0-6ubuntu1~16.04.5) 5.4.0 20160609"
 10256              		.section	.note.GNU-stack,"",@progbits
DEFINED SYMBOLS
                            *ABS*:0000000000000000 TestXmlTestReporter.cpp
     /tmp/ccaCQaBG.s:10     .text:0000000000000000 _ZN12_GLOBAL__N_142TestXmlTestReporterFixtureMultipleFailuresD2Ev
     /tmp/ccaCQaBG.s:10206  .rodata:0000000000000498 _ZTVN12_GLOBAL__N_142TestXmlTestReporterFixtureMultipleFailuresE
     /tmp/ccaCQaBG.s:10     .text:0000000000000000 _ZN12_GLOBAL__N_142TestXmlTestReporterFixtureMultipleFailuresD1Ev
     /tmp/ccaCQaBG.s:31     .text:0000000000000010 _ZN12_GLOBAL__N_149TestXmlTestReporterFixtureOneFailureAndOneSuccessD2Ev
     /tmp/ccaCQaBG.s:10197  .rodata:0000000000000470 _ZTVN12_GLOBAL__N_149TestXmlTestReporterFixtureOneFailureAndOneSuccessE
     /tmp/ccaCQaBG.s:31     .text:0000000000000010 _ZN12_GLOBAL__N_149TestXmlTestReporterFixtureOneFailureAndOneSuccessD1Ev
     /tmp/ccaCQaBG.s:52     .text:0000000000000020 _ZN12_GLOBAL__N_152TestXmlTestReporterFixtureFailureMessageIsXMLEscapedD2Ev
     /tmp/ccaCQaBG.s:10188  .rodata:0000000000000448 _ZTVN12_GLOBAL__N_152TestXmlTestReporterFixtureFailureMessageIsXMLEscapedE
     /tmp/ccaCQaBG.s:52     .text:0000000000000020 _ZN12_GLOBAL__N_152TestXmlTestReporterFixtureFailureMessageIsXMLEscapedD1Ev
     /tmp/ccaCQaBG.s:73     .text:0000000000000030 _ZN12_GLOBAL__N_161TestXmlTestReporterFixtureSingleFailedTestReportSummaryFormatD2Ev
     /tmp/ccaCQaBG.s:10179  .rodata:0000000000000420 _ZTVN12_GLOBAL__N_161TestXmlTestReporterFixtureSingleFailedTestReportSummaryFormatE
     /tmp/ccaCQaBG.s:73     .text:0000000000000030 _ZN12_GLOBAL__N_161TestXmlTestReporterFixtureSingleFailedTestReportSummaryFormatD1Ev
     /tmp/ccaCQaBG.s:94     .text:0000000000000040 _ZN12_GLOBAL__N_165TestXmlTestReporterFixtureSingleSuccessfulTestReportSummaryFormatD2Ev
     /tmp/ccaCQaBG.s:10170  .rodata:00000000000003f8 _ZTVN12_GLOBAL__N_165TestXmlTestReporterFixtureSingleSuccessfulTestReportSummaryFormatE
     /tmp/ccaCQaBG.s:94     .text:0000000000000040 _ZN12_GLOBAL__N_165TestXmlTestReporterFixtureSingleSuccessfulTestReportSummaryFormatD1Ev
     /tmp/ccaCQaBG.s:115    .text:0000000000000050 _ZN12_GLOBAL__N_150TestXmlTestReporterFixtureEmptyReportSummaryFormatD2Ev
     /tmp/ccaCQaBG.s:10161  .rodata:00000000000003d0 _ZTVN12_GLOBAL__N_150TestXmlTestReporterFixtureEmptyReportSummaryFormatE
     /tmp/ccaCQaBG.s:115    .text:0000000000000050 _ZN12_GLOBAL__N_150TestXmlTestReporterFixtureEmptyReportSummaryFormatD1Ev
     /tmp/ccaCQaBG.s:136    .text:0000000000000060 _ZN12_GLOBAL__N_166TestXmlTestReporterFixtureOutputIsCachedUntilReportSummaryIsCalledD2Ev
     /tmp/ccaCQaBG.s:10152  .rodata:00000000000003a8 _ZTVN12_GLOBAL__N_166TestXmlTestReporterFixtureOutputIsCachedUntilReportSummaryIsCalledE
     /tmp/ccaCQaBG.s:136    .text:0000000000000060 _ZN12_GLOBAL__N_166TestXmlTestReporterFixtureOutputIsCachedUntilReportSummaryIsCalledD1Ev
     /tmp/ccaCQaBG.s:157    .text:0000000000000070 _ZN12_GLOBAL__N_154TestXmlTestReporterFixtureMultipleCharactersAreEscapedD2Ev
     /tmp/ccaCQaBG.s:10143  .rodata:0000000000000380 _ZTVN12_GLOBAL__N_154TestXmlTestReporterFixtureMultipleCharactersAreEscapedE
     /tmp/ccaCQaBG.s:157    .text:0000000000000070 _ZN12_GLOBAL__N_154TestXmlTestReporterFixtureMultipleCharactersAreEscapedD1Ev
     /tmp/ccaCQaBG.s:178    .text:0000000000000080 _ZN12_GLOBAL__N_142TestXmlTestReporterFixtureMultipleFailuresD0Ev
     /tmp/ccaCQaBG.s:206    .text:00000000000000a0 _ZN12_GLOBAL__N_149TestXmlTestReporterFixtureOneFailureAndOneSuccessD0Ev
     /tmp/ccaCQaBG.s:234    .text:00000000000000c0 _ZN12_GLOBAL__N_152TestXmlTestReporterFixtureFailureMessageIsXMLEscapedD0Ev
     /tmp/ccaCQaBG.s:262    .text:00000000000000e0 _ZN12_GLOBAL__N_161TestXmlTestReporterFixtureSingleFailedTestReportSummaryFormatD0Ev
     /tmp/ccaCQaBG.s:290    .text:0000000000000100 _ZN12_GLOBAL__N_165TestXmlTestReporterFixtureSingleSuccessfulTestReportSummaryFormatD0Ev
     /tmp/ccaCQaBG.s:318    .text:0000000000000120 _ZN12_GLOBAL__N_150TestXmlTestReporterFixtureEmptyReportSummaryFormatD0Ev
     /tmp/ccaCQaBG.s:346    .text:0000000000000140 _ZN12_GLOBAL__N_166TestXmlTestReporterFixtureOutputIsCachedUntilReportSummaryIsCalledD0Ev
     /tmp/ccaCQaBG.s:374    .text:0000000000000160 _ZN12_GLOBAL__N_154TestXmlTestReporterFixtureMultipleCharactersAreEscapedD0Ev
     /tmp/ccaCQaBG.s:403    .text._ZN8UnitTest15MemoryOutStreamD1Ev:0000000000000000 _ZN8UnitTest15MemoryOutStreamD1Ev
     /tmp/ccaCQaBG.s:10128  .rodata._ZTVN8UnitTest15MemoryOutStreamE:0000000000000000 _ZTVN8UnitTest15MemoryOutStreamE
     /tmp/ccaCQaBG.s:10100  .rodata._ZTCN8UnitTest15MemoryOutStreamE0_NSt7__cxx1119basic_ostringstreamIcSt11char_traitsIcESaIcEEE:0000000000000000 _ZTCN8UnitTest15MemoryOutStreamE0_NSt7__cxx1119basic_ostringstreamIcSt11char_traitsIcESaIcEEE
     /tmp/ccaCQaBG.s:450    .text._ZN8UnitTest15MemoryOutStreamD1Ev:0000000000000080 _ZTv0_n24_N8UnitTest15MemoryOutStreamD1Ev
     /tmp/ccaCQaBG.s:469    .text.unlikely:0000000000000000 _ZN12_GLOBAL__N_122XmlTestReporterFixtureD2Ev.constprop.46
     /tmp/ccaCQaBG.s:623    .text._ZN8UnitTest15MemoryOutStreamD0Ev:0000000000000000 _ZN8UnitTest15MemoryOutStreamD0Ev
     /tmp/ccaCQaBG.s:672    .text._ZN8UnitTest15MemoryOutStreamD0Ev:0000000000000090 _ZTv0_n24_N8UnitTest15MemoryOutStreamD0Ev
     /tmp/ccaCQaBG.s:694    .text._ZNSt7__cxx1115basic_stringbufIcSt11char_traitsIcESaIcEED2Ev:0000000000000000 _ZNSt7__cxx1115basic_stringbufIcSt11char_traitsIcESaIcEED2Ev
     /tmp/ccaCQaBG.s:694    .text._ZNSt7__cxx1115basic_stringbufIcSt11char_traitsIcESaIcEED2Ev:0000000000000000 _ZNSt7__cxx1115basic_stringbufIcSt11char_traitsIcESaIcEED1Ev
     /tmp/ccaCQaBG.s:731    .text._ZN8UnitTest15MemoryOutStreamC1Ev:0000000000000000 _ZN8UnitTest15MemoryOutStreamC1Ev
     /tmp/ccaCQaBG.s:10083  .rodata._ZTCN8UnitTest15MemoryOutStreamE0_So:0000000000000000 _ZTCN8UnitTest15MemoryOutStreamE0_So
     /tmp/ccaCQaBG.s:890    .text:0000000000000180 _ZN8UnitTest11ExecuteTestIN12_GLOBAL__N_168XmlTestReporterFixtureOutputIsCachedUntilReportSummaryIsCalledHelperEEEvRT_RKNS_11TestDetailsE.constprop.42
     /tmp/ccaCQaBG.s:1742   .text:0000000000000b60 _ZNK12_GLOBAL__N_166TestXmlTestReporterFixtureOutputIsCachedUntilReportSummaryIsCalled7RunImplEv
     /tmp/ccaCQaBG.s:2205   .text._ZNSt7__cxx1115basic_stringbufIcSt11char_traitsIcESaIcEED0Ev:0000000000000000 _ZNSt7__cxx1115basic_stringbufIcSt11char_traitsIcESaIcEED0Ev
     /tmp/ccaCQaBG.s:2245   .text._ZN8UnitTest10CheckEqualIPKcNSt7__cxx1112basic_stringIcSt11char_traitsIcESaIcEEEEEvRNS_11TestResultsERKT_RKT0_RKNS_11TestDetailsE:0000000000000000 _ZN8UnitTest10CheckEqualIPKcNSt7__cxx1112basic_stringIcSt11char_traitsIcESaIcEEEEEvRNS_11TestResultsERKT_RKT0_RKNS_11TestDetailsE
     /tmp/ccaCQaBG.s:2520   .text:0000000000001080 _ZN8UnitTest11ExecuteTestIN12_GLOBAL__N_144XmlTestReporterFixtureMultipleFailuresHelperEEEvRT_RKNS_11TestDetailsE.constprop.30
     /tmp/ccaCQaBG.s:3103   .text:00000000000016d0 _ZNK12_GLOBAL__N_142TestXmlTestReporterFixtureMultipleFailures7RunImplEv
     /tmp/ccaCQaBG.s:3571   .text:0000000000001bf0 _ZN8UnitTest11ExecuteTestIN12_GLOBAL__N_151XmlTestReporterFixtureOneFailureAndOneSuccessHelperEEEvRT_RKNS_11TestDetailsE.constprop.32
     /tmp/ccaCQaBG.s:4157   .text:0000000000002250 _ZNK12_GLOBAL__N_149TestXmlTestReporterFixtureOneFailureAndOneSuccess7RunImplEv
     /tmp/ccaCQaBG.s:4628   .text:0000000000002770 _ZN8UnitTest11ExecuteTestIN12_GLOBAL__N_154XmlTestReporterFixtureFailureMessageIsXMLEscapedHelperEEEvRT_RKNS_11TestDetailsE.constprop.34
     /tmp/ccaCQaBG.s:5201   .text:0000000000002d90 _ZNK12_GLOBAL__N_152TestXmlTestReporterFixtureFailureMessageIsXMLEscaped7RunImplEv
     /tmp/ccaCQaBG.s:5672   .text:00000000000032b0 _ZN8UnitTest11ExecuteTestIN12_GLOBAL__N_163XmlTestReporterFixtureSingleFailedTestReportSummaryFormatHelperEEEvRT_RKNS_11TestDetailsE.constprop.36
     /tmp/ccaCQaBG.s:6241   .text:00000000000038c0 _ZNK12_GLOBAL__N_161TestXmlTestReporterFixtureSingleFailedTestReportSummaryFormat7RunImplEv
     /tmp/ccaCQaBG.s:6708   .text:0000000000003de0 _ZN8UnitTest11ExecuteTestIN12_GLOBAL__N_167XmlTestReporterFixtureSingleSuccessfulTestReportSummaryFormatHelperEEEvRT_RKNS_11TestDetailsE.constprop.38
     /tmp/ccaCQaBG.s:7273   .text:00000000000043d0 _ZNK12_GLOBAL__N_165TestXmlTestReporterFixtureSingleSuccessfulTestReportSummaryFormat7RunImplEv
     /tmp/ccaCQaBG.s:7737   .text:00000000000048f0 _ZN8UnitTest11ExecuteTestIN12_GLOBAL__N_152XmlTestReporterFixtureEmptyReportSummaryFormatHelperEEEvRT_RKNS_11TestDetailsE.constprop.40
     /tmp/ccaCQaBG.s:8293   .text:0000000000004eb0 _ZNK12_GLOBAL__N_150TestXmlTestReporterFixtureEmptyReportSummaryFormat7RunImplEv
     /tmp/ccaCQaBG.s:8760   .text:00000000000053d0 _ZN8UnitTest11ExecuteTestIN12_GLOBAL__N_156XmlTestReporterFixtureMultipleCharactersAreEscapedHelperEEEvRT_RKNS_11TestDetailsE.constprop.44
     /tmp/ccaCQaBG.s:9333   .text:00000000000059f0 _ZNK12_GLOBAL__N_154TestXmlTestReporterFixtureMultipleCharactersAreEscaped7RunImplEv
     /tmp/ccaCQaBG.s:9819   .text.startup:0000000000000000 _GLOBAL__sub_I_TestXmlTestReporter.cpp
     /tmp/ccaCQaBG.s:10243  .bss:00000000000001e0 _ZN12_GLOBAL__N_162testXmlTestReporterFixtureMultipleCharactersAreEscapedInstanceE
     /tmp/ccaCQaBG.s:10239  .bss:00000000000001d8 _ZN12_GLOBAL__N_155adderXmlTestReporterFixtureMultipleCharactersAreEscapedE
     /tmp/ccaCQaBG.s:10239  .bss:00000000000001a0 _ZN12_GLOBAL__N_174testXmlTestReporterFixtureOutputIsCachedUntilReportSummaryIsCalledInstanceE
     /tmp/ccaCQaBG.s:10235  .bss:0000000000000198 _ZN12_GLOBAL__N_167adderXmlTestReporterFixtureOutputIsCachedUntilReportSummaryIsCalledE
     /tmp/ccaCQaBG.s:10235  .bss:0000000000000160 _ZN12_GLOBAL__N_158testXmlTestReporterFixtureEmptyReportSummaryFormatInstanceE
     /tmp/ccaCQaBG.s:10231  .bss:0000000000000158 _ZN12_GLOBAL__N_151adderXmlTestReporterFixtureEmptyReportSummaryFormatE
     /tmp/ccaCQaBG.s:10231  .bss:0000000000000120 _ZN12_GLOBAL__N_173testXmlTestReporterFixtureSingleSuccessfulTestReportSummaryFormatInstanceE
     /tmp/ccaCQaBG.s:10227  .bss:0000000000000118 _ZN12_GLOBAL__N_166adderXmlTestReporterFixtureSingleSuccessfulTestReportSummaryFormatE
     /tmp/ccaCQaBG.s:10227  .bss:00000000000000e0 _ZN12_GLOBAL__N_169testXmlTestReporterFixtureSingleFailedTestReportSummaryFormatInstanceE
     /tmp/ccaCQaBG.s:10223  .bss:00000000000000d8 _ZN12_GLOBAL__N_162adderXmlTestReporterFixtureSingleFailedTestReportSummaryFormatE
     /tmp/ccaCQaBG.s:10223  .bss:00000000000000a0 _ZN12_GLOBAL__N_160testXmlTestReporterFixtureFailureMessageIsXMLEscapedInstanceE
     /tmp/ccaCQaBG.s:10219  .bss:0000000000000098 _ZN12_GLOBAL__N_153adderXmlTestReporterFixtureFailureMessageIsXMLEscapedE
     /tmp/ccaCQaBG.s:10219  .bss:0000000000000060 _ZN12_GLOBAL__N_157testXmlTestReporterFixtureOneFailureAndOneSuccessInstanceE
     /tmp/ccaCQaBG.s:10215  .bss:0000000000000058 _ZN12_GLOBAL__N_150adderXmlTestReporterFixtureOneFailureAndOneSuccessE
     /tmp/ccaCQaBG.s:10215  .bss:0000000000000020 _ZN12_GLOBAL__N_150testXmlTestReporterFixtureMultipleFailuresInstanceE
                             .bss:0000000000000000 _ZN12_GLOBAL__N_143adderXmlTestReporterFixtureMultipleFailuresE
     /tmp/ccaCQaBG.s:9969   .rodata._ZTSN8UnitTest15MemoryOutStreamE:0000000000000000 _ZTSN8UnitTest15MemoryOutStreamE
     /tmp/ccaCQaBG.s:9976   .rodata._ZTIN8UnitTest15MemoryOutStreamE:0000000000000000 _ZTIN8UnitTest15MemoryOutStreamE
     /tmp/ccaCQaBG.s:9984   .rodata:0000000000000000 _ZTIN12_GLOBAL__N_154TestXmlTestReporterFixtureMultipleCharactersAreEscapedE
     /tmp/ccaCQaBG.s:9991   .rodata:0000000000000020 _ZTSN12_GLOBAL__N_154TestXmlTestReporterFixtureMultipleCharactersAreEscapedE
     /tmp/ccaCQaBG.s:9996   .rodata:0000000000000070 _ZTIN12_GLOBAL__N_166TestXmlTestReporterFixtureOutputIsCachedUntilReportSummaryIsCalledE
     /tmp/ccaCQaBG.s:10003  .rodata:00000000000000a0 _ZTSN12_GLOBAL__N_166TestXmlTestReporterFixtureOutputIsCachedUntilReportSummaryIsCalledE
     /tmp/ccaCQaBG.s:10008  .rodata:00000000000000f8 _ZTIN12_GLOBAL__N_150TestXmlTestReporterFixtureEmptyReportSummaryFormatE
     /tmp/ccaCQaBG.s:10015  .rodata:0000000000000120 _ZTSN12_GLOBAL__N_150TestXmlTestReporterFixtureEmptyReportSummaryFormatE
     /tmp/ccaCQaBG.s:10020  .rodata:0000000000000168 _ZTIN12_GLOBAL__N_165TestXmlTestReporterFixtureSingleSuccessfulTestReportSummaryFormatE
     /tmp/ccaCQaBG.s:10027  .rodata:0000000000000180 _ZTSN12_GLOBAL__N_165TestXmlTestReporterFixtureSingleSuccessfulTestReportSummaryFormatE
     /tmp/ccaCQaBG.s:10032  .rodata:00000000000001d8 _ZTIN12_GLOBAL__N_161TestXmlTestReporterFixtureSingleFailedTestReportSummaryFormatE
     /tmp/ccaCQaBG.s:10039  .rodata:0000000000000200 _ZTSN12_GLOBAL__N_161TestXmlTestReporterFixtureSingleFailedTestReportSummaryFormatE
     /tmp/ccaCQaBG.s:10044  .rodata:0000000000000258 _ZTIN12_GLOBAL__N_152TestXmlTestReporterFixtureFailureMessageIsXMLEscapedE
     /tmp/ccaCQaBG.s:10051  .rodata:0000000000000280 _ZTSN12_GLOBAL__N_152TestXmlTestReporterFixtureFailureMessageIsXMLEscapedE
     /tmp/ccaCQaBG.s:10056  .rodata:00000000000002c8 _ZTIN12_GLOBAL__N_149TestXmlTestReporterFixtureOneFailureAndOneSuccessE
     /tmp/ccaCQaBG.s:10063  .rodata:00000000000002e0 _ZTSN12_GLOBAL__N_149TestXmlTestReporterFixtureOneFailureAndOneSuccessE
     /tmp/ccaCQaBG.s:10068  .rodata:0000000000000328 _ZTIN12_GLOBAL__N_142TestXmlTestReporterFixtureMultipleFailuresE
     /tmp/ccaCQaBG.s:10075  .rodata:0000000000000340 _ZTSN12_GLOBAL__N_142TestXmlTestReporterFixtureMultipleFailuresE
     /tmp/ccaCQaBG.s:10116  .rodata._ZTTN8UnitTest15MemoryOutStreamE:0000000000000000 _ZTTN8UnitTest15MemoryOutStreamE
     /tmp/ccaCQaBG.s:10246  .rodata.cst4:0000000000000000 .LC26
     /tmp/ccaCQaBG.s:10249  .rodata.cst4:0000000000000004 .LC47
     /tmp/ccaCQaBG.s:10252  .rodata.cst4:0000000000000008 .LC48
                           .group:0000000000000000 _ZNSt7__cxx1115basic_stringbufIcSt11char_traitsIcESaIcEED5Ev

UNDEFINED SYMBOLS
_ZN8UnitTest4TestD2Ev
_ZdlPv
_ZTVNSt7__cxx1115basic_stringbufIcSt11char_traitsIcESaIcEEE
_ZTVSt15basic_streambufIcSt11char_traitsIcEE
_ZNSt6localeD1Ev
_ZTVSt9basic_iosIcSt11char_traitsIcEE
_ZNSt8ios_baseD2Ev
__gxx_personality_v0
_ZTVN8UnitTest20DeferredTestReporterE
_ZN8UnitTest12TestReporterD2Ev
_ZTVNSt7__cxx1119basic_ostringstreamIcSt11char_traitsIcESaIcEEE
_ZTTNSt7__cxx1119basic_ostringstreamIcSt11char_traitsIcESaIcEEE
_ZNSt7__cxx1119basic_ostringstreamIcSt11char_traitsIcESaIcEED1Ev
_Unwind_Resume
_ZNSt8ios_baseC2Ev
_ZNSt9basic_iosIcSt11char_traitsIcEE4initEPSt15basic_streambufIcS1_E
_ZNSt6localeC1Ev
_ZN8UnitTest11CurrentTest7DetailsEv
_ZN8UnitTest16SignalTranslatorC1Ev
_ZN8UnitTest16SignalTranslator12s_jumpTargetE
__sigsetjmp
_ZN8UnitTest11TestDetailsC1EPKcS2_S2_i
_ZN8UnitTest20DeferredTestReporter15ReportTestStartERKNS_11TestDetailsE
_ZN8UnitTest20DeferredTestReporter13ReportFailureERKNS_11TestDetailsEPKc
_ZN8UnitTest20DeferredTestReporter16ReportTestFinishERKNS_11TestDetailsEf
_ZSt19__throw_logic_errorPKc
__cxa_allocate_exception
_ZTIPKc
__cxa_throw
_ZNSt7__cxx1112basic_stringIcSt11char_traitsIcESaIcEE9_M_assignERKS4_
_ZN8UnitTest15XmlTestReporter13ReportSummaryEiiif
_ZNSt7__cxx1112basic_stringIcSt11char_traitsIcESaIcEE9_M_createERmm
memcpy
_ZN8UnitTest16SignalTranslatorD1Ev
_ZN8UnitTest11TestDetailsC1ERKS0_i
_ZN8UnitTest11CurrentTest7ResultsEv
_ZN8UnitTest11TestResults13OnTestFailureERKNS_11TestDetailsEPKc
__cxa_begin_catch
_ZSt16__ostream_insertIcSt11char_traitsIcEERSt13basic_ostreamIT_T0_ES6_PKS3_l
_ZStlsISt11char_traitsIcEERSt13basic_ostreamIcT_ES5_PKc
_ZNK8UnitTest15MemoryOutStream7GetTextEv
__cxa_end_catch
__stack_chk_fail
_ZNK8UnitTest15AssertException10LineNumberEv
_ZNK8UnitTest15AssertException8FilenameEv
_ZTISt9exception
_ZTIN8UnitTest15AssertExceptionE
_ZN8UnitTest15XmlTestReporterC1ERSo
_ZNKSt7__cxx1112basic_stringIcSt11char_traitsIcESaIcEE7compareEPKc
strlen
_ZNSt9basic_iosIcSt11char_traitsIcEE5clearESt12_Ios_Iostate
_ZN8UnitTest4TestC2EPKcS2_S2_i
__dso_handle
__cxa_atexit
_ZN8UnitTest4Test11GetTestListEv
_ZN8UnitTest9ListAdderC1ERNS_8TestListEPNS_4TestE
_ZTVN10__cxxabiv120__si_class_type_infoE
_ZTINSt7__cxx1119basic_ostringstreamIcSt11char_traitsIcESaIcEEE
_ZTIN8UnitTest4TestE
_ZTISo
