   1              		.file	"TestXmlTestReporter.cpp"
   2              		.section	.text.unlikely,"ax",@progbits
   3              		.align 2
   4              	.LCOLDB0:
   5              		.text
   6              	.LHOTB0:
   7              		.align 2
   8              		.p2align 4,,15
  10              	_ZN12_GLOBAL__N_142TestXmlTestReporterFixtureMultipleFailuresD2Ev:
  11              	.LFB1580:
  12              		.cfi_startproc
  13 0000 48C70700 		movq	$_ZTVN12_GLOBAL__N_142TestXmlTestReporterFixtureMultipleFailuresE+16, (%rdi)
  13      000000
  14 0007 E9000000 		jmp	_ZN8UnitTest4TestD2Ev
  14      00
  15              		.cfi_endproc
  16              	.LFE1580:
  18              		.section	.text.unlikely
  19              	.LCOLDE0:
  20              		.text
  21              	.LHOTE0:
  22              		.set	_ZN12_GLOBAL__N_142TestXmlTestReporterFixtureMultipleFailuresD1Ev,_ZN12_GLOBAL__N_142TestXmlT
  23              		.section	.text.unlikely
  24              		.align 2
  25              	.LCOLDB1:
  26              		.text
  27              	.LHOTB1:
  28              		.align 2
  29 000c 0F1F4000 		.p2align 4,,15
  31              	_ZN12_GLOBAL__N_149TestXmlTestReporterFixtureOneFailureAndOneSuccessD2Ev:
  32              	.LFB1584:
  33              		.cfi_startproc
  34 0010 48C70700 		movq	$_ZTVN12_GLOBAL__N_149TestXmlTestReporterFixtureOneFailureAndOneSuccessE+16, (%rdi)
  34      000000
  35 0017 E9000000 		jmp	_ZN8UnitTest4TestD2Ev
  35      00
  36              		.cfi_endproc
  37              	.LFE1584:
  39              		.section	.text.unlikely
  40              	.LCOLDE1:
  41              		.text
  42              	.LHOTE1:
  43              		.set	_ZN12_GLOBAL__N_149TestXmlTestReporterFixtureOneFailureAndOneSuccessD1Ev,_ZN12_GLOBAL__N_149T
  44              		.section	.text.unlikely
  45              		.align 2
  46              	.LCOLDB2:
  47              		.text
  48              	.LHOTB2:
  49              		.align 2
  50 001c 0F1F4000 		.p2align 4,,15
  52              	_ZN12_GLOBAL__N_152TestXmlTestReporterFixtureFailureMessageIsXMLEscapedD2Ev:
  53              	.LFB1588:
  54              		.cfi_startproc
  55 0020 48C70700 		movq	$_ZTVN12_GLOBAL__N_152TestXmlTestReporterFixtureFailureMessageIsXMLEscapedE+16, (%rdi)
  55      000000
  56 0027 E9000000 		jmp	_ZN8UnitTest4TestD2Ev
  56      00
  57              		.cfi_endproc
  58              	.LFE1588:
  60              		.section	.text.unlikely
  61              	.LCOLDE2:
  62              		.text
  63              	.LHOTE2:
  64              		.set	_ZN12_GLOBAL__N_152TestXmlTestReporterFixtureFailureMessageIsXMLEscapedD1Ev,_ZN12_GLOBAL__N_1
  65              		.section	.text.unlikely
  66              		.align 2
  67              	.LCOLDB3:
  68              		.text
  69              	.LHOTB3:
  70              		.align 2
  71 002c 0F1F4000 		.p2align 4,,15
  73              	_ZN12_GLOBAL__N_161TestXmlTestReporterFixtureSingleFailedTestReportSummaryFormatD2Ev:
  74              	.LFB1592:
  75              		.cfi_startproc
  76 0030 48C70700 		movq	$_ZTVN12_GLOBAL__N_161TestXmlTestReporterFixtureSingleFailedTestReportSummaryFormatE+16, (%rd
  76      000000
  77 0037 E9000000 		jmp	_ZN8UnitTest4TestD2Ev
  77      00
  78              		.cfi_endproc
  79              	.LFE1592:
  81              		.section	.text.unlikely
  82              	.LCOLDE3:
  83              		.text
  84              	.LHOTE3:
  85              		.set	_ZN12_GLOBAL__N_161TestXmlTestReporterFixtureSingleFailedTestReportSummaryFormatD1Ev,_ZN12_GL
  86              		.section	.text.unlikely
  87              		.align 2
  88              	.LCOLDB4:
  89              		.text
  90              	.LHOTB4:
  91              		.align 2
  92 003c 0F1F4000 		.p2align 4,,15
  94              	_ZN12_GLOBAL__N_165TestXmlTestReporterFixtureSingleSuccessfulTestReportSummaryFormatD2Ev:
  95              	.LFB1596:
  96              		.cfi_startproc
  97 0040 48C70700 		movq	$_ZTVN12_GLOBAL__N_165TestXmlTestReporterFixtureSingleSuccessfulTestReportSummaryFormatE+16, 
  97      000000
  98 0047 E9000000 		jmp	_ZN8UnitTest4TestD2Ev
  98      00
  99              		.cfi_endproc
 100              	.LFE1596:
 102              		.section	.text.unlikely
 103              	.LCOLDE4:
 104              		.text
 105              	.LHOTE4:
 106              		.set	_ZN12_GLOBAL__N_165TestXmlTestReporterFixtureSingleSuccessfulTestReportSummaryFormatD1Ev,_ZN1
 107              		.section	.text.unlikely
 108              		.align 2
 109              	.LCOLDB5:
 110              		.text
 111              	.LHOTB5:
 112              		.align 2
 113 004c 0F1F4000 		.p2align 4,,15
 115              	_ZN12_GLOBAL__N_150TestXmlTestReporterFixtureEmptyReportSummaryFormatD2Ev:
 116              	.LFB1600:
 117              		.cfi_startproc
 118 0050 48C70700 		movq	$_ZTVN12_GLOBAL__N_150TestXmlTestReporterFixtureEmptyReportSummaryFormatE+16, (%rdi)
 118      000000
 119 0057 E9000000 		jmp	_ZN8UnitTest4TestD2Ev
 119      00
 120              		.cfi_endproc
 121              	.LFE1600:
 123              		.section	.text.unlikely
 124              	.LCOLDE5:
 125              		.text
 126              	.LHOTE5:
 127              		.set	_ZN12_GLOBAL__N_150TestXmlTestReporterFixtureEmptyReportSummaryFormatD1Ev,_ZN12_GLOBAL__N_150
 128              		.section	.text.unlikely
 129              		.align 2
 130              	.LCOLDB6:
 131              		.text
 132              	.LHOTB6:
 133              		.align 2
 134 005c 0F1F4000 		.p2align 4,,15
 136              	_ZN12_GLOBAL__N_166TestXmlTestReporterFixtureOutputIsCachedUntilReportSummaryIsCalledD2Ev:
 137              	.LFB1604:
 138              		.cfi_startproc
 139 0060 48C70700 		movq	$_ZTVN12_GLOBAL__N_166TestXmlTestReporterFixtureOutputIsCachedUntilReportSummaryIsCalledE+16,
 139      000000
 140 0067 E9000000 		jmp	_ZN8UnitTest4TestD2Ev
 140      00
 141              		.cfi_endproc
 142              	.LFE1604:
 144              		.section	.text.unlikely
 145              	.LCOLDE6:
 146              		.text
 147              	.LHOTE6:
 148              		.set	_ZN12_GLOBAL__N_166TestXmlTestReporterFixtureOutputIsCachedUntilReportSummaryIsCalledD1Ev,_ZN
 149              		.section	.text.unlikely
 150              		.align 2
 151              	.LCOLDB7:
 152              		.text
 153              	.LHOTB7:
 154              		.align 2
 155 006c 0F1F4000 		.p2align 4,,15
 157              	_ZN12_GLOBAL__N_154TestXmlTestReporterFixtureMultipleCharactersAreEscapedD2Ev:
 158              	.LFB1608:
 159              		.cfi_startproc
 160 0070 48C70700 		movq	$_ZTVN12_GLOBAL__N_154TestXmlTestReporterFixtureMultipleCharactersAreEscapedE+16, (%rdi)
 160      000000
 161 0077 E9000000 		jmp	_ZN8UnitTest4TestD2Ev
 161      00
 162              		.cfi_endproc
 163              	.LFE1608:
 165              		.section	.text.unlikely
 166              	.LCOLDE7:
 167              		.text
 168              	.LHOTE7:
 169              		.set	_ZN12_GLOBAL__N_154TestXmlTestReporterFixtureMultipleCharactersAreEscapedD1Ev,_ZN12_GLOBAL__N
 170              		.section	.text.unlikely
 171              		.align 2
 172              	.LCOLDB8:
 173              		.text
 174              	.LHOTB8:
 175              		.align 2
 176 007c 0F1F4000 		.p2align 4,,15
 178              	_ZN12_GLOBAL__N_142TestXmlTestReporterFixtureMultipleFailuresD0Ev:
 179              	.LFB1582:
 180              		.cfi_startproc
 181 0080 53       		pushq	%rbx
 182              		.cfi_def_cfa_offset 16
 183              		.cfi_offset 3, -16
 184 0081 4889FB   		movq	%rdi, %rbx
 185 0084 48C70700 		movq	$_ZTVN12_GLOBAL__N_142TestXmlTestReporterFixtureMultipleFailuresE+16, (%rdi)
 185      000000
 186 008b E8000000 		call	_ZN8UnitTest4TestD2Ev
 186      00
 187 0090 4889DF   		movq	%rbx, %rdi
 188 0093 5B       		popq	%rbx
 189              		.cfi_def_cfa_offset 8
 190 0094 E9000000 		jmp	_ZdlPv
 190      00
 191              		.cfi_endproc
 192              	.LFE1582:
 194              		.section	.text.unlikely
 195              	.LCOLDE8:
 196              		.text
 197              	.LHOTE8:
 198              		.section	.text.unlikely
 199              		.align 2
 200              	.LCOLDB9:
 201              		.text
 202              	.LHOTB9:
 203 0099 90       		.align 2
 204 009a 660F1F44 		.p2align 4,,15
 204      0000
 206              	_ZN12_GLOBAL__N_149TestXmlTestReporterFixtureOneFailureAndOneSuccessD0Ev:
 207              	.LFB1586:
 208              		.cfi_startproc
 209 00a0 53       		pushq	%rbx
 210              		.cfi_def_cfa_offset 16
 211              		.cfi_offset 3, -16
 212 00a1 4889FB   		movq	%rdi, %rbx
 213 00a4 48C70700 		movq	$_ZTVN12_GLOBAL__N_149TestXmlTestReporterFixtureOneFailureAndOneSuccessE+16, (%rdi)
 213      000000
 214 00ab E8000000 		call	_ZN8UnitTest4TestD2Ev
 214      00
 215 00b0 4889DF   		movq	%rbx, %rdi
 216 00b3 5B       		popq	%rbx
 217              		.cfi_def_cfa_offset 8
 218 00b4 E9000000 		jmp	_ZdlPv
 218      00
 219              		.cfi_endproc
 220              	.LFE1586:
 222              		.section	.text.unlikely
 223              	.LCOLDE9:
 224              		.text
 225              	.LHOTE9:
 226              		.section	.text.unlikely
 227              		.align 2
 228              	.LCOLDB10:
 229              		.text
 230              	.LHOTB10:
 231 00b9 90       		.align 2
 232 00ba 660F1F44 		.p2align 4,,15
 232      0000
 234              	_ZN12_GLOBAL__N_152TestXmlTestReporterFixtureFailureMessageIsXMLEscapedD0Ev:
 235              	.LFB1590:
 236              		.cfi_startproc
 237 00c0 53       		pushq	%rbx
 238              		.cfi_def_cfa_offset 16
 239              		.cfi_offset 3, -16
 240 00c1 4889FB   		movq	%rdi, %rbx
 241 00c4 48C70700 		movq	$_ZTVN12_GLOBAL__N_152TestXmlTestReporterFixtureFailureMessageIsXMLEscapedE+16, (%rdi)
 241      000000
 242 00cb E8000000 		call	_ZN8UnitTest4TestD2Ev
 242      00
 243 00d0 4889DF   		movq	%rbx, %rdi
 244 00d3 5B       		popq	%rbx
 245              		.cfi_def_cfa_offset 8
 246 00d4 E9000000 		jmp	_ZdlPv
 246      00
 247              		.cfi_endproc
 248              	.LFE1590:
 250              		.section	.text.unlikely
 251              	.LCOLDE10:
 252              		.text
 253              	.LHOTE10:
 254              		.section	.text.unlikely
 255              		.align 2
 256              	.LCOLDB11:
 257              		.text
 258              	.LHOTB11:
 259 00d9 90       		.align 2
 260 00da 660F1F44 		.p2align 4,,15
 260      0000
 262              	_ZN12_GLOBAL__N_161TestXmlTestReporterFixtureSingleFailedTestReportSummaryFormatD0Ev:
 263              	.LFB1594:
 264              		.cfi_startproc
 265 00e0 53       		pushq	%rbx
 266              		.cfi_def_cfa_offset 16
 267              		.cfi_offset 3, -16
 268 00e1 4889FB   		movq	%rdi, %rbx
 269 00e4 48C70700 		movq	$_ZTVN12_GLOBAL__N_161TestXmlTestReporterFixtureSingleFailedTestReportSummaryFormatE+16, (%rd
 269      000000
 270 00eb E8000000 		call	_ZN8UnitTest4TestD2Ev
 270      00
 271 00f0 4889DF   		movq	%rbx, %rdi
 272 00f3 5B       		popq	%rbx
 273              		.cfi_def_cfa_offset 8
 274 00f4 E9000000 		jmp	_ZdlPv
 274      00
 275              		.cfi_endproc
 276              	.LFE1594:
 278              		.section	.text.unlikely
 279              	.LCOLDE11:
 280              		.text
 281              	.LHOTE11:
 282              		.section	.text.unlikely
 283              		.align 2
 284              	.LCOLDB12:
 285              		.text
 286              	.LHOTB12:
 287 00f9 90       		.align 2
 288 00fa 660F1F44 		.p2align 4,,15
 288      0000
 290              	_ZN12_GLOBAL__N_165TestXmlTestReporterFixtureSingleSuccessfulTestReportSummaryFormatD0Ev:
 291              	.LFB1598:
 292              		.cfi_startproc
 293 0100 53       		pushq	%rbx
 294              		.cfi_def_cfa_offset 16
 295              		.cfi_offset 3, -16
 296 0101 4889FB   		movq	%rdi, %rbx
 297 0104 48C70700 		movq	$_ZTVN12_GLOBAL__N_165TestXmlTestReporterFixtureSingleSuccessfulTestReportSummaryFormatE+16, 
 297      000000
 298 010b E8000000 		call	_ZN8UnitTest4TestD2Ev
 298      00
 299 0110 4889DF   		movq	%rbx, %rdi
 300 0113 5B       		popq	%rbx
 301              		.cfi_def_cfa_offset 8
 302 0114 E9000000 		jmp	_ZdlPv
 302      00
 303              		.cfi_endproc
 304              	.LFE1598:
 306              		.section	.text.unlikely
 307              	.LCOLDE12:
 308              		.text
 309              	.LHOTE12:
 310              		.section	.text.unlikely
 311              		.align 2
 312              	.LCOLDB13:
 313              		.text
 314              	.LHOTB13:
 315 0119 90       		.align 2
 316 011a 660F1F44 		.p2align 4,,15
 316      0000
 318              	_ZN12_GLOBAL__N_150TestXmlTestReporterFixtureEmptyReportSummaryFormatD0Ev:
 319              	.LFB1602:
 320              		.cfi_startproc
 321 0120 53       		pushq	%rbx
 322              		.cfi_def_cfa_offset 16
 323              		.cfi_offset 3, -16
 324 0121 4889FB   		movq	%rdi, %rbx
 325 0124 48C70700 		movq	$_ZTVN12_GLOBAL__N_150TestXmlTestReporterFixtureEmptyReportSummaryFormatE+16, (%rdi)
 325      000000
 326 012b E8000000 		call	_ZN8UnitTest4TestD2Ev
 326      00
 327 0130 4889DF   		movq	%rbx, %rdi
 328 0133 5B       		popq	%rbx
 329              		.cfi_def_cfa_offset 8
 330 0134 E9000000 		jmp	_ZdlPv
 330      00
 331              		.cfi_endproc
 332              	.LFE1602:
 334              		.section	.text.unlikely
 335              	.LCOLDE13:
 336              		.text
 337              	.LHOTE13:
 338              		.section	.text.unlikely
 339              		.align 2
 340              	.LCOLDB14:
 341              		.text
 342              	.LHOTB14:
 343 0139 90       		.align 2
 344 013a 660F1F44 		.p2align 4,,15
 344      0000
 346              	_ZN12_GLOBAL__N_166TestXmlTestReporterFixtureOutputIsCachedUntilReportSummaryIsCalledD0Ev:
 347              	.LFB1606:
 348              		.cfi_startproc
 349 0140 53       		pushq	%rbx
 350              		.cfi_def_cfa_offset 16
 351              		.cfi_offset 3, -16
 352 0141 4889FB   		movq	%rdi, %rbx
 353 0144 48C70700 		movq	$_ZTVN12_GLOBAL__N_166TestXmlTestReporterFixtureOutputIsCachedUntilReportSummaryIsCalledE+16,
 353      000000
 354 014b E8000000 		call	_ZN8UnitTest4TestD2Ev
 354      00
 355 0150 4889DF   		movq	%rbx, %rdi
 356 0153 5B       		popq	%rbx
 357              		.cfi_def_cfa_offset 8
 358 0154 E9000000 		jmp	_ZdlPv
 358      00
 359              		.cfi_endproc
 360              	.LFE1606:
 362              		.section	.text.unlikely
 363              	.LCOLDE14:
 364              		.text
 365              	.LHOTE14:
 366              		.section	.text.unlikely
 367              		.align 2
 368              	.LCOLDB15:
 369              		.text
 370              	.LHOTB15:
 371 0159 90       		.align 2
 372 015a 660F1F44 		.p2align 4,,15
 372      0000
 374              	_ZN12_GLOBAL__N_154TestXmlTestReporterFixtureMultipleCharactersAreEscapedD0Ev:
 375              	.LFB1610:
 376              		.cfi_startproc
 377 0160 53       		pushq	%rbx
 378              		.cfi_def_cfa_offset 16
 379              		.cfi_offset 3, -16
 380 0161 4889FB   		movq	%rdi, %rbx
 381 0164 48C70700 		movq	$_ZTVN12_GLOBAL__N_154TestXmlTestReporterFixtureMultipleCharactersAreEscapedE+16, (%rdi)
 381      000000
 382 016b E8000000 		call	_ZN8UnitTest4TestD2Ev
 382      00
 383 0170 4889DF   		movq	%rbx, %rdi
 384 0173 5B       		popq	%rbx
 385              		.cfi_def_cfa_offset 8
 386 0174 E9000000 		jmp	_ZdlPv
 386      00
 387              		.cfi_endproc
 388              	.LFE1610:
 390              		.section	.text.unlikely
 391              	.LCOLDE15:
 392              		.text
 393              	.LHOTE15:
 394              		.section	.text.unlikely._ZN8UnitTest15MemoryOutStreamD1Ev,"axG",@progbits,_ZN8UnitTest15MemoryOutS
 395              		.align 2
 396              	.LCOLDB16:
 397              		.section	.text._ZN8UnitTest15MemoryOutStreamD1Ev,"axG",@progbits,_ZN8UnitTest15MemoryOutStreamD1Ev
 398              	.LHOTB16:
 399              		.align 2
 400              		.p2align 4,,15
 401              		.weak	_ZN8UnitTest15MemoryOutStreamD1Ev
 403              	_ZN8UnitTest15MemoryOutStreamD1Ev:
 404              	.LFB1613:
 405              		.cfi_startproc
 406 0000 53       		pushq	%rbx
 407              		.cfi_def_cfa_offset 16
 408              		.cfi_offset 3, -16
 409 0001 4889FB   		movq	%rdi, %rbx
 410 0004 48C70700 		movq	$_ZTVN8UnitTest15MemoryOutStreamE+24, (%rdi)
 410      000000
 411 000b 48C78790 		movq	$_ZTVN8UnitTest15MemoryOutStreamE+64, 144(%rdi)
 411      00000000 
 411      000000
 412 0016 488B7F70 		movq	112(%rdi), %rdi
 413 001a 488D8380 		leaq	128(%rbx), %rax
 413      000000
 414 0021 4839C7   		cmpq	%rax, %rdi
 415 0024 7405     		je	.L26
 416 0026 E8000000 		call	_ZdlPv
 416      00
 417              	.L26:
 418 002b 488B7B50 		movq	80(%rbx), %rdi
 419 002f 488D4360 		leaq	96(%rbx), %rax
 420 0033 48C70300 		movq	$_ZTCN8UnitTest15MemoryOutStreamE0_NSt7__cxx1119basic_ostringstreamIcSt11char_traitsIcESaIcEE
 420      000000
 421 003a 48C78390 		movq	$_ZTCN8UnitTest15MemoryOutStreamE0_NSt7__cxx1119basic_ostringstreamIcSt11char_traitsIcESaIcEE
 421      00000000 
 421      000000
 422 0045 48C74308 		movq	$_ZTVNSt7__cxx1115basic_stringbufIcSt11char_traitsIcESaIcEEE+16, 8(%rbx)
 422      00000000 
 423 004d 4839C7   		cmpq	%rax, %rdi
 424 0050 7405     		je	.L27
 425 0052 E8000000 		call	_ZdlPv
 425      00
 426              	.L27:
 427 0057 488D7B40 		leaq	64(%rbx), %rdi
 428 005b 48C74308 		movq	$_ZTVSt15basic_streambufIcSt11char_traitsIcEE+16, 8(%rbx)
 428      00000000 
 429 0063 E8000000 		call	_ZNSt6localeD1Ev
 429      00
 430 0068 48C78390 		movq	$_ZTVSt9basic_iosIcSt11char_traitsIcEE+16, 144(%rbx)
 430      00000000 
 430      000000
 431 0073 488DBB90 		leaq	144(%rbx), %rdi
 431      000000
 432 007a 5B       		popq	%rbx
 433              		.cfi_def_cfa_offset 8
 434 007b E9000000 		jmp	_ZNSt8ios_baseD2Ev
 434      00
 435              		.cfi_endproc
 436              	.LFE1613:
 438              		.section	.text.unlikely._ZN8UnitTest15MemoryOutStreamD1Ev,"axG",@progbits,_ZN8UnitTest15MemoryOutS
 439              	.LCOLDE16:
 440              		.section	.text._ZN8UnitTest15MemoryOutStreamD1Ev,"axG",@progbits,_ZN8UnitTest15MemoryOutStreamD1Ev
 441              	.LHOTE16:
 442              		.set	.LTHUNK0,_ZN8UnitTest15MemoryOutStreamD1Ev
 443              		.section	.text.unlikely._ZTv0_n24_N8UnitTest15MemoryOutStreamD1Ev,"axG",@progbits,_ZN8UnitTest15Me
 444              	.LCOLDB17:
 445              		.section	.text._ZN8UnitTest15MemoryOutStreamD1Ev,"axG",@progbits,_ZN8UnitTest15MemoryOutStreamD1Ev
 446              	.LHOTB17:
 447              		.p2align 4,,15
 448              		.weak	_ZTv0_n24_N8UnitTest15MemoryOutStreamD1Ev
 450              	_ZTv0_n24_N8UnitTest15MemoryOutStreamD1Ev:
 451              	.LFB1727:
 452              		.cfi_startproc
 453 0080 4C8B17   		movq	(%rdi), %r10
 454 0083 49037AE8 		addq	-24(%r10), %rdi
 455 0087 E974FFFF 		jmp	.LTHUNK0
 455      FF
 456              		.cfi_endproc
 457              	.LFE1727:
 459              		.section	.text.unlikely._ZTv0_n24_N8UnitTest15MemoryOutStreamD1Ev,"axG",@progbits,_ZN8UnitTest15Me
 460              	.LCOLDE17:
 461              		.section	.text._ZN8UnitTest15MemoryOutStreamD1Ev,"axG",@progbits,_ZN8UnitTest15MemoryOutStreamD1Ev
 462              	.LHOTE17:
 463              		.section	.text.unlikely
 464              		.align 2
 465              	.LCOLDB18:
 466              	.LHOTB18:
 467              		.align 2
 469              	_ZN12_GLOBAL__N_122XmlTestReporterFixtureD2Ev.constprop.46:
 470              	.LFB1708:
 471              		.cfi_startproc
 472              		.cfi_personality 0x3,__gxx_personality_v0
 473              		.cfi_lsda 0x3,.LLSDA1708
 474 0000 4156     		pushq	%r14
 475              		.cfi_def_cfa_offset 16
 476              		.cfi_offset 14, -16
 477 0002 4155     		pushq	%r13
 478              		.cfi_def_cfa_offset 24
 479              		.cfi_offset 13, -24
 480 0004 4154     		pushq	%r12
 481              		.cfi_def_cfa_offset 32
 482              		.cfi_offset 12, -32
 483 0006 55       		pushq	%rbp
 484              		.cfi_def_cfa_offset 40
 485              		.cfi_offset 6, -40
 486 0007 53       		pushq	%rbx
 487              		.cfi_def_cfa_offset 48
 488              		.cfi_offset 3, -48
 489 0008 4C8BAF88 		movq	392(%rdi), %r13
 489      010000
 490 000f 4889FB   		movq	%rdi, %rbx
 491 0012 488BAF80 		movq	384(%rdi), %rbp
 491      010000
 492 0019 48C78778 		movq	$_ZTVN8UnitTest20DeferredTestReporterE+16, 376(%rdi)
 492      01000000 
 492      000000
 493              	.L39:
 494 0024 4939ED   		cmpq	%rbp, %r13
 495 0027 7471     		je	.L31
 496 0029 4C8B7568 		movq	104(%rbp), %r14
 497 002d 4C8B6560 		movq	96(%rbp), %r12
 498              	.L34:
 499 0031 4D39E6   		cmpq	%r12, %r14
 500 0034 741A     		je	.L32
 501 0036 498B7C24 		movq	8(%r12), %rdi
 501      08
 502 003b 498D4424 		leaq	24(%r12), %rax
 502      18
 503 0040 4839C7   		cmpq	%rax, %rdi
 504 0043 7405     		je	.L33
 505 0045 E8000000 		call	_ZdlPv
 505      00
 506              	.L33:
 507 004a 4983C428 		addq	$40, %r12
 508 004e EBE1     		jmp	.L34
 509              	.L32:
 510 0050 488B7D60 		movq	96(%rbp), %rdi
 511 0054 4885FF   		testq	%rdi, %rdi
 512 0057 7405     		je	.L35
 513 0059 E8000000 		call	_ZdlPv
 513      00
 514              	.L35:
 515 005e 488B7D40 		movq	64(%rbp), %rdi
 516 0062 488D4550 		leaq	80(%rbp), %rax
 517 0066 4839C7   		cmpq	%rax, %rdi
 518 0069 7405     		je	.L36
 519 006b E8000000 		call	_ZdlPv
 519      00
 520              	.L36:
 521 0070 488B7D20 		movq	32(%rbp), %rdi
 522 0074 488D4530 		leaq	48(%rbp), %rax
 523 0078 4839C7   		cmpq	%rax, %rdi
 524 007b 7405     		je	.L37
 525 007d E8000000 		call	_ZdlPv
 525      00
 526              	.L37:
 527 0082 488B7D00 		movq	0(%rbp), %rdi
 528 0086 488D4510 		leaq	16(%rbp), %rax
 529 008a 4839C7   		cmpq	%rax, %rdi
 530 008d 7405     		je	.L38
 531 008f E8000000 		call	_ZdlPv
 531      00
 532              	.L38:
 533 0094 4883ED80 		subq	$-128, %rbp
 534 0098 EB8A     		jmp	.L39
 535              	.L31:
 536 009a 488BBB80 		movq	384(%rbx), %rdi
 536      010000
 537 00a1 4885FF   		testq	%rdi, %rdi
 538 00a4 7405     		je	.L40
 539 00a6 E8000000 		call	_ZdlPv
 539      00
 540              	.L40:
 541 00ab 488DBB78 		leaq	376(%rbx), %rdi
 541      010000
 542              	.LEHB0:
 543 00b2 E8000000 		call	_ZN8UnitTest12TestReporterD2Ev
 543      00
 544              	.LEHE0:
 545 00b7 488B7B50 		movq	80(%rbx), %rdi
 546 00bb 488D4360 		leaq	96(%rbx), %rax
 547 00bf 48C70300 		movq	$_ZTVNSt7__cxx1119basic_ostringstreamIcSt11char_traitsIcESaIcEEE+24, (%rbx)
 547      000000
 548 00c6 48C74370 		movq	$_ZTVNSt7__cxx1119basic_ostringstreamIcSt11char_traitsIcESaIcEEE+64, 112(%rbx)
 548      00000000 
 549 00ce 48C74308 		movq	$_ZTVNSt7__cxx1115basic_stringbufIcSt11char_traitsIcESaIcEEE+16, 8(%rbx)
 549      00000000 
 550 00d6 4839C7   		cmpq	%rax, %rdi
 551 00d9 7405     		je	.L41
 552 00db E8000000 		call	_ZdlPv
 552      00
 553              	.L41:
 554 00e0 488D7B40 		leaq	64(%rbx), %rdi
 555 00e4 48C74308 		movq	$_ZTVSt15basic_streambufIcSt11char_traitsIcEE+16, 8(%rbx)
 555      00000000 
 556 00ec E8000000 		call	_ZNSt6localeD1Ev
 556      00
 557 00f1 488B0500 		movq	_ZTTNSt7__cxx1119basic_ostringstreamIcSt11char_traitsIcESaIcEEE+8(%rip), %rax
 557      000000
 558 00f8 488B1500 		movq	_ZTTNSt7__cxx1119basic_ostringstreamIcSt11char_traitsIcESaIcEEE+16(%rip), %rdx
 558      000000
 559 00ff 488D7B70 		leaq	112(%rbx), %rdi
 560 0103 488B40E8 		movq	-24(%rax), %rax
 561 0107 48891403 		movq	%rdx, (%rbx,%rax)
 562 010b 48C74370 		movq	$_ZTVSt9basic_iosIcSt11char_traitsIcEE+16, 112(%rbx)
 562      00000000 
 563 0113 5B       		popq	%rbx
 564              		.cfi_remember_state
 565              		.cfi_def_cfa_offset 40
 566 0114 5D       		popq	%rbp
 567              		.cfi_def_cfa_offset 32
 568 0115 415C     		popq	%r12
 569              		.cfi_def_cfa_offset 24
 570 0117 415D     		popq	%r13
 571              		.cfi_def_cfa_offset 16
 572 0119 415E     		popq	%r14
 573              		.cfi_def_cfa_offset 8
 574              	.LEHB1:
 575 011b E9000000 		jmp	_ZNSt8ios_baseD2Ev
 575      00
 576              	.LEHE1:
 577              	.L43:
 578              		.cfi_restore_state
 579 0120 4889C5   		movq	%rax, %rbp
 580              	.L42:
 581 0123 4889DF   		movq	%rbx, %rdi
 582 0126 E8000000 		call	_ZNSt7__cxx1119basic_ostringstreamIcSt11char_traitsIcESaIcEED1Ev
 582      00
 583 012b 4889EF   		movq	%rbp, %rdi
 584              	.LEHB2:
 585 012e E8000000 		call	_Unwind_Resume
 585      00
 586              	.LEHE2:
 587              		.cfi_endproc
 588              	.LFE1708:
 589              		.globl	__gxx_personality_v0
 590              		.section	.gcc_except_table,"a",@progbits
 591              	.LLSDA1708:
 592 0000 FF       		.byte	0xff
 593 0001 FF       		.byte	0xff
 594 0002 01       		.byte	0x1
 595 0003 10       		.uleb128 .LLSDACSE1708-.LLSDACSB1708
 596              	.LLSDACSB1708:
 597 0004 B201     		.uleb128 .LEHB0-.LFB1708
 598 0006 05       		.uleb128 .LEHE0-.LEHB0
 599 0007 A002     		.uleb128 .L43-.LFB1708
 600 0009 00       		.uleb128 0
 601 000a 9B02     		.uleb128 .LEHB1-.LFB1708
 602 000c 05       		.uleb128 .LEHE1-.LEHB1
 603 000d 00       		.uleb128 0
 604 000e 00       		.uleb128 0
 605 000f AE02     		.uleb128 .LEHB2-.LFB1708
 606 0011 05       		.uleb128 .LEHE2-.LEHB2
 607 0012 00       		.uleb128 0
 608 0013 00       		.uleb128 0
 609              	.LLSDACSE1708:
 610              		.section	.text.unlikely
 612              	.LCOLDE18:
 613              	.LHOTE18:
 614              		.section	.text.unlikely._ZN8UnitTest15MemoryOutStreamD0Ev,"axG",@progbits,_ZN8UnitTest15MemoryOutS
 615              		.align 2
 616              	.LCOLDB19:
 617              		.section	.text._ZN8UnitTest15MemoryOutStreamD0Ev,"axG",@progbits,_ZN8UnitTest15MemoryOutStreamD0Ev
 618              	.LHOTB19:
 619              		.align 2
 620              		.p2align 4,,15
 621              		.weak	_ZN8UnitTest15MemoryOutStreamD0Ev
 623              	_ZN8UnitTest15MemoryOutStreamD0Ev:
 624              	.LFB1614:
 625              		.cfi_startproc
 626 0000 53       		pushq	%rbx
 627              		.cfi_def_cfa_offset 16
 628              		.cfi_offset 3, -16
 629 0001 4889FB   		movq	%rdi, %rbx
 630 0004 48C70700 		movq	$_ZTVN8UnitTest15MemoryOutStreamE+24, (%rdi)
 630      000000
 631 000b 48C78790 		movq	$_ZTVN8UnitTest15MemoryOutStreamE+64, 144(%rdi)
 631      00000000 
 631      000000
 632 0016 488B7F70 		movq	112(%rdi), %rdi
 633 001a 488D8380 		leaq	128(%rbx), %rax
 633      000000
 634 0021 4839C7   		cmpq	%rax, %rdi
 635 0024 7405     		je	.L52
 636 0026 E8000000 		call	_ZdlPv
 636      00
 637              	.L52:
 638 002b 488B7B50 		movq	80(%rbx), %rdi
 639 002f 488D4360 		leaq	96(%rbx), %rax
 640 0033 48C70300 		movq	$_ZTCN8UnitTest15MemoryOutStreamE0_NSt7__cxx1119basic_ostringstreamIcSt11char_traitsIcESaIcEE
 640      000000
 641 003a 48C78390 		movq	$_ZTCN8UnitTest15MemoryOutStreamE0_NSt7__cxx1119basic_ostringstreamIcSt11char_traitsIcESaIcEE
 641      00000000 
 641      000000
 642 0045 48C74308 		movq	$_ZTVNSt7__cxx1115basic_stringbufIcSt11char_traitsIcESaIcEEE+16, 8(%rbx)
 642      00000000 
 643 004d 4839C7   		cmpq	%rax, %rdi
 644 0050 7405     		je	.L53
 645 0052 E8000000 		call	_ZdlPv
 645      00
 646              	.L53:
 647 0057 488D7B40 		leaq	64(%rbx), %rdi
 648 005b 48C74308 		movq	$_ZTVSt15basic_streambufIcSt11char_traitsIcEE+16, 8(%rbx)
 648      00000000 
 649 0063 E8000000 		call	_ZNSt6localeD1Ev
 649      00
 650 0068 488DBB90 		leaq	144(%rbx), %rdi
 650      000000
 651 006f 48C78390 		movq	$_ZTVSt9basic_iosIcSt11char_traitsIcEE+16, 144(%rbx)
 651      00000000 
 651      000000
 652 007a E8000000 		call	_ZNSt8ios_baseD2Ev
 652      00
 653 007f 4889DF   		movq	%rbx, %rdi
 654 0082 5B       		popq	%rbx
 655              		.cfi_def_cfa_offset 8
 656 0083 E9000000 		jmp	_ZdlPv
 656      00
 657              		.cfi_endproc
 658              	.LFE1614:
 660              		.section	.text.unlikely._ZN8UnitTest15MemoryOutStreamD0Ev,"axG",@progbits,_ZN8UnitTest15MemoryOutS
 661              	.LCOLDE19:
 662              		.section	.text._ZN8UnitTest15MemoryOutStreamD0Ev,"axG",@progbits,_ZN8UnitTest15MemoryOutStreamD0Ev
 663              	.LHOTE19:
 664              		.set	.LTHUNK1,_ZN8UnitTest15MemoryOutStreamD0Ev
 665              		.section	.text.unlikely._ZTv0_n24_N8UnitTest15MemoryOutStreamD0Ev,"axG",@progbits,_ZN8UnitTest15Me
 666              	.LCOLDB20:
 667              		.section	.text._ZN8UnitTest15MemoryOutStreamD0Ev,"axG",@progbits,_ZN8UnitTest15MemoryOutStreamD0Ev
 668              	.LHOTB20:
 669 0088 0F1F8400 		.p2align 4,,15
 669      00000000 
 670              		.weak	_ZTv0_n24_N8UnitTest15MemoryOutStreamD0Ev
 672              	_ZTv0_n24_N8UnitTest15MemoryOutStreamD0Ev:
 673              	.LFB1729:
 674              		.cfi_startproc
 675 0090 4C8B17   		movq	(%rdi), %r10
 676 0093 49037AE8 		addq	-24(%r10), %rdi
 677 0097 E964FFFF 		jmp	.LTHUNK1
 677      FF
 678              		.cfi_endproc
 679              	.LFE1729:
 681              		.section	.text.unlikely._ZTv0_n24_N8UnitTest15MemoryOutStreamD0Ev,"axG",@progbits,_ZN8UnitTest15Me
 682              	.LCOLDE20:
 683              		.section	.text._ZN8UnitTest15MemoryOutStreamD0Ev,"axG",@progbits,_ZN8UnitTest15MemoryOutStreamD0Ev
 684              	.LHOTE20:
 685              		.section	.text.unlikely._ZNSt7__cxx1115basic_stringbufIcSt11char_traitsIcESaIcEED2Ev,"axG",@progbi
 686              		.align 2
 687              	.LCOLDB21:
 688              		.section	.text._ZNSt7__cxx1115basic_stringbufIcSt11char_traitsIcESaIcEED2Ev,"axG",@progbits,_ZNSt7
 689              	.LHOTB21:
 690              		.align 2
 691              		.p2align 4,,15
 692              		.weak	_ZNSt7__cxx1115basic_stringbufIcSt11char_traitsIcESaIcEED2Ev
 694              	_ZNSt7__cxx1115basic_stringbufIcSt11char_traitsIcESaIcEED2Ev:
 695              	.LFB1464:
 696              		.cfi_startproc
 697 0000 53       		pushq	%rbx
 698              		.cfi_def_cfa_offset 16
 699              		.cfi_offset 3, -16
 700 0001 4889FB   		movq	%rdi, %rbx
 701 0004 48C70700 		movq	$_ZTVNSt7__cxx1115basic_stringbufIcSt11char_traitsIcESaIcEEE+16, (%rdi)
 701      000000
 702 000b 488B7F48 		movq	72(%rdi), %rdi
 703 000f 488D4358 		leaq	88(%rbx), %rax
 704 0013 4839C7   		cmpq	%rax, %rdi
 705 0016 7405     		je	.L56
 706 0018 E8000000 		call	_ZdlPv
 706      00
 707              	.L56:
 708 001d 48C70300 		movq	$_ZTVSt15basic_streambufIcSt11char_traitsIcEE+16, (%rbx)
 708      000000
 709 0024 488D7B38 		leaq	56(%rbx), %rdi
 710 0028 5B       		popq	%rbx
 711              		.cfi_def_cfa_offset 8
 712 0029 E9000000 		jmp	_ZNSt6localeD1Ev
 712      00
 713              		.cfi_endproc
 714              	.LFE1464:
 716              		.section	.text.unlikely._ZNSt7__cxx1115basic_stringbufIcSt11char_traitsIcESaIcEED2Ev,"axG",@progbi
 717              	.LCOLDE21:
 718              		.section	.text._ZNSt7__cxx1115basic_stringbufIcSt11char_traitsIcESaIcEED2Ev,"axG",@progbits,_ZNSt7
 719              	.LHOTE21:
 720              		.weak	_ZNSt7__cxx1115basic_stringbufIcSt11char_traitsIcESaIcEED1Ev
 721              		.set	_ZNSt7__cxx1115basic_stringbufIcSt11char_traitsIcESaIcEED1Ev,_ZNSt7__cxx1115basic_stringbufIc
 722              		.section	.text.unlikely._ZN8UnitTest15MemoryOutStreamC1Ev,"axG",@progbits,_ZN8UnitTest15MemoryOutS
 723              		.align 2
 724              	.LCOLDB22:
 725              		.section	.text._ZN8UnitTest15MemoryOutStreamC1Ev,"axG",@progbits,_ZN8UnitTest15MemoryOutStreamC1Ev
 726              	.LHOTB22:
 727              		.align 2
 728              		.p2align 4,,15
 729              		.weak	_ZN8UnitTest15MemoryOutStreamC1Ev
 731              	_ZN8UnitTest15MemoryOutStreamC1Ev:
 732              	.LFB1084:
 733              		.cfi_startproc
 734              		.cfi_personality 0x3,__gxx_personality_v0
 735              		.cfi_lsda 0x3,.LLSDA1084
 736 0000 4155     		pushq	%r13
 737              		.cfi_def_cfa_offset 16
 738              		.cfi_offset 13, -16
 739 0002 4154     		pushq	%r12
 740              		.cfi_def_cfa_offset 24
 741              		.cfi_offset 12, -24
 742 0004 55       		pushq	%rbp
 743              		.cfi_def_cfa_offset 32
 744              		.cfi_offset 6, -32
 745 0005 488DAF90 		leaq	144(%rdi), %rbp
 745      000000
 746 000c 53       		pushq	%rbx
 747              		.cfi_def_cfa_offset 40
 748              		.cfi_offset 3, -40
 749 000d 4889FB   		movq	%rdi, %rbx
 750 0010 4883EC08 		subq	$8, %rsp
 751              		.cfi_def_cfa_offset 48
 752 0014 4889EF   		movq	%rbp, %rdi
 753 0017 E8000000 		call	_ZNSt8ios_baseC2Ev
 753      00
 754 001c 48C78368 		movq	$0, 360(%rbx)
 754      01000000 
 754      000000
 755 0027 C6837001 		movb	$0, 368(%rbx)
 755      000000
 756 002e 31F6     		xorl	%esi, %esi
 757 0030 C6837101 		movb	$0, 369(%rbx)
 757      000000
 758 0037 48C78378 		movq	$0, 376(%rbx)
 758      01000000 
 758      000000
 759 0042 4889EF   		movq	%rbp, %rdi
 760 0045 48C78380 		movq	$0, 384(%rbx)
 760      01000000 
 760      000000
 761 0050 48C78388 		movq	$0, 392(%rbx)
 761      01000000 
 761      000000
 762 005b 48C78390 		movq	$0, 400(%rbx)
 762      01000000 
 762      000000
 763 0066 48C70300 		movq	$_ZTCN8UnitTest15MemoryOutStreamE0_So+24, (%rbx)
 763      000000
 764 006d 48C78390 		movq	$_ZTCN8UnitTest15MemoryOutStreamE0_So+64, 144(%rbx)
 764      00000000 
 764      000000
 765              	.LEHB3:
 766 0078 E8000000 		call	_ZNSt9basic_iosIcSt11char_traitsIcEE4initEPSt15basic_streambufIcS1_E
 766      00
 767              	.LEHE3:
 768 007d 488D7B40 		leaq	64(%rbx), %rdi
 769 0081 48C70300 		movq	$_ZTCN8UnitTest15MemoryOutStreamE0_NSt7__cxx1119basic_ostringstreamIcSt11char_traitsIcESaIcEE
 769      000000
 770 0088 48C78390 		movq	$_ZTCN8UnitTest15MemoryOutStreamE0_NSt7__cxx1119basic_ostringstreamIcSt11char_traitsIcESaIcEE
 770      00000000 
 770      000000
 771 0093 48C74308 		movq	$_ZTVSt15basic_streambufIcSt11char_traitsIcEE+16, 8(%rbx)
 771      00000000 
 772 009b 48C74310 		movq	$0, 16(%rbx)
 772      00000000 
 773 00a3 4C8D6308 		leaq	8(%rbx), %r12
 774 00a7 48C74318 		movq	$0, 24(%rbx)
 774      00000000 
 775 00af 48C74320 		movq	$0, 32(%rbx)
 775      00000000 
 776 00b7 48C74328 		movq	$0, 40(%rbx)
 776      00000000 
 777 00bf 48C74330 		movq	$0, 48(%rbx)
 777      00000000 
 778 00c7 48C74338 		movq	$0, 56(%rbx)
 778      00000000 
 779 00cf E8000000 		call	_ZNSt6localeC1Ev
 779      00
 780 00d4 488D4360 		leaq	96(%rbx), %rax
 781 00d8 48C74358 		movq	$0, 88(%rbx)
 781      00000000 
 782 00e0 C6436000 		movb	$0, 96(%rbx)
 783 00e4 4889DF   		movq	%rbx, %rdi
 784 00e7 48C74308 		movq	$_ZTVNSt7__cxx1115basic_stringbufIcSt11char_traitsIcESaIcEEE+16, 8(%rbx)
 784      00000000 
 785 00ef C7434810 		movl	$16, 72(%rbx)
 785      000000
 786 00f6 48894350 		movq	%rax, 80(%rbx)
 787 00fa 488B03   		movq	(%rbx), %rax
 788 00fd 4C89E6   		movq	%r12, %rsi
 789 0100 480378E8 		addq	-24(%rax), %rdi
 790              	.LEHB4:
 791 0104 E8000000 		call	_ZNSt9basic_iosIcSt11char_traitsIcEE4initEPSt15basic_streambufIcS1_E
 791      00
 792              	.LEHE4:
 793 0109 488D8380 		leaq	128(%rbx), %rax
 793      000000
 794 0110 48C70300 		movq	$_ZTVN8UnitTest15MemoryOutStreamE+24, (%rbx)
 794      000000
 795 0117 48C78390 		movq	$_ZTVN8UnitTest15MemoryOutStreamE+64, 144(%rbx)
 795      00000000 
 795      000000
 796 0122 48C74378 		movq	$0, 120(%rbx)
 796      00000000 
 797 012a C6838000 		movb	$0, 128(%rbx)
 797      000000
 798 0131 48894370 		movq	%rax, 112(%rbx)
 799 0135 4883C408 		addq	$8, %rsp
 800              		.cfi_remember_state
 801              		.cfi_def_cfa_offset 40
 802 0139 5B       		popq	%rbx
 803              		.cfi_def_cfa_offset 32
 804 013a 5D       		popq	%rbp
 805              		.cfi_def_cfa_offset 24
 806 013b 415C     		popq	%r12
 807              		.cfi_def_cfa_offset 16
 808 013d 415D     		popq	%r13
 809              		.cfi_def_cfa_offset 8
 810 013f C3       		ret
 811              	.L62:
 812              		.cfi_restore_state
 813 0140 4989C4   		movq	%rax, %r12
 814 0143 EB0E     		jmp	.L61
 815              	.L63:
 816 0145 4989C5   		movq	%rax, %r13
 817              	.L60:
 818 0148 4C89E7   		movq	%r12, %rdi
 819 014b 4D89EC   		movq	%r13, %r12
 820 014e E8000000 		call	_ZNSt7__cxx1115basic_stringbufIcSt11char_traitsIcESaIcEED1Ev
 820      00
 821              	.L61:
 822 0153 4889EF   		movq	%rbp, %rdi
 823 0156 48C78390 		movq	$_ZTVSt9basic_iosIcSt11char_traitsIcEE+16, 144(%rbx)
 823      00000000 
 823      000000
 824 0161 E8000000 		call	_ZNSt8ios_baseD2Ev
 824      00
 825 0166 4C89E7   		movq	%r12, %rdi
 826              	.LEHB5:
 827 0169 E8000000 		call	_Unwind_Resume
 827      00
 828              	.LEHE5:
 829              		.cfi_endproc
 830              	.LFE1084:
 831              		.section	.gcc_except_table
 832              	.LLSDA1084:
 833 0014 FF       		.byte	0xff
 834 0015 FF       		.byte	0xff
 835 0016 01       		.byte	0x1
 836 0017 10       		.uleb128 .LLSDACSE1084-.LLSDACSB1084
 837              	.LLSDACSB1084:
 838 0018 78       		.uleb128 .LEHB3-.LFB1084
 839 0019 05       		.uleb128 .LEHE3-.LEHB3
 840 001a C002     		.uleb128 .L62-.LFB1084
 841 001c 00       		.uleb128 0
 842 001d 8402     		.uleb128 .LEHB4-.LFB1084
 843 001f 05       		.uleb128 .LEHE4-.LEHB4
 844 0020 C502     		.uleb128 .L63-.LFB1084
 845 0022 00       		.uleb128 0
 846 0023 E902     		.uleb128 .LEHB5-.LFB1084
 847 0025 05       		.uleb128 .LEHE5-.LEHB5
 848 0026 00       		.uleb128 0
 849 0027 00       		.uleb128 0
 850              	.LLSDACSE1084:
 851              		.section	.text._ZN8UnitTest15MemoryOutStreamC1Ev,"axG",@progbits,_ZN8UnitTest15MemoryOutStreamC1Ev
 853              		.section	.text.unlikely._ZN8UnitTest15MemoryOutStreamC1Ev,"axG",@progbits,_ZN8UnitTest15MemoryOutS
 854              	.LCOLDE22:
 855              		.section	.text._ZN8UnitTest15MemoryOutStreamC1Ev,"axG",@progbits,_ZN8UnitTest15MemoryOutStreamC1Ev
 856              	.LHOTE22:
 857              		.section	.rodata.str1.1,"aMS",@progbits,1
 858              	.LC23:
 859 0000 556E6861 		.string	"Unhandled system exception"
 859      6E646C65 
 859      64207379 
 859      7374656D 
 859      20657863 
 860              	.LC24:
 861 001b 00       		.string	""
 862              	.LC25:
 863 001c 6D657373 		.string	"message"
 863      61676500 
 864              	.LC27:
 865 0024 6F757470 		.string	"output.str().empty()"
 865      75742E73 
 865      74722829 
 865      2E656D70 
 865      74792829 
 866              	.LC28:
 867 0039 216F7574 		.string	"!output.str().empty()"
 867      7075742E 
 867      73747228 
 867      292E656D 
 867      70747928 
 868              		.section	.rodata.str1.8,"aMS",@progbits,1
 869              		.align 8
 870              	.LC29:
 871 0000 556E6861 		.string	"Unhandled exception in CHECK(output.str().empty())"
 871      6E646C65 
 871      64206578 
 871      63657074 
 871      696F6E20 
 872 0033 00000000 		.align 8
 872      00
 873              	.LC30:
 874 0038 556E6861 		.string	"Unhandled exception in CHECK(!output.str().empty())"
 874      6E646C65 
 874      64206578 
 874      63657074 
 874      696F6E20 
 875              		.section	.rodata.str1.1
 876              	.LC31:
 877 004f 556E6861 		.string	"Unhandled exception: "
 877      6E646C65 
 877      64206578 
 877      63657074 
 877      696F6E3A 
 878              	.LC32:
 879 0065 556E6861 		.string	"Unhandled exception: Crash!"
 879      6E646C65 
 879      64206578 
 879      63657074 
 879      696F6E3A 
 880              		.section	.rodata.str1.8
 881 006c 00000000 		.align 8
 882              	.LC33:
 883 0070 62617369 		.string	"basic_string::_M_construct null not valid"
 883      635F7374 
 883      72696E67 
 883      3A3A5F4D 
 883      5F636F6E 
 884              		.section	.text.unlikely
 885              	.LCOLDB34:
 886              		.text
 887              	.LHOTB34:
 888 0179 0F1F8000 		.p2align 4,,15
 888      000000
 890              	_ZN8UnitTest11ExecuteTestIN12_GLOBAL__N_168XmlTestReporterFixtureOutputIsCachedUntilReportSummaryIs
 891              	.LFB1712:
 892              		.cfi_startproc
 893              		.cfi_personality 0x3,__gxx_personality_v0
 894              		.cfi_lsda 0x3,.LLSDA1712
 895 0180 4154     		pushq	%r12
 896              		.cfi_def_cfa_offset 16
 897              		.cfi_offset 12, -16
 898 0182 55       		pushq	%rbp
 899              		.cfi_def_cfa_offset 24
 900              		.cfi_offset 6, -24
 901 0183 53       		pushq	%rbx
 902              		.cfi_def_cfa_offset 32
 903              		.cfi_offset 3, -32
 904 0184 4889F3   		movq	%rsi, %rbx
 905 0187 4881ECC0 		subq	$1984, %rsp
 905      070000
 906              		.cfi_def_cfa_offset 2016
 907 018e 48893C24 		movq	%rdi, (%rsp)
 908 0192 48897424 		movq	%rsi, 8(%rsp)
 908      08
 909 0197 64488B04 		movq	%fs:40, %rax
 909      25280000 
 909      00
 910 01a0 48898424 		movq	%rax, 1976(%rsp)
 910      B8070000 
 911 01a8 31C0     		xorl	%eax, %eax
 912              	.LEHB6:
 913 01aa E8000000 		call	_ZN8UnitTest11CurrentTest7DetailsEv
 913      00
 914              	.LEHE6:
 915 01af 488DBC24 		leaq	848(%rsp), %rdi
 915      50030000 
 916 01b7 488918   		movq	%rbx, (%rax)
 917              	.LEHB7:
 918 01ba E8000000 		call	_ZN8UnitTest16SignalTranslatorC1Ev
 918      00
 919              	.LEHE7:
 920 01bf 488B3D00 		movq	_ZN8UnitTest16SignalTranslator12s_jumpTargetE(%rip), %rdi
 920      000000
 921 01c6 BE010000 		movl	$1, %esi
 921      00
 922 01cb E8000000 		call	__sigsetjmp
 922      00
 923 01d0 85C0     		testl	%eax, %eax
 924 01d2 0F85C000 		jne	.L204
 924      0000
 925 01d8 B9000000 		movl	$.LC24, %ecx
 925      00
 926 01dd 488D7C24 		leaq	80(%rsp), %rdi
 926      50
 927 01e2 4531C0   		xorl	%r8d, %r8d
 928 01e5 4889CA   		movq	%rcx, %rdx
 929 01e8 4889CE   		movq	%rcx, %rsi
 930              	.LEHB8:
 931 01eb E8000000 		call	_ZN8UnitTest11TestDetailsC1EPKcS2_S2_i
 931      00
 932 01f0 488B1C24 		movq	(%rsp), %rbx
 933 01f4 488D7424 		leaq	80(%rsp), %rsi
 933      50
 934 01f9 488DAB78 		leaq	376(%rbx), %rbp
 934      010000
 935 0200 4889EF   		movq	%rbp, %rdi
 936 0203 E8000000 		call	_ZN8UnitTest20DeferredTestReporter15ReportTestStartERKNS_11TestDetailsE
 936      00
 937 0208 488D7424 		leaq	80(%rsp), %rsi
 937      50
 938 020d BA000000 		movl	$.LC25, %edx
 938      00
 939 0212 4889EF   		movq	%rbp, %rdi
 940 0215 E8000000 		call	_ZN8UnitTest20DeferredTestReporter13ReportFailureERKNS_11TestDetailsEPKc
 940      00
 941 021a 488D7424 		leaq	80(%rsp), %rsi
 941      50
 942 021f F30F1005 		movss	.LC26(%rip), %xmm0
 942      00000000 
 943 0227 4889EF   		movq	%rbp, %rdi
 944 022a E8000000 		call	_ZN8UnitTest20DeferredTestReporter16ReportTestFinishERKNS_11TestDetailsEf
 944      00
 945              	.LEHE8:
 946 022f 488B5330 		movq	48(%rbx), %rdx
 947 0233 488D8424 		leaq	256(%rsp), %rax
 947      00010000 
 948 023b 48C78424 		movq	$0, 248(%rsp)
 948      F8000000 
 948      00000000 
 949 0247 C6842400 		movb	$0, 256(%rsp)
 949      01000000 
 950 024f 48898424 		movq	%rax, 240(%rsp)
 950      F0000000 
 951 0257 4889D8   		movq	%rbx, %rax
 952 025a 4885D2   		testq	%rdx, %rdx
 953 025d 0F844507 		je	.L71
 953      0000
 954 0263 488B5B20 		movq	32(%rbx), %rbx
 955 0267 4839DA   		cmpq	%rbx, %rdx
 956 026a 0F867001 		jbe	.L72
 956      0000
 957 0270 4C8B6028 		movq	40(%rax), %r12
 958 0274 488D8424 		leaq	352(%rsp), %rax
 958      60010000 
 959 027c 48898424 		movq	%rax, 336(%rsp)
 959      50010000 
 960 0284 4D85E4   		testq	%r12, %r12
 961 0287 7537     		jne	.L205
 962 0289 BF000000 		movl	$.LC33, %edi
 962      00
 963              	.LEHB9:
 964 028e E8000000 		call	_ZSt19__throw_logic_errorPKc
 964      00
 965              	.LEHE9:
 966              		.p2align 4,,10
 967 0293 0F1F4400 		.p2align 3
 967      00
 968              	.L204:
 969 0298 BF080000 		movl	$8, %edi
 969      00
 970 029d E8000000 		call	__cxa_allocate_exception
 970      00
 971 02a2 31D2     		xorl	%edx, %edx
 972 02a4 48C70000 		movq	$.LC23, (%rax)
 972      000000
 973 02ab BE000000 		movl	$_ZTIPKc, %esi
 973      00
 974 02b0 4889C7   		movq	%rax, %rdi
 975              	.LEHB10:
 976 02b3 E8000000 		call	__cxa_throw
 976      00
 977              	.LEHE10:
 978 02b8 0F1F8400 		.p2align 4,,10
 978      00000000 
 979              		.p2align 3
 980              	.L205:
 981 02c0 4C29E2   		subq	%r12, %rdx
 982 02c3 4883FA0F 		cmpq	$15, %rdx
 983 02c7 4889D3   		movq	%rdx, %rbx
 984 02ca 48895424 		movq	%rdx, 16(%rsp)
 984      10
 985 02cf 0F87AB01 		ja	.L206
 985      0000
 986 02d5 4883FB01 		cmpq	$1, %rbx
 987 02d9 0F844106 		je	.L207
 987      0000
 988 02df 4885DB   		testq	%rbx, %rbx
 989 02e2 4889C2   		movq	%rax, %rdx
 990 02e5 0F85D706 		jne	.L208
 990      0000
 991              	.L77:
 992 02eb 488DB424 		leaq	336(%rsp), %rsi
 992      50010000 
 993 02f3 488DBC24 		leaq	240(%rsp), %rdi
 993      F0000000 
 994 02fb 48899C24 		movq	%rbx, 344(%rsp)
 994      58010000 
 995 0303 C6041A00 		movb	$0, (%rdx,%rbx)
 996              	.LEHB11:
 997 0307 E8000000 		call	_ZNSt7__cxx1112basic_stringIcSt11char_traitsIcESaIcEE9_M_assignERKS4_
 997      00
 998              	.LEHE11:
 999 030c 488BBC24 		movq	336(%rsp), %rdi
 999      50010000 
 1000 0314 488D8424 		leaq	352(%rsp), %rax
 1000      60010000 
 1001 031c 4839C7   		cmpq	%rax, %rdi
 1002 031f 7405     		je	.L79
 1003              	.L190:
 1004 0321 E8000000 		call	_ZdlPv
 1004      00
 1005              	.L79:
 1006 0326 488BBC24 		movq	240(%rsp), %rdi
 1006      F0000000 
 1007 032e 488D8424 		leaq	256(%rsp), %rax
 1007      00010000 
 1008 0336 488B9C24 		movq	248(%rsp), %rbx
 1008      F8000000 
 1009 033e 4839C7   		cmpq	%rax, %rdi
 1010 0341 7405     		je	.L102
 1011 0343 E8000000 		call	_ZdlPv
 1011      00
 1012              	.L102:
 1013 0348 4885DB   		testq	%rbx, %rbx
 1014 034b 0F857703 		jne	.L209
 1014      0000
 1015              	.L103:
 1016 0351 F30F1005 		movss	.LC26(%rip), %xmm0
 1016      00000000 
 1017 0359 B9010000 		movl	$1, %ecx
 1017      00
 1018 035e BA010000 		movl	$1, %edx
 1018      00
 1019 0363 BE010000 		movl	$1, %esi
 1019      00
 1020 0368 4889EF   		movq	%rbp, %rdi
 1021              	.LEHB12:
 1022 036b E8000000 		call	_ZN8UnitTest15XmlTestReporter13ReportSummaryEiiif
 1022      00
 1023              	.LEHE12:
 1024 0370 488D8424 		leaq	288(%rsp), %rax
 1024      20010000 
 1025 0378 48C78424 		movq	$0, 280(%rsp)
 1025      18010000 
 1025      00000000 
 1026 0384 C6842420 		movb	$0, 288(%rsp)
 1026      01000000 
 1027 038c 48898424 		movq	%rax, 272(%rsp)
 1027      10010000 
 1028 0394 488B0424 		movq	(%rsp), %rax
 1029 0398 488B5030 		movq	48(%rax), %rdx
 1030 039c 4885D2   		testq	%rdx, %rdx
 1031 039f 0F84E305 		je	.L104
 1031      0000
 1032 03a5 488B5820 		movq	32(%rax), %rbx
 1033 03a9 488B6828 		movq	40(%rax), %rbp
 1034 03ad 4839DA   		cmpq	%rbx, %rdx
 1035 03b0 0F866A01 		jbe	.L105
 1035      0000
 1036 03b6 488D8424 		leaq	416(%rsp), %rax
 1036      A0010000 
 1037 03be 4885ED   		testq	%rbp, %rbp
 1038 03c1 48898424 		movq	%rax, 400(%rsp)
 1038      90010000 
 1039 03c9 0F858101 		jne	.L210
 1039      0000
 1040 03cf BF000000 		movl	$.LC33, %edi
 1040      00
 1041              	.LEHB13:
 1042 03d4 E8000000 		call	_ZSt19__throw_logic_errorPKc
 1042      00
 1043              	.LEHE13:
 1044 03d9 0F1F8000 		.p2align 4,,10
 1044      000000
 1045              		.p2align 3
 1046              	.L72:
 1047 03e0 488B0424 		movq	(%rsp), %rax
 1048 03e4 4C8B6028 		movq	40(%rax), %r12
 1049 03e8 488D8424 		leaq	320(%rsp), %rax
 1049      40010000 
 1050 03f0 48898424 		movq	%rax, 304(%rsp)
 1050      30010000 
 1051 03f8 4D85E4   		testq	%r12, %r12
 1052 03fb 7513     		jne	.L83
 1053 03fd 4885DB   		testq	%rbx, %rbx
 1054 0400 740E     		je	.L83
 1055 0402 BF000000 		movl	$.LC33, %edi
 1055      00
 1056              	.LEHB14:
 1057 0407 E8000000 		call	_ZSt19__throw_logic_errorPKc
 1057      00
 1058              	.LEHE14:
 1059 040c 0F1F4000 		.p2align 4,,10
 1060              		.p2align 3
 1061              	.L83:
 1062 0410 4C29E3   		subq	%r12, %rbx
 1063 0413 4883FB0F 		cmpq	$15, %rbx
 1064 0417 48895C24 		movq	%rbx, 24(%rsp)
 1064      18
 1065 041c 0F87AE00 		ja	.L211
 1065      0000
 1066 0422 4883FB01 		cmpq	$1, %rbx
 1067 0426 0F843C05 		je	.L212
 1067      0000
 1068 042c 4885DB   		testq	%rbx, %rbx
 1069 042f 488D8424 		leaq	320(%rsp), %rax
 1069      40010000 
 1070 0437 0F859D05 		jne	.L213
 1070      0000
 1071              	.L86:
 1072 043d 488DB424 		leaq	304(%rsp), %rsi
 1072      30010000 
 1073 0445 488DBC24 		leaq	240(%rsp), %rdi
 1073      F0000000 
 1074 044d 48899C24 		movq	%rbx, 312(%rsp)
 1074      38010000 
 1075 0455 C6041800 		movb	$0, (%rax,%rbx)
 1076              	.LEHB15:
 1077 0459 E8000000 		call	_ZNSt7__cxx1112basic_stringIcSt11char_traitsIcESaIcEE9_M_assignERKS4_
 1077      00
 1078              	.LEHE15:
 1079 045e 488BBC24 		movq	304(%rsp), %rdi
 1079      30010000 
 1080 0466 488D8424 		leaq	320(%rsp), %rax
 1080      40010000 
 1081 046e 4839C7   		cmpq	%rax, %rdi
 1082 0471 0F85AAFE 		jne	.L190
 1082      FFFF
 1083 0477 E9AAFEFF 		jmp	.L79
 1083      FF
 1084 047c 0F1F4000 		.p2align 4,,10
 1085              		.p2align 3
 1086              	.L206:
 1087 0480 488D7424 		leaq	16(%rsp), %rsi
 1087      10
 1088 0485 488DBC24 		leaq	336(%rsp), %rdi
 1088      50010000 
 1089 048d 31D2     		xorl	%edx, %edx
 1090              	.LEHB16:
 1091 048f E8000000 		call	_ZNSt7__cxx1112basic_stringIcSt11char_traitsIcESaIcEE9_M_createERmm
 1091      00
 1092 0494 4889C7   		movq	%rax, %rdi
 1093 0497 48898424 		movq	%rax, 336(%rsp)
 1093      50010000 
 1094 049f 488B4424 		movq	16(%rsp), %rax
 1094      10
 1095 04a4 48898424 		movq	%rax, 352(%rsp)
 1095      60010000 
 1096              	.L75:
 1097 04ac 4889DA   		movq	%rbx, %rdx
 1098 04af 4C89E6   		movq	%r12, %rsi
 1099 04b2 E8000000 		call	memcpy
 1099      00
 1100 04b7 488B5C24 		movq	16(%rsp), %rbx
 1100      10
 1101 04bc 488B9424 		movq	336(%rsp), %rdx
 1101      50010000 
 1102 04c4 E922FEFF 		jmp	.L77
 1102      FF
 1103 04c9 0F1F8000 		.p2align 4,,10
 1103      000000
 1104              		.p2align 3
 1105              	.L211:
 1106 04d0 488D7424 		leaq	24(%rsp), %rsi
 1106      18
 1107 04d5 488DBC24 		leaq	304(%rsp), %rdi
 1107      30010000 
 1108 04dd 31D2     		xorl	%edx, %edx
 1109 04df E8000000 		call	_ZNSt7__cxx1112basic_stringIcSt11char_traitsIcESaIcEE9_M_createERmm
 1109      00
 1110              	.LEHE16:
 1111 04e4 4889C7   		movq	%rax, %rdi
 1112 04e7 48898424 		movq	%rax, 304(%rsp)
 1112      30010000 
 1113 04ef 488B4424 		movq	24(%rsp), %rax
 1113      18
 1114 04f4 48898424 		movq	%rax, 320(%rsp)
 1114      40010000 
 1115              	.L84:
 1116 04fc 4889DA   		movq	%rbx, %rdx
 1117 04ff 4C89E6   		movq	%r12, %rsi
 1118 0502 E8000000 		call	memcpy
 1118      00
 1119 0507 488B5C24 		movq	24(%rsp), %rbx
 1119      18
 1120 050c 488B8424 		movq	304(%rsp), %rax
 1120      30010000 
 1121 0514 E924FFFF 		jmp	.L86
 1121      FF
 1122 0519 0F1F8000 		.p2align 4,,10
 1122      000000
 1123              		.p2align 3
 1124              	.L105:
 1125 0520 488D8424 		leaq	384(%rsp), %rax
 1125      80010000 
 1126 0528 4885ED   		testq	%rbp, %rbp
 1127 052b 48898424 		movq	%rax, 368(%rsp)
 1127      70010000 
 1128 0533 0F85DF00 		jne	.L116
 1128      0000
 1129 0539 4885DB   		testq	%rbx, %rbx
 1130 053c 0F84D600 		je	.L116
 1130      0000
 1131 0542 BF000000 		movl	$.LC33, %edi
 1131      00
 1132              	.LEHB17:
 1133 0547 E8000000 		call	_ZSt19__throw_logic_errorPKc
 1133      00
 1134              	.LEHE17:
 1135 054c 0F1F4000 		.p2align 4,,10
 1136              		.p2align 3
 1137              	.L210:
 1138 0550 4829EA   		subq	%rbp, %rdx
 1139 0553 4883FA0F 		cmpq	$15, %rdx
 1140 0557 4889D3   		movq	%rdx, %rbx
 1141 055a 48895424 		movq	%rdx, 32(%rsp)
 1141      20
 1142 055f 0F879B01 		ja	.L214
 1142      0000
 1143 0565 4883FB01 		cmpq	$1, %rbx
 1144 0569 0F84E103 		je	.L215
 1144      0000
 1145 056f 4885DB   		testq	%rbx, %rbx
 1146 0572 4889C2   		movq	%rax, %rdx
 1147 0575 0F855704 		jne	.L216
 1147      0000
 1148              	.L110:
 1149 057b 488DB424 		leaq	400(%rsp), %rsi
 1149      90010000 
 1150 0583 488DBC24 		leaq	272(%rsp), %rdi
 1150      10010000 
 1151 058b 48899C24 		movq	%rbx, 408(%rsp)
 1151      98010000 
 1152 0593 C6041A00 		movb	$0, (%rdx,%rbx)
 1153              	.LEHB18:
 1154 0597 E8000000 		call	_ZNSt7__cxx1112basic_stringIcSt11char_traitsIcESaIcEE9_M_assignERKS4_
 1154      00
 1155              	.LEHE18:
 1156 059c 488BBC24 		movq	400(%rsp), %rdi
 1156      90010000 
 1157 05a4 488D8424 		leaq	416(%rsp), %rax
 1157      A0010000 
 1158 05ac 4839C7   		cmpq	%rax, %rdi
 1159 05af 7405     		je	.L112
 1160              	.L192:
 1161 05b1 E8000000 		call	_ZdlPv
 1161      00
 1162              	.L112:
 1163 05b6 488BBC24 		movq	272(%rsp), %rdi
 1163      10010000 
 1164 05be 488D8424 		leaq	288(%rsp), %rax
 1164      20010000 
 1165 05c6 488B9C24 		movq	280(%rsp), %rbx
 1165      18010000 
 1166 05ce 4839C7   		cmpq	%rax, %rdi
 1167 05d1 7405     		je	.L135
 1168 05d3 E8000000 		call	_ZdlPv
 1168      00
 1169              	.L135:
 1170 05d8 4885DB   		testq	%rbx, %rbx
 1171 05db 0F84A700 		je	.L217
 1171      0000
 1172              	.L136:
 1173 05e1 488DBC24 		leaq	848(%rsp), %rdi
 1173      50030000 
 1174              	.LEHB19:
 1175 05e9 E8000000 		call	_ZN8UnitTest16SignalTranslatorD1Ev
 1175      00
 1176              	.LEHE19:
 1177              	.L68:
 1178 05ee 488B8424 		movq	1976(%rsp), %rax
 1178      B8070000 
 1179 05f6 64483304 		xorq	%fs:40, %rax
 1179      25280000 
 1179      00
 1180 05ff 0F85DD03 		jne	.L218
 1180      0000
 1181 0605 4881C4C0 		addq	$1984, %rsp
 1181      070000
 1182              		.cfi_remember_state
 1183              		.cfi_def_cfa_offset 32
 1184 060c 5B       		popq	%rbx
 1185              		.cfi_def_cfa_offset 24
 1186 060d 5D       		popq	%rbp
 1187              		.cfi_def_cfa_offset 16
 1188 060e 415C     		popq	%r12
 1189              		.cfi_def_cfa_offset 8
 1190 0610 C3       		ret
 1191              		.p2align 4,,10
 1192 0611 0F1F8000 		.p2align 3
 1192      000000
 1193              	.L116:
 1194              		.cfi_restore_state
 1195 0618 4829EB   		subq	%rbp, %rbx
 1196 061b 4883FB0F 		cmpq	$15, %rbx
 1197 061f 48895C24 		movq	%rbx, 40(%rsp)
 1197      28
 1198 0624 0F872601 		ja	.L219
 1198      0000
 1199 062a 4883FB01 		cmpq	$1, %rbx
 1200 062e 0F840403 		je	.L220
 1200      0000
 1201 0634 4885DB   		testq	%rbx, %rbx
 1202 0637 488D8424 		leaq	384(%rsp), %rax
 1202      80010000 
 1203 063f 0F858503 		jne	.L221
 1203      0000
 1204              	.L119:
 1205 0645 488DB424 		leaq	368(%rsp), %rsi
 1205      70010000 
 1206 064d 488DBC24 		leaq	272(%rsp), %rdi
 1206      10010000 
 1207 0655 48899C24 		movq	%rbx, 376(%rsp)
 1207      78010000 
 1208 065d C6041800 		movb	$0, (%rax,%rbx)
 1209              	.LEHB20:
 1210 0661 E8000000 		call	_ZNSt7__cxx1112basic_stringIcSt11char_traitsIcESaIcEE9_M_assignERKS4_
 1210      00
 1211              	.LEHE20:
 1212 0666 488BBC24 		movq	368(%rsp), %rdi
 1212      70010000 
 1213 066e 488D8424 		leaq	384(%rsp), %rax
 1213      80010000 
 1214 0676 4839C7   		cmpq	%rax, %rdi
 1215 0679 0F8532FF 		jne	.L192
 1215      FFFF
 1216 067f E932FFFF 		jmp	.L112
 1216      FF
 1217              		.p2align 4,,10
 1218 0684 0F1F4000 		.p2align 3
 1219              	.L217:
 1220              	.LEHB21:
 1221 0688 E8000000 		call	_ZN8UnitTest11CurrentTest7DetailsEv
 1221      00
 1222 068d 488B30   		movq	(%rax), %rsi
 1223 0690 488DBC24 		leaq	176(%rsp), %rdi
 1223      B0000000 
 1224 0698 BA410000 		movl	$65, %edx
 1224      00
 1225 069d E8000000 		call	_ZN8UnitTest11TestDetailsC1ERKS0_i
 1225      00
 1226 06a2 E8000000 		call	_ZN8UnitTest11CurrentTest7ResultsEv
 1226      00
 1227 06a7 488B38   		movq	(%rax), %rdi
 1228 06aa 488DB424 		leaq	176(%rsp), %rsi
 1228      B0000000 
 1229 06b2 BA000000 		movl	$.LC28, %edx
 1229      00
 1230 06b7 E8000000 		call	_ZN8UnitTest11TestResults13OnTestFailureERKNS_11TestDetailsEPKc
 1230      00
 1231              	.LEHE21:
 1232 06bc E920FFFF 		jmp	.L136
 1232      FF
 1233              		.p2align 4,,10
 1234 06c1 0F1F8000 		.p2align 3
 1234      000000
 1235              	.L209:
 1236              	.LEHB22:
 1237 06c8 E8000000 		call	_ZN8UnitTest11CurrentTest7DetailsEv
 1237      00
 1238 06cd 488B30   		movq	(%rax), %rsi
 1239 06d0 488D7C24 		leaq	112(%rsp), %rdi
 1239      70
 1240 06d5 BA3E0000 		movl	$62, %edx
 1240      00
 1241 06da E8000000 		call	_ZN8UnitTest11TestDetailsC1ERKS0_i
 1241      00
 1242 06df E8000000 		call	_ZN8UnitTest11CurrentTest7ResultsEv
 1242      00
 1243 06e4 488B38   		movq	(%rax), %rdi
 1244 06e7 488D7424 		leaq	112(%rsp), %rsi
 1244      70
 1245 06ec BA000000 		movl	$.LC27, %edx
 1245      00
 1246 06f1 E8000000 		call	_ZN8UnitTest11TestResults13OnTestFailureERKNS_11TestDetailsEPKc
 1246      00
 1247              	.LEHE22:
 1248 06f6 E956FCFF 		jmp	.L103
 1248      FF
 1249 06fb 0F1F4400 		.p2align 4,,10
 1249      00
 1250              		.p2align 3
 1251              	.L214:
 1252 0700 488D7424 		leaq	32(%rsp), %rsi
 1252      20
 1253 0705 488DBC24 		leaq	400(%rsp), %rdi
 1253      90010000 
 1254 070d 31D2     		xorl	%edx, %edx
 1255              	.LEHB23:
 1256 070f E8000000 		call	_ZNSt7__cxx1112basic_stringIcSt11char_traitsIcESaIcEE9_M_createERmm
 1256      00
 1257 0714 4889C7   		movq	%rax, %rdi
 1258 0717 48898424 		movq	%rax, 400(%rsp)
 1258      90010000 
 1259 071f 488B4424 		movq	32(%rsp), %rax
 1259      20
 1260 0724 48898424 		movq	%rax, 416(%rsp)
 1260      A0010000 
 1261              	.L108:
 1262 072c 4889DA   		movq	%rbx, %rdx
 1263 072f 4889EE   		movq	%rbp, %rsi
 1264 0732 E8000000 		call	memcpy
 1264      00
 1265 0737 488B5C24 		movq	32(%rsp), %rbx
 1265      20
 1266 073c 488B9424 		movq	400(%rsp), %rdx
 1266      90010000 
 1267 0744 E932FEFF 		jmp	.L110
 1267      FF
 1268 0749 0F1F8000 		.p2align 4,,10
 1268      000000
 1269              		.p2align 3
 1270              	.L219:
 1271 0750 488D7424 		leaq	40(%rsp), %rsi
 1271      28
 1272 0755 488DBC24 		leaq	368(%rsp), %rdi
 1272      70010000 
 1273 075d 31D2     		xorl	%edx, %edx
 1274 075f E8000000 		call	_ZNSt7__cxx1112basic_stringIcSt11char_traitsIcESaIcEE9_M_createERmm
 1274      00
 1275              	.LEHE23:
 1276 0764 4889C7   		movq	%rax, %rdi
 1277 0767 48898424 		movq	%rax, 368(%rsp)
 1277      70010000 
 1278 076f 488B4424 		movq	40(%rsp), %rax
 1278      28
 1279 0774 48898424 		movq	%rax, 384(%rsp)
 1279      80010000 
 1280              	.L117:
 1281 077c 4889DA   		movq	%rbx, %rdx
 1282 077f 4889EE   		movq	%rbp, %rsi
 1283 0782 E8000000 		call	memcpy
 1283      00
 1284 0787 488B5C24 		movq	40(%rsp), %rbx
 1284      28
 1285 078c 488B8424 		movq	368(%rsp), %rax
 1285      70010000 
 1286 0794 E9ACFEFF 		jmp	.L119
 1286      FF
 1287              	.L169:
 1288 0799 4889C3   		movq	%rax, %rbx
 1289 079c 4889D5   		movq	%rdx, %rbp
 1290              	.L139:
 1291 079f 488DBC24 		leaq	848(%rsp), %rdi
 1291      50030000 
 1292 07a7 E8000000 		call	_ZN8UnitTest16SignalTranslatorD1Ev
 1292      00
 1293 07ac 4889DF   		movq	%rbx, %rdi
 1294 07af 4889EA   		movq	%rbp, %rdx
 1295              	.L141:
 1296 07b2 4883FA01 		cmpq	$1, %rdx
 1297 07b6 0F848302 		je	.L143
 1297      0000
 1298 07bc 4883FA02 		cmpq	$2, %rdx
 1299 07c0 0F855302 		jne	.L222
 1299      0000
 1300 07c6 E8000000 		call	__cxa_begin_catch
 1300      00
 1301 07cb 488DBC24 		leaq	432(%rsp), %rdi
 1301      B0010000 
 1302 07d3 4889C3   		movq	%rax, %rbx
 1303              	.LEHB24:
 1304 07d6 E8000000 		call	_ZN8UnitTest15MemoryOutStreamC1Ev
 1304      00
 1305              	.LEHE24:
 1306 07db 488B03   		movq	(%rbx), %rax
 1307 07de 4889DF   		movq	%rbx, %rdi
 1308 07e1 FF5010   		call	*16(%rax)
 1309 07e4 488DBC24 		leaq	432(%rsp), %rdi
 1309      B0010000 
 1310 07ec BA150000 		movl	$21, %edx
 1310      00
 1311 07f1 BE000000 		movl	$.LC31, %esi
 1311      00
 1312 07f6 4889C3   		movq	%rax, %rbx
 1313              	.LEHB25:
 1314 07f9 E8000000 		call	_ZSt16__ostream_insertIcSt11char_traitsIcEERSt13basic_ostreamIT_T0_ES6_PKS3_l
 1314      00
 1315 07fe 488DBC24 		leaq	432(%rsp), %rdi
 1315      B0010000 
 1316 0806 4889DE   		movq	%rbx, %rsi
 1317 0809 E8000000 		call	_ZStlsISt11char_traitsIcEERSt13basic_ostreamIcT_ES5_PKc
 1317      00
 1318 080e 488DBC24 		leaq	432(%rsp), %rdi
 1318      B0010000 
 1319 0816 E8000000 		call	_ZNK8UnitTest15MemoryOutStream7GetTextEv
 1319      00
 1320 081b 4889C3   		movq	%rax, %rbx
 1321 081e E8000000 		call	_ZN8UnitTest11CurrentTest7ResultsEv
 1321      00
 1322 0823 488B7424 		movq	8(%rsp), %rsi
 1322      08
 1323 0828 488B38   		movq	(%rax), %rdi
 1324 082b 4889DA   		movq	%rbx, %rdx
 1325 082e E8000000 		call	_ZN8UnitTest11TestResults13OnTestFailureERKNS_11TestDetailsEPKc
 1325      00
 1326              	.LEHE25:
 1327 0833 488DBC24 		leaq	432(%rsp), %rdi
 1327      B0010000 
 1328              	.LEHB26:
 1329 083b E8000000 		call	_ZN8UnitTest15MemoryOutStreamD1Ev
 1329      00
 1330              	.LEHE26:
 1331              	.L193:
 1332 0840 E8000000 		call	__cxa_end_catch
 1332      00
 1333 0845 E9A4FDFF 		jmp	.L68
 1333      FF
 1334              	.L174:
 1335 084a 4889C3   		movq	%rax, %rbx
 1336              	.L91:
 1337 084d 488BBC24 		movq	240(%rsp), %rdi
 1337      F0000000 
 1338 0855 488D8424 		leaq	256(%rsp), %rax
 1338      00010000 
 1339 085d 4839C7   		cmpq	%rax, %rdi
 1340 0860 7405     		je	.L98
 1341 0862 E8000000 		call	_ZdlPv
 1341      00
 1342              	.L98:
 1343 0867 4889D8   		movq	%rbx, %rax
 1344              	.L97:
 1345 086a 4889C7   		movq	%rax, %rdi
 1346 086d E8000000 		call	__cxa_begin_catch
 1346      00
 1347              	.LEHB27:
 1348 0872 E8000000 		call	_ZN8UnitTest11CurrentTest7DetailsEv
 1348      00
 1349 0877 488B30   		movq	(%rax), %rsi
 1350 087a 488DBC24 		leaq	144(%rsp), %rdi
 1350      90000000 
 1351 0882 BA3E0000 		movl	$62, %edx
 1351      00
 1352 0887 E8000000 		call	_ZN8UnitTest11TestDetailsC1ERKS0_i
 1352      00
 1353 088c E8000000 		call	_ZN8UnitTest11CurrentTest7ResultsEv
 1353      00
 1354 0891 488B38   		movq	(%rax), %rdi
 1355 0894 488DB424 		leaq	144(%rsp), %rsi
 1355      90000000 
 1356 089c BA000000 		movl	$.LC29, %edx
 1356      00
 1357 08a1 E8000000 		call	_ZN8UnitTest11TestResults13OnTestFailureERKNS_11TestDetailsEPKc
 1357      00
 1358              	.LEHE27:
 1359              	.LEHB28:
 1360 08a6 E8000000 		call	__cxa_end_catch
 1360      00
 1361              	.LEHE28:
 1362 08ab E9A1FAFF 		jmp	.L103
 1362      FF
 1363              	.L177:
 1364 08b0 4889C3   		movq	%rax, %rbx
 1365              	.L124:
 1366 08b3 488BBC24 		movq	272(%rsp), %rdi
 1366      10010000 
 1367 08bb 488D8424 		leaq	288(%rsp), %rax
 1367      20010000 
 1368 08c3 4839C7   		cmpq	%rax, %rdi
 1369 08c6 7405     		je	.L131
 1370 08c8 E8000000 		call	_ZdlPv
 1370      00
 1371              	.L131:
 1372 08cd 4889D8   		movq	%rbx, %rax
 1373              	.L130:
 1374 08d0 4889C7   		movq	%rax, %rdi
 1375 08d3 E8000000 		call	__cxa_begin_catch
 1375      00
 1376              	.LEHB29:
 1377 08d8 E8000000 		call	_ZN8UnitTest11CurrentTest7DetailsEv
 1377      00
 1378 08dd 488B30   		movq	(%rax), %rsi
 1379 08e0 488DBC24 		leaq	208(%rsp), %rdi
 1379      D0000000 
 1380 08e8 BA410000 		movl	$65, %edx
 1380      00
 1381 08ed E8000000 		call	_ZN8UnitTest11TestDetailsC1ERKS0_i
 1381      00
 1382 08f2 E8000000 		call	_ZN8UnitTest11CurrentTest7ResultsEv
 1382      00
 1383 08f7 488B38   		movq	(%rax), %rdi
 1384 08fa 488DB424 		leaq	208(%rsp), %rsi
 1384      D0000000 
 1385 0902 BA000000 		movl	$.LC30, %edx
 1385      00
 1386 0907 E8000000 		call	_ZN8UnitTest11TestResults13OnTestFailureERKNS_11TestDetailsEPKc
 1386      00
 1387              	.LEHE29:
 1388              	.LEHB30:
 1389 090c E8000000 		call	__cxa_end_catch
 1389      00
 1390              	.LEHE30:
 1391 0911 E9CBFCFF 		jmp	.L136
 1391      FF
 1392 0916 662E0F1F 		.p2align 4,,10
 1392      84000000 
 1392      0000
 1393              		.p2align 3
 1394              	.L207:
 1395 0920 410FB614 		movzbl	(%r12), %edx
 1395      24
 1396 0925 88942460 		movb	%dl, 352(%rsp)
 1396      010000
 1397 092c 4889C2   		movq	%rax, %rdx
 1398 092f E9B7F9FF 		jmp	.L77
 1398      FF
 1399              		.p2align 4,,10
 1400 0934 0F1F4000 		.p2align 3
 1401              	.L220:
 1402 0938 0FB64500 		movzbl	0(%rbp), %eax
 1403 093c 88842480 		movb	%al, 384(%rsp)
 1403      010000
 1404 0943 488D8424 		leaq	384(%rsp), %rax
 1404      80010000 
 1405 094b E9F5FCFF 		jmp	.L119
 1405      FF
 1406              		.p2align 4,,10
 1407              		.p2align 3
 1408              	.L215:
 1409 0950 0FB65500 		movzbl	0(%rbp), %edx
 1410 0954 889424A0 		movb	%dl, 416(%rsp)
 1410      010000
 1411 095b 4889C2   		movq	%rax, %rdx
 1412 095e E918FCFF 		jmp	.L110
 1412      FF
 1413              		.p2align 4,,10
 1414 0963 0F1F4400 		.p2align 3
 1414      00
 1415              	.L212:
 1416 0968 410FB604 		movzbl	(%r12), %eax
 1416      24
 1417 096d 88842440 		movb	%al, 320(%rsp)
 1417      010000
 1418 0974 488D8424 		leaq	320(%rsp), %rax
 1418      40010000 
 1419 097c E9BCFAFF 		jmp	.L86
 1419      FF
 1420              		.p2align 4,,10
 1421 0981 0F1F8000 		.p2align 3
 1421      000000
 1422              	.L104:
 1423 0988 4889C6   		movq	%rax, %rsi
 1424 098b 488DBC24 		leaq	272(%rsp), %rdi
 1424      10010000 
 1425 0993 4883C650 		addq	$80, %rsi
 1426              	.LEHB31:
 1427 0997 E8000000 		call	_ZNSt7__cxx1112basic_stringIcSt11char_traitsIcESaIcEE9_M_assignERKS4_
 1427      00
 1428              	.LEHE31:
 1429 099c E915FCFF 		jmp	.L112
 1429      FF
 1430              		.p2align 4,,10
 1431 09a1 0F1F8000 		.p2align 3
 1431      000000
 1432              	.L71:
 1433 09a8 488B0424 		movq	(%rsp), %rax
 1434 09ac 488DBC24 		leaq	240(%rsp), %rdi
 1434      F0000000 
 1435 09b4 488D7050 		leaq	80(%rax), %rsi
 1436              	.LEHB32:
 1437 09b8 E8000000 		call	_ZNSt7__cxx1112basic_stringIcSt11char_traitsIcESaIcEE9_M_assignERKS4_
 1437      00
 1438              	.LEHE32:
 1439 09bd E964F9FF 		jmp	.L79
 1439      FF
 1440              	.L208:
 1441 09c2 4889C7   		movq	%rax, %rdi
 1442 09c5 E9E2FAFF 		jmp	.L75
 1442      FF
 1443              	.L221:
 1444 09ca 4889C7   		movq	%rax, %rdi
 1445 09cd E9AAFDFF 		jmp	.L117
 1445      FF
 1446              	.L216:
 1447 09d2 4889C7   		movq	%rax, %rdi
 1448 09d5 E952FDFF 		jmp	.L108
 1448      FF
 1449              	.L213:
 1450 09da 4889C7   		movq	%rax, %rdi
 1451 09dd E91AFBFF 		jmp	.L84
 1451      FF
 1452              	.L218:
 1453 09e2 E8000000 		call	__stack_chk_fail
 1453      00
 1454              	.L171:
 1455 09e7 4889C3   		movq	%rax, %rbx
 1456 09ea 4889D5   		movq	%rdx, %rbp
 1457 09ed E8000000 		call	__cxa_end_catch
 1457      00
 1458 09f2 E9A8FDFF 		jmp	.L139
 1458      FF
 1459              	.L166:
 1460 09f7 488DBC24 		leaq	432(%rsp), %rdi
 1460      B0010000 
 1461 09ff 4889C3   		movq	%rax, %rbx
 1462 0a02 E8000000 		call	_ZN8UnitTest15MemoryOutStreamD1Ev
 1462      00
 1463              	.L149:
 1464 0a07 E8000000 		call	__cxa_end_catch
 1464      00
 1465 0a0c 4889DF   		movq	%rbx, %rdi
 1466              	.LEHB33:
 1467 0a0f E8000000 		call	_Unwind_Resume
 1467      00
 1468              	.LEHE33:
 1469              	.L165:
 1470              	.L194:
 1471 0a14 4889C3   		movq	%rax, %rbx
 1472 0a17 EBEE     		jmp	.L149
 1473              	.L222:
 1474 0a19 E8000000 		call	__cxa_begin_catch
 1474      00
 1475              	.LEHB34:
 1476 0a1e E8000000 		call	_ZN8UnitTest11CurrentTest7ResultsEv
 1476      00
 1477 0a23 488B7424 		movq	8(%rsp), %rsi
 1477      08
 1478 0a28 488B38   		movq	(%rax), %rdi
 1479 0a2b BA000000 		movl	$.LC32, %edx
 1479      00
 1480 0a30 E8000000 		call	_ZN8UnitTest11TestResults13OnTestFailureERKNS_11TestDetailsEPKc
 1480      00
 1481              	.LEHE34:
 1482              	.LEHB35:
 1483 0a35 E8000000 		call	__cxa_end_catch
 1483      00
 1484              	.LEHE35:
 1485 0a3a E9AFFBFF 		jmp	.L68
 1485      FF
 1486              	.L143:
 1487 0a3f E8000000 		call	__cxa_begin_catch
 1487      00
 1488 0a44 4889C3   		movq	%rax, %rbx
 1489 0a47 488B00   		movq	(%rax), %rax
 1490 0a4a 4889DF   		movq	%rbx, %rdi
 1491 0a4d FF5010   		call	*16(%rax)
 1492 0a50 4889DF   		movq	%rbx, %rdi
 1493 0a53 4889C5   		movq	%rax, %rbp
 1494              	.LEHB36:
 1495 0a56 E8000000 		call	_ZNK8UnitTest15AssertException10LineNumberEv
 1495      00
 1496 0a5b 4889DF   		movq	%rbx, %rdi
 1497 0a5e 4189C4   		movl	%eax, %r12d
 1498 0a61 E8000000 		call	_ZNK8UnitTest15AssertException8FilenameEv
 1498      00
 1499 0a66 488B5424 		movq	8(%rsp), %rdx
 1499      08
 1500 0a6b 488D7C24 		leaq	48(%rsp), %rdi
 1500      30
 1501 0a70 4589E0   		movl	%r12d, %r8d
 1502 0a73 4889C1   		movq	%rax, %rcx
 1503 0a76 488B7208 		movq	8(%rdx), %rsi
 1504 0a7a 488B12   		movq	(%rdx), %rdx
 1505 0a7d E8000000 		call	_ZN8UnitTest11TestDetailsC1EPKcS2_S2_i
 1505      00
 1506 0a82 E8000000 		call	_ZN8UnitTest11CurrentTest7ResultsEv
 1506      00
 1507 0a87 488B38   		movq	(%rax), %rdi
 1508 0a8a 488D7424 		leaq	48(%rsp), %rsi
 1508      30
 1509 0a8f 4889EA   		movq	%rbp, %rdx
 1510 0a92 E8000000 		call	_ZN8UnitTest11TestResults13OnTestFailureERKNS_11TestDetailsEPKc
 1510      00
 1511              	.LEHE36:
 1512 0a97 E9A4FDFF 		jmp	.L193
 1512      FF
 1513              	.L164:
 1514 0a9c 4889C3   		movq	%rax, %rbx
 1515 0a9f E8000000 		call	__cxa_end_catch
 1515      00
 1516 0aa4 4889DF   		movq	%rbx, %rdi
 1517              	.LEHB37:
 1518 0aa7 E8000000 		call	_Unwind_Resume
 1518      00
 1519              	.LEHE37:
 1520              	.L167:
 1521 0aac E963FFFF 		jmp	.L194
 1521      FF
 1522              	.L179:
 1523 0ab1 488BBC24 		movq	400(%rsp), %rdi
 1523      90010000 
 1524 0ab9 4889C3   		movq	%rax, %rbx
 1525 0abc 488D8424 		leaq	416(%rsp), %rax
 1525      A0010000 
 1526 0ac4 4839C7   		cmpq	%rax, %rdi
 1527 0ac7 0F84E6FD 		je	.L124
 1527      FFFF
 1528              	.L191:
 1529 0acd E8000000 		call	_ZdlPv
 1529      00
 1530 0ad2 E9DCFDFF 		jmp	.L124
 1530      FF
 1531              	.L175:
 1532 0ad7 488BBC24 		movq	304(%rsp), %rdi
 1532      30010000 
 1533 0adf 4889C3   		movq	%rax, %rbx
 1534 0ae2 488D8424 		leaq	320(%rsp), %rax
 1534      40010000 
 1535 0aea 4839C7   		cmpq	%rax, %rdi
 1536 0aed 0F845AFD 		je	.L91
 1536      FFFF
 1537              	.L189:
 1538 0af3 E8000000 		call	_ZdlPv
 1538      00
 1539 0af8 E950FDFF 		jmp	.L91
 1539      FF
 1540              	.L176:
 1541 0afd 488BBC24 		movq	336(%rsp), %rdi
 1541      50010000 
 1542 0b05 4889C3   		movq	%rax, %rbx
 1543 0b08 488D8424 		leaq	352(%rsp), %rax
 1543      60010000 
 1544 0b10 4839C7   		cmpq	%rax, %rdi
 1545 0b13 75DE     		jne	.L189
 1546 0b15 E933FDFF 		jmp	.L91
 1546      FF
 1547              	.L168:
 1548 0b1a 4889C7   		movq	%rax, %rdi
 1549 0b1d E990FCFF 		jmp	.L141
 1549      FF
 1550              	.L173:
 1551 0b22 4889C3   		movq	%rax, %rbx
 1552 0b25 4889D5   		movq	%rdx, %rbp
 1553 0b28 E8000000 		call	__cxa_end_catch
 1553      00
 1554 0b2d E96DFCFF 		jmp	.L139
 1554      FF
 1555              	.L178:
 1556 0b32 488BBC24 		movq	368(%rsp), %rdi
 1556      70010000 
 1557 0b3a 4889C3   		movq	%rax, %rbx
 1558 0b3d 488D8424 		leaq	384(%rsp), %rax
 1558      80010000 
 1559 0b45 4839C7   		cmpq	%rax, %rdi
 1560 0b48 7583     		jne	.L191
 1561 0b4a E964FDFF 		jmp	.L124
 1561      FF
 1562              	.L170:
 1563 0b4f E916FDFF 		jmp	.L97
 1563      FF
 1564              	.L172:
 1565 0b54 E977FDFF 		jmp	.L130
 1565      FF
 1566              		.cfi_endproc
 1567              	.LFE1712:
 1568              		.section	.gcc_except_table
 1569              		.align 4
 1570              	.LLSDA1712:
 1571 0028 FF       		.byte	0xff
 1572 0029 03       		.byte	0x3
 1573 002a D001     		.uleb128 .LLSDATT1712-.LLSDATTD1712
 1574              	.LLSDATTD1712:
 1575 002c 01       		.byte	0x1
 1576 002d B901     		.uleb128 .LLSDACSE1712-.LLSDACSB1712
 1577              	.LLSDACSB1712:
 1578 002f 2A       		.uleb128 .LEHB6-.LFB1712
 1579 0030 05       		.uleb128 .LEHE6-.LEHB6
 1580 0031 00       		.uleb128 0
 1581 0032 00       		.uleb128 0
 1582 0033 3A       		.uleb128 .LEHB7-.LFB1712
 1583 0034 05       		.uleb128 .LEHE7-.LEHB7
 1584 0035 9A13     		.uleb128 .L168-.LFB1712
 1585 0037 05       		.uleb128 0x5
 1586 0038 6B       		.uleb128 .LEHB8-.LFB1712
 1587 0039 44       		.uleb128 .LEHE8-.LEHB8
 1588 003a 990C     		.uleb128 .L169-.LFB1712
 1589 003c 07       		.uleb128 0x7
 1590 003d 8E02     		.uleb128 .LEHB9-.LFB1712
 1591 003f 05       		.uleb128 .LEHE9-.LEHB9
 1592 0040 CA0D     		.uleb128 .L174-.LFB1712
 1593 0042 01       		.uleb128 0x1
 1594 0043 B302     		.uleb128 .LEHB10-.LFB1712
 1595 0045 05       		.uleb128 .LEHE10-.LEHB10
 1596 0046 990C     		.uleb128 .L169-.LFB1712
 1597 0048 07       		.uleb128 0x7
 1598 0049 8703     		.uleb128 .LEHB11-.LFB1712
 1599 004b 05       		.uleb128 .LEHE11-.LEHB11
 1600 004c FD12     		.uleb128 .L176-.LFB1712
 1601 004e 01       		.uleb128 0x1
 1602 004f EB03     		.uleb128 .LEHB12-.LFB1712
 1603 0051 05       		.uleb128 .LEHE12-.LEHB12
 1604 0052 990C     		.uleb128 .L169-.LFB1712
 1605 0054 07       		.uleb128 0x7
 1606 0055 D404     		.uleb128 .LEHB13-.LFB1712
 1607 0057 05       		.uleb128 .LEHE13-.LEHB13
 1608 0058 B00E     		.uleb128 .L177-.LFB1712
 1609 005a 01       		.uleb128 0x1
 1610 005b 8705     		.uleb128 .LEHB14-.LFB1712
 1611 005d 05       		.uleb128 .LEHE14-.LEHB14
 1612 005e CA0D     		.uleb128 .L174-.LFB1712
 1613 0060 01       		.uleb128 0x1
 1614 0061 D905     		.uleb128 .LEHB15-.LFB1712
 1615 0063 05       		.uleb128 .LEHE15-.LEHB15
 1616 0064 D712     		.uleb128 .L175-.LFB1712
 1617 0066 01       		.uleb128 0x1
 1618 0067 8F06     		.uleb128 .LEHB16-.LFB1712
 1619 0069 55       		.uleb128 .LEHE16-.LEHB16
 1620 006a CA0D     		.uleb128 .L174-.LFB1712
 1621 006c 01       		.uleb128 0x1
 1622 006d C707     		.uleb128 .LEHB17-.LFB1712
 1623 006f 05       		.uleb128 .LEHE17-.LEHB17
 1624 0070 B00E     		.uleb128 .L177-.LFB1712
 1625 0072 01       		.uleb128 0x1
 1626 0073 9708     		.uleb128 .LEHB18-.LFB1712
 1627 0075 05       		.uleb128 .LEHE18-.LEHB18
 1628 0076 B112     		.uleb128 .L179-.LFB1712
 1629 0078 01       		.uleb128 0x1
 1630 0079 E908     		.uleb128 .LEHB19-.LFB1712
 1631 007b 05       		.uleb128 .LEHE19-.LEHB19
 1632 007c 9A13     		.uleb128 .L168-.LFB1712
 1633 007e 05       		.uleb128 0x5
 1634 007f E109     		.uleb128 .LEHB20-.LFB1712
 1635 0081 05       		.uleb128 .LEHE20-.LEHB20
 1636 0082 B213     		.uleb128 .L178-.LFB1712
 1637 0084 01       		.uleb128 0x1
 1638 0085 880A     		.uleb128 .LEHB21-.LFB1712
 1639 0087 34       		.uleb128 .LEHE21-.LEHB21
 1640 0088 D413     		.uleb128 .L172-.LFB1712
 1641 008a 01       		.uleb128 0x1
 1642 008b C80A     		.uleb128 .LEHB22-.LFB1712
 1643 008d 2E       		.uleb128 .LEHE22-.LEHB22
 1644 008e CF13     		.uleb128 .L170-.LFB1712
 1645 0090 01       		.uleb128 0x1
 1646 0091 8F0B     		.uleb128 .LEHB23-.LFB1712
 1647 0093 55       		.uleb128 .LEHE23-.LEHB23
 1648 0094 B00E     		.uleb128 .L177-.LFB1712
 1649 0096 01       		.uleb128 0x1
 1650 0097 D60C     		.uleb128 .LEHB24-.LFB1712
 1651 0099 05       		.uleb128 .LEHE24-.LEHB24
 1652 009a 9411     		.uleb128 .L165-.LFB1712
 1653 009c 00       		.uleb128 0
 1654 009d F90C     		.uleb128 .LEHB25-.LFB1712
 1655 009f 3A       		.uleb128 .LEHE25-.LEHB25
 1656 00a0 F710     		.uleb128 .L166-.LFB1712
 1657 00a2 00       		.uleb128 0
 1658 00a3 BB0D     		.uleb128 .LEHB26-.LFB1712
 1659 00a5 05       		.uleb128 .LEHE26-.LEHB26
 1660 00a6 9411     		.uleb128 .L165-.LFB1712
 1661 00a8 00       		.uleb128 0
 1662 00a9 F20D     		.uleb128 .LEHB27-.LFB1712
 1663 00ab 34       		.uleb128 .LEHE27-.LEHB27
 1664 00ac E710     		.uleb128 .L171-.LFB1712
 1665 00ae 07       		.uleb128 0x7
 1666 00af A60E     		.uleb128 .LEHB28-.LFB1712
 1667 00b1 05       		.uleb128 .LEHE28-.LEHB28
 1668 00b2 990C     		.uleb128 .L169-.LFB1712
 1669 00b4 07       		.uleb128 0x7
 1670 00b5 D80E     		.uleb128 .LEHB29-.LFB1712
 1671 00b7 34       		.uleb128 .LEHE29-.LEHB29
 1672 00b8 A213     		.uleb128 .L173-.LFB1712
 1673 00ba 07       		.uleb128 0x7
 1674 00bb 8C0F     		.uleb128 .LEHB30-.LFB1712
 1675 00bd 05       		.uleb128 .LEHE30-.LEHB30
 1676 00be 990C     		.uleb128 .L169-.LFB1712
 1677 00c0 07       		.uleb128 0x7
 1678 00c1 9710     		.uleb128 .LEHB31-.LFB1712
 1679 00c3 05       		.uleb128 .LEHE31-.LEHB31
 1680 00c4 B00E     		.uleb128 .L177-.LFB1712
 1681 00c6 01       		.uleb128 0x1
 1682 00c7 B810     		.uleb128 .LEHB32-.LFB1712
 1683 00c9 05       		.uleb128 .LEHE32-.LEHB32
 1684 00ca CA0D     		.uleb128 .L174-.LFB1712
 1685 00cc 01       		.uleb128 0x1
 1686 00cd 8F11     		.uleb128 .LEHB33-.LFB1712
 1687 00cf 05       		.uleb128 .LEHE33-.LEHB33
 1688 00d0 00       		.uleb128 0
 1689 00d1 00       		.uleb128 0
 1690 00d2 9E11     		.uleb128 .LEHB34-.LFB1712
 1691 00d4 17       		.uleb128 .LEHE34-.LEHB34
 1692 00d5 9C12     		.uleb128 .L164-.LFB1712
 1693 00d7 00       		.uleb128 0
 1694 00d8 B511     		.uleb128 .LEHB35-.LFB1712
 1695 00da 05       		.uleb128 .LEHE35-.LEHB35
 1696 00db 00       		.uleb128 0
 1697 00dc 00       		.uleb128 0
 1698 00dd D611     		.uleb128 .LEHB36-.LFB1712
 1699 00df 41       		.uleb128 .LEHE36-.LEHB36
 1700 00e0 AC12     		.uleb128 .L167-.LFB1712
 1701 00e2 00       		.uleb128 0
 1702 00e3 A712     		.uleb128 .LEHB37-.LFB1712
 1703 00e5 05       		.uleb128 .LEHE37-.LEHB37
 1704 00e6 00       		.uleb128 0
 1705 00e7 00       		.uleb128 0
 1706              	.LLSDACSE1712:
 1707 00e8 03       		.byte	0x3
 1708 00e9 00       		.byte	0
 1709 00ea 02       		.byte	0x2
 1710 00eb 7D       		.byte	0x7d
 1711 00ec 01       		.byte	0x1
 1712 00ed 7D       		.byte	0x7d
 1713 00ee 00       		.byte	0
 1714 00ef 7D       		.byte	0x7d
 1715              		.align 4
 1716 00f0 00000000 		.long	0
 1717              	
 1718 00f4 00000000 		.long	_ZTISt9exception
 1719 00f8 00000000 		.long	_ZTIN8UnitTest15AssertExceptionE
 1720              	.LLSDATT1712:
 1721              		.text
 1723              		.section	.text.unlikely
 1724              	.LCOLDE34:
 1725              		.text
 1726              	.LHOTE34:
 1727              		.section	.rodata.str1.8
 1728 009a 00000000 		.align 8
 1728      0000
 1729              	.LC35:
 1730 00a0 556E6861 		.string	"Unhandled exception while destroying fixture XmlTestReporterFixture"
 1730      6E646C65 
 1730      64206578 
 1730      63657074 
 1730      696F6E20 
 1731 00e4 00000000 		.align 8
 1732              	.LC36:
 1733 00e8 556E6861 		.string	"Unhandled exception while constructing fixture XmlTestReporterFixture"
 1733      6E646C65 
 1733      64206578 
 1733      63657074 
 1733      696F6E20 
 1734              		.section	.text.unlikely
 1735 0133 90       		.align 2
 1736              	.LCOLDB37:
 1737              		.text
 1738              	.LHOTB37:
 1739 0b59 90       		.align 2
 1740 0b5a 660F1F44 		.p2align 4,,15
 1740      0000
 1742              	_ZNK12_GLOBAL__N_166TestXmlTestReporterFixtureOutputIsCachedUntilReportSummaryIsCalled7RunImplEv:
 1743              	.LFB1384:
 1744              		.cfi_startproc
 1745              		.cfi_personality 0x3,__gxx_personality_v0
 1746              		.cfi_lsda 0x3,.LLSDA1384
 1747 0b60 4157     		pushq	%r15
 1748              		.cfi_def_cfa_offset 16
 1749              		.cfi_offset 15, -16
 1750 0b62 4156     		pushq	%r14
 1751              		.cfi_def_cfa_offset 24
 1752              		.cfi_offset 14, -24
 1753 0b64 4989FF   		movq	%rdi, %r15
 1754 0b67 4155     		pushq	%r13
 1755              		.cfi_def_cfa_offset 32
 1756              		.cfi_offset 13, -32
 1757 0b69 4154     		pushq	%r12
 1758              		.cfi_def_cfa_offset 40
 1759              		.cfi_offset 12, -40
 1760 0b6b 4C8D7708 		leaq	8(%rdi), %r14
 1761 0b6f 55       		pushq	%rbp
 1762              		.cfi_def_cfa_offset 48
 1763              		.cfi_offset 6, -48
 1764 0b70 53       		pushq	%rbx
 1765              		.cfi_def_cfa_offset 56
 1766              		.cfi_offset 3, -56
 1767 0b71 4881ECD8 		subq	$472, %rsp
 1767      010000
 1768              		.cfi_def_cfa_offset 528
 1769 0b78 488DBC24 		leaq	144(%rsp), %rdi
 1769      90000000 
 1770 0b80 64488B04 		movq	%fs:40, %rax
 1770      25280000 
 1770      00
 1771 0b89 48898424 		movq	%rax, 456(%rsp)
 1771      C8010000 
 1772 0b91 31C0     		xorl	%eax, %eax
 1773 0b93 E8000000 		call	_ZNSt8ios_baseC2Ev
 1773      00
 1774 0b98 488B0500 		movq	_ZTTNSt7__cxx1119basic_ostringstreamIcSt11char_traitsIcESaIcEEE+8(%rip), %rax
 1774      000000
 1775 0b9f C6842470 		movb	$0, 368(%rsp)
 1775      01000000 
 1776 0ba7 488D7C24 		leaq	32(%rsp), %rdi
 1776      20
 1777 0bac 48C78424 		movq	$_ZTVSt9basic_iosIcSt11char_traitsIcEE+16, 144(%rsp)
 1777      90000000 
 1777      00000000 
 1778 0bb8 48C78424 		movq	$0, 360(%rsp)
 1778      68010000 
 1778      00000000 
 1779 0bc4 31F6     		xorl	%esi, %esi
 1780 0bc6 C6842471 		movb	$0, 369(%rsp)
 1780      01000000 
 1781 0bce 48C78424 		movq	$0, 376(%rsp)
 1781      78010000 
 1781      00000000 
 1782 0bda 480378E8 		addq	-24(%rax), %rdi
 1783 0bde 48894424 		movq	%rax, 32(%rsp)
 1783      20
 1784 0be3 488B0500 		movq	_ZTTNSt7__cxx1119basic_ostringstreamIcSt11char_traitsIcESaIcEEE+16(%rip), %rax
 1784      000000
 1785 0bea 48C78424 		movq	$0, 384(%rsp)
 1785      80010000 
 1785      00000000 
 1786 0bf6 48C78424 		movq	$0, 392(%rsp)
 1786      88010000 
 1786      00000000 
 1787 0c02 48C78424 		movq	$0, 400(%rsp)
 1787      90010000 
 1787      00000000 
 1788 0c0e 488907   		movq	%rax, (%rdi)
 1789              	.LEHB38:
 1790 0c11 E8000000 		call	_ZNSt9basic_iosIcSt11char_traitsIcEE4initEPSt15basic_streambufIcS1_E
 1790      00
 1791              	.LEHE38:
 1792 0c16 488D7C24 		leaq	96(%rsp), %rdi
 1792      60
 1793 0c1b 48C74424 		movq	$_ZTVNSt7__cxx1119basic_ostringstreamIcSt11char_traitsIcESaIcEEE+24, 32(%rsp)
 1793      20000000 
 1793      00
 1794 0c24 48C78424 		movq	$_ZTVNSt7__cxx1119basic_ostringstreamIcSt11char_traitsIcESaIcEEE+64, 144(%rsp)
 1794      90000000 
 1794      00000000 
 1795 0c30 48C74424 		movq	$_ZTVSt15basic_streambufIcSt11char_traitsIcEE+16, 40(%rsp)
 1795      28000000 
 1795      00
 1796 0c39 48C74424 		movq	$0, 48(%rsp)
 1796      30000000 
 1796      00
 1797 0c42 48C74424 		movq	$0, 56(%rsp)
 1797      38000000 
 1797      00
 1798 0c4b 48C74424 		movq	$0, 64(%rsp)
 1798      40000000 
 1798      00
 1799 0c54 48C74424 		movq	$0, 72(%rsp)
 1799      48000000 
 1799      00
 1800 0c5d 48C74424 		movq	$0, 80(%rsp)
 1800      50000000 
 1800      00
 1801 0c66 48C74424 		movq	$0, 88(%rsp)
 1801      58000000 
 1801      00
 1802 0c6f E8000000 		call	_ZNSt6localeC1Ev
 1802      00
 1803 0c74 488D8424 		leaq	128(%rsp), %rax
 1803      80000000 
 1804 0c7c 488D7424 		leaq	40(%rsp), %rsi
 1804      28
 1805 0c81 48C74424 		movq	$_ZTVNSt7__cxx1115basic_stringbufIcSt11char_traitsIcESaIcEEE+16, 40(%rsp)
 1805      28000000 
 1805      00
 1806 0c8a C7442468 		movl	$16, 104(%rsp)
 1806      10000000 
 1807 0c92 48C74424 		movq	$0, 120(%rsp)
 1807      78000000 
 1807      00
 1808 0c9b 48894424 		movq	%rax, 112(%rsp)
 1808      70
 1809 0ca0 488D4424 		leaq	32(%rsp), %rax
 1809      20
 1810 0ca5 C6842480 		movb	$0, 128(%rsp)
 1810      00000000 
 1811 0cad 488D7870 		leaq	112(%rax), %rdi
 1812              	.LEHB39:
 1813 0cb1 E8000000 		call	_ZNSt9basic_iosIcSt11char_traitsIcEE4initEPSt15basic_streambufIcS1_E
 1813      00
 1814              	.LEHE39:
 1815 0cb6 488D4424 		leaq	32(%rsp), %rax
 1815      20
 1816 0cbb 488DBC24 		leaq	408(%rsp), %rdi
 1816      98010000 
 1817 0cc3 4889C6   		movq	%rax, %rsi
 1818              	.LEHB40:
 1819 0cc6 E8000000 		call	_ZN8UnitTest15XmlTestReporterC1ERSo
 1819      00
 1820              	.LEHE40:
 1821 0ccb 488D7C24 		leaq	32(%rsp), %rdi
 1821      20
 1822 0cd0 4C89F6   		movq	%r14, %rsi
 1823 0cd3 4C89B424 		movq	%r14, 448(%rsp)
 1823      C0010000 
 1824              	.LEHB41:
 1825 0cdb E8A0F4FF 		call	_ZN8UnitTest11ExecuteTestIN12_GLOBAL__N_168XmlTestReporterFixtureOutputIsCachedUntilReportSum
 1825      FF
 1826              	.LEHE41:
 1827 0ce0 4C8BA424 		movq	424(%rsp), %r12
 1827      A8010000 
 1828 0ce8 488BAC24 		movq	416(%rsp), %rbp
 1828      A0010000 
 1829 0cf0 48C78424 		movq	$_ZTVN8UnitTest20DeferredTestReporterE+16, 408(%rsp)
 1829      98010000 
 1829      00000000 
 1830 0cfc 4939EC   		cmpq	%rbp, %r12
 1831 0cff 0F848600 		je	.L230
 1831      0000
 1832              		.p2align 4,,10
 1833 0d05 0F1F00   		.p2align 3
 1834              	.L238:
 1835 0d08 488B5D68 		movq	104(%rbp), %rbx
 1836 0d0c 4C8B6D60 		movq	96(%rbp), %r13
 1837 0d10 4C39EB   		cmpq	%r13, %rbx
 1838 0d13 7422     		je	.L231
 1839              		.p2align 4,,10
 1840 0d15 0F1F00   		.p2align 3
 1841              	.L233:
 1842 0d18 498B7D08 		movq	8(%r13), %rdi
 1843 0d1c 498D5518 		leaq	24(%r13), %rdx
 1844 0d20 4839D7   		cmpq	%rdx, %rdi
 1845 0d23 7405     		je	.L232
 1846 0d25 E8000000 		call	_ZdlPv
 1846      00
 1847              	.L232:
 1848 0d2a 4983C528 		addq	$40, %r13
 1849 0d2e 4C39EB   		cmpq	%r13, %rbx
 1850 0d31 75E5     		jne	.L233
 1851 0d33 488B5D60 		movq	96(%rbp), %rbx
 1852              	.L231:
 1853 0d37 4885DB   		testq	%rbx, %rbx
 1854 0d3a 7408     		je	.L234
 1855 0d3c 4889DF   		movq	%rbx, %rdi
 1856 0d3f E8000000 		call	_ZdlPv
 1856      00
 1857              	.L234:
 1858 0d44 488B7D40 		movq	64(%rbp), %rdi
 1859 0d48 488D4550 		leaq	80(%rbp), %rax
 1860 0d4c 4839C7   		cmpq	%rax, %rdi
 1861 0d4f 7405     		je	.L235
 1862 0d51 E8000000 		call	_ZdlPv
 1862      00
 1863              	.L235:
 1864 0d56 488B7D20 		movq	32(%rbp), %rdi
 1865 0d5a 488D4530 		leaq	48(%rbp), %rax
 1866 0d5e 4839C7   		cmpq	%rax, %rdi
 1867 0d61 7405     		je	.L236
 1868 0d63 E8000000 		call	_ZdlPv
 1868      00
 1869              	.L236:
 1870 0d68 488B7D00 		movq	0(%rbp), %rdi
 1871 0d6c 488D4510 		leaq	16(%rbp), %rax
 1872 0d70 4839C7   		cmpq	%rax, %rdi
 1873 0d73 7405     		je	.L237
 1874 0d75 E8000000 		call	_ZdlPv
 1874      00
 1875              	.L237:
 1876 0d7a 4883ED80 		subq	$-128, %rbp
 1877 0d7e 4939EC   		cmpq	%rbp, %r12
 1878 0d81 7585     		jne	.L238
 1879 0d83 4C8BA424 		movq	416(%rsp), %r12
 1879      A0010000 
 1880              	.L230:
 1881 0d8b 4D85E4   		testq	%r12, %r12
 1882 0d8e 7408     		je	.L239
 1883 0d90 4C89E7   		movq	%r12, %rdi
 1884 0d93 E8000000 		call	_ZdlPv
 1884      00
 1885              	.L239:
 1886 0d98 488DBC24 		leaq	408(%rsp), %rdi
 1886      98010000 
 1887              	.LEHB42:
 1888 0da0 E8000000 		call	_ZN8UnitTest12TestReporterD2Ev
 1888      00
 1889              	.LEHE42:
 1890 0da5 488B7C24 		movq	112(%rsp), %rdi
 1890      70
 1891 0daa 488D8424 		leaq	128(%rsp), %rax
 1891      80000000 
 1892 0db2 48C74424 		movq	$_ZTVNSt7__cxx1119basic_ostringstreamIcSt11char_traitsIcESaIcEEE+24, 32(%rsp)
 1892      20000000 
 1892      00
 1893 0dbb 48C78424 		movq	$_ZTVNSt7__cxx1119basic_ostringstreamIcSt11char_traitsIcESaIcEEE+64, 144(%rsp)
 1893      90000000 
 1893      00000000 
 1894 0dc7 48C74424 		movq	$_ZTVNSt7__cxx1115basic_stringbufIcSt11char_traitsIcESaIcEEE+16, 40(%rsp)
 1894      28000000 
 1894      00
 1895 0dd0 4839C7   		cmpq	%rax, %rdi
 1896 0dd3 7405     		je	.L240
 1897 0dd5 E8000000 		call	_ZdlPv
 1897      00
 1898              	.L240:
 1899 0dda 488D7C24 		leaq	96(%rsp), %rdi
 1899      60
 1900 0ddf 48C74424 		movq	$_ZTVSt15basic_streambufIcSt11char_traitsIcEE+16, 40(%rsp)
 1900      28000000 
 1900      00
 1901 0de8 E8000000 		call	_ZNSt6localeD1Ev
 1901      00
 1902 0ded 488B0500 		movq	_ZTTNSt7__cxx1119basic_ostringstreamIcSt11char_traitsIcESaIcEEE+8(%rip), %rax
 1902      000000
 1903 0df4 488B0D00 		movq	_ZTTNSt7__cxx1119basic_ostringstreamIcSt11char_traitsIcESaIcEEE+16(%rip), %rcx
 1903      000000
 1904 0dfb 488DBC24 		leaq	144(%rsp), %rdi
 1904      90000000 
 1905 0e03 488B40E8 		movq	-24(%rax), %rax
 1906 0e07 48894C04 		movq	%rcx, 32(%rsp,%rax)
 1906      20
 1907 0e0c 48C78424 		movq	$_ZTVSt9basic_iosIcSt11char_traitsIcEE+16, 144(%rsp)
 1907      90000000 
 1907      00000000 
 1908              	.LEHB43:
 1909 0e18 E8000000 		call	_ZNSt8ios_baseD2Ev
 1909      00
 1910              	.LEHE43:
 1911              	.L223:
 1912 0e1d 488B8424 		movq	456(%rsp), %rax
 1912      C8010000 
 1913 0e25 64483304 		xorq	%fs:40, %rax
 1913      25280000 
 1913      00
 1914 0e2e 0F85C000 		jne	.L283
 1914      0000
 1915 0e34 4881C4D8 		addq	$472, %rsp
 1915      010000
 1916              		.cfi_remember_state
 1917              		.cfi_def_cfa_offset 56
 1918 0e3b 5B       		popq	%rbx
 1919              		.cfi_def_cfa_offset 48
 1920 0e3c 5D       		popq	%rbp
 1921              		.cfi_def_cfa_offset 40
 1922 0e3d 415C     		popq	%r12
 1923              		.cfi_def_cfa_offset 32
 1924 0e3f 415D     		popq	%r13
 1925              		.cfi_def_cfa_offset 24
 1926 0e41 415E     		popq	%r14
 1927              		.cfi_def_cfa_offset 16
 1928 0e43 415F     		popq	%r15
 1929              		.cfi_def_cfa_offset 8
 1930 0e45 C3       		ret
 1931              	.L263:
 1932              		.cfi_restore_state
 1933 0e46 4889C3   		movq	%rax, %rbx
 1934 0e49 4889D5   		movq	%rdx, %rbp
 1935              	.L226:
 1936 0e4c 488DBC24 		leaq	144(%rsp), %rdi
 1936      90000000 
 1937 0e54 48C78424 		movq	$_ZTVSt9basic_iosIcSt11char_traitsIcEE+16, 144(%rsp)
 1937      90000000 
 1937      00000000 
 1938 0e60 E8000000 		call	_ZNSt8ios_baseD2Ev
 1938      00
 1939 0e65 4889DF   		movq	%rbx, %rdi
 1940 0e68 4889EA   		movq	%rbp, %rdx
 1941 0e6b 31DB     		xorl	%ebx, %ebx
 1942              	.L227:
 1943 0e6d 4883FA01 		cmpq	$1, %rdx
 1944 0e71 0F84EA00 		je	.L247
 1944      0000
 1945 0e77 4883FA02 		cmpq	$2, %rdx
 1946 0e7b 0F85A400 		jne	.L284
 1946      0000
 1947 0e81 E8000000 		call	__cxa_begin_catch
 1947      00
 1948 0e86 488D7C24 		leaq	32(%rsp), %rdi
 1948      20
 1949 0e8b 4889C3   		movq	%rax, %rbx
 1950              	.LEHB44:
 1951 0e8e E8000000 		call	_ZN8UnitTest15MemoryOutStreamC1Ev
 1951      00
 1952              	.LEHE44:
 1953 0e93 488B03   		movq	(%rbx), %rax
 1954 0e96 4889DF   		movq	%rbx, %rdi
 1955 0e99 FF5010   		call	*16(%rax)
 1956 0e9c 488D7C24 		leaq	32(%rsp), %rdi
 1956      20
 1957 0ea1 BA150000 		movl	$21, %edx
 1957      00
 1958 0ea6 BE000000 		movl	$.LC31, %esi
 1958      00
 1959 0eab 4889C3   		movq	%rax, %rbx
 1960              	.LEHB45:
 1961 0eae E8000000 		call	_ZSt16__ostream_insertIcSt11char_traitsIcEERSt13basic_ostreamIT_T0_ES6_PKS3_l
 1961      00
 1962 0eb3 488D7C24 		leaq	32(%rsp), %rdi
 1962      20
 1963 0eb8 4889DE   		movq	%rbx, %rsi
 1964 0ebb E8000000 		call	_ZStlsISt11char_traitsIcEERSt13basic_ostreamIcT_ES5_PKc
 1964      00
 1965 0ec0 488D7C24 		leaq	32(%rsp), %rdi
 1965      20
 1966 0ec5 E8000000 		call	_ZNK8UnitTest15MemoryOutStream7GetTextEv
 1966      00
 1967 0eca 4889C3   		movq	%rax, %rbx
 1968 0ecd E8000000 		call	_ZN8UnitTest11CurrentTest7ResultsEv
 1968      00
 1969 0ed2 488B38   		movq	(%rax), %rdi
 1970 0ed5 4889DA   		movq	%rbx, %rdx
 1971 0ed8 4C89F6   		movq	%r14, %rsi
 1972 0edb E8000000 		call	_ZN8UnitTest11TestResults13OnTestFailureERKNS_11TestDetailsEPKc
 1972      00
 1973              	.LEHE45:
 1974 0ee0 488D7C24 		leaq	32(%rsp), %rdi
 1974      20
 1975              	.LEHB46:
 1976 0ee5 E8000000 		call	_ZN8UnitTest15MemoryOutStreamD1Ev
 1976      00
 1977              	.LEHE46:
 1978              	.L278:
 1979 0eea E8000000 		call	__cxa_end_catch
 1979      00
 1980 0eef E929FFFF 		jmp	.L223
 1980      FF
 1981              	.L283:
 1982 0ef4 E8000000 		call	__stack_chk_fail
 1982      00
 1983              	.L256:
 1984 0ef9 4889C7   		movq	%rax, %rdi
 1985 0efc BB010000 		movl	$1, %ebx
 1985      00
 1986 0f01 E967FFFF 		jmp	.L227
 1986      FF
 1987              	.L260:
 1988 0f06 488D7C24 		leaq	32(%rsp), %rdi
 1988      20
 1989 0f0b 4889C3   		movq	%rax, %rbx
 1990 0f0e E8000000 		call	_ZN8UnitTest15MemoryOutStreamD1Ev
 1990      00
 1991              	.L253:
 1992 0f13 E8000000 		call	__cxa_end_catch
 1992      00
 1993 0f18 4889DF   		movq	%rbx, %rdi
 1994              	.LEHB47:
 1995 0f1b E8000000 		call	_Unwind_Resume
 1995      00
 1996              	.LEHE47:
 1997              	.L259:
 1998              	.L279:
 1999 0f20 4889C3   		movq	%rax, %rbx
 2000 0f23 EBEE     		jmp	.L253
 2001              	.L284:
 2002 0f25 E8000000 		call	__cxa_begin_catch
 2002      00
 2003 0f2a 84DB     		testb	%bl, %bl
 2004 0f2c BA370000 		movl	$55, %edx
 2004      00
 2005 0f31 4C89F6   		movq	%r14, %rsi
 2006 0f34 4889E7   		movq	%rsp, %rdi
 2007 0f37 0F848900 		je	.L249
 2007      0000
 2008              	.LEHB48:
 2009 0f3d E8000000 		call	_ZN8UnitTest11TestDetailsC1ERKS0_i
 2009      00
 2010 0f42 E8000000 		call	_ZN8UnitTest11CurrentTest7ResultsEv
 2010      00
 2011 0f47 488B38   		movq	(%rax), %rdi
 2012 0f4a BA000000 		movl	$.LC35, %edx
 2012      00
 2013 0f4f 4889E6   		movq	%rsp, %rsi
 2014 0f52 E8000000 		call	_ZN8UnitTest11TestResults13OnTestFailureERKNS_11TestDetailsEPKc
 2014      00
 2015              	.LEHE48:
 2016              	.L250:
 2017              	.LEHB49:
 2018 0f57 E8000000 		call	__cxa_end_catch
 2018      00
 2019              	.LEHE49:
 2020 0f5c E9BCFEFF 		jmp	.L223
 2020      FF
 2021              	.L247:
 2022 0f61 E8000000 		call	__cxa_begin_catch
 2022      00
 2023 0f66 4889C3   		movq	%rax, %rbx
 2024 0f69 488B00   		movq	(%rax), %rax
 2025 0f6c 4889DF   		movq	%rbx, %rdi
 2026 0f6f FF5010   		call	*16(%rax)
 2027 0f72 4889DF   		movq	%rbx, %rdi
 2028 0f75 4889C5   		movq	%rax, %rbp
 2029              	.LEHB50:
 2030 0f78 E8000000 		call	_ZNK8UnitTest15AssertException10LineNumberEv
 2030      00
 2031 0f7d 4889DF   		movq	%rbx, %rdi
 2032 0f80 4189C4   		movl	%eax, %r12d
 2033 0f83 E8000000 		call	_ZNK8UnitTest15AssertException8FilenameEv
 2033      00
 2034 0f88 498B5708 		movq	8(%r15), %rdx
 2035 0f8c 498B7710 		movq	16(%r15), %rsi
 2036 0f90 4589E0   		movl	%r12d, %r8d
 2037 0f93 4889C1   		movq	%rax, %rcx
 2038 0f96 4889E7   		movq	%rsp, %rdi
 2039 0f99 E8000000 		call	_ZN8UnitTest11TestDetailsC1EPKcS2_S2_i
 2039      00
 2040 0f9e E8000000 		call	_ZN8UnitTest11CurrentTest7ResultsEv
 2040      00
 2041 0fa3 488B38   		movq	(%rax), %rdi
 2042 0fa6 4889EA   		movq	%rbp, %rdx
 2043 0fa9 4889E6   		movq	%rsp, %rsi
 2044 0fac E8000000 		call	_ZN8UnitTest11TestResults13OnTestFailureERKNS_11TestDetailsEPKc
 2044      00
 2045              	.LEHE50:
 2046 0fb1 E934FFFF 		jmp	.L278
 2046      FF
 2047              	.L261:
 2048 0fb6 4889C3   		movq	%rax, %rbx
 2049 0fb9 E8000000 		call	__cxa_end_catch
 2049      00
 2050 0fbe 4889DF   		movq	%rbx, %rdi
 2051              	.LEHB51:
 2052 0fc1 E8000000 		call	_Unwind_Resume
 2052      00
 2053              	.LEHE51:
 2054              	.L249:
 2055              	.LEHB52:
 2056 0fc6 E8000000 		call	_ZN8UnitTest11TestDetailsC1ERKS0_i
 2056      00
 2057 0fcb E8000000 		call	_ZN8UnitTest11CurrentTest7ResultsEv
 2057      00
 2058 0fd0 488B38   		movq	(%rax), %rdi
 2059 0fd3 BA000000 		movl	$.LC36, %edx
 2059      00
 2060 0fd8 4889E6   		movq	%rsp, %rsi
 2061 0fdb E8000000 		call	_ZN8UnitTest11TestResults13OnTestFailureERKNS_11TestDetailsEPKc
 2061      00
 2062              	.LEHE52:
 2063 0fe0 E972FFFF 		jmp	.L250
 2063      FF
 2064              	.L258:
 2065 0fe5 E936FFFF 		jmp	.L279
 2065      FF
 2066              	.L265:
 2067 0fea 488D7C24 		leaq	32(%rsp), %rdi
 2067      20
 2068 0fef 4889C3   		movq	%rax, %rbx
 2069 0ff2 4889D5   		movq	%rdx, %rbp
 2070 0ff5 E8000000 		call	_ZNSt7__cxx1119basic_ostringstreamIcSt11char_traitsIcESaIcEED1Ev
 2070      00
 2071 0ffa 4889DF   		movq	%rbx, %rdi
 2072 0ffd 4889EA   		movq	%rbp, %rdx
 2073 1000 BB010000 		movl	$1, %ebx
 2073      00
 2074 1005 E963FEFF 		jmp	.L227
 2074      FF
 2075              	.L257:
 2076 100a 488D7C24 		leaq	32(%rsp), %rdi
 2076      20
 2077 100f 4889C3   		movq	%rax, %rbx
 2078 1012 4889D5   		movq	%rdx, %rbp
 2079 1015 E8000000 		call	_ZN12_GLOBAL__N_122XmlTestReporterFixtureD2Ev.constprop.46
 2079      00
 2080 101a 4889DF   		movq	%rbx, %rdi
 2081 101d 4889EA   		movq	%rbp, %rdx
 2082 1020 BB010000 		movl	$1, %ebx
 2082      00
 2083 1025 E943FEFF 		jmp	.L227
 2083      FF
 2084              	.L262:
 2085 102a 488D7C24 		leaq	32(%rsp), %rdi
 2085      20
 2086 102f 4889C3   		movq	%rax, %rbx
 2087 1032 4889D5   		movq	%rdx, %rbp
 2088 1035 E8000000 		call	_ZNSt7__cxx1119basic_ostringstreamIcSt11char_traitsIcESaIcEED1Ev
 2088      00
 2089 103a 4889DF   		movq	%rbx, %rdi
 2090 103d 4889EA   		movq	%rbp, %rdx
 2091 1040 31DB     		xorl	%ebx, %ebx
 2092 1042 E926FEFF 		jmp	.L227
 2092      FF
 2093              	.L264:
 2094 1047 488D7C24 		leaq	40(%rsp), %rdi
 2094      28
 2095 104c 4889C3   		movq	%rax, %rbx
 2096 104f 4889D5   		movq	%rdx, %rbp
 2097 1052 E8000000 		call	_ZNSt7__cxx1115basic_stringbufIcSt11char_traitsIcESaIcEED1Ev
 2097      00
 2098 1057 488B0500 		movq	_ZTTNSt7__cxx1119basic_ostringstreamIcSt11char_traitsIcESaIcEEE+8(%rip), %rax
 2098      000000
 2099 105e 488B0D00 		movq	_ZTTNSt7__cxx1119basic_ostringstreamIcSt11char_traitsIcESaIcEEE+16(%rip), %rcx
 2099      000000
 2100 1065 488B40E8 		movq	-24(%rax), %rax
 2101 1069 48894C04 		movq	%rcx, 32(%rsp,%rax)
 2101      20
 2102 106e E9D9FDFF 		jmp	.L226
 2102      FF
 2103              		.cfi_endproc
 2104              	.LFE1384:
 2105              		.section	.gcc_except_table
 2106              		.align 4
 2107              	.LLSDA1384:
 2108 00fc FF       		.byte	0xff
 2109 00fd 03       		.byte	0x3
 2110 00fe 6D       		.uleb128 .LLSDATT1384-.LLSDATTD1384
 2111              	.LLSDATTD1384:
 2112 00ff 01       		.byte	0x1
 2113 0100 57       		.uleb128 .LLSDACSE1384-.LLSDACSB1384
 2114              	.LLSDACSB1384:
 2115 0101 B101     		.uleb128 .LEHB38-.LFB1384
 2116 0103 05       		.uleb128 .LEHE38-.LEHB38
 2117 0104 E605     		.uleb128 .L263-.LFB1384
 2118 0106 07       		.uleb128 0x7
 2119 0107 D102     		.uleb128 .LEHB39-.LFB1384
 2120 0109 05       		.uleb128 .LEHE39-.LEHB39
 2121 010a E709     		.uleb128 .L264-.LFB1384
 2122 010c 07       		.uleb128 0x7
 2123 010d E602     		.uleb128 .LEHB40-.LFB1384
 2124 010f 05       		.uleb128 .LEHE40-.LEHB40
 2125 0110 CA09     		.uleb128 .L262-.LFB1384
 2126 0112 07       		.uleb128 0x7
 2127 0113 FB02     		.uleb128 .LEHB41-.LFB1384
 2128 0115 05       		.uleb128 .LEHE41-.LEHB41
 2129 0116 AA09     		.uleb128 .L257-.LFB1384
 2130 0118 07       		.uleb128 0x7
 2131 0119 C004     		.uleb128 .LEHB42-.LFB1384
 2132 011b 05       		.uleb128 .LEHE42-.LEHB42
 2133 011c 8A09     		.uleb128 .L265-.LFB1384
 2134 011e 07       		.uleb128 0x7
 2135 011f B805     		.uleb128 .LEHB43-.LFB1384
 2136 0121 05       		.uleb128 .LEHE43-.LEHB43
 2137 0122 9907     		.uleb128 .L256-.LFB1384
 2138 0124 05       		.uleb128 0x5
 2139 0125 AE06     		.uleb128 .LEHB44-.LFB1384
 2140 0127 05       		.uleb128 .LEHE44-.LEHB44
 2141 0128 C007     		.uleb128 .L259-.LFB1384
 2142 012a 00       		.uleb128 0
 2143 012b CE06     		.uleb128 .LEHB45-.LFB1384
 2144 012d 32       		.uleb128 .LEHE45-.LEHB45
 2145 012e A607     		.uleb128 .L260-.LFB1384
 2146 0130 00       		.uleb128 0
 2147 0131 8507     		.uleb128 .LEHB46-.LFB1384
 2148 0133 05       		.uleb128 .LEHE46-.LEHB46
 2149 0134 C007     		.uleb128 .L259-.LFB1384
 2150 0136 00       		.uleb128 0
 2151 0137 BB07     		.uleb128 .LEHB47-.LFB1384
 2152 0139 05       		.uleb128 .LEHE47-.LEHB47
 2153 013a 00       		.uleb128 0
 2154 013b 00       		.uleb128 0
 2155 013c DD07     		.uleb128 .LEHB48-.LFB1384
 2156 013e 1A       		.uleb128 .LEHE48-.LEHB48
 2157 013f D608     		.uleb128 .L261-.LFB1384
 2158 0141 00       		.uleb128 0
 2159 0142 F707     		.uleb128 .LEHB49-.LFB1384
 2160 0144 05       		.uleb128 .LEHE49-.LEHB49
 2161 0145 00       		.uleb128 0
 2162 0146 00       		.uleb128 0
 2163 0147 9808     		.uleb128 .LEHB50-.LFB1384
 2164 0149 39       		.uleb128 .LEHE50-.LEHB50
 2165 014a 8509     		.uleb128 .L258-.LFB1384
 2166 014c 00       		.uleb128 0
 2167 014d E108     		.uleb128 .LEHB51-.LFB1384
 2168 014f 05       		.uleb128 .LEHE51-.LEHB51
 2169 0150 00       		.uleb128 0
 2170 0151 00       		.uleb128 0
 2171 0152 E608     		.uleb128 .LEHB52-.LFB1384
 2172 0154 1A       		.uleb128 .LEHE52-.LEHB52
 2173 0155 D608     		.uleb128 .L261-.LFB1384
 2174 0157 00       		.uleb128 0
 2175              	.LLSDACSE1384:
 2176 0158 03       		.byte	0x3
 2177 0159 00       		.byte	0
 2178 015a 02       		.byte	0x2
 2179 015b 7D       		.byte	0x7d
 2180 015c 01       		.byte	0x1
 2181 015d 7D       		.byte	0x7d
 2182 015e 00       		.byte	0
 2183 015f 7D       		.byte	0x7d
 2184              		.align 4
 2185 0160 00000000 		.long	0
 2186              	
 2187 0164 00000000 		.long	_ZTISt9exception
 2188 0168 00000000 		.long	_ZTIN8UnitTest15AssertExceptionE
 2189              	.LLSDATT1384:
 2190              		.text
 2192              		.section	.text.unlikely
 2193              	.LCOLDE37:
 2194              		.text
 2195              	.LHOTE37:
 2196              		.section	.text.unlikely._ZNSt7__cxx1115basic_stringbufIcSt11char_traitsIcESaIcEED0Ev,"axG",@progbi
 2197              		.align 2
 2198              	.LCOLDB38:
 2199              		.section	.text._ZNSt7__cxx1115basic_stringbufIcSt11char_traitsIcESaIcEED0Ev,"axG",@progbits,_ZNSt7
 2200              	.LHOTB38:
 2201              		.align 2
 2202              		.p2align 4,,15
 2203              		.weak	_ZNSt7__cxx1115basic_stringbufIcSt11char_traitsIcESaIcEED0Ev
 2205              	_ZNSt7__cxx1115basic_stringbufIcSt11char_traitsIcESaIcEED0Ev:
 2206              	.LFB1466:
 2207              		.cfi_startproc
 2208 0000 53       		pushq	%rbx
 2209              		.cfi_def_cfa_offset 16
 2210              		.cfi_offset 3, -16
 2211 0001 4889FB   		movq	%rdi, %rbx
 2212 0004 48C70700 		movq	$_ZTVNSt7__cxx1115basic_stringbufIcSt11char_traitsIcESaIcEEE+16, (%rdi)
 2212      000000
 2213 000b 488B7F48 		movq	72(%rdi), %rdi
 2214 000f 488D4358 		leaq	88(%rbx), %rax
 2215 0013 4839C7   		cmpq	%rax, %rdi
 2216 0016 7405     		je	.L286
 2217 0018 E8000000 		call	_ZdlPv
 2217      00
 2218              	.L286:
 2219 001d 488D7B38 		leaq	56(%rbx), %rdi
 2220 0021 48C70300 		movq	$_ZTVSt15basic_streambufIcSt11char_traitsIcEE+16, (%rbx)
 2220      000000
 2221 0028 E8000000 		call	_ZNSt6localeD1Ev
 2221      00
 2222 002d 4889DF   		movq	%rbx, %rdi
 2223 0030 5B       		popq	%rbx
 2224              		.cfi_def_cfa_offset 8
 2225 0031 E9000000 		jmp	_ZdlPv
 2225      00
 2226              		.cfi_endproc
 2227              	.LFE1466:
 2229              		.section	.text.unlikely._ZNSt7__cxx1115basic_stringbufIcSt11char_traitsIcESaIcEED0Ev,"axG",@progbi
 2230              	.LCOLDE38:
 2231              		.section	.text._ZNSt7__cxx1115basic_stringbufIcSt11char_traitsIcESaIcEED0Ev,"axG",@progbits,_ZNSt7
 2232              	.LHOTE38:
 2233              		.section	.rodata.str1.1
 2234              	.LC39:
 2235 0081 45787065 		.string	"Expected "
 2235      63746564 
 2235      2000
 2236              	.LC40:
 2237 008b 20627574 		.string	" but was "
 2237      20776173 
 2237      2000
 2238              		.section	.text.unlikely._ZN8UnitTest10CheckEqualIPKcNSt7__cxx1112basic_stringIcSt11char_traitsIcES
 2239              	.LCOLDB41:
 2240              		.section	.text._ZN8UnitTest10CheckEqualIPKcNSt7__cxx1112basic_stringIcSt11char_traitsIcESaIcEEEEEv
 2241              	.LHOTB41:
 2242              		.p2align 4,,15
 2243              		.weak	_ZN8UnitTest10CheckEqualIPKcNSt7__cxx1112basic_stringIcSt11char_traitsIcESaIcEEEEEvRNS_11Tes
 2245              	_ZN8UnitTest10CheckEqualIPKcNSt7__cxx1112basic_stringIcSt11char_traitsIcESaIcEEEEEvRNS_11TestResult
 2246              	.LFB1486:
 2247              		.cfi_startproc
 2248              		.cfi_personality 0x3,__gxx_personality_v0
 2249              		.cfi_lsda 0x3,.LLSDA1486
 2250 0000 4156     		pushq	%r14
 2251              		.cfi_def_cfa_offset 16
 2252              		.cfi_offset 14, -16
 2253 0002 4155     		pushq	%r13
 2254              		.cfi_def_cfa_offset 24
 2255              		.cfi_offset 13, -24
 2256 0004 4989CD   		movq	%rcx, %r13
 2257 0007 4154     		pushq	%r12
 2258              		.cfi_def_cfa_offset 32
 2259              		.cfi_offset 12, -32
 2260 0009 55       		pushq	%rbp
 2261              		.cfi_def_cfa_offset 40
 2262              		.cfi_offset 6, -40
 2263 000a 4889F5   		movq	%rsi, %rbp
 2264 000d 53       		pushq	%rbx
 2265              		.cfi_def_cfa_offset 48
 2266              		.cfi_offset 3, -48
 2267 000e 4989FC   		movq	%rdi, %r12
 2268 0011 4889D7   		movq	%rdx, %rdi
 2269 0014 4889D3   		movq	%rdx, %rbx
 2270 0017 4881ECA0 		subq	$416, %rsp
 2270      010000
 2271              		.cfi_def_cfa_offset 464
 2272 001e 488B36   		movq	(%rsi), %rsi
 2273 0021 64488B04 		movq	%fs:40, %rax
 2273      25280000 
 2273      00
 2274 002a 48898424 		movq	%rax, 408(%rsp)
 2274      98010000 
 2275 0032 31C0     		xorl	%eax, %eax
 2276              	.LEHB53:
 2277 0034 E8000000 		call	_ZNKSt7__cxx1112basic_stringIcSt11char_traitsIcESaIcEE7compareEPKc
 2277      00
 2278              	.LEHE53:
 2279 0039 85C0     		testl	%eax, %eax
 2280 003b 752B     		jne	.L314
 2281              	.L288:
 2282 003d 488B8424 		movq	408(%rsp), %rax
 2282      98010000 
 2283 0045 64483304 		xorq	%fs:40, %rax
 2283      25280000 
 2283      00
 2284 004e 0F857802 		jne	.L315
 2284      0000
 2285 0054 4881C4A0 		addq	$416, %rsp
 2285      010000
 2286              		.cfi_remember_state
 2287              		.cfi_def_cfa_offset 48
 2288 005b 5B       		popq	%rbx
 2289              		.cfi_def_cfa_offset 40
 2290 005c 5D       		popq	%rbp
 2291              		.cfi_def_cfa_offset 32
 2292 005d 415C     		popq	%r12
 2293              		.cfi_def_cfa_offset 24
 2294 005f 415D     		popq	%r13
 2295              		.cfi_def_cfa_offset 16
 2296 0061 415E     		popq	%r14
 2297              		.cfi_def_cfa_offset 8
 2298 0063 C3       		ret
 2299              		.p2align 4,,10
 2300 0064 0F1F4000 		.p2align 3
 2301              	.L314:
 2302              		.cfi_restore_state
 2303 0068 4C8DB424 		leaq	144(%rsp), %r14
 2303      90000000 
 2304 0070 4C89F7   		movq	%r14, %rdi
 2305 0073 E8000000 		call	_ZNSt8ios_baseC2Ev
 2305      00
 2306 0078 31F6     		xorl	%esi, %esi
 2307 007a 4C89F7   		movq	%r14, %rdi
 2308 007d 48C78424 		movq	$0, 360(%rsp)
 2308      68010000 
 2308      00000000 
 2309 0089 C6842470 		movb	$0, 368(%rsp)
 2309      01000000 
 2310 0091 C6842471 		movb	$0, 369(%rsp)
 2310      01000000 
 2311 0099 48C78424 		movq	$0, 376(%rsp)
 2311      78010000 
 2311      00000000 
 2312 00a5 48C78424 		movq	$0, 384(%rsp)
 2312      80010000 
 2312      00000000 
 2313 00b1 48C78424 		movq	$0, 392(%rsp)
 2313      88010000 
 2313      00000000 
 2314 00bd 48C78424 		movq	$0, 400(%rsp)
 2314      90010000 
 2314      00000000 
 2315 00c9 48C70424 		movq	$_ZTCN8UnitTest15MemoryOutStreamE0_So+24, (%rsp)
 2315      00000000 
 2316 00d1 48C78424 		movq	$_ZTCN8UnitTest15MemoryOutStreamE0_So+64, 144(%rsp)
 2316      90000000 
 2316      00000000 
 2317              	.LEHB54:
 2318 00dd E8000000 		call	_ZNSt9basic_iosIcSt11char_traitsIcEE4initEPSt15basic_streambufIcS1_E
 2318      00
 2319              	.LEHE54:
 2320 00e2 488D7C24 		leaq	64(%rsp), %rdi
 2320      40
 2321 00e7 48C70424 		movq	$_ZTCN8UnitTest15MemoryOutStreamE0_NSt7__cxx1119basic_ostringstreamIcSt11char_traitsIcESaIcEE
 2321      00000000 
 2322 00ef 48C78424 		movq	$_ZTCN8UnitTest15MemoryOutStreamE0_NSt7__cxx1119basic_ostringstreamIcSt11char_traitsIcESaIcEE
 2322      90000000 
 2322      00000000 
 2323 00fb 48C74424 		movq	$_ZTVSt15basic_streambufIcSt11char_traitsIcEE+16, 8(%rsp)
 2323      08000000 
 2323      00
 2324 0104 48C74424 		movq	$0, 16(%rsp)
 2324      10000000 
 2324      00
 2325 010d 48C74424 		movq	$0, 24(%rsp)
 2325      18000000 
 2325      00
 2326 0116 48C74424 		movq	$0, 32(%rsp)
 2326      20000000 
 2326      00
 2327 011f 48C74424 		movq	$0, 40(%rsp)
 2327      28000000 
 2327      00
 2328 0128 48C74424 		movq	$0, 48(%rsp)
 2328      30000000 
 2328      00
 2329 0131 48C74424 		movq	$0, 56(%rsp)
 2329      38000000 
 2329      00
 2330 013a E8000000 		call	_ZNSt6localeC1Ev
 2330      00
 2331 013f 488D4424 		leaq	96(%rsp), %rax
 2331      60
 2332 0144 48C74424 		movq	$0, 88(%rsp)
 2332      58000000 
 2332      00
 2333 014d C6442460 		movb	$0, 96(%rsp)
 2333      00
 2334 0152 488D7424 		leaq	8(%rsp), %rsi
 2334      08
 2335 0157 48C74424 		movq	$_ZTVNSt7__cxx1115basic_stringbufIcSt11char_traitsIcESaIcEEE+16, 8(%rsp)
 2335      08000000 
 2335      00
 2336 0160 C7442448 		movl	$16, 72(%rsp)
 2336      10000000 
 2337 0168 48894424 		movq	%rax, 80(%rsp)
 2337      50
 2338 016d 488B0424 		movq	(%rsp), %rax
 2339 0171 488B40E8 		movq	-24(%rax), %rax
 2340 0175 488D3C04 		leaq	(%rsp,%rax), %rdi
 2341              	.LEHB55:
 2342 0179 E8000000 		call	_ZNSt9basic_iosIcSt11char_traitsIcEE4initEPSt15basic_streambufIcS1_E
 2342      00
 2343              	.LEHE55:
 2344 017e 488D8424 		leaq	128(%rsp), %rax
 2344      80000000 
 2345 0186 BA090000 		movl	$9, %edx
 2345      00
 2346 018b BE000000 		movl	$.LC39, %esi
 2346      00
 2347 0190 4889E7   		movq	%rsp, %rdi
 2348 0193 48C70424 		movq	$_ZTVN8UnitTest15MemoryOutStreamE+24, (%rsp)
 2348      00000000 
 2349 019b 48C78424 		movq	$_ZTVN8UnitTest15MemoryOutStreamE+64, 144(%rsp)
 2349      90000000 
 2349      00000000 
 2350 01a7 48894424 		movq	%rax, 112(%rsp)
 2350      70
 2351 01ac 48C74424 		movq	$0, 120(%rsp)
 2351      78000000 
 2351      00
 2352 01b5 C6842480 		movb	$0, 128(%rsp)
 2352      00000000 
 2353 01bd 488B6D00 		movq	0(%rbp), %rbp
 2354              	.LEHB56:
 2355 01c1 E8000000 		call	_ZSt16__ostream_insertIcSt11char_traitsIcEERSt13basic_ostreamIT_T0_ES6_PKS3_l
 2355      00
 2356 01c6 4885ED   		testq	%rbp, %rbp
 2357 01c9 0F84E100 		je	.L316
 2357      0000
 2358 01cf 4889EF   		movq	%rbp, %rdi
 2359 01d2 E8000000 		call	strlen
 2359      00
 2360 01d7 4889EE   		movq	%rbp, %rsi
 2361 01da 4889C2   		movq	%rax, %rdx
 2362 01dd 4889E7   		movq	%rsp, %rdi
 2363 01e0 E8000000 		call	_ZSt16__ostream_insertIcSt11char_traitsIcEERSt13basic_ostreamIT_T0_ES6_PKS3_l
 2363      00
 2364              	.L296:
 2365 01e5 BA090000 		movl	$9, %edx
 2365      00
 2366 01ea BE000000 		movl	$.LC40, %esi
 2366      00
 2367 01ef 4889E7   		movq	%rsp, %rdi
 2368 01f2 E8000000 		call	_ZSt16__ostream_insertIcSt11char_traitsIcEERSt13basic_ostreamIT_T0_ES6_PKS3_l
 2368      00
 2369 01f7 488B5308 		movq	8(%rbx), %rdx
 2370 01fb 488B33   		movq	(%rbx), %rsi
 2371 01fe 4889E7   		movq	%rsp, %rdi
 2372 0201 E8000000 		call	_ZSt16__ostream_insertIcSt11char_traitsIcEERSt13basic_ostreamIT_T0_ES6_PKS3_l
 2372      00
 2373 0206 4889E7   		movq	%rsp, %rdi
 2374 0209 E8000000 		call	_ZNK8UnitTest15MemoryOutStream7GetTextEv
 2374      00
 2375 020e 4889C2   		movq	%rax, %rdx
 2376 0211 4C89EE   		movq	%r13, %rsi
 2377 0214 4C89E7   		movq	%r12, %rdi
 2378 0217 E8000000 		call	_ZN8UnitTest11TestResults13OnTestFailureERKNS_11TestDetailsEPKc
 2378      00
 2379              	.LEHE56:
 2380 021c 488B7C24 		movq	112(%rsp), %rdi
 2380      70
 2381 0221 488D8424 		leaq	128(%rsp), %rax
 2381      80000000 
 2382 0229 48C70424 		movq	$_ZTVN8UnitTest15MemoryOutStreamE+24, (%rsp)
 2382      00000000 
 2383 0231 48C78424 		movq	$_ZTVN8UnitTest15MemoryOutStreamE+64, 144(%rsp)
 2383      90000000 
 2383      00000000 
 2384 023d 4839C7   		cmpq	%rax, %rdi
 2385 0240 7405     		je	.L297
 2386 0242 E8000000 		call	_ZdlPv
 2386      00
 2387              	.L297:
 2388 0247 488B7C24 		movq	80(%rsp), %rdi
 2388      50
 2389 024c 488D4424 		leaq	96(%rsp), %rax
 2389      60
 2390 0251 48C70424 		movq	$_ZTCN8UnitTest15MemoryOutStreamE0_NSt7__cxx1119basic_ostringstreamIcSt11char_traitsIcESaIcEE
 2390      00000000 
 2391 0259 48C78424 		movq	$_ZTCN8UnitTest15MemoryOutStreamE0_NSt7__cxx1119basic_ostringstreamIcSt11char_traitsIcESaIcEE
 2391      90000000 
 2391      00000000 
 2392 0265 48C74424 		movq	$_ZTVNSt7__cxx1115basic_stringbufIcSt11char_traitsIcESaIcEEE+16, 8(%rsp)
 2392      08000000 
 2392      00
 2393 026e 4839C7   		cmpq	%rax, %rdi
 2394 0271 7405     		je	.L298
 2395 0273 E8000000 		call	_ZdlPv
 2395      00
 2396              	.L298:
 2397 0278 488D7C24 		leaq	64(%rsp), %rdi
 2397      40
 2398 027d 48C74424 		movq	$_ZTVSt15basic_streambufIcSt11char_traitsIcEE+16, 8(%rsp)
 2398      08000000 
 2398      00
 2399 0286 E8000000 		call	_ZNSt6localeD1Ev
 2399      00
 2400 028b 488DBC24 		leaq	144(%rsp), %rdi
 2400      90000000 
 2401 0293 48C78424 		movq	$_ZTVSt9basic_iosIcSt11char_traitsIcEE+16, 144(%rsp)
 2401      90000000 
 2401      00000000 
 2402              	.LEHB57:
 2403 029f E8000000 		call	_ZNSt8ios_baseD2Ev
 2403      00
 2404              	.LEHE57:
 2405 02a4 E994FDFF 		jmp	.L288
 2405      FF
 2406 02a9 0F1F8000 		.p2align 4,,10
 2406      000000
 2407              		.p2align 3
 2408              	.L316:
 2409 02b0 488B0424 		movq	(%rsp), %rax
 2410 02b4 488B40E8 		movq	-24(%rax), %rax
 2411 02b8 488D3C04 		leaq	(%rsp,%rax), %rdi
 2412 02bc 8B7720   		movl	32(%rdi), %esi
 2413 02bf 83CE01   		orl	$1, %esi
 2414              	.LEHB58:
 2415 02c2 E8000000 		call	_ZNSt9basic_iosIcSt11char_traitsIcEE5clearESt12_Ios_Iostate
 2415      00
 2416              	.LEHE58:
 2417 02c7 E919FFFF 		jmp	.L296
 2417      FF
 2418              	.L315:
 2419 02cc E8000000 		call	__stack_chk_fail
 2419      00
 2420              	.L302:
 2421 02d1 4889C3   		movq	%rax, %rbx
 2422 02d4 EB14     		jmp	.L292
 2423              	.L303:
 2424 02d6 4889C3   		movq	%rax, %rbx
 2425 02d9 EB05     		jmp	.L291
 2426              	.L301:
 2427 02db 4889C3   		movq	%rax, %rbx
 2428 02de EB2B     		jmp	.L299
 2429              	.L291:
 2430 02e0 488D7C24 		leaq	8(%rsp), %rdi
 2430      08
 2431 02e5 E8000000 		call	_ZNSt7__cxx1115basic_stringbufIcSt11char_traitsIcESaIcEED1Ev
 2431      00
 2432              	.L292:
 2433 02ea 488DBC24 		leaq	144(%rsp), %rdi
 2433      90000000 
 2434 02f2 48C78424 		movq	$_ZTVSt9basic_iosIcSt11char_traitsIcEE+16, 144(%rsp)
 2434      90000000 
 2434      00000000 
 2435 02fe E8000000 		call	_ZNSt8ios_baseD2Ev
 2435      00
 2436 0303 4889DF   		movq	%rbx, %rdi
 2437              	.LEHB59:
 2438 0306 E8000000 		call	_Unwind_Resume
 2438      00
 2439              	.LEHE59:
 2440              	.L299:
 2441 030b 4889E7   		movq	%rsp, %rdi
 2442 030e E8000000 		call	_ZN8UnitTest15MemoryOutStreamD1Ev
 2442      00
 2443 0313 4889DF   		movq	%rbx, %rdi
 2444              	.LEHB60:
 2445 0316 E8000000 		call	_Unwind_Resume
 2445      00
 2446              	.LEHE60:
 2447              		.cfi_endproc
 2448              	.LFE1486:
 2449              		.section	.gcc_except_table
 2450              	.LLSDA1486:
 2451 016c FF       		.byte	0xff
 2452 016d FF       		.byte	0xff
 2453 016e 01       		.byte	0x1
 2454 016f 2B       		.uleb128 .LLSDACSE1486-.LLSDACSB1486
 2455              	.LLSDACSB1486:
 2456 0170 34       		.uleb128 .LEHB53-.LFB1486
 2457 0171 05       		.uleb128 .LEHE53-.LEHB53
 2458 0172 00       		.uleb128 0
 2459 0173 00       		.uleb128 0
 2460 0174 DD01     		.uleb128 .LEHB54-.LFB1486
 2461 0176 05       		.uleb128 .LEHE54-.LEHB54
 2462 0177 D105     		.uleb128 .L302-.LFB1486
 2463 0179 00       		.uleb128 0
 2464 017a F902     		.uleb128 .LEHB55-.LFB1486
 2465 017c 05       		.uleb128 .LEHE55-.LEHB55
 2466 017d D605     		.uleb128 .L303-.LFB1486
 2467 017f 00       		.uleb128 0
 2468 0180 C103     		.uleb128 .LEHB56-.LFB1486
 2469 0182 5B       		.uleb128 .LEHE56-.LEHB56
 2470 0183 DB05     		.uleb128 .L301-.LFB1486
 2471 0185 00       		.uleb128 0
 2472 0186 9F05     		.uleb128 .LEHB57-.LFB1486
 2473 0188 05       		.uleb128 .LEHE57-.LEHB57
 2474 0189 00       		.uleb128 0
 2475 018a 00       		.uleb128 0
 2476 018b C205     		.uleb128 .LEHB58-.LFB1486
 2477 018d 05       		.uleb128 .LEHE58-.LEHB58
 2478 018e DB05     		.uleb128 .L301-.LFB1486
 2479 0190 00       		.uleb128 0
 2480 0191 8606     		.uleb128 .LEHB59-.LFB1486
 2481 0193 05       		.uleb128 .LEHE59-.LEHB59
 2482 0194 00       		.uleb128 0
 2483 0195 00       		.uleb128 0
 2484 0196 9606     		.uleb128 .LEHB60-.LFB1486
 2485 0198 05       		.uleb128 .LEHE60-.LEHB60
 2486 0199 00       		.uleb128 0
 2487 019a 00       		.uleb128 0
 2488              	.LLSDACSE1486:
 2489              		.section	.text._ZN8UnitTest10CheckEqualIPKcNSt7__cxx1112basic_stringIcSt11char_traitsIcESaIcEEEEEv
 2491              		.section	.text.unlikely._ZN8UnitTest10CheckEqualIPKcNSt7__cxx1112basic_stringIcSt11char_traitsIcES
 2492              	.LCOLDE41:
 2493              		.section	.text._ZN8UnitTest10CheckEqualIPKcNSt7__cxx1112basic_stringIcSt11char_traitsIcESaIcEEEEEv
 2494              	.LHOTE41:
 2495              		.section	.rodata.str1.1
 2496              	.LC42:
 2497 0095 6661696C 		.string	"fail.h"
 2497      2E6800
 2498              	.LC43:
 2499 009c 73756974 		.string	"suite"
 2499      6500
 2500              	.LC44:
 2501 00a2 4661696C 		.string	"FailedTest"
 2501      65645465 
 2501      737400
 2502              	.LC45:
 2503 00ad 65787065 		.string	"expected 1 but was 2"
 2503      63746564 
 2503      20312062 
 2503      75742077 
 2503      61732032 
 2504              	.LC46:
 2505 00c2 65787065 		.string	"expected one but was two"
 2505      63746564 
 2505      206F6E65 
 2505      20627574 
 2505      20776173 
 2506              		.section	.rodata.str1.8
 2507 012e 0000     		.align 8
 2508              	.LC49:
 2509 0130 3C3F786D 		.ascii	"<?xml version=\"1.0\""
 2509      6C207665 
 2509      7273696F 
 2509      6E3D2231 
 2509      2E3022
 2510 0143 3F3E3C75 		.string	"?><unittest-results tests=\"1\" failedtests=\"1\" failures=\"2\" time=\"1.1\"><test suite
 2510      6E697474 
 2510      6573742D 
 2510      72657375 
 2510      6C747320 
 2511 0244 00000000 		.align 8
 2512              	.LC50:
 2513 0248 556E6861 		.string	"Unhandled exception in CHECK_EQUAL(expected, output.str())"
 2513      6E646C65 
 2513      64206578 
 2513      63657074 
 2513      696F6E20 
 2514              		.section	.text.unlikely
 2515              	.LCOLDB51:
 2516              		.text
 2517              	.LHOTB51:
 2518 1073 0F1F0066 		.p2align 4,,15
 2518      2E0F1F84 
 2518      00000000 
 2518      00
 2520              	_ZN8UnitTest11ExecuteTestIN12_GLOBAL__N_144XmlTestReporterFixtureMultipleFailuresHelperEEEvRT_RKNS_
 2521              	.LFB1724:
 2522              		.cfi_startproc
 2523              		.cfi_personality 0x3,__gxx_personality_v0
 2524              		.cfi_lsda 0x3,.LLSDA1724
 2525 1080 4154     		pushq	%r12
 2526              		.cfi_def_cfa_offset 16
 2527              		.cfi_offset 12, -16
 2528 1082 55       		pushq	%rbp
 2529              		.cfi_def_cfa_offset 24
 2530              		.cfi_offset 6, -24
 2531 1083 53       		pushq	%rbx
 2532              		.cfi_def_cfa_offset 32
 2533              		.cfi_offset 3, -32
 2534 1084 4889F3   		movq	%rsi, %rbx
 2535 1087 4881EC40 		subq	$1856, %rsp
 2535      070000
 2536              		.cfi_def_cfa_offset 1888
 2537 108e 48893C24 		movq	%rdi, (%rsp)
 2538 1092 48897424 		movq	%rsi, 8(%rsp)
 2538      08
 2539 1097 64488B04 		movq	%fs:40, %rax
 2539      25280000 
 2539      00
 2540 10a0 48898424 		movq	%rax, 1848(%rsp)
 2540      38070000 
 2541 10a8 31C0     		xorl	%eax, %eax
 2542              	.LEHB61:
 2543 10aa E8000000 		call	_ZN8UnitTest11CurrentTest7DetailsEv
 2543      00
 2544              	.LEHE61:
 2545 10af 488DBC24 		leaq	720(%rsp), %rdi
 2545      D0020000 
 2546 10b7 488918   		movq	%rbx, (%rax)
 2547              	.LEHB62:
 2548 10ba E8000000 		call	_ZN8UnitTest16SignalTranslatorC1Ev
 2548      00
 2549              	.LEHE62:
 2550 10bf 488B3D00 		movq	_ZN8UnitTest16SignalTranslator12s_jumpTargetE(%rip), %rdi
 2550      000000
 2551 10c6 BE010000 		movl	$1, %esi
 2551      00
 2552 10cb E8000000 		call	__sigsetjmp
 2552      00
 2553 10d0 85C0     		testl	%eax, %eax
 2554 10d2 0F853801 		jne	.L403
 2554      0000
 2555 10d8 488D7C24 		leaq	80(%rsp), %rdi
 2555      50
 2556 10dd 41B80100 		movl	$1, %r8d
 2556      0000
 2557 10e3 B9000000 		movl	$.LC42, %ecx
 2557      00
 2558 10e8 BA000000 		movl	$.LC43, %edx
 2558      00
 2559 10ed BE000000 		movl	$.LC44, %esi
 2559      00
 2560              	.LEHB63:
 2561 10f2 E8000000 		call	_ZN8UnitTest11TestDetailsC1EPKcS2_S2_i
 2561      00
 2562 10f7 488D7C24 		leaq	112(%rsp), %rdi
 2562      70
 2563 10fc 41B81F00 		movl	$31, %r8d
 2563      0000
 2564 1102 B9000000 		movl	$.LC42, %ecx
 2564      00
 2565 1107 BA000000 		movl	$.LC43, %edx
 2565      00
 2566 110c BE000000 		movl	$.LC44, %esi
 2566      00
 2567 1111 E8000000 		call	_ZN8UnitTest11TestDetailsC1EPKcS2_S2_i
 2567      00
 2568 1116 488B2C24 		movq	(%rsp), %rbp
 2569 111a 488D7424 		leaq	80(%rsp), %rsi
 2569      50
 2570 111f 488D9D78 		leaq	376(%rbp), %rbx
 2570      010000
 2571 1126 4889DF   		movq	%rbx, %rdi
 2572 1129 E8000000 		call	_ZN8UnitTest20DeferredTestReporter15ReportTestStartERKNS_11TestDetailsE
 2572      00
 2573 112e 488D7424 		leaq	80(%rsp), %rsi
 2573      50
 2574 1133 BA000000 		movl	$.LC45, %edx
 2574      00
 2575 1138 4889DF   		movq	%rbx, %rdi
 2576 113b E8000000 		call	_ZN8UnitTest20DeferredTestReporter13ReportFailureERKNS_11TestDetailsEPKc
 2576      00
 2577 1140 488D7424 		leaq	112(%rsp), %rsi
 2577      70
 2578 1145 BA000000 		movl	$.LC46, %edx
 2578      00
 2579 114a 4889DF   		movq	%rbx, %rdi
 2580 114d E8000000 		call	_ZN8UnitTest20DeferredTestReporter13ReportFailureERKNS_11TestDetailsEPKc
 2580      00
 2581 1152 488D7424 		leaq	80(%rsp), %rsi
 2581      50
 2582 1157 F30F1005 		movss	.LC47(%rip), %xmm0
 2582      00000000 
 2583 115f 4889DF   		movq	%rbx, %rdi
 2584 1162 E8000000 		call	_ZN8UnitTest20DeferredTestReporter16ReportTestFinishERKNS_11TestDetailsEf
 2584      00
 2585 1167 F30F1005 		movss	.LC48(%rip), %xmm0
 2585      00000000 
 2586 116f B9020000 		movl	$2, %ecx
 2586      00
 2587 1174 BA010000 		movl	$1, %edx
 2587      00
 2588 1179 BE010000 		movl	$1, %esi
 2588      00
 2589 117e 4889DF   		movq	%rbx, %rdi
 2590 1181 E8000000 		call	_ZN8UnitTest15XmlTestReporter13ReportSummaryEiiif
 2590      00
 2591              	.LEHE63:
 2592 1186 48C74424 		movq	$.LC49, 24(%rsp)
 2592      18000000 
 2592      00
 2593              	.LEHB64:
 2594 118f E8000000 		call	_ZN8UnitTest11CurrentTest7DetailsEv
 2594      00
 2595 1194 488B30   		movq	(%rax), %rsi
 2596 1197 488DBC24 		leaq	144(%rsp), %rdi
 2596      90000000 
 2597 119f BAB40000 		movl	$180, %edx
 2597      00
 2598 11a4 E8000000 		call	_ZN8UnitTest11TestDetailsC1ERKS0_i
 2598      00
 2599              	.LEHE64:
 2600 11a9 488B5530 		movq	48(%rbp), %rdx
 2601 11ad 488D8424 		leaq	224(%rsp), %rax
 2601      E0000000 
 2602 11b5 48C78424 		movq	$0, 216(%rsp)
 2602      D8000000 
 2602      00000000 
 2603 11c1 C68424E0 		movb	$0, 224(%rsp)
 2603      00000000 
 2604 11c9 48898424 		movq	%rax, 208(%rsp)
 2604      D0000000 
 2605 11d1 4885D2   		testq	%rdx, %rdx
 2606 11d4 0F84A603 		je	.L320
 2606      0000
 2607 11da 488B5D20 		movq	32(%rbp), %rbx
 2608 11de 4839DA   		cmpq	%rbx, %rdx
 2609 11e1 0F862101 		jbe	.L321
 2609      0000
 2610 11e7 488B6D28 		movq	40(%rbp), %rbp
 2611 11eb 488D8424 		leaq	288(%rsp), %rax
 2611      20010000 
 2612 11f3 48898424 		movq	%rax, 272(%rsp)
 2612      10010000 
 2613 11fb 4885ED   		testq	%rbp, %rbp
 2614 11fe 7530     		jne	.L404
 2615 1200 BF000000 		movl	$.LC33, %edi
 2615      00
 2616              	.LEHB65:
 2617 1205 E8000000 		call	_ZSt19__throw_logic_errorPKc
 2617      00
 2618              	.LEHE65:
 2619 120a 660F1F44 		.p2align 4,,10
 2619      0000
 2620              		.p2align 3
 2621              	.L403:
 2622 1210 BF080000 		movl	$8, %edi
 2622      00
 2623 1215 E8000000 		call	__cxa_allocate_exception
 2623      00
 2624 121a 31D2     		xorl	%edx, %edx
 2625 121c 48C70000 		movq	$.LC23, (%rax)
 2625      000000
 2626 1223 BE000000 		movl	$_ZTIPKc, %esi
 2626      00
 2627 1228 4889C7   		movq	%rax, %rdi
 2628              	.LEHB66:
 2629 122b E8000000 		call	__cxa_throw
 2629      00
 2630              	.LEHE66:
 2631              		.p2align 4,,10
 2632              		.p2align 3
 2633              	.L404:
 2634 1230 4829EA   		subq	%rbp, %rdx
 2635 1233 4883FA0F 		cmpq	$15, %rdx
 2636 1237 4889D3   		movq	%rdx, %rbx
 2637 123a 48895424 		movq	%rdx, 32(%rsp)
 2637      20
 2638 123f 0F87AB01 		ja	.L405
 2638      0000
 2639 1245 4883FB01 		cmpq	$1, %rbx
 2640 1249 0F840103 		je	.L406
 2640      0000
 2641 124f 4885DB   		testq	%rbx, %rbx
 2642 1252 4889C2   		movq	%rax, %rdx
 2643 1255 0F853F03 		jne	.L407
 2643      0000
 2644              	.L326:
 2645 125b 488DB424 		leaq	272(%rsp), %rsi
 2645      10010000 
 2646 1263 488DBC24 		leaq	208(%rsp), %rdi
 2646      D0000000 
 2647 126b 48899C24 		movq	%rbx, 280(%rsp)
 2647      18010000 
 2648 1273 C6041A00 		movb	$0, (%rdx,%rbx)
 2649              	.LEHB67:
 2650 1277 E8000000 		call	_ZNSt7__cxx1112basic_stringIcSt11char_traitsIcESaIcEE9_M_assignERKS4_
 2650      00
 2651              	.LEHE67:
 2652 127c 488BBC24 		movq	272(%rsp), %rdi
 2652      10010000 
 2653 1284 488D8424 		leaq	288(%rsp), %rax
 2653      20010000 
 2654 128c 4839C7   		cmpq	%rax, %rdi
 2655 128f 7405     		je	.L328
 2656              	.L393:
 2657 1291 E8000000 		call	_ZdlPv
 2657      00
 2658              	.L328:
 2659              	.LEHB68:
 2660 1296 E8000000 		call	_ZN8UnitTest11CurrentTest7ResultsEv
 2660      00
 2661 129b 488B38   		movq	(%rax), %rdi
 2662 129e 488D8C24 		leaq	144(%rsp), %rcx
 2662      90000000 
 2663 12a6 488D9424 		leaq	208(%rsp), %rdx
 2663      D0000000 
 2664 12ae 488D7424 		leaq	24(%rsp), %rsi
 2664      18
 2665 12b3 E8000000 		call	_ZN8UnitTest10CheckEqualIPKcNSt7__cxx1112basic_stringIcSt11char_traitsIcESaIcEEEEEvRNS_11Test
 2665      00
 2666              	.LEHE68:
 2667 12b8 488BBC24 		movq	208(%rsp), %rdi
 2667      D0000000 
 2668 12c0 488D8424 		leaq	224(%rsp), %rax
 2668      E0000000 
 2669 12c8 4839C7   		cmpq	%rax, %rdi
 2670 12cb 7405     		je	.L349
 2671 12cd E8000000 		call	_ZdlPv
 2671      00
 2672              	.L349:
 2673 12d2 488DBC24 		leaq	720(%rsp), %rdi
 2673      D0020000 
 2674              	.LEHB69:
 2675 12da E8000000 		call	_ZN8UnitTest16SignalTranslatorD1Ev
 2675      00
 2676              	.LEHE69:
 2677              	.L317:
 2678 12df 488B8424 		movq	1848(%rsp), %rax
 2678      38070000 
 2679 12e7 64483304 		xorq	%fs:40, %rax
 2679      25280000 
 2679      00
 2680 12f0 0F85B402 		jne	.L408
 2680      0000
 2681 12f6 4881C440 		addq	$1856, %rsp
 2681      070000
 2682              		.cfi_remember_state
 2683              		.cfi_def_cfa_offset 32
 2684 12fd 5B       		popq	%rbx
 2685              		.cfi_def_cfa_offset 24
 2686 12fe 5D       		popq	%rbp
 2687              		.cfi_def_cfa_offset 16
 2688 12ff 415C     		popq	%r12
 2689              		.cfi_def_cfa_offset 8
 2690 1301 C3       		ret
 2691              		.p2align 4,,10
 2692 1302 660F1F44 		.p2align 3
 2692      0000
 2693              	.L321:
 2694              		.cfi_restore_state
 2695 1308 488B0424 		movq	(%rsp), %rax
 2696 130c 488B6828 		movq	40(%rax), %rbp
 2697 1310 488D8424 		leaq	256(%rsp), %rax
 2697      00010000 
 2698 1318 48898424 		movq	%rax, 240(%rsp)
 2698      F0000000 
 2699 1320 4885ED   		testq	%rbp, %rbp
 2700 1323 7513     		jne	.L332
 2701 1325 4885DB   		testq	%rbx, %rbx
 2702 1328 740E     		je	.L332
 2703 132a BF000000 		movl	$.LC33, %edi
 2703      00
 2704              	.LEHB70:
 2705 132f E8000000 		call	_ZSt19__throw_logic_errorPKc
 2705      00
 2706              	.LEHE70:
 2707              		.p2align 4,,10
 2708 1334 0F1F4000 		.p2align 3
 2709              	.L332:
 2710 1338 4829EB   		subq	%rbp, %rbx
 2711 133b 4883FB0F 		cmpq	$15, %rbx
 2712 133f 48895C24 		movq	%rbx, 40(%rsp)
 2712      28
 2713 1344 775A     		ja	.L409
 2714 1346 4883FB01 		cmpq	$1, %rbx
 2715 134a 0F841802 		je	.L410
 2715      0000
 2716 1350 4885DB   		testq	%rbx, %rbx
 2717 1353 488D8424 		leaq	256(%rsp), %rax
 2717      00010000 
 2718 135b 0F854102 		jne	.L411
 2718      0000
 2719              	.L335:
 2720 1361 488DB424 		leaq	240(%rsp), %rsi
 2720      F0000000 
 2721 1369 488DBC24 		leaq	208(%rsp), %rdi
 2721      D0000000 
 2722 1371 48899C24 		movq	%rbx, 248(%rsp)
 2722      F8000000 
 2723 1379 C6041800 		movb	$0, (%rax,%rbx)
 2724              	.LEHB71:
 2725 137d E8000000 		call	_ZNSt7__cxx1112basic_stringIcSt11char_traitsIcESaIcEE9_M_assignERKS4_
 2725      00
 2726              	.LEHE71:
 2727 1382 488BBC24 		movq	240(%rsp), %rdi
 2727      F0000000 
 2728 138a 488D8424 		leaq	256(%rsp), %rax
 2728      00010000 
 2729 1392 4839C7   		cmpq	%rax, %rdi
 2730 1395 0F85F6FE 		jne	.L393
 2730      FFFF
 2731 139b E9F6FEFF 		jmp	.L328
 2731      FF
 2732              		.p2align 4,,10
 2733              		.p2align 3
 2734              	.L409:
 2735 13a0 488D7424 		leaq	40(%rsp), %rsi
 2735      28
 2736 13a5 488DBC24 		leaq	240(%rsp), %rdi
 2736      F0000000 
 2737 13ad 31D2     		xorl	%edx, %edx
 2738              	.LEHB72:
 2739 13af E8000000 		call	_ZNSt7__cxx1112basic_stringIcSt11char_traitsIcESaIcEE9_M_createERmm
 2739      00
 2740 13b4 4889C7   		movq	%rax, %rdi
 2741 13b7 48898424 		movq	%rax, 240(%rsp)
 2741      F0000000 
 2742 13bf 488B4424 		movq	40(%rsp), %rax
 2742      28
 2743 13c4 48898424 		movq	%rax, 256(%rsp)
 2743      00010000 
 2744              	.L333:
 2745 13cc 4889DA   		movq	%rbx, %rdx
 2746 13cf 4889EE   		movq	%rbp, %rsi
 2747 13d2 E8000000 		call	memcpy
 2747      00
 2748 13d7 488B5C24 		movq	40(%rsp), %rbx
 2748      28
 2749 13dc 488B8424 		movq	240(%rsp), %rax
 2749      F0000000 
 2750 13e4 E978FFFF 		jmp	.L335
 2750      FF
 2751 13e9 0F1F8000 		.p2align 4,,10
 2751      000000
 2752              		.p2align 3
 2753              	.L405:
 2754 13f0 488D7424 		leaq	32(%rsp), %rsi
 2754      20
 2755 13f5 488DBC24 		leaq	272(%rsp), %rdi
 2755      10010000 
 2756 13fd 31D2     		xorl	%edx, %edx
 2757 13ff E8000000 		call	_ZNSt7__cxx1112basic_stringIcSt11char_traitsIcESaIcEE9_M_createERmm
 2757      00
 2758              	.LEHE72:
 2759 1404 4889C7   		movq	%rax, %rdi
 2760 1407 48898424 		movq	%rax, 272(%rsp)
 2760      10010000 
 2761 140f 488B4424 		movq	32(%rsp), %rax
 2761      20
 2762 1414 48898424 		movq	%rax, 288(%rsp)
 2762      20010000 
 2763              	.L324:
 2764 141c 4889DA   		movq	%rbx, %rdx
 2765 141f 4889EE   		movq	%rbp, %rsi
 2766 1422 E8000000 		call	memcpy
 2766      00
 2767 1427 488B5C24 		movq	32(%rsp), %rbx
 2767      20
 2768 142c 488B9424 		movq	272(%rsp), %rdx
 2768      10010000 
 2769 1434 E922FEFF 		jmp	.L326
 2769      FF
 2770              	.L379:
 2771 1439 4889C3   		movq	%rax, %rbx
 2772 143c 4889D5   		movq	%rdx, %rbp
 2773              	.L356:
 2774 143f 488DBC24 		leaq	720(%rsp), %rdi
 2774      D0020000 
 2775 1447 E8000000 		call	_ZN8UnitTest16SignalTranslatorD1Ev
 2775      00
 2776 144c 4889DF   		movq	%rbx, %rdi
 2777 144f 4889EA   		movq	%rbp, %rdx
 2778              	.L357:
 2779 1452 4883FA01 		cmpq	$1, %rdx
 2780 1456 0F840002 		je	.L359
 2780      0000
 2781 145c 4883FA02 		cmpq	$2, %rdx
 2782 1460 0F85D001 		jne	.L412
 2782      0000
 2783 1466 E8000000 		call	__cxa_begin_catch
 2783      00
 2784 146b 488DBC24 		leaq	304(%rsp), %rdi
 2784      30010000 
 2785 1473 4889C3   		movq	%rax, %rbx
 2786              	.LEHB73:
 2787 1476 E8000000 		call	_ZN8UnitTest15MemoryOutStreamC1Ev
 2787      00
 2788              	.LEHE73:
 2789 147b 488B03   		movq	(%rbx), %rax
 2790 147e 4889DF   		movq	%rbx, %rdi
 2791 1481 FF5010   		call	*16(%rax)
 2792 1484 488DBC24 		leaq	304(%rsp), %rdi
 2792      30010000 
 2793 148c BA150000 		movl	$21, %edx
 2793      00
 2794 1491 BE000000 		movl	$.LC31, %esi
 2794      00
 2795 1496 4889C3   		movq	%rax, %rbx
 2796              	.LEHB74:
 2797 1499 E8000000 		call	_ZSt16__ostream_insertIcSt11char_traitsIcEERSt13basic_ostreamIT_T0_ES6_PKS3_l
 2797      00
 2798 149e 488DBC24 		leaq	304(%rsp), %rdi
 2798      30010000 
 2799 14a6 4889DE   		movq	%rbx, %rsi
 2800 14a9 E8000000 		call	_ZStlsISt11char_traitsIcEERSt13basic_ostreamIcT_ES5_PKc
 2800      00
 2801 14ae 488DBC24 		leaq	304(%rsp), %rdi
 2801      30010000 
 2802 14b6 E8000000 		call	_ZNK8UnitTest15MemoryOutStream7GetTextEv
 2802      00
 2803 14bb 4889C3   		movq	%rax, %rbx
 2804 14be E8000000 		call	_ZN8UnitTest11CurrentTest7ResultsEv
 2804      00
 2805 14c3 488B7424 		movq	8(%rsp), %rsi
 2805      08
 2806 14c8 488B38   		movq	(%rax), %rdi
 2807 14cb 4889DA   		movq	%rbx, %rdx
 2808 14ce E8000000 		call	_ZN8UnitTest11TestResults13OnTestFailureERKNS_11TestDetailsEPKc
 2808      00
 2809              	.LEHE74:
 2810 14d3 488DBC24 		leaq	304(%rsp), %rdi
 2810      30010000 
 2811              	.LEHB75:
 2812 14db E8000000 		call	_ZN8UnitTest15MemoryOutStreamD1Ev
 2812      00
 2813              	.LEHE75:
 2814              	.L394:
 2815 14e0 E8000000 		call	__cxa_end_catch
 2815      00
 2816 14e5 E9F5FDFF 		jmp	.L317
 2816      FF
 2817              	.L383:
 2818              	.L398:
 2819 14ea 4889C3   		movq	%rax, %rbx
 2820              	.L397:
 2821 14ed 488BBC24 		movq	208(%rsp), %rdi
 2821      D0000000 
 2822 14f5 488D8424 		leaq	224(%rsp), %rax
 2822      E0000000 
 2823 14fd 4839C7   		cmpq	%rax, %rdi
 2824 1500 7405     		je	.L354
 2825 1502 E8000000 		call	_ZdlPv
 2825      00
 2826              	.L354:
 2827 1507 4889D8   		movq	%rbx, %rax
 2828              	.L346:
 2829 150a 4889C7   		movq	%rax, %rdi
 2830 150d E8000000 		call	__cxa_begin_catch
 2830      00
 2831              	.LEHB76:
 2832 1512 E8000000 		call	_ZN8UnitTest11CurrentTest7DetailsEv
 2832      00
 2833 1517 488B30   		movq	(%rax), %rsi
 2834 151a 488DBC24 		leaq	176(%rsp), %rdi
 2834      B0000000 
 2835 1522 BAB40000 		movl	$180, %edx
 2835      00
 2836 1527 E8000000 		call	_ZN8UnitTest11TestDetailsC1ERKS0_i
 2836      00
 2837 152c E8000000 		call	_ZN8UnitTest11CurrentTest7ResultsEv
 2837      00
 2838 1531 488B38   		movq	(%rax), %rdi
 2839 1534 488DB424 		leaq	176(%rsp), %rsi
 2839      B0000000 
 2840 153c BA000000 		movl	$.LC50, %edx
 2840      00
 2841 1541 E8000000 		call	_ZN8UnitTest11TestResults13OnTestFailureERKNS_11TestDetailsEPKc
 2841      00
 2842              	.LEHE76:
 2843              	.LEHB77:
 2844 1546 E8000000 		call	__cxa_end_catch
 2844      00
 2845              	.LEHE77:
 2846 154b E982FDFF 		jmp	.L349
 2846      FF
 2847              		.p2align 4,,10
 2848              		.p2align 3
 2849              	.L406:
 2850 1550 0FB65500 		movzbl	0(%rbp), %edx
 2851 1554 88942420 		movb	%dl, 288(%rsp)
 2851      010000
 2852 155b 4889C2   		movq	%rax, %rdx
 2853 155e E9F8FCFF 		jmp	.L326
 2853      FF
 2854              		.p2align 4,,10
 2855 1563 0F1F4400 		.p2align 3
 2855      00
 2856              	.L410:
 2857 1568 0FB64500 		movzbl	0(%rbp), %eax
 2858 156c 88842400 		movb	%al, 256(%rsp)
 2858      010000
 2859 1573 488D8424 		leaq	256(%rsp), %rax
 2859      00010000 
 2860 157b E9E1FDFF 		jmp	.L335
 2860      FF
 2861              		.p2align 4,,10
 2862              		.p2align 3
 2863              	.L320:
 2864 1580 488B3424 		movq	(%rsp), %rsi
 2865 1584 488DBC24 		leaq	208(%rsp), %rdi
 2865      D0000000 
 2866 158c 4883C650 		addq	$80, %rsi
 2867              	.LEHB78:
 2868 1590 E8000000 		call	_ZNSt7__cxx1112basic_stringIcSt11char_traitsIcESaIcEE9_M_assignERKS4_
 2868      00
 2869              	.LEHE78:
 2870 1595 E9FCFCFF 		jmp	.L328
 2870      FF
 2871              	.L407:
 2872 159a 4889C7   		movq	%rax, %rdi
 2873 159d E97AFEFF 		jmp	.L324
 2873      FF
 2874              	.L411:
 2875 15a2 4889C7   		movq	%rax, %rdi
 2876 15a5 E922FEFF 		jmp	.L333
 2876      FF
 2877              	.L408:
 2878 15aa E8000000 		call	__stack_chk_fail
 2878      00
 2879              	.L381:
 2880 15af E936FFFF 		jmp	.L398
 2880      FF
 2881              	.L385:
 2882 15b4 488BBC24 		movq	272(%rsp), %rdi
 2882      10010000 
 2883 15bc 4889C3   		movq	%rax, %rbx
 2884 15bf 488D8424 		leaq	288(%rsp), %rax
 2884      20010000 
 2885 15c7 4839C7   		cmpq	%rax, %rdi
 2886 15ca 0F841DFF 		je	.L397
 2886      FFFF
 2887              	.L392:
 2888 15d0 E8000000 		call	_ZdlPv
 2888      00
 2889 15d5 E913FFFF 		jmp	.L397
 2889      FF
 2890              	.L384:
 2891 15da 488BBC24 		movq	240(%rsp), %rdi
 2891      F0000000 
 2892 15e2 4889C3   		movq	%rax, %rbx
 2893 15e5 488D8424 		leaq	256(%rsp), %rax
 2893      00010000 
 2894 15ed 4839C7   		cmpq	%rax, %rdi
 2895 15f0 75DE     		jne	.L392
 2896 15f2 E9F6FEFF 		jmp	.L397
 2896      FF
 2897              	.L382:
 2898 15f7 4889C3   		movq	%rax, %rbx
 2899 15fa 4889D5   		movq	%rdx, %rbp
 2900 15fd E8000000 		call	__cxa_end_catch
 2900      00
 2901 1602 E938FEFF 		jmp	.L356
 2901      FF
 2902              	.L380:
 2903 1607 E9FEFEFF 		jmp	.L346
 2903      FF
 2904              	.L378:
 2905 160c 4889C7   		movq	%rax, %rdi
 2906 160f E93EFEFF 		jmp	.L357
 2906      FF
 2907              	.L376:
 2908 1614 488DBC24 		leaq	304(%rsp), %rdi
 2908      30010000 
 2909 161c 4889C3   		movq	%rax, %rbx
 2910 161f E8000000 		call	_ZN8UnitTest15MemoryOutStreamD1Ev
 2910      00
 2911              	.L365:
 2912 1624 E8000000 		call	__cxa_end_catch
 2912      00
 2913 1629 4889DF   		movq	%rbx, %rdi
 2914              	.LEHB79:
 2915 162c E8000000 		call	_Unwind_Resume
 2915      00
 2916              	.LEHE79:
 2917              	.L375:
 2918              	.L395:
 2919 1631 4889C3   		movq	%rax, %rbx
 2920 1634 EBEE     		jmp	.L365
 2921              	.L412:
 2922 1636 E8000000 		call	__cxa_begin_catch
 2922      00
 2923              	.LEHB80:
 2924 163b E8000000 		call	_ZN8UnitTest11CurrentTest7ResultsEv
 2924      00
 2925 1640 488B7424 		movq	8(%rsp), %rsi
 2925      08
 2926 1645 488B38   		movq	(%rax), %rdi
 2927 1648 BA000000 		movl	$.LC32, %edx
 2927      00
 2928 164d E8000000 		call	_ZN8UnitTest11TestResults13OnTestFailureERKNS_11TestDetailsEPKc
 2928      00
 2929              	.LEHE80:
 2930              	.LEHB81:
 2931 1652 E8000000 		call	__cxa_end_catch
 2931      00
 2932              	.LEHE81:
 2933 1657 E983FCFF 		jmp	.L317
 2933      FF
 2934              	.L359:
 2935 165c E8000000 		call	__cxa_begin_catch
 2935      00
 2936 1661 4889C3   		movq	%rax, %rbx
 2937 1664 488B00   		movq	(%rax), %rax
 2938 1667 4889DF   		movq	%rbx, %rdi
 2939 166a FF5010   		call	*16(%rax)
 2940 166d 4889DF   		movq	%rbx, %rdi
 2941 1670 4889C5   		movq	%rax, %rbp
 2942              	.LEHB82:
 2943 1673 E8000000 		call	_ZNK8UnitTest15AssertException10LineNumberEv
 2943      00
 2944 1678 4889DF   		movq	%rbx, %rdi
 2945 167b 4189C4   		movl	%eax, %r12d
 2946 167e E8000000 		call	_ZNK8UnitTest15AssertException8FilenameEv
 2946      00
 2947 1683 488B5424 		movq	8(%rsp), %rdx
 2947      08
 2948 1688 488D7C24 		leaq	48(%rsp), %rdi
 2948      30
 2949 168d 4589E0   		movl	%r12d, %r8d
 2950 1690 4889C1   		movq	%rax, %rcx
 2951 1693 488B7208 		movq	8(%rdx), %rsi
 2952 1697 488B12   		movq	(%rdx), %rdx
 2953 169a E8000000 		call	_ZN8UnitTest11TestDetailsC1EPKcS2_S2_i
 2953      00
 2954 169f E8000000 		call	_ZN8UnitTest11CurrentTest7ResultsEv
 2954      00
 2955 16a4 488B38   		movq	(%rax), %rdi
 2956 16a7 488D7424 		leaq	48(%rsp), %rsi
 2956      30
 2957 16ac 4889EA   		movq	%rbp, %rdx
 2958 16af E8000000 		call	_ZN8UnitTest11TestResults13OnTestFailureERKNS_11TestDetailsEPKc
 2958      00
 2959              	.LEHE82:
 2960 16b4 E927FEFF 		jmp	.L394
 2960      FF
 2961              	.L374:
 2962 16b9 4889C3   		movq	%rax, %rbx
 2963 16bc E8000000 		call	__cxa_end_catch
 2963      00
 2964 16c1 4889DF   		movq	%rbx, %rdi
 2965              	.LEHB83:
 2966 16c4 E8000000 		call	_Unwind_Resume
 2966      00
 2967              	.LEHE83:
 2968              	.L377:
 2969 16c9 E963FFFF 		jmp	.L395
 2969      FF
 2970              		.cfi_endproc
 2971              	.LFE1724:
 2972              		.section	.gcc_except_table
 2973 019b 00       		.align 4
 2974              	.LLSDA1724:
 2975 019c FF       		.byte	0xff
 2976 019d 03       		.byte	0x3
 2977 019e 9C01     		.uleb128 .LLSDATT1724-.LLSDATTD1724
 2978              	.LLSDATTD1724:
 2979 01a0 01       		.byte	0x1
 2980 01a1 8401     		.uleb128 .LLSDACSE1724-.LLSDACSB1724
 2981              	.LLSDACSB1724:
 2982 01a3 2A       		.uleb128 .LEHB61-.LFB1724
 2983 01a4 05       		.uleb128 .LEHE61-.LEHB61
 2984 01a5 00       		.uleb128 0
 2985 01a6 00       		.uleb128 0
 2986 01a7 3A       		.uleb128 .LEHB62-.LFB1724
 2987 01a8 05       		.uleb128 .LEHE62-.LEHB62
 2988 01a9 8C0B     		.uleb128 .L378-.LFB1724
 2989 01ab 05       		.uleb128 0x5
 2990 01ac 72       		.uleb128 .LEHB63-.LFB1724
 2991 01ad 9401     		.uleb128 .LEHE63-.LEHB63
 2992 01af B907     		.uleb128 .L379-.LFB1724
 2993 01b1 07       		.uleb128 0x7
 2994 01b2 8F02     		.uleb128 .LEHB64-.LFB1724
 2995 01b4 1A       		.uleb128 .LEHE64-.LEHB64
 2996 01b5 870B     		.uleb128 .L380-.LFB1724
 2997 01b7 01       		.uleb128 0x1
 2998 01b8 8503     		.uleb128 .LEHB65-.LFB1724
 2999 01ba 05       		.uleb128 .LEHE65-.LEHB65
 3000 01bb EA08     		.uleb128 .L383-.LFB1724
 3001 01bd 01       		.uleb128 0x1
 3002 01be AB03     		.uleb128 .LEHB66-.LFB1724
 3003 01c0 05       		.uleb128 .LEHE66-.LEHB66
 3004 01c1 B907     		.uleb128 .L379-.LFB1724
 3005 01c3 07       		.uleb128 0x7
 3006 01c4 F703     		.uleb128 .LEHB67-.LFB1724
 3007 01c6 05       		.uleb128 .LEHE67-.LEHB67
 3008 01c7 B40A     		.uleb128 .L385-.LFB1724
 3009 01c9 01       		.uleb128 0x1
 3010 01ca 9604     		.uleb128 .LEHB68-.LFB1724
 3011 01cc 22       		.uleb128 .LEHE68-.LEHB68
 3012 01cd AF0A     		.uleb128 .L381-.LFB1724
 3013 01cf 01       		.uleb128 0x1
 3014 01d0 DA04     		.uleb128 .LEHB69-.LFB1724
 3015 01d2 05       		.uleb128 .LEHE69-.LEHB69
 3016 01d3 8C0B     		.uleb128 .L378-.LFB1724
 3017 01d5 05       		.uleb128 0x5
 3018 01d6 AF05     		.uleb128 .LEHB70-.LFB1724
 3019 01d8 05       		.uleb128 .LEHE70-.LEHB70
 3020 01d9 EA08     		.uleb128 .L383-.LFB1724
 3021 01db 01       		.uleb128 0x1
 3022 01dc FD05     		.uleb128 .LEHB71-.LFB1724
 3023 01de 05       		.uleb128 .LEHE71-.LEHB71
 3024 01df DA0A     		.uleb128 .L384-.LFB1724
 3025 01e1 01       		.uleb128 0x1
 3026 01e2 AF06     		.uleb128 .LEHB72-.LFB1724
 3027 01e4 55       		.uleb128 .LEHE72-.LEHB72
 3028 01e5 EA08     		.uleb128 .L383-.LFB1724
 3029 01e7 01       		.uleb128 0x1
 3030 01e8 F607     		.uleb128 .LEHB73-.LFB1724
 3031 01ea 05       		.uleb128 .LEHE73-.LEHB73
 3032 01eb B10B     		.uleb128 .L375-.LFB1724
 3033 01ed 00       		.uleb128 0
 3034 01ee 9908     		.uleb128 .LEHB74-.LFB1724
 3035 01f0 3A       		.uleb128 .LEHE74-.LEHB74
 3036 01f1 940B     		.uleb128 .L376-.LFB1724
 3037 01f3 00       		.uleb128 0
 3038 01f4 DB08     		.uleb128 .LEHB75-.LFB1724
 3039 01f6 05       		.uleb128 .LEHE75-.LEHB75
 3040 01f7 B10B     		.uleb128 .L375-.LFB1724
 3041 01f9 00       		.uleb128 0
 3042 01fa 9209     		.uleb128 .LEHB76-.LFB1724
 3043 01fc 34       		.uleb128 .LEHE76-.LEHB76
 3044 01fd F70A     		.uleb128 .L382-.LFB1724
 3045 01ff 07       		.uleb128 0x7
 3046 0200 C609     		.uleb128 .LEHB77-.LFB1724
 3047 0202 05       		.uleb128 .LEHE77-.LEHB77
 3048 0203 B907     		.uleb128 .L379-.LFB1724
 3049 0205 07       		.uleb128 0x7
 3050 0206 900A     		.uleb128 .LEHB78-.LFB1724
 3051 0208 05       		.uleb128 .LEHE78-.LEHB78
 3052 0209 EA08     		.uleb128 .L383-.LFB1724
 3053 020b 01       		.uleb128 0x1
 3054 020c AC0B     		.uleb128 .LEHB79-.LFB1724
 3055 020e 05       		.uleb128 .LEHE79-.LEHB79
 3056 020f 00       		.uleb128 0
 3057 0210 00       		.uleb128 0
 3058 0211 BB0B     		.uleb128 .LEHB80-.LFB1724
 3059 0213 17       		.uleb128 .LEHE80-.LEHB80
 3060 0214 B90C     		.uleb128 .L374-.LFB1724
 3061 0216 00       		.uleb128 0
 3062 0217 D20B     		.uleb128 .LEHB81-.LFB1724
 3063 0219 05       		.uleb128 .LEHE81-.LEHB81
 3064 021a 00       		.uleb128 0
 3065 021b 00       		.uleb128 0
 3066 021c F30B     		.uleb128 .LEHB82-.LFB1724
 3067 021e 41       		.uleb128 .LEHE82-.LEHB82
 3068 021f C90C     		.uleb128 .L377-.LFB1724
 3069 0221 00       		.uleb128 0
 3070 0222 C40C     		.uleb128 .LEHB83-.LFB1724
 3071 0224 05       		.uleb128 .LEHE83-.LEHB83
 3072 0225 00       		.uleb128 0
 3073 0226 00       		.uleb128 0
 3074              	.LLSDACSE1724:
 3075 0227 03       		.byte	0x3
 3076 0228 00       		.byte	0
 3077 0229 02       		.byte	0x2
 3078 022a 7D       		.byte	0x7d
 3079 022b 01       		.byte	0x1
 3080 022c 7D       		.byte	0x7d
 3081 022d 00       		.byte	0
 3082 022e 7D       		.byte	0x7d
 3083 022f 00       		.align 4
 3084 0230 00000000 		.long	0
 3085              	
 3086 0234 00000000 		.long	_ZTISt9exception
 3087 0238 00000000 		.long	_ZTIN8UnitTest15AssertExceptionE
 3088              	.LLSDATT1724:
 3089              		.text
 3091              		.section	.text.unlikely
 3092              	.LCOLDE51:
 3093              		.text
 3094              	.LHOTE51:
 3095              		.section	.text.unlikely
 3096              		.align 2
 3097              	.LCOLDB52:
 3098              		.text
 3099              	.LHOTB52:
 3100              		.align 2
 3101 16ce 6690     		.p2align 4,,15
 3103              	_ZNK12_GLOBAL__N_142TestXmlTestReporterFixtureMultipleFailures7RunImplEv:
 3104              	.LFB1450:
 3105              		.cfi_startproc
 3106              		.cfi_personality 0x3,__gxx_personality_v0
 3107              		.cfi_lsda 0x3,.LLSDA1450
 3108 16d0 4157     		pushq	%r15
 3109              		.cfi_def_cfa_offset 16
 3110              		.cfi_offset 15, -16
 3111 16d2 4156     		pushq	%r14
 3112              		.cfi_def_cfa_offset 24
 3113              		.cfi_offset 14, -24
 3114 16d4 4989FF   		movq	%rdi, %r15
 3115 16d7 4155     		pushq	%r13
 3116              		.cfi_def_cfa_offset 32
 3117              		.cfi_offset 13, -32
 3118 16d9 4154     		pushq	%r12
 3119              		.cfi_def_cfa_offset 40
 3120              		.cfi_offset 12, -40
 3121 16db 4C8D7708 		leaq	8(%rdi), %r14
 3122 16df 55       		pushq	%rbp
 3123              		.cfi_def_cfa_offset 48
 3124              		.cfi_offset 6, -48
 3125 16e0 53       		pushq	%rbx
 3126              		.cfi_def_cfa_offset 56
 3127              		.cfi_offset 3, -56
 3128 16e1 4881ECD8 		subq	$472, %rsp
 3128      010000
 3129              		.cfi_def_cfa_offset 528
 3130 16e8 488DBC24 		leaq	144(%rsp), %rdi
 3130      90000000 
 3131 16f0 64488B04 		movq	%fs:40, %rax
 3131      25280000 
 3131      00
 3132 16f9 48898424 		movq	%rax, 456(%rsp)
 3132      C8010000 
 3133 1701 31C0     		xorl	%eax, %eax
 3134 1703 E8000000 		call	_ZNSt8ios_baseC2Ev
 3134      00
 3135 1708 488B0500 		movq	_ZTTNSt7__cxx1119basic_ostringstreamIcSt11char_traitsIcESaIcEEE+8(%rip), %rax
 3135      000000
 3136 170f C6842470 		movb	$0, 368(%rsp)
 3136      01000000 
 3137 1717 488D7C24 		leaq	32(%rsp), %rdi
 3137      20
 3138 171c 48C78424 		movq	$_ZTVSt9basic_iosIcSt11char_traitsIcEE+16, 144(%rsp)
 3138      90000000 
 3138      00000000 
 3139 1728 48C78424 		movq	$0, 360(%rsp)
 3139      68010000 
 3139      00000000 
 3140 1734 31F6     		xorl	%esi, %esi
 3141 1736 C6842471 		movb	$0, 369(%rsp)
 3141      01000000 
 3142 173e 48C78424 		movq	$0, 376(%rsp)
 3142      78010000 
 3142      00000000 
 3143 174a 480378E8 		addq	-24(%rax), %rdi
 3144 174e 48894424 		movq	%rax, 32(%rsp)
 3144      20
 3145 1753 488B0500 		movq	_ZTTNSt7__cxx1119basic_ostringstreamIcSt11char_traitsIcESaIcEEE+16(%rip), %rax
 3145      000000
 3146 175a 48C78424 		movq	$0, 384(%rsp)
 3146      80010000 
 3146      00000000 
 3147 1766 48C78424 		movq	$0, 392(%rsp)
 3147      88010000 
 3147      00000000 
 3148 1772 48C78424 		movq	$0, 400(%rsp)
 3148      90010000 
 3148      00000000 
 3149 177e 488907   		movq	%rax, (%rdi)
 3150              	.LEHB84:
 3151 1781 E8000000 		call	_ZNSt9basic_iosIcSt11char_traitsIcEE4initEPSt15basic_streambufIcS1_E
 3151      00
 3152              	.LEHE84:
 3153 1786 488D7C24 		leaq	96(%rsp), %rdi
 3153      60
 3154 178b 48C74424 		movq	$_ZTVNSt7__cxx1119basic_ostringstreamIcSt11char_traitsIcESaIcEEE+24, 32(%rsp)
 3154      20000000 
 3154      00
 3155 1794 48C78424 		movq	$_ZTVNSt7__cxx1119basic_ostringstreamIcSt11char_traitsIcESaIcEEE+64, 144(%rsp)
 3155      90000000 
 3155      00000000 
 3156 17a0 48C74424 		movq	$_ZTVSt15basic_streambufIcSt11char_traitsIcEE+16, 40(%rsp)
 3156      28000000 
 3156      00
 3157 17a9 48C74424 		movq	$0, 48(%rsp)
 3157      30000000 
 3157      00
 3158 17b2 48C74424 		movq	$0, 56(%rsp)
 3158      38000000 
 3158      00
 3159 17bb 48C74424 		movq	$0, 64(%rsp)
 3159      40000000 
 3159      00
 3160 17c4 48C74424 		movq	$0, 72(%rsp)
 3160      48000000 
 3160      00
 3161 17cd 48C74424 		movq	$0, 80(%rsp)
 3161      50000000 
 3161      00
 3162 17d6 48C74424 		movq	$0, 88(%rsp)
 3162      58000000 
 3162      00
 3163 17df E8000000 		call	_ZNSt6localeC1Ev
 3163      00
 3164 17e4 488D8424 		leaq	128(%rsp), %rax
 3164      80000000 
 3165 17ec 488D7424 		leaq	40(%rsp), %rsi
 3165      28
 3166 17f1 48C74424 		movq	$_ZTVNSt7__cxx1115basic_stringbufIcSt11char_traitsIcESaIcEEE+16, 40(%rsp)
 3166      28000000 
 3166      00
 3167 17fa C7442468 		movl	$16, 104(%rsp)
 3167      10000000 
 3168 1802 48C74424 		movq	$0, 120(%rsp)
 3168      78000000 
 3168      00
 3169 180b 48894424 		movq	%rax, 112(%rsp)
 3169      70
 3170 1810 488D4424 		leaq	32(%rsp), %rax
 3170      20
 3171 1815 C6842480 		movb	$0, 128(%rsp)
 3171      00000000 
 3172 181d 488D7870 		leaq	112(%rax), %rdi
 3173              	.LEHB85:
 3174 1821 E8000000 		call	_ZNSt9basic_iosIcSt11char_traitsIcEE4initEPSt15basic_streambufIcS1_E
 3174      00
 3175              	.LEHE85:
 3176 1826 488D4424 		leaq	32(%rsp), %rax
 3176      20
 3177 182b 488DBC24 		leaq	408(%rsp), %rdi
 3177      98010000 
 3178 1833 4889C6   		movq	%rax, %rsi
 3179              	.LEHB86:
 3180 1836 E8000000 		call	_ZN8UnitTest15XmlTestReporterC1ERSo
 3180      00
 3181              	.LEHE86:
 3182 183b 488D7C24 		leaq	32(%rsp), %rdi
 3182      20
 3183 1840 4C89F6   		movq	%r14, %rsi
 3184 1843 4C89B424 		movq	%r14, 448(%rsp)
 3184      C0010000 
 3185              	.LEHB87:
 3186 184b E830F8FF 		call	_ZN8UnitTest11ExecuteTestIN12_GLOBAL__N_144XmlTestReporterFixtureMultipleFailuresHelperEEEvRT
 3186      FF
 3187              	.LEHE87:
 3188 1850 4C8BA424 		movq	424(%rsp), %r12
 3188      A8010000 
 3189 1858 488BAC24 		movq	416(%rsp), %rbp
 3189      A0010000 
 3190 1860 48C78424 		movq	$_ZTVN8UnitTest20DeferredTestReporterE+16, 408(%rsp)
 3190      98010000 
 3190      00000000 
 3191 186c 4939EC   		cmpq	%rbp, %r12
 3192 186f 0F848600 		je	.L420
 3192      0000
 3193              		.p2align 4,,10
 3194 1875 0F1F00   		.p2align 3
 3195              	.L428:
 3196 1878 488B5D68 		movq	104(%rbp), %rbx
 3197 187c 4C8B6D60 		movq	96(%rbp), %r13
 3198 1880 4C39EB   		cmpq	%r13, %rbx
 3199 1883 7422     		je	.L421
 3200              		.p2align 4,,10
 3201 1885 0F1F00   		.p2align 3
 3202              	.L423:
 3203 1888 498B7D08 		movq	8(%r13), %rdi
 3204 188c 498D5518 		leaq	24(%r13), %rdx
 3205 1890 4839D7   		cmpq	%rdx, %rdi
 3206 1893 7405     		je	.L422
 3207 1895 E8000000 		call	_ZdlPv
 3207      00
 3208              	.L422:
 3209 189a 4983C528 		addq	$40, %r13
 3210 189e 4C39EB   		cmpq	%r13, %rbx
 3211 18a1 75E5     		jne	.L423
 3212 18a3 488B5D60 		movq	96(%rbp), %rbx
 3213              	.L421:
 3214 18a7 4885DB   		testq	%rbx, %rbx
 3215 18aa 7408     		je	.L424
 3216 18ac 4889DF   		movq	%rbx, %rdi
 3217 18af E8000000 		call	_ZdlPv
 3217      00
 3218              	.L424:
 3219 18b4 488B7D40 		movq	64(%rbp), %rdi
 3220 18b8 488D4550 		leaq	80(%rbp), %rax
 3221 18bc 4839C7   		cmpq	%rax, %rdi
 3222 18bf 7405     		je	.L425
 3223 18c1 E8000000 		call	_ZdlPv
 3223      00
 3224              	.L425:
 3225 18c6 488B7D20 		movq	32(%rbp), %rdi
 3226 18ca 488D4530 		leaq	48(%rbp), %rax
 3227 18ce 4839C7   		cmpq	%rax, %rdi
 3228 18d1 7405     		je	.L426
 3229 18d3 E8000000 		call	_ZdlPv
 3229      00
 3230              	.L426:
 3231 18d8 488B7D00 		movq	0(%rbp), %rdi
 3232 18dc 488D4510 		leaq	16(%rbp), %rax
 3233 18e0 4839C7   		cmpq	%rax, %rdi
 3234 18e3 7405     		je	.L427
 3235 18e5 E8000000 		call	_ZdlPv
 3235      00
 3236              	.L427:
 3237 18ea 4883ED80 		subq	$-128, %rbp
 3238 18ee 4939EC   		cmpq	%rbp, %r12
 3239 18f1 7585     		jne	.L428
 3240 18f3 4C8BA424 		movq	416(%rsp), %r12
 3240      A0010000 
 3241              	.L420:
 3242 18fb 4D85E4   		testq	%r12, %r12
 3243 18fe 7408     		je	.L429
 3244 1900 4C89E7   		movq	%r12, %rdi
 3245 1903 E8000000 		call	_ZdlPv
 3245      00
 3246              	.L429:
 3247 1908 488DBC24 		leaq	408(%rsp), %rdi
 3247      98010000 
 3248              	.LEHB88:
 3249 1910 E8000000 		call	_ZN8UnitTest12TestReporterD2Ev
 3249      00
 3250              	.LEHE88:
 3251 1915 488B7C24 		movq	112(%rsp), %rdi
 3251      70
 3252 191a 488D8424 		leaq	128(%rsp), %rax
 3252      80000000 
 3253 1922 48C74424 		movq	$_ZTVNSt7__cxx1119basic_ostringstreamIcSt11char_traitsIcESaIcEEE+24, 32(%rsp)
 3253      20000000 
 3253      00
 3254 192b 48C78424 		movq	$_ZTVNSt7__cxx1119basic_ostringstreamIcSt11char_traitsIcESaIcEEE+64, 144(%rsp)
 3254      90000000 
 3254      00000000 
 3255 1937 48C74424 		movq	$_ZTVNSt7__cxx1115basic_stringbufIcSt11char_traitsIcESaIcEEE+16, 40(%rsp)
 3255      28000000 
 3255      00
 3256 1940 4839C7   		cmpq	%rax, %rdi
 3257 1943 7405     		je	.L430
 3258 1945 E8000000 		call	_ZdlPv
 3258      00
 3259              	.L430:
 3260 194a 488D7C24 		leaq	96(%rsp), %rdi
 3260      60
 3261 194f 48C74424 		movq	$_ZTVSt15basic_streambufIcSt11char_traitsIcEE+16, 40(%rsp)
 3261      28000000 
 3261      00
 3262 1958 E8000000 		call	_ZNSt6localeD1Ev
 3262      00
 3263 195d 488B0500 		movq	_ZTTNSt7__cxx1119basic_ostringstreamIcSt11char_traitsIcESaIcEEE+8(%rip), %rax
 3263      000000
 3264 1964 488B0D00 		movq	_ZTTNSt7__cxx1119basic_ostringstreamIcSt11char_traitsIcESaIcEEE+16(%rip), %rcx
 3264      000000
 3265 196b 488DBC24 		leaq	144(%rsp), %rdi
 3265      90000000 
 3266 1973 488B40E8 		movq	-24(%rax), %rax
 3267 1977 48894C04 		movq	%rcx, 32(%rsp,%rax)
 3267      20
 3268 197c 48C78424 		movq	$_ZTVSt9basic_iosIcSt11char_traitsIcEE+16, 144(%rsp)
 3268      90000000 
 3268      00000000 
 3269              	.LEHB89:
 3270 1988 E8000000 		call	_ZNSt8ios_baseD2Ev
 3270      00
 3271              	.LEHE89:
 3272              	.L413:
 3273 198d 488B8424 		movq	456(%rsp), %rax
 3273      C8010000 
 3274 1995 64483304 		xorq	%fs:40, %rax
 3274      25280000 
 3274      00
 3275 199e 0F85C000 		jne	.L473
 3275      0000
 3276 19a4 4881C4D8 		addq	$472, %rsp
 3276      010000
 3277              		.cfi_remember_state
 3278              		.cfi_def_cfa_offset 56
 3279 19ab 5B       		popq	%rbx
 3280              		.cfi_def_cfa_offset 48
 3281 19ac 5D       		popq	%rbp
 3282              		.cfi_def_cfa_offset 40
 3283 19ad 415C     		popq	%r12
 3284              		.cfi_def_cfa_offset 32
 3285 19af 415D     		popq	%r13
 3286              		.cfi_def_cfa_offset 24
 3287 19b1 415E     		popq	%r14
 3288              		.cfi_def_cfa_offset 16
 3289 19b3 415F     		popq	%r15
 3290              		.cfi_def_cfa_offset 8
 3291 19b5 C3       		ret
 3292              	.L453:
 3293              		.cfi_restore_state
 3294 19b6 4889C3   		movq	%rax, %rbx
 3295 19b9 4889D5   		movq	%rdx, %rbp
 3296              	.L416:
 3297 19bc 488DBC24 		leaq	144(%rsp), %rdi
 3297      90000000 
 3298 19c4 48C78424 		movq	$_ZTVSt9basic_iosIcSt11char_traitsIcEE+16, 144(%rsp)
 3298      90000000 
 3298      00000000 
 3299 19d0 E8000000 		call	_ZNSt8ios_baseD2Ev
 3299      00
 3300 19d5 4889DF   		movq	%rbx, %rdi
 3301 19d8 4889EA   		movq	%rbp, %rdx
 3302 19db 31DB     		xorl	%ebx, %ebx
 3303              	.L417:
 3304 19dd 4883FA01 		cmpq	$1, %rdx
 3305 19e1 0F84EA00 		je	.L437
 3305      0000
 3306 19e7 4883FA02 		cmpq	$2, %rdx
 3307 19eb 0F85A400 		jne	.L474
 3307      0000
 3308 19f1 E8000000 		call	__cxa_begin_catch
 3308      00
 3309 19f6 488D7C24 		leaq	32(%rsp), %rdi
 3309      20
 3310 19fb 4889C3   		movq	%rax, %rbx
 3311              	.LEHB90:
 3312 19fe E8000000 		call	_ZN8UnitTest15MemoryOutStreamC1Ev
 3312      00
 3313              	.LEHE90:
 3314 1a03 488B03   		movq	(%rbx), %rax
 3315 1a06 4889DF   		movq	%rbx, %rdi
 3316 1a09 FF5010   		call	*16(%rax)
 3317 1a0c 488D7C24 		leaq	32(%rsp), %rdi
 3317      20
 3318 1a11 BA150000 		movl	$21, %edx
 3318      00
 3319 1a16 BE000000 		movl	$.LC31, %esi
 3319      00
 3320 1a1b 4889C3   		movq	%rax, %rbx
 3321              	.LEHB91:
 3322 1a1e E8000000 		call	_ZSt16__ostream_insertIcSt11char_traitsIcEERSt13basic_ostreamIT_T0_ES6_PKS3_l
 3322      00
 3323 1a23 488D7C24 		leaq	32(%rsp), %rdi
 3323      20
 3324 1a28 4889DE   		movq	%rbx, %rsi
 3325 1a2b E8000000 		call	_ZStlsISt11char_traitsIcEERSt13basic_ostreamIcT_ES5_PKc
 3325      00
 3326 1a30 488D7C24 		leaq	32(%rsp), %rdi
 3326      20
 3327 1a35 E8000000 		call	_ZNK8UnitTest15MemoryOutStream7GetTextEv
 3327      00
 3328 1a3a 4889C3   		movq	%rax, %rbx
 3329 1a3d E8000000 		call	_ZN8UnitTest11CurrentTest7ResultsEv
 3329      00
 3330 1a42 488B38   		movq	(%rax), %rdi
 3331 1a45 4889DA   		movq	%rbx, %rdx
 3332 1a48 4C89F6   		movq	%r14, %rsi
 3333 1a4b E8000000 		call	_ZN8UnitTest11TestResults13OnTestFailureERKNS_11TestDetailsEPKc
 3333      00
 3334              	.LEHE91:
 3335 1a50 488D7C24 		leaq	32(%rsp), %rdi
 3335      20
 3336              	.LEHB92:
 3337 1a55 E8000000 		call	_ZN8UnitTest15MemoryOutStreamD1Ev
 3337      00
 3338              	.LEHE92:
 3339              	.L468:
 3340 1a5a E8000000 		call	__cxa_end_catch
 3340      00
 3341 1a5f E929FFFF 		jmp	.L413
 3341      FF
 3342              	.L473:
 3343 1a64 E8000000 		call	__stack_chk_fail
 3343      00
 3344              	.L446:
 3345 1a69 4889C7   		movq	%rax, %rdi
 3346 1a6c BB010000 		movl	$1, %ebx
 3346      00
 3347 1a71 E967FFFF 		jmp	.L417
 3347      FF
 3348              	.L450:
 3349 1a76 488D7C24 		leaq	32(%rsp), %rdi
 3349      20
 3350 1a7b 4889C3   		movq	%rax, %rbx
 3351 1a7e E8000000 		call	_ZN8UnitTest15MemoryOutStreamD1Ev
 3351      00
 3352              	.L443:
 3353 1a83 E8000000 		call	__cxa_end_catch
 3353      00
 3354 1a88 4889DF   		movq	%rbx, %rdi
 3355              	.LEHB93:
 3356 1a8b E8000000 		call	_Unwind_Resume
 3356      00
 3357              	.LEHE93:
 3358              	.L449:
 3359              	.L469:
 3360 1a90 4889C3   		movq	%rax, %rbx
 3361 1a93 EBEE     		jmp	.L443
 3362              	.L474:
 3363 1a95 E8000000 		call	__cxa_begin_catch
 3363      00
 3364 1a9a 84DB     		testb	%bl, %bl
 3365 1a9c BA9F0000 		movl	$159, %edx
 3365      00
 3366 1aa1 4C89F6   		movq	%r14, %rsi
 3367 1aa4 4889E7   		movq	%rsp, %rdi
 3368 1aa7 0F848900 		je	.L439
 3368      0000
 3369              	.LEHB94:
 3370 1aad E8000000 		call	_ZN8UnitTest11TestDetailsC1ERKS0_i
 3370      00
 3371 1ab2 E8000000 		call	_ZN8UnitTest11CurrentTest7ResultsEv
 3371      00
 3372 1ab7 488B38   		movq	(%rax), %rdi
 3373 1aba BA000000 		movl	$.LC35, %edx
 3373      00
 3374 1abf 4889E6   		movq	%rsp, %rsi
 3375 1ac2 E8000000 		call	_ZN8UnitTest11TestResults13OnTestFailureERKNS_11TestDetailsEPKc
 3375      00
 3376              	.LEHE94:
 3377              	.L440:
 3378              	.LEHB95:
 3379 1ac7 E8000000 		call	__cxa_end_catch
 3379      00
 3380              	.LEHE95:
 3381 1acc E9BCFEFF 		jmp	.L413
 3381      FF
 3382              	.L437:
 3383 1ad1 E8000000 		call	__cxa_begin_catch
 3383      00
 3384 1ad6 4889C3   		movq	%rax, %rbx
 3385 1ad9 488B00   		movq	(%rax), %rax
 3386 1adc 4889DF   		movq	%rbx, %rdi
 3387 1adf FF5010   		call	*16(%rax)
 3388 1ae2 4889DF   		movq	%rbx, %rdi
 3389 1ae5 4889C5   		movq	%rax, %rbp
 3390              	.LEHB96:
 3391 1ae8 E8000000 		call	_ZNK8UnitTest15AssertException10LineNumberEv
 3391      00
 3392 1aed 4889DF   		movq	%rbx, %rdi
 3393 1af0 4189C4   		movl	%eax, %r12d
 3394 1af3 E8000000 		call	_ZNK8UnitTest15AssertException8FilenameEv
 3394      00
 3395 1af8 498B5708 		movq	8(%r15), %rdx
 3396 1afc 498B7710 		movq	16(%r15), %rsi
 3397 1b00 4589E0   		movl	%r12d, %r8d
 3398 1b03 4889C1   		movq	%rax, %rcx
 3399 1b06 4889E7   		movq	%rsp, %rdi
 3400 1b09 E8000000 		call	_ZN8UnitTest11TestDetailsC1EPKcS2_S2_i
 3400      00
 3401 1b0e E8000000 		call	_ZN8UnitTest11CurrentTest7ResultsEv
 3401      00
 3402 1b13 488B38   		movq	(%rax), %rdi
 3403 1b16 4889EA   		movq	%rbp, %rdx
 3404 1b19 4889E6   		movq	%rsp, %rsi
 3405 1b1c E8000000 		call	_ZN8UnitTest11TestResults13OnTestFailureERKNS_11TestDetailsEPKc
 3405      00
 3406              	.LEHE96:
 3407 1b21 E934FFFF 		jmp	.L468
 3407      FF
 3408              	.L451:
 3409 1b26 4889C3   		movq	%rax, %rbx
 3410 1b29 E8000000 		call	__cxa_end_catch
 3410      00
 3411 1b2e 4889DF   		movq	%rbx, %rdi
 3412              	.LEHB97:
 3413 1b31 E8000000 		call	_Unwind_Resume
 3413      00
 3414              	.LEHE97:
 3415              	.L439:
 3416              	.LEHB98:
 3417 1b36 E8000000 		call	_ZN8UnitTest11TestDetailsC1ERKS0_i
 3417      00
 3418 1b3b E8000000 		call	_ZN8UnitTest11CurrentTest7ResultsEv
 3418      00
 3419 1b40 488B38   		movq	(%rax), %rdi
 3420 1b43 BA000000 		movl	$.LC36, %edx
 3420      00
 3421 1b48 4889E6   		movq	%rsp, %rsi
 3422 1b4b E8000000 		call	_ZN8UnitTest11TestResults13OnTestFailureERKNS_11TestDetailsEPKc
 3422      00
 3423              	.LEHE98:
 3424 1b50 E972FFFF 		jmp	.L440
 3424      FF
 3425              	.L448:
 3426 1b55 E936FFFF 		jmp	.L469
 3426      FF
 3427              	.L455:
 3428 1b5a 488D7C24 		leaq	32(%rsp), %rdi
 3428      20
 3429 1b5f 4889C3   		movq	%rax, %rbx
 3430 1b62 4889D5   		movq	%rdx, %rbp
 3431 1b65 E8000000 		call	_ZNSt7__cxx1119basic_ostringstreamIcSt11char_traitsIcESaIcEED1Ev
 3431      00
 3432 1b6a 4889DF   		movq	%rbx, %rdi
 3433 1b6d 4889EA   		movq	%rbp, %rdx
 3434 1b70 BB010000 		movl	$1, %ebx
 3434      00
 3435 1b75 E963FEFF 		jmp	.L417
 3435      FF
 3436              	.L447:
 3437 1b7a 488D7C24 		leaq	32(%rsp), %rdi
 3437      20
 3438 1b7f 4889C3   		movq	%rax, %rbx
 3439 1b82 4889D5   		movq	%rdx, %rbp
 3440 1b85 E8000000 		call	_ZN12_GLOBAL__N_122XmlTestReporterFixtureD2Ev.constprop.46
 3440      00
 3441 1b8a 4889DF   		movq	%rbx, %rdi
 3442 1b8d 4889EA   		movq	%rbp, %rdx
 3443 1b90 BB010000 		movl	$1, %ebx
 3443      00
 3444 1b95 E943FEFF 		jmp	.L417
 3444      FF
 3445              	.L452:
 3446 1b9a 488D7C24 		leaq	32(%rsp), %rdi
 3446      20
 3447 1b9f 4889C3   		movq	%rax, %rbx
 3448 1ba2 4889D5   		movq	%rdx, %rbp
 3449 1ba5 E8000000 		call	_ZNSt7__cxx1119basic_ostringstreamIcSt11char_traitsIcESaIcEED1Ev
 3449      00
 3450 1baa 4889DF   		movq	%rbx, %rdi
 3451 1bad 4889EA   		movq	%rbp, %rdx
 3452 1bb0 31DB     		xorl	%ebx, %ebx
 3453 1bb2 E926FEFF 		jmp	.L417
 3453      FF
 3454              	.L454:
 3455 1bb7 488D7C24 		leaq	40(%rsp), %rdi
 3455      28
 3456 1bbc 4889C3   		movq	%rax, %rbx
 3457 1bbf 4889D5   		movq	%rdx, %rbp
 3458 1bc2 E8000000 		call	_ZNSt7__cxx1115basic_stringbufIcSt11char_traitsIcESaIcEED1Ev
 3458      00
 3459 1bc7 488B0500 		movq	_ZTTNSt7__cxx1119basic_ostringstreamIcSt11char_traitsIcESaIcEEE+8(%rip), %rax
 3459      000000
 3460 1bce 488B0D00 		movq	_ZTTNSt7__cxx1119basic_ostringstreamIcSt11char_traitsIcESaIcEEE+16(%rip), %rcx
 3460      000000
 3461 1bd5 488B40E8 		movq	-24(%rax), %rax
 3462 1bd9 48894C04 		movq	%rcx, 32(%rsp,%rax)
 3462      20
 3463 1bde E9D9FDFF 		jmp	.L416
 3463      FF
 3464              		.cfi_endproc
 3465              	.LFE1450:
 3466              		.section	.gcc_except_table
 3467              		.align 4
 3468              	.LLSDA1450:
 3469 023c FF       		.byte	0xff
 3470 023d 03       		.byte	0x3
 3471 023e 6D       		.uleb128 .LLSDATT1450-.LLSDATTD1450
 3472              	.LLSDATTD1450:
 3473 023f 01       		.byte	0x1
 3474 0240 57       		.uleb128 .LLSDACSE1450-.LLSDACSB1450
 3475              	.LLSDACSB1450:
 3476 0241 B101     		.uleb128 .LEHB84-.LFB1450
 3477 0243 05       		.uleb128 .LEHE84-.LEHB84
 3478 0244 E605     		.uleb128 .L453-.LFB1450
 3479 0246 07       		.uleb128 0x7
 3480 0247 D102     		.uleb128 .LEHB85-.LFB1450
 3481 0249 05       		.uleb128 .LEHE85-.LEHB85
 3482 024a E709     		.uleb128 .L454-.LFB1450
 3483 024c 07       		.uleb128 0x7
 3484 024d E602     		.uleb128 .LEHB86-.LFB1450
 3485 024f 05       		.uleb128 .LEHE86-.LEHB86
 3486 0250 CA09     		.uleb128 .L452-.LFB1450
 3487 0252 07       		.uleb128 0x7
 3488 0253 FB02     		.uleb128 .LEHB87-.LFB1450
 3489 0255 05       		.uleb128 .LEHE87-.LEHB87
 3490 0256 AA09     		.uleb128 .L447-.LFB1450
 3491 0258 07       		.uleb128 0x7
 3492 0259 C004     		.uleb128 .LEHB88-.LFB1450
 3493 025b 05       		.uleb128 .LEHE88-.LEHB88
 3494 025c 8A09     		.uleb128 .L455-.LFB1450
 3495 025e 07       		.uleb128 0x7
 3496 025f B805     		.uleb128 .LEHB89-.LFB1450
 3497 0261 05       		.uleb128 .LEHE89-.LEHB89
 3498 0262 9907     		.uleb128 .L446-.LFB1450
 3499 0264 05       		.uleb128 0x5
 3500 0265 AE06     		.uleb128 .LEHB90-.LFB1450
 3501 0267 05       		.uleb128 .LEHE90-.LEHB90
 3502 0268 C007     		.uleb128 .L449-.LFB1450
 3503 026a 00       		.uleb128 0
 3504 026b CE06     		.uleb128 .LEHB91-.LFB1450
 3505 026d 32       		.uleb128 .LEHE91-.LEHB91
 3506 026e A607     		.uleb128 .L450-.LFB1450
 3507 0270 00       		.uleb128 0
 3508 0271 8507     		.uleb128 .LEHB92-.LFB1450
 3509 0273 05       		.uleb128 .LEHE92-.LEHB92
 3510 0274 C007     		.uleb128 .L449-.LFB1450
 3511 0276 00       		.uleb128 0
 3512 0277 BB07     		.uleb128 .LEHB93-.LFB1450
 3513 0279 05       		.uleb128 .LEHE93-.LEHB93
 3514 027a 00       		.uleb128 0
 3515 027b 00       		.uleb128 0
 3516 027c DD07     		.uleb128 .LEHB94-.LFB1450
 3517 027e 1A       		.uleb128 .LEHE94-.LEHB94
 3518 027f D608     		.uleb128 .L451-.LFB1450
 3519 0281 00       		.uleb128 0
 3520 0282 F707     		.uleb128 .LEHB95-.LFB1450
 3521 0284 05       		.uleb128 .LEHE95-.LEHB95
 3522 0285 00       		.uleb128 0
 3523 0286 00       		.uleb128 0
 3524 0287 9808     		.uleb128 .LEHB96-.LFB1450
 3525 0289 39       		.uleb128 .LEHE96-.LEHB96
 3526 028a 8509     		.uleb128 .L448-.LFB1450
 3527 028c 00       		.uleb128 0
 3528 028d E108     		.uleb128 .LEHB97-.LFB1450
 3529 028f 05       		.uleb128 .LEHE97-.LEHB97
 3530 0290 00       		.uleb128 0
 3531 0291 00       		.uleb128 0
 3532 0292 E608     		.uleb128 .LEHB98-.LFB1450
 3533 0294 1A       		.uleb128 .LEHE98-.LEHB98
 3534 0295 D608     		.uleb128 .L451-.LFB1450
 3535 0297 00       		.uleb128 0
 3536              	.LLSDACSE1450:
 3537 0298 03       		.byte	0x3
 3538 0299 00       		.byte	0
 3539 029a 02       		.byte	0x2
 3540 029b 7D       		.byte	0x7d
 3541 029c 01       		.byte	0x1
 3542 029d 7D       		.byte	0x7d
 3543 029e 00       		.byte	0
 3544 029f 7D       		.byte	0x7d
 3545              		.align 4
 3546 02a0 00000000 		.long	0
 3547              	
 3548 02a4 00000000 		.long	_ZTISt9exception
 3549 02a8 00000000 		.long	_ZTIN8UnitTest15AssertExceptionE
 3550              	.LLSDATT1450:
 3551              		.text
 3553              		.section	.text.unlikely
 3554              	.LCOLDE52:
 3555              		.text
 3556              	.LHOTE52:
 3557              		.section	.rodata.str1.1
 3558              	.LC53:
 3559 00db 53756363 		.string	"SucceededTest"
 3559      65656465 
 3559      64546573 
 3559      7400
 3560              		.section	.rodata.str1.8
 3561 0283 00000000 		.align 8
 3561      00
 3562              	.LC54:
 3563 0288 3C3F786D 		.ascii	"<?xml versio"
 3563      6C207665 
 3563      7273696F 
 3564 0294 6E3D2231 		.string	"n=\"1.0\"?><unittest-results tests=\"2\" failedtests=\"1\" failures=\"1\" time=\"1.1\"><t
 3564      2E30223F 
 3564      3E3C756E 
 3564      69747465 
 3564      73742D72 
 3565              		.section	.text.unlikely
 3566              	.LCOLDB55:
 3567              		.text
 3568              	.LHOTB55:
 3569 1be3 0F1F0066 		.p2align 4,,15
 3569      2E0F1F84 
 3569      00000000 
 3569      00
 3571              	_ZN8UnitTest11ExecuteTestIN12_GLOBAL__N_151XmlTestReporterFixtureOneFailureAndOneSuccessHelperEEEvR
 3572              	.LFB1722:
 3573              		.cfi_startproc
 3574              		.cfi_personality 0x3,__gxx_personality_v0
 3575              		.cfi_lsda 0x3,.LLSDA1722
 3576 1bf0 4154     		pushq	%r12
 3577              		.cfi_def_cfa_offset 16
 3578              		.cfi_offset 12, -16
 3579 1bf2 55       		pushq	%rbp
 3580              		.cfi_def_cfa_offset 24
 3581              		.cfi_offset 6, -24
 3582 1bf3 53       		pushq	%rbx
 3583              		.cfi_def_cfa_offset 32
 3584              		.cfi_offset 3, -32
 3585 1bf4 4889F3   		movq	%rsi, %rbx
 3586 1bf7 4881EC40 		subq	$1856, %rsp
 3586      070000
 3587              		.cfi_def_cfa_offset 1888
 3588 1bfe 48893C24 		movq	%rdi, (%rsp)
 3589 1c02 48897424 		movq	%rsi, 8(%rsp)
 3589      08
 3590 1c07 64488B04 		movq	%fs:40, %rax
 3590      25280000 
 3590      00
 3591 1c10 48898424 		movq	%rax, 1848(%rsp)
 3591      38070000 
 3592 1c18 31C0     		xorl	%eax, %eax
 3593              	.LEHB99:
 3594 1c1a E8000000 		call	_ZN8UnitTest11CurrentTest7DetailsEv
 3594      00
 3595              	.LEHE99:
 3596 1c1f 488DBC24 		leaq	720(%rsp), %rdi
 3596      D0020000 
 3597 1c27 488918   		movq	%rbx, (%rax)
 3598              	.LEHB100:
 3599 1c2a E8000000 		call	_ZN8UnitTest16SignalTranslatorC1Ev
 3599      00
 3600              	.LEHE100:
 3601 1c2f 488B3D00 		movq	_ZN8UnitTest16SignalTranslator12s_jumpTargetE(%rip), %rdi
 3601      000000
 3602 1c36 BE010000 		movl	$1, %esi
 3602      00
 3603 1c3b E8000000 		call	__sigsetjmp
 3603      00
 3604 1c40 85C0     		testl	%eax, %eax
 3605 1c42 0F854801 		jne	.L561
 3605      0000
 3606 1c48 488D7C24 		leaq	80(%rsp), %rdi
 3606      50
 3607 1c4d 41B80100 		movl	$1, %r8d
 3607      0000
 3608 1c53 B9000000 		movl	$.LC42, %ecx
 3608      00
 3609 1c58 BA000000 		movl	$.LC43, %edx
 3609      00
 3610 1c5d BE000000 		movl	$.LC44, %esi
 3610      00
 3611              	.LEHB101:
 3612 1c62 E8000000 		call	_ZN8UnitTest11TestDetailsC1EPKcS2_S2_i
 3612      00
 3613 1c67 488B2C24 		movq	(%rsp), %rbp
 3614 1c6b 488D7424 		leaq	80(%rsp), %rsi
 3614      50
 3615 1c70 488D9D78 		leaq	376(%rbp), %rbx
 3615      010000
 3616 1c77 4889DF   		movq	%rbx, %rdi
 3617 1c7a E8000000 		call	_ZN8UnitTest20DeferredTestReporter15ReportTestStartERKNS_11TestDetailsE
 3617      00
 3618 1c7f 488D7424 		leaq	80(%rsp), %rsi
 3618      50
 3619 1c84 BA000000 		movl	$.LC45, %edx
 3619      00
 3620 1c89 4889DF   		movq	%rbx, %rdi
 3621 1c8c E8000000 		call	_ZN8UnitTest20DeferredTestReporter13ReportFailureERKNS_11TestDetailsEPKc
 3621      00
 3622 1c91 488D7424 		leaq	80(%rsp), %rsi
 3622      50
 3623 1c96 F30F1005 		movss	.LC47(%rip), %xmm0
 3623      00000000 
 3624 1c9e 4889DF   		movq	%rbx, %rdi
 3625 1ca1 E8000000 		call	_ZN8UnitTest20DeferredTestReporter16ReportTestFinishERKNS_11TestDetailsEf
 3625      00
 3626 1ca6 488D7C24 		leaq	112(%rsp), %rdi
 3626      70
 3627 1cab 4531C0   		xorl	%r8d, %r8d
 3628 1cae B9000000 		movl	$.LC24, %ecx
 3628      00
 3629 1cb3 BA000000 		movl	$.LC43, %edx
 3629      00
 3630 1cb8 BE000000 		movl	$.LC53, %esi
 3630      00
 3631 1cbd E8000000 		call	_ZN8UnitTest11TestDetailsC1EPKcS2_S2_i
 3631      00
 3632 1cc2 488D7424 		leaq	112(%rsp), %rsi
 3632      70
 3633 1cc7 4889DF   		movq	%rbx, %rdi
 3634 1cca E8000000 		call	_ZN8UnitTest20DeferredTestReporter15ReportTestStartERKNS_11TestDetailsE
 3634      00
 3635 1ccf 488D7424 		leaq	112(%rsp), %rsi
 3635      70
 3636 1cd4 F30F1005 		movss	.LC26(%rip), %xmm0
 3636      00000000 
 3637 1cdc 4889DF   		movq	%rbx, %rdi
 3638 1cdf E8000000 		call	_ZN8UnitTest20DeferredTestReporter16ReportTestFinishERKNS_11TestDetailsEf
 3638      00
 3639 1ce4 F30F1005 		movss	.LC48(%rip), %xmm0
 3639      00000000 
 3640 1cec B9010000 		movl	$1, %ecx
 3640      00
 3641 1cf1 BA010000 		movl	$1, %edx
 3641      00
 3642 1cf6 BE020000 		movl	$2, %esi
 3642      00
 3643 1cfb 4889DF   		movq	%rbx, %rdi
 3644 1cfe E8000000 		call	_ZN8UnitTest15XmlTestReporter13ReportSummaryEiiif
 3644      00
 3645              	.LEHE101:
 3646 1d03 48C74424 		movq	$.LC54, 24(%rsp)
 3646      18000000 
 3646      00
 3647              	.LEHB102:
 3648 1d0c E8000000 		call	_ZN8UnitTest11CurrentTest7DetailsEv
 3648      00
 3649 1d11 488B30   		movq	(%rax), %rsi
 3650 1d14 488DBC24 		leaq	144(%rsp), %rdi
 3650      90000000 
 3651 1d1c BA9C0000 		movl	$156, %edx
 3651      00
 3652 1d21 E8000000 		call	_ZN8UnitTest11TestDetailsC1ERKS0_i
 3652      00
 3653              	.LEHE102:
 3654 1d26 488B5530 		movq	48(%rbp), %rdx
 3655 1d2a 488D8424 		leaq	224(%rsp), %rax
 3655      E0000000 
 3656 1d32 48C78424 		movq	$0, 216(%rsp)
 3656      D8000000 
 3656      00000000 
 3657 1d3e C68424E0 		movb	$0, 224(%rsp)
 3657      00000000 
 3658 1d46 48898424 		movq	%rax, 208(%rsp)
 3658      D0000000 
 3659 1d4e 4885D2   		testq	%rdx, %rdx
 3660 1d51 0F84A903 		je	.L478
 3660      0000
 3661 1d57 488B5D20 		movq	32(%rbp), %rbx
 3662 1d5b 4839DA   		cmpq	%rbx, %rdx
 3663 1d5e 0F862401 		jbe	.L479
 3663      0000
 3664 1d64 488B6D28 		movq	40(%rbp), %rbp
 3665 1d68 488D8424 		leaq	288(%rsp), %rax
 3665      20010000 
 3666 1d70 48898424 		movq	%rax, 272(%rsp)
 3666      10010000 
 3667 1d78 4885ED   		testq	%rbp, %rbp
 3668 1d7b 7533     		jne	.L562
 3669 1d7d BF000000 		movl	$.LC33, %edi
 3669      00
 3670              	.LEHB103:
 3671 1d82 E8000000 		call	_ZSt19__throw_logic_errorPKc
 3671      00
 3672              	.LEHE103:
 3673 1d87 660F1F84 		.p2align 4,,10
 3673      00000000 
 3673      00
 3674              		.p2align 3
 3675              	.L561:
 3676 1d90 BF080000 		movl	$8, %edi
 3676      00
 3677 1d95 E8000000 		call	__cxa_allocate_exception
 3677      00
 3678 1d9a 31D2     		xorl	%edx, %edx
 3679 1d9c 48C70000 		movq	$.LC23, (%rax)
 3679      000000
 3680 1da3 BE000000 		movl	$_ZTIPKc, %esi
 3680      00
 3681 1da8 4889C7   		movq	%rax, %rdi
 3682              	.LEHB104:
 3683 1dab E8000000 		call	__cxa_throw
 3683      00
 3684              	.LEHE104:
 3685              		.p2align 4,,10
 3686              		.p2align 3
 3687              	.L562:
 3688 1db0 4829EA   		subq	%rbp, %rdx
 3689 1db3 4883FA0F 		cmpq	$15, %rdx
 3690 1db7 4889D3   		movq	%rdx, %rbx
 3691 1dba 48895424 		movq	%rdx, 32(%rsp)
 3691      20
 3692 1dbf 0F87AB01 		ja	.L563
 3692      0000
 3693 1dc5 4883FB01 		cmpq	$1, %rbx
 3694 1dc9 0F840103 		je	.L564
 3694      0000
 3695 1dcf 4885DB   		testq	%rbx, %rbx
 3696 1dd2 4889C2   		movq	%rax, %rdx
 3697 1dd5 0F853F03 		jne	.L565
 3697      0000
 3698              	.L484:
 3699 1ddb 488DB424 		leaq	272(%rsp), %rsi
 3699      10010000 
 3700 1de3 488DBC24 		leaq	208(%rsp), %rdi
 3700      D0000000 
 3701 1deb 48899C24 		movq	%rbx, 280(%rsp)
 3701      18010000 
 3702 1df3 C6041A00 		movb	$0, (%rdx,%rbx)
 3703              	.LEHB105:
 3704 1df7 E8000000 		call	_ZNSt7__cxx1112basic_stringIcSt11char_traitsIcESaIcEE9_M_assignERKS4_
 3704      00
 3705              	.LEHE105:
 3706 1dfc 488BBC24 		movq	272(%rsp), %rdi
 3706      10010000 
 3707 1e04 488D8424 		leaq	288(%rsp), %rax
 3707      20010000 
 3708 1e0c 4839C7   		cmpq	%rax, %rdi
 3709 1e0f 7405     		je	.L486
 3710              	.L551:
 3711 1e11 E8000000 		call	_ZdlPv
 3711      00
 3712              	.L486:
 3713              	.LEHB106:
 3714 1e16 E8000000 		call	_ZN8UnitTest11CurrentTest7ResultsEv
 3714      00
 3715 1e1b 488B38   		movq	(%rax), %rdi
 3716 1e1e 488D8C24 		leaq	144(%rsp), %rcx
 3716      90000000 
 3717 1e26 488D9424 		leaq	208(%rsp), %rdx
 3717      D0000000 
 3718 1e2e 488D7424 		leaq	24(%rsp), %rsi
 3718      18
 3719 1e33 E8000000 		call	_ZN8UnitTest10CheckEqualIPKcNSt7__cxx1112basic_stringIcSt11char_traitsIcESaIcEEEEEvRNS_11Test
 3719      00
 3720              	.LEHE106:
 3721 1e38 488BBC24 		movq	208(%rsp), %rdi
 3721      D0000000 
 3722 1e40 488D8424 		leaq	224(%rsp), %rax
 3722      E0000000 
 3723 1e48 4839C7   		cmpq	%rax, %rdi
 3724 1e4b 7405     		je	.L507
 3725 1e4d E8000000 		call	_ZdlPv
 3725      00
 3726              	.L507:
 3727 1e52 488DBC24 		leaq	720(%rsp), %rdi
 3727      D0020000 
 3728              	.LEHB107:
 3729 1e5a E8000000 		call	_ZN8UnitTest16SignalTranslatorD1Ev
 3729      00
 3730              	.LEHE107:
 3731              	.L475:
 3732 1e5f 488B8424 		movq	1848(%rsp), %rax
 3732      38070000 
 3733 1e67 64483304 		xorq	%fs:40, %rax
 3733      25280000 
 3733      00
 3734 1e70 0F85B402 		jne	.L566
 3734      0000
 3735 1e76 4881C440 		addq	$1856, %rsp
 3735      070000
 3736              		.cfi_remember_state
 3737              		.cfi_def_cfa_offset 32
 3738 1e7d 5B       		popq	%rbx
 3739              		.cfi_def_cfa_offset 24
 3740 1e7e 5D       		popq	%rbp
 3741              		.cfi_def_cfa_offset 16
 3742 1e7f 415C     		popq	%r12
 3743              		.cfi_def_cfa_offset 8
 3744 1e81 C3       		ret
 3745              		.p2align 4,,10
 3746 1e82 660F1F44 		.p2align 3
 3746      0000
 3747              	.L479:
 3748              		.cfi_restore_state
 3749 1e88 488B0424 		movq	(%rsp), %rax
 3750 1e8c 488B6828 		movq	40(%rax), %rbp
 3751 1e90 488D8424 		leaq	256(%rsp), %rax
 3751      00010000 
 3752 1e98 48898424 		movq	%rax, 240(%rsp)
 3752      F0000000 
 3753 1ea0 4885ED   		testq	%rbp, %rbp
 3754 1ea3 7513     		jne	.L490
 3755 1ea5 4885DB   		testq	%rbx, %rbx
 3756 1ea8 740E     		je	.L490
 3757 1eaa BF000000 		movl	$.LC33, %edi
 3757      00
 3758              	.LEHB108:
 3759 1eaf E8000000 		call	_ZSt19__throw_logic_errorPKc
 3759      00
 3760              	.LEHE108:
 3761              		.p2align 4,,10
 3762 1eb4 0F1F4000 		.p2align 3
 3763              	.L490:
 3764 1eb8 4829EB   		subq	%rbp, %rbx
 3765 1ebb 4883FB0F 		cmpq	$15, %rbx
 3766 1ebf 48895C24 		movq	%rbx, 40(%rsp)
 3766      28
 3767 1ec4 775A     		ja	.L567
 3768 1ec6 4883FB01 		cmpq	$1, %rbx
 3769 1eca 0F841802 		je	.L568
 3769      0000
 3770 1ed0 4885DB   		testq	%rbx, %rbx
 3771 1ed3 488D8424 		leaq	256(%rsp), %rax
 3771      00010000 
 3772 1edb 0F854102 		jne	.L569
 3772      0000
 3773              	.L493:
 3774 1ee1 488DB424 		leaq	240(%rsp), %rsi
 3774      F0000000 
 3775 1ee9 488DBC24 		leaq	208(%rsp), %rdi
 3775      D0000000 
 3776 1ef1 48899C24 		movq	%rbx, 248(%rsp)
 3776      F8000000 
 3777 1ef9 C6041800 		movb	$0, (%rax,%rbx)
 3778              	.LEHB109:
 3779 1efd E8000000 		call	_ZNSt7__cxx1112basic_stringIcSt11char_traitsIcESaIcEE9_M_assignERKS4_
 3779      00
 3780              	.LEHE109:
 3781 1f02 488BBC24 		movq	240(%rsp), %rdi
 3781      F0000000 
 3782 1f0a 488D8424 		leaq	256(%rsp), %rax
 3782      00010000 
 3783 1f12 4839C7   		cmpq	%rax, %rdi
 3784 1f15 0F85F6FE 		jne	.L551
 3784      FFFF
 3785 1f1b E9F6FEFF 		jmp	.L486
 3785      FF
 3786              		.p2align 4,,10
 3787              		.p2align 3
 3788              	.L567:
 3789 1f20 488D7424 		leaq	40(%rsp), %rsi
 3789      28
 3790 1f25 488DBC24 		leaq	240(%rsp), %rdi
 3790      F0000000 
 3791 1f2d 31D2     		xorl	%edx, %edx
 3792              	.LEHB110:
 3793 1f2f E8000000 		call	_ZNSt7__cxx1112basic_stringIcSt11char_traitsIcESaIcEE9_M_createERmm
 3793      00
 3794 1f34 4889C7   		movq	%rax, %rdi
 3795 1f37 48898424 		movq	%rax, 240(%rsp)
 3795      F0000000 
 3796 1f3f 488B4424 		movq	40(%rsp), %rax
 3796      28
 3797 1f44 48898424 		movq	%rax, 256(%rsp)
 3797      00010000 
 3798              	.L491:
 3799 1f4c 4889DA   		movq	%rbx, %rdx
 3800 1f4f 4889EE   		movq	%rbp, %rsi
 3801 1f52 E8000000 		call	memcpy
 3801      00
 3802 1f57 488B5C24 		movq	40(%rsp), %rbx
 3802      28
 3803 1f5c 488B8424 		movq	240(%rsp), %rax
 3803      F0000000 
 3804 1f64 E978FFFF 		jmp	.L493
 3804      FF
 3805 1f69 0F1F8000 		.p2align 4,,10
 3805      000000
 3806              		.p2align 3
 3807              	.L563:
 3808 1f70 488D7424 		leaq	32(%rsp), %rsi
 3808      20
 3809 1f75 488DBC24 		leaq	272(%rsp), %rdi
 3809      10010000 
 3810 1f7d 31D2     		xorl	%edx, %edx
 3811 1f7f E8000000 		call	_ZNSt7__cxx1112basic_stringIcSt11char_traitsIcESaIcEE9_M_createERmm
 3811      00
 3812              	.LEHE110:
 3813 1f84 4889C7   		movq	%rax, %rdi
 3814 1f87 48898424 		movq	%rax, 272(%rsp)
 3814      10010000 
 3815 1f8f 488B4424 		movq	32(%rsp), %rax
 3815      20
 3816 1f94 48898424 		movq	%rax, 288(%rsp)
 3816      20010000 
 3817              	.L482:
 3818 1f9c 4889DA   		movq	%rbx, %rdx
 3819 1f9f 4889EE   		movq	%rbp, %rsi
 3820 1fa2 E8000000 		call	memcpy
 3820      00
 3821 1fa7 488B5C24 		movq	32(%rsp), %rbx
 3821      20
 3822 1fac 488B9424 		movq	272(%rsp), %rdx
 3822      10010000 
 3823 1fb4 E922FEFF 		jmp	.L484
 3823      FF
 3824              	.L537:
 3825 1fb9 4889C3   		movq	%rax, %rbx
 3826 1fbc 4889D5   		movq	%rdx, %rbp
 3827              	.L514:
 3828 1fbf 488DBC24 		leaq	720(%rsp), %rdi
 3828      D0020000 
 3829 1fc7 E8000000 		call	_ZN8UnitTest16SignalTranslatorD1Ev
 3829      00
 3830 1fcc 4889DF   		movq	%rbx, %rdi
 3831 1fcf 4889EA   		movq	%rbp, %rdx
 3832              	.L515:
 3833 1fd2 4883FA01 		cmpq	$1, %rdx
 3834 1fd6 0F840002 		je	.L517
 3834      0000
 3835 1fdc 4883FA02 		cmpq	$2, %rdx
 3836 1fe0 0F85D001 		jne	.L570
 3836      0000
 3837 1fe6 E8000000 		call	__cxa_begin_catch
 3837      00
 3838 1feb 488DBC24 		leaq	304(%rsp), %rdi
 3838      30010000 
 3839 1ff3 4889C3   		movq	%rax, %rbx
 3840              	.LEHB111:
 3841 1ff6 E8000000 		call	_ZN8UnitTest15MemoryOutStreamC1Ev
 3841      00
 3842              	.LEHE111:
 3843 1ffb 488B03   		movq	(%rbx), %rax
 3844 1ffe 4889DF   		movq	%rbx, %rdi
 3845 2001 FF5010   		call	*16(%rax)
 3846 2004 488DBC24 		leaq	304(%rsp), %rdi
 3846      30010000 
 3847 200c BA150000 		movl	$21, %edx
 3847      00
 3848 2011 BE000000 		movl	$.LC31, %esi
 3848      00
 3849 2016 4889C3   		movq	%rax, %rbx
 3850              	.LEHB112:
 3851 2019 E8000000 		call	_ZSt16__ostream_insertIcSt11char_traitsIcEERSt13basic_ostreamIT_T0_ES6_PKS3_l
 3851      00
 3852 201e 488DBC24 		leaq	304(%rsp), %rdi
 3852      30010000 
 3853 2026 4889DE   		movq	%rbx, %rsi
 3854 2029 E8000000 		call	_ZStlsISt11char_traitsIcEERSt13basic_ostreamIcT_ES5_PKc
 3854      00
 3855 202e 488DBC24 		leaq	304(%rsp), %rdi
 3855      30010000 
 3856 2036 E8000000 		call	_ZNK8UnitTest15MemoryOutStream7GetTextEv
 3856      00
 3857 203b 4889C3   		movq	%rax, %rbx
 3858 203e E8000000 		call	_ZN8UnitTest11CurrentTest7ResultsEv
 3858      00
 3859 2043 488B7424 		movq	8(%rsp), %rsi
 3859      08
 3860 2048 488B38   		movq	(%rax), %rdi
 3861 204b 4889DA   		movq	%rbx, %rdx
 3862 204e E8000000 		call	_ZN8UnitTest11TestResults13OnTestFailureERKNS_11TestDetailsEPKc
 3862      00
 3863              	.LEHE112:
 3864 2053 488DBC24 		leaq	304(%rsp), %rdi
 3864      30010000 
 3865              	.LEHB113:
 3866 205b E8000000 		call	_ZN8UnitTest15MemoryOutStreamD1Ev
 3866      00
 3867              	.LEHE113:
 3868              	.L552:
 3869 2060 E8000000 		call	__cxa_end_catch
 3869      00
 3870 2065 E9F5FDFF 		jmp	.L475
 3870      FF
 3871              	.L541:
 3872              	.L556:
 3873 206a 4889C3   		movq	%rax, %rbx
 3874              	.L555:
 3875 206d 488BBC24 		movq	208(%rsp), %rdi
 3875      D0000000 
 3876 2075 488D8424 		leaq	224(%rsp), %rax
 3876      E0000000 
 3877 207d 4839C7   		cmpq	%rax, %rdi
 3878 2080 7405     		je	.L512
 3879 2082 E8000000 		call	_ZdlPv
 3879      00
 3880              	.L512:
 3881 2087 4889D8   		movq	%rbx, %rax
 3882              	.L504:
 3883 208a 4889C7   		movq	%rax, %rdi
 3884 208d E8000000 		call	__cxa_begin_catch
 3884      00
 3885              	.LEHB114:
 3886 2092 E8000000 		call	_ZN8UnitTest11CurrentTest7DetailsEv
 3886      00
 3887 2097 488B30   		movq	(%rax), %rsi
 3888 209a 488DBC24 		leaq	176(%rsp), %rdi
 3888      B0000000 
 3889 20a2 BA9C0000 		movl	$156, %edx
 3889      00
 3890 20a7 E8000000 		call	_ZN8UnitTest11TestDetailsC1ERKS0_i
 3890      00
 3891 20ac E8000000 		call	_ZN8UnitTest11CurrentTest7ResultsEv
 3891      00
 3892 20b1 488B38   		movq	(%rax), %rdi
 3893 20b4 488DB424 		leaq	176(%rsp), %rsi
 3893      B0000000 
 3894 20bc BA000000 		movl	$.LC50, %edx
 3894      00
 3895 20c1 E8000000 		call	_ZN8UnitTest11TestResults13OnTestFailureERKNS_11TestDetailsEPKc
 3895      00
 3896              	.LEHE114:
 3897              	.LEHB115:
 3898 20c6 E8000000 		call	__cxa_end_catch
 3898      00
 3899              	.LEHE115:
 3900 20cb E982FDFF 		jmp	.L507
 3900      FF
 3901              		.p2align 4,,10
 3902              		.p2align 3
 3903              	.L564:
 3904 20d0 0FB65500 		movzbl	0(%rbp), %edx
 3905 20d4 88942420 		movb	%dl, 288(%rsp)
 3905      010000
 3906 20db 4889C2   		movq	%rax, %rdx
 3907 20de E9F8FCFF 		jmp	.L484
 3907      FF
 3908              		.p2align 4,,10
 3909 20e3 0F1F4400 		.p2align 3
 3909      00
 3910              	.L568:
 3911 20e8 0FB64500 		movzbl	0(%rbp), %eax
 3912 20ec 88842400 		movb	%al, 256(%rsp)
 3912      010000
 3913 20f3 488D8424 		leaq	256(%rsp), %rax
 3913      00010000 
 3914 20fb E9E1FDFF 		jmp	.L493
 3914      FF
 3915              		.p2align 4,,10
 3916              		.p2align 3
 3917              	.L478:
 3918 2100 488B3424 		movq	(%rsp), %rsi
 3919 2104 488DBC24 		leaq	208(%rsp), %rdi
 3919      D0000000 
 3920 210c 4883C650 		addq	$80, %rsi
 3921              	.LEHB116:
 3922 2110 E8000000 		call	_ZNSt7__cxx1112basic_stringIcSt11char_traitsIcESaIcEE9_M_assignERKS4_
 3922      00
 3923              	.LEHE116:
 3924 2115 E9FCFCFF 		jmp	.L486
 3924      FF
 3925              	.L565:
 3926 211a 4889C7   		movq	%rax, %rdi
 3927 211d E97AFEFF 		jmp	.L482
 3927      FF
 3928              	.L569:
 3929 2122 4889C7   		movq	%rax, %rdi
 3930 2125 E922FEFF 		jmp	.L491
 3930      FF
 3931              	.L566:
 3932 212a E8000000 		call	__stack_chk_fail
 3932      00
 3933              	.L539:
 3934 212f E936FFFF 		jmp	.L556
 3934      FF
 3935              	.L543:
 3936 2134 488BBC24 		movq	272(%rsp), %rdi
 3936      10010000 
 3937 213c 4889C3   		movq	%rax, %rbx
 3938 213f 488D8424 		leaq	288(%rsp), %rax
 3938      20010000 
 3939 2147 4839C7   		cmpq	%rax, %rdi
 3940 214a 0F841DFF 		je	.L555
 3940      FFFF
 3941              	.L550:
 3942 2150 E8000000 		call	_ZdlPv
 3942      00
 3943 2155 E913FFFF 		jmp	.L555
 3943      FF
 3944              	.L542:
 3945 215a 488BBC24 		movq	240(%rsp), %rdi
 3945      F0000000 
 3946 2162 4889C3   		movq	%rax, %rbx
 3947 2165 488D8424 		leaq	256(%rsp), %rax
 3947      00010000 
 3948 216d 4839C7   		cmpq	%rax, %rdi
 3949 2170 75DE     		jne	.L550
 3950 2172 E9F6FEFF 		jmp	.L555
 3950      FF
 3951              	.L540:
 3952 2177 4889C3   		movq	%rax, %rbx
 3953 217a 4889D5   		movq	%rdx, %rbp
 3954 217d E8000000 		call	__cxa_end_catch
 3954      00
 3955 2182 E938FEFF 		jmp	.L514
 3955      FF
 3956              	.L538:
 3957 2187 E9FEFEFF 		jmp	.L504
 3957      FF
 3958              	.L536:
 3959 218c 4889C7   		movq	%rax, %rdi
 3960 218f E93EFEFF 		jmp	.L515
 3960      FF
 3961              	.L534:
 3962 2194 488DBC24 		leaq	304(%rsp), %rdi
 3962      30010000 
 3963 219c 4889C3   		movq	%rax, %rbx
 3964 219f E8000000 		call	_ZN8UnitTest15MemoryOutStreamD1Ev
 3964      00
 3965              	.L523:
 3966 21a4 E8000000 		call	__cxa_end_catch
 3966      00
 3967 21a9 4889DF   		movq	%rbx, %rdi
 3968              	.LEHB117:
 3969 21ac E8000000 		call	_Unwind_Resume
 3969      00
 3970              	.LEHE117:
 3971              	.L533:
 3972              	.L553:
 3973 21b1 4889C3   		movq	%rax, %rbx
 3974 21b4 EBEE     		jmp	.L523
 3975              	.L570:
 3976 21b6 E8000000 		call	__cxa_begin_catch
 3976      00
 3977              	.LEHB118:
 3978 21bb E8000000 		call	_ZN8UnitTest11CurrentTest7ResultsEv
 3978      00
 3979 21c0 488B7424 		movq	8(%rsp), %rsi
 3979      08
 3980 21c5 488B38   		movq	(%rax), %rdi
 3981 21c8 BA000000 		movl	$.LC32, %edx
 3981      00
 3982 21cd E8000000 		call	_ZN8UnitTest11TestResults13OnTestFailureERKNS_11TestDetailsEPKc
 3982      00
 3983              	.LEHE118:
 3984              	.LEHB119:
 3985 21d2 E8000000 		call	__cxa_end_catch
 3985      00
 3986              	.LEHE119:
 3987 21d7 E983FCFF 		jmp	.L475
 3987      FF
 3988              	.L517:
 3989 21dc E8000000 		call	__cxa_begin_catch
 3989      00
 3990 21e1 4889C3   		movq	%rax, %rbx
 3991 21e4 488B00   		movq	(%rax), %rax
 3992 21e7 4889DF   		movq	%rbx, %rdi
 3993 21ea FF5010   		call	*16(%rax)
 3994 21ed 4889DF   		movq	%rbx, %rdi
 3995 21f0 4889C5   		movq	%rax, %rbp
 3996              	.LEHB120:
 3997 21f3 E8000000 		call	_ZNK8UnitTest15AssertException10LineNumberEv
 3997      00
 3998 21f8 4889DF   		movq	%rbx, %rdi
 3999 21fb 4189C4   		movl	%eax, %r12d
 4000 21fe E8000000 		call	_ZNK8UnitTest15AssertException8FilenameEv
 4000      00
 4001 2203 488B5424 		movq	8(%rsp), %rdx
 4001      08
 4002 2208 488D7C24 		leaq	48(%rsp), %rdi
 4002      30
 4003 220d 4589E0   		movl	%r12d, %r8d
 4004 2210 4889C1   		movq	%rax, %rcx
 4005 2213 488B7208 		movq	8(%rdx), %rsi
 4006 2217 488B12   		movq	(%rdx), %rdx
 4007 221a E8000000 		call	_ZN8UnitTest11TestDetailsC1EPKcS2_S2_i
 4007      00
 4008 221f E8000000 		call	_ZN8UnitTest11CurrentTest7ResultsEv
 4008      00
 4009 2224 488B38   		movq	(%rax), %rdi
 4010 2227 488D7424 		leaq	48(%rsp), %rsi
 4010      30
 4011 222c 4889EA   		movq	%rbp, %rdx
 4012 222f E8000000 		call	_ZN8UnitTest11TestResults13OnTestFailureERKNS_11TestDetailsEPKc
 4012      00
 4013              	.LEHE120:
 4014 2234 E927FEFF 		jmp	.L552
 4014      FF
 4015              	.L532:
 4016 2239 4889C3   		movq	%rax, %rbx
 4017 223c E8000000 		call	__cxa_end_catch
 4017      00
 4018 2241 4889DF   		movq	%rbx, %rdi
 4019              	.LEHB121:
 4020 2244 E8000000 		call	_Unwind_Resume
 4020      00
 4021              	.LEHE121:
 4022              	.L535:
 4023 2249 E963FFFF 		jmp	.L553
 4023      FF
 4024              		.cfi_endproc
 4025              	.LFE1722:
 4026              		.section	.gcc_except_table
 4027              		.align 4
 4028              	.LLSDA1722:
 4029 02ac FF       		.byte	0xff
 4030 02ad 03       		.byte	0x3
 4031 02ae 9C01     		.uleb128 .LLSDATT1722-.LLSDATTD1722
 4032              	.LLSDATTD1722:
 4033 02b0 01       		.byte	0x1
 4034 02b1 8401     		.uleb128 .LLSDACSE1722-.LLSDACSB1722
 4035              	.LLSDACSB1722:
 4036 02b3 2A       		.uleb128 .LEHB99-.LFB1722
 4037 02b4 05       		.uleb128 .LEHE99-.LEHB99
 4038 02b5 00       		.uleb128 0
 4039 02b6 00       		.uleb128 0
 4040 02b7 3A       		.uleb128 .LEHB100-.LFB1722
 4041 02b8 05       		.uleb128 .LEHE100-.LEHB100
 4042 02b9 9C0B     		.uleb128 .L536-.LFB1722
 4043 02bb 05       		.uleb128 0x5
 4044 02bc 72       		.uleb128 .LEHB101-.LFB1722
 4045 02bd A101     		.uleb128 .LEHE101-.LEHB101
 4046 02bf C907     		.uleb128 .L537-.LFB1722
 4047 02c1 07       		.uleb128 0x7
 4048 02c2 9C02     		.uleb128 .LEHB102-.LFB1722
 4049 02c4 1A       		.uleb128 .LEHE102-.LEHB102
 4050 02c5 970B     		.uleb128 .L538-.LFB1722
 4051 02c7 01       		.uleb128 0x1
 4052 02c8 9203     		.uleb128 .LEHB103-.LFB1722
 4053 02ca 05       		.uleb128 .LEHE103-.LEHB103
 4054 02cb FA08     		.uleb128 .L541-.LFB1722
 4055 02cd 01       		.uleb128 0x1
 4056 02ce BB03     		.uleb128 .LEHB104-.LFB1722
 4057 02d0 05       		.uleb128 .LEHE104-.LEHB104
 4058 02d1 C907     		.uleb128 .L537-.LFB1722
 4059 02d3 07       		.uleb128 0x7
 4060 02d4 8704     		.uleb128 .LEHB105-.LFB1722
 4061 02d6 05       		.uleb128 .LEHE105-.LEHB105
 4062 02d7 C40A     		.uleb128 .L543-.LFB1722
 4063 02d9 01       		.uleb128 0x1
 4064 02da A604     		.uleb128 .LEHB106-.LFB1722
 4065 02dc 22       		.uleb128 .LEHE106-.LEHB106
 4066 02dd BF0A     		.uleb128 .L539-.LFB1722
 4067 02df 01       		.uleb128 0x1
 4068 02e0 EA04     		.uleb128 .LEHB107-.LFB1722
 4069 02e2 05       		.uleb128 .LEHE107-.LEHB107
 4070 02e3 9C0B     		.uleb128 .L536-.LFB1722
 4071 02e5 05       		.uleb128 0x5
 4072 02e6 BF05     		.uleb128 .LEHB108-.LFB1722
 4073 02e8 05       		.uleb128 .LEHE108-.LEHB108
 4074 02e9 FA08     		.uleb128 .L541-.LFB1722
 4075 02eb 01       		.uleb128 0x1
 4076 02ec 8D06     		.uleb128 .LEHB109-.LFB1722
 4077 02ee 05       		.uleb128 .LEHE109-.LEHB109
 4078 02ef EA0A     		.uleb128 .L542-.LFB1722
 4079 02f1 01       		.uleb128 0x1
 4080 02f2 BF06     		.uleb128 .LEHB110-.LFB1722
 4081 02f4 55       		.uleb128 .LEHE110-.LEHB110
 4082 02f5 FA08     		.uleb128 .L541-.LFB1722
 4083 02f7 01       		.uleb128 0x1
 4084 02f8 8608     		.uleb128 .LEHB111-.LFB1722
 4085 02fa 05       		.uleb128 .LEHE111-.LEHB111
 4086 02fb C10B     		.uleb128 .L533-.LFB1722
 4087 02fd 00       		.uleb128 0
 4088 02fe A908     		.uleb128 .LEHB112-.LFB1722
 4089 0300 3A       		.uleb128 .LEHE112-.LEHB112
 4090 0301 A40B     		.uleb128 .L534-.LFB1722
 4091 0303 00       		.uleb128 0
 4092 0304 EB08     		.uleb128 .LEHB113-.LFB1722
 4093 0306 05       		.uleb128 .LEHE113-.LEHB113
 4094 0307 C10B     		.uleb128 .L533-.LFB1722
 4095 0309 00       		.uleb128 0
 4096 030a A209     		.uleb128 .LEHB114-.LFB1722
 4097 030c 34       		.uleb128 .LEHE114-.LEHB114
 4098 030d 870B     		.uleb128 .L540-.LFB1722
 4099 030f 07       		.uleb128 0x7
 4100 0310 D609     		.uleb128 .LEHB115-.LFB1722
 4101 0312 05       		.uleb128 .LEHE115-.LEHB115
 4102 0313 C907     		.uleb128 .L537-.LFB1722
 4103 0315 07       		.uleb128 0x7
 4104 0316 A00A     		.uleb128 .LEHB116-.LFB1722
 4105 0318 05       		.uleb128 .LEHE116-.LEHB116
 4106 0319 FA08     		.uleb128 .L541-.LFB1722
 4107 031b 01       		.uleb128 0x1
 4108 031c BC0B     		.uleb128 .LEHB117-.LFB1722
 4109 031e 05       		.uleb128 .LEHE117-.LEHB117
 4110 031f 00       		.uleb128 0
 4111 0320 00       		.uleb128 0
 4112 0321 CB0B     		.uleb128 .LEHB118-.LFB1722
 4113 0323 17       		.uleb128 .LEHE118-.LEHB118
 4114 0324 C90C     		.uleb128 .L532-.LFB1722
 4115 0326 00       		.uleb128 0
 4116 0327 E20B     		.uleb128 .LEHB119-.LFB1722
 4117 0329 05       		.uleb128 .LEHE119-.LEHB119
 4118 032a 00       		.uleb128 0
 4119 032b 00       		.uleb128 0
 4120 032c 830C     		.uleb128 .LEHB120-.LFB1722
 4121 032e 41       		.uleb128 .LEHE120-.LEHB120
 4122 032f D90C     		.uleb128 .L535-.LFB1722
 4123 0331 00       		.uleb128 0
 4124 0332 D40C     		.uleb128 .LEHB121-.LFB1722
 4125 0334 05       		.uleb128 .LEHE121-.LEHB121
 4126 0335 00       		.uleb128 0
 4127 0336 00       		.uleb128 0
 4128              	.LLSDACSE1722:
 4129 0337 03       		.byte	0x3
 4130 0338 00       		.byte	0
 4131 0339 02       		.byte	0x2
 4132 033a 7D       		.byte	0x7d
 4133 033b 01       		.byte	0x1
 4134 033c 7D       		.byte	0x7d
 4135 033d 00       		.byte	0
 4136 033e 7D       		.byte	0x7d
 4137 033f 00       		.align 4
 4138 0340 00000000 		.long	0
 4139              	
 4140 0344 00000000 		.long	_ZTISt9exception
 4141 0348 00000000 		.long	_ZTIN8UnitTest15AssertExceptionE
 4142              	.LLSDATT1722:
 4143              		.text
 4145              		.section	.text.unlikely
 4146              	.LCOLDE55:
 4147              		.text
 4148              	.LHOTE55:
 4149              		.section	.text.unlikely
 4150              		.align 2
 4151              	.LCOLDB56:
 4152              		.text
 4153              	.LHOTB56:
 4154              		.align 2
 4155 224e 6690     		.p2align 4,,15
 4157              	_ZNK12_GLOBAL__N_149TestXmlTestReporterFixtureOneFailureAndOneSuccess7RunImplEv:
 4158              	.LFB1439:
 4159              		.cfi_startproc
 4160              		.cfi_personality 0x3,__gxx_personality_v0
 4161              		.cfi_lsda 0x3,.LLSDA1439
 4162 2250 4157     		pushq	%r15
 4163              		.cfi_def_cfa_offset 16
 4164              		.cfi_offset 15, -16
 4165 2252 4156     		pushq	%r14
 4166              		.cfi_def_cfa_offset 24
 4167              		.cfi_offset 14, -24
 4168 2254 4989FF   		movq	%rdi, %r15
 4169 2257 4155     		pushq	%r13
 4170              		.cfi_def_cfa_offset 32
 4171              		.cfi_offset 13, -32
 4172 2259 4154     		pushq	%r12
 4173              		.cfi_def_cfa_offset 40
 4174              		.cfi_offset 12, -40
 4175 225b 4C8D7708 		leaq	8(%rdi), %r14
 4176 225f 55       		pushq	%rbp
 4177              		.cfi_def_cfa_offset 48
 4178              		.cfi_offset 6, -48
 4179 2260 53       		pushq	%rbx
 4180              		.cfi_def_cfa_offset 56
 4181              		.cfi_offset 3, -56
 4182 2261 4881ECD8 		subq	$472, %rsp
 4182      010000
 4183              		.cfi_def_cfa_offset 528
 4184 2268 488DBC24 		leaq	144(%rsp), %rdi
 4184      90000000 
 4185 2270 64488B04 		movq	%fs:40, %rax
 4185      25280000 
 4185      00
 4186 2279 48898424 		movq	%rax, 456(%rsp)
 4186      C8010000 
 4187 2281 31C0     		xorl	%eax, %eax
 4188 2283 E8000000 		call	_ZNSt8ios_baseC2Ev
 4188      00
 4189 2288 488B0500 		movq	_ZTTNSt7__cxx1119basic_ostringstreamIcSt11char_traitsIcESaIcEEE+8(%rip), %rax
 4189      000000
 4190 228f C6842470 		movb	$0, 368(%rsp)
 4190      01000000 
 4191 2297 488D7C24 		leaq	32(%rsp), %rdi
 4191      20
 4192 229c 48C78424 		movq	$_ZTVSt9basic_iosIcSt11char_traitsIcEE+16, 144(%rsp)
 4192      90000000 
 4192      00000000 
 4193 22a8 48C78424 		movq	$0, 360(%rsp)
 4193      68010000 
 4193      00000000 
 4194 22b4 31F6     		xorl	%esi, %esi
 4195 22b6 C6842471 		movb	$0, 369(%rsp)
 4195      01000000 
 4196 22be 48C78424 		movq	$0, 376(%rsp)
 4196      78010000 
 4196      00000000 
 4197 22ca 480378E8 		addq	-24(%rax), %rdi
 4198 22ce 48894424 		movq	%rax, 32(%rsp)
 4198      20
 4199 22d3 488B0500 		movq	_ZTTNSt7__cxx1119basic_ostringstreamIcSt11char_traitsIcESaIcEEE+16(%rip), %rax
 4199      000000
 4200 22da 48C78424 		movq	$0, 384(%rsp)
 4200      80010000 
 4200      00000000 
 4201 22e6 48C78424 		movq	$0, 392(%rsp)
 4201      88010000 
 4201      00000000 
 4202 22f2 48C78424 		movq	$0, 400(%rsp)
 4202      90010000 
 4202      00000000 
 4203 22fe 488907   		movq	%rax, (%rdi)
 4204              	.LEHB122:
 4205 2301 E8000000 		call	_ZNSt9basic_iosIcSt11char_traitsIcEE4initEPSt15basic_streambufIcS1_E
 4205      00
 4206              	.LEHE122:
 4207 2306 488D7C24 		leaq	96(%rsp), %rdi
 4207      60
 4208 230b 48C74424 		movq	$_ZTVNSt7__cxx1119basic_ostringstreamIcSt11char_traitsIcESaIcEEE+24, 32(%rsp)
 4208      20000000 
 4208      00
 4209 2314 48C78424 		movq	$_ZTVNSt7__cxx1119basic_ostringstreamIcSt11char_traitsIcESaIcEEE+64, 144(%rsp)
 4209      90000000 
 4209      00000000 
 4210 2320 48C74424 		movq	$_ZTVSt15basic_streambufIcSt11char_traitsIcEE+16, 40(%rsp)
 4210      28000000 
 4210      00
 4211 2329 48C74424 		movq	$0, 48(%rsp)
 4211      30000000 
 4211      00
 4212 2332 48C74424 		movq	$0, 56(%rsp)
 4212      38000000 
 4212      00
 4213 233b 48C74424 		movq	$0, 64(%rsp)
 4213      40000000 
 4213      00
 4214 2344 48C74424 		movq	$0, 72(%rsp)
 4214      48000000 
 4214      00
 4215 234d 48C74424 		movq	$0, 80(%rsp)
 4215      50000000 
 4215      00
 4216 2356 48C74424 		movq	$0, 88(%rsp)
 4216      58000000 
 4216      00
 4217 235f E8000000 		call	_ZNSt6localeC1Ev
 4217      00
 4218 2364 488D8424 		leaq	128(%rsp), %rax
 4218      80000000 
 4219 236c 488D7424 		leaq	40(%rsp), %rsi
 4219      28
 4220 2371 48C74424 		movq	$_ZTVNSt7__cxx1115basic_stringbufIcSt11char_traitsIcESaIcEEE+16, 40(%rsp)
 4220      28000000 
 4220      00
 4221 237a C7442468 		movl	$16, 104(%rsp)
 4221      10000000 
 4222 2382 48C74424 		movq	$0, 120(%rsp)
 4222      78000000 
 4222      00
 4223 238b 48894424 		movq	%rax, 112(%rsp)
 4223      70
 4224 2390 488D4424 		leaq	32(%rsp), %rax
 4224      20
 4225 2395 C6842480 		movb	$0, 128(%rsp)
 4225      00000000 
 4226 239d 488D7870 		leaq	112(%rax), %rdi
 4227              	.LEHB123:
 4228 23a1 E8000000 		call	_ZNSt9basic_iosIcSt11char_traitsIcEE4initEPSt15basic_streambufIcS1_E
 4228      00
 4229              	.LEHE123:
 4230 23a6 488D4424 		leaq	32(%rsp), %rax
 4230      20
 4231 23ab 488DBC24 		leaq	408(%rsp), %rdi
 4231      98010000 
 4232 23b3 4889C6   		movq	%rax, %rsi
 4233              	.LEHB124:
 4234 23b6 E8000000 		call	_ZN8UnitTest15XmlTestReporterC1ERSo
 4234      00
 4235              	.LEHE124:
 4236 23bb 488D7C24 		leaq	32(%rsp), %rdi
 4236      20
 4237 23c0 4C89F6   		movq	%r14, %rsi
 4238 23c3 4C89B424 		movq	%r14, 448(%rsp)
 4238      C0010000 
 4239              	.LEHB125:
 4240 23cb E820F8FF 		call	_ZN8UnitTest11ExecuteTestIN12_GLOBAL__N_151XmlTestReporterFixtureOneFailureAndOneSuccessHelpe
 4240      FF
 4241              	.LEHE125:
 4242 23d0 4C8BA424 		movq	424(%rsp), %r12
 4242      A8010000 
 4243 23d8 488BAC24 		movq	416(%rsp), %rbp
 4243      A0010000 
 4244 23e0 48C78424 		movq	$_ZTVN8UnitTest20DeferredTestReporterE+16, 408(%rsp)
 4244      98010000 
 4244      00000000 
 4245 23ec 4939EC   		cmpq	%rbp, %r12
 4246 23ef 0F848600 		je	.L578
 4246      0000
 4247              		.p2align 4,,10
 4248 23f5 0F1F00   		.p2align 3
 4249              	.L586:
 4250 23f8 488B5D68 		movq	104(%rbp), %rbx
 4251 23fc 4C8B6D60 		movq	96(%rbp), %r13
 4252 2400 4C39EB   		cmpq	%r13, %rbx
 4253 2403 7422     		je	.L579
 4254              		.p2align 4,,10
 4255 2405 0F1F00   		.p2align 3
 4256              	.L581:
 4257 2408 498B7D08 		movq	8(%r13), %rdi
 4258 240c 498D5518 		leaq	24(%r13), %rdx
 4259 2410 4839D7   		cmpq	%rdx, %rdi
 4260 2413 7405     		je	.L580
 4261 2415 E8000000 		call	_ZdlPv
 4261      00
 4262              	.L580:
 4263 241a 4983C528 		addq	$40, %r13
 4264 241e 4C39EB   		cmpq	%r13, %rbx
 4265 2421 75E5     		jne	.L581
 4266 2423 488B5D60 		movq	96(%rbp), %rbx
 4267              	.L579:
 4268 2427 4885DB   		testq	%rbx, %rbx
 4269 242a 7408     		je	.L582
 4270 242c 4889DF   		movq	%rbx, %rdi
 4271 242f E8000000 		call	_ZdlPv
 4271      00
 4272              	.L582:
 4273 2434 488B7D40 		movq	64(%rbp), %rdi
 4274 2438 488D4550 		leaq	80(%rbp), %rax
 4275 243c 4839C7   		cmpq	%rax, %rdi
 4276 243f 7405     		je	.L583
 4277 2441 E8000000 		call	_ZdlPv
 4277      00
 4278              	.L583:
 4279 2446 488B7D20 		movq	32(%rbp), %rdi
 4280 244a 488D4530 		leaq	48(%rbp), %rax
 4281 244e 4839C7   		cmpq	%rax, %rdi
 4282 2451 7405     		je	.L584
 4283 2453 E8000000 		call	_ZdlPv
 4283      00
 4284              	.L584:
 4285 2458 488B7D00 		movq	0(%rbp), %rdi
 4286 245c 488D4510 		leaq	16(%rbp), %rax
 4287 2460 4839C7   		cmpq	%rax, %rdi
 4288 2463 7405     		je	.L585
 4289 2465 E8000000 		call	_ZdlPv
 4289      00
 4290              	.L585:
 4291 246a 4883ED80 		subq	$-128, %rbp
 4292 246e 4939EC   		cmpq	%rbp, %r12
 4293 2471 7585     		jne	.L586
 4294 2473 4C8BA424 		movq	416(%rsp), %r12
 4294      A0010000 
 4295              	.L578:
 4296 247b 4D85E4   		testq	%r12, %r12
 4297 247e 7408     		je	.L587
 4298 2480 4C89E7   		movq	%r12, %rdi
 4299 2483 E8000000 		call	_ZdlPv
 4299      00
 4300              	.L587:
 4301 2488 488DBC24 		leaq	408(%rsp), %rdi
 4301      98010000 
 4302              	.LEHB126:
 4303 2490 E8000000 		call	_ZN8UnitTest12TestReporterD2Ev
 4303      00
 4304              	.LEHE126:
 4305 2495 488B7C24 		movq	112(%rsp), %rdi
 4305      70
 4306 249a 488D8424 		leaq	128(%rsp), %rax
 4306      80000000 
 4307 24a2 48C74424 		movq	$_ZTVNSt7__cxx1119basic_ostringstreamIcSt11char_traitsIcESaIcEEE+24, 32(%rsp)
 4307      20000000 
 4307      00
 4308 24ab 48C78424 		movq	$_ZTVNSt7__cxx1119basic_ostringstreamIcSt11char_traitsIcESaIcEEE+64, 144(%rsp)
 4308      90000000 
 4308      00000000 
 4309 24b7 48C74424 		movq	$_ZTVNSt7__cxx1115basic_stringbufIcSt11char_traitsIcESaIcEEE+16, 40(%rsp)
 4309      28000000 
 4309      00
 4310 24c0 4839C7   		cmpq	%rax, %rdi
 4311 24c3 7405     		je	.L588
 4312 24c5 E8000000 		call	_ZdlPv
 4312      00
 4313              	.L588:
 4314 24ca 488D7C24 		leaq	96(%rsp), %rdi
 4314      60
 4315 24cf 48C74424 		movq	$_ZTVSt15basic_streambufIcSt11char_traitsIcEE+16, 40(%rsp)
 4315      28000000 
 4315      00
 4316 24d8 E8000000 		call	_ZNSt6localeD1Ev
 4316      00
 4317 24dd 488B0500 		movq	_ZTTNSt7__cxx1119basic_ostringstreamIcSt11char_traitsIcESaIcEEE+8(%rip), %rax
 4317      000000
 4318 24e4 488B0D00 		movq	_ZTTNSt7__cxx1119basic_ostringstreamIcSt11char_traitsIcESaIcEEE+16(%rip), %rcx
 4318      000000
 4319 24eb 488DBC24 		leaq	144(%rsp), %rdi
 4319      90000000 
 4320 24f3 488B40E8 		movq	-24(%rax), %rax
 4321 24f7 48894C04 		movq	%rcx, 32(%rsp,%rax)
 4321      20
 4322 24fc 48C78424 		movq	$_ZTVSt9basic_iosIcSt11char_traitsIcEE+16, 144(%rsp)
 4322      90000000 
 4322      00000000 
 4323              	.LEHB127:
 4324 2508 E8000000 		call	_ZNSt8ios_baseD2Ev
 4324      00
 4325              	.LEHE127:
 4326              	.L571:
 4327 250d 488B8424 		movq	456(%rsp), %rax
 4327      C8010000 
 4328 2515 64483304 		xorq	%fs:40, %rax
 4328      25280000 
 4328      00
 4329 251e 0F85C000 		jne	.L631
 4329      0000
 4330 2524 4881C4D8 		addq	$472, %rsp
 4330      010000
 4331              		.cfi_remember_state
 4332              		.cfi_def_cfa_offset 56
 4333 252b 5B       		popq	%rbx
 4334              		.cfi_def_cfa_offset 48
 4335 252c 5D       		popq	%rbp
 4336              		.cfi_def_cfa_offset 40
 4337 252d 415C     		popq	%r12
 4338              		.cfi_def_cfa_offset 32
 4339 252f 415D     		popq	%r13
 4340              		.cfi_def_cfa_offset 24
 4341 2531 415E     		popq	%r14
 4342              		.cfi_def_cfa_offset 16
 4343 2533 415F     		popq	%r15
 4344              		.cfi_def_cfa_offset 8
 4345 2535 C3       		ret
 4346              	.L611:
 4347              		.cfi_restore_state
 4348 2536 4889C3   		movq	%rax, %rbx
 4349 2539 4889D5   		movq	%rdx, %rbp
 4350              	.L574:
 4351 253c 488DBC24 		leaq	144(%rsp), %rdi
 4351      90000000 
 4352 2544 48C78424 		movq	$_ZTVSt9basic_iosIcSt11char_traitsIcEE+16, 144(%rsp)
 4352      90000000 
 4352      00000000 
 4353 2550 E8000000 		call	_ZNSt8ios_baseD2Ev
 4353      00
 4354 2555 4889DF   		movq	%rbx, %rdi
 4355 2558 4889EA   		movq	%rbp, %rdx
 4356 255b 31DB     		xorl	%ebx, %ebx
 4357              	.L575:
 4358 255d 4883FA01 		cmpq	$1, %rdx
 4359 2561 0F84EA00 		je	.L595
 4359      0000
 4360 2567 4883FA02 		cmpq	$2, %rdx
 4361 256b 0F85A400 		jne	.L632
 4361      0000
 4362 2571 E8000000 		call	__cxa_begin_catch
 4362      00
 4363 2576 488D7C24 		leaq	32(%rsp), %rdi
 4363      20
 4364 257b 4889C3   		movq	%rax, %rbx
 4365              	.LEHB128:
 4366 257e E8000000 		call	_ZN8UnitTest15MemoryOutStreamC1Ev
 4366      00
 4367              	.LEHE128:
 4368 2583 488B03   		movq	(%rbx), %rax
 4369 2586 4889DF   		movq	%rbx, %rdi
 4370 2589 FF5010   		call	*16(%rax)
 4371 258c 488D7C24 		leaq	32(%rsp), %rdi
 4371      20
 4372 2591 BA150000 		movl	$21, %edx
 4372      00
 4373 2596 BE000000 		movl	$.LC31, %esi
 4373      00
 4374 259b 4889C3   		movq	%rax, %rbx
 4375              	.LEHB129:
 4376 259e E8000000 		call	_ZSt16__ostream_insertIcSt11char_traitsIcEERSt13basic_ostreamIT_T0_ES6_PKS3_l
 4376      00
 4377 25a3 488D7C24 		leaq	32(%rsp), %rdi
 4377      20
 4378 25a8 4889DE   		movq	%rbx, %rsi
 4379 25ab E8000000 		call	_ZStlsISt11char_traitsIcEERSt13basic_ostreamIcT_ES5_PKc
 4379      00
 4380 25b0 488D7C24 		leaq	32(%rsp), %rdi
 4380      20
 4381 25b5 E8000000 		call	_ZNK8UnitTest15MemoryOutStream7GetTextEv
 4381      00
 4382 25ba 4889C3   		movq	%rax, %rbx
 4383 25bd E8000000 		call	_ZN8UnitTest11CurrentTest7ResultsEv
 4383      00
 4384 25c2 488B38   		movq	(%rax), %rdi
 4385 25c5 4889DA   		movq	%rbx, %rdx
 4386 25c8 4C89F6   		movq	%r14, %rsi
 4387 25cb E8000000 		call	_ZN8UnitTest11TestResults13OnTestFailureERKNS_11TestDetailsEPKc
 4387      00
 4388              	.LEHE129:
 4389 25d0 488D7C24 		leaq	32(%rsp), %rdi
 4389      20
 4390              	.LEHB130:
 4391 25d5 E8000000 		call	_ZN8UnitTest15MemoryOutStreamD1Ev
 4391      00
 4392              	.LEHE130:
 4393              	.L626:
 4394 25da E8000000 		call	__cxa_end_catch
 4394      00
 4395 25df E929FFFF 		jmp	.L571
 4395      FF
 4396              	.L631:
 4397 25e4 E8000000 		call	__stack_chk_fail
 4397      00
 4398              	.L604:
 4399 25e9 4889C7   		movq	%rax, %rdi
 4400 25ec BB010000 		movl	$1, %ebx
 4400      00
 4401 25f1 E967FFFF 		jmp	.L575
 4401      FF
 4402              	.L608:
 4403 25f6 488D7C24 		leaq	32(%rsp), %rdi
 4403      20
 4404 25fb 4889C3   		movq	%rax, %rbx
 4405 25fe E8000000 		call	_ZN8UnitTest15MemoryOutStreamD1Ev
 4405      00
 4406              	.L601:
 4407 2603 E8000000 		call	__cxa_end_catch
 4407      00
 4408 2608 4889DF   		movq	%rbx, %rdi
 4409              	.LEHB131:
 4410 260b E8000000 		call	_Unwind_Resume
 4410      00
 4411              	.LEHE131:
 4412              	.L607:
 4413              	.L627:
 4414 2610 4889C3   		movq	%rax, %rbx
 4415 2613 EBEE     		jmp	.L601
 4416              	.L632:
 4417 2615 E8000000 		call	__cxa_begin_catch
 4417      00
 4418 261a 84DB     		testb	%bl, %bl
 4419 261c BA870000 		movl	$135, %edx
 4419      00
 4420 2621 4C89F6   		movq	%r14, %rsi
 4421 2624 4889E7   		movq	%rsp, %rdi
 4422 2627 0F848900 		je	.L597
 4422      0000
 4423              	.LEHB132:
 4424 262d E8000000 		call	_ZN8UnitTest11TestDetailsC1ERKS0_i
 4424      00
 4425 2632 E8000000 		call	_ZN8UnitTest11CurrentTest7ResultsEv
 4425      00
 4426 2637 488B38   		movq	(%rax), %rdi
 4427 263a BA000000 		movl	$.LC35, %edx
 4427      00
 4428 263f 4889E6   		movq	%rsp, %rsi
 4429 2642 E8000000 		call	_ZN8UnitTest11TestResults13OnTestFailureERKNS_11TestDetailsEPKc
 4429      00
 4430              	.LEHE132:
 4431              	.L598:
 4432              	.LEHB133:
 4433 2647 E8000000 		call	__cxa_end_catch
 4433      00
 4434              	.LEHE133:
 4435 264c E9BCFEFF 		jmp	.L571
 4435      FF
 4436              	.L595:
 4437 2651 E8000000 		call	__cxa_begin_catch
 4437      00
 4438 2656 4889C3   		movq	%rax, %rbx
 4439 2659 488B00   		movq	(%rax), %rax
 4440 265c 4889DF   		movq	%rbx, %rdi
 4441 265f FF5010   		call	*16(%rax)
 4442 2662 4889DF   		movq	%rbx, %rdi
 4443 2665 4889C5   		movq	%rax, %rbp
 4444              	.LEHB134:
 4445 2668 E8000000 		call	_ZNK8UnitTest15AssertException10LineNumberEv
 4445      00
 4446 266d 4889DF   		movq	%rbx, %rdi
 4447 2670 4189C4   		movl	%eax, %r12d
 4448 2673 E8000000 		call	_ZNK8UnitTest15AssertException8FilenameEv
 4448      00
 4449 2678 498B5708 		movq	8(%r15), %rdx
 4450 267c 498B7710 		movq	16(%r15), %rsi
 4451 2680 4589E0   		movl	%r12d, %r8d
 4452 2683 4889C1   		movq	%rax, %rcx
 4453 2686 4889E7   		movq	%rsp, %rdi
 4454 2689 E8000000 		call	_ZN8UnitTest11TestDetailsC1EPKcS2_S2_i
 4454      00
 4455 268e E8000000 		call	_ZN8UnitTest11CurrentTest7ResultsEv
 4455      00
 4456 2693 488B38   		movq	(%rax), %rdi
 4457 2696 4889EA   		movq	%rbp, %rdx
 4458 2699 4889E6   		movq	%rsp, %rsi
 4459 269c E8000000 		call	_ZN8UnitTest11TestResults13OnTestFailureERKNS_11TestDetailsEPKc
 4459      00
 4460              	.LEHE134:
 4461 26a1 E934FFFF 		jmp	.L626
 4461      FF
 4462              	.L609:
 4463 26a6 4889C3   		movq	%rax, %rbx
 4464 26a9 E8000000 		call	__cxa_end_catch
 4464      00
 4465 26ae 4889DF   		movq	%rbx, %rdi
 4466              	.LEHB135:
 4467 26b1 E8000000 		call	_Unwind_Resume
 4467      00
 4468              	.LEHE135:
 4469              	.L597:
 4470              	.LEHB136:
 4471 26b6 E8000000 		call	_ZN8UnitTest11TestDetailsC1ERKS0_i
 4471      00
 4472 26bb E8000000 		call	_ZN8UnitTest11CurrentTest7ResultsEv
 4472      00
 4473 26c0 488B38   		movq	(%rax), %rdi
 4474 26c3 BA000000 		movl	$.LC36, %edx
 4474      00
 4475 26c8 4889E6   		movq	%rsp, %rsi
 4476 26cb E8000000 		call	_ZN8UnitTest11TestResults13OnTestFailureERKNS_11TestDetailsEPKc
 4476      00
 4477              	.LEHE136:
 4478 26d0 E972FFFF 		jmp	.L598
 4478      FF
 4479              	.L606:
 4480 26d5 E936FFFF 		jmp	.L627
 4480      FF
 4481              	.L613:
 4482 26da 488D7C24 		leaq	32(%rsp), %rdi
 4482      20
 4483 26df 4889C3   		movq	%rax, %rbx
 4484 26e2 4889D5   		movq	%rdx, %rbp
 4485 26e5 E8000000 		call	_ZNSt7__cxx1119basic_ostringstreamIcSt11char_traitsIcESaIcEED1Ev
 4485      00
 4486 26ea 4889DF   		movq	%rbx, %rdi
 4487 26ed 4889EA   		movq	%rbp, %rdx
 4488 26f0 BB010000 		movl	$1, %ebx
 4488      00
 4489 26f5 E963FEFF 		jmp	.L575
 4489      FF
 4490              	.L605:
 4491 26fa 488D7C24 		leaq	32(%rsp), %rdi
 4491      20
 4492 26ff 4889C3   		movq	%rax, %rbx
 4493 2702 4889D5   		movq	%rdx, %rbp
 4494 2705 E8000000 		call	_ZN12_GLOBAL__N_122XmlTestReporterFixtureD2Ev.constprop.46
 4494      00
 4495 270a 4889DF   		movq	%rbx, %rdi
 4496 270d 4889EA   		movq	%rbp, %rdx
 4497 2710 BB010000 		movl	$1, %ebx
 4497      00
 4498 2715 E943FEFF 		jmp	.L575
 4498      FF
 4499              	.L610:
 4500 271a 488D7C24 		leaq	32(%rsp), %rdi
 4500      20
 4501 271f 4889C3   		movq	%rax, %rbx
 4502 2722 4889D5   		movq	%rdx, %rbp
 4503 2725 E8000000 		call	_ZNSt7__cxx1119basic_ostringstreamIcSt11char_traitsIcESaIcEED1Ev
 4503      00
 4504 272a 4889DF   		movq	%rbx, %rdi
 4505 272d 4889EA   		movq	%rbp, %rdx
 4506 2730 31DB     		xorl	%ebx, %ebx
 4507 2732 E926FEFF 		jmp	.L575
 4507      FF
 4508              	.L612:
 4509 2737 488D7C24 		leaq	40(%rsp), %rdi
 4509      28
 4510 273c 4889C3   		movq	%rax, %rbx
 4511 273f 4889D5   		movq	%rdx, %rbp
 4512 2742 E8000000 		call	_ZNSt7__cxx1115basic_stringbufIcSt11char_traitsIcESaIcEED1Ev
 4512      00
 4513 2747 488B0500 		movq	_ZTTNSt7__cxx1119basic_ostringstreamIcSt11char_traitsIcESaIcEEE+8(%rip), %rax
 4513      000000
 4514 274e 488B0D00 		movq	_ZTTNSt7__cxx1119basic_ostringstreamIcSt11char_traitsIcESaIcEEE+16(%rip), %rcx
 4514      000000
 4515 2755 488B40E8 		movq	-24(%rax), %rax
 4516 2759 48894C04 		movq	%rcx, 32(%rsp,%rax)
 4516      20
 4517 275e E9D9FDFF 		jmp	.L574
 4517      FF
 4518              		.cfi_endproc
 4519              	.LFE1439:
 4520              		.section	.gcc_except_table
 4521              		.align 4
 4522              	.LLSDA1439:
 4523 034c FF       		.byte	0xff
 4524 034d 03       		.byte	0x3
 4525 034e 6D       		.uleb128 .LLSDATT1439-.LLSDATTD1439
 4526              	.LLSDATTD1439:
 4527 034f 01       		.byte	0x1
 4528 0350 57       		.uleb128 .LLSDACSE1439-.LLSDACSB1439
 4529              	.LLSDACSB1439:
 4530 0351 B101     		.uleb128 .LEHB122-.LFB1439
 4531 0353 05       		.uleb128 .LEHE122-.LEHB122
 4532 0354 E605     		.uleb128 .L611-.LFB1439
 4533 0356 07       		.uleb128 0x7
 4534 0357 D102     		.uleb128 .LEHB123-.LFB1439
 4535 0359 05       		.uleb128 .LEHE123-.LEHB123
 4536 035a E709     		.uleb128 .L612-.LFB1439
 4537 035c 07       		.uleb128 0x7
 4538 035d E602     		.uleb128 .LEHB124-.LFB1439
 4539 035f 05       		.uleb128 .LEHE124-.LEHB124
 4540 0360 CA09     		.uleb128 .L610-.LFB1439
 4541 0362 07       		.uleb128 0x7
 4542 0363 FB02     		.uleb128 .LEHB125-.LFB1439
 4543 0365 05       		.uleb128 .LEHE125-.LEHB125
 4544 0366 AA09     		.uleb128 .L605-.LFB1439
 4545 0368 07       		.uleb128 0x7
 4546 0369 C004     		.uleb128 .LEHB126-.LFB1439
 4547 036b 05       		.uleb128 .LEHE126-.LEHB126
 4548 036c 8A09     		.uleb128 .L613-.LFB1439
 4549 036e 07       		.uleb128 0x7
 4550 036f B805     		.uleb128 .LEHB127-.LFB1439
 4551 0371 05       		.uleb128 .LEHE127-.LEHB127
 4552 0372 9907     		.uleb128 .L604-.LFB1439
 4553 0374 05       		.uleb128 0x5
 4554 0375 AE06     		.uleb128 .LEHB128-.LFB1439
 4555 0377 05       		.uleb128 .LEHE128-.LEHB128
 4556 0378 C007     		.uleb128 .L607-.LFB1439
 4557 037a 00       		.uleb128 0
 4558 037b CE06     		.uleb128 .LEHB129-.LFB1439
 4559 037d 32       		.uleb128 .LEHE129-.LEHB129
 4560 037e A607     		.uleb128 .L608-.LFB1439
 4561 0380 00       		.uleb128 0
 4562 0381 8507     		.uleb128 .LEHB130-.LFB1439
 4563 0383 05       		.uleb128 .LEHE130-.LEHB130
 4564 0384 C007     		.uleb128 .L607-.LFB1439
 4565 0386 00       		.uleb128 0
 4566 0387 BB07     		.uleb128 .LEHB131-.LFB1439
 4567 0389 05       		.uleb128 .LEHE131-.LEHB131
 4568 038a 00       		.uleb128 0
 4569 038b 00       		.uleb128 0
 4570 038c DD07     		.uleb128 .LEHB132-.LFB1439
 4571 038e 1A       		.uleb128 .LEHE132-.LEHB132
 4572 038f D608     		.uleb128 .L609-.LFB1439
 4573 0391 00       		.uleb128 0
 4574 0392 F707     		.uleb128 .LEHB133-.LFB1439
 4575 0394 05       		.uleb128 .LEHE133-.LEHB133
 4576 0395 00       		.uleb128 0
 4577 0396 00       		.uleb128 0
 4578 0397 9808     		.uleb128 .LEHB134-.LFB1439
 4579 0399 39       		.uleb128 .LEHE134-.LEHB134
 4580 039a 8509     		.uleb128 .L606-.LFB1439
 4581 039c 00       		.uleb128 0
 4582 039d E108     		.uleb128 .LEHB135-.LFB1439
 4583 039f 05       		.uleb128 .LEHE135-.LEHB135
 4584 03a0 00       		.uleb128 0
 4585 03a1 00       		.uleb128 0
 4586 03a2 E608     		.uleb128 .LEHB136-.LFB1439
 4587 03a4 1A       		.uleb128 .LEHE136-.LEHB136
 4588 03a5 D608     		.uleb128 .L609-.LFB1439
 4589 03a7 00       		.uleb128 0
 4590              	.LLSDACSE1439:
 4591 03a8 03       		.byte	0x3
 4592 03a9 00       		.byte	0
 4593 03aa 02       		.byte	0x2
 4594 03ab 7D       		.byte	0x7d
 4595 03ac 01       		.byte	0x1
 4596 03ad 7D       		.byte	0x7d
 4597 03ae 00       		.byte	0
 4598 03af 7D       		.byte	0x7d
 4599              		.align 4
 4600 03b0 00000000 		.long	0
 4601              	
 4602 03b4 00000000 		.long	_ZTISt9exception
 4603 03b8 00000000 		.long	_ZTIN8UnitTest15AssertExceptionE
 4604              	.LLSDATT1439:
 4605              		.text
 4607              		.section	.text.unlikely
 4608              	.LCOLDE56:
 4609              		.text
 4610              	.LHOTE56:
 4611              		.section	.rodata.str1.1
 4612              	.LC57:
 4613 00e9 66696C65 		.string	"filename.h"
 4613      6E616D65 
 4613      2E6800
 4614              	.LC58:
 4615 00f4 54657374 		.string	"TestName"
 4615      4E616D65 
 4615      00
 4616              	.LC59:
 4617 00fd 2227263C 		.string	"\"'&<>"
 4617      3E00
 4618              		.section	.rodata.str1.8
 4619 0395 000000   		.align 8
 4620              	.LC60:
 4621 0398 3C3F786D 		.string	"<?xml version=\"1.0\"?><unittest-results tests=\"1\" failedtests=\"1\" failures=\"1\" tim
 4621      6C207665 
 4621      7273696F 
 4621      6E3D2231 
 4621      2E30223F 
 4622              		.section	.text.unlikely
 4623              	.LCOLDB61:
 4624              		.text
 4625              	.LHOTB61:
 4626 2763 0F1F0066 		.p2align 4,,15
 4626      2E0F1F84 
 4626      00000000 
 4626      00
 4628              	_ZN8UnitTest11ExecuteTestIN12_GLOBAL__N_154XmlTestReporterFixtureFailureMessageIsXMLEscapedHelperEE
 4629              	.LFB1720:
 4630              		.cfi_startproc
 4631              		.cfi_personality 0x3,__gxx_personality_v0
 4632              		.cfi_lsda 0x3,.LLSDA1720
 4633 2770 4154     		pushq	%r12
 4634              		.cfi_def_cfa_offset 16
 4635              		.cfi_offset 12, -16
 4636 2772 55       		pushq	%rbp
 4637              		.cfi_def_cfa_offset 24
 4638              		.cfi_offset 6, -24
 4639 2773 53       		pushq	%rbx
 4640              		.cfi_def_cfa_offset 32
 4641              		.cfi_offset 3, -32
 4642 2774 4889F3   		movq	%rsi, %rbx
 4643 2777 4881EC20 		subq	$1824, %rsp
 4643      070000
 4644              		.cfi_def_cfa_offset 1856
 4645 277e 48893C24 		movq	%rdi, (%rsp)
 4646 2782 48897424 		movq	%rsi, 8(%rsp)
 4646      08
 4647 2787 64488B04 		movq	%fs:40, %rax
 4647      25280000 
 4647      00
 4648 2790 48898424 		movq	%rax, 1816(%rsp)
 4648      18070000 
 4649 2798 31C0     		xorl	%eax, %eax
 4650              	.LEHB137:
 4651 279a E8000000 		call	_ZN8UnitTest11CurrentTest7DetailsEv
 4651      00
 4652              	.LEHE137:
 4653 279f 488DBC24 		leaq	688(%rsp), %rdi
 4653      B0020000 
 4654 27a7 488918   		movq	%rbx, (%rax)
 4655              	.LEHB138:
 4656 27aa E8000000 		call	_ZN8UnitTest16SignalTranslatorC1Ev
 4656      00
 4657              	.LEHE138:
 4658 27af 488B3D00 		movq	_ZN8UnitTest16SignalTranslator12s_jumpTargetE(%rip), %rdi
 4658      000000
 4659 27b6 BE010000 		movl	$1, %esi
 4659      00
 4660 27bb E8000000 		call	__sigsetjmp
 4660      00
 4661 27c0 85C0     		testl	%eax, %eax
 4662 27c2 0F850801 		jne	.L719
 4662      0000
 4663 27c8 488D7C24 		leaq	80(%rsp), %rdi
 4663      50
 4664 27cd 41B8E110 		movl	$4321, %r8d
 4664      0000
 4665 27d3 B9000000 		movl	$.LC57, %ecx
 4665      00
 4666 27d8 BA000000 		movl	$.LC43, %edx
 4666      00
 4667 27dd BE000000 		movl	$.LC58, %esi
 4667      00
 4668              	.LEHB139:
 4669 27e2 E8000000 		call	_ZN8UnitTest11TestDetailsC1EPKcS2_S2_i
 4669      00
 4670 27e7 488B2C24 		movq	(%rsp), %rbp
 4671 27eb 488D7424 		leaq	80(%rsp), %rsi
 4671      50
 4672 27f0 488D9D78 		leaq	376(%rbp), %rbx
 4672      010000
 4673 27f7 4889DF   		movq	%rbx, %rdi
 4674 27fa E8000000 		call	_ZN8UnitTest20DeferredTestReporter15ReportTestStartERKNS_11TestDetailsE
 4674      00
 4675 27ff 488D7424 		leaq	80(%rsp), %rsi
 4675      50
 4676 2804 BA000000 		movl	$.LC59, %edx
 4676      00
 4677 2809 4889DF   		movq	%rbx, %rdi
 4678 280c E8000000 		call	_ZN8UnitTest20DeferredTestReporter13ReportFailureERKNS_11TestDetailsEPKc
 4678      00
 4679 2811 488D7424 		leaq	80(%rsp), %rsi
 4679      50
 4680 2816 F30F1005 		movss	.LC47(%rip), %xmm0
 4680      00000000 
 4681 281e 4889DF   		movq	%rbx, %rdi
 4682 2821 E8000000 		call	_ZN8UnitTest20DeferredTestReporter16ReportTestFinishERKNS_11TestDetailsEf
 4682      00
 4683 2826 F30F1005 		movss	.LC47(%rip), %xmm0
 4683      00000000 
 4684 282e B9010000 		movl	$1, %ecx
 4684      00
 4685 2833 BA010000 		movl	$1, %edx
 4685      00
 4686 2838 BE010000 		movl	$1, %esi
 4686      00
 4687 283d 4889DF   		movq	%rbx, %rdi
 4688 2840 E8000000 		call	_ZN8UnitTest15XmlTestReporter13ReportSummaryEiiif
 4688      00
 4689              	.LEHE139:
 4690 2845 48C74424 		movq	$.LC60, 24(%rsp)
 4690      18000000 
 4690      00
 4691              	.LEHB140:
 4692 284e E8000000 		call	_ZN8UnitTest11CurrentTest7DetailsEv
 4692      00
 4693 2853 488B30   		movq	(%rax), %rsi
 4694 2856 488D7C24 		leaq	112(%rsp), %rdi
 4694      70
 4695 285b BA840000 		movl	$132, %edx
 4695      00
 4696 2860 E8000000 		call	_ZN8UnitTest11TestDetailsC1ERKS0_i
 4696      00
 4697              	.LEHE140:
 4698 2865 488B5530 		movq	48(%rbp), %rdx
 4699 2869 488D8424 		leaq	192(%rsp), %rax
 4699      C0000000 
 4700 2871 48C78424 		movq	$0, 184(%rsp)
 4700      B8000000 
 4700      00000000 
 4701 287d C68424C0 		movb	$0, 192(%rsp)
 4701      00000000 
 4702 2885 48898424 		movq	%rax, 176(%rsp)
 4702      B0000000 
 4703 288d 4885D2   		testq	%rdx, %rdx
 4704 2890 0F84AA03 		je	.L636
 4704      0000
 4705 2896 488B5D20 		movq	32(%rbp), %rbx
 4706 289a 4839DA   		cmpq	%rbx, %rdx
 4707 289d 0F861D01 		jbe	.L637
 4707      0000
 4708 28a3 488B6D28 		movq	40(%rbp), %rbp
 4709 28a7 488D8424 		leaq	256(%rsp), %rax
 4709      00010000 
 4710 28af 48898424 		movq	%rax, 240(%rsp)
 4710      F0000000 
 4711 28b7 4885ED   		testq	%rbp, %rbp
 4712 28ba 7534     		jne	.L720
 4713 28bc BF000000 		movl	$.LC33, %edi
 4713      00
 4714              	.LEHB141:
 4715 28c1 E8000000 		call	_ZSt19__throw_logic_errorPKc
 4715      00
 4716              	.LEHE141:
 4717 28c6 662E0F1F 		.p2align 4,,10
 4717      84000000 
 4717      0000
 4718              		.p2align 3
 4719              	.L719:
 4720 28d0 BF080000 		movl	$8, %edi
 4720      00
 4721 28d5 E8000000 		call	__cxa_allocate_exception
 4721      00
 4722 28da 31D2     		xorl	%edx, %edx
 4723 28dc 48C70000 		movq	$.LC23, (%rax)
 4723      000000
 4724 28e3 BE000000 		movl	$_ZTIPKc, %esi
 4724      00
 4725 28e8 4889C7   		movq	%rax, %rdi
 4726              	.LEHB142:
 4727 28eb E8000000 		call	__cxa_throw
 4727      00
 4728              	.LEHE142:
 4729              		.p2align 4,,10
 4730              		.p2align 3
 4731              	.L720:
 4732 28f0 4829EA   		subq	%rbp, %rdx
 4733 28f3 4883FA0F 		cmpq	$15, %rdx
 4734 28f7 4889D3   		movq	%rdx, %rbx
 4735 28fa 48895424 		movq	%rdx, 32(%rsp)
 4735      20
 4736 28ff 0F87AB01 		ja	.L721
 4736      0000
 4737 2905 4883FB01 		cmpq	$1, %rbx
 4738 2909 0F840103 		je	.L722
 4738      0000
 4739 290f 4885DB   		testq	%rbx, %rbx
 4740 2912 4889C2   		movq	%rax, %rdx
 4741 2915 0F853F03 		jne	.L723
 4741      0000
 4742              	.L642:
 4743 291b 488DB424 		leaq	240(%rsp), %rsi
 4743      F0000000 
 4744 2923 488DBC24 		leaq	176(%rsp), %rdi
 4744      B0000000 
 4745 292b 48899C24 		movq	%rbx, 248(%rsp)
 4745      F8000000 
 4746 2933 C6041A00 		movb	$0, (%rdx,%rbx)
 4747              	.LEHB143:
 4748 2937 E8000000 		call	_ZNSt7__cxx1112basic_stringIcSt11char_traitsIcESaIcEE9_M_assignERKS4_
 4748      00
 4749              	.LEHE143:
 4750 293c 488BBC24 		movq	240(%rsp), %rdi
 4750      F0000000 
 4751 2944 488D8424 		leaq	256(%rsp), %rax
 4751      00010000 
 4752 294c 4839C7   		cmpq	%rax, %rdi
 4753 294f 7405     		je	.L644
 4754              	.L709:
 4755 2951 E8000000 		call	_ZdlPv
 4755      00
 4756              	.L644:
 4757              	.LEHB144:
 4758 2956 E8000000 		call	_ZN8UnitTest11CurrentTest7ResultsEv
 4758      00
 4759 295b 488B38   		movq	(%rax), %rdi
 4760 295e 488D4C24 		leaq	112(%rsp), %rcx
 4760      70
 4761 2963 488D9424 		leaq	176(%rsp), %rdx
 4761      B0000000 
 4762 296b 488D7424 		leaq	24(%rsp), %rsi
 4762      18
 4763 2970 E8000000 		call	_ZN8UnitTest10CheckEqualIPKcNSt7__cxx1112basic_stringIcSt11char_traitsIcESaIcEEEEEvRNS_11Test
 4763      00
 4764              	.LEHE144:
 4765 2975 488BBC24 		movq	176(%rsp), %rdi
 4765      B0000000 
 4766 297d 488D8424 		leaq	192(%rsp), %rax
 4766      C0000000 
 4767 2985 4839C7   		cmpq	%rax, %rdi
 4768 2988 7405     		je	.L665
 4769 298a E8000000 		call	_ZdlPv
 4769      00
 4770              	.L665:
 4771 298f 488DBC24 		leaq	688(%rsp), %rdi
 4771      B0020000 
 4772              	.LEHB145:
 4773 2997 E8000000 		call	_ZN8UnitTest16SignalTranslatorD1Ev
 4773      00
 4774              	.LEHE145:
 4775              	.L633:
 4776 299c 488B8424 		movq	1816(%rsp), %rax
 4776      18070000 
 4777 29a4 64483304 		xorq	%fs:40, %rax
 4777      25280000 
 4777      00
 4778 29ad 0F85B702 		jne	.L724
 4778      0000
 4779 29b3 4881C420 		addq	$1824, %rsp
 4779      070000
 4780              		.cfi_remember_state
 4781              		.cfi_def_cfa_offset 32
 4782 29ba 5B       		popq	%rbx
 4783              		.cfi_def_cfa_offset 24
 4784 29bb 5D       		popq	%rbp
 4785              		.cfi_def_cfa_offset 16
 4786 29bc 415C     		popq	%r12
 4787              		.cfi_def_cfa_offset 8
 4788 29be C3       		ret
 4789 29bf 90       		.p2align 4,,10
 4790              		.p2align 3
 4791              	.L637:
 4792              		.cfi_restore_state
 4793 29c0 488B0424 		movq	(%rsp), %rax
 4794 29c4 488B6828 		movq	40(%rax), %rbp
 4795 29c8 488D8424 		leaq	224(%rsp), %rax
 4795      E0000000 
 4796 29d0 48898424 		movq	%rax, 208(%rsp)
 4796      D0000000 
 4797 29d8 4885ED   		testq	%rbp, %rbp
 4798 29db 7513     		jne	.L648
 4799 29dd 4885DB   		testq	%rbx, %rbx
 4800 29e0 740E     		je	.L648
 4801 29e2 BF000000 		movl	$.LC33, %edi
 4801      00
 4802              	.LEHB146:
 4803 29e7 E8000000 		call	_ZSt19__throw_logic_errorPKc
 4803      00
 4804              	.LEHE146:
 4805 29ec 0F1F4000 		.p2align 4,,10
 4806              		.p2align 3
 4807              	.L648:
 4808 29f0 4829EB   		subq	%rbp, %rbx
 4809 29f3 4883FB0F 		cmpq	$15, %rbx
 4810 29f7 48895C24 		movq	%rbx, 40(%rsp)
 4810      28
 4811 29fc 7762     		ja	.L725
 4812 29fe 4883FB01 		cmpq	$1, %rbx
 4813 2a02 0F842002 		je	.L726
 4813      0000
 4814 2a08 4885DB   		testq	%rbx, %rbx
 4815 2a0b 488D8424 		leaq	224(%rsp), %rax
 4815      E0000000 
 4816 2a13 0F854902 		jne	.L727
 4816      0000
 4817              	.L651:
 4818 2a19 488DB424 		leaq	208(%rsp), %rsi
 4818      D0000000 
 4819 2a21 488DBC24 		leaq	176(%rsp), %rdi
 4819      B0000000 
 4820 2a29 48899C24 		movq	%rbx, 216(%rsp)
 4820      D8000000 
 4821 2a31 C6041800 		movb	$0, (%rax,%rbx)
 4822              	.LEHB147:
 4823 2a35 E8000000 		call	_ZNSt7__cxx1112basic_stringIcSt11char_traitsIcESaIcEE9_M_assignERKS4_
 4823      00
 4824              	.LEHE147:
 4825 2a3a 488BBC24 		movq	208(%rsp), %rdi
 4825      D0000000 
 4826 2a42 488D8424 		leaq	224(%rsp), %rax
 4826      E0000000 
 4827 2a4a 4839C7   		cmpq	%rax, %rdi
 4828 2a4d 0F85FEFE 		jne	.L709
 4828      FFFF
 4829 2a53 E9FEFEFF 		jmp	.L644
 4829      FF
 4830 2a58 0F1F8400 		.p2align 4,,10
 4830      00000000 
 4831              		.p2align 3
 4832              	.L725:
 4833 2a60 488D7424 		leaq	40(%rsp), %rsi
 4833      28
 4834 2a65 488DBC24 		leaq	208(%rsp), %rdi
 4834      D0000000 
 4835 2a6d 31D2     		xorl	%edx, %edx
 4836              	.LEHB148:
 4837 2a6f E8000000 		call	_ZNSt7__cxx1112basic_stringIcSt11char_traitsIcESaIcEE9_M_createERmm
 4837      00
 4838 2a74 4889C7   		movq	%rax, %rdi
 4839 2a77 48898424 		movq	%rax, 208(%rsp)
 4839      D0000000 
 4840 2a7f 488B4424 		movq	40(%rsp), %rax
 4840      28
 4841 2a84 48898424 		movq	%rax, 224(%rsp)
 4841      E0000000 
 4842              	.L649:
 4843 2a8c 4889DA   		movq	%rbx, %rdx
 4844 2a8f 4889EE   		movq	%rbp, %rsi
 4845 2a92 E8000000 		call	memcpy
 4845      00
 4846 2a97 488B5C24 		movq	40(%rsp), %rbx
 4846      28
 4847 2a9c 488B8424 		movq	208(%rsp), %rax
 4847      D0000000 
 4848 2aa4 E970FFFF 		jmp	.L651
 4848      FF
 4849 2aa9 0F1F8000 		.p2align 4,,10
 4849      000000
 4850              		.p2align 3
 4851              	.L721:
 4852 2ab0 488D7424 		leaq	32(%rsp), %rsi
 4852      20
 4853 2ab5 488DBC24 		leaq	240(%rsp), %rdi
 4853      F0000000 
 4854 2abd 31D2     		xorl	%edx, %edx
 4855 2abf E8000000 		call	_ZNSt7__cxx1112basic_stringIcSt11char_traitsIcESaIcEE9_M_createERmm
 4855      00
 4856              	.LEHE148:
 4857 2ac4 4889C7   		movq	%rax, %rdi
 4858 2ac7 48898424 		movq	%rax, 240(%rsp)
 4858      F0000000 
 4859 2acf 488B4424 		movq	32(%rsp), %rax
 4859      20
 4860 2ad4 48898424 		movq	%rax, 256(%rsp)
 4860      00010000 
 4861              	.L640:
 4862 2adc 4889DA   		movq	%rbx, %rdx
 4863 2adf 4889EE   		movq	%rbp, %rsi
 4864 2ae2 E8000000 		call	memcpy
 4864      00
 4865 2ae7 488B5C24 		movq	32(%rsp), %rbx
 4865      20
 4866 2aec 488B9424 		movq	240(%rsp), %rdx
 4866      F0000000 
 4867 2af4 E922FEFF 		jmp	.L642
 4867      FF
 4868              	.L695:
 4869 2af9 4889C3   		movq	%rax, %rbx
 4870 2afc 4889D5   		movq	%rdx, %rbp
 4871              	.L672:
 4872 2aff 488DBC24 		leaq	688(%rsp), %rdi
 4872      B0020000 
 4873 2b07 E8000000 		call	_ZN8UnitTest16SignalTranslatorD1Ev
 4873      00
 4874 2b0c 4889DF   		movq	%rbx, %rdi
 4875 2b0f 4889EA   		movq	%rbp, %rdx
 4876              	.L673:
 4877 2b12 4883FA01 		cmpq	$1, %rdx
 4878 2b16 0F840002 		je	.L675
 4878      0000
 4879 2b1c 4883FA02 		cmpq	$2, %rdx
 4880 2b20 0F85D001 		jne	.L728
 4880      0000
 4881 2b26 E8000000 		call	__cxa_begin_catch
 4881      00
 4882 2b2b 488DBC24 		leaq	272(%rsp), %rdi
 4882      10010000 
 4883 2b33 4889C3   		movq	%rax, %rbx
 4884              	.LEHB149:
 4885 2b36 E8000000 		call	_ZN8UnitTest15MemoryOutStreamC1Ev
 4885      00
 4886              	.LEHE149:
 4887 2b3b 488B03   		movq	(%rbx), %rax
 4888 2b3e 4889DF   		movq	%rbx, %rdi
 4889 2b41 FF5010   		call	*16(%rax)
 4890 2b44 488DBC24 		leaq	272(%rsp), %rdi
 4890      10010000 
 4891 2b4c BA150000 		movl	$21, %edx
 4891      00
 4892 2b51 BE000000 		movl	$.LC31, %esi
 4892      00
 4893 2b56 4889C3   		movq	%rax, %rbx
 4894              	.LEHB150:
 4895 2b59 E8000000 		call	_ZSt16__ostream_insertIcSt11char_traitsIcEERSt13basic_ostreamIT_T0_ES6_PKS3_l
 4895      00
 4896 2b5e 488DBC24 		leaq	272(%rsp), %rdi
 4896      10010000 
 4897 2b66 4889DE   		movq	%rbx, %rsi
 4898 2b69 E8000000 		call	_ZStlsISt11char_traitsIcEERSt13basic_ostreamIcT_ES5_PKc
 4898      00
 4899 2b6e 488DBC24 		leaq	272(%rsp), %rdi
 4899      10010000 
 4900 2b76 E8000000 		call	_ZNK8UnitTest15MemoryOutStream7GetTextEv
 4900      00
 4901 2b7b 4889C3   		movq	%rax, %rbx
 4902 2b7e E8000000 		call	_ZN8UnitTest11CurrentTest7ResultsEv
 4902      00
 4903 2b83 488B7424 		movq	8(%rsp), %rsi
 4903      08
 4904 2b88 488B38   		movq	(%rax), %rdi
 4905 2b8b 4889DA   		movq	%rbx, %rdx
 4906 2b8e E8000000 		call	_ZN8UnitTest11TestResults13OnTestFailureERKNS_11TestDetailsEPKc
 4906      00
 4907              	.LEHE150:
 4908 2b93 488DBC24 		leaq	272(%rsp), %rdi
 4908      10010000 
 4909              	.LEHB151:
 4910 2b9b E8000000 		call	_ZN8UnitTest15MemoryOutStreamD1Ev
 4910      00
 4911              	.LEHE151:
 4912              	.L710:
 4913 2ba0 E8000000 		call	__cxa_end_catch
 4913      00
 4914 2ba5 E9F2FDFF 		jmp	.L633
 4914      FF
 4915              	.L699:
 4916              	.L714:
 4917 2baa 4889C3   		movq	%rax, %rbx
 4918              	.L713:
 4919 2bad 488BBC24 		movq	176(%rsp), %rdi
 4919      B0000000 
 4920 2bb5 488D8424 		leaq	192(%rsp), %rax
 4920      C0000000 
 4921 2bbd 4839C7   		cmpq	%rax, %rdi
 4922 2bc0 7405     		je	.L670
 4923 2bc2 E8000000 		call	_ZdlPv
 4923      00
 4924              	.L670:
 4925 2bc7 4889D8   		movq	%rbx, %rax
 4926              	.L662:
 4927 2bca 4889C7   		movq	%rax, %rdi
 4928 2bcd E8000000 		call	__cxa_begin_catch
 4928      00
 4929              	.LEHB152:
 4930 2bd2 E8000000 		call	_ZN8UnitTest11CurrentTest7DetailsEv
 4930      00
 4931 2bd7 488B30   		movq	(%rax), %rsi
 4932 2bda 488DBC24 		leaq	144(%rsp), %rdi
 4932      90000000 
 4933 2be2 BA840000 		movl	$132, %edx
 4933      00
 4934 2be7 E8000000 		call	_ZN8UnitTest11TestDetailsC1ERKS0_i
 4934      00
 4935 2bec E8000000 		call	_ZN8UnitTest11CurrentTest7ResultsEv
 4935      00
 4936 2bf1 488B38   		movq	(%rax), %rdi
 4937 2bf4 488DB424 		leaq	144(%rsp), %rsi
 4937      90000000 
 4938 2bfc BA000000 		movl	$.LC50, %edx
 4938      00
 4939 2c01 E8000000 		call	_ZN8UnitTest11TestResults13OnTestFailureERKNS_11TestDetailsEPKc
 4939      00
 4940              	.LEHE152:
 4941              	.LEHB153:
 4942 2c06 E8000000 		call	__cxa_end_catch
 4942      00
 4943              	.LEHE153:
 4944 2c0b E97FFDFF 		jmp	.L665
 4944      FF
 4945              		.p2align 4,,10
 4946              		.p2align 3
 4947              	.L722:
 4948 2c10 0FB65500 		movzbl	0(%rbp), %edx
 4949 2c14 88942400 		movb	%dl, 256(%rsp)
 4949      010000
 4950 2c1b 4889C2   		movq	%rax, %rdx
 4951 2c1e E9F8FCFF 		jmp	.L642
 4951      FF
 4952              		.p2align 4,,10
 4953 2c23 0F1F4400 		.p2align 3
 4953      00
 4954              	.L726:
 4955 2c28 0FB64500 		movzbl	0(%rbp), %eax
 4956 2c2c 888424E0 		movb	%al, 224(%rsp)
 4956      000000
 4957 2c33 488D8424 		leaq	224(%rsp), %rax
 4957      E0000000 
 4958 2c3b E9D9FDFF 		jmp	.L651
 4958      FF
 4959              		.p2align 4,,10
 4960              		.p2align 3
 4961              	.L636:
 4962 2c40 488B3424 		movq	(%rsp), %rsi
 4963 2c44 488DBC24 		leaq	176(%rsp), %rdi
 4963      B0000000 
 4964 2c4c 4883C650 		addq	$80, %rsi
 4965              	.LEHB154:
 4966 2c50 E8000000 		call	_ZNSt7__cxx1112basic_stringIcSt11char_traitsIcESaIcEE9_M_assignERKS4_
 4966      00
 4967              	.LEHE154:
 4968 2c55 E9FCFCFF 		jmp	.L644
 4968      FF
 4969              	.L723:
 4970 2c5a 4889C7   		movq	%rax, %rdi
 4971 2c5d E97AFEFF 		jmp	.L640
 4971      FF
 4972              	.L727:
 4973 2c62 4889C7   		movq	%rax, %rdi
 4974 2c65 E922FEFF 		jmp	.L649
 4974      FF
 4975              	.L724:
 4976 2c6a E8000000 		call	__stack_chk_fail
 4976      00
 4977              	.L697:
 4978 2c6f E936FFFF 		jmp	.L714
 4978      FF
 4979              	.L701:
 4980 2c74 488BBC24 		movq	240(%rsp), %rdi
 4980      F0000000 
 4981 2c7c 4889C3   		movq	%rax, %rbx
 4982 2c7f 488D8424 		leaq	256(%rsp), %rax
 4982      00010000 
 4983 2c87 4839C7   		cmpq	%rax, %rdi
 4984 2c8a 0F841DFF 		je	.L713
 4984      FFFF
 4985              	.L708:
 4986 2c90 E8000000 		call	_ZdlPv
 4986      00
 4987 2c95 E913FFFF 		jmp	.L713
 4987      FF
 4988              	.L700:
 4989 2c9a 488BBC24 		movq	208(%rsp), %rdi
 4989      D0000000 
 4990 2ca2 4889C3   		movq	%rax, %rbx
 4991 2ca5 488D8424 		leaq	224(%rsp), %rax
 4991      E0000000 
 4992 2cad 4839C7   		cmpq	%rax, %rdi
 4993 2cb0 75DE     		jne	.L708
 4994 2cb2 E9F6FEFF 		jmp	.L713
 4994      FF
 4995              	.L698:
 4996 2cb7 4889C3   		movq	%rax, %rbx
 4997 2cba 4889D5   		movq	%rdx, %rbp
 4998 2cbd E8000000 		call	__cxa_end_catch
 4998      00
 4999 2cc2 E938FEFF 		jmp	.L672
 4999      FF
 5000              	.L696:
 5001 2cc7 E9FEFEFF 		jmp	.L662
 5001      FF
 5002              	.L694:
 5003 2ccc 4889C7   		movq	%rax, %rdi
 5004 2ccf E93EFEFF 		jmp	.L673
 5004      FF
 5005              	.L692:
 5006 2cd4 488DBC24 		leaq	272(%rsp), %rdi
 5006      10010000 
 5007 2cdc 4889C3   		movq	%rax, %rbx
 5008 2cdf E8000000 		call	_ZN8UnitTest15MemoryOutStreamD1Ev
 5008      00
 5009              	.L681:
 5010 2ce4 E8000000 		call	__cxa_end_catch
 5010      00
 5011 2ce9 4889DF   		movq	%rbx, %rdi
 5012              	.LEHB155:
 5013 2cec E8000000 		call	_Unwind_Resume
 5013      00
 5014              	.LEHE155:
 5015              	.L691:
 5016              	.L711:
 5017 2cf1 4889C3   		movq	%rax, %rbx
 5018 2cf4 EBEE     		jmp	.L681
 5019              	.L728:
 5020 2cf6 E8000000 		call	__cxa_begin_catch
 5020      00
 5021              	.LEHB156:
 5022 2cfb E8000000 		call	_ZN8UnitTest11CurrentTest7ResultsEv
 5022      00
 5023 2d00 488B7424 		movq	8(%rsp), %rsi
 5023      08
 5024 2d05 488B38   		movq	(%rax), %rdi
 5025 2d08 BA000000 		movl	$.LC32, %edx
 5025      00
 5026 2d0d E8000000 		call	_ZN8UnitTest11TestResults13OnTestFailureERKNS_11TestDetailsEPKc
 5026      00
 5027              	.LEHE156:
 5028              	.LEHB157:
 5029 2d12 E8000000 		call	__cxa_end_catch
 5029      00
 5030              	.LEHE157:
 5031 2d17 E980FCFF 		jmp	.L633
 5031      FF
 5032              	.L675:
 5033 2d1c E8000000 		call	__cxa_begin_catch
 5033      00
 5034 2d21 4889C3   		movq	%rax, %rbx
 5035 2d24 488B00   		movq	(%rax), %rax
 5036 2d27 4889DF   		movq	%rbx, %rdi
 5037 2d2a FF5010   		call	*16(%rax)
 5038 2d2d 4889DF   		movq	%rbx, %rdi
 5039 2d30 4889C5   		movq	%rax, %rbp
 5040              	.LEHB158:
 5041 2d33 E8000000 		call	_ZNK8UnitTest15AssertException10LineNumberEv
 5041      00
 5042 2d38 4889DF   		movq	%rbx, %rdi
 5043 2d3b 4189C4   		movl	%eax, %r12d
 5044 2d3e E8000000 		call	_ZNK8UnitTest15AssertException8FilenameEv
 5044      00
 5045 2d43 488B5424 		movq	8(%rsp), %rdx
 5045      08
 5046 2d48 488D7C24 		leaq	48(%rsp), %rdi
 5046      30
 5047 2d4d 4589E0   		movl	%r12d, %r8d
 5048 2d50 4889C1   		movq	%rax, %rcx
 5049 2d53 488B7208 		movq	8(%rdx), %rsi
 5050 2d57 488B12   		movq	(%rdx), %rdx
 5051 2d5a E8000000 		call	_ZN8UnitTest11TestDetailsC1EPKcS2_S2_i
 5051      00
 5052 2d5f E8000000 		call	_ZN8UnitTest11CurrentTest7ResultsEv
 5052      00
 5053 2d64 488B38   		movq	(%rax), %rdi
 5054 2d67 488D7424 		leaq	48(%rsp), %rsi
 5054      30
 5055 2d6c 4889EA   		movq	%rbp, %rdx
 5056 2d6f E8000000 		call	_ZN8UnitTest11TestResults13OnTestFailureERKNS_11TestDetailsEPKc
 5056      00
 5057              	.LEHE158:
 5058 2d74 E927FEFF 		jmp	.L710
 5058      FF
 5059              	.L690:
 5060 2d79 4889C3   		movq	%rax, %rbx
 5061 2d7c E8000000 		call	__cxa_end_catch
 5061      00
 5062 2d81 4889DF   		movq	%rbx, %rdi
 5063              	.LEHB159:
 5064 2d84 E8000000 		call	_Unwind_Resume
 5064      00
 5065              	.LEHE159:
 5066              	.L693:
 5067 2d89 E963FFFF 		jmp	.L711
 5067      FF
 5068              		.cfi_endproc
 5069              	.LFE1720:
 5070              		.section	.gcc_except_table
 5071              		.align 4
 5072              	.LLSDA1720:
 5073 03bc FF       		.byte	0xff
 5074 03bd 03       		.byte	0x3
 5075 03be 9C01     		.uleb128 .LLSDATT1720-.LLSDATTD1720
 5076              	.LLSDATTD1720:
 5077 03c0 01       		.byte	0x1
 5078 03c1 8301     		.uleb128 .LLSDACSE1720-.LLSDACSB1720
 5079              	.LLSDACSB1720:
 5080 03c3 2A       		.uleb128 .LEHB137-.LFB1720
 5081 03c4 05       		.uleb128 .LEHE137-.LEHB137
 5082 03c5 00       		.uleb128 0
 5083 03c6 00       		.uleb128 0
 5084 03c7 3A       		.uleb128 .LEHB138-.LFB1720
 5085 03c8 05       		.uleb128 .LEHE138-.LEHB138
 5086 03c9 DC0A     		.uleb128 .L694-.LFB1720
 5087 03cb 05       		.uleb128 0x5
 5088 03cc 72       		.uleb128 .LEHB139-.LFB1720
 5089 03cd 63       		.uleb128 .LEHE139-.LEHB139
 5090 03ce 8907     		.uleb128 .L695-.LFB1720
 5091 03d0 07       		.uleb128 0x7
 5092 03d1 DE01     		.uleb128 .LEHB140-.LFB1720
 5093 03d3 17       		.uleb128 .LEHE140-.LEHB140
 5094 03d4 D70A     		.uleb128 .L696-.LFB1720
 5095 03d6 01       		.uleb128 0x1
 5096 03d7 D102     		.uleb128 .LEHB141-.LFB1720
 5097 03d9 05       		.uleb128 .LEHE141-.LEHB141
 5098 03da BA08     		.uleb128 .L699-.LFB1720
 5099 03dc 01       		.uleb128 0x1
 5100 03dd FB02     		.uleb128 .LEHB142-.LFB1720
 5101 03df 05       		.uleb128 .LEHE142-.LEHB142
 5102 03e0 8907     		.uleb128 .L695-.LFB1720
 5103 03e2 07       		.uleb128 0x7
 5104 03e3 C703     		.uleb128 .LEHB143-.LFB1720
 5105 03e5 05       		.uleb128 .LEHE143-.LEHB143
 5106 03e6 840A     		.uleb128 .L701-.LFB1720
 5107 03e8 01       		.uleb128 0x1
 5108 03e9 E603     		.uleb128 .LEHB144-.LFB1720
 5109 03eb 1F       		.uleb128 .LEHE144-.LEHB144
 5110 03ec FF09     		.uleb128 .L697-.LFB1720
 5111 03ee 01       		.uleb128 0x1
 5112 03ef A704     		.uleb128 .LEHB145-.LFB1720
 5113 03f1 05       		.uleb128 .LEHE145-.LEHB145
 5114 03f2 DC0A     		.uleb128 .L694-.LFB1720
 5115 03f4 05       		.uleb128 0x5
 5116 03f5 F704     		.uleb128 .LEHB146-.LFB1720
 5117 03f7 05       		.uleb128 .LEHE146-.LEHB146
 5118 03f8 BA08     		.uleb128 .L699-.LFB1720
 5119 03fa 01       		.uleb128 0x1
 5120 03fb C505     		.uleb128 .LEHB147-.LFB1720
 5121 03fd 05       		.uleb128 .LEHE147-.LEHB147
 5122 03fe AA0A     		.uleb128 .L700-.LFB1720
 5123 0400 01       		.uleb128 0x1
 5124 0401 FF05     		.uleb128 .LEHB148-.LFB1720
 5125 0403 55       		.uleb128 .LEHE148-.LEHB148
 5126 0404 BA08     		.uleb128 .L699-.LFB1720
 5127 0406 01       		.uleb128 0x1
 5128 0407 C607     		.uleb128 .LEHB149-.LFB1720
 5129 0409 05       		.uleb128 .LEHE149-.LEHB149
 5130 040a 810B     		.uleb128 .L691-.LFB1720
 5131 040c 00       		.uleb128 0
 5132 040d E907     		.uleb128 .LEHB150-.LFB1720
 5133 040f 3A       		.uleb128 .LEHE150-.LEHB150
 5134 0410 E40A     		.uleb128 .L692-.LFB1720
 5135 0412 00       		.uleb128 0
 5136 0413 AB08     		.uleb128 .LEHB151-.LFB1720
 5137 0415 05       		.uleb128 .LEHE151-.LEHB151
 5138 0416 810B     		.uleb128 .L691-.LFB1720
 5139 0418 00       		.uleb128 0
 5140 0419 E208     		.uleb128 .LEHB152-.LFB1720
 5141 041b 34       		.uleb128 .LEHE152-.LEHB152
 5142 041c C70A     		.uleb128 .L698-.LFB1720
 5143 041e 07       		.uleb128 0x7
 5144 041f 9609     		.uleb128 .LEHB153-.LFB1720
 5145 0421 05       		.uleb128 .LEHE153-.LEHB153
 5146 0422 8907     		.uleb128 .L695-.LFB1720
 5147 0424 07       		.uleb128 0x7
 5148 0425 E009     		.uleb128 .LEHB154-.LFB1720
 5149 0427 05       		.uleb128 .LEHE154-.LEHB154
 5150 0428 BA08     		.uleb128 .L699-.LFB1720
 5151 042a 01       		.uleb128 0x1
 5152 042b FC0A     		.uleb128 .LEHB155-.LFB1720
 5153 042d 05       		.uleb128 .LEHE155-.LEHB155
 5154 042e 00       		.uleb128 0
 5155 042f 00       		.uleb128 0
 5156 0430 8B0B     		.uleb128 .LEHB156-.LFB1720
 5157 0432 17       		.uleb128 .LEHE156-.LEHB156
 5158 0433 890C     		.uleb128 .L690-.LFB1720
 5159 0435 00       		.uleb128 0
 5160 0436 A20B     		.uleb128 .LEHB157-.LFB1720
 5161 0438 05       		.uleb128 .LEHE157-.LEHB157
 5162 0439 00       		.uleb128 0
 5163 043a 00       		.uleb128 0
 5164 043b C30B     		.uleb128 .LEHB158-.LFB1720
 5165 043d 41       		.uleb128 .LEHE158-.LEHB158
 5166 043e 990C     		.uleb128 .L693-.LFB1720
 5167 0440 00       		.uleb128 0
 5168 0441 940C     		.uleb128 .LEHB159-.LFB1720
 5169 0443 05       		.uleb128 .LEHE159-.LEHB159
 5170 0444 00       		.uleb128 0
 5171 0445 00       		.uleb128 0
 5172              	.LLSDACSE1720:
 5173 0446 03       		.byte	0x3
 5174 0447 00       		.byte	0
 5175 0448 02       		.byte	0x2
 5176 0449 7D       		.byte	0x7d
 5177 044a 01       		.byte	0x1
 5178 044b 7D       		.byte	0x7d
 5179 044c 00       		.byte	0
 5180 044d 7D       		.byte	0x7d
 5181 044e 0000     		.align 4
 5182 0450 00000000 		.long	0
 5183              	
 5184 0454 00000000 		.long	_ZTISt9exception
 5185 0458 00000000 		.long	_ZTIN8UnitTest15AssertExceptionE
 5186              	.LLSDATT1720:
 5187              		.text
 5189              		.section	.text.unlikely
 5190              	.LCOLDE61:
 5191              		.text
 5192              	.LHOTE61:
 5193              		.section	.text.unlikely
 5194              		.align 2
 5195              	.LCOLDB62:
 5196              		.text
 5197              	.LHOTB62:
 5198              		.align 2
 5199 2d8e 6690     		.p2align 4,,15
 5201              	_ZNK12_GLOBAL__N_152TestXmlTestReporterFixtureFailureMessageIsXMLEscaped7RunImplEv:
 5202              	.LFB1428:
 5203              		.cfi_startproc
 5204              		.cfi_personality 0x3,__gxx_personality_v0
 5205              		.cfi_lsda 0x3,.LLSDA1428
 5206 2d90 4157     		pushq	%r15
 5207              		.cfi_def_cfa_offset 16
 5208              		.cfi_offset 15, -16
 5209 2d92 4156     		pushq	%r14
 5210              		.cfi_def_cfa_offset 24
 5211              		.cfi_offset 14, -24
 5212 2d94 4989FF   		movq	%rdi, %r15
 5213 2d97 4155     		pushq	%r13
 5214              		.cfi_def_cfa_offset 32
 5215              		.cfi_offset 13, -32
 5216 2d99 4154     		pushq	%r12
 5217              		.cfi_def_cfa_offset 40
 5218              		.cfi_offset 12, -40
 5219 2d9b 4C8D7708 		leaq	8(%rdi), %r14
 5220 2d9f 55       		pushq	%rbp
 5221              		.cfi_def_cfa_offset 48
 5222              		.cfi_offset 6, -48
 5223 2da0 53       		pushq	%rbx
 5224              		.cfi_def_cfa_offset 56
 5225              		.cfi_offset 3, -56
 5226 2da1 4881ECD8 		subq	$472, %rsp
 5226      010000
 5227              		.cfi_def_cfa_offset 528
 5228 2da8 488DBC24 		leaq	144(%rsp), %rdi
 5228      90000000 
 5229 2db0 64488B04 		movq	%fs:40, %rax
 5229      25280000 
 5229      00
 5230 2db9 48898424 		movq	%rax, 456(%rsp)
 5230      C8010000 
 5231 2dc1 31C0     		xorl	%eax, %eax
 5232 2dc3 E8000000 		call	_ZNSt8ios_baseC2Ev
 5232      00
 5233 2dc8 488B0500 		movq	_ZTTNSt7__cxx1119basic_ostringstreamIcSt11char_traitsIcESaIcEEE+8(%rip), %rax
 5233      000000
 5234 2dcf C6842470 		movb	$0, 368(%rsp)
 5234      01000000 
 5235 2dd7 488D7C24 		leaq	32(%rsp), %rdi
 5235      20
 5236 2ddc 48C78424 		movq	$_ZTVSt9basic_iosIcSt11char_traitsIcEE+16, 144(%rsp)
 5236      90000000 
 5236      00000000 
 5237 2de8 48C78424 		movq	$0, 360(%rsp)
 5237      68010000 
 5237      00000000 
 5238 2df4 31F6     		xorl	%esi, %esi
 5239 2df6 C6842471 		movb	$0, 369(%rsp)
 5239      01000000 
 5240 2dfe 48C78424 		movq	$0, 376(%rsp)
 5240      78010000 
 5240      00000000 
 5241 2e0a 480378E8 		addq	-24(%rax), %rdi
 5242 2e0e 48894424 		movq	%rax, 32(%rsp)
 5242      20
 5243 2e13 488B0500 		movq	_ZTTNSt7__cxx1119basic_ostringstreamIcSt11char_traitsIcESaIcEEE+16(%rip), %rax
 5243      000000
 5244 2e1a 48C78424 		movq	$0, 384(%rsp)
 5244      80010000 
 5244      00000000 
 5245 2e26 48C78424 		movq	$0, 392(%rsp)
 5245      88010000 
 5245      00000000 
 5246 2e32 48C78424 		movq	$0, 400(%rsp)
 5246      90010000 
 5246      00000000 
 5247 2e3e 488907   		movq	%rax, (%rdi)
 5248              	.LEHB160:
 5249 2e41 E8000000 		call	_ZNSt9basic_iosIcSt11char_traitsIcEE4initEPSt15basic_streambufIcS1_E
 5249      00
 5250              	.LEHE160:
 5251 2e46 488D7C24 		leaq	96(%rsp), %rdi
 5251      60
 5252 2e4b 48C74424 		movq	$_ZTVNSt7__cxx1119basic_ostringstreamIcSt11char_traitsIcESaIcEEE+24, 32(%rsp)
 5252      20000000 
 5252      00
 5253 2e54 48C78424 		movq	$_ZTVNSt7__cxx1119basic_ostringstreamIcSt11char_traitsIcESaIcEEE+64, 144(%rsp)
 5253      90000000 
 5253      00000000 
 5254 2e60 48C74424 		movq	$_ZTVSt15basic_streambufIcSt11char_traitsIcEE+16, 40(%rsp)
 5254      28000000 
 5254      00
 5255 2e69 48C74424 		movq	$0, 48(%rsp)
 5255      30000000 
 5255      00
 5256 2e72 48C74424 		movq	$0, 56(%rsp)
 5256      38000000 
 5256      00
 5257 2e7b 48C74424 		movq	$0, 64(%rsp)
 5257      40000000 
 5257      00
 5258 2e84 48C74424 		movq	$0, 72(%rsp)
 5258      48000000 
 5258      00
 5259 2e8d 48C74424 		movq	$0, 80(%rsp)
 5259      50000000 
 5259      00
 5260 2e96 48C74424 		movq	$0, 88(%rsp)
 5260      58000000 
 5260      00
 5261 2e9f E8000000 		call	_ZNSt6localeC1Ev
 5261      00
 5262 2ea4 488D8424 		leaq	128(%rsp), %rax
 5262      80000000 
 5263 2eac 488D7424 		leaq	40(%rsp), %rsi
 5263      28
