   1              		.file	"testCore.cpp"
   2              		.text
   3              	.Ltext0:
   4              		.local	_ZStL8__ioinit
   5              		.comm	_ZStL8__ioinit,1,1
   6              		.section	.rodata
   7              	.LC0:
   8 0000 44656661 		.string	"DefaultSuite"
   8      756C7453 
   8      75697465 
   8      00
   9              		.section	.text._ZN13UnitTestSuite12GetSuiteNameEv,"axG",@progbits,_ZN13UnitTestSuite12GetSuiteName
  10              		.weak	_ZN13UnitTestSuite12GetSuiteNameEv
  12              	_ZN13UnitTestSuite12GetSuiteNameEv:
  13              	.LFB1025:
  14              		.file 1 "/home/shubham/20140524/makestuff/libs/libutpp/TestSuite.h"
   1:/home/shubham/20140524/makestuff/libs/libutpp/TestSuite.h **** #ifndef UNITTEST_TESTSUITE_H
   2:/home/shubham/20140524/makestuff/libs/libutpp/TestSuite.h **** #define UNITTEST_TESTSUITE_H
   3:/home/shubham/20140524/makestuff/libs/libutpp/TestSuite.h **** 
   4:/home/shubham/20140524/makestuff/libs/libutpp/TestSuite.h **** namespace UnitTestSuite {
   5:/home/shubham/20140524/makestuff/libs/libutpp/TestSuite.h **** 
   6:/home/shubham/20140524/makestuff/libs/libutpp/TestSuite.h ****     inline char const* GetSuiteName ()
   7:/home/shubham/20140524/makestuff/libs/libutpp/TestSuite.h ****     {
  15              		.loc 1 7 0
  16              		.cfi_startproc
  17 0000 55       		pushq	%rbp
  18              		.cfi_def_cfa_offset 16
  19              		.cfi_offset 6, -16
  20 0001 4889E5   		movq	%rsp, %rbp
  21              		.cfi_def_cfa_register 6
   8:/home/shubham/20140524/makestuff/libs/libutpp/TestSuite.h ****         return "DefaultSuite";
  22              		.loc 1 8 0
  23 0004 B8000000 		movl	$.LC0, %eax
  23      00
   9:/home/shubham/20140524/makestuff/libs/libutpp/TestSuite.h ****     }
  24              		.loc 1 9 0
  25 0009 5D       		popq	%rbp
  26              		.cfi_def_cfa 7, 8
  27 000a C3       		ret
  28              		.cfi_endproc
  29              	.LFE1025:
  31              		.section	.text._ZN8UnitTest15MemoryOutStreamC1Ev,"axG",@progbits,_ZN8UnitTest15MemoryOutStreamC1Ev
  32              		.align 2
  33              		.weak	_ZN8UnitTest15MemoryOutStreamC1Ev
  35              	_ZN8UnitTest15MemoryOutStreamC1Ev:
  36              	.LFB1061:
  37              		.file 2 "/home/shubham/20140524/makestuff/libs/libutpp/MemoryOutStream.h"
   1:/home/shubham/20140524/makestuff/libs/libutpp/MemoryOutStream.h **** #ifndef UNITTEST_MEMORYOUTSTREAM_H
   2:/home/shubham/20140524/makestuff/libs/libutpp/MemoryOutStream.h **** #define UNITTEST_MEMORYOUTSTREAM_H
   3:/home/shubham/20140524/makestuff/libs/libutpp/MemoryOutStream.h **** 
   4:/home/shubham/20140524/makestuff/libs/libutpp/MemoryOutStream.h **** #include "Config.h"
   5:/home/shubham/20140524/makestuff/libs/libutpp/MemoryOutStream.h **** 
   6:/home/shubham/20140524/makestuff/libs/libutpp/MemoryOutStream.h **** #ifndef UNITTEST_USE_CUSTOM_STREAMS
   7:/home/shubham/20140524/makestuff/libs/libutpp/MemoryOutStream.h **** 
   8:/home/shubham/20140524/makestuff/libs/libutpp/MemoryOutStream.h **** #include <sstream>
   9:/home/shubham/20140524/makestuff/libs/libutpp/MemoryOutStream.h **** 
  10:/home/shubham/20140524/makestuff/libs/libutpp/MemoryOutStream.h **** namespace UnitTest
  11:/home/shubham/20140524/makestuff/libs/libutpp/MemoryOutStream.h **** {
  12:/home/shubham/20140524/makestuff/libs/libutpp/MemoryOutStream.h **** 
  13:/home/shubham/20140524/makestuff/libs/libutpp/MemoryOutStream.h **** class MemoryOutStream : public std::ostringstream
  14:/home/shubham/20140524/makestuff/libs/libutpp/MemoryOutStream.h **** {
  15:/home/shubham/20140524/makestuff/libs/libutpp/MemoryOutStream.h **** public:
  16:/home/shubham/20140524/makestuff/libs/libutpp/MemoryOutStream.h ****     MemoryOutStream() {}
  38              		.loc 2 16 0
  39              		.cfi_startproc
  40              		.cfi_personality 0x3,__gxx_personality_v0
  41              		.cfi_lsda 0x3,.LLSDA1061
  42 0000 55       		pushq	%rbp
  43              		.cfi_def_cfa_offset 16
  44              		.cfi_offset 6, -16
  45 0001 4889E5   		movq	%rsp, %rbp
  46              		.cfi_def_cfa_register 6
  47 0004 53       		pushq	%rbx
  48 0005 4883EC18 		subq	$24, %rsp
  49              		.cfi_offset 3, -24
  50 0009 48897DE8 		movq	%rdi, -24(%rbp)
  51              	.LBB2:
  52              		.loc 2 16 0
  53 000d 488B45E8 		movq	-24(%rbp), %rax
  54 0011 48059000 		addq	$144, %rax
  54      0000
  55 0017 4889C7   		movq	%rax, %rdi
  56              	.LEHB0:
  57 001a E8000000 		call	_ZNSt9basic_iosIcSt11char_traitsIcEEC2Ev
  57      00
  58              	.LEHE0:
  59 001f B9000000 		movl	$_ZTTN8UnitTest15MemoryOutStreamE+8, %ecx
  59      00
  60 0024 488B45E8 		movq	-24(%rbp), %rax
  61 0028 BA100000 		movl	$16, %edx
  61      00
  62 002d 4889CE   		movq	%rcx, %rsi
  63 0030 4889C7   		movq	%rax, %rdi
  64              	.LEHB1:
  65 0033 E8000000 		call	_ZNSt7__cxx1119basic_ostringstreamIcSt11char_traitsIcESaIcEEC2ESt13_Ios_Openmode
  65      00
  66              	.LEHE1:
  67              		.loc 2 16 0 is_stmt 0 discriminator 9
  68 0038 BA000000 		movl	$_ZTVN8UnitTest15MemoryOutStreamE+24, %edx
  68      00
  69 003d 488B45E8 		movq	-24(%rbp), %rax
  70 0041 488910   		movq	%rdx, (%rax)
  71 0044 BA900000 		movl	$144, %edx
  71      00
  72 0049 488B45E8 		movq	-24(%rbp), %rax
  73 004d 4801D0   		addq	%rdx, %rax
  74 0050 BA000000 		movl	$_ZTVN8UnitTest15MemoryOutStreamE+64, %edx
  74      00
  75 0055 488910   		movq	%rdx, (%rax)
  76 0058 488B45E8 		movq	-24(%rbp), %rax
  77 005c 4883C070 		addq	$112, %rax
  78 0060 4889C7   		movq	%rax, %rdi
  79              	.LEHB2:
  80 0063 E8000000 		call	_ZNSt7__cxx1112basic_stringIcSt11char_traitsIcESaIcEEC1Ev
  80      00
  81              	.LEHE2:
  82              	.LBE2:
  83              		.loc 2 16 0
  84 0068 EB39     		jmp	.L9
  85              	.L7:
  86 006a 4889C3   		movq	%rax, %rbx
  87              	.LBB3:
  88 006d BA000000 		movl	$_ZTTN8UnitTest15MemoryOutStreamE+8, %edx
  88      00
  89 0072 488B45E8 		movq	-24(%rbp), %rax
  90 0076 4889D6   		movq	%rdx, %rsi
  91 0079 4889C7   		movq	%rax, %rdi
  92 007c E8000000 		call	_ZNSt7__cxx1119basic_ostringstreamIcSt11char_traitsIcESaIcEED2Ev
  92      00
  93 0081 EB03     		jmp	.L8
  94              	.L6:
  95 0083 4889C3   		movq	%rax, %rbx
  96              	.L8:
  97              		.loc 2 16 0 discriminator 28
  98 0086 488B45E8 		movq	-24(%rbp), %rax
  99 008a 48059000 		addq	$144, %rax
  99      0000
 100 0090 4889C7   		movq	%rax, %rdi
 101 0093 E8000000 		call	_ZNSt9basic_iosIcSt11char_traitsIcEED2Ev
 101      00
 102 0098 4889D8   		movq	%rbx, %rax
 103 009b 4889C7   		movq	%rax, %rdi
 104              	.LEHB3:
 105 009e E8000000 		call	_Unwind_Resume
 105      00
 106              	.LEHE3:
 107              	.L9:
 108              	.LBE3:
 109              		.loc 2 16 0
 110 00a3 4883C418 		addq	$24, %rsp
 111 00a7 5B       		popq	%rbx
 112 00a8 5D       		popq	%rbp
 113              		.cfi_def_cfa 7, 8
 114 00a9 C3       		ret
 115              		.cfi_endproc
 116              	.LFE1061:
 117              		.globl	__gxx_personality_v0
 118              		.section	.gcc_except_table._ZN8UnitTest15MemoryOutStreamC1Ev,"aG",@progbits,_ZN8UnitTest15MemoryOu
 119              	.LLSDA1061:
 120 0000 FF       		.byte	0xff
 121 0001 FF       		.byte	0xff
 122 0002 01       		.byte	0x1
 123 0003 12       		.uleb128 .LLSDACSE1061-.LLSDACSB1061
 124              	.LLSDACSB1061:
 125 0004 1A       		.uleb128 .LEHB0-.LFB1061
 126 0005 05       		.uleb128 .LEHE0-.LEHB0
 127 0006 00       		.uleb128 0
 128 0007 00       		.uleb128 0
 129 0008 33       		.uleb128 .LEHB1-.LFB1061
 130 0009 05       		.uleb128 .LEHE1-.LEHB1
 131 000a 8301     		.uleb128 .L6-.LFB1061
 132 000c 00       		.uleb128 0
 133 000d 63       		.uleb128 .LEHB2-.LFB1061
 134 000e 05       		.uleb128 .LEHE2-.LEHB2
 135 000f 6A       		.uleb128 .L7-.LFB1061
 136 0010 00       		.uleb128 0
 137 0011 9E01     		.uleb128 .LEHB3-.LFB1061
 138 0013 05       		.uleb128 .LEHE3-.LEHB3
 139 0014 00       		.uleb128 0
 140 0015 00       		.uleb128 0
 141              	.LLSDACSE1061:
 142              		.section	.text._ZN8UnitTest15MemoryOutStreamC1Ev,"axG",@progbits,_ZN8UnitTest15MemoryOutStreamC1Ev
 144              		.data
 145              		.align 4
 148              	_ZL7m_count:
 149 0000 01000000 		.long	1
 150              		.local	_ZL11m_allocFree
 151              		.comm	_ZL11m_allocFree,4,4
 152              		.text
 153              		.globl	createInt
 155              	createInt:
 156              	.LFB1078:
 157              		.file 3 "testCore.cpp"
   1:testCore.cpp  **** /*
   2:testCore.cpp  ****  * Copyright (C) 2009-2012 Chris McClelland
   3:testCore.cpp  ****  *
   4:testCore.cpp  ****  * This program is free software: you can redistribute it and/or modify
   5:testCore.cpp  ****  * it under the terms of the GNU Lesser General Public License as published by
   6:testCore.cpp  ****  * the Free Software Foundation, either version 3 of the License, or
   7:testCore.cpp  ****  * (at your option) any later version.
   8:testCore.cpp  ****  *
   9:testCore.cpp  ****  * This program is distributed in the hope that it will be useful,
  10:testCore.cpp  ****  * but WITHOUT ANY WARRANTY; without even the implied warranty of
  11:testCore.cpp  ****  * MERCHANTABILITY or FITNESS FOR A PARTICULAR PURPOSE.  See the
  12:testCore.cpp  ****  * GNU Lesser General Public License for more details.
  13:testCore.cpp  ****  *
  14:testCore.cpp  ****  * You should have received a copy of the GNU Lesser General Public License
  15:testCore.cpp  ****  * along with this program.  If not, see <http://www.gnu.org/licenses/>.
  16:testCore.cpp  ****  */
  17:testCore.cpp  **** #include <iostream>
  18:testCore.cpp  **** #include <cstdlib>
  19:testCore.cpp  **** #include <errno.h>
  20:testCore.cpp  **** #include <UnitTest++.h>
  21:testCore.cpp  **** #include <makestuff.h>
  22:testCore.cpp  **** #include "../unbounded_queue.h"
  23:testCore.cpp  **** 
  24:testCore.cpp  **** using namespace std;
  25:testCore.cpp  **** 
  26:testCore.cpp  **** extern "C" {
  27:testCore.cpp  **** 	static uint32 m_count = 1;
  28:testCore.cpp  **** 	static int m_allocFree = 0;
  29:testCore.cpp  **** 	uint32 *createInt(void) {
 158              		.loc 3 29 0 is_stmt 1
 159              		.cfi_startproc
 160 0000 55       		pushq	%rbp
 161              		.cfi_def_cfa_offset 16
 162              		.cfi_offset 6, -16
 163 0001 4889E5   		movq	%rsp, %rbp
 164              		.cfi_def_cfa_register 6
 165 0004 4883EC10 		subq	$16, %rsp
  30:testCore.cpp  **** 		uint32 *p;
  31:testCore.cpp  **** 		if ( m_count > 8 ) {
 166              		.loc 3 31 0
 167 0008 8B050000 		movl	_ZL7m_count(%rip), %eax
 167      0000
 168 000e 83F808   		cmpl	$8, %eax
 169 0011 7607     		jbe	.L11
  32:testCore.cpp  **** 			return NULL;  // simulate out-of-memory
 170              		.loc 3 32 0
 171 0013 B8000000 		movl	$0, %eax
 171      00
 172 0018 EB3D     		jmp	.L12
 173              	.L11:
  33:testCore.cpp  **** 		}
  34:testCore.cpp  **** 		p = (uint32 *)malloc(sizeof(uint32));
 174              		.loc 3 34 0
 175 001a BF040000 		movl	$4, %edi
 175      00
 176 001f E8000000 		call	malloc
 176      00
 177 0024 488945F8 		movq	%rax, -8(%rbp)
  35:testCore.cpp  **** 		if ( p ) {
 178              		.loc 3 35 0
 179 0028 48837DF8 		cmpq	$0, -8(%rbp)
 179      00
 180 002d 7415     		je	.L13
  36:testCore.cpp  **** 			*p = m_count++;
 181              		.loc 3 36 0
 182 002f 8B050000 		movl	_ZL7m_count(%rip), %eax
 182      0000
 183 0035 8D5001   		leal	1(%rax), %edx
 184 0038 89150000 		movl	%edx, _ZL7m_count(%rip)
 184      0000
 185 003e 488B55F8 		movq	-8(%rbp), %rdx
 186 0042 8902     		movl	%eax, (%rdx)
 187              	.L13:
  37:testCore.cpp  **** 		}
  38:testCore.cpp  **** 		m_allocFree++;
 188              		.loc 3 38 0
 189 0044 8B050000 		movl	_ZL11m_allocFree(%rip), %eax
 189      0000
 190 004a 83C001   		addl	$1, %eax
 191 004d 89050000 		movl	%eax, _ZL11m_allocFree(%rip)
 191      0000
  39:testCore.cpp  **** 		return p;
 192              		.loc 3 39 0
 193 0053 488B45F8 		movq	-8(%rbp), %rax
 194              	.L12:
  40:testCore.cpp  **** 	}
 195              		.loc 3 40 0
 196 0057 C9       		leave
 197              		.cfi_def_cfa 7, 8
 198 0058 C3       		ret
 199              		.cfi_endproc
 200              	.LFE1078:
 202              		.globl	destroyInt
 204              	destroyInt:
 205              	.LFB1079:
  41:testCore.cpp  **** 	void destroyInt(uint32 *p) {
 206              		.loc 3 41 0
 207              		.cfi_startproc
 208 0059 55       		pushq	%rbp
 209              		.cfi_def_cfa_offset 16
 210              		.cfi_offset 6, -16
 211 005a 4889E5   		movq	%rsp, %rbp
 212              		.cfi_def_cfa_register 6
 213 005d 4883EC10 		subq	$16, %rsp
 214 0061 48897DF8 		movq	%rdi, -8(%rbp)
  42:testCore.cpp  **** 		if ( p ) {
 215              		.loc 3 42 0
 216 0065 48837DF8 		cmpq	$0, -8(%rbp)
 216      00
 217 006a 741B     		je	.L16
  43:testCore.cpp  **** 			m_allocFree--;
 218              		.loc 3 43 0
 219 006c 8B050000 		movl	_ZL11m_allocFree(%rip), %eax
 219      0000
 220 0072 83E801   		subl	$1, %eax
 221 0075 89050000 		movl	%eax, _ZL11m_allocFree(%rip)
 221      0000
  44:testCore.cpp  **** 			free((void*)p);
 222              		.loc 3 44 0
 223 007b 488B45F8 		movq	-8(%rbp), %rax
 224 007f 4889C7   		movq	%rax, %rdi
 225 0082 E8000000 		call	free
 225      00
 226              	.L16:
  45:testCore.cpp  **** 		}
  46:testCore.cpp  **** 	}
 227              		.loc 3 46 0
 228 0087 90       		nop
 229 0088 C9       		leave
 230              		.cfi_def_cfa 7, 8
 231 0089 C3       		ret
 232              		.cfi_endproc
 233              	.LFE1079:
 236              	_ZL5derefPKv:
 237              	.LFB1080:
  47:testCore.cpp  **** }
  48:testCore.cpp  **** 
  49:testCore.cpp  **** static inline uint32 deref(Item p) {
 238              		.loc 3 49 0
 239              		.cfi_startproc
 240 008a 55       		pushq	%rbp
 241              		.cfi_def_cfa_offset 16
 242              		.cfi_offset 6, -16
 243 008b 4889E5   		movq	%rsp, %rbp
 244              		.cfi_def_cfa_register 6
 245 008e 48897DF8 		movq	%rdi, -8(%rbp)
  50:testCore.cpp  **** 	return *((const uint32 *)p);
 246              		.loc 3 50 0
 247 0092 488B45F8 		movq	-8(%rbp), %rax
 248 0096 8B00     		movl	(%rax), %eax
  51:testCore.cpp  **** }
 249              		.loc 3 51 0
 250 0098 5D       		popq	%rbp
 251              		.cfi_def_cfa 7, 8
 252 0099 C3       		ret
 253              		.cfi_endproc
 254              	.LFE1080:
 256              		.section	.rodata
 257              	.LC1:
 258 000d 74657374 		.string	"testCore.cpp"
 258      436F7265 
 258      2E637070 
 258      00
 259              	.LC2:
 260 001a 51756575 		.string	"Queue_testInit"
 260      655F7465 
 260      7374496E 
 260      697400
 261              		.section	.text._ZN18TestQueue_testInitC2Ev,"axG",@progbits,_ZN18TestQueue_testInitC5Ev,comdat
 262              		.align 2
 263              		.weak	_ZN18TestQueue_testInitC2Ev
 265              	_ZN18TestQueue_testInitC2Ev:
 266              	.LFB1082:
  52:testCore.cpp  **** 
  53:testCore.cpp  **** TEST(Queue_testInit) {
 267              		.loc 3 53 0
 268              		.cfi_startproc
 269 0000 55       		pushq	%rbp
 270              		.cfi_def_cfa_offset 16
 271              		.cfi_offset 6, -16
 272 0001 4889E5   		movq	%rsp, %rbp
 273              		.cfi_def_cfa_register 6
 274 0004 4883EC10 		subq	$16, %rsp
 275 0008 48897DF8 		movq	%rdi, -8(%rbp)
 276              	.LBB4:
 277              		.loc 3 53 0
 278 000c E8000000 		call	_ZN13UnitTestSuite12GetSuiteNameEv
 278      00
 279 0011 4889C2   		movq	%rax, %rdx
 280 0014 488B45F8 		movq	-8(%rbp), %rax
 281 0018 41B83500 		movl	$53, %r8d
 281      0000
 282 001e B9000000 		movl	$.LC1, %ecx
 282      00
 283 0023 BE000000 		movl	$.LC2, %esi
 283      00
 284 0028 4889C7   		movq	%rax, %rdi
 285 002b E8000000 		call	_ZN8UnitTest4TestC2EPKcS2_S2_i
 285      00
 286 0030 BA000000 		movl	$_ZTV18TestQueue_testInit+16, %edx
 286      00
 287 0035 488B45F8 		movq	-8(%rbp), %rax
 288 0039 488910   		movq	%rdx, (%rax)
 289              	.LBE4:
 290 003c 90       		nop
 291 003d C9       		leave
 292              		.cfi_def_cfa 7, 8
 293 003e C3       		ret
 294              		.cfi_endproc
 295              	.LFE1082:
 297              		.weak	_ZN18TestQueue_testInitC1Ev
 298              		.set	_ZN18TestQueue_testInitC1Ev,_ZN18TestQueue_testInitC2Ev
 299              		.globl	testQueue_testInitInstance
 300              		.bss
 301              		.align 32
 304              	testQueue_testInitInstance:
 305 0000 00000000 		.zero	56
 305      00000000 
 305      00000000 
 305      00000000 
 305      00000000 
 306              		.globl	adderQueue_testInit
 309              	adderQueue_testInit:
 310 0038 00       		.zero	1
 311              		.section	.rodata
 312 0029 00000000 		.align 8
 312      000000
 313              	.LC3:
 314 0030 556E6861 		.string	"Unhandled exception in CHECK_EQUAL(USB_SUCCESS, status)"
 314      6E646C65 
 314      64206578 
 314      63657074 
 314      696F6E20 
 315              		.align 8
 316              	.LC4:
 317 0068 556E6861 		.string	"Unhandled exception in CHECK_EQUAL(4UL, queue.capacity)"
 317      6E646C65 
 317      64206578 
 317      63657074 
 317      696F6E20 
 318              		.align 8
 319              	.LC5:
 320 00a0 556E6861 		.string	"Unhandled exception in CHECK_EQUAL(0UL, queue.putIndex)"
 320      6E646C65 
 320      64206578 
 320      63657074 
 320      696F6E20 
 321              		.align 8
 322              	.LC6:
 323 00d8 556E6861 		.string	"Unhandled exception in CHECK_EQUAL(0UL, queue.takeIndex)"
 323      6E646C65 
 323      64206578 
 323      63657074 
 323      696F6E20 
 324 0111 00000000 		.align 8
 324      000000
 325              	.LC7:
 326 0118 556E6861 		.string	"Unhandled exception in CHECK_EQUAL(0UL, queue.numItems)"
 326      6E646C65 
 326      64206578 
 326      63657074 
 326      696F6E20 
 327              		.align 8
 328              	.LC8:
 329 0150 556E6861 		.string	"Unhandled exception in CHECK_EQUAL(1UL, deref(queue.itemArray[0]))"
 329      6E646C65 
 329      64206578 
 329      63657074 
 329      696F6E20 
 330 0193 00000000 		.align 8
 330      00
 331              	.LC9:
 332 0198 556E6861 		.string	"Unhandled exception in CHECK_EQUAL(2UL, deref(queue.itemArray[1]))"
 332      6E646C65 
 332      64206578 
 332      63657074 
 332      696F6E20 
 333 01db 00000000 		.align 8
 333      00
 334              	.LC10:
 335 01e0 556E6861 		.string	"Unhandled exception in CHECK_EQUAL(3UL, deref(queue.itemArray[2]))"
 335      6E646C65 
 335      64206578 
 335      63657074 
 335      696F6E20 
 336 0223 00000000 		.align 8
 336      00
 337              	.LC11:
 338 0228 556E6861 		.string	"Unhandled exception in CHECK_EQUAL(4UL, deref(queue.itemArray[3]))"
 338      6E646C65 
 338      64206578 
 338      63657074 
 338      696F6E20 
 339              		.text
 340              		.align 2
 341              		.globl	_ZNK18TestQueue_testInit7RunImplEv
 343              	_ZNK18TestQueue_testInit7RunImplEv:
 344              	.LFB1084:
 345              		.loc 3 53 0
 346              		.cfi_startproc
 347              		.cfi_personality 0x3,__gxx_personality_v0
 348              		.cfi_lsda 0x3,.LLSDA1084
 349 009a 55       		pushq	%rbp
 350              		.cfi_def_cfa_offset 16
 351              		.cfi_offset 6, -16
 352 009b 4889E5   		movq	%rsp, %rbp
 353              		.cfi_def_cfa_register 6
 354 009e 53       		pushq	%rbx
 355 009f 4881EC88 		subq	$136, %rsp
 355      000000
 356              		.cfi_offset 3, -24
 357 00a6 4889BD78 		movq	%rdi, -136(%rbp)
 357      FFFFFF
 358              		.loc 3 53 0
 359 00ad 64488B04 		movq	%fs:40, %rax
 359      25280000 
 359      00
 360 00b6 488945E8 		movq	%rax, -24(%rbp)
 361 00ba 31C0     		xorl	%eax, %eax
  54:testCore.cpp  **** 	struct UnboundedQueue queue;
  55:testCore.cpp  **** 	m_count = 1;
 362              		.loc 3 55 0
 363 00bc C7050000 		movl	$1, _ZL7m_count(%rip)
 363      00000100 
 363      0000
  56:testCore.cpp  **** 
  57:testCore.cpp  **** 	// Create queue
  58:testCore.cpp  **** 	USBStatus status = queueInit(&queue, 4, (CreateFunc)createInt, (DestroyFunc)destroyInt);
 364              		.loc 3 58 0
 365 00c6 488D45B0 		leaq	-80(%rbp), %rax
 366 00ca B9000000 		movl	$destroyInt, %ecx
 366      00
 367 00cf BA000000 		movl	$createInt, %edx
 367      00
 368 00d4 BE040000 		movl	$4, %esi
 368      00
 369 00d9 4889C7   		movq	%rax, %rdi
 370              	.LEHB4:
 371 00dc E8000000 		call	queueInit
 371      00
 372              	.LEHE4:
 373 00e1 894580   		movl	%eax, -128(%rbp)
 374              	.LEHB5:
  59:testCore.cpp  **** 	CHECK_EQUAL(USB_SUCCESS, status);
 375              		.loc 3 59 0
 376 00e4 E8000000 		call	_ZN8UnitTest11CurrentTest7DetailsEv
 376      00
 377 00e9 488B08   		movq	(%rax), %rcx
 378 00ec 488D4590 		leaq	-112(%rbp), %rax
 379 00f0 BA3B0000 		movl	$59, %edx
 379      00
 380 00f5 4889CE   		movq	%rcx, %rsi
 381 00f8 4889C7   		movq	%rax, %rdi
 382 00fb E8000000 		call	_ZN8UnitTest11TestDetailsC1ERKS0_i
 382      00
 383              	.LEHE5:
 384              		.loc 3 59 0 is_stmt 0 discriminator 2
 385 0100 C7458800 		movl	$0, -120(%rbp)
 385      000000
 386              	.LEHB6:
 387 0107 E8000000 		call	_ZN8UnitTest11CurrentTest7ResultsEv
 387      00
 388 010c 488B00   		movq	(%rax), %rax
 389 010f 488D4D90 		leaq	-112(%rbp), %rcx
 390 0113 488D5580 		leaq	-128(%rbp), %rdx
 391 0117 488D7588 		leaq	-120(%rbp), %rsi
 392 011b 4889C7   		movq	%rax, %rdi
 393 011e E8000000 		call	_ZN8UnitTest10CheckEqualI9USBStatusS1_EEvRNS_11TestResultsERKT_RKT0_RKNS_11TestDetailsE
 393      00
 394              	.LEHE6:
 395              	.L23:
 396              	.LEHB7:
  60:testCore.cpp  **** 
  61:testCore.cpp  **** 	// Verify
  62:testCore.cpp  **** 	CHECK_EQUAL(4UL, queue.capacity);
 397              		.loc 3 62 0 is_stmt 1
 398 0123 E8000000 		call	_ZN8UnitTest11CurrentTest7DetailsEv
 398      00
 399 0128 488B08   		movq	(%rax), %rcx
 400 012b 488D4590 		leaq	-112(%rbp), %rax
 401 012f BA3E0000 		movl	$62, %edx
 401      00
 402 0134 4889CE   		movq	%rcx, %rsi
 403 0137 4889C7   		movq	%rax, %rdi
 404 013a E8000000 		call	_ZN8UnitTest11TestDetailsC1ERKS0_i
 404      00
 405              	.LEHE7:
 406              		.loc 3 62 0 is_stmt 0 discriminator 2
 407 013f 48C74588 		movq	$4, -120(%rbp)
 407      04000000 
 408              	.LEHB8:
 409 0147 E8000000 		call	_ZN8UnitTest11CurrentTest7ResultsEv
 409      00
 410 014c 488B00   		movq	(%rax), %rax
 411 014f 488D5590 		leaq	-112(%rbp), %rdx
 412 0153 488D4DB0 		leaq	-80(%rbp), %rcx
 413 0157 488D7908 		leaq	8(%rcx), %rdi
 414 015b 488D7588 		leaq	-120(%rbp), %rsi
 415 015f 4889D1   		movq	%rdx, %rcx
 416 0162 4889FA   		movq	%rdi, %rdx
 417 0165 4889C7   		movq	%rax, %rdi
 418 0168 E8000000 		call	_ZN8UnitTest10CheckEqualImmEEvRNS_11TestResultsERKT_RKT0_RKNS_11TestDetailsE
 418      00
 419              	.LEHE8:
 420              	.L27:
 421              	.LEHB9:
  63:testCore.cpp  **** 	CHECK_EQUAL(0UL, queue.putIndex);
 422              		.loc 3 63 0 is_stmt 1
 423 016d E8000000 		call	_ZN8UnitTest11CurrentTest7DetailsEv
 423      00
 424 0172 488B08   		movq	(%rax), %rcx
 425 0175 488D4590 		leaq	-112(%rbp), %rax
 426 0179 BA3F0000 		movl	$63, %edx
 426      00
 427 017e 4889CE   		movq	%rcx, %rsi
 428 0181 4889C7   		movq	%rax, %rdi
 429 0184 E8000000 		call	_ZN8UnitTest11TestDetailsC1ERKS0_i
 429      00
 430              	.LEHE9:
 431              		.loc 3 63 0 is_stmt 0 discriminator 2
 432 0189 48C74588 		movq	$0, -120(%rbp)
 432      00000000 
 433              	.LEHB10:
 434 0191 E8000000 		call	_ZN8UnitTest11CurrentTest7ResultsEv
 434      00
 435 0196 488B00   		movq	(%rax), %rax
 436 0199 488D5590 		leaq	-112(%rbp), %rdx
 437 019d 488D4DB0 		leaq	-80(%rbp), %rcx
 438 01a1 488D7910 		leaq	16(%rcx), %rdi
 439 01a5 488D7588 		leaq	-120(%rbp), %rsi
 440 01a9 4889D1   		movq	%rdx, %rcx
 441 01ac 4889FA   		movq	%rdi, %rdx
 442 01af 4889C7   		movq	%rax, %rdi
 443 01b2 E8000000 		call	_ZN8UnitTest10CheckEqualImmEEvRNS_11TestResultsERKT_RKT0_RKNS_11TestDetailsE
 443      00
 444              	.LEHE10:
 445              	.L31:
 446              	.LEHB11:
  64:testCore.cpp  **** 	CHECK_EQUAL(0UL, queue.takeIndex);
 447              		.loc 3 64 0 is_stmt 1
 448 01b7 E8000000 		call	_ZN8UnitTest11CurrentTest7DetailsEv
 448      00
 449 01bc 488B08   		movq	(%rax), %rcx
 450 01bf 488D4590 		leaq	-112(%rbp), %rax
 451 01c3 BA400000 		movl	$64, %edx
 451      00
 452 01c8 4889CE   		movq	%rcx, %rsi
 453 01cb 4889C7   		movq	%rax, %rdi
 454 01ce E8000000 		call	_ZN8UnitTest11TestDetailsC1ERKS0_i
 454      00
 455              	.LEHE11:
 456              		.loc 3 64 0 is_stmt 0 discriminator 2
 457 01d3 48C74588 		movq	$0, -120(%rbp)
 457      00000000 
 458              	.LEHB12:
 459 01db E8000000 		call	_ZN8UnitTest11CurrentTest7ResultsEv
 459      00
 460 01e0 488B00   		movq	(%rax), %rax
 461 01e3 488D5590 		leaq	-112(%rbp), %rdx
 462 01e7 488D4DB0 		leaq	-80(%rbp), %rcx
 463 01eb 488D7918 		leaq	24(%rcx), %rdi
 464 01ef 488D7588 		leaq	-120(%rbp), %rsi
 465 01f3 4889D1   		movq	%rdx, %rcx
 466 01f6 4889FA   		movq	%rdi, %rdx
 467 01f9 4889C7   		movq	%rax, %rdi
 468 01fc E8000000 		call	_ZN8UnitTest10CheckEqualImmEEvRNS_11TestResultsERKT_RKT0_RKNS_11TestDetailsE
 468      00
 469              	.LEHE12:
 470              	.L35:
 471              	.LEHB13:
  65:testCore.cpp  **** 	CHECK_EQUAL(0UL, queue.numItems);
 472              		.loc 3 65 0 is_stmt 1
 473 0201 E8000000 		call	_ZN8UnitTest11CurrentTest7DetailsEv
 473      00
 474 0206 488B08   		movq	(%rax), %rcx
 475 0209 488D4590 		leaq	-112(%rbp), %rax
 476 020d BA410000 		movl	$65, %edx
 476      00
 477 0212 4889CE   		movq	%rcx, %rsi
 478 0215 4889C7   		movq	%rax, %rdi
 479 0218 E8000000 		call	_ZN8UnitTest11TestDetailsC1ERKS0_i
 479      00
 480              	.LEHE13:
 481              		.loc 3 65 0 is_stmt 0 discriminator 2
 482 021d 48C74588 		movq	$0, -120(%rbp)
 482      00000000 
 483              	.LEHB14:
 484 0225 E8000000 		call	_ZN8UnitTest11CurrentTest7ResultsEv
 484      00
 485 022a 488B00   		movq	(%rax), %rax
 486 022d 488D5590 		leaq	-112(%rbp), %rdx
 487 0231 488D4DB0 		leaq	-80(%rbp), %rcx
 488 0235 488D7920 		leaq	32(%rcx), %rdi
 489 0239 488D7588 		leaq	-120(%rbp), %rsi
 490 023d 4889D1   		movq	%rdx, %rcx
 491 0240 4889FA   		movq	%rdi, %rdx
 492 0243 4889C7   		movq	%rax, %rdi
 493 0246 E8000000 		call	_ZN8UnitTest10CheckEqualImmEEvRNS_11TestResultsERKT_RKT0_RKNS_11TestDetailsE
 493      00
 494              	.LEHE14:
 495              	.L39:
 496              	.LEHB15:
  66:testCore.cpp  **** 
  67:testCore.cpp  **** 	// Verify array
  68:testCore.cpp  **** 	CHECK_EQUAL(1UL, deref(queue.itemArray[0]));
 497              		.loc 3 68 0 is_stmt 1
 498 024b E8000000 		call	_ZN8UnitTest11CurrentTest7DetailsEv
 498      00
 499 0250 488B08   		movq	(%rax), %rcx
 500 0253 488D4590 		leaq	-112(%rbp), %rax
 501 0257 BA440000 		movl	$68, %edx
 501      00
 502 025c 4889CE   		movq	%rcx, %rsi
 503 025f 4889C7   		movq	%rax, %rdi
 504 0262 E8000000 		call	_ZN8UnitTest11TestDetailsC1ERKS0_i
 504      00
 505              	.LEHE15:
 506              		.loc 3 68 0 is_stmt 0 discriminator 2
 507 0267 488B45B0 		movq	-80(%rbp), %rax
 508 026b 488B00   		movq	(%rax), %rax
 509 026e 4889C7   		movq	%rax, %rdi
 510 0271 E814FEFF 		call	_ZL5derefPKv
 510      FF
 511 0276 894584   		movl	%eax, -124(%rbp)
 512 0279 48C74588 		movq	$1, -120(%rbp)
 512      01000000 
 513              	.LEHB16:
 514 0281 E8000000 		call	_ZN8UnitTest11CurrentTest7ResultsEv
 514      00
 515 0286 488B00   		movq	(%rax), %rax
 516 0289 488D4D90 		leaq	-112(%rbp), %rcx
 517 028d 488D5584 		leaq	-124(%rbp), %rdx
 518 0291 488D7588 		leaq	-120(%rbp), %rsi
 519 0295 4889C7   		movq	%rax, %rdi
 520 0298 E8000000 		call	_ZN8UnitTest10CheckEqualImjEEvRNS_11TestResultsERKT_RKT0_RKNS_11TestDetailsE
 520      00
 521              	.LEHE16:
 522              	.L43:
 523              	.LEHB17:
  69:testCore.cpp  **** 	CHECK_EQUAL(2UL, deref(queue.itemArray[1]));
 524              		.loc 3 69 0 is_stmt 1
 525 029d E8000000 		call	_ZN8UnitTest11CurrentTest7DetailsEv
 525      00
 526 02a2 488B08   		movq	(%rax), %rcx
 527 02a5 488D4590 		leaq	-112(%rbp), %rax
 528 02a9 BA450000 		movl	$69, %edx
 528      00
 529 02ae 4889CE   		movq	%rcx, %rsi
 530 02b1 4889C7   		movq	%rax, %rdi
 531 02b4 E8000000 		call	_ZN8UnitTest11TestDetailsC1ERKS0_i
 531      00
 532              	.LEHE17:
 533              		.loc 3 69 0 is_stmt 0 discriminator 2
 534 02b9 488B45B0 		movq	-80(%rbp), %rax
 535 02bd 4883C008 		addq	$8, %rax
 536 02c1 488B00   		movq	(%rax), %rax
 537 02c4 4889C7   		movq	%rax, %rdi
 538 02c7 E8BEFDFF 		call	_ZL5derefPKv
 538      FF
 539 02cc 894584   		movl	%eax, -124(%rbp)
 540 02cf 48C74588 		movq	$2, -120(%rbp)
 540      02000000 
 541              	.LEHB18:
 542 02d7 E8000000 		call	_ZN8UnitTest11CurrentTest7ResultsEv
 542      00
 543 02dc 488B00   		movq	(%rax), %rax
 544 02df 488D4D90 		leaq	-112(%rbp), %rcx
 545 02e3 488D5584 		leaq	-124(%rbp), %rdx
 546 02e7 488D7588 		leaq	-120(%rbp), %rsi
 547 02eb 4889C7   		movq	%rax, %rdi
 548 02ee E8000000 		call	_ZN8UnitTest10CheckEqualImjEEvRNS_11TestResultsERKT_RKT0_RKNS_11TestDetailsE
 548      00
 549              	.LEHE18:
 550              	.L47:
 551              	.LEHB19:
  70:testCore.cpp  **** 	CHECK_EQUAL(3UL, deref(queue.itemArray[2]));
 552              		.loc 3 70 0 is_stmt 1
 553 02f3 E8000000 		call	_ZN8UnitTest11CurrentTest7DetailsEv
 553      00
 554 02f8 488B08   		movq	(%rax), %rcx
 555 02fb 488D4590 		leaq	-112(%rbp), %rax
 556 02ff BA460000 		movl	$70, %edx
 556      00
 557 0304 4889CE   		movq	%rcx, %rsi
 558 0307 4889C7   		movq	%rax, %rdi
 559 030a E8000000 		call	_ZN8UnitTest11TestDetailsC1ERKS0_i
 559      00
 560              	.LEHE19:
 561              		.loc 3 70 0 is_stmt 0 discriminator 2
 562 030f 488B45B0 		movq	-80(%rbp), %rax
 563 0313 4883C010 		addq	$16, %rax
 564 0317 488B00   		movq	(%rax), %rax
 565 031a 4889C7   		movq	%rax, %rdi
 566 031d E868FDFF 		call	_ZL5derefPKv
 566      FF
 567 0322 894584   		movl	%eax, -124(%rbp)
 568 0325 48C74588 		movq	$3, -120(%rbp)
 568      03000000 
 569              	.LEHB20:
 570 032d E8000000 		call	_ZN8UnitTest11CurrentTest7ResultsEv
 570      00
 571 0332 488B00   		movq	(%rax), %rax
 572 0335 488D4D90 		leaq	-112(%rbp), %rcx
 573 0339 488D5584 		leaq	-124(%rbp), %rdx
 574 033d 488D7588 		leaq	-120(%rbp), %rsi
 575 0341 4889C7   		movq	%rax, %rdi
 576 0344 E8000000 		call	_ZN8UnitTest10CheckEqualImjEEvRNS_11TestResultsERKT_RKT0_RKNS_11TestDetailsE
 576      00
 577              	.LEHE20:
 578              	.L51:
 579              	.LEHB21:
  71:testCore.cpp  **** 	CHECK_EQUAL(4UL, deref(queue.itemArray[3]));
 580              		.loc 3 71 0 is_stmt 1
 581 0349 E8000000 		call	_ZN8UnitTest11CurrentTest7DetailsEv
 581      00
 582 034e 488B08   		movq	(%rax), %rcx
 583 0351 488D4590 		leaq	-112(%rbp), %rax
 584 0355 BA470000 		movl	$71, %edx
 584      00
 585 035a 4889CE   		movq	%rcx, %rsi
 586 035d 4889C7   		movq	%rax, %rdi
 587 0360 E8000000 		call	_ZN8UnitTest11TestDetailsC1ERKS0_i
 587      00
 588              	.LEHE21:
 589              		.loc 3 71 0 is_stmt 0 discriminator 2
 590 0365 488B45B0 		movq	-80(%rbp), %rax
 591 0369 4883C018 		addq	$24, %rax
 592 036d 488B00   		movq	(%rax), %rax
 593 0370 4889C7   		movq	%rax, %rdi
 594 0373 E812FDFF 		call	_ZL5derefPKv
 594      FF
 595 0378 894584   		movl	%eax, -124(%rbp)
 596 037b 48C74588 		movq	$4, -120(%rbp)
 596      04000000 
 597              	.LEHB22:
 598 0383 E8000000 		call	_ZN8UnitTest11CurrentTest7ResultsEv
 598      00
 599 0388 488B00   		movq	(%rax), %rax
 600 038b 488D4D90 		leaq	-112(%rbp), %rcx
 601 038f 488D5584 		leaq	-124(%rbp), %rdx
 602 0393 488D7588 		leaq	-120(%rbp), %rsi
 603 0397 4889C7   		movq	%rax, %rdi
 604 039a E8000000 		call	_ZN8UnitTest10CheckEqualImjEEvRNS_11TestResultsERKT_RKT0_RKNS_11TestDetailsE
 604      00
 605              	.LEHE22:
 606              	.L55:
  72:testCore.cpp  **** 
  73:testCore.cpp  **** 	// Clean up
  74:testCore.cpp  **** 	queueDestroy(&queue);
 607              		.loc 3 74 0 is_stmt 1
 608 039f 488D45B0 		leaq	-80(%rbp), %rax
 609 03a3 4889C7   		movq	%rax, %rdi
 610              	.LEHB23:
 611 03a6 E8000000 		call	queueDestroy
 611      00
 612              	.LEHE23:
  75:testCore.cpp  **** }
 613              		.loc 3 75 0
 614 03ab 90       		nop
 615 03ac 488B45E8 		movq	-24(%rbp), %rax
 616 03b0 64483304 		xorq	%fs:40, %rax
 616      25280000 
 616      00
 617 03b9 0F846103 		je	.L57
 617      0000
 618 03bf E9570300 		jmp	.L85
 618      00
 619              	.L59:
 620 03c4 EB00     		jmp	.L22
 621              	.L58:
 622              	.L22:
  59:testCore.cpp  **** 
 623              		.loc 3 59 0
 624 03c6 4889C7   		movq	%rax, %rdi
 625 03c9 E8000000 		call	__cxa_begin_catch
 625      00
 626              	.LEHB24:
 627 03ce E8000000 		call	_ZN8UnitTest11CurrentTest7DetailsEv
 627      00
 628 03d3 488B08   		movq	(%rax), %rcx
 629 03d6 488D4590 		leaq	-112(%rbp), %rax
 630 03da BA3B0000 		movl	$59, %edx
 630      00
 631 03df 4889CE   		movq	%rcx, %rsi
 632 03e2 4889C7   		movq	%rax, %rdi
 633 03e5 E8000000 		call	_ZN8UnitTest11TestDetailsC1ERKS0_i
 633      00
  59:testCore.cpp  **** 
 634              		.loc 3 59 0 is_stmt 0 discriminator 10
 635 03ea E8000000 		call	_ZN8UnitTest11CurrentTest7ResultsEv
 635      00
 636 03ef 488B00   		movq	(%rax), %rax
 637 03f2 488D4D90 		leaq	-112(%rbp), %rcx
 638 03f6 BA000000 		movl	$.LC3, %edx
 638      00
 639 03fb 4889CE   		movq	%rcx, %rsi
 640 03fe 4889C7   		movq	%rax, %rdi
 641 0401 E8000000 		call	_ZN8UnitTest11TestResults13OnTestFailureERKNS_11TestDetailsEPKc
 641      00
 642              	.LEHE24:
 643              	.LEHB25:
  59:testCore.cpp  **** 
 644              		.loc 3 59 0 discriminator 14
 645 0406 E8000000 		call	__cxa_end_catch
 645      00
 646              	.LEHE25:
 647 040b E913FDFF 		jmp	.L23
 647      FF
 648              	.L60:
 649 0410 4889C3   		movq	%rax, %rbx
  59:testCore.cpp  **** 
 650              		.loc 3 59 0
 651 0413 E8000000 		call	__cxa_end_catch
 651      00
 652 0418 4889D8   		movq	%rbx, %rax
 653 041b 4889C7   		movq	%rax, %rdi
 654              	.LEHB26:
 655 041e E8000000 		call	_Unwind_Resume
 655      00
 656              	.LEHE26:
 657              	.L62:
 658 0423 EB00     		jmp	.L26
 659              	.L61:
 660              	.L26:
  62:testCore.cpp  **** 	CHECK_EQUAL(0UL, queue.putIndex);
 661              		.loc 3 62 0 is_stmt 1
 662 0425 4889C7   		movq	%rax, %rdi
 663 0428 E8000000 		call	__cxa_begin_catch
 663      00
 664              	.LEHB27:
 665 042d E8000000 		call	_ZN8UnitTest11CurrentTest7DetailsEv
 665      00
 666 0432 488B08   		movq	(%rax), %rcx
 667 0435 488D4590 		leaq	-112(%rbp), %rax
 668 0439 BA3E0000 		movl	$62, %edx
 668      00
 669 043e 4889CE   		movq	%rcx, %rsi
 670 0441 4889C7   		movq	%rax, %rdi
 671 0444 E8000000 		call	_ZN8UnitTest11TestDetailsC1ERKS0_i
 671      00
  62:testCore.cpp  **** 	CHECK_EQUAL(0UL, queue.putIndex);
 672              		.loc 3 62 0 is_stmt 0 discriminator 10
 673 0449 E8000000 		call	_ZN8UnitTest11CurrentTest7ResultsEv
 673      00
 674 044e 488B00   		movq	(%rax), %rax
 675 0451 488D4D90 		leaq	-112(%rbp), %rcx
 676 0455 BA000000 		movl	$.LC4, %edx
 676      00
 677 045a 4889CE   		movq	%rcx, %rsi
 678 045d 4889C7   		movq	%rax, %rdi
 679 0460 E8000000 		call	_ZN8UnitTest11TestResults13OnTestFailureERKNS_11TestDetailsEPKc
 679      00
 680              	.LEHE27:
 681              	.LEHB28:
  62:testCore.cpp  **** 	CHECK_EQUAL(0UL, queue.putIndex);
 682              		.loc 3 62 0 discriminator 14
 683 0465 E8000000 		call	__cxa_end_catch
 683      00
 684              	.LEHE28:
 685 046a E9FEFCFF 		jmp	.L27
 685      FF
 686              	.L63:
 687 046f 4889C3   		movq	%rax, %rbx
  62:testCore.cpp  **** 	CHECK_EQUAL(0UL, queue.putIndex);
 688              		.loc 3 62 0
 689 0472 E8000000 		call	__cxa_end_catch
 689      00
 690 0477 4889D8   		movq	%rbx, %rax
 691 047a 4889C7   		movq	%rax, %rdi
 692              	.LEHB29:
 693 047d E8000000 		call	_Unwind_Resume
 693      00
 694              	.LEHE29:
 695              	.L65:
 696 0482 EB00     		jmp	.L30
 697              	.L64:
 698              	.L30:
  63:testCore.cpp  **** 	CHECK_EQUAL(0UL, queue.takeIndex);
 699              		.loc 3 63 0 is_stmt 1
 700 0484 4889C7   		movq	%rax, %rdi
 701 0487 E8000000 		call	__cxa_begin_catch
 701      00
 702              	.LEHB30:
 703 048c E8000000 		call	_ZN8UnitTest11CurrentTest7DetailsEv
 703      00
 704 0491 488B08   		movq	(%rax), %rcx
 705 0494 488D4590 		leaq	-112(%rbp), %rax
 706 0498 BA3F0000 		movl	$63, %edx
 706      00
 707 049d 4889CE   		movq	%rcx, %rsi
 708 04a0 4889C7   		movq	%rax, %rdi
 709 04a3 E8000000 		call	_ZN8UnitTest11TestDetailsC1ERKS0_i
 709      00
  63:testCore.cpp  **** 	CHECK_EQUAL(0UL, queue.takeIndex);
 710              		.loc 3 63 0 is_stmt 0 discriminator 10
 711 04a8 E8000000 		call	_ZN8UnitTest11CurrentTest7ResultsEv
 711      00
 712 04ad 488B00   		movq	(%rax), %rax
 713 04b0 488D4D90 		leaq	-112(%rbp), %rcx
 714 04b4 BA000000 		movl	$.LC5, %edx
 714      00
 715 04b9 4889CE   		movq	%rcx, %rsi
 716 04bc 4889C7   		movq	%rax, %rdi
 717 04bf E8000000 		call	_ZN8UnitTest11TestResults13OnTestFailureERKNS_11TestDetailsEPKc
 717      00
 718              	.LEHE30:
 719              	.LEHB31:
  63:testCore.cpp  **** 	CHECK_EQUAL(0UL, queue.takeIndex);
 720              		.loc 3 63 0 discriminator 14
 721 04c4 E8000000 		call	__cxa_end_catch
 721      00
 722              	.LEHE31:
 723 04c9 E9E9FCFF 		jmp	.L31
 723      FF
 724              	.L66:
 725 04ce 4889C3   		movq	%rax, %rbx
  63:testCore.cpp  **** 	CHECK_EQUAL(0UL, queue.takeIndex);
 726              		.loc 3 63 0
 727 04d1 E8000000 		call	__cxa_end_catch
 727      00
 728 04d6 4889D8   		movq	%rbx, %rax
 729 04d9 4889C7   		movq	%rax, %rdi
 730              	.LEHB32:
 731 04dc E8000000 		call	_Unwind_Resume
 731      00
 732              	.LEHE32:
 733              	.L68:
 734 04e1 EB00     		jmp	.L34
 735              	.L67:
 736              	.L34:
  64:testCore.cpp  **** 	CHECK_EQUAL(0UL, queue.numItems);
 737              		.loc 3 64 0 is_stmt 1
 738 04e3 4889C7   		movq	%rax, %rdi
 739 04e6 E8000000 		call	__cxa_begin_catch
 739      00
 740              	.LEHB33:
 741 04eb E8000000 		call	_ZN8UnitTest11CurrentTest7DetailsEv
 741      00
 742 04f0 488B08   		movq	(%rax), %rcx
 743 04f3 488D4590 		leaq	-112(%rbp), %rax
 744 04f7 BA400000 		movl	$64, %edx
 744      00
 745 04fc 4889CE   		movq	%rcx, %rsi
 746 04ff 4889C7   		movq	%rax, %rdi
 747 0502 E8000000 		call	_ZN8UnitTest11TestDetailsC1ERKS0_i
 747      00
  64:testCore.cpp  **** 	CHECK_EQUAL(0UL, queue.numItems);
 748              		.loc 3 64 0 is_stmt 0 discriminator 10
 749 0507 E8000000 		call	_ZN8UnitTest11CurrentTest7ResultsEv
 749      00
 750 050c 488B00   		movq	(%rax), %rax
 751 050f 488D4D90 		leaq	-112(%rbp), %rcx
 752 0513 BA000000 		movl	$.LC6, %edx
 752      00
 753 0518 4889CE   		movq	%rcx, %rsi
 754 051b 4889C7   		movq	%rax, %rdi
 755 051e E8000000 		call	_ZN8UnitTest11TestResults13OnTestFailureERKNS_11TestDetailsEPKc
 755      00
 756              	.LEHE33:
 757              	.LEHB34:
  64:testCore.cpp  **** 	CHECK_EQUAL(0UL, queue.numItems);
 758              		.loc 3 64 0 discriminator 14
 759 0523 E8000000 		call	__cxa_end_catch
 759      00
 760              	.LEHE34:
 761 0528 E9D4FCFF 		jmp	.L35
 761      FF
 762              	.L69:
 763 052d 4889C3   		movq	%rax, %rbx
  64:testCore.cpp  **** 	CHECK_EQUAL(0UL, queue.numItems);
 764              		.loc 3 64 0
 765 0530 E8000000 		call	__cxa_end_catch
 765      00
 766 0535 4889D8   		movq	%rbx, %rax
 767 0538 4889C7   		movq	%rax, %rdi
 768              	.LEHB35:
 769 053b E8000000 		call	_Unwind_Resume
 769      00
 770              	.LEHE35:
 771              	.L71:
 772 0540 EB00     		jmp	.L38
 773              	.L70:
 774              	.L38:
  65:testCore.cpp  **** 
 775              		.loc 3 65 0 is_stmt 1
 776 0542 4889C7   		movq	%rax, %rdi
 777 0545 E8000000 		call	__cxa_begin_catch
 777      00
 778              	.LEHB36:
 779 054a E8000000 		call	_ZN8UnitTest11CurrentTest7DetailsEv
 779      00
 780 054f 488B08   		movq	(%rax), %rcx
 781 0552 488D4590 		leaq	-112(%rbp), %rax
 782 0556 BA410000 		movl	$65, %edx
 782      00
 783 055b 4889CE   		movq	%rcx, %rsi
 784 055e 4889C7   		movq	%rax, %rdi
 785 0561 E8000000 		call	_ZN8UnitTest11TestDetailsC1ERKS0_i
 785      00
  65:testCore.cpp  **** 
 786              		.loc 3 65 0 is_stmt 0 discriminator 10
 787 0566 E8000000 		call	_ZN8UnitTest11CurrentTest7ResultsEv
 787      00
 788 056b 488B00   		movq	(%rax), %rax
 789 056e 488D4D90 		leaq	-112(%rbp), %rcx
 790 0572 BA000000 		movl	$.LC7, %edx
 790      00
 791 0577 4889CE   		movq	%rcx, %rsi
 792 057a 4889C7   		movq	%rax, %rdi
 793 057d E8000000 		call	_ZN8UnitTest11TestResults13OnTestFailureERKNS_11TestDetailsEPKc
 793      00
 794              	.LEHE36:
 795              	.LEHB37:
  65:testCore.cpp  **** 
 796              		.loc 3 65 0 discriminator 14
 797 0582 E8000000 		call	__cxa_end_catch
 797      00
 798              	.LEHE37:
 799 0587 E9BFFCFF 		jmp	.L39
 799      FF
 800              	.L72:
 801 058c 4889C3   		movq	%rax, %rbx
  65:testCore.cpp  **** 
 802              		.loc 3 65 0
 803 058f E8000000 		call	__cxa_end_catch
 803      00
 804 0594 4889D8   		movq	%rbx, %rax
 805 0597 4889C7   		movq	%rax, %rdi
 806              	.LEHB38:
 807 059a E8000000 		call	_Unwind_Resume
 807      00
 808              	.LEHE38:
 809              	.L74:
 810 059f EB00     		jmp	.L42
 811              	.L73:
 812              	.L42:
  68:testCore.cpp  **** 	CHECK_EQUAL(2UL, deref(queue.itemArray[1]));
 813              		.loc 3 68 0 is_stmt 1
 814 05a1 4889C7   		movq	%rax, %rdi
 815 05a4 E8000000 		call	__cxa_begin_catch
 815      00
 816              	.LEHB39:
 817 05a9 E8000000 		call	_ZN8UnitTest11CurrentTest7DetailsEv
 817      00
 818 05ae 488B08   		movq	(%rax), %rcx
 819 05b1 488D4590 		leaq	-112(%rbp), %rax
 820 05b5 BA440000 		movl	$68, %edx
 820      00
 821 05ba 4889CE   		movq	%rcx, %rsi
 822 05bd 4889C7   		movq	%rax, %rdi
 823 05c0 E8000000 		call	_ZN8UnitTest11TestDetailsC1ERKS0_i
 823      00
  68:testCore.cpp  **** 	CHECK_EQUAL(2UL, deref(queue.itemArray[1]));
 824              		.loc 3 68 0 is_stmt 0 discriminator 10
 825 05c5 E8000000 		call	_ZN8UnitTest11CurrentTest7ResultsEv
 825      00
 826 05ca 488B00   		movq	(%rax), %rax
 827 05cd 488D4D90 		leaq	-112(%rbp), %rcx
 828 05d1 BA000000 		movl	$.LC8, %edx
 828      00
 829 05d6 4889CE   		movq	%rcx, %rsi
 830 05d9 4889C7   		movq	%rax, %rdi
 831 05dc E8000000 		call	_ZN8UnitTest11TestResults13OnTestFailureERKNS_11TestDetailsEPKc
 831      00
 832              	.LEHE39:
 833              	.LEHB40:
  68:testCore.cpp  **** 	CHECK_EQUAL(2UL, deref(queue.itemArray[1]));
 834              		.loc 3 68 0 discriminator 14
 835 05e1 E8000000 		call	__cxa_end_catch
 835      00
 836              	.LEHE40:
 837 05e6 E9B2FCFF 		jmp	.L43
 837      FF
 838              	.L75:
 839 05eb 4889C3   		movq	%rax, %rbx
  68:testCore.cpp  **** 	CHECK_EQUAL(2UL, deref(queue.itemArray[1]));
 840              		.loc 3 68 0
 841 05ee E8000000 		call	__cxa_end_catch
 841      00
 842 05f3 4889D8   		movq	%rbx, %rax
 843 05f6 4889C7   		movq	%rax, %rdi
 844              	.LEHB41:
 845 05f9 E8000000 		call	_Unwind_Resume
 845      00
 846              	.LEHE41:
 847              	.L77:
 848 05fe EB00     		jmp	.L46
 849              	.L76:
 850              	.L46:
  69:testCore.cpp  **** 	CHECK_EQUAL(3UL, deref(queue.itemArray[2]));
 851              		.loc 3 69 0 is_stmt 1
 852 0600 4889C7   		movq	%rax, %rdi
 853 0603 E8000000 		call	__cxa_begin_catch
 853      00
 854              	.LEHB42:
 855 0608 E8000000 		call	_ZN8UnitTest11CurrentTest7DetailsEv
 855      00
 856 060d 488B08   		movq	(%rax), %rcx
 857 0610 488D4590 		leaq	-112(%rbp), %rax
 858 0614 BA450000 		movl	$69, %edx
 858      00
 859 0619 4889CE   		movq	%rcx, %rsi
 860 061c 4889C7   		movq	%rax, %rdi
 861 061f E8000000 		call	_ZN8UnitTest11TestDetailsC1ERKS0_i
 861      00
  69:testCore.cpp  **** 	CHECK_EQUAL(3UL, deref(queue.itemArray[2]));
 862              		.loc 3 69 0 is_stmt 0 discriminator 10
 863 0624 E8000000 		call	_ZN8UnitTest11CurrentTest7ResultsEv
 863      00
 864 0629 488B00   		movq	(%rax), %rax
 865 062c 488D4D90 		leaq	-112(%rbp), %rcx
 866 0630 BA000000 		movl	$.LC9, %edx
 866      00
 867 0635 4889CE   		movq	%rcx, %rsi
 868 0638 4889C7   		movq	%rax, %rdi
 869 063b E8000000 		call	_ZN8UnitTest11TestResults13OnTestFailureERKNS_11TestDetailsEPKc
 869      00
 870              	.LEHE42:
 871              	.LEHB43:
  69:testCore.cpp  **** 	CHECK_EQUAL(3UL, deref(queue.itemArray[2]));
 872              		.loc 3 69 0 discriminator 14
 873 0640 E8000000 		call	__cxa_end_catch
 873      00
 874              	.LEHE43:
 875 0645 E9A9FCFF 		jmp	.L47
 875      FF
 876              	.L78:
 877 064a 4889C3   		movq	%rax, %rbx
  69:testCore.cpp  **** 	CHECK_EQUAL(3UL, deref(queue.itemArray[2]));
 878              		.loc 3 69 0
 879 064d E8000000 		call	__cxa_end_catch
 879      00
 880 0652 4889D8   		movq	%rbx, %rax
 881 0655 4889C7   		movq	%rax, %rdi
 882              	.LEHB44:
 883 0658 E8000000 		call	_Unwind_Resume
 883      00
 884              	.LEHE44:
 885              	.L80:
 886 065d EB00     		jmp	.L50
 887              	.L79:
 888              	.L50:
  70:testCore.cpp  **** 	CHECK_EQUAL(4UL, deref(queue.itemArray[3]));
 889              		.loc 3 70 0 is_stmt 1
 890 065f 4889C7   		movq	%rax, %rdi
 891 0662 E8000000 		call	__cxa_begin_catch
 891      00
 892              	.LEHB45:
 893 0667 E8000000 		call	_ZN8UnitTest11CurrentTest7DetailsEv
 893      00
 894 066c 488B08   		movq	(%rax), %rcx
 895 066f 488D4590 		leaq	-112(%rbp), %rax
 896 0673 BA460000 		movl	$70, %edx
 896      00
 897 0678 4889CE   		movq	%rcx, %rsi
 898 067b 4889C7   		movq	%rax, %rdi
 899 067e E8000000 		call	_ZN8UnitTest11TestDetailsC1ERKS0_i
 899      00
  70:testCore.cpp  **** 	CHECK_EQUAL(4UL, deref(queue.itemArray[3]));
 900              		.loc 3 70 0 is_stmt 0 discriminator 10
 901 0683 E8000000 		call	_ZN8UnitTest11CurrentTest7ResultsEv
 901      00
 902 0688 488B00   		movq	(%rax), %rax
 903 068b 488D4D90 		leaq	-112(%rbp), %rcx
 904 068f BA000000 		movl	$.LC10, %edx
 904      00
 905 0694 4889CE   		movq	%rcx, %rsi
 906 0697 4889C7   		movq	%rax, %rdi
 907 069a E8000000 		call	_ZN8UnitTest11TestResults13OnTestFailureERKNS_11TestDetailsEPKc
 907      00
 908              	.LEHE45:
 909              	.LEHB46:
  70:testCore.cpp  **** 	CHECK_EQUAL(4UL, deref(queue.itemArray[3]));
 910              		.loc 3 70 0 discriminator 14
 911 069f E8000000 		call	__cxa_end_catch
 911      00
 912              	.LEHE46:
 913 06a4 E9A0FCFF 		jmp	.L51
 913      FF
 914              	.L81:
 915 06a9 4889C3   		movq	%rax, %rbx
  70:testCore.cpp  **** 	CHECK_EQUAL(4UL, deref(queue.itemArray[3]));
 916              		.loc 3 70 0
 917 06ac E8000000 		call	__cxa_end_catch
 917      00
 918 06b1 4889D8   		movq	%rbx, %rax
 919 06b4 4889C7   		movq	%rax, %rdi
 920              	.LEHB47:
 921 06b7 E8000000 		call	_Unwind_Resume
 921      00
 922              	.LEHE47:
 923              	.L83:
 924 06bc EB00     		jmp	.L54
 925              	.L82:
 926              	.L54:
  71:testCore.cpp  **** 
 927              		.loc 3 71 0 is_stmt 1
 928 06be 4889C7   		movq	%rax, %rdi
 929 06c1 E8000000 		call	__cxa_begin_catch
 929      00
 930              	.LEHB48:
 931 06c6 E8000000 		call	_ZN8UnitTest11CurrentTest7DetailsEv
 931      00
 932 06cb 488B08   		movq	(%rax), %rcx
 933 06ce 488D4590 		leaq	-112(%rbp), %rax
 934 06d2 BA470000 		movl	$71, %edx
 934      00
 935 06d7 4889CE   		movq	%rcx, %rsi
 936 06da 4889C7   		movq	%rax, %rdi
 937 06dd E8000000 		call	_ZN8UnitTest11TestDetailsC1ERKS0_i
 937      00
  71:testCore.cpp  **** 
 938              		.loc 3 71 0 is_stmt 0 discriminator 10
 939 06e2 E8000000 		call	_ZN8UnitTest11CurrentTest7ResultsEv
 939      00
 940 06e7 488B00   		movq	(%rax), %rax
 941 06ea 488D4D90 		leaq	-112(%rbp), %rcx
 942 06ee BA000000 		movl	$.LC11, %edx
 942      00
 943 06f3 4889CE   		movq	%rcx, %rsi
 944 06f6 4889C7   		movq	%rax, %rdi
 945 06f9 E8000000 		call	_ZN8UnitTest11TestResults13OnTestFailureERKNS_11TestDetailsEPKc
 945      00
 946              	.LEHE48:
 947              	.LEHB49:
  71:testCore.cpp  **** 
 948              		.loc 3 71 0 discriminator 14
 949 06fe E8000000 		call	__cxa_end_catch
 949      00
 950              	.LEHE49:
 951 0703 E997FCFF 		jmp	.L55
 951      FF
 952              	.L84:
 953 0708 4889C3   		movq	%rax, %rbx
  71:testCore.cpp  **** 
 954              		.loc 3 71 0
 955 070b E8000000 		call	__cxa_end_catch
 955      00
 956 0710 4889D8   		movq	%rbx, %rax
 957 0713 4889C7   		movq	%rax, %rdi
 958              	.LEHB50:
 959 0716 E8000000 		call	_Unwind_Resume
 959      00
 960              	.LEHE50:
 961              	.L85:
 962              		.loc 3 75 0 is_stmt 1
 963 071b E8000000 		call	__stack_chk_fail
 963      00
 964              	.L57:
 965 0720 4881C488 		addq	$136, %rsp
 965      000000
 966 0727 5B       		popq	%rbx
 967 0728 5D       		popq	%rbp
 968              		.cfi_def_cfa 7, 8
 969 0729 C3       		ret
 970              		.cfi_endproc
 971              	.LFE1084:
 972              		.section	.gcc_except_table,"a",@progbits
 973              		.align 4
 974              	.LLSDA1084:
 975 0000 FF       		.byte	0xff
 976 0001 03       		.byte	0x3
 977 0002 9002     		.uleb128 .LLSDATT1084-.LLSDATTD1084
 978              	.LLSDATTD1084:
 979 0004 01       		.byte	0x1
 980 0005 8302     		.uleb128 .LLSDACSE1084-.LLSDACSB1084
 981              	.LLSDACSB1084:
 982 0007 42       		.uleb128 .LEHB4-.LFB1084
 983 0008 05       		.uleb128 .LEHE4-.LEHB4
 984 0009 00       		.uleb128 0
 985 000a 00       		.uleb128 0
 986 000b 4A       		.uleb128 .LEHB5-.LFB1084
 987 000c 1C       		.uleb128 .LEHE5-.LEHB5
 988 000d AC06     		.uleb128 .L58-.LFB1084
 989 000f 01       		.uleb128 0x1
 990 0010 6D       		.uleb128 .LEHB6-.LFB1084
 991 0011 1C       		.uleb128 .LEHE6-.LEHB6
 992 0012 AA06     		.uleb128 .L59-.LFB1084
 993 0014 03       		.uleb128 0x3
 994 0015 8901     		.uleb128 .LEHB7-.LFB1084
 995 0017 1C       		.uleb128 .LEHE7-.LEHB7
 996 0018 8B07     		.uleb128 .L61-.LFB1084
 997 001a 01       		.uleb128 0x1
 998 001b AD01     		.uleb128 .LEHB8-.LFB1084
 999 001d 26       		.uleb128 .LEHE8-.LEHB8
 1000 001e 8907     		.uleb128 .L62-.LFB1084
 1001 0020 03       		.uleb128 0x3
 1002 0021 D301     		.uleb128 .LEHB9-.LFB1084
 1003 0023 1C       		.uleb128 .LEHE9-.LEHB9
 1004 0024 EA07     		.uleb128 .L64-.LFB1084
 1005 0026 01       		.uleb128 0x1
 1006 0027 F701     		.uleb128 .LEHB10-.LFB1084
 1007 0029 26       		.uleb128 .LEHE10-.LEHB10
 1008 002a E807     		.uleb128 .L65-.LFB1084
 1009 002c 03       		.uleb128 0x3
 1010 002d 9D02     		.uleb128 .LEHB11-.LFB1084
 1011 002f 1C       		.uleb128 .LEHE11-.LEHB11
 1012 0030 C908     		.uleb128 .L67-.LFB1084
 1013 0032 01       		.uleb128 0x1
 1014 0033 C102     		.uleb128 .LEHB12-.LFB1084
 1015 0035 26       		.uleb128 .LEHE12-.LEHB12
 1016 0036 C708     		.uleb128 .L68-.LFB1084
 1017 0038 03       		.uleb128 0x3
 1018 0039 E702     		.uleb128 .LEHB13-.LFB1084
 1019 003b 1C       		.uleb128 .LEHE13-.LEHB13
 1020 003c A809     		.uleb128 .L70-.LFB1084
 1021 003e 01       		.uleb128 0x1
 1022 003f 8B03     		.uleb128 .LEHB14-.LFB1084
 1023 0041 26       		.uleb128 .LEHE14-.LEHB14
 1024 0042 A609     		.uleb128 .L71-.LFB1084
 1025 0044 03       		.uleb128 0x3
 1026 0045 B103     		.uleb128 .LEHB15-.LFB1084
 1027 0047 1C       		.uleb128 .LEHE15-.LEHB15
 1028 0048 870A     		.uleb128 .L73-.LFB1084
 1029 004a 01       		.uleb128 0x1
 1030 004b E703     		.uleb128 .LEHB16-.LFB1084
 1031 004d 1C       		.uleb128 .LEHE16-.LEHB16
 1032 004e 850A     		.uleb128 .L74-.LFB1084
 1033 0050 03       		.uleb128 0x3
 1034 0051 8304     		.uleb128 .LEHB17-.LFB1084
 1035 0053 1C       		.uleb128 .LEHE17-.LEHB17
 1036 0054 E60A     		.uleb128 .L76-.LFB1084
 1037 0056 01       		.uleb128 0x1
 1038 0057 BD04     		.uleb128 .LEHB18-.LFB1084
 1039 0059 1C       		.uleb128 .LEHE18-.LEHB18
 1040 005a E40A     		.uleb128 .L77-.LFB1084
 1041 005c 03       		.uleb128 0x3
 1042 005d D904     		.uleb128 .LEHB19-.LFB1084
 1043 005f 1C       		.uleb128 .LEHE19-.LEHB19
 1044 0060 C50B     		.uleb128 .L79-.LFB1084
 1045 0062 01       		.uleb128 0x1
 1046 0063 9305     		.uleb128 .LEHB20-.LFB1084
 1047 0065 1C       		.uleb128 .LEHE20-.LEHB20
 1048 0066 C30B     		.uleb128 .L80-.LFB1084
 1049 0068 03       		.uleb128 0x3
 1050 0069 AF05     		.uleb128 .LEHB21-.LFB1084
 1051 006b 1C       		.uleb128 .LEHE21-.LEHB21
 1052 006c A40C     		.uleb128 .L82-.LFB1084
 1053 006e 01       		.uleb128 0x1
 1054 006f E905     		.uleb128 .LEHB22-.LFB1084
 1055 0071 1C       		.uleb128 .LEHE22-.LEHB22
 1056 0072 A20C     		.uleb128 .L83-.LFB1084
 1057 0074 03       		.uleb128 0x3
 1058 0075 8C06     		.uleb128 .LEHB23-.LFB1084
 1059 0077 05       		.uleb128 .LEHE23-.LEHB23
 1060 0078 00       		.uleb128 0
 1061 0079 00       		.uleb128 0
 1062 007a B406     		.uleb128 .LEHB24-.LFB1084
 1063 007c 38       		.uleb128 .LEHE24-.LEHB24
 1064 007d F606     		.uleb128 .L60-.LFB1084
 1065 007f 00       		.uleb128 0
 1066 0080 EC06     		.uleb128 .LEHB25-.LFB1084
 1067 0082 05       		.uleb128 .LEHE25-.LEHB25
 1068 0083 00       		.uleb128 0
 1069 0084 00       		.uleb128 0
 1070 0085 8407     		.uleb128 .LEHB26-.LFB1084
 1071 0087 05       		.uleb128 .LEHE26-.LEHB26
 1072 0088 00       		.uleb128 0
 1073 0089 00       		.uleb128 0
 1074 008a 9307     		.uleb128 .LEHB27-.LFB1084
 1075 008c 38       		.uleb128 .LEHE27-.LEHB27
 1076 008d D507     		.uleb128 .L63-.LFB1084
 1077 008f 00       		.uleb128 0
 1078 0090 CB07     		.uleb128 .LEHB28-.LFB1084
 1079 0092 05       		.uleb128 .LEHE28-.LEHB28
 1080 0093 00       		.uleb128 0
 1081 0094 00       		.uleb128 0
 1082 0095 E307     		.uleb128 .LEHB29-.LFB1084
 1083 0097 05       		.uleb128 .LEHE29-.LEHB29
 1084 0098 00       		.uleb128 0
 1085 0099 00       		.uleb128 0
 1086 009a F207     		.uleb128 .LEHB30-.LFB1084
 1087 009c 38       		.uleb128 .LEHE30-.LEHB30
 1088 009d B408     		.uleb128 .L66-.LFB1084
 1089 009f 00       		.uleb128 0
 1090 00a0 AA08     		.uleb128 .LEHB31-.LFB1084
 1091 00a2 05       		.uleb128 .LEHE31-.LEHB31
 1092 00a3 00       		.uleb128 0
 1093 00a4 00       		.uleb128 0
 1094 00a5 C208     		.uleb128 .LEHB32-.LFB1084
 1095 00a7 05       		.uleb128 .LEHE32-.LEHB32
 1096 00a8 00       		.uleb128 0
 1097 00a9 00       		.uleb128 0
 1098 00aa D108     		.uleb128 .LEHB33-.LFB1084
 1099 00ac 38       		.uleb128 .LEHE33-.LEHB33
 1100 00ad 9309     		.uleb128 .L69-.LFB1084
 1101 00af 00       		.uleb128 0
 1102 00b0 8909     		.uleb128 .LEHB34-.LFB1084
 1103 00b2 05       		.uleb128 .LEHE34-.LEHB34
 1104 00b3 00       		.uleb128 0
 1105 00b4 00       		.uleb128 0
 1106 00b5 A109     		.uleb128 .LEHB35-.LFB1084
 1107 00b7 05       		.uleb128 .LEHE35-.LEHB35
 1108 00b8 00       		.uleb128 0
 1109 00b9 00       		.uleb128 0
 1110 00ba B009     		.uleb128 .LEHB36-.LFB1084
 1111 00bc 38       		.uleb128 .LEHE36-.LEHB36
 1112 00bd F209     		.uleb128 .L72-.LFB1084
 1113 00bf 00       		.uleb128 0
 1114 00c0 E809     		.uleb128 .LEHB37-.LFB1084
 1115 00c2 05       		.uleb128 .LEHE37-.LEHB37
 1116 00c3 00       		.uleb128 0
 1117 00c4 00       		.uleb128 0
 1118 00c5 800A     		.uleb128 .LEHB38-.LFB1084
 1119 00c7 05       		.uleb128 .LEHE38-.LEHB38
 1120 00c8 00       		.uleb128 0
 1121 00c9 00       		.uleb128 0
 1122 00ca 8F0A     		.uleb128 .LEHB39-.LFB1084
 1123 00cc 38       		.uleb128 .LEHE39-.LEHB39
 1124 00cd D10A     		.uleb128 .L75-.LFB1084
 1125 00cf 00       		.uleb128 0
 1126 00d0 C70A     		.uleb128 .LEHB40-.LFB1084
 1127 00d2 05       		.uleb128 .LEHE40-.LEHB40
 1128 00d3 00       		.uleb128 0
 1129 00d4 00       		.uleb128 0
 1130 00d5 DF0A     		.uleb128 .LEHB41-.LFB1084
 1131 00d7 05       		.uleb128 .LEHE41-.LEHB41
 1132 00d8 00       		.uleb128 0
 1133 00d9 00       		.uleb128 0
 1134 00da EE0A     		.uleb128 .LEHB42-.LFB1084
 1135 00dc 38       		.uleb128 .LEHE42-.LEHB42
 1136 00dd B00B     		.uleb128 .L78-.LFB1084
 1137 00df 00       		.uleb128 0
 1138 00e0 A60B     		.uleb128 .LEHB43-.LFB1084
 1139 00e2 05       		.uleb128 .LEHE43-.LEHB43
 1140 00e3 00       		.uleb128 0
 1141 00e4 00       		.uleb128 0
 1142 00e5 BE0B     		.uleb128 .LEHB44-.LFB1084
 1143 00e7 05       		.uleb128 .LEHE44-.LEHB44
 1144 00e8 00       		.uleb128 0
 1145 00e9 00       		.uleb128 0
 1146 00ea CD0B     		.uleb128 .LEHB45-.LFB1084
 1147 00ec 38       		.uleb128 .LEHE45-.LEHB45
 1148 00ed 8F0C     		.uleb128 .L81-.LFB1084
 1149 00ef 00       		.uleb128 0
 1150 00f0 850C     		.uleb128 .LEHB46-.LFB1084
 1151 00f2 05       		.uleb128 .LEHE46-.LEHB46
 1152 00f3 00       		.uleb128 0
 1153 00f4 00       		.uleb128 0
 1154 00f5 9D0C     		.uleb128 .LEHB47-.LFB1084
 1155 00f7 05       		.uleb128 .LEHE47-.LEHB47
 1156 00f8 00       		.uleb128 0
 1157 00f9 00       		.uleb128 0
 1158 00fa AC0C     		.uleb128 .LEHB48-.LFB1084
 1159 00fc 38       		.uleb128 .LEHE48-.LEHB48
 1160 00fd EE0C     		.uleb128 .L84-.LFB1084
 1161 00ff 00       		.uleb128 0
 1162 0100 E40C     		.uleb128 .LEHB49-.LFB1084
 1163 0102 05       		.uleb128 .LEHE49-.LEHB49
 1164 0103 00       		.uleb128 0
 1165 0104 00       		.uleb128 0
 1166 0105 FC0C     		.uleb128 .LEHB50-.LFB1084
 1167 0107 05       		.uleb128 .LEHE50-.LEHB50
 1168 0108 00       		.uleb128 0
 1169 0109 00       		.uleb128 0
 1170              	.LLSDACSE1084:
 1171 010a 01       		.byte	0x1
 1172 010b 00       		.byte	0
 1173 010c 00       		.byte	0
 1174 010d 7D       		.byte	0x7d
 1175 010e 0000     		.align 4
 1176 0110 00000000 		.long	0
 1177              	
 1178              	.LLSDATT1084:
 1179              		.text
 1181              		.section	.rodata
 1182              	.LC12:
 1183 026b 51756575 		.string	"Queue_testPutNoWrap"
 1183      655F7465 
 1183      73745075 
 1183      744E6F57 
 1183      72617000 
 1184              		.section	.text._ZN23TestQueue_testPutNoWrapC2Ev,"axG",@progbits,_ZN23TestQueue_testPutNoWrapC5Ev,c
 1185              		.align 2
 1186              		.weak	_ZN23TestQueue_testPutNoWrapC2Ev
 1188              	_ZN23TestQueue_testPutNoWrapC2Ev:
 1189              	.LFB1086:
  76:testCore.cpp  **** 
  77:testCore.cpp  **** TEST(Queue_testPutNoWrap) {
 1190              		.loc 3 77 0
 1191              		.cfi_startproc
 1192 0000 55       		pushq	%rbp
 1193              		.cfi_def_cfa_offset 16
 1194              		.cfi_offset 6, -16
 1195 0001 4889E5   		movq	%rsp, %rbp
 1196              		.cfi_def_cfa_register 6
 1197 0004 4883EC10 		subq	$16, %rsp
 1198 0008 48897DF8 		movq	%rdi, -8(%rbp)
 1199              	.LBB5:
 1200              		.loc 3 77 0
 1201 000c E8000000 		call	_ZN13UnitTestSuite12GetSuiteNameEv
 1201      00
 1202 0011 4889C2   		movq	%rax, %rdx
 1203 0014 488B45F8 		movq	-8(%rbp), %rax
 1204 0018 41B84D00 		movl	$77, %r8d
 1204      0000
 1205 001e B9000000 		movl	$.LC1, %ecx
 1205      00
 1206 0023 BE000000 		movl	$.LC12, %esi
 1206      00
 1207 0028 4889C7   		movq	%rax, %rdi
 1208 002b E8000000 		call	_ZN8UnitTest4TestC2EPKcS2_S2_i
 1208      00
 1209 0030 BA000000 		movl	$_ZTV23TestQueue_testPutNoWrap+16, %edx
 1209      00
 1210 0035 488B45F8 		movq	-8(%rbp), %rax
 1211 0039 488910   		movq	%rdx, (%rax)
 1212              	.LBE5:
 1213 003c 90       		nop
 1214 003d C9       		leave
 1215              		.cfi_def_cfa 7, 8
 1216 003e C3       		ret
 1217              		.cfi_endproc
 1218              	.LFE1086:
 1220              		.weak	_ZN23TestQueue_testPutNoWrapC1Ev
 1221              		.set	_ZN23TestQueue_testPutNoWrapC1Ev,_ZN23TestQueue_testPutNoWrapC2Ev
 1222              		.globl	testQueue_testPutNoWrapInstance
 1223              		.bss
 1224 0039 00000000 		.align 32
 1224      000000
 1227              	testQueue_testPutNoWrapInstance:
 1228 0040 00000000 		.zero	56
 1228      00000000 
 1228      00000000 
 1228      00000000 
 1228      00000000 
 1229              		.globl	adderQueue_testPutNoWrap
 1232              	adderQueue_testPutNoWrap:
 1233 0078 00       		.zero	1
 1234              		.section	.rodata
 1235 027f 00       		.align 8
 1236              	.LC13:
 1237 0280 556E6861 		.string	"Unhandled exception in CHECK_EQUAL(1UL, *item)"
 1237      6E646C65 
 1237      64206578 
 1237      63657074 
 1237      696F6E20 
 1238 02af 00       		.align 8
 1239              	.LC14:
 1240 02b0 556E6861 		.string	"Unhandled exception in CHECK_EQUAL(2UL, *item)"
 1240      6E646C65 
 1240      64206578 
 1240      63657074 
 1240      696F6E20 
 1241 02df 00       		.align 8
 1242              	.LC15:
 1243 02e0 556E6861 		.string	"Unhandled exception in CHECK_EQUAL(3UL, *item)"
 1243      6E646C65 
 1243      64206578 
 1243      63657074 
 1243      696F6E20 
 1244 030f 00       		.align 8
 1245              	.LC16:
 1246 0310 556E6861 		.string	"Unhandled exception in CHECK_EQUAL(3UL, queue.putIndex)"
 1246      6E646C65 
 1246      64206578 
 1246      63657074 
 1246      696F6E20 
 1247              		.align 8
 1248              	.LC17:
 1249 0348 556E6861 		.string	"Unhandled exception in CHECK_EQUAL(3UL, queue.numItems)"
 1249      6E646C65 
 1249      64206578 
 1249      63657074 
 1249      696F6E20 
 1250              		.align 8
 1251              	.LC18:
 1252 0380 556E6861 		.string	"Unhandled exception in CHECK_EQUAL(5UL, deref(queue.itemArray[0]))"
 1252      6E646C65 
 1252      64206578 
 1252      63657074 
 1252      696F6E20 
 1253 03c3 00000000 		.align 8
 1253      00
 1254              	.LC19:
 1255 03c8 556E6861 		.string	"Unhandled exception in CHECK_EQUAL(6UL, deref(queue.itemArray[1]))"
 1255      6E646C65 
 1255      64206578 
 1255      63657074 
 1255      696F6E20 
 1256 040b 00000000 		.align 8
 1256      00
 1257              	.LC20:
 1258 0410 556E6861 		.string	"Unhandled exception in CHECK_EQUAL(7UL, deref(queue.itemArray[2]))"
 1258      6E646C65 
 1258      64206578 
 1258      63657074 
 1258      696F6E20 
 1259              		.text
 1260              		.align 2
 1261              		.globl	_ZNK23TestQueue_testPutNoWrap7RunImplEv
 1263              	_ZNK23TestQueue_testPutNoWrap7RunImplEv:
 1264              	.LFB1088:
 1265              		.loc 3 77 0
 1266              		.cfi_startproc
 1267              		.cfi_personality 0x3,__gxx_personality_v0
 1268              		.cfi_lsda 0x3,.LLSDA1088
 1269 072a 55       		pushq	%rbp
 1270              		.cfi_def_cfa_offset 16
 1271              		.cfi_offset 6, -16
 1272 072b 4889E5   		movq	%rsp, %rbp
 1273              		.cfi_def_cfa_register 6
 1274 072e 53       		pushq	%rbx
 1275 072f 4881EC98 		subq	$152, %rsp
 1275      000000
 1276              		.cfi_offset 3, -24
 1277 0736 4889BD68 		movq	%rdi, -152(%rbp)
 1277      FFFFFF
 1278              		.loc 3 77 0
 1279 073d 64488B04 		movq	%fs:40, %rax
 1279      25280000 
 1279      00
 1280 0746 488945E8 		movq	%rax, -24(%rbp)
 1281 074a 31C0     		xorl	%eax, %eax
  78:testCore.cpp  **** 	struct UnboundedQueue queue;
  79:testCore.cpp  **** 	uint32 *item;
  80:testCore.cpp  **** 	m_count = 1;
 1282              		.loc 3 80 0
 1283 074c C7050000 		movl	$1, _ZL7m_count(%rip)
 1283      00000100 
 1283      0000
  81:testCore.cpp  **** 
  82:testCore.cpp  **** 	// Create queue
  83:testCore.cpp  **** 	USBStatus status = queueInit(&queue, 4, (CreateFunc)createInt, (DestroyFunc)destroyInt);
 1284              		.loc 3 83 0
 1285 0756 488D45B0 		leaq	-80(%rbp), %rax
 1286 075a B9000000 		movl	$destroyInt, %ecx
 1286      00
 1287 075f BA000000 		movl	$createInt, %edx
 1287      00
 1288 0764 BE040000 		movl	$4, %esi
 1288      00
 1289 0769 4889C7   		movq	%rax, %rdi
 1290              	.LEHB51:
 1291 076c E8000000 		call	queueInit
 1291      00
 1292              	.LEHE51:
 1293 0771 898578FF 		movl	%eax, -136(%rbp)
 1293      FFFF
 1294              	.LEHB52:
  84:testCore.cpp  **** 	CHECK_EQUAL(USB_SUCCESS, status);
 1295              		.loc 3 84 0
 1296 0777 E8000000 		call	_ZN8UnitTest11CurrentTest7DetailsEv
 1296      00
 1297 077c 488B08   		movq	(%rax), %rcx
 1298 077f 488D4590 		leaq	-112(%rbp), %rax
 1299 0783 BA540000 		movl	$84, %edx
 1299      00
 1300 0788 4889CE   		movq	%rcx, %rsi
 1301 078b 4889C7   		movq	%rax, %rdi
 1302 078e E8000000 		call	_ZN8UnitTest11TestDetailsC1ERKS0_i
 1302      00
 1303              	.LEHE52:
 1304              		.loc 3 84 0 is_stmt 0 discriminator 2
 1305 0793 C7458800 		movl	$0, -120(%rbp)
 1305      000000
 1306              	.LEHB53:
 1307 079a E8000000 		call	_ZN8UnitTest11CurrentTest7ResultsEv
 1307      00
 1308 079f 488B00   		movq	(%rax), %rax
 1309 07a2 488D4D90 		leaq	-112(%rbp), %rcx
 1310 07a6 488D9578 		leaq	-136(%rbp), %rdx
 1310      FFFFFF
 1311 07ad 488D7588 		leaq	-120(%rbp), %rsi
 1312 07b1 4889C7   		movq	%rax, %rdi
 1313 07b4 E8000000 		call	_ZN8UnitTest10CheckEqualI9USBStatusS1_EEvRNS_11TestResultsERKT_RKT0_RKNS_11TestDetailsE
 1313      00
 1314              	.LEHE53:
 1315              	.L90:
  85:testCore.cpp  **** 
  86:testCore.cpp  **** 	// Put three items into the queue
  87:testCore.cpp  **** 	status = queuePut(&queue, (Item*)&item);
 1316              		.loc 3 87 0 is_stmt 1
 1317 07b9 488D5580 		leaq	-128(%rbp), %rdx
 1318 07bd 488D45B0 		leaq	-80(%rbp), %rax
 1319 07c1 4889D6   		movq	%rdx, %rsi
 1320 07c4 4889C7   		movq	%rax, %rdi
 1321              	.LEHB54:
 1322 07c7 E8000000 		call	queuePut
 1322      00
 1323              	.LEHE54:
 1324 07cc 898578FF 		movl	%eax, -136(%rbp)
 1324      FFFF
 1325              	.LEHB55:
  88:testCore.cpp  **** 	CHECK_EQUAL(USB_SUCCESS, status);
 1326              		.loc 3 88 0
 1327 07d2 E8000000 		call	_ZN8UnitTest11CurrentTest7DetailsEv
 1327      00
 1328 07d7 488B08   		movq	(%rax), %rcx
 1329 07da 488D4590 		leaq	-112(%rbp), %rax
 1330 07de BA580000 		movl	$88, %edx
 1330      00
 1331 07e3 4889CE   		movq	%rcx, %rsi
 1332 07e6 4889C7   		movq	%rax, %rdi
 1333 07e9 E8000000 		call	_ZN8UnitTest11TestDetailsC1ERKS0_i
 1333      00
 1334              	.LEHE55:
 1335              		.loc 3 88 0 is_stmt 0 discriminator 2
 1336 07ee C7458800 		movl	$0, -120(%rbp)
 1336      000000
 1337              	.LEHB56:
 1338 07f5 E8000000 		call	_ZN8UnitTest11CurrentTest7ResultsEv
 1338      00
 1339 07fa 488B00   		movq	(%rax), %rax
 1340 07fd 488D4D90 		leaq	-112(%rbp), %rcx
 1341 0801 488D9578 		leaq	-136(%rbp), %rdx
 1341      FFFFFF
 1342 0808 488D7588 		leaq	-120(%rbp), %rsi
 1343 080c 4889C7   		movq	%rax, %rdi
 1344 080f E8000000 		call	_ZN8UnitTest10CheckEqualI9USBStatusS1_EEvRNS_11TestResultsERKT_RKT0_RKNS_11TestDetailsE
 1344      00
 1345              	.LEHE56:
 1346              	.L94:
 1347              	.LEHB57:
  89:testCore.cpp  **** 	CHECK_EQUAL(1UL, *item);
 1348              		.loc 3 89 0 is_stmt 1
 1349 0814 E8000000 		call	_ZN8UnitTest11CurrentTest7DetailsEv
 1349      00
 1350 0819 488B08   		movq	(%rax), %rcx
 1351 081c 488D4590 		leaq	-112(%rbp), %rax
 1352 0820 BA590000 		movl	$89, %edx
 1352      00
 1353 0825 4889CE   		movq	%rcx, %rsi
 1354 0828 4889C7   		movq	%rax, %rdi
 1355 082b E8000000 		call	_ZN8UnitTest11TestDetailsC1ERKS0_i
 1355      00
 1356              	.LEHE57:
 1357              		.loc 3 89 0 is_stmt 0 discriminator 2
 1358 0830 488B5D80 		movq	-128(%rbp), %rbx
 1359 0834 48C74588 		movq	$1, -120(%rbp)
 1359      01000000 
 1360              	.LEHB58:
 1361 083c E8000000 		call	_ZN8UnitTest11CurrentTest7ResultsEv
 1361      00
 1362 0841 488B00   		movq	(%rax), %rax
 1363 0844 488D5590 		leaq	-112(%rbp), %rdx
 1364 0848 488D7588 		leaq	-120(%rbp), %rsi
 1365 084c 4889D1   		movq	%rdx, %rcx
 1366 084f 4889DA   		movq	%rbx, %rdx
 1367 0852 4889C7   		movq	%rax, %rdi
 1368 0855 E8000000 		call	_ZN8UnitTest10CheckEqualImjEEvRNS_11TestResultsERKT_RKT0_RKNS_11TestDetailsE
 1368      00
 1369              	.LEHE58:
 1370              	.L98:
  90:testCore.cpp  **** 	*item = 5;
 1371              		.loc 3 90 0 is_stmt 1
 1372 085a 488B4580 		movq	-128(%rbp), %rax
 1373 085e C7000500 		movl	$5, (%rax)
 1373      0000
  91:testCore.cpp  **** 	queueCommitPut(&queue);
 1374              		.loc 3 91 0
 1375 0864 488D45B0 		leaq	-80(%rbp), %rax
 1376 0868 4889C7   		movq	%rax, %rdi
 1377              	.LEHB59:
 1378 086b E8000000 		call	queueCommitPut
 1378      00
  92:testCore.cpp  **** 	status = queuePut(&queue, (Item*)&item);
 1379              		.loc 3 92 0
 1380 0870 488D5580 		leaq	-128(%rbp), %rdx
 1381 0874 488D45B0 		leaq	-80(%rbp), %rax
 1382 0878 4889D6   		movq	%rdx, %rsi
 1383 087b 4889C7   		movq	%rax, %rdi
 1384 087e E8000000 		call	queuePut
 1384      00
 1385              	.LEHE59:
 1386 0883 898578FF 		movl	%eax, -136(%rbp)
 1386      FFFF
 1387              	.LEHB60:
  93:testCore.cpp  **** 	CHECK_EQUAL(USB_SUCCESS, status);
 1388              		.loc 3 93 0
 1389 0889 E8000000 		call	_ZN8UnitTest11CurrentTest7DetailsEv
 1389      00
 1390 088e 488B08   		movq	(%rax), %rcx
 1391 0891 488D4590 		leaq	-112(%rbp), %rax
 1392 0895 BA5D0000 		movl	$93, %edx
 1392      00
 1393 089a 4889CE   		movq	%rcx, %rsi
 1394 089d 4889C7   		movq	%rax, %rdi
 1395 08a0 E8000000 		call	_ZN8UnitTest11TestDetailsC1ERKS0_i
 1395      00
 1396              	.LEHE60:
 1397              		.loc 3 93 0 is_stmt 0 discriminator 2
 1398 08a5 C7458800 		movl	$0, -120(%rbp)
 1398      000000
 1399              	.LEHB61:
 1400 08ac E8000000 		call	_ZN8UnitTest11CurrentTest7ResultsEv
 1400      00
 1401 08b1 488B00   		movq	(%rax), %rax
 1402 08b4 488D4D90 		leaq	-112(%rbp), %rcx
 1403 08b8 488D9578 		leaq	-136(%rbp), %rdx
 1403      FFFFFF
 1404 08bf 488D7588 		leaq	-120(%rbp), %rsi
 1405 08c3 4889C7   		movq	%rax, %rdi
 1406 08c6 E8000000 		call	_ZN8UnitTest10CheckEqualI9USBStatusS1_EEvRNS_11TestResultsERKT_RKT0_RKNS_11TestDetailsE
 1406      00
 1407              	.LEHE61:
 1408              	.L102:
 1409              	.LEHB62:
  94:testCore.cpp  **** 	CHECK_EQUAL(2UL, *item);
 1410              		.loc 3 94 0 is_stmt 1
 1411 08cb E8000000 		call	_ZN8UnitTest11CurrentTest7DetailsEv
 1411      00
 1412 08d0 488B08   		movq	(%rax), %rcx
 1413 08d3 488D4590 		leaq	-112(%rbp), %rax
 1414 08d7 BA5E0000 		movl	$94, %edx
 1414      00
 1415 08dc 4889CE   		movq	%rcx, %rsi
 1416 08df 4889C7   		movq	%rax, %rdi
 1417 08e2 E8000000 		call	_ZN8UnitTest11TestDetailsC1ERKS0_i
 1417      00
 1418              	.LEHE62:
 1419              		.loc 3 94 0 is_stmt 0 discriminator 2
 1420 08e7 488B5D80 		movq	-128(%rbp), %rbx
 1421 08eb 48C74588 		movq	$2, -120(%rbp)
 1421      02000000 
 1422              	.LEHB63:
 1423 08f3 E8000000 		call	_ZN8UnitTest11CurrentTest7ResultsEv
 1423      00
 1424 08f8 488B00   		movq	(%rax), %rax
 1425 08fb 488D5590 		leaq	-112(%rbp), %rdx
 1426 08ff 488D7588 		leaq	-120(%rbp), %rsi
 1427 0903 4889D1   		movq	%rdx, %rcx
 1428 0906 4889DA   		movq	%rbx, %rdx
 1429 0909 4889C7   		movq	%rax, %rdi
 1430 090c E8000000 		call	_ZN8UnitTest10CheckEqualImjEEvRNS_11TestResultsERKT_RKT0_RKNS_11TestDetailsE
 1430      00
 1431              	.LEHE63:
 1432              	.L106:
  95:testCore.cpp  **** 	*item = 6;
 1433              		.loc 3 95 0 is_stmt 1
 1434 0911 488B4580 		movq	-128(%rbp), %rax
 1435 0915 C7000600 		movl	$6, (%rax)
 1435      0000
  96:testCore.cpp  **** 	queueCommitPut(&queue);
 1436              		.loc 3 96 0
 1437 091b 488D45B0 		leaq	-80(%rbp), %rax
 1438 091f 4889C7   		movq	%rax, %rdi
 1439              	.LEHB64:
 1440 0922 E8000000 		call	queueCommitPut
 1440      00
  97:testCore.cpp  **** 	status = queuePut(&queue, (Item*)&item);
 1441              		.loc 3 97 0
 1442 0927 488D5580 		leaq	-128(%rbp), %rdx
 1443 092b 488D45B0 		leaq	-80(%rbp), %rax
 1444 092f 4889D6   		movq	%rdx, %rsi
 1445 0932 4889C7   		movq	%rax, %rdi
 1446 0935 E8000000 		call	queuePut
 1446      00
 1447              	.LEHE64:
 1448 093a 898578FF 		movl	%eax, -136(%rbp)
 1448      FFFF
 1449              	.LEHB65:
  98:testCore.cpp  **** 	CHECK_EQUAL(USB_SUCCESS, status);
 1450              		.loc 3 98 0
 1451 0940 E8000000 		call	_ZN8UnitTest11CurrentTest7DetailsEv
 1451      00
 1452 0945 488B08   		movq	(%rax), %rcx
 1453 0948 488D4590 		leaq	-112(%rbp), %rax
 1454 094c BA620000 		movl	$98, %edx
 1454      00
 1455 0951 4889CE   		movq	%rcx, %rsi
 1456 0954 4889C7   		movq	%rax, %rdi
 1457 0957 E8000000 		call	_ZN8UnitTest11TestDetailsC1ERKS0_i
 1457      00
 1458              	.LEHE65:
 1459              		.loc 3 98 0 is_stmt 0 discriminator 2
 1460 095c C7458800 		movl	$0, -120(%rbp)
 1460      000000
 1461              	.LEHB66:
 1462 0963 E8000000 		call	_ZN8UnitTest11CurrentTest7ResultsEv
 1462      00
 1463 0968 488B00   		movq	(%rax), %rax
 1464 096b 488D4D90 		leaq	-112(%rbp), %rcx
 1465 096f 488D9578 		leaq	-136(%rbp), %rdx
 1465      FFFFFF
 1466 0976 488D7588 		leaq	-120(%rbp), %rsi
 1467 097a 4889C7   		movq	%rax, %rdi
 1468 097d E8000000 		call	_ZN8UnitTest10CheckEqualI9USBStatusS1_EEvRNS_11TestResultsERKT_RKT0_RKNS_11TestDetailsE
 1468      00
 1469              	.LEHE66:
 1470              	.L110:
 1471              	.LEHB67:
  99:testCore.cpp  **** 	CHECK_EQUAL(3UL, *item);
 1472              		.loc 3 99 0 is_stmt 1
 1473 0982 E8000000 		call	_ZN8UnitTest11CurrentTest7DetailsEv
 1473      00
 1474 0987 488B08   		movq	(%rax), %rcx
 1475 098a 488D4590 		leaq	-112(%rbp), %rax
 1476 098e BA630000 		movl	$99, %edx
 1476      00
 1477 0993 4889CE   		movq	%rcx, %rsi
 1478 0996 4889C7   		movq	%rax, %rdi
 1479 0999 E8000000 		call	_ZN8UnitTest11TestDetailsC1ERKS0_i
 1479      00
 1480              	.LEHE67:
 1481              		.loc 3 99 0 is_stmt 0 discriminator 2
 1482 099e 488B5D80 		movq	-128(%rbp), %rbx
 1483 09a2 48C74588 		movq	$3, -120(%rbp)
 1483      03000000 
 1484              	.LEHB68:
 1485 09aa E8000000 		call	_ZN8UnitTest11CurrentTest7ResultsEv
 1485      00
 1486 09af 488B00   		movq	(%rax), %rax
 1487 09b2 488D5590 		leaq	-112(%rbp), %rdx
 1488 09b6 488D7588 		leaq	-120(%rbp), %rsi
 1489 09ba 4889D1   		movq	%rdx, %rcx
 1490 09bd 4889DA   		movq	%rbx, %rdx
 1491 09c0 4889C7   		movq	%rax, %rdi
 1492 09c3 E8000000 		call	_ZN8UnitTest10CheckEqualImjEEvRNS_11TestResultsERKT_RKT0_RKNS_11TestDetailsE
 1492      00
 1493              	.LEHE68:
 1494              	.L114:
 100:testCore.cpp  **** 	*item = 7;
 1495              		.loc 3 100 0 is_stmt 1
 1496 09c8 488B4580 		movq	-128(%rbp), %rax
 1497 09cc C7000700 		movl	$7, (%rax)
 1497      0000
 101:testCore.cpp  **** 	queueCommitPut(&queue);
 1498              		.loc 3 101 0
 1499 09d2 488D45B0 		leaq	-80(%rbp), %rax
 1500 09d6 4889C7   		movq	%rax, %rdi
 1501              	.LEHB69:
 1502 09d9 E8000000 		call	queueCommitPut
 1502      00
 1503              	.LEHE69:
 1504              	.LEHB70:
 102:testCore.cpp  **** 
 103:testCore.cpp  **** 	// Verify
 104:testCore.cpp  **** 	CHECK_EQUAL(4UL, queue.capacity);
 1505              		.loc 3 104 0
 1506 09de E8000000 		call	_ZN8UnitTest11CurrentTest7DetailsEv
 1506      00
 1507 09e3 488B08   		movq	(%rax), %rcx
 1508 09e6 488D4590 		leaq	-112(%rbp), %rax
 1509 09ea BA680000 		movl	$104, %edx
 1509      00
 1510 09ef 4889CE   		movq	%rcx, %rsi
 1511 09f2 4889C7   		movq	%rax, %rdi
 1512 09f5 E8000000 		call	_ZN8UnitTest11TestDetailsC1ERKS0_i
 1512      00
 1513              	.LEHE70:
 1514              		.loc 3 104 0 is_stmt 0 discriminator 2
 1515 09fa 48C74588 		movq	$4, -120(%rbp)
 1515      04000000 
 1516              	.LEHB71:
 1517 0a02 E8000000 		call	_ZN8UnitTest11CurrentTest7ResultsEv
 1517      00
 1518 0a07 488B00   		movq	(%rax), %rax
 1519 0a0a 488D5590 		leaq	-112(%rbp), %rdx
 1520 0a0e 488D4DB0 		leaq	-80(%rbp), %rcx
 1521 0a12 488D7908 		leaq	8(%rcx), %rdi
 1522 0a16 488D7588 		leaq	-120(%rbp), %rsi
 1523 0a1a 4889D1   		movq	%rdx, %rcx
 1524 0a1d 4889FA   		movq	%rdi, %rdx
 1525 0a20 4889C7   		movq	%rax, %rdi
 1526 0a23 E8000000 		call	_ZN8UnitTest10CheckEqualImmEEvRNS_11TestResultsERKT_RKT0_RKNS_11TestDetailsE
 1526      00
 1527              	.LEHE71:
 1528              	.L118:
 1529              	.LEHB72:
 105:testCore.cpp  **** 	CHECK_EQUAL(3UL, queue.putIndex);
 1530              		.loc 3 105 0 is_stmt 1
 1531 0a28 E8000000 		call	_ZN8UnitTest11CurrentTest7DetailsEv
 1531      00
 1532 0a2d 488B08   		movq	(%rax), %rcx
 1533 0a30 488D4590 		leaq	-112(%rbp), %rax
 1534 0a34 BA690000 		movl	$105, %edx
 1534      00
 1535 0a39 4889CE   		movq	%rcx, %rsi
 1536 0a3c 4889C7   		movq	%rax, %rdi
 1537 0a3f E8000000 		call	_ZN8UnitTest11TestDetailsC1ERKS0_i
 1537      00
 1538              	.LEHE72:
 1539              		.loc 3 105 0 is_stmt 0 discriminator 2
 1540 0a44 48C74588 		movq	$3, -120(%rbp)
 1540      03000000 
 1541              	.LEHB73:
 1542 0a4c E8000000 		call	_ZN8UnitTest11CurrentTest7ResultsEv
 1542      00
 1543 0a51 488B00   		movq	(%rax), %rax
 1544 0a54 488D5590 		leaq	-112(%rbp), %rdx
 1545 0a58 488D4DB0 		leaq	-80(%rbp), %rcx
 1546 0a5c 488D7910 		leaq	16(%rcx), %rdi
 1547 0a60 488D7588 		leaq	-120(%rbp), %rsi
 1548 0a64 4889D1   		movq	%rdx, %rcx
 1549 0a67 4889FA   		movq	%rdi, %rdx
 1550 0a6a 4889C7   		movq	%rax, %rdi
 1551 0a6d E8000000 		call	_ZN8UnitTest10CheckEqualImmEEvRNS_11TestResultsERKT_RKT0_RKNS_11TestDetailsE
 1551      00
 1552              	.LEHE73:
 1553              	.L122:
 1554              	.LEHB74:
 106:testCore.cpp  **** 	CHECK_EQUAL(0UL, queue.takeIndex);
 1555              		.loc 3 106 0 is_stmt 1
 1556 0a72 E8000000 		call	_ZN8UnitTest11CurrentTest7DetailsEv
 1556      00
 1557 0a77 488B08   		movq	(%rax), %rcx
 1558 0a7a 488D4590 		leaq	-112(%rbp), %rax
 1559 0a7e BA6A0000 		movl	$106, %edx
 1559      00
 1560 0a83 4889CE   		movq	%rcx, %rsi
 1561 0a86 4889C7   		movq	%rax, %rdi
 1562 0a89 E8000000 		call	_ZN8UnitTest11TestDetailsC1ERKS0_i
 1562      00
 1563              	.LEHE74:
 1564              		.loc 3 106 0 is_stmt 0 discriminator 2
 1565 0a8e 48C74588 		movq	$0, -120(%rbp)
 1565      00000000 
 1566              	.LEHB75:
 1567 0a96 E8000000 		call	_ZN8UnitTest11CurrentTest7ResultsEv
 1567      00
 1568 0a9b 488B00   		movq	(%rax), %rax
 1569 0a9e 488D5590 		leaq	-112(%rbp), %rdx
 1570 0aa2 488D4DB0 		leaq	-80(%rbp), %rcx
 1571 0aa6 488D7918 		leaq	24(%rcx), %rdi
 1572 0aaa 488D7588 		leaq	-120(%rbp), %rsi
 1573 0aae 4889D1   		movq	%rdx, %rcx
 1574 0ab1 4889FA   		movq	%rdi, %rdx
 1575 0ab4 4889C7   		movq	%rax, %rdi
 1576 0ab7 E8000000 		call	_ZN8UnitTest10CheckEqualImmEEvRNS_11TestResultsERKT_RKT0_RKNS_11TestDetailsE
 1576      00
 1577              	.LEHE75:
 1578              	.L126:
 1579              	.LEHB76:
 107:testCore.cpp  **** 	CHECK_EQUAL(3UL, queue.numItems);
 1580              		.loc 3 107 0 is_stmt 1
 1581 0abc E8000000 		call	_ZN8UnitTest11CurrentTest7DetailsEv
 1581      00
 1582 0ac1 488B08   		movq	(%rax), %rcx
 1583 0ac4 488D4590 		leaq	-112(%rbp), %rax
 1584 0ac8 BA6B0000 		movl	$107, %edx
 1584      00
 1585 0acd 4889CE   		movq	%rcx, %rsi
 1586 0ad0 4889C7   		movq	%rax, %rdi
 1587 0ad3 E8000000 		call	_ZN8UnitTest11TestDetailsC1ERKS0_i
 1587      00
 1588              	.LEHE76:
 1589              		.loc 3 107 0 is_stmt 0 discriminator 2
 1590 0ad8 48C74588 		movq	$3, -120(%rbp)
 1590      03000000 
 1591              	.LEHB77:
 1592 0ae0 E8000000 		call	_ZN8UnitTest11CurrentTest7ResultsEv
 1592      00
 1593 0ae5 488B00   		movq	(%rax), %rax
 1594 0ae8 488D5590 		leaq	-112(%rbp), %rdx
 1595 0aec 488D4DB0 		leaq	-80(%rbp), %rcx
 1596 0af0 488D7920 		leaq	32(%rcx), %rdi
 1597 0af4 488D7588 		leaq	-120(%rbp), %rsi
 1598 0af8 4889D1   		movq	%rdx, %rcx
 1599 0afb 4889FA   		movq	%rdi, %rdx
 1600 0afe 4889C7   		movq	%rax, %rdi
 1601 0b01 E8000000 		call	_ZN8UnitTest10CheckEqualImmEEvRNS_11TestResultsERKT_RKT0_RKNS_11TestDetailsE
 1601      00
 1602              	.LEHE77:
 1603              	.L130:
 1604              	.LEHB78:
 108:testCore.cpp  **** 
 109:testCore.cpp  **** 	// Verify array
 110:testCore.cpp  **** 	CHECK_EQUAL(5UL, deref(queue.itemArray[0]));
 1605              		.loc 3 110 0 is_stmt 1
 1606 0b06 E8000000 		call	_ZN8UnitTest11CurrentTest7DetailsEv
 1606      00
 1607 0b0b 488B08   		movq	(%rax), %rcx
 1608 0b0e 488D4590 		leaq	-112(%rbp), %rax
 1609 0b12 BA6E0000 		movl	$110, %edx
 1609      00
 1610 0b17 4889CE   		movq	%rcx, %rsi
 1611 0b1a 4889C7   		movq	%rax, %rdi
 1612 0b1d E8000000 		call	_ZN8UnitTest11TestDetailsC1ERKS0_i
 1612      00
 1613              	.LEHE78:
 1614              		.loc 3 110 0 is_stmt 0 discriminator 2
 1615 0b22 488B45B0 		movq	-80(%rbp), %rax
 1616 0b26 488B00   		movq	(%rax), %rax
 1617 0b29 4889C7   		movq	%rax, %rdi
 1618 0b2c E859F5FF 		call	_ZL5derefPKv
 1618      FF
 1619 0b31 89857CFF 		movl	%eax, -132(%rbp)
 1619      FFFF
 1620 0b37 48C74588 		movq	$5, -120(%rbp)
 1620      05000000 
 1621              	.LEHB79:
 1622 0b3f E8000000 		call	_ZN8UnitTest11CurrentTest7ResultsEv
 1622      00
 1623 0b44 488B00   		movq	(%rax), %rax
 1624 0b47 488D4D90 		leaq	-112(%rbp), %rcx
 1625 0b4b 488D957C 		leaq	-132(%rbp), %rdx
 1625      FFFFFF
 1626 0b52 488D7588 		leaq	-120(%rbp), %rsi
 1627 0b56 4889C7   		movq	%rax, %rdi
 1628 0b59 E8000000 		call	_ZN8UnitTest10CheckEqualImjEEvRNS_11TestResultsERKT_RKT0_RKNS_11TestDetailsE
 1628      00
 1629              	.LEHE79:
 1630              	.L134:
 1631              	.LEHB80:
 111:testCore.cpp  **** 	CHECK_EQUAL(6UL, deref(queue.itemArray[1]));
 1632              		.loc 3 111 0 is_stmt 1
 1633 0b5e E8000000 		call	_ZN8UnitTest11CurrentTest7DetailsEv
 1633      00
 1634 0b63 488B08   		movq	(%rax), %rcx
 1635 0b66 488D4590 		leaq	-112(%rbp), %rax
 1636 0b6a BA6F0000 		movl	$111, %edx
 1636      00
 1637 0b6f 4889CE   		movq	%rcx, %rsi
 1638 0b72 4889C7   		movq	%rax, %rdi
 1639 0b75 E8000000 		call	_ZN8UnitTest11TestDetailsC1ERKS0_i
 1639      00
 1640              	.LEHE80:
 1641              		.loc 3 111 0 is_stmt 0 discriminator 2
 1642 0b7a 488B45B0 		movq	-80(%rbp), %rax
 1643 0b7e 4883C008 		addq	$8, %rax
 1644 0b82 488B00   		movq	(%rax), %rax
 1645 0b85 4889C7   		movq	%rax, %rdi
 1646 0b88 E8FDF4FF 		call	_ZL5derefPKv
 1646      FF
 1647 0b8d 89857CFF 		movl	%eax, -132(%rbp)
 1647      FFFF
 1648 0b93 48C74588 		movq	$6, -120(%rbp)
 1648      06000000 
 1649              	.LEHB81:
 1650 0b9b E8000000 		call	_ZN8UnitTest11CurrentTest7ResultsEv
 1650      00
 1651 0ba0 488B00   		movq	(%rax), %rax
 1652 0ba3 488D4D90 		leaq	-112(%rbp), %rcx
 1653 0ba7 488D957C 		leaq	-132(%rbp), %rdx
 1653      FFFFFF
 1654 0bae 488D7588 		leaq	-120(%rbp), %rsi
 1655 0bb2 4889C7   		movq	%rax, %rdi
 1656 0bb5 E8000000 		call	_ZN8UnitTest10CheckEqualImjEEvRNS_11TestResultsERKT_RKT0_RKNS_11TestDetailsE
 1656      00
 1657              	.LEHE81:
 1658              	.L138:
 1659              	.LEHB82:
 112:testCore.cpp  **** 	CHECK_EQUAL(7UL, deref(queue.itemArray[2]));
 1660              		.loc 3 112 0 is_stmt 1
 1661 0bba E8000000 		call	_ZN8UnitTest11CurrentTest7DetailsEv
 1661      00
 1662 0bbf 488B08   		movq	(%rax), %rcx
 1663 0bc2 488D4590 		leaq	-112(%rbp), %rax
 1664 0bc6 BA700000 		movl	$112, %edx
 1664      00
 1665 0bcb 4889CE   		movq	%rcx, %rsi
 1666 0bce 4889C7   		movq	%rax, %rdi
 1667 0bd1 E8000000 		call	_ZN8UnitTest11TestDetailsC1ERKS0_i
 1667      00
 1668              	.LEHE82:
 1669              		.loc 3 112 0 is_stmt 0 discriminator 2
 1670 0bd6 488B45B0 		movq	-80(%rbp), %rax
 1671 0bda 4883C010 		addq	$16, %rax
 1672 0bde 488B00   		movq	(%rax), %rax
 1673 0be1 4889C7   		movq	%rax, %rdi
 1674 0be4 E8A1F4FF 		call	_ZL5derefPKv
 1674      FF
 1675 0be9 89857CFF 		movl	%eax, -132(%rbp)
 1675      FFFF
 1676 0bef 48C74588 		movq	$7, -120(%rbp)
 1676      07000000 
 1677              	.LEHB83:
 1678 0bf7 E8000000 		call	_ZN8UnitTest11CurrentTest7ResultsEv
 1678      00
 1679 0bfc 488B00   		movq	(%rax), %rax
 1680 0bff 488D4D90 		leaq	-112(%rbp), %rcx
 1681 0c03 488D957C 		leaq	-132(%rbp), %rdx
 1681      FFFFFF
 1682 0c0a 488D7588 		leaq	-120(%rbp), %rsi
 1683 0c0e 4889C7   		movq	%rax, %rdi
 1684 0c11 E8000000 		call	_ZN8UnitTest10CheckEqualImjEEvRNS_11TestResultsERKT_RKT0_RKNS_11TestDetailsE
 1684      00
 1685              	.LEHE83:
 1686              	.L142:
 1687              	.LEHB84:
 113:testCore.cpp  **** 	CHECK_EQUAL(4UL, deref(queue.itemArray[3]));
 1688              		.loc 3 113 0 is_stmt 1
 1689 0c16 E8000000 		call	_ZN8UnitTest11CurrentTest7DetailsEv
 1689      00
 1690 0c1b 488B08   		movq	(%rax), %rcx
 1691 0c1e 488D4590 		leaq	-112(%rbp), %rax
 1692 0c22 BA710000 		movl	$113, %edx
 1692      00
 1693 0c27 4889CE   		movq	%rcx, %rsi
 1694 0c2a 4889C7   		movq	%rax, %rdi
 1695 0c2d E8000000 		call	_ZN8UnitTest11TestDetailsC1ERKS0_i
 1695      00
 1696              	.LEHE84:
 1697              		.loc 3 113 0 is_stmt 0 discriminator 2
 1698 0c32 488B45B0 		movq	-80(%rbp), %rax
 1699 0c36 4883C018 		addq	$24, %rax
 1700 0c3a 488B00   		movq	(%rax), %rax
 1701 0c3d 4889C7   		movq	%rax, %rdi
 1702 0c40 E845F4FF 		call	_ZL5derefPKv
 1702      FF
 1703 0c45 89857CFF 		movl	%eax, -132(%rbp)
 1703      FFFF
 1704 0c4b 48C74588 		movq	$4, -120(%rbp)
 1704      04000000 
 1705              	.LEHB85:
 1706 0c53 E8000000 		call	_ZN8UnitTest11CurrentTest7ResultsEv
 1706      00
 1707 0c58 488B00   		movq	(%rax), %rax
 1708 0c5b 488D4D90 		leaq	-112(%rbp), %rcx
 1709 0c5f 488D957C 		leaq	-132(%rbp), %rdx
 1709      FFFFFF
 1710 0c66 488D7588 		leaq	-120(%rbp), %rsi
 1711 0c6a 4889C7   		movq	%rax, %rdi
 1712 0c6d E8000000 		call	_ZN8UnitTest10CheckEqualImjEEvRNS_11TestResultsERKT_RKT0_RKNS_11TestDetailsE
 1712      00
 1713              	.LEHE85:
 1714              	.L146:
 114:testCore.cpp  **** 
 115:testCore.cpp  **** 	// Clean up
 116:testCore.cpp  **** 	queueDestroy(&queue);
 1715              		.loc 3 116 0 is_stmt 1
 1716 0c72 488D45B0 		leaq	-80(%rbp), %rax
 1717 0c76 4889C7   		movq	%rax, %rdi
 1718              	.LEHB86:
 1719 0c79 E8000000 		call	queueDestroy
 1719      00
 1720              	.LEHE86:
 117:testCore.cpp  **** }
 1721              		.loc 3 117 0
 1722 0c7e 90       		nop
 1723 0c7f 488B45E8 		movq	-24(%rbp), %rax
 1724 0c83 64483304 		xorq	%fs:40, %rax
 1724      25280000 
 1724      00
 1725 0c8c 0F849B05 		je	.L148
 1725      0000
 1726 0c92 E9910500 		jmp	.L194
 1726      00
 1727              	.L150:
 1728 0c97 EB00     		jmp	.L89
 1729              	.L149:
 1730              	.L89:
  84:testCore.cpp  **** 
 1731              		.loc 3 84 0
 1732 0c99 4889C7   		movq	%rax, %rdi
 1733 0c9c E8000000 		call	__cxa_begin_catch
 1733      00
 1734              	.LEHB87:
 1735 0ca1 E8000000 		call	_ZN8UnitTest11CurrentTest7DetailsEv
 1735      00
 1736 0ca6 488B08   		movq	(%rax), %rcx
 1737 0ca9 488D4590 		leaq	-112(%rbp), %rax
 1738 0cad BA540000 		movl	$84, %edx
 1738      00
 1739 0cb2 4889CE   		movq	%rcx, %rsi
 1740 0cb5 4889C7   		movq	%rax, %rdi
 1741 0cb8 E8000000 		call	_ZN8UnitTest11TestDetailsC1ERKS0_i
 1741      00
  84:testCore.cpp  **** 
 1742              		.loc 3 84 0 is_stmt 0 discriminator 10
 1743 0cbd E8000000 		call	_ZN8UnitTest11CurrentTest7ResultsEv
 1743      00
 1744 0cc2 488B00   		movq	(%rax), %rax
 1745 0cc5 488D4D90 		leaq	-112(%rbp), %rcx
 1746 0cc9 BA000000 		movl	$.LC3, %edx
 1746      00
 1747 0cce 4889CE   		movq	%rcx, %rsi
 1748 0cd1 4889C7   		movq	%rax, %rdi
 1749 0cd4 E8000000 		call	_ZN8UnitTest11TestResults13OnTestFailureERKNS_11TestDetailsEPKc
 1749      00
 1750              	.LEHE87:
 1751              	.LEHB88:
  84:testCore.cpp  **** 
 1752              		.loc 3 84 0 discriminator 14
 1753 0cd9 E8000000 		call	__cxa_end_catch
 1753      00
 1754              	.LEHE88:
 1755 0cde E9D6FAFF 		jmp	.L90
 1755      FF
 1756              	.L151:
 1757 0ce3 4889C3   		movq	%rax, %rbx
  84:testCore.cpp  **** 
 1758              		.loc 3 84 0
 1759 0ce6 E8000000 		call	__cxa_end_catch
 1759      00
 1760 0ceb 4889D8   		movq	%rbx, %rax
 1761 0cee 4889C7   		movq	%rax, %rdi
 1762              	.LEHB89:
 1763 0cf1 E8000000 		call	_Unwind_Resume
 1763      00
 1764              	.LEHE89:
 1765              	.L153:
 1766 0cf6 EB00     		jmp	.L93
 1767              	.L152:
 1768              	.L93:
  88:testCore.cpp  **** 	CHECK_EQUAL(1UL, *item);
 1769              		.loc 3 88 0 is_stmt 1
 1770 0cf8 4889C7   		movq	%rax, %rdi
 1771 0cfb E8000000 		call	__cxa_begin_catch
 1771      00
 1772              	.LEHB90:
 1773 0d00 E8000000 		call	_ZN8UnitTest11CurrentTest7DetailsEv
 1773      00
 1774 0d05 488B08   		movq	(%rax), %rcx
 1775 0d08 488D4590 		leaq	-112(%rbp), %rax
 1776 0d0c BA580000 		movl	$88, %edx
 1776      00
 1777 0d11 4889CE   		movq	%rcx, %rsi
 1778 0d14 4889C7   		movq	%rax, %rdi
 1779 0d17 E8000000 		call	_ZN8UnitTest11TestDetailsC1ERKS0_i
 1779      00
  88:testCore.cpp  **** 	CHECK_EQUAL(1UL, *item);
 1780              		.loc 3 88 0 is_stmt 0 discriminator 10
 1781 0d1c E8000000 		call	_ZN8UnitTest11CurrentTest7ResultsEv
 1781      00
 1782 0d21 488B00   		movq	(%rax), %rax
 1783 0d24 488D4D90 		leaq	-112(%rbp), %rcx
 1784 0d28 BA000000 		movl	$.LC3, %edx
 1784      00
 1785 0d2d 4889CE   		movq	%rcx, %rsi
 1786 0d30 4889C7   		movq	%rax, %rdi
 1787 0d33 E8000000 		call	_ZN8UnitTest11TestResults13OnTestFailureERKNS_11TestDetailsEPKc
 1787      00
 1788              	.LEHE90:
 1789              	.LEHB91:
  88:testCore.cpp  **** 	CHECK_EQUAL(1UL, *item);
 1790              		.loc 3 88 0 discriminator 14
 1791 0d38 E8000000 		call	__cxa_end_catch
 1791      00
 1792              	.LEHE91:
 1793 0d3d E9D2FAFF 		jmp	.L94
 1793      FF
 1794              	.L154:
 1795 0d42 4889C3   		movq	%rax, %rbx
  88:testCore.cpp  **** 	CHECK_EQUAL(1UL, *item);
 1796              		.loc 3 88 0
 1797 0d45 E8000000 		call	__cxa_end_catch
 1797      00
 1798 0d4a 4889D8   		movq	%rbx, %rax
 1799 0d4d 4889C7   		movq	%rax, %rdi
 1800              	.LEHB92:
 1801 0d50 E8000000 		call	_Unwind_Resume
 1801      00
 1802              	.LEHE92:
 1803              	.L156:
 1804 0d55 EB00     		jmp	.L97
 1805              	.L155:
 1806              	.L97:
  89:testCore.cpp  **** 	*item = 5;
 1807              		.loc 3 89 0 is_stmt 1
 1808 0d57 4889C7   		movq	%rax, %rdi
 1809 0d5a E8000000 		call	__cxa_begin_catch
 1809      00
 1810              	.LEHB93:
 1811 0d5f E8000000 		call	_ZN8UnitTest11CurrentTest7DetailsEv
 1811      00
 1812 0d64 488B08   		movq	(%rax), %rcx
 1813 0d67 488D4590 		leaq	-112(%rbp), %rax
 1814 0d6b BA590000 		movl	$89, %edx
 1814      00
 1815 0d70 4889CE   		movq	%rcx, %rsi
 1816 0d73 4889C7   		movq	%rax, %rdi
 1817 0d76 E8000000 		call	_ZN8UnitTest11TestDetailsC1ERKS0_i
 1817      00
  89:testCore.cpp  **** 	*item = 5;
 1818              		.loc 3 89 0 is_stmt 0 discriminator 10
 1819 0d7b E8000000 		call	_ZN8UnitTest11CurrentTest7ResultsEv
 1819      00
 1820 0d80 488B00   		movq	(%rax), %rax
 1821 0d83 488D4D90 		leaq	-112(%rbp), %rcx
 1822 0d87 BA000000 		movl	$.LC13, %edx
 1822      00
 1823 0d8c 4889CE   		movq	%rcx, %rsi
 1824 0d8f 4889C7   		movq	%rax, %rdi
 1825 0d92 E8000000 		call	_ZN8UnitTest11TestResults13OnTestFailureERKNS_11TestDetailsEPKc
 1825      00
 1826              	.LEHE93:
 1827              	.LEHB94:
  89:testCore.cpp  **** 	*item = 5;
 1828              		.loc 3 89 0 discriminator 14
 1829 0d97 E8000000 		call	__cxa_end_catch
 1829      00
 1830              	.LEHE94:
 1831 0d9c E9B9FAFF 		jmp	.L98
 1831      FF
 1832              	.L157:
 1833 0da1 4889C3   		movq	%rax, %rbx
  89:testCore.cpp  **** 	*item = 5;
 1834              		.loc 3 89 0
 1835 0da4 E8000000 		call	__cxa_end_catch
 1835      00
 1836 0da9 4889D8   		movq	%rbx, %rax
 1837 0dac 4889C7   		movq	%rax, %rdi
 1838              	.LEHB95:
 1839 0daf E8000000 		call	_Unwind_Resume
 1839      00
 1840              	.LEHE95:
 1841              	.L159:
 1842 0db4 EB00     		jmp	.L101
 1843              	.L158:
 1844              	.L101:
  93:testCore.cpp  **** 	CHECK_EQUAL(2UL, *item);
 1845              		.loc 3 93 0 is_stmt 1
 1846 0db6 4889C7   		movq	%rax, %rdi
 1847 0db9 E8000000 		call	__cxa_begin_catch
 1847      00
 1848              	.LEHB96:
 1849 0dbe E8000000 		call	_ZN8UnitTest11CurrentTest7DetailsEv
 1849      00
 1850 0dc3 488B08   		movq	(%rax), %rcx
 1851 0dc6 488D4590 		leaq	-112(%rbp), %rax
 1852 0dca BA5D0000 		movl	$93, %edx
 1852      00
 1853 0dcf 4889CE   		movq	%rcx, %rsi
 1854 0dd2 4889C7   		movq	%rax, %rdi
 1855 0dd5 E8000000 		call	_ZN8UnitTest11TestDetailsC1ERKS0_i
 1855      00
  93:testCore.cpp  **** 	CHECK_EQUAL(2UL, *item);
 1856              		.loc 3 93 0 is_stmt 0 discriminator 10
 1857 0dda E8000000 		call	_ZN8UnitTest11CurrentTest7ResultsEv
 1857      00
 1858 0ddf 488B00   		movq	(%rax), %rax
 1859 0de2 488D4D90 		leaq	-112(%rbp), %rcx
 1860 0de6 BA000000 		movl	$.LC3, %edx
 1860      00
 1861 0deb 4889CE   		movq	%rcx, %rsi
 1862 0dee 4889C7   		movq	%rax, %rdi
 1863 0df1 E8000000 		call	_ZN8UnitTest11TestResults13OnTestFailureERKNS_11TestDetailsEPKc
 1863      00
 1864              	.LEHE96:
 1865              	.LEHB97:
  93:testCore.cpp  **** 	CHECK_EQUAL(2UL, *item);
 1866              		.loc 3 93 0 discriminator 14
 1867 0df6 E8000000 		call	__cxa_end_catch
 1867      00
 1868              	.LEHE97:
 1869 0dfb E9CBFAFF 		jmp	.L102
 1869      FF
 1870              	.L160:
 1871 0e00 4889C3   		movq	%rax, %rbx
  93:testCore.cpp  **** 	CHECK_EQUAL(2UL, *item);
 1872              		.loc 3 93 0
 1873 0e03 E8000000 		call	__cxa_end_catch
 1873      00
 1874 0e08 4889D8   		movq	%rbx, %rax
 1875 0e0b 4889C7   		movq	%rax, %rdi
 1876              	.LEHB98:
 1877 0e0e E8000000 		call	_Unwind_Resume
 1877      00
 1878              	.LEHE98:
 1879              	.L162:
 1880 0e13 EB00     		jmp	.L105
 1881              	.L161:
 1882              	.L105:
  94:testCore.cpp  **** 	*item = 6;
 1883              		.loc 3 94 0 is_stmt 1
 1884 0e15 4889C7   		movq	%rax, %rdi
 1885 0e18 E8000000 		call	__cxa_begin_catch
 1885      00
 1886              	.LEHB99:
 1887 0e1d E8000000 		call	_ZN8UnitTest11CurrentTest7DetailsEv
 1887      00
 1888 0e22 488B08   		movq	(%rax), %rcx
 1889 0e25 488D4590 		leaq	-112(%rbp), %rax
 1890 0e29 BA5E0000 		movl	$94, %edx
 1890      00
 1891 0e2e 4889CE   		movq	%rcx, %rsi
 1892 0e31 4889C7   		movq	%rax, %rdi
 1893 0e34 E8000000 		call	_ZN8UnitTest11TestDetailsC1ERKS0_i
 1893      00
  94:testCore.cpp  **** 	*item = 6;
 1894              		.loc 3 94 0 is_stmt 0 discriminator 10
 1895 0e39 E8000000 		call	_ZN8UnitTest11CurrentTest7ResultsEv
 1895      00
 1896 0e3e 488B00   		movq	(%rax), %rax
 1897 0e41 488D4D90 		leaq	-112(%rbp), %rcx
 1898 0e45 BA000000 		movl	$.LC14, %edx
 1898      00
 1899 0e4a 4889CE   		movq	%rcx, %rsi
 1900 0e4d 4889C7   		movq	%rax, %rdi
 1901 0e50 E8000000 		call	_ZN8UnitTest11TestResults13OnTestFailureERKNS_11TestDetailsEPKc
 1901      00
 1902              	.LEHE99:
 1903              	.LEHB100:
  94:testCore.cpp  **** 	*item = 6;
 1904              		.loc 3 94 0 discriminator 14
 1905 0e55 E8000000 		call	__cxa_end_catch
 1905      00
 1906              	.LEHE100:
 1907 0e5a E9B2FAFF 		jmp	.L106
 1907      FF
 1908              	.L163:
 1909 0e5f 4889C3   		movq	%rax, %rbx
  94:testCore.cpp  **** 	*item = 6;
 1910              		.loc 3 94 0
 1911 0e62 E8000000 		call	__cxa_end_catch
 1911      00
 1912 0e67 4889D8   		movq	%rbx, %rax
 1913 0e6a 4889C7   		movq	%rax, %rdi
 1914              	.LEHB101:
 1915 0e6d E8000000 		call	_Unwind_Resume
 1915      00
 1916              	.LEHE101:
 1917              	.L165:
 1918 0e72 EB00     		jmp	.L109
 1919              	.L164:
 1920              	.L109:
  98:testCore.cpp  **** 	CHECK_EQUAL(3UL, *item);
 1921              		.loc 3 98 0 is_stmt 1
 1922 0e74 4889C7   		movq	%rax, %rdi
 1923 0e77 E8000000 		call	__cxa_begin_catch
 1923      00
 1924              	.LEHB102:
 1925 0e7c E8000000 		call	_ZN8UnitTest11CurrentTest7DetailsEv
 1925      00
 1926 0e81 488B08   		movq	(%rax), %rcx
 1927 0e84 488D4590 		leaq	-112(%rbp), %rax
 1928 0e88 BA620000 		movl	$98, %edx
 1928      00
 1929 0e8d 4889CE   		movq	%rcx, %rsi
 1930 0e90 4889C7   		movq	%rax, %rdi
 1931 0e93 E8000000 		call	_ZN8UnitTest11TestDetailsC1ERKS0_i
 1931      00
  98:testCore.cpp  **** 	CHECK_EQUAL(3UL, *item);
 1932              		.loc 3 98 0 is_stmt 0 discriminator 10
 1933 0e98 E8000000 		call	_ZN8UnitTest11CurrentTest7ResultsEv
 1933      00
 1934 0e9d 488B00   		movq	(%rax), %rax
 1935 0ea0 488D4D90 		leaq	-112(%rbp), %rcx
 1936 0ea4 BA000000 		movl	$.LC3, %edx
 1936      00
 1937 0ea9 4889CE   		movq	%rcx, %rsi
 1938 0eac 4889C7   		movq	%rax, %rdi
 1939 0eaf E8000000 		call	_ZN8UnitTest11TestResults13OnTestFailureERKNS_11TestDetailsEPKc
 1939      00
 1940              	.LEHE102:
 1941              	.LEHB103:
  98:testCore.cpp  **** 	CHECK_EQUAL(3UL, *item);
 1942              		.loc 3 98 0 discriminator 14
 1943 0eb4 E8000000 		call	__cxa_end_catch
 1943      00
 1944              	.LEHE103:
 1945 0eb9 E9C4FAFF 		jmp	.L110
 1945      FF
 1946              	.L166:
 1947 0ebe 4889C3   		movq	%rax, %rbx
  98:testCore.cpp  **** 	CHECK_EQUAL(3UL, *item);
 1948              		.loc 3 98 0
 1949 0ec1 E8000000 		call	__cxa_end_catch
 1949      00
 1950 0ec6 4889D8   		movq	%rbx, %rax
 1951 0ec9 4889C7   		movq	%rax, %rdi
 1952              	.LEHB104:
 1953 0ecc E8000000 		call	_Unwind_Resume
 1953      00
 1954              	.LEHE104:
 1955              	.L168:
 1956 0ed1 EB00     		jmp	.L113
 1957              	.L167:
 1958              	.L113:
  99:testCore.cpp  **** 	*item = 7;
 1959              		.loc 3 99 0 is_stmt 1
 1960 0ed3 4889C7   		movq	%rax, %rdi
 1961 0ed6 E8000000 		call	__cxa_begin_catch
 1961      00
 1962              	.LEHB105:
 1963 0edb E8000000 		call	_ZN8UnitTest11CurrentTest7DetailsEv
 1963      00
 1964 0ee0 488B08   		movq	(%rax), %rcx
 1965 0ee3 488D4590 		leaq	-112(%rbp), %rax
 1966 0ee7 BA630000 		movl	$99, %edx
 1966      00
 1967 0eec 4889CE   		movq	%rcx, %rsi
 1968 0eef 4889C7   		movq	%rax, %rdi
 1969 0ef2 E8000000 		call	_ZN8UnitTest11TestDetailsC1ERKS0_i
 1969      00
  99:testCore.cpp  **** 	*item = 7;
 1970              		.loc 3 99 0 is_stmt 0 discriminator 10
 1971 0ef7 E8000000 		call	_ZN8UnitTest11CurrentTest7ResultsEv
 1971      00
 1972 0efc 488B00   		movq	(%rax), %rax
 1973 0eff 488D4D90 		leaq	-112(%rbp), %rcx
 1974 0f03 BA000000 		movl	$.LC15, %edx
 1974      00
 1975 0f08 4889CE   		movq	%rcx, %rsi
 1976 0f0b 4889C7   		movq	%rax, %rdi
 1977 0f0e E8000000 		call	_ZN8UnitTest11TestResults13OnTestFailureERKNS_11TestDetailsEPKc
 1977      00
 1978              	.LEHE105:
 1979              	.LEHB106:
  99:testCore.cpp  **** 	*item = 7;
 1980              		.loc 3 99 0 discriminator 14
 1981 0f13 E8000000 		call	__cxa_end_catch
 1981      00
 1982              	.LEHE106:
 1983 0f18 E9ABFAFF 		jmp	.L114
 1983      FF
 1984              	.L169:
 1985 0f1d 4889C3   		movq	%rax, %rbx
  99:testCore.cpp  **** 	*item = 7;
 1986              		.loc 3 99 0
 1987 0f20 E8000000 		call	__cxa_end_catch
 1987      00
 1988 0f25 4889D8   		movq	%rbx, %rax
 1989 0f28 4889C7   		movq	%rax, %rdi
 1990              	.LEHB107:
 1991 0f2b E8000000 		call	_Unwind_Resume
 1991      00
 1992              	.LEHE107:
 1993              	.L171:
 1994 0f30 EB00     		jmp	.L117
 1995              	.L170:
 1996              	.L117:
 104:testCore.cpp  **** 	CHECK_EQUAL(3UL, queue.putIndex);
 1997              		.loc 3 104 0 is_stmt 1
 1998 0f32 4889C7   		movq	%rax, %rdi
 1999 0f35 E8000000 		call	__cxa_begin_catch
 1999      00
 2000              	.LEHB108:
 2001 0f3a E8000000 		call	_ZN8UnitTest11CurrentTest7DetailsEv
 2001      00
 2002 0f3f 488B08   		movq	(%rax), %rcx
 2003 0f42 488D4590 		leaq	-112(%rbp), %rax
 2004 0f46 BA680000 		movl	$104, %edx
 2004      00
 2005 0f4b 4889CE   		movq	%rcx, %rsi
 2006 0f4e 4889C7   		movq	%rax, %rdi
 2007 0f51 E8000000 		call	_ZN8UnitTest11TestDetailsC1ERKS0_i
 2007      00
 104:testCore.cpp  **** 	CHECK_EQUAL(3UL, queue.putIndex);
 2008              		.loc 3 104 0 is_stmt 0 discriminator 10
 2009 0f56 E8000000 		call	_ZN8UnitTest11CurrentTest7ResultsEv
 2009      00
 2010 0f5b 488B00   		movq	(%rax), %rax
 2011 0f5e 488D4D90 		leaq	-112(%rbp), %rcx
 2012 0f62 BA000000 		movl	$.LC4, %edx
 2012      00
 2013 0f67 4889CE   		movq	%rcx, %rsi
 2014 0f6a 4889C7   		movq	%rax, %rdi
 2015 0f6d E8000000 		call	_ZN8UnitTest11TestResults13OnTestFailureERKNS_11TestDetailsEPKc
 2015      00
 2016              	.LEHE108:
 2017              	.LEHB109:
 104:testCore.cpp  **** 	CHECK_EQUAL(3UL, queue.putIndex);
 2018              		.loc 3 104 0 discriminator 14
 2019 0f72 E8000000 		call	__cxa_end_catch
 2019      00
 2020              	.LEHE109:
 2021 0f77 E9ACFAFF 		jmp	.L118
 2021      FF
 2022              	.L172:
 2023 0f7c 4889C3   		movq	%rax, %rbx
 104:testCore.cpp  **** 	CHECK_EQUAL(3UL, queue.putIndex);
 2024              		.loc 3 104 0
 2025 0f7f E8000000 		call	__cxa_end_catch
 2025      00
 2026 0f84 4889D8   		movq	%rbx, %rax
 2027 0f87 4889C7   		movq	%rax, %rdi
 2028              	.LEHB110:
 2029 0f8a E8000000 		call	_Unwind_Resume
 2029      00
 2030              	.LEHE110:
 2031              	.L174:
 2032 0f8f EB00     		jmp	.L121
 2033              	.L173:
 2034              	.L121:
 105:testCore.cpp  **** 	CHECK_EQUAL(0UL, queue.takeIndex);
 2035              		.loc 3 105 0 is_stmt 1
 2036 0f91 4889C7   		movq	%rax, %rdi
 2037 0f94 E8000000 		call	__cxa_begin_catch
 2037      00
 2038              	.LEHB111:
 2039 0f99 E8000000 		call	_ZN8UnitTest11CurrentTest7DetailsEv
 2039      00
 2040 0f9e 488B08   		movq	(%rax), %rcx
 2041 0fa1 488D4590 		leaq	-112(%rbp), %rax
 2042 0fa5 BA690000 		movl	$105, %edx
 2042      00
 2043 0faa 4889CE   		movq	%rcx, %rsi
 2044 0fad 4889C7   		movq	%rax, %rdi
 2045 0fb0 E8000000 		call	_ZN8UnitTest11TestDetailsC1ERKS0_i
 2045      00
 105:testCore.cpp  **** 	CHECK_EQUAL(0UL, queue.takeIndex);
 2046              		.loc 3 105 0 is_stmt 0 discriminator 10
 2047 0fb5 E8000000 		call	_ZN8UnitTest11CurrentTest7ResultsEv
 2047      00
 2048 0fba 488B00   		movq	(%rax), %rax
 2049 0fbd 488D4D90 		leaq	-112(%rbp), %rcx
 2050 0fc1 BA000000 		movl	$.LC16, %edx
 2050      00
 2051 0fc6 4889CE   		movq	%rcx, %rsi
 2052 0fc9 4889C7   		movq	%rax, %rdi
 2053 0fcc E8000000 		call	_ZN8UnitTest11TestResults13OnTestFailureERKNS_11TestDetailsEPKc
 2053      00
 2054              	.LEHE111:
 2055              	.LEHB112:
 105:testCore.cpp  **** 	CHECK_EQUAL(0UL, queue.takeIndex);
 2056              		.loc 3 105 0 discriminator 14
 2057 0fd1 E8000000 		call	__cxa_end_catch
 2057      00
 2058              	.LEHE112:
 2059 0fd6 E997FAFF 		jmp	.L122
 2059      FF
 2060              	.L175:
 2061 0fdb 4889C3   		movq	%rax, %rbx
 105:testCore.cpp  **** 	CHECK_EQUAL(0UL, queue.takeIndex);
 2062              		.loc 3 105 0
 2063 0fde E8000000 		call	__cxa_end_catch
 2063      00
 2064 0fe3 4889D8   		movq	%rbx, %rax
 2065 0fe6 4889C7   		movq	%rax, %rdi
 2066              	.LEHB113:
 2067 0fe9 E8000000 		call	_Unwind_Resume
 2067      00
 2068              	.LEHE113:
 2069              	.L177:
 2070 0fee EB00     		jmp	.L125
 2071              	.L176:
 2072              	.L125:
 106:testCore.cpp  **** 	CHECK_EQUAL(3UL, queue.numItems);
 2073              		.loc 3 106 0 is_stmt 1
 2074 0ff0 4889C7   		movq	%rax, %rdi
 2075 0ff3 E8000000 		call	__cxa_begin_catch
 2075      00
 2076              	.LEHB114:
 2077 0ff8 E8000000 		call	_ZN8UnitTest11CurrentTest7DetailsEv
 2077      00
 2078 0ffd 488B08   		movq	(%rax), %rcx
 2079 1000 488D4590 		leaq	-112(%rbp), %rax
 2080 1004 BA6A0000 		movl	$106, %edx
 2080      00
 2081 1009 4889CE   		movq	%rcx, %rsi
 2082 100c 4889C7   		movq	%rax, %rdi
 2083 100f E8000000 		call	_ZN8UnitTest11TestDetailsC1ERKS0_i
 2083      00
 106:testCore.cpp  **** 	CHECK_EQUAL(3UL, queue.numItems);
 2084              		.loc 3 106 0 is_stmt 0 discriminator 10
 2085 1014 E8000000 		call	_ZN8UnitTest11CurrentTest7ResultsEv
 2085      00
 2086 1019 488B00   		movq	(%rax), %rax
 2087 101c 488D4D90 		leaq	-112(%rbp), %rcx
 2088 1020 BA000000 		movl	$.LC6, %edx
 2088      00
 2089 1025 4889CE   		movq	%rcx, %rsi
 2090 1028 4889C7   		movq	%rax, %rdi
 2091 102b E8000000 		call	_ZN8UnitTest11TestResults13OnTestFailureERKNS_11TestDetailsEPKc
 2091      00
 2092              	.LEHE114:
 2093              	.LEHB115:
 106:testCore.cpp  **** 	CHECK_EQUAL(3UL, queue.numItems);
 2094              		.loc 3 106 0 discriminator 14
 2095 1030 E8000000 		call	__cxa_end_catch
 2095      00
 2096              	.LEHE115:
 2097 1035 E982FAFF 		jmp	.L126
 2097      FF
 2098              	.L178:
 2099 103a 4889C3   		movq	%rax, %rbx
 106:testCore.cpp  **** 	CHECK_EQUAL(3UL, queue.numItems);
 2100              		.loc 3 106 0
 2101 103d E8000000 		call	__cxa_end_catch
 2101      00
 2102 1042 4889D8   		movq	%rbx, %rax
 2103 1045 4889C7   		movq	%rax, %rdi
 2104              	.LEHB116:
 2105 1048 E8000000 		call	_Unwind_Resume
 2105      00
 2106              	.LEHE116:
 2107              	.L180:
 2108 104d EB00     		jmp	.L129
 2109              	.L179:
 2110              	.L129:
 107:testCore.cpp  **** 
 2111              		.loc 3 107 0 is_stmt 1
 2112 104f 4889C7   		movq	%rax, %rdi
 2113 1052 E8000000 		call	__cxa_begin_catch
 2113      00
 2114              	.LEHB117:
 2115 1057 E8000000 		call	_ZN8UnitTest11CurrentTest7DetailsEv
 2115      00
 2116 105c 488B08   		movq	(%rax), %rcx
 2117 105f 488D4590 		leaq	-112(%rbp), %rax
 2118 1063 BA6B0000 		movl	$107, %edx
 2118      00
 2119 1068 4889CE   		movq	%rcx, %rsi
 2120 106b 4889C7   		movq	%rax, %rdi
 2121 106e E8000000 		call	_ZN8UnitTest11TestDetailsC1ERKS0_i
 2121      00
 107:testCore.cpp  **** 
 2122              		.loc 3 107 0 is_stmt 0 discriminator 10
 2123 1073 E8000000 		call	_ZN8UnitTest11CurrentTest7ResultsEv
 2123      00
 2124 1078 488B00   		movq	(%rax), %rax
 2125 107b 488D4D90 		leaq	-112(%rbp), %rcx
 2126 107f BA000000 		movl	$.LC17, %edx
 2126      00
 2127 1084 4889CE   		movq	%rcx, %rsi
 2128 1087 4889C7   		movq	%rax, %rdi
 2129 108a E8000000 		call	_ZN8UnitTest11TestResults13OnTestFailureERKNS_11TestDetailsEPKc
 2129      00
 2130              	.LEHE117:
 2131              	.LEHB118:
 107:testCore.cpp  **** 
 2132              		.loc 3 107 0 discriminator 14
 2133 108f E8000000 		call	__cxa_end_catch
 2133      00
 2134              	.LEHE118:
 2135 1094 E96DFAFF 		jmp	.L130
 2135      FF
 2136              	.L181:
 2137 1099 4889C3   		movq	%rax, %rbx
 107:testCore.cpp  **** 
 2138              		.loc 3 107 0
 2139 109c E8000000 		call	__cxa_end_catch
 2139      00
 2140 10a1 4889D8   		movq	%rbx, %rax
 2141 10a4 4889C7   		movq	%rax, %rdi
 2142              	.LEHB119:
 2143 10a7 E8000000 		call	_Unwind_Resume
 2143      00
 2144              	.LEHE119:
 2145              	.L183:
 2146 10ac EB00     		jmp	.L133
 2147              	.L182:
 2148              	.L133:
 110:testCore.cpp  **** 	CHECK_EQUAL(6UL, deref(queue.itemArray[1]));
 2149              		.loc 3 110 0 is_stmt 1
 2150 10ae 4889C7   		movq	%rax, %rdi
 2151 10b1 E8000000 		call	__cxa_begin_catch
 2151      00
 2152              	.LEHB120:
 2153 10b6 E8000000 		call	_ZN8UnitTest11CurrentTest7DetailsEv
 2153      00
 2154 10bb 488B08   		movq	(%rax), %rcx
 2155 10be 488D4590 		leaq	-112(%rbp), %rax
 2156 10c2 BA6E0000 		movl	$110, %edx
 2156      00
 2157 10c7 4889CE   		movq	%rcx, %rsi
 2158 10ca 4889C7   		movq	%rax, %rdi
 2159 10cd E8000000 		call	_ZN8UnitTest11TestDetailsC1ERKS0_i
 2159      00
 110:testCore.cpp  **** 	CHECK_EQUAL(6UL, deref(queue.itemArray[1]));
 2160              		.loc 3 110 0 is_stmt 0 discriminator 10
 2161 10d2 E8000000 		call	_ZN8UnitTest11CurrentTest7ResultsEv
 2161      00
 2162 10d7 488B00   		movq	(%rax), %rax
 2163 10da 488D4D90 		leaq	-112(%rbp), %rcx
 2164 10de BA000000 		movl	$.LC18, %edx
 2164      00
 2165 10e3 4889CE   		movq	%rcx, %rsi
 2166 10e6 4889C7   		movq	%rax, %rdi
 2167 10e9 E8000000 		call	_ZN8UnitTest11TestResults13OnTestFailureERKNS_11TestDetailsEPKc
 2167      00
 2168              	.LEHE120:
 2169              	.LEHB121:
 110:testCore.cpp  **** 	CHECK_EQUAL(6UL, deref(queue.itemArray[1]));
 2170              		.loc 3 110 0 discriminator 14
 2171 10ee E8000000 		call	__cxa_end_catch
 2171      00
 2172              	.LEHE121:
 2173 10f3 E966FAFF 		jmp	.L134
 2173      FF
 2174              	.L184:
 2175 10f8 4889C3   		movq	%rax, %rbx
 110:testCore.cpp  **** 	CHECK_EQUAL(6UL, deref(queue.itemArray[1]));
 2176              		.loc 3 110 0
 2177 10fb E8000000 		call	__cxa_end_catch
 2177      00
 2178 1100 4889D8   		movq	%rbx, %rax
 2179 1103 4889C7   		movq	%rax, %rdi
 2180              	.LEHB122:
 2181 1106 E8000000 		call	_Unwind_Resume
 2181      00
 2182              	.LEHE122:
 2183              	.L186:
 2184 110b EB00     		jmp	.L137
 2185              	.L185:
 2186              	.L137:
 111:testCore.cpp  **** 	CHECK_EQUAL(7UL, deref(queue.itemArray[2]));
 2187              		.loc 3 111 0 is_stmt 1
 2188 110d 4889C7   		movq	%rax, %rdi
 2189 1110 E8000000 		call	__cxa_begin_catch
 2189      00
 2190              	.LEHB123:
 2191 1115 E8000000 		call	_ZN8UnitTest11CurrentTest7DetailsEv
 2191      00
 2192 111a 488B08   		movq	(%rax), %rcx
 2193 111d 488D4590 		leaq	-112(%rbp), %rax
 2194 1121 BA6F0000 		movl	$111, %edx
 2194      00
 2195 1126 4889CE   		movq	%rcx, %rsi
 2196 1129 4889C7   		movq	%rax, %rdi
 2197 112c E8000000 		call	_ZN8UnitTest11TestDetailsC1ERKS0_i
 2197      00
 111:testCore.cpp  **** 	CHECK_EQUAL(7UL, deref(queue.itemArray[2]));
 2198              		.loc 3 111 0 is_stmt 0 discriminator 10
 2199 1131 E8000000 		call	_ZN8UnitTest11CurrentTest7ResultsEv
 2199      00
 2200 1136 488B00   		movq	(%rax), %rax
 2201 1139 488D4D90 		leaq	-112(%rbp), %rcx
 2202 113d BA000000 		movl	$.LC19, %edx
 2202      00
 2203 1142 4889CE   		movq	%rcx, %rsi
 2204 1145 4889C7   		movq	%rax, %rdi
 2205 1148 E8000000 		call	_ZN8UnitTest11TestResults13OnTestFailureERKNS_11TestDetailsEPKc
 2205      00
 2206              	.LEHE123:
 2207              	.LEHB124:
 111:testCore.cpp  **** 	CHECK_EQUAL(7UL, deref(queue.itemArray[2]));
 2208              		.loc 3 111 0 discriminator 14
 2209 114d E8000000 		call	__cxa_end_catch
 2209      00
 2210              	.LEHE124:
 2211 1152 E963FAFF 		jmp	.L138
 2211      FF
 2212              	.L187:
 2213 1157 4889C3   		movq	%rax, %rbx
 111:testCore.cpp  **** 	CHECK_EQUAL(7UL, deref(queue.itemArray[2]));
 2214              		.loc 3 111 0
 2215 115a E8000000 		call	__cxa_end_catch
 2215      00
 2216 115f 4889D8   		movq	%rbx, %rax
 2217 1162 4889C7   		movq	%rax, %rdi
 2218              	.LEHB125:
 2219 1165 E8000000 		call	_Unwind_Resume
 2219      00
 2220              	.LEHE125:
 2221              	.L189:
 2222 116a EB00     		jmp	.L141
 2223              	.L188:
 2224              	.L141:
 112:testCore.cpp  **** 	CHECK_EQUAL(4UL, deref(queue.itemArray[3]));
 2225              		.loc 3 112 0 is_stmt 1
 2226 116c 4889C7   		movq	%rax, %rdi
 2227 116f E8000000 		call	__cxa_begin_catch
 2227      00
 2228              	.LEHB126:
 2229 1174 E8000000 		call	_ZN8UnitTest11CurrentTest7DetailsEv
 2229      00
 2230 1179 488B08   		movq	(%rax), %rcx
 2231 117c 488D4590 		leaq	-112(%rbp), %rax
 2232 1180 BA700000 		movl	$112, %edx
 2232      00
 2233 1185 4889CE   		movq	%rcx, %rsi
 2234 1188 4889C7   		movq	%rax, %rdi
 2235 118b E8000000 		call	_ZN8UnitTest11TestDetailsC1ERKS0_i
 2235      00
 112:testCore.cpp  **** 	CHECK_EQUAL(4UL, deref(queue.itemArray[3]));
 2236              		.loc 3 112 0 is_stmt 0 discriminator 10
 2237 1190 E8000000 		call	_ZN8UnitTest11CurrentTest7ResultsEv
 2237      00
 2238 1195 488B00   		movq	(%rax), %rax
 2239 1198 488D4D90 		leaq	-112(%rbp), %rcx
 2240 119c BA000000 		movl	$.LC20, %edx
 2240      00
 2241 11a1 4889CE   		movq	%rcx, %rsi
 2242 11a4 4889C7   		movq	%rax, %rdi
 2243 11a7 E8000000 		call	_ZN8UnitTest11TestResults13OnTestFailureERKNS_11TestDetailsEPKc
 2243      00
 2244              	.LEHE126:
 2245              	.LEHB127:
 112:testCore.cpp  **** 	CHECK_EQUAL(4UL, deref(queue.itemArray[3]));
 2246              		.loc 3 112 0 discriminator 14
 2247 11ac E8000000 		call	__cxa_end_catch
 2247      00
 2248              	.LEHE127:
 2249 11b1 E960FAFF 		jmp	.L142
 2249      FF
 2250              	.L190:
 2251 11b6 4889C3   		movq	%rax, %rbx
 112:testCore.cpp  **** 	CHECK_EQUAL(4UL, deref(queue.itemArray[3]));
 2252              		.loc 3 112 0
 2253 11b9 E8000000 		call	__cxa_end_catch
 2253      00
 2254 11be 4889D8   		movq	%rbx, %rax
 2255 11c1 4889C7   		movq	%rax, %rdi
 2256              	.LEHB128:
 2257 11c4 E8000000 		call	_Unwind_Resume
 2257      00
 2258              	.LEHE128:
 2259              	.L192:
 2260 11c9 EB00     		jmp	.L145
 2261              	.L191:
 2262              	.L145:
 113:testCore.cpp  **** 
 2263              		.loc 3 113 0 is_stmt 1
 2264 11cb 4889C7   		movq	%rax, %rdi
 2265 11ce E8000000 		call	__cxa_begin_catch
 2265      00
 2266              	.LEHB129:
 2267 11d3 E8000000 		call	_ZN8UnitTest11CurrentTest7DetailsEv
 2267      00
 2268 11d8 488B08   		movq	(%rax), %rcx
 2269 11db 488D4590 		leaq	-112(%rbp), %rax
 2270 11df BA710000 		movl	$113, %edx
 2270      00
 2271 11e4 4889CE   		movq	%rcx, %rsi
 2272 11e7 4889C7   		movq	%rax, %rdi
 2273 11ea E8000000 		call	_ZN8UnitTest11TestDetailsC1ERKS0_i
 2273      00
 113:testCore.cpp  **** 
 2274              		.loc 3 113 0 is_stmt 0 discriminator 10
 2275 11ef E8000000 		call	_ZN8UnitTest11CurrentTest7ResultsEv
 2275      00
 2276 11f4 488B00   		movq	(%rax), %rax
 2277 11f7 488D4D90 		leaq	-112(%rbp), %rcx
 2278 11fb BA000000 		movl	$.LC11, %edx
 2278      00
 2279 1200 4889CE   		movq	%rcx, %rsi
 2280 1203 4889C7   		movq	%rax, %rdi
 2281 1206 E8000000 		call	_ZN8UnitTest11TestResults13OnTestFailureERKNS_11TestDetailsEPKc
 2281      00
 2282              	.LEHE129:
 2283              	.LEHB130:
 113:testCore.cpp  **** 
 2284              		.loc 3 113 0 discriminator 14
 2285 120b E8000000 		call	__cxa_end_catch
 2285      00
 2286              	.LEHE130:
 2287 1210 E95DFAFF 		jmp	.L146
 2287      FF
 2288              	.L193:
 2289 1215 4889C3   		movq	%rax, %rbx
 113:testCore.cpp  **** 
 2290              		.loc 3 113 0
 2291 1218 E8000000 		call	__cxa_end_catch
 2291      00
 2292 121d 4889D8   		movq	%rbx, %rax
 2293 1220 4889C7   		movq	%rax, %rdi
 2294              	.LEHB131:
 2295 1223 E8000000 		call	_Unwind_Resume
 2295      00
 2296              	.LEHE131:
 2297              	.L194:
 2298              		.loc 3 117 0 is_stmt 1
 2299 1228 E8000000 		call	__stack_chk_fail
 2299      00
 2300              	.L148:
 2301 122d 4881C498 		addq	$152, %rsp
 2301      000000
 2302 1234 5B       		popq	%rbx
 2303 1235 5D       		popq	%rbp
 2304              		.cfi_def_cfa 7, 8
 2305 1236 C3       		ret
 2306              		.cfi_endproc
 2307              	.LFE1088:
 2308              		.section	.gcc_except_table
 2309              		.align 4
 2310              	.LLSDA1088:
 2311 0114 FF       		.byte	0xff
 2312 0115 03       		.byte	0x3
 2313 0116 CC03     		.uleb128 .LLSDATT1088-.LLSDATTD1088
 2314              	.LLSDATTD1088:
 2315 0118 01       		.byte	0x1
 2316 0119 BF03     		.uleb128 .LLSDACSE1088-.LLSDACSB1088
 2317              	.LLSDACSB1088:
 2318 011b 42       		.uleb128 .LEHB51-.LFB1088
 2319 011c 05       		.uleb128 .LEHE51-.LEHB51
 2320 011d 00       		.uleb128 0
 2321 011e 00       		.uleb128 0
 2322 011f 4D       		.uleb128 .LEHB52-.LFB1088
 2323 0120 1C       		.uleb128 .LEHE52-.LEHB52
 2324 0121 EF0A     		.uleb128 .L149-.LFB1088
 2325 0123 01       		.uleb128 0x1
 2326 0124 70       		.uleb128 .LEHB53-.LFB1088
 2327 0125 1F       		.uleb128 .LEHE53-.LEHB53
 2328 0126 ED0A     		.uleb128 .L150-.LFB1088
 2329 0128 03       		.uleb128 0x3
 2330 0129 9D01     		.uleb128 .LEHB54-.LFB1088
 2331 012b 05       		.uleb128 .LEHE54-.LEHB54
 2332 012c 00       		.uleb128 0
 2333 012d 00       		.uleb128 0
 2334 012e A801     		.uleb128 .LEHB55-.LFB1088
 2335 0130 1C       		.uleb128 .LEHE55-.LEHB55
 2336 0131 CE0B     		.uleb128 .L152-.LFB1088
 2337 0133 01       		.uleb128 0x1
 2338 0134 CB01     		.uleb128 .LEHB56-.LFB1088
 2339 0136 1F       		.uleb128 .LEHE56-.LEHB56
 2340 0137 CC0B     		.uleb128 .L153-.LFB1088
 2341 0139 03       		.uleb128 0x3
 2342 013a EA01     		.uleb128 .LEHB57-.LFB1088
 2343 013c 1C       		.uleb128 .LEHE57-.LEHB57
 2344 013d AD0C     		.uleb128 .L155-.LFB1088
 2345 013f 01       		.uleb128 0x1
 2346 0140 9202     		.uleb128 .LEHB58-.LFB1088
 2347 0142 1E       		.uleb128 .LEHE58-.LEHB58
 2348 0143 AB0C     		.uleb128 .L156-.LFB1088
 2349 0145 03       		.uleb128 0x3
 2350 0146 C102     		.uleb128 .LEHB59-.LFB1088
 2351 0148 18       		.uleb128 .LEHE59-.LEHB59
 2352 0149 00       		.uleb128 0
 2353 014a 00       		.uleb128 0
 2354 014b DF02     		.uleb128 .LEHB60-.LFB1088
 2355 014d 1C       		.uleb128 .LEHE60-.LEHB60
 2356 014e 8C0D     		.uleb128 .L158-.LFB1088
 2357 0150 01       		.uleb128 0x1
 2358 0151 8203     		.uleb128 .LEHB61-.LFB1088
 2359 0153 1F       		.uleb128 .LEHE61-.LEHB61
 2360 0154 8A0D     		.uleb128 .L159-.LFB1088
 2361 0156 03       		.uleb128 0x3
 2362 0157 A103     		.uleb128 .LEHB62-.LFB1088
 2363 0159 1C       		.uleb128 .LEHE62-.LEHB62
 2364 015a EB0D     		.uleb128 .L161-.LFB1088
 2365 015c 01       		.uleb128 0x1
 2366 015d C903     		.uleb128 .LEHB63-.LFB1088
 2367 015f 1E       		.uleb128 .LEHE63-.LEHB63
 2368 0160 E90D     		.uleb128 .L162-.LFB1088
 2369 0162 03       		.uleb128 0x3
 2370 0163 F803     		.uleb128 .LEHB64-.LFB1088
 2371 0165 18       		.uleb128 .LEHE64-.LEHB64
 2372 0166 00       		.uleb128 0
 2373 0167 00       		.uleb128 0
 2374 0168 9604     		.uleb128 .LEHB65-.LFB1088
 2375 016a 1C       		.uleb128 .LEHE65-.LEHB65
 2376 016b CA0E     		.uleb128 .L164-.LFB1088
 2377 016d 01       		.uleb128 0x1
 2378 016e B904     		.uleb128 .LEHB66-.LFB1088
 2379 0170 1F       		.uleb128 .LEHE66-.LEHB66
 2380 0171 C80E     		.uleb128 .L165-.LFB1088
 2381 0173 03       		.uleb128 0x3
 2382 0174 D804     		.uleb128 .LEHB67-.LFB1088
 2383 0176 1C       		.uleb128 .LEHE67-.LEHB67
 2384 0177 A90F     		.uleb128 .L167-.LFB1088
 2385 0179 01       		.uleb128 0x1
 2386 017a 8005     		.uleb128 .LEHB68-.LFB1088
 2387 017c 1E       		.uleb128 .LEHE68-.LEHB68
 2388 017d A70F     		.uleb128 .L168-.LFB1088
 2389 017f 03       		.uleb128 0x3
 2390 0180 AF05     		.uleb128 .LEHB69-.LFB1088
 2391 0182 05       		.uleb128 .LEHE69-.LEHB69
 2392 0183 00       		.uleb128 0
 2393 0184 00       		.uleb128 0
 2394 0185 B405     		.uleb128 .LEHB70-.LFB1088
 2395 0187 1C       		.uleb128 .LEHE70-.LEHB70
 2396 0188 8810     		.uleb128 .L170-.LFB1088
 2397 018a 01       		.uleb128 0x1
 2398 018b D805     		.uleb128 .LEHB71-.LFB1088
 2399 018d 26       		.uleb128 .LEHE71-.LEHB71
 2400 018e 8610     		.uleb128 .L171-.LFB1088
 2401 0190 03       		.uleb128 0x3
 2402 0191 FE05     		.uleb128 .LEHB72-.LFB1088
 2403 0193 1C       		.uleb128 .LEHE72-.LEHB72
 2404 0194 E710     		.uleb128 .L173-.LFB1088
 2405 0196 01       		.uleb128 0x1
 2406 0197 A206     		.uleb128 .LEHB73-.LFB1088
 2407 0199 26       		.uleb128 .LEHE73-.LEHB73
 2408 019a E510     		.uleb128 .L174-.LFB1088
 2409 019c 03       		.uleb128 0x3
 2410 019d C806     		.uleb128 .LEHB74-.LFB1088
 2411 019f 1C       		.uleb128 .LEHE74-.LEHB74
 2412 01a0 C611     		.uleb128 .L176-.LFB1088
 2413 01a2 01       		.uleb128 0x1
 2414 01a3 EC06     		.uleb128 .LEHB75-.LFB1088
 2415 01a5 26       		.uleb128 .LEHE75-.LEHB75
 2416 01a6 C411     		.uleb128 .L177-.LFB1088
 2417 01a8 03       		.uleb128 0x3
 2418 01a9 9207     		.uleb128 .LEHB76-.LFB1088
 2419 01ab 1C       		.uleb128 .LEHE76-.LEHB76
 2420 01ac A512     		.uleb128 .L179-.LFB1088
 2421 01ae 01       		.uleb128 0x1
 2422 01af B607     		.uleb128 .LEHB77-.LFB1088
 2423 01b1 26       		.uleb128 .LEHE77-.LEHB77
 2424 01b2 A312     		.uleb128 .L180-.LFB1088
 2425 01b4 03       		.uleb128 0x3
 2426 01b5 DC07     		.uleb128 .LEHB78-.LFB1088
 2427 01b7 1C       		.uleb128 .LEHE78-.LEHB78
 2428 01b8 8413     		.uleb128 .L182-.LFB1088
 2429 01ba 01       		.uleb128 0x1
 2430 01bb 9508     		.uleb128 .LEHB79-.LFB1088
 2431 01bd 1F       		.uleb128 .LEHE79-.LEHB79
 2432 01be 8213     		.uleb128 .L183-.LFB1088
 2433 01c0 03       		.uleb128 0x3
 2434 01c1 B408     		.uleb128 .LEHB80-.LFB1088
 2435 01c3 1C       		.uleb128 .LEHE80-.LEHB80
 2436 01c4 E313     		.uleb128 .L185-.LFB1088
 2437 01c6 01       		.uleb128 0x1
 2438 01c7 F108     		.uleb128 .LEHB81-.LFB1088
 2439 01c9 1F       		.uleb128 .LEHE81-.LEHB81
 2440 01ca E113     		.uleb128 .L186-.LFB1088
 2441 01cc 03       		.uleb128 0x3
 2442 01cd 9009     		.uleb128 .LEHB82-.LFB1088
 2443 01cf 1C       		.uleb128 .LEHE82-.LEHB82
 2444 01d0 C214     		.uleb128 .L188-.LFB1088
 2445 01d2 01       		.uleb128 0x1
 2446 01d3 CD09     		.uleb128 .LEHB83-.LFB1088
 2447 01d5 1F       		.uleb128 .LEHE83-.LEHB83
 2448 01d6 C014     		.uleb128 .L189-.LFB1088
 2449 01d8 03       		.uleb128 0x3
 2450 01d9 EC09     		.uleb128 .LEHB84-.LFB1088
 2451 01db 1C       		.uleb128 .LEHE84-.LEHB84
 2452 01dc A115     		.uleb128 .L191-.LFB1088
 2453 01de 01       		.uleb128 0x1
 2454 01df A90A     		.uleb128 .LEHB85-.LFB1088
 2455 01e1 1F       		.uleb128 .LEHE85-.LEHB85
 2456 01e2 9F15     		.uleb128 .L192-.LFB1088
 2457 01e4 03       		.uleb128 0x3
 2458 01e5 CF0A     		.uleb128 .LEHB86-.LFB1088
 2459 01e7 05       		.uleb128 .LEHE86-.LEHB86
 2460 01e8 00       		.uleb128 0
 2461 01e9 00       		.uleb128 0
 2462 01ea F70A     		.uleb128 .LEHB87-.LFB1088
 2463 01ec 38       		.uleb128 .LEHE87-.LEHB87
 2464 01ed B90B     		.uleb128 .L151-.LFB1088
 2465 01ef 00       		.uleb128 0
 2466 01f0 AF0B     		.uleb128 .LEHB88-.LFB1088
 2467 01f2 05       		.uleb128 .LEHE88-.LEHB88
 2468 01f3 00       		.uleb128 0
 2469 01f4 00       		.uleb128 0
 2470 01f5 C70B     		.uleb128 .LEHB89-.LFB1088
 2471 01f7 05       		.uleb128 .LEHE89-.LEHB89
 2472 01f8 00       		.uleb128 0
 2473 01f9 00       		.uleb128 0
 2474 01fa D60B     		.uleb128 .LEHB90-.LFB1088
 2475 01fc 38       		.uleb128 .LEHE90-.LEHB90
 2476 01fd 980C     		.uleb128 .L154-.LFB1088
 2477 01ff 00       		.uleb128 0
 2478 0200 8E0C     		.uleb128 .LEHB91-.LFB1088
 2479 0202 05       		.uleb128 .LEHE91-.LEHB91
 2480 0203 00       		.uleb128 0
 2481 0204 00       		.uleb128 0
 2482 0205 A60C     		.uleb128 .LEHB92-.LFB1088
 2483 0207 05       		.uleb128 .LEHE92-.LEHB92
 2484 0208 00       		.uleb128 0
 2485 0209 00       		.uleb128 0
 2486 020a B50C     		.uleb128 .LEHB93-.LFB1088
 2487 020c 38       		.uleb128 .LEHE93-.LEHB93
 2488 020d F70C     		.uleb128 .L157-.LFB1088
 2489 020f 00       		.uleb128 0
 2490 0210 ED0C     		.uleb128 .LEHB94-.LFB1088
 2491 0212 05       		.uleb128 .LEHE94-.LEHB94
 2492 0213 00       		.uleb128 0
 2493 0214 00       		.uleb128 0
 2494 0215 850D     		.uleb128 .LEHB95-.LFB1088
 2495 0217 05       		.uleb128 .LEHE95-.LEHB95
 2496 0218 00       		.uleb128 0
 2497 0219 00       		.uleb128 0
 2498 021a 940D     		.uleb128 .LEHB96-.LFB1088
 2499 021c 38       		.uleb128 .LEHE96-.LEHB96
 2500 021d D60D     		.uleb128 .L160-.LFB1088
 2501 021f 00       		.uleb128 0
 2502 0220 CC0D     		.uleb128 .LEHB97-.LFB1088
 2503 0222 05       		.uleb128 .LEHE97-.LEHB97
 2504 0223 00       		.uleb128 0
 2505 0224 00       		.uleb128 0
 2506 0225 E40D     		.uleb128 .LEHB98-.LFB1088
 2507 0227 05       		.uleb128 .LEHE98-.LEHB98
 2508 0228 00       		.uleb128 0
 2509 0229 00       		.uleb128 0
 2510 022a F30D     		.uleb128 .LEHB99-.LFB1088
 2511 022c 38       		.uleb128 .LEHE99-.LEHB99
 2512 022d B50E     		.uleb128 .L163-.LFB1088
 2513 022f 00       		.uleb128 0
 2514 0230 AB0E     		.uleb128 .LEHB100-.LFB1088
 2515 0232 05       		.uleb128 .LEHE100-.LEHB100
 2516 0233 00       		.uleb128 0
 2517 0234 00       		.uleb128 0
 2518 0235 C30E     		.uleb128 .LEHB101-.LFB1088
 2519 0237 05       		.uleb128 .LEHE101-.LEHB101
 2520 0238 00       		.uleb128 0
 2521 0239 00       		.uleb128 0
 2522 023a D20E     		.uleb128 .LEHB102-.LFB1088
 2523 023c 38       		.uleb128 .LEHE102-.LEHB102
 2524 023d 940F     		.uleb128 .L166-.LFB1088
 2525 023f 00       		.uleb128 0
 2526 0240 8A0F     		.uleb128 .LEHB103-.LFB1088
 2527 0242 05       		.uleb128 .LEHE103-.LEHB103
 2528 0243 00       		.uleb128 0
 2529 0244 00       		.uleb128 0
 2530 0245 A20F     		.uleb128 .LEHB104-.LFB1088
 2531 0247 05       		.uleb128 .LEHE104-.LEHB104
 2532 0248 00       		.uleb128 0
 2533 0249 00       		.uleb128 0
 2534 024a B10F     		.uleb128 .LEHB105-.LFB1088
 2535 024c 38       		.uleb128 .LEHE105-.LEHB105
 2536 024d F30F     		.uleb128 .L169-.LFB1088
 2537 024f 00       		.uleb128 0
 2538 0250 E90F     		.uleb128 .LEHB106-.LFB1088
 2539 0252 05       		.uleb128 .LEHE106-.LEHB106
 2540 0253 00       		.uleb128 0
 2541 0254 00       		.uleb128 0
 2542 0255 8110     		.uleb128 .LEHB107-.LFB1088
 2543 0257 05       		.uleb128 .LEHE107-.LEHB107
 2544 0258 00       		.uleb128 0
 2545 0259 00       		.uleb128 0
 2546 025a 9010     		.uleb128 .LEHB108-.LFB1088
 2547 025c 38       		.uleb128 .LEHE108-.LEHB108
 2548 025d D210     		.uleb128 .L172-.LFB1088
 2549 025f 00       		.uleb128 0
 2550 0260 C810     		.uleb128 .LEHB109-.LFB1088
 2551 0262 05       		.uleb128 .LEHE109-.LEHB109
 2552 0263 00       		.uleb128 0
 2553 0264 00       		.uleb128 0
 2554 0265 E010     		.uleb128 .LEHB110-.LFB1088
 2555 0267 05       		.uleb128 .LEHE110-.LEHB110
 2556 0268 00       		.uleb128 0
 2557 0269 00       		.uleb128 0
 2558 026a EF10     		.uleb128 .LEHB111-.LFB1088
 2559 026c 38       		.uleb128 .LEHE111-.LEHB111
 2560 026d B111     		.uleb128 .L175-.LFB1088
 2561 026f 00       		.uleb128 0
 2562 0270 A711     		.uleb128 .LEHB112-.LFB1088
 2563 0272 05       		.uleb128 .LEHE112-.LEHB112
 2564 0273 00       		.uleb128 0
 2565 0274 00       		.uleb128 0
 2566 0275 BF11     		.uleb128 .LEHB113-.LFB1088
 2567 0277 05       		.uleb128 .LEHE113-.LEHB113
 2568 0278 00       		.uleb128 0
 2569 0279 00       		.uleb128 0
 2570 027a CE11     		.uleb128 .LEHB114-.LFB1088
 2571 027c 38       		.uleb128 .LEHE114-.LEHB114
 2572 027d 9012     		.uleb128 .L178-.LFB1088
 2573 027f 00       		.uleb128 0
 2574 0280 8612     		.uleb128 .LEHB115-.LFB1088
 2575 0282 05       		.uleb128 .LEHE115-.LEHB115
 2576 0283 00       		.uleb128 0
 2577 0284 00       		.uleb128 0
 2578 0285 9E12     		.uleb128 .LEHB116-.LFB1088
 2579 0287 05       		.uleb128 .LEHE116-.LEHB116
 2580 0288 00       		.uleb128 0
 2581 0289 00       		.uleb128 0
 2582 028a AD12     		.uleb128 .LEHB117-.LFB1088
 2583 028c 38       		.uleb128 .LEHE117-.LEHB117
 2584 028d EF12     		.uleb128 .L181-.LFB1088
 2585 028f 00       		.uleb128 0
 2586 0290 E512     		.uleb128 .LEHB118-.LFB1088
 2587 0292 05       		.uleb128 .LEHE118-.LEHB118
 2588 0293 00       		.uleb128 0
 2589 0294 00       		.uleb128 0
 2590 0295 FD12     		.uleb128 .LEHB119-.LFB1088
 2591 0297 05       		.uleb128 .LEHE119-.LEHB119
 2592 0298 00       		.uleb128 0
 2593 0299 00       		.uleb128 0
 2594 029a 8C13     		.uleb128 .LEHB120-.LFB1088
 2595 029c 38       		.uleb128 .LEHE120-.LEHB120
 2596 029d CE13     		.uleb128 .L184-.LFB1088
 2597 029f 00       		.uleb128 0
 2598 02a0 C413     		.uleb128 .LEHB121-.LFB1088
 2599 02a2 05       		.uleb128 .LEHE121-.LEHB121
 2600 02a3 00       		.uleb128 0
 2601 02a4 00       		.uleb128 0
 2602 02a5 DC13     		.uleb128 .LEHB122-.LFB1088
 2603 02a7 05       		.uleb128 .LEHE122-.LEHB122
 2604 02a8 00       		.uleb128 0
 2605 02a9 00       		.uleb128 0
 2606 02aa EB13     		.uleb128 .LEHB123-.LFB1088
 2607 02ac 38       		.uleb128 .LEHE123-.LEHB123
 2608 02ad AD14     		.uleb128 .L187-.LFB1088
 2609 02af 00       		.uleb128 0
 2610 02b0 A314     		.uleb128 .LEHB124-.LFB1088
 2611 02b2 05       		.uleb128 .LEHE124-.LEHB124
 2612 02b3 00       		.uleb128 0
 2613 02b4 00       		.uleb128 0
 2614 02b5 BB14     		.uleb128 .LEHB125-.LFB1088
 2615 02b7 05       		.uleb128 .LEHE125-.LEHB125
 2616 02b8 00       		.uleb128 0
 2617 02b9 00       		.uleb128 0
 2618 02ba CA14     		.uleb128 .LEHB126-.LFB1088
 2619 02bc 38       		.uleb128 .LEHE126-.LEHB126
 2620 02bd 8C15     		.uleb128 .L190-.LFB1088
 2621 02bf 00       		.uleb128 0
 2622 02c0 8215     		.uleb128 .LEHB127-.LFB1088
 2623 02c2 05       		.uleb128 .LEHE127-.LEHB127
 2624 02c3 00       		.uleb128 0
 2625 02c4 00       		.uleb128 0
 2626 02c5 9A15     		.uleb128 .LEHB128-.LFB1088
 2627 02c7 05       		.uleb128 .LEHE128-.LEHB128
 2628 02c8 00       		.uleb128 0
 2629 02c9 00       		.uleb128 0
 2630 02ca A915     		.uleb128 .LEHB129-.LFB1088
 2631 02cc 38       		.uleb128 .LEHE129-.LEHB129
 2632 02cd EB15     		.uleb128 .L193-.LFB1088
 2633 02cf 00       		.uleb128 0
 2634 02d0 E115     		.uleb128 .LEHB130-.LFB1088
 2635 02d2 05       		.uleb128 .LEHE130-.LEHB130
 2636 02d3 00       		.uleb128 0
 2637 02d4 00       		.uleb128 0
 2638 02d5 F915     		.uleb128 .LEHB131-.LFB1088
 2639 02d7 05       		.uleb128 .LEHE131-.LEHB131
 2640 02d8 00       		.uleb128 0
 2641 02d9 00       		.uleb128 0
 2642              	.LLSDACSE1088:
 2643 02da 01       		.byte	0x1
 2644 02db 00       		.byte	0
 2645 02dc 00       		.byte	0
 2646 02dd 7D       		.byte	0x7d
 2647 02de 0000     		.align 4
 2648 02e0 00000000 		.long	0
 2649              	
 2650              	.LLSDATT1088:
 2651              		.text
 2653              		.section	.rodata
 2654              	.LC21:
 2655 0453 51756575 		.string	"Queue_testPutWrap"
 2655      655F7465 
 2655      73745075 
 2655      74577261 
 2655      7000
 2656              		.section	.text._ZN21TestQueue_testPutWrapC2Ev,"axG",@progbits,_ZN21TestQueue_testPutWrapC5Ev,comda
 2657              		.align 2
 2658              		.weak	_ZN21TestQueue_testPutWrapC2Ev
 2660              	_ZN21TestQueue_testPutWrapC2Ev:
 2661              	.LFB1090:
 118:testCore.cpp  **** 
 119:testCore.cpp  **** TEST(Queue_testPutWrap) {
 2662              		.loc 3 119 0
 2663              		.cfi_startproc
 2664 0000 55       		pushq	%rbp
 2665              		.cfi_def_cfa_offset 16
 2666              		.cfi_offset 6, -16
 2667 0001 4889E5   		movq	%rsp, %rbp
 2668              		.cfi_def_cfa_register 6
 2669 0004 4883EC10 		subq	$16, %rsp
 2670 0008 48897DF8 		movq	%rdi, -8(%rbp)
 2671              	.LBB6:
 2672              		.loc 3 119 0
 2673 000c E8000000 		call	_ZN13UnitTestSuite12GetSuiteNameEv
 2673      00
 2674 0011 4889C2   		movq	%rax, %rdx
 2675 0014 488B45F8 		movq	-8(%rbp), %rax
 2676 0018 41B87700 		movl	$119, %r8d
 2676      0000
 2677 001e B9000000 		movl	$.LC1, %ecx
 2677      00
 2678 0023 BE000000 		movl	$.LC21, %esi
 2678      00
 2679 0028 4889C7   		movq	%rax, %rdi
 2680 002b E8000000 		call	_ZN8UnitTest4TestC2EPKcS2_S2_i
 2680      00
 2681 0030 BA000000 		movl	$_ZTV21TestQueue_testPutWrap+16, %edx
 2681      00
 2682 0035 488B45F8 		movq	-8(%rbp), %rax
 2683 0039 488910   		movq	%rdx, (%rax)
 2684              	.LBE6:
 2685 003c 90       		nop
 2686 003d C9       		leave
 2687              		.cfi_def_cfa 7, 8
 2688 003e C3       		ret
 2689              		.cfi_endproc
 2690              	.LFE1090:
 2692              		.weak	_ZN21TestQueue_testPutWrapC1Ev
 2693              		.set	_ZN21TestQueue_testPutWrapC1Ev,_ZN21TestQueue_testPutWrapC2Ev
 2694              		.globl	testQueue_testPutWrapInstance
 2695              		.bss
 2696 0079 00000000 		.align 32
 2696      000000
 2699              	testQueue_testPutWrapInstance:
 2700 0080 00000000 		.zero	56
 2700      00000000 
 2700      00000000 
 2700      00000000 
 2700      00000000 
 2701              		.globl	adderQueue_testPutWrap
 2704              	adderQueue_testPutWrap:
 2705 00b8 00       		.zero	1
 2706              		.section	.rodata
 2707 0465 000000   		.align 8
 2708              	.LC22:
 2709 0468 556E6861 		.string	"Unhandled exception in CHECK_EQUAL(4UL, *item)"
 2709      6E646C65 
 2709      64206578 
 2709      63657074 
 2709      696F6E20 
 2710 0497 00       		.align 8
 2711              	.LC23:
 2712 0498 556E6861 		.string	"Unhandled exception in CHECK_EQUAL(4UL, queue.numItems)"
 2712      6E646C65 
 2712      64206578 
 2712      63657074 
 2712      696F6E20 
 2713              		.align 8
 2714              	.LC24:
 2715 04d0 556E6861 		.string	"Unhandled exception in CHECK_EQUAL(8UL, deref(queue.itemArray[3]))"
 2715      6E646C65 
 2715      64206578 
 2715      63657074 
 2715      696F6E20 
 2716              		.text
 2717 1237 90       		.align 2
 2718              		.globl	_ZNK21TestQueue_testPutWrap7RunImplEv
 2720              	_ZNK21TestQueue_testPutWrap7RunImplEv:
 2721              	.LFB1092:
 2722              		.loc 3 119 0
 2723              		.cfi_startproc
 2724              		.cfi_personality 0x3,__gxx_personality_v0
 2725              		.cfi_lsda 0x3,.LLSDA1092
 2726 1238 55       		pushq	%rbp
 2727              		.cfi_def_cfa_offset 16
 2728              		.cfi_offset 6, -16
 2729 1239 4889E5   		movq	%rsp, %rbp
 2730              		.cfi_def_cfa_register 6
 2731 123c 53       		pushq	%rbx
 2732 123d 4881EC98 		subq	$152, %rsp
 2732      000000
 2733              		.cfi_offset 3, -24
 2734 1244 4889BD68 		movq	%rdi, -152(%rbp)
 2734      FFFFFF
 2735              		.loc 3 119 0
 2736 124b 64488B04 		movq	%fs:40, %rax
 2736      25280000 
 2736      00
 2737 1254 488945E8 		movq	%rax, -24(%rbp)
 2738 1258 31C0     		xorl	%eax, %eax
 120:testCore.cpp  **** 	struct UnboundedQueue queue;
 121:testCore.cpp  **** 	uint32 *item;
 122:testCore.cpp  **** 	m_count = 1;
 2739              		.loc 3 122 0
 2740 125a C7050000 		movl	$1, _ZL7m_count(%rip)
 2740      00000100 
 2740      0000
 123:testCore.cpp  **** 
 124:testCore.cpp  **** 	// Create queue
 125:testCore.cpp  **** 	USBStatus status = queueInit(&queue, 4, (CreateFunc)createInt, (DestroyFunc)destroyInt);
 2741              		.loc 3 125 0
 2742 1264 488D45B0 		leaq	-80(%rbp), %rax
 2743 1268 B9000000 		movl	$destroyInt, %ecx
 2743      00
 2744 126d BA000000 		movl	$createInt, %edx
 2744      00
 2745 1272 BE040000 		movl	$4, %esi
 2745      00
 2746 1277 4889C7   		movq	%rax, %rdi
 2747              	.LEHB132:
 2748 127a E8000000 		call	queueInit
 2748      00
 2749              	.LEHE132:
 2750 127f 898578FF 		movl	%eax, -136(%rbp)
 2750      FFFF
 2751              	.LEHB133:
 126:testCore.cpp  **** 	CHECK_EQUAL(USB_SUCCESS, status);
 2752              		.loc 3 126 0
 2753 1285 E8000000 		call	_ZN8UnitTest11CurrentTest7DetailsEv
 2753      00
 2754 128a 488B08   		movq	(%rax), %rcx
 2755 128d 488D4590 		leaq	-112(%rbp), %rax
 2756 1291 BA7E0000 		movl	$126, %edx
 2756      00
 2757 1296 4889CE   		movq	%rcx, %rsi
 2758 1299 4889C7   		movq	%rax, %rdi
 2759 129c E8000000 		call	_ZN8UnitTest11TestDetailsC1ERKS0_i
 2759      00
 2760              	.LEHE133:
 2761              		.loc 3 126 0 is_stmt 0 discriminator 2
 2762 12a1 C7458800 		movl	$0, -120(%rbp)
 2762      000000
 2763              	.LEHB134:
 2764 12a8 E8000000 		call	_ZN8UnitTest11CurrentTest7ResultsEv
 2764      00
 2765 12ad 488B00   		movq	(%rax), %rax
 2766 12b0 488D4D90 		leaq	-112(%rbp), %rcx
 2767 12b4 488D9578 		leaq	-136(%rbp), %rdx
 2767      FFFFFF
 2768 12bb 488D7588 		leaq	-120(%rbp), %rsi
 2769 12bf 4889C7   		movq	%rax, %rdi
 2770 12c2 E8000000 		call	_ZN8UnitTest10CheckEqualI9USBStatusS1_EEvRNS_11TestResultsERKT_RKT0_RKNS_11TestDetailsE
 2770      00
 2771              	.LEHE134:
 2772              	.L199:
 127:testCore.cpp  **** 
 128:testCore.cpp  **** 	// Put four items into the queue
 129:testCore.cpp  **** 	status = queuePut(&queue, (Item*)&item);
 2773              		.loc 3 129 0 is_stmt 1
 2774 12c7 488D5580 		leaq	-128(%rbp), %rdx
 2775 12cb 488D45B0 		leaq	-80(%rbp), %rax
 2776 12cf 4889D6   		movq	%rdx, %rsi
 2777 12d2 4889C7   		movq	%rax, %rdi
 2778              	.LEHB135:
 2779 12d5 E8000000 		call	queuePut
 2779      00
 2780              	.LEHE135:
 2781 12da 898578FF 		movl	%eax, -136(%rbp)
 2781      FFFF
 2782              	.LEHB136:
 130:testCore.cpp  **** 	CHECK_EQUAL(USB_SUCCESS, status);
 2783              		.loc 3 130 0
 2784 12e0 E8000000 		call	_ZN8UnitTest11CurrentTest7DetailsEv
 2784      00
 2785 12e5 488B08   		movq	(%rax), %rcx
 2786 12e8 488D4590 		leaq	-112(%rbp), %rax
 2787 12ec BA820000 		movl	$130, %edx
 2787      00
 2788 12f1 4889CE   		movq	%rcx, %rsi
 2789 12f4 4889C7   		movq	%rax, %rdi
 2790 12f7 E8000000 		call	_ZN8UnitTest11TestDetailsC1ERKS0_i
 2790      00
 2791              	.LEHE136:
 2792              		.loc 3 130 0 is_stmt 0 discriminator 2
 2793 12fc C7458800 		movl	$0, -120(%rbp)
 2793      000000
 2794              	.LEHB137:
 2795 1303 E8000000 		call	_ZN8UnitTest11CurrentTest7ResultsEv
 2795      00
 2796 1308 488B00   		movq	(%rax), %rax
 2797 130b 488D4D90 		leaq	-112(%rbp), %rcx
 2798 130f 488D9578 		leaq	-136(%rbp), %rdx
 2798      FFFFFF
 2799 1316 488D7588 		leaq	-120(%rbp), %rsi
 2800 131a 4889C7   		movq	%rax, %rdi
 2801 131d E8000000 		call	_ZN8UnitTest10CheckEqualI9USBStatusS1_EEvRNS_11TestResultsERKT_RKT0_RKNS_11TestDetailsE
 2801      00
 2802              	.LEHE137:
 2803              	.L203:
 2804              	.LEHB138:
 131:testCore.cpp  **** 	CHECK_EQUAL(1UL, *item);
 2805              		.loc 3 131 0 is_stmt 1
 2806 1322 E8000000 		call	_ZN8UnitTest11CurrentTest7DetailsEv
 2806      00
 2807 1327 488B08   		movq	(%rax), %rcx
 2808 132a 488D4590 		leaq	-112(%rbp), %rax
 2809 132e BA830000 		movl	$131, %edx
 2809      00
 2810 1333 4889CE   		movq	%rcx, %rsi
 2811 1336 4889C7   		movq	%rax, %rdi
 2812 1339 E8000000 		call	_ZN8UnitTest11TestDetailsC1ERKS0_i
 2812      00
 2813              	.LEHE138:
 2814              		.loc 3 131 0 is_stmt 0 discriminator 2
 2815 133e 488B5D80 		movq	-128(%rbp), %rbx
 2816 1342 48C74588 		movq	$1, -120(%rbp)
 2816      01000000 
 2817              	.LEHB139:
 2818 134a E8000000 		call	_ZN8UnitTest11CurrentTest7ResultsEv
 2818      00
 2819 134f 488B00   		movq	(%rax), %rax
 2820 1352 488D5590 		leaq	-112(%rbp), %rdx
 2821 1356 488D7588 		leaq	-120(%rbp), %rsi
 2822 135a 4889D1   		movq	%rdx, %rcx
 2823 135d 4889DA   		movq	%rbx, %rdx
 2824 1360 4889C7   		movq	%rax, %rdi
 2825 1363 E8000000 		call	_ZN8UnitTest10CheckEqualImjEEvRNS_11TestResultsERKT_RKT0_RKNS_11TestDetailsE
 2825      00
 2826              	.LEHE139:
 2827              	.L207:
 132:testCore.cpp  **** 	*item = 5;
 2828              		.loc 3 132 0 is_stmt 1
 2829 1368 488B4580 		movq	-128(%rbp), %rax
 2830 136c C7000500 		movl	$5, (%rax)
 2830      0000
 133:testCore.cpp  **** 	queueCommitPut(&queue);
 2831              		.loc 3 133 0
 2832 1372 488D45B0 		leaq	-80(%rbp), %rax
 2833 1376 4889C7   		movq	%rax, %rdi
 2834              	.LEHB140:
 2835 1379 E8000000 		call	queueCommitPut
 2835      00
 134:testCore.cpp  **** 	status = queuePut(&queue, (Item*)&item);
 2836              		.loc 3 134 0
 2837 137e 488D5580 		leaq	-128(%rbp), %rdx
 2838 1382 488D45B0 		leaq	-80(%rbp), %rax
 2839 1386 4889D6   		movq	%rdx, %rsi
 2840 1389 4889C7   		movq	%rax, %rdi
 2841 138c E8000000 		call	queuePut
 2841      00
 2842              	.LEHE140:
 2843 1391 898578FF 		movl	%eax, -136(%rbp)
 2843      FFFF
 2844              	.LEHB141:
 135:testCore.cpp  **** 	CHECK_EQUAL(USB_SUCCESS, status);
 2845              		.loc 3 135 0
 2846 1397 E8000000 		call	_ZN8UnitTest11CurrentTest7DetailsEv
 2846      00
 2847 139c 488B08   		movq	(%rax), %rcx
 2848 139f 488D4590 		leaq	-112(%rbp), %rax
 2849 13a3 BA870000 		movl	$135, %edx
 2849      00
 2850 13a8 4889CE   		movq	%rcx, %rsi
 2851 13ab 4889C7   		movq	%rax, %rdi
 2852 13ae E8000000 		call	_ZN8UnitTest11TestDetailsC1ERKS0_i
 2852      00
 2853              	.LEHE141:
 2854              		.loc 3 135 0 is_stmt 0 discriminator 2
 2855 13b3 C7458800 		movl	$0, -120(%rbp)
 2855      000000
 2856              	.LEHB142:
 2857 13ba E8000000 		call	_ZN8UnitTest11CurrentTest7ResultsEv
 2857      00
 2858 13bf 488B00   		movq	(%rax), %rax
 2859 13c2 488D4D90 		leaq	-112(%rbp), %rcx
 2860 13c6 488D9578 		leaq	-136(%rbp), %rdx
 2860      FFFFFF
 2861 13cd 488D7588 		leaq	-120(%rbp), %rsi
 2862 13d1 4889C7   		movq	%rax, %rdi
 2863 13d4 E8000000 		call	_ZN8UnitTest10CheckEqualI9USBStatusS1_EEvRNS_11TestResultsERKT_RKT0_RKNS_11TestDetailsE
 2863      00
 2864              	.LEHE142:
 2865              	.L211:
 2866              	.LEHB143:
 136:testCore.cpp  **** 	CHECK_EQUAL(2UL, *item);
 2867              		.loc 3 136 0 is_stmt 1
 2868 13d9 E8000000 		call	_ZN8UnitTest11CurrentTest7DetailsEv
 2868      00
 2869 13de 488B08   		movq	(%rax), %rcx
 2870 13e1 488D4590 		leaq	-112(%rbp), %rax
 2871 13e5 BA880000 		movl	$136, %edx
 2871      00
 2872 13ea 4889CE   		movq	%rcx, %rsi
 2873 13ed 4889C7   		movq	%rax, %rdi
 2874 13f0 E8000000 		call	_ZN8UnitTest11TestDetailsC1ERKS0_i
 2874      00
 2875              	.LEHE143:
 2876              		.loc 3 136 0 is_stmt 0 discriminator 2
 2877 13f5 488B5D80 		movq	-128(%rbp), %rbx
 2878 13f9 48C74588 		movq	$2, -120(%rbp)
 2878      02000000 
 2879              	.LEHB144:
 2880 1401 E8000000 		call	_ZN8UnitTest11CurrentTest7ResultsEv
 2880      00
 2881 1406 488B00   		movq	(%rax), %rax
 2882 1409 488D5590 		leaq	-112(%rbp), %rdx
 2883 140d 488D7588 		leaq	-120(%rbp), %rsi
 2884 1411 4889D1   		movq	%rdx, %rcx
 2885 1414 4889DA   		movq	%rbx, %rdx
 2886 1417 4889C7   		movq	%rax, %rdi
 2887 141a E8000000 		call	_ZN8UnitTest10CheckEqualImjEEvRNS_11TestResultsERKT_RKT0_RKNS_11TestDetailsE
 2887      00
 2888              	.LEHE144:
 2889              	.L215:
 137:testCore.cpp  **** 	*item = 6;
 2890              		.loc 3 137 0 is_stmt 1
 2891 141f 488B4580 		movq	-128(%rbp), %rax
 2892 1423 C7000600 		movl	$6, (%rax)
 2892      0000
 138:testCore.cpp  **** 	queueCommitPut(&queue);
 2893              		.loc 3 138 0
 2894 1429 488D45B0 		leaq	-80(%rbp), %rax
 2895 142d 4889C7   		movq	%rax, %rdi
 2896              	.LEHB145:
 2897 1430 E8000000 		call	queueCommitPut
 2897      00
 139:testCore.cpp  **** 	status = queuePut(&queue, (Item*)&item);
 2898              		.loc 3 139 0
 2899 1435 488D5580 		leaq	-128(%rbp), %rdx
 2900 1439 488D45B0 		leaq	-80(%rbp), %rax
 2901 143d 4889D6   		movq	%rdx, %rsi
 2902 1440 4889C7   		movq	%rax, %rdi
 2903 1443 E8000000 		call	queuePut
 2903      00
 2904              	.LEHE145:
 2905 1448 898578FF 		movl	%eax, -136(%rbp)
 2905      FFFF
 2906              	.LEHB146:
 140:testCore.cpp  **** 	CHECK_EQUAL(USB_SUCCESS, status);
 2907              		.loc 3 140 0
 2908 144e E8000000 		call	_ZN8UnitTest11CurrentTest7DetailsEv
 2908      00
 2909 1453 488B08   		movq	(%rax), %rcx
 2910 1456 488D4590 		leaq	-112(%rbp), %rax
 2911 145a BA8C0000 		movl	$140, %edx
 2911      00
 2912 145f 4889CE   		movq	%rcx, %rsi
 2913 1462 4889C7   		movq	%rax, %rdi
 2914 1465 E8000000 		call	_ZN8UnitTest11TestDetailsC1ERKS0_i
 2914      00
 2915              	.LEHE146:
 2916              		.loc 3 140 0 is_stmt 0 discriminator 2
 2917 146a C7458800 		movl	$0, -120(%rbp)
 2917      000000
 2918              	.LEHB147:
 2919 1471 E8000000 		call	_ZN8UnitTest11CurrentTest7ResultsEv
 2919      00
 2920 1476 488B00   		movq	(%rax), %rax
 2921 1479 488D4D90 		leaq	-112(%rbp), %rcx
 2922 147d 488D9578 		leaq	-136(%rbp), %rdx
 2922      FFFFFF
 2923 1484 488D7588 		leaq	-120(%rbp), %rsi
 2924 1488 4889C7   		movq	%rax, %rdi
 2925 148b E8000000 		call	_ZN8UnitTest10CheckEqualI9USBStatusS1_EEvRNS_11TestResultsERKT_RKT0_RKNS_11TestDetailsE
 2925      00
 2926              	.LEHE147:
 2927              	.L219:
 2928              	.LEHB148:
 141:testCore.cpp  **** 	CHECK_EQUAL(3UL, *item);
 2929              		.loc 3 141 0 is_stmt 1
 2930 1490 E8000000 		call	_ZN8UnitTest11CurrentTest7DetailsEv
 2930      00
 2931 1495 488B08   		movq	(%rax), %rcx
 2932 1498 488D4590 		leaq	-112(%rbp), %rax
 2933 149c BA8D0000 		movl	$141, %edx
 2933      00
 2934 14a1 4889CE   		movq	%rcx, %rsi
 2935 14a4 4889C7   		movq	%rax, %rdi
 2936 14a7 E8000000 		call	_ZN8UnitTest11TestDetailsC1ERKS0_i
 2936      00
 2937              	.LEHE148:
 2938              		.loc 3 141 0 is_stmt 0 discriminator 2
 2939 14ac 488B5D80 		movq	-128(%rbp), %rbx
 2940 14b0 48C74588 		movq	$3, -120(%rbp)
 2940      03000000 
 2941              	.LEHB149:
 2942 14b8 E8000000 		call	_ZN8UnitTest11CurrentTest7ResultsEv
 2942      00
 2943 14bd 488B00   		movq	(%rax), %rax
 2944 14c0 488D5590 		leaq	-112(%rbp), %rdx
 2945 14c4 488D7588 		leaq	-120(%rbp), %rsi
 2946 14c8 4889D1   		movq	%rdx, %rcx
 2947 14cb 4889DA   		movq	%rbx, %rdx
 2948 14ce 4889C7   		movq	%rax, %rdi
 2949 14d1 E8000000 		call	_ZN8UnitTest10CheckEqualImjEEvRNS_11TestResultsERKT_RKT0_RKNS_11TestDetailsE
 2949      00
 2950              	.LEHE149:
 2951              	.L223:
 142:testCore.cpp  **** 	*item = 7;
 2952              		.loc 3 142 0 is_stmt 1
 2953 14d6 488B4580 		movq	-128(%rbp), %rax
 2954 14da C7000700 		movl	$7, (%rax)
 2954      0000
 143:testCore.cpp  **** 	queueCommitPut(&queue);
 2955              		.loc 3 143 0
 2956 14e0 488D45B0 		leaq	-80(%rbp), %rax
 2957 14e4 4889C7   		movq	%rax, %rdi
 2958              	.LEHB150:
 2959 14e7 E8000000 		call	queueCommitPut
 2959      00
 144:testCore.cpp  **** 	status = queuePut(&queue, (Item*)&item);
 2960              		.loc 3 144 0
 2961 14ec 488D5580 		leaq	-128(%rbp), %rdx
 2962 14f0 488D45B0 		leaq	-80(%rbp), %rax
 2963 14f4 4889D6   		movq	%rdx, %rsi
 2964 14f7 4889C7   		movq	%rax, %rdi
 2965 14fa E8000000 		call	queuePut
 2965      00
 2966              	.LEHE150:
 2967 14ff 898578FF 		movl	%eax, -136(%rbp)
 2967      FFFF
 2968              	.LEHB151:
 145:testCore.cpp  **** 	CHECK_EQUAL(USB_SUCCESS, status);
 2969              		.loc 3 145 0
 2970 1505 E8000000 		call	_ZN8UnitTest11CurrentTest7DetailsEv
 2970      00
 2971 150a 488B08   		movq	(%rax), %rcx
 2972 150d 488D4590 		leaq	-112(%rbp), %rax
 2973 1511 BA910000 		movl	$145, %edx
 2973      00
 2974 1516 4889CE   		movq	%rcx, %rsi
 2975 1519 4889C7   		movq	%rax, %rdi
 2976 151c E8000000 		call	_ZN8UnitTest11TestDetailsC1ERKS0_i
 2976      00
 2977              	.LEHE151:
 2978              		.loc 3 145 0 is_stmt 0 discriminator 2
 2979 1521 C7458800 		movl	$0, -120(%rbp)
 2979      000000
 2980              	.LEHB152:
 2981 1528 E8000000 		call	_ZN8UnitTest11CurrentTest7ResultsEv
 2981      00
 2982 152d 488B00   		movq	(%rax), %rax
 2983 1530 488D4D90 		leaq	-112(%rbp), %rcx
 2984 1534 488D9578 		leaq	-136(%rbp), %rdx
 2984      FFFFFF
 2985 153b 488D7588 		leaq	-120(%rbp), %rsi
 2986 153f 4889C7   		movq	%rax, %rdi
 2987 1542 E8000000 		call	_ZN8UnitTest10CheckEqualI9USBStatusS1_EEvRNS_11TestResultsERKT_RKT0_RKNS_11TestDetailsE
 2987      00
 2988              	.LEHE152:
 2989              	.L227:
 2990              	.LEHB153:
 146:testCore.cpp  **** 	CHECK_EQUAL(4UL, *item);
 2991              		.loc 3 146 0 is_stmt 1
 2992 1547 E8000000 		call	_ZN8UnitTest11CurrentTest7DetailsEv
 2992      00
 2993 154c 488B08   		movq	(%rax), %rcx
 2994 154f 488D4590 		leaq	-112(%rbp), %rax
 2995 1553 BA920000 		movl	$146, %edx
 2995      00
 2996 1558 4889CE   		movq	%rcx, %rsi
 2997 155b 4889C7   		movq	%rax, %rdi
 2998 155e E8000000 		call	_ZN8UnitTest11TestDetailsC1ERKS0_i
 2998      00
 2999              	.LEHE153:
 3000              		.loc 3 146 0 is_stmt 0 discriminator 2
 3001 1563 488B5D80 		movq	-128(%rbp), %rbx
 3002 1567 48C74588 		movq	$4, -120(%rbp)
 3002      04000000 
 3003              	.LEHB154:
 3004 156f E8000000 		call	_ZN8UnitTest11CurrentTest7ResultsEv
 3004      00
 3005 1574 488B00   		movq	(%rax), %rax
 3006 1577 488D5590 		leaq	-112(%rbp), %rdx
 3007 157b 488D7588 		leaq	-120(%rbp), %rsi
 3008 157f 4889D1   		movq	%rdx, %rcx
 3009 1582 4889DA   		movq	%rbx, %rdx
 3010 1585 4889C7   		movq	%rax, %rdi
 3011 1588 E8000000 		call	_ZN8UnitTest10CheckEqualImjEEvRNS_11TestResultsERKT_RKT0_RKNS_11TestDetailsE
 3011      00
 3012              	.LEHE154:
 3013              	.L231:
 147:testCore.cpp  **** 	*item = 8;
 3014              		.loc 3 147 0 is_stmt 1
 3015 158d 488B4580 		movq	-128(%rbp), %rax
 3016 1591 C7000800 		movl	$8, (%rax)
 3016      0000
 148:testCore.cpp  **** 	queueCommitPut(&queue);
 3017              		.loc 3 148 0
 3018 1597 488D45B0 		leaq	-80(%rbp), %rax
 3019 159b 4889C7   		movq	%rax, %rdi
 3020              	.LEHB155:
 3021 159e E8000000 		call	queueCommitPut
 3021      00
 3022              	.LEHE155:
 3023              	.LEHB156:
 149:testCore.cpp  **** 
 150:testCore.cpp  **** 	// Verify
 151:testCore.cpp  **** 	CHECK_EQUAL(4UL, queue.capacity);
 3024              		.loc 3 151 0
 3025 15a3 E8000000 		call	_ZN8UnitTest11CurrentTest7DetailsEv
 3025      00
 3026 15a8 488B08   		movq	(%rax), %rcx
 3027 15ab 488D4590 		leaq	-112(%rbp), %rax
 3028 15af BA970000 		movl	$151, %edx
 3028      00
 3029 15b4 4889CE   		movq	%rcx, %rsi
 3030 15b7 4889C7   		movq	%rax, %rdi
 3031 15ba E8000000 		call	_ZN8UnitTest11TestDetailsC1ERKS0_i
 3031      00
 3032              	.LEHE156:
 3033              		.loc 3 151 0 is_stmt 0 discriminator 2
 3034 15bf 48C74588 		movq	$4, -120(%rbp)
 3034      04000000 
 3035              	.LEHB157:
 3036 15c7 E8000000 		call	_ZN8UnitTest11CurrentTest7ResultsEv
 3036      00
 3037 15cc 488B00   		movq	(%rax), %rax
 3038 15cf 488D5590 		leaq	-112(%rbp), %rdx
 3039 15d3 488D4DB0 		leaq	-80(%rbp), %rcx
 3040 15d7 488D7908 		leaq	8(%rcx), %rdi
 3041 15db 488D7588 		leaq	-120(%rbp), %rsi
 3042 15df 4889D1   		movq	%rdx, %rcx
 3043 15e2 4889FA   		movq	%rdi, %rdx
 3044 15e5 4889C7   		movq	%rax, %rdi
 3045 15e8 E8000000 		call	_ZN8UnitTest10CheckEqualImmEEvRNS_11TestResultsERKT_RKT0_RKNS_11TestDetailsE
 3045      00
 3046              	.LEHE157:
 3047              	.L235:
 3048              	.LEHB158:
 152:testCore.cpp  **** 	CHECK_EQUAL(0UL, queue.putIndex);
 3049              		.loc 3 152 0 is_stmt 1
 3050 15ed E8000000 		call	_ZN8UnitTest11CurrentTest7DetailsEv
 3050      00
 3051 15f2 488B08   		movq	(%rax), %rcx
 3052 15f5 488D4590 		leaq	-112(%rbp), %rax
 3053 15f9 BA980000 		movl	$152, %edx
 3053      00
 3054 15fe 4889CE   		movq	%rcx, %rsi
 3055 1601 4889C7   		movq	%rax, %rdi
 3056 1604 E8000000 		call	_ZN8UnitTest11TestDetailsC1ERKS0_i
 3056      00
 3057              	.LEHE158:
 3058              		.loc 3 152 0 is_stmt 0 discriminator 2
 3059 1609 48C74588 		movq	$0, -120(%rbp)
 3059      00000000 
 3060              	.LEHB159:
 3061 1611 E8000000 		call	_ZN8UnitTest11CurrentTest7ResultsEv
 3061      00
 3062 1616 488B00   		movq	(%rax), %rax
 3063 1619 488D5590 		leaq	-112(%rbp), %rdx
 3064 161d 488D4DB0 		leaq	-80(%rbp), %rcx
 3065 1621 488D7910 		leaq	16(%rcx), %rdi
 3066 1625 488D7588 		leaq	-120(%rbp), %rsi
 3067 1629 4889D1   		movq	%rdx, %rcx
 3068 162c 4889FA   		movq	%rdi, %rdx
 3069 162f 4889C7   		movq	%rax, %rdi
 3070 1632 E8000000 		call	_ZN8UnitTest10CheckEqualImmEEvRNS_11TestResultsERKT_RKT0_RKNS_11TestDetailsE
 3070      00
 3071              	.LEHE159:
 3072              	.L239:
 3073              	.LEHB160:
 153:testCore.cpp  **** 	CHECK_EQUAL(0UL, queue.takeIndex);
 3074              		.loc 3 153 0 is_stmt 1
 3075 1637 E8000000 		call	_ZN8UnitTest11CurrentTest7DetailsEv
 3075      00
 3076 163c 488B08   		movq	(%rax), %rcx
 3077 163f 488D4590 		leaq	-112(%rbp), %rax
 3078 1643 BA990000 		movl	$153, %edx
 3078      00
 3079 1648 4889CE   		movq	%rcx, %rsi
 3080 164b 4889C7   		movq	%rax, %rdi
 3081 164e E8000000 		call	_ZN8UnitTest11TestDetailsC1ERKS0_i
 3081      00
 3082              	.LEHE160:
 3083              		.loc 3 153 0 is_stmt 0 discriminator 2
 3084 1653 48C74588 		movq	$0, -120(%rbp)
 3084      00000000 
 3085              	.LEHB161:
 3086 165b E8000000 		call	_ZN8UnitTest11CurrentTest7ResultsEv
 3086      00
 3087 1660 488B00   		movq	(%rax), %rax
 3088 1663 488D5590 		leaq	-112(%rbp), %rdx
 3089 1667 488D4DB0 		leaq	-80(%rbp), %rcx
 3090 166b 488D7918 		leaq	24(%rcx), %rdi
 3091 166f 488D7588 		leaq	-120(%rbp), %rsi
 3092 1673 4889D1   		movq	%rdx, %rcx
 3093 1676 4889FA   		movq	%rdi, %rdx
 3094 1679 4889C7   		movq	%rax, %rdi
 3095 167c E8000000 		call	_ZN8UnitTest10CheckEqualImmEEvRNS_11TestResultsERKT_RKT0_RKNS_11TestDetailsE
 3095      00
 3096              	.LEHE161:
 3097              	.L243:
 3098              	.LEHB162:
 154:testCore.cpp  **** 	CHECK_EQUAL(4UL, queue.numItems);
 3099              		.loc 3 154 0 is_stmt 1
 3100 1681 E8000000 		call	_ZN8UnitTest11CurrentTest7DetailsEv
 3100      00
 3101 1686 488B08   		movq	(%rax), %rcx
 3102 1689 488D4590 		leaq	-112(%rbp), %rax
 3103 168d BA9A0000 		movl	$154, %edx
 3103      00
 3104 1692 4889CE   		movq	%rcx, %rsi
 3105 1695 4889C7   		movq	%rax, %rdi
 3106 1698 E8000000 		call	_ZN8UnitTest11TestDetailsC1ERKS0_i
 3106      00
 3107              	.LEHE162:
 3108              		.loc 3 154 0 is_stmt 0 discriminator 2
 3109 169d 48C74588 		movq	$4, -120(%rbp)
 3109      04000000 
 3110              	.LEHB163:
 3111 16a5 E8000000 		call	_ZN8UnitTest11CurrentTest7ResultsEv
 3111      00
 3112 16aa 488B00   		movq	(%rax), %rax
 3113 16ad 488D5590 		leaq	-112(%rbp), %rdx
 3114 16b1 488D4DB0 		leaq	-80(%rbp), %rcx
 3115 16b5 488D7920 		leaq	32(%rcx), %rdi
 3116 16b9 488D7588 		leaq	-120(%rbp), %rsi
 3117 16bd 4889D1   		movq	%rdx, %rcx
 3118 16c0 4889FA   		movq	%rdi, %rdx
 3119 16c3 4889C7   		movq	%rax, %rdi
 3120 16c6 E8000000 		call	_ZN8UnitTest10CheckEqualImmEEvRNS_11TestResultsERKT_RKT0_RKNS_11TestDetailsE
 3120      00
 3121              	.LEHE163:
 3122              	.L247:
 3123              	.LEHB164:
 155:testCore.cpp  **** 
 156:testCore.cpp  **** 	// Verify array
 157:testCore.cpp  **** 	CHECK_EQUAL(5UL, deref(queue.itemArray[0]));
 3124              		.loc 3 157 0 is_stmt 1
 3125 16cb E8000000 		call	_ZN8UnitTest11CurrentTest7DetailsEv
 3125      00
 3126 16d0 488B08   		movq	(%rax), %rcx
 3127 16d3 488D4590 		leaq	-112(%rbp), %rax
 3128 16d7 BA9D0000 		movl	$157, %edx
 3128      00
 3129 16dc 4889CE   		movq	%rcx, %rsi
 3130 16df 4889C7   		movq	%rax, %rdi
 3131 16e2 E8000000 		call	_ZN8UnitTest11TestDetailsC1ERKS0_i
 3131      00
 3132              	.LEHE164:
 3133              		.loc 3 157 0 is_stmt 0 discriminator 2
 3134 16e7 488B45B0 		movq	-80(%rbp), %rax
 3135 16eb 488B00   		movq	(%rax), %rax
 3136 16ee 4889C7   		movq	%rax, %rdi
 3137 16f1 E894E9FF 		call	_ZL5derefPKv
 3137      FF
 3138 16f6 89857CFF 		movl	%eax, -132(%rbp)
 3138      FFFF
 3139 16fc 48C74588 		movq	$5, -120(%rbp)
 3139      05000000 
 3140              	.LEHB165:
 3141 1704 E8000000 		call	_ZN8UnitTest11CurrentTest7ResultsEv
 3141      00
 3142 1709 488B00   		movq	(%rax), %rax
 3143 170c 488D4D90 		leaq	-112(%rbp), %rcx
 3144 1710 488D957C 		leaq	-132(%rbp), %rdx
 3144      FFFFFF
 3145 1717 488D7588 		leaq	-120(%rbp), %rsi
 3146 171b 4889C7   		movq	%rax, %rdi
 3147 171e E8000000 		call	_ZN8UnitTest10CheckEqualImjEEvRNS_11TestResultsERKT_RKT0_RKNS_11TestDetailsE
 3147      00
 3148              	.LEHE165:
 3149              	.L251:
 3150              	.LEHB166:
 158:testCore.cpp  **** 	CHECK_EQUAL(6UL, deref(queue.itemArray[1]));
 3151              		.loc 3 158 0 is_stmt 1
 3152 1723 E8000000 		call	_ZN8UnitTest11CurrentTest7DetailsEv
 3152      00
 3153 1728 488B08   		movq	(%rax), %rcx
 3154 172b 488D4590 		leaq	-112(%rbp), %rax
 3155 172f BA9E0000 		movl	$158, %edx
 3155      00
 3156 1734 4889CE   		movq	%rcx, %rsi
 3157 1737 4889C7   		movq	%rax, %rdi
 3158 173a E8000000 		call	_ZN8UnitTest11TestDetailsC1ERKS0_i
 3158      00
 3159              	.LEHE166:
 3160              		.loc 3 158 0 is_stmt 0 discriminator 2
 3161 173f 488B45B0 		movq	-80(%rbp), %rax
 3162 1743 4883C008 		addq	$8, %rax
 3163 1747 488B00   		movq	(%rax), %rax
 3164 174a 4889C7   		movq	%rax, %rdi
 3165 174d E838E9FF 		call	_ZL5derefPKv
 3165      FF
 3166 1752 89857CFF 		movl	%eax, -132(%rbp)
 3166      FFFF
 3167 1758 48C74588 		movq	$6, -120(%rbp)
 3167      06000000 
 3168              	.LEHB167:
 3169 1760 E8000000 		call	_ZN8UnitTest11CurrentTest7ResultsEv
 3169      00
 3170 1765 488B00   		movq	(%rax), %rax
 3171 1768 488D4D90 		leaq	-112(%rbp), %rcx
 3172 176c 488D957C 		leaq	-132(%rbp), %rdx
 3172      FFFFFF
 3173 1773 488D7588 		leaq	-120(%rbp), %rsi
 3174 1777 4889C7   		movq	%rax, %rdi
 3175 177a E8000000 		call	_ZN8UnitTest10CheckEqualImjEEvRNS_11TestResultsERKT_RKT0_RKNS_11TestDetailsE
 3175      00
 3176              	.LEHE167:
 3177              	.L255:
 3178              	.LEHB168:
 159:testCore.cpp  **** 	CHECK_EQUAL(7UL, deref(queue.itemArray[2]));
 3179              		.loc 3 159 0 is_stmt 1
 3180 177f E8000000 		call	_ZN8UnitTest11CurrentTest7DetailsEv
 3180      00
 3181 1784 488B08   		movq	(%rax), %rcx
 3182 1787 488D4590 		leaq	-112(%rbp), %rax
 3183 178b BA9F0000 		movl	$159, %edx
 3183      00
 3184 1790 4889CE   		movq	%rcx, %rsi
 3185 1793 4889C7   		movq	%rax, %rdi
 3186 1796 E8000000 		call	_ZN8UnitTest11TestDetailsC1ERKS0_i
 3186      00
 3187              	.LEHE168:
 3188              		.loc 3 159 0 is_stmt 0 discriminator 2
 3189 179b 488B45B0 		movq	-80(%rbp), %rax
 3190 179f 4883C010 		addq	$16, %rax
 3191 17a3 488B00   		movq	(%rax), %rax
 3192 17a6 4889C7   		movq	%rax, %rdi
 3193 17a9 E8DCE8FF 		call	_ZL5derefPKv
 3193      FF
 3194 17ae 89857CFF 		movl	%eax, -132(%rbp)
 3194      FFFF
 3195 17b4 48C74588 		movq	$7, -120(%rbp)
 3195      07000000 
 3196              	.LEHB169:
 3197 17bc E8000000 		call	_ZN8UnitTest11CurrentTest7ResultsEv
 3197      00
 3198 17c1 488B00   		movq	(%rax), %rax
 3199 17c4 488D4D90 		leaq	-112(%rbp), %rcx
 3200 17c8 488D957C 		leaq	-132(%rbp), %rdx
 3200      FFFFFF
 3201 17cf 488D7588 		leaq	-120(%rbp), %rsi
 3202 17d3 4889C7   		movq	%rax, %rdi
 3203 17d6 E8000000 		call	_ZN8UnitTest10CheckEqualImjEEvRNS_11TestResultsERKT_RKT0_RKNS_11TestDetailsE
 3203      00
 3204              	.LEHE169:
 3205              	.L259:
 3206              	.LEHB170:
 160:testCore.cpp  **** 	CHECK_EQUAL(8UL, deref(queue.itemArray[3]));
 3207              		.loc 3 160 0 is_stmt 1
 3208 17db E8000000 		call	_ZN8UnitTest11CurrentTest7DetailsEv
 3208      00
 3209 17e0 488B08   		movq	(%rax), %rcx
 3210 17e3 488D4590 		leaq	-112(%rbp), %rax
 3211 17e7 BAA00000 		movl	$160, %edx
 3211      00
 3212 17ec 4889CE   		movq	%rcx, %rsi
 3213 17ef 4889C7   		movq	%rax, %rdi
 3214 17f2 E8000000 		call	_ZN8UnitTest11TestDetailsC1ERKS0_i
 3214      00
 3215              	.LEHE170:
 3216              		.loc 3 160 0 is_stmt 0 discriminator 2
 3217 17f7 488B45B0 		movq	-80(%rbp), %rax
 3218 17fb 4883C018 		addq	$24, %rax
 3219 17ff 488B00   		movq	(%rax), %rax
 3220 1802 4889C7   		movq	%rax, %rdi
 3221 1805 E880E8FF 		call	_ZL5derefPKv
 3221      FF
 3222 180a 89857CFF 		movl	%eax, -132(%rbp)
 3222      FFFF
 3223 1810 48C74588 		movq	$8, -120(%rbp)
 3223      08000000 
 3224              	.LEHB171:
 3225 1818 E8000000 		call	_ZN8UnitTest11CurrentTest7ResultsEv
 3225      00
 3226 181d 488B00   		movq	(%rax), %rax
 3227 1820 488D4D90 		leaq	-112(%rbp), %rcx
 3228 1824 488D957C 		leaq	-132(%rbp), %rdx
 3228      FFFFFF
 3229 182b 488D7588 		leaq	-120(%rbp), %rsi
 3230 182f 4889C7   		movq	%rax, %rdi
 3231 1832 E8000000 		call	_ZN8UnitTest10CheckEqualImjEEvRNS_11TestResultsERKT_RKT0_RKNS_11TestDetailsE
 3231      00
 3232              	.LEHE171:
 3233              	.L263:
 161:testCore.cpp  **** 
 162:testCore.cpp  **** 	// Clean up
 163:testCore.cpp  **** 	queueDestroy(&queue);
 3234              		.loc 3 163 0 is_stmt 1
 3235 1837 488D45B0 		leaq	-80(%rbp), %rax
 3236 183b 4889C7   		movq	%rax, %rdi
 3237              	.LEHB172:
 3238 183e E8000000 		call	queueDestroy
 3238      00
 3239              	.LEHE172:
 164:testCore.cpp  **** }
 3240              		.loc 3 164 0
 3241 1843 90       		nop
 3242 1844 488B45E8 		movq	-24(%rbp), %rax
 3243 1848 64483304 		xorq	%fs:40, %rax
 3243      25280000 
 3243      00
 3244 1851 0F845906 		je	.L265
 3244      0000
 3245 1857 E94F0600 		jmp	.L317
 3245      00
 3246              	.L267:
 3247 185c EB00     		jmp	.L198
 3248              	.L266:
 3249              	.L198:
 126:testCore.cpp  **** 
 3250              		.loc 3 126 0
 3251 185e 4889C7   		movq	%rax, %rdi
 3252 1861 E8000000 		call	__cxa_begin_catch
 3252      00
 3253              	.LEHB173:
 3254 1866 E8000000 		call	_ZN8UnitTest11CurrentTest7DetailsEv
 3254      00
 3255 186b 488B08   		movq	(%rax), %rcx
 3256 186e 488D4590 		leaq	-112(%rbp), %rax
 3257 1872 BA7E0000 		movl	$126, %edx
 3257      00
 3258 1877 4889CE   		movq	%rcx, %rsi
 3259 187a 4889C7   		movq	%rax, %rdi
 3260 187d E8000000 		call	_ZN8UnitTest11TestDetailsC1ERKS0_i
 3260      00
 126:testCore.cpp  **** 
 3261              		.loc 3 126 0 is_stmt 0 discriminator 10
 3262 1882 E8000000 		call	_ZN8UnitTest11CurrentTest7ResultsEv
 3262      00
 3263 1887 488B00   		movq	(%rax), %rax
 3264 188a 488D4D90 		leaq	-112(%rbp), %rcx
 3265 188e BA000000 		movl	$.LC3, %edx
 3265      00
 3266 1893 4889CE   		movq	%rcx, %rsi
 3267 1896 4889C7   		movq	%rax, %rdi
 3268 1899 E8000000 		call	_ZN8UnitTest11TestResults13OnTestFailureERKNS_11TestDetailsEPKc
 3268      00
 3269              	.LEHE173:
 3270              	.LEHB174:
 126:testCore.cpp  **** 
 3271              		.loc 3 126 0 discriminator 14
 3272 189e E8000000 		call	__cxa_end_catch
 3272      00
 3273              	.LEHE174:
 3274 18a3 E91FFAFF 		jmp	.L199
 3274      FF
 3275              	.L268:
 3276 18a8 4889C3   		movq	%rax, %rbx
 126:testCore.cpp  **** 
 3277              		.loc 3 126 0
 3278 18ab E8000000 		call	__cxa_end_catch
 3278      00
 3279 18b0 4889D8   		movq	%rbx, %rax
 3280 18b3 4889C7   		movq	%rax, %rdi
 3281              	.LEHB175:
 3282 18b6 E8000000 		call	_Unwind_Resume
 3282      00
 3283              	.LEHE175:
 3284              	.L270:
 3285 18bb EB00     		jmp	.L202
 3286              	.L269:
 3287              	.L202:
 130:testCore.cpp  **** 	CHECK_EQUAL(1UL, *item);
 3288              		.loc 3 130 0 is_stmt 1
 3289 18bd 4889C7   		movq	%rax, %rdi
 3290 18c0 E8000000 		call	__cxa_begin_catch
 3290      00
 3291              	.LEHB176:
 3292 18c5 E8000000 		call	_ZN8UnitTest11CurrentTest7DetailsEv
 3292      00
 3293 18ca 488B08   		movq	(%rax), %rcx
 3294 18cd 488D4590 		leaq	-112(%rbp), %rax
 3295 18d1 BA820000 		movl	$130, %edx
 3295      00
 3296 18d6 4889CE   		movq	%rcx, %rsi
 3297 18d9 4889C7   		movq	%rax, %rdi
 3298 18dc E8000000 		call	_ZN8UnitTest11TestDetailsC1ERKS0_i
 3298      00
 130:testCore.cpp  **** 	CHECK_EQUAL(1UL, *item);
 3299              		.loc 3 130 0 is_stmt 0 discriminator 10
 3300 18e1 E8000000 		call	_ZN8UnitTest11CurrentTest7ResultsEv
 3300      00
 3301 18e6 488B00   		movq	(%rax), %rax
 3302 18e9 488D4D90 		leaq	-112(%rbp), %rcx
 3303 18ed BA000000 		movl	$.LC3, %edx
 3303      00
 3304 18f2 4889CE   		movq	%rcx, %rsi
 3305 18f5 4889C7   		movq	%rax, %rdi
 3306 18f8 E8000000 		call	_ZN8UnitTest11TestResults13OnTestFailureERKNS_11TestDetailsEPKc
 3306      00
 3307              	.LEHE176:
 3308              	.LEHB177:
 130:testCore.cpp  **** 	CHECK_EQUAL(1UL, *item);
 3309              		.loc 3 130 0 discriminator 14
 3310 18fd E8000000 		call	__cxa_end_catch
 3310      00
 3311              	.LEHE177:
 3312 1902 E91BFAFF 		jmp	.L203
 3312      FF
 3313              	.L271:
 3314 1907 4889C3   		movq	%rax, %rbx
 130:testCore.cpp  **** 	CHECK_EQUAL(1UL, *item);
 3315              		.loc 3 130 0
 3316 190a E8000000 		call	__cxa_end_catch
 3316      00
 3317 190f 4889D8   		movq	%rbx, %rax
 3318 1912 4889C7   		movq	%rax, %rdi
 3319              	.LEHB178:
 3320 1915 E8000000 		call	_Unwind_Resume
 3320      00
 3321              	.LEHE178:
 3322              	.L273:
 3323 191a EB00     		jmp	.L206
 3324              	.L272:
 3325              	.L206:
 131:testCore.cpp  **** 	*item = 5;
 3326              		.loc 3 131 0 is_stmt 1
 3327 191c 4889C7   		movq	%rax, %rdi
 3328 191f E8000000 		call	__cxa_begin_catch
 3328      00
 3329              	.LEHB179:
 3330 1924 E8000000 		call	_ZN8UnitTest11CurrentTest7DetailsEv
 3330      00
 3331 1929 488B08   		movq	(%rax), %rcx
 3332 192c 488D4590 		leaq	-112(%rbp), %rax
 3333 1930 BA830000 		movl	$131, %edx
 3333      00
 3334 1935 4889CE   		movq	%rcx, %rsi
 3335 1938 4889C7   		movq	%rax, %rdi
 3336 193b E8000000 		call	_ZN8UnitTest11TestDetailsC1ERKS0_i
 3336      00
 131:testCore.cpp  **** 	*item = 5;
 3337              		.loc 3 131 0 is_stmt 0 discriminator 10
 3338 1940 E8000000 		call	_ZN8UnitTest11CurrentTest7ResultsEv
 3338      00
 3339 1945 488B00   		movq	(%rax), %rax
 3340 1948 488D4D90 		leaq	-112(%rbp), %rcx
 3341 194c BA000000 		movl	$.LC13, %edx
 3341      00
 3342 1951 4889CE   		movq	%rcx, %rsi
 3343 1954 4889C7   		movq	%rax, %rdi
 3344 1957 E8000000 		call	_ZN8UnitTest11TestResults13OnTestFailureERKNS_11TestDetailsEPKc
 3344      00
 3345              	.LEHE179:
 3346              	.LEHB180:
 131:testCore.cpp  **** 	*item = 5;
 3347              		.loc 3 131 0 discriminator 14
 3348 195c E8000000 		call	__cxa_end_catch
 3348      00
 3349              	.LEHE180:
 3350 1961 E902FAFF 		jmp	.L207
 3350      FF
 3351              	.L274:
 3352 1966 4889C3   		movq	%rax, %rbx
 131:testCore.cpp  **** 	*item = 5;
 3353              		.loc 3 131 0
 3354 1969 E8000000 		call	__cxa_end_catch
 3354      00
 3355 196e 4889D8   		movq	%rbx, %rax
 3356 1971 4889C7   		movq	%rax, %rdi
 3357              	.LEHB181:
 3358 1974 E8000000 		call	_Unwind_Resume
 3358      00
 3359              	.LEHE181:
 3360              	.L276:
 3361 1979 EB00     		jmp	.L210
 3362              	.L275:
 3363              	.L210:
 135:testCore.cpp  **** 	CHECK_EQUAL(2UL, *item);
 3364              		.loc 3 135 0 is_stmt 1
 3365 197b 4889C7   		movq	%rax, %rdi
 3366 197e E8000000 		call	__cxa_begin_catch
 3366      00
 3367              	.LEHB182:
 3368 1983 E8000000 		call	_ZN8UnitTest11CurrentTest7DetailsEv
 3368      00
 3369 1988 488B08   		movq	(%rax), %rcx
 3370 198b 488D4590 		leaq	-112(%rbp), %rax
 3371 198f BA870000 		movl	$135, %edx
 3371      00
 3372 1994 4889CE   		movq	%rcx, %rsi
 3373 1997 4889C7   		movq	%rax, %rdi
 3374 199a E8000000 		call	_ZN8UnitTest11TestDetailsC1ERKS0_i
 3374      00
 135:testCore.cpp  **** 	CHECK_EQUAL(2UL, *item);
 3375              		.loc 3 135 0 is_stmt 0 discriminator 10
 3376 199f E8000000 		call	_ZN8UnitTest11CurrentTest7ResultsEv
 3376      00
 3377 19a4 488B00   		movq	(%rax), %rax
 3378 19a7 488D4D90 		leaq	-112(%rbp), %rcx
 3379 19ab BA000000 		movl	$.LC3, %edx
 3379      00
 3380 19b0 4889CE   		movq	%rcx, %rsi
 3381 19b3 4889C7   		movq	%rax, %rdi
 3382 19b6 E8000000 		call	_ZN8UnitTest11TestResults13OnTestFailureERKNS_11TestDetailsEPKc
 3382      00
 3383              	.LEHE182:
 3384              	.LEHB183:
 135:testCore.cpp  **** 	CHECK_EQUAL(2UL, *item);
 3385              		.loc 3 135 0 discriminator 14
 3386 19bb E8000000 		call	__cxa_end_catch
 3386      00
 3387              	.LEHE183:
 3388 19c0 E914FAFF 		jmp	.L211
 3388      FF
 3389              	.L277:
 3390 19c5 4889C3   		movq	%rax, %rbx
 135:testCore.cpp  **** 	CHECK_EQUAL(2UL, *item);
 3391              		.loc 3 135 0
 3392 19c8 E8000000 		call	__cxa_end_catch
 3392      00
 3393 19cd 4889D8   		movq	%rbx, %rax
 3394 19d0 4889C7   		movq	%rax, %rdi
 3395              	.LEHB184:
 3396 19d3 E8000000 		call	_Unwind_Resume
 3396      00
 3397              	.LEHE184:
 3398              	.L279:
 3399 19d8 EB00     		jmp	.L214
 3400              	.L278:
 3401              	.L214:
 136:testCore.cpp  **** 	*item = 6;
 3402              		.loc 3 136 0 is_stmt 1
 3403 19da 4889C7   		movq	%rax, %rdi
 3404 19dd E8000000 		call	__cxa_begin_catch
 3404      00
 3405              	.LEHB185:
 3406 19e2 E8000000 		call	_ZN8UnitTest11CurrentTest7DetailsEv
 3406      00
 3407 19e7 488B08   		movq	(%rax), %rcx
 3408 19ea 488D4590 		leaq	-112(%rbp), %rax
 3409 19ee BA880000 		movl	$136, %edx
 3409      00
 3410 19f3 4889CE   		movq	%rcx, %rsi
 3411 19f6 4889C7   		movq	%rax, %rdi
 3412 19f9 E8000000 		call	_ZN8UnitTest11TestDetailsC1ERKS0_i
 3412      00
 136:testCore.cpp  **** 	*item = 6;
 3413              		.loc 3 136 0 is_stmt 0 discriminator 10
 3414 19fe E8000000 		call	_ZN8UnitTest11CurrentTest7ResultsEv
 3414      00
 3415 1a03 488B00   		movq	(%rax), %rax
 3416 1a06 488D4D90 		leaq	-112(%rbp), %rcx
 3417 1a0a BA000000 		movl	$.LC14, %edx
 3417      00
 3418 1a0f 4889CE   		movq	%rcx, %rsi
 3419 1a12 4889C7   		movq	%rax, %rdi
 3420 1a15 E8000000 		call	_ZN8UnitTest11TestResults13OnTestFailureERKNS_11TestDetailsEPKc
 3420      00
 3421              	.LEHE185:
 3422              	.LEHB186:
 136:testCore.cpp  **** 	*item = 6;
 3423              		.loc 3 136 0 discriminator 14
 3424 1a1a E8000000 		call	__cxa_end_catch
 3424      00
 3425              	.LEHE186:
 3426 1a1f E9FBF9FF 		jmp	.L215
 3426      FF
 3427              	.L280:
 3428 1a24 4889C3   		movq	%rax, %rbx
 136:testCore.cpp  **** 	*item = 6;
 3429              		.loc 3 136 0
 3430 1a27 E8000000 		call	__cxa_end_catch
 3430      00
 3431 1a2c 4889D8   		movq	%rbx, %rax
 3432 1a2f 4889C7   		movq	%rax, %rdi
 3433              	.LEHB187:
 3434 1a32 E8000000 		call	_Unwind_Resume
 3434      00
 3435              	.LEHE187:
 3436              	.L282:
 3437 1a37 EB00     		jmp	.L218
 3438              	.L281:
 3439              	.L218:
 140:testCore.cpp  **** 	CHECK_EQUAL(3UL, *item);
 3440              		.loc 3 140 0 is_stmt 1
 3441 1a39 4889C7   		movq	%rax, %rdi
 3442 1a3c E8000000 		call	__cxa_begin_catch
 3442      00
 3443              	.LEHB188:
 3444 1a41 E8000000 		call	_ZN8UnitTest11CurrentTest7DetailsEv
 3444      00
 3445 1a46 488B08   		movq	(%rax), %rcx
 3446 1a49 488D4590 		leaq	-112(%rbp), %rax
 3447 1a4d BA8C0000 		movl	$140, %edx
 3447      00
 3448 1a52 4889CE   		movq	%rcx, %rsi
 3449 1a55 4889C7   		movq	%rax, %rdi
 3450 1a58 E8000000 		call	_ZN8UnitTest11TestDetailsC1ERKS0_i
 3450      00
 140:testCore.cpp  **** 	CHECK_EQUAL(3UL, *item);
 3451              		.loc 3 140 0 is_stmt 0 discriminator 10
 3452 1a5d E8000000 		call	_ZN8UnitTest11CurrentTest7ResultsEv
 3452      00
 3453 1a62 488B00   		movq	(%rax), %rax
 3454 1a65 488D4D90 		leaq	-112(%rbp), %rcx
 3455 1a69 BA000000 		movl	$.LC3, %edx
 3455      00
 3456 1a6e 4889CE   		movq	%rcx, %rsi
 3457 1a71 4889C7   		movq	%rax, %rdi
 3458 1a74 E8000000 		call	_ZN8UnitTest11TestResults13OnTestFailureERKNS_11TestDetailsEPKc
 3458      00
 3459              	.LEHE188:
 3460              	.LEHB189:
 140:testCore.cpp  **** 	CHECK_EQUAL(3UL, *item);
 3461              		.loc 3 140 0 discriminator 14
 3462 1a79 E8000000 		call	__cxa_end_catch
 3462      00
 3463              	.LEHE189:
 3464 1a7e E90DFAFF 		jmp	.L219
 3464      FF
 3465              	.L283:
 3466 1a83 4889C3   		movq	%rax, %rbx
 140:testCore.cpp  **** 	CHECK_EQUAL(3UL, *item);
 3467              		.loc 3 140 0
 3468 1a86 E8000000 		call	__cxa_end_catch
 3468      00
 3469 1a8b 4889D8   		movq	%rbx, %rax
 3470 1a8e 4889C7   		movq	%rax, %rdi
 3471              	.LEHB190:
 3472 1a91 E8000000 		call	_Unwind_Resume
 3472      00
 3473              	.LEHE190:
 3474              	.L285:
 3475 1a96 EB00     		jmp	.L222
 3476              	.L284:
 3477              	.L222:
 141:testCore.cpp  **** 	*item = 7;
 3478              		.loc 3 141 0 is_stmt 1
 3479 1a98 4889C7   		movq	%rax, %rdi
 3480 1a9b E8000000 		call	__cxa_begin_catch
 3480      00
 3481              	.LEHB191:
 3482 1aa0 E8000000 		call	_ZN8UnitTest11CurrentTest7DetailsEv
 3482      00
 3483 1aa5 488B08   		movq	(%rax), %rcx
 3484 1aa8 488D4590 		leaq	-112(%rbp), %rax
 3485 1aac BA8D0000 		movl	$141, %edx
 3485      00
 3486 1ab1 4889CE   		movq	%rcx, %rsi
 3487 1ab4 4889C7   		movq	%rax, %rdi
 3488 1ab7 E8000000 		call	_ZN8UnitTest11TestDetailsC1ERKS0_i
 3488      00
 141:testCore.cpp  **** 	*item = 7;
 3489              		.loc 3 141 0 is_stmt 0 discriminator 10
 3490 1abc E8000000 		call	_ZN8UnitTest11CurrentTest7ResultsEv
 3490      00
 3491 1ac1 488B00   		movq	(%rax), %rax
 3492 1ac4 488D4D90 		leaq	-112(%rbp), %rcx
 3493 1ac8 BA000000 		movl	$.LC15, %edx
 3493      00
 3494 1acd 4889CE   		movq	%rcx, %rsi
 3495 1ad0 4889C7   		movq	%rax, %rdi
 3496 1ad3 E8000000 		call	_ZN8UnitTest11TestResults13OnTestFailureERKNS_11TestDetailsEPKc
 3496      00
 3497              	.LEHE191:
 3498              	.LEHB192:
 141:testCore.cpp  **** 	*item = 7;
 3499              		.loc 3 141 0 discriminator 14
 3500 1ad8 E8000000 		call	__cxa_end_catch
 3500      00
 3501              	.LEHE192:
 3502 1add E9F4F9FF 		jmp	.L223
 3502      FF
 3503              	.L286:
 3504 1ae2 4889C3   		movq	%rax, %rbx
 141:testCore.cpp  **** 	*item = 7;
 3505              		.loc 3 141 0
 3506 1ae5 E8000000 		call	__cxa_end_catch
 3506      00
 3507 1aea 4889D8   		movq	%rbx, %rax
 3508 1aed 4889C7   		movq	%rax, %rdi
 3509              	.LEHB193:
 3510 1af0 E8000000 		call	_Unwind_Resume
 3510      00
 3511              	.LEHE193:
 3512              	.L288:
 3513 1af5 EB00     		jmp	.L226
 3514              	.L287:
 3515              	.L226:
 145:testCore.cpp  **** 	CHECK_EQUAL(4UL, *item);
 3516              		.loc 3 145 0 is_stmt 1
 3517 1af7 4889C7   		movq	%rax, %rdi
 3518 1afa E8000000 		call	__cxa_begin_catch
 3518      00
 3519              	.LEHB194:
 3520 1aff E8000000 		call	_ZN8UnitTest11CurrentTest7DetailsEv
 3520      00
 3521 1b04 488B08   		movq	(%rax), %rcx
 3522 1b07 488D4590 		leaq	-112(%rbp), %rax
 3523 1b0b BA910000 		movl	$145, %edx
 3523      00
 3524 1b10 4889CE   		movq	%rcx, %rsi
 3525 1b13 4889C7   		movq	%rax, %rdi
 3526 1b16 E8000000 		call	_ZN8UnitTest11TestDetailsC1ERKS0_i
 3526      00
 145:testCore.cpp  **** 	CHECK_EQUAL(4UL, *item);
 3527              		.loc 3 145 0 is_stmt 0 discriminator 10
 3528 1b1b E8000000 		call	_ZN8UnitTest11CurrentTest7ResultsEv
 3528      00
 3529 1b20 488B00   		movq	(%rax), %rax
 3530 1b23 488D4D90 		leaq	-112(%rbp), %rcx
 3531 1b27 BA000000 		movl	$.LC3, %edx
 3531      00
 3532 1b2c 4889CE   		movq	%rcx, %rsi
 3533 1b2f 4889C7   		movq	%rax, %rdi
 3534 1b32 E8000000 		call	_ZN8UnitTest11TestResults13OnTestFailureERKNS_11TestDetailsEPKc
 3534      00
 3535              	.LEHE194:
 3536              	.LEHB195:
 145:testCore.cpp  **** 	CHECK_EQUAL(4UL, *item);
 3537              		.loc 3 145 0 discriminator 14
 3538 1b37 E8000000 		call	__cxa_end_catch
 3538      00
 3539              	.LEHE195:
 3540 1b3c E906FAFF 		jmp	.L227
 3540      FF
 3541              	.L289:
 3542 1b41 4889C3   		movq	%rax, %rbx
 145:testCore.cpp  **** 	CHECK_EQUAL(4UL, *item);
 3543              		.loc 3 145 0
 3544 1b44 E8000000 		call	__cxa_end_catch
 3544      00
 3545 1b49 4889D8   		movq	%rbx, %rax
 3546 1b4c 4889C7   		movq	%rax, %rdi
 3547              	.LEHB196:
 3548 1b4f E8000000 		call	_Unwind_Resume
 3548      00
 3549              	.LEHE196:
 3550              	.L291:
 3551 1b54 EB00     		jmp	.L230
 3552              	.L290:
 3553              	.L230:
 146:testCore.cpp  **** 	*item = 8;
 3554              		.loc 3 146 0 is_stmt 1
 3555 1b56 4889C7   		movq	%rax, %rdi
 3556 1b59 E8000000 		call	__cxa_begin_catch
 3556      00
 3557              	.LEHB197:
 3558 1b5e E8000000 		call	_ZN8UnitTest11CurrentTest7DetailsEv
 3558      00
 3559 1b63 488B08   		movq	(%rax), %rcx
 3560 1b66 488D4590 		leaq	-112(%rbp), %rax
 3561 1b6a BA920000 		movl	$146, %edx
 3561      00
 3562 1b6f 4889CE   		movq	%rcx, %rsi
 3563 1b72 4889C7   		movq	%rax, %rdi
 3564 1b75 E8000000 		call	_ZN8UnitTest11TestDetailsC1ERKS0_i
 3564      00
 146:testCore.cpp  **** 	*item = 8;
 3565              		.loc 3 146 0 is_stmt 0 discriminator 10
 3566 1b7a E8000000 		call	_ZN8UnitTest11CurrentTest7ResultsEv
 3566      00
 3567 1b7f 488B00   		movq	(%rax), %rax
 3568 1b82 488D4D90 		leaq	-112(%rbp), %rcx
 3569 1b86 BA000000 		movl	$.LC22, %edx
 3569      00
 3570 1b8b 4889CE   		movq	%rcx, %rsi
 3571 1b8e 4889C7   		movq	%rax, %rdi
 3572 1b91 E8000000 		call	_ZN8UnitTest11TestResults13OnTestFailureERKNS_11TestDetailsEPKc
 3572      00
 3573              	.LEHE197:
 3574              	.LEHB198:
 146:testCore.cpp  **** 	*item = 8;
 3575              		.loc 3 146 0 discriminator 14
 3576 1b96 E8000000 		call	__cxa_end_catch
 3576      00
 3577              	.LEHE198:
 3578 1b9b E9EDF9FF 		jmp	.L231
 3578      FF
 3579              	.L292:
 3580 1ba0 4889C3   		movq	%rax, %rbx
 146:testCore.cpp  **** 	*item = 8;
 3581              		.loc 3 146 0
 3582 1ba3 E8000000 		call	__cxa_end_catch
 3582      00
 3583 1ba8 4889D8   		movq	%rbx, %rax
 3584 1bab 4889C7   		movq	%rax, %rdi
 3585              	.LEHB199:
 3586 1bae E8000000 		call	_Unwind_Resume
 3586      00
 3587              	.LEHE199:
 3588              	.L294:
 3589 1bb3 EB00     		jmp	.L234
 3590              	.L293:
 3591              	.L234:
 151:testCore.cpp  **** 	CHECK_EQUAL(0UL, queue.putIndex);
 3592              		.loc 3 151 0 is_stmt 1
 3593 1bb5 4889C7   		movq	%rax, %rdi
 3594 1bb8 E8000000 		call	__cxa_begin_catch
 3594      00
 3595              	.LEHB200:
 3596 1bbd E8000000 		call	_ZN8UnitTest11CurrentTest7DetailsEv
 3596      00
 3597 1bc2 488B08   		movq	(%rax), %rcx
 3598 1bc5 488D4590 		leaq	-112(%rbp), %rax
 3599 1bc9 BA970000 		movl	$151, %edx
 3599      00
 3600 1bce 4889CE   		movq	%rcx, %rsi
 3601 1bd1 4889C7   		movq	%rax, %rdi
 3602 1bd4 E8000000 		call	_ZN8UnitTest11TestDetailsC1ERKS0_i
 3602      00
 151:testCore.cpp  **** 	CHECK_EQUAL(0UL, queue.putIndex);
 3603              		.loc 3 151 0 is_stmt 0 discriminator 10
 3604 1bd9 E8000000 		call	_ZN8UnitTest11CurrentTest7ResultsEv
 3604      00
 3605 1bde 488B00   		movq	(%rax), %rax
 3606 1be1 488D4D90 		leaq	-112(%rbp), %rcx
 3607 1be5 BA000000 		movl	$.LC4, %edx
 3607      00
 3608 1bea 4889CE   		movq	%rcx, %rsi
 3609 1bed 4889C7   		movq	%rax, %rdi
 3610 1bf0 E8000000 		call	_ZN8UnitTest11TestResults13OnTestFailureERKNS_11TestDetailsEPKc
 3610      00
 3611              	.LEHE200:
 3612              	.LEHB201:
 151:testCore.cpp  **** 	CHECK_EQUAL(0UL, queue.putIndex);
 3613              		.loc 3 151 0 discriminator 14
 3614 1bf5 E8000000 		call	__cxa_end_catch
 3614      00
 3615              	.LEHE201:
 3616 1bfa E9EEF9FF 		jmp	.L235
 3616      FF
 3617              	.L295:
 3618 1bff 4889C3   		movq	%rax, %rbx
 151:testCore.cpp  **** 	CHECK_EQUAL(0UL, queue.putIndex);
 3619              		.loc 3 151 0
 3620 1c02 E8000000 		call	__cxa_end_catch
 3620      00
 3621 1c07 4889D8   		movq	%rbx, %rax
 3622 1c0a 4889C7   		movq	%rax, %rdi
 3623              	.LEHB202:
 3624 1c0d E8000000 		call	_Unwind_Resume
 3624      00
 3625              	.LEHE202:
 3626              	.L297:
 3627 1c12 EB00     		jmp	.L238
 3628              	.L296:
 3629              	.L238:
 152:testCore.cpp  **** 	CHECK_EQUAL(0UL, queue.takeIndex);
 3630              		.loc 3 152 0 is_stmt 1
 3631 1c14 4889C7   		movq	%rax, %rdi
 3632 1c17 E8000000 		call	__cxa_begin_catch
 3632      00
 3633              	.LEHB203:
 3634 1c1c E8000000 		call	_ZN8UnitTest11CurrentTest7DetailsEv
 3634      00
 3635 1c21 488B08   		movq	(%rax), %rcx
 3636 1c24 488D4590 		leaq	-112(%rbp), %rax
 3637 1c28 BA980000 		movl	$152, %edx
 3637      00
 3638 1c2d 4889CE   		movq	%rcx, %rsi
 3639 1c30 4889C7   		movq	%rax, %rdi
 3640 1c33 E8000000 		call	_ZN8UnitTest11TestDetailsC1ERKS0_i
 3640      00
 152:testCore.cpp  **** 	CHECK_EQUAL(0UL, queue.takeIndex);
 3641              		.loc 3 152 0 is_stmt 0 discriminator 10
 3642 1c38 E8000000 		call	_ZN8UnitTest11CurrentTest7ResultsEv
 3642      00
 3643 1c3d 488B00   		movq	(%rax), %rax
 3644 1c40 488D4D90 		leaq	-112(%rbp), %rcx
 3645 1c44 BA000000 		movl	$.LC5, %edx
 3645      00
 3646 1c49 4889CE   		movq	%rcx, %rsi
 3647 1c4c 4889C7   		movq	%rax, %rdi
 3648 1c4f E8000000 		call	_ZN8UnitTest11TestResults13OnTestFailureERKNS_11TestDetailsEPKc
 3648      00
 3649              	.LEHE203:
 3650              	.LEHB204:
 152:testCore.cpp  **** 	CHECK_EQUAL(0UL, queue.takeIndex);
 3651              		.loc 3 152 0 discriminator 14
 3652 1c54 E8000000 		call	__cxa_end_catch
 3652      00
 3653              	.LEHE204:
 3654 1c59 E9D9F9FF 		jmp	.L239
 3654      FF
 3655              	.L298:
 3656 1c5e 4889C3   		movq	%rax, %rbx
 152:testCore.cpp  **** 	CHECK_EQUAL(0UL, queue.takeIndex);
 3657              		.loc 3 152 0
 3658 1c61 E8000000 		call	__cxa_end_catch
 3658      00
 3659 1c66 4889D8   		movq	%rbx, %rax
 3660 1c69 4889C7   		movq	%rax, %rdi
 3661              	.LEHB205:
 3662 1c6c E8000000 		call	_Unwind_Resume
 3662      00
 3663              	.LEHE205:
 3664              	.L300:
 3665 1c71 EB00     		jmp	.L242
 3666              	.L299:
 3667              	.L242:
 153:testCore.cpp  **** 	CHECK_EQUAL(4UL, queue.numItems);
 3668              		.loc 3 153 0 is_stmt 1
 3669 1c73 4889C7   		movq	%rax, %rdi
 3670 1c76 E8000000 		call	__cxa_begin_catch
 3670      00
 3671              	.LEHB206:
 3672 1c7b E8000000 		call	_ZN8UnitTest11CurrentTest7DetailsEv
 3672      00
 3673 1c80 488B08   		movq	(%rax), %rcx
 3674 1c83 488D4590 		leaq	-112(%rbp), %rax
 3675 1c87 BA990000 		movl	$153, %edx
 3675      00
 3676 1c8c 4889CE   		movq	%rcx, %rsi
 3677 1c8f 4889C7   		movq	%rax, %rdi
 3678 1c92 E8000000 		call	_ZN8UnitTest11TestDetailsC1ERKS0_i
 3678      00
 153:testCore.cpp  **** 	CHECK_EQUAL(4UL, queue.numItems);
 3679              		.loc 3 153 0 is_stmt 0 discriminator 10
 3680 1c97 E8000000 		call	_ZN8UnitTest11CurrentTest7ResultsEv
 3680      00
 3681 1c9c 488B00   		movq	(%rax), %rax
 3682 1c9f 488D4D90 		leaq	-112(%rbp), %rcx
 3683 1ca3 BA000000 		movl	$.LC6, %edx
 3683      00
 3684 1ca8 4889CE   		movq	%rcx, %rsi
 3685 1cab 4889C7   		movq	%rax, %rdi
 3686 1cae E8000000 		call	_ZN8UnitTest11TestResults13OnTestFailureERKNS_11TestDetailsEPKc
 3686      00
 3687              	.LEHE206:
 3688              	.LEHB207:
 153:testCore.cpp  **** 	CHECK_EQUAL(4UL, queue.numItems);
 3689              		.loc 3 153 0 discriminator 14
 3690 1cb3 E8000000 		call	__cxa_end_catch
 3690      00
 3691              	.LEHE207:
 3692 1cb8 E9C4F9FF 		jmp	.L243
 3692      FF
 3693              	.L301:
 3694 1cbd 4889C3   		movq	%rax, %rbx
 153:testCore.cpp  **** 	CHECK_EQUAL(4UL, queue.numItems);
 3695              		.loc 3 153 0
 3696 1cc0 E8000000 		call	__cxa_end_catch
 3696      00
 3697 1cc5 4889D8   		movq	%rbx, %rax
 3698 1cc8 4889C7   		movq	%rax, %rdi
 3699              	.LEHB208:
 3700 1ccb E8000000 		call	_Unwind_Resume
 3700      00
 3701              	.LEHE208:
 3702              	.L303:
 3703 1cd0 EB00     		jmp	.L246
 3704              	.L302:
 3705              	.L246:
 154:testCore.cpp  **** 
 3706              		.loc 3 154 0 is_stmt 1
 3707 1cd2 4889C7   		movq	%rax, %rdi
 3708 1cd5 E8000000 		call	__cxa_begin_catch
 3708      00
 3709              	.LEHB209:
 3710 1cda E8000000 		call	_ZN8UnitTest11CurrentTest7DetailsEv
 3710      00
 3711 1cdf 488B08   		movq	(%rax), %rcx
 3712 1ce2 488D4590 		leaq	-112(%rbp), %rax
 3713 1ce6 BA9A0000 		movl	$154, %edx
 3713      00
 3714 1ceb 4889CE   		movq	%rcx, %rsi
 3715 1cee 4889C7   		movq	%rax, %rdi
 3716 1cf1 E8000000 		call	_ZN8UnitTest11TestDetailsC1ERKS0_i
 3716      00
 154:testCore.cpp  **** 
 3717              		.loc 3 154 0 is_stmt 0 discriminator 10
 3718 1cf6 E8000000 		call	_ZN8UnitTest11CurrentTest7ResultsEv
 3718      00
 3719 1cfb 488B00   		movq	(%rax), %rax
 3720 1cfe 488D4D90 		leaq	-112(%rbp), %rcx
 3721 1d02 BA000000 		movl	$.LC23, %edx
 3721      00
 3722 1d07 4889CE   		movq	%rcx, %rsi
 3723 1d0a 4889C7   		movq	%rax, %rdi
 3724 1d0d E8000000 		call	_ZN8UnitTest11TestResults13OnTestFailureERKNS_11TestDetailsEPKc
 3724      00
 3725              	.LEHE209:
 3726              	.LEHB210:
 154:testCore.cpp  **** 
 3727              		.loc 3 154 0 discriminator 14
 3728 1d12 E8000000 		call	__cxa_end_catch
 3728      00
 3729              	.LEHE210:
 3730 1d17 E9AFF9FF 		jmp	.L247
 3730      FF
 3731              	.L304:
 3732 1d1c 4889C3   		movq	%rax, %rbx
 154:testCore.cpp  **** 
 3733              		.loc 3 154 0
 3734 1d1f E8000000 		call	__cxa_end_catch
 3734      00
 3735 1d24 4889D8   		movq	%rbx, %rax
 3736 1d27 4889C7   		movq	%rax, %rdi
 3737              	.LEHB211:
 3738 1d2a E8000000 		call	_Unwind_Resume
 3738      00
 3739              	.LEHE211:
 3740              	.L306:
 3741 1d2f EB00     		jmp	.L250
 3742              	.L305:
 3743              	.L250:
 157:testCore.cpp  **** 	CHECK_EQUAL(6UL, deref(queue.itemArray[1]));
 3744              		.loc 3 157 0 is_stmt 1
 3745 1d31 4889C7   		movq	%rax, %rdi
 3746 1d34 E8000000 		call	__cxa_begin_catch
 3746      00
 3747              	.LEHB212:
 3748 1d39 E8000000 		call	_ZN8UnitTest11CurrentTest7DetailsEv
 3748      00
 3749 1d3e 488B08   		movq	(%rax), %rcx
 3750 1d41 488D4590 		leaq	-112(%rbp), %rax
 3751 1d45 BA9D0000 		movl	$157, %edx
 3751      00
 3752 1d4a 4889CE   		movq	%rcx, %rsi
 3753 1d4d 4889C7   		movq	%rax, %rdi
 3754 1d50 E8000000 		call	_ZN8UnitTest11TestDetailsC1ERKS0_i
 3754      00
 157:testCore.cpp  **** 	CHECK_EQUAL(6UL, deref(queue.itemArray[1]));
 3755              		.loc 3 157 0 is_stmt 0 discriminator 10
 3756 1d55 E8000000 		call	_ZN8UnitTest11CurrentTest7ResultsEv
 3756      00
 3757 1d5a 488B00   		movq	(%rax), %rax
 3758 1d5d 488D4D90 		leaq	-112(%rbp), %rcx
 3759 1d61 BA000000 		movl	$.LC18, %edx
 3759      00
 3760 1d66 4889CE   		movq	%rcx, %rsi
 3761 1d69 4889C7   		movq	%rax, %rdi
 3762 1d6c E8000000 		call	_ZN8UnitTest11TestResults13OnTestFailureERKNS_11TestDetailsEPKc
 3762      00
 3763              	.LEHE212:
 3764              	.LEHB213:
 157:testCore.cpp  **** 	CHECK_EQUAL(6UL, deref(queue.itemArray[1]));
 3765              		.loc 3 157 0 discriminator 14
 3766 1d71 E8000000 		call	__cxa_end_catch
 3766      00
 3767              	.LEHE213:
 3768 1d76 E9A8F9FF 		jmp	.L251
 3768      FF
 3769              	.L307:
 3770 1d7b 4889C3   		movq	%rax, %rbx
 157:testCore.cpp  **** 	CHECK_EQUAL(6UL, deref(queue.itemArray[1]));
 3771              		.loc 3 157 0
 3772 1d7e E8000000 		call	__cxa_end_catch
 3772      00
 3773 1d83 4889D8   		movq	%rbx, %rax
 3774 1d86 4889C7   		movq	%rax, %rdi
 3775              	.LEHB214:
 3776 1d89 E8000000 		call	_Unwind_Resume
 3776      00
 3777              	.LEHE214:
 3778              	.L309:
 3779 1d8e EB00     		jmp	.L254
 3780              	.L308:
 3781              	.L254:
 158:testCore.cpp  **** 	CHECK_EQUAL(7UL, deref(queue.itemArray[2]));
 3782              		.loc 3 158 0 is_stmt 1
 3783 1d90 4889C7   		movq	%rax, %rdi
 3784 1d93 E8000000 		call	__cxa_begin_catch
 3784      00
 3785              	.LEHB215:
 3786 1d98 E8000000 		call	_ZN8UnitTest11CurrentTest7DetailsEv
 3786      00
 3787 1d9d 488B08   		movq	(%rax), %rcx
 3788 1da0 488D4590 		leaq	-112(%rbp), %rax
 3789 1da4 BA9E0000 		movl	$158, %edx
 3789      00
 3790 1da9 4889CE   		movq	%rcx, %rsi
 3791 1dac 4889C7   		movq	%rax, %rdi
 3792 1daf E8000000 		call	_ZN8UnitTest11TestDetailsC1ERKS0_i
 3792      00
 158:testCore.cpp  **** 	CHECK_EQUAL(7UL, deref(queue.itemArray[2]));
 3793              		.loc 3 158 0 is_stmt 0 discriminator 10
 3794 1db4 E8000000 		call	_ZN8UnitTest11CurrentTest7ResultsEv
 3794      00
 3795 1db9 488B00   		movq	(%rax), %rax
 3796 1dbc 488D4D90 		leaq	-112(%rbp), %rcx
 3797 1dc0 BA000000 		movl	$.LC19, %edx
 3797      00
 3798 1dc5 4889CE   		movq	%rcx, %rsi
 3799 1dc8 4889C7   		movq	%rax, %rdi
 3800 1dcb E8000000 		call	_ZN8UnitTest11TestResults13OnTestFailureERKNS_11TestDetailsEPKc
 3800      00
 3801              	.LEHE215:
 3802              	.LEHB216:
 158:testCore.cpp  **** 	CHECK_EQUAL(7UL, deref(queue.itemArray[2]));
 3803              		.loc 3 158 0 discriminator 14
 3804 1dd0 E8000000 		call	__cxa_end_catch
 3804      00
 3805              	.LEHE216:
 3806 1dd5 E9A5F9FF 		jmp	.L255
 3806      FF
 3807              	.L310:
 3808 1dda 4889C3   		movq	%rax, %rbx
 158:testCore.cpp  **** 	CHECK_EQUAL(7UL, deref(queue.itemArray[2]));
 3809              		.loc 3 158 0
 3810 1ddd E8000000 		call	__cxa_end_catch
 3810      00
 3811 1de2 4889D8   		movq	%rbx, %rax
 3812 1de5 4889C7   		movq	%rax, %rdi
 3813              	.LEHB217:
 3814 1de8 E8000000 		call	_Unwind_Resume
 3814      00
 3815              	.LEHE217:
 3816              	.L312:
 3817 1ded EB00     		jmp	.L258
 3818              	.L311:
 3819              	.L258:
 159:testCore.cpp  **** 	CHECK_EQUAL(8UL, deref(queue.itemArray[3]));
 3820              		.loc 3 159 0 is_stmt 1
 3821 1def 4889C7   		movq	%rax, %rdi
 3822 1df2 E8000000 		call	__cxa_begin_catch
 3822      00
 3823              	.LEHB218:
 3824 1df7 E8000000 		call	_ZN8UnitTest11CurrentTest7DetailsEv
 3824      00
 3825 1dfc 488B08   		movq	(%rax), %rcx
 3826 1dff 488D4590 		leaq	-112(%rbp), %rax
 3827 1e03 BA9F0000 		movl	$159, %edx
 3827      00
 3828 1e08 4889CE   		movq	%rcx, %rsi
 3829 1e0b 4889C7   		movq	%rax, %rdi
 3830 1e0e E8000000 		call	_ZN8UnitTest11TestDetailsC1ERKS0_i
 3830      00
 159:testCore.cpp  **** 	CHECK_EQUAL(8UL, deref(queue.itemArray[3]));
 3831              		.loc 3 159 0 is_stmt 0 discriminator 10
 3832 1e13 E8000000 		call	_ZN8UnitTest11CurrentTest7ResultsEv
 3832      00
 3833 1e18 488B00   		movq	(%rax), %rax
 3834 1e1b 488D4D90 		leaq	-112(%rbp), %rcx
 3835 1e1f BA000000 		movl	$.LC20, %edx
 3835      00
 3836 1e24 4889CE   		movq	%rcx, %rsi
 3837 1e27 4889C7   		movq	%rax, %rdi
 3838 1e2a E8000000 		call	_ZN8UnitTest11TestResults13OnTestFailureERKNS_11TestDetailsEPKc
 3838      00
 3839              	.LEHE218:
 3840              	.LEHB219:
 159:testCore.cpp  **** 	CHECK_EQUAL(8UL, deref(queue.itemArray[3]));
 3841              		.loc 3 159 0 discriminator 14
 3842 1e2f E8000000 		call	__cxa_end_catch
 3842      00
 3843              	.LEHE219:
 3844 1e34 E9A2F9FF 		jmp	.L259
 3844      FF
 3845              	.L313:
 3846 1e39 4889C3   		movq	%rax, %rbx
 159:testCore.cpp  **** 	CHECK_EQUAL(8UL, deref(queue.itemArray[3]));
 3847              		.loc 3 159 0
 3848 1e3c E8000000 		call	__cxa_end_catch
 3848      00
 3849 1e41 4889D8   		movq	%rbx, %rax
 3850 1e44 4889C7   		movq	%rax, %rdi
 3851              	.LEHB220:
 3852 1e47 E8000000 		call	_Unwind_Resume
 3852      00
 3853              	.LEHE220:
 3854              	.L315:
 3855 1e4c EB00     		jmp	.L262
 3856              	.L314:
 3857              	.L262:
 160:testCore.cpp  **** 
 3858              		.loc 3 160 0 is_stmt 1
 3859 1e4e 4889C7   		movq	%rax, %rdi
 3860 1e51 E8000000 		call	__cxa_begin_catch
 3860      00
 3861              	.LEHB221:
 3862 1e56 E8000000 		call	_ZN8UnitTest11CurrentTest7DetailsEv
 3862      00
 3863 1e5b 488B08   		movq	(%rax), %rcx
 3864 1e5e 488D4590 		leaq	-112(%rbp), %rax
 3865 1e62 BAA00000 		movl	$160, %edx
 3865      00
 3866 1e67 4889CE   		movq	%rcx, %rsi
 3867 1e6a 4889C7   		movq	%rax, %rdi
 3868 1e6d E8000000 		call	_ZN8UnitTest11TestDetailsC1ERKS0_i
 3868      00
 160:testCore.cpp  **** 
 3869              		.loc 3 160 0 is_stmt 0 discriminator 10
 3870 1e72 E8000000 		call	_ZN8UnitTest11CurrentTest7ResultsEv
 3870      00
 3871 1e77 488B00   		movq	(%rax), %rax
 3872 1e7a 488D4D90 		leaq	-112(%rbp), %rcx
 3873 1e7e BA000000 		movl	$.LC24, %edx
 3873      00
 3874 1e83 4889CE   		movq	%rcx, %rsi
 3875 1e86 4889C7   		movq	%rax, %rdi
 3876 1e89 E8000000 		call	_ZN8UnitTest11TestResults13OnTestFailureERKNS_11TestDetailsEPKc
 3876      00
 3877              	.LEHE221:
 3878              	.LEHB222:
 160:testCore.cpp  **** 
 3879              		.loc 3 160 0 discriminator 14
 3880 1e8e E8000000 		call	__cxa_end_catch
 3880      00
 3881              	.LEHE222:
 3882 1e93 E99FF9FF 		jmp	.L263
 3882      FF
 3883              	.L316:
 3884 1e98 4889C3   		movq	%rax, %rbx
 160:testCore.cpp  **** 
 3885              		.loc 3 160 0
 3886 1e9b E8000000 		call	__cxa_end_catch
 3886      00
 3887 1ea0 4889D8   		movq	%rbx, %rax
 3888 1ea3 4889C7   		movq	%rax, %rdi
 3889              	.LEHB223:
 3890 1ea6 E8000000 		call	_Unwind_Resume
 3890      00
 3891              	.LEHE223:
 3892              	.L317:
 3893              		.loc 3 164 0 is_stmt 1
 3894 1eab E8000000 		call	__stack_chk_fail
 3894      00
 3895              	.L265:
 3896 1eb0 4881C498 		addq	$152, %rsp
 3896      000000
 3897 1eb7 5B       		popq	%rbx
 3898 1eb8 5D       		popq	%rbp
 3899              		.cfi_def_cfa 7, 8
 3900 1eb9 C3       		ret
 3901              		.cfi_endproc
 3902              	.LFE1092:
 3903              		.section	.gcc_except_table
 3904              		.align 4
 3905              	.LLSDA1092:
 3906 02e4 FF       		.byte	0xff
 3907 02e5 03       		.byte	0x3
 3908 02e6 8804     		.uleb128 .LLSDATT1092-.LLSDATTD1092
 3909              	.LLSDATTD1092:
 3910 02e8 01       		.byte	0x1
 3911 02e9 FC03     		.uleb128 .LLSDACSE1092-.LLSDACSB1092
 3912              	.LLSDACSB1092:
 3913 02eb 42       		.uleb128 .LEHB132-.LFB1092
 3914 02ec 05       		.uleb128 .LEHE132-.LEHB132
 3915 02ed 00       		.uleb128 0
 3916 02ee 00       		.uleb128 0
 3917 02ef 4D       		.uleb128 .LEHB133-.LFB1092
 3918 02f0 1C       		.uleb128 .LEHE133-.LEHB133
 3919 02f1 A60C     		.uleb128 .L266-.LFB1092
 3920 02f3 01       		.uleb128 0x1
 3921 02f4 70       		.uleb128 .LEHB134-.LFB1092
 3922 02f5 1F       		.uleb128 .LEHE134-.LEHB134
 3923 02f6 A40C     		.uleb128 .L267-.LFB1092
 3924 02f8 03       		.uleb128 0x3
 3925 02f9 9D01     		.uleb128 .LEHB135-.LFB1092
 3926 02fb 05       		.uleb128 .LEHE135-.LEHB135
 3927 02fc 00       		.uleb128 0
 3928 02fd 00       		.uleb128 0
 3929 02fe A801     		.uleb128 .LEHB136-.LFB1092
 3930 0300 1C       		.uleb128 .LEHE136-.LEHB136
 3931 0301 850D     		.uleb128 .L269-.LFB1092
 3932 0303 01       		.uleb128 0x1
 3933 0304 CB01     		.uleb128 .LEHB137-.LFB1092
 3934 0306 1F       		.uleb128 .LEHE137-.LEHB137
 3935 0307 830D     		.uleb128 .L270-.LFB1092
 3936 0309 03       		.uleb128 0x3
 3937 030a EA01     		.uleb128 .LEHB138-.LFB1092
 3938 030c 1C       		.uleb128 .LEHE138-.LEHB138
 3939 030d E40D     		.uleb128 .L272-.LFB1092
 3940 030f 01       		.uleb128 0x1
 3941 0310 9202     		.uleb128 .LEHB139-.LFB1092
 3942 0312 1E       		.uleb128 .LEHE139-.LEHB139
 3943 0313 E20D     		.uleb128 .L273-.LFB1092
 3944 0315 03       		.uleb128 0x3
 3945 0316 C102     		.uleb128 .LEHB140-.LFB1092
 3946 0318 18       		.uleb128 .LEHE140-.LEHB140
 3947 0319 00       		.uleb128 0
 3948 031a 00       		.uleb128 0
 3949 031b DF02     		.uleb128 .LEHB141-.LFB1092
 3950 031d 1C       		.uleb128 .LEHE141-.LEHB141
 3951 031e C30E     		.uleb128 .L275-.LFB1092
 3952 0320 01       		.uleb128 0x1
 3953 0321 8203     		.uleb128 .LEHB142-.LFB1092
 3954 0323 1F       		.uleb128 .LEHE142-.LEHB142
 3955 0324 C10E     		.uleb128 .L276-.LFB1092
 3956 0326 03       		.uleb128 0x3
 3957 0327 A103     		.uleb128 .LEHB143-.LFB1092
 3958 0329 1C       		.uleb128 .LEHE143-.LEHB143
 3959 032a A20F     		.uleb128 .L278-.LFB1092
 3960 032c 01       		.uleb128 0x1
 3961 032d C903     		.uleb128 .LEHB144-.LFB1092
 3962 032f 1E       		.uleb128 .LEHE144-.LEHB144
 3963 0330 A00F     		.uleb128 .L279-.LFB1092
 3964 0332 03       		.uleb128 0x3
 3965 0333 F803     		.uleb128 .LEHB145-.LFB1092
 3966 0335 18       		.uleb128 .LEHE145-.LEHB145
 3967 0336 00       		.uleb128 0
 3968 0337 00       		.uleb128 0
 3969 0338 9604     		.uleb128 .LEHB146-.LFB1092
 3970 033a 1C       		.uleb128 .LEHE146-.LEHB146
 3971 033b 8110     		.uleb128 .L281-.LFB1092
 3972 033d 01       		.uleb128 0x1
 3973 033e B904     		.uleb128 .LEHB147-.LFB1092
 3974 0340 1F       		.uleb128 .LEHE147-.LEHB147
 3975 0341 FF0F     		.uleb128 .L282-.LFB1092
 3976 0343 03       		.uleb128 0x3
 3977 0344 D804     		.uleb128 .LEHB148-.LFB1092
 3978 0346 1C       		.uleb128 .LEHE148-.LEHB148
 3979 0347 E010     		.uleb128 .L284-.LFB1092
 3980 0349 01       		.uleb128 0x1
 3981 034a 8005     		.uleb128 .LEHB149-.LFB1092
 3982 034c 1E       		.uleb128 .LEHE149-.LEHB149
 3983 034d DE10     		.uleb128 .L285-.LFB1092
 3984 034f 03       		.uleb128 0x3
 3985 0350 AF05     		.uleb128 .LEHB150-.LFB1092
 3986 0352 18       		.uleb128 .LEHE150-.LEHB150
 3987 0353 00       		.uleb128 0
 3988 0354 00       		.uleb128 0
 3989 0355 CD05     		.uleb128 .LEHB151-.LFB1092
 3990 0357 1C       		.uleb128 .LEHE151-.LEHB151
 3991 0358 BF11     		.uleb128 .L287-.LFB1092
 3992 035a 01       		.uleb128 0x1
 3993 035b F005     		.uleb128 .LEHB152-.LFB1092
 3994 035d 1F       		.uleb128 .LEHE152-.LEHB152
 3995 035e BD11     		.uleb128 .L288-.LFB1092
 3996 0360 03       		.uleb128 0x3
 3997 0361 8F06     		.uleb128 .LEHB153-.LFB1092
 3998 0363 1C       		.uleb128 .LEHE153-.LEHB153
 3999 0364 9E12     		.uleb128 .L290-.LFB1092
 4000 0366 01       		.uleb128 0x1
 4001 0367 B706     		.uleb128 .LEHB154-.LFB1092
 4002 0369 1E       		.uleb128 .LEHE154-.LEHB154
 4003 036a 9C12     		.uleb128 .L291-.LFB1092
 4004 036c 03       		.uleb128 0x3
 4005 036d E606     		.uleb128 .LEHB155-.LFB1092
 4006 036f 05       		.uleb128 .LEHE155-.LEHB155
 4007 0370 00       		.uleb128 0
 4008 0371 00       		.uleb128 0
 4009 0372 EB06     		.uleb128 .LEHB156-.LFB1092
 4010 0374 1C       		.uleb128 .LEHE156-.LEHB156
 4011 0375 FD12     		.uleb128 .L293-.LFB1092
 4012 0377 01       		.uleb128 0x1
 4013 0378 8F07     		.uleb128 .LEHB157-.LFB1092
 4014 037a 26       		.uleb128 .LEHE157-.LEHB157
 4015 037b FB12     		.uleb128 .L294-.LFB1092
 4016 037d 03       		.uleb128 0x3
 4017 037e B507     		.uleb128 .LEHB158-.LFB1092
 4018 0380 1C       		.uleb128 .LEHE158-.LEHB158
 4019 0381 DC13     		.uleb128 .L296-.LFB1092
 4020 0383 01       		.uleb128 0x1
 4021 0384 D907     		.uleb128 .LEHB159-.LFB1092
 4022 0386 26       		.uleb128 .LEHE159-.LEHB159
 4023 0387 DA13     		.uleb128 .L297-.LFB1092
 4024 0389 03       		.uleb128 0x3
 4025 038a FF07     		.uleb128 .LEHB160-.LFB1092
 4026 038c 1C       		.uleb128 .LEHE160-.LEHB160
 4027 038d BB14     		.uleb128 .L299-.LFB1092
 4028 038f 01       		.uleb128 0x1
 4029 0390 A308     		.uleb128 .LEHB161-.LFB1092
 4030 0392 26       		.uleb128 .LEHE161-.LEHB161
 4031 0393 B914     		.uleb128 .L300-.LFB1092
 4032 0395 03       		.uleb128 0x3
 4033 0396 C908     		.uleb128 .LEHB162-.LFB1092
 4034 0398 1C       		.uleb128 .LEHE162-.LEHB162
 4035 0399 9A15     		.uleb128 .L302-.LFB1092
 4036 039b 01       		.uleb128 0x1
 4037 039c ED08     		.uleb128 .LEHB163-.LFB1092
 4038 039e 26       		.uleb128 .LEHE163-.LEHB163
 4039 039f 9815     		.uleb128 .L303-.LFB1092
 4040 03a1 03       		.uleb128 0x3
 4041 03a2 9309     		.uleb128 .LEHB164-.LFB1092
 4042 03a4 1C       		.uleb128 .LEHE164-.LEHB164
 4043 03a5 F915     		.uleb128 .L305-.LFB1092
 4044 03a7 01       		.uleb128 0x1
 4045 03a8 CC09     		.uleb128 .LEHB165-.LFB1092
 4046 03aa 1F       		.uleb128 .LEHE165-.LEHB165
 4047 03ab F715     		.uleb128 .L306-.LFB1092
 4048 03ad 03       		.uleb128 0x3
 4049 03ae EB09     		.uleb128 .LEHB166-.LFB1092
 4050 03b0 1C       		.uleb128 .LEHE166-.LEHB166
 4051 03b1 D816     		.uleb128 .L308-.LFB1092
 4052 03b3 01       		.uleb128 0x1
 4053 03b4 A80A     		.uleb128 .LEHB167-.LFB1092
 4054 03b6 1F       		.uleb128 .LEHE167-.LEHB167
 4055 03b7 D616     		.uleb128 .L309-.LFB1092
 4056 03b9 03       		.uleb128 0x3
 4057 03ba C70A     		.uleb128 .LEHB168-.LFB1092
 4058 03bc 1C       		.uleb128 .LEHE168-.LEHB168
 4059 03bd B717     		.uleb128 .L311-.LFB1092
 4060 03bf 01       		.uleb128 0x1
 4061 03c0 840B     		.uleb128 .LEHB169-.LFB1092
 4062 03c2 1F       		.uleb128 .LEHE169-.LEHB169
 4063 03c3 B517     		.uleb128 .L312-.LFB1092
 4064 03c5 03       		.uleb128 0x3
 4065 03c6 A30B     		.uleb128 .LEHB170-.LFB1092
 4066 03c8 1C       		.uleb128 .LEHE170-.LEHB170
 4067 03c9 9618     		.uleb128 .L314-.LFB1092
 4068 03cb 01       		.uleb128 0x1
 4069 03cc E00B     		.uleb128 .LEHB171-.LFB1092
 4070 03ce 1F       		.uleb128 .LEHE171-.LEHB171
 4071 03cf 9418     		.uleb128 .L315-.LFB1092
 4072 03d1 03       		.uleb128 0x3
 4073 03d2 860C     		.uleb128 .LEHB172-.LFB1092
 4074 03d4 05       		.uleb128 .LEHE172-.LEHB172
 4075 03d5 00       		.uleb128 0
 4076 03d6 00       		.uleb128 0
 4077 03d7 AE0C     		.uleb128 .LEHB173-.LFB1092
 4078 03d9 38       		.uleb128 .LEHE173-.LEHB173
 4079 03da F00C     		.uleb128 .L268-.LFB1092
 4080 03dc 00       		.uleb128 0
 4081 03dd E60C     		.uleb128 .LEHB174-.LFB1092
 4082 03df 05       		.uleb128 .LEHE174-.LEHB174
 4083 03e0 00       		.uleb128 0
 4084 03e1 00       		.uleb128 0
 4085 03e2 FE0C     		.uleb128 .LEHB175-.LFB1092
 4086 03e4 05       		.uleb128 .LEHE175-.LEHB175
 4087 03e5 00       		.uleb128 0
 4088 03e6 00       		.uleb128 0
 4089 03e7 8D0D     		.uleb128 .LEHB176-.LFB1092
 4090 03e9 38       		.uleb128 .LEHE176-.LEHB176
 4091 03ea CF0D     		.uleb128 .L271-.LFB1092
 4092 03ec 00       		.uleb128 0
 4093 03ed C50D     		.uleb128 .LEHB177-.LFB1092
 4094 03ef 05       		.uleb128 .LEHE177-.LEHB177
 4095 03f0 00       		.uleb128 0
 4096 03f1 00       		.uleb128 0
 4097 03f2 DD0D     		.uleb128 .LEHB178-.LFB1092
 4098 03f4 05       		.uleb128 .LEHE178-.LEHB178
 4099 03f5 00       		.uleb128 0
 4100 03f6 00       		.uleb128 0
 4101 03f7 EC0D     		.uleb128 .LEHB179-.LFB1092
 4102 03f9 38       		.uleb128 .LEHE179-.LEHB179
 4103 03fa AE0E     		.uleb128 .L274-.LFB1092
 4104 03fc 00       		.uleb128 0
 4105 03fd A40E     		.uleb128 .LEHB180-.LFB1092
 4106 03ff 05       		.uleb128 .LEHE180-.LEHB180
 4107 0400 00       		.uleb128 0
 4108 0401 00       		.uleb128 0
 4109 0402 BC0E     		.uleb128 .LEHB181-.LFB1092
 4110 0404 05       		.uleb128 .LEHE181-.LEHB181
 4111 0405 00       		.uleb128 0
 4112 0406 00       		.uleb128 0
 4113 0407 CB0E     		.uleb128 .LEHB182-.LFB1092
 4114 0409 38       		.uleb128 .LEHE182-.LEHB182
 4115 040a 8D0F     		.uleb128 .L277-.LFB1092
 4116 040c 00       		.uleb128 0
 4117 040d 830F     		.uleb128 .LEHB183-.LFB1092
 4118 040f 05       		.uleb128 .LEHE183-.LEHB183
 4119 0410 00       		.uleb128 0
 4120 0411 00       		.uleb128 0
 4121 0412 9B0F     		.uleb128 .LEHB184-.LFB1092
 4122 0414 05       		.uleb128 .LEHE184-.LEHB184
 4123 0415 00       		.uleb128 0
 4124 0416 00       		.uleb128 0
 4125 0417 AA0F     		.uleb128 .LEHB185-.LFB1092
 4126 0419 38       		.uleb128 .LEHE185-.LEHB185
 4127 041a EC0F     		.uleb128 .L280-.LFB1092
 4128 041c 00       		.uleb128 0
 4129 041d E20F     		.uleb128 .LEHB186-.LFB1092
 4130 041f 05       		.uleb128 .LEHE186-.LEHB186
 4131 0420 00       		.uleb128 0
 4132 0421 00       		.uleb128 0
 4133 0422 FA0F     		.uleb128 .LEHB187-.LFB1092
 4134 0424 05       		.uleb128 .LEHE187-.LEHB187
 4135 0425 00       		.uleb128 0
 4136 0426 00       		.uleb128 0
 4137 0427 8910     		.uleb128 .LEHB188-.LFB1092
 4138 0429 38       		.uleb128 .LEHE188-.LEHB188
 4139 042a CB10     		.uleb128 .L283-.LFB1092
 4140 042c 00       		.uleb128 0
 4141 042d C110     		.uleb128 .LEHB189-.LFB1092
 4142 042f 05       		.uleb128 .LEHE189-.LEHB189
 4143 0430 00       		.uleb128 0
 4144 0431 00       		.uleb128 0
 4145 0432 D910     		.uleb128 .LEHB190-.LFB1092
 4146 0434 05       		.uleb128 .LEHE190-.LEHB190
 4147 0435 00       		.uleb128 0
 4148 0436 00       		.uleb128 0
 4149 0437 E810     		.uleb128 .LEHB191-.LFB1092
 4150 0439 38       		.uleb128 .LEHE191-.LEHB191
 4151 043a AA11     		.uleb128 .L286-.LFB1092
 4152 043c 00       		.uleb128 0
 4153 043d A011     		.uleb128 .LEHB192-.LFB1092
 4154 043f 05       		.uleb128 .LEHE192-.LEHB192
 4155 0440 00       		.uleb128 0
 4156 0441 00       		.uleb128 0
 4157 0442 B811     		.uleb128 .LEHB193-.LFB1092
 4158 0444 05       		.uleb128 .LEHE193-.LEHB193
 4159 0445 00       		.uleb128 0
 4160 0446 00       		.uleb128 0
 4161 0447 C711     		.uleb128 .LEHB194-.LFB1092
 4162 0449 38       		.uleb128 .LEHE194-.LEHB194
 4163 044a 8912     		.uleb128 .L289-.LFB1092
 4164 044c 00       		.uleb128 0
 4165 044d FF11     		.uleb128 .LEHB195-.LFB1092
 4166 044f 05       		.uleb128 .LEHE195-.LEHB195
 4167 0450 00       		.uleb128 0
 4168 0451 00       		.uleb128 0
 4169 0452 9712     		.uleb128 .LEHB196-.LFB1092
 4170 0454 05       		.uleb128 .LEHE196-.LEHB196
 4171 0455 00       		.uleb128 0
 4172 0456 00       		.uleb128 0
 4173 0457 A612     		.uleb128 .LEHB197-.LFB1092
 4174 0459 38       		.uleb128 .LEHE197-.LEHB197
 4175 045a E812     		.uleb128 .L292-.LFB1092
 4176 045c 00       		.uleb128 0
 4177 045d DE12     		.uleb128 .LEHB198-.LFB1092
 4178 045f 05       		.uleb128 .LEHE198-.LEHB198
 4179 0460 00       		.uleb128 0
 4180 0461 00       		.uleb128 0
 4181 0462 F612     		.uleb128 .LEHB199-.LFB1092
 4182 0464 05       		.uleb128 .LEHE199-.LEHB199
 4183 0465 00       		.uleb128 0
 4184 0466 00       		.uleb128 0
 4185 0467 8513     		.uleb128 .LEHB200-.LFB1092
 4186 0469 38       		.uleb128 .LEHE200-.LEHB200
 4187 046a C713     		.uleb128 .L295-.LFB1092
 4188 046c 00       		.uleb128 0
 4189 046d BD13     		.uleb128 .LEHB201-.LFB1092
 4190 046f 05       		.uleb128 .LEHE201-.LEHB201
 4191 0470 00       		.uleb128 0
 4192 0471 00       		.uleb128 0
 4193 0472 D513     		.uleb128 .LEHB202-.LFB1092
 4194 0474 05       		.uleb128 .LEHE202-.LEHB202
 4195 0475 00       		.uleb128 0
 4196 0476 00       		.uleb128 0
 4197 0477 E413     		.uleb128 .LEHB203-.LFB1092
 4198 0479 38       		.uleb128 .LEHE203-.LEHB203
 4199 047a A614     		.uleb128 .L298-.LFB1092
 4200 047c 00       		.uleb128 0
 4201 047d 9C14     		.uleb128 .LEHB204-.LFB1092
 4202 047f 05       		.uleb128 .LEHE204-.LEHB204
 4203 0480 00       		.uleb128 0
 4204 0481 00       		.uleb128 0
 4205 0482 B414     		.uleb128 .LEHB205-.LFB1092
 4206 0484 05       		.uleb128 .LEHE205-.LEHB205
 4207 0485 00       		.uleb128 0
 4208 0486 00       		.uleb128 0
 4209 0487 C314     		.uleb128 .LEHB206-.LFB1092
 4210 0489 38       		.uleb128 .LEHE206-.LEHB206
 4211 048a 8515     		.uleb128 .L301-.LFB1092
 4212 048c 00       		.uleb128 0
 4213 048d FB14     		.uleb128 .LEHB207-.LFB1092
 4214 048f 05       		.uleb128 .LEHE207-.LEHB207
 4215 0490 00       		.uleb128 0
 4216 0491 00       		.uleb128 0
 4217 0492 9315     		.uleb128 .LEHB208-.LFB1092
 4218 0494 05       		.uleb128 .LEHE208-.LEHB208
 4219 0495 00       		.uleb128 0
 4220 0496 00       		.uleb128 0
 4221 0497 A215     		.uleb128 .LEHB209-.LFB1092
 4222 0499 38       		.uleb128 .LEHE209-.LEHB209
 4223 049a E415     		.uleb128 .L304-.LFB1092
 4224 049c 00       		.uleb128 0
 4225 049d DA15     		.uleb128 .LEHB210-.LFB1092
 4226 049f 05       		.uleb128 .LEHE210-.LEHB210
 4227 04a0 00       		.uleb128 0
 4228 04a1 00       		.uleb128 0
 4229 04a2 F215     		.uleb128 .LEHB211-.LFB1092
 4230 04a4 05       		.uleb128 .LEHE211-.LEHB211
 4231 04a5 00       		.uleb128 0
 4232 04a6 00       		.uleb128 0
 4233 04a7 8116     		.uleb128 .LEHB212-.LFB1092
 4234 04a9 38       		.uleb128 .LEHE212-.LEHB212
 4235 04aa C316     		.uleb128 .L307-.LFB1092
 4236 04ac 00       		.uleb128 0
 4237 04ad B916     		.uleb128 .LEHB213-.LFB1092
 4238 04af 05       		.uleb128 .LEHE213-.LEHB213
 4239 04b0 00       		.uleb128 0
 4240 04b1 00       		.uleb128 0
 4241 04b2 D116     		.uleb128 .LEHB214-.LFB1092
 4242 04b4 05       		.uleb128 .LEHE214-.LEHB214
 4243 04b5 00       		.uleb128 0
 4244 04b6 00       		.uleb128 0
 4245 04b7 E016     		.uleb128 .LEHB215-.LFB1092
 4246 04b9 38       		.uleb128 .LEHE215-.LEHB215
 4247 04ba A217     		.uleb128 .L310-.LFB1092
 4248 04bc 00       		.uleb128 0
 4249 04bd 9817     		.uleb128 .LEHB216-.LFB1092
 4250 04bf 05       		.uleb128 .LEHE216-.LEHB216
 4251 04c0 00       		.uleb128 0
 4252 04c1 00       		.uleb128 0
 4253 04c2 B017     		.uleb128 .LEHB217-.LFB1092
 4254 04c4 05       		.uleb128 .LEHE217-.LEHB217
 4255 04c5 00       		.uleb128 0
 4256 04c6 00       		.uleb128 0
 4257 04c7 BF17     		.uleb128 .LEHB218-.LFB1092
 4258 04c9 38       		.uleb128 .LEHE218-.LEHB218
 4259 04ca 8118     		.uleb128 .L313-.LFB1092
 4260 04cc 00       		.uleb128 0
 4261 04cd F717     		.uleb128 .LEHB219-.LFB1092
 4262 04cf 05       		.uleb128 .LEHE219-.LEHB219
 4263 04d0 00       		.uleb128 0
 4264 04d1 00       		.uleb128 0
 4265 04d2 8F18     		.uleb128 .LEHB220-.LFB1092
 4266 04d4 05       		.uleb128 .LEHE220-.LEHB220
 4267 04d5 00       		.uleb128 0
 4268 04d6 00       		.uleb128 0
 4269 04d7 9E18     		.uleb128 .LEHB221-.LFB1092
 4270 04d9 38       		.uleb128 .LEHE221-.LEHB221
 4271 04da E018     		.uleb128 .L316-.LFB1092
 4272 04dc 00       		.uleb128 0
 4273 04dd D618     		.uleb128 .LEHB222-.LFB1092
 4274 04df 05       		.uleb128 .LEHE222-.LEHB222
 4275 04e0 00       		.uleb128 0
 4276 04e1 00       		.uleb128 0
 4277 04e2 EE18     		.uleb128 .LEHB223-.LFB1092
 4278 04e4 05       		.uleb128 .LEHE223-.LEHB223
 4279 04e5 00       		.uleb128 0
 4280 04e6 00       		.uleb128 0
 4281              	.LLSDACSE1092:
 4282 04e7 01       		.byte	0x1
 4283 04e8 00       		.byte	0
 4284 04e9 00       		.byte	0
 4285 04ea 7D       		.byte	0x7d
 4286 04eb 00       		.align 4
 4287 04ec 00000000 		.long	0
 4288              	
 4289              	.LLSDATT1092:
 4290              		.text
 4292              		.section	.rodata
 4293              	.LC25:
 4294 0513 51756575 		.string	"Queue_testPutTake"
 4294      655F7465 
 4294      73745075 
 4294      7454616B 
 4294      6500
 4295              		.section	.text._ZN21TestQueue_testPutTakeC2Ev,"axG",@progbits,_ZN21TestQueue_testPutTakeC5Ev,comda
 4296              		.align 2
 4297              		.weak	_ZN21TestQueue_testPutTakeC2Ev
 4299              	_ZN21TestQueue_testPutTakeC2Ev:
 4300              	.LFB1094:
 165:testCore.cpp  **** 
 166:testCore.cpp  **** TEST(Queue_testPutTake) {
 4301              		.loc 3 166 0
 4302              		.cfi_startproc
 4303 0000 55       		pushq	%rbp
 4304              		.cfi_def_cfa_offset 16
 4305              		.cfi_offset 6, -16
 4306 0001 4889E5   		movq	%rsp, %rbp
 4307              		.cfi_def_cfa_register 6
 4308 0004 4883EC10 		subq	$16, %rsp
 4309 0008 48897DF8 		movq	%rdi, -8(%rbp)
 4310              	.LBB7:
 4311              		.loc 3 166 0
 4312 000c E8000000 		call	_ZN13UnitTestSuite12GetSuiteNameEv
 4312      00
 4313 0011 4889C2   		movq	%rax, %rdx
 4314 0014 488B45F8 		movq	-8(%rbp), %rax
 4315 0018 41B8A600 		movl	$166, %r8d
 4315      0000
 4316 001e B9000000 		movl	$.LC1, %ecx
 4316      00
 4317 0023 BE000000 		movl	$.LC25, %esi
 4317      00
 4318 0028 4889C7   		movq	%rax, %rdi
 4319 002b E8000000 		call	_ZN8UnitTest4TestC2EPKcS2_S2_i
 4319      00
 4320 0030 BA000000 		movl	$_ZTV21TestQueue_testPutTake+16, %edx
 4320      00
 4321 0035 488B45F8 		movq	-8(%rbp), %rax
 4322 0039 488910   		movq	%rdx, (%rax)
 4323              	.LBE7:
 4324 003c 90       		nop
 4325 003d C9       		leave
 4326              		.cfi_def_cfa 7, 8
 4327 003e C3       		ret
 4328              		.cfi_endproc
 4329              	.LFE1094:
 4331              		.weak	_ZN21TestQueue_testPutTakeC1Ev
 4332              		.set	_ZN21TestQueue_testPutTakeC1Ev,_ZN21TestQueue_testPutTakeC2Ev
 4333              		.globl	testQueue_testPutTakeInstance
 4334              		.bss
 4335 00b9 00000000 		.align 32
 4335      000000
 4338              	testQueue_testPutTakeInstance:
 4339 00c0 00000000 		.zero	56
 4339      00000000 
 4339      00000000 
 4339      00000000 
 4339      00000000 
 4340              		.globl	adderQueue_testPutTake
 4343              	adderQueue_testPutTake:
 4344 00f8 00       		.zero	1
 4345              		.section	.rodata
 4346 0525 000000   		.align 8
 4347              	.LC26:
 4348 0528 556E6861 		.string	"Unhandled exception in CHECK_EQUAL(5UL, *item)"
 4348      6E646C65 
 4348      64206578 
 4348      63657074 
 4348      696F6E20 
 4349 0557 00       		.align 8
 4350              	.LC27:
 4351 0558 556E6861 		.string	"Unhandled exception in CHECK_EQUAL(6UL, *item)"
 4351      6E646C65 
 4351      64206578 
 4351      63657074 
 4351      696F6E20 
 4352 0587 00       		.align 8
 4353              	.LC28:
 4354 0588 556E6861 		.string	"Unhandled exception in CHECK_EQUAL(7UL, *item)"
 4354      6E646C65 
 4354      64206578 
 4354      63657074 
 4354      696F6E20 
 4355 05b7 00       		.align 8
 4356              	.LC29:
 4357 05b8 556E6861 		.string	"Unhandled exception in CHECK_EQUAL(8UL, *item)"
 4357      6E646C65 
 4357      64206578 
 4357      63657074 
 4357      696F6E20 
 4358              		.text
 4359              		.align 2
 4360              		.globl	_ZNK21TestQueue_testPutTake7RunImplEv
 4362              	_ZNK21TestQueue_testPutTake7RunImplEv:
 4363              	.LFB1096:
 4364              		.loc 3 166 0
 4365              		.cfi_startproc
 4366              		.cfi_personality 0x3,__gxx_personality_v0
 4367              		.cfi_lsda 0x3,.LLSDA1096
 4368 1eba 55       		pushq	%rbp
 4369              		.cfi_def_cfa_offset 16
 4370              		.cfi_offset 6, -16
 4371 1ebb 4889E5   		movq	%rsp, %rbp
 4372              		.cfi_def_cfa_register 6
 4373 1ebe 53       		pushq	%rbx
 4374 1ebf 4881EC98 		subq	$152, %rsp
 4374      000000
 4375              		.cfi_offset 3, -24
 4376 1ec6 4889BD68 		movq	%rdi, -152(%rbp)
 4376      FFFFFF
 4377              		.loc 3 166 0
 4378 1ecd 64488B04 		movq	%fs:40, %rax
 4378      25280000 
 4378      00
 4379 1ed6 488945E8 		movq	%rax, -24(%rbp)
 4380 1eda 31C0     		xorl	%eax, %eax
 167:testCore.cpp  **** 	struct UnboundedQueue queue;
 168:testCore.cpp  **** 	uint32 *item;
 169:testCore.cpp  **** 	m_count = 1;
 4381              		.loc 3 169 0
 4382 1edc C7050000 		movl	$1, _ZL7m_count(%rip)
 4382      00000100 
 4382      0000
 170:testCore.cpp  **** 
 171:testCore.cpp  **** 	// Create queue
 172:testCore.cpp  **** 	USBStatus status = queueInit(&queue, 4, (CreateFunc)createInt, (DestroyFunc)destroyInt);
 4383              		.loc 3 172 0
 4384 1ee6 488D45B0 		leaq	-80(%rbp), %rax
 4385 1eea B9000000 		movl	$destroyInt, %ecx
 4385      00
 4386 1eef BA000000 		movl	$createInt, %edx
 4386      00
 4387 1ef4 BE040000 		movl	$4, %esi
 4387      00
 4388 1ef9 4889C7   		movq	%rax, %rdi
 4389              	.LEHB224:
 4390 1efc E8000000 		call	queueInit
 4390      00
 4391              	.LEHE224:
 4392 1f01 898578FF 		movl	%eax, -136(%rbp)
 4392      FFFF
 4393              	.LEHB225:
 173:testCore.cpp  **** 	CHECK_EQUAL(USB_SUCCESS, status);
 4394              		.loc 3 173 0
 4395 1f07 E8000000 		call	_ZN8UnitTest11CurrentTest7DetailsEv
 4395      00
 4396 1f0c 488B08   		movq	(%rax), %rcx
 4397 1f0f 488D4590 		leaq	-112(%rbp), %rax
 4398 1f13 BAAD0000 		movl	$173, %edx
 4398      00
 4399 1f18 4889CE   		movq	%rcx, %rsi
 4400 1f1b 4889C7   		movq	%rax, %rdi
 4401 1f1e E8000000 		call	_ZN8UnitTest11TestDetailsC1ERKS0_i
 4401      00
 4402              	.LEHE225:
 4403              		.loc 3 173 0 is_stmt 0 discriminator 2
 4404 1f23 C7458800 		movl	$0, -120(%rbp)
 4404      000000
 4405              	.LEHB226:
 4406 1f2a E8000000 		call	_ZN8UnitTest11CurrentTest7ResultsEv
 4406      00
 4407 1f2f 488B00   		movq	(%rax), %rax
 4408 1f32 488D4D90 		leaq	-112(%rbp), %rcx
 4409 1f36 488D9578 		leaq	-136(%rbp), %rdx
 4409      FFFFFF
 4410 1f3d 488D7588 		leaq	-120(%rbp), %rsi
 4411 1f41 4889C7   		movq	%rax, %rdi
 4412 1f44 E8000000 		call	_ZN8UnitTest10CheckEqualI9USBStatusS1_EEvRNS_11TestResultsERKT_RKT0_RKNS_11TestDetailsE
 4412      00
 4413              	.LEHE226:
 4414              	.L322:
 174:testCore.cpp  **** 
 175:testCore.cpp  **** 	// Put four items into the queue
 176:testCore.cpp  **** 	status = queuePut(&queue, (Item*)&item);
 4415              		.loc 3 176 0 is_stmt 1
 4416 1f49 488D5580 		leaq	-128(%rbp), %rdx
 4417 1f4d 488D45B0 		leaq	-80(%rbp), %rax
 4418 1f51 4889D6   		movq	%rdx, %rsi
 4419 1f54 4889C7   		movq	%rax, %rdi
 4420              	.LEHB227:
 4421 1f57 E8000000 		call	queuePut
 4421      00
 4422              	.LEHE227:
 4423 1f5c 898578FF 		movl	%eax, -136(%rbp)
 4423      FFFF
 4424              	.LEHB228:
 177:testCore.cpp  **** 	CHECK_EQUAL(USB_SUCCESS, status);
 4425              		.loc 3 177 0
 4426 1f62 E8000000 		call	_ZN8UnitTest11CurrentTest7DetailsEv
 4426      00
 4427 1f67 488B08   		movq	(%rax), %rcx
 4428 1f6a 488D4590 		leaq	-112(%rbp), %rax
 4429 1f6e BAB10000 		movl	$177, %edx
 4429      00
 4430 1f73 4889CE   		movq	%rcx, %rsi
 4431 1f76 4889C7   		movq	%rax, %rdi
 4432 1f79 E8000000 		call	_ZN8UnitTest11TestDetailsC1ERKS0_i
 4432      00
 4433              	.LEHE228:
 4434              		.loc 3 177 0 is_stmt 0 discriminator 2
 4435 1f7e C7458800 		movl	$0, -120(%rbp)
 4435      000000
 4436              	.LEHB229:
 4437 1f85 E8000000 		call	_ZN8UnitTest11CurrentTest7ResultsEv
 4437      00
 4438 1f8a 488B00   		movq	(%rax), %rax
 4439 1f8d 488D4D90 		leaq	-112(%rbp), %rcx
 4440 1f91 488D9578 		leaq	-136(%rbp), %rdx
 4440      FFFFFF
 4441 1f98 488D7588 		leaq	-120(%rbp), %rsi
 4442 1f9c 4889C7   		movq	%rax, %rdi
 4443 1f9f E8000000 		call	_ZN8UnitTest10CheckEqualI9USBStatusS1_EEvRNS_11TestResultsERKT_RKT0_RKNS_11TestDetailsE
 4443      00
 4444              	.LEHE229:
 4445              	.L326:
 4446              	.LEHB230:
 178:testCore.cpp  **** 	CHECK_EQUAL(1UL, *item);
 4447              		.loc 3 178 0 is_stmt 1
 4448 1fa4 E8000000 		call	_ZN8UnitTest11CurrentTest7DetailsEv
 4448      00
 4449 1fa9 488B08   		movq	(%rax), %rcx
 4450 1fac 488D4590 		leaq	-112(%rbp), %rax
 4451 1fb0 BAB20000 		movl	$178, %edx
 4451      00
 4452 1fb5 4889CE   		movq	%rcx, %rsi
 4453 1fb8 4889C7   		movq	%rax, %rdi
 4454 1fbb E8000000 		call	_ZN8UnitTest11TestDetailsC1ERKS0_i
 4454      00
 4455              	.LEHE230:
 4456              		.loc 3 178 0 is_stmt 0 discriminator 2
 4457 1fc0 488B5D80 		movq	-128(%rbp), %rbx
 4458 1fc4 48C74588 		movq	$1, -120(%rbp)
 4458      01000000 
 4459              	.LEHB231:
 4460 1fcc E8000000 		call	_ZN8UnitTest11CurrentTest7ResultsEv
 4460      00
 4461 1fd1 488B00   		movq	(%rax), %rax
 4462 1fd4 488D5590 		leaq	-112(%rbp), %rdx
 4463 1fd8 488D7588 		leaq	-120(%rbp), %rsi
 4464 1fdc 4889D1   		movq	%rdx, %rcx
 4465 1fdf 4889DA   		movq	%rbx, %rdx
 4466 1fe2 4889C7   		movq	%rax, %rdi
 4467 1fe5 E8000000 		call	_ZN8UnitTest10CheckEqualImjEEvRNS_11TestResultsERKT_RKT0_RKNS_11TestDetailsE
 4467      00
 4468              	.LEHE231:
 4469              	.L330:
 179:testCore.cpp  **** 	*item = 5;
 4470              		.loc 3 179 0 is_stmt 1
 4471 1fea 488B4580 		movq	-128(%rbp), %rax
 4472 1fee C7000500 		movl	$5, (%rax)
 4472      0000
 180:testCore.cpp  **** 	queueCommitPut(&queue);
 4473              		.loc 3 180 0
 4474 1ff4 488D45B0 		leaq	-80(%rbp), %rax
 4475 1ff8 4889C7   		movq	%rax, %rdi
 4476              	.LEHB232:
 4477 1ffb E8000000 		call	queueCommitPut
 4477      00
 181:testCore.cpp  **** 	status = queuePut(&queue, (Item*)&item);
 4478              		.loc 3 181 0
 4479 2000 488D5580 		leaq	-128(%rbp), %rdx
 4480 2004 488D45B0 		leaq	-80(%rbp), %rax
 4481 2008 4889D6   		movq	%rdx, %rsi
 4482 200b 4889C7   		movq	%rax, %rdi
 4483 200e E8000000 		call	queuePut
 4483      00
 4484              	.LEHE232:
 4485 2013 898578FF 		movl	%eax, -136(%rbp)
 4485      FFFF
 4486              	.LEHB233:
 182:testCore.cpp  **** 	CHECK_EQUAL(USB_SUCCESS, status);
 4487              		.loc 3 182 0
 4488 2019 E8000000 		call	_ZN8UnitTest11CurrentTest7DetailsEv
 4488      00
 4489 201e 488B08   		movq	(%rax), %rcx
 4490 2021 488D4590 		leaq	-112(%rbp), %rax
 4491 2025 BAB60000 		movl	$182, %edx
 4491      00
 4492 202a 4889CE   		movq	%rcx, %rsi
 4493 202d 4889C7   		movq	%rax, %rdi
 4494 2030 E8000000 		call	_ZN8UnitTest11TestDetailsC1ERKS0_i
 4494      00
 4495              	.LEHE233:
 4496              		.loc 3 182 0 is_stmt 0 discriminator 2
 4497 2035 C7458800 		movl	$0, -120(%rbp)
 4497      000000
 4498              	.LEHB234:
 4499 203c E8000000 		call	_ZN8UnitTest11CurrentTest7ResultsEv
 4499      00
 4500 2041 488B00   		movq	(%rax), %rax
 4501 2044 488D4D90 		leaq	-112(%rbp), %rcx
 4502 2048 488D9578 		leaq	-136(%rbp), %rdx
 4502      FFFFFF
 4503 204f 488D7588 		leaq	-120(%rbp), %rsi
 4504 2053 4889C7   		movq	%rax, %rdi
 4505 2056 E8000000 		call	_ZN8UnitTest10CheckEqualI9USBStatusS1_EEvRNS_11TestResultsERKT_RKT0_RKNS_11TestDetailsE
 4505      00
 4506              	.LEHE234:
 4507              	.L334:
 4508              	.LEHB235:
 183:testCore.cpp  **** 	CHECK_EQUAL(2UL, *item);
 4509              		.loc 3 183 0 is_stmt 1
 4510 205b E8000000 		call	_ZN8UnitTest11CurrentTest7DetailsEv
 4510      00
 4511 2060 488B08   		movq	(%rax), %rcx
 4512 2063 488D4590 		leaq	-112(%rbp), %rax
 4513 2067 BAB70000 		movl	$183, %edx
 4513      00
 4514 206c 4889CE   		movq	%rcx, %rsi
 4515 206f 4889C7   		movq	%rax, %rdi
 4516 2072 E8000000 		call	_ZN8UnitTest11TestDetailsC1ERKS0_i
 4516      00
 4517              	.LEHE235:
 4518              		.loc 3 183 0 is_stmt 0 discriminator 2
 4519 2077 488B5D80 		movq	-128(%rbp), %rbx
 4520 207b 48C74588 		movq	$2, -120(%rbp)
 4520      02000000 
 4521              	.LEHB236:
 4522 2083 E8000000 		call	_ZN8UnitTest11CurrentTest7ResultsEv
 4522      00
 4523 2088 488B00   		movq	(%rax), %rax
 4524 208b 488D5590 		leaq	-112(%rbp), %rdx
 4525 208f 488D7588 		leaq	-120(%rbp), %rsi
 4526 2093 4889D1   		movq	%rdx, %rcx
 4527 2096 4889DA   		movq	%rbx, %rdx
 4528 2099 4889C7   		movq	%rax, %rdi
 4529 209c E8000000 		call	_ZN8UnitTest10CheckEqualImjEEvRNS_11TestResultsERKT_RKT0_RKNS_11TestDetailsE
 4529      00
 4530              	.LEHE236:
 4531              	.L338:
 184:testCore.cpp  **** 	*item = 6;
 4532              		.loc 3 184 0 is_stmt 1
 4533 20a1 488B4580 		movq	-128(%rbp), %rax
 4534 20a5 C7000600 		movl	$6, (%rax)
 4534      0000
 185:testCore.cpp  **** 	queueCommitPut(&queue);
 4535              		.loc 3 185 0
 4536 20ab 488D45B0 		leaq	-80(%rbp), %rax
 4537 20af 4889C7   		movq	%rax, %rdi
 4538              	.LEHB237:
 4539 20b2 E8000000 		call	queueCommitPut
 4539      00
 186:testCore.cpp  **** 	status = queuePut(&queue, (Item*)&item);
 4540              		.loc 3 186 0
 4541 20b7 488D5580 		leaq	-128(%rbp), %rdx
 4542 20bb 488D45B0 		leaq	-80(%rbp), %rax
 4543 20bf 4889D6   		movq	%rdx, %rsi
 4544 20c2 4889C7   		movq	%rax, %rdi
 4545 20c5 E8000000 		call	queuePut
 4545      00
 4546              	.LEHE237:
 4547 20ca 898578FF 		movl	%eax, -136(%rbp)
 4547      FFFF
 4548              	.LEHB238:
 187:testCore.cpp  **** 	CHECK_EQUAL(USB_SUCCESS, status);
 4549              		.loc 3 187 0
 4550 20d0 E8000000 		call	_ZN8UnitTest11CurrentTest7DetailsEv
 4550      00
 4551 20d5 488B08   		movq	(%rax), %rcx
 4552 20d8 488D4590 		leaq	-112(%rbp), %rax
 4553 20dc BABB0000 		movl	$187, %edx
 4553      00
 4554 20e1 4889CE   		movq	%rcx, %rsi
 4555 20e4 4889C7   		movq	%rax, %rdi
 4556 20e7 E8000000 		call	_ZN8UnitTest11TestDetailsC1ERKS0_i
 4556      00
 4557              	.LEHE238:
 4558              		.loc 3 187 0 is_stmt 0 discriminator 2
 4559 20ec C7458800 		movl	$0, -120(%rbp)
 4559      000000
 4560              	.LEHB239:
 4561 20f3 E8000000 		call	_ZN8UnitTest11CurrentTest7ResultsEv
 4561      00
 4562 20f8 488B00   		movq	(%rax), %rax
 4563 20fb 488D4D90 		leaq	-112(%rbp), %rcx
 4564 20ff 488D9578 		leaq	-136(%rbp), %rdx
 4564      FFFFFF
 4565 2106 488D7588 		leaq	-120(%rbp), %rsi
 4566 210a 4889C7   		movq	%rax, %rdi
 4567 210d E8000000 		call	_ZN8UnitTest10CheckEqualI9USBStatusS1_EEvRNS_11TestResultsERKT_RKT0_RKNS_11TestDetailsE
 4567      00
 4568              	.LEHE239:
 4569              	.L342:
 4570              	.LEHB240:
 188:testCore.cpp  **** 	CHECK_EQUAL(3UL, *item);
 4571              		.loc 3 188 0 is_stmt 1
 4572 2112 E8000000 		call	_ZN8UnitTest11CurrentTest7DetailsEv
 4572      00
 4573 2117 488B08   		movq	(%rax), %rcx
 4574 211a 488D4590 		leaq	-112(%rbp), %rax
 4575 211e BABC0000 		movl	$188, %edx
 4575      00
 4576 2123 4889CE   		movq	%rcx, %rsi
 4577 2126 4889C7   		movq	%rax, %rdi
 4578 2129 E8000000 		call	_ZN8UnitTest11TestDetailsC1ERKS0_i
 4578      00
 4579              	.LEHE240:
 4580              		.loc 3 188 0 is_stmt 0 discriminator 2
 4581 212e 488B5D80 		movq	-128(%rbp), %rbx
 4582 2132 48C74588 		movq	$3, -120(%rbp)
 4582      03000000 
 4583              	.LEHB241:
 4584 213a E8000000 		call	_ZN8UnitTest11CurrentTest7ResultsEv
 4584      00
 4585 213f 488B00   		movq	(%rax), %rax
 4586 2142 488D5590 		leaq	-112(%rbp), %rdx
 4587 2146 488D7588 		leaq	-120(%rbp), %rsi
 4588 214a 4889D1   		movq	%rdx, %rcx
 4589 214d 4889DA   		movq	%rbx, %rdx
 4590 2150 4889C7   		movq	%rax, %rdi
 4591 2153 E8000000 		call	_ZN8UnitTest10CheckEqualImjEEvRNS_11TestResultsERKT_RKT0_RKNS_11TestDetailsE
 4591      00
 4592              	.LEHE241:
 4593              	.L346:
 189:testCore.cpp  **** 	*item = 7;
 4594              		.loc 3 189 0 is_stmt 1
 4595 2158 488B4580 		movq	-128(%rbp), %rax
 4596 215c C7000700 		movl	$7, (%rax)
 4596      0000
 190:testCore.cpp  **** 	queueCommitPut(&queue);
 4597              		.loc 3 190 0
 4598 2162 488D45B0 		leaq	-80(%rbp), %rax
 4599 2166 4889C7   		movq	%rax, %rdi
 4600              	.LEHB242:
 4601 2169 E8000000 		call	queueCommitPut
 4601      00
 191:testCore.cpp  **** 	status = queuePut(&queue, (Item*)&item);
 4602              		.loc 3 191 0
 4603 216e 488D5580 		leaq	-128(%rbp), %rdx
 4604 2172 488D45B0 		leaq	-80(%rbp), %rax
 4605 2176 4889D6   		movq	%rdx, %rsi
 4606 2179 4889C7   		movq	%rax, %rdi
 4607 217c E8000000 		call	queuePut
 4607      00
 4608              	.LEHE242:
 4609 2181 898578FF 		movl	%eax, -136(%rbp)
 4609      FFFF
 4610              	.LEHB243:
 192:testCore.cpp  **** 	CHECK_EQUAL(USB_SUCCESS, status);
 4611              		.loc 3 192 0
 4612 2187 E8000000 		call	_ZN8UnitTest11CurrentTest7DetailsEv
 4612      00
 4613 218c 488B08   		movq	(%rax), %rcx
 4614 218f 488D4590 		leaq	-112(%rbp), %rax
 4615 2193 BAC00000 		movl	$192, %edx
 4615      00
 4616 2198 4889CE   		movq	%rcx, %rsi
 4617 219b 4889C7   		movq	%rax, %rdi
 4618 219e E8000000 		call	_ZN8UnitTest11TestDetailsC1ERKS0_i
 4618      00
 4619              	.LEHE243:
 4620              		.loc 3 192 0 is_stmt 0 discriminator 2
 4621 21a3 C7458800 		movl	$0, -120(%rbp)
 4621      000000
 4622              	.LEHB244:
 4623 21aa E8000000 		call	_ZN8UnitTest11CurrentTest7ResultsEv
 4623      00
 4624 21af 488B00   		movq	(%rax), %rax
 4625 21b2 488D4D90 		leaq	-112(%rbp), %rcx
 4626 21b6 488D9578 		leaq	-136(%rbp), %rdx
 4626      FFFFFF
 4627 21bd 488D7588 		leaq	-120(%rbp), %rsi
 4628 21c1 4889C7   		movq	%rax, %rdi
 4629 21c4 E8000000 		call	_ZN8UnitTest10CheckEqualI9USBStatusS1_EEvRNS_11TestResultsERKT_RKT0_RKNS_11TestDetailsE
 4629      00
 4630              	.LEHE244:
 4631              	.L350:
 4632              	.LEHB245:
 193:testCore.cpp  **** 	CHECK_EQUAL(4UL, *item);
 4633              		.loc 3 193 0 is_stmt 1
 4634 21c9 E8000000 		call	_ZN8UnitTest11CurrentTest7DetailsEv
 4634      00
 4635 21ce 488B08   		movq	(%rax), %rcx
 4636 21d1 488D4590 		leaq	-112(%rbp), %rax
 4637 21d5 BAC10000 		movl	$193, %edx
 4637      00
 4638 21da 4889CE   		movq	%rcx, %rsi
 4639 21dd 4889C7   		movq	%rax, %rdi
 4640 21e0 E8000000 		call	_ZN8UnitTest11TestDetailsC1ERKS0_i
 4640      00
 4641              	.LEHE245:
 4642              		.loc 3 193 0 is_stmt 0 discriminator 2
 4643 21e5 488B5D80 		movq	-128(%rbp), %rbx
 4644 21e9 48C74588 		movq	$4, -120(%rbp)
 4644      04000000 
 4645              	.LEHB246:
 4646 21f1 E8000000 		call	_ZN8UnitTest11CurrentTest7ResultsEv
 4646      00
 4647 21f6 488B00   		movq	(%rax), %rax
 4648 21f9 488D5590 		leaq	-112(%rbp), %rdx
 4649 21fd 488D7588 		leaq	-120(%rbp), %rsi
 4650 2201 4889D1   		movq	%rdx, %rcx
 4651 2204 4889DA   		movq	%rbx, %rdx
 4652 2207 4889C7   		movq	%rax, %rdi
 4653 220a E8000000 		call	_ZN8UnitTest10CheckEqualImjEEvRNS_11TestResultsERKT_RKT0_RKNS_11TestDetailsE
 4653      00
 4654              	.LEHE246:
 4655              	.L354:
 194:testCore.cpp  **** 	*item = 8;
 4656              		.loc 3 194 0 is_stmt 1
 4657 220f 488B4580 		movq	-128(%rbp), %rax
 4658 2213 C7000800 		movl	$8, (%rax)
 4658      0000
 195:testCore.cpp  **** 	queueCommitPut(&queue);
 4659              		.loc 3 195 0
 4660 2219 488D45B0 		leaq	-80(%rbp), %rax
 4661 221d 4889C7   		movq	%rax, %rdi
 4662              	.LEHB247:
 4663 2220 E8000000 		call	queueCommitPut
 4663      00
 196:testCore.cpp  **** 
 197:testCore.cpp  **** 	// Take four items out of the queue
 198:testCore.cpp  **** 	status = queueTake(&queue, (Item*)&item);
 4664              		.loc 3 198 0
 4665 2225 488D5580 		leaq	-128(%rbp), %rdx
 4666 2229 488D45B0 		leaq	-80(%rbp), %rax
 4667 222d 4889D6   		movq	%rdx, %rsi
 4668 2230 4889C7   		movq	%rax, %rdi
 4669 2233 E8000000 		call	queueTake
 4669      00
 4670              	.LEHE247:
 4671 2238 898578FF 		movl	%eax, -136(%rbp)
 4671      FFFF
 4672              	.LEHB248:
 199:testCore.cpp  **** 	CHECK_EQUAL(USB_SUCCESS, status);
 4673              		.loc 3 199 0
 4674 223e E8000000 		call	_ZN8UnitTest11CurrentTest7DetailsEv
 4674      00
 4675 2243 488B08   		movq	(%rax), %rcx
 4676 2246 488D4590 		leaq	-112(%rbp), %rax
 4677 224a BAC70000 		movl	$199, %edx
 4677      00
 4678 224f 4889CE   		movq	%rcx, %rsi
 4679 2252 4889C7   		movq	%rax, %rdi
 4680 2255 E8000000 		call	_ZN8UnitTest11TestDetailsC1ERKS0_i
 4680      00
 4681              	.LEHE248:
 4682              		.loc 3 199 0 is_stmt 0 discriminator 2
 4683 225a C7458800 		movl	$0, -120(%rbp)
 4683      000000
 4684              	.LEHB249:
 4685 2261 E8000000 		call	_ZN8UnitTest11CurrentTest7ResultsEv
 4685      00
 4686 2266 488B00   		movq	(%rax), %rax
 4687 2269 488D4D90 		leaq	-112(%rbp), %rcx
 4688 226d 488D9578 		leaq	-136(%rbp), %rdx
 4688      FFFFFF
 4689 2274 488D7588 		leaq	-120(%rbp), %rsi
 4690 2278 4889C7   		movq	%rax, %rdi
 4691 227b E8000000 		call	_ZN8UnitTest10CheckEqualI9USBStatusS1_EEvRNS_11TestResultsERKT_RKT0_RKNS_11TestDetailsE
 4691      00
 4692              	.LEHE249:
 4693              	.L358:
 4694              	.LEHB250:
 200:testCore.cpp  **** 	CHECK_EQUAL(5UL, *item);
 4695              		.loc 3 200 0 is_stmt 1
 4696 2280 E8000000 		call	_ZN8UnitTest11CurrentTest7DetailsEv
 4696      00
 4697 2285 488B08   		movq	(%rax), %rcx
 4698 2288 488D4590 		leaq	-112(%rbp), %rax
 4699 228c BAC80000 		movl	$200, %edx
 4699      00
 4700 2291 4889CE   		movq	%rcx, %rsi
 4701 2294 4889C7   		movq	%rax, %rdi
 4702 2297 E8000000 		call	_ZN8UnitTest11TestDetailsC1ERKS0_i
 4702      00
 4703              	.LEHE250:
 4704              		.loc 3 200 0 is_stmt 0 discriminator 2
 4705 229c 488B5D80 		movq	-128(%rbp), %rbx
 4706 22a0 48C74588 		movq	$5, -120(%rbp)
 4706      05000000 
 4707              	.LEHB251:
 4708 22a8 E8000000 		call	_ZN8UnitTest11CurrentTest7ResultsEv
 4708      00
 4709 22ad 488B00   		movq	(%rax), %rax
 4710 22b0 488D5590 		leaq	-112(%rbp), %rdx
 4711 22b4 488D7588 		leaq	-120(%rbp), %rsi
 4712 22b8 4889D1   		movq	%rdx, %rcx
 4713 22bb 4889DA   		movq	%rbx, %rdx
 4714 22be 4889C7   		movq	%rax, %rdi
 4715 22c1 E8000000 		call	_ZN8UnitTest10CheckEqualImjEEvRNS_11TestResultsERKT_RKT0_RKNS_11TestDetailsE
 4715      00
 4716              	.LEHE251:
 4717              	.L362:
 201:testCore.cpp  **** 	queueCommitTake(&queue);
 4718              		.loc 3 201 0 is_stmt 1
 4719 22c6 488D45B0 		leaq	-80(%rbp), %rax
 4720 22ca 4889C7   		movq	%rax, %rdi
 4721              	.LEHB252:
 4722 22cd E8000000 		call	queueCommitTake
 4722      00
 202:testCore.cpp  **** 	status = queueTake(&queue, (Item*)&item);
 4723              		.loc 3 202 0
 4724 22d2 488D5580 		leaq	-128(%rbp), %rdx
 4725 22d6 488D45B0 		leaq	-80(%rbp), %rax
 4726 22da 4889D6   		movq	%rdx, %rsi
 4727 22dd 4889C7   		movq	%rax, %rdi
 4728 22e0 E8000000 		call	queueTake
 4728      00
 4729              	.LEHE252:
 4730 22e5 898578FF 		movl	%eax, -136(%rbp)
 4730      FFFF
 4731              	.LEHB253:
 203:testCore.cpp  **** 	CHECK_EQUAL(USB_SUCCESS, status);
 4732              		.loc 3 203 0
 4733 22eb E8000000 		call	_ZN8UnitTest11CurrentTest7DetailsEv
 4733      00
 4734 22f0 488B08   		movq	(%rax), %rcx
 4735 22f3 488D4590 		leaq	-112(%rbp), %rax
 4736 22f7 BACB0000 		movl	$203, %edx
 4736      00
 4737 22fc 4889CE   		movq	%rcx, %rsi
 4738 22ff 4889C7   		movq	%rax, %rdi
 4739 2302 E8000000 		call	_ZN8UnitTest11TestDetailsC1ERKS0_i
 4739      00
 4740              	.LEHE253:
 4741              		.loc 3 203 0 is_stmt 0 discriminator 2
 4742 2307 C7458800 		movl	$0, -120(%rbp)
 4742      000000
 4743              	.LEHB254:
 4744 230e E8000000 		call	_ZN8UnitTest11CurrentTest7ResultsEv
 4744      00
 4745 2313 488B00   		movq	(%rax), %rax
 4746 2316 488D4D90 		leaq	-112(%rbp), %rcx
 4747 231a 488D9578 		leaq	-136(%rbp), %rdx
 4747      FFFFFF
 4748 2321 488D7588 		leaq	-120(%rbp), %rsi
 4749 2325 4889C7   		movq	%rax, %rdi
 4750 2328 E8000000 		call	_ZN8UnitTest10CheckEqualI9USBStatusS1_EEvRNS_11TestResultsERKT_RKT0_RKNS_11TestDetailsE
 4750      00
 4751              	.LEHE254:
 4752              	.L366:
 4753              	.LEHB255:
 204:testCore.cpp  **** 	CHECK_EQUAL(6UL, *item);
 4754              		.loc 3 204 0 is_stmt 1
 4755 232d E8000000 		call	_ZN8UnitTest11CurrentTest7DetailsEv
 4755      00
 4756 2332 488B08   		movq	(%rax), %rcx
 4757 2335 488D4590 		leaq	-112(%rbp), %rax
 4758 2339 BACC0000 		movl	$204, %edx
 4758      00
 4759 233e 4889CE   		movq	%rcx, %rsi
 4760 2341 4889C7   		movq	%rax, %rdi
 4761 2344 E8000000 		call	_ZN8UnitTest11TestDetailsC1ERKS0_i
 4761      00
 4762              	.LEHE255:
 4763              		.loc 3 204 0 is_stmt 0 discriminator 2
 4764 2349 488B5D80 		movq	-128(%rbp), %rbx
 4765 234d 48C74588 		movq	$6, -120(%rbp)
 4765      06000000 
 4766              	.LEHB256:
 4767 2355 E8000000 		call	_ZN8UnitTest11CurrentTest7ResultsEv
 4767      00
 4768 235a 488B00   		movq	(%rax), %rax
 4769 235d 488D5590 		leaq	-112(%rbp), %rdx
 4770 2361 488D7588 		leaq	-120(%rbp), %rsi
 4771 2365 4889D1   		movq	%rdx, %rcx
 4772 2368 4889DA   		movq	%rbx, %rdx
 4773 236b 4889C7   		movq	%rax, %rdi
 4774 236e E8000000 		call	_ZN8UnitTest10CheckEqualImjEEvRNS_11TestResultsERKT_RKT0_RKNS_11TestDetailsE
 4774      00
 4775              	.LEHE256:
 4776              	.L370:
 205:testCore.cpp  **** 	queueCommitTake(&queue);
 4777              		.loc 3 205 0 is_stmt 1
 4778 2373 488D45B0 		leaq	-80(%rbp), %rax
 4779 2377 4889C7   		movq	%rax, %rdi
 4780              	.LEHB257:
 4781 237a E8000000 		call	queueCommitTake
 4781      00
 206:testCore.cpp  **** 	status = queueTake(&queue, (Item*)&item);
 4782              		.loc 3 206 0
 4783 237f 488D5580 		leaq	-128(%rbp), %rdx
 4784 2383 488D45B0 		leaq	-80(%rbp), %rax
 4785 2387 4889D6   		movq	%rdx, %rsi
 4786 238a 4889C7   		movq	%rax, %rdi
 4787 238d E8000000 		call	queueTake
 4787      00
 4788              	.LEHE257:
 4789 2392 898578FF 		movl	%eax, -136(%rbp)
 4789      FFFF
 4790              	.LEHB258:
 207:testCore.cpp  **** 	CHECK_EQUAL(USB_SUCCESS, status);
 4791              		.loc 3 207 0
 4792 2398 E8000000 		call	_ZN8UnitTest11CurrentTest7DetailsEv
 4792      00
 4793 239d 488B08   		movq	(%rax), %rcx
 4794 23a0 488D4590 		leaq	-112(%rbp), %rax
 4795 23a4 BACF0000 		movl	$207, %edx
 4795      00
 4796 23a9 4889CE   		movq	%rcx, %rsi
 4797 23ac 4889C7   		movq	%rax, %rdi
 4798 23af E8000000 		call	_ZN8UnitTest11TestDetailsC1ERKS0_i
 4798      00
 4799              	.LEHE258:
 4800              		.loc 3 207 0 is_stmt 0 discriminator 2
 4801 23b4 C7458800 		movl	$0, -120(%rbp)
 4801      000000
 4802              	.LEHB259:
 4803 23bb E8000000 		call	_ZN8UnitTest11CurrentTest7ResultsEv
 4803      00
 4804 23c0 488B00   		movq	(%rax), %rax
 4805 23c3 488D4D90 		leaq	-112(%rbp), %rcx
 4806 23c7 488D9578 		leaq	-136(%rbp), %rdx
 4806      FFFFFF
 4807 23ce 488D7588 		leaq	-120(%rbp), %rsi
 4808 23d2 4889C7   		movq	%rax, %rdi
 4809 23d5 E8000000 		call	_ZN8UnitTest10CheckEqualI9USBStatusS1_EEvRNS_11TestResultsERKT_RKT0_RKNS_11TestDetailsE
 4809      00
 4810              	.LEHE259:
 4811              	.L374:
 4812              	.LEHB260:
 208:testCore.cpp  **** 	CHECK_EQUAL(7UL, *item);
 4813              		.loc 3 208 0 is_stmt 1
 4814 23da E8000000 		call	_ZN8UnitTest11CurrentTest7DetailsEv
 4814      00
 4815 23df 488B08   		movq	(%rax), %rcx
 4816 23e2 488D4590 		leaq	-112(%rbp), %rax
 4817 23e6 BAD00000 		movl	$208, %edx
 4817      00
 4818 23eb 4889CE   		movq	%rcx, %rsi
 4819 23ee 4889C7   		movq	%rax, %rdi
 4820 23f1 E8000000 		call	_ZN8UnitTest11TestDetailsC1ERKS0_i
 4820      00
 4821              	.LEHE260:
 4822              		.loc 3 208 0 is_stmt 0 discriminator 2
 4823 23f6 488B5D80 		movq	-128(%rbp), %rbx
 4824 23fa 48C74588 		movq	$7, -120(%rbp)
 4824      07000000 
 4825              	.LEHB261:
 4826 2402 E8000000 		call	_ZN8UnitTest11CurrentTest7ResultsEv
 4826      00
 4827 2407 488B00   		movq	(%rax), %rax
 4828 240a 488D5590 		leaq	-112(%rbp), %rdx
 4829 240e 488D7588 		leaq	-120(%rbp), %rsi
 4830 2412 4889D1   		movq	%rdx, %rcx
 4831 2415 4889DA   		movq	%rbx, %rdx
 4832 2418 4889C7   		movq	%rax, %rdi
 4833 241b E8000000 		call	_ZN8UnitTest10CheckEqualImjEEvRNS_11TestResultsERKT_RKT0_RKNS_11TestDetailsE
 4833      00
 4834              	.LEHE261:
 4835              	.L378:
 209:testCore.cpp  **** 	queueCommitTake(&queue);
 4836              		.loc 3 209 0 is_stmt 1
 4837 2420 488D45B0 		leaq	-80(%rbp), %rax
 4838 2424 4889C7   		movq	%rax, %rdi
 4839              	.LEHB262:
 4840 2427 E8000000 		call	queueCommitTake
 4840      00
 210:testCore.cpp  **** 	status = queueTake(&queue, (Item*)&item);
 4841              		.loc 3 210 0
 4842 242c 488D5580 		leaq	-128(%rbp), %rdx
 4843 2430 488D45B0 		leaq	-80(%rbp), %rax
 4844 2434 4889D6   		movq	%rdx, %rsi
 4845 2437 4889C7   		movq	%rax, %rdi
 4846 243a E8000000 		call	queueTake
 4846      00
 4847              	.LEHE262:
 4848 243f 898578FF 		movl	%eax, -136(%rbp)
 4848      FFFF
 4849              	.LEHB263:
 211:testCore.cpp  **** 	CHECK_EQUAL(USB_SUCCESS, status);
 4850              		.loc 3 211 0
 4851 2445 E8000000 		call	_ZN8UnitTest11CurrentTest7DetailsEv
 4851      00
 4852 244a 488B08   		movq	(%rax), %rcx
 4853 244d 488D4590 		leaq	-112(%rbp), %rax
 4854 2451 BAD30000 		movl	$211, %edx
 4854      00
 4855 2456 4889CE   		movq	%rcx, %rsi
 4856 2459 4889C7   		movq	%rax, %rdi
 4857 245c E8000000 		call	_ZN8UnitTest11TestDetailsC1ERKS0_i
 4857      00
 4858              	.LEHE263:
 4859              		.loc 3 211 0 is_stmt 0 discriminator 2
 4860 2461 C7458800 		movl	$0, -120(%rbp)
 4860      000000
 4861              	.LEHB264:
 4862 2468 E8000000 		call	_ZN8UnitTest11CurrentTest7ResultsEv
 4862      00
 4863 246d 488B00   		movq	(%rax), %rax
 4864 2470 488D4D90 		leaq	-112(%rbp), %rcx
 4865 2474 488D9578 		leaq	-136(%rbp), %rdx
 4865      FFFFFF
 4866 247b 488D7588 		leaq	-120(%rbp), %rsi
 4867 247f 4889C7   		movq	%rax, %rdi
 4868 2482 E8000000 		call	_ZN8UnitTest10CheckEqualI9USBStatusS1_EEvRNS_11TestResultsERKT_RKT0_RKNS_11TestDetailsE
 4868      00
 4869              	.LEHE264:
 4870              	.L382:
 4871              	.LEHB265:
 212:testCore.cpp  **** 	CHECK_EQUAL(8UL, *item);
 4872              		.loc 3 212 0 is_stmt 1
 4873 2487 E8000000 		call	_ZN8UnitTest11CurrentTest7DetailsEv
 4873      00
 4874 248c 488B08   		movq	(%rax), %rcx
 4875 248f 488D4590 		leaq	-112(%rbp), %rax
 4876 2493 BAD40000 		movl	$212, %edx
 4876      00
 4877 2498 4889CE   		movq	%rcx, %rsi
 4878 249b 4889C7   		movq	%rax, %rdi
 4879 249e E8000000 		call	_ZN8UnitTest11TestDetailsC1ERKS0_i
 4879      00
 4880              	.LEHE265:
 4881              		.loc 3 212 0 is_stmt 0 discriminator 2
 4882 24a3 488B5D80 		movq	-128(%rbp), %rbx
 4883 24a7 48C74588 		movq	$8, -120(%rbp)
 4883      08000000 
 4884              	.LEHB266:
 4885 24af E8000000 		call	_ZN8UnitTest11CurrentTest7ResultsEv
 4885      00
 4886 24b4 488B00   		movq	(%rax), %rax
 4887 24b7 488D5590 		leaq	-112(%rbp), %rdx
 4888 24bb 488D7588 		leaq	-120(%rbp), %rsi
 4889 24bf 4889D1   		movq	%rdx, %rcx
 4890 24c2 4889DA   		movq	%rbx, %rdx
 4891 24c5 4889C7   		movq	%rax, %rdi
 4892 24c8 E8000000 		call	_ZN8UnitTest10CheckEqualImjEEvRNS_11TestResultsERKT_RKT0_RKNS_11TestDetailsE
 4892      00
 4893              	.LEHE266:
 4894              	.L386:
 213:testCore.cpp  **** 	queueCommitTake(&queue);
 4895              		.loc 3 213 0 is_stmt 1
 4896 24cd 488D45B0 		leaq	-80(%rbp), %rax
 4897 24d1 4889C7   		movq	%rax, %rdi
 4898              	.LEHB267:
 4899 24d4 E8000000 		call	queueCommitTake
 4899      00
 4900              	.LEHE267:
 4901              	.LEHB268:
 214:testCore.cpp  **** 
 215:testCore.cpp  **** 	// Verify
 216:testCore.cpp  **** 	CHECK_EQUAL(4UL, queue.capacity);
 4902              		.loc 3 216 0
 4903 24d9 E8000000 		call	_ZN8UnitTest11CurrentTest7DetailsEv
 4903      00
 4904 24de 488B08   		movq	(%rax), %rcx
 4905 24e1 488D4590 		leaq	-112(%rbp), %rax
 4906 24e5 BAD80000 		movl	$216, %edx
 4906      00
 4907 24ea 4889CE   		movq	%rcx, %rsi
 4908 24ed 4889C7   		movq	%rax, %rdi
 4909 24f0 E8000000 		call	_ZN8UnitTest11TestDetailsC1ERKS0_i
 4909      00
 4910              	.LEHE268:
 4911              		.loc 3 216 0 is_stmt 0 discriminator 2
 4912 24f5 48C74588 		movq	$4, -120(%rbp)
 4912      04000000 
 4913              	.LEHB269:
 4914 24fd E8000000 		call	_ZN8UnitTest11CurrentTest7ResultsEv
 4914      00
 4915 2502 488B00   		movq	(%rax), %rax
 4916 2505 488D5590 		leaq	-112(%rbp), %rdx
 4917 2509 488D4DB0 		leaq	-80(%rbp), %rcx
 4918 250d 488D7908 		leaq	8(%rcx), %rdi
 4919 2511 488D7588 		leaq	-120(%rbp), %rsi
 4920 2515 4889D1   		movq	%rdx, %rcx
 4921 2518 4889FA   		movq	%rdi, %rdx
 4922 251b 4889C7   		movq	%rax, %rdi
 4923 251e E8000000 		call	_ZN8UnitTest10CheckEqualImmEEvRNS_11TestResultsERKT_RKT0_RKNS_11TestDetailsE
 4923      00
 4924              	.LEHE269:
 4925              	.L390:
 4926              	.LEHB270:
 217:testCore.cpp  **** 	CHECK_EQUAL(0UL, queue.putIndex);
 4927              		.loc 3 217 0 is_stmt 1
 4928 2523 E8000000 		call	_ZN8UnitTest11CurrentTest7DetailsEv
 4928      00
 4929 2528 488B08   		movq	(%rax), %rcx
 4930 252b 488D4590 		leaq	-112(%rbp), %rax
 4931 252f BAD90000 		movl	$217, %edx
 4931      00
 4932 2534 4889CE   		movq	%rcx, %rsi
 4933 2537 4889C7   		movq	%rax, %rdi
 4934 253a E8000000 		call	_ZN8UnitTest11TestDetailsC1ERKS0_i
 4934      00
 4935              	.LEHE270:
 4936              		.loc 3 217 0 is_stmt 0 discriminator 2
 4937 253f 48C74588 		movq	$0, -120(%rbp)
 4937      00000000 
 4938              	.LEHB271:
 4939 2547 E8000000 		call	_ZN8UnitTest11CurrentTest7ResultsEv
 4939      00
 4940 254c 488B00   		movq	(%rax), %rax
 4941 254f 488D5590 		leaq	-112(%rbp), %rdx
 4942 2553 488D4DB0 		leaq	-80(%rbp), %rcx
 4943 2557 488D7910 		leaq	16(%rcx), %rdi
 4944 255b 488D7588 		leaq	-120(%rbp), %rsi
 4945 255f 4889D1   		movq	%rdx, %rcx
 4946 2562 4889FA   		movq	%rdi, %rdx
 4947 2565 4889C7   		movq	%rax, %rdi
 4948 2568 E8000000 		call	_ZN8UnitTest10CheckEqualImmEEvRNS_11TestResultsERKT_RKT0_RKNS_11TestDetailsE
 4948      00
 4949              	.LEHE271:
 4950              	.L394:
 4951              	.LEHB272:
 218:testCore.cpp  **** 	CHECK_EQUAL(0UL, queue.takeIndex);
 4952              		.loc 3 218 0 is_stmt 1
 4953 256d E8000000 		call	_ZN8UnitTest11CurrentTest7DetailsEv
 4953      00
 4954 2572 488B08   		movq	(%rax), %rcx
 4955 2575 488D4590 		leaq	-112(%rbp), %rax
 4956 2579 BADA0000 		movl	$218, %edx
 4956      00
 4957 257e 4889CE   		movq	%rcx, %rsi
 4958 2581 4889C7   		movq	%rax, %rdi
 4959 2584 E8000000 		call	_ZN8UnitTest11TestDetailsC1ERKS0_i
 4959      00
 4960              	.LEHE272:
 4961              		.loc 3 218 0 is_stmt 0 discriminator 2
 4962 2589 48C74588 		movq	$0, -120(%rbp)
 4962      00000000 
 4963              	.LEHB273:
 4964 2591 E8000000 		call	_ZN8UnitTest11CurrentTest7ResultsEv
 4964      00
 4965 2596 488B00   		movq	(%rax), %rax
 4966 2599 488D5590 		leaq	-112(%rbp), %rdx
 4967 259d 488D4DB0 		leaq	-80(%rbp), %rcx
 4968 25a1 488D7918 		leaq	24(%rcx), %rdi
 4969 25a5 488D7588 		leaq	-120(%rbp), %rsi
 4970 25a9 4889D1   		movq	%rdx, %rcx
 4971 25ac 4889FA   		movq	%rdi, %rdx
 4972 25af 4889C7   		movq	%rax, %rdi
 4973 25b2 E8000000 		call	_ZN8UnitTest10CheckEqualImmEEvRNS_11TestResultsERKT_RKT0_RKNS_11TestDetailsE
 4973      00
 4974              	.LEHE273:
 4975              	.L398:
 4976              	.LEHB274:
 219:testCore.cpp  **** 	CHECK_EQUAL(0UL, queue.numItems);
 4977              		.loc 3 219 0 is_stmt 1
 4978 25b7 E8000000 		call	_ZN8UnitTest11CurrentTest7DetailsEv
 4978      00
 4979 25bc 488B08   		movq	(%rax), %rcx
 4980 25bf 488D4590 		leaq	-112(%rbp), %rax
 4981 25c3 BADB0000 		movl	$219, %edx
 4981      00
 4982 25c8 4889CE   		movq	%rcx, %rsi
 4983 25cb 4889C7   		movq	%rax, %rdi
 4984 25ce E8000000 		call	_ZN8UnitTest11TestDetailsC1ERKS0_i
 4984      00
 4985              	.LEHE274:
 4986              		.loc 3 219 0 is_stmt 0 discriminator 2
 4987 25d3 48C74588 		movq	$0, -120(%rbp)
 4987      00000000 
 4988              	.LEHB275:
 4989 25db E8000000 		call	_ZN8UnitTest11CurrentTest7ResultsEv
 4989      00
 4990 25e0 488B00   		movq	(%rax), %rax
 4991 25e3 488D5590 		leaq	-112(%rbp), %rdx
 4992 25e7 488D4DB0 		leaq	-80(%rbp), %rcx
 4993 25eb 488D7920 		leaq	32(%rcx), %rdi
 4994 25ef 488D7588 		leaq	-120(%rbp), %rsi
 4995 25f3 4889D1   		movq	%rdx, %rcx
 4996 25f6 4889FA   		movq	%rdi, %rdx
 4997 25f9 4889C7   		movq	%rax, %rdi
 4998 25fc E8000000 		call	_ZN8UnitTest10CheckEqualImmEEvRNS_11TestResultsERKT_RKT0_RKNS_11TestDetailsE
 4998      00
 4999              	.LEHE275:
 5000              	.L402:
 5001              	.LEHB276:
 220:testCore.cpp  **** 
 221:testCore.cpp  **** 	// Verify array
 222:testCore.cpp  **** 	CHECK_EQUAL(5UL, deref(queue.itemArray[0]));
 5002              		.loc 3 222 0 is_stmt 1
 5003 2601 E8000000 		call	_ZN8UnitTest11CurrentTest7DetailsEv
 5003      00
 5004 2606 488B08   		movq	(%rax), %rcx
 5005 2609 488D4590 		leaq	-112(%rbp), %rax
 5006 260d BADE0000 		movl	$222, %edx
 5006      00
 5007 2612 4889CE   		movq	%rcx, %rsi
 5008 2615 4889C7   		movq	%rax, %rdi
 5009 2618 E8000000 		call	_ZN8UnitTest11TestDetailsC1ERKS0_i
 5009      00
 5010              	.LEHE276:
 5011              		.loc 3 222 0 is_stmt 0 discriminator 2
 5012 261d 488B45B0 		movq	-80(%rbp), %rax
 5013 2621 488B00   		movq	(%rax), %rax
 5014 2624 4889C7   		movq	%rax, %rdi
 5015 2627 E85EDAFF 		call	_ZL5derefPKv
 5015      FF
 5016 262c 89857CFF 		movl	%eax, -132(%rbp)
 5016      FFFF
 5017 2632 48C74588 		movq	$5, -120(%rbp)
 5017      05000000 
 5018              	.LEHB277:
 5019 263a E8000000 		call	_ZN8UnitTest11CurrentTest7ResultsEv
 5019      00
 5020 263f 488B00   		movq	(%rax), %rax
 5021 2642 488D4D90 		leaq	-112(%rbp), %rcx
 5022 2646 488D957C 		leaq	-132(%rbp), %rdx
 5022      FFFFFF
 5023 264d 488D7588 		leaq	-120(%rbp), %rsi
 5024 2651 4889C7   		movq	%rax, %rdi
 5025 2654 E8000000 		call	_ZN8UnitTest10CheckEqualImjEEvRNS_11TestResultsERKT_RKT0_RKNS_11TestDetailsE
 5025      00
 5026              	.LEHE277:
 5027              	.L406:
 5028              	.LEHB278:
 223:testCore.cpp  **** 	CHECK_EQUAL(6UL, deref(queue.itemArray[1]));
 5029              		.loc 3 223 0 is_stmt 1
 5030 2659 E8000000 		call	_ZN8UnitTest11CurrentTest7DetailsEv
 5030      00
 5031 265e 488B08   		movq	(%rax), %rcx
 5032 2661 488D4590 		leaq	-112(%rbp), %rax
 5033 2665 BADF0000 		movl	$223, %edx
 5033      00
 5034 266a 4889CE   		movq	%rcx, %rsi
 5035 266d 4889C7   		movq	%rax, %rdi
 5036 2670 E8000000 		call	_ZN8UnitTest11TestDetailsC1ERKS0_i
 5036      00
 5037              	.LEHE278:
 5038              		.loc 3 223 0 is_stmt 0 discriminator 2
 5039 2675 488B45B0 		movq	-80(%rbp), %rax
 5040 2679 4883C008 		addq	$8, %rax
 5041 267d 488B00   		movq	(%rax), %rax
 5042 2680 4889C7   		movq	%rax, %rdi
 5043 2683 E802DAFF 		call	_ZL5derefPKv
 5043      FF
 5044 2688 89857CFF 		movl	%eax, -132(%rbp)
 5044      FFFF
 5045 268e 48C74588 		movq	$6, -120(%rbp)
 5045      06000000 
 5046              	.LEHB279:
 5047 2696 E8000000 		call	_ZN8UnitTest11CurrentTest7ResultsEv
 5047      00
 5048 269b 488B00   		movq	(%rax), %rax
 5049 269e 488D4D90 		leaq	-112(%rbp), %rcx
 5050 26a2 488D957C 		leaq	-132(%rbp), %rdx
 5050      FFFFFF
 5051 26a9 488D7588 		leaq	-120(%rbp), %rsi
 5052 26ad 4889C7   		movq	%rax, %rdi
 5053 26b0 E8000000 		call	_ZN8UnitTest10CheckEqualImjEEvRNS_11TestResultsERKT_RKT0_RKNS_11TestDetailsE
 5053      00
 5054              	.LEHE279:
 5055              	.L410:
 5056              	.LEHB280:
 224:testCore.cpp  **** 	CHECK_EQUAL(7UL, deref(queue.itemArray[2]));
 5057              		.loc 3 224 0 is_stmt 1
 5058 26b5 E8000000 		call	_ZN8UnitTest11CurrentTest7DetailsEv
 5058      00
 5059 26ba 488B08   		movq	(%rax), %rcx
 5060 26bd 488D4590 		leaq	-112(%rbp), %rax
 5061 26c1 BAE00000 		movl	$224, %edx
 5061      00
 5062 26c6 4889CE   		movq	%rcx, %rsi
 5063 26c9 4889C7   		movq	%rax, %rdi
 5064 26cc E8000000 		call	_ZN8UnitTest11TestDetailsC1ERKS0_i
 5064      00
 5065              	.LEHE280:
 5066              		.loc 3 224 0 is_stmt 0 discriminator 2
 5067 26d1 488B45B0 		movq	-80(%rbp), %rax
 5068 26d5 4883C010 		addq	$16, %rax
 5069 26d9 488B00   		movq	(%rax), %rax
 5070 26dc 4889C7   		movq	%rax, %rdi
 5071 26df E8A6D9FF 		call	_ZL5derefPKv
 5071      FF
 5072 26e4 89857CFF 		movl	%eax, -132(%rbp)
 5072      FFFF
 5073 26ea 48C74588 		movq	$7, -120(%rbp)
 5073      07000000 
 5074              	.LEHB281:
 5075 26f2 E8000000 		call	_ZN8UnitTest11CurrentTest7ResultsEv
 5075      00
 5076 26f7 488B00   		movq	(%rax), %rax
 5077 26fa 488D4D90 		leaq	-112(%rbp), %rcx
 5078 26fe 488D957C 		leaq	-132(%rbp), %rdx
 5078      FFFFFF
 5079 2705 488D7588 		leaq	-120(%rbp), %rsi
 5080 2709 4889C7   		movq	%rax, %rdi
 5081 270c E8000000 		call	_ZN8UnitTest10CheckEqualImjEEvRNS_11TestResultsERKT_RKT0_RKNS_11TestDetailsE
 5081      00
 5082              	.LEHE281:
 5083              	.L414:
 5084              	.LEHB282:
 225:testCore.cpp  **** 	CHECK_EQUAL(8UL, deref(queue.itemArray[3]));
 5085              		.loc 3 225 0 is_stmt 1
 5086 2711 E8000000 		call	_ZN8UnitTest11CurrentTest7DetailsEv
 5086      00
 5087 2716 488B08   		movq	(%rax), %rcx
 5088 2719 488D4590 		leaq	-112(%rbp), %rax
 5089 271d BAE10000 		movl	$225, %edx
 5089      00
 5090 2722 4889CE   		movq	%rcx, %rsi
 5091 2725 4889C7   		movq	%rax, %rdi
 5092 2728 E8000000 		call	_ZN8UnitTest11TestDetailsC1ERKS0_i
 5092      00
 5093              	.LEHE282:
 5094              		.loc 3 225 0 is_stmt 0 discriminator 2
 5095 272d 488B45B0 		movq	-80(%rbp), %rax
 5096 2731 4883C018 		addq	$24, %rax
 5097 2735 488B00   		movq	(%rax), %rax
 5098 2738 4889C7   		movq	%rax, %rdi
 5099 273b E84AD9FF 		call	_ZL5derefPKv
 5099      FF
 5100 2740 89857CFF 		movl	%eax, -132(%rbp)
 5100      FFFF
 5101 2746 48C74588 		movq	$8, -120(%rbp)
 5101      08000000 
 5102              	.LEHB283:
 5103 274e E8000000 		call	_ZN8UnitTest11CurrentTest7ResultsEv
 5103      00
 5104 2753 488B00   		movq	(%rax), %rax
 5105 2756 488D4D90 		leaq	-112(%rbp), %rcx
 5106 275a 488D957C 		leaq	-132(%rbp), %rdx
 5106      FFFFFF
 5107 2761 488D7588 		leaq	-120(%rbp), %rsi
 5108 2765 4889C7   		movq	%rax, %rdi
 5109 2768 E8000000 		call	_ZN8UnitTest10CheckEqualImjEEvRNS_11TestResultsERKT_RKT0_RKNS_11TestDetailsE
 5109      00
 5110              	.LEHE283:
 5111              	.L418:
 226:testCore.cpp  **** 
 227:testCore.cpp  **** 	// Clean up
 228:testCore.cpp  **** 	queueDestroy(&queue);
 5112              		.loc 3 228 0 is_stmt 1
 5113 276d 488D45B0 		leaq	-80(%rbp), %rax
 5114 2771 4889C7   		movq	%rax, %rdi
 5115              	.LEHB284:
 5116 2774 E8000000 		call	queueDestroy
 5116      00
 5117              	.LEHE284:
 229:testCore.cpp  **** }
 5118              		.loc 3 229 0
 5119 2779 90       		nop
 5120 277a 488B45E8 		movq	-24(%rbp), %rax
 5121 277e 64483304 		xorq	%fs:40, %rax
 5121      25280000 
 5121      00
 5122 2787 0F845109 		je	.L420
 5122      0000
 5123 278d E9470900 		jmp	.L496
 5123      00
 5124              	.L422:
 5125 2792 EB00     		jmp	.L321
 5126              	.L421:
 5127              	.L321:
 173:testCore.cpp  **** 
 5128              		.loc 3 173 0
 5129 2794 4889C7   		movq	%rax, %rdi
 5130 2797 E8000000 		call	__cxa_begin_catch
 5130      00
 5131              	.LEHB285:
 5132 279c E8000000 		call	_ZN8UnitTest11CurrentTest7DetailsEv
 5132      00
 5133 27a1 488B08   		movq	(%rax), %rcx
 5134 27a4 488D4590 		leaq	-112(%rbp), %rax
 5135 27a8 BAAD0000 		movl	$173, %edx
 5135      00
 5136 27ad 4889CE   		movq	%rcx, %rsi
 5137 27b0 4889C7   		movq	%rax, %rdi
 5138 27b3 E8000000 		call	_ZN8UnitTest11TestDetailsC1ERKS0_i
 5138      00
 173:testCore.cpp  **** 
 5139              		.loc 3 173 0 is_stmt 0 discriminator 10
 5140 27b8 E8000000 		call	_ZN8UnitTest11CurrentTest7ResultsEv
 5140      00
 5141 27bd 488B00   		movq	(%rax), %rax
 5142 27c0 488D4D90 		leaq	-112(%rbp), %rcx
 5143 27c4 BA000000 		movl	$.LC3, %edx
 5143      00
 5144 27c9 4889CE   		movq	%rcx, %rsi
 5145 27cc 4889C7   		movq	%rax, %rdi
 5146 27cf E8000000 		call	_ZN8UnitTest11TestResults13OnTestFailureERKNS_11TestDetailsEPKc
 5146      00
 5147              	.LEHE285:
 5148              	.LEHB286:
 173:testCore.cpp  **** 
 5149              		.loc 3 173 0 discriminator 14
 5150 27d4 E8000000 		call	__cxa_end_catch
 5150      00
 5151              	.LEHE286:
 5152 27d9 E96BF7FF 		jmp	.L322
 5152      FF
 5153              	.L423:
 5154 27de 4889C3   		movq	%rax, %rbx
 173:testCore.cpp  **** 
 5155              		.loc 3 173 0
 5156 27e1 E8000000 		call	__cxa_end_catch
 5156      00
 5157 27e6 4889D8   		movq	%rbx, %rax
 5158 27e9 4889C7   		movq	%rax, %rdi
 5159              	.LEHB287:
 5160 27ec E8000000 		call	_Unwind_Resume
 5160      00
 5161              	.LEHE287:
 5162              	.L425:
 5163 27f1 EB00     		jmp	.L325
 5164              	.L424:
 5165              	.L325:
 177:testCore.cpp  **** 	CHECK_EQUAL(1UL, *item);
 5166              		.loc 3 177 0 is_stmt 1
 5167 27f3 4889C7   		movq	%rax, %rdi
 5168 27f6 E8000000 		call	__cxa_begin_catch
 5168      00
 5169              	.LEHB288:
 5170 27fb E8000000 		call	_ZN8UnitTest11CurrentTest7DetailsEv
 5170      00
 5171 2800 488B08   		movq	(%rax), %rcx
 5172 2803 488D4590 		leaq	-112(%rbp), %rax
 5173 2807 BAB10000 		movl	$177, %edx
 5173      00
 5174 280c 4889CE   		movq	%rcx, %rsi
 5175 280f 4889C7   		movq	%rax, %rdi
 5176 2812 E8000000 		call	_ZN8UnitTest11TestDetailsC1ERKS0_i
 5176      00
 177:testCore.cpp  **** 	CHECK_EQUAL(1UL, *item);
 5177              		.loc 3 177 0 is_stmt 0 discriminator 10
 5178 2817 E8000000 		call	_ZN8UnitTest11CurrentTest7ResultsEv
 5178      00
 5179 281c 488B00   		movq	(%rax), %rax
 5180 281f 488D4D90 		leaq	-112(%rbp), %rcx
 5181 2823 BA000000 		movl	$.LC3, %edx
 5181      00
 5182 2828 4889CE   		movq	%rcx, %rsi
 5183 282b 4889C7   		movq	%rax, %rdi
 5184 282e E8000000 		call	_ZN8UnitTest11TestResults13OnTestFailureERKNS_11TestDetailsEPKc
 5184      00
 5185              	.LEHE288:
 5186              	.LEHB289:
 177:testCore.cpp  **** 	CHECK_EQUAL(1UL, *item);
 5187              		.loc 3 177 0 discriminator 14
 5188 2833 E8000000 		call	__cxa_end_catch
 5188      00
 5189              	.LEHE289:
 5190 2838 E967F7FF 		jmp	.L326
 5190      FF
 5191              	.L426:
 5192 283d 4889C3   		movq	%rax, %rbx
 177:testCore.cpp  **** 	CHECK_EQUAL(1UL, *item);
 5193              		.loc 3 177 0
 5194 2840 E8000000 		call	__cxa_end_catch
 5194      00
 5195 2845 4889D8   		movq	%rbx, %rax
 5196 2848 4889C7   		movq	%rax, %rdi
 5197              	.LEHB290:
 5198 284b E8000000 		call	_Unwind_Resume
 5198      00
 5199              	.LEHE290:
 5200              	.L428:
 5201 2850 EB00     		jmp	.L329
 5202              	.L427:
 5203              	.L329:
 178:testCore.cpp  **** 	*item = 5;
 5204              		.loc 3 178 0 is_stmt 1
 5205 2852 4889C7   		movq	%rax, %rdi
 5206 2855 E8000000 		call	__cxa_begin_catch
 5206      00
 5207              	.LEHB291:
 5208 285a E8000000 		call	_ZN8UnitTest11CurrentTest7DetailsEv
 5208      00
 5209 285f 488B08   		movq	(%rax), %rcx
 5210 2862 488D4590 		leaq	-112(%rbp), %rax
 5211 2866 BAB20000 		movl	$178, %edx
 5211      00
 5212 286b 4889CE   		movq	%rcx, %rsi
 5213 286e 4889C7   		movq	%rax, %rdi
 5214 2871 E8000000 		call	_ZN8UnitTest11TestDetailsC1ERKS0_i
 5214      00
 178:testCore.cpp  **** 	*item = 5;
 5215              		.loc 3 178 0 is_stmt 0 discriminator 10
 5216 2876 E8000000 		call	_ZN8UnitTest11CurrentTest7ResultsEv
 5216      00
 5217 287b 488B00   		movq	(%rax), %rax
 5218 287e 488D4D90 		leaq	-112(%rbp), %rcx
 5219 2882 BA000000 		movl	$.LC13, %edx
 5219      00
 5220 2887 4889CE   		movq	%rcx, %rsi
 5221 288a 4889C7   		movq	%rax, %rdi
 5222 288d E8000000 		call	_ZN8UnitTest11TestResults13OnTestFailureERKNS_11TestDetailsEPKc
 5222      00
 5223              	.LEHE291:
 5224              	.LEHB292:
 178:testCore.cpp  **** 	*item = 5;
 5225              		.loc 3 178 0 discriminator 14
 5226 2892 E8000000 		call	__cxa_end_catch
 5226      00
 5227              	.LEHE292:
 5228 2897 E94EF7FF 		jmp	.L330
 5228      FF
 5229              	.L429:
 5230 289c 4889C3   		movq	%rax, %rbx
 178:testCore.cpp  **** 	*item = 5;
 5231              		.loc 3 178 0
 5232 289f E8000000 		call	__cxa_end_catch
 5232      00
 5233 28a4 4889D8   		movq	%rbx, %rax
 5234 28a7 4889C7   		movq	%rax, %rdi
 5235              	.LEHB293:
 5236 28aa E8000000 		call	_Unwind_Resume
 5236      00
 5237              	.LEHE293:
 5238              	.L431:
 5239 28af EB00     		jmp	.L333
 5240              	.L430:
 5241              	.L333:
 182:testCore.cpp  **** 	CHECK_EQUAL(2UL, *item);
 5242              		.loc 3 182 0 is_stmt 1
 5243 28b1 4889C7   		movq	%rax, %rdi
 5244 28b4 E8000000 		call	__cxa_begin_catch
 5244      00
 5245              	.LEHB294:
 5246 28b9 E8000000 		call	_ZN8UnitTest11CurrentTest7DetailsEv
 5246      00
 5247 28be 488B08   		movq	(%rax), %rcx
 5248 28c1 488D4590 		leaq	-112(%rbp), %rax
 5249 28c5 BAB60000 		movl	$182, %edx
 5249      00
 5250 28ca 4889CE   		movq	%rcx, %rsi
 5251 28cd 4889C7   		movq	%rax, %rdi
 5252 28d0 E8000000 		call	_ZN8UnitTest11TestDetailsC1ERKS0_i
 5252      00
 182:testCore.cpp  **** 	CHECK_EQUAL(2UL, *item);
 5253              		.loc 3 182 0 is_stmt 0 discriminator 10
 5254 28d5 E8000000 		call	_ZN8UnitTest11CurrentTest7ResultsEv
 5254      00
 5255 28da 488B00   		movq	(%rax), %rax
 5256 28dd 488D4D90 		leaq	-112(%rbp), %rcx
 5257 28e1 BA000000 		movl	$.LC3, %edx
 5257      00
 5258 28e6 4889CE   		movq	%rcx, %rsi
 5259 28e9 4889C7   		movq	%rax, %rdi
 5260 28ec E8000000 		call	_ZN8UnitTest11TestResults13OnTestFailureERKNS_11TestDetailsEPKc
 5260      00
 5261              	.LEHE294:
 5262              	.LEHB295:
 182:testCore.cpp  **** 	CHECK_EQUAL(2UL, *item);
 5263              		.loc 3 182 0 discriminator 14
 5264 28f1 E8000000 		call	__cxa_end_catch
 5264      00
 5265              	.LEHE295:
 5266 28f6 E960F7FF 		jmp	.L334
 5266      FF
 5267              	.L432:
 5268 28fb 4889C3   		movq	%rax, %rbx
 182:testCore.cpp  **** 	CHECK_EQUAL(2UL, *item);
 5269              		.loc 3 182 0
 5270 28fe E8000000 		call	__cxa_end_catch
 5270      00
 5271 2903 4889D8   		movq	%rbx, %rax
 5272 2906 4889C7   		movq	%rax, %rdi
 5273              	.LEHB296:
 5274 2909 E8000000 		call	_Unwind_Resume
 5274      00
 5275              	.LEHE296:
 5276              	.L434:
 5277 290e EB00     		jmp	.L337
 5278              	.L433:
 5279              	.L337:
 183:testCore.cpp  **** 	*item = 6;
 5280              		.loc 3 183 0 is_stmt 1
 5281 2910 4889C7   		movq	%rax, %rdi
 5282 2913 E8000000 		call	__cxa_begin_catch
 5282      00
 5283              	.LEHB297:
 5284 2918 E8000000 		call	_ZN8UnitTest11CurrentTest7DetailsEv
 5284      00
 5285 291d 488B08   		movq	(%rax), %rcx
 5286 2920 488D4590 		leaq	-112(%rbp), %rax
 5287 2924 BAB70000 		movl	$183, %edx
 5287      00
 5288 2929 4889CE   		movq	%rcx, %rsi
 5289 292c 4889C7   		movq	%rax, %rdi
 5290 292f E8000000 		call	_ZN8UnitTest11TestDetailsC1ERKS0_i
 5290      00
 183:testCore.cpp  **** 	*item = 6;
 5291              		.loc 3 183 0 is_stmt 0 discriminator 10
 5292 2934 E8000000 		call	_ZN8UnitTest11CurrentTest7ResultsEv
 5292      00
 5293 2939 488B00   		movq	(%rax), %rax
 5294 293c 488D4D90 		leaq	-112(%rbp), %rcx
 5295 2940 BA000000 		movl	$.LC14, %edx
 5295      00
 5296 2945 4889CE   		movq	%rcx, %rsi
 5297 2948 4889C7   		movq	%rax, %rdi
 5298 294b E8000000 		call	_ZN8UnitTest11TestResults13OnTestFailureERKNS_11TestDetailsEPKc
 5298      00
 5299              	.LEHE297:
 5300              	.LEHB298:
 183:testCore.cpp  **** 	*item = 6;
 5301              		.loc 3 183 0 discriminator 14
 5302 2950 E8000000 		call	__cxa_end_catch
 5302      00
 5303              	.LEHE298:
 5304 2955 E947F7FF 		jmp	.L338
 5304      FF
 5305              	.L435:
 5306 295a 4889C3   		movq	%rax, %rbx
 183:testCore.cpp  **** 	*item = 6;
 5307              		.loc 3 183 0
 5308 295d E8000000 		call	__cxa_end_catch
 5308      00
 5309 2962 4889D8   		movq	%rbx, %rax
 5310 2965 4889C7   		movq	%rax, %rdi
 5311              	.LEHB299:
 5312 2968 E8000000 		call	_Unwind_Resume
 5312      00
 5313              	.LEHE299:
 5314              	.L437:
 5315 296d EB00     		jmp	.L341
 5316              	.L436:
 5317              	.L341:
 187:testCore.cpp  **** 	CHECK_EQUAL(3UL, *item);
 5318              		.loc 3 187 0 is_stmt 1
 5319 296f 4889C7   		movq	%rax, %rdi
 5320 2972 E8000000 		call	__cxa_begin_catch
 5320      00
 5321              	.LEHB300:
 5322 2977 E8000000 		call	_ZN8UnitTest11CurrentTest7DetailsEv
 5322      00
 5323 297c 488B08   		movq	(%rax), %rcx
 5324 297f 488D4590 		leaq	-112(%rbp), %rax
 5325 2983 BABB0000 		movl	$187, %edx
 5325      00
 5326 2988 4889CE   		movq	%rcx, %rsi
 5327 298b 4889C7   		movq	%rax, %rdi
 5328 298e E8000000 		call	_ZN8UnitTest11TestDetailsC1ERKS0_i
 5328      00
 187:testCore.cpp  **** 	CHECK_EQUAL(3UL, *item);
 5329              		.loc 3 187 0 is_stmt 0 discriminator 10
 5330 2993 E8000000 		call	_ZN8UnitTest11CurrentTest7ResultsEv
 5330      00
 5331 2998 488B00   		movq	(%rax), %rax
 5332 299b 488D4D90 		leaq	-112(%rbp), %rcx
 5333 299f BA000000 		movl	$.LC3, %edx
 5333      00
 5334 29a4 4889CE   		movq	%rcx, %rsi
 5335 29a7 4889C7   		movq	%rax, %rdi
 5336 29aa E8000000 		call	_ZN8UnitTest11TestResults13OnTestFailureERKNS_11TestDetailsEPKc
 5336      00
 5337              	.LEHE300:
 5338              	.LEHB301:
 187:testCore.cpp  **** 	CHECK_EQUAL(3UL, *item);
 5339              		.loc 3 187 0 discriminator 14
 5340 29af E8000000 		call	__cxa_end_catch
 5340      00
 5341              	.LEHE301:
 5342 29b4 E959F7FF 		jmp	.L342
 5342      FF
 5343              	.L438:
 5344 29b9 4889C3   		movq	%rax, %rbx
 187:testCore.cpp  **** 	CHECK_EQUAL(3UL, *item);
 5345              		.loc 3 187 0
 5346 29bc E8000000 		call	__cxa_end_catch
 5346      00
 5347 29c1 4889D8   		movq	%rbx, %rax
 5348 29c4 4889C7   		movq	%rax, %rdi
 5349              	.LEHB302:
 5350 29c7 E8000000 		call	_Unwind_Resume
 5350      00
 5351              	.LEHE302:
 5352              	.L440:
 5353 29cc EB00     		jmp	.L345
 5354              	.L439:
 5355              	.L345:
 188:testCore.cpp  **** 	*item = 7;
 5356              		.loc 3 188 0 is_stmt 1
 5357 29ce 4889C7   		movq	%rax, %rdi
 5358 29d1 E8000000 		call	__cxa_begin_catch
 5358      00
 5359              	.LEHB303:
 5360 29d6 E8000000 		call	_ZN8UnitTest11CurrentTest7DetailsEv
 5360      00
 5361 29db 488B08   		movq	(%rax), %rcx
 5362 29de 488D4590 		leaq	-112(%rbp), %rax
 5363 29e2 BABC0000 		movl	$188, %edx
 5363      00
 5364 29e7 4889CE   		movq	%rcx, %rsi
 5365 29ea 4889C7   		movq	%rax, %rdi
 5366 29ed E8000000 		call	_ZN8UnitTest11TestDetailsC1ERKS0_i
 5366      00
 188:testCore.cpp  **** 	*item = 7;
 5367              		.loc 3 188 0 is_stmt 0 discriminator 10
 5368 29f2 E8000000 		call	_ZN8UnitTest11CurrentTest7ResultsEv
 5368      00
 5369 29f7 488B00   		movq	(%rax), %rax
 5370 29fa 488D4D90 		leaq	-112(%rbp), %rcx
 5371 29fe BA000000 		movl	$.LC15, %edx
 5371      00
 5372 2a03 4889CE   		movq	%rcx, %rsi
 5373 2a06 4889C7   		movq	%rax, %rdi
 5374 2a09 E8000000 		call	_ZN8UnitTest11TestResults13OnTestFailureERKNS_11TestDetailsEPKc
 5374      00
 5375              	.LEHE303:
 5376              	.LEHB304:
 188:testCore.cpp  **** 	*item = 7;
 5377              		.loc 3 188 0 discriminator 14
 5378 2a0e E8000000 		call	__cxa_end_catch
 5378      00
 5379              	.LEHE304:
 5380 2a13 E940F7FF 		jmp	.L346
 5380      FF
 5381              	.L441:
 5382 2a18 4889C3   		movq	%rax, %rbx
 188:testCore.cpp  **** 	*item = 7;
 5383              		.loc 3 188 0
 5384 2a1b E8000000 		call	__cxa_end_catch
 5384      00
 5385 2a20 4889D8   		movq	%rbx, %rax
 5386 2a23 4889C7   		movq	%rax, %rdi
 5387              	.LEHB305:
 5388 2a26 E8000000 		call	_Unwind_Resume
 5388      00
 5389              	.LEHE305:
 5390              	.L443:
 5391 2a2b EB00     		jmp	.L349
 5392              	.L442:
 5393              	.L349:
 192:testCore.cpp  **** 	CHECK_EQUAL(4UL, *item);
 5394              		.loc 3 192 0 is_stmt 1
 5395 2a2d 4889C7   		movq	%rax, %rdi
 5396 2a30 E8000000 		call	__cxa_begin_catch
 5396      00
 5397              	.LEHB306:
 5398 2a35 E8000000 		call	_ZN8UnitTest11CurrentTest7DetailsEv
 5398      00
 5399 2a3a 488B08   		movq	(%rax), %rcx
 5400 2a3d 488D4590 		leaq	-112(%rbp), %rax
 5401 2a41 BAC00000 		movl	$192, %edx
 5401      00
 5402 2a46 4889CE   		movq	%rcx, %rsi
 5403 2a49 4889C7   		movq	%rax, %rdi
 5404 2a4c E8000000 		call	_ZN8UnitTest11TestDetailsC1ERKS0_i
 5404      00
 192:testCore.cpp  **** 	CHECK_EQUAL(4UL, *item);
 5405              		.loc 3 192 0 is_stmt 0 discriminator 10
 5406 2a51 E8000000 		call	_ZN8UnitTest11CurrentTest7ResultsEv
 5406      00
 5407 2a56 488B00   		movq	(%rax), %rax
 5408 2a59 488D4D90 		leaq	-112(%rbp), %rcx
 5409 2a5d BA000000 		movl	$.LC3, %edx
 5409      00
 5410 2a62 4889CE   		movq	%rcx, %rsi
 5411 2a65 4889C7   		movq	%rax, %rdi
 5412 2a68 E8000000 		call	_ZN8UnitTest11TestResults13OnTestFailureERKNS_11TestDetailsEPKc
 5412      00
 5413              	.LEHE306:
 5414              	.LEHB307:
 192:testCore.cpp  **** 	CHECK_EQUAL(4UL, *item);
 5415              		.loc 3 192 0 discriminator 14
 5416 2a6d E8000000 		call	__cxa_end_catch
 5416      00
 5417              	.LEHE307:
 5418 2a72 E952F7FF 		jmp	.L350
 5418      FF
 5419              	.L444:
 5420 2a77 4889C3   		movq	%rax, %rbx
 192:testCore.cpp  **** 	CHECK_EQUAL(4UL, *item);
 5421              		.loc 3 192 0
 5422 2a7a E8000000 		call	__cxa_end_catch
 5422      00
 5423 2a7f 4889D8   		movq	%rbx, %rax
 5424 2a82 4889C7   		movq	%rax, %rdi
 5425              	.LEHB308:
 5426 2a85 E8000000 		call	_Unwind_Resume
 5426      00
 5427              	.LEHE308:
 5428              	.L446:
 5429 2a8a EB00     		jmp	.L353
 5430              	.L445:
 5431              	.L353:
 193:testCore.cpp  **** 	*item = 8;
 5432              		.loc 3 193 0 is_stmt 1
 5433 2a8c 4889C7   		movq	%rax, %rdi
 5434 2a8f E8000000 		call	__cxa_begin_catch
 5434      00
 5435              	.LEHB309:
 5436 2a94 E8000000 		call	_ZN8UnitTest11CurrentTest7DetailsEv
 5436      00
 5437 2a99 488B08   		movq	(%rax), %rcx
 5438 2a9c 488D4590 		leaq	-112(%rbp), %rax
 5439 2aa0 BAC10000 		movl	$193, %edx
 5439      00
 5440 2aa5 4889CE   		movq	%rcx, %rsi
 5441 2aa8 4889C7   		movq	%rax, %rdi
 5442 2aab E8000000 		call	_ZN8UnitTest11TestDetailsC1ERKS0_i
 5442      00
 193:testCore.cpp  **** 	*item = 8;
 5443              		.loc 3 193 0 is_stmt 0 discriminator 10
 5444 2ab0 E8000000 		call	_ZN8UnitTest11CurrentTest7ResultsEv
 5444      00
 5445 2ab5 488B00   		movq	(%rax), %rax
 5446 2ab8 488D4D90 		leaq	-112(%rbp), %rcx
 5447 2abc BA000000 		movl	$.LC22, %edx
 5447      00
 5448 2ac1 4889CE   		movq	%rcx, %rsi
 5449 2ac4 4889C7   		movq	%rax, %rdi
 5450 2ac7 E8000000 		call	_ZN8UnitTest11TestResults13OnTestFailureERKNS_11TestDetailsEPKc
 5450      00
 5451              	.LEHE309:
 5452              	.LEHB310:
 193:testCore.cpp  **** 	*item = 8;
 5453              		.loc 3 193 0 discriminator 14
 5454 2acc E8000000 		call	__cxa_end_catch
 5454      00
 5455              	.LEHE310:
 5456 2ad1 E939F7FF 		jmp	.L354
 5456      FF
 5457              	.L447:
 5458 2ad6 4889C3   		movq	%rax, %rbx
 193:testCore.cpp  **** 	*item = 8;
 5459              		.loc 3 193 0
 5460 2ad9 E8000000 		call	__cxa_end_catch
 5460      00
 5461 2ade 4889D8   		movq	%rbx, %rax
 5462 2ae1 4889C7   		movq	%rax, %rdi
 5463              	.LEHB311:
 5464 2ae4 E8000000 		call	_Unwind_Resume
 5464      00
 5465              	.LEHE311:
 5466              	.L449:
 5467 2ae9 EB00     		jmp	.L357
 5468              	.L448:
 5469              	.L357:
 199:testCore.cpp  **** 	CHECK_EQUAL(5UL, *item);
 5470              		.loc 3 199 0 is_stmt 1
 5471 2aeb 4889C7   		movq	%rax, %rdi
 5472 2aee E8000000 		call	__cxa_begin_catch
 5472      00
 5473              	.LEHB312:
 5474 2af3 E8000000 		call	_ZN8UnitTest11CurrentTest7DetailsEv
 5474      00
 5475 2af8 488B08   		movq	(%rax), %rcx
 5476 2afb 488D4590 		leaq	-112(%rbp), %rax
 5477 2aff BAC70000 		movl	$199, %edx
 5477      00
 5478 2b04 4889CE   		movq	%rcx, %rsi
 5479 2b07 4889C7   		movq	%rax, %rdi
 5480 2b0a E8000000 		call	_ZN8UnitTest11TestDetailsC1ERKS0_i
 5480      00
 199:testCore.cpp  **** 	CHECK_EQUAL(5UL, *item);
 5481              		.loc 3 199 0 is_stmt 0 discriminator 10
 5482 2b0f E8000000 		call	_ZN8UnitTest11CurrentTest7ResultsEv
 5482      00
 5483 2b14 488B00   		movq	(%rax), %rax
 5484 2b17 488D4D90 		leaq	-112(%rbp), %rcx
 5485 2b1b BA000000 		movl	$.LC3, %edx
 5485      00
 5486 2b20 4889CE   		movq	%rcx, %rsi
 5487 2b23 4889C7   		movq	%rax, %rdi
 5488 2b26 E8000000 		call	_ZN8UnitTest11TestResults13OnTestFailureERKNS_11TestDetailsEPKc
 5488      00
 5489              	.LEHE312:
 5490              	.LEHB313:
 199:testCore.cpp  **** 	CHECK_EQUAL(5UL, *item);
 5491              		.loc 3 199 0 discriminator 14
 5492 2b2b E8000000 		call	__cxa_end_catch
 5492      00
 5493              	.LEHE313:
 5494 2b30 E94BF7FF 		jmp	.L358
 5494      FF
 5495              	.L450:
 5496 2b35 4889C3   		movq	%rax, %rbx
 199:testCore.cpp  **** 	CHECK_EQUAL(5UL, *item);
 5497              		.loc 3 199 0
 5498 2b38 E8000000 		call	__cxa_end_catch
 5498      00
 5499 2b3d 4889D8   		movq	%rbx, %rax
 5500 2b40 4889C7   		movq	%rax, %rdi
 5501              	.LEHB314:
 5502 2b43 E8000000 		call	_Unwind_Resume
 5502      00
 5503              	.LEHE314:
 5504              	.L452:
 5505 2b48 EB00     		jmp	.L361
 5506              	.L451:
 5507              	.L361:
 200:testCore.cpp  **** 	queueCommitTake(&queue);
 5508              		.loc 3 200 0 is_stmt 1
 5509 2b4a 4889C7   		movq	%rax, %rdi
 5510 2b4d E8000000 		call	__cxa_begin_catch
 5510      00
 5511              	.LEHB315:
 5512 2b52 E8000000 		call	_ZN8UnitTest11CurrentTest7DetailsEv
 5512      00
 5513 2b57 488B08   		movq	(%rax), %rcx
 5514 2b5a 488D4590 		leaq	-112(%rbp), %rax
 5515 2b5e BAC80000 		movl	$200, %edx
 5515      00
 5516 2b63 4889CE   		movq	%rcx, %rsi
 5517 2b66 4889C7   		movq	%rax, %rdi
 5518 2b69 E8000000 		call	_ZN8UnitTest11TestDetailsC1ERKS0_i
 5518      00
 200:testCore.cpp  **** 	queueCommitTake(&queue);
 5519              		.loc 3 200 0 is_stmt 0 discriminator 10
 5520 2b6e E8000000 		call	_ZN8UnitTest11CurrentTest7ResultsEv
 5520      00
 5521 2b73 488B00   		movq	(%rax), %rax
 5522 2b76 488D4D90 		leaq	-112(%rbp), %rcx
 5523 2b7a BA000000 		movl	$.LC26, %edx
 5523      00
 5524 2b7f 4889CE   		movq	%rcx, %rsi
 5525 2b82 4889C7   		movq	%rax, %rdi
 5526 2b85 E8000000 		call	_ZN8UnitTest11TestResults13OnTestFailureERKNS_11TestDetailsEPKc
 5526      00
 5527              	.LEHE315:
 5528              	.LEHB316:
 200:testCore.cpp  **** 	queueCommitTake(&queue);
 5529              		.loc 3 200 0 discriminator 14
 5530 2b8a E8000000 		call	__cxa_end_catch
 5530      00
 5531              	.LEHE316:
 5532 2b8f E932F7FF 		jmp	.L362
 5532      FF
 5533              	.L453:
 5534 2b94 4889C3   		movq	%rax, %rbx
 200:testCore.cpp  **** 	queueCommitTake(&queue);
 5535              		.loc 3 200 0
 5536 2b97 E8000000 		call	__cxa_end_catch
 5536      00
 5537 2b9c 4889D8   		movq	%rbx, %rax
 5538 2b9f 4889C7   		movq	%rax, %rdi
 5539              	.LEHB317:
 5540 2ba2 E8000000 		call	_Unwind_Resume
 5540      00
 5541              	.LEHE317:
 5542              	.L455:
 5543 2ba7 EB00     		jmp	.L365
 5544              	.L454:
 5545              	.L365:
 203:testCore.cpp  **** 	CHECK_EQUAL(6UL, *item);
 5546              		.loc 3 203 0 is_stmt 1
 5547 2ba9 4889C7   		movq	%rax, %rdi
 5548 2bac E8000000 		call	__cxa_begin_catch
 5548      00
 5549              	.LEHB318:
 5550 2bb1 E8000000 		call	_ZN8UnitTest11CurrentTest7DetailsEv
 5550      00
 5551 2bb6 488B08   		movq	(%rax), %rcx
 5552 2bb9 488D4590 		leaq	-112(%rbp), %rax
 5553 2bbd BACB0000 		movl	$203, %edx
 5553      00
 5554 2bc2 4889CE   		movq	%rcx, %rsi
 5555 2bc5 4889C7   		movq	%rax, %rdi
 5556 2bc8 E8000000 		call	_ZN8UnitTest11TestDetailsC1ERKS0_i
 5556      00
 203:testCore.cpp  **** 	CHECK_EQUAL(6UL, *item);
 5557              		.loc 3 203 0 is_stmt 0 discriminator 10
 5558 2bcd E8000000 		call	_ZN8UnitTest11CurrentTest7ResultsEv
 5558      00
 5559 2bd2 488B00   		movq	(%rax), %rax
 5560 2bd5 488D4D90 		leaq	-112(%rbp), %rcx
 5561 2bd9 BA000000 		movl	$.LC3, %edx
 5561      00
 5562 2bde 4889CE   		movq	%rcx, %rsi
 5563 2be1 4889C7   		movq	%rax, %rdi
 5564 2be4 E8000000 		call	_ZN8UnitTest11TestResults13OnTestFailureERKNS_11TestDetailsEPKc
 5564      00
 5565              	.LEHE318:
 5566              	.LEHB319:
 203:testCore.cpp  **** 	CHECK_EQUAL(6UL, *item);
 5567              		.loc 3 203 0 discriminator 14
 5568 2be9 E8000000 		call	__cxa_end_catch
 5568      00
 5569              	.LEHE319:
 5570 2bee E93AF7FF 		jmp	.L366
 5570      FF
 5571              	.L456:
 5572 2bf3 4889C3   		movq	%rax, %rbx
 203:testCore.cpp  **** 	CHECK_EQUAL(6UL, *item);
 5573              		.loc 3 203 0
 5574 2bf6 E8000000 		call	__cxa_end_catch
 5574      00
 5575 2bfb 4889D8   		movq	%rbx, %rax
 5576 2bfe 4889C7   		movq	%rax, %rdi
 5577              	.LEHB320:
 5578 2c01 E8000000 		call	_Unwind_Resume
 5578      00
 5579              	.LEHE320:
 5580              	.L458:
 5581 2c06 EB00     		jmp	.L369
 5582              	.L457:
 5583              	.L369:
 204:testCore.cpp  **** 	queueCommitTake(&queue);
 5584              		.loc 3 204 0 is_stmt 1
 5585 2c08 4889C7   		movq	%rax, %rdi
 5586 2c0b E8000000 		call	__cxa_begin_catch
 5586      00
 5587              	.LEHB321:
 5588 2c10 E8000000 		call	_ZN8UnitTest11CurrentTest7DetailsEv
 5588      00
 5589 2c15 488B08   		movq	(%rax), %rcx
 5590 2c18 488D4590 		leaq	-112(%rbp), %rax
 5591 2c1c BACC0000 		movl	$204, %edx
 5591      00
 5592 2c21 4889CE   		movq	%rcx, %rsi
 5593 2c24 4889C7   		movq	%rax, %rdi
 5594 2c27 E8000000 		call	_ZN8UnitTest11TestDetailsC1ERKS0_i
 5594      00
 204:testCore.cpp  **** 	queueCommitTake(&queue);
 5595              		.loc 3 204 0 is_stmt 0 discriminator 10
 5596 2c2c E8000000 		call	_ZN8UnitTest11CurrentTest7ResultsEv
 5596      00
 5597 2c31 488B00   		movq	(%rax), %rax
 5598 2c34 488D4D90 		leaq	-112(%rbp), %rcx
 5599 2c38 BA000000 		movl	$.LC27, %edx
 5599      00
 5600 2c3d 4889CE   		movq	%rcx, %rsi
 5601 2c40 4889C7   		movq	%rax, %rdi
 5602 2c43 E8000000 		call	_ZN8UnitTest11TestResults13OnTestFailureERKNS_11TestDetailsEPKc
 5602      00
 5603              	.LEHE321:
 5604              	.LEHB322:
 204:testCore.cpp  **** 	queueCommitTake(&queue);
 5605              		.loc 3 204 0 discriminator 14
 5606 2c48 E8000000 		call	__cxa_end_catch
 5606      00
 5607              	.LEHE322:
 5608 2c4d E921F7FF 		jmp	.L370
 5608      FF
 5609              	.L459:
 5610 2c52 4889C3   		movq	%rax, %rbx
 204:testCore.cpp  **** 	queueCommitTake(&queue);
 5611              		.loc 3 204 0
 5612 2c55 E8000000 		call	__cxa_end_catch
 5612      00
 5613 2c5a 4889D8   		movq	%rbx, %rax
 5614 2c5d 4889C7   		movq	%rax, %rdi
 5615              	.LEHB323:
 5616 2c60 E8000000 		call	_Unwind_Resume
 5616      00
 5617              	.LEHE323:
 5618              	.L461:
 5619 2c65 EB00     		jmp	.L373
 5620              	.L460:
 5621              	.L373:
 207:testCore.cpp  **** 	CHECK_EQUAL(7UL, *item);
 5622              		.loc 3 207 0 is_stmt 1
 5623 2c67 4889C7   		movq	%rax, %rdi
 5624 2c6a E8000000 		call	__cxa_begin_catch
 5624      00
 5625              	.LEHB324:
 5626 2c6f E8000000 		call	_ZN8UnitTest11CurrentTest7DetailsEv
 5626      00
 5627 2c74 488B08   		movq	(%rax), %rcx
 5628 2c77 488D4590 		leaq	-112(%rbp), %rax
 5629 2c7b BACF0000 		movl	$207, %edx
 5629      00
 5630 2c80 4889CE   		movq	%rcx, %rsi
 5631 2c83 4889C7   		movq	%rax, %rdi
 5632 2c86 E8000000 		call	_ZN8UnitTest11TestDetailsC1ERKS0_i
 5632      00
 207:testCore.cpp  **** 	CHECK_EQUAL(7UL, *item);
 5633              		.loc 3 207 0 is_stmt 0 discriminator 10
 5634 2c8b E8000000 		call	_ZN8UnitTest11CurrentTest7ResultsEv
 5634      00
 5635 2c90 488B00   		movq	(%rax), %rax
 5636 2c93 488D4D90 		leaq	-112(%rbp), %rcx
 5637 2c97 BA000000 		movl	$.LC3, %edx
 5637      00
 5638 2c9c 4889CE   		movq	%rcx, %rsi
 5639 2c9f 4889C7   		movq	%rax, %rdi
 5640 2ca2 E8000000 		call	_ZN8UnitTest11TestResults13OnTestFailureERKNS_11TestDetailsEPKc
 5640      00
 5641              	.LEHE324:
 5642              	.LEHB325:
 207:testCore.cpp  **** 	CHECK_EQUAL(7UL, *item);
 5643              		.loc 3 207 0 discriminator 14
 5644 2ca7 E8000000 		call	__cxa_end_catch
 5644      00
 5645              	.LEHE325:
 5646 2cac E929F7FF 		jmp	.L374
 5646      FF
 5647              	.L462:
 5648 2cb1 4889C3   		movq	%rax, %rbx
 207:testCore.cpp  **** 	CHECK_EQUAL(7UL, *item);
 5649              		.loc 3 207 0
 5650 2cb4 E8000000 		call	__cxa_end_catch
 5650      00
 5651 2cb9 4889D8   		movq	%rbx, %rax
 5652 2cbc 4889C7   		movq	%rax, %rdi
 5653              	.LEHB326:
 5654 2cbf E8000000 		call	_Unwind_Resume
 5654      00
 5655              	.LEHE326:
 5656              	.L464:
 5657 2cc4 EB00     		jmp	.L377
 5658              	.L463:
 5659              	.L377:
 208:testCore.cpp  **** 	queueCommitTake(&queue);
 5660              		.loc 3 208 0 is_stmt 1
 5661 2cc6 4889C7   		movq	%rax, %rdi
 5662 2cc9 E8000000 		call	__cxa_begin_catch
 5662      00
 5663              	.LEHB327:
 5664 2cce E8000000 		call	_ZN8UnitTest11CurrentTest7DetailsEv
 5664      00
 5665 2cd3 488B08   		movq	(%rax), %rcx
 5666 2cd6 488D4590 		leaq	-112(%rbp), %rax
 5667 2cda BAD00000 		movl	$208, %edx
 5667      00
 5668 2cdf 4889CE   		movq	%rcx, %rsi
 5669 2ce2 4889C7   		movq	%rax, %rdi
 5670 2ce5 E8000000 		call	_ZN8UnitTest11TestDetailsC1ERKS0_i
 5670      00
 208:testCore.cpp  **** 	queueCommitTake(&queue);
 5671              		.loc 3 208 0 is_stmt 0 discriminator 10
 5672 2cea E8000000 		call	_ZN8UnitTest11CurrentTest7ResultsEv
 5672      00
 5673 2cef 488B00   		movq	(%rax), %rax
 5674 2cf2 488D4D90 		leaq	-112(%rbp), %rcx
 5675 2cf6 BA000000 		movl	$.LC28, %edx
 5675      00
 5676 2cfb 4889CE   		movq	%rcx, %rsi
 5677 2cfe 4889C7   		movq	%rax, %rdi
 5678 2d01 E8000000 		call	_ZN8UnitTest11TestResults13OnTestFailureERKNS_11TestDetailsEPKc
 5678      00
 5679              	.LEHE327:
 5680              	.LEHB328:
 208:testCore.cpp  **** 	queueCommitTake(&queue);
 5681              		.loc 3 208 0 discriminator 14
 5682 2d06 E8000000 		call	__cxa_end_catch
 5682      00
 5683              	.LEHE328:
 5684 2d0b E910F7FF 		jmp	.L378
 5684      FF
 5685              	.L465:
 5686 2d10 4889C3   		movq	%rax, %rbx
 208:testCore.cpp  **** 	queueCommitTake(&queue);
 5687              		.loc 3 208 0
 5688 2d13 E8000000 		call	__cxa_end_catch
 5688      00
 5689 2d18 4889D8   		movq	%rbx, %rax
 5690 2d1b 4889C7   		movq	%rax, %rdi
 5691              	.LEHB329:
 5692 2d1e E8000000 		call	_Unwind_Resume
 5692      00
 5693              	.LEHE329:
 5694              	.L467:
 5695 2d23 EB00     		jmp	.L381
 5696              	.L466:
 5697              	.L381:
 211:testCore.cpp  **** 	CHECK_EQUAL(8UL, *item);
 5698              		.loc 3 211 0 is_stmt 1
 5699 2d25 4889C7   		movq	%rax, %rdi
 5700 2d28 E8000000 		call	__cxa_begin_catch
 5700      00
 5701              	.LEHB330:
 5702 2d2d E8000000 		call	_ZN8UnitTest11CurrentTest7DetailsEv
 5702      00
 5703 2d32 488B08   		movq	(%rax), %rcx
 5704 2d35 488D4590 		leaq	-112(%rbp), %rax
 5705 2d39 BAD30000 		movl	$211, %edx
 5705      00
 5706 2d3e 4889CE   		movq	%rcx, %rsi
 5707 2d41 4889C7   		movq	%rax, %rdi
 5708 2d44 E8000000 		call	_ZN8UnitTest11TestDetailsC1ERKS0_i
 5708      00
 211:testCore.cpp  **** 	CHECK_EQUAL(8UL, *item);
 5709              		.loc 3 211 0 is_stmt 0 discriminator 10
 5710 2d49 E8000000 		call	_ZN8UnitTest11CurrentTest7ResultsEv
 5710      00
 5711 2d4e 488B00   		movq	(%rax), %rax
 5712 2d51 488D4D90 		leaq	-112(%rbp), %rcx
 5713 2d55 BA000000 		movl	$.LC3, %edx
 5713      00
 5714 2d5a 4889CE   		movq	%rcx, %rsi
 5715 2d5d 4889C7   		movq	%rax, %rdi
 5716 2d60 E8000000 		call	_ZN8UnitTest11TestResults13OnTestFailureERKNS_11TestDetailsEPKc
 5716      00
 5717              	.LEHE330:
 5718              	.LEHB331:
 211:testCore.cpp  **** 	CHECK_EQUAL(8UL, *item);
 5719              		.loc 3 211 0 discriminator 14
 5720 2d65 E8000000 		call	__cxa_end_catch
 5720      00
 5721              	.LEHE331:
 5722 2d6a E918F7FF 		jmp	.L382
 5722      FF
 5723              	.L468:
 5724 2d6f 4889C3   		movq	%rax, %rbx
 211:testCore.cpp  **** 	CHECK_EQUAL(8UL, *item);
 5725              		.loc 3 211 0
 5726 2d72 E8000000 		call	__cxa_end_catch
 5726      00
 5727 2d77 4889D8   		movq	%rbx, %rax
 5728 2d7a 4889C7   		movq	%rax, %rdi
 5729              	.LEHB332:
 5730 2d7d E8000000 		call	_Unwind_Resume
 5730      00
 5731              	.LEHE332:
 5732              	.L470:
 5733 2d82 EB00     		jmp	.L385
 5734              	.L469:
 5735              	.L385:
 212:testCore.cpp  **** 	queueCommitTake(&queue);
 5736              		.loc 3 212 0 is_stmt 1
 5737 2d84 4889C7   		movq	%rax, %rdi
 5738 2d87 E8000000 		call	__cxa_begin_catch
 5738      00
 5739              	.LEHB333:
 5740 2d8c E8000000 		call	_ZN8UnitTest11CurrentTest7DetailsEv
 5740      00
 5741 2d91 488B08   		movq	(%rax), %rcx
 5742 2d94 488D4590 		leaq	-112(%rbp), %rax
 5743 2d98 BAD40000 		movl	$212, %edx
 5743      00
 5744 2d9d 4889CE   		movq	%rcx, %rsi
 5745 2da0 4889C7   		movq	%rax, %rdi
 5746 2da3 E8000000 		call	_ZN8UnitTest11TestDetailsC1ERKS0_i
 5746      00
 212:testCore.cpp  **** 	queueCommitTake(&queue);
 5747              		.loc 3 212 0 is_stmt 0 discriminator 10
 5748 2da8 E8000000 		call	_ZN8UnitTest11CurrentTest7ResultsEv
 5748      00
 5749 2dad 488B00   		movq	(%rax), %rax
 5750 2db0 488D4D90 		leaq	-112(%rbp), %rcx
 5751 2db4 BA000000 		movl	$.LC29, %edx
 5751      00
 5752 2db9 4889CE   		movq	%rcx, %rsi
 5753 2dbc 4889C7   		movq	%rax, %rdi
 5754 2dbf E8000000 		call	_ZN8UnitTest11TestResults13OnTestFailureERKNS_11TestDetailsEPKc
 5754      00
 5755              	.LEHE333:
 5756              	.LEHB334:
 212:testCore.cpp  **** 	queueCommitTake(&queue);
 5757              		.loc 3 212 0 discriminator 14
 5758 2dc4 E8000000 		call	__cxa_end_catch
 5758      00
 5759              	.LEHE334:
 5760 2dc9 E9FFF6FF 		jmp	.L386
 5760      FF
 5761              	.L471:
 5762 2dce 4889C3   		movq	%rax, %rbx
 212:testCore.cpp  **** 	queueCommitTake(&queue);
 5763              		.loc 3 212 0
 5764 2dd1 E8000000 		call	__cxa_end_catch
 5764      00
 5765 2dd6 4889D8   		movq	%rbx, %rax
 5766 2dd9 4889C7   		movq	%rax, %rdi
 5767              	.LEHB335:
 5768 2ddc E8000000 		call	_Unwind_Resume
 5768      00
 5769              	.LEHE335:
 5770              	.L473:
 5771 2de1 EB00     		jmp	.L389
 5772              	.L472:
 5773              	.L389:
 216:testCore.cpp  **** 	CHECK_EQUAL(0UL, queue.putIndex);
 5774              		.loc 3 216 0 is_stmt 1
 5775 2de3 4889C7   		movq	%rax, %rdi
 5776 2de6 E8000000 		call	__cxa_begin_catch
 5776      00
 5777              	.LEHB336:
 5778 2deb E8000000 		call	_ZN8UnitTest11CurrentTest7DetailsEv
 5778      00
 5779 2df0 488B08   		movq	(%rax), %rcx
 5780 2df3 488D4590 		leaq	-112(%rbp), %rax
 5781 2df7 BAD80000 		movl	$216, %edx
 5781      00
 5782 2dfc 4889CE   		movq	%rcx, %rsi
 5783 2dff 4889C7   		movq	%rax, %rdi
 5784 2e02 E8000000 		call	_ZN8UnitTest11TestDetailsC1ERKS0_i
 5784      00
 216:testCore.cpp  **** 	CHECK_EQUAL(0UL, queue.putIndex);
 5785              		.loc 3 216 0 is_stmt 0 discriminator 10
 5786 2e07 E8000000 		call	_ZN8UnitTest11CurrentTest7ResultsEv
 5786      00
 5787 2e0c 488B00   		movq	(%rax), %rax
 5788 2e0f 488D4D90 		leaq	-112(%rbp), %rcx
 5789 2e13 BA000000 		movl	$.LC4, %edx
 5789      00
 5790 2e18 4889CE   		movq	%rcx, %rsi
 5791 2e1b 4889C7   		movq	%rax, %rdi
 5792 2e1e E8000000 		call	_ZN8UnitTest11TestResults13OnTestFailureERKNS_11TestDetailsEPKc
 5792      00
 5793              	.LEHE336:
 5794              	.LEHB337:
 216:testCore.cpp  **** 	CHECK_EQUAL(0UL, queue.putIndex);
 5795              		.loc 3 216 0 discriminator 14
 5796 2e23 E8000000 		call	__cxa_end_catch
 5796      00
 5797              	.LEHE337:
 5798 2e28 E9F6F6FF 		jmp	.L390
 5798      FF
 5799              	.L474:
 5800 2e2d 4889C3   		movq	%rax, %rbx
 216:testCore.cpp  **** 	CHECK_EQUAL(0UL, queue.putIndex);
 5801              		.loc 3 216 0
 5802 2e30 E8000000 		call	__cxa_end_catch
 5802      00
 5803 2e35 4889D8   		movq	%rbx, %rax
 5804 2e38 4889C7   		movq	%rax, %rdi
 5805              	.LEHB338:
 5806 2e3b E8000000 		call	_Unwind_Resume
 5806      00
 5807              	.LEHE338:
 5808              	.L476:
 5809 2e40 EB00     		jmp	.L393
 5810              	.L475:
 5811              	.L393:
 217:testCore.cpp  **** 	CHECK_EQUAL(0UL, queue.takeIndex);
 5812              		.loc 3 217 0 is_stmt 1
 5813 2e42 4889C7   		movq	%rax, %rdi
 5814 2e45 E8000000 		call	__cxa_begin_catch
 5814      00
 5815              	.LEHB339:
 5816 2e4a E8000000 		call	_ZN8UnitTest11CurrentTest7DetailsEv
 5816      00
 5817 2e4f 488B08   		movq	(%rax), %rcx
 5818 2e52 488D4590 		leaq	-112(%rbp), %rax
 5819 2e56 BAD90000 		movl	$217, %edx
 5819      00
 5820 2e5b 4889CE   		movq	%rcx, %rsi
 5821 2e5e 4889C7   		movq	%rax, %rdi
 5822 2e61 E8000000 		call	_ZN8UnitTest11TestDetailsC1ERKS0_i
 5822      00
 217:testCore.cpp  **** 	CHECK_EQUAL(0UL, queue.takeIndex);
 5823              		.loc 3 217 0 is_stmt 0 discriminator 10
 5824 2e66 E8000000 		call	_ZN8UnitTest11CurrentTest7ResultsEv
 5824      00
 5825 2e6b 488B00   		movq	(%rax), %rax
 5826 2e6e 488D4D90 		leaq	-112(%rbp), %rcx
 5827 2e72 BA000000 		movl	$.LC5, %edx
 5827      00
 5828 2e77 4889CE   		movq	%rcx, %rsi
 5829 2e7a 4889C7   		movq	%rax, %rdi
 5830 2e7d E8000000 		call	_ZN8UnitTest11TestResults13OnTestFailureERKNS_11TestDetailsEPKc
 5830      00
 5831              	.LEHE339:
 5832              	.LEHB340:
 217:testCore.cpp  **** 	CHECK_EQUAL(0UL, queue.takeIndex);
 5833              		.loc 3 217 0 discriminator 14
 5834 2e82 E8000000 		call	__cxa_end_catch
 5834      00
 5835              	.LEHE340:
 5836 2e87 E9E1F6FF 		jmp	.L394
 5836      FF
 5837              	.L477:
 5838 2e8c 4889C3   		movq	%rax, %rbx
 217:testCore.cpp  **** 	CHECK_EQUAL(0UL, queue.takeIndex);
 5839              		.loc 3 217 0
 5840 2e8f E8000000 		call	__cxa_end_catch
 5840      00
 5841 2e94 4889D8   		movq	%rbx, %rax
 5842 2e97 4889C7   		movq	%rax, %rdi
 5843              	.LEHB341:
 5844 2e9a E8000000 		call	_Unwind_Resume
 5844      00
 5845              	.LEHE341:
 5846              	.L479:
 5847 2e9f EB00     		jmp	.L397
 5848              	.L478:
 5849              	.L397:
 218:testCore.cpp  **** 	CHECK_EQUAL(0UL, queue.numItems);
 5850              		.loc 3 218 0 is_stmt 1
 5851 2ea1 4889C7   		movq	%rax, %rdi
 5852 2ea4 E8000000 		call	__cxa_begin_catch
 5852      00
 5853              	.LEHB342:
 5854 2ea9 E8000000 		call	_ZN8UnitTest11CurrentTest7DetailsEv
 5854      00
 5855 2eae 488B08   		movq	(%rax), %rcx
 5856 2eb1 488D4590 		leaq	-112(%rbp), %rax
 5857 2eb5 BADA0000 		movl	$218, %edx
 5857      00
 5858 2eba 4889CE   		movq	%rcx, %rsi
 5859 2ebd 4889C7   		movq	%rax, %rdi
 5860 2ec0 E8000000 		call	_ZN8UnitTest11TestDetailsC1ERKS0_i
 5860      00
 218:testCore.cpp  **** 	CHECK_EQUAL(0UL, queue.numItems);
 5861              		.loc 3 218 0 is_stmt 0 discriminator 10
 5862 2ec5 E8000000 		call	_ZN8UnitTest11CurrentTest7ResultsEv
 5862      00
 5863 2eca 488B00   		movq	(%rax), %rax
 5864 2ecd 488D4D90 		leaq	-112(%rbp), %rcx
 5865 2ed1 BA000000 		movl	$.LC6, %edx
 5865      00
 5866 2ed6 4889CE   		movq	%rcx, %rsi
 5867 2ed9 4889C7   		movq	%rax, %rdi
 5868 2edc E8000000 		call	_ZN8UnitTest11TestResults13OnTestFailureERKNS_11TestDetailsEPKc
 5868      00
 5869              	.LEHE342:
 5870              	.LEHB343:
 218:testCore.cpp  **** 	CHECK_EQUAL(0UL, queue.numItems);
 5871              		.loc 3 218 0 discriminator 14
 5872 2ee1 E8000000 		call	__cxa_end_catch
 5872      00
 5873              	.LEHE343:
 5874 2ee6 E9CCF6FF 		jmp	.L398
 5874      FF
 5875              	.L480:
 5876 2eeb 4889C3   		movq	%rax, %rbx
 218:testCore.cpp  **** 	CHECK_EQUAL(0UL, queue.numItems);
 5877              		.loc 3 218 0
 5878 2eee E8000000 		call	__cxa_end_catch
 5878      00
 5879 2ef3 4889D8   		movq	%rbx, %rax
 5880 2ef6 4889C7   		movq	%rax, %rdi
 5881              	.LEHB344:
 5882 2ef9 E8000000 		call	_Unwind_Resume
 5882      00
 5883              	.LEHE344:
 5884              	.L482:
 5885 2efe EB00     		jmp	.L401
 5886              	.L481:
 5887              	.L401:
 219:testCore.cpp  **** 
 5888              		.loc 3 219 0 is_stmt 1
 5889 2f00 4889C7   		movq	%rax, %rdi
 5890 2f03 E8000000 		call	__cxa_begin_catch
 5890      00
 5891              	.LEHB345:
 5892 2f08 E8000000 		call	_ZN8UnitTest11CurrentTest7DetailsEv
 5892      00
 5893 2f0d 488B08   		movq	(%rax), %rcx
 5894 2f10 488D4590 		leaq	-112(%rbp), %rax
 5895 2f14 BADB0000 		movl	$219, %edx
 5895      00
 5896 2f19 4889CE   		movq	%rcx, %rsi
 5897 2f1c 4889C7   		movq	%rax, %rdi
 5898 2f1f E8000000 		call	_ZN8UnitTest11TestDetailsC1ERKS0_i
 5898      00
 219:testCore.cpp  **** 
 5899              		.loc 3 219 0 is_stmt 0 discriminator 10
 5900 2f24 E8000000 		call	_ZN8UnitTest11CurrentTest7ResultsEv
 5900      00
 5901 2f29 488B00   		movq	(%rax), %rax
 5902 2f2c 488D4D90 		leaq	-112(%rbp), %rcx
 5903 2f30 BA000000 		movl	$.LC7, %edx
 5903      00
 5904 2f35 4889CE   		movq	%rcx, %rsi
 5905 2f38 4889C7   		movq	%rax, %rdi
 5906 2f3b E8000000 		call	_ZN8UnitTest11TestResults13OnTestFailureERKNS_11TestDetailsEPKc
 5906      00
 5907              	.LEHE345:
 5908              	.LEHB346:
 219:testCore.cpp  **** 
 5909              		.loc 3 219 0 discriminator 14
 5910 2f40 E8000000 		call	__cxa_end_catch
 5910      00
 5911              	.LEHE346:
 5912 2f45 E9B7F6FF 		jmp	.L402
 5912      FF
 5913              	.L483:
 5914 2f4a 4889C3   		movq	%rax, %rbx
 219:testCore.cpp  **** 
 5915              		.loc 3 219 0
 5916 2f4d E8000000 		call	__cxa_end_catch
 5916      00
 5917 2f52 4889D8   		movq	%rbx, %rax
 5918 2f55 4889C7   		movq	%rax, %rdi
 5919              	.LEHB347:
 5920 2f58 E8000000 		call	_Unwind_Resume
 5920      00
 5921              	.LEHE347:
 5922              	.L485:
 5923 2f5d EB00     		jmp	.L405
 5924              	.L484:
 5925              	.L405:
 222:testCore.cpp  **** 	CHECK_EQUAL(6UL, deref(queue.itemArray[1]));
 5926              		.loc 3 222 0 is_stmt 1
 5927 2f5f 4889C7   		movq	%rax, %rdi
 5928 2f62 E8000000 		call	__cxa_begin_catch
 5928      00
 5929              	.LEHB348:
 5930 2f67 E8000000 		call	_ZN8UnitTest11CurrentTest7DetailsEv
 5930      00
 5931 2f6c 488B08   		movq	(%rax), %rcx
 5932 2f6f 488D4590 		leaq	-112(%rbp), %rax
 5933 2f73 BADE0000 		movl	$222, %edx
 5933      00
 5934 2f78 4889CE   		movq	%rcx, %rsi
 5935 2f7b 4889C7   		movq	%rax, %rdi
 5936 2f7e E8000000 		call	_ZN8UnitTest11TestDetailsC1ERKS0_i
 5936      00
 222:testCore.cpp  **** 	CHECK_EQUAL(6UL, deref(queue.itemArray[1]));
 5937              		.loc 3 222 0 is_stmt 0 discriminator 10
 5938 2f83 E8000000 		call	_ZN8UnitTest11CurrentTest7ResultsEv
 5938      00
 5939 2f88 488B00   		movq	(%rax), %rax
 5940 2f8b 488D4D90 		leaq	-112(%rbp), %rcx
 5941 2f8f BA000000 		movl	$.LC18, %edx
 5941      00
 5942 2f94 4889CE   		movq	%rcx, %rsi
 5943 2f97 4889C7   		movq	%rax, %rdi
 5944 2f9a E8000000 		call	_ZN8UnitTest11TestResults13OnTestFailureERKNS_11TestDetailsEPKc
 5944      00
 5945              	.LEHE348:
 5946              	.LEHB349:
 222:testCore.cpp  **** 	CHECK_EQUAL(6UL, deref(queue.itemArray[1]));
 5947              		.loc 3 222 0 discriminator 14
 5948 2f9f E8000000 		call	__cxa_end_catch
 5948      00
 5949              	.LEHE349:
 5950 2fa4 E9B0F6FF 		jmp	.L406
 5950      FF
 5951              	.L486:
 5952 2fa9 4889C3   		movq	%rax, %rbx
 222:testCore.cpp  **** 	CHECK_EQUAL(6UL, deref(queue.itemArray[1]));
 5953              		.loc 3 222 0
 5954 2fac E8000000 		call	__cxa_end_catch
 5954      00
 5955 2fb1 4889D8   		movq	%rbx, %rax
 5956 2fb4 4889C7   		movq	%rax, %rdi
 5957              	.LEHB350:
 5958 2fb7 E8000000 		call	_Unwind_Resume
 5958      00
 5959              	.LEHE350:
 5960              	.L488:
 5961 2fbc EB00     		jmp	.L409
 5962              	.L487:
 5963              	.L409:
 223:testCore.cpp  **** 	CHECK_EQUAL(7UL, deref(queue.itemArray[2]));
 5964              		.loc 3 223 0 is_stmt 1
 5965 2fbe 4889C7   		movq	%rax, %rdi
 5966 2fc1 E8000000 		call	__cxa_begin_catch
 5966      00
 5967              	.LEHB351:
 5968 2fc6 E8000000 		call	_ZN8UnitTest11CurrentTest7DetailsEv
 5968      00
 5969 2fcb 488B08   		movq	(%rax), %rcx
 5970 2fce 488D4590 		leaq	-112(%rbp), %rax
 5971 2fd2 BADF0000 		movl	$223, %edx
 5971      00
 5972 2fd7 4889CE   		movq	%rcx, %rsi
 5973 2fda 4889C7   		movq	%rax, %rdi
 5974 2fdd E8000000 		call	_ZN8UnitTest11TestDetailsC1ERKS0_i
 5974      00
 223:testCore.cpp  **** 	CHECK_EQUAL(7UL, deref(queue.itemArray[2]));
 5975              		.loc 3 223 0 is_stmt 0 discriminator 10
 5976 2fe2 E8000000 		call	_ZN8UnitTest11CurrentTest7ResultsEv
 5976      00
 5977 2fe7 488B00   		movq	(%rax), %rax
 5978 2fea 488D4D90 		leaq	-112(%rbp), %rcx
 5979 2fee BA000000 		movl	$.LC19, %edx
 5979      00
 5980 2ff3 4889CE   		movq	%rcx, %rsi
 5981 2ff6 4889C7   		movq	%rax, %rdi
 5982 2ff9 E8000000 		call	_ZN8UnitTest11TestResults13OnTestFailureERKNS_11TestDetailsEPKc
 5982      00
 5983              	.LEHE351:
 5984              	.LEHB352:
 223:testCore.cpp  **** 	CHECK_EQUAL(7UL, deref(queue.itemArray[2]));
 5985              		.loc 3 223 0 discriminator 14
 5986 2ffe E8000000 		call	__cxa_end_catch
 5986      00
 5987              	.LEHE352:
 5988 3003 E9ADF6FF 		jmp	.L410
 5988      FF
 5989              	.L489:
 5990 3008 4889C3   		movq	%rax, %rbx
 223:testCore.cpp  **** 	CHECK_EQUAL(7UL, deref(queue.itemArray[2]));
 5991              		.loc 3 223 0
 5992 300b E8000000 		call	__cxa_end_catch
 5992      00
 5993 3010 4889D8   		movq	%rbx, %rax
 5994 3013 4889C7   		movq	%rax, %rdi
 5995              	.LEHB353:
 5996 3016 E8000000 		call	_Unwind_Resume
 5996      00
 5997              	.LEHE353:
 5998              	.L491:
 5999 301b EB00     		jmp	.L413
 6000              	.L490:
 6001              	.L413:
 224:testCore.cpp  **** 	CHECK_EQUAL(8UL, deref(queue.itemArray[3]));
 6002              		.loc 3 224 0 is_stmt 1
 6003 301d 4889C7   		movq	%rax, %rdi
 6004 3020 E8000000 		call	__cxa_begin_catch
 6004      00
 6005              	.LEHB354:
 6006 3025 E8000000 		call	_ZN8UnitTest11CurrentTest7DetailsEv
 6006      00
 6007 302a 488B08   		movq	(%rax), %rcx
 6008 302d 488D4590 		leaq	-112(%rbp), %rax
 6009 3031 BAE00000 		movl	$224, %edx
 6009      00
 6010 3036 4889CE   		movq	%rcx, %rsi
 6011 3039 4889C7   		movq	%rax, %rdi
 6012 303c E8000000 		call	_ZN8UnitTest11TestDetailsC1ERKS0_i
 6012      00
 224:testCore.cpp  **** 	CHECK_EQUAL(8UL, deref(queue.itemArray[3]));
 6013              		.loc 3 224 0 is_stmt 0 discriminator 10
 6014 3041 E8000000 		call	_ZN8UnitTest11CurrentTest7ResultsEv
 6014      00
 6015 3046 488B00   		movq	(%rax), %rax
 6016 3049 488D4D90 		leaq	-112(%rbp), %rcx
 6017 304d BA000000 		movl	$.LC20, %edx
 6017      00
 6018 3052 4889CE   		movq	%rcx, %rsi
 6019 3055 4889C7   		movq	%rax, %rdi
 6020 3058 E8000000 		call	_ZN8UnitTest11TestResults13OnTestFailureERKNS_11TestDetailsEPKc
 6020      00
 6021              	.LEHE354:
 6022              	.LEHB355:
 224:testCore.cpp  **** 	CHECK_EQUAL(8UL, deref(queue.itemArray[3]));
 6023              		.loc 3 224 0 discriminator 14
 6024 305d E8000000 		call	__cxa_end_catch
 6024      00
 6025              	.LEHE355:
 6026 3062 E9AAF6FF 		jmp	.L414
 6026      FF
 6027              	.L492:
 6028 3067 4889C3   		movq	%rax, %rbx
 224:testCore.cpp  **** 	CHECK_EQUAL(8UL, deref(queue.itemArray[3]));
 6029              		.loc 3 224 0
 6030 306a E8000000 		call	__cxa_end_catch
 6030      00
 6031 306f 4889D8   		movq	%rbx, %rax
 6032 3072 4889C7   		movq	%rax, %rdi
 6033              	.LEHB356:
 6034 3075 E8000000 		call	_Unwind_Resume
 6034      00
 6035              	.LEHE356:
 6036              	.L494:
 6037 307a EB00     		jmp	.L417
 6038              	.L493:
 6039              	.L417:
 225:testCore.cpp  **** 
 6040              		.loc 3 225 0 is_stmt 1
 6041 307c 4889C7   		movq	%rax, %rdi
 6042 307f E8000000 		call	__cxa_begin_catch
 6042      00
 6043              	.LEHB357:
 6044 3084 E8000000 		call	_ZN8UnitTest11CurrentTest7DetailsEv
 6044      00
 6045 3089 488B08   		movq	(%rax), %rcx
 6046 308c 488D4590 		leaq	-112(%rbp), %rax
 6047 3090 BAE10000 		movl	$225, %edx
 6047      00
 6048 3095 4889CE   		movq	%rcx, %rsi
 6049 3098 4889C7   		movq	%rax, %rdi
 6050 309b E8000000 		call	_ZN8UnitTest11TestDetailsC1ERKS0_i
 6050      00
 225:testCore.cpp  **** 
 6051              		.loc 3 225 0 is_stmt 0 discriminator 10
 6052 30a0 E8000000 		call	_ZN8UnitTest11CurrentTest7ResultsEv
 6052      00
 6053 30a5 488B00   		movq	(%rax), %rax
 6054 30a8 488D4D90 		leaq	-112(%rbp), %rcx
 6055 30ac BA000000 		movl	$.LC24, %edx
 6055      00
 6056 30b1 4889CE   		movq	%rcx, %rsi
 6057 30b4 4889C7   		movq	%rax, %rdi
 6058 30b7 E8000000 		call	_ZN8UnitTest11TestResults13OnTestFailureERKNS_11TestDetailsEPKc
 6058      00
 6059              	.LEHE357:
 6060              	.LEHB358:
 225:testCore.cpp  **** 
 6061              		.loc 3 225 0 discriminator 14
 6062 30bc E8000000 		call	__cxa_end_catch
 6062      00
 6063              	.LEHE358:
 6064 30c1 E9A7F6FF 		jmp	.L418
 6064      FF
 6065              	.L495:
 6066 30c6 4889C3   		movq	%rax, %rbx
 225:testCore.cpp  **** 
 6067              		.loc 3 225 0
 6068 30c9 E8000000 		call	__cxa_end_catch
 6068      00
 6069 30ce 4889D8   		movq	%rbx, %rax
 6070 30d1 4889C7   		movq	%rax, %rdi
 6071              	.LEHB359:
 6072 30d4 E8000000 		call	_Unwind_Resume
 6072      00
 6073              	.LEHE359:
 6074              	.L496:
 6075              		.loc 3 229 0 is_stmt 1
 6076 30d9 E8000000 		call	__stack_chk_fail
 6076      00
 6077              	.L420:
 6078 30de 4881C498 		addq	$152, %rsp
 6078      000000
 6079 30e5 5B       		popq	%rbx
 6080 30e6 5D       		popq	%rbp
 6081              		.cfi_def_cfa 7, 8
 6082 30e7 C3       		ret
 6083              		.cfi_endproc
 6084              	.LFE1096:
 6085              		.section	.gcc_except_table
 6086              		.align 4
 6087              	.LLSDA1096:
 6088 04f0 FF       		.byte	0xff
 6089 04f1 03       		.byte	0x3
 6090 04f2 FC05     		.uleb128 .LLSDATT1096-.LLSDATTD1096
 6091              	.LLSDATTD1096:
 6092 04f4 01       		.byte	0x1
 6093 04f5 F005     		.uleb128 .LLSDACSE1096-.LLSDACSB1096
 6094              	.LLSDACSB1096:
 6095 04f7 42       		.uleb128 .LEHB224-.LFB1096
 6096 04f8 05       		.uleb128 .LEHE224-.LEHB224
 6097 04f9 00       		.uleb128 0
 6098 04fa 00       		.uleb128 0
 6099 04fb 4D       		.uleb128 .LEHB225-.LFB1096
 6100 04fc 1C       		.uleb128 .LEHE225-.LEHB225
 6101 04fd DA11     		.uleb128 .L421-.LFB1096
 6102 04ff 01       		.uleb128 0x1
 6103 0500 70       		.uleb128 .LEHB226-.LFB1096
 6104 0501 1F       		.uleb128 .LEHE226-.LEHB226
 6105 0502 D811     		.uleb128 .L422-.LFB1096
 6106 0504 03       		.uleb128 0x3
 6107 0505 9D01     		.uleb128 .LEHB227-.LFB1096
 6108 0507 05       		.uleb128 .LEHE227-.LEHB227
 6109 0508 00       		.uleb128 0
 6110 0509 00       		.uleb128 0
 6111 050a A801     		.uleb128 .LEHB228-.LFB1096
 6112 050c 1C       		.uleb128 .LEHE228-.LEHB228
 6113 050d B912     		.uleb128 .L424-.LFB1096
 6114 050f 01       		.uleb128 0x1
 6115 0510 CB01     		.uleb128 .LEHB229-.LFB1096
 6116 0512 1F       		.uleb128 .LEHE229-.LEHB229
 6117 0513 B712     		.uleb128 .L425-.LFB1096
 6118 0515 03       		.uleb128 0x3
 6119 0516 EA01     		.uleb128 .LEHB230-.LFB1096
 6120 0518 1C       		.uleb128 .LEHE230-.LEHB230
 6121 0519 9813     		.uleb128 .L427-.LFB1096
 6122 051b 01       		.uleb128 0x1
 6123 051c 9202     		.uleb128 .LEHB231-.LFB1096
 6124 051e 1E       		.uleb128 .LEHE231-.LEHB231
 6125 051f 9613     		.uleb128 .L428-.LFB1096
 6126 0521 03       		.uleb128 0x3
 6127 0522 C102     		.uleb128 .LEHB232-.LFB1096
 6128 0524 18       		.uleb128 .LEHE232-.LEHB232
 6129 0525 00       		.uleb128 0
 6130 0526 00       		.uleb128 0
 6131 0527 DF02     		.uleb128 .LEHB233-.LFB1096
 6132 0529 1C       		.uleb128 .LEHE233-.LEHB233
 6133 052a F713     		.uleb128 .L430-.LFB1096
 6134 052c 01       		.uleb128 0x1
 6135 052d 8203     		.uleb128 .LEHB234-.LFB1096
 6136 052f 1F       		.uleb128 .LEHE234-.LEHB234
 6137 0530 F513     		.uleb128 .L431-.LFB1096
 6138 0532 03       		.uleb128 0x3
 6139 0533 A103     		.uleb128 .LEHB235-.LFB1096
 6140 0535 1C       		.uleb128 .LEHE235-.LEHB235
 6141 0536 D614     		.uleb128 .L433-.LFB1096
 6142 0538 01       		.uleb128 0x1
 6143 0539 C903     		.uleb128 .LEHB236-.LFB1096
 6144 053b 1E       		.uleb128 .LEHE236-.LEHB236
 6145 053c D414     		.uleb128 .L434-.LFB1096
 6146 053e 03       		.uleb128 0x3
 6147 053f F803     		.uleb128 .LEHB237-.LFB1096
 6148 0541 18       		.uleb128 .LEHE237-.LEHB237
 6149 0542 00       		.uleb128 0
 6150 0543 00       		.uleb128 0
 6151 0544 9604     		.uleb128 .LEHB238-.LFB1096
 6152 0546 1C       		.uleb128 .LEHE238-.LEHB238
 6153 0547 B515     		.uleb128 .L436-.LFB1096
 6154 0549 01       		.uleb128 0x1
 6155 054a B904     		.uleb128 .LEHB239-.LFB1096
 6156 054c 1F       		.uleb128 .LEHE239-.LEHB239
 6157 054d B315     		.uleb128 .L437-.LFB1096
 6158 054f 03       		.uleb128 0x3
 6159 0550 D804     		.uleb128 .LEHB240-.LFB1096
 6160 0552 1C       		.uleb128 .LEHE240-.LEHB240
 6161 0553 9416     		.uleb128 .L439-.LFB1096
 6162 0555 01       		.uleb128 0x1
 6163 0556 8005     		.uleb128 .LEHB241-.LFB1096
 6164 0558 1E       		.uleb128 .LEHE241-.LEHB241
 6165 0559 9216     		.uleb128 .L440-.LFB1096
 6166 055b 03       		.uleb128 0x3
 6167 055c AF05     		.uleb128 .LEHB242-.LFB1096
 6168 055e 18       		.uleb128 .LEHE242-.LEHB242
 6169 055f 00       		.uleb128 0
 6170 0560 00       		.uleb128 0
 6171 0561 CD05     		.uleb128 .LEHB243-.LFB1096
 6172 0563 1C       		.uleb128 .LEHE243-.LEHB243
 6173 0564 F316     		.uleb128 .L442-.LFB1096
 6174 0566 01       		.uleb128 0x1
 6175 0567 F005     		.uleb128 .LEHB244-.LFB1096
 6176 0569 1F       		.uleb128 .LEHE244-.LEHB244
 6177 056a F116     		.uleb128 .L443-.LFB1096
 6178 056c 03       		.uleb128 0x3
 6179 056d 8F06     		.uleb128 .LEHB245-.LFB1096
 6180 056f 1C       		.uleb128 .LEHE245-.LEHB245
 6181 0570 D217     		.uleb128 .L445-.LFB1096
 6182 0572 01       		.uleb128 0x1
 6183 0573 B706     		.uleb128 .LEHB246-.LFB1096
 6184 0575 1E       		.uleb128 .LEHE246-.LEHB246
 6185 0576 D017     		.uleb128 .L446-.LFB1096
 6186 0578 03       		.uleb128 0x3
 6187 0579 E606     		.uleb128 .LEHB247-.LFB1096
 6188 057b 18       		.uleb128 .LEHE247-.LEHB247
 6189 057c 00       		.uleb128 0
 6190 057d 00       		.uleb128 0
 6191 057e 8407     		.uleb128 .LEHB248-.LFB1096
 6192 0580 1C       		.uleb128 .LEHE248-.LEHB248
 6193 0581 B118     		.uleb128 .L448-.LFB1096
 6194 0583 01       		.uleb128 0x1
 6195 0584 A707     		.uleb128 .LEHB249-.LFB1096
 6196 0586 1F       		.uleb128 .LEHE249-.LEHB249
 6197 0587 AF18     		.uleb128 .L449-.LFB1096
 6198 0589 03       		.uleb128 0x3
 6199 058a C607     		.uleb128 .LEHB250-.LFB1096
 6200 058c 1C       		.uleb128 .LEHE250-.LEHB250
 6201 058d 9019     		.uleb128 .L451-.LFB1096
 6202 058f 01       		.uleb128 0x1
 6203 0590 EE07     		.uleb128 .LEHB251-.LFB1096
 6204 0592 1E       		.uleb128 .LEHE251-.LEHB251
 6205 0593 8E19     		.uleb128 .L452-.LFB1096
 6206 0595 03       		.uleb128 0x3
 6207 0596 9308     		.uleb128 .LEHB252-.LFB1096
 6208 0598 18       		.uleb128 .LEHE252-.LEHB252
 6209 0599 00       		.uleb128 0
 6210 059a 00       		.uleb128 0
 6211 059b B108     		.uleb128 .LEHB253-.LFB1096
 6212 059d 1C       		.uleb128 .LEHE253-.LEHB253
 6213 059e EF19     		.uleb128 .L454-.LFB1096
 6214 05a0 01       		.uleb128 0x1
 6215 05a1 D408     		.uleb128 .LEHB254-.LFB1096
 6216 05a3 1F       		.uleb128 .LEHE254-.LEHB254
 6217 05a4 ED19     		.uleb128 .L455-.LFB1096
 6218 05a6 03       		.uleb128 0x3
 6219 05a7 F308     		.uleb128 .LEHB255-.LFB1096
 6220 05a9 1C       		.uleb128 .LEHE255-.LEHB255
 6221 05aa CE1A     		.uleb128 .L457-.LFB1096
 6222 05ac 01       		.uleb128 0x1
 6223 05ad 9B09     		.uleb128 .LEHB256-.LFB1096
 6224 05af 1E       		.uleb128 .LEHE256-.LEHB256
 6225 05b0 CC1A     		.uleb128 .L458-.LFB1096
 6226 05b2 03       		.uleb128 0x3
 6227 05b3 C009     		.uleb128 .LEHB257-.LFB1096
 6228 05b5 18       		.uleb128 .LEHE257-.LEHB257
 6229 05b6 00       		.uleb128 0
 6230 05b7 00       		.uleb128 0
 6231 05b8 DE09     		.uleb128 .LEHB258-.LFB1096
 6232 05ba 1C       		.uleb128 .LEHE258-.LEHB258
 6233 05bb AD1B     		.uleb128 .L460-.LFB1096
 6234 05bd 01       		.uleb128 0x1
 6235 05be 810A     		.uleb128 .LEHB259-.LFB1096
 6236 05c0 1F       		.uleb128 .LEHE259-.LEHB259
 6237 05c1 AB1B     		.uleb128 .L461-.LFB1096
 6238 05c3 03       		.uleb128 0x3
 6239 05c4 A00A     		.uleb128 .LEHB260-.LFB1096
 6240 05c6 1C       		.uleb128 .LEHE260-.LEHB260
 6241 05c7 8C1C     		.uleb128 .L463-.LFB1096
 6242 05c9 01       		.uleb128 0x1
 6243 05ca C80A     		.uleb128 .LEHB261-.LFB1096
 6244 05cc 1E       		.uleb128 .LEHE261-.LEHB261
 6245 05cd 8A1C     		.uleb128 .L464-.LFB1096
 6246 05cf 03       		.uleb128 0x3
 6247 05d0 ED0A     		.uleb128 .LEHB262-.LFB1096
 6248 05d2 18       		.uleb128 .LEHE262-.LEHB262
 6249 05d3 00       		.uleb128 0
 6250 05d4 00       		.uleb128 0
 6251 05d5 8B0B     		.uleb128 .LEHB263-.LFB1096
 6252 05d7 1C       		.uleb128 .LEHE263-.LEHB263
 6253 05d8 EB1C     		.uleb128 .L466-.LFB1096
 6254 05da 01       		.uleb128 0x1
 6255 05db AE0B     		.uleb128 .LEHB264-.LFB1096
 6256 05dd 1F       		.uleb128 .LEHE264-.LEHB264
 6257 05de E91C     		.uleb128 .L467-.LFB1096
 6258 05e0 03       		.uleb128 0x3
 6259 05e1 CD0B     		.uleb128 .LEHB265-.LFB1096
 6260 05e3 1C       		.uleb128 .LEHE265-.LEHB265
 6261 05e4 CA1D     		.uleb128 .L469-.LFB1096
 6262 05e6 01       		.uleb128 0x1
 6263 05e7 F50B     		.uleb128 .LEHB266-.LFB1096
 6264 05e9 1E       		.uleb128 .LEHE266-.LEHB266
 6265 05ea C81D     		.uleb128 .L470-.LFB1096
 6266 05ec 03       		.uleb128 0x3
 6267 05ed 9A0C     		.uleb128 .LEHB267-.LFB1096
 6268 05ef 05       		.uleb128 .LEHE267-.LEHB267
 6269 05f0 00       		.uleb128 0
 6270 05f1 00       		.uleb128 0
 6271 05f2 9F0C     		.uleb128 .LEHB268-.LFB1096
 6272 05f4 1C       		.uleb128 .LEHE268-.LEHB268
 6273 05f5 A91E     		.uleb128 .L472-.LFB1096
 6274 05f7 01       		.uleb128 0x1
 6275 05f8 C30C     		.uleb128 .LEHB269-.LFB1096
 6276 05fa 26       		.uleb128 .LEHE269-.LEHB269
 6277 05fb A71E     		.uleb128 .L473-.LFB1096
 6278 05fd 03       		.uleb128 0x3
 6279 05fe E90C     		.uleb128 .LEHB270-.LFB1096
 6280 0600 1C       		.uleb128 .LEHE270-.LEHB270
 6281 0601 881F     		.uleb128 .L475-.LFB1096
 6282 0603 01       		.uleb128 0x1
 6283 0604 8D0D     		.uleb128 .LEHB271-.LFB1096
 6284 0606 26       		.uleb128 .LEHE271-.LEHB271
 6285 0607 861F     		.uleb128 .L476-.LFB1096
 6286 0609 03       		.uleb128 0x3
 6287 060a B30D     		.uleb128 .LEHB272-.LFB1096
 6288 060c 1C       		.uleb128 .LEHE272-.LEHB272
 6289 060d E71F     		.uleb128 .L478-.LFB1096
 6290 060f 01       		.uleb128 0x1
 6291 0610 D70D     		.uleb128 .LEHB273-.LFB1096
 6292 0612 26       		.uleb128 .LEHE273-.LEHB273
 6293 0613 E51F     		.uleb128 .L479-.LFB1096
 6294 0615 03       		.uleb128 0x3
 6295 0616 FD0D     		.uleb128 .LEHB274-.LFB1096
 6296 0618 1C       		.uleb128 .LEHE274-.LEHB274
 6297 0619 C620     		.uleb128 .L481-.LFB1096
 6298 061b 01       		.uleb128 0x1
 6299 061c A10E     		.uleb128 .LEHB275-.LFB1096
 6300 061e 26       		.uleb128 .LEHE275-.LEHB275
 6301 061f C420     		.uleb128 .L482-.LFB1096
 6302 0621 03       		.uleb128 0x3
 6303 0622 C70E     		.uleb128 .LEHB276-.LFB1096
 6304 0624 1C       		.uleb128 .LEHE276-.LEHB276
 6305 0625 A521     		.uleb128 .L484-.LFB1096
 6306 0627 01       		.uleb128 0x1
 6307 0628 800F     		.uleb128 .LEHB277-.LFB1096
 6308 062a 1F       		.uleb128 .LEHE277-.LEHB277
 6309 062b A321     		.uleb128 .L485-.LFB1096
 6310 062d 03       		.uleb128 0x3
 6311 062e 9F0F     		.uleb128 .LEHB278-.LFB1096
 6312 0630 1C       		.uleb128 .LEHE278-.LEHB278
 6313 0631 8422     		.uleb128 .L487-.LFB1096
 6314 0633 01       		.uleb128 0x1
 6315 0634 DC0F     		.uleb128 .LEHB279-.LFB1096
 6316 0636 1F       		.uleb128 .LEHE279-.LEHB279
 6317 0637 8222     		.uleb128 .L488-.LFB1096
 6318 0639 03       		.uleb128 0x3
 6319 063a FB0F     		.uleb128 .LEHB280-.LFB1096
 6320 063c 1C       		.uleb128 .LEHE280-.LEHB280
 6321 063d E322     		.uleb128 .L490-.LFB1096
 6322 063f 01       		.uleb128 0x1
 6323 0640 B810     		.uleb128 .LEHB281-.LFB1096
 6324 0642 1F       		.uleb128 .LEHE281-.LEHB281
 6325 0643 E122     		.uleb128 .L491-.LFB1096
 6326 0645 03       		.uleb128 0x3
 6327 0646 D710     		.uleb128 .LEHB282-.LFB1096
 6328 0648 1C       		.uleb128 .LEHE282-.LEHB282
 6329 0649 C223     		.uleb128 .L493-.LFB1096
 6330 064b 01       		.uleb128 0x1
 6331 064c 9411     		.uleb128 .LEHB283-.LFB1096
 6332 064e 1F       		.uleb128 .LEHE283-.LEHB283
 6333 064f C023     		.uleb128 .L494-.LFB1096
 6334 0651 03       		.uleb128 0x3
 6335 0652 BA11     		.uleb128 .LEHB284-.LFB1096
 6336 0654 05       		.uleb128 .LEHE284-.LEHB284
 6337 0655 00       		.uleb128 0
 6338 0656 00       		.uleb128 0
 6339 0657 E211     		.uleb128 .LEHB285-.LFB1096
 6340 0659 38       		.uleb128 .LEHE285-.LEHB285
 6341 065a A412     		.uleb128 .L423-.LFB1096
 6342 065c 00       		.uleb128 0
 6343 065d 9A12     		.uleb128 .LEHB286-.LFB1096
 6344 065f 05       		.uleb128 .LEHE286-.LEHB286
 6345 0660 00       		.uleb128 0
 6346 0661 00       		.uleb128 0
 6347 0662 B212     		.uleb128 .LEHB287-.LFB1096
 6348 0664 05       		.uleb128 .LEHE287-.LEHB287
 6349 0665 00       		.uleb128 0
 6350 0666 00       		.uleb128 0
 6351 0667 C112     		.uleb128 .LEHB288-.LFB1096
 6352 0669 38       		.uleb128 .LEHE288-.LEHB288
 6353 066a 8313     		.uleb128 .L426-.LFB1096
 6354 066c 00       		.uleb128 0
 6355 066d F912     		.uleb128 .LEHB289-.LFB1096
 6356 066f 05       		.uleb128 .LEHE289-.LEHB289
 6357 0670 00       		.uleb128 0
 6358 0671 00       		.uleb128 0
 6359 0672 9113     		.uleb128 .LEHB290-.LFB1096
 6360 0674 05       		.uleb128 .LEHE290-.LEHB290
 6361 0675 00       		.uleb128 0
 6362 0676 00       		.uleb128 0
 6363 0677 A013     		.uleb128 .LEHB291-.LFB1096
 6364 0679 38       		.uleb128 .LEHE291-.LEHB291
 6365 067a E213     		.uleb128 .L429-.LFB1096
 6366 067c 00       		.uleb128 0
 6367 067d D813     		.uleb128 .LEHB292-.LFB1096
 6368 067f 05       		.uleb128 .LEHE292-.LEHB292
 6369 0680 00       		.uleb128 0
 6370 0681 00       		.uleb128 0
 6371 0682 F013     		.uleb128 .LEHB293-.LFB1096
 6372 0684 05       		.uleb128 .LEHE293-.LEHB293
 6373 0685 00       		.uleb128 0
 6374 0686 00       		.uleb128 0
 6375 0687 FF13     		.uleb128 .LEHB294-.LFB1096
 6376 0689 38       		.uleb128 .LEHE294-.LEHB294
 6377 068a C114     		.uleb128 .L432-.LFB1096
 6378 068c 00       		.uleb128 0
 6379 068d B714     		.uleb128 .LEHB295-.LFB1096
 6380 068f 05       		.uleb128 .LEHE295-.LEHB295
 6381 0690 00       		.uleb128 0
 6382 0691 00       		.uleb128 0
 6383 0692 CF14     		.uleb128 .LEHB296-.LFB1096
 6384 0694 05       		.uleb128 .LEHE296-.LEHB296
 6385 0695 00       		.uleb128 0
 6386 0696 00       		.uleb128 0
 6387 0697 DE14     		.uleb128 .LEHB297-.LFB1096
 6388 0699 38       		.uleb128 .LEHE297-.LEHB297
 6389 069a A015     		.uleb128 .L435-.LFB1096
 6390 069c 00       		.uleb128 0
 6391 069d 9615     		.uleb128 .LEHB298-.LFB1096
 6392 069f 05       		.uleb128 .LEHE298-.LEHB298
 6393 06a0 00       		.uleb128 0
 6394 06a1 00       		.uleb128 0
 6395 06a2 AE15     		.uleb128 .LEHB299-.LFB1096
 6396 06a4 05       		.uleb128 .LEHE299-.LEHB299
 6397 06a5 00       		.uleb128 0
 6398 06a6 00       		.uleb128 0
 6399 06a7 BD15     		.uleb128 .LEHB300-.LFB1096
 6400 06a9 38       		.uleb128 .LEHE300-.LEHB300
 6401 06aa FF15     		.uleb128 .L438-.LFB1096
 6402 06ac 00       		.uleb128 0
 6403 06ad F515     		.uleb128 .LEHB301-.LFB1096
 6404 06af 05       		.uleb128 .LEHE301-.LEHB301
 6405 06b0 00       		.uleb128 0
 6406 06b1 00       		.uleb128 0
 6407 06b2 8D16     		.uleb128 .LEHB302-.LFB1096
 6408 06b4 05       		.uleb128 .LEHE302-.LEHB302
 6409 06b5 00       		.uleb128 0
 6410 06b6 00       		.uleb128 0
 6411 06b7 9C16     		.uleb128 .LEHB303-.LFB1096
 6412 06b9 38       		.uleb128 .LEHE303-.LEHB303
 6413 06ba DE16     		.uleb128 .L441-.LFB1096
 6414 06bc 00       		.uleb128 0
 6415 06bd D416     		.uleb128 .LEHB304-.LFB1096
 6416 06bf 05       		.uleb128 .LEHE304-.LEHB304
 6417 06c0 00       		.uleb128 0
 6418 06c1 00       		.uleb128 0
 6419 06c2 EC16     		.uleb128 .LEHB305-.LFB1096
 6420 06c4 05       		.uleb128 .LEHE305-.LEHB305
 6421 06c5 00       		.uleb128 0
 6422 06c6 00       		.uleb128 0
 6423 06c7 FB16     		.uleb128 .LEHB306-.LFB1096
 6424 06c9 38       		.uleb128 .LEHE306-.LEHB306
 6425 06ca BD17     		.uleb128 .L444-.LFB1096
 6426 06cc 00       		.uleb128 0
 6427 06cd B317     		.uleb128 .LEHB307-.LFB1096
 6428 06cf 05       		.uleb128 .LEHE307-.LEHB307
 6429 06d0 00       		.uleb128 0
 6430 06d1 00       		.uleb128 0
 6431 06d2 CB17     		.uleb128 .LEHB308-.LFB1096
 6432 06d4 05       		.uleb128 .LEHE308-.LEHB308
 6433 06d5 00       		.uleb128 0
 6434 06d6 00       		.uleb128 0
 6435 06d7 DA17     		.uleb128 .LEHB309-.LFB1096
 6436 06d9 38       		.uleb128 .LEHE309-.LEHB309
 6437 06da 9C18     		.uleb128 .L447-.LFB1096
 6438 06dc 00       		.uleb128 0
 6439 06dd 9218     		.uleb128 .LEHB310-.LFB1096
 6440 06df 05       		.uleb128 .LEHE310-.LEHB310
 6441 06e0 00       		.uleb128 0
 6442 06e1 00       		.uleb128 0
 6443 06e2 AA18     		.uleb128 .LEHB311-.LFB1096
 6444 06e4 05       		.uleb128 .LEHE311-.LEHB311
 6445 06e5 00       		.uleb128 0
 6446 06e6 00       		.uleb128 0
 6447 06e7 B918     		.uleb128 .LEHB312-.LFB1096
 6448 06e9 38       		.uleb128 .LEHE312-.LEHB312
 6449 06ea FB18     		.uleb128 .L450-.LFB1096
 6450 06ec 00       		.uleb128 0
 6451 06ed F118     		.uleb128 .LEHB313-.LFB1096
 6452 06ef 05       		.uleb128 .LEHE313-.LEHB313
 6453 06f0 00       		.uleb128 0
 6454 06f1 00       		.uleb128 0
 6455 06f2 8919     		.uleb128 .LEHB314-.LFB1096
 6456 06f4 05       		.uleb128 .LEHE314-.LEHB314
 6457 06f5 00       		.uleb128 0
 6458 06f6 00       		.uleb128 0
 6459 06f7 9819     		.uleb128 .LEHB315-.LFB1096
 6460 06f9 38       		.uleb128 .LEHE315-.LEHB315
 6461 06fa DA19     		.uleb128 .L453-.LFB1096
 6462 06fc 00       		.uleb128 0
 6463 06fd D019     		.uleb128 .LEHB316-.LFB1096
 6464 06ff 05       		.uleb128 .LEHE316-.LEHB316
 6465 0700 00       		.uleb128 0
 6466 0701 00       		.uleb128 0
 6467 0702 E819     		.uleb128 .LEHB317-.LFB1096
 6468 0704 05       		.uleb128 .LEHE317-.LEHB317
 6469 0705 00       		.uleb128 0
 6470 0706 00       		.uleb128 0
 6471 0707 F719     		.uleb128 .LEHB318-.LFB1096
 6472 0709 38       		.uleb128 .LEHE318-.LEHB318
 6473 070a B91A     		.uleb128 .L456-.LFB1096
 6474 070c 00       		.uleb128 0
 6475 070d AF1A     		.uleb128 .LEHB319-.LFB1096
 6476 070f 05       		.uleb128 .LEHE319-.LEHB319
 6477 0710 00       		.uleb128 0
 6478 0711 00       		.uleb128 0
 6479 0712 C71A     		.uleb128 .LEHB320-.LFB1096
 6480 0714 05       		.uleb128 .LEHE320-.LEHB320
 6481 0715 00       		.uleb128 0
 6482 0716 00       		.uleb128 0
 6483 0717 D61A     		.uleb128 .LEHB321-.LFB1096
 6484 0719 38       		.uleb128 .LEHE321-.LEHB321
 6485 071a 981B     		.uleb128 .L459-.LFB1096
 6486 071c 00       		.uleb128 0
 6487 071d 8E1B     		.uleb128 .LEHB322-.LFB1096
 6488 071f 05       		.uleb128 .LEHE322-.LEHB322
 6489 0720 00       		.uleb128 0
 6490 0721 00       		.uleb128 0
 6491 0722 A61B     		.uleb128 .LEHB323-.LFB1096
 6492 0724 05       		.uleb128 .LEHE323-.LEHB323
 6493 0725 00       		.uleb128 0
 6494 0726 00       		.uleb128 0
 6495 0727 B51B     		.uleb128 .LEHB324-.LFB1096
 6496 0729 38       		.uleb128 .LEHE324-.LEHB324
 6497 072a F71B     		.uleb128 .L462-.LFB1096
 6498 072c 00       		.uleb128 0
 6499 072d ED1B     		.uleb128 .LEHB325-.LFB1096
 6500 072f 05       		.uleb128 .LEHE325-.LEHB325
 6501 0730 00       		.uleb128 0
 6502 0731 00       		.uleb128 0
 6503 0732 851C     		.uleb128 .LEHB326-.LFB1096
 6504 0734 05       		.uleb128 .LEHE326-.LEHB326
 6505 0735 00       		.uleb128 0
 6506 0736 00       		.uleb128 0
 6507 0737 941C     		.uleb128 .LEHB327-.LFB1096
 6508 0739 38       		.uleb128 .LEHE327-.LEHB327
 6509 073a D61C     		.uleb128 .L465-.LFB1096
 6510 073c 00       		.uleb128 0
 6511 073d CC1C     		.uleb128 .LEHB328-.LFB1096
 6512 073f 05       		.uleb128 .LEHE328-.LEHB328
 6513 0740 00       		.uleb128 0
 6514 0741 00       		.uleb128 0
 6515 0742 E41C     		.uleb128 .LEHB329-.LFB1096
 6516 0744 05       		.uleb128 .LEHE329-.LEHB329
 6517 0745 00       		.uleb128 0
 6518 0746 00       		.uleb128 0
 6519 0747 F31C     		.uleb128 .LEHB330-.LFB1096
 6520 0749 38       		.uleb128 .LEHE330-.LEHB330
 6521 074a B51D     		.uleb128 .L468-.LFB1096
 6522 074c 00       		.uleb128 0
 6523 074d AB1D     		.uleb128 .LEHB331-.LFB1096
 6524 074f 05       		.uleb128 .LEHE331-.LEHB331
 6525 0750 00       		.uleb128 0
 6526 0751 00       		.uleb128 0
 6527 0752 C31D     		.uleb128 .LEHB332-.LFB1096
 6528 0754 05       		.uleb128 .LEHE332-.LEHB332
 6529 0755 00       		.uleb128 0
 6530 0756 00       		.uleb128 0
 6531 0757 D21D     		.uleb128 .LEHB333-.LFB1096
 6532 0759 38       		.uleb128 .LEHE333-.LEHB333
 6533 075a 941E     		.uleb128 .L471-.LFB1096
 6534 075c 00       		.uleb128 0
 6535 075d 8A1E     		.uleb128 .LEHB334-.LFB1096
 6536 075f 05       		.uleb128 .LEHE334-.LEHB334
 6537 0760 00       		.uleb128 0
 6538 0761 00       		.uleb128 0
 6539 0762 A21E     		.uleb128 .LEHB335-.LFB1096
 6540 0764 05       		.uleb128 .LEHE335-.LEHB335
 6541 0765 00       		.uleb128 0
 6542 0766 00       		.uleb128 0
 6543 0767 B11E     		.uleb128 .LEHB336-.LFB1096
 6544 0769 38       		.uleb128 .LEHE336-.LEHB336
 6545 076a F31E     		.uleb128 .L474-.LFB1096
 6546 076c 00       		.uleb128 0
 6547 076d E91E     		.uleb128 .LEHB337-.LFB1096
 6548 076f 05       		.uleb128 .LEHE337-.LEHB337
 6549 0770 00       		.uleb128 0
 6550 0771 00       		.uleb128 0
 6551 0772 811F     		.uleb128 .LEHB338-.LFB1096
 6552 0774 05       		.uleb128 .LEHE338-.LEHB338
 6553 0775 00       		.uleb128 0
 6554 0776 00       		.uleb128 0
 6555 0777 901F     		.uleb128 .LEHB339-.LFB1096
 6556 0779 38       		.uleb128 .LEHE339-.LEHB339
 6557 077a D21F     		.uleb128 .L477-.LFB1096
 6558 077c 00       		.uleb128 0
 6559 077d C81F     		.uleb128 .LEHB340-.LFB1096
 6560 077f 05       		.uleb128 .LEHE340-.LEHB340
 6561 0780 00       		.uleb128 0
 6562 0781 00       		.uleb128 0
 6563 0782 E01F     		.uleb128 .LEHB341-.LFB1096
 6564 0784 05       		.uleb128 .LEHE341-.LEHB341
 6565 0785 00       		.uleb128 0
 6566 0786 00       		.uleb128 0
 6567 0787 EF1F     		.uleb128 .LEHB342-.LFB1096
 6568 0789 38       		.uleb128 .LEHE342-.LEHB342
 6569 078a B120     		.uleb128 .L480-.LFB1096
 6570 078c 00       		.uleb128 0
 6571 078d A720     		.uleb128 .LEHB343-.LFB1096
 6572 078f 05       		.uleb128 .LEHE343-.LEHB343
 6573 0790 00       		.uleb128 0
 6574 0791 00       		.uleb128 0
 6575 0792 BF20     		.uleb128 .LEHB344-.LFB1096
 6576 0794 05       		.uleb128 .LEHE344-.LEHB344
 6577 0795 00       		.uleb128 0
 6578 0796 00       		.uleb128 0
 6579 0797 CE20     		.uleb128 .LEHB345-.LFB1096
 6580 0799 38       		.uleb128 .LEHE345-.LEHB345
 6581 079a 9021     		.uleb128 .L483-.LFB1096
 6582 079c 00       		.uleb128 0
 6583 079d 8621     		.uleb128 .LEHB346-.LFB1096
 6584 079f 05       		.uleb128 .LEHE346-.LEHB346
 6585 07a0 00       		.uleb128 0
 6586 07a1 00       		.uleb128 0
 6587 07a2 9E21     		.uleb128 .LEHB347-.LFB1096
 6588 07a4 05       		.uleb128 .LEHE347-.LEHB347
 6589 07a5 00       		.uleb128 0
 6590 07a6 00       		.uleb128 0
 6591 07a7 AD21     		.uleb128 .LEHB348-.LFB1096
 6592 07a9 38       		.uleb128 .LEHE348-.LEHB348
 6593 07aa EF21     		.uleb128 .L486-.LFB1096
 6594 07ac 00       		.uleb128 0
 6595 07ad E521     		.uleb128 .LEHB349-.LFB1096
 6596 07af 05       		.uleb128 .LEHE349-.LEHB349
 6597 07b0 00       		.uleb128 0
 6598 07b1 00       		.uleb128 0
 6599 07b2 FD21     		.uleb128 .LEHB350-.LFB1096
 6600 07b4 05       		.uleb128 .LEHE350-.LEHB350
 6601 07b5 00       		.uleb128 0
 6602 07b6 00       		.uleb128 0
 6603 07b7 8C22     		.uleb128 .LEHB351-.LFB1096
 6604 07b9 38       		.uleb128 .LEHE351-.LEHB351
 6605 07ba CE22     		.uleb128 .L489-.LFB1096
 6606 07bc 00       		.uleb128 0
 6607 07bd C422     		.uleb128 .LEHB352-.LFB1096
 6608 07bf 05       		.uleb128 .LEHE352-.LEHB352
 6609 07c0 00       		.uleb128 0
 6610 07c1 00       		.uleb128 0
 6611 07c2 DC22     		.uleb128 .LEHB353-.LFB1096
 6612 07c4 05       		.uleb128 .LEHE353-.LEHB353
 6613 07c5 00       		.uleb128 0
 6614 07c6 00       		.uleb128 0
 6615 07c7 EB22     		.uleb128 .LEHB354-.LFB1096
 6616 07c9 38       		.uleb128 .LEHE354-.LEHB354
 6617 07ca AD23     		.uleb128 .L492-.LFB1096
 6618 07cc 00       		.uleb128 0
 6619 07cd A323     		.uleb128 .LEHB355-.LFB1096
 6620 07cf 05       		.uleb128 .LEHE355-.LEHB355
 6621 07d0 00       		.uleb128 0
 6622 07d1 00       		.uleb128 0
 6623 07d2 BB23     		.uleb128 .LEHB356-.LFB1096
 6624 07d4 05       		.uleb128 .LEHE356-.LEHB356
 6625 07d5 00       		.uleb128 0
 6626 07d6 00       		.uleb128 0
 6627 07d7 CA23     		.uleb128 .LEHB357-.LFB1096
 6628 07d9 38       		.uleb128 .LEHE357-.LEHB357
 6629 07da 8C24     		.uleb128 .L495-.LFB1096
 6630 07dc 00       		.uleb128 0
 6631 07dd 8224     		.uleb128 .LEHB358-.LFB1096
 6632 07df 05       		.uleb128 .LEHE358-.LEHB358
 6633 07e0 00       		.uleb128 0
 6634 07e1 00       		.uleb128 0
 6635 07e2 9A24     		.uleb128 .LEHB359-.LFB1096
 6636 07e4 05       		.uleb128 .LEHE359-.LEHB359
 6637 07e5 00       		.uleb128 0
 6638 07e6 00       		.uleb128 0
 6639              	.LLSDACSE1096:
 6640 07e7 01       		.byte	0x1
 6641 07e8 00       		.byte	0
 6642 07e9 00       		.byte	0
 6643 07ea 7D       		.byte	0x7d
 6644 07eb 00       		.align 4
 6645 07ec 00000000 		.long	0
 6646              	
 6647              	.LLSDATT1096:
 6648              		.text
 6650              		.section	.rodata
 6651 05e7 00       		.align 8
 6652              	.LC30:
 6653 05e8 556E6861 		.string	"Unhandled exception in CHECK_EQUAL((offset) % 4 + 1UL, *item)"
 6653      6E646C65 
 6653      64206578 
 6653      63657074 
 6653      696F6E20 
 6654 0626 0000     		.align 8
 6655              	.LC31:
 6656 0628 556E6861 		.string	"Unhandled exception in CHECK_EQUAL((offset + 1UL) % 4 + 1UL, *item)"
 6656      6E646C65 
 6656      64206578 
 6656      63657074 
 6656      696F6E20 
 6657 066c 00000000 		.align 8
 6658              	.LC32:
 6659 0670 556E6861 		.string	"Unhandled exception in CHECK_EQUAL((offset + 2UL) % 4 + 1UL, *item)"
 6659      6E646C65 
 6659      64206578 
 6659      63657074 
 6659      696F6E20 
 6660 06b4 00000000 		.align 8
 6661              	.LC33:
 6662 06b8 556E6861 		.string	"Unhandled exception in CHECK_EQUAL((offset + 3UL) % 4 + 1UL, *item)"
 6662      6E646C65 
 6662      64206578 
 6662      63657074 
 6662      696F6E20 
 6663 06fc 00000000 		.align 8
 6664              	.LC34:
 6665 0700 556E6861 		.string	"Unhandled exception in CHECK_EQUAL(offset, queue.putIndex)"
 6665      6E646C65 
 6665      64206578 
 6665      63657074 
 6665      696F6E20 
 6666 073b 00000000 		.align 8
 6666      00
 6667              	.LC35:
 6668 0740 556E6861 		.string	"Unhandled exception in CHECK_EQUAL(offset, queue.takeIndex)"
 6668      6E646C65 
 6668      64206578 
 6668      63657074 
 6668      696F6E20 
 6669 077c 00000000 		.align 8
 6670              	.LC36:
 6671 0780 556E6861 		.string	"Unhandled exception in CHECK_EQUAL(8UL, queue.capacity)"
 6671      6E646C65 
 6671      64206578 
 6671      63657074 
 6671      696F6E20 
 6672              		.align 8
 6673              	.LC37:
 6674 07b8 556E6861 		.string	"Unhandled exception in CHECK_EQUAL(5UL, queue.putIndex)"
 6674      6E646C65 
 6674      64206578 
 6674      63657074 
 6674      696F6E20 
 6675              		.align 8
 6676              	.LC38:
 6677 07f0 556E6861 		.string	"Unhandled exception in CHECK_EQUAL(5UL, queue.numItems)"
 6677      6E646C65 
 6677      64206578 
 6677      63657074 
 6677      696F6E20 
 6678              		.align 8
 6679              	.LC39:
 6680 0828 556E6861 		.string	"Unhandled exception in CHECK_EQUAL(100UL, deref(queue.itemArray[0]))"
 6680      6E646C65 
 6680      64206578 
 6680      63657074 
 6680      696F6E20 
 6681 086d 000000   		.align 8
 6682              	.LC40:
 6683 0870 556E6861 		.string	"Unhandled exception in CHECK_EQUAL(101UL, deref(queue.itemArray[1]))"
 6683      6E646C65 
 6683      64206578 
 6683      63657074 
 6683      696F6E20 
 6684 08b5 000000   		.align 8
 6685              	.LC41:
 6686 08b8 556E6861 		.string	"Unhandled exception in CHECK_EQUAL(102UL, deref(queue.itemArray[2]))"
 6686      6E646C65 
 6686      64206578 
 6686      63657074 
 6686      696F6E20 
 6687 08fd 000000   		.align 8
 6688              	.LC42:
 6689 0900 556E6861 		.string	"Unhandled exception in CHECK_EQUAL(103UL, deref(queue.itemArray[3]))"
 6689      6E646C65 
 6689      64206578 
 6689      63657074 
 6689      696F6E20 
 6690 0945 000000   		.align 8
 6691              	.LC43:
 6692 0948 556E6861 		.string	"Unhandled exception in CHECK_EQUAL(104UL, deref(queue.itemArray[4]))"
 6692      6E646C65 
 6692      64206578 
 6692      63657074 
 6692      696F6E20 
 6693 098d 000000   		.align 8
 6694              	.LC44:
 6695 0990 556E6861 		.string	"Unhandled exception in CHECK_EQUAL(6UL, deref(queue.itemArray[5]))"
 6695      6E646C65 
 6695      64206578 
 6695      63657074 
 6695      696F6E20 
 6696 09d3 00000000 		.align 8
 6696      00
 6697              	.LC45:
 6698 09d8 556E6861 		.string	"Unhandled exception in CHECK_EQUAL(7UL, deref(queue.itemArray[6]))"
 6698      6E646C65 
 6698      64206578 
 6698      63657074 
 6698      696F6E20 
 6699 0a1b 00000000 		.align 8
 6699      00
 6700              	.LC46:
 6701 0a20 556E6861 		.string	"Unhandled exception in CHECK_EQUAL(8UL, deref(queue.itemArray[7]))"
 6701      6E646C65 
 6701      64206578 
 6701      63657074 
 6701      696F6E20 
 6702 0a63 00000000 		.align 8
 6702      00
 6703              	.LC47:
 6704 0a68 556E6861 		.string	"Unhandled exception in CHECK_EQUAL(100UL, *item)"
 6704      6E646C65 
 6704      64206578 
 6704      63657074 
 6704      696F6E20 
 6705 0a99 00000000 		.align 8
 6705      000000
 6706              	.LC48:
 6707 0aa0 556E6861 		.string	"Unhandled exception in CHECK_EQUAL(101UL, *item)"
 6707      6E646C65 
 6707      64206578 
 6707      63657074 
 6707      696F6E20 
 6708 0ad1 00000000 		.align 8
 6708      000000
 6709              	.LC49:
 6710 0ad8 556E6861 		.string	"Unhandled exception in CHECK_EQUAL(102UL, *item)"
 6710      6E646C65 
 6710      64206578 
 6710      63657074 
 6710      696F6E20 
 6711 0b09 00000000 		.align 8
 6711      000000
 6712              	.LC50:
 6713 0b10 556E6861 		.string	"Unhandled exception in CHECK_EQUAL(103UL, *item)"
 6713      6E646C65 
 6713      64206578 
 6713      63657074 
 6713      696F6E20 
 6714 0b41 00000000 		.align 8
 6714      000000
 6715              	.LC51:
 6716 0b48 556E6861 		.string	"Unhandled exception in CHECK_EQUAL(104UL, *item)"
 6716      6E646C65 
 6716      64206578 
 6716      63657074 
 6716      696F6E20 
 6717 0b79 00000000 		.align 8
 6717      000000
 6718              	.LC52:
 6719 0b80 556E6861 		.string	"Unhandled exception in CHECK_EQUAL(USB_EMPTY_QUEUE, status)"
 6719      6E646C65 
 6719      64206578 
 6719      63657074 
 6719      696F6E20 
 6720              		.text
 6721              		.globl	_Z11testReallocm
 6723              	_Z11testReallocm:
 6724              	.LFB1097:
 230:testCore.cpp  **** 
 231:testCore.cpp  **** void testRealloc(const size_t offset) {
 6725              		.loc 3 231 0
 6726              		.cfi_startproc
 6727              		.cfi_personality 0x3,__gxx_personality_v0
 6728              		.cfi_lsda 0x3,.LLSDA1097
 6729 30e8 55       		pushq	%rbp
 6730              		.cfi_def_cfa_offset 16
 6731              		.cfi_offset 6, -16
 6732 30e9 4889E5   		movq	%rsp, %rbp
 6733              		.cfi_def_cfa_register 6
 6734 30ec 53       		pushq	%rbx
 6735 30ed 4881EC98 		subq	$152, %rsp
 6735      000000
 6736              		.cfi_offset 3, -24
 6737 30f4 4889BD68 		movq	%rdi, -152(%rbp)
 6737      FFFFFF
 6738              		.loc 3 231 0
 6739 30fb 64488B04 		movq	%fs:40, %rax
 6739      25280000 
 6739      00
 6740 3104 488945E8 		movq	%rax, -24(%rbp)
 6741 3108 31C0     		xorl	%eax, %eax
 232:testCore.cpp  **** 	struct UnboundedQueue queue;
 233:testCore.cpp  **** 	uint32 *item;
 234:testCore.cpp  **** 	m_count = 1;
 6742              		.loc 3 234 0
 6743 310a C7050000 		movl	$1, _ZL7m_count(%rip)
 6743      00000100 
 6743      0000
 235:testCore.cpp  **** 
 236:testCore.cpp  **** 	// Create queue
 237:testCore.cpp  **** 	USBStatus status = queueInit(&queue, 4, (CreateFunc)createInt, (DestroyFunc)destroyInt);
 6744              		.loc 3 237 0
 6745 3114 488D45B0 		leaq	-80(%rbp), %rax
 6746 3118 B9000000 		movl	$destroyInt, %ecx
 6746      00
 6747 311d BA000000 		movl	$createInt, %edx
 6747      00
 6748 3122 BE040000 		movl	$4, %esi
 6748      00
 6749 3127 4889C7   		movq	%rax, %rdi
 6750              	.LEHB360:
 6751 312a E8000000 		call	queueInit
 6751      00
 6752              	.LEHE360:
 6753 312f 898578FF 		movl	%eax, -136(%rbp)
 6753      FFFF
 6754              	.LEHB361:
 238:testCore.cpp  **** 	CHECK_EQUAL(USB_SUCCESS, status);
 6755              		.loc 3 238 0
 6756 3135 E8000000 		call	_ZN8UnitTest11CurrentTest7DetailsEv
 6756      00
 6757 313a 488B08   		movq	(%rax), %rcx
 6758 313d 488D4590 		leaq	-112(%rbp), %rax
 6759 3141 BAEE0000 		movl	$238, %edx
 6759      00
 6760 3146 4889CE   		movq	%rcx, %rsi
 6761 3149 4889C7   		movq	%rax, %rdi
 6762 314c E8000000 		call	_ZN8UnitTest11TestDetailsC1ERKS0_i
 6762      00
 6763              	.LEHE361:
 6764              		.loc 3 238 0 is_stmt 0 discriminator 2
 6765 3151 C7458800 		movl	$0, -120(%rbp)
 6765      000000
 6766              	.LEHB362:
 6767 3158 E8000000 		call	_ZN8UnitTest11CurrentTest7ResultsEv
 6767      00
 6768 315d 488B00   		movq	(%rax), %rax
 6769 3160 488D4D90 		leaq	-112(%rbp), %rcx
 6770 3164 488D9578 		leaq	-136(%rbp), %rdx
 6770      FFFFFF
 6771 316b 488D7588 		leaq	-120(%rbp), %rsi
 6772 316f 4889C7   		movq	%rax, %rdi
 6773 3172 E8000000 		call	_ZN8UnitTest10CheckEqualI9USBStatusS1_EEvRNS_11TestResultsERKT_RKT0_RKNS_11TestDetailsE
 6773      00
 6774              	.LEHE362:
 6775              	.L500:
 239:testCore.cpp  **** 
 240:testCore.cpp  **** 	// Shift indices so realloc has to do more work
 241:testCore.cpp  **** 	queue.putIndex = offset;
 6776              		.loc 3 241 0 is_stmt 1
 6777 3177 488B8568 		movq	-152(%rbp), %rax
 6777      FFFFFF
 6778 317e 488945C0 		movq	%rax, -64(%rbp)
 242:testCore.cpp  **** 	queue.takeIndex = offset;
 6779              		.loc 3 242 0
 6780 3182 488B8568 		movq	-152(%rbp), %rax
 6780      FFFFFF
 6781 3189 488945C8 		movq	%rax, -56(%rbp)
 243:testCore.cpp  **** 
 244:testCore.cpp  **** 	// Now fill the queue to capacity
 245:testCore.cpp  **** 	status = queuePut(&queue, (Item*)&item);
 6782              		.loc 3 245 0
 6783 318d 488D5580 		leaq	-128(%rbp), %rdx
 6784 3191 488D45B0 		leaq	-80(%rbp), %rax
 6785 3195 4889D6   		movq	%rdx, %rsi
 6786 3198 4889C7   		movq	%rax, %rdi
 6787              	.LEHB363:
 6788 319b E8000000 		call	queuePut
 6788      00
 6789              	.LEHE363:
 6790 31a0 898578FF 		movl	%eax, -136(%rbp)
 6790      FFFF
 6791              	.LEHB364:
 246:testCore.cpp  **** 	CHECK_EQUAL(USB_SUCCESS, status);
 6792              		.loc 3 246 0
 6793 31a6 E8000000 		call	_ZN8UnitTest11CurrentTest7DetailsEv
 6793      00
 6794 31ab 488B08   		movq	(%rax), %rcx
 6795 31ae 488D4590 		leaq	-112(%rbp), %rax
 6796 31b2 BAF60000 		movl	$246, %edx
 6796      00
 6797 31b7 4889CE   		movq	%rcx, %rsi
 6798 31ba 4889C7   		movq	%rax, %rdi
 6799 31bd E8000000 		call	_ZN8UnitTest11TestDetailsC1ERKS0_i
 6799      00
 6800              	.LEHE364:
 6801              		.loc 3 246 0 is_stmt 0 discriminator 2
 6802 31c2 C7458800 		movl	$0, -120(%rbp)
 6802      000000
 6803              	.LEHB365:
 6804 31c9 E8000000 		call	_ZN8UnitTest11CurrentTest7ResultsEv
 6804      00
 6805 31ce 488B00   		movq	(%rax), %rax
 6806 31d1 488D4D90 		leaq	-112(%rbp), %rcx
 6807 31d5 488D9578 		leaq	-136(%rbp), %rdx
 6807      FFFFFF
 6808 31dc 488D7588 		leaq	-120(%rbp), %rsi
 6809 31e0 4889C7   		movq	%rax, %rdi
 6810 31e3 E8000000 		call	_ZN8UnitTest10CheckEqualI9USBStatusS1_EEvRNS_11TestResultsERKT_RKT0_RKNS_11TestDetailsE
 6810      00
 6811              	.LEHE365:
 6812              	.L504:
 6813              	.LEHB366:
 247:testCore.cpp  **** 	CHECK_EQUAL((offset) % 4 + 1UL, *item);
 6814              		.loc 3 247 0 is_stmt 1
 6815 31e8 E8000000 		call	_ZN8UnitTest11CurrentTest7DetailsEv
 6815      00
 6816 31ed 488B08   		movq	(%rax), %rcx
 6817 31f0 488D4590 		leaq	-112(%rbp), %rax
 6818 31f4 BAF70000 		movl	$247, %edx
 6818      00
 6819 31f9 4889CE   		movq	%rcx, %rsi
 6820 31fc 4889C7   		movq	%rax, %rdi
 6821 31ff E8000000 		call	_ZN8UnitTest11TestDetailsC1ERKS0_i
 6821      00
 6822              	.LEHE366:
 6823              		.loc 3 247 0 is_stmt 0 discriminator 2
 6824 3204 488B5D80 		movq	-128(%rbp), %rbx
 6825 3208 488B8568 		movq	-152(%rbp), %rax
 6825      FFFFFF
 6826 320f 83E003   		andl	$3, %eax
 6827 3212 4883C001 		addq	$1, %rax
 6828 3216 48894588 		movq	%rax, -120(%rbp)
 6829              	.LEHB367:
 6830 321a E8000000 		call	_ZN8UnitTest11CurrentTest7ResultsEv
 6830      00
 6831 321f 488B00   		movq	(%rax), %rax
 6832 3222 488D5590 		leaq	-112(%rbp), %rdx
 6833 3226 488D7588 		leaq	-120(%rbp), %rsi
 6834 322a 4889D1   		movq	%rdx, %rcx
 6835 322d 4889DA   		movq	%rbx, %rdx
 6836 3230 4889C7   		movq	%rax, %rdi
 6837 3233 E8000000 		call	_ZN8UnitTest10CheckEqualImjEEvRNS_11TestResultsERKT_RKT0_RKNS_11TestDetailsE
 6837      00
 6838              	.LEHE367:
 6839              	.L508:
 248:testCore.cpp  **** 	*item = 100;
 6840              		.loc 3 248 0 is_stmt 1
 6841 3238 488B4580 		movq	-128(%rbp), %rax
 6842 323c C7006400 		movl	$100, (%rax)
 6842      0000
 249:testCore.cpp  **** 	queueCommitPut(&queue);
 6843              		.loc 3 249 0
 6844 3242 488D45B0 		leaq	-80(%rbp), %rax
 6845 3246 4889C7   		movq	%rax, %rdi
 6846              	.LEHB368:
 6847 3249 E8000000 		call	queueCommitPut
 6847      00
 250:testCore.cpp  **** 	status = queuePut(&queue, (Item*)&item);
 6848              		.loc 3 250 0
 6849 324e 488D5580 		leaq	-128(%rbp), %rdx
 6850 3252 488D45B0 		leaq	-80(%rbp), %rax
 6851 3256 4889D6   		movq	%rdx, %rsi
 6852 3259 4889C7   		movq	%rax, %rdi
 6853 325c E8000000 		call	queuePut
 6853      00
 6854              	.LEHE368:
 6855 3261 898578FF 		movl	%eax, -136(%rbp)
 6855      FFFF
 6856              	.LEHB369:
 251:testCore.cpp  **** 	CHECK_EQUAL(USB_SUCCESS, status);
 6857              		.loc 3 251 0
 6858 3267 E8000000 		call	_ZN8UnitTest11CurrentTest7DetailsEv
 6858      00
 6859 326c 488B08   		movq	(%rax), %rcx
 6860 326f 488D4590 		leaq	-112(%rbp), %rax
 6861 3273 BAFB0000 		movl	$251, %edx
 6861      00
 6862 3278 4889CE   		movq	%rcx, %rsi
 6863 327b 4889C7   		movq	%rax, %rdi
 6864 327e E8000000 		call	_ZN8UnitTest11TestDetailsC1ERKS0_i
 6864      00
 6865              	.LEHE369:
 6866              		.loc 3 251 0 is_stmt 0 discriminator 2
 6867 3283 C7458800 		movl	$0, -120(%rbp)
 6867      000000
 6868              	.LEHB370:
 6869 328a E8000000 		call	_ZN8UnitTest11CurrentTest7ResultsEv
 6869      00
 6870 328f 488B00   		movq	(%rax), %rax
 6871 3292 488D4D90 		leaq	-112(%rbp), %rcx
 6872 3296 488D9578 		leaq	-136(%rbp), %rdx
 6872      FFFFFF
 6873 329d 488D7588 		leaq	-120(%rbp), %rsi
 6874 32a1 4889C7   		movq	%rax, %rdi
 6875 32a4 E8000000 		call	_ZN8UnitTest10CheckEqualI9USBStatusS1_EEvRNS_11TestResultsERKT_RKT0_RKNS_11TestDetailsE
 6875      00
 6876              	.LEHE370:
 6877              	.L512:
 6878              	.LEHB371:
 252:testCore.cpp  **** 	CHECK_EQUAL((offset + 1UL) % 4 + 1UL, *item);
 6879              		.loc 3 252 0 is_stmt 1
 6880 32a9 E8000000 		call	_ZN8UnitTest11CurrentTest7DetailsEv
 6880      00
 6881 32ae 488B08   		movq	(%rax), %rcx
 6882 32b1 488D4590 		leaq	-112(%rbp), %rax
 6883 32b5 BAFC0000 		movl	$252, %edx
 6883      00
 6884 32ba 4889CE   		movq	%rcx, %rsi
 6885 32bd 4889C7   		movq	%rax, %rdi
 6886 32c0 E8000000 		call	_ZN8UnitTest11TestDetailsC1ERKS0_i
 6886      00
 6887              	.LEHE371:
 6888              		.loc 3 252 0 is_stmt 0 discriminator 2
 6889 32c5 488B5D80 		movq	-128(%rbp), %rbx
 6890 32c9 488B8568 		movq	-152(%rbp), %rax
 6890      FFFFFF
 6891 32d0 4883C001 		addq	$1, %rax
 6892 32d4 83E003   		andl	$3, %eax
 6893 32d7 4883C001 		addq	$1, %rax
 6894 32db 48894588 		movq	%rax, -120(%rbp)
 6895              	.LEHB372:
 6896 32df E8000000 		call	_ZN8UnitTest11CurrentTest7ResultsEv
 6896      00
 6897 32e4 488B00   		movq	(%rax), %rax
 6898 32e7 488D5590 		leaq	-112(%rbp), %rdx
 6899 32eb 488D7588 		leaq	-120(%rbp), %rsi
 6900 32ef 4889D1   		movq	%rdx, %rcx
 6901 32f2 4889DA   		movq	%rbx, %rdx
 6902 32f5 4889C7   		movq	%rax, %rdi
 6903 32f8 E8000000 		call	_ZN8UnitTest10CheckEqualImjEEvRNS_11TestResultsERKT_RKT0_RKNS_11TestDetailsE
 6903      00
 6904              	.LEHE372:
 6905              	.L516:
 253:testCore.cpp  **** 	*item = 101;
 6906              		.loc 3 253 0 is_stmt 1
 6907 32fd 488B4580 		movq	-128(%rbp), %rax
 6908 3301 C7006500 		movl	$101, (%rax)
 6908      0000
 254:testCore.cpp  **** 	queueCommitPut(&queue);
 6909              		.loc 3 254 0
 6910 3307 488D45B0 		leaq	-80(%rbp), %rax
 6911 330b 4889C7   		movq	%rax, %rdi
 6912              	.LEHB373:
 6913 330e E8000000 		call	queueCommitPut
 6913      00
 255:testCore.cpp  **** 	status = queuePut(&queue, (Item*)&item);
 6914              		.loc 3 255 0
 6915 3313 488D5580 		leaq	-128(%rbp), %rdx
 6916 3317 488D45B0 		leaq	-80(%rbp), %rax
 6917 331b 4889D6   		movq	%rdx, %rsi
 6918 331e 4889C7   		movq	%rax, %rdi
 6919 3321 E8000000 		call	queuePut
 6919      00
 6920              	.LEHE373:
 6921 3326 898578FF 		movl	%eax, -136(%rbp)
 6921      FFFF
 6922              	.LEHB374:
 256:testCore.cpp  **** 	CHECK_EQUAL(USB_SUCCESS, status);
 6923              		.loc 3 256 0
 6924 332c E8000000 		call	_ZN8UnitTest11CurrentTest7DetailsEv
 6924      00
 6925 3331 488B08   		movq	(%rax), %rcx
 6926 3334 488D4590 		leaq	-112(%rbp), %rax
 6927 3338 BA000100 		movl	$256, %edx
 6927      00
 6928 333d 4889CE   		movq	%rcx, %rsi
 6929 3340 4889C7   		movq	%rax, %rdi
 6930 3343 E8000000 		call	_ZN8UnitTest11TestDetailsC1ERKS0_i
 6930      00
 6931              	.LEHE374:
 6932              		.loc 3 256 0 is_stmt 0 discriminator 2
 6933 3348 C7458800 		movl	$0, -120(%rbp)
 6933      000000
 6934              	.LEHB375:
 6935 334f E8000000 		call	_ZN8UnitTest11CurrentTest7ResultsEv
 6935      00
 6936 3354 488B00   		movq	(%rax), %rax
 6937 3357 488D4D90 		leaq	-112(%rbp), %rcx
 6938 335b 488D9578 		leaq	-136(%rbp), %rdx
 6938      FFFFFF
 6939 3362 488D7588 		leaq	-120(%rbp), %rsi
 6940 3366 4889C7   		movq	%rax, %rdi
 6941 3369 E8000000 		call	_ZN8UnitTest10CheckEqualI9USBStatusS1_EEvRNS_11TestResultsERKT_RKT0_RKNS_11TestDetailsE
 6941      00
 6942              	.LEHE375:
 6943              	.L520:
 6944              	.LEHB376:
 257:testCore.cpp  **** 	CHECK_EQUAL((offset + 2UL) % 4 + 1UL, *item);
 6945              		.loc 3 257 0 is_stmt 1
 6946 336e E8000000 		call	_ZN8UnitTest11CurrentTest7DetailsEv
 6946      00
 6947 3373 488B08   		movq	(%rax), %rcx
 6948 3376 488D4590 		leaq	-112(%rbp), %rax
 6949 337a BA010100 		movl	$257, %edx
 6949      00
 6950 337f 4889CE   		movq	%rcx, %rsi
 6951 3382 4889C7   		movq	%rax, %rdi
 6952 3385 E8000000 		call	_ZN8UnitTest11TestDetailsC1ERKS0_i
 6952      00
 6953              	.LEHE376:
 6954              		.loc 3 257 0 is_stmt 0 discriminator 2
 6955 338a 488B5D80 		movq	-128(%rbp), %rbx
 6956 338e 488B8568 		movq	-152(%rbp), %rax
 6956      FFFFFF
 6957 3395 4883C002 		addq	$2, %rax
 6958 3399 83E003   		andl	$3, %eax
 6959 339c 4883C001 		addq	$1, %rax
 6960 33a0 48894588 		movq	%rax, -120(%rbp)
 6961              	.LEHB377:
 6962 33a4 E8000000 		call	_ZN8UnitTest11CurrentTest7ResultsEv
 6962      00
 6963 33a9 488B00   		movq	(%rax), %rax
 6964 33ac 488D5590 		leaq	-112(%rbp), %rdx
 6965 33b0 488D7588 		leaq	-120(%rbp), %rsi
 6966 33b4 4889D1   		movq	%rdx, %rcx
 6967 33b7 4889DA   		movq	%rbx, %rdx
 6968 33ba 4889C7   		movq	%rax, %rdi
 6969 33bd E8000000 		call	_ZN8UnitTest10CheckEqualImjEEvRNS_11TestResultsERKT_RKT0_RKNS_11TestDetailsE
 6969      00
 6970              	.LEHE377:
 6971              	.L524:
 258:testCore.cpp  **** 	*item = 102;
 6972              		.loc 3 258 0 is_stmt 1
 6973 33c2 488B4580 		movq	-128(%rbp), %rax
 6974 33c6 C7006600 		movl	$102, (%rax)
 6974      0000
 259:testCore.cpp  **** 	queueCommitPut(&queue);
 6975              		.loc 3 259 0
 6976 33cc 488D45B0 		leaq	-80(%rbp), %rax
 6977 33d0 4889C7   		movq	%rax, %rdi
 6978              	.LEHB378:
 6979 33d3 E8000000 		call	queueCommitPut
 6979      00
 260:testCore.cpp  **** 	status = queuePut(&queue, (Item*)&item);
 6980              		.loc 3 260 0
 6981 33d8 488D5580 		leaq	-128(%rbp), %rdx
 6982 33dc 488D45B0 		leaq	-80(%rbp), %rax
 6983 33e0 4889D6   		movq	%rdx, %rsi
 6984 33e3 4889C7   		movq	%rax, %rdi
 6985 33e6 E8000000 		call	queuePut
 6985      00
 6986              	.LEHE378:
 6987 33eb 898578FF 		movl	%eax, -136(%rbp)
 6987      FFFF
 6988              	.LEHB379:
 261:testCore.cpp  **** 	CHECK_EQUAL(USB_SUCCESS, status);
 6989              		.loc 3 261 0
 6990 33f1 E8000000 		call	_ZN8UnitTest11CurrentTest7DetailsEv
 6990      00
 6991 33f6 488B08   		movq	(%rax), %rcx
 6992 33f9 488D4590 		leaq	-112(%rbp), %rax
 6993 33fd BA050100 		movl	$261, %edx
 6993      00
 6994 3402 4889CE   		movq	%rcx, %rsi
 6995 3405 4889C7   		movq	%rax, %rdi
 6996 3408 E8000000 		call	_ZN8UnitTest11TestDetailsC1ERKS0_i
 6996      00
 6997              	.LEHE379:
 6998              		.loc 3 261 0 is_stmt 0 discriminator 2
 6999 340d C7458800 		movl	$0, -120(%rbp)
 6999      000000
 7000              	.LEHB380:
 7001 3414 E8000000 		call	_ZN8UnitTest11CurrentTest7ResultsEv
 7001      00
 7002 3419 488B00   		movq	(%rax), %rax
 7003 341c 488D4D90 		leaq	-112(%rbp), %rcx
 7004 3420 488D9578 		leaq	-136(%rbp), %rdx
 7004      FFFFFF
 7005 3427 488D7588 		leaq	-120(%rbp), %rsi
 7006 342b 4889C7   		movq	%rax, %rdi
 7007 342e E8000000 		call	_ZN8UnitTest10CheckEqualI9USBStatusS1_EEvRNS_11TestResultsERKT_RKT0_RKNS_11TestDetailsE
 7007      00
 7008              	.LEHE380:
 7009              	.L528:
 7010              	.LEHB381:
 262:testCore.cpp  **** 	CHECK_EQUAL((offset + 3UL) % 4 + 1UL, *item);
 7011              		.loc 3 262 0 is_stmt 1
 7012 3433 E8000000 		call	_ZN8UnitTest11CurrentTest7DetailsEv
 7012      00
 7013 3438 488B08   		movq	(%rax), %rcx
 7014 343b 488D4590 		leaq	-112(%rbp), %rax
 7015 343f BA060100 		movl	$262, %edx
 7015      00
 7016 3444 4889CE   		movq	%rcx, %rsi
 7017 3447 4889C7   		movq	%rax, %rdi
 7018 344a E8000000 		call	_ZN8UnitTest11TestDetailsC1ERKS0_i
 7018      00
 7019              	.LEHE381:
 7020              		.loc 3 262 0 is_stmt 0 discriminator 2
 7021 344f 488B5D80 		movq	-128(%rbp), %rbx
 7022 3453 488B8568 		movq	-152(%rbp), %rax
 7022      FFFFFF
 7023 345a 4883C003 		addq	$3, %rax
 7024 345e 83E003   		andl	$3, %eax
 7025 3461 4883C001 		addq	$1, %rax
 7026 3465 48894588 		movq	%rax, -120(%rbp)
 7027              	.LEHB382:
 7028 3469 E8000000 		call	_ZN8UnitTest11CurrentTest7ResultsEv
 7028      00
 7029 346e 488B00   		movq	(%rax), %rax
 7030 3471 488D5590 		leaq	-112(%rbp), %rdx
 7031 3475 488D7588 		leaq	-120(%rbp), %rsi
 7032 3479 4889D1   		movq	%rdx, %rcx
 7033 347c 4889DA   		movq	%rbx, %rdx
 7034 347f 4889C7   		movq	%rax, %rdi
 7035 3482 E8000000 		call	_ZN8UnitTest10CheckEqualImjEEvRNS_11TestResultsERKT_RKT0_RKNS_11TestDetailsE
 7035      00
 7036              	.LEHE382:
 7037              	.L532:
 263:testCore.cpp  **** 	*item = 103;
 7038              		.loc 3 263 0 is_stmt 1
 7039 3487 488B4580 		movq	-128(%rbp), %rax
 7040 348b C7006700 		movl	$103, (%rax)
 7040      0000
 264:testCore.cpp  **** 	queueCommitPut(&queue);
 7041              		.loc 3 264 0
 7042 3491 488D45B0 		leaq	-80(%rbp), %rax
 7043 3495 4889C7   		movq	%rax, %rdi
 7044              	.LEHB383:
 7045 3498 E8000000 		call	queueCommitPut
 7045      00
 7046              	.LEHE383:
 7047              	.LEHB384:
 265:testCore.cpp  **** 
 266:testCore.cpp  **** 	// Verify
 267:testCore.cpp  **** 	CHECK_EQUAL(4UL, queue.capacity);
 7048              		.loc 3 267 0
 7049 349d E8000000 		call	_ZN8UnitTest11CurrentTest7DetailsEv
 7049      00
 7050 34a2 488B08   		movq	(%rax), %rcx
 7051 34a5 488D4590 		leaq	-112(%rbp), %rax
 7052 34a9 BA0B0100 		movl	$267, %edx
 7052      00
 7053 34ae 4889CE   		movq	%rcx, %rsi
 7054 34b1 4889C7   		movq	%rax, %rdi
 7055 34b4 E8000000 		call	_ZN8UnitTest11TestDetailsC1ERKS0_i
 7055      00
 7056              	.LEHE384:
 7057              		.loc 3 267 0 is_stmt 0 discriminator 2
 7058 34b9 48C74588 		movq	$4, -120(%rbp)
 7058      04000000 
 7059              	.LEHB385:
 7060 34c1 E8000000 		call	_ZN8UnitTest11CurrentTest7ResultsEv
 7060      00
 7061 34c6 488B00   		movq	(%rax), %rax
 7062 34c9 488D5590 		leaq	-112(%rbp), %rdx
 7063 34cd 488D4DB0 		leaq	-80(%rbp), %rcx
 7064 34d1 488D7908 		leaq	8(%rcx), %rdi
 7065 34d5 488D7588 		leaq	-120(%rbp), %rsi
 7066 34d9 4889D1   		movq	%rdx, %rcx
 7067 34dc 4889FA   		movq	%rdi, %rdx
 7068 34df 4889C7   		movq	%rax, %rdi
 7069 34e2 E8000000 		call	_ZN8UnitTest10CheckEqualImmEEvRNS_11TestResultsERKT_RKT0_RKNS_11TestDetailsE
 7069      00
 7070              	.LEHE385:
 7071              	.L536:
 7072              	.LEHB386:
 268:testCore.cpp  **** 	CHECK_EQUAL(offset, queue.putIndex);
 7073              		.loc 3 268 0 is_stmt 1
 7074 34e7 E8000000 		call	_ZN8UnitTest11CurrentTest7DetailsEv
 7074      00
 7075 34ec 488B08   		movq	(%rax), %rcx
 7076 34ef 488D4590 		leaq	-112(%rbp), %rax
 7077 34f3 BA0C0100 		movl	$268, %edx
 7077      00
 7078 34f8 4889CE   		movq	%rcx, %rsi
 7079 34fb 4889C7   		movq	%rax, %rdi
 7080 34fe E8000000 		call	_ZN8UnitTest11TestDetailsC1ERKS0_i
 7080      00
 7081              		.loc 3 268 0 is_stmt 0 discriminator 2
 7082 3503 E8000000 		call	_ZN8UnitTest11CurrentTest7ResultsEv
 7082      00
 7083 3508 488B00   		movq	(%rax), %rax
 7084 350b 488D5590 		leaq	-112(%rbp), %rdx
 7085 350f 488D4DB0 		leaq	-80(%rbp), %rcx
 7086 3513 488D7910 		leaq	16(%rcx), %rdi
 7087 3517 488DB568 		leaq	-152(%rbp), %rsi
 7087      FFFFFF
 7088 351e 4889D1   		movq	%rdx, %rcx
 7089 3521 4889FA   		movq	%rdi, %rdx
 7090 3524 4889C7   		movq	%rax, %rdi
 7091 3527 E8000000 		call	_ZN8UnitTest10CheckEqualImmEEvRNS_11TestResultsERKT_RKT0_RKNS_11TestDetailsE
 7091      00
 7092              	.LEHE386:
 7093              	.L539:
 7094              	.LEHB387:
 269:testCore.cpp  **** 	CHECK_EQUAL(offset, queue.takeIndex);
 7095              		.loc 3 269 0 is_stmt 1
 7096 352c E8000000 		call	_ZN8UnitTest11CurrentTest7DetailsEv
 7096      00
 7097 3531 488B08   		movq	(%rax), %rcx
 7098 3534 488D4590 		leaq	-112(%rbp), %rax
 7099 3538 BA0D0100 		movl	$269, %edx
 7099      00
 7100 353d 4889CE   		movq	%rcx, %rsi
 7101 3540 4889C7   		movq	%rax, %rdi
 7102 3543 E8000000 		call	_ZN8UnitTest11TestDetailsC1ERKS0_i
 7102      00
 7103              		.loc 3 269 0 is_stmt 0 discriminator 2
 7104 3548 E8000000 		call	_ZN8UnitTest11CurrentTest7ResultsEv
 7104      00
 7105 354d 488B00   		movq	(%rax), %rax
 7106 3550 488D5590 		leaq	-112(%rbp), %rdx
 7107 3554 488D4DB0 		leaq	-80(%rbp), %rcx
 7108 3558 488D7918 		leaq	24(%rcx), %rdi
 7109 355c 488DB568 		leaq	-152(%rbp), %rsi
 7109      FFFFFF
 7110 3563 4889D1   		movq	%rdx, %rcx
 7111 3566 4889FA   		movq	%rdi, %rdx
 7112 3569 4889C7   		movq	%rax, %rdi
 7113 356c E8000000 		call	_ZN8UnitTest10CheckEqualImmEEvRNS_11TestResultsERKT_RKT0_RKNS_11TestDetailsE
 7113      00
 7114              	.LEHE387:
 7115              	.L542:
 7116              	.LEHB388:
 270:testCore.cpp  **** 	CHECK_EQUAL(4UL, queue.numItems);
 7117              		.loc 3 270 0 is_stmt 1
 7118 3571 E8000000 		call	_ZN8UnitTest11CurrentTest7DetailsEv
 7118      00
 7119 3576 488B08   		movq	(%rax), %rcx
 7120 3579 488D4590 		leaq	-112(%rbp), %rax
 7121 357d BA0E0100 		movl	$270, %edx
 7121      00
 7122 3582 4889CE   		movq	%rcx, %rsi
 7123 3585 4889C7   		movq	%rax, %rdi
 7124 3588 E8000000 		call	_ZN8UnitTest11TestDetailsC1ERKS0_i
 7124      00
 7125              	.LEHE388:
 7126              		.loc 3 270 0 is_stmt 0 discriminator 2
 7127 358d 48C74588 		movq	$4, -120(%rbp)
 7127      04000000 
 7128              	.LEHB389:
 7129 3595 E8000000 		call	_ZN8UnitTest11CurrentTest7ResultsEv
 7129      00
 7130 359a 488B00   		movq	(%rax), %rax
 7131 359d 488D5590 		leaq	-112(%rbp), %rdx
 7132 35a1 488D4DB0 		leaq	-80(%rbp), %rcx
 7133 35a5 488D7920 		leaq	32(%rcx), %rdi
 7134 35a9 488D7588 		leaq	-120(%rbp), %rsi
 7135 35ad 4889D1   		movq	%rdx, %rcx
 7136 35b0 4889FA   		movq	%rdi, %rdx
 7137 35b3 4889C7   		movq	%rax, %rdi
 7138 35b6 E8000000 		call	_ZN8UnitTest10CheckEqualImmEEvRNS_11TestResultsERKT_RKT0_RKNS_11TestDetailsE
 7138      00
 7139              	.LEHE389:
 7140              	.L546:
 271:testCore.cpp  **** 
 272:testCore.cpp  **** 	// Force reallocation
 273:testCore.cpp  **** 	status = queuePut(&queue, (Item*)&item);
 7141              		.loc 3 273 0 is_stmt 1
 7142 35bb 488D5580 		leaq	-128(%rbp), %rdx
 7143 35bf 488D45B0 		leaq	-80(%rbp), %rax
 7144 35c3 4889D6   		movq	%rdx, %rsi
 7145 35c6 4889C7   		movq	%rax, %rdi
 7146              	.LEHB390:
 7147 35c9 E8000000 		call	queuePut
 7147      00
 7148              	.LEHE390:
 7149 35ce 898578FF 		movl	%eax, -136(%rbp)
 7149      FFFF
 7150              	.LEHB391:
 274:testCore.cpp  **** 	CHECK_EQUAL(USB_SUCCESS, status);
 7151              		.loc 3 274 0
 7152 35d4 E8000000 		call	_ZN8UnitTest11CurrentTest7DetailsEv
 7152      00
 7153 35d9 488B08   		movq	(%rax), %rcx
 7154 35dc 488D4590 		leaq	-112(%rbp), %rax
 7155 35e0 BA120100 		movl	$274, %edx
 7155      00
 7156 35e5 4889CE   		movq	%rcx, %rsi
 7157 35e8 4889C7   		movq	%rax, %rdi
 7158 35eb E8000000 		call	_ZN8UnitTest11TestDetailsC1ERKS0_i
 7158      00
 7159              	.LEHE391:
 7160              		.loc 3 274 0 is_stmt 0 discriminator 2
 7161 35f0 C7458800 		movl	$0, -120(%rbp)
 7161      000000
 7162              	.LEHB392:
 7163 35f7 E8000000 		call	_ZN8UnitTest11CurrentTest7ResultsEv
 7163      00
 7164 35fc 488B00   		movq	(%rax), %rax
 7165 35ff 488D4D90 		leaq	-112(%rbp), %rcx
 7166 3603 488D9578 		leaq	-136(%rbp), %rdx
 7166      FFFFFF
 7167 360a 488D7588 		leaq	-120(%rbp), %rsi
 7168 360e 4889C7   		movq	%rax, %rdi
 7169 3611 E8000000 		call	_ZN8UnitTest10CheckEqualI9USBStatusS1_EEvRNS_11TestResultsERKT_RKT0_RKNS_11TestDetailsE
 7169      00
 7170              	.LEHE392:
 7171              	.L550:
 7172              	.LEHB393:
 275:testCore.cpp  **** 	CHECK_EQUAL(5UL, *item);
 7173              		.loc 3 275 0 is_stmt 1
 7174 3616 E8000000 		call	_ZN8UnitTest11CurrentTest7DetailsEv
 7174      00
 7175 361b 488B08   		movq	(%rax), %rcx
 7176 361e 488D4590 		leaq	-112(%rbp), %rax
 7177 3622 BA130100 		movl	$275, %edx
 7177      00
 7178 3627 4889CE   		movq	%rcx, %rsi
 7179 362a 4889C7   		movq	%rax, %rdi
 7180 362d E8000000 		call	_ZN8UnitTest11TestDetailsC1ERKS0_i
 7180      00
 7181              	.LEHE393:
 7182              		.loc 3 275 0 is_stmt 0 discriminator 2
 7183 3632 488B5D80 		movq	-128(%rbp), %rbx
 7184 3636 48C74588 		movq	$5, -120(%rbp)
 7184      05000000 
 7185              	.LEHB394:
 7186 363e E8000000 		call	_ZN8UnitTest11CurrentTest7ResultsEv
 7186      00
 7187 3643 488B00   		movq	(%rax), %rax
 7188 3646 488D5590 		leaq	-112(%rbp), %rdx
 7189 364a 488D7588 		leaq	-120(%rbp), %rsi
 7190 364e 4889D1   		movq	%rdx, %rcx
 7191 3651 4889DA   		movq	%rbx, %rdx
 7192 3654 4889C7   		movq	%rax, %rdi
 7193 3657 E8000000 		call	_ZN8UnitTest10CheckEqualImjEEvRNS_11TestResultsERKT_RKT0_RKNS_11TestDetailsE
 7193      00
 7194              	.LEHE394:
 7195              	.L554:
 276:testCore.cpp  **** 	*item = 104;
 7196              		.loc 3 276 0 is_stmt 1
 7197 365c 488B4580 		movq	-128(%rbp), %rax
 7198 3660 C7006800 		movl	$104, (%rax)
 7198      0000
 277:testCore.cpp  **** 	queueCommitPut(&queue);
 7199              		.loc 3 277 0
 7200 3666 488D45B0 		leaq	-80(%rbp), %rax
 7201 366a 4889C7   		movq	%rax, %rdi
 7202              	.LEHB395:
 7203 366d E8000000 		call	queueCommitPut
 7203      00
 7204              	.LEHE395:
 7205              	.LEHB396:
 278:testCore.cpp  **** 
 279:testCore.cpp  **** 	// Verify
 280:testCore.cpp  **** 	CHECK_EQUAL(8UL, queue.capacity);
 7206              		.loc 3 280 0
 7207 3672 E8000000 		call	_ZN8UnitTest11CurrentTest7DetailsEv
 7207      00
 7208 3677 488B08   		movq	(%rax), %rcx
 7209 367a 488D4590 		leaq	-112(%rbp), %rax
 7210 367e BA180100 		movl	$280, %edx
 7210      00
 7211 3683 4889CE   		movq	%rcx, %rsi
 7212 3686 4889C7   		movq	%rax, %rdi
 7213 3689 E8000000 		call	_ZN8UnitTest11TestDetailsC1ERKS0_i
 7213      00
 7214              	.LEHE396:
 7215              		.loc 3 280 0 is_stmt 0 discriminator 2
 7216 368e 48C74588 		movq	$8, -120(%rbp)
 7216      08000000 
 7217              	.LEHB397:
 7218 3696 E8000000 		call	_ZN8UnitTest11CurrentTest7ResultsEv
 7218      00
 7219 369b 488B00   		movq	(%rax), %rax
 7220 369e 488D5590 		leaq	-112(%rbp), %rdx
 7221 36a2 488D4DB0 		leaq	-80(%rbp), %rcx
 7222 36a6 488D7908 		leaq	8(%rcx), %rdi
 7223 36aa 488D7588 		leaq	-120(%rbp), %rsi
 7224 36ae 4889D1   		movq	%rdx, %rcx
 7225 36b1 4889FA   		movq	%rdi, %rdx
 7226 36b4 4889C7   		movq	%rax, %rdi
 7227 36b7 E8000000 		call	_ZN8UnitTest10CheckEqualImmEEvRNS_11TestResultsERKT_RKT0_RKNS_11TestDetailsE
 7227      00
 7228              	.LEHE397:
 7229              	.L558:
 7230              	.LEHB398:
 281:testCore.cpp  **** 	CHECK_EQUAL(5UL, queue.putIndex);
 7231              		.loc 3 281 0 is_stmt 1
 7232 36bc E8000000 		call	_ZN8UnitTest11CurrentTest7DetailsEv
 7232      00
 7233 36c1 488B08   		movq	(%rax), %rcx
 7234 36c4 488D4590 		leaq	-112(%rbp), %rax
 7235 36c8 BA190100 		movl	$281, %edx
 7235      00
 7236 36cd 4889CE   		movq	%rcx, %rsi
 7237 36d0 4889C7   		movq	%rax, %rdi
 7238 36d3 E8000000 		call	_ZN8UnitTest11TestDetailsC1ERKS0_i
 7238      00
 7239              	.LEHE398:
 7240              		.loc 3 281 0 is_stmt 0 discriminator 2
 7241 36d8 48C74588 		movq	$5, -120(%rbp)
 7241      05000000 
 7242              	.LEHB399:
 7243 36e0 E8000000 		call	_ZN8UnitTest11CurrentTest7ResultsEv
 7243      00
 7244 36e5 488B00   		movq	(%rax), %rax
 7245 36e8 488D5590 		leaq	-112(%rbp), %rdx
 7246 36ec 488D4DB0 		leaq	-80(%rbp), %rcx
 7247 36f0 488D7910 		leaq	16(%rcx), %rdi
 7248 36f4 488D7588 		leaq	-120(%rbp), %rsi
 7249 36f8 4889D1   		movq	%rdx, %rcx
 7250 36fb 4889FA   		movq	%rdi, %rdx
 7251 36fe 4889C7   		movq	%rax, %rdi
 7252 3701 E8000000 		call	_ZN8UnitTest10CheckEqualImmEEvRNS_11TestResultsERKT_RKT0_RKNS_11TestDetailsE
 7252      00
 7253              	.LEHE399:
 7254              	.L562:
 7255              	.LEHB400:
 282:testCore.cpp  **** 	CHECK_EQUAL(0UL, queue.takeIndex);
 7256              		.loc 3 282 0 is_stmt 1
 7257 3706 E8000000 		call	_ZN8UnitTest11CurrentTest7DetailsEv
 7257      00
 7258 370b 488B08   		movq	(%rax), %rcx
 7259 370e 488D4590 		leaq	-112(%rbp), %rax
 7260 3712 BA1A0100 		movl	$282, %edx
 7260      00
 7261 3717 4889CE   		movq	%rcx, %rsi
 7262 371a 4889C7   		movq	%rax, %rdi
 7263 371d E8000000 		call	_ZN8UnitTest11TestDetailsC1ERKS0_i
 7263      00
 7264              	.LEHE400:
 7265              		.loc 3 282 0 is_stmt 0 discriminator 2
 7266 3722 48C74588 		movq	$0, -120(%rbp)
 7266      00000000 
 7267              	.LEHB401:
 7268 372a E8000000 		call	_ZN8UnitTest11CurrentTest7ResultsEv
 7268      00
 7269 372f 488B00   		movq	(%rax), %rax
 7270 3732 488D5590 		leaq	-112(%rbp), %rdx
 7271 3736 488D4DB0 		leaq	-80(%rbp), %rcx
 7272 373a 488D7918 		leaq	24(%rcx), %rdi
 7273 373e 488D7588 		leaq	-120(%rbp), %rsi
 7274 3742 4889D1   		movq	%rdx, %rcx
 7275 3745 4889FA   		movq	%rdi, %rdx
 7276 3748 4889C7   		movq	%rax, %rdi
 7277 374b E8000000 		call	_ZN8UnitTest10CheckEqualImmEEvRNS_11TestResultsERKT_RKT0_RKNS_11TestDetailsE
 7277      00
 7278              	.LEHE401:
 7279              	.L566:
 7280              	.LEHB402:
 283:testCore.cpp  **** 	CHECK_EQUAL(5UL, queue.numItems);
 7281              		.loc 3 283 0 is_stmt 1
 7282 3750 E8000000 		call	_ZN8UnitTest11CurrentTest7DetailsEv
 7282      00
 7283 3755 488B08   		movq	(%rax), %rcx
 7284 3758 488D4590 		leaq	-112(%rbp), %rax
 7285 375c BA1B0100 		movl	$283, %edx
 7285      00
 7286 3761 4889CE   		movq	%rcx, %rsi
 7287 3764 4889C7   		movq	%rax, %rdi
 7288 3767 E8000000 		call	_ZN8UnitTest11TestDetailsC1ERKS0_i
 7288      00
 7289              	.LEHE402:
 7290              		.loc 3 283 0 is_stmt 0 discriminator 2
 7291 376c 48C74588 		movq	$5, -120(%rbp)
 7291      05000000 
 7292              	.LEHB403:
 7293 3774 E8000000 		call	_ZN8UnitTest11CurrentTest7ResultsEv
 7293      00
 7294 3779 488B00   		movq	(%rax), %rax
 7295 377c 488D5590 		leaq	-112(%rbp), %rdx
 7296 3780 488D4DB0 		leaq	-80(%rbp), %rcx
 7297 3784 488D7920 		leaq	32(%rcx), %rdi
 7298 3788 488D7588 		leaq	-120(%rbp), %rsi
 7299 378c 4889D1   		movq	%rdx, %rcx
 7300 378f 4889FA   		movq	%rdi, %rdx
 7301 3792 4889C7   		movq	%rax, %rdi
 7302 3795 E8000000 		call	_ZN8UnitTest10CheckEqualImmEEvRNS_11TestResultsERKT_RKT0_RKNS_11TestDetailsE
 7302      00
 7303              	.LEHE403:
 7304              	.L570:
 7305              	.LEHB404:
 284:testCore.cpp  **** 
 285:testCore.cpp  **** 	// Verify array
 286:testCore.cpp  **** 	CHECK_EQUAL(100UL, deref(queue.itemArray[0]));
 7306              		.loc 3 286 0 is_stmt 1
 7307 379a E8000000 		call	_ZN8UnitTest11CurrentTest7DetailsEv
 7307      00
 7308 379f 488B08   		movq	(%rax), %rcx
 7309 37a2 488D4590 		leaq	-112(%rbp), %rax
 7310 37a6 BA1E0100 		movl	$286, %edx
 7310      00
 7311 37ab 4889CE   		movq	%rcx, %rsi
 7312 37ae 4889C7   		movq	%rax, %rdi
 7313 37b1 E8000000 		call	_ZN8UnitTest11TestDetailsC1ERKS0_i
 7313      00
 7314              	.LEHE404:
 7315              		.loc 3 286 0 is_stmt 0 discriminator 2
 7316 37b6 488B45B0 		movq	-80(%rbp), %rax
 7317 37ba 488B00   		movq	(%rax), %rax
 7318 37bd 4889C7   		movq	%rax, %rdi
 7319 37c0 E8C5C8FF 		call	_ZL5derefPKv
 7319      FF
 7320 37c5 89857CFF 		movl	%eax, -132(%rbp)
 7320      FFFF
 7321 37cb 48C74588 		movq	$100, -120(%rbp)
 7321      64000000 
 7322              	.LEHB405:
 7323 37d3 E8000000 		call	_ZN8UnitTest11CurrentTest7ResultsEv
 7323      00
 7324 37d8 488B00   		movq	(%rax), %rax
 7325 37db 488D4D90 		leaq	-112(%rbp), %rcx
 7326 37df 488D957C 		leaq	-132(%rbp), %rdx
 7326      FFFFFF
 7327 37e6 488D7588 		leaq	-120(%rbp), %rsi
 7328 37ea 4889C7   		movq	%rax, %rdi
 7329 37ed E8000000 		call	_ZN8UnitTest10CheckEqualImjEEvRNS_11TestResultsERKT_RKT0_RKNS_11TestDetailsE
 7329      00
 7330              	.LEHE405:
 7331              	.L574:
 7332              	.LEHB406:
 287:testCore.cpp  **** 	CHECK_EQUAL(101UL, deref(queue.itemArray[1]));
 7333              		.loc 3 287 0 is_stmt 1
 7334 37f2 E8000000 		call	_ZN8UnitTest11CurrentTest7DetailsEv
 7334      00
 7335 37f7 488B08   		movq	(%rax), %rcx
 7336 37fa 488D4590 		leaq	-112(%rbp), %rax
 7337 37fe BA1F0100 		movl	$287, %edx
 7337      00
 7338 3803 4889CE   		movq	%rcx, %rsi
 7339 3806 4889C7   		movq	%rax, %rdi
 7340 3809 E8000000 		call	_ZN8UnitTest11TestDetailsC1ERKS0_i
 7340      00
 7341              	.LEHE406:
 7342              		.loc 3 287 0 is_stmt 0 discriminator 2
 7343 380e 488B45B0 		movq	-80(%rbp), %rax
 7344 3812 4883C008 		addq	$8, %rax
 7345 3816 488B00   		movq	(%rax), %rax
 7346 3819 4889C7   		movq	%rax, %rdi
 7347 381c E869C8FF 		call	_ZL5derefPKv
 7347      FF
 7348 3821 89857CFF 		movl	%eax, -132(%rbp)
 7348      FFFF
 7349 3827 48C74588 		movq	$101, -120(%rbp)
 7349      65000000 
 7350              	.LEHB407:
 7351 382f E8000000 		call	_ZN8UnitTest11CurrentTest7ResultsEv
 7351      00
 7352 3834 488B00   		movq	(%rax), %rax
 7353 3837 488D4D90 		leaq	-112(%rbp), %rcx
 7354 383b 488D957C 		leaq	-132(%rbp), %rdx
 7354      FFFFFF
 7355 3842 488D7588 		leaq	-120(%rbp), %rsi
 7356 3846 4889C7   		movq	%rax, %rdi
 7357 3849 E8000000 		call	_ZN8UnitTest10CheckEqualImjEEvRNS_11TestResultsERKT_RKT0_RKNS_11TestDetailsE
 7357      00
 7358              	.LEHE407:
 7359              	.L578:
 7360              	.LEHB408:
 288:testCore.cpp  **** 	CHECK_EQUAL(102UL, deref(queue.itemArray[2]));
 7361              		.loc 3 288 0 is_stmt 1
 7362 384e E8000000 		call	_ZN8UnitTest11CurrentTest7DetailsEv
 7362      00
 7363 3853 488B08   		movq	(%rax), %rcx
 7364 3856 488D4590 		leaq	-112(%rbp), %rax
 7365 385a BA200100 		movl	$288, %edx
 7365      00
 7366 385f 4889CE   		movq	%rcx, %rsi
 7367 3862 4889C7   		movq	%rax, %rdi
 7368 3865 E8000000 		call	_ZN8UnitTest11TestDetailsC1ERKS0_i
 7368      00
 7369              	.LEHE408:
 7370              		.loc 3 288 0 is_stmt 0 discriminator 2
 7371 386a 488B45B0 		movq	-80(%rbp), %rax
 7372 386e 4883C010 		addq	$16, %rax
 7373 3872 488B00   		movq	(%rax), %rax
 7374 3875 4889C7   		movq	%rax, %rdi
 7375 3878 E80DC8FF 		call	_ZL5derefPKv
 7375      FF
 7376 387d 89857CFF 		movl	%eax, -132(%rbp)
 7376      FFFF
 7377 3883 48C74588 		movq	$102, -120(%rbp)
 7377      66000000 
 7378              	.LEHB409:
 7379 388b E8000000 		call	_ZN8UnitTest11CurrentTest7ResultsEv
 7379      00
 7380 3890 488B00   		movq	(%rax), %rax
 7381 3893 488D4D90 		leaq	-112(%rbp), %rcx
 7382 3897 488D957C 		leaq	-132(%rbp), %rdx
 7382      FFFFFF
 7383 389e 488D7588 		leaq	-120(%rbp), %rsi
 7384 38a2 4889C7   		movq	%rax, %rdi
 7385 38a5 E8000000 		call	_ZN8UnitTest10CheckEqualImjEEvRNS_11TestResultsERKT_RKT0_RKNS_11TestDetailsE
 7385      00
 7386              	.LEHE409:
 7387              	.L582:
 7388              	.LEHB410:
 289:testCore.cpp  **** 	CHECK_EQUAL(103UL, deref(queue.itemArray[3]));
 7389              		.loc 3 289 0 is_stmt 1
 7390 38aa E8000000 		call	_ZN8UnitTest11CurrentTest7DetailsEv
 7390      00
 7391 38af 488B08   		movq	(%rax), %rcx
 7392 38b2 488D4590 		leaq	-112(%rbp), %rax
 7393 38b6 BA210100 		movl	$289, %edx
 7393      00
 7394 38bb 4889CE   		movq	%rcx, %rsi
 7395 38be 4889C7   		movq	%rax, %rdi
 7396 38c1 E8000000 		call	_ZN8UnitTest11TestDetailsC1ERKS0_i
 7396      00
 7397              	.LEHE410:
 7398              		.loc 3 289 0 is_stmt 0 discriminator 2
 7399 38c6 488B45B0 		movq	-80(%rbp), %rax
 7400 38ca 4883C018 		addq	$24, %rax
 7401 38ce 488B00   		movq	(%rax), %rax
 7402 38d1 4889C7   		movq	%rax, %rdi
 7403 38d4 E8B1C7FF 		call	_ZL5derefPKv
 7403      FF
 7404 38d9 89857CFF 		movl	%eax, -132(%rbp)
 7404      FFFF
 7405 38df 48C74588 		movq	$103, -120(%rbp)
 7405      67000000 
 7406              	.LEHB411:
 7407 38e7 E8000000 		call	_ZN8UnitTest11CurrentTest7ResultsEv
 7407      00
 7408 38ec 488B00   		movq	(%rax), %rax
 7409 38ef 488D4D90 		leaq	-112(%rbp), %rcx
 7410 38f3 488D957C 		leaq	-132(%rbp), %rdx
 7410      FFFFFF
 7411 38fa 488D7588 		leaq	-120(%rbp), %rsi
 7412 38fe 4889C7   		movq	%rax, %rdi
 7413 3901 E8000000 		call	_ZN8UnitTest10CheckEqualImjEEvRNS_11TestResultsERKT_RKT0_RKNS_11TestDetailsE
 7413      00
 7414              	.LEHE411:
 7415              	.L586:
 7416              	.LEHB412:
 290:testCore.cpp  **** 	CHECK_EQUAL(104UL, deref(queue.itemArray[4]));
 7417              		.loc 3 290 0 is_stmt 1
 7418 3906 E8000000 		call	_ZN8UnitTest11CurrentTest7DetailsEv
 7418      00
 7419 390b 488B08   		movq	(%rax), %rcx
 7420 390e 488D4590 		leaq	-112(%rbp), %rax
 7421 3912 BA220100 		movl	$290, %edx
 7421      00
 7422 3917 4889CE   		movq	%rcx, %rsi
 7423 391a 4889C7   		movq	%rax, %rdi
 7424 391d E8000000 		call	_ZN8UnitTest11TestDetailsC1ERKS0_i
 7424      00
 7425              	.LEHE412:
 7426              		.loc 3 290 0 is_stmt 0 discriminator 2
 7427 3922 488B45B0 		movq	-80(%rbp), %rax
 7428 3926 4883C020 		addq	$32, %rax
 7429 392a 488B00   		movq	(%rax), %rax
 7430 392d 4889C7   		movq	%rax, %rdi
 7431 3930 E855C7FF 		call	_ZL5derefPKv
 7431      FF
 7432 3935 89857CFF 		movl	%eax, -132(%rbp)
 7432      FFFF
 7433 393b 48C74588 		movq	$104, -120(%rbp)
 7433      68000000 
 7434              	.LEHB413:
 7435 3943 E8000000 		call	_ZN8UnitTest11CurrentTest7ResultsEv
 7435      00
 7436 3948 488B00   		movq	(%rax), %rax
 7437 394b 488D4D90 		leaq	-112(%rbp), %rcx
 7438 394f 488D957C 		leaq	-132(%rbp), %rdx
 7438      FFFFFF
 7439 3956 488D7588 		leaq	-120(%rbp), %rsi
 7440 395a 4889C7   		movq	%rax, %rdi
 7441 395d E8000000 		call	_ZN8UnitTest10CheckEqualImjEEvRNS_11TestResultsERKT_RKT0_RKNS_11TestDetailsE
 7441      00
 7442              	.LEHE413:
 7443              	.L590:
 7444              	.LEHB414:
 291:testCore.cpp  **** 	CHECK_EQUAL(6UL, deref(queue.itemArray[5]));
 7445              		.loc 3 291 0 is_stmt 1
 7446 3962 E8000000 		call	_ZN8UnitTest11CurrentTest7DetailsEv
 7446      00
 7447 3967 488B08   		movq	(%rax), %rcx
 7448 396a 488D4590 		leaq	-112(%rbp), %rax
 7449 396e BA230100 		movl	$291, %edx
 7449      00
 7450 3973 4889CE   		movq	%rcx, %rsi
 7451 3976 4889C7   		movq	%rax, %rdi
 7452 3979 E8000000 		call	_ZN8UnitTest11TestDetailsC1ERKS0_i
 7452      00
 7453              	.LEHE414:
 7454              		.loc 3 291 0 is_stmt 0 discriminator 2
 7455 397e 488B45B0 		movq	-80(%rbp), %rax
 7456 3982 4883C028 		addq	$40, %rax
 7457 3986 488B00   		movq	(%rax), %rax
 7458 3989 4889C7   		movq	%rax, %rdi
 7459 398c E8F9C6FF 		call	_ZL5derefPKv
 7459      FF
 7460 3991 89857CFF 		movl	%eax, -132(%rbp)
 7460      FFFF
 7461 3997 48C74588 		movq	$6, -120(%rbp)
 7461      06000000 
 7462              	.LEHB415:
 7463 399f E8000000 		call	_ZN8UnitTest11CurrentTest7ResultsEv
 7463      00
 7464 39a4 488B00   		movq	(%rax), %rax
 7465 39a7 488D4D90 		leaq	-112(%rbp), %rcx
 7466 39ab 488D957C 		leaq	-132(%rbp), %rdx
 7466      FFFFFF
 7467 39b2 488D7588 		leaq	-120(%rbp), %rsi
 7468 39b6 4889C7   		movq	%rax, %rdi
 7469 39b9 E8000000 		call	_ZN8UnitTest10CheckEqualImjEEvRNS_11TestResultsERKT_RKT0_RKNS_11TestDetailsE
 7469      00
 7470              	.LEHE415:
 7471              	.L594:
 7472              	.LEHB416:
 292:testCore.cpp  **** 	CHECK_EQUAL(7UL, deref(queue.itemArray[6]));
 7473              		.loc 3 292 0 is_stmt 1
 7474 39be E8000000 		call	_ZN8UnitTest11CurrentTest7DetailsEv
 7474      00
 7475 39c3 488B08   		movq	(%rax), %rcx
 7476 39c6 488D4590 		leaq	-112(%rbp), %rax
 7477 39ca BA240100 		movl	$292, %edx
 7477      00
 7478 39cf 4889CE   		movq	%rcx, %rsi
 7479 39d2 4889C7   		movq	%rax, %rdi
 7480 39d5 E8000000 		call	_ZN8UnitTest11TestDetailsC1ERKS0_i
 7480      00
 7481              	.LEHE416:
 7482              		.loc 3 292 0 is_stmt 0 discriminator 2
 7483 39da 488B45B0 		movq	-80(%rbp), %rax
 7484 39de 4883C030 		addq	$48, %rax
 7485 39e2 488B00   		movq	(%rax), %rax
 7486 39e5 4889C7   		movq	%rax, %rdi
 7487 39e8 E89DC6FF 		call	_ZL5derefPKv
 7487      FF
 7488 39ed 89857CFF 		movl	%eax, -132(%rbp)
 7488      FFFF
 7489 39f3 48C74588 		movq	$7, -120(%rbp)
 7489      07000000 
 7490              	.LEHB417:
 7491 39fb E8000000 		call	_ZN8UnitTest11CurrentTest7ResultsEv
 7491      00
 7492 3a00 488B00   		movq	(%rax), %rax
 7493 3a03 488D4D90 		leaq	-112(%rbp), %rcx
 7494 3a07 488D957C 		leaq	-132(%rbp), %rdx
 7494      FFFFFF
 7495 3a0e 488D7588 		leaq	-120(%rbp), %rsi
 7496 3a12 4889C7   		movq	%rax, %rdi
 7497 3a15 E8000000 		call	_ZN8UnitTest10CheckEqualImjEEvRNS_11TestResultsERKT_RKT0_RKNS_11TestDetailsE
 7497      00
 7498              	.LEHE417:
 7499              	.L598:
 7500              	.LEHB418:
 293:testCore.cpp  **** 	CHECK_EQUAL(8UL, deref(queue.itemArray[7]));
 7501              		.loc 3 293 0 is_stmt 1
 7502 3a1a E8000000 		call	_ZN8UnitTest11CurrentTest7DetailsEv
 7502      00
 7503 3a1f 488B08   		movq	(%rax), %rcx
 7504 3a22 488D4590 		leaq	-112(%rbp), %rax
 7505 3a26 BA250100 		movl	$293, %edx
 7505      00
 7506 3a2b 4889CE   		movq	%rcx, %rsi
 7507 3a2e 4889C7   		movq	%rax, %rdi
 7508 3a31 E8000000 		call	_ZN8UnitTest11TestDetailsC1ERKS0_i
 7508      00
 7509              	.LEHE418:
 7510              		.loc 3 293 0 is_stmt 0 discriminator 2
 7511 3a36 488B45B0 		movq	-80(%rbp), %rax
 7512 3a3a 4883C038 		addq	$56, %rax
 7513 3a3e 488B00   		movq	(%rax), %rax
 7514 3a41 4889C7   		movq	%rax, %rdi
 7515 3a44 E841C6FF 		call	_ZL5derefPKv
 7515      FF
 7516 3a49 89857CFF 		movl	%eax, -132(%rbp)
 7516      FFFF
 7517 3a4f 48C74588 		movq	$8, -120(%rbp)
 7517      08000000 
 7518              	.LEHB419:
 7519 3a57 E8000000 		call	_ZN8UnitTest11CurrentTest7ResultsEv
 7519      00
 7520 3a5c 488B00   		movq	(%rax), %rax
 7521 3a5f 488D4D90 		leaq	-112(%rbp), %rcx
 7522 3a63 488D957C 		leaq	-132(%rbp), %rdx
 7522      FFFFFF
 7523 3a6a 488D7588 		leaq	-120(%rbp), %rsi
 7524 3a6e 4889C7   		movq	%rax, %rdi
 7525 3a71 E8000000 		call	_ZN8UnitTest10CheckEqualImjEEvRNS_11TestResultsERKT_RKT0_RKNS_11TestDetailsE
 7525      00
 7526              	.LEHE419:
 7527              	.L602:
 294:testCore.cpp  **** 
 295:testCore.cpp  **** 	// Take five items out of the queue
 296:testCore.cpp  **** 	status = queueTake(&queue, (Item*)&item);
 7528              		.loc 3 296 0 is_stmt 1
 7529 3a76 488D5580 		leaq	-128(%rbp), %rdx
 7530 3a7a 488D45B0 		leaq	-80(%rbp), %rax
 7531 3a7e 4889D6   		movq	%rdx, %rsi
 7532 3a81 4889C7   		movq	%rax, %rdi
 7533              	.LEHB420:
 7534 3a84 E8000000 		call	queueTake
 7534      00
 7535              	.LEHE420:
 7536 3a89 898578FF 		movl	%eax, -136(%rbp)
 7536      FFFF
 7537              	.LEHB421:
 297:testCore.cpp  **** 	CHECK_EQUAL(USB_SUCCESS, status);
 7538              		.loc 3 297 0
 7539 3a8f E8000000 		call	_ZN8UnitTest11CurrentTest7DetailsEv
 7539      00
 7540 3a94 488B08   		movq	(%rax), %rcx
 7541 3a97 488D4590 		leaq	-112(%rbp), %rax
 7542 3a9b BA290100 		movl	$297, %edx
 7542      00
 7543 3aa0 4889CE   		movq	%rcx, %rsi
 7544 3aa3 4889C7   		movq	%rax, %rdi
 7545 3aa6 E8000000 		call	_ZN8UnitTest11TestDetailsC1ERKS0_i
 7545      00
 7546              	.LEHE421:
 7547              		.loc 3 297 0 is_stmt 0 discriminator 2
 7548 3aab C7458800 		movl	$0, -120(%rbp)
 7548      000000
 7549              	.LEHB422:
 7550 3ab2 E8000000 		call	_ZN8UnitTest11CurrentTest7ResultsEv
 7550      00
 7551 3ab7 488B00   		movq	(%rax), %rax
 7552 3aba 488D4D90 		leaq	-112(%rbp), %rcx
 7553 3abe 488D9578 		leaq	-136(%rbp), %rdx
 7553      FFFFFF
 7554 3ac5 488D7588 		leaq	-120(%rbp), %rsi
 7555 3ac9 4889C7   		movq	%rax, %rdi
 7556 3acc E8000000 		call	_ZN8UnitTest10CheckEqualI9USBStatusS1_EEvRNS_11TestResultsERKT_RKT0_RKNS_11TestDetailsE
 7556      00
 7557              	.LEHE422:
 7558              	.L606:
 7559              	.LEHB423:
 298:testCore.cpp  **** 	CHECK_EQUAL(100UL, *item);
 7560              		.loc 3 298 0 is_stmt 1
 7561 3ad1 E8000000 		call	_ZN8UnitTest11CurrentTest7DetailsEv
 7561      00
 7562 3ad6 488B08   		movq	(%rax), %rcx
 7563 3ad9 488D4590 		leaq	-112(%rbp), %rax
 7564 3add BA2A0100 		movl	$298, %edx
 7564      00
 7565 3ae2 4889CE   		movq	%rcx, %rsi
 7566 3ae5 4889C7   		movq	%rax, %rdi
 7567 3ae8 E8000000 		call	_ZN8UnitTest11TestDetailsC1ERKS0_i
 7567      00
 7568              	.LEHE423:
 7569              		.loc 3 298 0 is_stmt 0 discriminator 2
 7570 3aed 488B5D80 		movq	-128(%rbp), %rbx
 7571 3af1 48C74588 		movq	$100, -120(%rbp)
 7571      64000000 
 7572              	.LEHB424:
 7573 3af9 E8000000 		call	_ZN8UnitTest11CurrentTest7ResultsEv
 7573      00
 7574 3afe 488B00   		movq	(%rax), %rax
 7575 3b01 488D5590 		leaq	-112(%rbp), %rdx
 7576 3b05 488D7588 		leaq	-120(%rbp), %rsi
 7577 3b09 4889D1   		movq	%rdx, %rcx
 7578 3b0c 4889DA   		movq	%rbx, %rdx
 7579 3b0f 4889C7   		movq	%rax, %rdi
 7580 3b12 E8000000 		call	_ZN8UnitTest10CheckEqualImjEEvRNS_11TestResultsERKT_RKT0_RKNS_11TestDetailsE
 7580      00
 7581              	.LEHE424:
 7582              	.L610:
 299:testCore.cpp  **** 	queueCommitTake(&queue);
 7583              		.loc 3 299 0 is_stmt 1
 7584 3b17 488D45B0 		leaq	-80(%rbp), %rax
 7585 3b1b 4889C7   		movq	%rax, %rdi
 7586              	.LEHB425:
 7587 3b1e E8000000 		call	queueCommitTake
 7587      00
 300:testCore.cpp  **** 	status = queueTake(&queue, (Item*)&item);
 7588              		.loc 3 300 0
 7589 3b23 488D5580 		leaq	-128(%rbp), %rdx
 7590 3b27 488D45B0 		leaq	-80(%rbp), %rax
 7591 3b2b 4889D6   		movq	%rdx, %rsi
 7592 3b2e 4889C7   		movq	%rax, %rdi
 7593 3b31 E8000000 		call	queueTake
 7593      00
 7594              	.LEHE425:
 7595 3b36 898578FF 		movl	%eax, -136(%rbp)
 7595      FFFF
 7596              	.LEHB426:
 301:testCore.cpp  **** 	CHECK_EQUAL(USB_SUCCESS, status);
 7597              		.loc 3 301 0
 7598 3b3c E8000000 		call	_ZN8UnitTest11CurrentTest7DetailsEv
 7598      00
 7599 3b41 488B08   		movq	(%rax), %rcx
 7600 3b44 488D4590 		leaq	-112(%rbp), %rax
 7601 3b48 BA2D0100 		movl	$301, %edx
 7601      00
 7602 3b4d 4889CE   		movq	%rcx, %rsi
 7603 3b50 4889C7   		movq	%rax, %rdi
 7604 3b53 E8000000 		call	_ZN8UnitTest11TestDetailsC1ERKS0_i
 7604      00
 7605              	.LEHE426:
 7606              		.loc 3 301 0 is_stmt 0 discriminator 2
 7607 3b58 C7458800 		movl	$0, -120(%rbp)
 7607      000000
 7608              	.LEHB427:
 7609 3b5f E8000000 		call	_ZN8UnitTest11CurrentTest7ResultsEv
 7609      00
 7610 3b64 488B00   		movq	(%rax), %rax
 7611 3b67 488D4D90 		leaq	-112(%rbp), %rcx
 7612 3b6b 488D9578 		leaq	-136(%rbp), %rdx
 7612      FFFFFF
 7613 3b72 488D7588 		leaq	-120(%rbp), %rsi
 7614 3b76 4889C7   		movq	%rax, %rdi
 7615 3b79 E8000000 		call	_ZN8UnitTest10CheckEqualI9USBStatusS1_EEvRNS_11TestResultsERKT_RKT0_RKNS_11TestDetailsE
 7615      00
 7616              	.LEHE427:
 7617              	.L614:
 7618              	.LEHB428:
 302:testCore.cpp  **** 	CHECK_EQUAL(101UL, *item);
 7619              		.loc 3 302 0 is_stmt 1
 7620 3b7e E8000000 		call	_ZN8UnitTest11CurrentTest7DetailsEv
 7620      00
 7621 3b83 488B08   		movq	(%rax), %rcx
 7622 3b86 488D4590 		leaq	-112(%rbp), %rax
 7623 3b8a BA2E0100 		movl	$302, %edx
 7623      00
 7624 3b8f 4889CE   		movq	%rcx, %rsi
 7625 3b92 4889C7   		movq	%rax, %rdi
 7626 3b95 E8000000 		call	_ZN8UnitTest11TestDetailsC1ERKS0_i
 7626      00
 7627              	.LEHE428:
 7628              		.loc 3 302 0 is_stmt 0 discriminator 2
 7629 3b9a 488B5D80 		movq	-128(%rbp), %rbx
 7630 3b9e 48C74588 		movq	$101, -120(%rbp)
 7630      65000000 
 7631              	.LEHB429:
 7632 3ba6 E8000000 		call	_ZN8UnitTest11CurrentTest7ResultsEv
 7632      00
 7633 3bab 488B00   		movq	(%rax), %rax
 7634 3bae 488D5590 		leaq	-112(%rbp), %rdx
 7635 3bb2 488D7588 		leaq	-120(%rbp), %rsi
 7636 3bb6 4889D1   		movq	%rdx, %rcx
 7637 3bb9 4889DA   		movq	%rbx, %rdx
 7638 3bbc 4889C7   		movq	%rax, %rdi
 7639 3bbf E8000000 		call	_ZN8UnitTest10CheckEqualImjEEvRNS_11TestResultsERKT_RKT0_RKNS_11TestDetailsE
 7639      00
 7640              	.LEHE429:
 7641              	.L618:
 303:testCore.cpp  **** 	queueCommitTake(&queue);
 7642              		.loc 3 303 0 is_stmt 1
 7643 3bc4 488D45B0 		leaq	-80(%rbp), %rax
 7644 3bc8 4889C7   		movq	%rax, %rdi
 7645              	.LEHB430:
 7646 3bcb E8000000 		call	queueCommitTake
 7646      00
 304:testCore.cpp  **** 	status = queueTake(&queue, (Item*)&item);
 7647              		.loc 3 304 0
 7648 3bd0 488D5580 		leaq	-128(%rbp), %rdx
 7649 3bd4 488D45B0 		leaq	-80(%rbp), %rax
 7650 3bd8 4889D6   		movq	%rdx, %rsi
 7651 3bdb 4889C7   		movq	%rax, %rdi
 7652 3bde E8000000 		call	queueTake
 7652      00
 7653              	.LEHE430:
 7654 3be3 898578FF 		movl	%eax, -136(%rbp)
 7654      FFFF
 7655              	.LEHB431:
 305:testCore.cpp  **** 	CHECK_EQUAL(USB_SUCCESS, status);
 7656              		.loc 3 305 0
 7657 3be9 E8000000 		call	_ZN8UnitTest11CurrentTest7DetailsEv
 7657      00
 7658 3bee 488B08   		movq	(%rax), %rcx
 7659 3bf1 488D4590 		leaq	-112(%rbp), %rax
 7660 3bf5 BA310100 		movl	$305, %edx
 7660      00
 7661 3bfa 4889CE   		movq	%rcx, %rsi
 7662 3bfd 4889C7   		movq	%rax, %rdi
 7663 3c00 E8000000 		call	_ZN8UnitTest11TestDetailsC1ERKS0_i
 7663      00
 7664              	.LEHE431:
 7665              		.loc 3 305 0 is_stmt 0 discriminator 2
 7666 3c05 C7458800 		movl	$0, -120(%rbp)
 7666      000000
 7667              	.LEHB432:
 7668 3c0c E8000000 		call	_ZN8UnitTest11CurrentTest7ResultsEv
 7668      00
 7669 3c11 488B00   		movq	(%rax), %rax
 7670 3c14 488D4D90 		leaq	-112(%rbp), %rcx
 7671 3c18 488D9578 		leaq	-136(%rbp), %rdx
 7671      FFFFFF
 7672 3c1f 488D7588 		leaq	-120(%rbp), %rsi
 7673 3c23 4889C7   		movq	%rax, %rdi
 7674 3c26 E8000000 		call	_ZN8UnitTest10CheckEqualI9USBStatusS1_EEvRNS_11TestResultsERKT_RKT0_RKNS_11TestDetailsE
 7674      00
 7675              	.LEHE432:
 7676              	.L622:
 7677              	.LEHB433:
 306:testCore.cpp  **** 	CHECK_EQUAL(102UL, *item);
 7678              		.loc 3 306 0 is_stmt 1
 7679 3c2b E8000000 		call	_ZN8UnitTest11CurrentTest7DetailsEv
 7679      00
 7680 3c30 488B08   		movq	(%rax), %rcx
 7681 3c33 488D4590 		leaq	-112(%rbp), %rax
 7682 3c37 BA320100 		movl	$306, %edx
 7682      00
 7683 3c3c 4889CE   		movq	%rcx, %rsi
 7684 3c3f 4889C7   		movq	%rax, %rdi
 7685 3c42 E8000000 		call	_ZN8UnitTest11TestDetailsC1ERKS0_i
 7685      00
 7686              	.LEHE433:
 7687              		.loc 3 306 0 is_stmt 0 discriminator 2
 7688 3c47 488B5D80 		movq	-128(%rbp), %rbx
 7689 3c4b 48C74588 		movq	$102, -120(%rbp)
 7689      66000000 
 7690              	.LEHB434:
 7691 3c53 E8000000 		call	_ZN8UnitTest11CurrentTest7ResultsEv
 7691      00
 7692 3c58 488B00   		movq	(%rax), %rax
 7693 3c5b 488D5590 		leaq	-112(%rbp), %rdx
 7694 3c5f 488D7588 		leaq	-120(%rbp), %rsi
 7695 3c63 4889D1   		movq	%rdx, %rcx
 7696 3c66 4889DA   		movq	%rbx, %rdx
 7697 3c69 4889C7   		movq	%rax, %rdi
 7698 3c6c E8000000 		call	_ZN8UnitTest10CheckEqualImjEEvRNS_11TestResultsERKT_RKT0_RKNS_11TestDetailsE
 7698      00
 7699              	.LEHE434:
 7700              	.L626:
 307:testCore.cpp  **** 	queueCommitTake(&queue);
 7701              		.loc 3 307 0 is_stmt 1
 7702 3c71 488D45B0 		leaq	-80(%rbp), %rax
 7703 3c75 4889C7   		movq	%rax, %rdi
 7704              	.LEHB435:
 7705 3c78 E8000000 		call	queueCommitTake
 7705      00
 308:testCore.cpp  **** 	status = queueTake(&queue, (Item*)&item);
 7706              		.loc 3 308 0
 7707 3c7d 488D5580 		leaq	-128(%rbp), %rdx
 7708 3c81 488D45B0 		leaq	-80(%rbp), %rax
 7709 3c85 4889D6   		movq	%rdx, %rsi
 7710 3c88 4889C7   		movq	%rax, %rdi
 7711 3c8b E8000000 		call	queueTake
 7711      00
 7712              	.LEHE435:
 7713 3c90 898578FF 		movl	%eax, -136(%rbp)
 7713      FFFF
 7714              	.LEHB436:
 309:testCore.cpp  **** 	CHECK_EQUAL(USB_SUCCESS, status);
 7715              		.loc 3 309 0
 7716 3c96 E8000000 		call	_ZN8UnitTest11CurrentTest7DetailsEv
 7716      00
 7717 3c9b 488B08   		movq	(%rax), %rcx
 7718 3c9e 488D4590 		leaq	-112(%rbp), %rax
 7719 3ca2 BA350100 		movl	$309, %edx
 7719      00
 7720 3ca7 4889CE   		movq	%rcx, %rsi
 7721 3caa 4889C7   		movq	%rax, %rdi
 7722 3cad E8000000 		call	_ZN8UnitTest11TestDetailsC1ERKS0_i
 7722      00
 7723              	.LEHE436:
 7724              		.loc 3 309 0 is_stmt 0 discriminator 2
 7725 3cb2 C7458800 		movl	$0, -120(%rbp)
 7725      000000
 7726              	.LEHB437:
 7727 3cb9 E8000000 		call	_ZN8UnitTest11CurrentTest7ResultsEv
 7727      00
 7728 3cbe 488B00   		movq	(%rax), %rax
 7729 3cc1 488D4D90 		leaq	-112(%rbp), %rcx
 7730 3cc5 488D9578 		leaq	-136(%rbp), %rdx
 7730      FFFFFF
 7731 3ccc 488D7588 		leaq	-120(%rbp), %rsi
 7732 3cd0 4889C7   		movq	%rax, %rdi
 7733 3cd3 E8000000 		call	_ZN8UnitTest10CheckEqualI9USBStatusS1_EEvRNS_11TestResultsERKT_RKT0_RKNS_11TestDetailsE
 7733      00
 7734              	.LEHE437:
 7735              	.L630:
 7736              	.LEHB438:
 310:testCore.cpp  **** 	CHECK_EQUAL(103UL, *item);
 7737              		.loc 3 310 0 is_stmt 1
 7738 3cd8 E8000000 		call	_ZN8UnitTest11CurrentTest7DetailsEv
 7738      00
 7739 3cdd 488B08   		movq	(%rax), %rcx
 7740 3ce0 488D4590 		leaq	-112(%rbp), %rax
 7741 3ce4 BA360100 		movl	$310, %edx
 7741      00
 7742 3ce9 4889CE   		movq	%rcx, %rsi
 7743 3cec 4889C7   		movq	%rax, %rdi
 7744 3cef E8000000 		call	_ZN8UnitTest11TestDetailsC1ERKS0_i
 7744      00
 7745              	.LEHE438:
 7746              		.loc 3 310 0 is_stmt 0 discriminator 2
 7747 3cf4 488B5D80 		movq	-128(%rbp), %rbx
 7748 3cf8 48C74588 		movq	$103, -120(%rbp)
 7748      67000000 
 7749              	.LEHB439:
 7750 3d00 E8000000 		call	_ZN8UnitTest11CurrentTest7ResultsEv
 7750      00
 7751 3d05 488B00   		movq	(%rax), %rax
 7752 3d08 488D5590 		leaq	-112(%rbp), %rdx
 7753 3d0c 488D7588 		leaq	-120(%rbp), %rsi
 7754 3d10 4889D1   		movq	%rdx, %rcx
 7755 3d13 4889DA   		movq	%rbx, %rdx
 7756 3d16 4889C7   		movq	%rax, %rdi
 7757 3d19 E8000000 		call	_ZN8UnitTest10CheckEqualImjEEvRNS_11TestResultsERKT_RKT0_RKNS_11TestDetailsE
 7757      00
 7758              	.LEHE439:
 7759              	.L634:
 311:testCore.cpp  **** 	queueCommitTake(&queue);
 7760              		.loc 3 311 0 is_stmt 1
 7761 3d1e 488D45B0 		leaq	-80(%rbp), %rax
 7762 3d22 4889C7   		movq	%rax, %rdi
 7763              	.LEHB440:
 7764 3d25 E8000000 		call	queueCommitTake
 7764      00
 312:testCore.cpp  **** 	status = queueTake(&queue, (Item*)&item);
 7765              		.loc 3 312 0
 7766 3d2a 488D5580 		leaq	-128(%rbp), %rdx
 7767 3d2e 488D45B0 		leaq	-80(%rbp), %rax
 7768 3d32 4889D6   		movq	%rdx, %rsi
 7769 3d35 4889C7   		movq	%rax, %rdi
 7770 3d38 E8000000 		call	queueTake
 7770      00
 7771              	.LEHE440:
 7772 3d3d 898578FF 		movl	%eax, -136(%rbp)
 7772      FFFF
 7773              	.LEHB441:
 313:testCore.cpp  **** 	CHECK_EQUAL(USB_SUCCESS, status);
 7774              		.loc 3 313 0
 7775 3d43 E8000000 		call	_ZN8UnitTest11CurrentTest7DetailsEv
 7775      00
 7776 3d48 488B08   		movq	(%rax), %rcx
 7777 3d4b 488D4590 		leaq	-112(%rbp), %rax
 7778 3d4f BA390100 		movl	$313, %edx
 7778      00
 7779 3d54 4889CE   		movq	%rcx, %rsi
 7780 3d57 4889C7   		movq	%rax, %rdi
 7781 3d5a E8000000 		call	_ZN8UnitTest11TestDetailsC1ERKS0_i
 7781      00
 7782              	.LEHE441:
 7783              		.loc 3 313 0 is_stmt 0 discriminator 2
 7784 3d5f C7458800 		movl	$0, -120(%rbp)
 7784      000000
 7785              	.LEHB442:
 7786 3d66 E8000000 		call	_ZN8UnitTest11CurrentTest7ResultsEv
 7786      00
 7787 3d6b 488B00   		movq	(%rax), %rax
 7788 3d6e 488D4D90 		leaq	-112(%rbp), %rcx
 7789 3d72 488D9578 		leaq	-136(%rbp), %rdx
 7789      FFFFFF
 7790 3d79 488D7588 		leaq	-120(%rbp), %rsi
 7791 3d7d 4889C7   		movq	%rax, %rdi
 7792 3d80 E8000000 		call	_ZN8UnitTest10CheckEqualI9USBStatusS1_EEvRNS_11TestResultsERKT_RKT0_RKNS_11TestDetailsE
 7792      00
 7793              	.LEHE442:
 7794              	.L638:
 7795              	.LEHB443:
 314:testCore.cpp  **** 	CHECK_EQUAL(104UL, *item);
 7796              		.loc 3 314 0 is_stmt 1
 7797 3d85 E8000000 		call	_ZN8UnitTest11CurrentTest7DetailsEv
 7797      00
 7798 3d8a 488B08   		movq	(%rax), %rcx
 7799 3d8d 488D4590 		leaq	-112(%rbp), %rax
 7800 3d91 BA3A0100 		movl	$314, %edx
 7800      00
 7801 3d96 4889CE   		movq	%rcx, %rsi
 7802 3d99 4889C7   		movq	%rax, %rdi
 7803 3d9c E8000000 		call	_ZN8UnitTest11TestDetailsC1ERKS0_i
 7803      00
 7804              	.LEHE443:
 7805              		.loc 3 314 0 is_stmt 0 discriminator 2
 7806 3da1 488B5D80 		movq	-128(%rbp), %rbx
 7807 3da5 48C74588 		movq	$104, -120(%rbp)
 7807      68000000 
 7808              	.LEHB444:
 7809 3dad E8000000 		call	_ZN8UnitTest11CurrentTest7ResultsEv
 7809      00
 7810 3db2 488B00   		movq	(%rax), %rax
 7811 3db5 488D5590 		leaq	-112(%rbp), %rdx
 7812 3db9 488D7588 		leaq	-120(%rbp), %rsi
 7813 3dbd 4889D1   		movq	%rdx, %rcx
 7814 3dc0 4889DA   		movq	%rbx, %rdx
 7815 3dc3 4889C7   		movq	%rax, %rdi
 7816 3dc6 E8000000 		call	_ZN8UnitTest10CheckEqualImjEEvRNS_11TestResultsERKT_RKT0_RKNS_11TestDetailsE
 7816      00
 7817              	.LEHE444:
 7818              	.L642:
 315:testCore.cpp  **** 	queueCommitTake(&queue);
 7819              		.loc 3 315 0 is_stmt 1
 7820 3dcb 488D45B0 		leaq	-80(%rbp), %rax
 7821 3dcf 4889C7   		movq	%rax, %rdi
 7822              	.LEHB445:
 7823 3dd2 E8000000 		call	queueCommitTake
 7823      00
 316:testCore.cpp  **** 
 317:testCore.cpp  **** 	// Try to take one more
 318:testCore.cpp  **** 	status = queueTake(&queue, (Item*)&item);
 7824              		.loc 3 318 0
 7825 3dd7 488D5580 		leaq	-128(%rbp), %rdx
 7826 3ddb 488D45B0 		leaq	-80(%rbp), %rax
 7827 3ddf 4889D6   		movq	%rdx, %rsi
 7828 3de2 4889C7   		movq	%rax, %rdi
 7829 3de5 E8000000 		call	queueTake
 7829      00
 7830              	.LEHE445:
 7831 3dea 898578FF 		movl	%eax, -136(%rbp)
 7831      FFFF
 7832              	.LEHB446:
 319:testCore.cpp  **** 	CHECK_EQUAL(USB_EMPTY_QUEUE, status);
 7833              		.loc 3 319 0
 7834 3df0 E8000000 		call	_ZN8UnitTest11CurrentTest7DetailsEv
 7834      00
 7835 3df5 488B08   		movq	(%rax), %rcx
 7836 3df8 488D4590 		leaq	-112(%rbp), %rax
 7837 3dfc BA3F0100 		movl	$319, %edx
 7837      00
 7838 3e01 4889CE   		movq	%rcx, %rsi
 7839 3e04 4889C7   		movq	%rax, %rdi
 7840 3e07 E8000000 		call	_ZN8UnitTest11TestDetailsC1ERKS0_i
 7840      00
 7841              	.LEHE446:
 7842              		.loc 3 319 0 is_stmt 0 discriminator 2
 7843 3e0c C745880D 		movl	$13, -120(%rbp)
 7843      000000
 7844              	.LEHB447:
 7845 3e13 E8000000 		call	_ZN8UnitTest11CurrentTest7ResultsEv
 7845      00
 7846 3e18 488B00   		movq	(%rax), %rax
 7847 3e1b 488D4D90 		leaq	-112(%rbp), %rcx
 7848 3e1f 488D9578 		leaq	-136(%rbp), %rdx
 7848      FFFFFF
 7849 3e26 488D7588 		leaq	-120(%rbp), %rsi
 7850 3e2a 4889C7   		movq	%rax, %rdi
 7851 3e2d E8000000 		call	_ZN8UnitTest10CheckEqualI9USBStatusS1_EEvRNS_11TestResultsERKT_RKT0_RKNS_11TestDetailsE
 7851      00
 7852              	.LEHE447:
 7853              	.L646:
 320:testCore.cpp  **** 
 321:testCore.cpp  **** 	queueDestroy(&queue);
 7854              		.loc 3 321 0 is_stmt 1
 7855 3e32 488D45B0 		leaq	-80(%rbp), %rax
 7856 3e36 4889C7   		movq	%rax, %rdi
 7857              	.LEHB448:
 7858 3e39 E8000000 		call	queueDestroy
 7858      00
 7859              	.LEHE448:
 322:testCore.cpp  **** }
 7860              		.loc 3 322 0
 7861 3e3e 90       		nop
 7862 3e3f 488B45E8 		movq	-24(%rbp), %rax
 7863 3e43 64483304 		xorq	%fs:40, %rax
 7863      25280000 
 7863      00
 7864 3e4c 0F84200E 		je	.L648
 7864      0000
 7865 3e52 E9160E00 		jmp	.L761
 7865      00
 7866              	.L650:
 7867 3e57 EB00     		jmp	.L499
 7868              	.L649:
 7869              	.L499:
 238:testCore.cpp  **** 
 7870              		.loc 3 238 0
 7871 3e59 4889C7   		movq	%rax, %rdi
 7872 3e5c E8000000 		call	__cxa_begin_catch
 7872      00
 7873              	.LEHB449:
 7874 3e61 E8000000 		call	_ZN8UnitTest11CurrentTest7DetailsEv
 7874      00
 7875 3e66 488B08   		movq	(%rax), %rcx
 7876 3e69 488D4590 		leaq	-112(%rbp), %rax
 7877 3e6d BAEE0000 		movl	$238, %edx
 7877      00
 7878 3e72 4889CE   		movq	%rcx, %rsi
 7879 3e75 4889C7   		movq	%rax, %rdi
 7880 3e78 E8000000 		call	_ZN8UnitTest11TestDetailsC1ERKS0_i
 7880      00
 238:testCore.cpp  **** 
 7881              		.loc 3 238 0 is_stmt 0 discriminator 10
 7882 3e7d E8000000 		call	_ZN8UnitTest11CurrentTest7ResultsEv
 7882      00
 7883 3e82 488B00   		movq	(%rax), %rax
 7884 3e85 488D4D90 		leaq	-112(%rbp), %rcx
 7885 3e89 BA000000 		movl	$.LC3, %edx
 7885      00
 7886 3e8e 4889CE   		movq	%rcx, %rsi
 7887 3e91 4889C7   		movq	%rax, %rdi
 7888 3e94 E8000000 		call	_ZN8UnitTest11TestResults13OnTestFailureERKNS_11TestDetailsEPKc
 7888      00
 7889              	.LEHE449:
 7890              	.LEHB450:
 238:testCore.cpp  **** 
 7891              		.loc 3 238 0 discriminator 14
 7892 3e99 E8000000 		call	__cxa_end_catch
 7892      00
 7893              	.LEHE450:
 7894 3e9e E9D4F2FF 		jmp	.L500
 7894      FF
 7895              	.L651:
 7896 3ea3 4889C3   		movq	%rax, %rbx
 238:testCore.cpp  **** 
 7897              		.loc 3 238 0
 7898 3ea6 E8000000 		call	__cxa_end_catch
 7898      00
 7899 3eab 4889D8   		movq	%rbx, %rax
 7900 3eae 4889C7   		movq	%rax, %rdi
 7901              	.LEHB451:
 7902 3eb1 E8000000 		call	_Unwind_Resume
 7902      00
 7903              	.LEHE451:
 7904              	.L653:
 7905 3eb6 EB00     		jmp	.L503
 7906              	.L652:
 7907              	.L503:
 246:testCore.cpp  **** 	CHECK_EQUAL((offset) % 4 + 1UL, *item);
 7908              		.loc 3 246 0 is_stmt 1
 7909 3eb8 4889C7   		movq	%rax, %rdi
 7910 3ebb E8000000 		call	__cxa_begin_catch
 7910      00
 7911              	.LEHB452:
 7912 3ec0 E8000000 		call	_ZN8UnitTest11CurrentTest7DetailsEv
 7912      00
 7913 3ec5 488B08   		movq	(%rax), %rcx
 7914 3ec8 488D4590 		leaq	-112(%rbp), %rax
 7915 3ecc BAF60000 		movl	$246, %edx
 7915      00
 7916 3ed1 4889CE   		movq	%rcx, %rsi
 7917 3ed4 4889C7   		movq	%rax, %rdi
 7918 3ed7 E8000000 		call	_ZN8UnitTest11TestDetailsC1ERKS0_i
 7918      00
 246:testCore.cpp  **** 	CHECK_EQUAL((offset) % 4 + 1UL, *item);
 7919              		.loc 3 246 0 is_stmt 0 discriminator 10
 7920 3edc E8000000 		call	_ZN8UnitTest11CurrentTest7ResultsEv
 7920      00
 7921 3ee1 488B00   		movq	(%rax), %rax
 7922 3ee4 488D4D90 		leaq	-112(%rbp), %rcx
 7923 3ee8 BA000000 		movl	$.LC3, %edx
 7923      00
 7924 3eed 4889CE   		movq	%rcx, %rsi
 7925 3ef0 4889C7   		movq	%rax, %rdi
 7926 3ef3 E8000000 		call	_ZN8UnitTest11TestResults13OnTestFailureERKNS_11TestDetailsEPKc
 7926      00
 7927              	.LEHE452:
 7928              	.LEHB453:
 246:testCore.cpp  **** 	CHECK_EQUAL((offset) % 4 + 1UL, *item);
 7929              		.loc 3 246 0 discriminator 14
 7930 3ef8 E8000000 		call	__cxa_end_catch
 7930      00
 7931              	.LEHE453:
 7932 3efd E9E6F2FF 		jmp	.L504
 7932      FF
 7933              	.L654:
 7934 3f02 4889C3   		movq	%rax, %rbx
 246:testCore.cpp  **** 	CHECK_EQUAL((offset) % 4 + 1UL, *item);
 7935              		.loc 3 246 0
 7936 3f05 E8000000 		call	__cxa_end_catch
 7936      00
 7937 3f0a 4889D8   		movq	%rbx, %rax
 7938 3f0d 4889C7   		movq	%rax, %rdi
 7939              	.LEHB454:
 7940 3f10 E8000000 		call	_Unwind_Resume
 7940      00
 7941              	.LEHE454:
 7942              	.L656:
 7943 3f15 EB00     		jmp	.L507
 7944              	.L655:
 7945              	.L507:
 247:testCore.cpp  **** 	*item = 100;
 7946              		.loc 3 247 0 is_stmt 1
 7947 3f17 4889C7   		movq	%rax, %rdi
 7948 3f1a E8000000 		call	__cxa_begin_catch
 7948      00
 7949              	.LEHB455:
 7950 3f1f E8000000 		call	_ZN8UnitTest11CurrentTest7DetailsEv
 7950      00
 7951 3f24 488B08   		movq	(%rax), %rcx
 7952 3f27 488D4590 		leaq	-112(%rbp), %rax
 7953 3f2b BAF70000 		movl	$247, %edx
 7953      00
 7954 3f30 4889CE   		movq	%rcx, %rsi
 7955 3f33 4889C7   		movq	%rax, %rdi
 7956 3f36 E8000000 		call	_ZN8UnitTest11TestDetailsC1ERKS0_i
 7956      00
 247:testCore.cpp  **** 	*item = 100;
 7957              		.loc 3 247 0 is_stmt 0 discriminator 10
 7958 3f3b E8000000 		call	_ZN8UnitTest11CurrentTest7ResultsEv
 7958      00
 7959 3f40 488B00   		movq	(%rax), %rax
 7960 3f43 488D4D90 		leaq	-112(%rbp), %rcx
 7961 3f47 BA000000 		movl	$.LC30, %edx
 7961      00
 7962 3f4c 4889CE   		movq	%rcx, %rsi
 7963 3f4f 4889C7   		movq	%rax, %rdi
 7964 3f52 E8000000 		call	_ZN8UnitTest11TestResults13OnTestFailureERKNS_11TestDetailsEPKc
 7964      00
 7965              	.LEHE455:
 7966              	.LEHB456:
 247:testCore.cpp  **** 	*item = 100;
 7967              		.loc 3 247 0 discriminator 14
 7968 3f57 E8000000 		call	__cxa_end_catch
 7968      00
 7969              	.LEHE456:
 7970 3f5c E9D7F2FF 		jmp	.L508
 7970      FF
 7971              	.L657:
 7972 3f61 4889C3   		movq	%rax, %rbx
 247:testCore.cpp  **** 	*item = 100;
 7973              		.loc 3 247 0
 7974 3f64 E8000000 		call	__cxa_end_catch
 7974      00
 7975 3f69 4889D8   		movq	%rbx, %rax
 7976 3f6c 4889C7   		movq	%rax, %rdi
 7977              	.LEHB457:
 7978 3f6f E8000000 		call	_Unwind_Resume
 7978      00
 7979              	.LEHE457:
 7980              	.L659:
 7981 3f74 EB00     		jmp	.L511
 7982              	.L658:
 7983              	.L511:
 251:testCore.cpp  **** 	CHECK_EQUAL((offset + 1UL) % 4 + 1UL, *item);
 7984              		.loc 3 251 0 is_stmt 1
 7985 3f76 4889C7   		movq	%rax, %rdi
 7986 3f79 E8000000 		call	__cxa_begin_catch
 7986      00
 7987              	.LEHB458:
 7988 3f7e E8000000 		call	_ZN8UnitTest11CurrentTest7DetailsEv
 7988      00
 7989 3f83 488B08   		movq	(%rax), %rcx
 7990 3f86 488D4590 		leaq	-112(%rbp), %rax
 7991 3f8a BAFB0000 		movl	$251, %edx
 7991      00
 7992 3f8f 4889CE   		movq	%rcx, %rsi
 7993 3f92 4889C7   		movq	%rax, %rdi
 7994 3f95 E8000000 		call	_ZN8UnitTest11TestDetailsC1ERKS0_i
 7994      00
 251:testCore.cpp  **** 	CHECK_EQUAL((offset + 1UL) % 4 + 1UL, *item);
 7995              		.loc 3 251 0 is_stmt 0 discriminator 10
 7996 3f9a E8000000 		call	_ZN8UnitTest11CurrentTest7ResultsEv
 7996      00
 7997 3f9f 488B00   		movq	(%rax), %rax
 7998 3fa2 488D4D90 		leaq	-112(%rbp), %rcx
 7999 3fa6 BA000000 		movl	$.LC3, %edx
 7999      00
 8000 3fab 4889CE   		movq	%rcx, %rsi
 8001 3fae 4889C7   		movq	%rax, %rdi
 8002 3fb1 E8000000 		call	_ZN8UnitTest11TestResults13OnTestFailureERKNS_11TestDetailsEPKc
 8002      00
 8003              	.LEHE458:
 8004              	.LEHB459:
 251:testCore.cpp  **** 	CHECK_EQUAL((offset + 1UL) % 4 + 1UL, *item);
 8005              		.loc 3 251 0 discriminator 14
 8006 3fb6 E8000000 		call	__cxa_end_catch
 8006      00
 8007              	.LEHE459:
 8008 3fbb E9E9F2FF 		jmp	.L512
 8008      FF
 8009              	.L660:
 8010 3fc0 4889C3   		movq	%rax, %rbx
 251:testCore.cpp  **** 	CHECK_EQUAL((offset + 1UL) % 4 + 1UL, *item);
 8011              		.loc 3 251 0
 8012 3fc3 E8000000 		call	__cxa_end_catch
 8012      00
 8013 3fc8 4889D8   		movq	%rbx, %rax
 8014 3fcb 4889C7   		movq	%rax, %rdi
 8015              	.LEHB460:
 8016 3fce E8000000 		call	_Unwind_Resume
 8016      00
 8017              	.LEHE460:
 8018              	.L662:
 8019 3fd3 EB00     		jmp	.L515
 8020              	.L661:
 8021              	.L515:
 252:testCore.cpp  **** 	*item = 101;
 8022              		.loc 3 252 0 is_stmt 1
 8023 3fd5 4889C7   		movq	%rax, %rdi
 8024 3fd8 E8000000 		call	__cxa_begin_catch
 8024      00
 8025              	.LEHB461:
 8026 3fdd E8000000 		call	_ZN8UnitTest11CurrentTest7DetailsEv
 8026      00
 8027 3fe2 488B08   		movq	(%rax), %rcx
 8028 3fe5 488D4590 		leaq	-112(%rbp), %rax
 8029 3fe9 BAFC0000 		movl	$252, %edx
 8029      00
 8030 3fee 4889CE   		movq	%rcx, %rsi
 8031 3ff1 4889C7   		movq	%rax, %rdi
 8032 3ff4 E8000000 		call	_ZN8UnitTest11TestDetailsC1ERKS0_i
 8032      00
 252:testCore.cpp  **** 	*item = 101;
 8033              		.loc 3 252 0 is_stmt 0 discriminator 10
 8034 3ff9 E8000000 		call	_ZN8UnitTest11CurrentTest7ResultsEv
 8034      00
 8035 3ffe 488B00   		movq	(%rax), %rax
 8036 4001 488D4D90 		leaq	-112(%rbp), %rcx
 8037 4005 BA000000 		movl	$.LC31, %edx
 8037      00
 8038 400a 4889CE   		movq	%rcx, %rsi
 8039 400d 4889C7   		movq	%rax, %rdi
 8040 4010 E8000000 		call	_ZN8UnitTest11TestResults13OnTestFailureERKNS_11TestDetailsEPKc
 8040      00
 8041              	.LEHE461:
 8042              	.LEHB462:
 252:testCore.cpp  **** 	*item = 101;
 8043              		.loc 3 252 0 discriminator 14
 8044 4015 E8000000 		call	__cxa_end_catch
 8044      00
 8045              	.LEHE462:
 8046 401a E9DEF2FF 		jmp	.L516
 8046      FF
 8047              	.L663:
 8048 401f 4889C3   		movq	%rax, %rbx
 252:testCore.cpp  **** 	*item = 101;
 8049              		.loc 3 252 0
 8050 4022 E8000000 		call	__cxa_end_catch
 8050      00
 8051 4027 4889D8   		movq	%rbx, %rax
 8052 402a 4889C7   		movq	%rax, %rdi
 8053              	.LEHB463:
 8054 402d E8000000 		call	_Unwind_Resume
 8054      00
 8055              	.LEHE463:
 8056              	.L665:
 8057 4032 EB00     		jmp	.L519
 8058              	.L664:
 8059              	.L519:
 256:testCore.cpp  **** 	CHECK_EQUAL((offset + 2UL) % 4 + 1UL, *item);
 8060              		.loc 3 256 0 is_stmt 1
 8061 4034 4889C7   		movq	%rax, %rdi
 8062 4037 E8000000 		call	__cxa_begin_catch
 8062      00
 8063              	.LEHB464:
 8064 403c E8000000 		call	_ZN8UnitTest11CurrentTest7DetailsEv
 8064      00
 8065 4041 488B08   		movq	(%rax), %rcx
 8066 4044 488D4590 		leaq	-112(%rbp), %rax
 8067 4048 BA000100 		movl	$256, %edx
 8067      00
 8068 404d 4889CE   		movq	%rcx, %rsi
 8069 4050 4889C7   		movq	%rax, %rdi
 8070 4053 E8000000 		call	_ZN8UnitTest11TestDetailsC1ERKS0_i
 8070      00
 256:testCore.cpp  **** 	CHECK_EQUAL((offset + 2UL) % 4 + 1UL, *item);
 8071              		.loc 3 256 0 is_stmt 0 discriminator 10
 8072 4058 E8000000 		call	_ZN8UnitTest11CurrentTest7ResultsEv
 8072      00
 8073 405d 488B00   		movq	(%rax), %rax
 8074 4060 488D4D90 		leaq	-112(%rbp), %rcx
 8075 4064 BA000000 		movl	$.LC3, %edx
 8075      00
 8076 4069 4889CE   		movq	%rcx, %rsi
 8077 406c 4889C7   		movq	%rax, %rdi
 8078 406f E8000000 		call	_ZN8UnitTest11TestResults13OnTestFailureERKNS_11TestDetailsEPKc
 8078      00
 8079              	.LEHE464:
 8080              	.LEHB465:
 256:testCore.cpp  **** 	CHECK_EQUAL((offset + 2UL) % 4 + 1UL, *item);
 8081              		.loc 3 256 0 discriminator 14
 8082 4074 E8000000 		call	__cxa_end_catch
 8082      00
 8083              	.LEHE465:
 8084 4079 E9F0F2FF 		jmp	.L520
 8084      FF
 8085              	.L666:
 8086 407e 4889C3   		movq	%rax, %rbx
 256:testCore.cpp  **** 	CHECK_EQUAL((offset + 2UL) % 4 + 1UL, *item);
 8087              		.loc 3 256 0
 8088 4081 E8000000 		call	__cxa_end_catch
 8088      00
 8089 4086 4889D8   		movq	%rbx, %rax
 8090 4089 4889C7   		movq	%rax, %rdi
 8091              	.LEHB466:
 8092 408c E8000000 		call	_Unwind_Resume
 8092      00
 8093              	.LEHE466:
 8094              	.L668:
 8095 4091 EB00     		jmp	.L523
 8096              	.L667:
 8097              	.L523:
 257:testCore.cpp  **** 	*item = 102;
 8098              		.loc 3 257 0 is_stmt 1
 8099 4093 4889C7   		movq	%rax, %rdi
 8100 4096 E8000000 		call	__cxa_begin_catch
 8100      00
 8101              	.LEHB467:
 8102 409b E8000000 		call	_ZN8UnitTest11CurrentTest7DetailsEv
 8102      00
 8103 40a0 488B08   		movq	(%rax), %rcx
 8104 40a3 488D4590 		leaq	-112(%rbp), %rax
 8105 40a7 BA010100 		movl	$257, %edx
 8105      00
 8106 40ac 4889CE   		movq	%rcx, %rsi
 8107 40af 4889C7   		movq	%rax, %rdi
 8108 40b2 E8000000 		call	_ZN8UnitTest11TestDetailsC1ERKS0_i
 8108      00
 257:testCore.cpp  **** 	*item = 102;
 8109              		.loc 3 257 0 is_stmt 0 discriminator 10
 8110 40b7 E8000000 		call	_ZN8UnitTest11CurrentTest7ResultsEv
 8110      00
 8111 40bc 488B00   		movq	(%rax), %rax
 8112 40bf 488D4D90 		leaq	-112(%rbp), %rcx
 8113 40c3 BA000000 		movl	$.LC32, %edx
 8113      00
 8114 40c8 4889CE   		movq	%rcx, %rsi
 8115 40cb 4889C7   		movq	%rax, %rdi
 8116 40ce E8000000 		call	_ZN8UnitTest11TestResults13OnTestFailureERKNS_11TestDetailsEPKc
 8116      00
 8117              	.LEHE467:
 8118              	.LEHB468:
 257:testCore.cpp  **** 	*item = 102;
 8119              		.loc 3 257 0 discriminator 14
 8120 40d3 E8000000 		call	__cxa_end_catch
 8120      00
 8121              	.LEHE468:
 8122 40d8 E9E5F2FF 		jmp	.L524
 8122      FF
 8123              	.L669:
 8124 40dd 4889C3   		movq	%rax, %rbx
 257:testCore.cpp  **** 	*item = 102;
 8125              		.loc 3 257 0
 8126 40e0 E8000000 		call	__cxa_end_catch
 8126      00
 8127 40e5 4889D8   		movq	%rbx, %rax
 8128 40e8 4889C7   		movq	%rax, %rdi
 8129              	.LEHB469:
 8130 40eb E8000000 		call	_Unwind_Resume
 8130      00
 8131              	.LEHE469:
 8132              	.L671:
 8133 40f0 EB00     		jmp	.L527
 8134              	.L670:
 8135              	.L527:
 261:testCore.cpp  **** 	CHECK_EQUAL((offset + 3UL) % 4 + 1UL, *item);
 8136              		.loc 3 261 0 is_stmt 1
 8137 40f2 4889C7   		movq	%rax, %rdi
 8138 40f5 E8000000 		call	__cxa_begin_catch
 8138      00
 8139              	.LEHB470:
 8140 40fa E8000000 		call	_ZN8UnitTest11CurrentTest7DetailsEv
 8140      00
 8141 40ff 488B08   		movq	(%rax), %rcx
 8142 4102 488D4590 		leaq	-112(%rbp), %rax
 8143 4106 BA050100 		movl	$261, %edx
 8143      00
 8144 410b 4889CE   		movq	%rcx, %rsi
 8145 410e 4889C7   		movq	%rax, %rdi
 8146 4111 E8000000 		call	_ZN8UnitTest11TestDetailsC1ERKS0_i
 8146      00
 261:testCore.cpp  **** 	CHECK_EQUAL((offset + 3UL) % 4 + 1UL, *item);
 8147              		.loc 3 261 0 is_stmt 0 discriminator 10
 8148 4116 E8000000 		call	_ZN8UnitTest11CurrentTest7ResultsEv
 8148      00
 8149 411b 488B00   		movq	(%rax), %rax
 8150 411e 488D4D90 		leaq	-112(%rbp), %rcx
 8151 4122 BA000000 		movl	$.LC3, %edx
 8151      00
 8152 4127 4889CE   		movq	%rcx, %rsi
 8153 412a 4889C7   		movq	%rax, %rdi
 8154 412d E8000000 		call	_ZN8UnitTest11TestResults13OnTestFailureERKNS_11TestDetailsEPKc
 8154      00
 8155              	.LEHE470:
 8156              	.LEHB471:
 261:testCore.cpp  **** 	CHECK_EQUAL((offset + 3UL) % 4 + 1UL, *item);
 8157              		.loc 3 261 0 discriminator 14
 8158 4132 E8000000 		call	__cxa_end_catch
 8158      00
 8159              	.LEHE471:
 8160 4137 E9F7F2FF 		jmp	.L528
 8160      FF
 8161              	.L672:
 8162 413c 4889C3   		movq	%rax, %rbx
 261:testCore.cpp  **** 	CHECK_EQUAL((offset + 3UL) % 4 + 1UL, *item);
 8163              		.loc 3 261 0
 8164 413f E8000000 		call	__cxa_end_catch
 8164      00
 8165 4144 4889D8   		movq	%rbx, %rax
 8166 4147 4889C7   		movq	%rax, %rdi
 8167              	.LEHB472:
 8168 414a E8000000 		call	_Unwind_Resume
 8168      00
 8169              	.LEHE472:
 8170              	.L674:
 8171 414f EB00     		jmp	.L531
 8172              	.L673:
 8173              	.L531:
 262:testCore.cpp  **** 	*item = 103;
 8174              		.loc 3 262 0 is_stmt 1
 8175 4151 4889C7   		movq	%rax, %rdi
 8176 4154 E8000000 		call	__cxa_begin_catch
 8176      00
 8177              	.LEHB473:
 8178 4159 E8000000 		call	_ZN8UnitTest11CurrentTest7DetailsEv
 8178      00
 8179 415e 488B08   		movq	(%rax), %rcx
 8180 4161 488D4590 		leaq	-112(%rbp), %rax
 8181 4165 BA060100 		movl	$262, %edx
 8181      00
 8182 416a 4889CE   		movq	%rcx, %rsi
 8183 416d 4889C7   		movq	%rax, %rdi
 8184 4170 E8000000 		call	_ZN8UnitTest11TestDetailsC1ERKS0_i
 8184      00
 262:testCore.cpp  **** 	*item = 103;
 8185              		.loc 3 262 0 is_stmt 0 discriminator 10
 8186 4175 E8000000 		call	_ZN8UnitTest11CurrentTest7ResultsEv
 8186      00
 8187 417a 488B00   		movq	(%rax), %rax
 8188 417d 488D4D90 		leaq	-112(%rbp), %rcx
 8189 4181 BA000000 		movl	$.LC33, %edx
 8189      00
 8190 4186 4889CE   		movq	%rcx, %rsi
 8191 4189 4889C7   		movq	%rax, %rdi
 8192 418c E8000000 		call	_ZN8UnitTest11TestResults13OnTestFailureERKNS_11TestDetailsEPKc
 8192      00
 8193              	.LEHE473:
 8194              	.LEHB474:
 262:testCore.cpp  **** 	*item = 103;
 8195              		.loc 3 262 0 discriminator 14
 8196 4191 E8000000 		call	__cxa_end_catch
 8196      00
 8197              	.LEHE474:
 8198 4196 E9ECF2FF 		jmp	.L532
 8198      FF
 8199              	.L675:
 8200 419b 4889C3   		movq	%rax, %rbx
 262:testCore.cpp  **** 	*item = 103;
 8201              		.loc 3 262 0
 8202 419e E8000000 		call	__cxa_end_catch
 8202      00
 8203 41a3 4889D8   		movq	%rbx, %rax
 8204 41a6 4889C7   		movq	%rax, %rdi
 8205              	.LEHB475:
 8206 41a9 E8000000 		call	_Unwind_Resume
 8206      00
 8207              	.LEHE475:
 8208              	.L677:
 8209 41ae EB00     		jmp	.L535
 8210              	.L676:
 8211              	.L535:
 267:testCore.cpp  **** 	CHECK_EQUAL(offset, queue.putIndex);
 8212              		.loc 3 267 0 is_stmt 1
 8213 41b0 4889C7   		movq	%rax, %rdi
 8214 41b3 E8000000 		call	__cxa_begin_catch
 8214      00
 8215              	.LEHB476:
 8216 41b8 E8000000 		call	_ZN8UnitTest11CurrentTest7DetailsEv
 8216      00
 8217 41bd 488B08   		movq	(%rax), %rcx
 8218 41c0 488D4590 		leaq	-112(%rbp), %rax
 8219 41c4 BA0B0100 		movl	$267, %edx
 8219      00
 8220 41c9 4889CE   		movq	%rcx, %rsi
 8221 41cc 4889C7   		movq	%rax, %rdi
 8222 41cf E8000000 		call	_ZN8UnitTest11TestDetailsC1ERKS0_i
 8222      00
 267:testCore.cpp  **** 	CHECK_EQUAL(offset, queue.putIndex);
 8223              		.loc 3 267 0 is_stmt 0 discriminator 10
 8224 41d4 E8000000 		call	_ZN8UnitTest11CurrentTest7ResultsEv
 8224      00
 8225 41d9 488B00   		movq	(%rax), %rax
 8226 41dc 488D4D90 		leaq	-112(%rbp), %rcx
 8227 41e0 BA000000 		movl	$.LC4, %edx
 8227      00
 8228 41e5 4889CE   		movq	%rcx, %rsi
 8229 41e8 4889C7   		movq	%rax, %rdi
 8230 41eb E8000000 		call	_ZN8UnitTest11TestResults13OnTestFailureERKNS_11TestDetailsEPKc
 8230      00
 8231              	.LEHE476:
 8232              	.LEHB477:
 267:testCore.cpp  **** 	CHECK_EQUAL(offset, queue.putIndex);
 8233              		.loc 3 267 0 discriminator 14
 8234 41f0 E8000000 		call	__cxa_end_catch
 8234      00
 8235              	.LEHE477:
 8236 41f5 E9EDF2FF 		jmp	.L536
 8236      FF
 8237              	.L678:
 8238 41fa 4889C3   		movq	%rax, %rbx
 267:testCore.cpp  **** 	CHECK_EQUAL(offset, queue.putIndex);
 8239              		.loc 3 267 0
 8240 41fd E8000000 		call	__cxa_end_catch
 8240      00
 8241 4202 4889D8   		movq	%rbx, %rax
 8242 4205 4889C7   		movq	%rax, %rdi
 8243              	.LEHB478:
 8244 4208 E8000000 		call	_Unwind_Resume
 8244      00
 8245              	.LEHE478:
 8246              	.L679:
 268:testCore.cpp  **** 	CHECK_EQUAL(offset, queue.takeIndex);
 8247              		.loc 3 268 0 is_stmt 1
 8248 420d 4889C7   		movq	%rax, %rdi
 8249 4210 E8000000 		call	__cxa_begin_catch
 8249      00
 8250              	.LEHB479:
 8251 4215 E8000000 		call	_ZN8UnitTest11CurrentTest7DetailsEv
 8251      00
 8252 421a 488B08   		movq	(%rax), %rcx
 8253 421d 488D4590 		leaq	-112(%rbp), %rax
 8254 4221 BA0C0100 		movl	$268, %edx
 8254      00
 8255 4226 4889CE   		movq	%rcx, %rsi
 8256 4229 4889C7   		movq	%rax, %rdi
 8257 422c E8000000 		call	_ZN8UnitTest11TestDetailsC1ERKS0_i
 8257      00
 268:testCore.cpp  **** 	CHECK_EQUAL(offset, queue.takeIndex);
 8258              		.loc 3 268 0 is_stmt 0 discriminator 10
 8259 4231 E8000000 		call	_ZN8UnitTest11CurrentTest7ResultsEv
 8259      00
 8260 4236 488B00   		movq	(%rax), %rax
 8261 4239 488D4D90 		leaq	-112(%rbp), %rcx
 8262 423d BA000000 		movl	$.LC34, %edx
 8262      00
 8263 4242 4889CE   		movq	%rcx, %rsi
 8264 4245 4889C7   		movq	%rax, %rdi
 8265 4248 E8000000 		call	_ZN8UnitTest11TestResults13OnTestFailureERKNS_11TestDetailsEPKc
 8265      00
 8266              	.LEHE479:
 8267              	.LEHB480:
 268:testCore.cpp  **** 	CHECK_EQUAL(offset, queue.takeIndex);
 8268              		.loc 3 268 0 discriminator 14
 8269 424d E8000000 		call	__cxa_end_catch
 8269      00
 8270              	.LEHE480:
 8271 4252 E9D5F2FF 		jmp	.L539
 8271      FF
 8272              	.L680:
 8273 4257 4889C3   		movq	%rax, %rbx
 268:testCore.cpp  **** 	CHECK_EQUAL(offset, queue.takeIndex);
 8274              		.loc 3 268 0
 8275 425a E8000000 		call	__cxa_end_catch
 8275      00
 8276 425f 4889D8   		movq	%rbx, %rax
 8277 4262 4889C7   		movq	%rax, %rdi
 8278              	.LEHB481:
 8279 4265 E8000000 		call	_Unwind_Resume
 8279      00
 8280              	.LEHE481:
 8281              	.L681:
 269:testCore.cpp  **** 	CHECK_EQUAL(4UL, queue.numItems);
 8282              		.loc 3 269 0 is_stmt 1
 8283 426a 4889C7   		movq	%rax, %rdi
 8284 426d E8000000 		call	__cxa_begin_catch
 8284      00
 8285              	.LEHB482:
 8286 4272 E8000000 		call	_ZN8UnitTest11CurrentTest7DetailsEv
 8286      00
 8287 4277 488B08   		movq	(%rax), %rcx
 8288 427a 488D4590 		leaq	-112(%rbp), %rax
 8289 427e BA0D0100 		movl	$269, %edx
 8289      00
 8290 4283 4889CE   		movq	%rcx, %rsi
 8291 4286 4889C7   		movq	%rax, %rdi
 8292 4289 E8000000 		call	_ZN8UnitTest11TestDetailsC1ERKS0_i
 8292      00
 269:testCore.cpp  **** 	CHECK_EQUAL(4UL, queue.numItems);
 8293              		.loc 3 269 0 is_stmt 0 discriminator 10
 8294 428e E8000000 		call	_ZN8UnitTest11CurrentTest7ResultsEv
 8294      00
 8295 4293 488B00   		movq	(%rax), %rax
 8296 4296 488D4D90 		leaq	-112(%rbp), %rcx
 8297 429a BA000000 		movl	$.LC35, %edx
 8297      00
 8298 429f 4889CE   		movq	%rcx, %rsi
 8299 42a2 4889C7   		movq	%rax, %rdi
 8300 42a5 E8000000 		call	_ZN8UnitTest11TestResults13OnTestFailureERKNS_11TestDetailsEPKc
 8300      00
 8301              	.LEHE482:
 8302              	.LEHB483:
 269:testCore.cpp  **** 	CHECK_EQUAL(4UL, queue.numItems);
 8303              		.loc 3 269 0 discriminator 14
 8304 42aa E8000000 		call	__cxa_end_catch
 8304      00
 8305              	.LEHE483:
 8306 42af E9BDF2FF 		jmp	.L542
 8306      FF
 8307              	.L682:
 8308 42b4 4889C3   		movq	%rax, %rbx
 269:testCore.cpp  **** 	CHECK_EQUAL(4UL, queue.numItems);
 8309              		.loc 3 269 0
 8310 42b7 E8000000 		call	__cxa_end_catch
 8310      00
 8311 42bc 4889D8   		movq	%rbx, %rax
 8312 42bf 4889C7   		movq	%rax, %rdi
 8313              	.LEHB484:
 8314 42c2 E8000000 		call	_Unwind_Resume
 8314      00
 8315              	.LEHE484:
 8316              	.L684:
 8317 42c7 EB00     		jmp	.L545
 8318              	.L683:
 8319              	.L545:
 270:testCore.cpp  **** 
 8320              		.loc 3 270 0 is_stmt 1
 8321 42c9 4889C7   		movq	%rax, %rdi
 8322 42cc E8000000 		call	__cxa_begin_catch
 8322      00
 8323              	.LEHB485:
 8324 42d1 E8000000 		call	_ZN8UnitTest11CurrentTest7DetailsEv
 8324      00
 8325 42d6 488B08   		movq	(%rax), %rcx
 8326 42d9 488D4590 		leaq	-112(%rbp), %rax
 8327 42dd BA0E0100 		movl	$270, %edx
 8327      00
 8328 42e2 4889CE   		movq	%rcx, %rsi
 8329 42e5 4889C7   		movq	%rax, %rdi
 8330 42e8 E8000000 		call	_ZN8UnitTest11TestDetailsC1ERKS0_i
 8330      00
 270:testCore.cpp  **** 
 8331              		.loc 3 270 0 is_stmt 0 discriminator 10
 8332 42ed E8000000 		call	_ZN8UnitTest11CurrentTest7ResultsEv
 8332      00
 8333 42f2 488B00   		movq	(%rax), %rax
 8334 42f5 488D4D90 		leaq	-112(%rbp), %rcx
 8335 42f9 BA000000 		movl	$.LC23, %edx
 8335      00
 8336 42fe 4889CE   		movq	%rcx, %rsi
 8337 4301 4889C7   		movq	%rax, %rdi
 8338 4304 E8000000 		call	_ZN8UnitTest11TestResults13OnTestFailureERKNS_11TestDetailsEPKc
 8338      00
 8339              	.LEHE485:
 8340              	.LEHB486:
 270:testCore.cpp  **** 
 8341              		.loc 3 270 0 discriminator 14
 8342 4309 E8000000 		call	__cxa_end_catch
 8342      00
 8343              	.LEHE486:
 8344 430e E9A8F2FF 		jmp	.L546
 8344      FF
 8345              	.L685:
 8346 4313 4889C3   		movq	%rax, %rbx
 270:testCore.cpp  **** 
 8347              		.loc 3 270 0
 8348 4316 E8000000 		call	__cxa_end_catch
 8348      00
 8349 431b 4889D8   		movq	%rbx, %rax
 8350 431e 4889C7   		movq	%rax, %rdi
 8351              	.LEHB487:
 8352 4321 E8000000 		call	_Unwind_Resume
 8352      00
 8353              	.LEHE487:
 8354              	.L687:
 8355 4326 EB00     		jmp	.L549
 8356              	.L686:
 8357              	.L549:
 274:testCore.cpp  **** 	CHECK_EQUAL(5UL, *item);
 8358              		.loc 3 274 0 is_stmt 1
 8359 4328 4889C7   		movq	%rax, %rdi
 8360 432b E8000000 		call	__cxa_begin_catch
 8360      00
 8361              	.LEHB488:
 8362 4330 E8000000 		call	_ZN8UnitTest11CurrentTest7DetailsEv
 8362      00
 8363 4335 488B08   		movq	(%rax), %rcx
 8364 4338 488D4590 		leaq	-112(%rbp), %rax
 8365 433c BA120100 		movl	$274, %edx
 8365      00
 8366 4341 4889CE   		movq	%rcx, %rsi
 8367 4344 4889C7   		movq	%rax, %rdi
 8368 4347 E8000000 		call	_ZN8UnitTest11TestDetailsC1ERKS0_i
 8368      00
 274:testCore.cpp  **** 	CHECK_EQUAL(5UL, *item);
 8369              		.loc 3 274 0 is_stmt 0 discriminator 10
 8370 434c E8000000 		call	_ZN8UnitTest11CurrentTest7ResultsEv
 8370      00
 8371 4351 488B00   		movq	(%rax), %rax
 8372 4354 488D4D90 		leaq	-112(%rbp), %rcx
 8373 4358 BA000000 		movl	$.LC3, %edx
 8373      00
 8374 435d 4889CE   		movq	%rcx, %rsi
 8375 4360 4889C7   		movq	%rax, %rdi
 8376 4363 E8000000 		call	_ZN8UnitTest11TestResults13OnTestFailureERKNS_11TestDetailsEPKc
 8376      00
 8377              	.LEHE488:
 8378              	.LEHB489:
 274:testCore.cpp  **** 	CHECK_EQUAL(5UL, *item);
 8379              		.loc 3 274 0 discriminator 14
 8380 4368 E8000000 		call	__cxa_end_catch
 8380      00
 8381              	.LEHE489:
 8382 436d E9A4F2FF 		jmp	.L550
 8382      FF
 8383              	.L688:
 8384 4372 4889C3   		movq	%rax, %rbx
 274:testCore.cpp  **** 	CHECK_EQUAL(5UL, *item);
 8385              		.loc 3 274 0
 8386 4375 E8000000 		call	__cxa_end_catch
 8386      00
 8387 437a 4889D8   		movq	%rbx, %rax
 8388 437d 4889C7   		movq	%rax, %rdi
 8389              	.LEHB490:
 8390 4380 E8000000 		call	_Unwind_Resume
 8390      00
 8391              	.LEHE490:
 8392              	.L690:
 8393 4385 EB00     		jmp	.L553
 8394              	.L689:
 8395              	.L553:
 275:testCore.cpp  **** 	*item = 104;
 8396              		.loc 3 275 0 is_stmt 1
 8397 4387 4889C7   		movq	%rax, %rdi
 8398 438a E8000000 		call	__cxa_begin_catch
 8398      00
 8399              	.LEHB491:
 8400 438f E8000000 		call	_ZN8UnitTest11CurrentTest7DetailsEv
 8400      00
 8401 4394 488B08   		movq	(%rax), %rcx
 8402 4397 488D4590 		leaq	-112(%rbp), %rax
 8403 439b BA130100 		movl	$275, %edx
 8403      00
 8404 43a0 4889CE   		movq	%rcx, %rsi
 8405 43a3 4889C7   		movq	%rax, %rdi
 8406 43a6 E8000000 		call	_ZN8UnitTest11TestDetailsC1ERKS0_i
 8406      00
 275:testCore.cpp  **** 	*item = 104;
 8407              		.loc 3 275 0 is_stmt 0 discriminator 10
 8408 43ab E8000000 		call	_ZN8UnitTest11CurrentTest7ResultsEv
 8408      00
 8409 43b0 488B00   		movq	(%rax), %rax
 8410 43b3 488D4D90 		leaq	-112(%rbp), %rcx
 8411 43b7 BA000000 		movl	$.LC26, %edx
 8411      00
 8412 43bc 4889CE   		movq	%rcx, %rsi
 8413 43bf 4889C7   		movq	%rax, %rdi
 8414 43c2 E8000000 		call	_ZN8UnitTest11TestResults13OnTestFailureERKNS_11TestDetailsEPKc
 8414      00
 8415              	.LEHE491:
 8416              	.LEHB492:
 275:testCore.cpp  **** 	*item = 104;
 8417              		.loc 3 275 0 discriminator 14
 8418 43c7 E8000000 		call	__cxa_end_catch
 8418      00
 8419              	.LEHE492:
 8420 43cc E98BF2FF 		jmp	.L554
 8420      FF
 8421              	.L691:
 8422 43d1 4889C3   		movq	%rax, %rbx
 275:testCore.cpp  **** 	*item = 104;
 8423              		.loc 3 275 0
 8424 43d4 E8000000 		call	__cxa_end_catch
 8424      00
 8425 43d9 4889D8   		movq	%rbx, %rax
 8426 43dc 4889C7   		movq	%rax, %rdi
 8427              	.LEHB493:
 8428 43df E8000000 		call	_Unwind_Resume
 8428      00
 8429              	.LEHE493:
 8430              	.L693:
 8431 43e4 EB00     		jmp	.L557
 8432              	.L692:
 8433              	.L557:
 280:testCore.cpp  **** 	CHECK_EQUAL(5UL, queue.putIndex);
 8434              		.loc 3 280 0 is_stmt 1
 8435 43e6 4889C7   		movq	%rax, %rdi
 8436 43e9 E8000000 		call	__cxa_begin_catch
 8436      00
 8437              	.LEHB494:
 8438 43ee E8000000 		call	_ZN8UnitTest11CurrentTest7DetailsEv
 8438      00
 8439 43f3 488B08   		movq	(%rax), %rcx
 8440 43f6 488D4590 		leaq	-112(%rbp), %rax
 8441 43fa BA180100 		movl	$280, %edx
 8441      00
 8442 43ff 4889CE   		movq	%rcx, %rsi
 8443 4402 4889C7   		movq	%rax, %rdi
 8444 4405 E8000000 		call	_ZN8UnitTest11TestDetailsC1ERKS0_i
 8444      00
 280:testCore.cpp  **** 	CHECK_EQUAL(5UL, queue.putIndex);
 8445              		.loc 3 280 0 is_stmt 0 discriminator 10
 8446 440a E8000000 		call	_ZN8UnitTest11CurrentTest7ResultsEv
 8446      00
 8447 440f 488B00   		movq	(%rax), %rax
 8448 4412 488D4D90 		leaq	-112(%rbp), %rcx
 8449 4416 BA000000 		movl	$.LC36, %edx
 8449      00
 8450 441b 4889CE   		movq	%rcx, %rsi
 8451 441e 4889C7   		movq	%rax, %rdi
 8452 4421 E8000000 		call	_ZN8UnitTest11TestResults13OnTestFailureERKNS_11TestDetailsEPKc
 8452      00
 8453              	.LEHE494:
 8454              	.LEHB495:
 280:testCore.cpp  **** 	CHECK_EQUAL(5UL, queue.putIndex);
 8455              		.loc 3 280 0 discriminator 14
 8456 4426 E8000000 		call	__cxa_end_catch
 8456      00
 8457              	.LEHE495:
 8458 442b E98CF2FF 		jmp	.L558
 8458      FF
 8459              	.L694:
 8460 4430 4889C3   		movq	%rax, %rbx
 280:testCore.cpp  **** 	CHECK_EQUAL(5UL, queue.putIndex);
 8461              		.loc 3 280 0
 8462 4433 E8000000 		call	__cxa_end_catch
 8462      00
 8463 4438 4889D8   		movq	%rbx, %rax
 8464 443b 4889C7   		movq	%rax, %rdi
 8465              	.LEHB496:
 8466 443e E8000000 		call	_Unwind_Resume
 8466      00
 8467              	.LEHE496:
 8468              	.L696:
 8469 4443 EB00     		jmp	.L561
 8470              	.L695:
 8471              	.L561:
 281:testCore.cpp  **** 	CHECK_EQUAL(0UL, queue.takeIndex);
 8472              		.loc 3 281 0 is_stmt 1
 8473 4445 4889C7   		movq	%rax, %rdi
 8474 4448 E8000000 		call	__cxa_begin_catch
 8474      00
 8475              	.LEHB497:
 8476 444d E8000000 		call	_ZN8UnitTest11CurrentTest7DetailsEv
 8476      00
 8477 4452 488B08   		movq	(%rax), %rcx
 8478 4455 488D4590 		leaq	-112(%rbp), %rax
 8479 4459 BA190100 		movl	$281, %edx
 8479      00
 8480 445e 4889CE   		movq	%rcx, %rsi
 8481 4461 4889C7   		movq	%rax, %rdi
 8482 4464 E8000000 		call	_ZN8UnitTest11TestDetailsC1ERKS0_i
 8482      00
 281:testCore.cpp  **** 	CHECK_EQUAL(0UL, queue.takeIndex);
 8483              		.loc 3 281 0 is_stmt 0 discriminator 10
 8484 4469 E8000000 		call	_ZN8UnitTest11CurrentTest7ResultsEv
 8484      00
 8485 446e 488B00   		movq	(%rax), %rax
 8486 4471 488D4D90 		leaq	-112(%rbp), %rcx
 8487 4475 BA000000 		movl	$.LC37, %edx
 8487      00
 8488 447a 4889CE   		movq	%rcx, %rsi
 8489 447d 4889C7   		movq	%rax, %rdi
 8490 4480 E8000000 		call	_ZN8UnitTest11TestResults13OnTestFailureERKNS_11TestDetailsEPKc
 8490      00
 8491              	.LEHE497:
 8492              	.LEHB498:
 281:testCore.cpp  **** 	CHECK_EQUAL(0UL, queue.takeIndex);
 8493              		.loc 3 281 0 discriminator 14
 8494 4485 E8000000 		call	__cxa_end_catch
 8494      00
 8495              	.LEHE498:
 8496 448a E977F2FF 		jmp	.L562
 8496      FF
 8497              	.L697:
 8498 448f 4889C3   		movq	%rax, %rbx
 281:testCore.cpp  **** 	CHECK_EQUAL(0UL, queue.takeIndex);
 8499              		.loc 3 281 0
 8500 4492 E8000000 		call	__cxa_end_catch
 8500      00
 8501 4497 4889D8   		movq	%rbx, %rax
 8502 449a 4889C7   		movq	%rax, %rdi
 8503              	.LEHB499:
 8504 449d E8000000 		call	_Unwind_Resume
 8504      00
 8505              	.LEHE499:
 8506              	.L699:
 8507 44a2 EB00     		jmp	.L565
 8508              	.L698:
 8509              	.L565:
 282:testCore.cpp  **** 	CHECK_EQUAL(5UL, queue.numItems);
 8510              		.loc 3 282 0 is_stmt 1
 8511 44a4 4889C7   		movq	%rax, %rdi
 8512 44a7 E8000000 		call	__cxa_begin_catch
 8512      00
 8513              	.LEHB500:
 8514 44ac E8000000 		call	_ZN8UnitTest11CurrentTest7DetailsEv
 8514      00
 8515 44b1 488B08   		movq	(%rax), %rcx
 8516 44b4 488D4590 		leaq	-112(%rbp), %rax
 8517 44b8 BA1A0100 		movl	$282, %edx
 8517      00
 8518 44bd 4889CE   		movq	%rcx, %rsi
 8519 44c0 4889C7   		movq	%rax, %rdi
 8520 44c3 E8000000 		call	_ZN8UnitTest11TestDetailsC1ERKS0_i
 8520      00
 282:testCore.cpp  **** 	CHECK_EQUAL(5UL, queue.numItems);
 8521              		.loc 3 282 0 is_stmt 0 discriminator 10
 8522 44c8 E8000000 		call	_ZN8UnitTest11CurrentTest7ResultsEv
 8522      00
 8523 44cd 488B00   		movq	(%rax), %rax
 8524 44d0 488D4D90 		leaq	-112(%rbp), %rcx
 8525 44d4 BA000000 		movl	$.LC6, %edx
 8525      00
 8526 44d9 4889CE   		movq	%rcx, %rsi
 8527 44dc 4889C7   		movq	%rax, %rdi
 8528 44df E8000000 		call	_ZN8UnitTest11TestResults13OnTestFailureERKNS_11TestDetailsEPKc
 8528      00
 8529              	.LEHE500:
 8530              	.LEHB501:
 282:testCore.cpp  **** 	CHECK_EQUAL(5UL, queue.numItems);
 8531              		.loc 3 282 0 discriminator 14
 8532 44e4 E8000000 		call	__cxa_end_catch
 8532      00
 8533              	.LEHE501:
 8534 44e9 E962F2FF 		jmp	.L566
 8534      FF
 8535              	.L700:
 8536 44ee 4889C3   		movq	%rax, %rbx
 282:testCore.cpp  **** 	CHECK_EQUAL(5UL, queue.numItems);
 8537              		.loc 3 282 0
 8538 44f1 E8000000 		call	__cxa_end_catch
 8538      00
 8539 44f6 4889D8   		movq	%rbx, %rax
 8540 44f9 4889C7   		movq	%rax, %rdi
 8541              	.LEHB502:
 8542 44fc E8000000 		call	_Unwind_Resume
 8542      00
 8543              	.LEHE502:
 8544              	.L702:
 8545 4501 EB00     		jmp	.L569
 8546              	.L701:
 8547              	.L569:
 283:testCore.cpp  **** 
 8548              		.loc 3 283 0 is_stmt 1
 8549 4503 4889C7   		movq	%rax, %rdi
 8550 4506 E8000000 		call	__cxa_begin_catch
 8550      00
 8551              	.LEHB503:
 8552 450b E8000000 		call	_ZN8UnitTest11CurrentTest7DetailsEv
 8552      00
 8553 4510 488B08   		movq	(%rax), %rcx
 8554 4513 488D4590 		leaq	-112(%rbp), %rax
 8555 4517 BA1B0100 		movl	$283, %edx
 8555      00
 8556 451c 4889CE   		movq	%rcx, %rsi
 8557 451f 4889C7   		movq	%rax, %rdi
 8558 4522 E8000000 		call	_ZN8UnitTest11TestDetailsC1ERKS0_i
 8558      00
 283:testCore.cpp  **** 
 8559              		.loc 3 283 0 is_stmt 0 discriminator 10
 8560 4527 E8000000 		call	_ZN8UnitTest11CurrentTest7ResultsEv
 8560      00
 8561 452c 488B00   		movq	(%rax), %rax
 8562 452f 488D4D90 		leaq	-112(%rbp), %rcx
 8563 4533 BA000000 		movl	$.LC38, %edx
 8563      00
 8564 4538 4889CE   		movq	%rcx, %rsi
 8565 453b 4889C7   		movq	%rax, %rdi
 8566 453e E8000000 		call	_ZN8UnitTest11TestResults13OnTestFailureERKNS_11TestDetailsEPKc
 8566      00
 8567              	.LEHE503:
 8568              	.LEHB504:
 283:testCore.cpp  **** 
 8569              		.loc 3 283 0 discriminator 14
 8570 4543 E8000000 		call	__cxa_end_catch
 8570      00
 8571              	.LEHE504:
 8572 4548 E94DF2FF 		jmp	.L570
 8572      FF
 8573              	.L703:
 8574 454d 4889C3   		movq	%rax, %rbx
 283:testCore.cpp  **** 
 8575              		.loc 3 283 0
 8576 4550 E8000000 		call	__cxa_end_catch
 8576      00
 8577 4555 4889D8   		movq	%rbx, %rax
 8578 4558 4889C7   		movq	%rax, %rdi
 8579              	.LEHB505:
 8580 455b E8000000 		call	_Unwind_Resume
 8580      00
 8581              	.LEHE505:
 8582              	.L705:
 8583 4560 EB00     		jmp	.L573
 8584              	.L704:
 8585              	.L573:
 286:testCore.cpp  **** 	CHECK_EQUAL(101UL, deref(queue.itemArray[1]));
 8586              		.loc 3 286 0 is_stmt 1
 8587 4562 4889C7   		movq	%rax, %rdi
 8588 4565 E8000000 		call	__cxa_begin_catch
 8588      00
 8589              	.LEHB506:
 8590 456a E8000000 		call	_ZN8UnitTest11CurrentTest7DetailsEv
 8590      00
 8591 456f 488B08   		movq	(%rax), %rcx
 8592 4572 488D4590 		leaq	-112(%rbp), %rax
 8593 4576 BA1E0100 		movl	$286, %edx
 8593      00
 8594 457b 4889CE   		movq	%rcx, %rsi
 8595 457e 4889C7   		movq	%rax, %rdi
 8596 4581 E8000000 		call	_ZN8UnitTest11TestDetailsC1ERKS0_i
 8596      00
 286:testCore.cpp  **** 	CHECK_EQUAL(101UL, deref(queue.itemArray[1]));
 8597              		.loc 3 286 0 is_stmt 0 discriminator 10
 8598 4586 E8000000 		call	_ZN8UnitTest11CurrentTest7ResultsEv
 8598      00
 8599 458b 488B00   		movq	(%rax), %rax
 8600 458e 488D4D90 		leaq	-112(%rbp), %rcx
 8601 4592 BA000000 		movl	$.LC39, %edx
 8601      00
 8602 4597 4889CE   		movq	%rcx, %rsi
 8603 459a 4889C7   		movq	%rax, %rdi
 8604 459d E8000000 		call	_ZN8UnitTest11TestResults13OnTestFailureERKNS_11TestDetailsEPKc
 8604      00
 8605              	.LEHE506:
 8606              	.LEHB507:
 286:testCore.cpp  **** 	CHECK_EQUAL(101UL, deref(queue.itemArray[1]));
 8607              		.loc 3 286 0 discriminator 14
 8608 45a2 E8000000 		call	__cxa_end_catch
 8608      00
 8609              	.LEHE507:
 8610 45a7 E946F2FF 		jmp	.L574
 8610      FF
 8611              	.L706:
 8612 45ac 4889C3   		movq	%rax, %rbx
 286:testCore.cpp  **** 	CHECK_EQUAL(101UL, deref(queue.itemArray[1]));
 8613              		.loc 3 286 0
 8614 45af E8000000 		call	__cxa_end_catch
 8614      00
 8615 45b4 4889D8   		movq	%rbx, %rax
 8616 45b7 4889C7   		movq	%rax, %rdi
 8617              	.LEHB508:
 8618 45ba E8000000 		call	_Unwind_Resume
 8618      00
 8619              	.LEHE508:
 8620              	.L708:
 8621 45bf EB00     		jmp	.L577
 8622              	.L707:
 8623              	.L577:
 287:testCore.cpp  **** 	CHECK_EQUAL(102UL, deref(queue.itemArray[2]));
 8624              		.loc 3 287 0 is_stmt 1
 8625 45c1 4889C7   		movq	%rax, %rdi
 8626 45c4 E8000000 		call	__cxa_begin_catch
 8626      00
 8627              	.LEHB509:
 8628 45c9 E8000000 		call	_ZN8UnitTest11CurrentTest7DetailsEv
 8628      00
 8629 45ce 488B08   		movq	(%rax), %rcx
 8630 45d1 488D4590 		leaq	-112(%rbp), %rax
 8631 45d5 BA1F0100 		movl	$287, %edx
 8631      00
 8632 45da 4889CE   		movq	%rcx, %rsi
 8633 45dd 4889C7   		movq	%rax, %rdi
 8634 45e0 E8000000 		call	_ZN8UnitTest11TestDetailsC1ERKS0_i
 8634      00
 287:testCore.cpp  **** 	CHECK_EQUAL(102UL, deref(queue.itemArray[2]));
 8635              		.loc 3 287 0 is_stmt 0 discriminator 10
 8636 45e5 E8000000 		call	_ZN8UnitTest11CurrentTest7ResultsEv
 8636      00
 8637 45ea 488B00   		movq	(%rax), %rax
 8638 45ed 488D4D90 		leaq	-112(%rbp), %rcx
 8639 45f1 BA000000 		movl	$.LC40, %edx
 8639      00
 8640 45f6 4889CE   		movq	%rcx, %rsi
 8641 45f9 4889C7   		movq	%rax, %rdi
 8642 45fc E8000000 		call	_ZN8UnitTest11TestResults13OnTestFailureERKNS_11TestDetailsEPKc
 8642      00
 8643              	.LEHE509:
 8644              	.LEHB510:
 287:testCore.cpp  **** 	CHECK_EQUAL(102UL, deref(queue.itemArray[2]));
 8645              		.loc 3 287 0 discriminator 14
 8646 4601 E8000000 		call	__cxa_end_catch
 8646      00
 8647              	.LEHE510:
 8648 4606 E943F2FF 		jmp	.L578
 8648      FF
 8649              	.L709:
 8650 460b 4889C3   		movq	%rax, %rbx
 287:testCore.cpp  **** 	CHECK_EQUAL(102UL, deref(queue.itemArray[2]));
 8651              		.loc 3 287 0
 8652 460e E8000000 		call	__cxa_end_catch
 8652      00
 8653 4613 4889D8   		movq	%rbx, %rax
 8654 4616 4889C7   		movq	%rax, %rdi
 8655              	.LEHB511:
 8656 4619 E8000000 		call	_Unwind_Resume
 8656      00
 8657              	.LEHE511:
 8658              	.L711:
 8659 461e EB00     		jmp	.L581
 8660              	.L710:
 8661              	.L581:
 288:testCore.cpp  **** 	CHECK_EQUAL(103UL, deref(queue.itemArray[3]));
 8662              		.loc 3 288 0 is_stmt 1
 8663 4620 4889C7   		movq	%rax, %rdi
 8664 4623 E8000000 		call	__cxa_begin_catch
 8664      00
 8665              	.LEHB512:
 8666 4628 E8000000 		call	_ZN8UnitTest11CurrentTest7DetailsEv
 8666      00
 8667 462d 488B08   		movq	(%rax), %rcx
 8668 4630 488D4590 		leaq	-112(%rbp), %rax
 8669 4634 BA200100 		movl	$288, %edx
 8669      00
 8670 4639 4889CE   		movq	%rcx, %rsi
 8671 463c 4889C7   		movq	%rax, %rdi
 8672 463f E8000000 		call	_ZN8UnitTest11TestDetailsC1ERKS0_i
 8672      00
 288:testCore.cpp  **** 	CHECK_EQUAL(103UL, deref(queue.itemArray[3]));
 8673              		.loc 3 288 0 is_stmt 0 discriminator 10
 8674 4644 E8000000 		call	_ZN8UnitTest11CurrentTest7ResultsEv
 8674      00
 8675 4649 488B00   		movq	(%rax), %rax
 8676 464c 488D4D90 		leaq	-112(%rbp), %rcx
 8677 4650 BA000000 		movl	$.LC41, %edx
 8677      00
 8678 4655 4889CE   		movq	%rcx, %rsi
 8679 4658 4889C7   		movq	%rax, %rdi
 8680 465b E8000000 		call	_ZN8UnitTest11TestResults13OnTestFailureERKNS_11TestDetailsEPKc
 8680      00
 8681              	.LEHE512:
 8682              	.LEHB513:
 288:testCore.cpp  **** 	CHECK_EQUAL(103UL, deref(queue.itemArray[3]));
 8683              		.loc 3 288 0 discriminator 14
 8684 4660 E8000000 		call	__cxa_end_catch
 8684      00
 8685              	.LEHE513:
 8686 4665 E940F2FF 		jmp	.L582
 8686      FF
 8687              	.L712:
 8688 466a 4889C3   		movq	%rax, %rbx
 288:testCore.cpp  **** 	CHECK_EQUAL(103UL, deref(queue.itemArray[3]));
 8689              		.loc 3 288 0
 8690 466d E8000000 		call	__cxa_end_catch
 8690      00
 8691 4672 4889D8   		movq	%rbx, %rax
 8692 4675 4889C7   		movq	%rax, %rdi
 8693              	.LEHB514:
 8694 4678 E8000000 		call	_Unwind_Resume
 8694      00
 8695              	.LEHE514:
 8696              	.L714:
 8697 467d EB00     		jmp	.L585
 8698              	.L713:
 8699              	.L585:
 289:testCore.cpp  **** 	CHECK_EQUAL(104UL, deref(queue.itemArray[4]));
 8700              		.loc 3 289 0 is_stmt 1
 8701 467f 4889C7   		movq	%rax, %rdi
 8702 4682 E8000000 		call	__cxa_begin_catch
 8702      00
 8703              	.LEHB515:
 8704 4687 E8000000 		call	_ZN8UnitTest11CurrentTest7DetailsEv
 8704      00
 8705 468c 488B08   		movq	(%rax), %rcx
 8706 468f 488D4590 		leaq	-112(%rbp), %rax
 8707 4693 BA210100 		movl	$289, %edx
 8707      00
 8708 4698 4889CE   		movq	%rcx, %rsi
 8709 469b 4889C7   		movq	%rax, %rdi
 8710 469e E8000000 		call	_ZN8UnitTest11TestDetailsC1ERKS0_i
 8710      00
 289:testCore.cpp  **** 	CHECK_EQUAL(104UL, deref(queue.itemArray[4]));
 8711              		.loc 3 289 0 is_stmt 0 discriminator 10
 8712 46a3 E8000000 		call	_ZN8UnitTest11CurrentTest7ResultsEv
 8712      00
 8713 46a8 488B00   		movq	(%rax), %rax
 8714 46ab 488D4D90 		leaq	-112(%rbp), %rcx
 8715 46af BA000000 		movl	$.LC42, %edx
 8715      00
 8716 46b4 4889CE   		movq	%rcx, %rsi
 8717 46b7 4889C7   		movq	%rax, %rdi
 8718 46ba E8000000 		call	_ZN8UnitTest11TestResults13OnTestFailureERKNS_11TestDetailsEPKc
 8718      00
 8719              	.LEHE515:
 8720              	.LEHB516:
 289:testCore.cpp  **** 	CHECK_EQUAL(104UL, deref(queue.itemArray[4]));
 8721              		.loc 3 289 0 discriminator 14
 8722 46bf E8000000 		call	__cxa_end_catch
 8722      00
 8723              	.LEHE516:
 8724 46c4 E93DF2FF 		jmp	.L586
 8724      FF
 8725              	.L715:
 8726 46c9 4889C3   		movq	%rax, %rbx
 289:testCore.cpp  **** 	CHECK_EQUAL(104UL, deref(queue.itemArray[4]));
 8727              		.loc 3 289 0
 8728 46cc E8000000 		call	__cxa_end_catch
 8728      00
 8729 46d1 4889D8   		movq	%rbx, %rax
 8730 46d4 4889C7   		movq	%rax, %rdi
 8731              	.LEHB517:
 8732 46d7 E8000000 		call	_Unwind_Resume
 8732      00
 8733              	.LEHE517:
 8734              	.L717:
 8735 46dc EB00     		jmp	.L589
 8736              	.L716:
 8737              	.L589:
 290:testCore.cpp  **** 	CHECK_EQUAL(6UL, deref(queue.itemArray[5]));
 8738              		.loc 3 290 0 is_stmt 1
 8739 46de 4889C7   		movq	%rax, %rdi
 8740 46e1 E8000000 		call	__cxa_begin_catch
 8740      00
 8741              	.LEHB518:
 8742 46e6 E8000000 		call	_ZN8UnitTest11CurrentTest7DetailsEv
 8742      00
 8743 46eb 488B08   		movq	(%rax), %rcx
 8744 46ee 488D4590 		leaq	-112(%rbp), %rax
 8745 46f2 BA220100 		movl	$290, %edx
 8745      00
 8746 46f7 4889CE   		movq	%rcx, %rsi
 8747 46fa 4889C7   		movq	%rax, %rdi
 8748 46fd E8000000 		call	_ZN8UnitTest11TestDetailsC1ERKS0_i
 8748      00
 290:testCore.cpp  **** 	CHECK_EQUAL(6UL, deref(queue.itemArray[5]));
 8749              		.loc 3 290 0 is_stmt 0 discriminator 10
 8750 4702 E8000000 		call	_ZN8UnitTest11CurrentTest7ResultsEv
 8750      00
 8751 4707 488B00   		movq	(%rax), %rax
 8752 470a 488D4D90 		leaq	-112(%rbp), %rcx
 8753 470e BA000000 		movl	$.LC43, %edx
 8753      00
 8754 4713 4889CE   		movq	%rcx, %rsi
 8755 4716 4889C7   		movq	%rax, %rdi
 8756 4719 E8000000 		call	_ZN8UnitTest11TestResults13OnTestFailureERKNS_11TestDetailsEPKc
 8756      00
 8757              	.LEHE518:
 8758              	.LEHB519:
 290:testCore.cpp  **** 	CHECK_EQUAL(6UL, deref(queue.itemArray[5]));
 8759              		.loc 3 290 0 discriminator 14
 8760 471e E8000000 		call	__cxa_end_catch
 8760      00
 8761              	.LEHE519:
 8762 4723 E93AF2FF 		jmp	.L590
 8762      FF
 8763              	.L718:
 8764 4728 4889C3   		movq	%rax, %rbx
 290:testCore.cpp  **** 	CHECK_EQUAL(6UL, deref(queue.itemArray[5]));
 8765              		.loc 3 290 0
 8766 472b E8000000 		call	__cxa_end_catch
 8766      00
 8767 4730 4889D8   		movq	%rbx, %rax
 8768 4733 4889C7   		movq	%rax, %rdi
 8769              	.LEHB520:
 8770 4736 E8000000 		call	_Unwind_Resume
 8770      00
 8771              	.LEHE520:
 8772              	.L720:
 8773 473b EB00     		jmp	.L593
 8774              	.L719:
 8775              	.L593:
 291:testCore.cpp  **** 	CHECK_EQUAL(7UL, deref(queue.itemArray[6]));
 8776              		.loc 3 291 0 is_stmt 1
 8777 473d 4889C7   		movq	%rax, %rdi
 8778 4740 E8000000 		call	__cxa_begin_catch
 8778      00
 8779              	.LEHB521:
 8780 4745 E8000000 		call	_ZN8UnitTest11CurrentTest7DetailsEv
 8780      00
 8781 474a 488B08   		movq	(%rax), %rcx
 8782 474d 488D4590 		leaq	-112(%rbp), %rax
 8783 4751 BA230100 		movl	$291, %edx
 8783      00
 8784 4756 4889CE   		movq	%rcx, %rsi
 8785 4759 4889C7   		movq	%rax, %rdi
 8786 475c E8000000 		call	_ZN8UnitTest11TestDetailsC1ERKS0_i
 8786      00
 291:testCore.cpp  **** 	CHECK_EQUAL(7UL, deref(queue.itemArray[6]));
 8787              		.loc 3 291 0 is_stmt 0 discriminator 10
 8788 4761 E8000000 		call	_ZN8UnitTest11CurrentTest7ResultsEv
 8788      00
 8789 4766 488B00   		movq	(%rax), %rax
 8790 4769 488D4D90 		leaq	-112(%rbp), %rcx
 8791 476d BA000000 		movl	$.LC44, %edx
 8791      00
 8792 4772 4889CE   		movq	%rcx, %rsi
 8793 4775 4889C7   		movq	%rax, %rdi
 8794 4778 E8000000 		call	_ZN8UnitTest11TestResults13OnTestFailureERKNS_11TestDetailsEPKc
 8794      00
 8795              	.LEHE521:
 8796              	.LEHB522:
 291:testCore.cpp  **** 	CHECK_EQUAL(7UL, deref(queue.itemArray[6]));
 8797              		.loc 3 291 0 discriminator 14
 8798 477d E8000000 		call	__cxa_end_catch
 8798      00
 8799              	.LEHE522:
 8800 4782 E937F2FF 		jmp	.L594
 8800      FF
 8801              	.L721:
 8802 4787 4889C3   		movq	%rax, %rbx
 291:testCore.cpp  **** 	CHECK_EQUAL(7UL, deref(queue.itemArray[6]));
 8803              		.loc 3 291 0
 8804 478a E8000000 		call	__cxa_end_catch
 8804      00
 8805 478f 4889D8   		movq	%rbx, %rax
 8806 4792 4889C7   		movq	%rax, %rdi
 8807              	.LEHB523:
 8808 4795 E8000000 		call	_Unwind_Resume
 8808      00
 8809              	.LEHE523:
 8810              	.L723:
 8811 479a EB00     		jmp	.L597
 8812              	.L722:
 8813              	.L597:
 292:testCore.cpp  **** 	CHECK_EQUAL(8UL, deref(queue.itemArray[7]));
 8814              		.loc 3 292 0 is_stmt 1
 8815 479c 4889C7   		movq	%rax, %rdi
 8816 479f E8000000 		call	__cxa_begin_catch
 8816      00
 8817              	.LEHB524:
 8818 47a4 E8000000 		call	_ZN8UnitTest11CurrentTest7DetailsEv
 8818      00
 8819 47a9 488B08   		movq	(%rax), %rcx
 8820 47ac 488D4590 		leaq	-112(%rbp), %rax
 8821 47b0 BA240100 		movl	$292, %edx
 8821      00
 8822 47b5 4889CE   		movq	%rcx, %rsi
 8823 47b8 4889C7   		movq	%rax, %rdi
 8824 47bb E8000000 		call	_ZN8UnitTest11TestDetailsC1ERKS0_i
 8824      00
 292:testCore.cpp  **** 	CHECK_EQUAL(8UL, deref(queue.itemArray[7]));
 8825              		.loc 3 292 0 is_stmt 0 discriminator 10
 8826 47c0 E8000000 		call	_ZN8UnitTest11CurrentTest7ResultsEv
 8826      00
 8827 47c5 488B00   		movq	(%rax), %rax
 8828 47c8 488D4D90 		leaq	-112(%rbp), %rcx
 8829 47cc BA000000 		movl	$.LC45, %edx
 8829      00
 8830 47d1 4889CE   		movq	%rcx, %rsi
 8831 47d4 4889C7   		movq	%rax, %rdi
 8832 47d7 E8000000 		call	_ZN8UnitTest11TestResults13OnTestFailureERKNS_11TestDetailsEPKc
 8832      00
 8833              	.LEHE524:
 8834              	.LEHB525:
 292:testCore.cpp  **** 	CHECK_EQUAL(8UL, deref(queue.itemArray[7]));
 8835              		.loc 3 292 0 discriminator 14
 8836 47dc E8000000 		call	__cxa_end_catch
 8836      00
 8837              	.LEHE525:
 8838 47e1 E934F2FF 		jmp	.L598
 8838      FF
 8839              	.L724:
 8840 47e6 4889C3   		movq	%rax, %rbx
 292:testCore.cpp  **** 	CHECK_EQUAL(8UL, deref(queue.itemArray[7]));
 8841              		.loc 3 292 0
 8842 47e9 E8000000 		call	__cxa_end_catch
 8842      00
 8843 47ee 4889D8   		movq	%rbx, %rax
 8844 47f1 4889C7   		movq	%rax, %rdi
 8845              	.LEHB526:
 8846 47f4 E8000000 		call	_Unwind_Resume
 8846      00
 8847              	.LEHE526:
 8848              	.L726:
 8849 47f9 EB00     		jmp	.L601
 8850              	.L725:
 8851              	.L601:
 293:testCore.cpp  **** 
 8852              		.loc 3 293 0 is_stmt 1
 8853 47fb 4889C7   		movq	%rax, %rdi
 8854 47fe E8000000 		call	__cxa_begin_catch
 8854      00
 8855              	.LEHB527:
 8856 4803 E8000000 		call	_ZN8UnitTest11CurrentTest7DetailsEv
 8856      00
 8857 4808 488B08   		movq	(%rax), %rcx
 8858 480b 488D4590 		leaq	-112(%rbp), %rax
 8859 480f BA250100 		movl	$293, %edx
 8859      00
 8860 4814 4889CE   		movq	%rcx, %rsi
 8861 4817 4889C7   		movq	%rax, %rdi
 8862 481a E8000000 		call	_ZN8UnitTest11TestDetailsC1ERKS0_i
 8862      00
 293:testCore.cpp  **** 
 8863              		.loc 3 293 0 is_stmt 0 discriminator 10
 8864 481f E8000000 		call	_ZN8UnitTest11CurrentTest7ResultsEv
 8864      00
 8865 4824 488B00   		movq	(%rax), %rax
 8866 4827 488D4D90 		leaq	-112(%rbp), %rcx
 8867 482b BA000000 		movl	$.LC46, %edx
 8867      00
 8868 4830 4889CE   		movq	%rcx, %rsi
 8869 4833 4889C7   		movq	%rax, %rdi
 8870 4836 E8000000 		call	_ZN8UnitTest11TestResults13OnTestFailureERKNS_11TestDetailsEPKc
 8870      00
 8871              	.LEHE527:
 8872              	.LEHB528:
 293:testCore.cpp  **** 
 8873              		.loc 3 293 0 discriminator 14
 8874 483b E8000000 		call	__cxa_end_catch
 8874      00
 8875              	.LEHE528:
 8876 4840 E931F2FF 		jmp	.L602
 8876      FF
 8877              	.L727:
 8878 4845 4889C3   		movq	%rax, %rbx
 293:testCore.cpp  **** 
 8879              		.loc 3 293 0
 8880 4848 E8000000 		call	__cxa_end_catch
 8880      00
 8881 484d 4889D8   		movq	%rbx, %rax
 8882 4850 4889C7   		movq	%rax, %rdi
 8883              	.LEHB529:
 8884 4853 E8000000 		call	_Unwind_Resume
 8884      00
 8885              	.LEHE529:
 8886              	.L729:
 8887 4858 EB00     		jmp	.L605
 8888              	.L728:
 8889              	.L605:
 297:testCore.cpp  **** 	CHECK_EQUAL(100UL, *item);
 8890              		.loc 3 297 0 is_stmt 1
 8891 485a 4889C7   		movq	%rax, %rdi
 8892 485d E8000000 		call	__cxa_begin_catch
 8892      00
 8893              	.LEHB530:
 8894 4862 E8000000 		call	_ZN8UnitTest11CurrentTest7DetailsEv
 8894      00
 8895 4867 488B08   		movq	(%rax), %rcx
 8896 486a 488D4590 		leaq	-112(%rbp), %rax
 8897 486e BA290100 		movl	$297, %edx
 8897      00
 8898 4873 4889CE   		movq	%rcx, %rsi
 8899 4876 4889C7   		movq	%rax, %rdi
 8900 4879 E8000000 		call	_ZN8UnitTest11TestDetailsC1ERKS0_i
 8900      00
 297:testCore.cpp  **** 	CHECK_EQUAL(100UL, *item);
 8901              		.loc 3 297 0 is_stmt 0 discriminator 10
 8902 487e E8000000 		call	_ZN8UnitTest11CurrentTest7ResultsEv
 8902      00
 8903 4883 488B00   		movq	(%rax), %rax
 8904 4886 488D4D90 		leaq	-112(%rbp), %rcx
 8905 488a BA000000 		movl	$.LC3, %edx
 8905      00
 8906 488f 4889CE   		movq	%rcx, %rsi
 8907 4892 4889C7   		movq	%rax, %rdi
 8908 4895 E8000000 		call	_ZN8UnitTest11TestResults13OnTestFailureERKNS_11TestDetailsEPKc
 8908      00
 8909              	.LEHE530:
 8910              	.LEHB531:
 297:testCore.cpp  **** 	CHECK_EQUAL(100UL, *item);
 8911              		.loc 3 297 0 discriminator 14
 8912 489a E8000000 		call	__cxa_end_catch
 8912      00
 8913              	.LEHE531:
 8914 489f E92DF2FF 		jmp	.L606
 8914      FF
 8915              	.L730:
 8916 48a4 4889C3   		movq	%rax, %rbx
 297:testCore.cpp  **** 	CHECK_EQUAL(100UL, *item);
 8917              		.loc 3 297 0
 8918 48a7 E8000000 		call	__cxa_end_catch
 8918      00
 8919 48ac 4889D8   		movq	%rbx, %rax
 8920 48af 4889C7   		movq	%rax, %rdi
 8921              	.LEHB532:
 8922 48b2 E8000000 		call	_Unwind_Resume
 8922      00
 8923              	.LEHE532:
 8924              	.L732:
 8925 48b7 EB00     		jmp	.L609
 8926              	.L731:
 8927              	.L609:
 298:testCore.cpp  **** 	queueCommitTake(&queue);
 8928              		.loc 3 298 0 is_stmt 1
 8929 48b9 4889C7   		movq	%rax, %rdi
 8930 48bc E8000000 		call	__cxa_begin_catch
 8930      00
 8931              	.LEHB533:
 8932 48c1 E8000000 		call	_ZN8UnitTest11CurrentTest7DetailsEv
 8932      00
 8933 48c6 488B08   		movq	(%rax), %rcx
 8934 48c9 488D4590 		leaq	-112(%rbp), %rax
 8935 48cd BA2A0100 		movl	$298, %edx
 8935      00
 8936 48d2 4889CE   		movq	%rcx, %rsi
 8937 48d5 4889C7   		movq	%rax, %rdi
 8938 48d8 E8000000 		call	_ZN8UnitTest11TestDetailsC1ERKS0_i
 8938      00
 298:testCore.cpp  **** 	queueCommitTake(&queue);
 8939              		.loc 3 298 0 is_stmt 0 discriminator 10
 8940 48dd E8000000 		call	_ZN8UnitTest11CurrentTest7ResultsEv
 8940      00
 8941 48e2 488B00   		movq	(%rax), %rax
 8942 48e5 488D4D90 		leaq	-112(%rbp), %rcx
 8943 48e9 BA000000 		movl	$.LC47, %edx
 8943      00
 8944 48ee 4889CE   		movq	%rcx, %rsi
 8945 48f1 4889C7   		movq	%rax, %rdi
 8946 48f4 E8000000 		call	_ZN8UnitTest11TestResults13OnTestFailureERKNS_11TestDetailsEPKc
 8946      00
 8947              	.LEHE533:
 8948              	.LEHB534:
 298:testCore.cpp  **** 	queueCommitTake(&queue);
 8949              		.loc 3 298 0 discriminator 14
 8950 48f9 E8000000 		call	__cxa_end_catch
 8950      00
 8951              	.LEHE534:
 8952 48fe E914F2FF 		jmp	.L610
 8952      FF
 8953              	.L733:
 8954 4903 4889C3   		movq	%rax, %rbx
 298:testCore.cpp  **** 	queueCommitTake(&queue);
 8955              		.loc 3 298 0
 8956 4906 E8000000 		call	__cxa_end_catch
 8956      00
 8957 490b 4889D8   		movq	%rbx, %rax
 8958 490e 4889C7   		movq	%rax, %rdi
 8959              	.LEHB535:
 8960 4911 E8000000 		call	_Unwind_Resume
 8960      00
 8961              	.LEHE535:
 8962              	.L735:
 8963 4916 EB00     		jmp	.L613
 8964              	.L734:
 8965              	.L613:
 301:testCore.cpp  **** 	CHECK_EQUAL(101UL, *item);
 8966              		.loc 3 301 0 is_stmt 1
 8967 4918 4889C7   		movq	%rax, %rdi
 8968 491b E8000000 		call	__cxa_begin_catch
 8968      00
 8969              	.LEHB536:
 8970 4920 E8000000 		call	_ZN8UnitTest11CurrentTest7DetailsEv
 8970      00
 8971 4925 488B08   		movq	(%rax), %rcx
 8972 4928 488D4590 		leaq	-112(%rbp), %rax
 8973 492c BA2D0100 		movl	$301, %edx
 8973      00
 8974 4931 4889CE   		movq	%rcx, %rsi
 8975 4934 4889C7   		movq	%rax, %rdi
 8976 4937 E8000000 		call	_ZN8UnitTest11TestDetailsC1ERKS0_i
 8976      00
 301:testCore.cpp  **** 	CHECK_EQUAL(101UL, *item);
 8977              		.loc 3 301 0 is_stmt 0 discriminator 10
 8978 493c E8000000 		call	_ZN8UnitTest11CurrentTest7ResultsEv
 8978      00
 8979 4941 488B00   		movq	(%rax), %rax
 8980 4944 488D4D90 		leaq	-112(%rbp), %rcx
 8981 4948 BA000000 		movl	$.LC3, %edx
 8981      00
 8982 494d 4889CE   		movq	%rcx, %rsi
 8983 4950 4889C7   		movq	%rax, %rdi
 8984 4953 E8000000 		call	_ZN8UnitTest11TestResults13OnTestFailureERKNS_11TestDetailsEPKc
 8984      00
 8985              	.LEHE536:
 8986              	.LEHB537:
 301:testCore.cpp  **** 	CHECK_EQUAL(101UL, *item);
 8987              		.loc 3 301 0 discriminator 14
 8988 4958 E8000000 		call	__cxa_end_catch
 8988      00
 8989              	.LEHE537:
 8990 495d E91CF2FF 		jmp	.L614
 8990      FF
 8991              	.L736:
 8992 4962 4889C3   		movq	%rax, %rbx
 301:testCore.cpp  **** 	CHECK_EQUAL(101UL, *item);
 8993              		.loc 3 301 0
 8994 4965 E8000000 		call	__cxa_end_catch
 8994      00
 8995 496a 4889D8   		movq	%rbx, %rax
 8996 496d 4889C7   		movq	%rax, %rdi
 8997              	.LEHB538:
 8998 4970 E8000000 		call	_Unwind_Resume
 8998      00
 8999              	.LEHE538:
 9000              	.L738:
 9001 4975 EB00     		jmp	.L617
 9002              	.L737:
 9003              	.L617:
 302:testCore.cpp  **** 	queueCommitTake(&queue);
 9004              		.loc 3 302 0 is_stmt 1
 9005 4977 4889C7   		movq	%rax, %rdi
 9006 497a E8000000 		call	__cxa_begin_catch
 9006      00
 9007              	.LEHB539:
 9008 497f E8000000 		call	_ZN8UnitTest11CurrentTest7DetailsEv
 9008      00
 9009 4984 488B08   		movq	(%rax), %rcx
 9010 4987 488D4590 		leaq	-112(%rbp), %rax
 9011 498b BA2E0100 		movl	$302, %edx
 9011      00
 9012 4990 4889CE   		movq	%rcx, %rsi
 9013 4993 4889C7   		movq	%rax, %rdi
 9014 4996 E8000000 		call	_ZN8UnitTest11TestDetailsC1ERKS0_i
 9014      00
 302:testCore.cpp  **** 	queueCommitTake(&queue);
 9015              		.loc 3 302 0 is_stmt 0 discriminator 10
 9016 499b E8000000 		call	_ZN8UnitTest11CurrentTest7ResultsEv
 9016      00
 9017 49a0 488B00   		movq	(%rax), %rax
 9018 49a3 488D4D90 		leaq	-112(%rbp), %rcx
 9019 49a7 BA000000 		movl	$.LC48, %edx
 9019      00
 9020 49ac 4889CE   		movq	%rcx, %rsi
 9021 49af 4889C7   		movq	%rax, %rdi
 9022 49b2 E8000000 		call	_ZN8UnitTest11TestResults13OnTestFailureERKNS_11TestDetailsEPKc
 9022      00
 9023              	.LEHE539:
 9024              	.LEHB540:
 302:testCore.cpp  **** 	queueCommitTake(&queue);
 9025              		.loc 3 302 0 discriminator 14
 9026 49b7 E8000000 		call	__cxa_end_catch
 9026      00
 9027              	.LEHE540:
 9028 49bc E903F2FF 		jmp	.L618
 9028      FF
 9029              	.L739:
 9030 49c1 4889C3   		movq	%rax, %rbx
 302:testCore.cpp  **** 	queueCommitTake(&queue);
 9031              		.loc 3 302 0
 9032 49c4 E8000000 		call	__cxa_end_catch
 9032      00
 9033 49c9 4889D8   		movq	%rbx, %rax
 9034 49cc 4889C7   		movq	%rax, %rdi
 9035              	.LEHB541:
 9036 49cf E8000000 		call	_Unwind_Resume
 9036      00
 9037              	.LEHE541:
 9038              	.L741:
 9039 49d4 EB00     		jmp	.L621
 9040              	.L740:
 9041              	.L621:
 305:testCore.cpp  **** 	CHECK_EQUAL(102UL, *item);
 9042              		.loc 3 305 0 is_stmt 1
 9043 49d6 4889C7   		movq	%rax, %rdi
 9044 49d9 E8000000 		call	__cxa_begin_catch
 9044      00
 9045              	.LEHB542:
 9046 49de E8000000 		call	_ZN8UnitTest11CurrentTest7DetailsEv
 9046      00
 9047 49e3 488B08   		movq	(%rax), %rcx
 9048 49e6 488D4590 		leaq	-112(%rbp), %rax
 9049 49ea BA310100 		movl	$305, %edx
 9049      00
 9050 49ef 4889CE   		movq	%rcx, %rsi
 9051 49f2 4889C7   		movq	%rax, %rdi
 9052 49f5 E8000000 		call	_ZN8UnitTest11TestDetailsC1ERKS0_i
 9052      00
 305:testCore.cpp  **** 	CHECK_EQUAL(102UL, *item);
 9053              		.loc 3 305 0 is_stmt 0 discriminator 10
 9054 49fa E8000000 		call	_ZN8UnitTest11CurrentTest7ResultsEv
 9054      00
 9055 49ff 488B00   		movq	(%rax), %rax
 9056 4a02 488D4D90 		leaq	-112(%rbp), %rcx
 9057 4a06 BA000000 		movl	$.LC3, %edx
 9057      00
 9058 4a0b 4889CE   		movq	%rcx, %rsi
 9059 4a0e 4889C7   		movq	%rax, %rdi
 9060 4a11 E8000000 		call	_ZN8UnitTest11TestResults13OnTestFailureERKNS_11TestDetailsEPKc
 9060      00
 9061              	.LEHE542:
 9062              	.LEHB543:
 305:testCore.cpp  **** 	CHECK_EQUAL(102UL, *item);
 9063              		.loc 3 305 0 discriminator 14
 9064 4a16 E8000000 		call	__cxa_end_catch
 9064      00
 9065              	.LEHE543:
 9066 4a1b E90BF2FF 		jmp	.L622
 9066      FF
 9067              	.L742:
 9068 4a20 4889C3   		movq	%rax, %rbx
 305:testCore.cpp  **** 	CHECK_EQUAL(102UL, *item);
 9069              		.loc 3 305 0
 9070 4a23 E8000000 		call	__cxa_end_catch
 9070      00
 9071 4a28 4889D8   		movq	%rbx, %rax
 9072 4a2b 4889C7   		movq	%rax, %rdi
 9073              	.LEHB544:
 9074 4a2e E8000000 		call	_Unwind_Resume
 9074      00
 9075              	.LEHE544:
 9076              	.L744:
 9077 4a33 EB00     		jmp	.L625
 9078              	.L743:
 9079              	.L625:
 306:testCore.cpp  **** 	queueCommitTake(&queue);
 9080              		.loc 3 306 0 is_stmt 1
 9081 4a35 4889C7   		movq	%rax, %rdi
 9082 4a38 E8000000 		call	__cxa_begin_catch
 9082      00
 9083              	.LEHB545:
 9084 4a3d E8000000 		call	_ZN8UnitTest11CurrentTest7DetailsEv
 9084      00
 9085 4a42 488B08   		movq	(%rax), %rcx
 9086 4a45 488D4590 		leaq	-112(%rbp), %rax
 9087 4a49 BA320100 		movl	$306, %edx
 9087      00
 9088 4a4e 4889CE   		movq	%rcx, %rsi
 9089 4a51 4889C7   		movq	%rax, %rdi
 9090 4a54 E8000000 		call	_ZN8UnitTest11TestDetailsC1ERKS0_i
 9090      00
 306:testCore.cpp  **** 	queueCommitTake(&queue);
 9091              		.loc 3 306 0 is_stmt 0 discriminator 10
 9092 4a59 E8000000 		call	_ZN8UnitTest11CurrentTest7ResultsEv
 9092      00
 9093 4a5e 488B00   		movq	(%rax), %rax
 9094 4a61 488D4D90 		leaq	-112(%rbp), %rcx
 9095 4a65 BA000000 		movl	$.LC49, %edx
 9095      00
 9096 4a6a 4889CE   		movq	%rcx, %rsi
 9097 4a6d 4889C7   		movq	%rax, %rdi
 9098 4a70 E8000000 		call	_ZN8UnitTest11TestResults13OnTestFailureERKNS_11TestDetailsEPKc
 9098      00
 9099              	.LEHE545:
 9100              	.LEHB546:
 306:testCore.cpp  **** 	queueCommitTake(&queue);
 9101              		.loc 3 306 0 discriminator 14
 9102 4a75 E8000000 		call	__cxa_end_catch
 9102      00
 9103              	.LEHE546:
 9104 4a7a E9F2F1FF 		jmp	.L626
 9104      FF
 9105              	.L745:
 9106 4a7f 4889C3   		movq	%rax, %rbx
 306:testCore.cpp  **** 	queueCommitTake(&queue);
 9107              		.loc 3 306 0
 9108 4a82 E8000000 		call	__cxa_end_catch
 9108      00
 9109 4a87 4889D8   		movq	%rbx, %rax
 9110 4a8a 4889C7   		movq	%rax, %rdi
 9111              	.LEHB547:
 9112 4a8d E8000000 		call	_Unwind_Resume
 9112      00
 9113              	.LEHE547:
 9114              	.L747:
 9115 4a92 EB00     		jmp	.L629
 9116              	.L746:
 9117              	.L629:
 309:testCore.cpp  **** 	CHECK_EQUAL(103UL, *item);
 9118              		.loc 3 309 0 is_stmt 1
 9119 4a94 4889C7   		movq	%rax, %rdi
 9120 4a97 E8000000 		call	__cxa_begin_catch
 9120      00
 9121              	.LEHB548:
 9122 4a9c E8000000 		call	_ZN8UnitTest11CurrentTest7DetailsEv
 9122      00
 9123 4aa1 488B08   		movq	(%rax), %rcx
 9124 4aa4 488D4590 		leaq	-112(%rbp), %rax
 9125 4aa8 BA350100 		movl	$309, %edx
 9125      00
 9126 4aad 4889CE   		movq	%rcx, %rsi
 9127 4ab0 4889C7   		movq	%rax, %rdi
 9128 4ab3 E8000000 		call	_ZN8UnitTest11TestDetailsC1ERKS0_i
 9128      00
 309:testCore.cpp  **** 	CHECK_EQUAL(103UL, *item);
 9129              		.loc 3 309 0 is_stmt 0 discriminator 10
 9130 4ab8 E8000000 		call	_ZN8UnitTest11CurrentTest7ResultsEv
 9130      00
 9131 4abd 488B00   		movq	(%rax), %rax
 9132 4ac0 488D4D90 		leaq	-112(%rbp), %rcx
 9133 4ac4 BA000000 		movl	$.LC3, %edx
 9133      00
 9134 4ac9 4889CE   		movq	%rcx, %rsi
 9135 4acc 4889C7   		movq	%rax, %rdi
 9136 4acf E8000000 		call	_ZN8UnitTest11TestResults13OnTestFailureERKNS_11TestDetailsEPKc
 9136      00
 9137              	.LEHE548:
 9138              	.LEHB549:
 309:testCore.cpp  **** 	CHECK_EQUAL(103UL, *item);
 9139              		.loc 3 309 0 discriminator 14
 9140 4ad4 E8000000 		call	__cxa_end_catch
 9140      00
 9141              	.LEHE549:
 9142 4ad9 E9FAF1FF 		jmp	.L630
 9142      FF
 9143              	.L748:
 9144 4ade 4889C3   		movq	%rax, %rbx
 309:testCore.cpp  **** 	CHECK_EQUAL(103UL, *item);
 9145              		.loc 3 309 0
 9146 4ae1 E8000000 		call	__cxa_end_catch
 9146      00
 9147 4ae6 4889D8   		movq	%rbx, %rax
 9148 4ae9 4889C7   		movq	%rax, %rdi
 9149              	.LEHB550:
 9150 4aec E8000000 		call	_Unwind_Resume
 9150      00
 9151              	.LEHE550:
 9152              	.L750:
 9153 4af1 EB00     		jmp	.L633
 9154              	.L749:
 9155              	.L633:
 310:testCore.cpp  **** 	queueCommitTake(&queue);
 9156              		.loc 3 310 0 is_stmt 1
 9157 4af3 4889C7   		movq	%rax, %rdi
 9158 4af6 E8000000 		call	__cxa_begin_catch
 9158      00
 9159              	.LEHB551:
 9160 4afb E8000000 		call	_ZN8UnitTest11CurrentTest7DetailsEv
 9160      00
 9161 4b00 488B08   		movq	(%rax), %rcx
 9162 4b03 488D4590 		leaq	-112(%rbp), %rax
 9163 4b07 BA360100 		movl	$310, %edx
 9163      00
 9164 4b0c 4889CE   		movq	%rcx, %rsi
 9165 4b0f 4889C7   		movq	%rax, %rdi
 9166 4b12 E8000000 		call	_ZN8UnitTest11TestDetailsC1ERKS0_i
 9166      00
 310:testCore.cpp  **** 	queueCommitTake(&queue);
 9167              		.loc 3 310 0 is_stmt 0 discriminator 10
 9168 4b17 E8000000 		call	_ZN8UnitTest11CurrentTest7ResultsEv
 9168      00
 9169 4b1c 488B00   		movq	(%rax), %rax
 9170 4b1f 488D4D90 		leaq	-112(%rbp), %rcx
 9171 4b23 BA000000 		movl	$.LC50, %edx
 9171      00
 9172 4b28 4889CE   		movq	%rcx, %rsi
 9173 4b2b 4889C7   		movq	%rax, %rdi
 9174 4b2e E8000000 		call	_ZN8UnitTest11TestResults13OnTestFailureERKNS_11TestDetailsEPKc
 9174      00
 9175              	.LEHE551:
 9176              	.LEHB552:
 310:testCore.cpp  **** 	queueCommitTake(&queue);
 9177              		.loc 3 310 0 discriminator 14
 9178 4b33 E8000000 		call	__cxa_end_catch
 9178      00
 9179              	.LEHE552:
 9180 4b38 E9E1F1FF 		jmp	.L634
 9180      FF
 9181              	.L751:
 9182 4b3d 4889C3   		movq	%rax, %rbx
 310:testCore.cpp  **** 	queueCommitTake(&queue);
 9183              		.loc 3 310 0
 9184 4b40 E8000000 		call	__cxa_end_catch
 9184      00
 9185 4b45 4889D8   		movq	%rbx, %rax
 9186 4b48 4889C7   		movq	%rax, %rdi
 9187              	.LEHB553:
 9188 4b4b E8000000 		call	_Unwind_Resume
 9188      00
 9189              	.LEHE553:
 9190              	.L753:
 9191 4b50 EB00     		jmp	.L637
 9192              	.L752:
 9193              	.L637:
 313:testCore.cpp  **** 	CHECK_EQUAL(104UL, *item);
 9194              		.loc 3 313 0 is_stmt 1
 9195 4b52 4889C7   		movq	%rax, %rdi
 9196 4b55 E8000000 		call	__cxa_begin_catch
 9196      00
 9197              	.LEHB554:
 9198 4b5a E8000000 		call	_ZN8UnitTest11CurrentTest7DetailsEv
 9198      00
 9199 4b5f 488B08   		movq	(%rax), %rcx
 9200 4b62 488D4590 		leaq	-112(%rbp), %rax
 9201 4b66 BA390100 		movl	$313, %edx
 9201      00
 9202 4b6b 4889CE   		movq	%rcx, %rsi
 9203 4b6e 4889C7   		movq	%rax, %rdi
 9204 4b71 E8000000 		call	_ZN8UnitTest11TestDetailsC1ERKS0_i
 9204      00
 313:testCore.cpp  **** 	CHECK_EQUAL(104UL, *item);
 9205              		.loc 3 313 0 is_stmt 0 discriminator 10
 9206 4b76 E8000000 		call	_ZN8UnitTest11CurrentTest7ResultsEv
 9206      00
 9207 4b7b 488B00   		movq	(%rax), %rax
 9208 4b7e 488D4D90 		leaq	-112(%rbp), %rcx
 9209 4b82 BA000000 		movl	$.LC3, %edx
 9209      00
 9210 4b87 4889CE   		movq	%rcx, %rsi
 9211 4b8a 4889C7   		movq	%rax, %rdi
 9212 4b8d E8000000 		call	_ZN8UnitTest11TestResults13OnTestFailureERKNS_11TestDetailsEPKc
 9212      00
 9213              	.LEHE554:
 9214              	.LEHB555:
 313:testCore.cpp  **** 	CHECK_EQUAL(104UL, *item);
 9215              		.loc 3 313 0 discriminator 14
 9216 4b92 E8000000 		call	__cxa_end_catch
 9216      00
 9217              	.LEHE555:
 9218 4b97 E9E9F1FF 		jmp	.L638
 9218      FF
 9219              	.L754:
 9220 4b9c 4889C3   		movq	%rax, %rbx
 313:testCore.cpp  **** 	CHECK_EQUAL(104UL, *item);
 9221              		.loc 3 313 0
 9222 4b9f E8000000 		call	__cxa_end_catch
 9222      00
 9223 4ba4 4889D8   		movq	%rbx, %rax
 9224 4ba7 4889C7   		movq	%rax, %rdi
 9225              	.LEHB556:
 9226 4baa E8000000 		call	_Unwind_Resume
 9226      00
 9227              	.LEHE556:
 9228              	.L756:
 9229 4baf EB00     		jmp	.L641
 9230              	.L755:
 9231              	.L641:
 314:testCore.cpp  **** 	queueCommitTake(&queue);
 9232              		.loc 3 314 0 is_stmt 1
 9233 4bb1 4889C7   		movq	%rax, %rdi
 9234 4bb4 E8000000 		call	__cxa_begin_catch
 9234      00
 9235              	.LEHB557:
 9236 4bb9 E8000000 		call	_ZN8UnitTest11CurrentTest7DetailsEv
 9236      00
 9237 4bbe 488B08   		movq	(%rax), %rcx
 9238 4bc1 488D4590 		leaq	-112(%rbp), %rax
 9239 4bc5 BA3A0100 		movl	$314, %edx
 9239      00
 9240 4bca 4889CE   		movq	%rcx, %rsi
 9241 4bcd 4889C7   		movq	%rax, %rdi
 9242 4bd0 E8000000 		call	_ZN8UnitTest11TestDetailsC1ERKS0_i
 9242      00
 314:testCore.cpp  **** 	queueCommitTake(&queue);
 9243              		.loc 3 314 0 is_stmt 0 discriminator 10
 9244 4bd5 E8000000 		call	_ZN8UnitTest11CurrentTest7ResultsEv
 9244      00
 9245 4bda 488B00   		movq	(%rax), %rax
 9246 4bdd 488D4D90 		leaq	-112(%rbp), %rcx
 9247 4be1 BA000000 		movl	$.LC51, %edx
 9247      00
 9248 4be6 4889CE   		movq	%rcx, %rsi
 9249 4be9 4889C7   		movq	%rax, %rdi
 9250 4bec E8000000 		call	_ZN8UnitTest11TestResults13OnTestFailureERKNS_11TestDetailsEPKc
 9250      00
 9251              	.LEHE557:
 9252              	.LEHB558:
 314:testCore.cpp  **** 	queueCommitTake(&queue);
 9253              		.loc 3 314 0 discriminator 14
 9254 4bf1 E8000000 		call	__cxa_end_catch
 9254      00
 9255              	.LEHE558:
 9256 4bf6 E9D0F1FF 		jmp	.L642
 9256      FF
 9257              	.L757:
 9258 4bfb 4889C3   		movq	%rax, %rbx
 314:testCore.cpp  **** 	queueCommitTake(&queue);
 9259              		.loc 3 314 0
 9260 4bfe E8000000 		call	__cxa_end_catch
 9260      00
 9261 4c03 4889D8   		movq	%rbx, %rax
 9262 4c06 4889C7   		movq	%rax, %rdi
 9263              	.LEHB559:
 9264 4c09 E8000000 		call	_Unwind_Resume
 9264      00
 9265              	.LEHE559:
 9266              	.L759:
 9267 4c0e EB00     		jmp	.L645
 9268              	.L758:
 9269              	.L645:
 319:testCore.cpp  **** 
 9270              		.loc 3 319 0 is_stmt 1
 9271 4c10 4889C7   		movq	%rax, %rdi
 9272 4c13 E8000000 		call	__cxa_begin_catch
 9272      00
 9273              	.LEHB560:
 9274 4c18 E8000000 		call	_ZN8UnitTest11CurrentTest7DetailsEv
 9274      00
 9275 4c1d 488B08   		movq	(%rax), %rcx
 9276 4c20 488D4590 		leaq	-112(%rbp), %rax
 9277 4c24 BA3F0100 		movl	$319, %edx
 9277      00
 9278 4c29 4889CE   		movq	%rcx, %rsi
 9279 4c2c 4889C7   		movq	%rax, %rdi
 9280 4c2f E8000000 		call	_ZN8UnitTest11TestDetailsC1ERKS0_i
 9280      00
 319:testCore.cpp  **** 
 9281              		.loc 3 319 0 is_stmt 0 discriminator 10
 9282 4c34 E8000000 		call	_ZN8UnitTest11CurrentTest7ResultsEv
 9282      00
 9283 4c39 488B00   		movq	(%rax), %rax
 9284 4c3c 488D4D90 		leaq	-112(%rbp), %rcx
 9285 4c40 BA000000 		movl	$.LC52, %edx
 9285      00
 9286 4c45 4889CE   		movq	%rcx, %rsi
 9287 4c48 4889C7   		movq	%rax, %rdi
 9288 4c4b E8000000 		call	_ZN8UnitTest11TestResults13OnTestFailureERKNS_11TestDetailsEPKc
 9288      00
 9289              	.LEHE560:
 9290              	.LEHB561:
 319:testCore.cpp  **** 
 9291              		.loc 3 319 0 discriminator 14
 9292 4c50 E8000000 		call	__cxa_end_catch
 9292      00
 9293              	.LEHE561:
 9294 4c55 E9D8F1FF 		jmp	.L646
 9294      FF
 9295              	.L760:
 9296 4c5a 4889C3   		movq	%rax, %rbx
 319:testCore.cpp  **** 
 9297              		.loc 3 319 0
 9298 4c5d E8000000 		call	__cxa_end_catch
 9298      00
 9299 4c62 4889D8   		movq	%rbx, %rax
 9300 4c65 4889C7   		movq	%rax, %rdi
 9301              	.LEHB562:
 9302 4c68 E8000000 		call	_Unwind_Resume
 9302      00
 9303              	.LEHE562:
 9304              	.L761:
 9305              		.loc 3 322 0 is_stmt 1
 9306 4c6d E8000000 		call	__stack_chk_fail
 9306      00
 9307              	.L648:
 9308 4c72 4881C498 		addq	$152, %rsp
 9308      000000
 9309 4c79 5B       		popq	%rbx
 9310 4c7a 5D       		popq	%rbp
 9311              		.cfi_def_cfa 7, 8
 9312 4c7b C3       		ret
 9313              		.cfi_endproc
 9314              	.LFE1097:
 9315              		.section	.gcc_except_table
 9316              		.align 4
 9317              	.LLSDA1097:
 9318 07f0 FF       		.byte	0xff
 9319 07f1 03       		.byte	0x3
 9320 07f2 F008     		.uleb128 .LLSDATT1097-.LLSDATTD1097
 9321              	.LLSDATTD1097:
 9322 07f4 01       		.byte	0x1
 9323 07f5 E408     		.uleb128 .LLSDACSE1097-.LLSDACSB1097
 9324              	.LLSDACSB1097:
 9325 07f7 42       		.uleb128 .LEHB360-.LFB1097
 9326 07f8 05       		.uleb128 .LEHE360-.LEHB360
 9327 07f9 00       		.uleb128 0
 9328 07fa 00       		.uleb128 0
 9329 07fb 4D       		.uleb128 .LEHB361-.LFB1097
 9330 07fc 1C       		.uleb128 .LEHE361-.LEHB361
 9331 07fd F11A     		.uleb128 .L649-.LFB1097
 9332 07ff 01       		.uleb128 0x1
 9333 0800 70       		.uleb128 .LEHB362-.LFB1097
 9334 0801 1F       		.uleb128 .LEHE362-.LEHB362
 9335 0802 EF1A     		.uleb128 .L650-.LFB1097
 9336 0804 03       		.uleb128 0x3
 9337 0805 B301     		.uleb128 .LEHB363-.LFB1097
 9338 0807 05       		.uleb128 .LEHE363-.LEHB363
 9339 0808 00       		.uleb128 0
 9340 0809 00       		.uleb128 0
 9341 080a BE01     		.uleb128 .LEHB364-.LFB1097
 9342 080c 1C       		.uleb128 .LEHE364-.LEHB364
 9343 080d D01B     		.uleb128 .L652-.LFB1097
 9344 080f 01       		.uleb128 0x1
 9345 0810 E101     		.uleb128 .LEHB365-.LFB1097
 9346 0812 1F       		.uleb128 .LEHE365-.LEHB365
 9347 0813 CE1B     		.uleb128 .L653-.LFB1097
 9348 0815 03       		.uleb128 0x3
 9349 0816 8002     		.uleb128 .LEHB366-.LFB1097
 9350 0818 1C       		.uleb128 .LEHE366-.LEHB366
 9351 0819 AF1C     		.uleb128 .L655-.LFB1097
 9352 081b 01       		.uleb128 0x1
 9353 081c B202     		.uleb128 .LEHB367-.LFB1097
 9354 081e 1E       		.uleb128 .LEHE367-.LEHB367
 9355 081f AD1C     		.uleb128 .L656-.LFB1097
 9356 0821 03       		.uleb128 0x3
 9357 0822 E102     		.uleb128 .LEHB368-.LFB1097
 9358 0824 18       		.uleb128 .LEHE368-.LEHB368
 9359 0825 00       		.uleb128 0
 9360 0826 00       		.uleb128 0
 9361 0827 FF02     		.uleb128 .LEHB369-.LFB1097
 9362 0829 1C       		.uleb128 .LEHE369-.LEHB369
 9363 082a 8E1D     		.uleb128 .L658-.LFB1097
 9364 082c 01       		.uleb128 0x1
 9365 082d A203     		.uleb128 .LEHB370-.LFB1097
 9366 082f 1F       		.uleb128 .LEHE370-.LEHB370
 9367 0830 8C1D     		.uleb128 .L659-.LFB1097
 9368 0832 03       		.uleb128 0x3
 9369 0833 C103     		.uleb128 .LEHB371-.LFB1097
 9370 0835 1C       		.uleb128 .LEHE371-.LEHB371
 9371 0836 ED1D     		.uleb128 .L661-.LFB1097
 9372 0838 01       		.uleb128 0x1
 9373 0839 F703     		.uleb128 .LEHB372-.LFB1097
 9374 083b 1E       		.uleb128 .LEHE372-.LEHB372
 9375 083c EB1D     		.uleb128 .L662-.LFB1097
 9376 083e 03       		.uleb128 0x3
 9377 083f A604     		.uleb128 .LEHB373-.LFB1097
 9378 0841 18       		.uleb128 .LEHE373-.LEHB373
 9379 0842 00       		.uleb128 0
 9380 0843 00       		.uleb128 0
 9381 0844 C404     		.uleb128 .LEHB374-.LFB1097
 9382 0846 1C       		.uleb128 .LEHE374-.LEHB374
 9383 0847 CC1E     		.uleb128 .L664-.LFB1097
 9384 0849 01       		.uleb128 0x1
 9385 084a E704     		.uleb128 .LEHB375-.LFB1097
 9386 084c 1F       		.uleb128 .LEHE375-.LEHB375
 9387 084d CA1E     		.uleb128 .L665-.LFB1097
 9388 084f 03       		.uleb128 0x3
 9389 0850 8605     		.uleb128 .LEHB376-.LFB1097
 9390 0852 1C       		.uleb128 .LEHE376-.LEHB376
 9391 0853 AB1F     		.uleb128 .L667-.LFB1097
 9392 0855 01       		.uleb128 0x1
 9393 0856 BC05     		.uleb128 .LEHB377-.LFB1097
 9394 0858 1E       		.uleb128 .LEHE377-.LEHB377
 9395 0859 A91F     		.uleb128 .L668-.LFB1097
 9396 085b 03       		.uleb128 0x3
 9397 085c EB05     		.uleb128 .LEHB378-.LFB1097
 9398 085e 18       		.uleb128 .LEHE378-.LEHB378
 9399 085f 00       		.uleb128 0
 9400 0860 00       		.uleb128 0
 9401 0861 8906     		.uleb128 .LEHB379-.LFB1097
 9402 0863 1C       		.uleb128 .LEHE379-.LEHB379
 9403 0864 8A20     		.uleb128 .L670-.LFB1097
 9404 0866 01       		.uleb128 0x1
 9405 0867 AC06     		.uleb128 .LEHB380-.LFB1097
 9406 0869 1F       		.uleb128 .LEHE380-.LEHB380
 9407 086a 8820     		.uleb128 .L671-.LFB1097
 9408 086c 03       		.uleb128 0x3
 9409 086d CB06     		.uleb128 .LEHB381-.LFB1097
 9410 086f 1C       		.uleb128 .LEHE381-.LEHB381
 9411 0870 E920     		.uleb128 .L673-.LFB1097
 9412 0872 01       		.uleb128 0x1
 9413 0873 8107     		.uleb128 .LEHB382-.LFB1097
 9414 0875 1E       		.uleb128 .LEHE382-.LEHB382
 9415 0876 E720     		.uleb128 .L674-.LFB1097
 9416 0878 03       		.uleb128 0x3
 9417 0879 B007     		.uleb128 .LEHB383-.LFB1097
 9418 087b 05       		.uleb128 .LEHE383-.LEHB383
 9419 087c 00       		.uleb128 0
 9420 087d 00       		.uleb128 0
 9421 087e B507     		.uleb128 .LEHB384-.LFB1097
 9422 0880 1C       		.uleb128 .LEHE384-.LEHB384
 9423 0881 C821     		.uleb128 .L676-.LFB1097
 9424 0883 01       		.uleb128 0x1
 9425 0884 D907     		.uleb128 .LEHB385-.LFB1097
 9426 0886 26       		.uleb128 .LEHE385-.LEHB385
 9427 0887 C621     		.uleb128 .L677-.LFB1097
 9428 0889 03       		.uleb128 0x3
 9429 088a FF07     		.uleb128 .LEHB386-.LFB1097
 9430 088c 45       		.uleb128 .LEHE386-.LEHB386
 9431 088d A522     		.uleb128 .L679-.LFB1097
 9432 088f 01       		.uleb128 0x1
 9433 0890 C408     		.uleb128 .LEHB387-.LFB1097
 9434 0892 45       		.uleb128 .LEHE387-.LEHB387
 9435 0893 8223     		.uleb128 .L681-.LFB1097
 9436 0895 01       		.uleb128 0x1
 9437 0896 8909     		.uleb128 .LEHB388-.LFB1097
 9438 0898 1C       		.uleb128 .LEHE388-.LEHB388
 9439 0899 E123     		.uleb128 .L683-.LFB1097
 9440 089b 01       		.uleb128 0x1
 9441 089c AD09     		.uleb128 .LEHB389-.LFB1097
 9442 089e 26       		.uleb128 .LEHE389-.LEHB389
 9443 089f DF23     		.uleb128 .L684-.LFB1097
 9444 08a1 03       		.uleb128 0x3
 9445 08a2 E109     		.uleb128 .LEHB390-.LFB1097
 9446 08a4 05       		.uleb128 .LEHE390-.LEHB390
 9447 08a5 00       		.uleb128 0
 9448 08a6 00       		.uleb128 0
 9449 08a7 EC09     		.uleb128 .LEHB391-.LFB1097
 9450 08a9 1C       		.uleb128 .LEHE391-.LEHB391
 9451 08aa C024     		.uleb128 .L686-.LFB1097
 9452 08ac 01       		.uleb128 0x1
 9453 08ad 8F0A     		.uleb128 .LEHB392-.LFB1097
 9454 08af 1F       		.uleb128 .LEHE392-.LEHB392
 9455 08b0 BE24     		.uleb128 .L687-.LFB1097
 9456 08b2 03       		.uleb128 0x3
 9457 08b3 AE0A     		.uleb128 .LEHB393-.LFB1097
 9458 08b5 1C       		.uleb128 .LEHE393-.LEHB393
 9459 08b6 9F25     		.uleb128 .L689-.LFB1097
 9460 08b8 01       		.uleb128 0x1
 9461 08b9 D60A     		.uleb128 .LEHB394-.LFB1097
 9462 08bb 1E       		.uleb128 .LEHE394-.LEHB394
 9463 08bc 9D25     		.uleb128 .L690-.LFB1097
 9464 08be 03       		.uleb128 0x3
 9465 08bf 850B     		.uleb128 .LEHB395-.LFB1097
 9466 08c1 05       		.uleb128 .LEHE395-.LEHB395
 9467 08c2 00       		.uleb128 0
 9468 08c3 00       		.uleb128 0
 9469 08c4 8A0B     		.uleb128 .LEHB396-.LFB1097
 9470 08c6 1C       		.uleb128 .LEHE396-.LEHB396
 9471 08c7 FE25     		.uleb128 .L692-.LFB1097
 9472 08c9 01       		.uleb128 0x1
 9473 08ca AE0B     		.uleb128 .LEHB397-.LFB1097
 9474 08cc 26       		.uleb128 .LEHE397-.LEHB397
 9475 08cd FC25     		.uleb128 .L693-.LFB1097
 9476 08cf 03       		.uleb128 0x3
 9477 08d0 D40B     		.uleb128 .LEHB398-.LFB1097
 9478 08d2 1C       		.uleb128 .LEHE398-.LEHB398
 9479 08d3 DD26     		.uleb128 .L695-.LFB1097
 9480 08d5 01       		.uleb128 0x1
 9481 08d6 F80B     		.uleb128 .LEHB399-.LFB1097
 9482 08d8 26       		.uleb128 .LEHE399-.LEHB399
 9483 08d9 DB26     		.uleb128 .L696-.LFB1097
 9484 08db 03       		.uleb128 0x3
 9485 08dc 9E0C     		.uleb128 .LEHB400-.LFB1097
 9486 08de 1C       		.uleb128 .LEHE400-.LEHB400
 9487 08df BC27     		.uleb128 .L698-.LFB1097
 9488 08e1 01       		.uleb128 0x1
 9489 08e2 C20C     		.uleb128 .LEHB401-.LFB1097
 9490 08e4 26       		.uleb128 .LEHE401-.LEHB401
 9491 08e5 BA27     		.uleb128 .L699-.LFB1097
 9492 08e7 03       		.uleb128 0x3
 9493 08e8 E80C     		.uleb128 .LEHB402-.LFB1097
 9494 08ea 1C       		.uleb128 .LEHE402-.LEHB402
 9495 08eb 9B28     		.uleb128 .L701-.LFB1097
 9496 08ed 01       		.uleb128 0x1
 9497 08ee 8C0D     		.uleb128 .LEHB403-.LFB1097
 9498 08f0 26       		.uleb128 .LEHE403-.LEHB403
 9499 08f1 9928     		.uleb128 .L702-.LFB1097
 9500 08f3 03       		.uleb128 0x3
 9501 08f4 B20D     		.uleb128 .LEHB404-.LFB1097
 9502 08f6 1C       		.uleb128 .LEHE404-.LEHB404
 9503 08f7 FA28     		.uleb128 .L704-.LFB1097
 9504 08f9 01       		.uleb128 0x1
 9505 08fa EB0D     		.uleb128 .LEHB405-.LFB1097
 9506 08fc 1F       		.uleb128 .LEHE405-.LEHB405
 9507 08fd F828     		.uleb128 .L705-.LFB1097
 9508 08ff 03       		.uleb128 0x3
 9509 0900 8A0E     		.uleb128 .LEHB406-.LFB1097
 9510 0902 1C       		.uleb128 .LEHE406-.LEHB406
 9511 0903 D929     		.uleb128 .L707-.LFB1097
 9512 0905 01       		.uleb128 0x1
 9513 0906 C70E     		.uleb128 .LEHB407-.LFB1097
 9514 0908 1F       		.uleb128 .LEHE407-.LEHB407
 9515 0909 D729     		.uleb128 .L708-.LFB1097
 9516 090b 03       		.uleb128 0x3
 9517 090c E60E     		.uleb128 .LEHB408-.LFB1097
 9518 090e 1C       		.uleb128 .LEHE408-.LEHB408
 9519 090f B82A     		.uleb128 .L710-.LFB1097
 9520 0911 01       		.uleb128 0x1
 9521 0912 A30F     		.uleb128 .LEHB409-.LFB1097
 9522 0914 1F       		.uleb128 .LEHE409-.LEHB409
 9523 0915 B62A     		.uleb128 .L711-.LFB1097
 9524 0917 03       		.uleb128 0x3
 9525 0918 C20F     		.uleb128 .LEHB410-.LFB1097
 9526 091a 1C       		.uleb128 .LEHE410-.LEHB410
 9527 091b 972B     		.uleb128 .L713-.LFB1097
 9528 091d 01       		.uleb128 0x1
 9529 091e FF0F     		.uleb128 .LEHB411-.LFB1097
 9530 0920 1F       		.uleb128 .LEHE411-.LEHB411
 9531 0921 952B     		.uleb128 .L714-.LFB1097
 9532 0923 03       		.uleb128 0x3
 9533 0924 9E10     		.uleb128 .LEHB412-.LFB1097
 9534 0926 1C       		.uleb128 .LEHE412-.LEHB412
 9535 0927 F62B     		.uleb128 .L716-.LFB1097
 9536 0929 01       		.uleb128 0x1
 9537 092a DB10     		.uleb128 .LEHB413-.LFB1097
 9538 092c 1F       		.uleb128 .LEHE413-.LEHB413
 9539 092d F42B     		.uleb128 .L717-.LFB1097
 9540 092f 03       		.uleb128 0x3
 9541 0930 FA10     		.uleb128 .LEHB414-.LFB1097
 9542 0932 1C       		.uleb128 .LEHE414-.LEHB414
 9543 0933 D52C     		.uleb128 .L719-.LFB1097
 9544 0935 01       		.uleb128 0x1
 9545 0936 B711     		.uleb128 .LEHB415-.LFB1097
 9546 0938 1F       		.uleb128 .LEHE415-.LEHB415
 9547 0939 D32C     		.uleb128 .L720-.LFB1097
 9548 093b 03       		.uleb128 0x3
 9549 093c D611     		.uleb128 .LEHB416-.LFB1097
 9550 093e 1C       		.uleb128 .LEHE416-.LEHB416
 9551 093f B42D     		.uleb128 .L722-.LFB1097
 9552 0941 01       		.uleb128 0x1
 9553 0942 9312     		.uleb128 .LEHB417-.LFB1097
 9554 0944 1F       		.uleb128 .LEHE417-.LEHB417
 9555 0945 B22D     		.uleb128 .L723-.LFB1097
 9556 0947 03       		.uleb128 0x3
 9557 0948 B212     		.uleb128 .LEHB418-.LFB1097
 9558 094a 1C       		.uleb128 .LEHE418-.LEHB418
 9559 094b 932E     		.uleb128 .L725-.LFB1097
 9560 094d 01       		.uleb128 0x1
 9561 094e EF12     		.uleb128 .LEHB419-.LFB1097
 9562 0950 1F       		.uleb128 .LEHE419-.LEHB419
 9563 0951 912E     		.uleb128 .L726-.LFB1097
 9564 0953 03       		.uleb128 0x3
 9565 0954 9C13     		.uleb128 .LEHB420-.LFB1097
 9566 0956 05       		.uleb128 .LEHE420-.LEHB420
 9567 0957 00       		.uleb128 0
 9568 0958 00       		.uleb128 0
 9569 0959 A713     		.uleb128 .LEHB421-.LFB1097
 9570 095b 1C       		.uleb128 .LEHE421-.LEHB421
 9571 095c F22E     		.uleb128 .L728-.LFB1097
 9572 095e 01       		.uleb128 0x1
 9573 095f CA13     		.uleb128 .LEHB422-.LFB1097
 9574 0961 1F       		.uleb128 .LEHE422-.LEHB422
 9575 0962 F02E     		.uleb128 .L729-.LFB1097
 9576 0964 03       		.uleb128 0x3
 9577 0965 E913     		.uleb128 .LEHB423-.LFB1097
 9578 0967 1C       		.uleb128 .LEHE423-.LEHB423
 9579 0968 D12F     		.uleb128 .L731-.LFB1097
 9580 096a 01       		.uleb128 0x1
 9581 096b 9114     		.uleb128 .LEHB424-.LFB1097
 9582 096d 1E       		.uleb128 .LEHE424-.LEHB424
 9583 096e CF2F     		.uleb128 .L732-.LFB1097
 9584 0970 03       		.uleb128 0x3
 9585 0971 B614     		.uleb128 .LEHB425-.LFB1097
 9586 0973 18       		.uleb128 .LEHE425-.LEHB425
 9587 0974 00       		.uleb128 0
 9588 0975 00       		.uleb128 0
 9589 0976 D414     		.uleb128 .LEHB426-.LFB1097
 9590 0978 1C       		.uleb128 .LEHE426-.LEHB426
 9591 0979 B030     		.uleb128 .L734-.LFB1097
 9592 097b 01       		.uleb128 0x1
 9593 097c F714     		.uleb128 .LEHB427-.LFB1097
 9594 097e 1F       		.uleb128 .LEHE427-.LEHB427
 9595 097f AE30     		.uleb128 .L735-.LFB1097
 9596 0981 03       		.uleb128 0x3
 9597 0982 9615     		.uleb128 .LEHB428-.LFB1097
 9598 0984 1C       		.uleb128 .LEHE428-.LEHB428
 9599 0985 8F31     		.uleb128 .L737-.LFB1097
 9600 0987 01       		.uleb128 0x1
 9601 0988 BE15     		.uleb128 .LEHB429-.LFB1097
 9602 098a 1E       		.uleb128 .LEHE429-.LEHB429
 9603 098b 8D31     		.uleb128 .L738-.LFB1097
 9604 098d 03       		.uleb128 0x3
 9605 098e E315     		.uleb128 .LEHB430-.LFB1097
 9606 0990 18       		.uleb128 .LEHE430-.LEHB430
 9607 0991 00       		.uleb128 0
 9608 0992 00       		.uleb128 0
 9609 0993 8116     		.uleb128 .LEHB431-.LFB1097
 9610 0995 1C       		.uleb128 .LEHE431-.LEHB431
 9611 0996 EE31     		.uleb128 .L740-.LFB1097
 9612 0998 01       		.uleb128 0x1
 9613 0999 A416     		.uleb128 .LEHB432-.LFB1097
 9614 099b 1F       		.uleb128 .LEHE432-.LEHB432
 9615 099c EC31     		.uleb128 .L741-.LFB1097
 9616 099e 03       		.uleb128 0x3
 9617 099f C316     		.uleb128 .LEHB433-.LFB1097
 9618 09a1 1C       		.uleb128 .LEHE433-.LEHB433
 9619 09a2 CD32     		.uleb128 .L743-.LFB1097
 9620 09a4 01       		.uleb128 0x1
 9621 09a5 EB16     		.uleb128 .LEHB434-.LFB1097
 9622 09a7 1E       		.uleb128 .LEHE434-.LEHB434
 9623 09a8 CB32     		.uleb128 .L744-.LFB1097
 9624 09aa 03       		.uleb128 0x3
 9625 09ab 9017     		.uleb128 .LEHB435-.LFB1097
 9626 09ad 18       		.uleb128 .LEHE435-.LEHB435
 9627 09ae 00       		.uleb128 0
 9628 09af 00       		.uleb128 0
 9629 09b0 AE17     		.uleb128 .LEHB436-.LFB1097
 9630 09b2 1C       		.uleb128 .LEHE436-.LEHB436
 9631 09b3 AC33     		.uleb128 .L746-.LFB1097
 9632 09b5 01       		.uleb128 0x1
 9633 09b6 D117     		.uleb128 .LEHB437-.LFB1097
 9634 09b8 1F       		.uleb128 .LEHE437-.LEHB437
 9635 09b9 AA33     		.uleb128 .L747-.LFB1097
 9636 09bb 03       		.uleb128 0x3
 9637 09bc F017     		.uleb128 .LEHB438-.LFB1097
 9638 09be 1C       		.uleb128 .LEHE438-.LEHB438
 9639 09bf 8B34     		.uleb128 .L749-.LFB1097
 9640 09c1 01       		.uleb128 0x1
 9641 09c2 9818     		.uleb128 .LEHB439-.LFB1097
 9642 09c4 1E       		.uleb128 .LEHE439-.LEHB439
 9643 09c5 8934     		.uleb128 .L750-.LFB1097
 9644 09c7 03       		.uleb128 0x3
 9645 09c8 BD18     		.uleb128 .LEHB440-.LFB1097
 9646 09ca 18       		.uleb128 .LEHE440-.LEHB440
 9647 09cb 00       		.uleb128 0
 9648 09cc 00       		.uleb128 0
 9649 09cd DB18     		.uleb128 .LEHB441-.LFB1097
 9650 09cf 1C       		.uleb128 .LEHE441-.LEHB441
 9651 09d0 EA34     		.uleb128 .L752-.LFB1097
 9652 09d2 01       		.uleb128 0x1
 9653 09d3 FE18     		.uleb128 .LEHB442-.LFB1097
 9654 09d5 1F       		.uleb128 .LEHE442-.LEHB442
 9655 09d6 E834     		.uleb128 .L753-.LFB1097
 9656 09d8 03       		.uleb128 0x3
 9657 09d9 9D19     		.uleb128 .LEHB443-.LFB1097
 9658 09db 1C       		.uleb128 .LEHE443-.LEHB443
 9659 09dc C935     		.uleb128 .L755-.LFB1097
 9660 09de 01       		.uleb128 0x1
 9661 09df C519     		.uleb128 .LEHB444-.LFB1097
 9662 09e1 1E       		.uleb128 .LEHE444-.LEHB444
 9663 09e2 C735     		.uleb128 .L756-.LFB1097
 9664 09e4 03       		.uleb128 0x3
 9665 09e5 EA19     		.uleb128 .LEHB445-.LFB1097
 9666 09e7 18       		.uleb128 .LEHE445-.LEHB445
 9667 09e8 00       		.uleb128 0
 9668 09e9 00       		.uleb128 0
 9669 09ea 881A     		.uleb128 .LEHB446-.LFB1097
 9670 09ec 1C       		.uleb128 .LEHE446-.LEHB446
 9671 09ed A836     		.uleb128 .L758-.LFB1097
 9672 09ef 01       		.uleb128 0x1
 9673 09f0 AB1A     		.uleb128 .LEHB447-.LFB1097
 9674 09f2 1F       		.uleb128 .LEHE447-.LEHB447
 9675 09f3 A636     		.uleb128 .L759-.LFB1097
 9676 09f5 03       		.uleb128 0x3
 9677 09f6 D11A     		.uleb128 .LEHB448-.LFB1097
 9678 09f8 05       		.uleb128 .LEHE448-.LEHB448
 9679 09f9 00       		.uleb128 0
 9680 09fa 00       		.uleb128 0
 9681 09fb F91A     		.uleb128 .LEHB449-.LFB1097
 9682 09fd 38       		.uleb128 .LEHE449-.LEHB449
 9683 09fe BB1B     		.uleb128 .L651-.LFB1097
 9684 0a00 00       		.uleb128 0
 9685 0a01 B11B     		.uleb128 .LEHB450-.LFB1097
 9686 0a03 05       		.uleb128 .LEHE450-.LEHB450
 9687 0a04 00       		.uleb128 0
 9688 0a05 00       		.uleb128 0
 9689 0a06 C91B     		.uleb128 .LEHB451-.LFB1097
 9690 0a08 05       		.uleb128 .LEHE451-.LEHB451
 9691 0a09 00       		.uleb128 0
 9692 0a0a 00       		.uleb128 0
 9693 0a0b D81B     		.uleb128 .LEHB452-.LFB1097
 9694 0a0d 38       		.uleb128 .LEHE452-.LEHB452
 9695 0a0e 9A1C     		.uleb128 .L654-.LFB1097
 9696 0a10 00       		.uleb128 0
 9697 0a11 901C     		.uleb128 .LEHB453-.LFB1097
 9698 0a13 05       		.uleb128 .LEHE453-.LEHB453
 9699 0a14 00       		.uleb128 0
 9700 0a15 00       		.uleb128 0
 9701 0a16 A81C     		.uleb128 .LEHB454-.LFB1097
 9702 0a18 05       		.uleb128 .LEHE454-.LEHB454
 9703 0a19 00       		.uleb128 0
 9704 0a1a 00       		.uleb128 0
 9705 0a1b B71C     		.uleb128 .LEHB455-.LFB1097
 9706 0a1d 38       		.uleb128 .LEHE455-.LEHB455
 9707 0a1e F91C     		.uleb128 .L657-.LFB1097
 9708 0a20 00       		.uleb128 0
 9709 0a21 EF1C     		.uleb128 .LEHB456-.LFB1097
 9710 0a23 05       		.uleb128 .LEHE456-.LEHB456
 9711 0a24 00       		.uleb128 0
 9712 0a25 00       		.uleb128 0
 9713 0a26 871D     		.uleb128 .LEHB457-.LFB1097
 9714 0a28 05       		.uleb128 .LEHE457-.LEHB457
 9715 0a29 00       		.uleb128 0
 9716 0a2a 00       		.uleb128 0
 9717 0a2b 961D     		.uleb128 .LEHB458-.LFB1097
 9718 0a2d 38       		.uleb128 .LEHE458-.LEHB458
 9719 0a2e D81D     		.uleb128 .L660-.LFB1097
 9720 0a30 00       		.uleb128 0
 9721 0a31 CE1D     		.uleb128 .LEHB459-.LFB1097
 9722 0a33 05       		.uleb128 .LEHE459-.LEHB459
 9723 0a34 00       		.uleb128 0
 9724 0a35 00       		.uleb128 0
 9725 0a36 E61D     		.uleb128 .LEHB460-.LFB1097
 9726 0a38 05       		.uleb128 .LEHE460-.LEHB460
 9727 0a39 00       		.uleb128 0
 9728 0a3a 00       		.uleb128 0
 9729 0a3b F51D     		.uleb128 .LEHB461-.LFB1097
 9730 0a3d 38       		.uleb128 .LEHE461-.LEHB461
 9731 0a3e B71E     		.uleb128 .L663-.LFB1097
 9732 0a40 00       		.uleb128 0
 9733 0a41 AD1E     		.uleb128 .LEHB462-.LFB1097
 9734 0a43 05       		.uleb128 .LEHE462-.LEHB462
 9735 0a44 00       		.uleb128 0
 9736 0a45 00       		.uleb128 0
 9737 0a46 C51E     		.uleb128 .LEHB463-.LFB1097
 9738 0a48 05       		.uleb128 .LEHE463-.LEHB463
 9739 0a49 00       		.uleb128 0
 9740 0a4a 00       		.uleb128 0
 9741 0a4b D41E     		.uleb128 .LEHB464-.LFB1097
 9742 0a4d 38       		.uleb128 .LEHE464-.LEHB464
 9743 0a4e 961F     		.uleb128 .L666-.LFB1097
 9744 0a50 00       		.uleb128 0
 9745 0a51 8C1F     		.uleb128 .LEHB465-.LFB1097
 9746 0a53 05       		.uleb128 .LEHE465-.LEHB465
 9747 0a54 00       		.uleb128 0
 9748 0a55 00       		.uleb128 0
 9749 0a56 A41F     		.uleb128 .LEHB466-.LFB1097
 9750 0a58 05       		.uleb128 .LEHE466-.LEHB466
 9751 0a59 00       		.uleb128 0
 9752 0a5a 00       		.uleb128 0
 9753 0a5b B31F     		.uleb128 .LEHB467-.LFB1097
 9754 0a5d 38       		.uleb128 .LEHE467-.LEHB467
 9755 0a5e F51F     		.uleb128 .L669-.LFB1097
 9756 0a60 00       		.uleb128 0
 9757 0a61 EB1F     		.uleb128 .LEHB468-.LFB1097
 9758 0a63 05       		.uleb128 .LEHE468-.LEHB468
 9759 0a64 00       		.uleb128 0
 9760 0a65 00       		.uleb128 0
 9761 0a66 8320     		.uleb128 .LEHB469-.LFB1097
 9762 0a68 05       		.uleb128 .LEHE469-.LEHB469
 9763 0a69 00       		.uleb128 0
 9764 0a6a 00       		.uleb128 0
 9765 0a6b 9220     		.uleb128 .LEHB470-.LFB1097
 9766 0a6d 38       		.uleb128 .LEHE470-.LEHB470
 9767 0a6e D420     		.uleb128 .L672-.LFB1097
 9768 0a70 00       		.uleb128 0
 9769 0a71 CA20     		.uleb128 .LEHB471-.LFB1097
 9770 0a73 05       		.uleb128 .LEHE471-.LEHB471
 9771 0a74 00       		.uleb128 0
 9772 0a75 00       		.uleb128 0
 9773 0a76 E220     		.uleb128 .LEHB472-.LFB1097
 9774 0a78 05       		.uleb128 .LEHE472-.LEHB472
 9775 0a79 00       		.uleb128 0
 9776 0a7a 00       		.uleb128 0
 9777 0a7b F120     		.uleb128 .LEHB473-.LFB1097
 9778 0a7d 38       		.uleb128 .LEHE473-.LEHB473
 9779 0a7e B321     		.uleb128 .L675-.LFB1097
 9780 0a80 00       		.uleb128 0
 9781 0a81 A921     		.uleb128 .LEHB474-.LFB1097
 9782 0a83 05       		.uleb128 .LEHE474-.LEHB474
 9783 0a84 00       		.uleb128 0
 9784 0a85 00       		.uleb128 0
 9785 0a86 C121     		.uleb128 .LEHB475-.LFB1097
 9786 0a88 05       		.uleb128 .LEHE475-.LEHB475
 9787 0a89 00       		.uleb128 0
 9788 0a8a 00       		.uleb128 0
 9789 0a8b D021     		.uleb128 .LEHB476-.LFB1097
 9790 0a8d 38       		.uleb128 .LEHE476-.LEHB476
 9791 0a8e 9222     		.uleb128 .L678-.LFB1097
 9792 0a90 00       		.uleb128 0
 9793 0a91 8822     		.uleb128 .LEHB477-.LFB1097
 9794 0a93 05       		.uleb128 .LEHE477-.LEHB477
 9795 0a94 00       		.uleb128 0
 9796 0a95 00       		.uleb128 0
 9797 0a96 A022     		.uleb128 .LEHB478-.LFB1097
 9798 0a98 05       		.uleb128 .LEHE478-.LEHB478
 9799 0a99 00       		.uleb128 0
 9800 0a9a 00       		.uleb128 0
 9801 0a9b AD22     		.uleb128 .LEHB479-.LFB1097
 9802 0a9d 38       		.uleb128 .LEHE479-.LEHB479
 9803 0a9e EF22     		.uleb128 .L680-.LFB1097
 9804 0aa0 00       		.uleb128 0
 9805 0aa1 E522     		.uleb128 .LEHB480-.LFB1097
 9806 0aa3 05       		.uleb128 .LEHE480-.LEHB480
 9807 0aa4 00       		.uleb128 0
 9808 0aa5 00       		.uleb128 0
 9809 0aa6 FD22     		.uleb128 .LEHB481-.LFB1097
 9810 0aa8 05       		.uleb128 .LEHE481-.LEHB481
 9811 0aa9 00       		.uleb128 0
 9812 0aaa 00       		.uleb128 0
 9813 0aab 8A23     		.uleb128 .LEHB482-.LFB1097
 9814 0aad 38       		.uleb128 .LEHE482-.LEHB482
 9815 0aae CC23     		.uleb128 .L682-.LFB1097
 9816 0ab0 00       		.uleb128 0
 9817 0ab1 C223     		.uleb128 .LEHB483-.LFB1097
 9818 0ab3 05       		.uleb128 .LEHE483-.LEHB483
 9819 0ab4 00       		.uleb128 0
 9820 0ab5 00       		.uleb128 0
 9821 0ab6 DA23     		.uleb128 .LEHB484-.LFB1097
 9822 0ab8 05       		.uleb128 .LEHE484-.LEHB484
 9823 0ab9 00       		.uleb128 0
 9824 0aba 00       		.uleb128 0
 9825 0abb E923     		.uleb128 .LEHB485-.LFB1097
 9826 0abd 38       		.uleb128 .LEHE485-.LEHB485
 9827 0abe AB24     		.uleb128 .L685-.LFB1097
 9828 0ac0 00       		.uleb128 0
 9829 0ac1 A124     		.uleb128 .LEHB486-.LFB1097
 9830 0ac3 05       		.uleb128 .LEHE486-.LEHB486
 9831 0ac4 00       		.uleb128 0
 9832 0ac5 00       		.uleb128 0
 9833 0ac6 B924     		.uleb128 .LEHB487-.LFB1097
 9834 0ac8 05       		.uleb128 .LEHE487-.LEHB487
 9835 0ac9 00       		.uleb128 0
 9836 0aca 00       		.uleb128 0
 9837 0acb C824     		.uleb128 .LEHB488-.LFB1097
 9838 0acd 38       		.uleb128 .LEHE488-.LEHB488
 9839 0ace 8A25     		.uleb128 .L688-.LFB1097
 9840 0ad0 00       		.uleb128 0
 9841 0ad1 8025     		.uleb128 .LEHB489-.LFB1097
 9842 0ad3 05       		.uleb128 .LEHE489-.LEHB489
 9843 0ad4 00       		.uleb128 0
 9844 0ad5 00       		.uleb128 0
 9845 0ad6 9825     		.uleb128 .LEHB490-.LFB1097
 9846 0ad8 05       		.uleb128 .LEHE490-.LEHB490
 9847 0ad9 00       		.uleb128 0
 9848 0ada 00       		.uleb128 0
 9849 0adb A725     		.uleb128 .LEHB491-.LFB1097
 9850 0add 38       		.uleb128 .LEHE491-.LEHB491
 9851 0ade E925     		.uleb128 .L691-.LFB1097
 9852 0ae0 00       		.uleb128 0
 9853 0ae1 DF25     		.uleb128 .LEHB492-.LFB1097
 9854 0ae3 05       		.uleb128 .LEHE492-.LEHB492
 9855 0ae4 00       		.uleb128 0
 9856 0ae5 00       		.uleb128 0
 9857 0ae6 F725     		.uleb128 .LEHB493-.LFB1097
 9858 0ae8 05       		.uleb128 .LEHE493-.LEHB493
 9859 0ae9 00       		.uleb128 0
 9860 0aea 00       		.uleb128 0
 9861 0aeb 8626     		.uleb128 .LEHB494-.LFB1097
 9862 0aed 38       		.uleb128 .LEHE494-.LEHB494
 9863 0aee C826     		.uleb128 .L694-.LFB1097
 9864 0af0 00       		.uleb128 0
 9865 0af1 BE26     		.uleb128 .LEHB495-.LFB1097
 9866 0af3 05       		.uleb128 .LEHE495-.LEHB495
 9867 0af4 00       		.uleb128 0
 9868 0af5 00       		.uleb128 0
 9869 0af6 D626     		.uleb128 .LEHB496-.LFB1097
 9870 0af8 05       		.uleb128 .LEHE496-.LEHB496
 9871 0af9 00       		.uleb128 0
 9872 0afa 00       		.uleb128 0
 9873 0afb E526     		.uleb128 .LEHB497-.LFB1097
 9874 0afd 38       		.uleb128 .LEHE497-.LEHB497
 9875 0afe A727     		.uleb128 .L697-.LFB1097
 9876 0b00 00       		.uleb128 0
 9877 0b01 9D27     		.uleb128 .LEHB498-.LFB1097
 9878 0b03 05       		.uleb128 .LEHE498-.LEHB498
 9879 0b04 00       		.uleb128 0
 9880 0b05 00       		.uleb128 0
 9881 0b06 B527     		.uleb128 .LEHB499-.LFB1097
 9882 0b08 05       		.uleb128 .LEHE499-.LEHB499
 9883 0b09 00       		.uleb128 0
 9884 0b0a 00       		.uleb128 0
 9885 0b0b C427     		.uleb128 .LEHB500-.LFB1097
 9886 0b0d 38       		.uleb128 .LEHE500-.LEHB500
 9887 0b0e 8628     		.uleb128 .L700-.LFB1097
 9888 0b10 00       		.uleb128 0
 9889 0b11 FC27     		.uleb128 .LEHB501-.LFB1097
 9890 0b13 05       		.uleb128 .LEHE501-.LEHB501
 9891 0b14 00       		.uleb128 0
 9892 0b15 00       		.uleb128 0
 9893 0b16 9428     		.uleb128 .LEHB502-.LFB1097
 9894 0b18 05       		.uleb128 .LEHE502-.LEHB502
 9895 0b19 00       		.uleb128 0
 9896 0b1a 00       		.uleb128 0
 9897 0b1b A328     		.uleb128 .LEHB503-.LFB1097
 9898 0b1d 38       		.uleb128 .LEHE503-.LEHB503
 9899 0b1e E528     		.uleb128 .L703-.LFB1097
 9900 0b20 00       		.uleb128 0
 9901 0b21 DB28     		.uleb128 .LEHB504-.LFB1097
 9902 0b23 05       		.uleb128 .LEHE504-.LEHB504
 9903 0b24 00       		.uleb128 0
 9904 0b25 00       		.uleb128 0
 9905 0b26 F328     		.uleb128 .LEHB505-.LFB1097
 9906 0b28 05       		.uleb128 .LEHE505-.LEHB505
 9907 0b29 00       		.uleb128 0
 9908 0b2a 00       		.uleb128 0
 9909 0b2b 8229     		.uleb128 .LEHB506-.LFB1097
 9910 0b2d 38       		.uleb128 .LEHE506-.LEHB506
 9911 0b2e C429     		.uleb128 .L706-.LFB1097
 9912 0b30 00       		.uleb128 0
 9913 0b31 BA29     		.uleb128 .LEHB507-.LFB1097
 9914 0b33 05       		.uleb128 .LEHE507-.LEHB507
 9915 0b34 00       		.uleb128 0
 9916 0b35 00       		.uleb128 0
 9917 0b36 D229     		.uleb128 .LEHB508-.LFB1097
 9918 0b38 05       		.uleb128 .LEHE508-.LEHB508
 9919 0b39 00       		.uleb128 0
 9920 0b3a 00       		.uleb128 0
 9921 0b3b E129     		.uleb128 .LEHB509-.LFB1097
 9922 0b3d 38       		.uleb128 .LEHE509-.LEHB509
 9923 0b3e A32A     		.uleb128 .L709-.LFB1097
 9924 0b40 00       		.uleb128 0
 9925 0b41 992A     		.uleb128 .LEHB510-.LFB1097
 9926 0b43 05       		.uleb128 .LEHE510-.LEHB510
 9927 0b44 00       		.uleb128 0
 9928 0b45 00       		.uleb128 0
 9929 0b46 B12A     		.uleb128 .LEHB511-.LFB1097
 9930 0b48 05       		.uleb128 .LEHE511-.LEHB511
 9931 0b49 00       		.uleb128 0
 9932 0b4a 00       		.uleb128 0
 9933 0b4b C02A     		.uleb128 .LEHB512-.LFB1097
 9934 0b4d 38       		.uleb128 .LEHE512-.LEHB512
 9935 0b4e 822B     		.uleb128 .L712-.LFB1097
 9936 0b50 00       		.uleb128 0
 9937 0b51 F82A     		.uleb128 .LEHB513-.LFB1097
 9938 0b53 05       		.uleb128 .LEHE513-.LEHB513
 9939 0b54 00       		.uleb128 0
 9940 0b55 00       		.uleb128 0
 9941 0b56 902B     		.uleb128 .LEHB514-.LFB1097
 9942 0b58 05       		.uleb128 .LEHE514-.LEHB514
 9943 0b59 00       		.uleb128 0
 9944 0b5a 00       		.uleb128 0
 9945 0b5b 9F2B     		.uleb128 .LEHB515-.LFB1097
 9946 0b5d 38       		.uleb128 .LEHE515-.LEHB515
 9947 0b5e E12B     		.uleb128 .L715-.LFB1097
 9948 0b60 00       		.uleb128 0
 9949 0b61 D72B     		.uleb128 .LEHB516-.LFB1097
 9950 0b63 05       		.uleb128 .LEHE516-.LEHB516
 9951 0b64 00       		.uleb128 0
 9952 0b65 00       		.uleb128 0
 9953 0b66 EF2B     		.uleb128 .LEHB517-.LFB1097
 9954 0b68 05       		.uleb128 .LEHE517-.LEHB517
 9955 0b69 00       		.uleb128 0
 9956 0b6a 00       		.uleb128 0
 9957 0b6b FE2B     		.uleb128 .LEHB518-.LFB1097
 9958 0b6d 38       		.uleb128 .LEHE518-.LEHB518
 9959 0b6e C02C     		.uleb128 .L718-.LFB1097
 9960 0b70 00       		.uleb128 0
 9961 0b71 B62C     		.uleb128 .LEHB519-.LFB1097
 9962 0b73 05       		.uleb128 .LEHE519-.LEHB519
 9963 0b74 00       		.uleb128 0
 9964 0b75 00       		.uleb128 0
 9965 0b76 CE2C     		.uleb128 .LEHB520-.LFB1097
 9966 0b78 05       		.uleb128 .LEHE520-.LEHB520
 9967 0b79 00       		.uleb128 0
 9968 0b7a 00       		.uleb128 0
 9969 0b7b DD2C     		.uleb128 .LEHB521-.LFB1097
 9970 0b7d 38       		.uleb128 .LEHE521-.LEHB521
 9971 0b7e 9F2D     		.uleb128 .L721-.LFB1097
 9972 0b80 00       		.uleb128 0
 9973 0b81 952D     		.uleb128 .LEHB522-.LFB1097
 9974 0b83 05       		.uleb128 .LEHE522-.LEHB522
 9975 0b84 00       		.uleb128 0
 9976 0b85 00       		.uleb128 0
 9977 0b86 AD2D     		.uleb128 .LEHB523-.LFB1097
 9978 0b88 05       		.uleb128 .LEHE523-.LEHB523
 9979 0b89 00       		.uleb128 0
 9980 0b8a 00       		.uleb128 0
 9981 0b8b BC2D     		.uleb128 .LEHB524-.LFB1097
 9982 0b8d 38       		.uleb128 .LEHE524-.LEHB524
 9983 0b8e FE2D     		.uleb128 .L724-.LFB1097
 9984 0b90 00       		.uleb128 0
 9985 0b91 F42D     		.uleb128 .LEHB525-.LFB1097
 9986 0b93 05       		.uleb128 .LEHE525-.LEHB525
 9987 0b94 00       		.uleb128 0
 9988 0b95 00       		.uleb128 0
 9989 0b96 8C2E     		.uleb128 .LEHB526-.LFB1097
 9990 0b98 05       		.uleb128 .LEHE526-.LEHB526
 9991 0b99 00       		.uleb128 0
 9992 0b9a 00       		.uleb128 0
 9993 0b9b 9B2E     		.uleb128 .LEHB527-.LFB1097
 9994 0b9d 38       		.uleb128 .LEHE527-.LEHB527
 9995 0b9e DD2E     		.uleb128 .L727-.LFB1097
 9996 0ba0 00       		.uleb128 0
 9997 0ba1 D32E     		.uleb128 .LEHB528-.LFB1097
 9998 0ba3 05       		.uleb128 .LEHE528-.LEHB528
 9999 0ba4 00       		.uleb128 0
 10000 0ba5 00       		.uleb128 0
 10001 0ba6 EB2E     		.uleb128 .LEHB529-.LFB1097
 10002 0ba8 05       		.uleb128 .LEHE529-.LEHB529
 10003 0ba9 00       		.uleb128 0
 10004 0baa 00       		.uleb128 0
 10005 0bab FA2E     		.uleb128 .LEHB530-.LFB1097
 10006 0bad 38       		.uleb128 .LEHE530-.LEHB530
 10007 0bae BC2F     		.uleb128 .L730-.LFB1097
 10008 0bb0 00       		.uleb128 0
 10009 0bb1 B22F     		.uleb128 .LEHB531-.LFB1097
 10010 0bb3 05       		.uleb128 .LEHE531-.LEHB531
 10011 0bb4 00       		.uleb128 0
 10012 0bb5 00       		.uleb128 0
 10013 0bb6 CA2F     		.uleb128 .LEHB532-.LFB1097
 10014 0bb8 05       		.uleb128 .LEHE532-.LEHB532
 10015 0bb9 00       		.uleb128 0
 10016 0bba 00       		.uleb128 0
 10017 0bbb D92F     		.uleb128 .LEHB533-.LFB1097
 10018 0bbd 38       		.uleb128 .LEHE533-.LEHB533
 10019 0bbe 9B30     		.uleb128 .L733-.LFB1097
 10020 0bc0 00       		.uleb128 0
 10021 0bc1 9130     		.uleb128 .LEHB534-.LFB1097
 10022 0bc3 05       		.uleb128 .LEHE534-.LEHB534
 10023 0bc4 00       		.uleb128 0
 10024 0bc5 00       		.uleb128 0
 10025 0bc6 A930     		.uleb128 .LEHB535-.LFB1097
 10026 0bc8 05       		.uleb128 .LEHE535-.LEHB535
 10027 0bc9 00       		.uleb128 0
 10028 0bca 00       		.uleb128 0
 10029 0bcb B830     		.uleb128 .LEHB536-.LFB1097
 10030 0bcd 38       		.uleb128 .LEHE536-.LEHB536
 10031 0bce FA30     		.uleb128 .L736-.LFB1097
 10032 0bd0 00       		.uleb128 0
 10033 0bd1 F030     		.uleb128 .LEHB537-.LFB1097
 10034 0bd3 05       		.uleb128 .LEHE537-.LEHB537
 10035 0bd4 00       		.uleb128 0
 10036 0bd5 00       		.uleb128 0
 10037 0bd6 8831     		.uleb128 .LEHB538-.LFB1097
 10038 0bd8 05       		.uleb128 .LEHE538-.LEHB538
 10039 0bd9 00       		.uleb128 0
 10040 0bda 00       		.uleb128 0
 10041 0bdb 9731     		.uleb128 .LEHB539-.LFB1097
 10042 0bdd 38       		.uleb128 .LEHE539-.LEHB539
 10043 0bde D931     		.uleb128 .L739-.LFB1097
 10044 0be0 00       		.uleb128 0
 10045 0be1 CF31     		.uleb128 .LEHB540-.LFB1097
 10046 0be3 05       		.uleb128 .LEHE540-.LEHB540
 10047 0be4 00       		.uleb128 0
 10048 0be5 00       		.uleb128 0
 10049 0be6 E731     		.uleb128 .LEHB541-.LFB1097
 10050 0be8 05       		.uleb128 .LEHE541-.LEHB541
 10051 0be9 00       		.uleb128 0
 10052 0bea 00       		.uleb128 0
 10053 0beb F631     		.uleb128 .LEHB542-.LFB1097
 10054 0bed 38       		.uleb128 .LEHE542-.LEHB542
 10055 0bee B832     		.uleb128 .L742-.LFB1097
 10056 0bf0 00       		.uleb128 0
 10057 0bf1 AE32     		.uleb128 .LEHB543-.LFB1097
 10058 0bf3 05       		.uleb128 .LEHE543-.LEHB543
 10059 0bf4 00       		.uleb128 0
 10060 0bf5 00       		.uleb128 0
 10061 0bf6 C632     		.uleb128 .LEHB544-.LFB1097
 10062 0bf8 05       		.uleb128 .LEHE544-.LEHB544
 10063 0bf9 00       		.uleb128 0
 10064 0bfa 00       		.uleb128 0
 10065 0bfb D532     		.uleb128 .LEHB545-.LFB1097
 10066 0bfd 38       		.uleb128 .LEHE545-.LEHB545
 10067 0bfe 9733     		.uleb128 .L745-.LFB1097
 10068 0c00 00       		.uleb128 0
 10069 0c01 8D33     		.uleb128 .LEHB546-.LFB1097
 10070 0c03 05       		.uleb128 .LEHE546-.LEHB546
 10071 0c04 00       		.uleb128 0
 10072 0c05 00       		.uleb128 0
 10073 0c06 A533     		.uleb128 .LEHB547-.LFB1097
 10074 0c08 05       		.uleb128 .LEHE547-.LEHB547
 10075 0c09 00       		.uleb128 0
 10076 0c0a 00       		.uleb128 0
 10077 0c0b B433     		.uleb128 .LEHB548-.LFB1097
 10078 0c0d 38       		.uleb128 .LEHE548-.LEHB548
 10079 0c0e F633     		.uleb128 .L748-.LFB1097
 10080 0c10 00       		.uleb128 0
 10081 0c11 EC33     		.uleb128 .LEHB549-.LFB1097
 10082 0c13 05       		.uleb128 .LEHE549-.LEHB549
 10083 0c14 00       		.uleb128 0
 10084 0c15 00       		.uleb128 0
 10085 0c16 8434     		.uleb128 .LEHB550-.LFB1097
 10086 0c18 05       		.uleb128 .LEHE550-.LEHB550
 10087 0c19 00       		.uleb128 0
 10088 0c1a 00       		.uleb128 0
 10089 0c1b 9334     		.uleb128 .LEHB551-.LFB1097
 10090 0c1d 38       		.uleb128 .LEHE551-.LEHB551
 10091 0c1e D534     		.uleb128 .L751-.LFB1097
 10092 0c20 00       		.uleb128 0
 10093 0c21 CB34     		.uleb128 .LEHB552-.LFB1097
 10094 0c23 05       		.uleb128 .LEHE552-.LEHB552
 10095 0c24 00       		.uleb128 0
 10096 0c25 00       		.uleb128 0
 10097 0c26 E334     		.uleb128 .LEHB553-.LFB1097
 10098 0c28 05       		.uleb128 .LEHE553-.LEHB553
 10099 0c29 00       		.uleb128 0
 10100 0c2a 00       		.uleb128 0
 10101 0c2b F234     		.uleb128 .LEHB554-.LFB1097
 10102 0c2d 38       		.uleb128 .LEHE554-.LEHB554
 10103 0c2e B435     		.uleb128 .L754-.LFB1097
 10104 0c30 00       		.uleb128 0
 10105 0c31 AA35     		.uleb128 .LEHB555-.LFB1097
 10106 0c33 05       		.uleb128 .LEHE555-.LEHB555
 10107 0c34 00       		.uleb128 0
 10108 0c35 00       		.uleb128 0
 10109 0c36 C235     		.uleb128 .LEHB556-.LFB1097
 10110 0c38 05       		.uleb128 .LEHE556-.LEHB556
 10111 0c39 00       		.uleb128 0
 10112 0c3a 00       		.uleb128 0
 10113 0c3b D135     		.uleb128 .LEHB557-.LFB1097
 10114 0c3d 38       		.uleb128 .LEHE557-.LEHB557
 10115 0c3e 9336     		.uleb128 .L757-.LFB1097
 10116 0c40 00       		.uleb128 0
 10117 0c41 8936     		.uleb128 .LEHB558-.LFB1097
 10118 0c43 05       		.uleb128 .LEHE558-.LEHB558
 10119 0c44 00       		.uleb128 0
 10120 0c45 00       		.uleb128 0
 10121 0c46 A136     		.uleb128 .LEHB559-.LFB1097
 10122 0c48 05       		.uleb128 .LEHE559-.LEHB559
 10123 0c49 00       		.uleb128 0
 10124 0c4a 00       		.uleb128 0
 10125 0c4b B036     		.uleb128 .LEHB560-.LFB1097
 10126 0c4d 38       		.uleb128 .LEHE560-.LEHB560
 10127 0c4e F236     		.uleb128 .L760-.LFB1097
 10128 0c50 00       		.uleb128 0
 10129 0c51 E836     		.uleb128 .LEHB561-.LFB1097
 10130 0c53 05       		.uleb128 .LEHE561-.LEHB561
 10131 0c54 00       		.uleb128 0
 10132 0c55 00       		.uleb128 0
 10133 0c56 8037     		.uleb128 .LEHB562-.LFB1097
 10134 0c58 05       		.uleb128 .LEHE562-.LEHB562
 10135 0c59 00       		.uleb128 0
 10136 0c5a 00       		.uleb128 0
 10137              	.LLSDACSE1097:
 10138 0c5b 01       		.byte	0x1
 10139 0c5c 00       		.byte	0
 10140 0c5d 00       		.byte	0
 10141 0c5e 7D       		.byte	0x7d
 10142 0c5f 00       		.align 4
 10143 0c60 00000000 		.long	0
 10144              	
 10145              	.LLSDATT1097:
 10146              		.text
 10148              		.section	.rodata
 10149              	.LC53:
 10150 0bbc 51756575 		.string	"Queue_testRealloc"
 10150      655F7465 
 10150      73745265 
 10150      616C6C6F 
 10150      6300
 10151              		.section	.text._ZN21TestQueue_testReallocC2Ev,"axG",@progbits,_ZN21TestQueue_testReallocC5Ev,comda
 10152              		.align 2
 10153              		.weak	_ZN21TestQueue_testReallocC2Ev
 10155              	_ZN21TestQueue_testReallocC2Ev:
 10156              	.LFB1099:
 323:testCore.cpp  **** 
 324:testCore.cpp  **** TEST(Queue_testRealloc) {
 10157              		.loc 3 324 0
 10158              		.cfi_startproc
 10159 0000 55       		pushq	%rbp
 10160              		.cfi_def_cfa_offset 16
 10161              		.cfi_offset 6, -16
 10162 0001 4889E5   		movq	%rsp, %rbp
 10163              		.cfi_def_cfa_register 6
 10164 0004 4883EC10 		subq	$16, %rsp
 10165 0008 48897DF8 		movq	%rdi, -8(%rbp)
 10166              	.LBB8:
 10167              		.loc 3 324 0
 10168 000c E8000000 		call	_ZN13UnitTestSuite12GetSuiteNameEv
 10168      00
 10169 0011 4889C2   		movq	%rax, %rdx
 10170 0014 488B45F8 		movq	-8(%rbp), %rax
 10171 0018 41B84401 		movl	$324, %r8d
 10171      0000
 10172 001e B9000000 		movl	$.LC1, %ecx
 10172      00
 10173 0023 BE000000 		movl	$.LC53, %esi
 10173      00
 10174 0028 4889C7   		movq	%rax, %rdi
 10175 002b E8000000 		call	_ZN8UnitTest4TestC2EPKcS2_S2_i
 10175      00
 10176 0030 BA000000 		movl	$_ZTV21TestQueue_testRealloc+16, %edx
 10176      00
 10177 0035 488B45F8 		movq	-8(%rbp), %rax
 10178 0039 488910   		movq	%rdx, (%rax)
 10179              	.LBE8:
 10180 003c 90       		nop
 10181 003d C9       		leave
 10182              		.cfi_def_cfa 7, 8
 10183 003e C3       		ret
 10184              		.cfi_endproc
 10185              	.LFE1099:
 10187              		.weak	_ZN21TestQueue_testReallocC1Ev
 10188              		.set	_ZN21TestQueue_testReallocC1Ev,_ZN21TestQueue_testReallocC2Ev
 10189              		.globl	testQueue_testReallocInstance
 10190              		.bss
 10191 00f9 00000000 		.align 32
 10191      000000
 10194              	testQueue_testReallocInstance:
 10195 0100 00000000 		.zero	56
 10195      00000000 
 10195      00000000 
 10195      00000000 
 10195      00000000 
 10196              		.globl	adderQueue_testRealloc
 10199              	adderQueue_testRealloc:
 10200 0138 00       		.zero	1
 10201              		.text
 10202              		.align 2
 10203              		.globl	_ZNK21TestQueue_testRealloc7RunImplEv
 10205              	_ZNK21TestQueue_testRealloc7RunImplEv:
 10206              	.LFB1101:
 10207              		.loc 3 324 0
 10208              		.cfi_startproc
 10209 4c7c 55       		pushq	%rbp
 10210              		.cfi_def_cfa_offset 16
 10211              		.cfi_offset 6, -16
 10212 4c7d 4889E5   		movq	%rsp, %rbp
 10213              		.cfi_def_cfa_register 6
 10214 4c80 4883EC10 		subq	$16, %rsp
 10215 4c84 48897DF8 		movq	%rdi, -8(%rbp)
 325:testCore.cpp  **** 	testRealloc(0);
 10216              		.loc 3 325 0
 10217 4c88 BF000000 		movl	$0, %edi
 10217      00
 10218 4c8d E8000000 		call	_Z11testReallocm
 10218      00
 326:testCore.cpp  **** 	testRealloc(1);
 10219              		.loc 3 326 0
 10220 4c92 BF010000 		movl	$1, %edi
 10220      00
 10221 4c97 E8000000 		call	_Z11testReallocm
 10221      00
 327:testCore.cpp  **** 	testRealloc(2);
 10222              		.loc 3 327 0
 10223 4c9c BF020000 		movl	$2, %edi
 10223      00
 10224 4ca1 E8000000 		call	_Z11testReallocm
 10224      00
 328:testCore.cpp  **** 	testRealloc(3);
 10225              		.loc 3 328 0
 10226 4ca6 BF030000 		movl	$3, %edi
 10226      00
 10227 4cab E8000000 		call	_Z11testReallocm
 10227      00
 329:testCore.cpp  **** }
 10228              		.loc 3 329 0
 10229 4cb0 90       		nop
 10230 4cb1 C9       		leave
 10231              		.cfi_def_cfa 7, 8
 10232 4cb2 C3       		ret
 10233              		.cfi_endproc
 10234              	.LFE1101:
 10236              		.section	.rodata
 10237              	.LC54:
 10238 0bce 51756575 		.string	"Queue_testAllocOOM"
 10238      655F7465 
 10238      7374416C 
 10238      6C6F634F 
 10238      4F4D00
 10239              		.section	.text._ZN22TestQueue_testAllocOOMC2Ev,"axG",@progbits,_ZN22TestQueue_testAllocOOMC5Ev,com
 10240              		.align 2
 10241              		.weak	_ZN22TestQueue_testAllocOOMC2Ev
 10243              	_ZN22TestQueue_testAllocOOMC2Ev:
 10244              	.LFB1103:
 330:testCore.cpp  **** 
 331:testCore.cpp  **** TEST(Queue_testAllocOOM) {
 10245              		.loc 3 331 0
 10246              		.cfi_startproc
 10247 0000 55       		pushq	%rbp
 10248              		.cfi_def_cfa_offset 16
 10249              		.cfi_offset 6, -16
 10250 0001 4889E5   		movq	%rsp, %rbp
 10251              		.cfi_def_cfa_register 6
 10252 0004 4883EC10 		subq	$16, %rsp
 10253 0008 48897DF8 		movq	%rdi, -8(%rbp)
 10254              	.LBB9:
 10255              		.loc 3 331 0
 10256 000c E8000000 		call	_ZN13UnitTestSuite12GetSuiteNameEv
 10256      00
 10257 0011 4889C2   		movq	%rax, %rdx
 10258 0014 488B45F8 		movq	-8(%rbp), %rax
 10259 0018 41B84B01 		movl	$331, %r8d
 10259      0000
 10260 001e B9000000 		movl	$.LC1, %ecx
 10260      00
 10261 0023 BE000000 		movl	$.LC54, %esi
 10261      00
 10262 0028 4889C7   		movq	%rax, %rdi
 10263 002b E8000000 		call	_ZN8UnitTest4TestC2EPKcS2_S2_i
 10263      00
 10264 0030 BA000000 		movl	$_ZTV22TestQueue_testAllocOOM+16, %edx
 10264      00
 10265 0035 488B45F8 		movq	-8(%rbp), %rax
 10266 0039 488910   		movq	%rdx, (%rax)
 10267              	.LBE9:
 10268 003c 90       		nop
 10269 003d C9       		leave
 10270              		.cfi_def_cfa 7, 8
 10271 003e C3       		ret
 10272              		.cfi_endproc
 10273              	.LFE1103:
 10275              		.weak	_ZN22TestQueue_testAllocOOMC1Ev
 10276              		.set	_ZN22TestQueue_testAllocOOMC1Ev,_ZN22TestQueue_testAllocOOMC2Ev
 10277              		.globl	testQueue_testAllocOOMInstance
 10278              		.bss
 10279 0139 00000000 		.align 32
 10279      000000
 10282              	testQueue_testAllocOOMInstance:
 10283 0140 00000000 		.zero	56
 10283      00000000 
 10283      00000000 
 10283      00000000 
 10283      00000000 
 10284              		.globl	adderQueue_testAllocOOM
 10287              	adderQueue_testAllocOOM:
 10288 0178 00       		.zero	1
 10289              		.section	.rodata
 10290 0be1 00000000 		.align 8
 10290      000000
 10291              	.LC55:
 10292 0be8 556E6861 		.string	"Unhandled exception in CHECK_EQUAL(USB_ALLOC_ERR, status)"
 10292      6E646C65 
 10292      64206578 
 10292      63657074 
 10292      696F6E20 
 10293              		.text
 10294 4cb3 90       		.align 2
 10295              		.globl	_ZNK22TestQueue_testAllocOOM7RunImplEv
 10297              	_ZNK22TestQueue_testAllocOOM7RunImplEv:
 10298              	.LFB1105:
 10299              		.loc 3 331 0
 10300              		.cfi_startproc
 10301              		.cfi_personality 0x3,__gxx_personality_v0
 10302              		.cfi_lsda 0x3,.LLSDA1105
 10303 4cb4 55       		pushq	%rbp
 10304              		.cfi_def_cfa_offset 16
 10305              		.cfi_offset 6, -16
 10306 4cb5 4889E5   		movq	%rsp, %rbp
 10307              		.cfi_def_cfa_register 6
 10308 4cb8 53       		pushq	%rbx
 10309 4cb9 4881EC88 		subq	$136, %rsp
 10309      000000
 10310              		.cfi_offset 3, -24
 10311 4cc0 4889BD78 		movq	%rdi, -136(%rbp)
 10311      FFFFFF
 10312              		.loc 3 331 0
 10313 4cc7 64488B04 		movq	%fs:40, %rax
 10313      25280000 
 10313      00
 10314 4cd0 488945E8 		movq	%rax, -24(%rbp)
 10315 4cd4 31C0     		xorl	%eax, %eax
 332:testCore.cpp  **** 	struct UnboundedQueue queue;
 333:testCore.cpp  **** 	m_count = 1;
 10316              		.loc 3 333 0
 10317 4cd6 C7050000 		movl	$1, _ZL7m_count(%rip)
 10317      00000100 
 10317      0000
 334:testCore.cpp  **** 
 335:testCore.cpp  **** 	// Create queue
 336:testCore.cpp  **** 	USBStatus status = queueInit(&queue, 9, (CreateFunc)createInt, (DestroyFunc)destroyInt);
 10318              		.loc 3 336 0
 10319 4ce0 488D45B0 		leaq	-80(%rbp), %rax
 10320 4ce4 B9000000 		movl	$destroyInt, %ecx
 10320      00
 10321 4ce9 BA000000 		movl	$createInt, %edx
 10321      00
 10322 4cee BE090000 		movl	$9, %esi
 10322      00
 10323 4cf3 4889C7   		movq	%rax, %rdi
 10324              	.LEHB563:
 10325 4cf6 E8000000 		call	queueInit
 10325      00
 10326              	.LEHE563:
 10327 4cfb 894588   		movl	%eax, -120(%rbp)
 10328              	.LEHB564:
 337:testCore.cpp  **** 	CHECK_EQUAL(USB_ALLOC_ERR, status);
 10329              		.loc 3 337 0
 10330 4cfe E8000000 		call	_ZN8UnitTest11CurrentTest7DetailsEv
 10330      00
 10331 4d03 488B08   		movq	(%rax), %rcx
 10332 4d06 488D4590 		leaq	-112(%rbp), %rax
 10333 4d0a BA510100 		movl	$337, %edx
 10333      00
 10334 4d0f 4889CE   		movq	%rcx, %rsi
 10335 4d12 4889C7   		movq	%rax, %rdi
 10336 4d15 E8000000 		call	_ZN8UnitTest11TestDetailsC1ERKS0_i
 10336      00
 10337              	.LEHE564:
 10338              		.loc 3 337 0 is_stmt 0 discriminator 2
 10339 4d1a C7458C0C 		movl	$12, -116(%rbp)
 10339      000000
 10340              	.LEHB565:
 10341 4d21 E8000000 		call	_ZN8UnitTest11CurrentTest7ResultsEv
 10341      00
 10342 4d26 488B00   		movq	(%rax), %rax
 10343 4d29 488D4D90 		leaq	-112(%rbp), %rcx
 10344 4d2d 488D5588 		leaq	-120(%rbp), %rdx
 10345 4d31 488D758C 		leaq	-116(%rbp), %rsi
 10346 4d35 4889C7   		movq	%rax, %rdi
 10347 4d38 E8000000 		call	_ZN8UnitTest10CheckEqualI9USBStatusS1_EEvRNS_11TestResultsERKT_RKT0_RKNS_11TestDetailsE
 10347      00
 10348              	.LEHE565:
 10349              	.L768:
 338:testCore.cpp  **** 
 339:testCore.cpp  **** 	queueDestroy(&queue);
 10350              		.loc 3 339 0 is_stmt 1
 10351 4d3d 488D45B0 		leaq	-80(%rbp), %rax
 10352 4d41 4889C7   		movq	%rax, %rdi
 10353              	.LEHB566:
 10354 4d44 E8000000 		call	queueDestroy
 10354      00
 10355              	.LEHE566:
 340:testCore.cpp  **** }
 10356              		.loc 3 340 0
 10357 4d49 90       		nop
 10358 4d4a 488B45E8 		movq	-24(%rbp), %rax
 10359 4d4e 64483304 		xorq	%fs:40, %rax
 10359      25280000 
 10359      00
 10360 4d57 7463     		je	.L770
 10361 4d59 EB5C     		jmp	.L774
 10362              	.L772:
 10363 4d5b EB00     		jmp	.L767
 10364              	.L771:
 10365              	.L767:
 337:testCore.cpp  **** 	CHECK_EQUAL(USB_ALLOC_ERR, status);
 10366              		.loc 3 337 0
 10367 4d5d 4889C7   		movq	%rax, %rdi
 10368 4d60 E8000000 		call	__cxa_begin_catch
 10368      00
 10369              	.LEHB567:
 10370 4d65 E8000000 		call	_ZN8UnitTest11CurrentTest7DetailsEv
 10370      00
 10371 4d6a 488B08   		movq	(%rax), %rcx
 10372 4d6d 488D4590 		leaq	-112(%rbp), %rax
 10373 4d71 BA510100 		movl	$337, %edx
 10373      00
 10374 4d76 4889CE   		movq	%rcx, %rsi
 10375 4d79 4889C7   		movq	%rax, %rdi
 10376 4d7c E8000000 		call	_ZN8UnitTest11TestDetailsC1ERKS0_i
 10376      00
 337:testCore.cpp  **** 	CHECK_EQUAL(USB_ALLOC_ERR, status);
 10377              		.loc 3 337 0 is_stmt 0 discriminator 10
 10378 4d81 E8000000 		call	_ZN8UnitTest11CurrentTest7ResultsEv
 10378      00
 10379 4d86 488B00   		movq	(%rax), %rax
 10380 4d89 488D4D90 		leaq	-112(%rbp), %rcx
 10381 4d8d BA000000 		movl	$.LC55, %edx
 10381      00
 10382 4d92 4889CE   		movq	%rcx, %rsi
 10383 4d95 4889C7   		movq	%rax, %rdi
 10384 4d98 E8000000 		call	_ZN8UnitTest11TestResults13OnTestFailureERKNS_11TestDetailsEPKc
 10384      00
 10385              	.LEHE567:
 10386              	.LEHB568:
 337:testCore.cpp  **** 	CHECK_EQUAL(USB_ALLOC_ERR, status);
 10387              		.loc 3 337 0 discriminator 14
 10388 4d9d E8000000 		call	__cxa_end_catch
 10388      00
 10389              	.LEHE568:
 10390 4da2 EB99     		jmp	.L768
 10391              	.L773:
 10392 4da4 4889C3   		movq	%rax, %rbx
 337:testCore.cpp  **** 	CHECK_EQUAL(USB_ALLOC_ERR, status);
 10393              		.loc 3 337 0
 10394 4da7 E8000000 		call	__cxa_end_catch
 10394      00
 10395 4dac 4889D8   		movq	%rbx, %rax
 10396 4daf 4889C7   		movq	%rax, %rdi
 10397              	.LEHB569:
 10398 4db2 E8000000 		call	_Unwind_Resume
 10398      00
 10399              	.LEHE569:
 10400              	.L774:
 10401              		.loc 3 340 0 is_stmt 1
 10402 4db7 E8000000 		call	__stack_chk_fail
 10402      00
 10403              	.L770:
 10404 4dbc 4881C488 		addq	$136, %rsp
 10404      000000
 10405 4dc3 5B       		popq	%rbx
 10406 4dc4 5D       		popq	%rbp
 10407              		.cfi_def_cfa 7, 8
 10408 4dc5 C3       		ret
 10409              		.cfi_endproc
 10410              	.LFE1105:
 10411              		.section	.gcc_except_table
 10412              		.align 4
 10413              	.LLSDA1105:
 10414 0c64 FF       		.byte	0xff
 10415 0c65 03       		.byte	0x3
 10416 0c66 2D       		.uleb128 .LLSDATT1105-.LLSDATTD1105
 10417              	.LLSDATTD1105:
 10418 0c67 01       		.byte	0x1
 10419 0c68 23       		.uleb128 .LLSDACSE1105-.LLSDACSB1105
 10420              	.LLSDACSB1105:
 10421 0c69 42       		.uleb128 .LEHB563-.LFB1105
 10422 0c6a 05       		.uleb128 .LEHE563-.LEHB563
 10423 0c6b 00       		.uleb128 0
 10424 0c6c 00       		.uleb128 0
 10425 0c6d 4A       		.uleb128 .LEHB564-.LFB1105
 10426 0c6e 1C       		.uleb128 .LEHE564-.LEHB564
 10427 0c6f A901     		.uleb128 .L771-.LFB1105
 10428 0c71 01       		.uleb128 0x1
 10429 0c72 6D       		.uleb128 .LEHB565-.LFB1105
 10430 0c73 1C       		.uleb128 .LEHE565-.LEHB565
 10431 0c74 A701     		.uleb128 .L772-.LFB1105
 10432 0c76 03       		.uleb128 0x3
 10433 0c77 9001     		.uleb128 .LEHB566-.LFB1105
 10434 0c79 05       		.uleb128 .LEHE566-.LEHB566
 10435 0c7a 00       		.uleb128 0
 10436 0c7b 00       		.uleb128 0
 10437 0c7c B101     		.uleb128 .LEHB567-.LFB1105
 10438 0c7e 38       		.uleb128 .LEHE567-.LEHB567
 10439 0c7f F001     		.uleb128 .L773-.LFB1105
 10440 0c81 00       		.uleb128 0
 10441 0c82 E901     		.uleb128 .LEHB568-.LFB1105
 10442 0c84 05       		.uleb128 .LEHE568-.LEHB568
 10443 0c85 00       		.uleb128 0
 10444 0c86 00       		.uleb128 0
 10445 0c87 FE01     		.uleb128 .LEHB569-.LFB1105
 10446 0c89 05       		.uleb128 .LEHE569-.LEHB569
 10447 0c8a 00       		.uleb128 0
 10448 0c8b 00       		.uleb128 0
 10449              	.LLSDACSE1105:
 10450 0c8c 01       		.byte	0x1
 10451 0c8d 00       		.byte	0
 10452 0c8e 00       		.byte	0
 10453 0c8f 7D       		.byte	0x7d
 10454              		.align 4
 10455 0c90 00000000 		.long	0
 10456              	
 10457              	.LLSDATT1105:
 10458              		.text
 10460              		.section	.rodata
 10461              	.LC56:
 10462 0c22 51756575 		.string	"Queue_testReallocOOM"
 10462      655F7465 
 10462      73745265 
 10462      616C6C6F 
 10462      634F4F4D 
 10463              		.section	.text._ZN24TestQueue_testReallocOOMC2Ev,"axG",@progbits,_ZN24TestQueue_testReallocOOMC5Ev
 10464              		.align 2
 10465              		.weak	_ZN24TestQueue_testReallocOOMC2Ev
 10467              	_ZN24TestQueue_testReallocOOMC2Ev:
 10468              	.LFB1107:
 341:testCore.cpp  **** 
 342:testCore.cpp  **** TEST(Queue_testReallocOOM) {
 10469              		.loc 3 342 0
 10470              		.cfi_startproc
 10471 0000 55       		pushq	%rbp
 10472              		.cfi_def_cfa_offset 16
 10473              		.cfi_offset 6, -16
 10474 0001 4889E5   		movq	%rsp, %rbp
 10475              		.cfi_def_cfa_register 6
 10476 0004 4883EC10 		subq	$16, %rsp
 10477 0008 48897DF8 		movq	%rdi, -8(%rbp)
 10478              	.LBB10:
 10479              		.loc 3 342 0
 10480 000c E8000000 		call	_ZN13UnitTestSuite12GetSuiteNameEv
 10480      00
 10481 0011 4889C2   		movq	%rax, %rdx
 10482 0014 488B45F8 		movq	-8(%rbp), %rax
 10483 0018 41B85601 		movl	$342, %r8d
 10483      0000
 10484 001e B9000000 		movl	$.LC1, %ecx
 10484      00
 10485 0023 BE000000 		movl	$.LC56, %esi
 10485      00
 10486 0028 4889C7   		movq	%rax, %rdi
 10487 002b E8000000 		call	_ZN8UnitTest4TestC2EPKcS2_S2_i
 10487      00
 10488 0030 BA000000 		movl	$_ZTV24TestQueue_testReallocOOM+16, %edx
 10488      00
 10489 0035 488B45F8 		movq	-8(%rbp), %rax
 10490 0039 488910   		movq	%rdx, (%rax)
 10491              	.LBE10:
 10492 003c 90       		nop
 10493 003d C9       		leave
 10494              		.cfi_def_cfa 7, 8
 10495 003e C3       		ret
 10496              		.cfi_endproc
 10497              	.LFE1107:
 10499              		.weak	_ZN24TestQueue_testReallocOOMC1Ev
 10500              		.set	_ZN24TestQueue_testReallocOOMC1Ev,_ZN24TestQueue_testReallocOOMC2Ev
 10501              		.globl	testQueue_testReallocOOMInstance
 10502              		.bss
 10503 0179 00000000 		.align 32
 10503      000000
 10506              	testQueue_testReallocOOMInstance:
 10507 0180 00000000 		.zero	56
 10507      00000000 
 10507      00000000 
 10507      00000000 
 10507      00000000 
 10508              		.globl	adderQueue_testReallocOOM
 10511              	adderQueue_testReallocOOM:
 10512 01b8 00       		.zero	1
 10513              		.text
 10514              		.align 2
 10515              		.globl	_ZNK24TestQueue_testReallocOOM7RunImplEv
 10517              	_ZNK24TestQueue_testReallocOOM7RunImplEv:
 10518              	.LFB1109:
 10519              		.loc 3 342 0
 10520              		.cfi_startproc
 10521              		.cfi_personality 0x3,__gxx_personality_v0
 10522              		.cfi_lsda 0x3,.LLSDA1109
 10523 4dc6 55       		pushq	%rbp
 10524              		.cfi_def_cfa_offset 16
 10525              		.cfi_offset 6, -16
 10526 4dc7 4889E5   		movq	%rsp, %rbp
 10527              		.cfi_def_cfa_register 6
 10528 4dca 53       		pushq	%rbx
 10529 4dcb 4881EC88 		subq	$136, %rsp
 10529      000000
 10530              		.cfi_offset 3, -24
 10531 4dd2 4889BD78 		movq	%rdi, -136(%rbp)
 10531      FFFFFF
 10532              		.loc 3 342 0
 10533 4dd9 64488B04 		movq	%fs:40, %rax
 10533      25280000 
 10533      00
 10534 4de2 488945E8 		movq	%rax, -24(%rbp)
 10535 4de6 31C0     		xorl	%eax, %eax
 343:testCore.cpp  **** 	struct UnboundedQueue queue;
 344:testCore.cpp  **** 	uint32 *item;
 345:testCore.cpp  **** 	m_count = 1;
 10536              		.loc 3 345 0
 10537 4de8 C7050000 		movl	$1, _ZL7m_count(%rip)
 10537      00000100 
 10537      0000
 346:testCore.cpp  **** 
 347:testCore.cpp  **** 	// Create queue
 348:testCore.cpp  **** 	USBStatus status = queueInit(&queue, 8, (CreateFunc)createInt, (DestroyFunc)destroyInt);
 10538              		.loc 3 348 0
 10539 4df2 488D45B0 		leaq	-80(%rbp), %rax
 10540 4df6 B9000000 		movl	$destroyInt, %ecx
 10540      00
 10541 4dfb BA000000 		movl	$createInt, %edx
 10541      00
 10542 4e00 BE080000 		movl	$8, %esi
 10542      00
 10543 4e05 4889C7   		movq	%rax, %rdi
 10544              	.LEHB570:
 10545 4e08 E8000000 		call	queueInit
 10545      00
 10546              	.LEHE570:
 10547 4e0d 894580   		movl	%eax, -128(%rbp)
 10548              	.LEHB571:
 349:testCore.cpp  **** 	CHECK_EQUAL(USB_SUCCESS, status);
 10549              		.loc 3 349 0
 10550 4e10 E8000000 		call	_ZN8UnitTest11CurrentTest7DetailsEv
 10550      00
 10551 4e15 488B08   		movq	(%rax), %rcx
 10552 4e18 488D4590 		leaq	-112(%rbp), %rax
 10553 4e1c BA5D0100 		movl	$349, %edx
 10553      00
 10554 4e21 4889CE   		movq	%rcx, %rsi
 10555 4e24 4889C7   		movq	%rax, %rdi
 10556 4e27 E8000000 		call	_ZN8UnitTest11TestDetailsC1ERKS0_i
 10556      00
 10557              	.LEHE571:
 10558              		.loc 3 349 0 is_stmt 0 discriminator 2
 10559 4e2c C7458800 		movl	$0, -120(%rbp)
 10559      000000
 10560              	.LEHB572:
 10561 4e33 E8000000 		call	_ZN8UnitTest11CurrentTest7ResultsEv
 10561      00
 10562 4e38 488B00   		movq	(%rax), %rax
 10563 4e3b 488D4D90 		leaq	-112(%rbp), %rcx
 10564 4e3f 488D5580 		leaq	-128(%rbp), %rdx
 10565 4e43 488D7588 		leaq	-120(%rbp), %rsi
 10566 4e47 4889C7   		movq	%rax, %rdi
 10567 4e4a E8000000 		call	_ZN8UnitTest10CheckEqualI9USBStatusS1_EEvRNS_11TestResultsERKT_RKT0_RKNS_11TestDetailsE
 10567      00
 10568              	.LEHE572:
 10569              	.L779:
 350:testCore.cpp  **** 
 351:testCore.cpp  **** 	// Put eight items into the queue
 352:testCore.cpp  **** 	status = queuePut(&queue, (Item*)&item);
 10570              		.loc 3 352 0 is_stmt 1
 10571 4e4f 488D5588 		leaq	-120(%rbp), %rdx
 10572 4e53 488D45B0 		leaq	-80(%rbp), %rax
 10573 4e57 4889D6   		movq	%rdx, %rsi
 10574 4e5a 4889C7   		movq	%rax, %rdi
 10575              	.LEHB573:
 10576 4e5d E8000000 		call	queuePut
 10576      00
 10577              	.LEHE573:
 10578 4e62 894580   		movl	%eax, -128(%rbp)
 10579              	.LEHB574:
 353:testCore.cpp  **** 	CHECK_EQUAL(USB_SUCCESS, status);
 10580              		.loc 3 353 0
 10581 4e65 E8000000 		call	_ZN8UnitTest11CurrentTest7DetailsEv
 10581      00
 10582 4e6a 488B08   		movq	(%rax), %rcx
 10583 4e6d 488D4590 		leaq	-112(%rbp), %rax
 10584 4e71 BA610100 		movl	$353, %edx
 10584      00
 10585 4e76 4889CE   		movq	%rcx, %rsi
 10586 4e79 4889C7   		movq	%rax, %rdi
 10587 4e7c E8000000 		call	_ZN8UnitTest11TestDetailsC1ERKS0_i
 10587      00
 10588              	.LEHE574:
 10589              		.loc 3 353 0 is_stmt 0 discriminator 2
 10590 4e81 C7458400 		movl	$0, -124(%rbp)
 10590      000000
 10591              	.LEHB575:
 10592 4e88 E8000000 		call	_ZN8UnitTest11CurrentTest7ResultsEv
 10592      00
 10593 4e8d 488B00   		movq	(%rax), %rax
 10594 4e90 488D4D90 		leaq	-112(%rbp), %rcx
 10595 4e94 488D5580 		leaq	-128(%rbp), %rdx
 10596 4e98 488D7584 		leaq	-124(%rbp), %rsi
 10597 4e9c 4889C7   		movq	%rax, %rdi
 10598 4e9f E8000000 		call	_ZN8UnitTest10CheckEqualI9USBStatusS1_EEvRNS_11TestResultsERKT_RKT0_RKNS_11TestDetailsE
 10598      00
 10599              	.LEHE575:
 10600              	.L783:
 354:testCore.cpp  **** 	queueCommitPut(&queue);
 10601              		.loc 3 354 0 is_stmt 1
 10602 4ea4 488D45B0 		leaq	-80(%rbp), %rax
 10603 4ea8 4889C7   		movq	%rax, %rdi
 10604              	.LEHB576:
 10605 4eab E8000000 		call	queueCommitPut
 10605      00
 355:testCore.cpp  **** 	status = queuePut(&queue, (Item*)&item);
 10606              		.loc 3 355 0
 10607 4eb0 488D5588 		leaq	-120(%rbp), %rdx
 10608 4eb4 488D45B0 		leaq	-80(%rbp), %rax
 10609 4eb8 4889D6   		movq	%rdx, %rsi
 10610 4ebb 4889C7   		movq	%rax, %rdi
 10611 4ebe E8000000 		call	queuePut
 10611      00
 10612              	.LEHE576:
 10613 4ec3 894580   		movl	%eax, -128(%rbp)
 10614              	.LEHB577:
 356:testCore.cpp  **** 	CHECK_EQUAL(USB_SUCCESS, status);
 10615              		.loc 3 356 0
 10616 4ec6 E8000000 		call	_ZN8UnitTest11CurrentTest7DetailsEv
 10616      00
 10617 4ecb 488B08   		movq	(%rax), %rcx
 10618 4ece 488D4590 		leaq	-112(%rbp), %rax
 10619 4ed2 BA640100 		movl	$356, %edx
 10619      00
 10620 4ed7 4889CE   		movq	%rcx, %rsi
 10621 4eda 4889C7   		movq	%rax, %rdi
 10622 4edd E8000000 		call	_ZN8UnitTest11TestDetailsC1ERKS0_i
 10622      00
 10623              	.LEHE577:
 10624              		.loc 3 356 0 is_stmt 0 discriminator 2
 10625 4ee2 C7458400 		movl	$0, -124(%rbp)
 10625      000000
 10626              	.LEHB578:
 10627 4ee9 E8000000 		call	_ZN8UnitTest11CurrentTest7ResultsEv
 10627      00
 10628 4eee 488B00   		movq	(%rax), %rax
 10629 4ef1 488D4D90 		leaq	-112(%rbp), %rcx
 10630 4ef5 488D5580 		leaq	-128(%rbp), %rdx
 10631 4ef9 488D7584 		leaq	-124(%rbp), %rsi
 10632 4efd 4889C7   		movq	%rax, %rdi
 10633 4f00 E8000000 		call	_ZN8UnitTest10CheckEqualI9USBStatusS1_EEvRNS_11TestResultsERKT_RKT0_RKNS_11TestDetailsE
 10633      00
 10634              	.LEHE578:
 10635              	.L787:
 357:testCore.cpp  **** 	queueCommitPut(&queue);
 10636              		.loc 3 357 0 is_stmt 1
 10637 4f05 488D45B0 		leaq	-80(%rbp), %rax
 10638 4f09 4889C7   		movq	%rax, %rdi
 10639              	.LEHB579:
 10640 4f0c E8000000 		call	queueCommitPut
 10640      00
 358:testCore.cpp  **** 	status = queuePut(&queue, (Item*)&item);
 10641              		.loc 3 358 0
 10642 4f11 488D5588 		leaq	-120(%rbp), %rdx
 10643 4f15 488D45B0 		leaq	-80(%rbp), %rax
 10644 4f19 4889D6   		movq	%rdx, %rsi
 10645 4f1c 4889C7   		movq	%rax, %rdi
 10646 4f1f E8000000 		call	queuePut
 10646      00
 10647              	.LEHE579:
 10648 4f24 894580   		movl	%eax, -128(%rbp)
 10649              	.LEHB580:
 359:testCore.cpp  **** 	CHECK_EQUAL(USB_SUCCESS, status);
 10650              		.loc 3 359 0
 10651 4f27 E8000000 		call	_ZN8UnitTest11CurrentTest7DetailsEv
 10651      00
 10652 4f2c 488B08   		movq	(%rax), %rcx
 10653 4f2f 488D4590 		leaq	-112(%rbp), %rax
 10654 4f33 BA670100 		movl	$359, %edx
 10654      00
 10655 4f38 4889CE   		movq	%rcx, %rsi
 10656 4f3b 4889C7   		movq	%rax, %rdi
 10657 4f3e E8000000 		call	_ZN8UnitTest11TestDetailsC1ERKS0_i
 10657      00
 10658              	.LEHE580:
 10659              		.loc 3 359 0 is_stmt 0 discriminator 2
 10660 4f43 C7458400 		movl	$0, -124(%rbp)
 10660      000000
 10661              	.LEHB581:
 10662 4f4a E8000000 		call	_ZN8UnitTest11CurrentTest7ResultsEv
 10662      00
 10663 4f4f 488B00   		movq	(%rax), %rax
 10664 4f52 488D4D90 		leaq	-112(%rbp), %rcx
 10665 4f56 488D5580 		leaq	-128(%rbp), %rdx
 10666 4f5a 488D7584 		leaq	-124(%rbp), %rsi
 10667 4f5e 4889C7   		movq	%rax, %rdi
 10668 4f61 E8000000 		call	_ZN8UnitTest10CheckEqualI9USBStatusS1_EEvRNS_11TestResultsERKT_RKT0_RKNS_11TestDetailsE
 10668      00
 10669              	.LEHE581:
 10670              	.L791:
 360:testCore.cpp  **** 	queueCommitPut(&queue);
 10671              		.loc 3 360 0 is_stmt 1
 10672 4f66 488D45B0 		leaq	-80(%rbp), %rax
 10673 4f6a 4889C7   		movq	%rax, %rdi
 10674              	.LEHB582:
 10675 4f6d E8000000 		call	queueCommitPut
 10675      00
 361:testCore.cpp  **** 	status = queuePut(&queue, (Item*)&item);
 10676              		.loc 3 361 0
 10677 4f72 488D5588 		leaq	-120(%rbp), %rdx
 10678 4f76 488D45B0 		leaq	-80(%rbp), %rax
 10679 4f7a 4889D6   		movq	%rdx, %rsi
 10680 4f7d 4889C7   		movq	%rax, %rdi
 10681 4f80 E8000000 		call	queuePut
 10681      00
 10682              	.LEHE582:
 10683 4f85 894580   		movl	%eax, -128(%rbp)
 10684              	.LEHB583:
 362:testCore.cpp  **** 	CHECK_EQUAL(USB_SUCCESS, status);
 10685              		.loc 3 362 0
 10686 4f88 E8000000 		call	_ZN8UnitTest11CurrentTest7DetailsEv
 10686      00
 10687 4f8d 488B08   		movq	(%rax), %rcx
 10688 4f90 488D4590 		leaq	-112(%rbp), %rax
 10689 4f94 BA6A0100 		movl	$362, %edx
 10689      00
 10690 4f99 4889CE   		movq	%rcx, %rsi
 10691 4f9c 4889C7   		movq	%rax, %rdi
 10692 4f9f E8000000 		call	_ZN8UnitTest11TestDetailsC1ERKS0_i
 10692      00
 10693              	.LEHE583:
 10694              		.loc 3 362 0 is_stmt 0 discriminator 2
 10695 4fa4 C7458400 		movl	$0, -124(%rbp)
 10695      000000
 10696              	.LEHB584:
 10697 4fab E8000000 		call	_ZN8UnitTest11CurrentTest7ResultsEv
 10697      00
 10698 4fb0 488B00   		movq	(%rax), %rax
 10699 4fb3 488D4D90 		leaq	-112(%rbp), %rcx
 10700 4fb7 488D5580 		leaq	-128(%rbp), %rdx
 10701 4fbb 488D7584 		leaq	-124(%rbp), %rsi
 10702 4fbf 4889C7   		movq	%rax, %rdi
 10703 4fc2 E8000000 		call	_ZN8UnitTest10CheckEqualI9USBStatusS1_EEvRNS_11TestResultsERKT_RKT0_RKNS_11TestDetailsE
 10703      00
 10704              	.LEHE584:
 10705              	.L795:
 363:testCore.cpp  **** 	queueCommitPut(&queue);
 10706              		.loc 3 363 0 is_stmt 1
 10707 4fc7 488D45B0 		leaq	-80(%rbp), %rax
 10708 4fcb 4889C7   		movq	%rax, %rdi
 10709              	.LEHB585:
 10710 4fce E8000000 		call	queueCommitPut
 10710      00
 364:testCore.cpp  **** 	status = queuePut(&queue, (Item*)&item);
 10711              		.loc 3 364 0
 10712 4fd3 488D5588 		leaq	-120(%rbp), %rdx
 10713 4fd7 488D45B0 		leaq	-80(%rbp), %rax
 10714 4fdb 4889D6   		movq	%rdx, %rsi
 10715 4fde 4889C7   		movq	%rax, %rdi
 10716 4fe1 E8000000 		call	queuePut
 10716      00
 10717              	.LEHE585:
 10718 4fe6 894580   		movl	%eax, -128(%rbp)
 10719              	.LEHB586:
 365:testCore.cpp  **** 	CHECK_EQUAL(USB_SUCCESS, status);
 10720              		.loc 3 365 0
 10721 4fe9 E8000000 		call	_ZN8UnitTest11CurrentTest7DetailsEv
 10721      00
 10722 4fee 488B08   		movq	(%rax), %rcx
 10723 4ff1 488D4590 		leaq	-112(%rbp), %rax
 10724 4ff5 BA6D0100 		movl	$365, %edx
 10724      00
 10725 4ffa 4889CE   		movq	%rcx, %rsi
 10726 4ffd 4889C7   		movq	%rax, %rdi
 10727 5000 E8000000 		call	_ZN8UnitTest11TestDetailsC1ERKS0_i
 10727      00
 10728              	.LEHE586:
 10729              		.loc 3 365 0 is_stmt 0 discriminator 2
 10730 5005 C7458400 		movl	$0, -124(%rbp)
 10730      000000
 10731              	.LEHB587:
 10732 500c E8000000 		call	_ZN8UnitTest11CurrentTest7ResultsEv
 10732      00
 10733 5011 488B00   		movq	(%rax), %rax
 10734 5014 488D4D90 		leaq	-112(%rbp), %rcx
 10735 5018 488D5580 		leaq	-128(%rbp), %rdx
 10736 501c 488D7584 		leaq	-124(%rbp), %rsi
 10737 5020 4889C7   		movq	%rax, %rdi
 10738 5023 E8000000 		call	_ZN8UnitTest10CheckEqualI9USBStatusS1_EEvRNS_11TestResultsERKT_RKT0_RKNS_11TestDetailsE
 10738      00
 10739              	.LEHE587:
 10740              	.L799:
 366:testCore.cpp  **** 	queueCommitPut(&queue);
 10741              		.loc 3 366 0 is_stmt 1
 10742 5028 488D45B0 		leaq	-80(%rbp), %rax
 10743 502c 4889C7   		movq	%rax, %rdi
 10744              	.LEHB588:
 10745 502f E8000000 		call	queueCommitPut
 10745      00
 367:testCore.cpp  **** 	status = queuePut(&queue, (Item*)&item);
 10746              		.loc 3 367 0
 10747 5034 488D5588 		leaq	-120(%rbp), %rdx
 10748 5038 488D45B0 		leaq	-80(%rbp), %rax
 10749 503c 4889D6   		movq	%rdx, %rsi
 10750 503f 4889C7   		movq	%rax, %rdi
 10751 5042 E8000000 		call	queuePut
 10751      00
 10752              	.LEHE588:
 10753 5047 894580   		movl	%eax, -128(%rbp)
 10754              	.LEHB589:
 368:testCore.cpp  **** 	CHECK_EQUAL(USB_SUCCESS, status);
 10755              		.loc 3 368 0
 10756 504a E8000000 		call	_ZN8UnitTest11CurrentTest7DetailsEv
 10756      00
 10757 504f 488B08   		movq	(%rax), %rcx
 10758 5052 488D4590 		leaq	-112(%rbp), %rax
 10759 5056 BA700100 		movl	$368, %edx
 10759      00
 10760 505b 4889CE   		movq	%rcx, %rsi
 10761 505e 4889C7   		movq	%rax, %rdi
 10762 5061 E8000000 		call	_ZN8UnitTest11TestDetailsC1ERKS0_i
 10762      00
 10763              	.LEHE589:
 10764              		.loc 3 368 0 is_stmt 0 discriminator 2
 10765 5066 C7458400 		movl	$0, -124(%rbp)
 10765      000000
 10766              	.LEHB590:
 10767 506d E8000000 		call	_ZN8UnitTest11CurrentTest7ResultsEv
 10767      00
 10768 5072 488B00   		movq	(%rax), %rax
 10769 5075 488D4D90 		leaq	-112(%rbp), %rcx
 10770 5079 488D5580 		leaq	-128(%rbp), %rdx
 10771 507d 488D7584 		leaq	-124(%rbp), %rsi
 10772 5081 4889C7   		movq	%rax, %rdi
 10773 5084 E8000000 		call	_ZN8UnitTest10CheckEqualI9USBStatusS1_EEvRNS_11TestResultsERKT_RKT0_RKNS_11TestDetailsE
 10773      00
 10774              	.LEHE590:
 10775              	.L803:
 369:testCore.cpp  **** 	queueCommitPut(&queue);
 10776              		.loc 3 369 0 is_stmt 1
 10777 5089 488D45B0 		leaq	-80(%rbp), %rax
 10778 508d 4889C7   		movq	%rax, %rdi
 10779              	.LEHB591:
 10780 5090 E8000000 		call	queueCommitPut
 10780      00
 370:testCore.cpp  **** 	status = queuePut(&queue, (Item*)&item);
 10781              		.loc 3 370 0
 10782 5095 488D5588 		leaq	-120(%rbp), %rdx
 10783 5099 488D45B0 		leaq	-80(%rbp), %rax
 10784 509d 4889D6   		movq	%rdx, %rsi
 10785 50a0 4889C7   		movq	%rax, %rdi
 10786 50a3 E8000000 		call	queuePut
 10786      00
 10787              	.LEHE591:
 10788 50a8 894580   		movl	%eax, -128(%rbp)
 10789              	.LEHB592:
 371:testCore.cpp  **** 	CHECK_EQUAL(USB_SUCCESS, status);
 10790              		.loc 3 371 0
 10791 50ab E8000000 		call	_ZN8UnitTest11CurrentTest7DetailsEv
 10791      00
 10792 50b0 488B08   		movq	(%rax), %rcx
 10793 50b3 488D4590 		leaq	-112(%rbp), %rax
 10794 50b7 BA730100 		movl	$371, %edx
 10794      00
 10795 50bc 4889CE   		movq	%rcx, %rsi
 10796 50bf 4889C7   		movq	%rax, %rdi
 10797 50c2 E8000000 		call	_ZN8UnitTest11TestDetailsC1ERKS0_i
 10797      00
 10798              	.LEHE592:
 10799              		.loc 3 371 0 is_stmt 0 discriminator 2
 10800 50c7 C7458400 		movl	$0, -124(%rbp)
 10800      000000
 10801              	.LEHB593:
 10802 50ce E8000000 		call	_ZN8UnitTest11CurrentTest7ResultsEv
 10802      00
 10803 50d3 488B00   		movq	(%rax), %rax
 10804 50d6 488D4D90 		leaq	-112(%rbp), %rcx
 10805 50da 488D5580 		leaq	-128(%rbp), %rdx
 10806 50de 488D7584 		leaq	-124(%rbp), %rsi
 10807 50e2 4889C7   		movq	%rax, %rdi
 10808 50e5 E8000000 		call	_ZN8UnitTest10CheckEqualI9USBStatusS1_EEvRNS_11TestResultsERKT_RKT0_RKNS_11TestDetailsE
 10808      00
 10809              	.LEHE593:
 10810              	.L807:
 372:testCore.cpp  **** 	queueCommitPut(&queue);
 10811              		.loc 3 372 0 is_stmt 1
 10812 50ea 488D45B0 		leaq	-80(%rbp), %rax
 10813 50ee 4889C7   		movq	%rax, %rdi
 10814              	.LEHB594:
 10815 50f1 E8000000 		call	queueCommitPut
 10815      00
 373:testCore.cpp  **** 	status = queuePut(&queue, (Item*)&item);
 10816              		.loc 3 373 0
 10817 50f6 488D5588 		leaq	-120(%rbp), %rdx
 10818 50fa 488D45B0 		leaq	-80(%rbp), %rax
 10819 50fe 4889D6   		movq	%rdx, %rsi
 10820 5101 4889C7   		movq	%rax, %rdi
 10821 5104 E8000000 		call	queuePut
 10821      00
 10822              	.LEHE594:
 10823 5109 894580   		movl	%eax, -128(%rbp)
 10824              	.LEHB595:
 374:testCore.cpp  **** 	CHECK_EQUAL(USB_SUCCESS, status);
 10825              		.loc 3 374 0
 10826 510c E8000000 		call	_ZN8UnitTest11CurrentTest7DetailsEv
 10826      00
 10827 5111 488B08   		movq	(%rax), %rcx
 10828 5114 488D4590 		leaq	-112(%rbp), %rax
 10829 5118 BA760100 		movl	$374, %edx
 10829      00
 10830 511d 4889CE   		movq	%rcx, %rsi
 10831 5120 4889C7   		movq	%rax, %rdi
 10832 5123 E8000000 		call	_ZN8UnitTest11TestDetailsC1ERKS0_i
 10832      00
 10833              	.LEHE595:
 10834              		.loc 3 374 0 is_stmt 0 discriminator 2
 10835 5128 C7458400 		movl	$0, -124(%rbp)
 10835      000000
 10836              	.LEHB596:
 10837 512f E8000000 		call	_ZN8UnitTest11CurrentTest7ResultsEv
 10837      00
 10838 5134 488B00   		movq	(%rax), %rax
 10839 5137 488D4D90 		leaq	-112(%rbp), %rcx
 10840 513b 488D5580 		leaq	-128(%rbp), %rdx
 10841 513f 488D7584 		leaq	-124(%rbp), %rsi
 10842 5143 4889C7   		movq	%rax, %rdi
 10843 5146 E8000000 		call	_ZN8UnitTest10CheckEqualI9USBStatusS1_EEvRNS_11TestResultsERKT_RKT0_RKNS_11TestDetailsE
 10843      00
 10844              	.LEHE596:
 10845              	.L811:
 375:testCore.cpp  **** 	queueCommitPut(&queue);
 10846              		.loc 3 375 0 is_stmt 1
 10847 514b 488D45B0 		leaq	-80(%rbp), %rax
 10848 514f 4889C7   		movq	%rax, %rdi
 10849              	.LEHB597:
 10850 5152 E8000000 		call	queueCommitPut
 10850      00
 376:testCore.cpp  **** 
 377:testCore.cpp  **** 	// The ninth allocation fails
 378:testCore.cpp  **** 	status = queuePut(&queue, (Item*)&item);
 10851              		.loc 3 378 0
 10852 5157 488D5588 		leaq	-120(%rbp), %rdx
 10853 515b 488D45B0 		leaq	-80(%rbp), %rax
 10854 515f 4889D6   		movq	%rdx, %rsi
 10855 5162 4889C7   		movq	%rax, %rdi
 10856 5165 E8000000 		call	queuePut
 10856      00
 10857              	.LEHE597:
 10858 516a 894580   		movl	%eax, -128(%rbp)
 10859              	.LEHB598:
 379:testCore.cpp  **** 	CHECK_EQUAL(USB_ALLOC_ERR, status);
 10860              		.loc 3 379 0
 10861 516d E8000000 		call	_ZN8UnitTest11CurrentTest7DetailsEv
 10861      00
 10862 5172 488B08   		movq	(%rax), %rcx
 10863 5175 488D4590 		leaq	-112(%rbp), %rax
 10864 5179 BA7B0100 		movl	$379, %edx
 10864      00
 10865 517e 4889CE   		movq	%rcx, %rsi
 10866 5181 4889C7   		movq	%rax, %rdi
 10867 5184 E8000000 		call	_ZN8UnitTest11TestDetailsC1ERKS0_i
 10867      00
 10868              	.LEHE598:
 10869              		.loc 3 379 0 is_stmt 0 discriminator 2
 10870 5189 C745840C 		movl	$12, -124(%rbp)
 10870      000000
 10871              	.LEHB599:
 10872 5190 E8000000 		call	_ZN8UnitTest11CurrentTest7ResultsEv
 10872      00
 10873 5195 488B00   		movq	(%rax), %rax
 10874 5198 488D4D90 		leaq	-112(%rbp), %rcx
 10875 519c 488D5580 		leaq	-128(%rbp), %rdx
 10876 51a0 488D7584 		leaq	-124(%rbp), %rsi
 10877 51a4 4889C7   		movq	%rax, %rdi
 10878 51a7 E8000000 		call	_ZN8UnitTest10CheckEqualI9USBStatusS1_EEvRNS_11TestResultsERKT_RKT0_RKNS_11TestDetailsE
 10878      00
 10879              	.LEHE599:
 10880              	.L815:
 380:testCore.cpp  **** 
 381:testCore.cpp  **** 	queueDestroy(&queue);
 10881              		.loc 3 381 0 is_stmt 1
 10882 51ac 488D45B0 		leaq	-80(%rbp), %rax
 10883 51b0 4889C7   		movq	%rax, %rdi
 10884              	.LEHB600:
 10885 51b3 E8000000 		call	queueDestroy
 10885      00
 10886              	.LEHE600:
 382:testCore.cpp  **** }
 10887              		.loc 3 382 0
 10888 51b8 90       		nop
 10889 51b9 488B45E8 		movq	-24(%rbp), %rax
 10890 51bd 64483304 		xorq	%fs:40, %rax
 10890      25280000 
 10890      00
 10891 51c6 0F84C003 		je	.L817
 10891      0000
 10892 51cc E9B60300 		jmp	.L848
 10892      00
 10893              	.L819:
 10894 51d1 EB00     		jmp	.L778
 10895              	.L818:
 10896              	.L778:
 349:testCore.cpp  **** 
 10897              		.loc 3 349 0
 10898 51d3 4889C7   		movq	%rax, %rdi
 10899 51d6 E8000000 		call	__cxa_begin_catch
 10899      00
 10900              	.LEHB601:
 10901 51db E8000000 		call	_ZN8UnitTest11CurrentTest7DetailsEv
 10901      00
 10902 51e0 488B08   		movq	(%rax), %rcx
 10903 51e3 488D4590 		leaq	-112(%rbp), %rax
 10904 51e7 BA5D0100 		movl	$349, %edx
 10904      00
 10905 51ec 4889CE   		movq	%rcx, %rsi
 10906 51ef 4889C7   		movq	%rax, %rdi
 10907 51f2 E8000000 		call	_ZN8UnitTest11TestDetailsC1ERKS0_i
 10907      00
 349:testCore.cpp  **** 
 10908              		.loc 3 349 0 is_stmt 0 discriminator 10
 10909 51f7 E8000000 		call	_ZN8UnitTest11CurrentTest7ResultsEv
 10909      00
 10910 51fc 488B00   		movq	(%rax), %rax
 10911 51ff 488D4D90 		leaq	-112(%rbp), %rcx
 10912 5203 BA000000 		movl	$.LC3, %edx
 10912      00
 10913 5208 4889CE   		movq	%rcx, %rsi
 10914 520b 4889C7   		movq	%rax, %rdi
 10915 520e E8000000 		call	_ZN8UnitTest11TestResults13OnTestFailureERKNS_11TestDetailsEPKc
 10915      00
 10916              	.LEHE601:
 10917              	.LEHB602:
 349:testCore.cpp  **** 
 10918              		.loc 3 349 0 discriminator 14
 10919 5213 E8000000 		call	__cxa_end_catch
 10919      00
 10920              	.LEHE602:
 10921 5218 E932FCFF 		jmp	.L779
 10921      FF
 10922              	.L820:
 10923 521d 4889C3   		movq	%rax, %rbx
 349:testCore.cpp  **** 
 10924              		.loc 3 349 0
 10925 5220 E8000000 		call	__cxa_end_catch
 10925      00
 10926 5225 4889D8   		movq	%rbx, %rax
 10927 5228 4889C7   		movq	%rax, %rdi
 10928              	.LEHB603:
 10929 522b E8000000 		call	_Unwind_Resume
 10929      00
 10930              	.LEHE603:
 10931              	.L822:
 10932 5230 EB00     		jmp	.L782
 10933              	.L821:
 10934              	.L782:
 353:testCore.cpp  **** 	queueCommitPut(&queue);
 10935              		.loc 3 353 0 is_stmt 1
 10936 5232 4889C7   		movq	%rax, %rdi
 10937 5235 E8000000 		call	__cxa_begin_catch
 10937      00
 10938              	.LEHB604:
 10939 523a E8000000 		call	_ZN8UnitTest11CurrentTest7DetailsEv
 10939      00
 10940 523f 488B08   		movq	(%rax), %rcx
 10941 5242 488D4590 		leaq	-112(%rbp), %rax
 10942 5246 BA610100 		movl	$353, %edx
 10942      00
 10943 524b 4889CE   		movq	%rcx, %rsi
 10944 524e 4889C7   		movq	%rax, %rdi
 10945 5251 E8000000 		call	_ZN8UnitTest11TestDetailsC1ERKS0_i
 10945      00
 353:testCore.cpp  **** 	queueCommitPut(&queue);
 10946              		.loc 3 353 0 is_stmt 0 discriminator 10
 10947 5256 E8000000 		call	_ZN8UnitTest11CurrentTest7ResultsEv
 10947      00
 10948 525b 488B00   		movq	(%rax), %rax
 10949 525e 488D4D90 		leaq	-112(%rbp), %rcx
 10950 5262 BA000000 		movl	$.LC3, %edx
 10950      00
 10951 5267 4889CE   		movq	%rcx, %rsi
 10952 526a 4889C7   		movq	%rax, %rdi
 10953 526d E8000000 		call	_ZN8UnitTest11TestResults13OnTestFailureERKNS_11TestDetailsEPKc
 10953      00
 10954              	.LEHE604:
 10955              	.LEHB605:
 353:testCore.cpp  **** 	queueCommitPut(&queue);
 10956              		.loc 3 353 0 discriminator 14
 10957 5272 E8000000 		call	__cxa_end_catch
 10957      00
 10958              	.LEHE605:
 10959 5277 E928FCFF 		jmp	.L783
 10959      FF
 10960              	.L823:
 10961 527c 4889C3   		movq	%rax, %rbx
 353:testCore.cpp  **** 	queueCommitPut(&queue);
 10962              		.loc 3 353 0
 10963 527f E8000000 		call	__cxa_end_catch
 10963      00
 10964 5284 4889D8   		movq	%rbx, %rax
 10965 5287 4889C7   		movq	%rax, %rdi
 10966              	.LEHB606:
 10967 528a E8000000 		call	_Unwind_Resume
 10967      00
 10968              	.LEHE606:
 10969              	.L825:
 10970 528f EB00     		jmp	.L786
 10971              	.L824:
 10972              	.L786:
 356:testCore.cpp  **** 	queueCommitPut(&queue);
 10973              		.loc 3 356 0 is_stmt 1
 10974 5291 4889C7   		movq	%rax, %rdi
 10975 5294 E8000000 		call	__cxa_begin_catch
 10975      00
 10976              	.LEHB607:
 10977 5299 E8000000 		call	_ZN8UnitTest11CurrentTest7DetailsEv
 10977      00
 10978 529e 488B08   		movq	(%rax), %rcx
 10979 52a1 488D4590 		leaq	-112(%rbp), %rax
 10980 52a5 BA640100 		movl	$356, %edx
 10980      00
 10981 52aa 4889CE   		movq	%rcx, %rsi
 10982 52ad 4889C7   		movq	%rax, %rdi
 10983 52b0 E8000000 		call	_ZN8UnitTest11TestDetailsC1ERKS0_i
 10983      00
 356:testCore.cpp  **** 	queueCommitPut(&queue);
 10984              		.loc 3 356 0 is_stmt 0 discriminator 10
 10985 52b5 E8000000 		call	_ZN8UnitTest11CurrentTest7ResultsEv
 10985      00
 10986 52ba 488B00   		movq	(%rax), %rax
 10987 52bd 488D4D90 		leaq	-112(%rbp), %rcx
 10988 52c1 BA000000 		movl	$.LC3, %edx
 10988      00
 10989 52c6 4889CE   		movq	%rcx, %rsi
 10990 52c9 4889C7   		movq	%rax, %rdi
 10991 52cc E8000000 		call	_ZN8UnitTest11TestResults13OnTestFailureERKNS_11TestDetailsEPKc
 10991      00
 10992              	.LEHE607:
 10993              	.LEHB608:
 356:testCore.cpp  **** 	queueCommitPut(&queue);
 10994              		.loc 3 356 0 discriminator 14
 10995 52d1 E8000000 		call	__cxa_end_catch
 10995      00
 10996              	.LEHE608:
 10997 52d6 E92AFCFF 		jmp	.L787
 10997      FF
 10998              	.L826:
 10999 52db 4889C3   		movq	%rax, %rbx
 356:testCore.cpp  **** 	queueCommitPut(&queue);
 11000              		.loc 3 356 0
 11001 52de E8000000 		call	__cxa_end_catch
 11001      00
 11002 52e3 4889D8   		movq	%rbx, %rax
 11003 52e6 4889C7   		movq	%rax, %rdi
 11004              	.LEHB609:
 11005 52e9 E8000000 		call	_Unwind_Resume
 11005      00
 11006              	.LEHE609:
 11007              	.L828:
 11008 52ee EB00     		jmp	.L790
 11009              	.L827:
 11010              	.L790:
 359:testCore.cpp  **** 	queueCommitPut(&queue);
 11011              		.loc 3 359 0 is_stmt 1
 11012 52f0 4889C7   		movq	%rax, %rdi
 11013 52f3 E8000000 		call	__cxa_begin_catch
 11013      00
 11014              	.LEHB610:
 11015 52f8 E8000000 		call	_ZN8UnitTest11CurrentTest7DetailsEv
 11015      00
 11016 52fd 488B08   		movq	(%rax), %rcx
 11017 5300 488D4590 		leaq	-112(%rbp), %rax
 11018 5304 BA670100 		movl	$359, %edx
 11018      00
 11019 5309 4889CE   		movq	%rcx, %rsi
 11020 530c 4889C7   		movq	%rax, %rdi
 11021 530f E8000000 		call	_ZN8UnitTest11TestDetailsC1ERKS0_i
 11021      00
 359:testCore.cpp  **** 	queueCommitPut(&queue);
 11022              		.loc 3 359 0 is_stmt 0 discriminator 10
 11023 5314 E8000000 		call	_ZN8UnitTest11CurrentTest7ResultsEv
 11023      00
 11024 5319 488B00   		movq	(%rax), %rax
 11025 531c 488D4D90 		leaq	-112(%rbp), %rcx
 11026 5320 BA000000 		movl	$.LC3, %edx
 11026      00
 11027 5325 4889CE   		movq	%rcx, %rsi
 11028 5328 4889C7   		movq	%rax, %rdi
 11029 532b E8000000 		call	_ZN8UnitTest11TestResults13OnTestFailureERKNS_11TestDetailsEPKc
 11029      00
 11030              	.LEHE610:
 11031              	.LEHB611:
 359:testCore.cpp  **** 	queueCommitPut(&queue);
 11032              		.loc 3 359 0 discriminator 14
 11033 5330 E8000000 		call	__cxa_end_catch
 11033      00
 11034              	.LEHE611:
 11035 5335 E92CFCFF 		jmp	.L791
 11035      FF
 11036              	.L829:
 11037 533a 4889C3   		movq	%rax, %rbx
 359:testCore.cpp  **** 	queueCommitPut(&queue);
 11038              		.loc 3 359 0
 11039 533d E8000000 		call	__cxa_end_catch
 11039      00
 11040 5342 4889D8   		movq	%rbx, %rax
 11041 5345 4889C7   		movq	%rax, %rdi
 11042              	.LEHB612:
 11043 5348 E8000000 		call	_Unwind_Resume
 11043      00
 11044              	.LEHE612:
 11045              	.L831:
 11046 534d EB00     		jmp	.L794
 11047              	.L830:
 11048              	.L794:
 362:testCore.cpp  **** 	queueCommitPut(&queue);
 11049              		.loc 3 362 0 is_stmt 1
 11050 534f 4889C7   		movq	%rax, %rdi
 11051 5352 E8000000 		call	__cxa_begin_catch
 11051      00
 11052              	.LEHB613:
 11053 5357 E8000000 		call	_ZN8UnitTest11CurrentTest7DetailsEv
 11053      00
 11054 535c 488B08   		movq	(%rax), %rcx
 11055 535f 488D4590 		leaq	-112(%rbp), %rax
 11056 5363 BA6A0100 		movl	$362, %edx
 11056      00
 11057 5368 4889CE   		movq	%rcx, %rsi
 11058 536b 4889C7   		movq	%rax, %rdi
 11059 536e E8000000 		call	_ZN8UnitTest11TestDetailsC1ERKS0_i
 11059      00
 362:testCore.cpp  **** 	queueCommitPut(&queue);
 11060              		.loc 3 362 0 is_stmt 0 discriminator 10
 11061 5373 E8000000 		call	_ZN8UnitTest11CurrentTest7ResultsEv
 11061      00
 11062 5378 488B00   		movq	(%rax), %rax
 11063 537b 488D4D90 		leaq	-112(%rbp), %rcx
 11064 537f BA000000 		movl	$.LC3, %edx
 11064      00
 11065 5384 4889CE   		movq	%rcx, %rsi
 11066 5387 4889C7   		movq	%rax, %rdi
 11067 538a E8000000 		call	_ZN8UnitTest11TestResults13OnTestFailureERKNS_11TestDetailsEPKc
 11067      00
 11068              	.LEHE613:
 11069              	.LEHB614:
 362:testCore.cpp  **** 	queueCommitPut(&queue);
 11070              		.loc 3 362 0 discriminator 14
 11071 538f E8000000 		call	__cxa_end_catch
 11071      00
 11072              	.LEHE614:
 11073 5394 E92EFCFF 		jmp	.L795
 11073      FF
 11074              	.L832:
 11075 5399 4889C3   		movq	%rax, %rbx
 362:testCore.cpp  **** 	queueCommitPut(&queue);
 11076              		.loc 3 362 0
 11077 539c E8000000 		call	__cxa_end_catch
 11077      00
 11078 53a1 4889D8   		movq	%rbx, %rax
 11079 53a4 4889C7   		movq	%rax, %rdi
 11080              	.LEHB615:
 11081 53a7 E8000000 		call	_Unwind_Resume
 11081      00
 11082              	.LEHE615:
 11083              	.L834:
 11084 53ac EB00     		jmp	.L798
 11085              	.L833:
 11086              	.L798:
 365:testCore.cpp  **** 	queueCommitPut(&queue);
 11087              		.loc 3 365 0 is_stmt 1
 11088 53ae 4889C7   		movq	%rax, %rdi
 11089 53b1 E8000000 		call	__cxa_begin_catch
 11089      00
 11090              	.LEHB616:
 11091 53b6 E8000000 		call	_ZN8UnitTest11CurrentTest7DetailsEv
 11091      00
 11092 53bb 488B08   		movq	(%rax), %rcx
 11093 53be 488D4590 		leaq	-112(%rbp), %rax
 11094 53c2 BA6D0100 		movl	$365, %edx
 11094      00
 11095 53c7 4889CE   		movq	%rcx, %rsi
 11096 53ca 4889C7   		movq	%rax, %rdi
 11097 53cd E8000000 		call	_ZN8UnitTest11TestDetailsC1ERKS0_i
 11097      00
 365:testCore.cpp  **** 	queueCommitPut(&queue);
 11098              		.loc 3 365 0 is_stmt 0 discriminator 10
 11099 53d2 E8000000 		call	_ZN8UnitTest11CurrentTest7ResultsEv
 11099      00
 11100 53d7 488B00   		movq	(%rax), %rax
 11101 53da 488D4D90 		leaq	-112(%rbp), %rcx
 11102 53de BA000000 		movl	$.LC3, %edx
 11102      00
 11103 53e3 4889CE   		movq	%rcx, %rsi
 11104 53e6 4889C7   		movq	%rax, %rdi
 11105 53e9 E8000000 		call	_ZN8UnitTest11TestResults13OnTestFailureERKNS_11TestDetailsEPKc
 11105      00
 11106              	.LEHE616:
 11107              	.LEHB617:
 365:testCore.cpp  **** 	queueCommitPut(&queue);
 11108              		.loc 3 365 0 discriminator 14
 11109 53ee E8000000 		call	__cxa_end_catch
 11109      00
 11110              	.LEHE617:
 11111 53f3 E930FCFF 		jmp	.L799
 11111      FF
 11112              	.L835:
 11113 53f8 4889C3   		movq	%rax, %rbx
 365:testCore.cpp  **** 	queueCommitPut(&queue);
 11114              		.loc 3 365 0
 11115 53fb E8000000 		call	__cxa_end_catch
 11115      00
 11116 5400 4889D8   		movq	%rbx, %rax
 11117 5403 4889C7   		movq	%rax, %rdi
 11118              	.LEHB618:
 11119 5406 E8000000 		call	_Unwind_Resume
 11119      00
 11120              	.LEHE618:
 11121              	.L837:
 11122 540b EB00     		jmp	.L802
 11123              	.L836:
 11124              	.L802:
 368:testCore.cpp  **** 	queueCommitPut(&queue);
 11125              		.loc 3 368 0 is_stmt 1
 11126 540d 4889C7   		movq	%rax, %rdi
 11127 5410 E8000000 		call	__cxa_begin_catch
 11127      00
 11128              	.LEHB619:
 11129 5415 E8000000 		call	_ZN8UnitTest11CurrentTest7DetailsEv
 11129      00
 11130 541a 488B08   		movq	(%rax), %rcx
 11131 541d 488D4590 		leaq	-112(%rbp), %rax
 11132 5421 BA700100 		movl	$368, %edx
 11132      00
 11133 5426 4889CE   		movq	%rcx, %rsi
 11134 5429 4889C7   		movq	%rax, %rdi
 11135 542c E8000000 		call	_ZN8UnitTest11TestDetailsC1ERKS0_i
 11135      00
 368:testCore.cpp  **** 	queueCommitPut(&queue);
 11136              		.loc 3 368 0 is_stmt 0 discriminator 10
 11137 5431 E8000000 		call	_ZN8UnitTest11CurrentTest7ResultsEv
 11137      00
 11138 5436 488B00   		movq	(%rax), %rax
 11139 5439 488D4D90 		leaq	-112(%rbp), %rcx
 11140 543d BA000000 		movl	$.LC3, %edx
 11140      00
 11141 5442 4889CE   		movq	%rcx, %rsi
 11142 5445 4889C7   		movq	%rax, %rdi
 11143 5448 E8000000 		call	_ZN8UnitTest11TestResults13OnTestFailureERKNS_11TestDetailsEPKc
 11143      00
 11144              	.LEHE619:
 11145              	.LEHB620:
 368:testCore.cpp  **** 	queueCommitPut(&queue);
 11146              		.loc 3 368 0 discriminator 14
 11147 544d E8000000 		call	__cxa_end_catch
 11147      00
 11148              	.LEHE620:
 11149 5452 E932FCFF 		jmp	.L803
 11149      FF
 11150              	.L838:
 11151 5457 4889C3   		movq	%rax, %rbx
 368:testCore.cpp  **** 	queueCommitPut(&queue);
 11152              		.loc 3 368 0
 11153 545a E8000000 		call	__cxa_end_catch
 11153      00
 11154 545f 4889D8   		movq	%rbx, %rax
 11155 5462 4889C7   		movq	%rax, %rdi
 11156              	.LEHB621:
 11157 5465 E8000000 		call	_Unwind_Resume
 11157      00
 11158              	.LEHE621:
 11159              	.L840:
 11160 546a EB00     		jmp	.L806
 11161              	.L839:
 11162              	.L806:
 371:testCore.cpp  **** 	queueCommitPut(&queue);
 11163              		.loc 3 371 0 is_stmt 1
 11164 546c 4889C7   		movq	%rax, %rdi
 11165 546f E8000000 		call	__cxa_begin_catch
 11165      00
 11166              	.LEHB622:
 11167 5474 E8000000 		call	_ZN8UnitTest11CurrentTest7DetailsEv
 11167      00
 11168 5479 488B08   		movq	(%rax), %rcx
 11169 547c 488D4590 		leaq	-112(%rbp), %rax
 11170 5480 BA730100 		movl	$371, %edx
 11170      00
 11171 5485 4889CE   		movq	%rcx, %rsi
 11172 5488 4889C7   		movq	%rax, %rdi
 11173 548b E8000000 		call	_ZN8UnitTest11TestDetailsC1ERKS0_i
 11173      00
 371:testCore.cpp  **** 	queueCommitPut(&queue);
 11174              		.loc 3 371 0 is_stmt 0 discriminator 10
 11175 5490 E8000000 		call	_ZN8UnitTest11CurrentTest7ResultsEv
 11175      00
 11176 5495 488B00   		movq	(%rax), %rax
 11177 5498 488D4D90 		leaq	-112(%rbp), %rcx
 11178 549c BA000000 		movl	$.LC3, %edx
 11178      00
 11179 54a1 4889CE   		movq	%rcx, %rsi
 11180 54a4 4889C7   		movq	%rax, %rdi
 11181 54a7 E8000000 		call	_ZN8UnitTest11TestResults13OnTestFailureERKNS_11TestDetailsEPKc
 11181      00
 11182              	.LEHE622:
 11183              	.LEHB623:
 371:testCore.cpp  **** 	queueCommitPut(&queue);
 11184              		.loc 3 371 0 discriminator 14
 11185 54ac E8000000 		call	__cxa_end_catch
 11185      00
 11186              	.LEHE623:
 11187 54b1 E934FCFF 		jmp	.L807
 11187      FF
 11188              	.L841:
 11189 54b6 4889C3   		movq	%rax, %rbx
 371:testCore.cpp  **** 	queueCommitPut(&queue);
 11190              		.loc 3 371 0
 11191 54b9 E8000000 		call	__cxa_end_catch
 11191      00
 11192 54be 4889D8   		movq	%rbx, %rax
 11193 54c1 4889C7   		movq	%rax, %rdi
 11194              	.LEHB624:
 11195 54c4 E8000000 		call	_Unwind_Resume
 11195      00
 11196              	.LEHE624:
 11197              	.L843:
 11198 54c9 EB00     		jmp	.L810
 11199              	.L842:
 11200              	.L810:
 374:testCore.cpp  **** 	queueCommitPut(&queue);
 11201              		.loc 3 374 0 is_stmt 1
 11202 54cb 4889C7   		movq	%rax, %rdi
 11203 54ce E8000000 		call	__cxa_begin_catch
 11203      00
 11204              	.LEHB625:
 11205 54d3 E8000000 		call	_ZN8UnitTest11CurrentTest7DetailsEv
 11205      00
 11206 54d8 488B08   		movq	(%rax), %rcx
 11207 54db 488D4590 		leaq	-112(%rbp), %rax
 11208 54df BA760100 		movl	$374, %edx
 11208      00
 11209 54e4 4889CE   		movq	%rcx, %rsi
 11210 54e7 4889C7   		movq	%rax, %rdi
 11211 54ea E8000000 		call	_ZN8UnitTest11TestDetailsC1ERKS0_i
 11211      00
 374:testCore.cpp  **** 	queueCommitPut(&queue);
 11212              		.loc 3 374 0 is_stmt 0 discriminator 10
 11213 54ef E8000000 		call	_ZN8UnitTest11CurrentTest7ResultsEv
 11213      00
 11214 54f4 488B00   		movq	(%rax), %rax
 11215 54f7 488D4D90 		leaq	-112(%rbp), %rcx
 11216 54fb BA000000 		movl	$.LC3, %edx
 11216      00
 11217 5500 4889CE   		movq	%rcx, %rsi
 11218 5503 4889C7   		movq	%rax, %rdi
 11219 5506 E8000000 		call	_ZN8UnitTest11TestResults13OnTestFailureERKNS_11TestDetailsEPKc
 11219      00
 11220              	.LEHE625:
 11221              	.LEHB626:
 374:testCore.cpp  **** 	queueCommitPut(&queue);
 11222              		.loc 3 374 0 discriminator 14
 11223 550b E8000000 		call	__cxa_end_catch
 11223      00
 11224              	.LEHE626:
 11225 5510 E936FCFF 		jmp	.L811
 11225      FF
 11226              	.L844:
 11227 5515 4889C3   		movq	%rax, %rbx
 374:testCore.cpp  **** 	queueCommitPut(&queue);
 11228              		.loc 3 374 0
 11229 5518 E8000000 		call	__cxa_end_catch
 11229      00
 11230 551d 4889D8   		movq	%rbx, %rax
 11231 5520 4889C7   		movq	%rax, %rdi
 11232              	.LEHB627:
 11233 5523 E8000000 		call	_Unwind_Resume
 11233      00
 11234              	.LEHE627:
 11235              	.L846:
 11236 5528 EB00     		jmp	.L814
 11237              	.L845:
 11238              	.L814:
 379:testCore.cpp  **** 
 11239              		.loc 3 379 0 is_stmt 1
 11240 552a 4889C7   		movq	%rax, %rdi
 11241 552d E8000000 		call	__cxa_begin_catch
 11241      00
 11242              	.LEHB628:
 11243 5532 E8000000 		call	_ZN8UnitTest11CurrentTest7DetailsEv
 11243      00
 11244 5537 488B08   		movq	(%rax), %rcx
 11245 553a 488D4590 		leaq	-112(%rbp), %rax
 11246 553e BA7B0100 		movl	$379, %edx
 11246      00
 11247 5543 4889CE   		movq	%rcx, %rsi
 11248 5546 4889C7   		movq	%rax, %rdi
 11249 5549 E8000000 		call	_ZN8UnitTest11TestDetailsC1ERKS0_i
 11249      00
 379:testCore.cpp  **** 
 11250              		.loc 3 379 0 is_stmt 0 discriminator 10
 11251 554e E8000000 		call	_ZN8UnitTest11CurrentTest7ResultsEv
 11251      00
 11252 5553 488B00   		movq	(%rax), %rax
 11253 5556 488D4D90 		leaq	-112(%rbp), %rcx
 11254 555a BA000000 		movl	$.LC55, %edx
 11254      00
 11255 555f 4889CE   		movq	%rcx, %rsi
 11256 5562 4889C7   		movq	%rax, %rdi
 11257 5565 E8000000 		call	_ZN8UnitTest11TestResults13OnTestFailureERKNS_11TestDetailsEPKc
 11257      00
 11258              	.LEHE628:
 11259              	.LEHB629:
 379:testCore.cpp  **** 
 11260              		.loc 3 379 0 discriminator 14
 11261 556a E8000000 		call	__cxa_end_catch
 11261      00
 11262              	.LEHE629:
 11263 556f E938FCFF 		jmp	.L815
 11263      FF
 11264              	.L847:
 11265 5574 4889C3   		movq	%rax, %rbx
 379:testCore.cpp  **** 
 11266              		.loc 3 379 0
 11267 5577 E8000000 		call	__cxa_end_catch
 11267      00
 11268 557c 4889D8   		movq	%rbx, %rax
 11269 557f 4889C7   		movq	%rax, %rdi
 11270              	.LEHB630:
 11271 5582 E8000000 		call	_Unwind_Resume
 11271      00
 11272              	.LEHE630:
 11273              	.L848:
 11274              		.loc 3 382 0 is_stmt 1
 11275 5587 E8000000 		call	__stack_chk_fail
 11275      00
 11276              	.L817:
 11277 558c 4881C488 		addq	$136, %rsp
 11277      000000
 11278 5593 5B       		popq	%rbx
 11279 5594 5D       		popq	%rbp
 11280              		.cfi_def_cfa 7, 8
 11281 5595 C3       		ret
 11282              		.cfi_endproc
 11283              	.LFE1109:
 11284              		.section	.gcc_except_table
 11285              		.align 4
 11286              	.LLSDA1109:
 11287 0c94 FF       		.byte	0xff
 11288 0c95 03       		.byte	0x3
 11289 0c96 D802     		.uleb128 .LLSDATT1109-.LLSDATTD1109
 11290              	.LLSDATTD1109:
 11291 0c98 01       		.byte	0x1
 11292 0c99 CC02     		.uleb128 .LLSDACSE1109-.LLSDACSB1109
 11293              	.LLSDACSB1109:
 11294 0c9b 42       		.uleb128 .LEHB570-.LFB1109
 11295 0c9c 05       		.uleb128 .LEHE570-.LEHB570
 11296 0c9d 00       		.uleb128 0
 11297 0c9e 00       		.uleb128 0
 11298 0c9f 4A       		.uleb128 .LEHB571-.LFB1109
 11299 0ca0 1C       		.uleb128 .LEHE571-.LEHB571
 11300 0ca1 8D08     		.uleb128 .L818-.LFB1109
 11301 0ca3 01       		.uleb128 0x1
 11302 0ca4 6D       		.uleb128 .LEHB572-.LFB1109
 11303 0ca5 1C       		.uleb128 .LEHE572-.LEHB572
 11304 0ca6 8B08     		.uleb128 .L819-.LFB1109
 11305 0ca8 03       		.uleb128 0x3
 11306 0ca9 9701     		.uleb128 .LEHB573-.LFB1109
 11307 0cab 05       		.uleb128 .LEHE573-.LEHB573
 11308 0cac 00       		.uleb128 0
 11309 0cad 00       		.uleb128 0
 11310 0cae 9F01     		.uleb128 .LEHB574-.LFB1109
 11311 0cb0 1C       		.uleb128 .LEHE574-.LEHB574
 11312 0cb1 EC08     		.uleb128 .L821-.LFB1109
 11313 0cb3 01       		.uleb128 0x1
 11314 0cb4 C201     		.uleb128 .LEHB575-.LFB1109
 11315 0cb6 1C       		.uleb128 .LEHE575-.LEHB575
 11316 0cb7 EA08     		.uleb128 .L822-.LFB1109
 11317 0cb9 03       		.uleb128 0x3
 11318 0cba E501     		.uleb128 .LEHB576-.LFB1109
 11319 0cbc 18       		.uleb128 .LEHE576-.LEHB576
 11320 0cbd 00       		.uleb128 0
 11321 0cbe 00       		.uleb128 0
 11322 0cbf 8002     		.uleb128 .LEHB577-.LFB1109
 11323 0cc1 1C       		.uleb128 .LEHE577-.LEHB577
 11324 0cc2 CB09     		.uleb128 .L824-.LFB1109
 11325 0cc4 01       		.uleb128 0x1
 11326 0cc5 A302     		.uleb128 .LEHB578-.LFB1109
 11327 0cc7 1C       		.uleb128 .LEHE578-.LEHB578
 11328 0cc8 C909     		.uleb128 .L825-.LFB1109
 11329 0cca 03       		.uleb128 0x3
 11330 0ccb C602     		.uleb128 .LEHB579-.LFB1109
 11331 0ccd 18       		.uleb128 .LEHE579-.LEHB579
 11332 0cce 00       		.uleb128 0
 11333 0ccf 00       		.uleb128 0
 11334 0cd0 E102     		.uleb128 .LEHB580-.LFB1109
 11335 0cd2 1C       		.uleb128 .LEHE580-.LEHB580
 11336 0cd3 AA0A     		.uleb128 .L827-.LFB1109
 11337 0cd5 01       		.uleb128 0x1
 11338 0cd6 8403     		.uleb128 .LEHB581-.LFB1109
 11339 0cd8 1C       		.uleb128 .LEHE581-.LEHB581
 11340 0cd9 A80A     		.uleb128 .L828-.LFB1109
 11341 0cdb 03       		.uleb128 0x3
 11342 0cdc A703     		.uleb128 .LEHB582-.LFB1109
 11343 0cde 18       		.uleb128 .LEHE582-.LEHB582
 11344 0cdf 00       		.uleb128 0
 11345 0ce0 00       		.uleb128 0
 11346 0ce1 C203     		.uleb128 .LEHB583-.LFB1109
 11347 0ce3 1C       		.uleb128 .LEHE583-.LEHB583
 11348 0ce4 890B     		.uleb128 .L830-.LFB1109
 11349 0ce6 01       		.uleb128 0x1
 11350 0ce7 E503     		.uleb128 .LEHB584-.LFB1109
 11351 0ce9 1C       		.uleb128 .LEHE584-.LEHB584
 11352 0cea 870B     		.uleb128 .L831-.LFB1109
 11353 0cec 03       		.uleb128 0x3
 11354 0ced 8804     		.uleb128 .LEHB585-.LFB1109
 11355 0cef 18       		.uleb128 .LEHE585-.LEHB585
 11356 0cf0 00       		.uleb128 0
 11357 0cf1 00       		.uleb128 0
 11358 0cf2 A304     		.uleb128 .LEHB586-.LFB1109
 11359 0cf4 1C       		.uleb128 .LEHE586-.LEHB586
 11360 0cf5 E80B     		.uleb128 .L833-.LFB1109
 11361 0cf7 01       		.uleb128 0x1
 11362 0cf8 C604     		.uleb128 .LEHB587-.LFB1109
 11363 0cfa 1C       		.uleb128 .LEHE587-.LEHB587
 11364 0cfb E60B     		.uleb128 .L834-.LFB1109
 11365 0cfd 03       		.uleb128 0x3
 11366 0cfe E904     		.uleb128 .LEHB588-.LFB1109
 11367 0d00 18       		.uleb128 .LEHE588-.LEHB588
 11368 0d01 00       		.uleb128 0
 11369 0d02 00       		.uleb128 0
 11370 0d03 8405     		.uleb128 .LEHB589-.LFB1109
 11371 0d05 1C       		.uleb128 .LEHE589-.LEHB589
 11372 0d06 C70C     		.uleb128 .L836-.LFB1109
 11373 0d08 01       		.uleb128 0x1
 11374 0d09 A705     		.uleb128 .LEHB590-.LFB1109
 11375 0d0b 1C       		.uleb128 .LEHE590-.LEHB590
 11376 0d0c C50C     		.uleb128 .L837-.LFB1109
 11377 0d0e 03       		.uleb128 0x3
 11378 0d0f CA05     		.uleb128 .LEHB591-.LFB1109
 11379 0d11 18       		.uleb128 .LEHE591-.LEHB591
 11380 0d12 00       		.uleb128 0
 11381 0d13 00       		.uleb128 0
 11382 0d14 E505     		.uleb128 .LEHB592-.LFB1109
 11383 0d16 1C       		.uleb128 .LEHE592-.LEHB592
 11384 0d17 A60D     		.uleb128 .L839-.LFB1109
 11385 0d19 01       		.uleb128 0x1
 11386 0d1a 8806     		.uleb128 .LEHB593-.LFB1109
 11387 0d1c 1C       		.uleb128 .LEHE593-.LEHB593
 11388 0d1d A40D     		.uleb128 .L840-.LFB1109
 11389 0d1f 03       		.uleb128 0x3
 11390 0d20 AB06     		.uleb128 .LEHB594-.LFB1109
 11391 0d22 18       		.uleb128 .LEHE594-.LEHB594
 11392 0d23 00       		.uleb128 0
 11393 0d24 00       		.uleb128 0
 11394 0d25 C606     		.uleb128 .LEHB595-.LFB1109
 11395 0d27 1C       		.uleb128 .LEHE595-.LEHB595
 11396 0d28 850E     		.uleb128 .L842-.LFB1109
 11397 0d2a 01       		.uleb128 0x1
 11398 0d2b E906     		.uleb128 .LEHB596-.LFB1109
 11399 0d2d 1C       		.uleb128 .LEHE596-.LEHB596
 11400 0d2e 830E     		.uleb128 .L843-.LFB1109
 11401 0d30 03       		.uleb128 0x3
 11402 0d31 8C07     		.uleb128 .LEHB597-.LFB1109
 11403 0d33 18       		.uleb128 .LEHE597-.LEHB597
 11404 0d34 00       		.uleb128 0
 11405 0d35 00       		.uleb128 0
 11406 0d36 A707     		.uleb128 .LEHB598-.LFB1109
 11407 0d38 1C       		.uleb128 .LEHE598-.LEHB598
 11408 0d39 E40E     		.uleb128 .L845-.LFB1109
 11409 0d3b 01       		.uleb128 0x1
 11410 0d3c CA07     		.uleb128 .LEHB599-.LFB1109
 11411 0d3e 1C       		.uleb128 .LEHE599-.LEHB599
 11412 0d3f E20E     		.uleb128 .L846-.LFB1109
 11413 0d41 03       		.uleb128 0x3
 11414 0d42 ED07     		.uleb128 .LEHB600-.LFB1109
 11415 0d44 05       		.uleb128 .LEHE600-.LEHB600
 11416 0d45 00       		.uleb128 0
 11417 0d46 00       		.uleb128 0
 11418 0d47 9508     		.uleb128 .LEHB601-.LFB1109
 11419 0d49 38       		.uleb128 .LEHE601-.LEHB601
 11420 0d4a D708     		.uleb128 .L820-.LFB1109
 11421 0d4c 00       		.uleb128 0
 11422 0d4d CD08     		.uleb128 .LEHB602-.LFB1109
 11423 0d4f 05       		.uleb128 .LEHE602-.LEHB602
 11424 0d50 00       		.uleb128 0
 11425 0d51 00       		.uleb128 0
 11426 0d52 E508     		.uleb128 .LEHB603-.LFB1109
 11427 0d54 05       		.uleb128 .LEHE603-.LEHB603
 11428 0d55 00       		.uleb128 0
 11429 0d56 00       		.uleb128 0
 11430 0d57 F408     		.uleb128 .LEHB604-.LFB1109
 11431 0d59 38       		.uleb128 .LEHE604-.LEHB604
 11432 0d5a B609     		.uleb128 .L823-.LFB1109
 11433 0d5c 00       		.uleb128 0
 11434 0d5d AC09     		.uleb128 .LEHB605-.LFB1109
 11435 0d5f 05       		.uleb128 .LEHE605-.LEHB605
 11436 0d60 00       		.uleb128 0
 11437 0d61 00       		.uleb128 0
 11438 0d62 C409     		.uleb128 .LEHB606-.LFB1109
 11439 0d64 05       		.uleb128 .LEHE606-.LEHB606
 11440 0d65 00       		.uleb128 0
 11441 0d66 00       		.uleb128 0
 11442 0d67 D309     		.uleb128 .LEHB607-.LFB1109
 11443 0d69 38       		.uleb128 .LEHE607-.LEHB607
 11444 0d6a 950A     		.uleb128 .L826-.LFB1109
 11445 0d6c 00       		.uleb128 0
 11446 0d6d 8B0A     		.uleb128 .LEHB608-.LFB1109
 11447 0d6f 05       		.uleb128 .LEHE608-.LEHB608
 11448 0d70 00       		.uleb128 0
 11449 0d71 00       		.uleb128 0
 11450 0d72 A30A     		.uleb128 .LEHB609-.LFB1109
 11451 0d74 05       		.uleb128 .LEHE609-.LEHB609
 11452 0d75 00       		.uleb128 0
 11453 0d76 00       		.uleb128 0
 11454 0d77 B20A     		.uleb128 .LEHB610-.LFB1109
 11455 0d79 38       		.uleb128 .LEHE610-.LEHB610
 11456 0d7a F40A     		.uleb128 .L829-.LFB1109
 11457 0d7c 00       		.uleb128 0
 11458 0d7d EA0A     		.uleb128 .LEHB611-.LFB1109
 11459 0d7f 05       		.uleb128 .LEHE611-.LEHB611
 11460 0d80 00       		.uleb128 0
 11461 0d81 00       		.uleb128 0
 11462 0d82 820B     		.uleb128 .LEHB612-.LFB1109
 11463 0d84 05       		.uleb128 .LEHE612-.LEHB612
 11464 0d85 00       		.uleb128 0
 11465 0d86 00       		.uleb128 0
 11466 0d87 910B     		.uleb128 .LEHB613-.LFB1109
 11467 0d89 38       		.uleb128 .LEHE613-.LEHB613
 11468 0d8a D30B     		.uleb128 .L832-.LFB1109
 11469 0d8c 00       		.uleb128 0
 11470 0d8d C90B     		.uleb128 .LEHB614-.LFB1109
 11471 0d8f 05       		.uleb128 .LEHE614-.LEHB614
 11472 0d90 00       		.uleb128 0
 11473 0d91 00       		.uleb128 0
 11474 0d92 E10B     		.uleb128 .LEHB615-.LFB1109
 11475 0d94 05       		.uleb128 .LEHE615-.LEHB615
 11476 0d95 00       		.uleb128 0
 11477 0d96 00       		.uleb128 0
 11478 0d97 F00B     		.uleb128 .LEHB616-.LFB1109
 11479 0d99 38       		.uleb128 .LEHE616-.LEHB616
 11480 0d9a B20C     		.uleb128 .L835-.LFB1109
 11481 0d9c 00       		.uleb128 0
 11482 0d9d A80C     		.uleb128 .LEHB617-.LFB1109
 11483 0d9f 05       		.uleb128 .LEHE617-.LEHB617
 11484 0da0 00       		.uleb128 0
 11485 0da1 00       		.uleb128 0
 11486 0da2 C00C     		.uleb128 .LEHB618-.LFB1109
 11487 0da4 05       		.uleb128 .LEHE618-.LEHB618
 11488 0da5 00       		.uleb128 0
 11489 0da6 00       		.uleb128 0
 11490 0da7 CF0C     		.uleb128 .LEHB619-.LFB1109
 11491 0da9 38       		.uleb128 .LEHE619-.LEHB619
 11492 0daa 910D     		.uleb128 .L838-.LFB1109
 11493 0dac 00       		.uleb128 0
 11494 0dad 870D     		.uleb128 .LEHB620-.LFB1109
 11495 0daf 05       		.uleb128 .LEHE620-.LEHB620
 11496 0db0 00       		.uleb128 0
 11497 0db1 00       		.uleb128 0
 11498 0db2 9F0D     		.uleb128 .LEHB621-.LFB1109
 11499 0db4 05       		.uleb128 .LEHE621-.LEHB621
 11500 0db5 00       		.uleb128 0
 11501 0db6 00       		.uleb128 0
 11502 0db7 AE0D     		.uleb128 .LEHB622-.LFB1109
 11503 0db9 38       		.uleb128 .LEHE622-.LEHB622
 11504 0dba F00D     		.uleb128 .L841-.LFB1109
 11505 0dbc 00       		.uleb128 0
 11506 0dbd E60D     		.uleb128 .LEHB623-.LFB1109
 11507 0dbf 05       		.uleb128 .LEHE623-.LEHB623
 11508 0dc0 00       		.uleb128 0
 11509 0dc1 00       		.uleb128 0
 11510 0dc2 FE0D     		.uleb128 .LEHB624-.LFB1109
 11511 0dc4 05       		.uleb128 .LEHE624-.LEHB624
 11512 0dc5 00       		.uleb128 0
 11513 0dc6 00       		.uleb128 0
 11514 0dc7 8D0E     		.uleb128 .LEHB625-.LFB1109
 11515 0dc9 38       		.uleb128 .LEHE625-.LEHB625
 11516 0dca CF0E     		.uleb128 .L844-.LFB1109
 11517 0dcc 00       		.uleb128 0
 11518 0dcd C50E     		.uleb128 .LEHB626-.LFB1109
 11519 0dcf 05       		.uleb128 .LEHE626-.LEHB626
 11520 0dd0 00       		.uleb128 0
 11521 0dd1 00       		.uleb128 0
 11522 0dd2 DD0E     		.uleb128 .LEHB627-.LFB1109
 11523 0dd4 05       		.uleb128 .LEHE627-.LEHB627
 11524 0dd5 00       		.uleb128 0
 11525 0dd6 00       		.uleb128 0
 11526 0dd7 EC0E     		.uleb128 .LEHB628-.LFB1109
 11527 0dd9 38       		.uleb128 .LEHE628-.LEHB628
 11528 0dda AE0F     		.uleb128 .L847-.LFB1109
 11529 0ddc 00       		.uleb128 0
 11530 0ddd A40F     		.uleb128 .LEHB629-.LFB1109
 11531 0ddf 05       		.uleb128 .LEHE629-.LEHB629
 11532 0de0 00       		.uleb128 0
 11533 0de1 00       		.uleb128 0
 11534 0de2 BC0F     		.uleb128 .LEHB630-.LFB1109
 11535 0de4 05       		.uleb128 .LEHE630-.LEHB630
 11536 0de5 00       		.uleb128 0
 11537 0de6 00       		.uleb128 0
 11538              	.LLSDACSE1109:
 11539 0de7 01       		.byte	0x1
 11540 0de8 00       		.byte	0
 11541 0de9 00       		.byte	0
 11542 0dea 7D       		.byte	0x7d
 11543 0deb 00       		.align 4
 11544 0dec 00000000 		.long	0
 11545              	
 11546              	.LLSDATT1109:
 11547              		.text
 11549              		.section	.rodata
 11550              	.LC57:
 11551 0c37 51756575 		.string	"Queue_testAllocFreeMatching"
 11551      655F7465 
 11551      7374416C 
 11551      6C6F6346 
 11551      7265654D 
 11552              		.section	.text._ZN31TestQueue_testAllocFreeMatchingC2Ev,"axG",@progbits,_ZN31TestQueue_testAllocFr
 11553              		.align 2
 11554              		.weak	_ZN31TestQueue_testAllocFreeMatchingC2Ev
 11556              	_ZN31TestQueue_testAllocFreeMatchingC2Ev:
 11557              	.LFB1111:
 383:testCore.cpp  **** 
 384:testCore.cpp  **** TEST(Queue_testAllocFreeMatching) {
 11558              		.loc 3 384 0
 11559              		.cfi_startproc
 11560 0000 55       		pushq	%rbp
 11561              		.cfi_def_cfa_offset 16
 11562              		.cfi_offset 6, -16
 11563 0001 4889E5   		movq	%rsp, %rbp
 11564              		.cfi_def_cfa_register 6
 11565 0004 4883EC10 		subq	$16, %rsp
 11566 0008 48897DF8 		movq	%rdi, -8(%rbp)
 11567              	.LBB11:
 11568              		.loc 3 384 0
 11569 000c E8000000 		call	_ZN13UnitTestSuite12GetSuiteNameEv
 11569      00
 11570 0011 4889C2   		movq	%rax, %rdx
 11571 0014 488B45F8 		movq	-8(%rbp), %rax
 11572 0018 41B88001 		movl	$384, %r8d
 11572      0000
 11573 001e B9000000 		movl	$.LC1, %ecx
 11573      00
 11574 0023 BE000000 		movl	$.LC57, %esi
 11574      00
 11575 0028 4889C7   		movq	%rax, %rdi
 11576 002b E8000000 		call	_ZN8UnitTest4TestC2EPKcS2_S2_i
 11576      00
 11577 0030 BA000000 		movl	$_ZTV31TestQueue_testAllocFreeMatching+16, %edx
 11577      00
 11578 0035 488B45F8 		movq	-8(%rbp), %rax
 11579 0039 488910   		movq	%rdx, (%rax)
 11580              	.LBE11:
 11581 003c 90       		nop
 11582 003d C9       		leave
 11583              		.cfi_def_cfa 7, 8
 11584 003e C3       		ret
 11585              		.cfi_endproc
 11586              	.LFE1111:
 11588              		.weak	_ZN31TestQueue_testAllocFreeMatchingC1Ev
 11589              		.set	_ZN31TestQueue_testAllocFreeMatchingC1Ev,_ZN31TestQueue_testAllocFreeMatchingC2Ev
 11590              		.globl	testQueue_testAllocFreeMatchingInstance
 11591              		.bss
 11592 01b9 00000000 		.align 32
 11592      000000
 11595              	testQueue_testAllocFreeMatchingInstance:
 11596 01c0 00000000 		.zero	56
 11596      00000000 
 11596      00000000 
 11596      00000000 
 11596      00000000 
 11597              		.globl	adderQueue_testAllocFreeMatching
 11600              	adderQueue_testAllocFreeMatching:
 11601 01f8 00       		.zero	1
 11602              		.section	.rodata
 11603 0c53 00000000 		.align 8
 11603      00
 11604              	.LC58:
 11605 0c58 556E6861 		.string	"Unhandled exception in CHECK_EQUAL(0, m_allocFree)"
 11605      6E646C65 
 11605      64206578 
 11605      63657074 
 11605      696F6E20 
 11606              		.text
 11607              		.align 2
 11608              		.globl	_ZNK31TestQueue_testAllocFreeMatching7RunImplEv
 11610              	_ZNK31TestQueue_testAllocFreeMatching7RunImplEv:
 11611              	.LFB1113:
 11612              		.loc 3 384 0
 11613              		.cfi_startproc
 11614              		.cfi_personality 0x3,__gxx_personality_v0
 11615              		.cfi_lsda 0x3,.LLSDA1113
 11616 5596 55       		pushq	%rbp
 11617              		.cfi_def_cfa_offset 16
 11618              		.cfi_offset 6, -16
 11619 5597 4889E5   		movq	%rsp, %rbp
 11620              		.cfi_def_cfa_register 6
 11621 559a 53       		pushq	%rbx
 11622 559b 4883EC58 		subq	$88, %rsp
 11623              		.cfi_offset 3, -24
 11624 559f 48897DA8 		movq	%rdi, -88(%rbp)
 11625              		.loc 3 384 0
 11626 55a3 64488B04 		movq	%fs:40, %rax
 11626      25280000 
 11626      00
 11627 55ac 488945E8 		movq	%rax, -24(%rbp)
 11628 55b0 31C0     		xorl	%eax, %eax
 11629              	.LEHB631:
 385:testCore.cpp  **** 	CHECK_EQUAL(0, m_allocFree);
 11630              		.loc 3 385 0
 11631 55b2 E8000000 		call	_ZN8UnitTest11CurrentTest7DetailsEv
 11631      00
 11632 55b7 488B08   		movq	(%rax), %rcx
 11633 55ba 488D45C0 		leaq	-64(%rbp), %rax
 11634 55be BA810100 		movl	$385, %edx
 11634      00
 11635 55c3 4889CE   		movq	%rcx, %rsi
 11636 55c6 4889C7   		movq	%rax, %rdi
 11637 55c9 E8000000 		call	_ZN8UnitTest11TestDetailsC1ERKS0_i
 11637      00
 11638              	.LEHE631:
 11639              		.loc 3 385 0 is_stmt 0 discriminator 2
 11640 55ce C745BC00 		movl	$0, -68(%rbp)
 11640      000000
 11641              	.LEHB632:
 11642 55d5 E8000000 		call	_ZN8UnitTest11CurrentTest7ResultsEv
 11642      00
 11643 55da 488B00   		movq	(%rax), %rax
 11644 55dd 488D55C0 		leaq	-64(%rbp), %rdx
 11645 55e1 488D75BC 		leaq	-68(%rbp), %rsi
 11646 55e5 4889D1   		movq	%rdx, %rcx
 11647 55e8 BA000000 		movl	$_ZL11m_allocFree, %edx
 11647      00
 11648 55ed 4889C7   		movq	%rax, %rdi
 11649 55f0 E8000000 		call	_ZN8UnitTest10CheckEqualIiiEEvRNS_11TestResultsERKT_RKT0_RKNS_11TestDetailsE
 11649      00
 11650              	.LEHE632:
 386:testCore.cpp  **** }
 11651              		.loc 3 386 0 is_stmt 1
 11652 55f5 EB5C     		jmp	.L850
 11653              	.L857:
 11654 55f7 EB00     		jmp	.L852
 11655              	.L856:
 11656              	.L852:
 385:testCore.cpp  **** 	CHECK_EQUAL(0, m_allocFree);
 11657              		.loc 3 385 0
 11658 55f9 4889C7   		movq	%rax, %rdi
 11659 55fc E8000000 		call	__cxa_begin_catch
 11659      00
 11660              	.LEHB633:
 11661 5601 E8000000 		call	_ZN8UnitTest11CurrentTest7DetailsEv
 11661      00
 11662 5606 488B08   		movq	(%rax), %rcx
 11663 5609 488D45C0 		leaq	-64(%rbp), %rax
 11664 560d BA810100 		movl	$385, %edx
 11664      00
 11665 5612 4889CE   		movq	%rcx, %rsi
 11666 5615 4889C7   		movq	%rax, %rdi
 11667 5618 E8000000 		call	_ZN8UnitTest11TestDetailsC1ERKS0_i
 11667      00
 385:testCore.cpp  **** 	CHECK_EQUAL(0, m_allocFree);
 11668              		.loc 3 385 0 is_stmt 0 discriminator 10
 11669 561d E8000000 		call	_ZN8UnitTest11CurrentTest7ResultsEv
 11669      00
 11670 5622 488B00   		movq	(%rax), %rax
 11671 5625 488D4DC0 		leaq	-64(%rbp), %rcx
 11672 5629 BA000000 		movl	$.LC58, %edx
 11672      00
 11673 562e 4889CE   		movq	%rcx, %rsi
 11674 5631 4889C7   		movq	%rax, %rdi
 11675 5634 E8000000 		call	_ZN8UnitTest11TestResults13OnTestFailureERKNS_11TestDetailsEPKc
 11675      00
 11676              	.LEHE633:
 11677              	.LEHB634:
 385:testCore.cpp  **** 	CHECK_EQUAL(0, m_allocFree);
 11678              		.loc 3 385 0 discriminator 14
 11679 5639 E8000000 		call	__cxa_end_catch
 11679      00
 11680              	.LEHE634:
 11681              		.loc 3 386 0 is_stmt 1 discriminator 14
 11682 563e EB13     		jmp	.L850
 11683              	.L858:
 11684 5640 4889C3   		movq	%rax, %rbx
 385:testCore.cpp  **** 	CHECK_EQUAL(0, m_allocFree);
 11685              		.loc 3 385 0
 11686 5643 E8000000 		call	__cxa_end_catch
 11686      00
 11687 5648 4889D8   		movq	%rbx, %rax
 11688 564b 4889C7   		movq	%rax, %rdi
 11689              	.LEHB635:
 11690 564e E8000000 		call	_Unwind_Resume
 11690      00
 11691              	.LEHE635:
 11692              	.L850:
 11693              		.loc 3 386 0
 11694 5653 488B45E8 		movq	-24(%rbp), %rax
 11695 5657 64483304 		xorq	%fs:40, %rax
 11695      25280000 
 11695      00
 11696 5660 7405     		je	.L855
 11697 5662 E8000000 		call	__stack_chk_fail
 11697      00
 11698              	.L855:
 11699 5667 4883C458 		addq	$88, %rsp
 11700 566b 5B       		popq	%rbx
 11701 566c 5D       		popq	%rbp
 11702              		.cfi_def_cfa 7, 8
 11703 566d C3       		ret
 11704              		.cfi_endproc
 11705              	.LFE1113:
 11706              		.section	.gcc_except_table
 11707              		.align 4
 11708              	.LLSDA1113:
 11709 0df0 FF       		.byte	0xff
 11710 0df1 03       		.byte	0x3
 11711 0df2 21       		.uleb128 .LLSDATT1113-.LLSDATTD1113
 11712              	.LLSDATTD1113:
 11713 0df3 01       		.byte	0x1
 11714 0df4 17       		.uleb128 .LLSDACSE1113-.LLSDACSB1113
 11715              	.LLSDACSB1113:
 11716 0df5 1C       		.uleb128 .LEHB631-.LFB1113
 11717 0df6 1C       		.uleb128 .LEHE631-.LEHB631
 11718 0df7 63       		.uleb128 .L856-.LFB1113
 11719 0df8 01       		.uleb128 0x1
 11720 0df9 3F       		.uleb128 .LEHB632-.LFB1113
 11721 0dfa 20       		.uleb128 .LEHE632-.LEHB632
 11722 0dfb 61       		.uleb128 .L857-.LFB1113
 11723 0dfc 03       		.uleb128 0x3
 11724 0dfd 6B       		.uleb128 .LEHB633-.LFB1113
 11725 0dfe 38       		.uleb128 .LEHE633-.LEHB633
 11726 0dff AA01     		.uleb128 .L858-.LFB1113
 11727 0e01 00       		.uleb128 0
 11728 0e02 A301     		.uleb128 .LEHB634-.LFB1113
 11729 0e04 05       		.uleb128 .LEHE634-.LEHB634
 11730 0e05 00       		.uleb128 0
 11731 0e06 00       		.uleb128 0
 11732 0e07 B801     		.uleb128 .LEHB635-.LFB1113
 11733 0e09 05       		.uleb128 .LEHE635-.LEHB635
 11734 0e0a 00       		.uleb128 0
 11735 0e0b 00       		.uleb128 0
 11736              	.LLSDACSE1113:
 11737 0e0c 01       		.byte	0x1
 11738 0e0d 00       		.byte	0
 11739 0e0e 00       		.byte	0
 11740 0e0f 7D       		.byte	0x7d
 11741              		.align 4
 11742 0e10 00000000 		.long	0
 11743              	
 11744              	.LLSDATT1113:
 11745              		.text
 11747              		.section	.text._ZN8UnitTest15MemoryOutStreamD1Ev,"axG",@progbits,_ZN8UnitTest15MemoryOutStreamD1Ev
 11748              		.align 2
 11749              		.weak	_ZN8UnitTest15MemoryOutStreamD1Ev
 11751              	_ZN8UnitTest15MemoryOutStreamD1Ev:
 11752              	.LFB1144:
  13:/home/shubham/20140524/makestuff/libs/libutpp/MemoryOutStream.h **** {
 11753              		.loc 2 13 0
 11754              		.cfi_startproc
 11755              		.cfi_personality 0x3,__gxx_personality_v0
 11756              		.cfi_lsda 0x3,.LLSDA1144
 11757 0000 55       		pushq	%rbp
 11758              		.cfi_def_cfa_offset 16
 11759              		.cfi_offset 6, -16
 11760 0001 4889E5   		movq	%rsp, %rbp
 11761              		.cfi_def_cfa_register 6
 11762 0004 53       		pushq	%rbx
 11763 0005 4883EC18 		subq	$24, %rsp
 11764              		.cfi_offset 3, -24
 11765 0009 48897DE8 		movq	%rdi, -24(%rbp)
 11766              	.LBB12:
  13:/home/shubham/20140524/makestuff/libs/libutpp/MemoryOutStream.h **** {
 11767              		.loc 2 13 0
 11768 000d BA000000 		movl	$_ZTVN8UnitTest15MemoryOutStreamE+24, %edx
 11768      00
 11769 0012 488B45E8 		movq	-24(%rbp), %rax
 11770 0016 488910   		movq	%rdx, (%rax)
 11771 0019 BA900000 		movl	$144, %edx
 11771      00
 11772 001e 488B45E8 		movq	-24(%rbp), %rax
 11773 0022 4801D0   		addq	%rdx, %rax
 11774 0025 BA000000 		movl	$_ZTVN8UnitTest15MemoryOutStreamE+64, %edx
 11774      00
 11775 002a 488910   		movq	%rdx, (%rax)
 11776 002d 488B45E8 		movq	-24(%rbp), %rax
 11777 0031 4883C070 		addq	$112, %rax
 11778 0035 4889C7   		movq	%rax, %rdi
 11779              	.LEHB636:
 11780 0038 E8000000 		call	_ZNSt7__cxx1112basic_stringIcSt11char_traitsIcESaIcEED1Ev
 11780      00
 11781              	.LEHE636:
  13:/home/shubham/20140524/makestuff/libs/libutpp/MemoryOutStream.h **** {
 11782              		.loc 2 13 0 is_stmt 0 discriminator 14
 11783 003d BA000000 		movl	$_ZTTN8UnitTest15MemoryOutStreamE+8, %edx
 11783      00
 11784 0042 488B45E8 		movq	-24(%rbp), %rax
 11785 0046 4889D6   		movq	%rdx, %rsi
 11786 0049 4889C7   		movq	%rax, %rdi
 11787              	.LEHB637:
 11788 004c E8000000 		call	_ZNSt7__cxx1119basic_ostringstreamIcSt11char_traitsIcESaIcEED2Ev
 11788      00
 11789              	.LEHE637:
  13:/home/shubham/20140524/makestuff/libs/libutpp/MemoryOutStream.h **** {
 11790              		.loc 2 13 0 discriminator 20
 11791 0051 B8020000 		movl	$2, %eax
 11791      00
 11792 0056 85C0     		testl	%eax, %eax
 11793 0058 7412     		je	.L860
  13:/home/shubham/20140524/makestuff/libs/libutpp/MemoryOutStream.h **** {
 11794              		.loc 2 13 0 discriminator 21
 11795 005a 488B45E8 		movq	-24(%rbp), %rax
 11796 005e 48059000 		addq	$144, %rax
 11796      0000
 11797 0064 4889C7   		movq	%rax, %rdi
 11798              	.LEHB638:
 11799 0067 E8000000 		call	_ZNSt9basic_iosIcSt11char_traitsIcEED2Ev
 11799      00
 11800              	.LEHE638:
 11801              	.L860:
 11802              	.LBE12:
  13:/home/shubham/20140524/makestuff/libs/libutpp/MemoryOutStream.h **** {
 11803              		.loc 2 13 0 discriminator 22
 11804 006c B8000000 		movl	$0, %eax
 11804      00
 11805 0071 85C0     		testl	%eax, %eax
 11806 0073 7450     		je	.L859
  13:/home/shubham/20140524/makestuff/libs/libutpp/MemoryOutStream.h **** {
 11807              		.loc 2 13 0 discriminator 25
 11808 0075 488B45E8 		movq	-24(%rbp), %rax
 11809 0079 4889C7   		movq	%rax, %rdi
 11810 007c E8000000 		call	_ZdlPv
 11810      00
 11811 0081 EB42     		jmp	.L859
 11812              	.L865:
 11813 0083 4889C3   		movq	%rax, %rbx
 11814              	.LBB13:
  13:/home/shubham/20140524/makestuff/libs/libutpp/MemoryOutStream.h **** {
 11815              		.loc 2 13 0
 11816 0086 BA000000 		movl	$_ZTTN8UnitTest15MemoryOutStreamE+8, %edx
 11816      00
 11817 008b 488B45E8 		movq	-24(%rbp), %rax
 11818 008f 4889D6   		movq	%rdx, %rsi
 11819 0092 4889C7   		movq	%rax, %rdi
 11820 0095 E8000000 		call	_ZNSt7__cxx1119basic_ostringstreamIcSt11char_traitsIcESaIcEED2Ev
 11820      00
 11821 009a EB03     		jmp	.L863
 11822              	.L866:
 11823 009c 4889C3   		movq	%rax, %rbx
 11824              	.L863:
  13:/home/shubham/20140524/makestuff/libs/libutpp/MemoryOutStream.h **** {
 11825              		.loc 2 13 0 discriminator 19
 11826 009f B8020000 		movl	$2, %eax
 11826      00
 11827 00a4 85C0     		testl	%eax, %eax
 11828 00a6 7412     		je	.L864
  13:/home/shubham/20140524/makestuff/libs/libutpp/MemoryOutStream.h **** {
 11829              		.loc 2 13 0 discriminator 32
 11830 00a8 488B45E8 		movq	-24(%rbp), %rax
 11831 00ac 48059000 		addq	$144, %rax
 11831      0000
 11832 00b2 4889C7   		movq	%rax, %rdi
 11833 00b5 E8000000 		call	_ZNSt9basic_iosIcSt11char_traitsIcEED2Ev
 11833      00
 11834              	.L864:
 11835 00ba 4889D8   		movq	%rbx, %rax
 11836 00bd 4889C7   		movq	%rax, %rdi
 11837              	.LEHB639:
 11838 00c0 E8000000 		call	_Unwind_Resume
 11838      00
 11839              	.LEHE639:
 11840              	.L859:
 11841              	.LBE13:
  13:/home/shubham/20140524/makestuff/libs/libutpp/MemoryOutStream.h **** {
 11842              		.loc 2 13 0
 11843 00c5 4883C418 		addq	$24, %rsp
 11844 00c9 5B       		popq	%rbx
 11845 00ca 5D       		popq	%rbp
 11846              		.cfi_def_cfa 7, 8
 11847 00cb C3       		ret
 11848              		.cfi_endproc
 11849              	.LFE1144:
 11850              		.section	.gcc_except_table
 11851              	.LLSDA1144:
 11852 0e14 FF       		.byte	0xff
 11853 0e15 FF       		.byte	0xff
 11854 0e16 01       		.byte	0x1
 11855 0e17 13       		.uleb128 .LLSDACSE1144-.LLSDACSB1144
 11856              	.LLSDACSB1144:
 11857 0e18 38       		.uleb128 .LEHB636-.LFB1144
 11858 0e19 05       		.uleb128 .LEHE636-.LEHB636
 11859 0e1a 8301     		.uleb128 .L865-.LFB1144
 11860 0e1c 00       		.uleb128 0
 11861 0e1d 4C       		.uleb128 .LEHB637-.LFB1144
 11862 0e1e 05       		.uleb128 .LEHE637-.LEHB637
 11863 0e1f 9C01     		.uleb128 .L866-.LFB1144
 11864 0e21 00       		.uleb128 0
 11865 0e22 67       		.uleb128 .LEHB638-.LFB1144
 11866 0e23 05       		.uleb128 .LEHE638-.LEHB638
 11867 0e24 00       		.uleb128 0
 11868 0e25 00       		.uleb128 0
 11869 0e26 C001     		.uleb128 .LEHB639-.LFB1144
 11870 0e28 05       		.uleb128 .LEHE639-.LEHB639
 11871 0e29 00       		.uleb128 0
 11872 0e2a 00       		.uleb128 0
 11873              	.LLSDACSE1144:
 11874              		.section	.text._ZN8UnitTest15MemoryOutStreamD1Ev,"axG",@progbits,_ZN8UnitTest15MemoryOutStreamD1Ev
 11876              		.set	.LTHUNK0,_ZN8UnitTest15MemoryOutStreamD1Ev
 11877              		.weak	_ZTv0_n24_N8UnitTest15MemoryOutStreamD1Ev
 11879              	_ZTv0_n24_N8UnitTest15MemoryOutStreamD1Ev:
 11880              	.LFB1237:
  13:/home/shubham/20140524/makestuff/libs/libutpp/MemoryOutStream.h **** {
 11881              		.loc 2 13 0 is_stmt 1
 11882              		.cfi_startproc
 11883 00cc 4C8B17   		movq	(%rdi), %r10
 11884 00cf 49037AE8 		addq	-24(%r10), %rdi
 11885 00d3 E928FFFF 		jmp	.LTHUNK0
 11885      FF
 11886              		.cfi_endproc
 11887              	.LFE1237:
 11889              		.section	.text._ZN8UnitTest15MemoryOutStreamD0Ev,"axG",@progbits,_ZN8UnitTest15MemoryOutStreamD0Ev
 11890              		.align 2
 11891              		.weak	_ZN8UnitTest15MemoryOutStreamD0Ev
 11893              	_ZN8UnitTest15MemoryOutStreamD0Ev:
 11894              	.LFB1145:
  13:/home/shubham/20140524/makestuff/libs/libutpp/MemoryOutStream.h **** {
 11895              		.loc 2 13 0
 11896              		.cfi_startproc
 11897 0000 55       		pushq	%rbp
 11898              		.cfi_def_cfa_offset 16
 11899              		.cfi_offset 6, -16
 11900 0001 4889E5   		movq	%rsp, %rbp
 11901              		.cfi_def_cfa_register 6
 11902 0004 4883EC10 		subq	$16, %rsp
 11903 0008 48897DF8 		movq	%rdi, -8(%rbp)
  13:/home/shubham/20140524/makestuff/libs/libutpp/MemoryOutStream.h **** {
 11904              		.loc 2 13 0
 11905 000c 488B45F8 		movq	-8(%rbp), %rax
 11906 0010 4889C7   		movq	%rax, %rdi
 11907 0013 E8000000 		call	_ZN8UnitTest15MemoryOutStreamD1Ev
 11907      00
 11908 0018 488B45F8 		movq	-8(%rbp), %rax
 11909 001c 4889C7   		movq	%rax, %rdi
 11910 001f E8000000 		call	_ZdlPv
 11910      00
 11911 0024 C9       		leave
 11912              		.cfi_def_cfa 7, 8
 11913 0025 C3       		ret
 11914              		.cfi_endproc
 11915              	.LFE1145:
 11917              		.set	.LTHUNK1,_ZN8UnitTest15MemoryOutStreamD0Ev
 11918              		.weak	_ZTv0_n24_N8UnitTest15MemoryOutStreamD0Ev
 11920              	_ZTv0_n24_N8UnitTest15MemoryOutStreamD0Ev:
 11921              	.LFB1238:
  13:/home/shubham/20140524/makestuff/libs/libutpp/MemoryOutStream.h **** {
 11922              		.loc 2 13 0
 11923              		.cfi_startproc
 11924 0026 4C8B17   		movq	(%rdi), %r10
 11925 0029 49037AE8 		addq	-24(%r10), %rdi
 11926 002d EBD1     		jmp	.LTHUNK1
 11927              		.cfi_endproc
 11928              	.LFE1238:
 11930              		.section	.rodata
 11931              	.LC59:
 11932 0c8b 45787065 		.string	"Expected "
 11932      63746564 
 11932      2000
 11933              	.LC60:
 11934 0c95 20627574 		.string	" but was "
 11934      20776173 
 11934      2000
 11935              		.section	.text._ZN8UnitTest10CheckEqualI9USBStatusS1_EEvRNS_11TestResultsERKT_RKT0_RKNS_11TestDeta
 11936              		.weak	_ZN8UnitTest10CheckEqualI9USBStatusS1_EEvRNS_11TestResultsERKT_RKT0_RKNS_11TestDetailsE
 11938              	_ZN8UnitTest10CheckEqualI9USBStatusS1_EEvRNS_11TestResultsERKT_RKT0_RKNS_11TestDetailsE:
 11939              	.LFB1141:
 11940              		.file 4 "/home/shubham/20140524/makestuff/libs/libutpp/Checks.h"
   1:/home/shubham/20140524/makestuff/libs/libutpp/Checks.h **** #ifndef UNITTEST_CHECKS_H
   2:/home/shubham/20140524/makestuff/libs/libutpp/Checks.h **** #define UNITTEST_CHECKS_H
   3:/home/shubham/20140524/makestuff/libs/libutpp/Checks.h **** 
   4:/home/shubham/20140524/makestuff/libs/libutpp/Checks.h **** #include "Config.h"
   5:/home/shubham/20140524/makestuff/libs/libutpp/Checks.h **** #include "TestResults.h"
   6:/home/shubham/20140524/makestuff/libs/libutpp/Checks.h **** #include "MemoryOutStream.h"
   7:/home/shubham/20140524/makestuff/libs/libutpp/Checks.h **** 
   8:/home/shubham/20140524/makestuff/libs/libutpp/Checks.h **** namespace UnitTest {
   9:/home/shubham/20140524/makestuff/libs/libutpp/Checks.h **** 
  10:/home/shubham/20140524/makestuff/libs/libutpp/Checks.h **** 
  11:/home/shubham/20140524/makestuff/libs/libutpp/Checks.h **** template< typename Value >
  12:/home/shubham/20140524/makestuff/libs/libutpp/Checks.h **** bool Check(Value const value)
  13:/home/shubham/20140524/makestuff/libs/libutpp/Checks.h **** {
  14:/home/shubham/20140524/makestuff/libs/libutpp/Checks.h ****     return !!value; // doing double negative to avoid silly VS warnings
  15:/home/shubham/20140524/makestuff/libs/libutpp/Checks.h **** }
  16:/home/shubham/20140524/makestuff/libs/libutpp/Checks.h **** 
  17:/home/shubham/20140524/makestuff/libs/libutpp/Checks.h **** 
  18:/home/shubham/20140524/makestuff/libs/libutpp/Checks.h **** template< typename Expected, typename Actual >
  19:/home/shubham/20140524/makestuff/libs/libutpp/Checks.h **** void CheckEqual(TestResults& results, Expected const& expected, Actual const& actual, TestDetails c
 11941              		.loc 4 19 0
 11942              		.cfi_startproc
 11943              		.cfi_personality 0x3,__gxx_personality_v0
 11944              		.cfi_lsda 0x3,.LLSDA1141
 11945 0000 55       		pushq	%rbp
 11946              		.cfi_def_cfa_offset 16
 11947              		.cfi_offset 6, -16
 11948 0001 4889E5   		movq	%rsp, %rbp
 11949              		.cfi_def_cfa_register 6
 11950 0004 4154     		pushq	%r12
 11951 0006 53       		pushq	%rbx
 11952 0007 4881ECC0 		subq	$448, %rsp
 11952      010000
 11953              		.cfi_offset 12, -24
 11954              		.cfi_offset 3, -32
 11955 000e 4889BD48 		movq	%rdi, -440(%rbp)
 11955      FEFFFF
 11956 0015 4889B540 		movq	%rsi, -448(%rbp)
 11956      FEFFFF
 11957 001c 48899538 		movq	%rdx, -456(%rbp)
 11957      FEFFFF
 11958 0023 48898D30 		movq	%rcx, -464(%rbp)
 11958      FEFFFF
 11959              		.loc 4 19 0
 11960 002a 64488B04 		movq	%fs:40, %rax
 11960      25280000 
 11960      00
 11961 0033 488945E8 		movq	%rax, -24(%rbp)
 11962 0037 31C0     		xorl	%eax, %eax
 11963              	.LBB14:
  20:/home/shubham/20140524/makestuff/libs/libutpp/Checks.h **** {
  21:/home/shubham/20140524/makestuff/libs/libutpp/Checks.h ****     if (!(expected == actual))
 11964              		.loc 4 21 0
 11965 0039 488B8540 		movq	-448(%rbp), %rax
 11965      FEFFFF
 11966 0040 8B10     		movl	(%rax), %edx
 11967 0042 488B8538 		movq	-456(%rbp), %rax
 11967      FEFFFF
 11968 0049 8B00     		movl	(%rax), %eax
 11969 004b 39C2     		cmpl	%eax, %edx
 11970 004d 0F84B500 		je	.L873
 11970      0000
 11971              	.LBB15:
  22:/home/shubham/20140524/makestuff/libs/libutpp/Checks.h ****     {
  23:/home/shubham/20140524/makestuff/libs/libutpp/Checks.h ****         UnitTest::MemoryOutStream stream;
 11972              		.loc 4 23 0
 11973 0053 488D8550 		leaq	-432(%rbp), %rax
 11973      FEFFFF
 11974 005a 4889C7   		movq	%rax, %rdi
 11975              	.LEHB640:
 11976 005d E8000000 		call	_ZN8UnitTest15MemoryOutStreamC1Ev
 11976      00
 11977              	.LEHE640:
  24:/home/shubham/20140524/makestuff/libs/libutpp/Checks.h ****         stream << "Expected " << expected << " but was " << actual;
 11978              		.loc 4 24 0
 11979 0062 488B8538 		movq	-456(%rbp), %rax
 11979      FEFFFF
 11980 0069 8B00     		movl	(%rax), %eax
 11981 006b 89C3     		movl	%eax, %ebx
 11982 006d 488B8540 		movq	-448(%rbp), %rax
 11982      FEFFFF
 11983 0074 8B00     		movl	(%rax), %eax
 11984 0076 4189C4   		movl	%eax, %r12d
 11985 0079 488D8550 		leaq	-432(%rbp), %rax
 11985      FEFFFF
 11986 0080 BE000000 		movl	$.LC59, %esi
 11986      00
 11987 0085 4889C7   		movq	%rax, %rdi
 11988              	.LEHB641:
 11989 0088 E8000000 		call	_ZStlsISt11char_traitsIcEERSt13basic_ostreamIcT_ES5_PKc
 11989      00
 11990 008d 4489E6   		movl	%r12d, %esi
 11991 0090 4889C7   		movq	%rax, %rdi
 11992 0093 E8000000 		call	_ZNSolsEi
 11992      00
 11993              		.loc 4 24 0 is_stmt 0 discriminator 1
 11994 0098 BE000000 		movl	$.LC60, %esi
 11994      00
 11995 009d 4889C7   		movq	%rax, %rdi
 11996 00a0 E8000000 		call	_ZStlsISt11char_traitsIcEERSt13basic_ostreamIcT_ES5_PKc
 11996      00
 11997              		.loc 4 24 0 discriminator 2
 11998 00a5 89DE     		movl	%ebx, %esi
 11999 00a7 4889C7   		movq	%rax, %rdi
 12000 00aa E8000000 		call	_ZNSolsEi
 12000      00
  25:/home/shubham/20140524/makestuff/libs/libutpp/Checks.h **** 
  26:/home/shubham/20140524/makestuff/libs/libutpp/Checks.h ****         results.OnTestFailure(details, stream.GetText());
 12001              		.loc 4 26 0 is_stmt 1
 12002 00af 488D8550 		leaq	-432(%rbp), %rax
 12002      FEFFFF
 12003 00b6 4889C7   		movq	%rax, %rdi
 12004 00b9 E8000000 		call	_ZNK8UnitTest15MemoryOutStream7GetTextEv
 12004      00
 12005 00be 4889C2   		movq	%rax, %rdx
 12006 00c1 488B8D30 		movq	-464(%rbp), %rcx
 12006      FEFFFF
 12007 00c8 488B8548 		movq	-440(%rbp), %rax
 12007      FEFFFF
 12008 00cf 4889CE   		movq	%rcx, %rsi
 12009 00d2 4889C7   		movq	%rax, %rdi
 12010 00d5 E8000000 		call	_ZN8UnitTest11TestResults13OnTestFailureERKNS_11TestDetailsEPKc
 12010      00
 12011              	.LEHE641:
  23:/home/shubham/20140524/makestuff/libs/libutpp/Checks.h ****         stream << "Expected " << expected << " but was " << actual;
 12012              		.loc 4 23 0
 12013 00da 488D8550 		leaq	-432(%rbp), %rax
 12013      FEFFFF
 12014 00e1 4889C7   		movq	%rax, %rdi
 12015              	.LEHB642:
 12016 00e4 E8000000 		call	_ZN8UnitTest15MemoryOutStreamD1Ev
 12016      00
 12017              	.LEHE642:
 12018              	.LBE15:
 12019              	.LBE14:
  27:/home/shubham/20140524/makestuff/libs/libutpp/Checks.h ****     }
  28:/home/shubham/20140524/makestuff/libs/libutpp/Checks.h **** }
 12020              		.loc 4 28 0
 12021 00e9 EB1D     		jmp	.L873
 12022              	.L872:
 12023 00eb 4889C3   		movq	%rax, %rbx
 12024              	.LBB17:
 12025              	.LBB16:
  23:/home/shubham/20140524/makestuff/libs/libutpp/Checks.h ****         stream << "Expected " << expected << " but was " << actual;
 12026              		.loc 4 23 0
 12027 00ee 488D8550 		leaq	-432(%rbp), %rax
 12027      FEFFFF
 12028 00f5 4889C7   		movq	%rax, %rdi
 12029 00f8 E8000000 		call	_ZN8UnitTest15MemoryOutStreamD1Ev
 12029      00
 12030 00fd 4889D8   		movq	%rbx, %rax
 12031 0100 4889C7   		movq	%rax, %rdi
 12032              	.LEHB643:
 12033 0103 E8000000 		call	_Unwind_Resume
 12033      00
 12034              	.LEHE643:
 12035              	.L873:
 12036              	.LBE16:
 12037              	.LBE17:
 12038              		.loc 4 28 0
 12039 0108 90       		nop
 12040 0109 488B45E8 		movq	-24(%rbp), %rax
 12041 010d 64483304 		xorq	%fs:40, %rax
 12041      25280000 
 12041      00
 12042 0116 7405     		je	.L871
 12043 0118 E8000000 		call	__stack_chk_fail
 12043      00
 12044              	.L871:
 12045 011d 4881C4C0 		addq	$448, %rsp
 12045      010000
 12046 0124 5B       		popq	%rbx
 12047 0125 415C     		popq	%r12
 12048 0127 5D       		popq	%rbp
 12049              		.cfi_def_cfa 7, 8
 12050 0128 C3       		ret
 12051              		.cfi_endproc
 12052              	.LFE1141:
 12053              		.section	.gcc_except_table
 12054              	.LLSDA1141:
 12055 0e2b FF       		.byte	0xff
 12056 0e2c FF       		.byte	0xff
 12057 0e2d 01       		.byte	0x1
 12058 0e2e 14       		.uleb128 .LLSDACSE1141-.LLSDACSB1141
 12059              	.LLSDACSB1141:
 12060 0e2f 5D       		.uleb128 .LEHB640-.LFB1141
 12061 0e30 05       		.uleb128 .LEHE640-.LEHB640
 12062 0e31 00       		.uleb128 0
 12063 0e32 00       		.uleb128 0
 12064 0e33 8801     		.uleb128 .LEHB641-.LFB1141
 12065 0e35 52       		.uleb128 .LEHE641-.LEHB641
 12066 0e36 EB01     		.uleb128 .L872-.LFB1141
 12067 0e38 00       		.uleb128 0
 12068 0e39 E401     		.uleb128 .LEHB642-.LFB1141
 12069 0e3b 05       		.uleb128 .LEHE642-.LEHB642
 12070 0e3c 00       		.uleb128 0
 12071 0e3d 00       		.uleb128 0
 12072 0e3e 8302     		.uleb128 .LEHB643-.LFB1141
 12073 0e40 05       		.uleb128 .LEHE643-.LEHB643
 12074 0e41 00       		.uleb128 0
 12075 0e42 00       		.uleb128 0
 12076              	.LLSDACSE1141:
 12077              		.section	.text._ZN8UnitTest10CheckEqualI9USBStatusS1_EEvRNS_11TestResultsERKT_RKT0_RKNS_11TestDeta
 12079              		.section	.text._ZN8UnitTest10CheckEqualImmEEvRNS_11TestResultsERKT_RKT0_RKNS_11TestDetailsE,"axG",
 12080              		.weak	_ZN8UnitTest10CheckEqualImmEEvRNS_11TestResultsERKT_RKT0_RKNS_11TestDetailsE
 12082              	_ZN8UnitTest10CheckEqualImmEEvRNS_11TestResultsERKT_RKT0_RKNS_11TestDetailsE:
 12083              	.LFB1146:
  19:/home/shubham/20140524/makestuff/libs/libutpp/Checks.h **** {
 12084              		.loc 4 19 0
 12085              		.cfi_startproc
 12086              		.cfi_personality 0x3,__gxx_personality_v0
 12087              		.cfi_lsda 0x3,.LLSDA1146
 12088 0000 55       		pushq	%rbp
 12089              		.cfi_def_cfa_offset 16
 12090              		.cfi_offset 6, -16
 12091 0001 4889E5   		movq	%rsp, %rbp
 12092              		.cfi_def_cfa_register 6
 12093 0004 4154     		pushq	%r12
 12094 0006 53       		pushq	%rbx
 12095 0007 4881ECC0 		subq	$448, %rsp
 12095      010000
 12096              		.cfi_offset 12, -24
 12097              		.cfi_offset 3, -32
 12098 000e 4889BD48 		movq	%rdi, -440(%rbp)
 12098      FEFFFF
 12099 0015 4889B540 		movq	%rsi, -448(%rbp)
 12099      FEFFFF
 12100 001c 48899538 		movq	%rdx, -456(%rbp)
 12100      FEFFFF
 12101 0023 48898D30 		movq	%rcx, -464(%rbp)
 12101      FEFFFF
  19:/home/shubham/20140524/makestuff/libs/libutpp/Checks.h **** {
 12102              		.loc 4 19 0
 12103 002a 64488B04 		movq	%fs:40, %rax
 12103      25280000 
 12103      00
 12104 0033 488945E8 		movq	%rax, -24(%rbp)
 12105 0037 31C0     		xorl	%eax, %eax
 12106              	.LBB18:
  21:/home/shubham/20140524/makestuff/libs/libutpp/Checks.h ****     {
 12107              		.loc 4 21 0
 12108 0039 488B8540 		movq	-448(%rbp), %rax
 12108      FEFFFF
 12109 0040 488B10   		movq	(%rax), %rdx
 12110 0043 488B8538 		movq	-456(%rbp), %rax
 12110      FEFFFF
 12111 004a 488B00   		movq	(%rax), %rax
 12112 004d 4839C2   		cmpq	%rax, %rdx
 12113 0050 0F84B300 		je	.L879
 12113      0000
 12114              	.LBB19:
  23:/home/shubham/20140524/makestuff/libs/libutpp/Checks.h ****         stream << "Expected " << expected << " but was " << actual;
 12115              		.loc 4 23 0
 12116 0056 488D8550 		leaq	-432(%rbp), %rax
 12116      FEFFFF
 12117 005d 4889C7   		movq	%rax, %rdi
 12118              	.LEHB644:
 12119 0060 E8000000 		call	_ZN8UnitTest15MemoryOutStreamC1Ev
 12119      00
 12120              	.LEHE644:
  24:/home/shubham/20140524/makestuff/libs/libutpp/Checks.h **** 
 12121              		.loc 4 24 0
 12122 0065 488B8538 		movq	-456(%rbp), %rax
 12122      FEFFFF
 12123 006c 488B18   		movq	(%rax), %rbx
 12124 006f 488B8540 		movq	-448(%rbp), %rax
 12124      FEFFFF
 12125 0076 4C8B20   		movq	(%rax), %r12
 12126 0079 488D8550 		leaq	-432(%rbp), %rax
 12126      FEFFFF
 12127 0080 BE000000 		movl	$.LC59, %esi
 12127      00
 12128 0085 4889C7   		movq	%rax, %rdi
 12129              	.LEHB645:
 12130 0088 E8000000 		call	_ZStlsISt11char_traitsIcEERSt13basic_ostreamIcT_ES5_PKc
 12130      00
 12131 008d 4C89E6   		movq	%r12, %rsi
 12132 0090 4889C7   		movq	%rax, %rdi
 12133 0093 E8000000 		call	_ZNSolsEm
 12133      00
  24:/home/shubham/20140524/makestuff/libs/libutpp/Checks.h **** 
 12134              		.loc 4 24 0 is_stmt 0 discriminator 1
 12135 0098 BE000000 		movl	$.LC60, %esi
 12135      00
 12136 009d 4889C7   		movq	%rax, %rdi
 12137 00a0 E8000000 		call	_ZStlsISt11char_traitsIcEERSt13basic_ostreamIcT_ES5_PKc
 12137      00
  24:/home/shubham/20140524/makestuff/libs/libutpp/Checks.h **** 
 12138              		.loc 4 24 0 discriminator 2
 12139 00a5 4889DE   		movq	%rbx, %rsi
 12140 00a8 4889C7   		movq	%rax, %rdi
 12141 00ab E8000000 		call	_ZNSolsEm
 12141      00
  26:/home/shubham/20140524/makestuff/libs/libutpp/Checks.h ****     }
 12142              		.loc 4 26 0 is_stmt 1
 12143 00b0 488D8550 		leaq	-432(%rbp), %rax
 12143      FEFFFF
 12144 00b7 4889C7   		movq	%rax, %rdi
 12145 00ba E8000000 		call	_ZNK8UnitTest15MemoryOutStream7GetTextEv
 12145      00
 12146 00bf 4889C2   		movq	%rax, %rdx
 12147 00c2 488B8D30 		movq	-464(%rbp), %rcx
 12147      FEFFFF
 12148 00c9 488B8548 		movq	-440(%rbp), %rax
 12148      FEFFFF
 12149 00d0 4889CE   		movq	%rcx, %rsi
 12150 00d3 4889C7   		movq	%rax, %rdi
 12151 00d6 E8000000 		call	_ZN8UnitTest11TestResults13OnTestFailureERKNS_11TestDetailsEPKc
 12151      00
 12152              	.LEHE645:
  23:/home/shubham/20140524/makestuff/libs/libutpp/Checks.h ****         stream << "Expected " << expected << " but was " << actual;
 12153              		.loc 4 23 0
 12154 00db 488D8550 		leaq	-432(%rbp), %rax
 12154      FEFFFF
 12155 00e2 4889C7   		movq	%rax, %rdi
 12156              	.LEHB646:
 12157 00e5 E8000000 		call	_ZN8UnitTest15MemoryOutStreamD1Ev
 12157      00
 12158              	.LEHE646:
 12159              	.LBE19:
 12160              	.LBE18:
 12161              		.loc 4 28 0
 12162 00ea EB1D     		jmp	.L879
 12163              	.L878:
 12164 00ec 4889C3   		movq	%rax, %rbx
 12165              	.LBB21:
 12166              	.LBB20:
  23:/home/shubham/20140524/makestuff/libs/libutpp/Checks.h ****         stream << "Expected " << expected << " but was " << actual;
 12167              		.loc 4 23 0
 12168 00ef 488D8550 		leaq	-432(%rbp), %rax
 12168      FEFFFF
 12169 00f6 4889C7   		movq	%rax, %rdi
 12170 00f9 E8000000 		call	_ZN8UnitTest15MemoryOutStreamD1Ev
 12170      00
 12171 00fe 4889D8   		movq	%rbx, %rax
 12172 0101 4889C7   		movq	%rax, %rdi
 12173              	.LEHB647:
 12174 0104 E8000000 		call	_Unwind_Resume
 12174      00
 12175              	.LEHE647:
 12176              	.L879:
 12177              	.LBE20:
 12178              	.LBE21:
 12179              		.loc 4 28 0
 12180 0109 90       		nop
 12181 010a 488B45E8 		movq	-24(%rbp), %rax
 12182 010e 64483304 		xorq	%fs:40, %rax
 12182      25280000 
 12182      00
 12183 0117 7405     		je	.L877
 12184 0119 E8000000 		call	__stack_chk_fail
 12184      00
 12185              	.L877:
 12186 011e 4881C4C0 		addq	$448, %rsp
 12186      010000
 12187 0125 5B       		popq	%rbx
 12188 0126 415C     		popq	%r12
 12189 0128 5D       		popq	%rbp
 12190              		.cfi_def_cfa 7, 8
 12191 0129 C3       		ret
 12192              		.cfi_endproc
 12193              	.LFE1146:
 12194              		.section	.gcc_except_table
 12195              	.LLSDA1146:
 12196 0e43 FF       		.byte	0xff
 12197 0e44 FF       		.byte	0xff
 12198 0e45 01       		.byte	0x1
 12199 0e46 14       		.uleb128 .LLSDACSE1146-.LLSDACSB1146
 12200              	.LLSDACSB1146:
 12201 0e47 60       		.uleb128 .LEHB644-.LFB1146
 12202 0e48 05       		.uleb128 .LEHE644-.LEHB644
 12203 0e49 00       		.uleb128 0
 12204 0e4a 00       		.uleb128 0
 12205 0e4b 8801     		.uleb128 .LEHB645-.LFB1146
 12206 0e4d 53       		.uleb128 .LEHE645-.LEHB645
 12207 0e4e EC01     		.uleb128 .L878-.LFB1146
 12208 0e50 00       		.uleb128 0
 12209 0e51 E501     		.uleb128 .LEHB646-.LFB1146
 12210 0e53 05       		.uleb128 .LEHE646-.LEHB646
 12211 0e54 00       		.uleb128 0
 12212 0e55 00       		.uleb128 0
 12213 0e56 8402     		.uleb128 .LEHB647-.LFB1146
 12214 0e58 05       		.uleb128 .LEHE647-.LEHB647
 12215 0e59 00       		.uleb128 0
 12216 0e5a 00       		.uleb128 0
 12217              	.LLSDACSE1146:
 12218              		.section	.text._ZN8UnitTest10CheckEqualImmEEvRNS_11TestResultsERKT_RKT0_RKNS_11TestDetailsE,"axG",
 12220              		.section	.text._ZN8UnitTest10CheckEqualImjEEvRNS_11TestResultsERKT_RKT0_RKNS_11TestDetailsE,"axG",
 12221              		.weak	_ZN8UnitTest10CheckEqualImjEEvRNS_11TestResultsERKT_RKT0_RKNS_11TestDetailsE
 12223              	_ZN8UnitTest10CheckEqualImjEEvRNS_11TestResultsERKT_RKT0_RKNS_11TestDetailsE:
 12224              	.LFB1147:
  19:/home/shubham/20140524/makestuff/libs/libutpp/Checks.h **** {
 12225              		.loc 4 19 0
 12226              		.cfi_startproc
 12227              		.cfi_personality 0x3,__gxx_personality_v0
 12228              		.cfi_lsda 0x3,.LLSDA1147
 12229 0000 55       		pushq	%rbp
 12230              		.cfi_def_cfa_offset 16
 12231              		.cfi_offset 6, -16
 12232 0001 4889E5   		movq	%rsp, %rbp
 12233              		.cfi_def_cfa_register 6
 12234 0004 4154     		pushq	%r12
 12235 0006 53       		pushq	%rbx
 12236 0007 4881ECC0 		subq	$448, %rsp
 12236      010000
 12237              		.cfi_offset 12, -24
 12238              		.cfi_offset 3, -32
 12239 000e 4889BD48 		movq	%rdi, -440(%rbp)
 12239      FEFFFF
 12240 0015 4889B540 		movq	%rsi, -448(%rbp)
 12240      FEFFFF
 12241 001c 48899538 		movq	%rdx, -456(%rbp)
 12241      FEFFFF
 12242 0023 48898D30 		movq	%rcx, -464(%rbp)
 12242      FEFFFF
  19:/home/shubham/20140524/makestuff/libs/libutpp/Checks.h **** {
 12243              		.loc 4 19 0
 12244 002a 64488B04 		movq	%fs:40, %rax
 12244      25280000 
 12244      00
 12245 0033 488945E8 		movq	%rax, -24(%rbp)
 12246 0037 31C0     		xorl	%eax, %eax
 12247              	.LBB22:
  21:/home/shubham/20140524/makestuff/libs/libutpp/Checks.h ****     {
 12248              		.loc 4 21 0
 12249 0039 488B8540 		movq	-448(%rbp), %rax
 12249      FEFFFF
 12250 0040 488B10   		movq	(%rax), %rdx
 12251 0043 488B8538 		movq	-456(%rbp), %rax
 12251      FEFFFF
 12252 004a 8B00     		movl	(%rax), %eax
 12253 004c 89C0     		movl	%eax, %eax
 12254 004e 4839C2   		cmpq	%rax, %rdx
 12255 0051 0F84B100 		je	.L885
 12255      0000
 12256              	.LBB23:
  23:/home/shubham/20140524/makestuff/libs/libutpp/Checks.h ****         stream << "Expected " << expected << " but was " << actual;
 12257              		.loc 4 23 0
 12258 0057 488D8550 		leaq	-432(%rbp), %rax
 12258      FEFFFF
 12259 005e 4889C7   		movq	%rax, %rdi
 12260              	.LEHB648:
 12261 0061 E8000000 		call	_ZN8UnitTest15MemoryOutStreamC1Ev
 12261      00
 12262              	.LEHE648:
  24:/home/shubham/20140524/makestuff/libs/libutpp/Checks.h **** 
 12263              		.loc 4 24 0
 12264 0066 488B8538 		movq	-456(%rbp), %rax
 12264      FEFFFF
 12265 006d 8B18     		movl	(%rax), %ebx
 12266 006f 488B8540 		movq	-448(%rbp), %rax
 12266      FEFFFF
 12267 0076 4C8B20   		movq	(%rax), %r12
 12268 0079 488D8550 		leaq	-432(%rbp), %rax
 12268      FEFFFF
 12269 0080 BE000000 		movl	$.LC59, %esi
 12269      00
 12270 0085 4889C7   		movq	%rax, %rdi
 12271              	.LEHB649:
 12272 0088 E8000000 		call	_ZStlsISt11char_traitsIcEERSt13basic_ostreamIcT_ES5_PKc
 12272      00
 12273 008d 4C89E6   		movq	%r12, %rsi
 12274 0090 4889C7   		movq	%rax, %rdi
 12275 0093 E8000000 		call	_ZNSolsEm
 12275      00
  24:/home/shubham/20140524/makestuff/libs/libutpp/Checks.h **** 
 12276              		.loc 4 24 0 is_stmt 0 discriminator 1
 12277 0098 BE000000 		movl	$.LC60, %esi
 12277      00
 12278 009d 4889C7   		movq	%rax, %rdi
 12279 00a0 E8000000 		call	_ZStlsISt11char_traitsIcEERSt13basic_ostreamIcT_ES5_PKc
 12279      00
  24:/home/shubham/20140524/makestuff/libs/libutpp/Checks.h **** 
 12280              		.loc 4 24 0 discriminator 2
 12281 00a5 89DE     		movl	%ebx, %esi
 12282 00a7 4889C7   		movq	%rax, %rdi
 12283 00aa E8000000 		call	_ZNSolsEj
 12283      00
  26:/home/shubham/20140524/makestuff/libs/libutpp/Checks.h ****     }
 12284              		.loc 4 26 0 is_stmt 1
 12285 00af 488D8550 		leaq	-432(%rbp), %rax
 12285      FEFFFF
 12286 00b6 4889C7   		movq	%rax, %rdi
 12287 00b9 E8000000 		call	_ZNK8UnitTest15MemoryOutStream7GetTextEv
 12287      00
 12288 00be 4889C2   		movq	%rax, %rdx
 12289 00c1 488B8D30 		movq	-464(%rbp), %rcx
 12289      FEFFFF
 12290 00c8 488B8548 		movq	-440(%rbp), %rax
 12290      FEFFFF
 12291 00cf 4889CE   		movq	%rcx, %rsi
 12292 00d2 4889C7   		movq	%rax, %rdi
 12293 00d5 E8000000 		call	_ZN8UnitTest11TestResults13OnTestFailureERKNS_11TestDetailsEPKc
 12293      00
 12294              	.LEHE649:
  23:/home/shubham/20140524/makestuff/libs/libutpp/Checks.h ****         stream << "Expected " << expected << " but was " << actual;
 12295              		.loc 4 23 0
 12296 00da 488D8550 		leaq	-432(%rbp), %rax
 12296      FEFFFF
 12297 00e1 4889C7   		movq	%rax, %rdi
 12298              	.LEHB650:
 12299 00e4 E8000000 		call	_ZN8UnitTest15MemoryOutStreamD1Ev
 12299      00
 12300              	.LEHE650:
 12301              	.LBE23:
 12302              	.LBE22:
 12303              		.loc 4 28 0
 12304 00e9 EB1D     		jmp	.L885
 12305              	.L884:
 12306 00eb 4889C3   		movq	%rax, %rbx
 12307              	.LBB25:
 12308              	.LBB24:
  23:/home/shubham/20140524/makestuff/libs/libutpp/Checks.h ****         stream << "Expected " << expected << " but was " << actual;
 12309              		.loc 4 23 0
 12310 00ee 488D8550 		leaq	-432(%rbp), %rax
 12310      FEFFFF
 12311 00f5 4889C7   		movq	%rax, %rdi
 12312 00f8 E8000000 		call	_ZN8UnitTest15MemoryOutStreamD1Ev
 12312      00
 12313 00fd 4889D8   		movq	%rbx, %rax
 12314 0100 4889C7   		movq	%rax, %rdi
 12315              	.LEHB651:
 12316 0103 E8000000 		call	_Unwind_Resume
 12316      00
 12317              	.LEHE651:
 12318              	.L885:
 12319              	.LBE24:
 12320              	.LBE25:
 12321              		.loc 4 28 0
 12322 0108 90       		nop
 12323 0109 488B45E8 		movq	-24(%rbp), %rax
 12324 010d 64483304 		xorq	%fs:40, %rax
 12324      25280000 
 12324      00
 12325 0116 7405     		je	.L883
 12326 0118 E8000000 		call	__stack_chk_fail
 12326      00
 12327              	.L883:
 12328 011d 4881C4C0 		addq	$448, %rsp
 12328      010000
 12329 0124 5B       		popq	%rbx
 12330 0125 415C     		popq	%r12
 12331 0127 5D       		popq	%rbp
 12332              		.cfi_def_cfa 7, 8
 12333 0128 C3       		ret
 12334              		.cfi_endproc
 12335              	.LFE1147:
 12336              		.section	.gcc_except_table
 12337              	.LLSDA1147:
 12338 0e5b FF       		.byte	0xff
 12339 0e5c FF       		.byte	0xff
 12340 0e5d 01       		.byte	0x1
 12341 0e5e 14       		.uleb128 .LLSDACSE1147-.LLSDACSB1147
 12342              	.LLSDACSB1147:
 12343 0e5f 61       		.uleb128 .LEHB648-.LFB1147
 12344 0e60 05       		.uleb128 .LEHE648-.LEHB648
 12345 0e61 00       		.uleb128 0
 12346 0e62 00       		.uleb128 0
 12347 0e63 8801     		.uleb128 .LEHB649-.LFB1147
 12348 0e65 52       		.uleb128 .LEHE649-.LEHB649
 12349 0e66 EB01     		.uleb128 .L884-.LFB1147
 12350 0e68 00       		.uleb128 0
 12351 0e69 E401     		.uleb128 .LEHB650-.LFB1147
 12352 0e6b 05       		.uleb128 .LEHE650-.LEHB650
 12353 0e6c 00       		.uleb128 0
 12354 0e6d 00       		.uleb128 0
 12355 0e6e 8302     		.uleb128 .LEHB651-.LFB1147
 12356 0e70 05       		.uleb128 .LEHE651-.LEHB651
 12357 0e71 00       		.uleb128 0
 12358 0e72 00       		.uleb128 0
 12359              	.LLSDACSE1147:
 12360              		.section	.text._ZN8UnitTest10CheckEqualImjEEvRNS_11TestResultsERKT_RKT0_RKNS_11TestDetailsE,"axG",
 12362              		.section	.text._ZN8UnitTest10CheckEqualIiiEEvRNS_11TestResultsERKT_RKT0_RKNS_11TestDetailsE,"axG",
 12363              		.weak	_ZN8UnitTest10CheckEqualIiiEEvRNS_11TestResultsERKT_RKT0_RKNS_11TestDetailsE
 12365              	_ZN8UnitTest10CheckEqualIiiEEvRNS_11TestResultsERKT_RKT0_RKNS_11TestDetailsE:
 12366              	.LFB1148:
  19:/home/shubham/20140524/makestuff/libs/libutpp/Checks.h **** {
 12367              		.loc 4 19 0
 12368              		.cfi_startproc
 12369              		.cfi_personality 0x3,__gxx_personality_v0
 12370              		.cfi_lsda 0x3,.LLSDA1148
 12371 0000 55       		pushq	%rbp
 12372              		.cfi_def_cfa_offset 16
 12373              		.cfi_offset 6, -16
 12374 0001 4889E5   		movq	%rsp, %rbp
 12375              		.cfi_def_cfa_register 6
 12376 0004 4154     		pushq	%r12
 12377 0006 53       		pushq	%rbx
 12378 0007 4881ECC0 		subq	$448, %rsp
 12378      010000
 12379              		.cfi_offset 12, -24
 12380              		.cfi_offset 3, -32
 12381 000e 4889BD48 		movq	%rdi, -440(%rbp)
 12381      FEFFFF
 12382 0015 4889B540 		movq	%rsi, -448(%rbp)
 12382      FEFFFF
 12383 001c 48899538 		movq	%rdx, -456(%rbp)
 12383      FEFFFF
 12384 0023 48898D30 		movq	%rcx, -464(%rbp)
 12384      FEFFFF
  19:/home/shubham/20140524/makestuff/libs/libutpp/Checks.h **** {
 12385              		.loc 4 19 0
 12386 002a 64488B04 		movq	%fs:40, %rax
 12386      25280000 
 12386      00
 12387 0033 488945E8 		movq	%rax, -24(%rbp)
 12388 0037 31C0     		xorl	%eax, %eax
 12389              	.LBB26:
  21:/home/shubham/20140524/makestuff/libs/libutpp/Checks.h ****     {
 12390              		.loc 4 21 0
 12391 0039 488B8540 		movq	-448(%rbp), %rax
 12391      FEFFFF
 12392 0040 8B10     		movl	(%rax), %edx
 12393 0042 488B8538 		movq	-456(%rbp), %rax
 12393      FEFFFF
 12394 0049 8B00     		movl	(%rax), %eax
 12395 004b 39C2     		cmpl	%eax, %edx
 12396 004d 0F84B100 		je	.L891
 12396      0000
 12397              	.LBB27:
  23:/home/shubham/20140524/makestuff/libs/libutpp/Checks.h ****         stream << "Expected " << expected << " but was " << actual;
 12398              		.loc 4 23 0
 12399 0053 488D8550 		leaq	-432(%rbp), %rax
 12399      FEFFFF
 12400 005a 4889C7   		movq	%rax, %rdi
 12401              	.LEHB652:
 12402 005d E8000000 		call	_ZN8UnitTest15MemoryOutStreamC1Ev
 12402      00
 12403              	.LEHE652:
  24:/home/shubham/20140524/makestuff/libs/libutpp/Checks.h **** 
 12404              		.loc 4 24 0
 12405 0062 488B8538 		movq	-456(%rbp), %rax
 12405      FEFFFF
 12406 0069 8B18     		movl	(%rax), %ebx
 12407 006b 488B8540 		movq	-448(%rbp), %rax
 12407      FEFFFF
 12408 0072 448B20   		movl	(%rax), %r12d
 12409 0075 488D8550 		leaq	-432(%rbp), %rax
 12409      FEFFFF
 12410 007c BE000000 		movl	$.LC59, %esi
 12410      00
 12411 0081 4889C7   		movq	%rax, %rdi
 12412              	.LEHB653:
 12413 0084 E8000000 		call	_ZStlsISt11char_traitsIcEERSt13basic_ostreamIcT_ES5_PKc
 12413      00
 12414 0089 4489E6   		movl	%r12d, %esi
 12415 008c 4889C7   		movq	%rax, %rdi
 12416 008f E8000000 		call	_ZNSolsEi
 12416      00
  24:/home/shubham/20140524/makestuff/libs/libutpp/Checks.h **** 
 12417              		.loc 4 24 0 is_stmt 0 discriminator 1
 12418 0094 BE000000 		movl	$.LC60, %esi
 12418      00
 12419 0099 4889C7   		movq	%rax, %rdi
 12420 009c E8000000 		call	_ZStlsISt11char_traitsIcEERSt13basic_ostreamIcT_ES5_PKc
 12420      00
  24:/home/shubham/20140524/makestuff/libs/libutpp/Checks.h **** 
 12421              		.loc 4 24 0 discriminator 2
 12422 00a1 89DE     		movl	%ebx, %esi
 12423 00a3 4889C7   		movq	%rax, %rdi
 12424 00a6 E8000000 		call	_ZNSolsEi
 12424      00
  26:/home/shubham/20140524/makestuff/libs/libutpp/Checks.h ****     }
 12425              		.loc 4 26 0 is_stmt 1
 12426 00ab 488D8550 		leaq	-432(%rbp), %rax
 12426      FEFFFF
 12427 00b2 4889C7   		movq	%rax, %rdi
 12428 00b5 E8000000 		call	_ZNK8UnitTest15MemoryOutStream7GetTextEv
 12428      00
 12429 00ba 4889C2   		movq	%rax, %rdx
 12430 00bd 488B8D30 		movq	-464(%rbp), %rcx
 12430      FEFFFF
 12431 00c4 488B8548 		movq	-440(%rbp), %rax
 12431      FEFFFF
 12432 00cb 4889CE   		movq	%rcx, %rsi
 12433 00ce 4889C7   		movq	%rax, %rdi
 12434 00d1 E8000000 		call	_ZN8UnitTest11TestResults13OnTestFailureERKNS_11TestDetailsEPKc
 12434      00
 12435              	.LEHE653:
  23:/home/shubham/20140524/makestuff/libs/libutpp/Checks.h ****         stream << "Expected " << expected << " but was " << actual;
 12436              		.loc 4 23 0
 12437 00d6 488D8550 		leaq	-432(%rbp), %rax
 12437      FEFFFF
 12438 00dd 4889C7   		movq	%rax, %rdi
 12439              	.LEHB654:
 12440 00e0 E8000000 		call	_ZN8UnitTest15MemoryOutStreamD1Ev
 12440      00
 12441              	.LEHE654:
 12442              	.LBE27:
 12443              	.LBE26:
 12444              		.loc 4 28 0
 12445 00e5 EB1D     		jmp	.L891
 12446              	.L890:
 12447 00e7 4889C3   		movq	%rax, %rbx
 12448              	.LBB29:
 12449              	.LBB28:
  23:/home/shubham/20140524/makestuff/libs/libutpp/Checks.h ****         stream << "Expected " << expected << " but was " << actual;
 12450              		.loc 4 23 0
 12451 00ea 488D8550 		leaq	-432(%rbp), %rax
 12451      FEFFFF
 12452 00f1 4889C7   		movq	%rax, %rdi
 12453 00f4 E8000000 		call	_ZN8UnitTest15MemoryOutStreamD1Ev
 12453      00
 12454 00f9 4889D8   		movq	%rbx, %rax
 12455 00fc 4889C7   		movq	%rax, %rdi
 12456              	.LEHB655:
 12457 00ff E8000000 		call	_Unwind_Resume
 12457      00
 12458              	.LEHE655:
 12459              	.L891:
 12460              	.LBE28:
 12461              	.LBE29:
 12462              		.loc 4 28 0
 12463 0104 90       		nop
 12464 0105 488B45E8 		movq	-24(%rbp), %rax
 12465 0109 64483304 		xorq	%fs:40, %rax
 12465      25280000 
 12465      00
 12466 0112 7405     		je	.L889
 12467 0114 E8000000 		call	__stack_chk_fail
 12467      00
 12468              	.L889:
 12469 0119 4881C4C0 		addq	$448, %rsp
 12469      010000
 12470 0120 5B       		popq	%rbx
 12471 0121 415C     		popq	%r12
 12472 0123 5D       		popq	%rbp
 12473              		.cfi_def_cfa 7, 8
 12474 0124 C3       		ret
 12475              		.cfi_endproc
 12476              	.LFE1148:
 12477              		.section	.gcc_except_table
 12478              	.LLSDA1148:
 12479 0e73 FF       		.byte	0xff
 12480 0e74 FF       		.byte	0xff
 12481 0e75 01       		.byte	0x1
 12482 0e76 14       		.uleb128 .LLSDACSE1148-.LLSDACSB1148
 12483              	.LLSDACSB1148:
 12484 0e77 5D       		.uleb128 .LEHB652-.LFB1148
 12485 0e78 05       		.uleb128 .LEHE652-.LEHB652
 12486 0e79 00       		.uleb128 0
 12487 0e7a 00       		.uleb128 0
 12488 0e7b 8401     		.uleb128 .LEHB653-.LFB1148
 12489 0e7d 52       		.uleb128 .LEHE653-.LEHB653
 12490 0e7e E701     		.uleb128 .L890-.LFB1148
 12491 0e80 00       		.uleb128 0
 12492 0e81 E001     		.uleb128 .LEHB654-.LFB1148
 12493 0e83 05       		.uleb128 .LEHE654-.LEHB654
 12494 0e84 00       		.uleb128 0
 12495 0e85 00       		.uleb128 0
 12496 0e86 FF01     		.uleb128 .LEHB655-.LFB1148
 12497 0e88 05       		.uleb128 .LEHE655-.LEHB655
 12498 0e89 00       		.uleb128 0
 12499 0e8a 00       		.uleb128 0
 12500              	.LLSDACSE1148:
 12501              		.section	.text._ZN8UnitTest10CheckEqualIiiEEvRNS_11TestResultsERKT_RKT0_RKNS_11TestDetailsE,"axG",
 12503              		.weak	_ZTV31TestQueue_testAllocFreeMatching
 12504              		.section	.rodata._ZTV31TestQueue_testAllocFreeMatching,"aG",@progbits,_ZTV31TestQueue_testAllocFre
 12505              		.align 8
 12508              	_ZTV31TestQueue_testAllocFreeMatching:
 12509 0000 00000000 		.quad	0
 12509      00000000 
 12510 0008 00000000 		.quad	_ZTI31TestQueue_testAllocFreeMatching
 12510      00000000 
 12511 0010 00000000 		.quad	_ZN31TestQueue_testAllocFreeMatchingD1Ev
 12511      00000000 
 12512 0018 00000000 		.quad	_ZN31TestQueue_testAllocFreeMatchingD0Ev
 12512      00000000 
 12513 0020 00000000 		.quad	_ZNK31TestQueue_testAllocFreeMatching7RunImplEv
 12513      00000000 
 12514              		.section	.text._ZN31TestQueue_testAllocFreeMatchingD2Ev,"axG",@progbits,_ZN31TestQueue_testAllocFr
 12515              		.align 2
 12516              		.weak	_ZN31TestQueue_testAllocFreeMatchingD2Ev
 12518              	_ZN31TestQueue_testAllocFreeMatchingD2Ev:
 12519              	.LFB1204:
 384:testCore.cpp  **** 	CHECK_EQUAL(0, m_allocFree);
 12520              		.loc 3 384 0
 12521              		.cfi_startproc
 12522 0000 55       		pushq	%rbp
 12523              		.cfi_def_cfa_offset 16
 12524              		.cfi_offset 6, -16
 12525 0001 4889E5   		movq	%rsp, %rbp
 12526              		.cfi_def_cfa_register 6
 12527 0004 4883EC10 		subq	$16, %rsp
 12528 0008 48897DF8 		movq	%rdi, -8(%rbp)
 12529              	.LBB30:
 384:testCore.cpp  **** 	CHECK_EQUAL(0, m_allocFree);
 12530              		.loc 3 384 0
 12531 000c BA000000 		movl	$_ZTV31TestQueue_testAllocFreeMatching+16, %edx
 12531      00
 12532 0011 488B45F8 		movq	-8(%rbp), %rax
 12533 0015 488910   		movq	%rdx, (%rax)
 12534 0018 488B45F8 		movq	-8(%rbp), %rax
 12535 001c 4889C7   		movq	%rax, %rdi
 12536 001f E8000000 		call	_ZN8UnitTest4TestD2Ev
 12536      00
 12537              	.LBE30:
 12538 0024 B8000000 		movl	$0, %eax
 12538      00
 12539 0029 85C0     		testl	%eax, %eax
 12540 002b 740C     		je	.L892
 384:testCore.cpp  **** 	CHECK_EQUAL(0, m_allocFree);
 12541              		.loc 3 384 0 is_stmt 0 discriminator 4
 12542 002d 488B45F8 		movq	-8(%rbp), %rax
 12543 0031 4889C7   		movq	%rax, %rdi
 12544 0034 E8000000 		call	_ZdlPv
 12544      00
 12545              	.L892:
 384:testCore.cpp  **** 	CHECK_EQUAL(0, m_allocFree);
 12546              		.loc 3 384 0
 12547 0039 C9       		leave
 12548              		.cfi_def_cfa 7, 8
 12549 003a C3       		ret
 12550              		.cfi_endproc
 12551              	.LFE1204:
 12553              		.weak	_ZN31TestQueue_testAllocFreeMatchingD1Ev
 12554              		.set	_ZN31TestQueue_testAllocFreeMatchingD1Ev,_ZN31TestQueue_testAllocFreeMatchingD2Ev
 12555              		.section	.text._ZN31TestQueue_testAllocFreeMatchingD0Ev,"axG",@progbits,_ZN31TestQueue_testAllocFr
 12556              		.align 2
 12557              		.weak	_ZN31TestQueue_testAllocFreeMatchingD0Ev
 12559              	_ZN31TestQueue_testAllocFreeMatchingD0Ev:
 12560              	.LFB1206:
 384:testCore.cpp  **** 	CHECK_EQUAL(0, m_allocFree);
 12561              		.loc 3 384 0 is_stmt 1
 12562              		.cfi_startproc
 12563 0000 55       		pushq	%rbp
 12564              		.cfi_def_cfa_offset 16
 12565              		.cfi_offset 6, -16
 12566 0001 4889E5   		movq	%rsp, %rbp
 12567              		.cfi_def_cfa_register 6
 12568 0004 4883EC10 		subq	$16, %rsp
 12569 0008 48897DF8 		movq	%rdi, -8(%rbp)
 384:testCore.cpp  **** 	CHECK_EQUAL(0, m_allocFree);
 12570              		.loc 3 384 0
 12571 000c 488B45F8 		movq	-8(%rbp), %rax
 12572 0010 4889C7   		movq	%rax, %rdi
 12573 0013 E8000000 		call	_ZN31TestQueue_testAllocFreeMatchingD1Ev
 12573      00
 12574 0018 488B45F8 		movq	-8(%rbp), %rax
 12575 001c 4889C7   		movq	%rax, %rdi
 12576 001f E8000000 		call	_ZdlPv
 12576      00
 12577 0024 C9       		leave
 12578              		.cfi_def_cfa 7, 8
 12579 0025 C3       		ret
 12580              		.cfi_endproc
 12581              	.LFE1206:
 12583              		.weak	_ZTV24TestQueue_testReallocOOM
 12584              		.section	.rodata._ZTV24TestQueue_testReallocOOM,"aG",@progbits,_ZTV24TestQueue_testReallocOOM,comd
 12585              		.align 8
 12588              	_ZTV24TestQueue_testReallocOOM:
 12589 0000 00000000 		.quad	0
 12589      00000000 
 12590 0008 00000000 		.quad	_ZTI24TestQueue_testReallocOOM
 12590      00000000 
 12591 0010 00000000 		.quad	_ZN24TestQueue_testReallocOOMD1Ev
 12591      00000000 
 12592 0018 00000000 		.quad	_ZN24TestQueue_testReallocOOMD0Ev
 12592      00000000 
 12593 0020 00000000 		.quad	_ZNK24TestQueue_testReallocOOM7RunImplEv
 12593      00000000 
 12594              		.section	.text._ZN24TestQueue_testReallocOOMD2Ev,"axG",@progbits,_ZN24TestQueue_testReallocOOMD5Ev
 12595              		.align 2
 12596              		.weak	_ZN24TestQueue_testReallocOOMD2Ev
 12598              	_ZN24TestQueue_testReallocOOMD2Ev:
 12599              	.LFB1208:
 342:testCore.cpp  **** 	struct UnboundedQueue queue;
 12600              		.loc 3 342 0
 12601              		.cfi_startproc
 12602 0000 55       		pushq	%rbp
 12603              		.cfi_def_cfa_offset 16
 12604              		.cfi_offset 6, -16
 12605 0001 4889E5   		movq	%rsp, %rbp
 12606              		.cfi_def_cfa_register 6
 12607 0004 4883EC10 		subq	$16, %rsp
 12608 0008 48897DF8 		movq	%rdi, -8(%rbp)
 12609              	.LBB31:
 342:testCore.cpp  **** 	struct UnboundedQueue queue;
 12610              		.loc 3 342 0
 12611 000c BA000000 		movl	$_ZTV24TestQueue_testReallocOOM+16, %edx
 12611      00
 12612 0011 488B45F8 		movq	-8(%rbp), %rax
 12613 0015 488910   		movq	%rdx, (%rax)
 12614 0018 488B45F8 		movq	-8(%rbp), %rax
 12615 001c 4889C7   		movq	%rax, %rdi
 12616 001f E8000000 		call	_ZN8UnitTest4TestD2Ev
 12616      00
 12617              	.LBE31:
 12618 0024 B8000000 		movl	$0, %eax
 12618      00
 12619 0029 85C0     		testl	%eax, %eax
 12620 002b 740C     		je	.L895
 342:testCore.cpp  **** 	struct UnboundedQueue queue;
 12621              		.loc 3 342 0 is_stmt 0 discriminator 4
 12622 002d 488B45F8 		movq	-8(%rbp), %rax
 12623 0031 4889C7   		movq	%rax, %rdi
 12624 0034 E8000000 		call	_ZdlPv
 12624      00
 12625              	.L895:
 342:testCore.cpp  **** 	struct UnboundedQueue queue;
 12626              		.loc 3 342 0
 12627 0039 C9       		leave
 12628              		.cfi_def_cfa 7, 8
 12629 003a C3       		ret
 12630              		.cfi_endproc
 12631              	.LFE1208:
 12633              		.weak	_ZN24TestQueue_testReallocOOMD1Ev
 12634              		.set	_ZN24TestQueue_testReallocOOMD1Ev,_ZN24TestQueue_testReallocOOMD2Ev
 12635              		.section	.text._ZN24TestQueue_testReallocOOMD0Ev,"axG",@progbits,_ZN24TestQueue_testReallocOOMD5Ev
 12636              		.align 2
 12637              		.weak	_ZN24TestQueue_testReallocOOMD0Ev
 12639              	_ZN24TestQueue_testReallocOOMD0Ev:
 12640              	.LFB1210:
 342:testCore.cpp  **** 	struct UnboundedQueue queue;
 12641              		.loc 3 342 0 is_stmt 1
 12642              		.cfi_startproc
 12643 0000 55       		pushq	%rbp
 12644              		.cfi_def_cfa_offset 16
 12645              		.cfi_offset 6, -16
 12646 0001 4889E5   		movq	%rsp, %rbp
 12647              		.cfi_def_cfa_register 6
 12648 0004 4883EC10 		subq	$16, %rsp
 12649 0008 48897DF8 		movq	%rdi, -8(%rbp)
 342:testCore.cpp  **** 	struct UnboundedQueue queue;
 12650              		.loc 3 342 0
 12651 000c 488B45F8 		movq	-8(%rbp), %rax
 12652 0010 4889C7   		movq	%rax, %rdi
 12653 0013 E8000000 		call	_ZN24TestQueue_testReallocOOMD1Ev
 12653      00
 12654 0018 488B45F8 		movq	-8(%rbp), %rax
 12655 001c 4889C7   		movq	%rax, %rdi
 12656 001f E8000000 		call	_ZdlPv
 12656      00
 12657 0024 C9       		leave
 12658              		.cfi_def_cfa 7, 8
 12659 0025 C3       		ret
 12660              		.cfi_endproc
 12661              	.LFE1210:
 12663              		.weak	_ZTV22TestQueue_testAllocOOM
 12664              		.section	.rodata._ZTV22TestQueue_testAllocOOM,"aG",@progbits,_ZTV22TestQueue_testAllocOOM,comdat
 12665              		.align 8
 12668              	_ZTV22TestQueue_testAllocOOM:
 12669 0000 00000000 		.quad	0
 12669      00000000 
 12670 0008 00000000 		.quad	_ZTI22TestQueue_testAllocOOM
 12670      00000000 
 12671 0010 00000000 		.quad	_ZN22TestQueue_testAllocOOMD1Ev
 12671      00000000 
 12672 0018 00000000 		.quad	_ZN22TestQueue_testAllocOOMD0Ev
 12672      00000000 
 12673 0020 00000000 		.quad	_ZNK22TestQueue_testAllocOOM7RunImplEv
 12673      00000000 
 12674              		.section	.text._ZN22TestQueue_testAllocOOMD2Ev,"axG",@progbits,_ZN22TestQueue_testAllocOOMD5Ev,com
 12675              		.align 2
 12676              		.weak	_ZN22TestQueue_testAllocOOMD2Ev
 12678              	_ZN22TestQueue_testAllocOOMD2Ev:
 12679              	.LFB1212:
 331:testCore.cpp  **** 	struct UnboundedQueue queue;
 12680              		.loc 3 331 0
 12681              		.cfi_startproc
 12682 0000 55       		pushq	%rbp
 12683              		.cfi_def_cfa_offset 16
 12684              		.cfi_offset 6, -16
 12685 0001 4889E5   		movq	%rsp, %rbp
 12686              		.cfi_def_cfa_register 6
 12687 0004 4883EC10 		subq	$16, %rsp
 12688 0008 48897DF8 		movq	%rdi, -8(%rbp)
 12689              	.LBB32:
 331:testCore.cpp  **** 	struct UnboundedQueue queue;
 12690              		.loc 3 331 0
 12691 000c BA000000 		movl	$_ZTV22TestQueue_testAllocOOM+16, %edx
 12691      00
 12692 0011 488B45F8 		movq	-8(%rbp), %rax
 12693 0015 488910   		movq	%rdx, (%rax)
 12694 0018 488B45F8 		movq	-8(%rbp), %rax
 12695 001c 4889C7   		movq	%rax, %rdi
 12696 001f E8000000 		call	_ZN8UnitTest4TestD2Ev
 12696      00
 12697              	.LBE32:
 12698 0024 B8000000 		movl	$0, %eax
 12698      00
 12699 0029 85C0     		testl	%eax, %eax
 12700 002b 740C     		je	.L898
 331:testCore.cpp  **** 	struct UnboundedQueue queue;
 12701              		.loc 3 331 0 is_stmt 0 discriminator 4
 12702 002d 488B45F8 		movq	-8(%rbp), %rax
 12703 0031 4889C7   		movq	%rax, %rdi
 12704 0034 E8000000 		call	_ZdlPv
 12704      00
 12705              	.L898:
 331:testCore.cpp  **** 	struct UnboundedQueue queue;
 12706              		.loc 3 331 0
 12707 0039 C9       		leave
 12708              		.cfi_def_cfa 7, 8
 12709 003a C3       		ret
 12710              		.cfi_endproc
 12711              	.LFE1212:
 12713              		.weak	_ZN22TestQueue_testAllocOOMD1Ev
 12714              		.set	_ZN22TestQueue_testAllocOOMD1Ev,_ZN22TestQueue_testAllocOOMD2Ev
 12715              		.section	.text._ZN22TestQueue_testAllocOOMD0Ev,"axG",@progbits,_ZN22TestQueue_testAllocOOMD5Ev,com
 12716              		.align 2
 12717              		.weak	_ZN22TestQueue_testAllocOOMD0Ev
 12719              	_ZN22TestQueue_testAllocOOMD0Ev:
 12720              	.LFB1214:
 331:testCore.cpp  **** 	struct UnboundedQueue queue;
 12721              		.loc 3 331 0 is_stmt 1
 12722              		.cfi_startproc
 12723 0000 55       		pushq	%rbp
 12724              		.cfi_def_cfa_offset 16
 12725              		.cfi_offset 6, -16
 12726 0001 4889E5   		movq	%rsp, %rbp
 12727              		.cfi_def_cfa_register 6
 12728 0004 4883EC10 		subq	$16, %rsp
 12729 0008 48897DF8 		movq	%rdi, -8(%rbp)
 331:testCore.cpp  **** 	struct UnboundedQueue queue;
 12730              		.loc 3 331 0
 12731 000c 488B45F8 		movq	-8(%rbp), %rax
 12732 0010 4889C7   		movq	%rax, %rdi
 12733 0013 E8000000 		call	_ZN22TestQueue_testAllocOOMD1Ev
 12733      00
 12734 0018 488B45F8 		movq	-8(%rbp), %rax
 12735 001c 4889C7   		movq	%rax, %rdi
 12736 001f E8000000 		call	_ZdlPv
 12736      00
 12737 0024 C9       		leave
 12738              		.cfi_def_cfa 7, 8
 12739 0025 C3       		ret
 12740              		.cfi_endproc
 12741              	.LFE1214:
 12743              		.weak	_ZTV21TestQueue_testRealloc
 12744              		.section	.rodata._ZTV21TestQueue_testRealloc,"aG",@progbits,_ZTV21TestQueue_testRealloc,comdat
 12745              		.align 8
 12748              	_ZTV21TestQueue_testRealloc:
 12749 0000 00000000 		.quad	0
 12749      00000000 
 12750 0008 00000000 		.quad	_ZTI21TestQueue_testRealloc
 12750      00000000 
 12751 0010 00000000 		.quad	_ZN21TestQueue_testReallocD1Ev
 12751      00000000 
 12752 0018 00000000 		.quad	_ZN21TestQueue_testReallocD0Ev
 12752      00000000 
 12753 0020 00000000 		.quad	_ZNK21TestQueue_testRealloc7RunImplEv
 12753      00000000 
 12754              		.section	.text._ZN21TestQueue_testReallocD2Ev,"axG",@progbits,_ZN21TestQueue_testReallocD5Ev,comda
 12755              		.align 2
 12756              		.weak	_ZN21TestQueue_testReallocD2Ev
 12758              	_ZN21TestQueue_testReallocD2Ev:
 12759              	.LFB1216:
 324:testCore.cpp  **** 	testRealloc(0);
 12760              		.loc 3 324 0
 12761              		.cfi_startproc
 12762 0000 55       		pushq	%rbp
 12763              		.cfi_def_cfa_offset 16
 12764              		.cfi_offset 6, -16
 12765 0001 4889E5   		movq	%rsp, %rbp
 12766              		.cfi_def_cfa_register 6
 12767 0004 4883EC10 		subq	$16, %rsp
 12768 0008 48897DF8 		movq	%rdi, -8(%rbp)
 12769              	.LBB33:
 324:testCore.cpp  **** 	testRealloc(0);
 12770              		.loc 3 324 0
 12771 000c BA000000 		movl	$_ZTV21TestQueue_testRealloc+16, %edx
 12771      00
 12772 0011 488B45F8 		movq	-8(%rbp), %rax
 12773 0015 488910   		movq	%rdx, (%rax)
 12774 0018 488B45F8 		movq	-8(%rbp), %rax
 12775 001c 4889C7   		movq	%rax, %rdi
 12776 001f E8000000 		call	_ZN8UnitTest4TestD2Ev
 12776      00
 12777              	.LBE33:
 12778 0024 B8000000 		movl	$0, %eax
 12778      00
 12779 0029 85C0     		testl	%eax, %eax
 12780 002b 740C     		je	.L901
 324:testCore.cpp  **** 	testRealloc(0);
 12781              		.loc 3 324 0 is_stmt 0 discriminator 4
 12782 002d 488B45F8 		movq	-8(%rbp), %rax
 12783 0031 4889C7   		movq	%rax, %rdi
 12784 0034 E8000000 		call	_ZdlPv
 12784      00
 12785              	.L901:
 324:testCore.cpp  **** 	testRealloc(0);
 12786              		.loc 3 324 0
 12787 0039 C9       		leave
 12788              		.cfi_def_cfa 7, 8
 12789 003a C3       		ret
 12790              		.cfi_endproc
 12791              	.LFE1216:
 12793              		.weak	_ZN21TestQueue_testReallocD1Ev
 12794              		.set	_ZN21TestQueue_testReallocD1Ev,_ZN21TestQueue_testReallocD2Ev
 12795              		.section	.text._ZN21TestQueue_testReallocD0Ev,"axG",@progbits,_ZN21TestQueue_testReallocD5Ev,comda
 12796              		.align 2
 12797              		.weak	_ZN21TestQueue_testReallocD0Ev
 12799              	_ZN21TestQueue_testReallocD0Ev:
 12800              	.LFB1218:
 324:testCore.cpp  **** 	testRealloc(0);
 12801              		.loc 3 324 0 is_stmt 1
 12802              		.cfi_startproc
 12803 0000 55       		pushq	%rbp
 12804              		.cfi_def_cfa_offset 16
 12805              		.cfi_offset 6, -16
 12806 0001 4889E5   		movq	%rsp, %rbp
 12807              		.cfi_def_cfa_register 6
 12808 0004 4883EC10 		subq	$16, %rsp
 12809 0008 48897DF8 		movq	%rdi, -8(%rbp)
 324:testCore.cpp  **** 	testRealloc(0);
 12810              		.loc 3 324 0
 12811 000c 488B45F8 		movq	-8(%rbp), %rax
 12812 0010 4889C7   		movq	%rax, %rdi
 12813 0013 E8000000 		call	_ZN21TestQueue_testReallocD1Ev
 12813      00
 12814 0018 488B45F8 		movq	-8(%rbp), %rax
 12815 001c 4889C7   		movq	%rax, %rdi
 12816 001f E8000000 		call	_ZdlPv
 12816      00
 12817 0024 C9       		leave
 12818              		.cfi_def_cfa 7, 8
 12819 0025 C3       		ret
 12820              		.cfi_endproc
 12821              	.LFE1218:
 12823              		.weak	_ZTV21TestQueue_testPutTake
 12824              		.section	.rodata._ZTV21TestQueue_testPutTake,"aG",@progbits,_ZTV21TestQueue_testPutTake,comdat
 12825              		.align 8
 12828              	_ZTV21TestQueue_testPutTake:
 12829 0000 00000000 		.quad	0
 12829      00000000 
 12830 0008 00000000 		.quad	_ZTI21TestQueue_testPutTake
 12830      00000000 
 12831 0010 00000000 		.quad	_ZN21TestQueue_testPutTakeD1Ev
 12831      00000000 
 12832 0018 00000000 		.quad	_ZN21TestQueue_testPutTakeD0Ev
 12832      00000000 
 12833 0020 00000000 		.quad	_ZNK21TestQueue_testPutTake7RunImplEv
 12833      00000000 
 12834              		.section	.text._ZN21TestQueue_testPutTakeD2Ev,"axG",@progbits,_ZN21TestQueue_testPutTakeD5Ev,comda
 12835              		.align 2
 12836              		.weak	_ZN21TestQueue_testPutTakeD2Ev
 12838              	_ZN21TestQueue_testPutTakeD2Ev:
 12839              	.LFB1220:
 166:testCore.cpp  **** 	struct UnboundedQueue queue;
 12840              		.loc 3 166 0
 12841              		.cfi_startproc
 12842 0000 55       		pushq	%rbp
 12843              		.cfi_def_cfa_offset 16
 12844              		.cfi_offset 6, -16
 12845 0001 4889E5   		movq	%rsp, %rbp
 12846              		.cfi_def_cfa_register 6
 12847 0004 4883EC10 		subq	$16, %rsp
 12848 0008 48897DF8 		movq	%rdi, -8(%rbp)
 12849              	.LBB34:
 166:testCore.cpp  **** 	struct UnboundedQueue queue;
 12850              		.loc 3 166 0
 12851 000c BA000000 		movl	$_ZTV21TestQueue_testPutTake+16, %edx
 12851      00
 12852 0011 488B45F8 		movq	-8(%rbp), %rax
 12853 0015 488910   		movq	%rdx, (%rax)
 12854 0018 488B45F8 		movq	-8(%rbp), %rax
 12855 001c 4889C7   		movq	%rax, %rdi
 12856 001f E8000000 		call	_ZN8UnitTest4TestD2Ev
 12856      00
 12857              	.LBE34:
 12858 0024 B8000000 		movl	$0, %eax
 12858      00
 12859 0029 85C0     		testl	%eax, %eax
 12860 002b 740C     		je	.L904
 166:testCore.cpp  **** 	struct UnboundedQueue queue;
 12861              		.loc 3 166 0 is_stmt 0 discriminator 4
 12862 002d 488B45F8 		movq	-8(%rbp), %rax
 12863 0031 4889C7   		movq	%rax, %rdi
 12864 0034 E8000000 		call	_ZdlPv
 12864      00
 12865              	.L904:
 166:testCore.cpp  **** 	struct UnboundedQueue queue;
 12866              		.loc 3 166 0
 12867 0039 C9       		leave
 12868              		.cfi_def_cfa 7, 8
 12869 003a C3       		ret
 12870              		.cfi_endproc
 12871              	.LFE1220:
 12873              		.weak	_ZN21TestQueue_testPutTakeD1Ev
 12874              		.set	_ZN21TestQueue_testPutTakeD1Ev,_ZN21TestQueue_testPutTakeD2Ev
 12875              		.section	.text._ZN21TestQueue_testPutTakeD0Ev,"axG",@progbits,_ZN21TestQueue_testPutTakeD5Ev,comda
 12876              		.align 2
 12877              		.weak	_ZN21TestQueue_testPutTakeD0Ev
 12879              	_ZN21TestQueue_testPutTakeD0Ev:
 12880              	.LFB1222:
 166:testCore.cpp  **** 	struct UnboundedQueue queue;
 12881              		.loc 3 166 0 is_stmt 1
 12882              		.cfi_startproc
 12883 0000 55       		pushq	%rbp
 12884              		.cfi_def_cfa_offset 16
 12885              		.cfi_offset 6, -16
 12886 0001 4889E5   		movq	%rsp, %rbp
 12887              		.cfi_def_cfa_register 6
 12888 0004 4883EC10 		subq	$16, %rsp
 12889 0008 48897DF8 		movq	%rdi, -8(%rbp)
 166:testCore.cpp  **** 	struct UnboundedQueue queue;
 12890              		.loc 3 166 0
 12891 000c 488B45F8 		movq	-8(%rbp), %rax
 12892 0010 4889C7   		movq	%rax, %rdi
 12893 0013 E8000000 		call	_ZN21TestQueue_testPutTakeD1Ev
 12893      00
 12894 0018 488B45F8 		movq	-8(%rbp), %rax
 12895 001c 4889C7   		movq	%rax, %rdi
 12896 001f E8000000 		call	_ZdlPv
 12896      00
 12897 0024 C9       		leave
 12898              		.cfi_def_cfa 7, 8
 12899 0025 C3       		ret
 12900              		.cfi_endproc
 12901              	.LFE1222:
 12903              		.weak	_ZTV21TestQueue_testPutWrap
 12904              		.section	.rodata._ZTV21TestQueue_testPutWrap,"aG",@progbits,_ZTV21TestQueue_testPutWrap,comdat
 12905              		.align 8
 12908              	_ZTV21TestQueue_testPutWrap:
 12909 0000 00000000 		.quad	0
 12909      00000000 
 12910 0008 00000000 		.quad	_ZTI21TestQueue_testPutWrap
 12910      00000000 
 12911 0010 00000000 		.quad	_ZN21TestQueue_testPutWrapD1Ev
 12911      00000000 
 12912 0018 00000000 		.quad	_ZN21TestQueue_testPutWrapD0Ev
 12912      00000000 
 12913 0020 00000000 		.quad	_ZNK21TestQueue_testPutWrap7RunImplEv
 12913      00000000 
 12914              		.section	.text._ZN21TestQueue_testPutWrapD2Ev,"axG",@progbits,_ZN21TestQueue_testPutWrapD5Ev,comda
 12915              		.align 2
 12916              		.weak	_ZN21TestQueue_testPutWrapD2Ev
 12918              	_ZN21TestQueue_testPutWrapD2Ev:
 12919              	.LFB1224:
 119:testCore.cpp  **** 	struct UnboundedQueue queue;
 12920              		.loc 3 119 0
 12921              		.cfi_startproc
 12922 0000 55       		pushq	%rbp
 12923              		.cfi_def_cfa_offset 16
 12924              		.cfi_offset 6, -16
 12925 0001 4889E5   		movq	%rsp, %rbp
 12926              		.cfi_def_cfa_register 6
 12927 0004 4883EC10 		subq	$16, %rsp
 12928 0008 48897DF8 		movq	%rdi, -8(%rbp)
 12929              	.LBB35:
 119:testCore.cpp  **** 	struct UnboundedQueue queue;
 12930              		.loc 3 119 0
 12931 000c BA000000 		movl	$_ZTV21TestQueue_testPutWrap+16, %edx
 12931      00
 12932 0011 488B45F8 		movq	-8(%rbp), %rax
 12933 0015 488910   		movq	%rdx, (%rax)
 12934 0018 488B45F8 		movq	-8(%rbp), %rax
 12935 001c 4889C7   		movq	%rax, %rdi
 12936 001f E8000000 		call	_ZN8UnitTest4TestD2Ev
 12936      00
 12937              	.LBE35:
 12938 0024 B8000000 		movl	$0, %eax
 12938      00
 12939 0029 85C0     		testl	%eax, %eax
 12940 002b 740C     		je	.L907
 119:testCore.cpp  **** 	struct UnboundedQueue queue;
 12941              		.loc 3 119 0 is_stmt 0 discriminator 4
 12942 002d 488B45F8 		movq	-8(%rbp), %rax
 12943 0031 4889C7   		movq	%rax, %rdi
 12944 0034 E8000000 		call	_ZdlPv
 12944      00
 12945              	.L907:
 119:testCore.cpp  **** 	struct UnboundedQueue queue;
 12946              		.loc 3 119 0
 12947 0039 C9       		leave
 12948              		.cfi_def_cfa 7, 8
 12949 003a C3       		ret
 12950              		.cfi_endproc
 12951              	.LFE1224:
 12953              		.weak	_ZN21TestQueue_testPutWrapD1Ev
 12954              		.set	_ZN21TestQueue_testPutWrapD1Ev,_ZN21TestQueue_testPutWrapD2Ev
 12955              		.section	.text._ZN21TestQueue_testPutWrapD0Ev,"axG",@progbits,_ZN21TestQueue_testPutWrapD5Ev,comda
 12956              		.align 2
 12957              		.weak	_ZN21TestQueue_testPutWrapD0Ev
 12959              	_ZN21TestQueue_testPutWrapD0Ev:
 12960              	.LFB1226:
 119:testCore.cpp  **** 	struct UnboundedQueue queue;
 12961              		.loc 3 119 0 is_stmt 1
 12962              		.cfi_startproc
 12963 0000 55       		pushq	%rbp
 12964              		.cfi_def_cfa_offset 16
 12965              		.cfi_offset 6, -16
 12966 0001 4889E5   		movq	%rsp, %rbp
 12967              		.cfi_def_cfa_register 6
 12968 0004 4883EC10 		subq	$16, %rsp
 12969 0008 48897DF8 		movq	%rdi, -8(%rbp)
 119:testCore.cpp  **** 	struct UnboundedQueue queue;
 12970              		.loc 3 119 0
 12971 000c 488B45F8 		movq	-8(%rbp), %rax
 12972 0010 4889C7   		movq	%rax, %rdi
 12973 0013 E8000000 		call	_ZN21TestQueue_testPutWrapD1Ev
 12973      00
 12974 0018 488B45F8 		movq	-8(%rbp), %rax
 12975 001c 4889C7   		movq	%rax, %rdi
 12976 001f E8000000 		call	_ZdlPv
 12976      00
 12977 0024 C9       		leave
 12978              		.cfi_def_cfa 7, 8
 12979 0025 C3       		ret
 12980              		.cfi_endproc
 12981              	.LFE1226:
 12983              		.weak	_ZTV23TestQueue_testPutNoWrap
 12984              		.section	.rodata._ZTV23TestQueue_testPutNoWrap,"aG",@progbits,_ZTV23TestQueue_testPutNoWrap,comdat
 12985              		.align 8
 12988              	_ZTV23TestQueue_testPutNoWrap:
 12989 0000 00000000 		.quad	0
 12989      00000000 
 12990 0008 00000000 		.quad	_ZTI23TestQueue_testPutNoWrap
 12990      00000000 
 12991 0010 00000000 		.quad	_ZN23TestQueue_testPutNoWrapD1Ev
 12991      00000000 
 12992 0018 00000000 		.quad	_ZN23TestQueue_testPutNoWrapD0Ev
 12992      00000000 
 12993 0020 00000000 		.quad	_ZNK23TestQueue_testPutNoWrap7RunImplEv
 12993      00000000 
 12994              		.section	.text._ZN23TestQueue_testPutNoWrapD2Ev,"axG",@progbits,_ZN23TestQueue_testPutNoWrapD5Ev,c
 12995              		.align 2
 12996              		.weak	_ZN23TestQueue_testPutNoWrapD2Ev
 12998              	_ZN23TestQueue_testPutNoWrapD2Ev:
 12999              	.LFB1228:
  77:testCore.cpp  **** 	struct UnboundedQueue queue;
 13000              		.loc 3 77 0
 13001              		.cfi_startproc
 13002 0000 55       		pushq	%rbp
 13003              		.cfi_def_cfa_offset 16
 13004              		.cfi_offset 6, -16
 13005 0001 4889E5   		movq	%rsp, %rbp
 13006              		.cfi_def_cfa_register 6
 13007 0004 4883EC10 		subq	$16, %rsp
 13008 0008 48897DF8 		movq	%rdi, -8(%rbp)
 13009              	.LBB36:
  77:testCore.cpp  **** 	struct UnboundedQueue queue;
 13010              		.loc 3 77 0
 13011 000c BA000000 		movl	$_ZTV23TestQueue_testPutNoWrap+16, %edx
 13011      00
 13012 0011 488B45F8 		movq	-8(%rbp), %rax
 13013 0015 488910   		movq	%rdx, (%rax)
 13014 0018 488B45F8 		movq	-8(%rbp), %rax
 13015 001c 4889C7   		movq	%rax, %rdi
 13016 001f E8000000 		call	_ZN8UnitTest4TestD2Ev
 13016      00
 13017              	.LBE36:
 13018 0024 B8000000 		movl	$0, %eax
 13018      00
 13019 0029 85C0     		testl	%eax, %eax
 13020 002b 740C     		je	.L910
  77:testCore.cpp  **** 	struct UnboundedQueue queue;
 13021              		.loc 3 77 0 is_stmt 0 discriminator 4
 13022 002d 488B45F8 		movq	-8(%rbp), %rax
 13023 0031 4889C7   		movq	%rax, %rdi
 13024 0034 E8000000 		call	_ZdlPv
 13024      00
 13025              	.L910:
  77:testCore.cpp  **** 	struct UnboundedQueue queue;
 13026              		.loc 3 77 0
 13027 0039 C9       		leave
 13028              		.cfi_def_cfa 7, 8
 13029 003a C3       		ret
 13030              		.cfi_endproc
 13031              	.LFE1228:
 13033              		.weak	_ZN23TestQueue_testPutNoWrapD1Ev
 13034              		.set	_ZN23TestQueue_testPutNoWrapD1Ev,_ZN23TestQueue_testPutNoWrapD2Ev
 13035              		.section	.text._ZN23TestQueue_testPutNoWrapD0Ev,"axG",@progbits,_ZN23TestQueue_testPutNoWrapD5Ev,c
 13036              		.align 2
 13037              		.weak	_ZN23TestQueue_testPutNoWrapD0Ev
 13039              	_ZN23TestQueue_testPutNoWrapD0Ev:
 13040              	.LFB1230:
  77:testCore.cpp  **** 	struct UnboundedQueue queue;
 13041              		.loc 3 77 0 is_stmt 1
 13042              		.cfi_startproc
 13043 0000 55       		pushq	%rbp
 13044              		.cfi_def_cfa_offset 16
 13045              		.cfi_offset 6, -16
 13046 0001 4889E5   		movq	%rsp, %rbp
 13047              		.cfi_def_cfa_register 6
 13048 0004 4883EC10 		subq	$16, %rsp
 13049 0008 48897DF8 		movq	%rdi, -8(%rbp)
  77:testCore.cpp  **** 	struct UnboundedQueue queue;
 13050              		.loc 3 77 0
 13051 000c 488B45F8 		movq	-8(%rbp), %rax
 13052 0010 4889C7   		movq	%rax, %rdi
 13053 0013 E8000000 		call	_ZN23TestQueue_testPutNoWrapD1Ev
 13053      00
 13054 0018 488B45F8 		movq	-8(%rbp), %rax
 13055 001c 4889C7   		movq	%rax, %rdi
 13056 001f E8000000 		call	_ZdlPv
 13056      00
 13057 0024 C9       		leave
 13058              		.cfi_def_cfa 7, 8
 13059 0025 C3       		ret
 13060              		.cfi_endproc
 13061              	.LFE1230:
 13063              		.weak	_ZTV18TestQueue_testInit
 13064              		.section	.rodata._ZTV18TestQueue_testInit,"aG",@progbits,_ZTV18TestQueue_testInit,comdat
 13065              		.align 8
 13068              	_ZTV18TestQueue_testInit:
 13069 0000 00000000 		.quad	0
 13069      00000000 
 13070 0008 00000000 		.quad	_ZTI18TestQueue_testInit
 13070      00000000 
 13071 0010 00000000 		.quad	_ZN18TestQueue_testInitD1Ev
 13071      00000000 
 13072 0018 00000000 		.quad	_ZN18TestQueue_testInitD0Ev
 13072      00000000 
 13073 0020 00000000 		.quad	_ZNK18TestQueue_testInit7RunImplEv
 13073      00000000 
 13074              		.section	.text._ZN18TestQueue_testInitD2Ev,"axG",@progbits,_ZN18TestQueue_testInitD5Ev,comdat
 13075              		.align 2
 13076              		.weak	_ZN18TestQueue_testInitD2Ev
 13078              	_ZN18TestQueue_testInitD2Ev:
 13079              	.LFB1232:
  53:testCore.cpp  **** 	struct UnboundedQueue queue;
 13080              		.loc 3 53 0
 13081              		.cfi_startproc
 13082 0000 55       		pushq	%rbp
 13083              		.cfi_def_cfa_offset 16
 13084              		.cfi_offset 6, -16
 13085 0001 4889E5   		movq	%rsp, %rbp
 13086              		.cfi_def_cfa_register 6
 13087 0004 4883EC10 		subq	$16, %rsp
 13088 0008 48897DF8 		movq	%rdi, -8(%rbp)
 13089              	.LBB37:
  53:testCore.cpp  **** 	struct UnboundedQueue queue;
 13090              		.loc 3 53 0
 13091 000c BA000000 		movl	$_ZTV18TestQueue_testInit+16, %edx
 13091      00
 13092 0011 488B45F8 		movq	-8(%rbp), %rax
 13093 0015 488910   		movq	%rdx, (%rax)
 13094 0018 488B45F8 		movq	-8(%rbp), %rax
 13095 001c 4889C7   		movq	%rax, %rdi
 13096 001f E8000000 		call	_ZN8UnitTest4TestD2Ev
 13096      00
 13097              	.LBE37:
 13098 0024 B8000000 		movl	$0, %eax
 13098      00
 13099 0029 85C0     		testl	%eax, %eax
 13100 002b 740C     		je	.L913
  53:testCore.cpp  **** 	struct UnboundedQueue queue;
 13101              		.loc 3 53 0 is_stmt 0 discriminator 4
 13102 002d 488B45F8 		movq	-8(%rbp), %rax
 13103 0031 4889C7   		movq	%rax, %rdi
 13104 0034 E8000000 		call	_ZdlPv
 13104      00
 13105              	.L913:
  53:testCore.cpp  **** 	struct UnboundedQueue queue;
 13106              		.loc 3 53 0
 13107 0039 C9       		leave
 13108              		.cfi_def_cfa 7, 8
 13109 003a C3       		ret
 13110              		.cfi_endproc
 13111              	.LFE1232:
 13113              		.weak	_ZN18TestQueue_testInitD1Ev
 13114              		.set	_ZN18TestQueue_testInitD1Ev,_ZN18TestQueue_testInitD2Ev
 13115              		.section	.text._ZN18TestQueue_testInitD0Ev,"axG",@progbits,_ZN18TestQueue_testInitD5Ev,comdat
 13116              		.align 2
 13117              		.weak	_ZN18TestQueue_testInitD0Ev
 13119              	_ZN18TestQueue_testInitD0Ev:
 13120              	.LFB1234:
  53:testCore.cpp  **** 	struct UnboundedQueue queue;
 13121              		.loc 3 53 0 is_stmt 1
 13122              		.cfi_startproc
 13123 0000 55       		pushq	%rbp
 13124              		.cfi_def_cfa_offset 16
 13125              		.cfi_offset 6, -16
 13126 0001 4889E5   		movq	%rsp, %rbp
 13127              		.cfi_def_cfa_register 6
 13128 0004 4883EC10 		subq	$16, %rsp
 13129 0008 48897DF8 		movq	%rdi, -8(%rbp)
  53:testCore.cpp  **** 	struct UnboundedQueue queue;
 13130              		.loc 3 53 0
 13131 000c 488B45F8 		movq	-8(%rbp), %rax
 13132 0010 4889C7   		movq	%rax, %rdi
 13133 0013 E8000000 		call	_ZN18TestQueue_testInitD1Ev
 13133      00
 13134 0018 488B45F8 		movq	-8(%rbp), %rax
 13135 001c 4889C7   		movq	%rax, %rdi
 13136 001f E8000000 		call	_ZdlPv
 13136      00
 13137 0024 C9       		leave
 13138              		.cfi_def_cfa 7, 8
 13139 0025 C3       		ret
 13140              		.cfi_endproc
 13141              	.LFE1234:
 13143              		.weak	_ZTVN8UnitTest15MemoryOutStreamE
 13144              		.section	.rodata._ZTVN8UnitTest15MemoryOutStreamE,"aG",@progbits,_ZTVN8UnitTest15MemoryOutStreamE,
 13145              		.align 8
 13148              	_ZTVN8UnitTest15MemoryOutStreamE:
 13149 0000 90000000 		.quad	144
 13149      00000000 
 13150 0008 00000000 		.quad	0
 13150      00000000 
 13151 0010 00000000 		.quad	_ZTIN8UnitTest15MemoryOutStreamE
 13151      00000000 
 13152 0018 00000000 		.quad	_ZN8UnitTest15MemoryOutStreamD1Ev
 13152      00000000 
 13153 0020 00000000 		.quad	_ZN8UnitTest15MemoryOutStreamD0Ev
 13153      00000000 
 13154 0028 70FFFFFF 		.quad	-144
 13154      FFFFFFFF 
 13155 0030 70FFFFFF 		.quad	-144
 13155      FFFFFFFF 
 13156 0038 00000000 		.quad	_ZTIN8UnitTest15MemoryOutStreamE
 13156      00000000 
 13157 0040 00000000 		.quad	_ZTv0_n24_N8UnitTest15MemoryOutStreamD1Ev
 13157      00000000 
 13158 0048 00000000 		.quad	_ZTv0_n24_N8UnitTest15MemoryOutStreamD0Ev
 13158      00000000 
 13159              		.weak	_ZTTN8UnitTest15MemoryOutStreamE
 13160              		.section	.rodata._ZTTN8UnitTest15MemoryOutStreamE,"aG",@progbits,_ZTVN8UnitTest15MemoryOutStreamE,
 13161              		.align 8
 13164              	_ZTTN8UnitTest15MemoryOutStreamE:
 13165 0000 00000000 		.quad	_ZTVN8UnitTest15MemoryOutStreamE+24
 13165      00000000 
 13166 0008 00000000 		.quad	_ZTCN8UnitTest15MemoryOutStreamE0_NSt7__cxx1119basic_ostringstreamIcSt11char_traitsIcESaIcEE
 13166      00000000 
 13167 0010 00000000 		.quad	_ZTCN8UnitTest15MemoryOutStreamE0_So+24
 13167      00000000 
 13168 0018 00000000 		.quad	_ZTCN8UnitTest15MemoryOutStreamE0_So+64
 13168      00000000 
 13169 0020 00000000 		.quad	_ZTCN8UnitTest15MemoryOutStreamE0_NSt7__cxx1119basic_ostringstreamIcSt11char_traitsIcESaIcEE
 13169      00000000 
 13170 0028 00000000 		.quad	_ZTVN8UnitTest15MemoryOutStreamE+64
 13170      00000000 
 13171              		.hidden	_ZTCN8UnitTest15MemoryOutStreamE0_NSt7__cxx1119basic_ostringstreamIcSt11char_traitsIcESaIc
 13172              		.weak	_ZTCN8UnitTest15MemoryOutStreamE0_NSt7__cxx1119basic_ostringstreamIcSt11char_traitsIcESaIcEE
 13173              		.section	.rodata._ZTCN8UnitTest15MemoryOutStreamE0_NSt7__cxx1119basic_ostringstreamIcSt11char_trai
 13174              		.align 8
 13177              	_ZTCN8UnitTest15MemoryOutStreamE0_NSt7__cxx1119basic_ostringstreamIcSt11char_traitsIcESaIcEEE:
 13178 0000 90000000 		.quad	144
 13178      00000000 
 13179 0008 00000000 		.quad	0
 13179      00000000 
 13180 0010 00000000 		.quad	_ZTINSt7__cxx1119basic_ostringstreamIcSt11char_traitsIcESaIcEEE
 13180      00000000 
 13181 0018 00000000 		.quad	0
 13181      00000000 
 13182 0020 00000000 		.quad	0
 13182      00000000 
 13183 0028 70FFFFFF 		.quad	-144
 13183      FFFFFFFF 
 13184 0030 70FFFFFF 		.quad	-144
 13184      FFFFFFFF 
 13185 0038 00000000 		.quad	_ZTINSt7__cxx1119basic_ostringstreamIcSt11char_traitsIcESaIcEEE
 13185      00000000 
 13186 0040 00000000 		.quad	0
 13186      00000000 
 13187 0048 00000000 		.quad	0
 13187      00000000 
 13188              		.hidden	_ZTCN8UnitTest15MemoryOutStreamE0_So
 13189              		.weak	_ZTCN8UnitTest15MemoryOutStreamE0_So
 13190              		.section	.rodata._ZTCN8UnitTest15MemoryOutStreamE0_So,"aG",@progbits,_ZTVN8UnitTest15MemoryOutStre
 13191              		.align 8
 13194              	_ZTCN8UnitTest15MemoryOutStreamE0_So:
 13195 0000 90000000 		.quad	144
 13195      00000000 
 13196 0008 00000000 		.quad	0
 13196      00000000 
 13197 0010 00000000 		.quad	_ZTISo
 13197      00000000 
 13198 0018 00000000 		.quad	0
 13198      00000000 
 13199 0020 00000000 		.quad	0
 13199      00000000 
 13200 0028 70FFFFFF 		.quad	-144
 13200      FFFFFFFF 
 13201 0030 70FFFFFF 		.quad	-144
 13201      FFFFFFFF 
 13202 0038 00000000 		.quad	_ZTISo
 13202      00000000 
 13203 0040 00000000 		.quad	0
 13203      00000000 
 13204 0048 00000000 		.quad	0
 13204      00000000 
 13205              		.weak	_ZTI31TestQueue_testAllocFreeMatching
 13206              		.section	.rodata._ZTI31TestQueue_testAllocFreeMatching,"aG",@progbits,_ZTI31TestQueue_testAllocFre
 13207              		.align 8
 13210              	_ZTI31TestQueue_testAllocFreeMatching:
 13211 0000 00000000 		.quad	_ZTVN10__cxxabiv120__si_class_type_infoE+16
 13211      00000000 
 13212 0008 00000000 		.quad	_ZTS31TestQueue_testAllocFreeMatching
 13212      00000000 
 13213 0010 00000000 		.quad	_ZTIN8UnitTest4TestE
 13213      00000000 
 13214              		.weak	_ZTS31TestQueue_testAllocFreeMatching
 13215              		.section	.rodata._ZTS31TestQueue_testAllocFreeMatching,"aG",@progbits,_ZTS31TestQueue_testAllocFre
 13216              		.align 32
 13219              	_ZTS31TestQueue_testAllocFreeMatching:
 13220 0000 33315465 		.string	"31TestQueue_testAllocFreeMatching"
 13220      73745175 
 13220      6575655F 
 13220      74657374 
 13220      416C6C6F 
 13221              		.weak	_ZTI24TestQueue_testReallocOOM
 13222              		.section	.rodata._ZTI24TestQueue_testReallocOOM,"aG",@progbits,_ZTI24TestQueue_testReallocOOM,comd
 13223              		.align 8
 13226              	_ZTI24TestQueue_testReallocOOM:
 13227 0000 00000000 		.quad	_ZTVN10__cxxabiv120__si_class_type_infoE+16
 13227      00000000 
 13228 0008 00000000 		.quad	_ZTS24TestQueue_testReallocOOM
 13228      00000000 
 13229 0010 00000000 		.quad	_ZTIN8UnitTest4TestE
 13229      00000000 
 13230              		.weak	_ZTS24TestQueue_testReallocOOM
 13231              		.section	.rodata._ZTS24TestQueue_testReallocOOM,"aG",@progbits,_ZTS24TestQueue_testReallocOOM,comd
 13232              		.align 16
 13235              	_ZTS24TestQueue_testReallocOOM:
 13236 0000 32345465 		.string	"24TestQueue_testReallocOOM"
 13236      73745175 
 13236      6575655F 
 13236      74657374 
 13236      5265616C 
 13237              		.weak	_ZTI22TestQueue_testAllocOOM
 13238              		.section	.rodata._ZTI22TestQueue_testAllocOOM,"aG",@progbits,_ZTI22TestQueue_testAllocOOM,comdat
 13239              		.align 8
 13242              	_ZTI22TestQueue_testAllocOOM:
 13243 0000 00000000 		.quad	_ZTVN10__cxxabiv120__si_class_type_infoE+16
 13243      00000000 
 13244 0008 00000000 		.quad	_ZTS22TestQueue_testAllocOOM
 13244      00000000 
 13245 0010 00000000 		.quad	_ZTIN8UnitTest4TestE
 13245      00000000 
 13246              		.weak	_ZTS22TestQueue_testAllocOOM
 13247              		.section	.rodata._ZTS22TestQueue_testAllocOOM,"aG",@progbits,_ZTS22TestQueue_testAllocOOM,comdat
 13248              		.align 16
 13251              	_ZTS22TestQueue_testAllocOOM:
 13252 0000 32325465 		.string	"22TestQueue_testAllocOOM"
 13252      73745175 
 13252      6575655F 
 13252      74657374 
 13252      416C6C6F 
 13253              		.weak	_ZTI21TestQueue_testRealloc
 13254              		.section	.rodata._ZTI21TestQueue_testRealloc,"aG",@progbits,_ZTI21TestQueue_testRealloc,comdat
 13255              		.align 8
 13258              	_ZTI21TestQueue_testRealloc:
 13259 0000 00000000 		.quad	_ZTVN10__cxxabiv120__si_class_type_infoE+16
 13259      00000000 
 13260 0008 00000000 		.quad	_ZTS21TestQueue_testRealloc
 13260      00000000 
 13261 0010 00000000 		.quad	_ZTIN8UnitTest4TestE
 13261      00000000 
 13262              		.weak	_ZTS21TestQueue_testRealloc
 13263              		.section	.rodata._ZTS21TestQueue_testRealloc,"aG",@progbits,_ZTS21TestQueue_testRealloc,comdat
 13264              		.align 16
 13267              	_ZTS21TestQueue_testRealloc:
 13268 0000 32315465 		.string	"21TestQueue_testRealloc"
 13268      73745175 
 13268      6575655F 
 13268      74657374 
 13268      5265616C 
 13269              		.weak	_ZTI21TestQueue_testPutTake
 13270              		.section	.rodata._ZTI21TestQueue_testPutTake,"aG",@progbits,_ZTI21TestQueue_testPutTake,comdat
 13271              		.align 8
 13274              	_ZTI21TestQueue_testPutTake:
 13275 0000 00000000 		.quad	_ZTVN10__cxxabiv120__si_class_type_infoE+16
 13275      00000000 
 13276 0008 00000000 		.quad	_ZTS21TestQueue_testPutTake
 13276      00000000 
 13277 0010 00000000 		.quad	_ZTIN8UnitTest4TestE
 13277      00000000 
 13278              		.weak	_ZTS21TestQueue_testPutTake
 13279              		.section	.rodata._ZTS21TestQueue_testPutTake,"aG",@progbits,_ZTS21TestQueue_testPutTake,comdat
 13280              		.align 16
 13283              	_ZTS21TestQueue_testPutTake:
 13284 0000 32315465 		.string	"21TestQueue_testPutTake"
 13284      73745175 
 13284      6575655F 
 13284      74657374 
 13284      50757454 
 13285              		.weak	_ZTI21TestQueue_testPutWrap
 13286              		.section	.rodata._ZTI21TestQueue_testPutWrap,"aG",@progbits,_ZTI21TestQueue_testPutWrap,comdat
 13287              		.align 8
 13290              	_ZTI21TestQueue_testPutWrap:
 13291 0000 00000000 		.quad	_ZTVN10__cxxabiv120__si_class_type_infoE+16
 13291      00000000 
 13292 0008 00000000 		.quad	_ZTS21TestQueue_testPutWrap
 13292      00000000 
 13293 0010 00000000 		.quad	_ZTIN8UnitTest4TestE
 13293      00000000 
 13294              		.weak	_ZTS21TestQueue_testPutWrap
 13295              		.section	.rodata._ZTS21TestQueue_testPutWrap,"aG",@progbits,_ZTS21TestQueue_testPutWrap,comdat
 13296              		.align 16
 13299              	_ZTS21TestQueue_testPutWrap:
 13300 0000 32315465 		.string	"21TestQueue_testPutWrap"
 13300      73745175 
 13300      6575655F 
 13300      74657374 
 13300      50757457 
 13301              		.weak	_ZTI23TestQueue_testPutNoWrap
 13302              		.section	.rodata._ZTI23TestQueue_testPutNoWrap,"aG",@progbits,_ZTI23TestQueue_testPutNoWrap,comdat
 13303              		.align 8
 13306              	_ZTI23TestQueue_testPutNoWrap:
 13307 0000 00000000 		.quad	_ZTVN10__cxxabiv120__si_class_type_infoE+16
 13307      00000000 
 13308 0008 00000000 		.quad	_ZTS23TestQueue_testPutNoWrap
 13308      00000000 
 13309 0010 00000000 		.quad	_ZTIN8UnitTest4TestE
 13309      00000000 
 13310              		.weak	_ZTS23TestQueue_testPutNoWrap
 13311              		.section	.rodata._ZTS23TestQueue_testPutNoWrap,"aG",@progbits,_ZTS23TestQueue_testPutNoWrap,comdat
 13312              		.align 16
 13315              	_ZTS23TestQueue_testPutNoWrap:
 13316 0000 32335465 		.string	"23TestQueue_testPutNoWrap"
 13316      73745175 
 13316      6575655F 
 13316      74657374 
 13316      5075744E 
 13317              		.weak	_ZTI18TestQueue_testInit
 13318              		.section	.rodata._ZTI18TestQueue_testInit,"aG",@progbits,_ZTI18TestQueue_testInit,comdat
 13319              		.align 8
 13322              	_ZTI18TestQueue_testInit:
 13323 0000 00000000 		.quad	_ZTVN10__cxxabiv120__si_class_type_infoE+16
 13323      00000000 
 13324 0008 00000000 		.quad	_ZTS18TestQueue_testInit
 13324      00000000 
 13325 0010 00000000 		.quad	_ZTIN8UnitTest4TestE
 13325      00000000 
 13326              		.weak	_ZTS18TestQueue_testInit
 13327              		.section	.rodata._ZTS18TestQueue_testInit,"aG",@progbits,_ZTS18TestQueue_testInit,comdat
 13328              		.align 16
 13331              	_ZTS18TestQueue_testInit:
 13332 0000 31385465 		.string	"18TestQueue_testInit"
 13332      73745175 
 13332      6575655F 
 13332      74657374 
 13332      496E6974 
 13333              		.weak	_ZTIN8UnitTest15MemoryOutStreamE
 13334              		.section	.rodata._ZTIN8UnitTest15MemoryOutStreamE,"aG",@progbits,_ZTIN8UnitTest15MemoryOutStreamE,
 13335              		.align 8
 13338              	_ZTIN8UnitTest15MemoryOutStreamE:
 13339 0000 00000000 		.quad	_ZTVN10__cxxabiv120__si_class_type_infoE+16
 13339      00000000 
 13340 0008 00000000 		.quad	_ZTSN8UnitTest15MemoryOutStreamE
 13340      00000000 
 13341 0010 00000000 		.quad	_ZTINSt7__cxx1119basic_ostringstreamIcSt11char_traitsIcESaIcEEE
 13341      00000000 
 13342              		.weak	_ZTSN8UnitTest15MemoryOutStreamE
 13343              		.section	.rodata._ZTSN8UnitTest15MemoryOutStreamE,"aG",@progbits,_ZTSN8UnitTest15MemoryOutStreamE,
 13344              		.align 16
 13347              	_ZTSN8UnitTest15MemoryOutStreamE:
 13348 0000 4E38556E 		.string	"N8UnitTest15MemoryOutStreamE"
 13348      69745465 
 13348      73743135 
 13348      4D656D6F 
 13348      72794F75 
 13349              		.text
 13351              	_Z41__static_initialization_and_destruction_0ii:
 13352              	.LFB1235:
 13353              		.loc 3 386 0
 13354              		.cfi_startproc
 13355 566e 55       		pushq	%rbp
 13356              		.cfi_def_cfa_offset 16
 13357              		.cfi_offset 6, -16
 13358 566f 4889E5   		movq	%rsp, %rbp
 13359              		.cfi_def_cfa_register 6
 13360 5672 4883EC10 		subq	$16, %rsp
 13361 5676 897DFC   		movl	%edi, -4(%rbp)
 13362 5679 8975F8   		movl	%esi, -8(%rbp)
 13363              		.loc 3 386 0
 13364 567c 837DFC01 		cmpl	$1, -4(%rbp)
 13365 5680 0F85D301 		jne	.L918
 13365      0000
 13366              		.loc 3 386 0 is_stmt 0 discriminator 1
 13367 5686 817DF8FF 		cmpl	$65535, -8(%rbp)
 13367      FF0000
 13368 568d 0F85C601 		jne	.L918
 13368      0000
 13369              		.file 5 "/usr/include/c++/5/iostream"
   1:/usr/include/c++/5/iostream **** // Standard iostream objects -*- C++ -*-
   2:/usr/include/c++/5/iostream **** 
   3:/usr/include/c++/5/iostream **** // Copyright (C) 1997-2015 Free Software Foundation, Inc.
   4:/usr/include/c++/5/iostream **** //
   5:/usr/include/c++/5/iostream **** // This file is part of the GNU ISO C++ Library.  This library is free
   6:/usr/include/c++/5/iostream **** // software; you can redistribute it and/or modify it under the
   7:/usr/include/c++/5/iostream **** // terms of the GNU General Public License as published by the
   8:/usr/include/c++/5/iostream **** // Free Software Foundation; either version 3, or (at your option)
   9:/usr/include/c++/5/iostream **** // any later version.
  10:/usr/include/c++/5/iostream **** 
  11:/usr/include/c++/5/iostream **** // This library is distributed in the hope that it will be useful,
  12:/usr/include/c++/5/iostream **** // but WITHOUT ANY WARRANTY; without even the implied warranty of
  13:/usr/include/c++/5/iostream **** // MERCHANTABILITY or FITNESS FOR A PARTICULAR PURPOSE.  See the
  14:/usr/include/c++/5/iostream **** // GNU General Public License for more details.
  15:/usr/include/c++/5/iostream **** 
  16:/usr/include/c++/5/iostream **** // Under Section 7 of GPL version 3, you are granted additional
  17:/usr/include/c++/5/iostream **** // permissions described in the GCC Runtime Library Exception, version
  18:/usr/include/c++/5/iostream **** // 3.1, as published by the Free Software Foundation.
  19:/usr/include/c++/5/iostream **** 
  20:/usr/include/c++/5/iostream **** // You should have received a copy of the GNU General Public License and
  21:/usr/include/c++/5/iostream **** // a copy of the GCC Runtime Library Exception along with this program;
  22:/usr/include/c++/5/iostream **** // see the files COPYING3 and COPYING.RUNTIME respectively.  If not, see
  23:/usr/include/c++/5/iostream **** // <http://www.gnu.org/licenses/>.
  24:/usr/include/c++/5/iostream **** 
  25:/usr/include/c++/5/iostream **** /** @file include/iostream
  26:/usr/include/c++/5/iostream ****  *  This is a Standard C++ Library header.
  27:/usr/include/c++/5/iostream ****  */
  28:/usr/include/c++/5/iostream **** 
  29:/usr/include/c++/5/iostream **** //
  30:/usr/include/c++/5/iostream **** // ISO C++ 14882: 27.3  Standard iostream objects
  31:/usr/include/c++/5/iostream **** //
  32:/usr/include/c++/5/iostream **** 
  33:/usr/include/c++/5/iostream **** #ifndef _GLIBCXX_IOSTREAM
  34:/usr/include/c++/5/iostream **** #define _GLIBCXX_IOSTREAM 1
  35:/usr/include/c++/5/iostream **** 
  36:/usr/include/c++/5/iostream **** #pragma GCC system_header
  37:/usr/include/c++/5/iostream **** 
  38:/usr/include/c++/5/iostream **** #include <bits/c++config.h>
  39:/usr/include/c++/5/iostream **** #include <ostream>
  40:/usr/include/c++/5/iostream **** #include <istream>
  41:/usr/include/c++/5/iostream **** 
  42:/usr/include/c++/5/iostream **** namespace std _GLIBCXX_VISIBILITY(default)
  43:/usr/include/c++/5/iostream **** {
  44:/usr/include/c++/5/iostream **** _GLIBCXX_BEGIN_NAMESPACE_VERSION
  45:/usr/include/c++/5/iostream **** 
  46:/usr/include/c++/5/iostream ****   /**
  47:/usr/include/c++/5/iostream ****    *  @name Standard Stream Objects
  48:/usr/include/c++/5/iostream ****    *
  49:/usr/include/c++/5/iostream ****    *  The &lt;iostream&gt; header declares the eight <em>standard stream
  50:/usr/include/c++/5/iostream ****    *  objects</em>.  For other declarations, see
  51:/usr/include/c++/5/iostream ****    *  http://gcc.gnu.org/onlinedocs/libstdc++/manual/io.html
  52:/usr/include/c++/5/iostream ****    *  and the @link iosfwd I/O forward declarations @endlink
  53:/usr/include/c++/5/iostream ****    *
  54:/usr/include/c++/5/iostream ****    *  They are required by default to cooperate with the global C
  55:/usr/include/c++/5/iostream ****    *  library's @c FILE streams, and to be available during program
  56:/usr/include/c++/5/iostream ****    *  startup and termination. For more information, see the section of the
  57:/usr/include/c++/5/iostream ****    *  manual linked to above.
  58:/usr/include/c++/5/iostream ****   */
  59:/usr/include/c++/5/iostream ****   //@{
  60:/usr/include/c++/5/iostream ****   extern istream cin;		/// Linked to standard input
  61:/usr/include/c++/5/iostream ****   extern ostream cout;		/// Linked to standard output
  62:/usr/include/c++/5/iostream ****   extern ostream cerr;		/// Linked to standard error (unbuffered)
  63:/usr/include/c++/5/iostream ****   extern ostream clog;		/// Linked to standard error (buffered)
  64:/usr/include/c++/5/iostream **** 
  65:/usr/include/c++/5/iostream **** #ifdef _GLIBCXX_USE_WCHAR_T
  66:/usr/include/c++/5/iostream ****   extern wistream wcin;		/// Linked to standard input
  67:/usr/include/c++/5/iostream ****   extern wostream wcout;	/// Linked to standard output
  68:/usr/include/c++/5/iostream ****   extern wostream wcerr;	/// Linked to standard error (unbuffered)
  69:/usr/include/c++/5/iostream ****   extern wostream wclog;	/// Linked to standard error (buffered)
  70:/usr/include/c++/5/iostream **** #endif
  71:/usr/include/c++/5/iostream ****   //@}
  72:/usr/include/c++/5/iostream **** 
  73:/usr/include/c++/5/iostream ****   // For construction of filebuffers for cout, cin, cerr, clog et. al.
  74:/usr/include/c++/5/iostream ****   static ios_base::Init __ioinit;
 13370              		.loc 5 74 0 is_stmt 1
 13371 5693 BF000000 		movl	$_ZStL8__ioinit, %edi
 13371      00
 13372 5698 E8000000 		call	_ZNSt8ios_base4InitC1Ev
 13372      00
 13373 569d BA000000 		movl	$__dso_handle, %edx
 13373      00
 13374 56a2 BE000000 		movl	$_ZStL8__ioinit, %esi
 13374      00
 13375 56a7 BF000000 		movl	$_ZNSt8ios_base4InitD1Ev, %edi
 13375      00
 13376 56ac E8000000 		call	__cxa_atexit
 13376      00
  53:testCore.cpp  **** 	struct UnboundedQueue queue;
 13377              		.loc 3 53 0
 13378 56b1 BF000000 		movl	$testQueue_testInitInstance, %edi
 13378      00
 13379 56b6 E8000000 		call	_ZN18TestQueue_testInitC1Ev
 13379      00
 13380 56bb BA000000 		movl	$__dso_handle, %edx
 13380      00
 13381 56c0 BE000000 		movl	$testQueue_testInitInstance, %esi
 13381      00
 13382 56c5 BF000000 		movl	$_ZN18TestQueue_testInitD1Ev, %edi
 13382      00
 13383 56ca E8000000 		call	__cxa_atexit
 13383      00
 13384 56cf E8000000 		call	_ZN8UnitTest4Test11GetTestListEv
 13384      00
 13385 56d4 BA000000 		movl	$testQueue_testInitInstance, %edx
 13385      00
 13386 56d9 4889C6   		movq	%rax, %rsi
 13387 56dc BF000000 		movl	$adderQueue_testInit, %edi
 13387      00
 13388 56e1 E8000000 		call	_ZN8UnitTest9ListAdderC1ERNS_8TestListEPNS_4TestE
 13388      00
  77:testCore.cpp  **** 	struct UnboundedQueue queue;
 13389              		.loc 3 77 0
 13390 56e6 BF000000 		movl	$testQueue_testPutNoWrapInstance, %edi
 13390      00
 13391 56eb E8000000 		call	_ZN23TestQueue_testPutNoWrapC1Ev
 13391      00
 13392 56f0 BA000000 		movl	$__dso_handle, %edx
 13392      00
 13393 56f5 BE000000 		movl	$testQueue_testPutNoWrapInstance, %esi
 13393      00
 13394 56fa BF000000 		movl	$_ZN23TestQueue_testPutNoWrapD1Ev, %edi
 13394      00
 13395 56ff E8000000 		call	__cxa_atexit
 13395      00
 13396 5704 E8000000 		call	_ZN8UnitTest4Test11GetTestListEv
 13396      00
 13397 5709 BA000000 		movl	$testQueue_testPutNoWrapInstance, %edx
 13397      00
 13398 570e 4889C6   		movq	%rax, %rsi
 13399 5711 BF000000 		movl	$adderQueue_testPutNoWrap, %edi
 13399      00
 13400 5716 E8000000 		call	_ZN8UnitTest9ListAdderC1ERNS_8TestListEPNS_4TestE
 13400      00
 119:testCore.cpp  **** 	struct UnboundedQueue queue;
 13401              		.loc 3 119 0
 13402 571b BF000000 		movl	$testQueue_testPutWrapInstance, %edi
 13402      00
 13403 5720 E8000000 		call	_ZN21TestQueue_testPutWrapC1Ev
 13403      00
 13404 5725 BA000000 		movl	$__dso_handle, %edx
 13404      00
 13405 572a BE000000 		movl	$testQueue_testPutWrapInstance, %esi
 13405      00
 13406 572f BF000000 		movl	$_ZN21TestQueue_testPutWrapD1Ev, %edi
 13406      00
 13407 5734 E8000000 		call	__cxa_atexit
 13407      00
 13408 5739 E8000000 		call	_ZN8UnitTest4Test11GetTestListEv
 13408      00
 13409 573e BA000000 		movl	$testQueue_testPutWrapInstance, %edx
 13409      00
 13410 5743 4889C6   		movq	%rax, %rsi
 13411 5746 BF000000 		movl	$adderQueue_testPutWrap, %edi
 13411      00
 13412 574b E8000000 		call	_ZN8UnitTest9ListAdderC1ERNS_8TestListEPNS_4TestE
 13412      00
 166:testCore.cpp  **** 	struct UnboundedQueue queue;
 13413              		.loc 3 166 0
 13414 5750 BF000000 		movl	$testQueue_testPutTakeInstance, %edi
 13414      00
 13415 5755 E8000000 		call	_ZN21TestQueue_testPutTakeC1Ev
 13415      00
 13416 575a BA000000 		movl	$__dso_handle, %edx
 13416      00
 13417 575f BE000000 		movl	$testQueue_testPutTakeInstance, %esi
 13417      00
 13418 5764 BF000000 		movl	$_ZN21TestQueue_testPutTakeD1Ev, %edi
 13418      00
 13419 5769 E8000000 		call	__cxa_atexit
 13419      00
 13420 576e E8000000 		call	_ZN8UnitTest4Test11GetTestListEv
 13420      00
 13421 5773 BA000000 		movl	$testQueue_testPutTakeInstance, %edx
 13421      00
 13422 5778 4889C6   		movq	%rax, %rsi
 13423 577b BF000000 		movl	$adderQueue_testPutTake, %edi
 13423      00
 13424 5780 E8000000 		call	_ZN8UnitTest9ListAdderC1ERNS_8TestListEPNS_4TestE
 13424      00
 324:testCore.cpp  **** 	testRealloc(0);
 13425              		.loc 3 324 0
 13426 5785 BF000000 		movl	$testQueue_testReallocInstance, %edi
 13426      00
 13427 578a E8000000 		call	_ZN21TestQueue_testReallocC1Ev
 13427      00
 13428 578f BA000000 		movl	$__dso_handle, %edx
 13428      00
 13429 5794 BE000000 		movl	$testQueue_testReallocInstance, %esi
 13429      00
 13430 5799 BF000000 		movl	$_ZN21TestQueue_testReallocD1Ev, %edi
 13430      00
 13431 579e E8000000 		call	__cxa_atexit
 13431      00
 13432 57a3 E8000000 		call	_ZN8UnitTest4Test11GetTestListEv
 13432      00
 13433 57a8 BA000000 		movl	$testQueue_testReallocInstance, %edx
 13433      00
 13434 57ad 4889C6   		movq	%rax, %rsi
 13435 57b0 BF000000 		movl	$adderQueue_testRealloc, %edi
 13435      00
 13436 57b5 E8000000 		call	_ZN8UnitTest9ListAdderC1ERNS_8TestListEPNS_4TestE
 13436      00
 331:testCore.cpp  **** 	struct UnboundedQueue queue;
 13437              		.loc 3 331 0
 13438 57ba BF000000 		movl	$testQueue_testAllocOOMInstance, %edi
 13438      00
 13439 57bf E8000000 		call	_ZN22TestQueue_testAllocOOMC1Ev
 13439      00
 13440 57c4 BA000000 		movl	$__dso_handle, %edx
 13440      00
 13441 57c9 BE000000 		movl	$testQueue_testAllocOOMInstance, %esi
 13441      00
 13442 57ce BF000000 		movl	$_ZN22TestQueue_testAllocOOMD1Ev, %edi
 13442      00
 13443 57d3 E8000000 		call	__cxa_atexit
 13443      00
 13444 57d8 E8000000 		call	_ZN8UnitTest4Test11GetTestListEv
 13444      00
 13445 57dd BA000000 		movl	$testQueue_testAllocOOMInstance, %edx
 13445      00
 13446 57e2 4889C6   		movq	%rax, %rsi
 13447 57e5 BF000000 		movl	$adderQueue_testAllocOOM, %edi
 13447      00
 13448 57ea E8000000 		call	_ZN8UnitTest9ListAdderC1ERNS_8TestListEPNS_4TestE
 13448      00
 342:testCore.cpp  **** 	struct UnboundedQueue queue;
 13449              		.loc 3 342 0
 13450 57ef BF000000 		movl	$testQueue_testReallocOOMInstance, %edi
 13450      00
 13451 57f4 E8000000 		call	_ZN24TestQueue_testReallocOOMC1Ev
 13451      00
 13452 57f9 BA000000 		movl	$__dso_handle, %edx
 13452      00
 13453 57fe BE000000 		movl	$testQueue_testReallocOOMInstance, %esi
 13453      00
 13454 5803 BF000000 		movl	$_ZN24TestQueue_testReallocOOMD1Ev, %edi
 13454      00
 13455 5808 E8000000 		call	__cxa_atexit
 13455      00
 13456 580d E8000000 		call	_ZN8UnitTest4Test11GetTestListEv
 13456      00
 13457 5812 BA000000 		movl	$testQueue_testReallocOOMInstance, %edx
 13457      00
 13458 5817 4889C6   		movq	%rax, %rsi
 13459 581a BF000000 		movl	$adderQueue_testReallocOOM, %edi
 13459      00
 13460 581f E8000000 		call	_ZN8UnitTest9ListAdderC1ERNS_8TestListEPNS_4TestE
 13460      00
 384:testCore.cpp  **** 	CHECK_EQUAL(0, m_allocFree);
 13461              		.loc 3 384 0
 13462 5824 BF000000 		movl	$testQueue_testAllocFreeMatchingInstance, %edi
 13462      00
 13463 5829 E8000000 		call	_ZN31TestQueue_testAllocFreeMatchingC1Ev
 13463      00
 13464 582e BA000000 		movl	$__dso_handle, %edx
 13464      00
 13465 5833 BE000000 		movl	$testQueue_testAllocFreeMatchingInstance, %esi
 13465      00
 13466 5838 BF000000 		movl	$_ZN31TestQueue_testAllocFreeMatchingD1Ev, %edi
 13466      00
 13467 583d E8000000 		call	__cxa_atexit
 13467      00
 13468 5842 E8000000 		call	_ZN8UnitTest4Test11GetTestListEv
 13468      00
 13469 5847 BA000000 		movl	$testQueue_testAllocFreeMatchingInstance, %edx
 13469      00
 13470 584c 4889C6   		movq	%rax, %rsi
 13471 584f BF000000 		movl	$adderQueue_testAllocFreeMatching, %edi
 13471      00
 13472 5854 E8000000 		call	_ZN8UnitTest9ListAdderC1ERNS_8TestListEPNS_4TestE
 13472      00
 13473              	.L918:
 13474              		.loc 3 386 0
 13475 5859 90       		nop
 13476 585a C9       		leave
 13477              		.cfi_def_cfa 7, 8
 13478 585b C3       		ret
 13479              		.cfi_endproc
 13480              	.LFE1235:
 13483              	_GLOBAL__sub_I_createInt:
 13484              	.LFB1236:
 13485              		.loc 3 386 0
 13486              		.cfi_startproc
 13487 585c 55       		pushq	%rbp
 13488              		.cfi_def_cfa_offset 16
 13489              		.cfi_offset 6, -16
 13490 585d 4889E5   		movq	%rsp, %rbp
 13491              		.cfi_def_cfa_register 6
 13492              		.loc 3 386 0
 13493 5860 BEFFFF00 		movl	$65535, %esi
 13493      00
 13494 5865 BF010000 		movl	$1, %edi
 13494      00
 13495 586a E8FFFDFF 		call	_Z41__static_initialization_and_destruction_0ii
 13495      FF
 13496 586f 5D       		popq	%rbp
 13497              		.cfi_def_cfa 7, 8
 13498 5870 C3       		ret
 13499              		.cfi_endproc
 13500              	.LFE1236:
 13502              		.section	.init_array,"aw"
 13503              		.align 8
 13504 0000 00000000 		.quad	_GLOBAL__sub_I_createInt
 13504      00000000 
 13505              		.text
 13506              	.Letext0:
 13507              		.file 6 "/usr/include/c++/5/bits/basic_string.h"
 13508              		.file 7 "/usr/include/c++/5/bits/basic_string.tcc"
 13509              		.file 8 "/usr/include/c++/5/bits/stringfwd.h"
 13510              		.file 9 "/usr/include/c++/5/cwchar"
 13511              		.file 10 "/usr/include/c++/5/bits/char_traits.h"
 13512              		.file 11 "/usr/include/x86_64-linux-gnu/c++/5/bits/c++config.h"
 13513              		.file 12 "/usr/include/c++/5/clocale"
 13514              		.file 13 "/usr/include/c++/5/bits/allocator.h"
 13515              		.file 14 "/usr/include/c++/5/bits/ios_base.h"
 13516              		.file 15 "/usr/include/c++/5/cwctype"
 13517              		.file 16 "/usr/include/c++/5/cstdlib"
 13518              		.file 17 "/usr/include/c++/5/debug/debug.h"
 13519              		.file 18 "/usr/include/c++/5/bits/predefined_ops.h"
 13520              		.file 19 "/usr/include/c++/5/ext/new_allocator.h"
 13521              		.file 20 "/usr/include/c++/5/ext/numeric_traits.h"
 13522              		.file 21 "/usr/include/c++/5/ext/alloc_traits.h"
 13523              		.file 22 "/usr/include/libio.h"
 13524              		.file 23 "/usr/include/stdio.h"
 13525              		.file 24 "<built-in>"
 13526              		.file 25 "/usr/lib/gcc/x86_64-linux-gnu/5/include/stddef.h"
 13527              		.file 26 "/usr/include/wchar.h"
 13528              		.file 27 "/usr/include/time.h"
 13529              		.file 28 "/usr/include/locale.h"
 13530              		.file 29 "/usr/include/x86_64-linux-gnu/bits/types.h"
 13531              		.file 30 "/usr/include/x86_64-linux-gnu/c++/5/bits/atomic_word.h"
 13532              		.file 31 "/usr/include/wctype.h"
 13533              		.file 32 "/usr/include/stdlib.h"
 13534              		.file 33 "/home/shubham/20140524/makestuff/libs/libutpp/TestDetails.h"
 13535              		.file 34 "/home/shubham/20140524/makestuff/libs/libutpp/TestList.h"
 13536              		.file 35 "/home/shubham/20140524/makestuff/libs/libutpp/TestResults.h"
 13537              		.file 36 "/usr/include/x86_64-linux-gnu/sys/time.h"
 13538              		.file 37 "/home/shubham/20140524/makestuff/common/makestuff.h"
 13539              		.file 38 "../libusbwrap.h"
 13540              		.file 39 "../unbounded_queue.h"
DEFINED SYMBOLS
                            *ABS*:0000000000000000 testCore.cpp
                             .bss:00000000000001f9 _ZStL8__ioinit
     /tmp/ccUlGY8W.s:12     .text._ZN13UnitTestSuite12GetSuiteNameEv:0000000000000000 _ZN13UnitTestSuite12GetSuiteNameEv
     /tmp/ccUlGY8W.s:35     .text._ZN8UnitTest15MemoryOutStreamC1Ev:0000000000000000 _ZN8UnitTest15MemoryOutStreamC1Ev
     /tmp/ccUlGY8W.s:13164  .rodata._ZTTN8UnitTest15MemoryOutStreamE:0000000000000000 _ZTTN8UnitTest15MemoryOutStreamE
     /tmp/ccUlGY8W.s:13148  .rodata._ZTVN8UnitTest15MemoryOutStreamE:0000000000000000 _ZTVN8UnitTest15MemoryOutStreamE
     /tmp/ccUlGY8W.s:148    .data:0000000000000000 _ZL7m_count
     /tmp/ccUlGY8W.s:151    .bss:00000000000001fc _ZL11m_allocFree
     /tmp/ccUlGY8W.s:155    .text:0000000000000000 createInt
     /tmp/ccUlGY8W.s:204    .text:0000000000000059 destroyInt
     /tmp/ccUlGY8W.s:236    .text:000000000000008a _ZL5derefPKv
     /tmp/ccUlGY8W.s:265    .text._ZN18TestQueue_testInitC2Ev:0000000000000000 _ZN18TestQueue_testInitC2Ev
     /tmp/ccUlGY8W.s:13068  .rodata._ZTV18TestQueue_testInit:0000000000000000 _ZTV18TestQueue_testInit
     /tmp/ccUlGY8W.s:265    .text._ZN18TestQueue_testInitC2Ev:0000000000000000 _ZN18TestQueue_testInitC1Ev
     /tmp/ccUlGY8W.s:304    .bss:0000000000000000 testQueue_testInitInstance
     /tmp/ccUlGY8W.s:309    .bss:0000000000000038 adderQueue_testInit
     /tmp/ccUlGY8W.s:343    .text:000000000000009a _ZNK18TestQueue_testInit7RunImplEv
     /tmp/ccUlGY8W.s:11938  .text._ZN8UnitTest10CheckEqualI9USBStatusS1_EEvRNS_11TestResultsERKT_RKT0_RKNS_11TestDetailsE:0000000000000000 _ZN8UnitTest10CheckEqualI9USBStatusS1_EEvRNS_11TestResultsERKT_RKT0_RKNS_11TestDetailsE
     /tmp/ccUlGY8W.s:12082  .text._ZN8UnitTest10CheckEqualImmEEvRNS_11TestResultsERKT_RKT0_RKNS_11TestDetailsE:0000000000000000 _ZN8UnitTest10CheckEqualImmEEvRNS_11TestResultsERKT_RKT0_RKNS_11TestDetailsE
     /tmp/ccUlGY8W.s:12223  .text._ZN8UnitTest10CheckEqualImjEEvRNS_11TestResultsERKT_RKT0_RKNS_11TestDetailsE:0000000000000000 _ZN8UnitTest10CheckEqualImjEEvRNS_11TestResultsERKT_RKT0_RKNS_11TestDetailsE
     /tmp/ccUlGY8W.s:1188   .text._ZN23TestQueue_testPutNoWrapC2Ev:0000000000000000 _ZN23TestQueue_testPutNoWrapC2Ev
     /tmp/ccUlGY8W.s:12988  .rodata._ZTV23TestQueue_testPutNoWrap:0000000000000000 _ZTV23TestQueue_testPutNoWrap
     /tmp/ccUlGY8W.s:1188   .text._ZN23TestQueue_testPutNoWrapC2Ev:0000000000000000 _ZN23TestQueue_testPutNoWrapC1Ev
     /tmp/ccUlGY8W.s:1227   .bss:0000000000000040 testQueue_testPutNoWrapInstance
     /tmp/ccUlGY8W.s:1232   .bss:0000000000000078 adderQueue_testPutNoWrap
     /tmp/ccUlGY8W.s:1263   .text:000000000000072a _ZNK23TestQueue_testPutNoWrap7RunImplEv
     /tmp/ccUlGY8W.s:2660   .text._ZN21TestQueue_testPutWrapC2Ev:0000000000000000 _ZN21TestQueue_testPutWrapC2Ev
     /tmp/ccUlGY8W.s:12908  .rodata._ZTV21TestQueue_testPutWrap:0000000000000000 _ZTV21TestQueue_testPutWrap
     /tmp/ccUlGY8W.s:2660   .text._ZN21TestQueue_testPutWrapC2Ev:0000000000000000 _ZN21TestQueue_testPutWrapC1Ev
     /tmp/ccUlGY8W.s:2699   .bss:0000000000000080 testQueue_testPutWrapInstance
     /tmp/ccUlGY8W.s:2704   .bss:00000000000000b8 adderQueue_testPutWrap
     /tmp/ccUlGY8W.s:2720   .text:0000000000001238 _ZNK21TestQueue_testPutWrap7RunImplEv
     /tmp/ccUlGY8W.s:4299   .text._ZN21TestQueue_testPutTakeC2Ev:0000000000000000 _ZN21TestQueue_testPutTakeC2Ev
     /tmp/ccUlGY8W.s:12828  .rodata._ZTV21TestQueue_testPutTake:0000000000000000 _ZTV21TestQueue_testPutTake
     /tmp/ccUlGY8W.s:4299   .text._ZN21TestQueue_testPutTakeC2Ev:0000000000000000 _ZN21TestQueue_testPutTakeC1Ev
     /tmp/ccUlGY8W.s:4338   .bss:00000000000000c0 testQueue_testPutTakeInstance
     /tmp/ccUlGY8W.s:4343   .bss:00000000000000f8 adderQueue_testPutTake
     /tmp/ccUlGY8W.s:4362   .text:0000000000001eba _ZNK21TestQueue_testPutTake7RunImplEv
     /tmp/ccUlGY8W.s:6723   .text:00000000000030e8 _Z11testReallocm
     /tmp/ccUlGY8W.s:10155  .text._ZN21TestQueue_testReallocC2Ev:0000000000000000 _ZN21TestQueue_testReallocC2Ev
     /tmp/ccUlGY8W.s:12748  .rodata._ZTV21TestQueue_testRealloc:0000000000000000 _ZTV21TestQueue_testRealloc
     /tmp/ccUlGY8W.s:10155  .text._ZN21TestQueue_testReallocC2Ev:0000000000000000 _ZN21TestQueue_testReallocC1Ev
     /tmp/ccUlGY8W.s:10194  .bss:0000000000000100 testQueue_testReallocInstance
     /tmp/ccUlGY8W.s:10199  .bss:0000000000000138 adderQueue_testRealloc
     /tmp/ccUlGY8W.s:10205  .text:0000000000004c7c _ZNK21TestQueue_testRealloc7RunImplEv
     /tmp/ccUlGY8W.s:10243  .text._ZN22TestQueue_testAllocOOMC2Ev:0000000000000000 _ZN22TestQueue_testAllocOOMC2Ev
     /tmp/ccUlGY8W.s:12668  .rodata._ZTV22TestQueue_testAllocOOM:0000000000000000 _ZTV22TestQueue_testAllocOOM
     /tmp/ccUlGY8W.s:10243  .text._ZN22TestQueue_testAllocOOMC2Ev:0000000000000000 _ZN22TestQueue_testAllocOOMC1Ev
     /tmp/ccUlGY8W.s:10282  .bss:0000000000000140 testQueue_testAllocOOMInstance
     /tmp/ccUlGY8W.s:10287  .bss:0000000000000178 adderQueue_testAllocOOM
     /tmp/ccUlGY8W.s:10297  .text:0000000000004cb4 _ZNK22TestQueue_testAllocOOM7RunImplEv
     /tmp/ccUlGY8W.s:10467  .text._ZN24TestQueue_testReallocOOMC2Ev:0000000000000000 _ZN24TestQueue_testReallocOOMC2Ev
     /tmp/ccUlGY8W.s:12588  .rodata._ZTV24TestQueue_testReallocOOM:0000000000000000 _ZTV24TestQueue_testReallocOOM
     /tmp/ccUlGY8W.s:10467  .text._ZN24TestQueue_testReallocOOMC2Ev:0000000000000000 _ZN24TestQueue_testReallocOOMC1Ev
     /tmp/ccUlGY8W.s:10506  .bss:0000000000000180 testQueue_testReallocOOMInstance
     /tmp/ccUlGY8W.s:10511  .bss:00000000000001b8 adderQueue_testReallocOOM
     /tmp/ccUlGY8W.s:10517  .text:0000000000004dc6 _ZNK24TestQueue_testReallocOOM7RunImplEv
     /tmp/ccUlGY8W.s:11556  .text._ZN31TestQueue_testAllocFreeMatchingC2Ev:0000000000000000 _ZN31TestQueue_testAllocFreeMatchingC2Ev
     /tmp/ccUlGY8W.s:12508  .rodata._ZTV31TestQueue_testAllocFreeMatching:0000000000000000 _ZTV31TestQueue_testAllocFreeMatching
     /tmp/ccUlGY8W.s:11556  .text._ZN31TestQueue_testAllocFreeMatchingC2Ev:0000000000000000 _ZN31TestQueue_testAllocFreeMatchingC1Ev
     /tmp/ccUlGY8W.s:11595  .bss:00000000000001c0 testQueue_testAllocFreeMatchingInstance
     /tmp/ccUlGY8W.s:11600  .bss:00000000000001f8 adderQueue_testAllocFreeMatching
     /tmp/ccUlGY8W.s:11610  .text:0000000000005596 _ZNK31TestQueue_testAllocFreeMatching7RunImplEv
     /tmp/ccUlGY8W.s:12365  .text._ZN8UnitTest10CheckEqualIiiEEvRNS_11TestResultsERKT_RKT0_RKNS_11TestDetailsE:0000000000000000 _ZN8UnitTest10CheckEqualIiiEEvRNS_11TestResultsERKT_RKT0_RKNS_11TestDetailsE
     /tmp/ccUlGY8W.s:11751  .text._ZN8UnitTest15MemoryOutStreamD1Ev:0000000000000000 _ZN8UnitTest15MemoryOutStreamD1Ev
     /tmp/ccUlGY8W.s:11879  .text._ZN8UnitTest15MemoryOutStreamD1Ev:00000000000000cc _ZTv0_n24_N8UnitTest15MemoryOutStreamD1Ev
     /tmp/ccUlGY8W.s:11893  .text._ZN8UnitTest15MemoryOutStreamD0Ev:0000000000000000 _ZN8UnitTest15MemoryOutStreamD0Ev
     /tmp/ccUlGY8W.s:11920  .text._ZN8UnitTest15MemoryOutStreamD0Ev:0000000000000026 _ZTv0_n24_N8UnitTest15MemoryOutStreamD0Ev
     /tmp/ccUlGY8W.s:13210  .rodata._ZTI31TestQueue_testAllocFreeMatching:0000000000000000 _ZTI31TestQueue_testAllocFreeMatching
     /tmp/ccUlGY8W.s:12518  .text._ZN31TestQueue_testAllocFreeMatchingD2Ev:0000000000000000 _ZN31TestQueue_testAllocFreeMatchingD1Ev
     /tmp/ccUlGY8W.s:12559  .text._ZN31TestQueue_testAllocFreeMatchingD0Ev:0000000000000000 _ZN31TestQueue_testAllocFreeMatchingD0Ev
     /tmp/ccUlGY8W.s:12518  .text._ZN31TestQueue_testAllocFreeMatchingD2Ev:0000000000000000 _ZN31TestQueue_testAllocFreeMatchingD2Ev
     /tmp/ccUlGY8W.s:13226  .rodata._ZTI24TestQueue_testReallocOOM:0000000000000000 _ZTI24TestQueue_testReallocOOM
     /tmp/ccUlGY8W.s:12598  .text._ZN24TestQueue_testReallocOOMD2Ev:0000000000000000 _ZN24TestQueue_testReallocOOMD1Ev
     /tmp/ccUlGY8W.s:12639  .text._ZN24TestQueue_testReallocOOMD0Ev:0000000000000000 _ZN24TestQueue_testReallocOOMD0Ev
     /tmp/ccUlGY8W.s:12598  .text._ZN24TestQueue_testReallocOOMD2Ev:0000000000000000 _ZN24TestQueue_testReallocOOMD2Ev
     /tmp/ccUlGY8W.s:13242  .rodata._ZTI22TestQueue_testAllocOOM:0000000000000000 _ZTI22TestQueue_testAllocOOM
     /tmp/ccUlGY8W.s:12678  .text._ZN22TestQueue_testAllocOOMD2Ev:0000000000000000 _ZN22TestQueue_testAllocOOMD1Ev
     /tmp/ccUlGY8W.s:12719  .text._ZN22TestQueue_testAllocOOMD0Ev:0000000000000000 _ZN22TestQueue_testAllocOOMD0Ev
     /tmp/ccUlGY8W.s:12678  .text._ZN22TestQueue_testAllocOOMD2Ev:0000000000000000 _ZN22TestQueue_testAllocOOMD2Ev
     /tmp/ccUlGY8W.s:13258  .rodata._ZTI21TestQueue_testRealloc:0000000000000000 _ZTI21TestQueue_testRealloc
     /tmp/ccUlGY8W.s:12758  .text._ZN21TestQueue_testReallocD2Ev:0000000000000000 _ZN21TestQueue_testReallocD1Ev
     /tmp/ccUlGY8W.s:12799  .text._ZN21TestQueue_testReallocD0Ev:0000000000000000 _ZN21TestQueue_testReallocD0Ev
     /tmp/ccUlGY8W.s:12758  .text._ZN21TestQueue_testReallocD2Ev:0000000000000000 _ZN21TestQueue_testReallocD2Ev
     /tmp/ccUlGY8W.s:13274  .rodata._ZTI21TestQueue_testPutTake:0000000000000000 _ZTI21TestQueue_testPutTake
     /tmp/ccUlGY8W.s:12838  .text._ZN21TestQueue_testPutTakeD2Ev:0000000000000000 _ZN21TestQueue_testPutTakeD1Ev
     /tmp/ccUlGY8W.s:12879  .text._ZN21TestQueue_testPutTakeD0Ev:0000000000000000 _ZN21TestQueue_testPutTakeD0Ev
     /tmp/ccUlGY8W.s:12838  .text._ZN21TestQueue_testPutTakeD2Ev:0000000000000000 _ZN21TestQueue_testPutTakeD2Ev
     /tmp/ccUlGY8W.s:13290  .rodata._ZTI21TestQueue_testPutWrap:0000000000000000 _ZTI21TestQueue_testPutWrap
     /tmp/ccUlGY8W.s:12918  .text._ZN21TestQueue_testPutWrapD2Ev:0000000000000000 _ZN21TestQueue_testPutWrapD1Ev
     /tmp/ccUlGY8W.s:12959  .text._ZN21TestQueue_testPutWrapD0Ev:0000000000000000 _ZN21TestQueue_testPutWrapD0Ev
     /tmp/ccUlGY8W.s:12918  .text._ZN21TestQueue_testPutWrapD2Ev:0000000000000000 _ZN21TestQueue_testPutWrapD2Ev
     /tmp/ccUlGY8W.s:13306  .rodata._ZTI23TestQueue_testPutNoWrap:0000000000000000 _ZTI23TestQueue_testPutNoWrap
     /tmp/ccUlGY8W.s:12998  .text._ZN23TestQueue_testPutNoWrapD2Ev:0000000000000000 _ZN23TestQueue_testPutNoWrapD1Ev
     /tmp/ccUlGY8W.s:13039  .text._ZN23TestQueue_testPutNoWrapD0Ev:0000000000000000 _ZN23TestQueue_testPutNoWrapD0Ev
     /tmp/ccUlGY8W.s:12998  .text._ZN23TestQueue_testPutNoWrapD2Ev:0000000000000000 _ZN23TestQueue_testPutNoWrapD2Ev
     /tmp/ccUlGY8W.s:13322  .rodata._ZTI18TestQueue_testInit:0000000000000000 _ZTI18TestQueue_testInit
     /tmp/ccUlGY8W.s:13078  .text._ZN18TestQueue_testInitD2Ev:0000000000000000 _ZN18TestQueue_testInitD1Ev
     /tmp/ccUlGY8W.s:13119  .text._ZN18TestQueue_testInitD0Ev:0000000000000000 _ZN18TestQueue_testInitD0Ev
     /tmp/ccUlGY8W.s:13078  .text._ZN18TestQueue_testInitD2Ev:0000000000000000 _ZN18TestQueue_testInitD2Ev
     /tmp/ccUlGY8W.s:13338  .rodata._ZTIN8UnitTest15MemoryOutStreamE:0000000000000000 _ZTIN8UnitTest15MemoryOutStreamE
     /tmp/ccUlGY8W.s:13177  .rodata._ZTCN8UnitTest15MemoryOutStreamE0_NSt7__cxx1119basic_ostringstreamIcSt11char_traitsIcESaIcEEE:0000000000000000 _ZTCN8UnitTest15MemoryOutStreamE0_NSt7__cxx1119basic_ostringstreamIcSt11char_traitsIcESaIcEEE
     /tmp/ccUlGY8W.s:13194  .rodata._ZTCN8UnitTest15MemoryOutStreamE0_So:0000000000000000 _ZTCN8UnitTest15MemoryOutStreamE0_So
     /tmp/ccUlGY8W.s:13219  .rodata._ZTS31TestQueue_testAllocFreeMatching:0000000000000000 _ZTS31TestQueue_testAllocFreeMatching
     /tmp/ccUlGY8W.s:13235  .rodata._ZTS24TestQueue_testReallocOOM:0000000000000000 _ZTS24TestQueue_testReallocOOM
     /tmp/ccUlGY8W.s:13251  .rodata._ZTS22TestQueue_testAllocOOM:0000000000000000 _ZTS22TestQueue_testAllocOOM
     /tmp/ccUlGY8W.s:13267  .rodata._ZTS21TestQueue_testRealloc:0000000000000000 _ZTS21TestQueue_testRealloc
     /tmp/ccUlGY8W.s:13283  .rodata._ZTS21TestQueue_testPutTake:0000000000000000 _ZTS21TestQueue_testPutTake
     /tmp/ccUlGY8W.s:13299  .rodata._ZTS21TestQueue_testPutWrap:0000000000000000 _ZTS21TestQueue_testPutWrap
     /tmp/ccUlGY8W.s:13315  .rodata._ZTS23TestQueue_testPutNoWrap:0000000000000000 _ZTS23TestQueue_testPutNoWrap
     /tmp/ccUlGY8W.s:13331  .rodata._ZTS18TestQueue_testInit:0000000000000000 _ZTS18TestQueue_testInit
     /tmp/ccUlGY8W.s:13347  .rodata._ZTSN8UnitTest15MemoryOutStreamE:0000000000000000 _ZTSN8UnitTest15MemoryOutStreamE
     /tmp/ccUlGY8W.s:13351  .text:000000000000566e _Z41__static_initialization_and_destruction_0ii
     /tmp/ccUlGY8W.s:13483  .text:000000000000585c _GLOBAL__sub_I_createInt
                           .group:0000000000000000 _ZN18TestQueue_testInitC5Ev
                           .group:0000000000000000 _ZN23TestQueue_testPutNoWrapC5Ev
                           .group:0000000000000000 _ZN21TestQueue_testPutWrapC5Ev
                           .group:0000000000000000 _ZN21TestQueue_testPutTakeC5Ev
                           .group:0000000000000000 _ZN21TestQueue_testReallocC5Ev
                           .group:0000000000000000 _ZN22TestQueue_testAllocOOMC5Ev
                           .group:0000000000000000 _ZN24TestQueue_testReallocOOMC5Ev
                           .group:0000000000000000 _ZN31TestQueue_testAllocFreeMatchingC5Ev
                           .group:0000000000000000 _ZN31TestQueue_testAllocFreeMatchingD5Ev
                           .group:0000000000000000 _ZN24TestQueue_testReallocOOMD5Ev
                           .group:0000000000000000 _ZN22TestQueue_testAllocOOMD5Ev
                           .group:0000000000000000 _ZN21TestQueue_testReallocD5Ev
                           .group:0000000000000000 _ZN21TestQueue_testPutTakeD5Ev
                           .group:0000000000000000 _ZN21TestQueue_testPutWrapD5Ev
                           .group:0000000000000000 _ZN23TestQueue_testPutNoWrapD5Ev
                           .group:0000000000000000 _ZN18TestQueue_testInitD5Ev

UNDEFINED SYMBOLS
__gxx_personality_v0
_ZNSt9basic_iosIcSt11char_traitsIcEEC2Ev
_ZNSt7__cxx1119basic_ostringstreamIcSt11char_traitsIcESaIcEEC2ESt13_Ios_Openmode
_ZNSt7__cxx1112basic_stringIcSt11char_traitsIcESaIcEEC1Ev
_ZNSt7__cxx1119basic_ostringstreamIcSt11char_traitsIcESaIcEED2Ev
_ZNSt9basic_iosIcSt11char_traitsIcEED2Ev
_Unwind_Resume
malloc
free
_ZN8UnitTest4TestC2EPKcS2_S2_i
queueInit
_ZN8UnitTest11CurrentTest7DetailsEv
_ZN8UnitTest11TestDetailsC1ERKS0_i
_ZN8UnitTest11CurrentTest7ResultsEv
queueDestroy
__cxa_begin_catch
_ZN8UnitTest11TestResults13OnTestFailureERKNS_11TestDetailsEPKc
__cxa_end_catch
__stack_chk_fail
queuePut
queueCommitPut
queueTake
queueCommitTake
_ZNSt7__cxx1112basic_stringIcSt11char_traitsIcESaIcEED1Ev
_ZdlPv
_ZStlsISt11char_traitsIcEERSt13basic_ostreamIcT_ES5_PKc
_ZNSolsEi
_ZNK8UnitTest15MemoryOutStream7GetTextEv
_ZNSolsEm
_ZNSolsEj
_ZN8UnitTest4TestD2Ev
_ZTINSt7__cxx1119basic_ostringstreamIcSt11char_traitsIcESaIcEEE
_ZTISo
_ZTVN10__cxxabiv120__si_class_type_infoE
_ZTIN8UnitTest4TestE
_ZNSt8ios_base4InitC1Ev
__dso_handle
_ZNSt8ios_base4InitD1Ev
__cxa_atexit
_ZN8UnitTest4Test11GetTestListEv
_ZN8UnitTest9ListAdderC1ERNS_8TestListEPNS_4TestE
