   1              		.file	"testCore.cpp"
   2              		.text
   3              	.Ltext0:
   4              		.local	_ZStL8__ioinit
   5              		.comm	_ZStL8__ioinit,1,1
   6              		.section	.rodata
   7              	.LC0:
   8 0000 44656661 		.string	"DefaultSuite"
   8      756C7453 
   8      75697465 
   8      00
   9              		.section	.text._ZN13UnitTestSuite12GetSuiteNameEv,"axG",@progbits,_ZN13UnitTestSuite12GetSuiteName
  10              		.weak	_ZN13UnitTestSuite12GetSuiteNameEv
  12              	_ZN13UnitTestSuite12GetSuiteNameEv:
  13              	.LFB1025:
  14              		.file 1 "/home/shubham/20140524/makestuff/libs/libutpp/TestSuite.h"
   1:/home/shubham/20140524/makestuff/libs/libutpp/TestSuite.h **** #ifndef UNITTEST_TESTSUITE_H
   2:/home/shubham/20140524/makestuff/libs/libutpp/TestSuite.h **** #define UNITTEST_TESTSUITE_H
   3:/home/shubham/20140524/makestuff/libs/libutpp/TestSuite.h **** 
   4:/home/shubham/20140524/makestuff/libs/libutpp/TestSuite.h **** namespace UnitTestSuite {
   5:/home/shubham/20140524/makestuff/libs/libutpp/TestSuite.h **** 
   6:/home/shubham/20140524/makestuff/libs/libutpp/TestSuite.h ****     inline char const* GetSuiteName ()
   7:/home/shubham/20140524/makestuff/libs/libutpp/TestSuite.h ****     {
  15              		.loc 1 7 0
  16              		.cfi_startproc
  17 0000 55       		pushq	%rbp
  18              		.cfi_def_cfa_offset 16
  19              		.cfi_offset 6, -16
  20 0001 4889E5   		movq	%rsp, %rbp
  21              		.cfi_def_cfa_register 6
   8:/home/shubham/20140524/makestuff/libs/libutpp/TestSuite.h ****         return "DefaultSuite";
  22              		.loc 1 8 0
  23 0004 B8000000 		movl	$.LC0, %eax
  23      00
   9:/home/shubham/20140524/makestuff/libs/libutpp/TestSuite.h ****     }
  24              		.loc 1 9 0
  25 0009 5D       		popq	%rbp
  26              		.cfi_def_cfa 7, 8
  27 000a C3       		ret
  28              		.cfi_endproc
  29              	.LFE1025:
  31              		.section	.text._ZN8UnitTest15MemoryOutStreamC1Ev,"axG",@progbits,_ZN8UnitTest15MemoryOutStreamC1Ev
  32              		.align 2
  33              		.weak	_ZN8UnitTest15MemoryOutStreamC1Ev
  35              	_ZN8UnitTest15MemoryOutStreamC1Ev:
  36              	.LFB1061:
  37              		.file 2 "/home/shubham/20140524/makestuff/libs/libutpp/MemoryOutStream.h"
   1:/home/shubham/20140524/makestuff/libs/libutpp/MemoryOutStream.h **** #ifndef UNITTEST_MEMORYOUTSTREAM_H
   2:/home/shubham/20140524/makestuff/libs/libutpp/MemoryOutStream.h **** #define UNITTEST_MEMORYOUTSTREAM_H
   3:/home/shubham/20140524/makestuff/libs/libutpp/MemoryOutStream.h **** 
   4:/home/shubham/20140524/makestuff/libs/libutpp/MemoryOutStream.h **** #include "Config.h"
   5:/home/shubham/20140524/makestuff/libs/libutpp/MemoryOutStream.h **** 
   6:/home/shubham/20140524/makestuff/libs/libutpp/MemoryOutStream.h **** #ifndef UNITTEST_USE_CUSTOM_STREAMS
   7:/home/shubham/20140524/makestuff/libs/libutpp/MemoryOutStream.h **** 
   8:/home/shubham/20140524/makestuff/libs/libutpp/MemoryOutStream.h **** #include <sstream>
   9:/home/shubham/20140524/makestuff/libs/libutpp/MemoryOutStream.h **** 
  10:/home/shubham/20140524/makestuff/libs/libutpp/MemoryOutStream.h **** namespace UnitTest
  11:/home/shubham/20140524/makestuff/libs/libutpp/MemoryOutStream.h **** {
  12:/home/shubham/20140524/makestuff/libs/libutpp/MemoryOutStream.h **** 
  13:/home/shubham/20140524/makestuff/libs/libutpp/MemoryOutStream.h **** class MemoryOutStream : public std::ostringstream
  14:/home/shubham/20140524/makestuff/libs/libutpp/MemoryOutStream.h **** {
  15:/home/shubham/20140524/makestuff/libs/libutpp/MemoryOutStream.h **** public:
  16:/home/shubham/20140524/makestuff/libs/libutpp/MemoryOutStream.h ****     MemoryOutStream() {}
  38              		.loc 2 16 0
  39              		.cfi_startproc
  40              		.cfi_personality 0x3,__gxx_personality_v0
  41              		.cfi_lsda 0x3,.LLSDA1061
  42 0000 55       		pushq	%rbp
  43              		.cfi_def_cfa_offset 16
  44              		.cfi_offset 6, -16
  45 0001 4889E5   		movq	%rsp, %rbp
  46              		.cfi_def_cfa_register 6
  47 0004 53       		pushq	%rbx
  48 0005 4883EC18 		subq	$24, %rsp
  49              		.cfi_offset 3, -24
  50 0009 48897DE8 		movq	%rdi, -24(%rbp)
  51              	.LBB2:
  52              		.loc 2 16 0
  53 000d 488B45E8 		movq	-24(%rbp), %rax
  54 0011 48059000 		addq	$144, %rax
  54      0000
  55 0017 4889C7   		movq	%rax, %rdi
  56              	.LEHB0:
  57 001a E8000000 		call	_ZNSt9basic_iosIcSt11char_traitsIcEEC2Ev
  57      00
  58              	.LEHE0:
  59 001f B9000000 		movl	$_ZTTN8UnitTest15MemoryOutStreamE+8, %ecx
  59      00
  60 0024 488B45E8 		movq	-24(%rbp), %rax
  61 0028 BA100000 		movl	$16, %edx
  61      00
  62 002d 4889CE   		movq	%rcx, %rsi
  63 0030 4889C7   		movq	%rax, %rdi
  64              	.LEHB1:
  65 0033 E8000000 		call	_ZNSt7__cxx1119basic_ostringstreamIcSt11char_traitsIcESaIcEEC2ESt13_Ios_Openmode
  65      00
  66              	.LEHE1:
  67              		.loc 2 16 0 is_stmt 0 discriminator 9
  68 0038 BA000000 		movl	$_ZTVN8UnitTest15MemoryOutStreamE+24, %edx
  68      00
  69 003d 488B45E8 		movq	-24(%rbp), %rax
  70 0041 488910   		movq	%rdx, (%rax)
  71 0044 BA900000 		movl	$144, %edx
  71      00
  72 0049 488B45E8 		movq	-24(%rbp), %rax
  73 004d 4801D0   		addq	%rdx, %rax
  74 0050 BA000000 		movl	$_ZTVN8UnitTest15MemoryOutStreamE+64, %edx
  74      00
  75 0055 488910   		movq	%rdx, (%rax)
  76 0058 488B45E8 		movq	-24(%rbp), %rax
  77 005c 4883C070 		addq	$112, %rax
  78 0060 4889C7   		movq	%rax, %rdi
  79              	.LEHB2:
  80 0063 E8000000 		call	_ZNSt7__cxx1112basic_stringIcSt11char_traitsIcESaIcEEC1Ev
  80      00
  81              	.LEHE2:
  82              	.LBE2:
  83              		.loc 2 16 0
  84 0068 EB39     		jmp	.L9
  85              	.L7:
  86 006a 4889C3   		movq	%rax, %rbx
  87              	.LBB3:
  88 006d BA000000 		movl	$_ZTTN8UnitTest15MemoryOutStreamE+8, %edx
  88      00
  89 0072 488B45E8 		movq	-24(%rbp), %rax
  90 0076 4889D6   		movq	%rdx, %rsi
  91 0079 4889C7   		movq	%rax, %rdi
  92 007c E8000000 		call	_ZNSt7__cxx1119basic_ostringstreamIcSt11char_traitsIcESaIcEED2Ev
  92      00
  93 0081 EB03     		jmp	.L8
  94              	.L6:
  95 0083 4889C3   		movq	%rax, %rbx
  96              	.L8:
  97              		.loc 2 16 0 discriminator 28
  98 0086 488B45E8 		movq	-24(%rbp), %rax
  99 008a 48059000 		addq	$144, %rax
  99      0000
 100 0090 4889C7   		movq	%rax, %rdi
 101 0093 E8000000 		call	_ZNSt9basic_iosIcSt11char_traitsIcEED2Ev
 101      00
 102 0098 4889D8   		movq	%rbx, %rax
 103 009b 4889C7   		movq	%rax, %rdi
 104              	.LEHB3:
 105 009e E8000000 		call	_Unwind_Resume
 105      00
 106              	.LEHE3:
 107              	.L9:
 108              	.LBE3:
 109              		.loc 2 16 0
 110 00a3 4883C418 		addq	$24, %rsp
 111 00a7 5B       		popq	%rbx
 112 00a8 5D       		popq	%rbp
 113              		.cfi_def_cfa 7, 8
 114 00a9 C3       		ret
 115              		.cfi_endproc
 116              	.LFE1061:
 117              		.globl	__gxx_personality_v0
 118              		.section	.gcc_except_table._ZN8UnitTest15MemoryOutStreamC1Ev,"aG",@progbits,_ZN8UnitTest15MemoryOu
 119              	.LLSDA1061:
 120 0000 FF       		.byte	0xff
 121 0001 FF       		.byte	0xff
 122 0002 01       		.byte	0x1
 123 0003 12       		.uleb128 .LLSDACSE1061-.LLSDACSB1061
 124              	.LLSDACSB1061:
 125 0004 1A       		.uleb128 .LEHB0-.LFB1061
 126 0005 05       		.uleb128 .LEHE0-.LEHB0
 127 0006 00       		.uleb128 0
 128 0007 00       		.uleb128 0
 129 0008 33       		.uleb128 .LEHB1-.LFB1061
 130 0009 05       		.uleb128 .LEHE1-.LEHB1
 131 000a 8301     		.uleb128 .L6-.LFB1061
 132 000c 00       		.uleb128 0
 133 000d 63       		.uleb128 .LEHB2-.LFB1061
 134 000e 05       		.uleb128 .LEHE2-.LEHB2
 135 000f 6A       		.uleb128 .L7-.LFB1061
 136 0010 00       		.uleb128 0
 137 0011 9E01     		.uleb128 .LEHB3-.LFB1061
 138 0013 05       		.uleb128 .LEHE3-.LEHB3
 139 0014 00       		.uleb128 0
 140 0015 00       		.uleb128 0
 141              	.LLSDACSE1061:
 142              		.section	.text._ZN8UnitTest15MemoryOutStreamC1Ev,"axG",@progbits,_ZN8UnitTest15MemoryOutStreamC1Ev
 144              		.data
 145              		.align 4
 148              	_ZL7m_count:
 149 0000 01000000 		.long	1
 150              		.local	_ZL11m_allocFree
 151              		.comm	_ZL11m_allocFree,4,4
 152              		.text
 153              		.globl	createInt
 155              	createInt:
 156              	.LFB1078:
 157              		.file 3 "testCore.cpp"
   1:testCore.cpp  **** /*
   2:testCore.cpp  ****  * Copyright (C) 2009-2012 Chris McClelland
   3:testCore.cpp  ****  *
   4:testCore.cpp  ****  * This program is free software: you can redistribute it and/or modify
   5:testCore.cpp  ****  * it under the terms of the GNU Lesser General Public License as published by
   6:testCore.cpp  ****  * the Free Software Foundation, either version 3 of the License, or
   7:testCore.cpp  ****  * (at your option) any later version.
   8:testCore.cpp  ****  *
   9:testCore.cpp  ****  * This program is distributed in the hope that it will be useful,
  10:testCore.cpp  ****  * but WITHOUT ANY WARRANTY; without even the implied warranty of
  11:testCore.cpp  ****  * MERCHANTABILITY or FITNESS FOR A PARTICULAR PURPOSE.  See the
  12:testCore.cpp  ****  * GNU Lesser General Public License for more details.
  13:testCore.cpp  ****  *
  14:testCore.cpp  ****  * You should have received a copy of the GNU Lesser General Public License
  15:testCore.cpp  ****  * along with this program.  If not, see <http://www.gnu.org/licenses/>.
  16:testCore.cpp  ****  */
  17:testCore.cpp  **** #include <iostream>
  18:testCore.cpp  **** #include <cstdlib>
  19:testCore.cpp  **** #include <errno.h>
  20:testCore.cpp  **** #include <UnitTest++.h>
  21:testCore.cpp  **** #include <makestuff.h>
  22:testCore.cpp  **** #include "../unbounded_queue.h"
  23:testCore.cpp  **** 
  24:testCore.cpp  **** using namespace std;
  25:testCore.cpp  **** 
  26:testCore.cpp  **** extern "C" {
  27:testCore.cpp  **** 	static uint32 m_count = 1;
  28:testCore.cpp  **** 	static int m_allocFree = 0;
  29:testCore.cpp  **** 	uint32 *createInt(void) {
 158              		.loc 3 29 0 is_stmt 1
 159              		.cfi_startproc
 160 0000 55       		pushq	%rbp
 161              		.cfi_def_cfa_offset 16
 162              		.cfi_offset 6, -16
 163 0001 4889E5   		movq	%rsp, %rbp
 164              		.cfi_def_cfa_register 6
 165 0004 4883EC10 		subq	$16, %rsp
  30:testCore.cpp  **** 		uint32 *p;
  31:testCore.cpp  **** 		if ( m_count > 8 ) {
 166              		.loc 3 31 0
 167 0008 8B050000 		movl	_ZL7m_count(%rip), %eax
 167      0000
 168 000e 83F808   		cmpl	$8, %eax
 169 0011 7607     		jbe	.L11
  32:testCore.cpp  **** 			return NULL;  // simulate out-of-memory
 170              		.loc 3 32 0
 171 0013 B8000000 		movl	$0, %eax
 171      00
 172 0018 EB3D     		jmp	.L12
 173              	.L11:
  33:testCore.cpp  **** 		}
  34:testCore.cpp  **** 		p = (uint32 *)malloc(sizeof(uint32));
 174              		.loc 3 34 0
 175 001a BF040000 		movl	$4, %edi
 175      00
 176 001f E8000000 		call	malloc
 176      00
 177 0024 488945F8 		movq	%rax, -8(%rbp)
  35:testCore.cpp  **** 		if ( p ) {
 178              		.loc 3 35 0
 179 0028 48837DF8 		cmpq	$0, -8(%rbp)
 179      00
 180 002d 7415     		je	.L13
  36:testCore.cpp  **** 			*p = m_count++;
 181              		.loc 3 36 0
 182 002f 8B050000 		movl	_ZL7m_count(%rip), %eax
 182      0000
 183 0035 8D5001   		leal	1(%rax), %edx
 184 0038 89150000 		movl	%edx, _ZL7m_count(%rip)
 184      0000
 185 003e 488B55F8 		movq	-8(%rbp), %rdx
 186 0042 8902     		movl	%eax, (%rdx)
 187              	.L13:
  37:testCore.cpp  **** 		}
  38:testCore.cpp  **** 		m_allocFree++;
 188              		.loc 3 38 0
 189 0044 8B050000 		movl	_ZL11m_allocFree(%rip), %eax
 189      0000
 190 004a 83C001   		addl	$1, %eax
 191 004d 89050000 		movl	%eax, _ZL11m_allocFree(%rip)
 191      0000
  39:testCore.cpp  **** 		return p;
 192              		.loc 3 39 0
 193 0053 488B45F8 		movq	-8(%rbp), %rax
 194              	.L12:
  40:testCore.cpp  **** 	}
 195              		.loc 3 40 0
 196 0057 C9       		leave
 197              		.cfi_def_cfa 7, 8
 198 0058 C3       		ret
 199              		.cfi_endproc
 200              	.LFE1078:
 202              		.globl	destroyInt
 204              	destroyInt:
 205              	.LFB1079:
  41:testCore.cpp  **** 	void destroyInt(uint32 *p) {
 206              		.loc 3 41 0
 207              		.cfi_startproc
 208 0059 55       		pushq	%rbp
 209              		.cfi_def_cfa_offset 16
 210              		.cfi_offset 6, -16
 211 005a 4889E5   		movq	%rsp, %rbp
 212              		.cfi_def_cfa_register 6
 213 005d 4883EC10 		subq	$16, %rsp
 214 0061 48897DF8 		movq	%rdi, -8(%rbp)
  42:testCore.cpp  **** 		if ( p ) {
 215              		.loc 3 42 0
 216 0065 48837DF8 		cmpq	$0, -8(%rbp)
 216      00
 217 006a 741B     		je	.L16
  43:testCore.cpp  **** 			m_allocFree--;
 218              		.loc 3 43 0
 219 006c 8B050000 		movl	_ZL11m_allocFree(%rip), %eax
 219      0000
 220 0072 83E801   		subl	$1, %eax
 221 0075 89050000 		movl	%eax, _ZL11m_allocFree(%rip)
 221      0000
  44:testCore.cpp  **** 			free((void*)p);
 222              		.loc 3 44 0
 223 007b 488B45F8 		movq	-8(%rbp), %rax
 224 007f 4889C7   		movq	%rax, %rdi
 225 0082 E8000000 		call	free
 225      00
 226              	.L16:
  45:testCore.cpp  **** 		}
  46:testCore.cpp  **** 	}
 227              		.loc 3 46 0
 228 0087 90       		nop
 229 0088 C9       		leave
 230              		.cfi_def_cfa 7, 8
 231 0089 C3       		ret
 232              		.cfi_endproc
 233              	.LFE1079:
 236              	_ZL5derefPKv:
 237              	.LFB1080:
  47:testCore.cpp  **** }
  48:testCore.cpp  **** 
  49:testCore.cpp  **** static inline uint32 deref(Item p) {
 238              		.loc 3 49 0
 239              		.cfi_startproc
 240 008a 55       		pushq	%rbp
 241              		.cfi_def_cfa_offset 16
 242              		.cfi_offset 6, -16
 243 008b 4889E5   		movq	%rsp, %rbp
 244              		.cfi_def_cfa_register 6
 245 008e 48897DF8 		movq	%rdi, -8(%rbp)
  50:testCore.cpp  **** 	return *((const uint32 *)p);
 246              		.loc 3 50 0
 247 0092 488B45F8 		movq	-8(%rbp), %rax
 248 0096 8B00     		movl	(%rax), %eax
  51:testCore.cpp  **** }
 249              		.loc 3 51 0
 250 0098 5D       		popq	%rbp
 251              		.cfi_def_cfa 7, 8
 252 0099 C3       		ret
 253              		.cfi_endproc
 254              	.LFE1080:
 256              		.section	.rodata
 257              	.LC1:
 258 000d 74657374 		.string	"testCore.cpp"
 258      436F7265 
 258      2E637070 
 258      00
 259              	.LC2:
 260 001a 51756575 		.string	"Queue_testInit"
 260      655F7465 
 260      7374496E 
 260      697400
 261              		.section	.text._ZN18TestQueue_testInitC2Ev,"axG",@progbits,_ZN18TestQueue_testInitC5Ev,comdat
 262              		.align 2
 263              		.weak	_ZN18TestQueue_testInitC2Ev
 265              	_ZN18TestQueue_testInitC2Ev:
 266              	.LFB1082:
  52:testCore.cpp  **** 
  53:testCore.cpp  **** TEST(Queue_testInit) {
 267              		.loc 3 53 0
 268              		.cfi_startproc
 269 0000 55       		pushq	%rbp
 270              		.cfi_def_cfa_offset 16
 271              		.cfi_offset 6, -16
 272 0001 4889E5   		movq	%rsp, %rbp
 273              		.cfi_def_cfa_register 6
 274 0004 4883EC10 		subq	$16, %rsp
 275 0008 48897DF8 		movq	%rdi, -8(%rbp)
 276              	.LBB4:
 277              		.loc 3 53 0
 278 000c E8000000 		call	_ZN13UnitTestSuite12GetSuiteNameEv
 278      00
 279 0011 4889C2   		movq	%rax, %rdx
 280 0014 488B45F8 		movq	-8(%rbp), %rax
 281 0018 41B83500 		movl	$53, %r8d
 281      0000
 282 001e B9000000 		movl	$.LC1, %ecx
 282      00
 283 0023 BE000000 		movl	$.LC2, %esi
 283      00
 284 0028 4889C7   		movq	%rax, %rdi
 285 002b E8000000 		call	_ZN8UnitTest4TestC2EPKcS2_S2_i
 285      00
 286 0030 BA000000 		movl	$_ZTV18TestQueue_testInit+16, %edx
 286      00
 287 0035 488B45F8 		movq	-8(%rbp), %rax
 288 0039 488910   		movq	%rdx, (%rax)
 289              	.LBE4:
 290 003c 90       		nop
 291 003d C9       		leave
 292              		.cfi_def_cfa 7, 8
 293 003e C3       		ret
 294              		.cfi_endproc
 295              	.LFE1082:
 297              		.weak	_ZN18TestQueue_testInitC1Ev
 298              		.set	_ZN18TestQueue_testInitC1Ev,_ZN18TestQueue_testInitC2Ev
 299              		.globl	testQueue_testInitInstance
 300              		.bss
 301              		.align 32
 304              	testQueue_testInitInstance:
 305 0000 00000000 		.zero	56
 305      00000000 
 305      00000000 
 305      00000000 
 305      00000000 
 306              		.globl	adderQueue_testInit
 309              	adderQueue_testInit:
 310 0038 00       		.zero	1
 311              		.section	.rodata
 312 0029 00000000 		.align 8
 312      000000
 313              	.LC3:
 314 0030 556E6861 		.string	"Unhandled exception in CHECK_EQUAL(USB_SUCCESS, status)"
 314      6E646C65 
 314      64206578 
 314      63657074 
 314      696F6E20 
 315              		.align 8
 316              	.LC4:
 317 0068 556E6861 		.string	"Unhandled exception in CHECK_EQUAL(4UL, queue.capacity)"
 317      6E646C65 
 317      64206578 
 317      63657074 
 317      696F6E20 
 318              		.align 8
 319              	.LC5:
 320 00a0 556E6861 		.string	"Unhandled exception in CHECK_EQUAL(0UL, queue.putIndex)"
 320      6E646C65 
 320      64206578 
 320      63657074 
 320      696F6E20 
 321              		.align 8
 322              	.LC6:
 323 00d8 556E6861 		.string	"Unhandled exception in CHECK_EQUAL(0UL, queue.takeIndex)"
 323      6E646C65 
 323      64206578 
 323      63657074 
 323      696F6E20 
 324 0111 00000000 		.align 8
 324      000000
 325              	.LC7:
 326 0118 556E6861 		.string	"Unhandled exception in CHECK_EQUAL(0UL, queue.numItems)"
 326      6E646C65 
 326      64206578 
 326      63657074 
 326      696F6E20 
 327              		.align 8
 328              	.LC8:
 329 0150 556E6861 		.string	"Unhandled exception in CHECK_EQUAL(1UL, deref(queue.itemArray[0]))"
 329      6E646C65 
 329      64206578 
 329      63657074 
 329      696F6E20 
 330 0193 00000000 		.align 8
 330      00
 331              	.LC9:
 332 0198 556E6861 		.string	"Unhandled exception in CHECK_EQUAL(2UL, deref(queue.itemArray[1]))"
 332      6E646C65 
 332      64206578 
 332      63657074 
 332      696F6E20 
 333 01db 00000000 		.align 8
 333      00
 334              	.LC10:
 335 01e0 556E6861 		.string	"Unhandled exception in CHECK_EQUAL(3UL, deref(queue.itemArray[2]))"
 335      6E646C65 
 335      64206578 
 335      63657074 
 335      696F6E20 
 336 0223 00000000 		.align 8
 336      00
 337              	.LC11:
 338 0228 556E6861 		.string	"Unhandled exception in CHECK_EQUAL(4UL, deref(queue.itemArray[3]))"
 338      6E646C65 
 338      64206578 
 338      63657074 
 338      696F6E20 
 339              		.text
 340              		.align 2
 341              		.globl	_ZNK18TestQueue_testInit7RunImplEv
 343              	_ZNK18TestQueue_testInit7RunImplEv:
 344              	.LFB1084:
 345              		.loc 3 53 0
 346              		.cfi_startproc
 347              		.cfi_personality 0x3,__gxx_personality_v0
 348              		.cfi_lsda 0x3,.LLSDA1084
 349 009a 55       		pushq	%rbp
 350              		.cfi_def_cfa_offset 16
 351              		.cfi_offset 6, -16
 352 009b 4889E5   		movq	%rsp, %rbp
 353              		.cfi_def_cfa_register 6
 354 009e 53       		pushq	%rbx
 355 009f 4881EC88 		subq	$136, %rsp
 355      000000
 356              		.cfi_offset 3, -24
 357 00a6 4889BD78 		movq	%rdi, -136(%rbp)
 357      FFFFFF
 358              		.loc 3 53 0
 359 00ad 64488B04 		movq	%fs:40, %rax
 359      25280000 
 359      00
 360 00b6 488945E8 		movq	%rax, -24(%rbp)
 361 00ba 31C0     		xorl	%eax, %eax
  54:testCore.cpp  **** 	struct UnboundedQueue queue;
  55:testCore.cpp  **** 	m_count = 1;
 362              		.loc 3 55 0
 363 00bc C7050000 		movl	$1, _ZL7m_count(%rip)
 363      00000100 
 363      0000
  56:testCore.cpp  **** 
  57:testCore.cpp  **** 	// Create queue
  58:testCore.cpp  **** 	USBStatus status = queueInit(&queue, 4, (CreateFunc)createInt, (DestroyFunc)destroyInt);
 364              		.loc 3 58 0
 365 00c6 488D45B0 		leaq	-80(%rbp), %rax
 366 00ca B9000000 		movl	$destroyInt, %ecx
 366      00
 367 00cf BA000000 		movl	$createInt, %edx
 367      00
 368 00d4 BE040000 		movl	$4, %esi
 368      00
 369 00d9 4889C7   		movq	%rax, %rdi
 370              	.LEHB4:
 371 00dc E8000000 		call	queueInit
 371      00
 372              	.LEHE4:
 373 00e1 894580   		movl	%eax, -128(%rbp)
 374              	.LEHB5:
  59:testCore.cpp  **** 	CHECK_EQUAL(USB_SUCCESS, status);
 375              		.loc 3 59 0
 376 00e4 E8000000 		call	_ZN8UnitTest11CurrentTest7DetailsEv
 376      00
 377 00e9 488B08   		movq	(%rax), %rcx
 378 00ec 488D4590 		leaq	-112(%rbp), %rax
 379 00f0 BA3B0000 		movl	$59, %edx
 379      00
 380 00f5 4889CE   		movq	%rcx, %rsi
 381 00f8 4889C7   		movq	%rax, %rdi
 382 00fb E8000000 		call	_ZN8UnitTest11TestDetailsC1ERKS0_i
 382      00
 383              	.LEHE5:
 384              		.loc 3 59 0 is_stmt 0 discriminator 2
 385 0100 C7458800 		movl	$0, -120(%rbp)
 385      000000
 386              	.LEHB6:
 387 0107 E8000000 		call	_ZN8UnitTest11CurrentTest7ResultsEv
 387      00
 388 010c 488B00   		movq	(%rax), %rax
 389 010f 488D4D90 		leaq	-112(%rbp), %rcx
 390 0113 488D5580 		leaq	-128(%rbp), %rdx
 391 0117 488D7588 		leaq	-120(%rbp), %rsi
 392 011b 4889C7   		movq	%rax, %rdi
 393 011e E8000000 		call	_ZN8UnitTest10CheckEqualI9USBStatusS1_EEvRNS_11TestResultsERKT_RKT0_RKNS_11TestDetailsE
 393      00
 394              	.LEHE6:
 395              	.L23:
 396              	.LEHB7:
  60:testCore.cpp  **** 
  61:testCore.cpp  **** 	// Verify
  62:testCore.cpp  **** 	CHECK_EQUAL(4UL, queue.capacity);
 397              		.loc 3 62 0 is_stmt 1
 398 0123 E8000000 		call	_ZN8UnitTest11CurrentTest7DetailsEv
 398      00
 399 0128 488B08   		movq	(%rax), %rcx
 400 012b 488D4590 		leaq	-112(%rbp), %rax
 401 012f BA3E0000 		movl	$62, %edx
 401      00
 402 0134 4889CE   		movq	%rcx, %rsi
 403 0137 4889C7   		movq	%rax, %rdi
 404 013a E8000000 		call	_ZN8UnitTest11TestDetailsC1ERKS0_i
 404      00
 405              	.LEHE7:
 406              		.loc 3 62 0 is_stmt 0 discriminator 2
 407 013f 48C74588 		movq	$4, -120(%rbp)
 407      04000000 
 408              	.LEHB8:
 409 0147 E8000000 		call	_ZN8UnitTest11CurrentTest7ResultsEv
 409      00
 410 014c 488B00   		movq	(%rax), %rax
 411 014f 488D5590 		leaq	-112(%rbp), %rdx
 412 0153 488D4DB0 		leaq	-80(%rbp), %rcx
 413 0157 488D7908 		leaq	8(%rcx), %rdi
 414 015b 488D7588 		leaq	-120(%rbp), %rsi
 415 015f 4889D1   		movq	%rdx, %rcx
 416 0162 4889FA   		movq	%rdi, %rdx
 417 0165 4889C7   		movq	%rax, %rdi
 418 0168 E8000000 		call	_ZN8UnitTest10CheckEqualImmEEvRNS_11TestResultsERKT_RKT0_RKNS_11TestDetailsE
 418      00
 419              	.LEHE8:
 420              	.L27:
 421              	.LEHB9:
  63:testCore.cpp  **** 	CHECK_EQUAL(0UL, queue.putIndex);
 422              		.loc 3 63 0 is_stmt 1
 423 016d E8000000 		call	_ZN8UnitTest11CurrentTest7DetailsEv
 423      00
 424 0172 488B08   		movq	(%rax), %rcx
 425 0175 488D4590 		leaq	-112(%rbp), %rax
 426 0179 BA3F0000 		movl	$63, %edx
 426      00
 427 017e 4889CE   		movq	%rcx, %rsi
 428 0181 4889C7   		movq	%rax, %rdi
 429 0184 E8000000 		call	_ZN8UnitTest11TestDetailsC1ERKS0_i
 429      00
 430              	.LEHE9:
 431              		.loc 3 63 0 is_stmt 0 discriminator 2
 432 0189 48C74588 		movq	$0, -120(%rbp)
 432      00000000 
 433              	.LEHB10:
 434 0191 E8000000 		call	_ZN8UnitTest11CurrentTest7ResultsEv
 434      00
 435 0196 488B00   		movq	(%rax), %rax
 436 0199 488D5590 		leaq	-112(%rbp), %rdx
 437 019d 488D4DB0 		leaq	-80(%rbp), %rcx
 438 01a1 488D7910 		leaq	16(%rcx), %rdi
 439 01a5 488D7588 		leaq	-120(%rbp), %rsi
 440 01a9 4889D1   		movq	%rdx, %rcx
 441 01ac 4889FA   		movq	%rdi, %rdx
 442 01af 4889C7   		movq	%rax, %rdi
 443 01b2 E8000000 		call	_ZN8UnitTest10CheckEqualImmEEvRNS_11TestResultsERKT_RKT0_RKNS_11TestDetailsE
 443      00
 444              	.LEHE10:
 445              	.L31:
 446              	.LEHB11:
  64:testCore.cpp  **** 	CHECK_EQUAL(0UL, queue.takeIndex);
 447              		.loc 3 64 0 is_stmt 1
 448 01b7 E8000000 		call	_ZN8UnitTest11CurrentTest7DetailsEv
 448      00
 449 01bc 488B08   		movq	(%rax), %rcx
 450 01bf 488D4590 		leaq	-112(%rbp), %rax
 451 01c3 BA400000 		movl	$64, %edx
 451      00
 452 01c8 4889CE   		movq	%rcx, %rsi
 453 01cb 4889C7   		movq	%rax, %rdi
 454 01ce E8000000 		call	_ZN8UnitTest11TestDetailsC1ERKS0_i
 454      00
 455              	.LEHE11:
 456              		.loc 3 64 0 is_stmt 0 discriminator 2
 457 01d3 48C74588 		movq	$0, -120(%rbp)
 457      00000000 
 458              	.LEHB12:
 459 01db E8000000 		call	_ZN8UnitTest11CurrentTest7ResultsEv
 459      00
 460 01e0 488B00   		movq	(%rax), %rax
 461 01e3 488D5590 		leaq	-112(%rbp), %rdx
 462 01e7 488D4DB0 		leaq	-80(%rbp), %rcx
 463 01eb 488D7918 		leaq	24(%rcx), %rdi
 464 01ef 488D7588 		leaq	-120(%rbp), %rsi
 465 01f3 4889D1   		movq	%rdx, %rcx
 466 01f6 4889FA   		movq	%rdi, %rdx
 467 01f9 4889C7   		movq	%rax, %rdi
 468 01fc E8000000 		call	_ZN8UnitTest10CheckEqualImmEEvRNS_11TestResultsERKT_RKT0_RKNS_11TestDetailsE
 468      00
 469              	.LEHE12:
 470              	.L35:
 471              	.LEHB13:
  65:testCore.cpp  **** 	CHECK_EQUAL(0UL, queue.numItems);
 472              		.loc 3 65 0 is_stmt 1
 473 0201 E8000000 		call	_ZN8UnitTest11CurrentTest7DetailsEv
 473      00
 474 0206 488B08   		movq	(%rax), %rcx
 475 0209 488D4590 		leaq	-112(%rbp), %rax
 476 020d BA410000 		movl	$65, %edx
 476      00
 477 0212 4889CE   		movq	%rcx, %rsi
 478 0215 4889C7   		movq	%rax, %rdi
 479 0218 E8000000 		call	_ZN8UnitTest11TestDetailsC1ERKS0_i
 479      00
 480              	.LEHE13:
 481              		.loc 3 65 0 is_stmt 0 discriminator 2
 482 021d 48C74588 		movq	$0, -120(%rbp)
 482      00000000 
 483              	.LEHB14:
 484 0225 E8000000 		call	_ZN8UnitTest11CurrentTest7ResultsEv
 484      00
 485 022a 488B00   		movq	(%rax), %rax
 486 022d 488D5590 		leaq	-112(%rbp), %rdx
 487 0231 488D4DB0 		leaq	-80(%rbp), %rcx
 488 0235 488D7920 		leaq	32(%rcx), %rdi
 489 0239 488D7588 		leaq	-120(%rbp), %rsi
 490 023d 4889D1   		movq	%rdx, %rcx
 491 0240 4889FA   		movq	%rdi, %rdx
 492 0243 4889C7   		movq	%rax, %rdi
 493 0246 E8000000 		call	_ZN8UnitTest10CheckEqualImmEEvRNS_11TestResultsERKT_RKT0_RKNS_11TestDetailsE
 493      00
 494              	.LEHE14:
 495              	.L39:
 496              	.LEHB15:
  66:testCore.cpp  **** 
  67:testCore.cpp  **** 	// Verify array
  68:testCore.cpp  **** 	CHECK_EQUAL(1UL, deref(queue.itemArray[0]));
 497              		.loc 3 68 0 is_stmt 1
 498 024b E8000000 		call	_ZN8UnitTest11CurrentTest7DetailsEv
 498      00
 499 0250 488B08   		movq	(%rax), %rcx
 500 0253 488D4590 		leaq	-112(%rbp), %rax
 501 0257 BA440000 		movl	$68, %edx
 501      00
 502 025c 4889CE   		movq	%rcx, %rsi
 503 025f 4889C7   		movq	%rax, %rdi
 504 0262 E8000000 		call	_ZN8UnitTest11TestDetailsC1ERKS0_i
 504      00
 505              	.LEHE15:
 506              		.loc 3 68 0 is_stmt 0 discriminator 2
 507 0267 488B45B0 		movq	-80(%rbp), %rax
 508 026b 488B00   		movq	(%rax), %rax
 509 026e 4889C7   		movq	%rax, %rdi
 510 0271 E814FEFF 		call	_ZL5derefPKv
 510      FF
 511 0276 894584   		movl	%eax, -124(%rbp)
 512 0279 48C74588 		movq	$1, -120(%rbp)
 512      01000000 
 513              	.LEHB16:
 514 0281 E8000000 		call	_ZN8UnitTest11CurrentTest7ResultsEv
 514      00
 515 0286 488B00   		movq	(%rax), %rax
 516 0289 488D4D90 		leaq	-112(%rbp), %rcx
 517 028d 488D5584 		leaq	-124(%rbp), %rdx
 518 0291 488D7588 		leaq	-120(%rbp), %rsi
 519 0295 4889C7   		movq	%rax, %rdi
 520 0298 E8000000 		call	_ZN8UnitTest10CheckEqualImjEEvRNS_11TestResultsERKT_RKT0_RKNS_11TestDetailsE
 520      00
 521              	.LEHE16:
 522              	.L43:
 523              	.LEHB17:
  69:testCore.cpp  **** 	CHECK_EQUAL(2UL, deref(queue.itemArray[1]));
 524              		.loc 3 69 0 is_stmt 1
 525 029d E8000000 		call	_ZN8UnitTest11CurrentTest7DetailsEv
 525      00
 526 02a2 488B08   		movq	(%rax), %rcx
 527 02a5 488D4590 		leaq	-112(%rbp), %rax
 528 02a9 BA450000 		movl	$69, %edx
 528      00
 529 02ae 4889CE   		movq	%rcx, %rsi
 530 02b1 4889C7   		movq	%rax, %rdi
 531 02b4 E8000000 		call	_ZN8UnitTest11TestDetailsC1ERKS0_i
 531      00
 532              	.LEHE17:
 533              		.loc 3 69 0 is_stmt 0 discriminator 2
 534 02b9 488B45B0 		movq	-80(%rbp), %rax
 535 02bd 4883C008 		addq	$8, %rax
 536 02c1 488B00   		movq	(%rax), %rax
 537 02c4 4889C7   		movq	%rax, %rdi
 538 02c7 E8BEFDFF 		call	_ZL5derefPKv
 538      FF
 539 02cc 894584   		movl	%eax, -124(%rbp)
 540 02cf 48C74588 		movq	$2, -120(%rbp)
 540      02000000 
 541              	.LEHB18:
 542 02d7 E8000000 		call	_ZN8UnitTest11CurrentTest7ResultsEv
 542      00
 543 02dc 488B00   		movq	(%rax), %rax
 544 02df 488D4D90 		leaq	-112(%rbp), %rcx
 545 02e3 488D5584 		leaq	-124(%rbp), %rdx
 546 02e7 488D7588 		leaq	-120(%rbp), %rsi
 547 02eb 4889C7   		movq	%rax, %rdi
 548 02ee E8000000 		call	_ZN8UnitTest10CheckEqualImjEEvRNS_11TestResultsERKT_RKT0_RKNS_11TestDetailsE
 548      00
 549              	.LEHE18:
 550              	.L47:
 551              	.LEHB19:
  70:testCore.cpp  **** 	CHECK_EQUAL(3UL, deref(queue.itemArray[2]));
 552              		.loc 3 70 0 is_stmt 1
 553 02f3 E8000000 		call	_ZN8UnitTest11CurrentTest7DetailsEv
 553      00
 554 02f8 488B08   		movq	(%rax), %rcx
 555 02fb 488D4590 		leaq	-112(%rbp), %rax
 556 02ff BA460000 		movl	$70, %edx
 556      00
 557 0304 4889CE   		movq	%rcx, %rsi
 558 0307 4889C7   		movq	%rax, %rdi
 559 030a E8000000 		call	_ZN8UnitTest11TestDetailsC1ERKS0_i
 559      00
 560              	.LEHE19:
 561              		.loc 3 70 0 is_stmt 0 discriminator 2
 562 030f 488B45B0 		movq	-80(%rbp), %rax
 563 0313 4883C010 		addq	$16, %rax
 564 0317 488B00   		movq	(%rax), %rax
 565 031a 4889C7   		movq	%rax, %rdi
 566 031d E868FDFF 		call	_ZL5derefPKv
 566      FF
 567 0322 894584   		movl	%eax, -124(%rbp)
 568 0325 48C74588 		movq	$3, -120(%rbp)
 568      03000000 
 569              	.LEHB20:
 570 032d E8000000 		call	_ZN8UnitTest11CurrentTest7ResultsEv
 570      00
 571 0332 488B00   		movq	(%rax), %rax
 572 0335 488D4D90 		leaq	-112(%rbp), %rcx
 573 0339 488D5584 		leaq	-124(%rbp), %rdx
 574 033d 488D7588 		leaq	-120(%rbp), %rsi
 575 0341 4889C7   		movq	%rax, %rdi
 576 0344 E8000000 		call	_ZN8UnitTest10CheckEqualImjEEvRNS_11TestResultsERKT_RKT0_RKNS_11TestDetailsE
 576      00
 577              	.LEHE20:
 578              	.L51:
 579              	.LEHB21:
  71:testCore.cpp  **** 	CHECK_EQUAL(4UL, deref(queue.itemArray[3]));
 580              		.loc 3 71 0 is_stmt 1
 581 0349 E8000000 		call	_ZN8UnitTest11CurrentTest7DetailsEv
 581      00
 582 034e 488B08   		movq	(%rax), %rcx
 583 0351 488D4590 		leaq	-112(%rbp), %rax
 584 0355 BA470000 		movl	$71, %edx
 584      00
 585 035a 4889CE   		movq	%rcx, %rsi
 586 035d 4889C7   		movq	%rax, %rdi
 587 0360 E8000000 		call	_ZN8UnitTest11TestDetailsC1ERKS0_i
 587      00
 588              	.LEHE21:
 589              		.loc 3 71 0 is_stmt 0 discriminator 2
 590 0365 488B45B0 		movq	-80(%rbp), %rax
 591 0369 4883C018 		addq	$24, %rax
 592 036d 488B00   		movq	(%rax), %rax
 593 0370 4889C7   		movq	%rax, %rdi
 594 0373 E812FDFF 		call	_ZL5derefPKv
 594      FF
 595 0378 894584   		movl	%eax, -124(%rbp)
 596 037b 48C74588 		movq	$4, -120(%rbp)
 596      04000000 
 597              	.LEHB22:
 598 0383 E8000000 		call	_ZN8UnitTest11CurrentTest7ResultsEv
 598      00
 599 0388 488B00   		movq	(%rax), %rax
 600 038b 488D4D90 		leaq	-112(%rbp), %rcx
 601 038f 488D5584 		leaq	-124(%rbp), %rdx
 602 0393 488D7588 		leaq	-120(%rbp), %rsi
 603 0397 4889C7   		movq	%rax, %rdi
 604 039a E8000000 		call	_ZN8UnitTest10CheckEqualImjEEvRNS_11TestResultsERKT_RKT0_RKNS_11TestDetailsE
 604      00
 605              	.LEHE22:
 606              	.L55:
  72:testCore.cpp  **** 
  73:testCore.cpp  **** 	// Clean up
  74:testCore.cpp  **** 	queueDestroy(&queue);
 607              		.loc 3 74 0 is_stmt 1
 608 039f 488D45B0 		leaq	-80(%rbp), %rax
 609 03a3 4889C7   		movq	%rax, %rdi
 610              	.LEHB23:
 611 03a6 E8000000 		call	queueDestroy
 611      00
 612              	.LEHE23:
  75:testCore.cpp  **** }
 613              		.loc 3 75 0
 614 03ab 90       		nop
 615 03ac 488B45E8 		movq	-24(%rbp), %rax
 616 03b0 64483304 		xorq	%fs:40, %rax
 616      25280000 
 616      00
 617 03b9 0F846103 		je	.L57
 617      0000
 618 03bf E9570300 		jmp	.L85
 618      00
 619              	.L59:
 620 03c4 EB00     		jmp	.L22
 621              	.L58:
 622              	.L22:
  59:testCore.cpp  **** 
 623              		.loc 3 59 0
 624 03c6 4889C7   		movq	%rax, %rdi
 625 03c9 E8000000 		call	__cxa_begin_catch
 625      00
 626              	.LEHB24:
 627 03ce E8000000 		call	_ZN8UnitTest11CurrentTest7DetailsEv
 627      00
 628 03d3 488B08   		movq	(%rax), %rcx
 629 03d6 488D4590 		leaq	-112(%rbp), %rax
 630 03da BA3B0000 		movl	$59, %edx
 630      00
 631 03df 4889CE   		movq	%rcx, %rsi
 632 03e2 4889C7   		movq	%rax, %rdi
 633 03e5 E8000000 		call	_ZN8UnitTest11TestDetailsC1ERKS0_i
 633      00
  59:testCore.cpp  **** 
 634              		.loc 3 59 0 is_stmt 0 discriminator 10
 635 03ea E8000000 		call	_ZN8UnitTest11CurrentTest7ResultsEv
 635      00
 636 03ef 488B00   		movq	(%rax), %rax
 637 03f2 488D4D90 		leaq	-112(%rbp), %rcx
 638 03f6 BA000000 		movl	$.LC3, %edx
 638      00
 639 03fb 4889CE   		movq	%rcx, %rsi
 640 03fe 4889C7   		movq	%rax, %rdi
 641 0401 E8000000 		call	_ZN8UnitTest11TestResults13OnTestFailureERKNS_11TestDetailsEPKc
 641      00
 642              	.LEHE24:
 643              	.LEHB25:
  59:testCore.cpp  **** 
 644              		.loc 3 59 0 discriminator 14
 645 0406 E8000000 		call	__cxa_end_catch
 645      00
 646              	.LEHE25:
 647 040b E913FDFF 		jmp	.L23
 647      FF
 648              	.L60:
 649 0410 4889C3   		movq	%rax, %rbx
  59:testCore.cpp  **** 
 650              		.loc 3 59 0
 651 0413 E8000000 		call	__cxa_end_catch
 651      00
 652 0418 4889D8   		movq	%rbx, %rax
 653 041b 4889C7   		movq	%rax, %rdi
 654              	.LEHB26:
 655 041e E8000000 		call	_Unwind_Resume
 655      00
 656              	.LEHE26:
 657              	.L62:
 658 0423 EB00     		jmp	.L26
 659              	.L61:
 660              	.L26:
  62:testCore.cpp  **** 	CHECK_EQUAL(0UL, queue.putIndex);
 661              		.loc 3 62 0 is_stmt 1
 662 0425 4889C7   		movq	%rax, %rdi
 663 0428 E8000000 		call	__cxa_begin_catch
 663      00
 664              	.LEHB27:
 665 042d E8000000 		call	_ZN8UnitTest11CurrentTest7DetailsEv
 665      00
 666 0432 488B08   		movq	(%rax), %rcx
 667 0435 488D4590 		leaq	-112(%rbp), %rax
 668 0439 BA3E0000 		movl	$62, %edx
 668      00
 669 043e 4889CE   		movq	%rcx, %rsi
 670 0441 4889C7   		movq	%rax, %rdi
 671 0444 E8000000 		call	_ZN8UnitTest11TestDetailsC1ERKS0_i
 671      00
  62:testCore.cpp  **** 	CHECK_EQUAL(0UL, queue.putIndex);
 672              		.loc 3 62 0 is_stmt 0 discriminator 10
 673 0449 E8000000 		call	_ZN8UnitTest11CurrentTest7ResultsEv
 673      00
 674 044e 488B00   		movq	(%rax), %rax
 675 0451 488D4D90 		leaq	-112(%rbp), %rcx
 676 0455 BA000000 		movl	$.LC4, %edx
 676      00
 677 045a 4889CE   		movq	%rcx, %rsi
 678 045d 4889C7   		movq	%rax, %rdi
 679 0460 E8000000 		call	_ZN8UnitTest11TestResults13OnTestFailureERKNS_11TestDetailsEPKc
 679      00
 680              	.LEHE27:
 681              	.LEHB28:
  62:testCore.cpp  **** 	CHECK_EQUAL(0UL, queue.putIndex);
 682              		.loc 3 62 0 discriminator 14
 683 0465 E8000000 		call	__cxa_end_catch
 683      00
 684              	.LEHE28:
 685 046a E9FEFCFF 		jmp	.L27
 685      FF
 686              	.L63:
 687 046f 4889C3   		movq	%rax, %rbx
  62:testCore.cpp  **** 	CHECK_EQUAL(0UL, queue.putIndex);
 688              		.loc 3 62 0
 689 0472 E8000000 		call	__cxa_end_catch
 689      00
 690 0477 4889D8   		movq	%rbx, %rax
 691 047a 4889C7   		movq	%rax, %rdi
 692              	.LEHB29:
 693 047d E8000000 		call	_Unwind_Resume
 693      00
 694              	.LEHE29:
 695              	.L65:
 696 0482 EB00     		jmp	.L30
 697              	.L64:
 698              	.L30:
  63:testCore.cpp  **** 	CHECK_EQUAL(0UL, queue.takeIndex);
 699              		.loc 3 63 0 is_stmt 1
 700 0484 4889C7   		movq	%rax, %rdi
 701 0487 E8000000 		call	__cxa_begin_catch
 701      00
 702              	.LEHB30:
 703 048c E8000000 		call	_ZN8UnitTest11CurrentTest7DetailsEv
 703      00
 704 0491 488B08   		movq	(%rax), %rcx
 705 0494 488D4590 		leaq	-112(%rbp), %rax
 706 0498 BA3F0000 		movl	$63, %edx
 706      00
 707 049d 4889CE   		movq	%rcx, %rsi
 708 04a0 4889C7   		movq	%rax, %rdi
 709 04a3 E8000000 		call	_ZN8UnitTest11TestDetailsC1ERKS0_i
 709      00
  63:testCore.cpp  **** 	CHECK_EQUAL(0UL, queue.takeIndex);
 710              		.loc 3 63 0 is_stmt 0 discriminator 10
 711 04a8 E8000000 		call	_ZN8UnitTest11CurrentTest7ResultsEv
 711      00
 712 04ad 488B00   		movq	(%rax), %rax
 713 04b0 488D4D90 		leaq	-112(%rbp), %rcx
 714 04b4 BA000000 		movl	$.LC5, %edx
 714      00
 715 04b9 4889CE   		movq	%rcx, %rsi
 716 04bc 4889C7   		movq	%rax, %rdi
 717 04bf E8000000 		call	_ZN8UnitTest11TestResults13OnTestFailureERKNS_11TestDetailsEPKc
 717      00
 718              	.LEHE30:
 719              	.LEHB31:
  63:testCore.cpp  **** 	CHECK_EQUAL(0UL, queue.takeIndex);
 720              		.loc 3 63 0 discriminator 14
 721 04c4 E8000000 		call	__cxa_end_catch
 721      00
 722              	.LEHE31:
 723 04c9 E9E9FCFF 		jmp	.L31
 723      FF
 724              	.L66:
 725 04ce 4889C3   		movq	%rax, %rbx
  63:testCore.cpp  **** 	CHECK_EQUAL(0UL, queue.takeIndex);
 726              		.loc 3 63 0
 727 04d1 E8000000 		call	__cxa_end_catch
 727      00
 728 04d6 4889D8   		movq	%rbx, %rax
 729 04d9 4889C7   		movq	%rax, %rdi
 730              	.LEHB32:
 731 04dc E8000000 		call	_Unwind_Resume
 731      00
 732              	.LEHE32:
 733              	.L68:
 734 04e1 EB00     		jmp	.L34
 735              	.L67:
 736              	.L34:
  64:testCore.cpp  **** 	CHECK_EQUAL(0UL, queue.numItems);
 737              		.loc 3 64 0 is_stmt 1
 738 04e3 4889C7   		movq	%rax, %rdi
 739 04e6 E8000000 		call	__cxa_begin_catch
 739      00
 740              	.LEHB33:
 741 04eb E8000000 		call	_ZN8UnitTest11CurrentTest7DetailsEv
 741      00
 742 04f0 488B08   		movq	(%rax), %rcx
 743 04f3 488D4590 		leaq	-112(%rbp), %rax
 744 04f7 BA400000 		movl	$64, %edx
 744      00
 745 04fc 4889CE   		movq	%rcx, %rsi
 746 04ff 4889C7   		movq	%rax, %rdi
 747 0502 E8000000 		call	_ZN8UnitTest11TestDetailsC1ERKS0_i
 747      00
  64:testCore.cpp  **** 	CHECK_EQUAL(0UL, queue.numItems);
 748              		.loc 3 64 0 is_stmt 0 discriminator 10
 749 0507 E8000000 		call	_ZN8UnitTest11CurrentTest7ResultsEv
 749      00
 750 050c 488B00   		movq	(%rax), %rax
 751 050f 488D4D90 		leaq	-112(%rbp), %rcx
 752 0513 BA000000 		movl	$.LC6, %edx
 752      00
 753 0518 4889CE   		movq	%rcx, %rsi
 754 051b 4889C7   		movq	%rax, %rdi
 755 051e E8000000 		call	_ZN8UnitTest11TestResults13OnTestFailureERKNS_11TestDetailsEPKc
 755      00
 756              	.LEHE33:
 757              	.LEHB34:
  64:testCore.cpp  **** 	CHECK_EQUAL(0UL, queue.numItems);
 758              		.loc 3 64 0 discriminator 14
 759 0523 E8000000 		call	__cxa_end_catch
 759      00
 760              	.LEHE34:
 761 0528 E9D4FCFF 		jmp	.L35
 761      FF
 762              	.L69:
 763 052d 4889C3   		movq	%rax, %rbx
  64:testCore.cpp  **** 	CHECK_EQUAL(0UL, queue.numItems);
 764              		.loc 3 64 0
 765 0530 E8000000 		call	__cxa_end_catch
 765      00
 766 0535 4889D8   		movq	%rbx, %rax
 767 0538 4889C7   		movq	%rax, %rdi
 768              	.LEHB35:
 769 053b E8000000 		call	_Unwind_Resume
 769      00
 770              	.LEHE35:
 771              	.L71:
 772 0540 EB00     		jmp	.L38
 773              	.L70:
 774              	.L38:
  65:testCore.cpp  **** 
 775              		.loc 3 65 0 is_stmt 1
 776 0542 4889C7   		movq	%rax, %rdi
 777 0545 E8000000 		call	__cxa_begin_catch
 777      00
 778              	.LEHB36:
 779 054a E8000000 		call	_ZN8UnitTest11CurrentTest7DetailsEv
 779      00
 780 054f 488B08   		movq	(%rax), %rcx
 781 0552 488D4590 		leaq	-112(%rbp), %rax
 782 0556 BA410000 		movl	$65, %edx
 782      00
 783 055b 4889CE   		movq	%rcx, %rsi
 784 055e 4889C7   		movq	%rax, %rdi
 785 0561 E8000000 		call	_ZN8UnitTest11TestDetailsC1ERKS0_i
 785      00
  65:testCore.cpp  **** 
 786              		.loc 3 65 0 is_stmt 0 discriminator 10
 787 0566 E8000000 		call	_ZN8UnitTest11CurrentTest7ResultsEv
 787      00
 788 056b 488B00   		movq	(%rax), %rax
 789 056e 488D4D90 		leaq	-112(%rbp), %rcx
 790 0572 BA000000 		movl	$.LC7, %edx
 790      00
 791 0577 4889CE   		movq	%rcx, %rsi
 792 057a 4889C7   		movq	%rax, %rdi
 793 057d E8000000 		call	_ZN8UnitTest11TestResults13OnTestFailureERKNS_11TestDetailsEPKc
 793      00
 794              	.LEHE36:
 795              	.LEHB37:
  65:testCore.cpp  **** 
 796              		.loc 3 65 0 discriminator 14
 797 0582 E8000000 		call	__cxa_end_catch
 797      00
 798              	.LEHE37:
 799 0587 E9BFFCFF 		jmp	.L39
 799      FF
 800              	.L72:
 801 058c 4889C3   		movq	%rax, %rbx
  65:testCore.cpp  **** 
 802              		.loc 3 65 0
 803 058f E8000000 		call	__cxa_end_catch
 803      00
 804 0594 4889D8   		movq	%rbx, %rax
 805 0597 4889C7   		movq	%rax, %rdi
 806              	.LEHB38:
 807 059a E8000000 		call	_Unwind_Resume
 807      00
 808              	.LEHE38:
 809              	.L74:
 810 059f EB00     		jmp	.L42
 811              	.L73:
 812              	.L42:
  68:testCore.cpp  **** 	CHECK_EQUAL(2UL, deref(queue.itemArray[1]));
 813              		.loc 3 68 0 is_stmt 1
 814 05a1 4889C7   		movq	%rax, %rdi
 815 05a4 E8000000 		call	__cxa_begin_catch
 815      00
 816              	.LEHB39:
 817 05a9 E8000000 		call	_ZN8UnitTest11CurrentTest7DetailsEv
 817      00
 818 05ae 488B08   		movq	(%rax), %rcx
 819 05b1 488D4590 		leaq	-112(%rbp), %rax
 820 05b5 BA440000 		movl	$68, %edx
 820      00
 821 05ba 4889CE   		movq	%rcx, %rsi
 822 05bd 4889C7   		movq	%rax, %rdi
 823 05c0 E8000000 		call	_ZN8UnitTest11TestDetailsC1ERKS0_i
 823      00
  68:testCore.cpp  **** 	CHECK_EQUAL(2UL, deref(queue.itemArray[1]));
 824              		.loc 3 68 0 is_stmt 0 discriminator 10
 825 05c5 E8000000 		call	_ZN8UnitTest11CurrentTest7ResultsEv
 825      00
 826 05ca 488B00   		movq	(%rax), %rax
 827 05cd 488D4D90 		leaq	-112(%rbp), %rcx
 828 05d1 BA000000 		movl	$.LC8, %edx
 828      00
 829 05d6 4889CE   		movq	%rcx, %rsi
 830 05d9 4889C7   		movq	%rax, %rdi
 831 05dc E8000000 		call	_ZN8UnitTest11TestResults13OnTestFailureERKNS_11TestDetailsEPKc
 831      00
 832              	.LEHE39:
 833              	.LEHB40:
  68:testCore.cpp  **** 	CHECK_EQUAL(2UL, deref(queue.itemArray[1]));
 834              		.loc 3 68 0 discriminator 14
 835 05e1 E8000000 		call	__cxa_end_catch
 835      00
 836              	.LEHE40:
 837 05e6 E9B2FCFF 		jmp	.L43
 837      FF
 838              	.L75:
 839 05eb 4889C3   		movq	%rax, %rbx
  68:testCore.cpp  **** 	CHECK_EQUAL(2UL, deref(queue.itemArray[1]));
 840              		.loc 3 68 0
 841 05ee E8000000 		call	__cxa_end_catch
 841      00
 842 05f3 4889D8   		movq	%rbx, %rax
 843 05f6 4889C7   		movq	%rax, %rdi
 844              	.LEHB41:
 845 05f9 E8000000 		call	_Unwind_Resume
 845      00
 846              	.LEHE41:
 847              	.L77:
 848 05fe EB00     		jmp	.L46
 849              	.L76:
 850              	.L46:
  69:testCore.cpp  **** 	CHECK_EQUAL(3UL, deref(queue.itemArray[2]));
 851              		.loc 3 69 0 is_stmt 1
 852 0600 4889C7   		movq	%rax, %rdi
 853 0603 E8000000 		call	__cxa_begin_catch
 853      00
 854              	.LEHB42:
 855 0608 E8000000 		call	_ZN8UnitTest11CurrentTest7DetailsEv
 855      00
 856 060d 488B08   		movq	(%rax), %rcx
 857 0610 488D4590 		leaq	-112(%rbp), %rax
 858 0614 BA450000 		movl	$69, %edx
 858      00
 859 0619 4889CE   		movq	%rcx, %rsi
 860 061c 4889C7   		movq	%rax, %rdi
 861 061f E8000000 		call	_ZN8UnitTest11TestDetailsC1ERKS0_i
 861      00
  69:testCore.cpp  **** 	CHECK_EQUAL(3UL, deref(queue.itemArray[2]));
 862              		.loc 3 69 0 is_stmt 0 discriminator 10
 863 0624 E8000000 		call	_ZN8UnitTest11CurrentTest7ResultsEv
 863      00
 864 0629 488B00   		movq	(%rax), %rax
 865 062c 488D4D90 		leaq	-112(%rbp), %rcx
 866 0630 BA000000 		movl	$.LC9, %edx
 866      00
 867 0635 4889CE   		movq	%rcx, %rsi
 868 0638 4889C7   		movq	%rax, %rdi
 869 063b E8000000 		call	_ZN8UnitTest11TestResults13OnTestFailureERKNS_11TestDetailsEPKc
 869      00
 870              	.LEHE42:
 871              	.LEHB43:
  69:testCore.cpp  **** 	CHECK_EQUAL(3UL, deref(queue.itemArray[2]));
 872              		.loc 3 69 0 discriminator 14
 873 0640 E8000000 		call	__cxa_end_catch
 873      00
 874              	.LEHE43:
 875 0645 E9A9FCFF 		jmp	.L47
 875      FF
 876              	.L78:
 877 064a 4889C3   		movq	%rax, %rbx
  69:testCore.cpp  **** 	CHECK_EQUAL(3UL, deref(queue.itemArray[2]));
 878              		.loc 3 69 0
 879 064d E8000000 		call	__cxa_end_catch
 879      00
 880 0652 4889D8   		movq	%rbx, %rax
 881 0655 4889C7   		movq	%rax, %rdi
 882              	.LEHB44:
 883 0658 E8000000 		call	_Unwind_Resume
 883      00
 884              	.LEHE44:
 885              	.L80:
 886 065d EB00     		jmp	.L50
 887              	.L79:
 888              	.L50:
  70:testCore.cpp  **** 	CHECK_EQUAL(4UL, deref(queue.itemArray[3]));
 889              		.loc 3 70 0 is_stmt 1
 890 065f 4889C7   		movq	%rax, %rdi
 891 0662 E8000000 		call	__cxa_begin_catch
 891      00
 892              	.LEHB45:
 893 0667 E8000000 		call	_ZN8UnitTest11CurrentTest7DetailsEv
 893      00
 894 066c 488B08   		movq	(%rax), %rcx
 895 066f 488D4590 		leaq	-112(%rbp), %rax
 896 0673 BA460000 		movl	$70, %edx
 896      00
 897 0678 4889CE   		movq	%rcx, %rsi
 898 067b 4889C7   		movq	%rax, %rdi
 899 067e E8000000 		call	_ZN8UnitTest11TestDetailsC1ERKS0_i
 899      00
  70:testCore.cpp  **** 	CHECK_EQUAL(4UL, deref(queue.itemArray[3]));
 900              		.loc 3 70 0 is_stmt 0 discriminator 10
 901 0683 E8000000 		call	_ZN8UnitTest11CurrentTest7ResultsEv
 901      00
 902 0688 488B00   		movq	(%rax), %rax
 903 068b 488D4D90 		leaq	-112(%rbp), %rcx
 904 068f BA000000 		movl	$.LC10, %edx
 904      00
 905 0694 4889CE   		movq	%rcx, %rsi
 906 0697 4889C7   		movq	%rax, %rdi
 907 069a E8000000 		call	_ZN8UnitTest11TestResults13OnTestFailureERKNS_11TestDetailsEPKc
 907      00
 908              	.LEHE45:
 909              	.LEHB46:
  70:testCore.cpp  **** 	CHECK_EQUAL(4UL, deref(queue.itemArray[3]));
 910              		.loc 3 70 0 discriminator 14
 911 069f E8000000 		call	__cxa_end_catch
 911      00
 912              	.LEHE46:
 913 06a4 E9A0FCFF 		jmp	.L51
 913      FF
 914              	.L81:
 915 06a9 4889C3   		movq	%rax, %rbx
  70:testCore.cpp  **** 	CHECK_EQUAL(4UL, deref(queue.itemArray[3]));
 916              		.loc 3 70 0
 917 06ac E8000000 		call	__cxa_end_catch
 917      00
 918 06b1 4889D8   		movq	%rbx, %rax
 919 06b4 4889C7   		movq	%rax, %rdi
 920              	.LEHB47:
 921 06b7 E8000000 		call	_Unwind_Resume
 921      00
 922              	.LEHE47:
 923              	.L83:
 924 06bc EB00     		jmp	.L54
 925              	.L82:
 926              	.L54:
  71:testCore.cpp  **** 
 927              		.loc 3 71 0 is_stmt 1
 928 06be 4889C7   		movq	%rax, %rdi
 929 06c1 E8000000 		call	__cxa_begin_catch
 929      00
 930              	.LEHB48:
 931 06c6 E8000000 		call	_ZN8UnitTest11CurrentTest7DetailsEv
 931      00
 932 06cb 488B08   		movq	(%rax), %rcx
 933 06ce 488D4590 		leaq	-112(%rbp), %rax
 934 06d2 BA470000 		movl	$71, %edx
 934      00
 935 06d7 4889CE   		movq	%rcx, %rsi
 936 06da 4889C7   		movq	%rax, %rdi
 937 06dd E8000000 		call	_ZN8UnitTest11TestDetailsC1ERKS0_i
 937      00
  71:testCore.cpp  **** 
 938              		.loc 3 71 0 is_stmt 0 discriminator 10
 939 06e2 E8000000 		call	_ZN8UnitTest11CurrentTest7ResultsEv
 939      00
 940 06e7 488B00   		movq	(%rax), %rax
 941 06ea 488D4D90 		leaq	-112(%rbp), %rcx
 942 06ee BA000000 		movl	$.LC11, %edx
 942      00
 943 06f3 4889CE   		movq	%rcx, %rsi
 944 06f6 4889C7   		movq	%rax, %rdi
 945 06f9 E8000000 		call	_ZN8UnitTest11TestResults13OnTestFailureERKNS_11TestDetailsEPKc
 945      00
 946              	.LEHE48:
 947              	.LEHB49:
  71:testCore.cpp  **** 
 948              		.loc 3 71 0 discriminator 14
 949 06fe E8000000 		call	__cxa_end_catch
 949      00
 950              	.LEHE49:
 951 0703 E997FCFF 		jmp	.L55
 951      FF
 952              	.L84:
 953 0708 4889C3   		movq	%rax, %rbx
  71:testCore.cpp  **** 
 954              		.loc 3 71 0
 955 070b E8000000 		call	__cxa_end_catch
 955      00
 956 0710 4889D8   		movq	%rbx, %rax
 957 0713 4889C7   		movq	%rax, %rdi
 958              	.LEHB50:
 959 0716 E8000000 		call	_Unwind_Resume
 959      00
 960              	.LEHE50:
 961              	.L85:
 962              		.loc 3 75 0 is_stmt 1
 963 071b E8000000 		call	__stack_chk_fail
 963      00
 964              	.L57:
 965 0720 4881C488 		addq	$136, %rsp
 965      000000
 966 0727 5B       		popq	%rbx
 967 0728 5D       		popq	%rbp
 968              		.cfi_def_cfa 7, 8
 969 0729 C3       		ret
 970              		.cfi_endproc
 971              	.LFE1084:
 972              		.section	.gcc_except_table,"a",@progbits
 973              		.align 4
 974              	.LLSDA1084:
 975 0000 FF       		.byte	0xff
 976 0001 03       		.byte	0x3
 977 0002 9002     		.uleb128 .LLSDATT1084-.LLSDATTD1084
 978              	.LLSDATTD1084:
 979 0004 01       		.byte	0x1
 980 0005 8302     		.uleb128 .LLSDACSE1084-.LLSDACSB1084
 981              	.LLSDACSB1084:
 982 0007 42       		.uleb128 .LEHB4-.LFB1084
 983 0008 05       		.uleb128 .LEHE4-.LEHB4
 984 0009 00       		.uleb128 0
 985 000a 00       		.uleb128 0
 986 000b 4A       		.uleb128 .LEHB5-.LFB1084
 987 000c 1C       		.uleb128 .LEHE5-.LEHB5
 988 000d AC06     		.uleb128 .L58-.LFB1084
 989 000f 01       		.uleb128 0x1
 990 0010 6D       		.uleb128 .LEHB6-.LFB1084
 991 0011 1C       		.uleb128 .LEHE6-.LEHB6
 992 0012 AA06     		.uleb128 .L59-.LFB1084
 993 0014 03       		.uleb128 0x3
 994 0015 8901     		.uleb128 .LEHB7-.LFB1084
 995 0017 1C       		.uleb128 .LEHE7-.LEHB7
 996 0018 8B07     		.uleb128 .L61-.LFB1084
 997 001a 01       		.uleb128 0x1
 998 001b AD01     		.uleb128 .LEHB8-.LFB1084
 999 001d 26       		.uleb128 .LEHE8-.LEHB8
 1000 001e 8907     		.uleb128 .L62-.LFB1084
 1001 0020 03       		.uleb128 0x3
 1002 0021 D301     		.uleb128 .LEHB9-.LFB1084
 1003 0023 1C       		.uleb128 .LEHE9-.LEHB9
 1004 0024 EA07     		.uleb128 .L64-.LFB1084
 1005 0026 01       		.uleb128 0x1
 1006 0027 F701     		.uleb128 .LEHB10-.LFB1084
 1007 0029 26       		.uleb128 .LEHE10-.LEHB10
 1008 002a E807     		.uleb128 .L65-.LFB1084
 1009 002c 03       		.uleb128 0x3
 1010 002d 9D02     		.uleb128 .LEHB11-.LFB1084
 1011 002f 1C       		.uleb128 .LEHE11-.LEHB11
 1012 0030 C908     		.uleb128 .L67-.LFB1084
 1013 0032 01       		.uleb128 0x1
 1014 0033 C102     		.uleb128 .LEHB12-.LFB1084
 1015 0035 26       		.uleb128 .LEHE12-.LEHB12
 1016 0036 C708     		.uleb128 .L68-.LFB1084
 1017 0038 03       		.uleb128 0x3
 1018 0039 E702     		.uleb128 .LEHB13-.LFB1084
 1019 003b 1C       		.uleb128 .LEHE13-.LEHB13
 1020 003c A809     		.uleb128 .L70-.LFB1084
 1021 003e 01       		.uleb128 0x1
 1022 003f 8B03     		.uleb128 .LEHB14-.LFB1084
 1023 0041 26       		.uleb128 .LEHE14-.LEHB14
 1024 0042 A609     		.uleb128 .L71-.LFB1084
 1025 0044 03       		.uleb128 0x3
 1026 0045 B103     		.uleb128 .LEHB15-.LFB1084
 1027 0047 1C       		.uleb128 .LEHE15-.LEHB15
 1028 0048 870A     		.uleb128 .L73-.LFB1084
 1029 004a 01       		.uleb128 0x1
 1030 004b E703     		.uleb128 .LEHB16-.LFB1084
 1031 004d 1C       		.uleb128 .LEHE16-.LEHB16
 1032 004e 850A     		.uleb128 .L74-.LFB1084
 1033 0050 03       		.uleb128 0x3
 1034 0051 8304     		.uleb128 .LEHB17-.LFB1084
 1035 0053 1C       		.uleb128 .LEHE17-.LEHB17
 1036 0054 E60A     		.uleb128 .L76-.LFB1084
 1037 0056 01       		.uleb128 0x1
 1038 0057 BD04     		.uleb128 .LEHB18-.LFB1084
 1039 0059 1C       		.uleb128 .LEHE18-.LEHB18
 1040 005a E40A     		.uleb128 .L77-.LFB1084
 1041 005c 03       		.uleb128 0x3
 1042 005d D904     		.uleb128 .LEHB19-.LFB1084
 1043 005f 1C       		.uleb128 .LEHE19-.LEHB19
 1044 0060 C50B     		.uleb128 .L79-.LFB1084
 1045 0062 01       		.uleb128 0x1
 1046 0063 9305     		.uleb128 .LEHB20-.LFB1084
 1047 0065 1C       		.uleb128 .LEHE20-.LEHB20
 1048 0066 C30B     		.uleb128 .L80-.LFB1084
 1049 0068 03       		.uleb128 0x3
 1050 0069 AF05     		.uleb128 .LEHB21-.LFB1084
 1051 006b 1C       		.uleb128 .LEHE21-.LEHB21
 1052 006c A40C     		.uleb128 .L82-.LFB1084
 1053 006e 01       		.uleb128 0x1
 1054 006f E905     		.uleb128 .LEHB22-.LFB1084
 1055 0071 1C       		.uleb128 .LEHE22-.LEHB22
 1056 0072 A20C     		.uleb128 .L83-.LFB1084
 1057 0074 03       		.uleb128 0x3
 1058 0075 8C06     		.uleb128 .LEHB23-.LFB1084
 1059 0077 05       		.uleb128 .LEHE23-.LEHB23
 1060 0078 00       		.uleb128 0
 1061 0079 00       		.uleb128 0
 1062 007a B406     		.uleb128 .LEHB24-.LFB1084
 1063 007c 38       		.uleb128 .LEHE24-.LEHB24
 1064 007d F606     		.uleb128 .L60-.LFB1084
 1065 007f 00       		.uleb128 0
 1066 0080 EC06     		.uleb128 .LEHB25-.LFB1084
 1067 0082 05       		.uleb128 .LEHE25-.LEHB25
 1068 0083 00       		.uleb128 0
 1069 0084 00       		.uleb128 0
 1070 0085 8407     		.uleb128 .LEHB26-.LFB1084
 1071 0087 05       		.uleb128 .LEHE26-.LEHB26
 1072 0088 00       		.uleb128 0
 1073 0089 00       		.uleb128 0
 1074 008a 9307     		.uleb128 .LEHB27-.LFB1084
 1075 008c 38       		.uleb128 .LEHE27-.LEHB27
 1076 008d D507     		.uleb128 .L63-.LFB1084
 1077 008f 00       		.uleb128 0
 1078 0090 CB07     		.uleb128 .LEHB28-.LFB1084
 1079 0092 05       		.uleb128 .LEHE28-.LEHB28
 1080 0093 00       		.uleb128 0
 1081 0094 00       		.uleb128 0
 1082 0095 E307     		.uleb128 .LEHB29-.LFB1084
 1083 0097 05       		.uleb128 .LEHE29-.LEHB29
 1084 0098 00       		.uleb128 0
 1085 0099 00       		.uleb128 0
 1086 009a F207     		.uleb128 .LEHB30-.LFB1084
 1087 009c 38       		.uleb128 .LEHE30-.LEHB30
 1088 009d B408     		.uleb128 .L66-.LFB1084
 1089 009f 00       		.uleb128 0
 1090 00a0 AA08     		.uleb128 .LEHB31-.LFB1084
 1091 00a2 05       		.uleb128 .LEHE31-.LEHB31
 1092 00a3 00       		.uleb128 0
 1093 00a4 00       		.uleb128 0
 1094 00a5 C208     		.uleb128 .LEHB32-.LFB1084
 1095 00a7 05       		.uleb128 .LEHE32-.LEHB32
 1096 00a8 00       		.uleb128 0
 1097 00a9 00       		.uleb128 0
 1098 00aa D108     		.uleb128 .LEHB33-.LFB1084
 1099 00ac 38       		.uleb128 .LEHE33-.LEHB33
 1100 00ad 9309     		.uleb128 .L69-.LFB1084
 1101 00af 00       		.uleb128 0
 1102 00b0 8909     		.uleb128 .LEHB34-.LFB1084
 1103 00b2 05       		.uleb128 .LEHE34-.LEHB34
 1104 00b3 00       		.uleb128 0
 1105 00b4 00       		.uleb128 0
 1106 00b5 A109     		.uleb128 .LEHB35-.LFB1084
 1107 00b7 05       		.uleb128 .LEHE35-.LEHB35
 1108 00b8 00       		.uleb128 0
 1109 00b9 00       		.uleb128 0
 1110 00ba B009     		.uleb128 .LEHB36-.LFB1084
 1111 00bc 38       		.uleb128 .LEHE36-.LEHB36
 1112 00bd F209     		.uleb128 .L72-.LFB1084
 1113 00bf 00       		.uleb128 0
 1114 00c0 E809     		.uleb128 .LEHB37-.LFB1084
 1115 00c2 05       		.uleb128 .LEHE37-.LEHB37
 1116 00c3 00       		.uleb128 0
 1117 00c4 00       		.uleb128 0
 1118 00c5 800A     		.uleb128 .LEHB38-.LFB1084
 1119 00c7 05       		.uleb128 .LEHE38-.LEHB38
 1120 00c8 00       		.uleb128 0
 1121 00c9 00       		.uleb128 0
 1122 00ca 8F0A     		.uleb128 .LEHB39-.LFB1084
 1123 00cc 38       		.uleb128 .LEHE39-.LEHB39
 1124 00cd D10A     		.uleb128 .L75-.LFB1084
 1125 00cf 00       		.uleb128 0
 1126 00d0 C70A     		.uleb128 .LEHB40-.LFB1084
 1127 00d2 05       		.uleb128 .LEHE40-.LEHB40
 1128 00d3 00       		.uleb128 0
 1129 00d4 00       		.uleb128 0
 1130 00d5 DF0A     		.uleb128 .LEHB41-.LFB1084
 1131 00d7 05       		.uleb128 .LEHE41-.LEHB41
 1132 00d8 00       		.uleb128 0
 1133 00d9 00       		.uleb128 0
 1134 00da EE0A     		.uleb128 .LEHB42-.LFB1084
 1135 00dc 38       		.uleb128 .LEHE42-.LEHB42
 1136 00dd B00B     		.uleb128 .L78-.LFB1084
 1137 00df 00       		.uleb128 0
 1138 00e0 A60B     		.uleb128 .LEHB43-.LFB1084
 1139 00e2 05       		.uleb128 .LEHE43-.LEHB43
 1140 00e3 00       		.uleb128 0
 1141 00e4 00       		.uleb128 0
 1142 00e5 BE0B     		.uleb128 .LEHB44-.LFB1084
 1143 00e7 05       		.uleb128 .LEHE44-.LEHB44
 1144 00e8 00       		.uleb128 0
 1145 00e9 00       		.uleb128 0
 1146 00ea CD0B     		.uleb128 .LEHB45-.LFB1084
 1147 00ec 38       		.uleb128 .LEHE45-.LEHB45
 1148 00ed 8F0C     		.uleb128 .L81-.LFB1084
 1149 00ef 00       		.uleb128 0
 1150 00f0 850C     		.uleb128 .LEHB46-.LFB1084
 1151 00f2 05       		.uleb128 .LEHE46-.LEHB46
 1152 00f3 00       		.uleb128 0
 1153 00f4 00       		.uleb128 0
 1154 00f5 9D0C     		.uleb128 .LEHB47-.LFB1084
 1155 00f7 05       		.uleb128 .LEHE47-.LEHB47
 1156 00f8 00       		.uleb128 0
 1157 00f9 00       		.uleb128 0
 1158 00fa AC0C     		.uleb128 .LEHB48-.LFB1084
 1159 00fc 38       		.uleb128 .LEHE48-.LEHB48
 1160 00fd EE0C     		.uleb128 .L84-.LFB1084
 1161 00ff 00       		.uleb128 0
 1162 0100 E40C     		.uleb128 .LEHB49-.LFB1084
 1163 0102 05       		.uleb128 .LEHE49-.LEHB49
 1164 0103 00       		.uleb128 0
 1165 0104 00       		.uleb128 0
 1166 0105 FC0C     		.uleb128 .LEHB50-.LFB1084
 1167 0107 05       		.uleb128 .LEHE50-.LEHB50
 1168 0108 00       		.uleb128 0
 1169 0109 00       		.uleb128 0
 1170              	.LLSDACSE1084:
 1171 010a 01       		.byte	0x1
 1172 010b 00       		.byte	0
 1173 010c 00       		.byte	0
 1174 010d 7D       		.byte	0x7d
 1175 010e 0000     		.align 4
 1176 0110 00000000 		.long	0
 1177              	
 1178              	.LLSDATT1084:
 1179              		.text
 1181              		.section	.rodata
 1182              	.LC12:
 1183 026b 51756575 		.string	"Queue_testPutNoWrap"
 1183      655F7465 
 1183      73745075 
 1183      744E6F57 
 1183      72617000 
 1184              		.section	.text._ZN23TestQueue_testPutNoWrapC2Ev,"axG",@progbits,_ZN23TestQueue_testPutNoWrapC5Ev,c
 1185              		.align 2
 1186              		.weak	_ZN23TestQueue_testPutNoWrapC2Ev
 1188              	_ZN23TestQueue_testPutNoWrapC2Ev:
 1189              	.LFB1086:
  76:testCore.cpp  **** 
  77:testCore.cpp  **** TEST(Queue_testPutNoWrap) {
 1190              		.loc 3 77 0
 1191              		.cfi_startproc
 1192 0000 55       		pushq	%rbp
 1193              		.cfi_def_cfa_offset 16
 1194              		.cfi_offset 6, -16
 1195 0001 4889E5   		movq	%rsp, %rbp
 1196              		.cfi_def_cfa_register 6
 1197 0004 4883EC10 		subq	$16, %rsp
 1198 0008 48897DF8 		movq	%rdi, -8(%rbp)
 1199              	.LBB5:
 1200              		.loc 3 77 0
 1201 000c E8000000 		call	_ZN13UnitTestSuite12GetSuiteNameEv
 1201      00
 1202 0011 4889C2   		movq	%rax, %rdx
 1203 0014 488B45F8 		movq	-8(%rbp), %rax
 1204 0018 41B84D00 		movl	$77, %r8d
 1204      0000
 1205 001e B9000000 		movl	$.LC1, %ecx
 1205      00
 1206 0023 BE000000 		movl	$.LC12, %esi
 1206      00
 1207 0028 4889C7   		movq	%rax, %rdi
 1208 002b E8000000 		call	_ZN8UnitTest4TestC2EPKcS2_S2_i
 1208      00
 1209 0030 BA000000 		movl	$_ZTV23TestQueue_testPutNoWrap+16, %edx
 1209      00
 1210 0035 488B45F8 		movq	-8(%rbp), %rax
 1211 0039 488910   		movq	%rdx, (%rax)
 1212              	.LBE5:
 1213 003c 90       		nop
 1214 003d C9       		leave
 1215              		.cfi_def_cfa 7, 8
 1216 003e C3       		ret
 1217              		.cfi_endproc
 1218              	.LFE1086:
 1220              		.weak	_ZN23TestQueue_testPutNoWrapC1Ev
 1221              		.set	_ZN23TestQueue_testPutNoWrapC1Ev,_ZN23TestQueue_testPutNoWrapC2Ev
 1222              		.globl	testQueue_testPutNoWrapInstance
 1223              		.bss
 1224 0039 00000000 		.align 32
 1224      000000
 1227              	testQueue_testPutNoWrapInstance:
 1228 0040 00000000 		.zero	56
 1228      00000000 
 1228      00000000 
 1228      00000000 
 1228      00000000 
 1229              		.globl	adderQueue_testPutNoWrap
 1232              	adderQueue_testPutNoWrap:
 1233 0078 00       		.zero	1
 1234              		.section	.rodata
 1235 027f 00       		.align 8
 1236              	.LC13:
 1237 0280 556E6861 		.string	"Unhandled exception in CHECK_EQUAL(1UL, *item)"
 1237      6E646C65 
 1237      64206578 
 1237      63657074 
 1237      696F6E20 
 1238 02af 00       		.align 8
 1239              	.LC14:
 1240 02b0 556E6861 		.string	"Unhandled exception in CHECK_EQUAL(2UL, *item)"
 1240      6E646C65 
 1240      64206578 
 1240      63657074 
 1240      696F6E20 
 1241 02df 00       		.align 8
 1242              	.LC15:
 1243 02e0 556E6861 		.string	"Unhandled exception in CHECK_EQUAL(3UL, *item)"
 1243      6E646C65 
 1243      64206578 
 1243      63657074 
 1243      696F6E20 
 1244 030f 00       		.align 8
 1245              	.LC16:
 1246 0310 556E6861 		.string	"Unhandled exception in CHECK_EQUAL(3UL, queue.putIndex)"
 1246      6E646C65 
 1246      64206578 
 1246      63657074 
 1246      696F6E20 
 1247              		.align 8
 1248              	.LC17:
 1249 0348 556E6861 		.string	"Unhandled exception in CHECK_EQUAL(3UL, queue.numItems)"
 1249      6E646C65 
 1249      64206578 
 1249      63657074 
 1249      696F6E20 
 1250              		.align 8
 1251              	.LC18:
 1252 0380 556E6861 		.string	"Unhandled exception in CHECK_EQUAL(5UL, deref(queue.itemArray[0]))"
 1252      6E646C65 
 1252      64206578 
 1252      63657074 
 1252      696F6E20 
 1253 03c3 00000000 		.align 8
 1253      00
 1254              	.LC19:
 1255 03c8 556E6861 		.string	"Unhandled exception in CHECK_EQUAL(6UL, deref(queue.itemArray[1]))"
 1255      6E646C65 
 1255      64206578 
 1255      63657074 
 1255      696F6E20 
 1256 040b 00000000 		.align 8
 1256      00
 1257              	.LC20:
 1258 0410 556E6861 		.string	"Unhandled exception in CHECK_EQUAL(7UL, deref(queue.itemArray[2]))"
 1258      6E646C65 
 1258      64206578 
 1258      63657074 
 1258      696F6E20 
 1259              		.text
 1260              		.align 2
 1261              		.globl	_ZNK23TestQueue_testPutNoWrap7RunImplEv
 1263              	_ZNK23TestQueue_testPutNoWrap7RunImplEv:
 1264              	.LFB1088:
 1265              		.loc 3 77 0
 1266              		.cfi_startproc
 1267              		.cfi_personality 0x3,__gxx_personality_v0
 1268              		.cfi_lsda 0x3,.LLSDA1088
 1269 072a 55       		pushq	%rbp
 1270              		.cfi_def_cfa_offset 16
 1271              		.cfi_offset 6, -16
 1272 072b 4889E5   		movq	%rsp, %rbp
 1273              		.cfi_def_cfa_register 6
 1274 072e 53       		pushq	%rbx
 1275 072f 4881EC98 		subq	$152, %rsp
 1275      000000
 1276              		.cfi_offset 3, -24
 1277 0736 4889BD68 		movq	%rdi, -152(%rbp)
 1277      FFFFFF
 1278              		.loc 3 77 0
 1279 073d 64488B04 		movq	%fs:40, %rax
 1279      25280000 
 1279      00
 1280 0746 488945E8 		movq	%rax, -24(%rbp)
 1281 074a 31C0     		xorl	%eax, %eax
  78:testCore.cpp  **** 	struct UnboundedQueue queue;
  79:testCore.cpp  **** 	uint32 *item;
  80:testCore.cpp  **** 	m_count = 1;
 1282              		.loc 3 80 0
 1283 074c C7050000 		movl	$1, _ZL7m_count(%rip)
 1283      00000100 
 1283      0000
  81:testCore.cpp  **** 
  82:testCore.cpp  **** 	// Create queue
  83:testCore.cpp  **** 	USBStatus status = queueInit(&queue, 4, (CreateFunc)createInt, (DestroyFunc)destroyInt);
 1284              		.loc 3 83 0
 1285 0756 488D45B0 		leaq	-80(%rbp), %rax
 1286 075a B9000000 		movl	$destroyInt, %ecx
 1286      00
 1287 075f BA000000 		movl	$createInt, %edx
 1287      00
 1288 0764 BE040000 		movl	$4, %esi
 1288      00
 1289 0769 4889C7   		movq	%rax, %rdi
 1290              	.LEHB51:
 1291 076c E8000000 		call	queueInit
 1291      00
 1292              	.LEHE51:
 1293 0771 898578FF 		movl	%eax, -136(%rbp)
 1293      FFFF
 1294              	.LEHB52:
  84:testCore.cpp  **** 	CHECK_EQUAL(USB_SUCCESS, status);
 1295              		.loc 3 84 0
 1296 0777 E8000000 		call	_ZN8UnitTest11CurrentTest7DetailsEv
 1296      00
 1297 077c 488B08   		movq	(%rax), %rcx
 1298 077f 488D4590 		leaq	-112(%rbp), %rax
 1299 0783 BA540000 		movl	$84, %edx
 1299      00
 1300 0788 4889CE   		movq	%rcx, %rsi
 1301 078b 4889C7   		movq	%rax, %rdi
 1302 078e E8000000 		call	_ZN8UnitTest11TestDetailsC1ERKS0_i
 1302      00
 1303              	.LEHE52:
 1304              		.loc 3 84 0 is_stmt 0 discriminator 2
 1305 0793 C7458800 		movl	$0, -120(%rbp)
 1305      000000
 1306              	.LEHB53:
 1307 079a E8000000 		call	_ZN8UnitTest11CurrentTest7ResultsEv
 1307      00
 1308 079f 488B00   		movq	(%rax), %rax
 1309 07a2 488D4D90 		leaq	-112(%rbp), %rcx
 1310 07a6 488D9578 		leaq	-136(%rbp), %rdx
 1310      FFFFFF
 1311 07ad 488D7588 		leaq	-120(%rbp), %rsi
 1312 07b1 4889C7   		movq	%rax, %rdi
 1313 07b4 E8000000 		call	_ZN8UnitTest10CheckEqualI9USBStatusS1_EEvRNS_11TestResultsERKT_RKT0_RKNS_11TestDetailsE
 1313      00
 1314              	.LEHE53:
 1315              	.L90:
  85:testCore.cpp  **** 
  86:testCore.cpp  **** 	// Put three items into the queue
  87:testCore.cpp  **** 	status = queuePut(&queue, (Item*)&item);
 1316              		.loc 3 87 0 is_stmt 1
 1317 07b9 488D5580 		leaq	-128(%rbp), %rdx
 1318 07bd 488D45B0 		leaq	-80(%rbp), %rax
 1319 07c1 4889D6   		movq	%rdx, %rsi
 1320 07c4 4889C7   		movq	%rax, %rdi
 1321              	.LEHB54:
 1322 07c7 E8000000 		call	queuePut
 1322      00
 1323              	.LEHE54:
 1324 07cc 898578FF 		movl	%eax, -136(%rbp)
 1324      FFFF
 1325              	.LEHB55:
  88:testCore.cpp  **** 	CHECK_EQUAL(USB_SUCCESS, status);
 1326              		.loc 3 88 0
 1327 07d2 E8000000 		call	_ZN8UnitTest11CurrentTest7DetailsEv
 1327      00
 1328 07d7 488B08   		movq	(%rax), %rcx
 1329 07da 488D4590 		leaq	-112(%rbp), %rax
 1330 07de BA580000 		movl	$88, %edx
 1330      00
 1331 07e3 4889CE   		movq	%rcx, %rsi
 1332 07e6 4889C7   		movq	%rax, %rdi
 1333 07e9 E8000000 		call	_ZN8UnitTest11TestDetailsC1ERKS0_i
 1333      00
 1334              	.LEHE55:
 1335              		.loc 3 88 0 is_stmt 0 discriminator 2
 1336 07ee C7458800 		movl	$0, -120(%rbp)
 1336      000000
 1337              	.LEHB56:
 1338 07f5 E8000000 		call	_ZN8UnitTest11CurrentTest7ResultsEv
 1338      00
 1339 07fa 488B00   		movq	(%rax), %rax
 1340 07fd 488D4D90 		leaq	-112(%rbp), %rcx
 1341 0801 488D9578 		leaq	-136(%rbp), %rdx
 1341      FFFFFF
 1342 0808 488D7588 		leaq	-120(%rbp), %rsi
 1343 080c 4889C7   		movq	%rax, %rdi
 1344 080f E8000000 		call	_ZN8UnitTest10CheckEqualI9USBStatusS1_EEvRNS_11TestResultsERKT_RKT0_RKNS_11TestDetailsE
 1344      00
 1345              	.LEHE56:
 1346              	.L94:
 1347              	.LEHB57:
  89:testCore.cpp  **** 	CHECK_EQUAL(1UL, *item);
 1348              		.loc 3 89 0 is_stmt 1
 1349 0814 E8000000 		call	_ZN8UnitTest11CurrentTest7DetailsEv
 1349      00
 1350 0819 488B08   		movq	(%rax), %rcx
 1351 081c 488D4590 		leaq	-112(%rbp), %rax
 1352 0820 BA590000 		movl	$89, %edx
 1352      00
 1353 0825 4889CE   		movq	%rcx, %rsi
 1354 0828 4889C7   		movq	%rax, %rdi
 1355 082b E8000000 		call	_ZN8UnitTest11TestDetailsC1ERKS0_i
 1355      00
 1356              	.LEHE57:
 1357              		.loc 3 89 0 is_stmt 0 discriminator 2
 1358 0830 488B5D80 		movq	-128(%rbp), %rbx
 1359 0834 48C74588 		movq	$1, -120(%rbp)
 1359      01000000 
 1360              	.LEHB58:
 1361 083c E8000000 		call	_ZN8UnitTest11CurrentTest7ResultsEv
 1361      00
 1362 0841 488B00   		movq	(%rax), %rax
 1363 0844 488D5590 		leaq	-112(%rbp), %rdx
 1364 0848 488D7588 		leaq	-120(%rbp), %rsi
 1365 084c 4889D1   		movq	%rdx, %rcx
 1366 084f 4889DA   		movq	%rbx, %rdx
 1367 0852 4889C7   		movq	%rax, %rdi
 1368 0855 E8000000 		call	_ZN8UnitTest10CheckEqualImjEEvRNS_11TestResultsERKT_RKT0_RKNS_11TestDetailsE
 1368      00
 1369              	.LEHE58:
 1370              	.L98:
  90:testCore.cpp  **** 	*item = 5;
 1371              		.loc 3 90 0 is_stmt 1
 1372 085a 488B4580 		movq	-128(%rbp), %rax
 1373 085e C7000500 		movl	$5, (%rax)
 1373      0000
  91:testCore.cpp  **** 	queueCommitPut(&queue);
 1374              		.loc 3 91 0
 1375 0864 488D45B0 		leaq	-80(%rbp), %rax
 1376 0868 4889C7   		movq	%rax, %rdi
 1377              	.LEHB59:
 1378 086b E8000000 		call	queueCommitPut
 1378      00
  92:testCore.cpp  **** 	status = queuePut(&queue, (Item*)&item);
 1379              		.loc 3 92 0
 1380 0870 488D5580 		leaq	-128(%rbp), %rdx
 1381 0874 488D45B0 		leaq	-80(%rbp), %rax
 1382 0878 4889D6   		movq	%rdx, %rsi
 1383 087b 4889C7   		movq	%rax, %rdi
 1384 087e E8000000 		call	queuePut
 1384      00
 1385              	.LEHE59:
 1386 0883 898578FF 		movl	%eax, -136(%rbp)
 1386      FFFF
 1387              	.LEHB60:
  93:testCore.cpp  **** 	CHECK_EQUAL(USB_SUCCESS, status);
 1388              		.loc 3 93 0
 1389 0889 E8000000 		call	_ZN8UnitTest11CurrentTest7DetailsEv
 1389      00
 1390 088e 488B08   		movq	(%rax), %rcx
 1391 0891 488D4590 		leaq	-112(%rbp), %rax
 1392 0895 BA5D0000 		movl	$93, %edx
 1392      00
 1393 089a 4889CE   		movq	%rcx, %rsi
 1394 089d 4889C7   		movq	%rax, %rdi
 1395 08a0 E8000000 		call	_ZN8UnitTest11TestDetailsC1ERKS0_i
 1395      00
 1396              	.LEHE60:
 1397              		.loc 3 93 0 is_stmt 0 discriminator 2
 1398 08a5 C7458800 		movl	$0, -120(%rbp)
 1398      000000
 1399              	.LEHB61:
 1400 08ac E8000000 		call	_ZN8UnitTest11CurrentTest7ResultsEv
 1400      00
 1401 08b1 488B00   		movq	(%rax), %rax
 1402 08b4 488D4D90 		leaq	-112(%rbp), %rcx
 1403 08b8 488D9578 		leaq	-136(%rbp), %rdx
 1403      FFFFFF
 1404 08bf 488D7588 		leaq	-120(%rbp), %rsi
 1405 08c3 4889C7   		movq	%rax, %rdi
 1406 08c6 E8000000 		call	_ZN8UnitTest10CheckEqualI9USBStatusS1_EEvRNS_11TestResultsERKT_RKT0_RKNS_11TestDetailsE
 1406      00
 1407              	.LEHE61:
 1408              	.L102:
 1409              	.LEHB62:
  94:testCore.cpp  **** 	CHECK_EQUAL(2UL, *item);
 1410              		.loc 3 94 0 is_stmt 1
 1411 08cb E8000000 		call	_ZN8UnitTest11CurrentTest7DetailsEv
 1411      00
 1412 08d0 488B08   		movq	(%rax), %rcx
 1413 08d3 488D4590 		leaq	-112(%rbp), %rax
 1414 08d7 BA5E0000 		movl	$94, %edx
 1414      00
 1415 08dc 4889CE   		movq	%rcx, %rsi
 1416 08df 4889C7   		movq	%rax, %rdi
 1417 08e2 E8000000 		call	_ZN8UnitTest11TestDetailsC1ERKS0_i
 1417      00
 1418              	.LEHE62:
 1419              		.loc 3 94 0 is_stmt 0 discriminator 2
 1420 08e7 488B5D80 		movq	-128(%rbp), %rbx
 1421 08eb 48C74588 		movq	$2, -120(%rbp)
 1421      02000000 
 1422              	.LEHB63:
 1423 08f3 E8000000 		call	_ZN8UnitTest11CurrentTest7ResultsEv
 1423      00
 1424 08f8 488B00   		movq	(%rax), %rax
 1425 08fb 488D5590 		leaq	-112(%rbp), %rdx
 1426 08ff 488D7588 		leaq	-120(%rbp), %rsi
 1427 0903 4889D1   		movq	%rdx, %rcx
 1428 0906 4889DA   		movq	%rbx, %rdx
 1429 0909 4889C7   		movq	%rax, %rdi
 1430 090c E8000000 		call	_ZN8UnitTest10CheckEqualImjEEvRNS_11TestResultsERKT_RKT0_RKNS_11TestDetailsE
 1430      00
 1431              	.LEHE63:
 1432              	.L106:
  95:testCore.cpp  **** 	*item = 6;
 1433              		.loc 3 95 0 is_stmt 1
 1434 0911 488B4580 		movq	-128(%rbp), %rax
 1435 0915 C7000600 		movl	$6, (%rax)
 1435      0000
  96:testCore.cpp  **** 	queueCommitPut(&queue);
 1436              		.loc 3 96 0
 1437 091b 488D45B0 		leaq	-80(%rbp), %rax
 1438 091f 4889C7   		movq	%rax, %rdi
 1439              	.LEHB64:
 1440 0922 E8000000 		call	queueCommitPut
 1440      00
  97:testCore.cpp  **** 	status = queuePut(&queue, (Item*)&item);
 1441              		.loc 3 97 0
 1442 0927 488D5580 		leaq	-128(%rbp), %rdx
 1443 092b 488D45B0 		leaq	-80(%rbp), %rax
 1444 092f 4889D6   		movq	%rdx, %rsi
 1445 0932 4889C7   		movq	%rax, %rdi
 1446 0935 E8000000 		call	queuePut
 1446      00
 1447              	.LEHE64:
 1448 093a 898578FF 		movl	%eax, -136(%rbp)
 1448      FFFF
 1449              	.LEHB65:
  98:testCore.cpp  **** 	CHECK_EQUAL(USB_SUCCESS, status);
 1450              		.loc 3 98 0
 1451 0940 E8000000 		call	_ZN8UnitTest11CurrentTest7DetailsEv
 1451      00
 1452 0945 488B08   		movq	(%rax), %rcx
 1453 0948 488D4590 		leaq	-112(%rbp), %rax
 1454 094c BA620000 		movl	$98, %edx
 1454      00
 1455 0951 4889CE   		movq	%rcx, %rsi
 1456 0954 4889C7   		movq	%rax, %rdi
 1457 0957 E8000000 		call	_ZN8UnitTest11TestDetailsC1ERKS0_i
 1457      00
 1458              	.LEHE65:
 1459              		.loc 3 98 0 is_stmt 0 discriminator 2
 1460 095c C7458800 		movl	$0, -120(%rbp)
 1460      000000
 1461              	.LEHB66:
 1462 0963 E8000000 		call	_ZN8UnitTest11CurrentTest7ResultsEv
 1462      00
 1463 0968 488B00   		movq	(%rax), %rax
 1464 096b 488D4D90 		leaq	-112(%rbp), %rcx
 1465 096f 488D9578 		leaq	-136(%rbp), %rdx
 1465      FFFFFF
 1466 0976 488D7588 		leaq	-120(%rbp), %rsi
 1467 097a 4889C7   		movq	%rax, %rdi
 1468 097d E8000000 		call	_ZN8UnitTest10CheckEqualI9USBStatusS1_EEvRNS_11TestResultsERKT_RKT0_RKNS_11TestDetailsE
 1468      00
 1469              	.LEHE66:
 1470              	.L110:
 1471              	.LEHB67:
  99:testCore.cpp  **** 	CHECK_EQUAL(3UL, *item);
 1472              		.loc 3 99 0 is_stmt 1
 1473 0982 E8000000 		call	_ZN8UnitTest11CurrentTest7DetailsEv
 1473      00
 1474 0987 488B08   		movq	(%rax), %rcx
 1475 098a 488D4590 		leaq	-112(%rbp), %rax
 1476 098e BA630000 		movl	$99, %edx
 1476      00
 1477 0993 4889CE   		movq	%rcx, %rsi
 1478 0996 4889C7   		movq	%rax, %rdi
 1479 0999 E8000000 		call	_ZN8UnitTest11TestDetailsC1ERKS0_i
 1479      00
 1480              	.LEHE67:
 1481              		.loc 3 99 0 is_stmt 0 discriminator 2
 1482 099e 488B5D80 		movq	-128(%rbp), %rbx
 1483 09a2 48C74588 		movq	$3, -120(%rbp)
 1483      03000000 
 1484              	.LEHB68:
 1485 09aa E8000000 		call	_ZN8UnitTest11CurrentTest7ResultsEv
 1485      00
 1486 09af 488B00   		movq	(%rax), %rax
 1487 09b2 488D5590 		leaq	-112(%rbp), %rdx
 1488 09b6 488D7588 		leaq	-120(%rbp), %rsi
 1489 09ba 4889D1   		movq	%rdx, %rcx
 1490 09bd 4889DA   		movq	%rbx, %rdx
 1491 09c0 4889C7   		movq	%rax, %rdi
 1492 09c3 E8000000 		call	_ZN8UnitTest10CheckEqualImjEEvRNS_11TestResultsERKT_RKT0_RKNS_11TestDetailsE
 1492      00
 1493              	.LEHE68:
 1494              	.L114:
 100:testCore.cpp  **** 	*item = 7;
 1495              		.loc 3 100 0 is_stmt 1
 1496 09c8 488B4580 		movq	-128(%rbp), %rax
 1497 09cc C7000700 		movl	$7, (%rax)
 1497      0000
 101:testCore.cpp  **** 	queueCommitPut(&queue);
 1498              		.loc 3 101 0
 1499 09d2 488D45B0 		leaq	-80(%rbp), %rax
 1500 09d6 4889C7   		movq	%rax, %rdi
 1501              	.LEHB69:
 1502 09d9 E8000000 		call	queueCommitPut
 1502      00
 1503              	.LEHE69:
 1504              	.LEHB70:
 102:testCore.cpp  **** 
 103:testCore.cpp  **** 	// Verify
 104:testCore.cpp  **** 	CHECK_EQUAL(4UL, queue.capacity);
 1505              		.loc 3 104 0
 1506 09de E8000000 		call	_ZN8UnitTest11CurrentTest7DetailsEv
 1506      00
 1507 09e3 488B08   		movq	(%rax), %rcx
 1508 09e6 488D4590 		leaq	-112(%rbp), %rax
 1509 09ea BA680000 		movl	$104, %edx
 1509      00
 1510 09ef 4889CE   		movq	%rcx, %rsi
 1511 09f2 4889C7   		movq	%rax, %rdi
 1512 09f5 E8000000 		call	_ZN8UnitTest11TestDetailsC1ERKS0_i
 1512      00
 1513              	.LEHE70:
 1514              		.loc 3 104 0 is_stmt 0 discriminator 2
 1515 09fa 48C74588 		movq	$4, -120(%rbp)
 1515      04000000 
 1516              	.LEHB71:
 1517 0a02 E8000000 		call	_ZN8UnitTest11CurrentTest7ResultsEv
 1517      00
 1518 0a07 488B00   		movq	(%rax), %rax
 1519 0a0a 488D5590 		leaq	-112(%rbp), %rdx
 1520 0a0e 488D4DB0 		leaq	-80(%rbp), %rcx
 1521 0a12 488D7908 		leaq	8(%rcx), %rdi
 1522 0a16 488D7588 		leaq	-120(%rbp), %rsi
 1523 0a1a 4889D1   		movq	%rdx, %rcx
 1524 0a1d 4889FA   		movq	%rdi, %rdx
 1525 0a20 4889C7   		movq	%rax, %rdi
 1526 0a23 E8000000 		call	_ZN8UnitTest10CheckEqualImmEEvRNS_11TestResultsERKT_RKT0_RKNS_11TestDetailsE
 1526      00
 1527              	.LEHE71:
 1528              	.L118:
 1529              	.LEHB72:
 105:testCore.cpp  **** 	CHECK_EQUAL(3UL, queue.putIndex);
 1530              		.loc 3 105 0 is_stmt 1
 1531 0a28 E8000000 		call	_ZN8UnitTest11CurrentTest7DetailsEv
 1531      00
 1532 0a2d 488B08   		movq	(%rax), %rcx
 1533 0a30 488D4590 		leaq	-112(%rbp), %rax
 1534 0a34 BA690000 		movl	$105, %edx
 1534      00
 1535 0a39 4889CE   		movq	%rcx, %rsi
 1536 0a3c 4889C7   		movq	%rax, %rdi
 1537 0a3f E8000000 		call	_ZN8UnitTest11TestDetailsC1ERKS0_i
 1537      00
 1538              	.LEHE72:
 1539              		.loc 3 105 0 is_stmt 0 discriminator 2
 1540 0a44 48C74588 		movq	$3, -120(%rbp)
 1540      03000000 
 1541              	.LEHB73:
 1542 0a4c E8000000 		call	_ZN8UnitTest11CurrentTest7ResultsEv
 1542      00
 1543 0a51 488B00   		movq	(%rax), %rax
 1544 0a54 488D5590 		leaq	-112(%rbp), %rdx
 1545 0a58 488D4DB0 		leaq	-80(%rbp), %rcx
 1546 0a5c 488D7910 		leaq	16(%rcx), %rdi
 1547 0a60 488D7588 		leaq	-120(%rbp), %rsi
 1548 0a64 4889D1   		movq	%rdx, %rcx
 1549 0a67 4889FA   		movq	%rdi, %rdx
 1550 0a6a 4889C7   		movq	%rax, %rdi
 1551 0a6d E8000000 		call	_ZN8UnitTest10CheckEqualImmEEvRNS_11TestResultsERKT_RKT0_RKNS_11TestDetailsE
 1551      00
 1552              	.LEHE73:
 1553              	.L122:
 1554              	.LEHB74:
 106:testCore.cpp  **** 	CHECK_EQUAL(0UL, queue.takeIndex);
 1555              		.loc 3 106 0 is_stmt 1
 1556 0a72 E8000000 		call	_ZN8UnitTest11CurrentTest7DetailsEv
 1556      00
 1557 0a77 488B08   		movq	(%rax), %rcx
 1558 0a7a 488D4590 		leaq	-112(%rbp), %rax
 1559 0a7e BA6A0000 		movl	$106, %edx
 1559      00
 1560 0a83 4889CE   		movq	%rcx, %rsi
 1561 0a86 4889C7   		movq	%rax, %rdi
 1562 0a89 E8000000 		call	_ZN8UnitTest11TestDetailsC1ERKS0_i
 1562      00
 1563              	.LEHE74:
 1564              		.loc 3 106 0 is_stmt 0 discriminator 2
 1565 0a8e 48C74588 		movq	$0, -120(%rbp)
 1565      00000000 
 1566              	.LEHB75:
 1567 0a96 E8000000 		call	_ZN8UnitTest11CurrentTest7ResultsEv
 1567      00
 1568 0a9b 488B00   		movq	(%rax), %rax
 1569 0a9e 488D5590 		leaq	-112(%rbp), %rdx
 1570 0aa2 488D4DB0 		leaq	-80(%rbp), %rcx
 1571 0aa6 488D7918 		leaq	24(%rcx), %rdi
 1572 0aaa 488D7588 		leaq	-120(%rbp), %rsi
 1573 0aae 4889D1   		movq	%rdx, %rcx
 1574 0ab1 4889FA   		movq	%rdi, %rdx
 1575 0ab4 4889C7   		movq	%rax, %rdi
 1576 0ab7 E8000000 		call	_ZN8UnitTest10CheckEqualImmEEvRNS_11TestResultsERKT_RKT0_RKNS_11TestDetailsE
 1576      00
 1577              	.LEHE75:
 1578              	.L126:
 1579              	.LEHB76:
 107:testCore.cpp  **** 	CHECK_EQUAL(3UL, queue.numItems);
 1580              		.loc 3 107 0 is_stmt 1
 1581 0abc E8000000 		call	_ZN8UnitTest11CurrentTest7DetailsEv
 1581      00
 1582 0ac1 488B08   		movq	(%rax), %rcx
 1583 0ac4 488D4590 		leaq	-112(%rbp), %rax
 1584 0ac8 BA6B0000 		movl	$107, %edx
 1584      00
 1585 0acd 4889CE   		movq	%rcx, %rsi
 1586 0ad0 4889C7   		movq	%rax, %rdi
 1587 0ad3 E8000000 		call	_ZN8UnitTest11TestDetailsC1ERKS0_i
 1587      00
 1588              	.LEHE76:
 1589              		.loc 3 107 0 is_stmt 0 discriminator 2
 1590 0ad8 48C74588 		movq	$3, -120(%rbp)
 1590      03000000 
 1591              	.LEHB77:
 1592 0ae0 E8000000 		call	_ZN8UnitTest11CurrentTest7ResultsEv
 1592      00
 1593 0ae5 488B00   		movq	(%rax), %rax
 1594 0ae8 488D5590 		leaq	-112(%rbp), %rdx
 1595 0aec 488D4DB0 		leaq	-80(%rbp), %rcx
 1596 0af0 488D7920 		leaq	32(%rcx), %rdi
 1597 0af4 488D7588 		leaq	-120(%rbp), %rsi
 1598 0af8 4889D1   		movq	%rdx, %rcx
 1599 0afb 4889FA   		movq	%rdi, %rdx
 1600 0afe 4889C7   		movq	%rax, %rdi
 1601 0b01 E8000000 		call	_ZN8UnitTest10CheckEqualImmEEvRNS_11TestResultsERKT_RKT0_RKNS_11TestDetailsE
 1601      00
 1602              	.LEHE77:
 1603              	.L130:
 1604              	.LEHB78:
 108:testCore.cpp  **** 
 109:testCore.cpp  **** 	// Verify array
 110:testCore.cpp  **** 	CHECK_EQUAL(5UL, deref(queue.itemArray[0]));
 1605              		.loc 3 110 0 is_stmt 1
 1606 0b06 E8000000 		call	_ZN8UnitTest11CurrentTest7DetailsEv
 1606      00
 1607 0b0b 488B08   		movq	(%rax), %rcx
 1608 0b0e 488D4590 		leaq	-112(%rbp), %rax
 1609 0b12 BA6E0000 		movl	$110, %edx
 1609      00
 1610 0b17 4889CE   		movq	%rcx, %rsi
 1611 0b1a 4889C7   		movq	%rax, %rdi
 1612 0b1d E8000000 		call	_ZN8UnitTest11TestDetailsC1ERKS0_i
 1612      00
 1613              	.LEHE78:
 1614              		.loc 3 110 0 is_stmt 0 discriminator 2
 1615 0b22 488B45B0 		movq	-80(%rbp), %rax
 1616 0b26 488B00   		movq	(%rax), %rax
 1617 0b29 4889C7   		movq	%rax, %rdi
 1618 0b2c E859F5FF 		call	_ZL5derefPKv
 1618      FF
 1619 0b31 89857CFF 		movl	%eax, -132(%rbp)
 1619      FFFF
 1620 0b37 48C74588 		movq	$5, -120(%rbp)
 1620      05000000 
 1621              	.LEHB79:
 1622 0b3f E8000000 		call	_ZN8UnitTest11CurrentTest7ResultsEv
 1622      00
 1623 0b44 488B00   		movq	(%rax), %rax
 1624 0b47 488D4D90 		leaq	-112(%rbp), %rcx
 1625 0b4b 488D957C 		leaq	-132(%rbp), %rdx
 1625      FFFFFF
 1626 0b52 488D7588 		leaq	-120(%rbp), %rsi
 1627 0b56 4889C7   		movq	%rax, %rdi
 1628 0b59 E8000000 		call	_ZN8UnitTest10CheckEqualImjEEvRNS_11TestResultsERKT_RKT0_RKNS_11TestDetailsE
 1628      00
 1629              	.LEHE79:
 1630              	.L134:
 1631              	.LEHB80:
 111:testCore.cpp  **** 	CHECK_EQUAL(6UL, deref(queue.itemArray[1]));
 1632              		.loc 3 111 0 is_stmt 1
 1633 0b5e E8000000 		call	_ZN8UnitTest11CurrentTest7DetailsEv
 1633      00
 1634 0b63 488B08   		movq	(%rax), %rcx
 1635 0b66 488D4590 		leaq	-112(%rbp), %rax
 1636 0b6a BA6F0000 		movl	$111, %edx
 1636      00
 1637 0b6f 4889CE   		movq	%rcx, %rsi
 1638 0b72 4889C7   		movq	%rax, %rdi
 1639 0b75 E8000000 		call	_ZN8UnitTest11TestDetailsC1ERKS0_i
 1639      00
 1640              	.LEHE80:
 1641              		.loc 3 111 0 is_stmt 0 discriminator 2
 1642 0b7a 488B45B0 		movq	-80(%rbp), %rax
 1643 0b7e 4883C008 		addq	$8, %rax
 1644 0b82 488B00   		movq	(%rax), %rax
 1645 0b85 4889C7   		movq	%rax, %rdi
 1646 0b88 E8FDF4FF 		call	_ZL5derefPKv
 1646      FF
 1647 0b8d 89857CFF 		movl	%eax, -132(%rbp)
 1647      FFFF
 1648 0b93 48C74588 		movq	$6, -120(%rbp)
 1648      06000000 
 1649              	.LEHB81:
 1650 0b9b E8000000 		call	_ZN8UnitTest11CurrentTest7ResultsEv
 1650      00
 1651 0ba0 488B00   		movq	(%rax), %rax
 1652 0ba3 488D4D90 		leaq	-112(%rbp), %rcx
 1653 0ba7 488D957C 		leaq	-132(%rbp), %rdx
 1653      FFFFFF
 1654 0bae 488D7588 		leaq	-120(%rbp), %rsi
 1655 0bb2 4889C7   		movq	%rax, %rdi
 1656 0bb5 E8000000 		call	_ZN8UnitTest10CheckEqualImjEEvRNS_11TestResultsERKT_RKT0_RKNS_11TestDetailsE
 1656      00
 1657              	.LEHE81:
 1658              	.L138:
 1659              	.LEHB82:
 112:testCore.cpp  **** 	CHECK_EQUAL(7UL, deref(queue.itemArray[2]));
 1660              		.loc 3 112 0 is_stmt 1
 1661 0bba E8000000 		call	_ZN8UnitTest11CurrentTest7DetailsEv
 1661      00
 1662 0bbf 488B08   		movq	(%rax), %rcx
 1663 0bc2 488D4590 		leaq	-112(%rbp), %rax
 1664 0bc6 BA700000 		movl	$112, %edx
 1664      00
 1665 0bcb 4889CE   		movq	%rcx, %rsi
 1666 0bce 4889C7   		movq	%rax, %rdi
 1667 0bd1 E8000000 		call	_ZN8UnitTest11TestDetailsC1ERKS0_i
 1667      00
 1668              	.LEHE82:
 1669              		.loc 3 112 0 is_stmt 0 discriminator 2
 1670 0bd6 488B45B0 		movq	-80(%rbp), %rax
 1671 0bda 4883C010 		addq	$16, %rax
 1672 0bde 488B00   		movq	(%rax), %rax
 1673 0be1 4889C7   		movq	%rax, %rdi
 1674 0be4 E8A1F4FF 		call	_ZL5derefPKv
 1674      FF
 1675 0be9 89857CFF 		movl	%eax, -132(%rbp)
 1675      FFFF
 1676 0bef 48C74588 		movq	$7, -120(%rbp)
 1676      07000000 
 1677              	.LEHB83:
 1678 0bf7 E8000000 		call	_ZN8UnitTest11CurrentTest7ResultsEv
 1678      00
 1679 0bfc 488B00   		movq	(%rax), %rax
 1680 0bff 488D4D90 		leaq	-112(%rbp), %rcx
 1681 0c03 488D957C 		leaq	-132(%rbp), %rdx
 1681      FFFFFF
 1682 0c0a 488D7588 		leaq	-120(%rbp), %rsi
 1683 0c0e 4889C7   		movq	%rax, %rdi
 1684 0c11 E8000000 		call	_ZN8UnitTest10CheckEqualImjEEvRNS_11TestResultsERKT_RKT0_RKNS_11TestDetailsE
 1684      00
 1685              	.LEHE83:
 1686              	.L142:
 1687              	.LEHB84:
 113:testCore.cpp  **** 	CHECK_EQUAL(4UL, deref(queue.itemArray[3]));
 1688              		.loc 3 113 0 is_stmt 1
 1689 0c16 E8000000 		call	_ZN8UnitTest11CurrentTest7DetailsEv
 1689      00
 1690 0c1b 488B08   		movq	(%rax), %rcx
 1691 0c1e 488D4590 		leaq	-112(%rbp), %rax
 1692 0c22 BA710000 		movl	$113, %edx
 1692      00
 1693 0c27 4889CE   		movq	%rcx, %rsi
 1694 0c2a 4889C7   		movq	%rax, %rdi
 1695 0c2d E8000000 		call	_ZN8UnitTest11TestDetailsC1ERKS0_i
 1695      00
 1696              	.LEHE84:
 1697              		.loc 3 113 0 is_stmt 0 discriminator 2
 1698 0c32 488B45B0 		movq	-80(%rbp), %rax
 1699 0c36 4883C018 		addq	$24, %rax
 1700 0c3a 488B00   		movq	(%rax), %rax
 1701 0c3d 4889C7   		movq	%rax, %rdi
 1702 0c40 E845F4FF 		call	_ZL5derefPKv
 1702      FF
 1703 0c45 89857CFF 		movl	%eax, -132(%rbp)
 1703      FFFF
 1704 0c4b 48C74588 		movq	$4, -120(%rbp)
 1704      04000000 
 1705              	.LEHB85:
 1706 0c53 E8000000 		call	_ZN8UnitTest11CurrentTest7ResultsEv
 1706      00
 1707 0c58 488B00   		movq	(%rax), %rax
 1708 0c5b 488D4D90 		leaq	-112(%rbp), %rcx
 1709 0c5f 488D957C 		leaq	-132(%rbp), %rdx
 1709      FFFFFF
 1710 0c66 488D7588 		leaq	-120(%rbp), %rsi
 1711 0c6a 4889C7   		movq	%rax, %rdi
 1712 0c6d E8000000 		call	_ZN8UnitTest10CheckEqualImjEEvRNS_11TestResultsERKT_RKT0_RKNS_11TestDetailsE
 1712      00
 1713              	.LEHE85:
 1714              	.L146:
 114:testCore.cpp  **** 
 115:testCore.cpp  **** 	// Clean up
 116:testCore.cpp  **** 	queueDestroy(&queue);
 1715              		.loc 3 116 0 is_stmt 1
 1716 0c72 488D45B0 		leaq	-80(%rbp), %rax
 1717 0c76 4889C7   		movq	%rax, %rdi
 1718              	.LEHB86:
 1719 0c79 E8000000 		call	queueDestroy
 1719      00
 1720              	.LEHE86:
 117:testCore.cpp  **** }
 1721              		.loc 3 117 0
 1722 0c7e 90       		nop
 1723 0c7f 488B45E8 		movq	-24(%rbp), %rax
 1724 0c83 64483304 		xorq	%fs:40, %rax
 1724      25280000 
 1724      00
 1725 0c8c 0F849B05 		je	.L148
 1725      0000
 1726 0c92 E9910500 		jmp	.L194
 1726      00
 1727              	.L150:
 1728 0c97 EB00     		jmp	.L89
 1729              	.L149:
 1730              	.L89:
  84:testCore.cpp  **** 
 1731              		.loc 3 84 0
 1732 0c99 4889C7   		movq	%rax, %rdi
 1733 0c9c E8000000 		call	__cxa_begin_catch
 1733      00
 1734              	.LEHB87:
 1735 0ca1 E8000000 		call	_ZN8UnitTest11CurrentTest7DetailsEv
 1735      00
 1736 0ca6 488B08   		movq	(%rax), %rcx
 1737 0ca9 488D4590 		leaq	-112(%rbp), %rax
 1738 0cad BA540000 		movl	$84, %edx
 1738      00
 1739 0cb2 4889CE   		movq	%rcx, %rsi
 1740 0cb5 4889C7   		movq	%rax, %rdi
 1741 0cb8 E8000000 		call	_ZN8UnitTest11TestDetailsC1ERKS0_i
 1741      00
  84:testCore.cpp  **** 
 1742              		.loc 3 84 0 is_stmt 0 discriminator 10
 1743 0cbd E8000000 		call	_ZN8UnitTest11CurrentTest7ResultsEv
 1743      00
 1744 0cc2 488B00   		movq	(%rax), %rax
 1745 0cc5 488D4D90 		leaq	-112(%rbp), %rcx
 1746 0cc9 BA000000 		movl	$.LC3, %edx
 1746      00
 1747 0cce 4889CE   		movq	%rcx, %rsi
 1748 0cd1 4889C7   		movq	%rax, %rdi
 1749 0cd4 E8000000 		call	_ZN8UnitTest11TestResults13OnTestFailureERKNS_11TestDetailsEPKc
 1749      00
 1750              	.LEHE87:
 1751              	.LEHB88:
  84:testCore.cpp  **** 
 1752              		.loc 3 84 0 discriminator 14
 1753 0cd9 E8000000 		call	__cxa_end_catch
 1753      00
 1754              	.LEHE88:
 1755 0cde E9D6FAFF 		jmp	.L90
 1755      FF
 1756              	.L151:
 1757 0ce3 4889C3   		movq	%rax, %rbx
  84:testCore.cpp  **** 
 1758              		.loc 3 84 0
 1759 0ce6 E8000000 		call	__cxa_end_catch
 1759      00
 1760 0ceb 4889D8   		movq	%rbx, %rax
 1761 0cee 4889C7   		movq	%rax, %rdi
 1762              	.LEHB89:
 1763 0cf1 E8000000 		call	_Unwind_Resume
 1763      00
 1764              	.LEHE89:
 1765              	.L153:
 1766 0cf6 EB00     		jmp	.L93
 1767              	.L152:
 1768              	.L93:
  88:testCore.cpp  **** 	CHECK_EQUAL(1UL, *item);
 1769              		.loc 3 88 0 is_stmt 1
 1770 0cf8 4889C7   		movq	%rax, %rdi
 1771 0cfb E8000000 		call	__cxa_begin_catch
 1771      00
 1772              	.LEHB90:
 1773 0d00 E8000000 		call	_ZN8UnitTest11CurrentTest7DetailsEv
 1773      00
 1774 0d05 488B08   		movq	(%rax), %rcx
 1775 0d08 488D4590 		leaq	-112(%rbp), %rax
 1776 0d0c BA580000 		movl	$88, %edx
 1776      00
 1777 0d11 4889CE   		movq	%rcx, %rsi
 1778 0d14 4889C7   		movq	%rax, %rdi
 1779 0d17 E8000000 		call	_ZN8UnitTest11TestDetailsC1ERKS0_i
 1779      00
  88:testCore.cpp  **** 	CHECK_EQUAL(1UL, *item);
 1780              		.loc 3 88 0 is_stmt 0 discriminator 10
 1781 0d1c E8000000 		call	_ZN8UnitTest11CurrentTest7ResultsEv
 1781      00
 1782 0d21 488B00   		movq	(%rax), %rax
 1783 0d24 488D4D90 		leaq	-112(%rbp), %rcx
 1784 0d28 BA000000 		movl	$.LC3, %edx
 1784      00
 1785 0d2d 4889CE   		movq	%rcx, %rsi
 1786 0d30 4889C7   		movq	%rax, %rdi
 1787 0d33 E8000000 		call	_ZN8UnitTest11TestResults13OnTestFailureERKNS_11TestDetailsEPKc
 1787      00
 1788              	.LEHE90:
 1789              	.LEHB91:
  88:testCore.cpp  **** 	CHECK_EQUAL(1UL, *item);
 1790              		.loc 3 88 0 discriminator 14
 1791 0d38 E8000000 		call	__cxa_end_catch
 1791      00
 1792              	.LEHE91:
 1793 0d3d E9D2FAFF 		jmp	.L94
 1793      FF
 1794              	.L154:
 1795 0d42 4889C3   		movq	%rax, %rbx
  88:testCore.cpp  **** 	CHECK_EQUAL(1UL, *item);
 1796              		.loc 3 88 0
 1797 0d45 E8000000 		call	__cxa_end_catch
 1797      00
 1798 0d4a 4889D8   		movq	%rbx, %rax
 1799 0d4d 4889C7   		movq	%rax, %rdi
 1800              	.LEHB92:
 1801 0d50 E8000000 		call	_Unwind_Resume
 1801      00
 1802              	.LEHE92:
 1803              	.L156:
 1804 0d55 EB00     		jmp	.L97
 1805              	.L155:
 1806              	.L97:
  89:testCore.cpp  **** 	*item = 5;
 1807              		.loc 3 89 0 is_stmt 1
 1808 0d57 4889C7   		movq	%rax, %rdi
 1809 0d5a E8000000 		call	__cxa_begin_catch
 1809      00
 1810              	.LEHB93:
 1811 0d5f E8000000 		call	_ZN8UnitTest11CurrentTest7DetailsEv
 1811      00
 1812 0d64 488B08   		movq	(%rax), %rcx
 1813 0d67 488D4590 		leaq	-112(%rbp), %rax
 1814 0d6b BA590000 		movl	$89, %edx
 1814      00
 1815 0d70 4889CE   		movq	%rcx, %rsi
 1816 0d73 4889C7   		movq	%rax, %rdi
 1817 0d76 E8000000 		call	_ZN8UnitTest11TestDetailsC1ERKS0_i
 1817      00
  89:testCore.cpp  **** 	*item = 5;
 1818              		.loc 3 89 0 is_stmt 0 discriminator 10
 1819 0d7b E8000000 		call	_ZN8UnitTest11CurrentTest7ResultsEv
 1819      00
 1820 0d80 488B00   		movq	(%rax), %rax
 1821 0d83 488D4D90 		leaq	-112(%rbp), %rcx
 1822 0d87 BA000000 		movl	$.LC13, %edx
 1822      00
 1823 0d8c 4889CE   		movq	%rcx, %rsi
 1824 0d8f 4889C7   		movq	%rax, %rdi
 1825 0d92 E8000000 		call	_ZN8UnitTest11TestResults13OnTestFailureERKNS_11TestDetailsEPKc
 1825      00
 1826              	.LEHE93:
 1827              	.LEHB94:
  89:testCore.cpp  **** 	*item = 5;
 1828              		.loc 3 89 0 discriminator 14
 1829 0d97 E8000000 		call	__cxa_end_catch
 1829      00
 1830              	.LEHE94:
 1831 0d9c E9B9FAFF 		jmp	.L98
 1831      FF
 1832              	.L157:
 1833 0da1 4889C3   		movq	%rax, %rbx
  89:testCore.cpp  **** 	*item = 5;
 1834              		.loc 3 89 0
 1835 0da4 E8000000 		call	__cxa_end_catch
 1835      00
 1836 0da9 4889D8   		movq	%rbx, %rax
 1837 0dac 4889C7   		movq	%rax, %rdi
 1838              	.LEHB95:
 1839 0daf E8000000 		call	_Unwind_Resume
 1839      00
 1840              	.LEHE95:
 1841              	.L159:
 1842 0db4 EB00     		jmp	.L101
 1843              	.L158:
 1844              	.L101:
  93:testCore.cpp  **** 	CHECK_EQUAL(2UL, *item);
 1845              		.loc 3 93 0 is_stmt 1
 1846 0db6 4889C7   		movq	%rax, %rdi
 1847 0db9 E8000000 		call	__cxa_begin_catch
 1847      00
 1848              	.LEHB96:
 1849 0dbe E8000000 		call	_ZN8UnitTest11CurrentTest7DetailsEv
 1849      00
 1850 0dc3 488B08   		movq	(%rax), %rcx
 1851 0dc6 488D4590 		leaq	-112(%rbp), %rax
 1852 0dca BA5D0000 		movl	$93, %edx
 1852      00
 1853 0dcf 4889CE   		movq	%rcx, %rsi
 1854 0dd2 4889C7   		movq	%rax, %rdi
 1855 0dd5 E8000000 		call	_ZN8UnitTest11TestDetailsC1ERKS0_i
 1855      00
  93:testCore.cpp  **** 	CHECK_EQUAL(2UL, *item);
 1856              		.loc 3 93 0 is_stmt 0 discriminator 10
 1857 0dda E8000000 		call	_ZN8UnitTest11CurrentTest7ResultsEv
 1857      00
 1858 0ddf 488B00   		movq	(%rax), %rax
 1859 0de2 488D4D90 		leaq	-112(%rbp), %rcx
 1860 0de6 BA000000 		movl	$.LC3, %edx
 1860      00
 1861 0deb 4889CE   		movq	%rcx, %rsi
 1862 0dee 4889C7   		movq	%rax, %rdi
 1863 0df1 E8000000 		call	_ZN8UnitTest11TestResults13OnTestFailureERKNS_11TestDetailsEPKc
 1863      00
 1864              	.LEHE96:
 1865              	.LEHB97:
  93:testCore.cpp  **** 	CHECK_EQUAL(2UL, *item);
 1866              		.loc 3 93 0 discriminator 14
 1867 0df6 E8000000 		call	__cxa_end_catch
 1867      00
 1868              	.LEHE97:
 1869 0dfb E9CBFAFF 		jmp	.L102
 1869      FF
 1870              	.L160:
 1871 0e00 4889C3   		movq	%rax, %rbx
  93:testCore.cpp  **** 	CHECK_EQUAL(2UL, *item);
 1872              		.loc 3 93 0
 1873 0e03 E8000000 		call	__cxa_end_catch
 1873      00
 1874 0e08 4889D8   		movq	%rbx, %rax
 1875 0e0b 4889C7   		movq	%rax, %rdi
 1876              	.LEHB98:
 1877 0e0e E8000000 		call	_Unwind_Resume
 1877      00
 1878              	.LEHE98:
 1879              	.L162:
 1880 0e13 EB00     		jmp	.L105
 1881              	.L161:
 1882              	.L105:
  94:testCore.cpp  **** 	*item = 6;
 1883              		.loc 3 94 0 is_stmt 1
 1884 0e15 4889C7   		movq	%rax, %rdi
 1885 0e18 E8000000 		call	__cxa_begin_catch
 1885      00
 1886              	.LEHB99:
 1887 0e1d E8000000 		call	_ZN8UnitTest11CurrentTest7DetailsEv
 1887      00
 1888 0e22 488B08   		movq	(%rax), %rcx
 1889 0e25 488D4590 		leaq	-112(%rbp), %rax
 1890 0e29 BA5E0000 		movl	$94, %edx
 1890      00
 1891 0e2e 4889CE   		movq	%rcx, %rsi
 1892 0e31 4889C7   		movq	%rax, %rdi
 1893 0e34 E8000000 		call	_ZN8UnitTest11TestDetailsC1ERKS0_i
 1893      00
  94:testCore.cpp  **** 	*item = 6;
 1894              		.loc 3 94 0 is_stmt 0 discriminator 10
 1895 0e39 E8000000 		call	_ZN8UnitTest11CurrentTest7ResultsEv
 1895      00
 1896 0e3e 488B00   		movq	(%rax), %rax
 1897 0e41 488D4D90 		leaq	-112(%rbp), %rcx
 1898 0e45 BA000000 		movl	$.LC14, %edx
 1898      00
 1899 0e4a 4889CE   		movq	%rcx, %rsi
 1900 0e4d 4889C7   		movq	%rax, %rdi
 1901 0e50 E8000000 		call	_ZN8UnitTest11TestResults13OnTestFailureERKNS_11TestDetailsEPKc
 1901      00
 1902              	.LEHE99:
 1903              	.LEHB100:
  94:testCore.cpp  **** 	*item = 6;
 1904              		.loc 3 94 0 discriminator 14
 1905 0e55 E8000000 		call	__cxa_end_catch
 1905      00
 1906              	.LEHE100:
 1907 0e5a E9B2FAFF 		jmp	.L106
 1907      FF
 1908              	.L163:
 1909 0e5f 4889C3   		movq	%rax, %rbx
  94:testCore.cpp  **** 	*item = 6;
 1910              		.loc 3 94 0
 1911 0e62 E8000000 		call	__cxa_end_catch
 1911      00
 1912 0e67 4889D8   		movq	%rbx, %rax
 1913 0e6a 4889C7   		movq	%rax, %rdi
 1914              	.LEHB101:
 1915 0e6d E8000000 		call	_Unwind_Resume
 1915      00
 1916              	.LEHE101:
 1917              	.L165:
 1918 0e72 EB00     		jmp	.L109
 1919              	.L164:
 1920              	.L109:
  98:testCore.cpp  **** 	CHECK_EQUAL(3UL, *item);
 1921              		.loc 3 98 0 is_stmt 1
 1922 0e74 4889C7   		movq	%rax, %rdi
 1923 0e77 E8000000 		call	__cxa_begin_catch
 1923      00
 1924              	.LEHB102:
 1925 0e7c E8000000 		call	_ZN8UnitTest11CurrentTest7DetailsEv
 1925      00
 1926 0e81 488B08   		movq	(%rax), %rcx
 1927 0e84 488D4590 		leaq	-112(%rbp), %rax
 1928 0e88 BA620000 		movl	$98, %edx
 1928      00
 1929 0e8d 4889CE   		movq	%rcx, %rsi
 1930 0e90 4889C7   		movq	%rax, %rdi
 1931 0e93 E8000000 		call	_ZN8UnitTest11TestDetailsC1ERKS0_i
 1931      00
  98:testCore.cpp  **** 	CHECK_EQUAL(3UL, *item);
 1932              		.loc 3 98 0 is_stmt 0 discriminator 10
 1933 0e98 E8000000 		call	_ZN8UnitTest11CurrentTest7ResultsEv
 1933      00
 1934 0e9d 488B00   		movq	(%rax), %rax
 1935 0ea0 488D4D90 		leaq	-112(%rbp), %rcx
 1936 0ea4 BA000000 		movl	$.LC3, %edx
 1936      00
 1937 0ea9 4889CE   		movq	%rcx, %rsi
 1938 0eac 4889C7   		movq	%rax, %rdi
 1939 0eaf E8000000 		call	_ZN8UnitTest11TestResults13OnTestFailureERKNS_11TestDetailsEPKc
 1939      00
 1940              	.LEHE102:
 1941              	.LEHB103:
  98:testCore.cpp  **** 	CHECK_EQUAL(3UL, *item);
 1942              		.loc 3 98 0 discriminator 14
 1943 0eb4 E8000000 		call	__cxa_end_catch
 1943      00
 1944              	.LEHE103:
 1945 0eb9 E9C4FAFF 		jmp	.L110
 1945      FF
 1946              	.L166:
 1947 0ebe 4889C3   		movq	%rax, %rbx
  98:testCore.cpp  **** 	CHECK_EQUAL(3UL, *item);
 1948              		.loc 3 98 0
 1949 0ec1 E8000000 		call	__cxa_end_catch
 1949      00
 1950 0ec6 4889D8   		movq	%rbx, %rax
 1951 0ec9 4889C7   		movq	%rax, %rdi
 1952              	.LEHB104:
 1953 0ecc E8000000 		call	_Unwind_Resume
 1953      00
 1954              	.LEHE104:
 1955              	.L168:
 1956 0ed1 EB00     		jmp	.L113
 1957              	.L167:
 1958              	.L113:
  99:testCore.cpp  **** 	*item = 7;
 1959              		.loc 3 99 0 is_stmt 1
 1960 0ed3 4889C7   		movq	%rax, %rdi
 1961 0ed6 E8000000 		call	__cxa_begin_catch
 1961      00
 1962              	.LEHB105:
 1963 0edb E8000000 		call	_ZN8UnitTest11CurrentTest7DetailsEv
 1963      00
 1964 0ee0 488B08   		movq	(%rax), %rcx
 1965 0ee3 488D4590 		leaq	-112(%rbp), %rax
 1966 0ee7 BA630000 		movl	$99, %edx
 1966      00
 1967 0eec 4889CE   		movq	%rcx, %rsi
 1968 0eef 4889C7   		movq	%rax, %rdi
 1969 0ef2 E8000000 		call	_ZN8UnitTest11TestDetailsC1ERKS0_i
 1969      00
  99:testCore.cpp  **** 	*item = 7;
 1970              		.loc 3 99 0 is_stmt 0 discriminator 10
 1971 0ef7 E8000000 		call	_ZN8UnitTest11CurrentTest7ResultsEv
 1971      00
 1972 0efc 488B00   		movq	(%rax), %rax
 1973 0eff 488D4D90 		leaq	-112(%rbp), %rcx
 1974 0f03 BA000000 		movl	$.LC15, %edx
 1974      00
 1975 0f08 4889CE   		movq	%rcx, %rsi
 1976 0f0b 4889C7   		movq	%rax, %rdi
 1977 0f0e E8000000 		call	_ZN8UnitTest11TestResults13OnTestFailureERKNS_11TestDetailsEPKc
 1977      00
 1978              	.LEHE105:
 1979              	.LEHB106:
  99:testCore.cpp  **** 	*item = 7;
 1980              		.loc 3 99 0 discriminator 14
 1981 0f13 E8000000 		call	__cxa_end_catch
 1981      00
 1982              	.LEHE106:
 1983 0f18 E9ABFAFF 		jmp	.L114
 1983      FF
 1984              	.L169:
 1985 0f1d 4889C3   		movq	%rax, %rbx
  99:testCore.cpp  **** 	*item = 7;
 1986              		.loc 3 99 0
 1987 0f20 E8000000 		call	__cxa_end_catch
 1987      00
 1988 0f25 4889D8   		movq	%rbx, %rax
 1989 0f28 4889C7   		movq	%rax, %rdi
 1990              	.LEHB107:
 1991 0f2b E8000000 		call	_Unwind_Resume
 1991      00
 1992              	.LEHE107:
 1993              	.L171:
 1994 0f30 EB00     		jmp	.L117
 1995              	.L170:
 1996              	.L117:
 104:testCore.cpp  **** 	CHECK_EQUAL(3UL, queue.putIndex);
 1997              		.loc 3 104 0 is_stmt 1
 1998 0f32 4889C7   		movq	%rax, %rdi
 1999 0f35 E8000000 		call	__cxa_begin_catch
 1999      00
 2000              	.LEHB108:
 2001 0f3a E8000000 		call	_ZN8UnitTest11CurrentTest7DetailsEv
 2001      00
 2002 0f3f 488B08   		movq	(%rax), %rcx
 2003 0f42 488D4590 		leaq	-112(%rbp), %rax
 2004 0f46 BA680000 		movl	$104, %edx
 2004      00
 2005 0f4b 4889CE   		movq	%rcx, %rsi
 2006 0f4e 4889C7   		movq	%rax, %rdi
 2007 0f51 E8000000 		call	_ZN8UnitTest11TestDetailsC1ERKS0_i
 2007      00
 104:testCore.cpp  **** 	CHECK_EQUAL(3UL, queue.putIndex);
 2008              		.loc 3 104 0 is_stmt 0 discriminator 10
 2009 0f56 E8000000 		call	_ZN8UnitTest11CurrentTest7ResultsEv
 2009      00
 2010 0f5b 488B00   		movq	(%rax), %rax
 2011 0f5e 488D4D90 		leaq	-112(%rbp), %rcx
 2012 0f62 BA000000 		movl	$.LC4, %edx
 2012      00
 2013 0f67 4889CE   		movq	%rcx, %rsi
 2014 0f6a 4889C7   		movq	%rax, %rdi
 2015 0f6d E8000000 		call	_ZN8UnitTest11TestResults13OnTestFailureERKNS_11TestDetailsEPKc
 2015      00
 2016              	.LEHE108:
 2017              	.LEHB109:
 104:testCore.cpp  **** 	CHECK_EQUAL(3UL, queue.putIndex);
 2018              		.loc 3 104 0 discriminator 14
 2019 0f72 E8000000 		call	__cxa_end_catch
 2019      00
 2020              	.LEHE109:
 2021 0f77 E9ACFAFF 		jmp	.L118
 2021      FF
 2022              	.L172:
 2023 0f7c 4889C3   		movq	%rax, %rbx
 104:testCore.cpp  **** 	CHECK_EQUAL(3UL, queue.putIndex);
 2024              		.loc 3 104 0
 2025 0f7f E8000000 		call	__cxa_end_catch
 2025      00
 2026 0f84 4889D8   		movq	%rbx, %rax
 2027 0f87 4889C7   		movq	%rax, %rdi
 2028              	.LEHB110:
 2029 0f8a E8000000 		call	_Unwind_Resume
 2029      00
 2030              	.LEHE110:
 2031              	.L174:
 2032 0f8f EB00     		jmp	.L121
 2033              	.L173:
 2034              	.L121:
 105:testCore.cpp  **** 	CHECK_EQUAL(0UL, queue.takeIndex);
 2035              		.loc 3 105 0 is_stmt 1
 2036 0f91 4889C7   		movq	%rax, %rdi
 2037 0f94 E8000000 		call	__cxa_begin_catch
 2037      00
 2038              	.LEHB111:
 2039 0f99 E8000000 		call	_ZN8UnitTest11CurrentTest7DetailsEv
 2039      00
 2040 0f9e 488B08   		movq	(%rax), %rcx
 2041 0fa1 488D4590 		leaq	-112(%rbp), %rax
 2042 0fa5 BA690000 		movl	$105, %edx
 2042      00
 2043 0faa 4889CE   		movq	%rcx, %rsi
 2044 0fad 4889C7   		movq	%rax, %rdi
 2045 0fb0 E8000000 		call	_ZN8UnitTest11TestDetailsC1ERKS0_i
 2045      00
 105:testCore.cpp  **** 	CHECK_EQUAL(0UL, queue.takeIndex);
 2046              		.loc 3 105 0 is_stmt 0 discriminator 10
 2047 0fb5 E8000000 		call	_ZN8UnitTest11CurrentTest7ResultsEv
 2047      00
 2048 0fba 488B00   		movq	(%rax), %rax
 2049 0fbd 488D4D90 		leaq	-112(%rbp), %rcx
 2050 0fc1 BA000000 		movl	$.LC16, %edx
 2050      00
 2051 0fc6 4889CE   		movq	%rcx, %rsi
 2052 0fc9 4889C7   		movq	%rax, %rdi
 2053 0fcc E8000000 		call	_ZN8UnitTest11TestResults13OnTestFailureERKNS_11TestDetailsEPKc
 2053      00
 2054              	.LEHE111:
 2055              	.LEHB112:
 105:testCore.cpp  **** 	CHECK_EQUAL(0UL, queue.takeIndex);
 2056              		.loc 3 105 0 discriminator 14
 2057 0fd1 E8000000 		call	__cxa_end_catch
 2057      00
 2058              	.LEHE112:
 2059 0fd6 E997FAFF 		jmp	.L122
 2059      FF
 2060              	.L175:
 2061 0fdb 4889C3   		movq	%rax, %rbx
 105:testCore.cpp  **** 	CHECK_EQUAL(0UL, queue.takeIndex);
 2062              		.loc 3 105 0
 2063 0fde E8000000 		call	__cxa_end_catch
 2063      00
 2064 0fe3 4889D8   		movq	%rbx, %rax
 2065 0fe6 4889C7   		movq	%rax, %rdi
 2066              	.LEHB113:
 2067 0fe9 E8000000 		call	_Unwind_Resume
 2067      00
 2068              	.LEHE113:
 2069              	.L177:
 2070 0fee EB00     		jmp	.L125
 2071              	.L176:
 2072              	.L125:
 106:testCore.cpp  **** 	CHECK_EQUAL(3UL, queue.numItems);
 2073              		.loc 3 106 0 is_stmt 1
 2074 0ff0 4889C7   		movq	%rax, %rdi
 2075 0ff3 E8000000 		call	__cxa_begin_catch
 2075      00
 2076              	.LEHB114:
 2077 0ff8 E8000000 		call	_ZN8UnitTest11CurrentTest7DetailsEv
 2077      00
 2078 0ffd 488B08   		movq	(%rax), %rcx
 2079 1000 488D4590 		leaq	-112(%rbp), %rax
 2080 1004 BA6A0000 		movl	$106, %edx
 2080      00
 2081 1009 4889CE   		movq	%rcx, %rsi
 2082 100c 4889C7   		movq	%rax, %rdi
 2083 100f E8000000 		call	_ZN8UnitTest11TestDetailsC1ERKS0_i
 2083      00
 106:testCore.cpp  **** 	CHECK_EQUAL(3UL, queue.numItems);
 2084              		.loc 3 106 0 is_stmt 0 discriminator 10
 2085 1014 E8000000 		call	_ZN8UnitTest11CurrentTest7ResultsEv
 2085      00
 2086 1019 488B00   		movq	(%rax), %rax
 2087 101c 488D4D90 		leaq	-112(%rbp), %rcx
 2088 1020 BA000000 		movl	$.LC6, %edx
 2088      00
 2089 1025 4889CE   		movq	%rcx, %rsi
 2090 1028 4889C7   		movq	%rax, %rdi
 2091 102b E8000000 		call	_ZN8UnitTest11TestResults13OnTestFailureERKNS_11TestDetailsEPKc
 2091      00
 2092              	.LEHE114:
 2093              	.LEHB115:
 106:testCore.cpp  **** 	CHECK_EQUAL(3UL, queue.numItems);
 2094              		.loc 3 106 0 discriminator 14
 2095 1030 E8000000 		call	__cxa_end_catch
 2095      00
 2096              	.LEHE115:
 2097 1035 E982FAFF 		jmp	.L126
 2097      FF
 2098              	.L178:
 2099 103a 4889C3   		movq	%rax, %rbx
 106:testCore.cpp  **** 	CHECK_EQUAL(3UL, queue.numItems);
 2100              		.loc 3 106 0
 2101 103d E8000000 		call	__cxa_end_catch
 2101      00
 2102 1042 4889D8   		movq	%rbx, %rax
 2103 1045 4889C7   		movq	%rax, %rdi
 2104              	.LEHB116:
 2105 1048 E8000000 		call	_Unwind_Resume
 2105      00
 2106              	.LEHE116:
 2107              	.L180:
 2108 104d EB00     		jmp	.L129
 2109              	.L179:
 2110              	.L129:
 107:testCore.cpp  **** 
 2111              		.loc 3 107 0 is_stmt 1
 2112 104f 4889C7   		movq	%rax, %rdi
 2113 1052 E8000000 		call	__cxa_begin_catch
 2113      00
 2114              	.LEHB117:
 2115 1057 E8000000 		call	_ZN8UnitTest11CurrentTest7DetailsEv
 2115      00
 2116 105c 488B08   		movq	(%rax), %rcx
 2117 105f 488D4590 		leaq	-112(%rbp), %rax
 2118 1063 BA6B0000 		movl	$107, %edx
 2118      00
 2119 1068 4889CE   		movq	%rcx, %rsi
 2120 106b 4889C7   		movq	%rax, %rdi
 2121 106e E8000000 		call	_ZN8UnitTest11TestDetailsC1ERKS0_i
 2121      00
 107:testCore.cpp  **** 
 2122              		.loc 3 107 0 is_stmt 0 discriminator 10
 2123 1073 E8000000 		call	_ZN8UnitTest11CurrentTest7ResultsEv
 2123      00
 2124 1078 488B00   		movq	(%rax), %rax
 2125 107b 488D4D90 		leaq	-112(%rbp), %rcx
 2126 107f BA000000 		movl	$.LC17, %edx
 2126      00
 2127 1084 4889CE   		movq	%rcx, %rsi
 2128 1087 4889C7   		movq	%rax, %rdi
 2129 108a E8000000 		call	_ZN8UnitTest11TestResults13OnTestFailureERKNS_11TestDetailsEPKc
 2129      00
 2130              	.LEHE117:
 2131              	.LEHB118:
 107:testCore.cpp  **** 
 2132              		.loc 3 107 0 discriminator 14
 2133 108f E8000000 		call	__cxa_end_catch
 2133      00
 2134              	.LEHE118:
 2135 1094 E96DFAFF 		jmp	.L130
 2135      FF
 2136              	.L181:
 2137 1099 4889C3   		movq	%rax, %rbx
 107:testCore.cpp  **** 
 2138              		.loc 3 107 0
 2139 109c E8000000 		call	__cxa_end_catch
 2139      00
 2140 10a1 4889D8   		movq	%rbx, %rax
 2141 10a4 4889C7   		movq	%rax, %rdi
 2142              	.LEHB119:
 2143 10a7 E8000000 		call	_Unwind_Resume
 2143      00
 2144              	.LEHE119:
 2145              	.L183:
 2146 10ac EB00     		jmp	.L133
 2147              	.L182:
 2148              	.L133:
 110:testCore.cpp  **** 	CHECK_EQUAL(6UL, deref(queue.itemArray[1]));
 2149              		.loc 3 110 0 is_stmt 1
 2150 10ae 4889C7   		movq	%rax, %rdi
 2151 10b1 E8000000 		call	__cxa_begin_catch
 2151      00
 2152              	.LEHB120:
 2153 10b6 E8000000 		call	_ZN8UnitTest11CurrentTest7DetailsEv
 2153      00
 2154 10bb 488B08   		movq	(%rax), %rcx
 2155 10be 488D4590 		leaq	-112(%rbp), %rax
 2156 10c2 BA6E0000 		movl	$110, %edx
 2156      00
 2157 10c7 4889CE   		movq	%rcx, %rsi
 2158 10ca 4889C7   		movq	%rax, %rdi
 2159 10cd E8000000 		call	_ZN8UnitTest11TestDetailsC1ERKS0_i
 2159      00
 110:testCore.cpp  **** 	CHECK_EQUAL(6UL, deref(queue.itemArray[1]));
 2160              		.loc 3 110 0 is_stmt 0 discriminator 10
 2161 10d2 E8000000 		call	_ZN8UnitTest11CurrentTest7ResultsEv
 2161      00
 2162 10d7 488B00   		movq	(%rax), %rax
 2163 10da 488D4D90 		leaq	-112(%rbp), %rcx
 2164 10de BA000000 		movl	$.LC18, %edx
 2164      00
 2165 10e3 4889CE   		movq	%rcx, %rsi
 2166 10e6 4889C7   		movq	%rax, %rdi
 2167 10e9 E8000000 		call	_ZN8UnitTest11TestResults13OnTestFailureERKNS_11TestDetailsEPKc
 2167      00
 2168              	.LEHE120:
 2169              	.LEHB121:
 110:testCore.cpp  **** 	CHECK_EQUAL(6UL, deref(queue.itemArray[1]));
 2170              		.loc 3 110 0 discriminator 14
 2171 10ee E8000000 		call	__cxa_end_catch
 2171      00
 2172              	.LEHE121:
 2173 10f3 E966FAFF 		jmp	.L134
 2173      FF
 2174              	.L184:
 2175 10f8 4889C3   		movq	%rax, %rbx
 110:testCore.cpp  **** 	CHECK_EQUAL(6UL, deref(queue.itemArray[1]));
 2176              		.loc 3 110 0
 2177 10fb E8000000 		call	__cxa_end_catch
 2177      00
 2178 1100 4889D8   		movq	%rbx, %rax
 2179 1103 4889C7   		movq	%rax, %rdi
 2180              	.LEHB122:
 2181 1106 E8000000 		call	_Unwind_Resume
 2181      00
 2182              	.LEHE122:
 2183              	.L186:
 2184 110b EB00     		jmp	.L137
 2185              	.L185:
 2186              	.L137:
 111:testCore.cpp  **** 	CHECK_EQUAL(7UL, deref(queue.itemArray[2]));
 2187              		.loc 3 111 0 is_stmt 1
 2188 110d 4889C7   		movq	%rax, %rdi
 2189 1110 E8000000 		call	__cxa_begin_catch
 2189      00
 2190              	.LEHB123:
 2191 1115 E8000000 		call	_ZN8UnitTest11CurrentTest7DetailsEv
 2191      00
 2192 111a 488B08   		movq	(%rax), %rcx
 2193 111d 488D4590 		leaq	-112(%rbp), %rax
 2194 1121 BA6F0000 		movl	$111, %edx
 2194      00
 2195 1126 4889CE   		movq	%rcx, %rsi
 2196 1129 4889C7   		movq	%rax, %rdi
 2197 112c E8000000 		call	_ZN8UnitTest11TestDetailsC1ERKS0_i
 2197      00
 111:testCore.cpp  **** 	CHECK_EQUAL(7UL, deref(queue.itemArray[2]));
 2198              		.loc 3 111 0 is_stmt 0 discriminator 10
 2199 1131 E8000000 		call	_ZN8UnitTest11CurrentTest7ResultsEv
 2199      00
 2200 1136 488B00   		movq	(%rax), %rax
 2201 1139 488D4D90 		leaq	-112(%rbp), %rcx
 2202 113d BA000000 		movl	$.LC19, %edx
 2202      00
 2203 1142 4889CE   		movq	%rcx, %rsi
 2204 1145 4889C7   		movq	%rax, %rdi
 2205 1148 E8000000 		call	_ZN8UnitTest11TestResults13OnTestFailureERKNS_11TestDetailsEPKc
 2205      00
 2206              	.LEHE123:
 2207              	.LEHB124:
 111:testCore.cpp  **** 	CHECK_EQUAL(7UL, deref(queue.itemArray[2]));
 2208              		.loc 3 111 0 discriminator 14
 2209 114d E8000000 		call	__cxa_end_catch
 2209      00
 2210              	.LEHE124:
 2211 1152 E963FAFF 		jmp	.L138
 2211      FF
 2212              	.L187:
 2213 1157 4889C3   		movq	%rax, %rbx
 111:testCore.cpp  **** 	CHECK_EQUAL(7UL, deref(queue.itemArray[2]));
 2214              		.loc 3 111 0
 2215 115a E8000000 		call	__cxa_end_catch
 2215      00
 2216 115f 4889D8   		movq	%rbx, %rax
 2217 1162 4889C7   		movq	%rax, %rdi
 2218              	.LEHB125:
 2219 1165 E8000000 		call	_Unwind_Resume
 2219      00
 2220              	.LEHE125:
 2221              	.L189:
 2222 116a EB00     		jmp	.L141
 2223              	.L188:
 2224              	.L141:
 112:testCore.cpp  **** 	CHECK_EQUAL(4UL, deref(queue.itemArray[3]));
 2225              		.loc 3 112 0 is_stmt 1
 2226 116c 4889C7   		movq	%rax, %rdi
 2227 116f E8000000 		call	__cxa_begin_catch
 2227      00
 2228              	.LEHB126:
 2229 1174 E8000000 		call	_ZN8UnitTest11CurrentTest7DetailsEv
 2229      00
 2230 1179 488B08   		movq	(%rax), %rcx
 2231 117c 488D4590 		leaq	-112(%rbp), %rax
 2232 1180 BA700000 		movl	$112, %edx
 2232      00
 2233 1185 4889CE   		movq	%rcx, %rsi
 2234 1188 4889C7   		movq	%rax, %rdi
 2235 118b E8000000 		call	_ZN8UnitTest11TestDetailsC1ERKS0_i
 2235      00
 112:testCore.cpp  **** 	CHECK_EQUAL(4UL, deref(queue.itemArray[3]));
 2236              		.loc 3 112 0 is_stmt 0 discriminator 10
 2237 1190 E8000000 		call	_ZN8UnitTest11CurrentTest7ResultsEv
 2237      00
 2238 1195 488B00   		movq	(%rax), %rax
 2239 1198 488D4D90 		leaq	-112(%rbp), %rcx
 2240 119c BA000000 		movl	$.LC20, %edx
 2240      00
 2241 11a1 4889CE   		movq	%rcx, %rsi
 2242 11a4 4889C7   		movq	%rax, %rdi
 2243 11a7 E8000000 		call	_ZN8UnitTest11TestResults13OnTestFailureERKNS_11TestDetailsEPKc
 2243      00
 2244              	.LEHE126:
 2245              	.LEHB127:
 112:testCore.cpp  **** 	CHECK_EQUAL(4UL, deref(queue.itemArray[3]));
 2246              		.loc 3 112 0 discriminator 14
 2247 11ac E8000000 		call	__cxa_end_catch
 2247      00
 2248              	.LEHE127:
 2249 11b1 E960FAFF 		jmp	.L142
 2249      FF
 2250              	.L190:
 2251 11b6 4889C3   		movq	%rax, %rbx
 112:testCore.cpp  **** 	CHECK_EQUAL(4UL, deref(queue.itemArray[3]));
 2252              		.loc 3 112 0
 2253 11b9 E8000000 		call	__cxa_end_catch
 2253      00
 2254 11be 4889D8   		movq	%rbx, %rax
 2255 11c1 4889C7   		movq	%rax, %rdi
 2256              	.LEHB128:
 2257 11c4 E8000000 		call	_Unwind_Resume
 2257      00
 2258              	.LEHE128:
 2259              	.L192:
 2260 11c9 EB00     		jmp	.L145
 2261              	.L191:
 2262              	.L145:
 113:testCore.cpp  **** 
 2263              		.loc 3 113 0 is_stmt 1
 2264 11cb 4889C7   		movq	%rax, %rdi
 2265 11ce E8000000 		call	__cxa_begin_catch
 2265      00
 2266              	.LEHB129:
 2267 11d3 E8000000 		call	_ZN8UnitTest11CurrentTest7DetailsEv
 2267      00
 2268 11d8 488B08   		movq	(%rax), %rcx
 2269 11db 488D4590 		leaq	-112(%rbp), %rax
 2270 11df BA710000 		movl	$113, %edx
 2270      00
 2271 11e4 4889CE   		movq	%rcx, %rsi
 2272 11e7 4889C7   		movq	%rax, %rdi
 2273 11ea E8000000 		call	_ZN8UnitTest11TestDetailsC1ERKS0_i
 2273      00
 113:testCore.cpp  **** 
 2274              		.loc 3 113 0 is_stmt 0 discriminator 10
 2275 11ef E8000000 		call	_ZN8UnitTest11CurrentTest7ResultsEv
 2275      00
 2276 11f4 488B00   		movq	(%rax), %rax
 2277 11f7 488D4D90 		leaq	-112(%rbp), %rcx
 2278 11fb BA000000 		movl	$.LC11, %edx
 2278      00
 2279 1200 4889CE   		movq	%rcx, %rsi
 2280 1203 4889C7   		movq	%rax, %rdi
 2281 1206 E8000000 		call	_ZN8UnitTest11TestResults13OnTestFailureERKNS_11TestDetailsEPKc
 2281      00
 2282              	.LEHE129:
 2283              	.LEHB130:
 113:testCore.cpp  **** 
 2284              		.loc 3 113 0 discriminator 14
 2285 120b E8000000 		call	__cxa_end_catch
 2285      00
 2286              	.LEHE130:
 2287 1210 E95DFAFF 		jmp	.L146
 2287      FF
 2288              	.L193:
 2289 1215 4889C3   		movq	%rax, %rbx
 113:testCore.cpp  **** 
 2290              		.loc 3 113 0
 2291 1218 E8000000 		call	__cxa_end_catch
 2291      00
 2292 121d 4889D8   		movq	%rbx, %rax
 2293 1220 4889C7   		movq	%rax, %rdi
 2294              	.LEHB131:
 2295 1223 E8000000 		call	_Unwind_Resume
 2295      00
 2296              	.LEHE131:
 2297              	.L194:
 2298              		.loc 3 117 0 is_stmt 1
 2299 1228 E8000000 		call	__stack_chk_fail
 2299      00
 2300              	.L148:
 2301 122d 4881C498 		addq	$152, %rsp
 2301      000000
 2302 1234 5B       		popq	%rbx
 2303 1235 5D       		popq	%rbp
 2304              		.cfi_def_cfa 7, 8
 2305 1236 C3       		ret
 2306              		.cfi_endproc
 2307              	.LFE1088:
 2308              		.section	.gcc_except_table
 2309              		.align 4
 2310              	.LLSDA1088:
 2311 0114 FF       		.byte	0xff
 2312 0115 03       		.byte	0x3
 2313 0116 CC03     		.uleb128 .LLSDATT1088-.LLSDATTD1088
 2314              	.LLSDATTD1088:
 2315 0118 01       		.byte	0x1
 2316 0119 BF03     		.uleb128 .LLSDACSE1088-.LLSDACSB1088
 2317              	.LLSDACSB1088:
 2318 011b 42       		.uleb128 .LEHB51-.LFB1088
 2319 011c 05       		.uleb128 .LEHE51-.LEHB51
 2320 011d 00       		.uleb128 0
 2321 011e 00       		.uleb128 0
 2322 011f 4D       		.uleb128 .LEHB52-.LFB1088
 2323 0120 1C       		.uleb128 .LEHE52-.LEHB52
 2324 0121 EF0A     		.uleb128 .L149-.LFB1088
 2325 0123 01       		.uleb128 0x1
 2326 0124 70       		.uleb128 .LEHB53-.LFB1088
 2327 0125 1F       		.uleb128 .LEHE53-.LEHB53
 2328 0126 ED0A     		.uleb128 .L150-.LFB1088
 2329 0128 03       		.uleb128 0x3
 2330 0129 9D01     		.uleb128 .LEHB54-.LFB1088
 2331 012b 05       		.uleb128 .LEHE54-.LEHB54
 2332 012c 00       		.uleb128 0
 2333 012d 00       		.uleb128 0
 2334 012e A801     		.uleb128 .LEHB55-.LFB1088
 2335 0130 1C       		.uleb128 .LEHE55-.LEHB55
 2336 0131 CE0B     		.uleb128 .L152-.LFB1088
 2337 0133 01       		.uleb128 0x1
 2338 0134 CB01     		.uleb128 .LEHB56-.LFB1088
 2339 0136 1F       		.uleb128 .LEHE56-.LEHB56
 2340 0137 CC0B     		.uleb128 .L153-.LFB1088
 2341 0139 03       		.uleb128 0x3
 2342 013a EA01     		.uleb128 .LEHB57-.LFB1088
 2343 013c 1C       		.uleb128 .LEHE57-.LEHB57
 2344 013d AD0C     		.uleb128 .L155-.LFB1088
 2345 013f 01       		.uleb128 0x1
 2346 0140 9202     		.uleb128 .LEHB58-.LFB1088
 2347 0142 1E       		.uleb128 .LEHE58-.LEHB58
 2348 0143 AB0C     		.uleb128 .L156-.LFB1088
 2349 0145 03       		.uleb128 0x3
 2350 0146 C102     		.uleb128 .LEHB59-.LFB1088
 2351 0148 18       		.uleb128 .LEHE59-.LEHB59
 2352 0149 00       		.uleb128 0
 2353 014a 00       		.uleb128 0
 2354 014b DF02     		.uleb128 .LEHB60-.LFB1088
 2355 014d 1C       		.uleb128 .LEHE60-.LEHB60
 2356 014e 8C0D     		.uleb128 .L158-.LFB1088
 2357 0150 01       		.uleb128 0x1
 2358 0151 8203     		.uleb128 .LEHB61-.LFB1088
 2359 0153 1F       		.uleb128 .LEHE61-.LEHB61
 2360 0154 8A0D     		.uleb128 .L159-.LFB1088
 2361 0156 03       		.uleb128 0x3
 2362 0157 A103     		.uleb128 .LEHB62-.LFB1088
 2363 0159 1C       		.uleb128 .LEHE62-.LEHB62
 2364 015a EB0D     		.uleb128 .L161-.LFB1088
 2365 015c 01       		.uleb128 0x1
 2366 015d C903     		.uleb128 .LEHB63-.LFB1088
 2367 015f 1E       		.uleb128 .LEHE63-.LEHB63
 2368 0160 E90D     		.uleb128 .L162-.LFB1088
 2369 0162 03       		.uleb128 0x3
 2370 0163 F803     		.uleb128 .LEHB64-.LFB1088
 2371 0165 18       		.uleb128 .LEHE64-.LEHB64
 2372 0166 00       		.uleb128 0
 2373 0167 00       		.uleb128 0
 2374 0168 9604     		.uleb128 .LEHB65-.LFB1088
 2375 016a 1C       		.uleb128 .LEHE65-.LEHB65
 2376 016b CA0E     		.uleb128 .L164-.LFB1088
 2377 016d 01       		.uleb128 0x1
 2378 016e B904     		.uleb128 .LEHB66-.LFB1088
 2379 0170 1F       		.uleb128 .LEHE66-.LEHB66
 2380 0171 C80E     		.uleb128 .L165-.LFB1088
 2381 0173 03       		.uleb128 0x3
 2382 0174 D804     		.uleb128 .LEHB67-.LFB1088
 2383 0176 1C       		.uleb128 .LEHE67-.LEHB67
 2384 0177 A90F     		.uleb128 .L167-.LFB1088
 2385 0179 01       		.uleb128 0x1
 2386 017a 8005     		.uleb128 .LEHB68-.LFB1088
 2387 017c 1E       		.uleb128 .LEHE68-.LEHB68
 2388 017d A70F     		.uleb128 .L168-.LFB1088
 2389 017f 03       		.uleb128 0x3
 2390 0180 AF05     		.uleb128 .LEHB69-.LFB1088
 2391 0182 05       		.uleb128 .LEHE69-.LEHB69
 2392 0183 00       		.uleb128 0
 2393 0184 00       		.uleb128 0
 2394 0185 B405     		.uleb128 .LEHB70-.LFB1088
 2395 0187 1C       		.uleb128 .LEHE70-.LEHB70
 2396 0188 8810     		.uleb128 .L170-.LFB1088
 2397 018a 01       		.uleb128 0x1
 2398 018b D805     		.uleb128 .LEHB71-.LFB1088
 2399 018d 26       		.uleb128 .LEHE71-.LEHB71
 2400 018e 8610     		.uleb128 .L171-.LFB1088
 2401 0190 03       		.uleb128 0x3
 2402 0191 FE05     		.uleb128 .LEHB72-.LFB1088
 2403 0193 1C       		.uleb128 .LEHE72-.LEHB72
 2404 0194 E710     		.uleb128 .L173-.LFB1088
 2405 0196 01       		.uleb128 0x1
 2406 0197 A206     		.uleb128 .LEHB73-.LFB1088
 2407 0199 26       		.uleb128 .LEHE73-.LEHB73
 2408 019a E510     		.uleb128 .L174-.LFB1088
 2409 019c 03       		.uleb128 0x3
 2410 019d C806     		.uleb128 .LEHB74-.LFB1088
 2411 019f 1C       		.uleb128 .LEHE74-.LEHB74
 2412 01a0 C611     		.uleb128 .L176-.LFB1088
 2413 01a2 01       		.uleb128 0x1
 2414 01a3 EC06     		.uleb128 .LEHB75-.LFB1088
 2415 01a5 26       		.uleb128 .LEHE75-.LEHB75
 2416 01a6 C411     		.uleb128 .L177-.LFB1088
 2417 01a8 03       		.uleb128 0x3
 2418 01a9 9207     		.uleb128 .LEHB76-.LFB1088
 2419 01ab 1C       		.uleb128 .LEHE76-.LEHB76
 2420 01ac A512     		.uleb128 .L179-.LFB1088
 2421 01ae 01       		.uleb128 0x1
 2422 01af B607     		.uleb128 .LEHB77-.LFB1088
 2423 01b1 26       		.uleb128 .LEHE77-.LEHB77
 2424 01b2 A312     		.uleb128 .L180-.LFB1088
 2425 01b4 03       		.uleb128 0x3
 2426 01b5 DC07     		.uleb128 .LEHB78-.LFB1088
 2427 01b7 1C       		.uleb128 .LEHE78-.LEHB78
 2428 01b8 8413     		.uleb128 .L182-.LFB1088
 2429 01ba 01       		.uleb128 0x1
 2430 01bb 9508     		.uleb128 .LEHB79-.LFB1088
 2431 01bd 1F       		.uleb128 .LEHE79-.LEHB79
 2432 01be 8213     		.uleb128 .L183-.LFB1088
 2433 01c0 03       		.uleb128 0x3
 2434 01c1 B408     		.uleb128 .LEHB80-.LFB1088
 2435 01c3 1C       		.uleb128 .LEHE80-.LEHB80
 2436 01c4 E313     		.uleb128 .L185-.LFB1088
 2437 01c6 01       		.uleb128 0x1
 2438 01c7 F108     		.uleb128 .LEHB81-.LFB1088
 2439 01c9 1F       		.uleb128 .LEHE81-.LEHB81
 2440 01ca E113     		.uleb128 .L186-.LFB1088
 2441 01cc 03       		.uleb128 0x3
 2442 01cd 9009     		.uleb128 .LEHB82-.LFB1088
 2443 01cf 1C       		.uleb128 .LEHE82-.LEHB82
 2444 01d0 C214     		.uleb128 .L188-.LFB1088
 2445 01d2 01       		.uleb128 0x1
 2446 01d3 CD09     		.uleb128 .LEHB83-.LFB1088
 2447 01d5 1F       		.uleb128 .LEHE83-.LEHB83
 2448 01d6 C014     		.uleb128 .L189-.LFB1088
 2449 01d8 03       		.uleb128 0x3
 2450 01d9 EC09     		.uleb128 .LEHB84-.LFB1088
 2451 01db 1C       		.uleb128 .LEHE84-.LEHB84
 2452 01dc A115     		.uleb128 .L191-.LFB1088
 2453 01de 01       		.uleb128 0x1
 2454 01df A90A     		.uleb128 .LEHB85-.LFB1088
 2455 01e1 1F       		.uleb128 .LEHE85-.LEHB85
 2456 01e2 9F15     		.uleb128 .L192-.LFB1088
 2457 01e4 03       		.uleb128 0x3
 2458 01e5 CF0A     		.uleb128 .LEHB86-.LFB1088
 2459 01e7 05       		.uleb128 .LEHE86-.LEHB86
 2460 01e8 00       		.uleb128 0
 2461 01e9 00       		.uleb128 0
 2462 01ea F70A     		.uleb128 .LEHB87-.LFB1088
 2463 01ec 38       		.uleb128 .LEHE87-.LEHB87
 2464 01ed B90B     		.uleb128 .L151-.LFB1088
 2465 01ef 00       		.uleb128 0
 2466 01f0 AF0B     		.uleb128 .LEHB88-.LFB1088
 2467 01f2 05       		.uleb128 .LEHE88-.LEHB88
 2468 01f3 00       		.uleb128 0
 2469 01f4 00       		.uleb128 0
 2470 01f5 C70B     		.uleb128 .LEHB89-.LFB1088
 2471 01f7 05       		.uleb128 .LEHE89-.LEHB89
 2472 01f8 00       		.uleb128 0
 2473 01f9 00       		.uleb128 0
 2474 01fa D60B     		.uleb128 .LEHB90-.LFB1088
 2475 01fc 38       		.uleb128 .LEHE90-.LEHB90
 2476 01fd 980C     		.uleb128 .L154-.LFB1088
 2477 01ff 00       		.uleb128 0
 2478 0200 8E0C     		.uleb128 .LEHB91-.LFB1088
 2479 0202 05       		.uleb128 .LEHE91-.LEHB91
 2480 0203 00       		.uleb128 0
 2481 0204 00       		.uleb128 0
 2482 0205 A60C     		.uleb128 .LEHB92-.LFB1088
 2483 0207 05       		.uleb128 .LEHE92-.LEHB92
 2484 0208 00       		.uleb128 0
 2485 0209 00       		.uleb128 0
 2486 020a B50C     		.uleb128 .LEHB93-.LFB1088
 2487 020c 38       		.uleb128 .LEHE93-.LEHB93
 2488 020d F70C     		.uleb128 .L157-.LFB1088
 2489 020f 00       		.uleb128 0
 2490 0210 ED0C     		.uleb128 .LEHB94-.LFB1088
 2491 0212 05       		.uleb128 .LEHE94-.LEHB94
 2492 0213 00       		.uleb128 0
 2493 0214 00       		.uleb128 0
 2494 0215 850D     		.uleb128 .LEHB95-.LFB1088
 2495 0217 05       		.uleb128 .LEHE95-.LEHB95
 2496 0218 00       		.uleb128 0
 2497 0219 00       		.uleb128 0
 2498 021a 940D     		.uleb128 .LEHB96-.LFB1088
 2499 021c 38       		.uleb128 .LEHE96-.LEHB96
 2500 021d D60D     		.uleb128 .L160-.LFB1088
 2501 021f 00       		.uleb128 0
 2502 0220 CC0D     		.uleb128 .LEHB97-.LFB1088
 2503 0222 05       		.uleb128 .LEHE97-.LEHB97
 2504 0223 00       		.uleb128 0
 2505 0224 00       		.uleb128 0
 2506 0225 E40D     		.uleb128 .LEHB98-.LFB1088
 2507 0227 05       		.uleb128 .LEHE98-.LEHB98
 2508 0228 00       		.uleb128 0
 2509 0229 00       		.uleb128 0
 2510 022a F30D     		.uleb128 .LEHB99-.LFB1088
 2511 022c 38       		.uleb128 .LEHE99-.LEHB99
 2512 022d B50E     		.uleb128 .L163-.LFB1088
 2513 022f 00       		.uleb128 0
 2514 0230 AB0E     		.uleb128 .LEHB100-.LFB1088
 2515 0232 05       		.uleb128 .LEHE100-.LEHB100
 2516 0233 00       		.uleb128 0
 2517 0234 00       		.uleb128 0
 2518 0235 C30E     		.uleb128 .LEHB101-.LFB1088
 2519 0237 05       		.uleb128 .LEHE101-.LEHB101
 2520 0238 00       		.uleb128 0
 2521 0239 00       		.uleb128 0
 2522 023a D20E     		.uleb128 .LEHB102-.LFB1088
 2523 023c 38       		.uleb128 .LEHE102-.LEHB102
 2524 023d 940F     		.uleb128 .L166-.LFB1088
 2525 023f 00       		.uleb128 0
 2526 0240 8A0F     		.uleb128 .LEHB103-.LFB1088
 2527 0242 05       		.uleb128 .LEHE103-.LEHB103
 2528 0243 00       		.uleb128 0
 2529 0244 00       		.uleb128 0
 2530 0245 A20F     		.uleb128 .LEHB104-.LFB1088
 2531 0247 05       		.uleb128 .LEHE104-.LEHB104
 2532 0248 00       		.uleb128 0
 2533 0249 00       		.uleb128 0
 2534 024a B10F     		.uleb128 .LEHB105-.LFB1088
 2535 024c 38       		.uleb128 .LEHE105-.LEHB105
 2536 024d F30F     		.uleb128 .L169-.LFB1088
 2537 024f 00       		.uleb128 0
 2538 0250 E90F     		.uleb128 .LEHB106-.LFB1088
 2539 0252 05       		.uleb128 .LEHE106-.LEHB106
 2540 0253 00       		.uleb128 0
 2541 0254 00       		.uleb128 0
 2542 0255 8110     		.uleb128 .LEHB107-.LFB1088
 2543 0257 05       		.uleb128 .LEHE107-.LEHB107
 2544 0258 00       		.uleb128 0
 2545 0259 00       		.uleb128 0
 2546 025a 9010     		.uleb128 .LEHB108-.LFB1088
 2547 025c 38       		.uleb128 .LEHE108-.LEHB108
 2548 025d D210     		.uleb128 .L172-.LFB1088
 2549 025f 00       		.uleb128 0
 2550 0260 C810     		.uleb128 .LEHB109-.LFB1088
 2551 0262 05       		.uleb128 .LEHE109-.LEHB109
 2552 0263 00       		.uleb128 0
 2553 0264 00       		.uleb128 0
 2554 0265 E010     		.uleb128 .LEHB110-.LFB1088
 2555 0267 05       		.uleb128 .LEHE110-.LEHB110
 2556 0268 00       		.uleb128 0
 2557 0269 00       		.uleb128 0
 2558 026a EF10     		.uleb128 .LEHB111-.LFB1088
 2559 026c 38       		.uleb128 .LEHE111-.LEHB111
 2560 026d B111     		.uleb128 .L175-.LFB1088
 2561 026f 00       		.uleb128 0
 2562 0270 A711     		.uleb128 .LEHB112-.LFB1088
 2563 0272 05       		.uleb128 .LEHE112-.LEHB112
 2564 0273 00       		.uleb128 0
 2565 0274 00       		.uleb128 0
 2566 0275 BF11     		.uleb128 .LEHB113-.LFB1088
 2567 0277 05       		.uleb128 .LEHE113-.LEHB113
 2568 0278 00       		.uleb128 0
 2569 0279 00       		.uleb128 0
 2570 027a CE11     		.uleb128 .LEHB114-.LFB1088
 2571 027c 38       		.uleb128 .LEHE114-.LEHB114
 2572 027d 9012     		.uleb128 .L178-.LFB1088
 2573 027f 00       		.uleb128 0
 2574 0280 8612     		.uleb128 .LEHB115-.LFB1088
 2575 0282 05       		.uleb128 .LEHE115-.LEHB115
 2576 0283 00       		.uleb128 0
 2577 0284 00       		.uleb128 0
 2578 0285 9E12     		.uleb128 .LEHB116-.LFB1088
 2579 0287 05       		.uleb128 .LEHE116-.LEHB116
 2580 0288 00       		.uleb128 0
 2581 0289 00       		.uleb128 0
 2582 028a AD12     		.uleb128 .LEHB117-.LFB1088
 2583 028c 38       		.uleb128 .LEHE117-.LEHB117
 2584 028d EF12     		.uleb128 .L181-.LFB1088
 2585 028f 00       		.uleb128 0
 2586 0290 E512     		.uleb128 .LEHB118-.LFB1088
 2587 0292 05       		.uleb128 .LEHE118-.LEHB118
 2588 0293 00       		.uleb128 0
 2589 0294 00       		.uleb128 0
 2590 0295 FD12     		.uleb128 .LEHB119-.LFB1088
 2591 0297 05       		.uleb128 .LEHE119-.LEHB119
 2592 0298 00       		.uleb128 0
 2593 0299 00       		.uleb128 0
 2594 029a 8C13     		.uleb128 .LEHB120-.LFB1088
 2595 029c 38       		.uleb128 .LEHE120-.LEHB120
 2596 029d CE13     		.uleb128 .L184-.LFB1088
 2597 029f 00       		.uleb128 0
 2598 02a0 C413     		.uleb128 .LEHB121-.LFB1088
 2599 02a2 05       		.uleb128 .LEHE121-.LEHB121
 2600 02a3 00       		.uleb128 0
 2601 02a4 00       		.uleb128 0
 2602 02a5 DC13     		.uleb128 .LEHB122-.LFB1088
 2603 02a7 05       		.uleb128 .LEHE122-.LEHB122
 2604 02a8 00       		.uleb128 0
 2605 02a9 00       		.uleb128 0
 2606 02aa EB13     		.uleb128 .LEHB123-.LFB1088
 2607 02ac 38       		.uleb128 .LEHE123-.LEHB123
 2608 02ad AD14     		.uleb128 .L187-.LFB1088
 2609 02af 00       		.uleb128 0
 2610 02b0 A314     		.uleb128 .LEHB124-.LFB1088
 2611 02b2 05       		.uleb128 .LEHE124-.LEHB124
 2612 02b3 00       		.uleb128 0
 2613 02b4 00       		.uleb128 0
 2614 02b5 BB14     		.uleb128 .LEHB125-.LFB1088
 2615 02b7 05       		.uleb128 .LEHE125-.LEHB125
 2616 02b8 00       		.uleb128 0
 2617 02b9 00       		.uleb128 0
 2618 02ba CA14     		.uleb128 .LEHB126-.LFB1088
 2619 02bc 38       		.uleb128 .LEHE126-.LEHB126
 2620 02bd 8C15     		.uleb128 .L190-.LFB1088
 2621 02bf 00       		.uleb128 0
 2622 02c0 8215     		.uleb128 .LEHB127-.LFB1088
 2623 02c2 05       		.uleb128 .LEHE127-.LEHB127
 2624 02c3 00       		.uleb128 0
 2625 02c4 00       		.uleb128 0
 2626 02c5 9A15     		.uleb128 .LEHB128-.LFB1088
 2627 02c7 05       		.uleb128 .LEHE128-.LEHB128
 2628 02c8 00       		.uleb128 0
 2629 02c9 00       		.uleb128 0
 2630 02ca A915     		.uleb128 .LEHB129-.LFB1088
 2631 02cc 38       		.uleb128 .LEHE129-.LEHB129
 2632 02cd EB15     		.uleb128 .L193-.LFB1088
 2633 02cf 00       		.uleb128 0
 2634 02d0 E115     		.uleb128 .LEHB130-.LFB1088
 2635 02d2 05       		.uleb128 .LEHE130-.LEHB130
 2636 02d3 00       		.uleb128 0
 2637 02d4 00       		.uleb128 0
 2638 02d5 F915     		.uleb128 .LEHB131-.LFB1088
 2639 02d7 05       		.uleb128 .LEHE131-.LEHB131
 2640 02d8 00       		.uleb128 0
 2641 02d9 00       		.uleb128 0
 2642              	.LLSDACSE1088:
 2643 02da 01       		.byte	0x1
 2644 02db 00       		.byte	0
 2645 02dc 00       		.byte	0
 2646 02dd 7D       		.byte	0x7d
 2647 02de 0000     		.align 4
 2648 02e0 00000000 		.long	0
 2649              	
 2650              	.LLSDATT1088:
 2651              		.text
 2653              		.section	.rodata
 2654              	.LC21:
 2655 0453 51756575 		.string	"Queue_testPutWrap"
 2655      655F7465 
 2655      73745075 
 2655      74577261 
 2655      7000
 2656              		.section	.text._ZN21TestQueue_testPutWrapC2Ev,"axG",@progbits,_ZN21TestQueue_testPutWrapC5Ev,comda
 2657              		.align 2
 2658              		.weak	_ZN21TestQueue_testPutWrapC2Ev
 2660              	_ZN21TestQueue_testPutWrapC2Ev:
 2661              	.LFB1090:
 118:testCore.cpp  **** 
 119:testCore.cpp  **** TEST(Queue_testPutWrap) {
 2662              		.loc 3 119 0
 2663              		.cfi_startproc
 2664 0000 55       		pushq	%rbp
 2665              		.cfi_def_cfa_offset 16
 2666              		.cfi_offset 6, -16
 2667 0001 4889E5   		movq	%rsp, %rbp
 2668              		.cfi_def_cfa_register 6
 2669 0004 4883EC10 		subq	$16, %rsp
 2670 0008 48897DF8 		movq	%rdi, -8(%rbp)
 2671              	.LBB6:
 2672              		.loc 3 119 0
 2673 000c E8000000 		call	_ZN13UnitTestSuite12GetSuiteNameEv
 2673      00
 2674 0011 4889C2   		movq	%rax, %rdx
 2675 0014 488B45F8 		movq	-8(%rbp), %rax
 2676 0018 41B87700 		movl	$119, %r8d
 2676      0000
 2677 001e B9000000 		movl	$.LC1, %ecx
 2677      00
 2678 0023 BE000000 		movl	$.LC21, %esi
 2678      00
 2679 0028 4889C7   		movq	%rax, %rdi
 2680 002b E8000000 		call	_ZN8UnitTest4TestC2EPKcS2_S2_i
 2680      00
 2681 0030 BA000000 		movl	$_ZTV21TestQueue_testPutWrap+16, %edx
 2681      00
 2682 0035 488B45F8 		movq	-8(%rbp), %rax
 2683 0039 488910   		movq	%rdx, (%rax)
 2684              	.LBE6:
 2685 003c 90       		nop
 2686 003d C9       		leave
 2687              		.cfi_def_cfa 7, 8
 2688 003e C3       		ret
 2689              		.cfi_endproc
 2690              	.LFE1090:
 2692              		.weak	_ZN21TestQueue_testPutWrapC1Ev
 2693              		.set	_ZN21TestQueue_testPutWrapC1Ev,_ZN21TestQueue_testPutWrapC2Ev
 2694              		.globl	testQueue_testPutWrapInstance
 2695              		.bss
 2696 0079 00000000 		.align 32
 2696      000000
 2699              	testQueue_testPutWrapInstance:
 2700 0080 00000000 		.zero	56
 2700      00000000 
 2700      00000000 
 2700      00000000 
 2700      00000000 
 2701              		.globl	adderQueue_testPutWrap
 2704              	adderQueue_testPutWrap:
 2705 00b8 00       		.zero	1
 2706              		.section	.rodata
 2707 0465 000000   		.align 8
 2708              	.LC22:
 2709 0468 556E6861 		.string	"Unhandled exception in CHECK_EQUAL(4UL, *item)"
 2709      6E646C65 
 2709      64206578 
 2709      63657074 
 2709      696F6E20 
 2710 0497 00       		.align 8
 2711              	.LC23:
 2712 0498 556E6861 		.string	"Unhandled exception in CHECK_EQUAL(4UL, queue.numItems)"
 2712      6E646C65 
 2712      64206578 
 2712      63657074 
 2712      696F6E20 
 2713              		.align 8
 2714              	.LC24:
 2715 04d0 556E6861 		.string	"Unhandled exception in CHECK_EQUAL(8UL, deref(queue.itemArray[3]))"
 2715      6E646C65 
 2715      64206578 
 2715      63657074 
 2715      696F6E20 
 2716              		.text
 2717 1237 90       		.align 2
 2718              		.globl	_ZNK21TestQueue_testPutWrap7RunImplEv
 2720              	_ZNK21TestQueue_testPutWrap7RunImplEv:
 2721              	.LFB1092:
 2722              		.loc 3 119 0
 2723              		.cfi_startproc
 2724              		.cfi_personality 0x3,__gxx_personality_v0
 2725              		.cfi_lsda 0x3,.LLSDA1092
 2726 1238 55       		pushq	%rbp
 2727              		.cfi_def_cfa_offset 16
 2728              		.cfi_offset 6, -16
 2729 1239 4889E5   		movq	%rsp, %rbp
 2730              		.cfi_def_cfa_register 6
 2731 123c 53       		pushq	%rbx
 2732 123d 4881EC98 		subq	$152, %rsp
 2732      000000
 2733              		.cfi_offset 3, -24
 2734 1244 4889BD68 		movq	%rdi, -152(%rbp)
 2734      FFFFFF
 2735              		.loc 3 119 0
 2736 124b 64488B04 		movq	%fs:40, %rax
 2736      25280000 
 2736      00
 2737 1254 488945E8 		movq	%rax, -24(%rbp)
 2738 1258 31C0     		xorl	%eax, %eax
 120:testCore.cpp  **** 	struct UnboundedQueue queue;
 121:testCore.cpp  **** 	uint32 *item;
 122:testCore.cpp  **** 	m_count = 1;
 2739              		.loc 3 122 0
 2740 125a C7050000 		movl	$1, _ZL7m_count(%rip)
 2740      00000100 
 2740      0000
 123:testCore.cpp  **** 
 124:testCore.cpp  **** 	// Create queue
 125:testCore.cpp  **** 	USBStatus status = queueInit(&queue, 4, (CreateFunc)createInt, (DestroyFunc)destroyInt);
 2741              		.loc 3 125 0
 2742 1264 488D45B0 		leaq	-80(%rbp), %rax
 2743 1268 B9000000 		movl	$destroyInt, %ecx
 2743      00
 2744 126d BA000000 		movl	$createInt, %edx
 2744      00
 2745 1272 BE040000 		movl	$4, %esi
 2745      00
 2746 1277 4889C7   		movq	%rax, %rdi
 2747              	.LEHB132:
 2748 127a E8000000 		call	queueInit
 2748      00
 2749              	.LEHE132:
 2750 127f 898578FF 		movl	%eax, -136(%rbp)
 2750      FFFF
 2751              	.LEHB133:
 126:testCore.cpp  **** 	CHECK_EQUAL(USB_SUCCESS, status);
 2752              		.loc 3 126 0
 2753 1285 E8000000 		call	_ZN8UnitTest11CurrentTest7DetailsEv
 2753      00
 2754 128a 488B08   		movq	(%rax), %rcx
 2755 128d 488D4590 		leaq	-112(%rbp), %rax
 2756 1291 BA7E0000 		movl	$126, %edx
 2756      00
 2757 1296 4889CE   		movq	%rcx, %rsi
 2758 1299 4889C7   		movq	%rax, %rdi
 2759 129c E8000000 		call	_ZN8UnitTest11TestDetailsC1ERKS0_i
 2759      00
 2760              	.LEHE133:
 2761              		.loc 3 126 0 is_stmt 0 discriminator 2
 2762 12a1 C7458800 		movl	$0, -120(%rbp)
 2762      000000
 2763              	.LEHB134:
 2764 12a8 E8000000 		call	_ZN8UnitTest11CurrentTest7ResultsEv
 2764      00
 2765 12ad 488B00   		movq	(%rax), %rax
 2766 12b0 488D4D90 		leaq	-112(%rbp), %rcx
 2767 12b4 488D9578 		leaq	-136(%rbp), %rdx
 2767      FFFFFF
 2768 12bb 488D7588 		leaq	-120(%rbp), %rsi
 2769 12bf 4889C7   		movq	%rax, %rdi
 2770 12c2 E8000000 		call	_ZN8UnitTest10CheckEqualI9USBStatusS1_EEvRNS_11TestResultsERKT_RKT0_RKNS_11TestDetailsE
 2770      00
 2771              	.LEHE134:
 2772              	.L199:
 127:testCore.cpp  **** 
 128:testCore.cpp  **** 	// Put four items into the queue
 129:testCore.cpp  **** 	status = queuePut(&queue, (Item*)&item);
 2773              		.loc 3 129 0 is_stmt 1
 2774 12c7 488D5580 		leaq	-128(%rbp), %rdx
 2775 12cb 488D45B0 		leaq	-80(%rbp), %rax
 2776 12cf 4889D6   		movq	%rdx, %rsi
 2777 12d2 4889C7   		movq	%rax, %rdi
 2778              	.LEHB135:
 2779 12d5 E8000000 		call	queuePut
 2779      00
 2780              	.LEHE135:
 2781 12da 898578FF 		movl	%eax, -136(%rbp)
 2781      FFFF
 2782              	.LEHB136:
 130:testCore.cpp  **** 	CHECK_EQUAL(USB_SUCCESS, status);
 2783              		.loc 3 130 0
 2784 12e0 E8000000 		call	_ZN8UnitTest11CurrentTest7DetailsEv
 2784      00
 2785 12e5 488B08   		movq	(%rax), %rcx
 2786 12e8 488D4590 		leaq	-112(%rbp), %rax
 2787 12ec BA820000 		movl	$130, %edx
 2787      00
 2788 12f1 4889CE   		movq	%rcx, %rsi
 2789 12f4 4889C7   		movq	%rax, %rdi
 2790 12f7 E8000000 		call	_ZN8UnitTest11TestDetailsC1ERKS0_i
 2790      00
 2791              	.LEHE136:
 2792              		.loc 3 130 0 is_stmt 0 discriminator 2
 2793 12fc C7458800 		movl	$0, -120(%rbp)
 2793      000000
 2794              	.LEHB137:
 2795 1303 E8000000 		call	_ZN8UnitTest11CurrentTest7ResultsEv
 2795      00
 2796 1308 488B00   		movq	(%rax), %rax
 2797 130b 488D4D90 		leaq	-112(%rbp), %rcx
 2798 130f 488D9578 		leaq	-136(%rbp), %rdx
 2798      FFFFFF
 2799 1316 488D7588 		leaq	-120(%rbp), %rsi
 2800 131a 4889C7   		movq	%rax, %rdi
 2801 131d E8000000 		call	_ZN8UnitTest10CheckEqualI9USBStatusS1_EEvRNS_11TestResultsERKT_RKT0_RKNS_11TestDetailsE
 2801      00
 2802              	.LEHE137:
 2803              	.L203:
 2804              	.LEHB138:
 131:testCore.cpp  **** 	CHECK_EQUAL(1UL, *item);
 2805              		.loc 3 131 0 is_stmt 1
 2806 1322 E8000000 		call	_ZN8UnitTest11CurrentTest7DetailsEv
 2806      00
 2807 1327 488B08   		movq	(%rax), %rcx
 2808 132a 488D4590 		leaq	-112(%rbp), %rax
 2809 132e BA830000 		movl	$131, %edx
 2809      00
 2810 1333 4889CE   		movq	%rcx, %rsi
 2811 1336 4889C7   		movq	%rax, %rdi
 2812 1339 E8000000 		call	_ZN8UnitTest11TestDetailsC1ERKS0_i
 2812      00
 2813              	.LEHE138:
 2814              		.loc 3 131 0 is_stmt 0 discriminator 2
 2815 133e 488B5D80 		movq	-128(%rbp), %rbx
 2816 1342 48C74588 		movq	$1, -120(%rbp)
 2816      01000000 
 2817              	.LEHB139:
 2818 134a E8000000 		call	_ZN8UnitTest11CurrentTest7ResultsEv
 2818      00
 2819 134f 488B00   		movq	(%rax), %rax
 2820 1352 488D5590 		leaq	-112(%rbp), %rdx
 2821 1356 488D7588 		leaq	-120(%rbp), %rsi
 2822 135a 4889D1   		movq	%rdx, %rcx
 2823 135d 4889DA   		movq	%rbx, %rdx
 2824 1360 4889C7   		movq	%rax, %rdi
 2825 1363 E8000000 		call	_ZN8UnitTest10CheckEqualImjEEvRNS_11TestResultsERKT_RKT0_RKNS_11TestDetailsE
 2825      00
 2826              	.LEHE139:
 2827              	.L207:
 132:testCore.cpp  **** 	*item = 5;
 2828              		.loc 3 132 0 is_stmt 1
 2829 1368 488B4580 		movq	-128(%rbp), %rax
 2830 136c C7000500 		movl	$5, (%rax)
 2830      0000
 133:testCore.cpp  **** 	queueCommitPut(&queue);
 2831              		.loc 3 133 0
 2832 1372 488D45B0 		leaq	-80(%rbp), %rax
 2833 1376 4889C7   		movq	%rax, %rdi
 2834              	.LEHB140:
 2835 1379 E8000000 		call	queueCommitPut
 2835      00
 134:testCore.cpp  **** 	status = queuePut(&queue, (Item*)&item);
 2836              		.loc 3 134 0
 2837 137e 488D5580 		leaq	-128(%rbp), %rdx
 2838 1382 488D45B0 		leaq	-80(%rbp), %rax
 2839 1386 4889D6   		movq	%rdx, %rsi
 2840 1389 4889C7   		movq	%rax, %rdi
 2841 138c E8000000 		call	queuePut
 2841      00
 2842              	.LEHE140:
 2843 1391 898578FF 		movl	%eax, -136(%rbp)
 2843      FFFF
 2844              	.LEHB141:
 135:testCore.cpp  **** 	CHECK_EQUAL(USB_SUCCESS, status);
 2845              		.loc 3 135 0
 2846 1397 E8000000 		call	_ZN8UnitTest11CurrentTest7DetailsEv
 2846      00
 2847 139c 488B08   		movq	(%rax), %rcx
 2848 139f 488D4590 		leaq	-112(%rbp), %rax
 2849 13a3 BA870000 		movl	$135, %edx
 2849      00
 2850 13a8 4889CE   		movq	%rcx, %rsi
 2851 13ab 4889C7   		movq	%rax, %rdi
 2852 13ae E8000000 		call	_ZN8UnitTest11TestDetailsC1ERKS0_i
 2852      00
 2853              	.LEHE141:
 2854              		.loc 3 135 0 is_stmt 0 discriminator 2
 2855 13b3 C7458800 		movl	$0, -120(%rbp)
 2855      000000
 2856              	.LEHB142:
 2857 13ba E8000000 		call	_ZN8UnitTest11CurrentTest7ResultsEv
 2857      00
 2858 13bf 488B00   		movq	(%rax), %rax
 2859 13c2 488D4D90 		leaq	-112(%rbp), %rcx
 2860 13c6 488D9578 		leaq	-136(%rbp), %rdx
 2860      FFFFFF
 2861 13cd 488D7588 		leaq	-120(%rbp), %rsi
 2862 13d1 4889C7   		movq	%rax, %rdi
 2863 13d4 E8000000 		call	_ZN8UnitTest10CheckEqualI9USBStatusS1_EEvRNS_11TestResultsERKT_RKT0_RKNS_11TestDetailsE
 2863      00
 2864              	.LEHE142:
 2865              	.L211:
 2866              	.LEHB143:
 136:testCore.cpp  **** 	CHECK_EQUAL(2UL, *item);
 2867              		.loc 3 136 0 is_stmt 1
 2868 13d9 E8000000 		call	_ZN8UnitTest11CurrentTest7DetailsEv
 2868      00
 2869 13de 488B08   		movq	(%rax), %rcx
 2870 13e1 488D4590 		leaq	-112(%rbp), %rax
 2871 13e5 BA880000 		movl	$136, %edx
 2871      00
 2872 13ea 4889CE   		movq	%rcx, %rsi
 2873 13ed 4889C7   		movq	%rax, %rdi
 2874 13f0 E8000000 		call	_ZN8UnitTest11TestDetailsC1ERKS0_i
 2874      00
 2875              	.LEHE143:
 2876              		.loc 3 136 0 is_stmt 0 discriminator 2
 2877 13f5 488B5D80 		movq	-128(%rbp), %rbx
 2878 13f9 48C74588 		movq	$2, -120(%rbp)
 2878      02000000 
 2879              	.LEHB144:
 2880 1401 E8000000 		call	_ZN8UnitTest11CurrentTest7ResultsEv
 2880      00
 2881 1406 488B00   		movq	(%rax), %rax
 2882 1409 488D5590 		leaq	-112(%rbp), %rdx
 2883 140d 488D7588 		leaq	-120(%rbp), %rsi
 2884 1411 4889D1   		movq	%rdx, %rcx
 2885 1414 4889DA   		movq	%rbx, %rdx
 2886 1417 4889C7   		movq	%rax, %rdi
 2887 141a E8000000 		call	_ZN8UnitTest10CheckEqualImjEEvRNS_11TestResultsERKT_RKT0_RKNS_11TestDetailsE
 2887      00
 2888              	.LEHE144:
 2889              	.L215:
 137:testCore.cpp  **** 	*item = 6;
 2890              		.loc 3 137 0 is_stmt 1
 2891 141f 488B4580 		movq	-128(%rbp), %rax
 2892 1423 C7000600 		movl	$6, (%rax)
 2892      0000
 138:testCore.cpp  **** 	queueCommitPut(&queue);
 2893              		.loc 3 138 0
 2894 1429 488D45B0 		leaq	-80(%rbp), %rax
 2895 142d 4889C7   		movq	%rax, %rdi
 2896              	.LEHB145:
 2897 1430 E8000000 		call	queueCommitPut
 2897      00
 139:testCore.cpp  **** 	status = queuePut(&queue, (Item*)&item);
 2898              		.loc 3 139 0
 2899 1435 488D5580 		leaq	-128(%rbp), %rdx
 2900 1439 488D45B0 		leaq	-80(%rbp), %rax
 2901 143d 4889D6   		movq	%rdx, %rsi
 2902 1440 4889C7   		movq	%rax, %rdi
 2903 1443 E8000000 		call	queuePut
 2903      00
 2904              	.LEHE145:
 2905 1448 898578FF 		movl	%eax, -136(%rbp)
 2905      FFFF
 2906              	.LEHB146:
 140:testCore.cpp  **** 	CHECK_EQUAL(USB_SUCCESS, status);
 2907              		.loc 3 140 0
 2908 144e E8000000 		call	_ZN8UnitTest11CurrentTest7DetailsEv
 2908      00
 2909 1453 488B08   		movq	(%rax), %rcx
 2910 1456 488D4590 		leaq	-112(%rbp), %rax
 2911 145a BA8C0000 		movl	$140, %edx
 2911      00
 2912 145f 4889CE   		movq	%rcx, %rsi
 2913 1462 4889C7   		movq	%rax, %rdi
 2914 1465 E8000000 		call	_ZN8UnitTest11TestDetailsC1ERKS0_i
 2914      00
 2915              	.LEHE146:
 2916              		.loc 3 140 0 is_stmt 0 discriminator 2
 2917 146a C7458800 		movl	$0, -120(%rbp)
 2917      000000
 2918              	.LEHB147:
 2919 1471 E8000000 		call	_ZN8UnitTest11CurrentTest7ResultsEv
 2919      00
 2920 1476 488B00   		movq	(%rax), %rax
 2921 1479 488D4D90 		leaq	-112(%rbp), %rcx
 2922 147d 488D9578 		leaq	-136(%rbp), %rdx
 2922      FFFFFF
 2923 1484 488D7588 		leaq	-120(%rbp), %rsi
 2924 1488 4889C7   		movq	%rax, %rdi
 2925 148b E8000000 		call	_ZN8UnitTest10CheckEqualI9USBStatusS1_EEvRNS_11TestResultsERKT_RKT0_RKNS_11TestDetailsE
 2925      00
 2926              	.LEHE147:
 2927              	.L219:
 2928              	.LEHB148:
 141:testCore.cpp  **** 	CHECK_EQUAL(3UL, *item);
 2929              		.loc 3 141 0 is_stmt 1
 2930 1490 E8000000 		call	_ZN8UnitTest11CurrentTest7DetailsEv
 2930      00
 2931 1495 488B08   		movq	(%rax), %rcx
 2932 1498 488D4590 		leaq	-112(%rbp), %rax
 2933 149c BA8D0000 		movl	$141, %edx
 2933      00
 2934 14a1 4889CE   		movq	%rcx, %rsi
 2935 14a4 4889C7   		movq	%rax, %rdi
 2936 14a7 E8000000 		call	_ZN8UnitTest11TestDetailsC1ERKS0_i
 2936      00
 2937              	.LEHE148:
 2938              		.loc 3 141 0 is_stmt 0 discriminator 2
 2939 14ac 488B5D80 		movq	-128(%rbp), %rbx
 2940 14b0 48C74588 		movq	$3, -120(%rbp)
 2940      03000000 
 2941              	.LEHB149:
 2942 14b8 E8000000 		call	_ZN8UnitTest11CurrentTest7ResultsEv
 2942      00
 2943 14bd 488B00   		movq	(%rax), %rax
 2944 14c0 488D5590 		leaq	-112(%rbp), %rdx
 2945 14c4 488D7588 		leaq	-120(%rbp), %rsi
 2946 14c8 4889D1   		movq	%rdx, %rcx
 2947 14cb 4889DA   		movq	%rbx, %rdx
 2948 14ce 4889C7   		movq	%rax, %rdi
 2949 14d1 E8000000 		call	_ZN8UnitTest10CheckEqualImjEEvRNS_11TestResultsERKT_RKT0_RKNS_11TestDetailsE
 2949      00
 2950              	.LEHE149:
 2951              	.L223:
 142:testCore.cpp  **** 	*item = 7;
 2952              		.loc 3 142 0 is_stmt 1
 2953 14d6 488B4580 		movq	-128(%rbp), %rax
 2954 14da C7000700 		movl	$7, (%rax)
 2954      0000
 143:testCore.cpp  **** 	queueCommitPut(&queue);
 2955              		.loc 3 143 0
 2956 14e0 488D45B0 		leaq	-80(%rbp), %rax
 2957 14e4 4889C7   		movq	%rax, %rdi
 2958              	.LEHB150:
 2959 14e7 E8000000 		call	queueCommitPut
 2959      00
 144:testCore.cpp  **** 	status = queuePut(&queue, (Item*)&item);
 2960              		.loc 3 144 0
 2961 14ec 488D5580 		leaq	-128(%rbp), %rdx
 2962 14f0 488D45B0 		leaq	-80(%rbp), %rax
 2963 14f4 4889D6   		movq	%rdx, %rsi
 2964 14f7 4889C7   		movq	%rax, %rdi
 2965 14fa E8000000 		call	queuePut
 2965      00
 2966              	.LEHE150:
 2967 14ff 898578FF 		movl	%eax, -136(%rbp)
 2967      FFFF
 2968              	.LEHB151:
 145:testCore.cpp  **** 	CHECK_EQUAL(USB_SUCCESS, status);
 2969              		.loc 3 145 0
 2970 1505 E8000000 		call	_ZN8UnitTest11CurrentTest7DetailsEv
 2970      00
 2971 150a 488B08   		movq	(%rax), %rcx
 2972 150d 488D4590 		leaq	-112(%rbp), %rax
 2973 1511 BA910000 		movl	$145, %edx
 2973      00
 2974 1516 4889CE   		movq	%rcx, %rsi
 2975 1519 4889C7   		movq	%rax, %rdi
 2976 151c E8000000 		call	_ZN8UnitTest11TestDetailsC1ERKS0_i
 2976      00
 2977              	.LEHE151:
 2978              		.loc 3 145 0 is_stmt 0 discriminator 2
 2979 1521 C7458800 		movl	$0, -120(%rbp)
 2979      000000
 2980              	.LEHB152:
 2981 1528 E8000000 		call	_ZN8UnitTest11CurrentTest7ResultsEv
 2981      00
 2982 152d 488B00   		movq	(%rax), %rax
 2983 1530 488D4D90 		leaq	-112(%rbp), %rcx
 2984 1534 488D9578 		leaq	-136(%rbp), %rdx
 2984      FFFFFF
 2985 153b 488D7588 		leaq	-120(%rbp), %rsi
 2986 153f 4889C7   		movq	%rax, %rdi
 2987 1542 E8000000 		call	_ZN8UnitTest10CheckEqualI9USBStatusS1_EEvRNS_11TestResultsERKT_RKT0_RKNS_11TestDetailsE
 2987      00
 2988              	.LEHE152:
 2989              	.L227:
 2990              	.LEHB153:
 146:testCore.cpp  **** 	CHECK_EQUAL(4UL, *item);
 2991              		.loc 3 146 0 is_stmt 1
 2992 1547 E8000000 		call	_ZN8UnitTest11CurrentTest7DetailsEv
 2992      00
 2993 154c 488B08   		movq	(%rax), %rcx
 2994 154f 488D4590 		leaq	-112(%rbp), %rax
 2995 1553 BA920000 		movl	$146, %edx
 2995      00
 2996 1558 4889CE   		movq	%rcx, %rsi
 2997 155b 4889C7   		movq	%rax, %rdi
 2998 155e E8000000 		call	_ZN8UnitTest11TestDetailsC1ERKS0_i
 2998      00
 2999              	.LEHE153:
 3000              		.loc 3 146 0 is_stmt 0 discriminator 2
 3001 1563 488B5D80 		movq	-128(%rbp), %rbx
 3002 1567 48C74588 		movq	$4, -120(%rbp)
 3002      04000000 
 3003              	.LEHB154:
 3004 156f E8000000 		call	_ZN8UnitTest11CurrentTest7ResultsEv
 3004      00
 3005 1574 488B00   		movq	(%rax), %rax
 3006 1577 488D5590 		leaq	-112(%rbp), %rdx
 3007 157b 488D7588 		leaq	-120(%rbp), %rsi
 3008 157f 4889D1   		movq	%rdx, %rcx
 3009 1582 4889DA   		movq	%rbx, %rdx
 3010 1585 4889C7   		movq	%rax, %rdi
 3011 1588 E8000000 		call	_ZN8UnitTest10CheckEqualImjEEvRNS_11TestResultsERKT_RKT0_RKNS_11TestDetailsE
 3011      00
 3012              	.LEHE154:
 3013              	.L231:
 147:testCore.cpp  **** 	*item = 8;
 3014              		.loc 3 147 0 is_stmt 1
 3015 158d 488B4580 		movq	-128(%rbp), %rax
 3016 1591 C7000800 		movl	$8, (%rax)
 3016      0000
 148:testCore.cpp  **** 	queueCommitPut(&queue);
 3017              		.loc 3 148 0
 3018 1597 488D45B0 		leaq	-80(%rbp), %rax
 3019 159b 4889C7   		movq	%rax, %rdi
 3020              	.LEHB155:
 3021 159e E8000000 		call	queueCommitPut
 3021      00
 3022              	.LEHE155:
 3023              	.LEHB156:
 149:testCore.cpp  **** 
 150:testCore.cpp  **** 	// Verify
 151:testCore.cpp  **** 	CHECK_EQUAL(4UL, queue.capacity);
 3024              		.loc 3 151 0
 3025 15a3 E8000000 		call	_ZN8UnitTest11CurrentTest7DetailsEv
 3025      00
 3026 15a8 488B08   		movq	(%rax), %rcx
 3027 15ab 488D4590 		leaq	-112(%rbp), %rax
 3028 15af BA970000 		movl	$151, %edx
 3028      00
 3029 15b4 4889CE   		movq	%rcx, %rsi
 3030 15b7 4889C7   		movq	%rax, %rdi
 3031 15ba E8000000 		call	_ZN8UnitTest11TestDetailsC1ERKS0_i
 3031      00
 3032              	.LEHE156:
 3033              		.loc 3 151 0 is_stmt 0 discriminator 2
 3034 15bf 48C74588 		movq	$4, -120(%rbp)
 3034      04000000 
 3035              	.LEHB157:
 3036 15c7 E8000000 		call	_ZN8UnitTest11CurrentTest7ResultsEv
 3036      00
 3037 15cc 488B00   		movq	(%rax), %rax
 3038 15cf 488D5590 		leaq	-112(%rbp), %rdx
 3039 15d3 488D4DB0 		leaq	-80(%rbp), %rcx
 3040 15d7 488D7908 		leaq	8(%rcx), %rdi
 3041 15db 488D7588 		leaq	-120(%rbp), %rsi
 3042 15df 4889D1   		movq	%rdx, %rcx
 3043 15e2 4889FA   		movq	%rdi, %rdx
 3044 15e5 4889C7   		movq	%rax, %rdi
 3045 15e8 E8000000 		call	_ZN8UnitTest10CheckEqualImmEEvRNS_11TestResultsERKT_RKT0_RKNS_11TestDetailsE
 3045      00
 3046              	.LEHE157:
 3047              	.L235:
 3048              	.LEHB158:
 152:testCore.cpp  **** 	CHECK_EQUAL(0UL, queue.putIndex);
 3049              		.loc 3 152 0 is_stmt 1
 3050 15ed E8000000 		call	_ZN8UnitTest11CurrentTest7DetailsEv
 3050      00
 3051 15f2 488B08   		movq	(%rax), %rcx
 3052 15f5 488D4590 		leaq	-112(%rbp), %rax
 3053 15f9 BA980000 		movl	$152, %edx
 3053      00
 3054 15fe 4889CE   		movq	%rcx, %rsi
 3055 1601 4889C7   		movq	%rax, %rdi
 3056 1604 E8000000 		call	_ZN8UnitTest11TestDetailsC1ERKS0_i
 3056      00
 3057              	.LEHE158:
 3058              		.loc 3 152 0 is_stmt 0 discriminator 2
 3059 1609 48C74588 		movq	$0, -120(%rbp)
 3059      00000000 
 3060              	.LEHB159:
 3061 1611 E8000000 		call	_ZN8UnitTest11CurrentTest7ResultsEv
 3061      00
 3062 1616 488B00   		movq	(%rax), %rax
 3063 1619 488D5590 		leaq	-112(%rbp), %rdx
 3064 161d 488D4DB0 		leaq	-80(%rbp), %rcx
 3065 1621 488D7910 		leaq	16(%rcx), %rdi
 3066 1625 488D7588 		leaq	-120(%rbp), %rsi
 3067 1629 4889D1   		movq	%rdx, %rcx
 3068 162c 4889FA   		movq	%rdi, %rdx
 3069 162f 4889C7   		movq	%rax, %rdi
 3070 1632 E8000000 		call	_ZN8UnitTest10CheckEqualImmEEvRNS_11TestResultsERKT_RKT0_RKNS_11TestDetailsE
 3070      00
 3071              	.LEHE159:
 3072              	.L239:
 3073              	.LEHB160:
 153:testCore.cpp  **** 	CHECK_EQUAL(0UL, queue.takeIndex);
 3074              		.loc 3 153 0 is_stmt 1
 3075 1637 E8000000 		call	_ZN8UnitTest11CurrentTest7DetailsEv
 3075      00
 3076 163c 488B08   		movq	(%rax), %rcx
 3077 163f 488D4590 		leaq	-112(%rbp), %rax
 3078 1643 BA990000 		movl	$153, %edx
 3078      00
 3079 1648 4889CE   		movq	%rcx, %rsi
 3080 164b 4889C7   		movq	%rax, %rdi
 3081 164e E8000000 		call	_ZN8UnitTest11TestDetailsC1ERKS0_i
 3081      00
 3082              	.LEHE160:
 3083              		.loc 3 153 0 is_stmt 0 discriminator 2
 3084 1653 48C74588 		movq	$0, -120(%rbp)
 3084      00000000 
 3085              	.LEHB161:
 3086 165b E8000000 		call	_ZN8UnitTest11CurrentTest7ResultsEv
 3086      00
 3087 1660 488B00   		movq	(%rax), %rax
 3088 1663 488D5590 		leaq	-112(%rbp), %rdx
 3089 1667 488D4DB0 		leaq	-80(%rbp), %rcx
 3090 166b 488D7918 		leaq	24(%rcx), %rdi
 3091 166f 488D7588 		leaq	-120(%rbp), %rsi
 3092 1673 4889D1   		movq	%rdx, %rcx
 3093 1676 4889FA   		movq	%rdi, %rdx
 3094 1679 4889C7   		movq	%rax, %rdi
 3095 167c E8000000 		call	_ZN8UnitTest10CheckEqualImmEEvRNS_11TestResultsERKT_RKT0_RKNS_11TestDetailsE
 3095      00
 3096              	.LEHE161:
 3097              	.L243:
 3098              	.LEHB162:
 154:testCore.cpp  **** 	CHECK_EQUAL(4UL, queue.numItems);
 3099              		.loc 3 154 0 is_stmt 1
 3100 1681 E8000000 		call	_ZN8UnitTest11CurrentTest7DetailsEv
 3100      00
 3101 1686 488B08   		movq	(%rax), %rcx
 3102 1689 488D4590 		leaq	-112(%rbp), %rax
 3103 168d BA9A0000 		movl	$154, %edx
 3103      00
 3104 1692 4889CE   		movq	%rcx, %rsi
 3105 1695 4889C7   		movq	%rax, %rdi
 3106 1698 E8000000 		call	_ZN8UnitTest11TestDetailsC1ERKS0_i
 3106      00
 3107              	.LEHE162:
 3108              		.loc 3 154 0 is_stmt 0 discriminator 2
 3109 169d 48C74588 		movq	$4, -120(%rbp)
 3109      04000000 
 3110              	.LEHB163:
 3111 16a5 E8000000 		call	_ZN8UnitTest11CurrentTest7ResultsEv
 3111      00
 3112 16aa 488B00   		movq	(%rax), %rax
 3113 16ad 488D5590 		leaq	-112(%rbp), %rdx
 3114 16b1 488D4DB0 		leaq	-80(%rbp), %rcx
 3115 16b5 488D7920 		leaq	32(%rcx), %rdi
 3116 16b9 488D7588 		leaq	-120(%rbp), %rsi
 3117 16bd 4889D1   		movq	%rdx, %rcx
 3118 16c0 4889FA   		movq	%rdi, %rdx
 3119 16c3 4889C7   		movq	%rax, %rdi
 3120 16c6 E8000000 		call	_ZN8UnitTest10CheckEqualImmEEvRNS_11TestResultsERKT_RKT0_RKNS_11TestDetailsE
 3120      00
 3121              	.LEHE163:
 3122              	.L247:
 3123              	.LEHB164:
 155:testCore.cpp  **** 
 156:testCore.cpp  **** 	// Verify array
 157:testCore.cpp  **** 	CHECK_EQUAL(5UL, deref(queue.itemArray[0]));
 3124              		.loc 3 157 0 is_stmt 1
 3125 16cb E8000000 		call	_ZN8UnitTest11CurrentTest7DetailsEv
 3125      00
 3126 16d0 488B08   		movq	(%rax), %rcx
 3127 16d3 488D4590 		leaq	-112(%rbp), %rax
 3128 16d7 BA9D0000 		movl	$157, %edx
 3128      00
 3129 16dc 4889CE   		movq	%rcx, %rsi
 3130 16df 4889C7   		movq	%rax, %rdi
 3131 16e2 E8000000 		call	_ZN8UnitTest11TestDetailsC1ERKS0_i
 3131      00
 3132              	.LEHE164:
 3133              		.loc 3 157 0 is_stmt 0 discriminator 2
 3134 16e7 488B45B0 		movq	-80(%rbp), %rax
 3135 16eb 488B00   		movq	(%rax), %rax
 3136 16ee 4889C7   		movq	%rax, %rdi
 3137 16f1 E894E9FF 		call	_ZL5derefPKv
 3137      FF
 3138 16f6 89857CFF 		movl	%eax, -132(%rbp)
 3138      FFFF
 3139 16fc 48C74588 		movq	$5, -120(%rbp)
 3139      05000000 
 3140              	.LEHB165:
 3141 1704 E8000000 		call	_ZN8UnitTest11CurrentTest7ResultsEv
 3141      00
 3142 1709 488B00   		movq	(%rax), %rax
 3143 170c 488D4D90 		leaq	-112(%rbp), %rcx
 3144 1710 488D957C 		leaq	-132(%rbp), %rdx
 3144      FFFFFF
 3145 1717 488D7588 		leaq	-120(%rbp), %rsi
 3146 171b 4889C7   		movq	%rax, %rdi
 3147 171e E8000000 		call	_ZN8UnitTest10CheckEqualImjEEvRNS_11TestResultsERKT_RKT0_RKNS_11TestDetailsE
 3147      00
 3148              	.LEHE165:
 3149              	.L251:
 3150              	.LEHB166:
 158:testCore.cpp  **** 	CHECK_EQUAL(6UL, deref(queue.itemArray[1]));
 3151              		.loc 3 158 0 is_stmt 1
 3152 1723 E8000000 		call	_ZN8UnitTest11CurrentTest7DetailsEv
 3152      00
 3153 1728 488B08   		movq	(%rax), %rcx
 3154 172b 488D4590 		leaq	-112(%rbp), %rax
 3155 172f BA9E0000 		movl	$158, %edx
 3155      00
 3156 1734 4889CE   		movq	%rcx, %rsi
 3157 1737 4889C7   		movq	%rax, %rdi
 3158 173a E8000000 		call	_ZN8UnitTest11TestDetailsC1ERKS0_i
 3158      00
 3159              	.LEHE166:
 3160              		.loc 3 158 0 is_stmt 0 discriminator 2
 3161 173f 488B45B0 		movq	-80(%rbp), %rax
 3162 1743 4883C008 		addq	$8, %rax
 3163 1747 488B00   		movq	(%rax), %rax
 3164 174a 4889C7   		movq	%rax, %rdi
 3165 174d E838E9FF 		call	_ZL5derefPKv
 3165      FF
 3166 1752 89857CFF 		movl	%eax, -132(%rbp)
 3166      FFFF
 3167 1758 48C74588 		movq	$6, -120(%rbp)
 3167      06000000 
 3168              	.LEHB167:
 3169 1760 E8000000 		call	_ZN8UnitTest11CurrentTest7ResultsEv
 3169      00
 3170 1765 488B00   		movq	(%rax), %rax
 3171 1768 488D4D90 		leaq	-112(%rbp), %rcx
 3172 176c 488D957C 		leaq	-132(%rbp), %rdx
 3172      FFFFFF
 3173 1773 488D7588 		leaq	-120(%rbp), %rsi
 3174 1777 4889C7   		movq	%rax, %rdi
 3175 177a E8000000 		call	_ZN8UnitTest10CheckEqualImjEEvRNS_11TestResultsERKT_RKT0_RKNS_11TestDetailsE
 3175      00
 3176              	.LEHE167:
 3177              	.L255:
 3178              	.LEHB168:
 159:testCore.cpp  **** 	CHECK_EQUAL(7UL, deref(queue.itemArray[2]));
 3179              		.loc 3 159 0 is_stmt 1
 3180 177f E8000000 		call	_ZN8UnitTest11CurrentTest7DetailsEv
 3180      00
 3181 1784 488B08   		movq	(%rax), %rcx
 3182 1787 488D4590 		leaq	-112(%rbp), %rax
 3183 178b BA9F0000 		movl	$159, %edx
 3183      00
 3184 1790 4889CE   		movq	%rcx, %rsi
 3185 1793 4889C7   		movq	%rax, %rdi
 3186 1796 E8000000 		call	_ZN8UnitTest11TestDetailsC1ERKS0_i
 3186      00
 3187              	.LEHE168:
 3188              		.loc 3 159 0 is_stmt 0 discriminator 2
 3189 179b 488B45B0 		movq	-80(%rbp), %rax
 3190 179f 4883C010 		addq	$16, %rax
 3191 17a3 488B00   		movq	(%rax), %rax
 3192 17a6 4889C7   		movq	%rax, %rdi
 3193 17a9 E8DCE8FF 		call	_ZL5derefPKv
 3193      FF
 3194 17ae 89857CFF 		movl	%eax, -132(%rbp)
 3194      FFFF
 3195 17b4 48C74588 		movq	$7, -120(%rbp)
 3195      07000000 
 3196              	.LEHB169:
 3197 17bc E8000000 		call	_ZN8UnitTest11CurrentTest7ResultsEv
 3197      00
 3198 17c1 488B00   		movq	(%rax), %rax
 3199 17c4 488D4D90 		leaq	-112(%rbp), %rcx
 3200 17c8 488D957C 		leaq	-132(%rbp), %rdx
 3200      FFFFFF
 3201 17cf 488D7588 		leaq	-120(%rbp), %rsi
 3202 17d3 4889C7   		movq	%rax, %rdi
 3203 17d6 E8000000 		call	_ZN8UnitTest10CheckEqualImjEEvRNS_11TestResultsERKT_RKT0_RKNS_11TestDetailsE
 3203      00
 3204              	.LEHE169:
 3205              	.L259:
 3206              	.LEHB170:
 160:testCore.cpp  **** 	CHECK_EQUAL(8UL, deref(queue.itemArray[3]));
 3207              		.loc 3 160 0 is_stmt 1
 3208 17db E8000000 		call	_ZN8UnitTest11CurrentTest7DetailsEv
 3208      00
 3209 17e0 488B08   		movq	(%rax), %rcx
 3210 17e3 488D4590 		leaq	-112(%rbp), %rax
 3211 17e7 BAA00000 		movl	$160, %edx
 3211      00
 3212 17ec 4889CE   		movq	%rcx, %rsi
 3213 17ef 4889C7   		movq	%rax, %rdi
 3214 17f2 E8000000 		call	_ZN8UnitTest11TestDetailsC1ERKS0_i
 3214      00
 3215              	.LEHE170:
 3216              		.loc 3 160 0 is_stmt 0 discriminator 2
 3217 17f7 488B45B0 		movq	-80(%rbp), %rax
 3218 17fb 4883C018 		addq	$24, %rax
 3219 17ff 488B00   		movq	(%rax), %rax
 3220 1802 4889C7   		movq	%rax, %rdi
 3221 1805 E880E8FF 		call	_ZL5derefPKv
 3221      FF
 3222 180a 89857CFF 		movl	%eax, -132(%rbp)
 3222      FFFF
 3223 1810 48C74588 		movq	$8, -120(%rbp)
 3223      08000000 
 3224              	.LEHB171:
 3225 1818 E8000000 		call	_ZN8UnitTest11CurrentTest7ResultsEv
 3225      00
 3226 181d 488B00   		movq	(%rax), %rax
 3227 1820 488D4D90 		leaq	-112(%rbp), %rcx
 3228 1824 488D957C 		leaq	-132(%rbp), %rdx
 3228      FFFFFF
 3229 182b 488D7588 		leaq	-120(%rbp), %rsi
 3230 182f 4889C7   		movq	%rax, %rdi
 3231 1832 E8000000 		call	_ZN8UnitTest10CheckEqualImjEEvRNS_11TestResultsERKT_RKT0_RKNS_11TestDetailsE
 3231      00
 3232              	.LEHE171:
 3233              	.L263:
 161:testCore.cpp  **** 
 162:testCore.cpp  **** 	// Clean up
 163:testCore.cpp  **** 	queueDestroy(&queue);
 3234              		.loc 3 163 0 is_stmt 1
 3235 1837 488D45B0 		leaq	-80(%rbp), %rax
 3236 183b 4889C7   		movq	%rax, %rdi
 3237              	.LEHB172:
 3238 183e E8000000 		call	queueDestroy
 3238      00
 3239              	.LEHE172:
 164:testCore.cpp  **** }
 3240              		.loc 3 164 0
 3241 1843 90       		nop
 3242 1844 488B45E8 		movq	-24(%rbp), %rax
 3243 1848 64483304 		xorq	%fs:40, %rax
 3243      25280000 
 3243      00
 3244 1851 0F845906 		je	.L265
 3244      0000
 3245 1857 E94F0600 		jmp	.L317
 3245      00
 3246              	.L267:
 3247 185c EB00     		jmp	.L198
 3248              	.L266:
 3249              	.L198:
 126:testCore.cpp  **** 
 3250              		.loc 3 126 0
 3251 185e 4889C7   		movq	%rax, %rdi
 3252 1861 E8000000 		call	__cxa_begin_catch
 3252      00
 3253              	.LEHB173:
 3254 1866 E8000000 		call	_ZN8UnitTest11CurrentTest7DetailsEv
 3254      00
 3255 186b 488B08   		movq	(%rax), %rcx
 3256 186e 488D4590 		leaq	-112(%rbp), %rax
 3257 1872 BA7E0000 		movl	$126, %edx
 3257      00
 3258 1877 4889CE   		movq	%rcx, %rsi
 3259 187a 4889C7   		movq	%rax, %rdi
 3260 187d E8000000 		call	_ZN8UnitTest11TestDetailsC1ERKS0_i
 3260      00
 126:testCore.cpp  **** 
 3261              		.loc 3 126 0 is_stmt 0 discriminator 10
 3262 1882 E8000000 		call	_ZN8UnitTest11CurrentTest7ResultsEv
 3262      00
 3263 1887 488B00   		movq	(%rax), %rax
 3264 188a 488D4D90 		leaq	-112(%rbp), %rcx
 3265 188e BA000000 		movl	$.LC3, %edx
 3265      00
 3266 1893 4889CE   		movq	%rcx, %rsi
 3267 1896 4889C7   		movq	%rax, %rdi
 3268 1899 E8000000 		call	_ZN8UnitTest11TestResults13OnTestFailureERKNS_11TestDetailsEPKc
 3268      00
 3269              	.LEHE173:
 3270              	.LEHB174:
 126:testCore.cpp  **** 
 3271              		.loc 3 126 0 discriminator 14
 3272 189e E8000000 		call	__cxa_end_catch
 3272      00
 3273              	.LEHE174:
 3274 18a3 E91FFAFF 		jmp	.L199
 3274      FF
 3275              	.L268:
 3276 18a8 4889C3   		movq	%rax, %rbx
 126:testCore.cpp  **** 
 3277              		.loc 3 126 0
 3278 18ab E8000000 		call	__cxa_end_catch
 3278      00
 3279 18b0 4889D8   		movq	%rbx, %rax
 3280 18b3 4889C7   		movq	%rax, %rdi
 3281              	.LEHB175:
 3282 18b6 E8000000 		call	_Unwind_Resume
 3282      00
 3283              	.LEHE175:
 3284              	.L270:
 3285 18bb EB00     		jmp	.L202
 3286              	.L269:
 3287              	.L202:
 130:testCore.cpp  **** 	CHECK_EQUAL(1UL, *item);
 3288              		.loc 3 130 0 is_stmt 1
 3289 18bd 4889C7   		movq	%rax, %rdi
 3290 18c0 E8000000 		call	__cxa_begin_catch
 3290      00
 3291              	.LEHB176:
 3292 18c5 E8000000 		call	_ZN8UnitTest11CurrentTest7DetailsEv
 3292      00
 3293 18ca 488B08   		movq	(%rax), %rcx
 3294 18cd 488D4590 		leaq	-112(%rbp), %rax
 3295 18d1 BA820000 		movl	$130, %edx
 3295      00
 3296 18d6 4889CE   		movq	%rcx, %rsi
 3297 18d9 4889C7   		movq	%rax, %rdi
 3298 18dc E8000000 		call	_ZN8UnitTest11TestDetailsC1ERKS0_i
 3298      00
 130:testCore.cpp  **** 	CHECK_EQUAL(1UL, *item);
 3299              		.loc 3 130 0 is_stmt 0 discriminator 10
 3300 18e1 E8000000 		call	_ZN8UnitTest11CurrentTest7ResultsEv
 3300      00
 3301 18e6 488B00   		movq	(%rax), %rax
 3302 18e9 488D4D90 		leaq	-112(%rbp), %rcx
 3303 18ed BA000000 		movl	$.LC3, %edx
 3303      00
 3304 18f2 4889CE   		movq	%rcx, %rsi
 3305 18f5 4889C7   		movq	%rax, %rdi
 3306 18f8 E8000000 		call	_ZN8UnitTest11TestResults13OnTestFailureERKNS_11TestDetailsEPKc
 3306      00
 3307              	.LEHE176:
 3308              	.LEHB177:
 130:testCore.cpp  **** 	CHECK_EQUAL(1UL, *item);
 3309              		.loc 3 130 0 discriminator 14
 3310 18fd E8000000 		call	__cxa_end_catch
 3310      00
 3311              	.LEHE177:
 3312 1902 E91BFAFF 		jmp	.L203
 3312      FF
 3313              	.L271:
 3314 1907 4889C3   		movq	%rax, %rbx
 130:testCore.cpp  **** 	CHECK_EQUAL(1UL, *item);
 3315              		.loc 3 130 0
 3316 190a E8000000 		call	__cxa_end_catch
 3316      00
 3317 190f 4889D8   		movq	%rbx, %rax
 3318 1912 4889C7   		movq	%rax, %rdi
 3319              	.LEHB178:
 3320 1915 E8000000 		call	_Unwind_Resume
 3320      00
 3321              	.LEHE178:
 3322              	.L273:
 3323 191a EB00     		jmp	.L206
 3324              	.L272:
 3325              	.L206:
 131:testCore.cpp  **** 	*item = 5;
 3326              		.loc 3 131 0 is_stmt 1
 3327 191c 4889C7   		movq	%rax, %rdi
 3328 191f E8000000 		call	__cxa_begin_catch
 3328      00
 3329              	.LEHB179:
 3330 1924 E8000000 		call	_ZN8UnitTest11CurrentTest7DetailsEv
 3330      00
 3331 1929 488B08   		movq	(%rax), %rcx
 3332 192c 488D4590 		leaq	-112(%rbp), %rax
 3333 1930 BA830000 		movl	$131, %edx
 3333      00
 3334 1935 4889CE   		movq	%rcx, %rsi
 3335 1938 4889C7   		movq	%rax, %rdi
 3336 193b E8000000 		call	_ZN8UnitTest11TestDetailsC1ERKS0_i
 3336      00
 131:testCore.cpp  **** 	*item = 5;
 3337              		.loc 3 131 0 is_stmt 0 discriminator 10
 3338 1940 E8000000 		call	_ZN8UnitTest11CurrentTest7ResultsEv
 3338      00
 3339 1945 488B00   		movq	(%rax), %rax
 3340 1948 488D4D90 		leaq	-112(%rbp), %rcx
 3341 194c BA000000 		movl	$.LC13, %edx
 3341      00
 3342 1951 4889CE   		movq	%rcx, %rsi
 3343 1954 4889C7   		movq	%rax, %rdi
 3344 1957 E8000000 		call	_ZN8UnitTest11TestResults13OnTestFailureERKNS_11TestDetailsEPKc
 3344      00
 3345              	.LEHE179:
 3346              	.LEHB180:
 131:testCore.cpp  **** 	*item = 5;
 3347              		.loc 3 131 0 discriminator 14
 3348 195c E8000000 		call	__cxa_end_catch
 3348      00
 3349              	.LEHE180:
 3350 1961 E902FAFF 		jmp	.L207
 3350      FF
 3351              	.L274:
 3352 1966 4889C3   		movq	%rax, %rbx
 131:testCore.cpp  **** 	*item = 5;
 3353              		.loc 3 131 0
 3354 1969 E8000000 		call	__cxa_end_catch
 3354      00
 3355 196e 4889D8   		movq	%rbx, %rax
 3356 1971 4889C7   		movq	%rax, %rdi
 3357              	.LEHB181:
 3358 1974 E8000000 		call	_Unwind_Resume
 3358      00
 3359              	.LEHE181:
 3360              	.L276:
 3361 1979 EB00     		jmp	.L210
 3362              	.L275:
 3363              	.L210:
 135:testCore.cpp  **** 	CHECK_EQUAL(2UL, *item);
 3364              		.loc 3 135 0 is_stmt 1
 3365 197b 4889C7   		movq	%rax, %rdi
 3366 197e E8000000 		call	__cxa_begin_catch
 3366      00
 3367              	.LEHB182:
 3368 1983 E8000000 		call	_ZN8UnitTest11CurrentTest7DetailsEv
 3368      00
 3369 1988 488B08   		movq	(%rax), %rcx
 3370 198b 488D4590 		leaq	-112(%rbp), %rax
 3371 198f BA870000 		movl	$135, %edx
 3371      00
 3372 1994 4889CE   		movq	%rcx, %rsi
 3373 1997 4889C7   		movq	%rax, %rdi
 3374 199a E8000000 		call	_ZN8UnitTest11TestDetailsC1ERKS0_i
 3374      00
 135:testCore.cpp  **** 	CHECK_EQUAL(2UL, *item);
 3375              		.loc 3 135 0 is_stmt 0 discriminator 10
 3376 199f E8000000 		call	_ZN8UnitTest11CurrentTest7ResultsEv
 3376      00
 3377 19a4 488B00   		movq	(%rax), %rax
 3378 19a7 488D4D90 		leaq	-112(%rbp), %rcx
 3379 19ab BA000000 		movl	$.LC3, %edx
 3379      00
 3380 19b0 4889CE   		movq	%rcx, %rsi
 3381 19b3 4889C7   		movq	%rax, %rdi
 3382 19b6 E8000000 		call	_ZN8UnitTest11TestResults13OnTestFailureERKNS_11TestDetailsEPKc
 3382      00
 3383              	.LEHE182:
 3384              	.LEHB183:
 135:testCore.cpp  **** 	CHECK_EQUAL(2UL, *item);
 3385              		.loc 3 135 0 discriminator 14
 3386 19bb E8000000 		call	__cxa_end_catch
 3386      00
 3387              	.LEHE183:
 3388 19c0 E914FAFF 		jmp	.L211
 3388      FF
 3389              	.L277:
 3390 19c5 4889C3   		movq	%rax, %rbx
 135:testCore.cpp  **** 	CHECK_EQUAL(2UL, *item);
 3391              		.loc 3 135 0
 3392 19c8 E8000000 		call	__cxa_end_catch
 3392      00
 3393 19cd 4889D8   		movq	%rbx, %rax
 3394 19d0 4889C7   		movq	%rax, %rdi
 3395              	.LEHB184:
 3396 19d3 E8000000 		call	_Unwind_Resume
 3396      00
 3397              	.LEHE184:
 3398              	.L279:
 3399 19d8 EB00     		jmp	.L214
 3400              	.L278:
 3401              	.L214:
 136:testCore.cpp  **** 	*item = 6;
 3402              		.loc 3 136 0 is_stmt 1
 3403 19da 4889C7   		movq	%rax, %rdi
 3404 19dd E8000000 		call	__cxa_begin_catch
 3404      00
 3405              	.LEHB185:
 3406 19e2 E8000000 		call	_ZN8UnitTest11CurrentTest7DetailsEv
 3406      00
 3407 19e7 488B08   		movq	(%rax), %rcx
 3408 19ea 488D4590 		leaq	-112(%rbp), %rax
 3409 19ee BA880000 		movl	$136, %edx
 3409      00
 3410 19f3 4889CE   		movq	%rcx, %rsi
 3411 19f6 4889C7   		movq	%rax, %rdi
 3412 19f9 E8000000 		call	_ZN8UnitTest11TestDetailsC1ERKS0_i
 3412      00
 136:testCore.cpp  **** 	*item = 6;
 3413              		.loc 3 136 0 is_stmt 0 discriminator 10
 3414 19fe E8000000 		call	_ZN8UnitTest11CurrentTest7ResultsEv
 3414      00
 3415 1a03 488B00   		movq	(%rax), %rax
 3416 1a06 488D4D90 		leaq	-112(%rbp), %rcx
 3417 1a0a BA000000 		movl	$.LC14, %edx
 3417      00
 3418 1a0f 4889CE   		movq	%rcx, %rsi
 3419 1a12 4889C7   		movq	%rax, %rdi
 3420 1a15 E8000000 		call	_ZN8UnitTest11TestResults13OnTestFailureERKNS_11TestDetailsEPKc
 3420      00
 3421              	.LEHE185:
 3422              	.LEHB186:
 136:testCore.cpp  **** 	*item = 6;
 3423              		.loc 3 136 0 discriminator 14
 3424 1a1a E8000000 		call	__cxa_end_catch
 3424      00
 3425              	.LEHE186:
 3426 1a1f E9FBF9FF 		jmp	.L215
 3426      FF
 3427              	.L280:
 3428 1a24 4889C3   		movq	%rax, %rbx
 136:testCore.cpp  **** 	*item = 6;
 3429              		.loc 3 136 0
 3430 1a27 E8000000 		call	__cxa_end_catch
 3430      00
 3431 1a2c 4889D8   		movq	%rbx, %rax
 3432 1a2f 4889C7   		movq	%rax, %rdi
 3433              	.LEHB187:
 3434 1a32 E8000000 		call	_Unwind_Resume
 3434      00
 3435              	.LEHE187:
 3436              	.L282:
 3437 1a37 EB00     		jmp	.L218
 3438              	.L281:
 3439              	.L218:
 140:testCore.cpp  **** 	CHECK_EQUAL(3UL, *item);
 3440              		.loc 3 140 0 is_stmt 1
 3441 1a39 4889C7   		movq	%rax, %rdi
 3442 1a3c E8000000 		call	__cxa_begin_catch
 3442      00
 3443              	.LEHB188:
 3444 1a41 E8000000 		call	_ZN8UnitTest11CurrentTest7DetailsEv
 3444      00
 3445 1a46 488B08   		movq	(%rax), %rcx
 3446 1a49 488D4590 		leaq	-112(%rbp), %rax
 3447 1a4d BA8C0000 		movl	$140, %edx
 3447      00
 3448 1a52 4889CE   		movq	%rcx, %rsi
 3449 1a55 4889C7   		movq	%rax, %rdi
 3450 1a58 E8000000 		call	_ZN8UnitTest11TestDetailsC1ERKS0_i
 3450      00
 140:testCore.cpp  **** 	CHECK_EQUAL(3UL, *item);
 3451              		.loc 3 140 0 is_stmt 0 discriminator 10
 3452 1a5d E8000000 		call	_ZN8UnitTest11CurrentTest7ResultsEv
 3452      00
 3453 1a62 488B00   		movq	(%rax), %rax
 3454 1a65 488D4D90 		leaq	-112(%rbp), %rcx
 3455 1a69 BA000000 		movl	$.LC3, %edx
 3455      00
 3456 1a6e 4889CE   		movq	%rcx, %rsi
 3457 1a71 4889C7   		movq	%rax, %rdi
 3458 1a74 E8000000 		call	_ZN8UnitTest11TestResults13OnTestFailureERKNS_11TestDetailsEPKc
 3458      00
 3459              	.LEHE188:
 3460              	.LEHB189:
 140:testCore.cpp  **** 	CHECK_EQUAL(3UL, *item);
 3461              		.loc 3 140 0 discriminator 14
 3462 1a79 E8000000 		call	__cxa_end_catch
 3462      00
 3463              	.LEHE189:
 3464 1a7e E90DFAFF 		jmp	.L219
 3464      FF
 3465              	.L283:
 3466 1a83 4889C3   		movq	%rax, %rbx
 140:testCore.cpp  **** 	CHECK_EQUAL(3UL, *item);
 3467              		.loc 3 140 0
 3468 1a86 E8000000 		call	__cxa_end_catch
 3468      00
 3469 1a8b 4889D8   		movq	%rbx, %rax
 3470 1a8e 4889C7   		movq	%rax, %rdi
 3471              	.LEHB190:
 3472 1a91 E8000000 		call	_Unwind_Resume
 3472      00
 3473              	.LEHE190:
 3474              	.L285:
 3475 1a96 EB00     		jmp	.L222
 3476              	.L284:
 3477              	.L222:
 141:testCore.cpp  **** 	*item = 7;
 3478              		.loc 3 141 0 is_stmt 1
 3479 1a98 4889C7   		movq	%rax, %rdi
 3480 1a9b E8000000 		call	__cxa_begin_catch
 3480      00
 3481              	.LEHB191:
 3482 1aa0 E8000000 		call	_ZN8UnitTest11CurrentTest7DetailsEv
 3482      00
 3483 1aa5 488B08   		movq	(%rax), %rcx
 3484 1aa8 488D4590 		leaq	-112(%rbp), %rax
 3485 1aac BA8D0000 		movl	$141, %edx
 3485      00
 3486 1ab1 4889CE   		movq	%rcx, %rsi
 3487 1ab4 4889C7   		movq	%rax, %rdi
 3488 1ab7 E8000000 		call	_ZN8UnitTest11TestDetailsC1ERKS0_i
 3488      00
 141:testCore.cpp  **** 	*item = 7;
 3489              		.loc 3 141 0 is_stmt 0 discriminator 10
 3490 1abc E8000000 		call	_ZN8UnitTest11CurrentTest7ResultsEv
 3490      00
 3491 1ac1 488B00   		movq	(%rax), %rax
 3492 1ac4 488D4D90 		leaq	-112(%rbp), %rcx
 3493 1ac8 BA000000 		movl	$.LC15, %edx
 3493      00
 3494 1acd 4889CE   		movq	%rcx, %rsi
 3495 1ad0 4889C7   		movq	%rax, %rdi
 3496 1ad3 E8000000 		call	_ZN8UnitTest11TestResults13OnTestFailureERKNS_11TestDetailsEPKc
 3496      00
 3497              	.LEHE191:
 3498              	.LEHB192:
 141:testCore.cpp  **** 	*item = 7;
 3499              		.loc 3 141 0 discriminator 14
 3500 1ad8 E8000000 		call	__cxa_end_catch
 3500      00
 3501              	.LEHE192:
 3502 1add E9F4F9FF 		jmp	.L223
 3502      FF
 3503              	.L286:
 3504 1ae2 4889C3   		movq	%rax, %rbx
 141:testCore.cpp  **** 	*item = 7;
 3505              		.loc 3 141 0
 3506 1ae5 E8000000 		call	__cxa_end_catch
 3506      00
 3507 1aea 4889D8   		movq	%rbx, %rax
 3508 1aed 4889C7   		movq	%rax, %rdi
 3509              	.LEHB193:
 3510 1af0 E8000000 		call	_Unwind_Resume
 3510      00
 3511              	.LEHE193:
 3512              	.L288:
 3513 1af5 EB00     		jmp	.L226
 3514              	.L287:
 3515              	.L226:
 145:testCore.cpp  **** 	CHECK_EQUAL(4UL, *item);
 3516              		.loc 3 145 0 is_stmt 1
 3517 1af7 4889C7   		movq	%rax, %rdi
 3518 1afa E8000000 		call	__cxa_begin_catch
 3518      00
 3519              	.LEHB194:
 3520 1aff E8000000 		call	_ZN8UnitTest11CurrentTest7DetailsEv
 3520      00
 3521 1b04 488B08   		movq	(%rax), %rcx
 3522 1b07 488D4590 		leaq	-112(%rbp), %rax
 3523 1b0b BA910000 		movl	$145, %edx
 3523      00
 3524 1b10 4889CE   		movq	%rcx, %rsi
 3525 1b13 4889C7   		movq	%rax, %rdi
 3526 1b16 E8000000 		call	_ZN8UnitTest11TestDetailsC1ERKS0_i
 3526      00
 145:testCore.cpp  **** 	CHECK_EQUAL(4UL, *item);
 3527              		.loc 3 145 0 is_stmt 0 discriminator 10
 3528 1b1b E8000000 		call	_ZN8UnitTest11CurrentTest7ResultsEv
 3528      00
 3529 1b20 488B00   		movq	(%rax), %rax
 3530 1b23 488D4D90 		leaq	-112(%rbp), %rcx
 3531 1b27 BA000000 		movl	$.LC3, %edx
 3531      00
 3532 1b2c 4889CE   		movq	%rcx, %rsi
 3533 1b2f 4889C7   		movq	%rax, %rdi
 3534 1b32 E8000000 		call	_ZN8UnitTest11TestResults13OnTestFailureERKNS_11TestDetailsEPKc
 3534      00
 3535              	.LEHE194:
 3536              	.LEHB195:
 145:testCore.cpp  **** 	CHECK_EQUAL(4UL, *item);
 3537              		.loc 3 145 0 discriminator 14
 3538 1b37 E8000000 		call	__cxa_end_catch
 3538      00
 3539              	.LEHE195:
 3540 1b3c E906FAFF 		jmp	.L227
 3540      FF
 3541              	.L289:
 3542 1b41 4889C3   		movq	%rax, %rbx
 145:testCore.cpp  **** 	CHECK_EQUAL(4UL, *item);
 3543              		.loc 3 145 0
 3544 1b44 E8000000 		call	__cxa_end_catch
 3544      00
 3545 1b49 4889D8   		movq	%rbx, %rax
 3546 1b4c 4889C7   		movq	%rax, %rdi
 3547              	.LEHB196:
 3548 1b4f E8000000 		call	_Unwind_Resume
 3548      00
 3549              	.LEHE196:
 3550              	.L291:
 3551 1b54 EB00     		jmp	.L230
 3552              	.L290:
 3553              	.L230:
 146:testCore.cpp  **** 	*item = 8;
 3554              		.loc 3 146 0 is_stmt 1
 3555 1b56 4889C7   		movq	%rax, %rdi
 3556 1b59 E8000000 		call	__cxa_begin_catch
 3556      00
 3557              	.LEHB197:
 3558 1b5e E8000000 		call	_ZN8UnitTest11CurrentTest7DetailsEv
 3558      00
 3559 1b63 488B08   		movq	(%rax), %rcx
 3560 1b66 488D4590 		leaq	-112(%rbp), %rax
 3561 1b6a BA920000 		movl	$146, %edx
 3561      00
 3562 1b6f 4889CE   		movq	%rcx, %rsi
 3563 1b72 4889C7   		movq	%rax, %rdi
 3564 1b75 E8000000 		call	_ZN8UnitTest11TestDetailsC1ERKS0_i
 3564      00
 146:testCore.cpp  **** 	*item = 8;
 3565              		.loc 3 146 0 is_stmt 0 discriminator 10
 3566 1b7a E8000000 		call	_ZN8UnitTest11CurrentTest7ResultsEv
 3566      00
 3567 1b7f 488B00   		movq	(%rax), %rax
 3568 1b82 488D4D90 		leaq	-112(%rbp), %rcx
 3569 1b86 BA000000 		movl	$.LC22, %edx
 3569      00
 3570 1b8b 4889CE   		movq	%rcx, %rsi
 3571 1b8e 4889C7   		movq	%rax, %rdi
 3572 1b91 E8000000 		call	_ZN8UnitTest11TestResults13OnTestFailureERKNS_11TestDetailsEPKc
 3572      00
 3573              	.LEHE197:
 3574              	.LEHB198:
 146:testCore.cpp  **** 	*item = 8;
 3575              		.loc 3 146 0 discriminator 14
 3576 1b96 E8000000 		call	__cxa_end_catch
 3576      00
 3577              	.LEHE198:
 3578 1b9b E9EDF9FF 		jmp	.L231
 3578      FF
 3579              	.L292:
 3580 1ba0 4889C3   		movq	%rax, %rbx
 146:testCore.cpp  **** 	*item = 8;
 3581              		.loc 3 146 0
 3582 1ba3 E8000000 		call	__cxa_end_catch
 3582      00
 3583 1ba8 4889D8   		movq	%rbx, %rax
 3584 1bab 4889C7   		movq	%rax, %rdi
 3585              	.LEHB199:
 3586 1bae E8000000 		call	_Unwind_Resume
 3586      00
 3587              	.LEHE199:
 3588              	.L294:
 3589 1bb3 EB00     		jmp	.L234
 3590              	.L293:
 3591              	.L234:
 151:testCore.cpp  **** 	CHECK_EQUAL(0UL, queue.putIndex);
 3592              		.loc 3 151 0 is_stmt 1
 3593 1bb5 4889C7   		movq	%rax, %rdi
 3594 1bb8 E8000000 		call	__cxa_begin_catch
 3594      00
 3595              	.LEHB200:
 3596 1bbd E8000000 		call	_ZN8UnitTest11CurrentTest7DetailsEv
 3596      00
 3597 1bc2 488B08   		movq	(%rax), %rcx
 3598 1bc5 488D4590 		leaq	-112(%rbp), %rax
 3599 1bc9 BA970000 		movl	$151, %edx
 3599      00
 3600 1bce 4889CE   		movq	%rcx, %rsi
 3601 1bd1 4889C7   		movq	%rax, %rdi
 3602 1bd4 E8000000 		call	_ZN8UnitTest11TestDetailsC1ERKS0_i
 3602      00
 151:testCore.cpp  **** 	CHECK_EQUAL(0UL, queue.putIndex);
 3603              		.loc 3 151 0 is_stmt 0 discriminator 10
 3604 1bd9 E8000000 		call	_ZN8UnitTest11CurrentTest7ResultsEv
 3604      00
 3605 1bde 488B00   		movq	(%rax), %rax
 3606 1be1 488D4D90 		leaq	-112(%rbp), %rcx
 3607 1be5 BA000000 		movl	$.LC4, %edx
 3607      00
 3608 1bea 4889CE   		movq	%rcx, %rsi
 3609 1bed 4889C7   		movq	%rax, %rdi
 3610 1bf0 E8000000 		call	_ZN8UnitTest11TestResults13OnTestFailureERKNS_11TestDetailsEPKc
 3610      00
 3611              	.LEHE200:
 3612              	.LEHB201:
 151:testCore.cpp  **** 	CHECK_EQUAL(0UL, queue.putIndex);
 3613              		.loc 3 151 0 discriminator 14
 3614 1bf5 E8000000 		call	__cxa_end_catch
 3614      00
 3615              	.LEHE201:
 3616 1bfa E9EEF9FF 		jmp	.L235
 3616      FF
 3617              	.L295:
 3618 1bff 4889C3   		movq	%rax, %rbx
 151:testCore.cpp  **** 	CHECK_EQUAL(0UL, queue.putIndex);
 3619              		.loc 3 151 0
 3620 1c02 E8000000 		call	__cxa_end_catch
 3620      00
 3621 1c07 4889D8   		movq	%rbx, %rax
 3622 1c0a 4889C7   		movq	%rax, %rdi
 3623              	.LEHB202:
 3624 1c0d E8000000 		call	_Unwind_Resume
 3624      00
 3625              	.LEHE202:
 3626              	.L297:
 3627 1c12 EB00     		jmp	.L238
 3628              	.L296:
 3629              	.L238:
 152:testCore.cpp  **** 	CHECK_EQUAL(0UL, queue.takeIndex);
 3630              		.loc 3 152 0 is_stmt 1
 3631 1c14 4889C7   		movq	%rax, %rdi
 3632 1c17 E8000000 		call	__cxa_begin_catch
 3632      00
 3633              	.LEHB203:
 3634 1c1c E8000000 		call	_ZN8UnitTest11CurrentTest7DetailsEv
 3634      00
 3635 1c21 488B08   		movq	(%rax), %rcx
 3636 1c24 488D4590 		leaq	-112(%rbp), %rax
 3637 1c28 BA980000 		movl	$152, %edx
 3637      00
 3638 1c2d 4889CE   		movq	%rcx, %rsi
 3639 1c30 4889C7   		movq	%rax, %rdi
 3640 1c33 E8000000 		call	_ZN8UnitTest11TestDetailsC1ERKS0_i
 3640      00
 152:testCore.cpp  **** 	CHECK_EQUAL(0UL, queue.takeIndex);
 3641              		.loc 3 152 0 is_stmt 0 discriminator 10
 3642 1c38 E8000000 		call	_ZN8UnitTest11CurrentTest7ResultsEv
 3642      00
 3643 1c3d 488B00   		movq	(%rax), %rax
 3644 1c40 488D4D90 		leaq	-112(%rbp), %rcx
 3645 1c44 BA000000 		movl	$.LC5, %edx
 3645      00
 3646 1c49 4889CE   		movq	%rcx, %rsi
 3647 1c4c 4889C7   		movq	%rax, %rdi
 3648 1c4f E8000000 		call	_ZN8UnitTest11TestResults13OnTestFailureERKNS_11TestDetailsEPKc
 3648      00
 3649              	.LEHE203:
 3650              	.LEHB204:
 152:testCore.cpp  **** 	CHECK_EQUAL(0UL, queue.takeIndex);
 3651              		.loc 3 152 0 discriminator 14
 3652 1c54 E8000000 		call	__cxa_end_catch
 3652      00
 3653              	.LEHE204:
 3654 1c59 E9D9F9FF 		jmp	.L239
 3654      FF
 3655              	.L298:
 3656 1c5e 4889C3   		movq	%rax, %rbx
 152:testCore.cpp  **** 	CHECK_EQUAL(0UL, queue.takeIndex);
 3657              		.loc 3 152 0
 3658 1c61 E8000000 		call	__cxa_end_catch
 3658      00
 3659 1c66 4889D8   		movq	%rbx, %rax
 3660 1c69 4889C7   		movq	%rax, %rdi
 3661              	.LEHB205:
 3662 1c6c E8000000 		call	_Unwind_Resume
 3662      00
 3663              	.LEHE205:
 3664              	.L300:
 3665 1c71 EB00     		jmp	.L242
 3666              	.L299:
 3667              	.L242:
 153:testCore.cpp  **** 	CHECK_EQUAL(4UL, queue.numItems);
 3668              		.loc 3 153 0 is_stmt 1
 3669 1c73 4889C7   		movq	%rax, %rdi
 3670 1c76 E8000000 		call	__cxa_begin_catch
 3670      00
 3671              	.LEHB206:
 3672 1c7b E8000000 		call	_ZN8UnitTest11CurrentTest7DetailsEv
 3672      00
 3673 1c80 488B08   		movq	(%rax), %rcx
 3674 1c83 488D4590 		leaq	-112(%rbp), %rax
 3675 1c87 BA990000 		movl	$153, %edx
 3675      00
 3676 1c8c 4889CE   		movq	%rcx, %rsi
 3677 1c8f 4889C7   		movq	%rax, %rdi
 3678 1c92 E8000000 		call	_ZN8UnitTest11TestDetailsC1ERKS0_i
 3678      00
 153:testCore.cpp  **** 	CHECK_EQUAL(4UL, queue.numItems);
 3679              		.loc 3 153 0 is_stmt 0 discriminator 10
 3680 1c97 E8000000 		call	_ZN8UnitTest11CurrentTest7ResultsEv
 3680      00
 3681 1c9c 488B00   		movq	(%rax), %rax
 3682 1c9f 488D4D90 		leaq	-112(%rbp), %rcx
 3683 1ca3 BA000000 		movl	$.LC6, %edx
 3683      00
 3684 1ca8 4889CE   		movq	%rcx, %rsi
 3685 1cab 4889C7   		movq	%rax, %rdi
 3686 1cae E8000000 		call	_ZN8UnitTest11TestResults13OnTestFailureERKNS_11TestDetailsEPKc
 3686      00
 3687              	.LEHE206:
 3688              	.LEHB207:
 153:testCore.cpp  **** 	CHECK_EQUAL(4UL, queue.numItems);
 3689              		.loc 3 153 0 discriminator 14
 3690 1cb3 E8000000 		call	__cxa_end_catch
 3690      00
 3691              	.LEHE207:
 3692 1cb8 E9C4F9FF 		jmp	.L243
 3692      FF
 3693              	.L301:
 3694 1cbd 4889C3   		movq	%rax, %rbx
 153:testCore.cpp  **** 	CHECK_EQUAL(4UL, queue.numItems);
 3695              		.loc 3 153 0
 3696 1cc0 E8000000 		call	__cxa_end_catch
 3696      00
 3697 1cc5 4889D8   		movq	%rbx, %rax
 3698 1cc8 4889C7   		movq	%rax, %rdi
 3699              	.LEHB208:
 3700 1ccb E8000000 		call	_Unwind_Resume
 3700      00
 3701              	.LEHE208:
 3702              	.L303:
 3703 1cd0 EB00     		jmp	.L246
 3704              	.L302:
 3705              	.L246:
 154:testCore.cpp  **** 
 3706              		.loc 3 154 0 is_stmt 1
 3707 1cd2 4889C7   		movq	%rax, %rdi
 3708 1cd5 E8000000 		call	__cxa_begin_catch
 3708      00
 3709              	.LEHB209:
 3710 1cda E8000000 		call	_ZN8UnitTest11CurrentTest7DetailsEv
 3710      00
 3711 1cdf 488B08   		movq	(%rax), %rcx
 3712 1ce2 488D4590 		leaq	-112(%rbp), %rax
 3713 1ce6 BA9A0000 		movl	$154, %edx
 3713      00
 3714 1ceb 4889CE   		movq	%rcx, %rsi
 3715 1cee 4889C7   		movq	%rax, %rdi
 3716 1cf1 E8000000 		call	_ZN8UnitTest11TestDetailsC1ERKS0_i
 3716      00
 154:testCore.cpp  **** 
 3717              		.loc 3 154 0 is_stmt 0 discriminator 10
 3718 1cf6 E8000000 		call	_ZN8UnitTest11CurrentTest7ResultsEv
 3718      00
 3719 1cfb 488B00   		movq	(%rax), %rax
 3720 1cfe 488D4D90 		leaq	-112(%rbp), %rcx
 3721 1d02 BA000000 		movl	$.LC23, %edx
 3721      00
 3722 1d07 4889CE   		movq	%rcx, %rsi
 3723 1d0a 4889C7   		movq	%rax, %rdi
 3724 1d0d E8000000 		call	_ZN8UnitTest11TestResults13OnTestFailureERKNS_11TestDetailsEPKc
 3724      00
 3725              	.LEHE209:
 3726              	.LEHB210:
 154:testCore.cpp  **** 
 3727              		.loc 3 154 0 discriminator 14
 3728 1d12 E8000000 		call	__cxa_end_catch
 3728      00
 3729              	.LEHE210:
 3730 1d17 E9AFF9FF 		jmp	.L247
 3730      FF
 3731              	.L304:
 3732 1d1c 4889C3   		movq	%rax, %rbx
 154:testCore.cpp  **** 
 3733              		.loc 3 154 0
 3734 1d1f E8000000 		call	__cxa_end_catch
 3734      00
 3735 1d24 4889D8   		movq	%rbx, %rax
 3736 1d27 4889C7   		movq	%rax, %rdi
 3737              	.LEHB211:
 3738 1d2a E8000000 		call	_Unwind_Resume
 3738      00
 3739              	.LEHE211:
 3740              	.L306:
 3741 1d2f EB00     		jmp	.L250
 3742              	.L305:
 3743              	.L250:
 157:testCore.cpp  **** 	CHECK_EQUAL(6UL, deref(queue.itemArray[1]));
 3744              		.loc 3 157 0 is_stmt 1
 3745 1d31 4889C7   		movq	%rax, %rdi
 3746 1d34 E8000000 		call	__cxa_begin_catch
 3746      00
 3747              	.LEHB212:
 3748 1d39 E8000000 		call	_ZN8UnitTest11CurrentTest7DetailsEv
 3748      00
 3749 1d3e 488B08   		movq	(%rax), %rcx
 3750 1d41 488D4590 		leaq	-112(%rbp), %rax
 3751 1d45 BA9D0000 		movl	$157, %edx
 3751      00
 3752 1d4a 4889CE   		movq	%rcx, %rsi
 3753 1d4d 4889C7   		movq	%rax, %rdi
 3754 1d50 E8000000 		call	_ZN8UnitTest11TestDetailsC1ERKS0_i
 3754      00
 157:testCore.cpp  **** 	CHECK_EQUAL(6UL, deref(queue.itemArray[1]));
 3755              		.loc 3 157 0 is_stmt 0 discriminator 10
 3756 1d55 E8000000 		call	_ZN8UnitTest11CurrentTest7ResultsEv
 3756      00
 3757 1d5a 488B00   		movq	(%rax), %rax
 3758 1d5d 488D4D90 		leaq	-112(%rbp), %rcx
 3759 1d61 BA000000 		movl	$.LC18, %edx
 3759      00
 3760 1d66 4889CE   		movq	%rcx, %rsi
 3761 1d69 4889C7   		movq	%rax, %rdi
 3762 1d6c E8000000 		call	_ZN8UnitTest11TestResults13OnTestFailureERKNS_11TestDetailsEPKc
 3762      00
 3763              	.LEHE212:
 3764              	.LEHB213:
 157:testCore.cpp  **** 	CHECK_EQUAL(6UL, deref(queue.itemArray[1]));
 3765              		.loc 3 157 0 discriminator 14
 3766 1d71 E8000000 		call	__cxa_end_catch
 3766      00
 3767              	.LEHE213:
 3768 1d76 E9A8F9FF 		jmp	.L251
 3768      FF
 3769              	.L307:
 3770 1d7b 4889C3   		movq	%rax, %rbx
 157:testCore.cpp  **** 	CHECK_EQUAL(6UL, deref(queue.itemArray[1]));
 3771              		.loc 3 157 0
 3772 1d7e E8000000 		call	__cxa_end_catch
 3772      00
 3773 1d83 4889D8   		movq	%rbx, %rax
 3774 1d86 4889C7   		movq	%rax, %rdi
 3775              	.LEHB214:
 3776 1d89 E8000000 		call	_Unwind_Resume
 3776      00
 3777              	.LEHE214:
 3778              	.L309:
 3779 1d8e EB00     		jmp	.L254
 3780              	.L308:
 3781              	.L254:
 158:testCore.cpp  **** 	CHECK_EQUAL(7UL, deref(queue.itemArray[2]));
 3782              		.loc 3 158 0 is_stmt 1
 3783 1d90 4889C7   		movq	%rax, %rdi
 3784 1d93 E8000000 		call	__cxa_begin_catch
 3784      00
 3785              	.LEHB215:
 3786 1d98 E8000000 		call	_ZN8UnitTest11CurrentTest7DetailsEv
 3786      00
 3787 1d9d 488B08   		movq	(%rax), %rcx
 3788 1da0 488D4590 		leaq	-112(%rbp), %rax
 3789 1da4 BA9E0000 		movl	$158, %edx
 3789      00
 3790 1da9 4889CE   		movq	%rcx, %rsi
 3791 1dac 4889C7   		movq	%rax, %rdi
 3792 1daf E8000000 		call	_ZN8UnitTest11TestDetailsC1ERKS0_i
 3792      00
 158:testCore.cpp  **** 	CHECK_EQUAL(7UL, deref(queue.itemArray[2]));
 3793              		.loc 3 158 0 is_stmt 0 discriminator 10
 3794 1db4 E8000000 		call	_ZN8UnitTest11CurrentTest7ResultsEv
 3794      00
 3795 1db9 488B00   		movq	(%rax), %rax
 3796 1dbc 488D4D90 		leaq	-112(%rbp), %rcx
 3797 1dc0 BA000000 		movl	$.LC19, %edx
 3797      00
 3798 1dc5 4889CE   		movq	%rcx, %rsi
 3799 1dc8 4889C7   		movq	%rax, %rdi
 3800 1dcb E8000000 		call	_ZN8UnitTest11TestResults13OnTestFailureERKNS_11TestDetailsEPKc
 3800      00
 3801              	.LEHE215:
 3802              	.LEHB216:
 158:testCore.cpp  **** 	CHECK_EQUAL(7UL, deref(queue.itemArray[2]));
 3803              		.loc 3 158 0 discriminator 14
 3804 1dd0 E8000000 		call	__cxa_end_catch
 3804      00
 3805              	.LEHE216:
 3806 1dd5 E9A5F9FF 		jmp	.L255
 3806      FF
 3807              	.L310:
 3808 1dda 4889C3   		movq	%rax, %rbx
 158:testCore.cpp  **** 	CHECK_EQUAL(7UL, deref(queue.itemArray[2]));
 3809              		.loc 3 158 0
 3810 1ddd E8000000 		call	__cxa_end_catch
 3810      00
 3811 1de2 4889D8   		movq	%rbx, %rax
 3812 1de5 4889C7   		movq	%rax, %rdi
 3813              	.LEHB217:
 3814 1de8 E8000000 		call	_Unwind_Resume
 3814      00
 3815              	.LEHE217:
 3816              	.L312:
 3817 1ded EB00     		jmp	.L258
 3818              	.L311:
 3819              	.L258:
 159:testCore.cpp  **** 	CHECK_EQUAL(8UL, deref(queue.itemArray[3]));
 3820              		.loc 3 159 0 is_stmt 1
 3821 1def 4889C7   		movq	%rax, %rdi
 3822 1df2 E8000000 		call	__cxa_begin_catch
 3822      00
 3823              	.LEHB218:
 3824 1df7 E8000000 		call	_ZN8UnitTest11CurrentTest7DetailsEv
 3824      00
 3825 1dfc 488B08   		movq	(%rax), %rcx
 3826 1dff 488D4590 		leaq	-112(%rbp), %rax
 3827 1e03 BA9F0000 		movl	$159, %edx
 3827      00
 3828 1e08 4889CE   		movq	%rcx, %rsi
 3829 1e0b 4889C7   		movq	%rax, %rdi
 3830 1e0e E8000000 		call	_ZN8UnitTest11TestDetailsC1ERKS0_i
 3830      00
 159:testCore.cpp  **** 	CHECK_EQUAL(8UL, deref(queue.itemArray[3]));
 3831              		.loc 3 159 0 is_stmt 0 discriminator 10
 3832 1e13 E8000000 		call	_ZN8UnitTest11CurrentTest7ResultsEv
 3832      00
 3833 1e18 488B00   		movq	(%rax), %rax
 3834 1e1b 488D4D90 		leaq	-112(%rbp), %rcx
 3835 1e1f BA000000 		movl	$.LC20, %edx
 3835      00
 3836 1e24 4889CE   		movq	%rcx, %rsi
 3837 1e27 4889C7   		movq	%rax, %rdi
 3838 1e2a E8000000 		call	_ZN8UnitTest11TestResults13OnTestFailureERKNS_11TestDetailsEPKc
 3838      00
 3839              	.LEHE218:
 3840              	.LEHB219:
 159:testCore.cpp  **** 	CHECK_EQUAL(8UL, deref(queue.itemArray[3]));
 3841              		.loc 3 159 0 discriminator 14
 3842 1e2f E8000000 		call	__cxa_end_catch
 3842      00
 3843              	.LEHE219:
 3844 1e34 E9A2F9FF 		jmp	.L259
 3844      FF
 3845              	.L313:
 3846 1e39 4889C3   		movq	%rax, %rbx
 159:testCore.cpp  **** 	CHECK_EQUAL(8UL, deref(queue.itemArray[3]));
 3847              		.loc 3 159 0
 3848 1e3c E8000000 		call	__cxa_end_catch
 3848      00
 3849 1e41 4889D8   		movq	%rbx, %rax
 3850 1e44 4889C7   		movq	%rax, %rdi
 3851              	.LEHB220:
 3852 1e47 E8000000 		call	_Unwind_Resume
 3852      00
 3853              	.LEHE220:
 3854              	.L315:
 3855 1e4c EB00     		jmp	.L262
 3856              	.L314:
 3857              	.L262:
 160:testCore.cpp  **** 
 3858              		.loc 3 160 0 is_stmt 1
 3859 1e4e 4889C7   		movq	%rax, %rdi
 3860 1e51 E8000000 		call	__cxa_begin_catch
 3860      00
 3861              	.LEHB221:
 3862 1e56 E8000000 		call	_ZN8UnitTest11CurrentTest7DetailsEv
 3862      00
 3863 1e5b 488B08   		movq	(%rax), %rcx
 3864 1e5e 488D4590 		leaq	-112(%rbp), %rax
 3865 1e62 BAA00000 		movl	$160, %edx
 3865      00
 3866 1e67 4889CE   		movq	%rcx, %rsi
 3867 1e6a 4889C7   		movq	%rax, %rdi
 3868 1e6d E8000000 		call	_ZN8UnitTest11TestDetailsC1ERKS0_i
 3868      00
 160:testCore.cpp  **** 
 3869              		.loc 3 160 0 is_stmt 0 discriminator 10
 3870 1e72 E8000000 		call	_ZN8UnitTest11CurrentTest7ResultsEv
 3870      00
 3871 1e77 488B00   		movq	(%rax), %rax
 3872 1e7a 488D4D90 		leaq	-112(%rbp), %rcx
 3873 1e7e BA000000 		movl	$.LC24, %edx
 3873      00
 3874 1e83 4889CE   		movq	%rcx, %rsi
 3875 1e86 4889C7   		movq	%rax, %rdi
 3876 1e89 E8000000 		call	_ZN8UnitTest11TestResults13OnTestFailureERKNS_11TestDetailsEPKc
 3876      00
 3877              	.LEHE221:
 3878              	.LEHB222:
 160:testCore.cpp  **** 
 3879              		.loc 3 160 0 discriminator 14
 3880 1e8e E8000000 		call	__cxa_end_catch
 3880      00
 3881              	.LEHE222:
 3882 1e93 E99FF9FF 		jmp	.L263
 3882      FF
 3883              	.L316:
 3884 1e98 4889C3   		movq	%rax, %rbx
 160:testCore.cpp  **** 
 3885              		.loc 3 160 0
 3886 1e9b E8000000 		call	__cxa_end_catch
 3886      00
 3887 1ea0 4889D8   		movq	%rbx, %rax
 3888 1ea3 4889C7   		movq	%rax, %rdi
 3889              	.LEHB223:
 3890 1ea6 E8000000 		call	_Unwind_Resume
 3890      00
 3891              	.LEHE223:
 3892              	.L317:
 3893              		.loc 3 164 0 is_stmt 1
 3894 1eab E8000000 		call	__stack_chk_fail
 3894      00
 3895              	.L265:
 3896 1eb0 4881C498 		addq	$152, %rsp
 3896      000000
 3897 1eb7 5B       		popq	%rbx
 3898 1eb8 5D       		popq	%rbp
 3899              		.cfi_def_cfa 7, 8
 3900 1eb9 C3       		ret
 3901              		.cfi_endproc
 3902              	.LFE1092:
 3903              		.section	.gcc_except_table
 3904              		.align 4
 3905              	.LLSDA1092:
 3906 02e4 FF       		.byte	0xff
 3907 02e5 03       		.byte	0x3
 3908 02e6 8804     		.uleb128 .LLSDATT1092-.LLSDATTD1092
 3909              	.LLSDATTD1092:
 3910 02e8 01       		.byte	0x1
 3911 02e9 FC03     		.uleb128 .LLSDACSE1092-.LLSDACSB1092
 3912              	.LLSDACSB1092:
 3913 02eb 42       		.uleb128 .LEHB132-.LFB1092
 3914 02ec 05       		.uleb128 .LEHE132-.LEHB132
 3915 02ed 00       		.uleb128 0
 3916 02ee 00       		.uleb128 0
 3917 02ef 4D       		.uleb128 .LEHB133-.LFB1092
 3918 02f0 1C       		.uleb128 .LEHE133-.LEHB133
 3919 02f1 A60C     		.uleb128 .L266-.LFB1092
 3920 02f3 01       		.uleb128 0x1
 3921 02f4 70       		.uleb128 .LEHB134-.LFB1092
 3922 02f5 1F       		.uleb128 .LEHE134-.LEHB134
 3923 02f6 A40C     		.uleb128 .L267-.LFB1092
 3924 02f8 03       		.uleb128 0x3
 3925 02f9 9D01     		.uleb128 .LEHB135-.LFB1092
 3926 02fb 05       		.uleb128 .LEHE135-.LEHB135
 3927 02fc 00       		.uleb128 0
 3928 02fd 00       		.uleb128 0
 3929 02fe A801     		.uleb128 .LEHB136-.LFB1092
 3930 0300 1C       		.uleb128 .LEHE136-.LEHB136
 3931 0301 850D     		.uleb128 .L269-.LFB1092
 3932 0303 01       		.uleb128 0x1
 3933 0304 CB01     		.uleb128 .LEHB137-.LFB1092
 3934 0306 1F       		.uleb128 .LEHE137-.LEHB137
 3935 0307 830D     		.uleb128 .L270-.LFB1092
 3936 0309 03       		.uleb128 0x3
 3937 030a EA01     		.uleb128 .LEHB138-.LFB1092
 3938 030c 1C       		.uleb128 .LEHE138-.LEHB138
 3939 030d E40D     		.uleb128 .L272-.LFB1092
 3940 030f 01       		.uleb128 0x1
 3941 0310 9202     		.uleb128 .LEHB139-.LFB1092
 3942 0312 1E       		.uleb128 .LEHE139-.LEHB139
 3943 0313 E20D     		.uleb128 .L273-.LFB1092
 3944 0315 03       		.uleb128 0x3
 3945 0316 C102     		.uleb128 .LEHB140-.LFB1092
 3946 0318 18       		.uleb128 .LEHE140-.LEHB140
 3947 0319 00       		.uleb128 0
 3948 031a 00       		.uleb128 0
 3949 031b DF02     		.uleb128 .LEHB141-.LFB1092
 3950 031d 1C       		.uleb128 .LEHE141-.LEHB141
 3951 031e C30E     		.uleb128 .L275-.LFB1092
 3952 0320 01       		.uleb128 0x1
 3953 0321 8203     		.uleb128 .LEHB142-.LFB1092
 3954 0323 1F       		.uleb128 .LEHE142-.LEHB142
 3955 0324 C10E     		.uleb128 .L276-.LFB1092
 3956 0326 03       		.uleb128 0x3
 3957 0327 A103     		.uleb128 .LEHB143-.LFB1092
 3958 0329 1C       		.uleb128 .LEHE143-.LEHB143
 3959 032a A20F     		.uleb128 .L278-.LFB1092
 3960 032c 01       		.uleb128 0x1
 3961 032d C903     		.uleb128 .LEHB144-.LFB1092
 3962 032f 1E       		.uleb128 .LEHE144-.LEHB144
 3963 0330 A00F     		.uleb128 .L279-.LFB1092
 3964 0332 03       		.uleb128 0x3
 3965 0333 F803     		.uleb128 .LEHB145-.LFB1092
 3966 0335 18       		.uleb128 .LEHE145-.LEHB145
 3967 0336 00       		.uleb128 0
 3968 0337 00       		.uleb128 0
 3969 0338 9604     		.uleb128 .LEHB146-.LFB1092
 3970 033a 1C       		.uleb128 .LEHE146-.LEHB146
 3971 033b 8110     		.uleb128 .L281-.LFB1092
 3972 033d 01       		.uleb128 0x1
 3973 033e B904     		.uleb128 .LEHB147-.LFB1092
 3974 0340 1F       		.uleb128 .LEHE147-.LEHB147
 3975 0341 FF0F     		.uleb128 .L282-.LFB1092
 3976 0343 03       		.uleb128 0x3
 3977 0344 D804     		.uleb128 .LEHB148-.LFB1092
 3978 0346 1C       		.uleb128 .LEHE148-.LEHB148
 3979 0347 E010     		.uleb128 .L284-.LFB1092
 3980 0349 01       		.uleb128 0x1
 3981 034a 8005     		.uleb128 .LEHB149-.LFB1092
 3982 034c 1E       		.uleb128 .LEHE149-.LEHB149
 3983 034d DE10     		.uleb128 .L285-.LFB1092
 3984 034f 03       		.uleb128 0x3
 3985 0350 AF05     		.uleb128 .LEHB150-.LFB1092
 3986 0352 18       		.uleb128 .LEHE150-.LEHB150
 3987 0353 00       		.uleb128 0
 3988 0354 00       		.uleb128 0
 3989 0355 CD05     		.uleb128 .LEHB151-.LFB1092
 3990 0357 1C       		.uleb128 .LEHE151-.LEHB151
 3991 0358 BF11     		.uleb128 .L287-.LFB1092
 3992 035a 01       		.uleb128 0x1
 3993 035b F005     		.uleb128 .LEHB152-.LFB1092
 3994 035d 1F       		.uleb128 .LEHE152-.LEHB152
 3995 035e BD11     		.uleb128 .L288-.LFB1092
 3996 0360 03       		.uleb128 0x3
 3997 0361 8F06     		.uleb128 .LEHB153-.LFB1092
 3998 0363 1C       		.uleb128 .LEHE153-.LEHB153
 3999 0364 9E12     		.uleb128 .L290-.LFB1092
 4000 0366 01       		.uleb128 0x1
 4001 0367 B706     		.uleb128 .LEHB154-.LFB1092
 4002 0369 1E       		.uleb128 .LEHE154-.LEHB154
 4003 036a 9C12     		.uleb128 .L291-.LFB1092
 4004 036c 03       		.uleb128 0x3
 4005 036d E606     		.uleb128 .LEHB155-.LFB1092
 4006 036f 05       		.uleb128 .LEHE155-.LEHB155
 4007 0370 00       		.uleb128 0
 4008 0371 00       		.uleb128 0
 4009 0372 EB06     		.uleb128 .LEHB156-.LFB1092
 4010 0374 1C       		.uleb128 .LEHE156-.LEHB156
 4011 0375 FD12     		.uleb128 .L293-.LFB1092
 4012 0377 01       		.uleb128 0x1
 4013 0378 8F07     		.uleb128 .LEHB157-.LFB1092
 4014 037a 26       		.uleb128 .LEHE157-.LEHB157
 4015 037b FB12     		.uleb128 .L294-.LFB1092
 4016 037d 03       		.uleb128 0x3
 4017 037e B507     		.uleb128 .LEHB158-.LFB1092
 4018 0380 1C       		.uleb128 .LEHE158-.LEHB158
 4019 0381 DC13     		.uleb128 .L296-.LFB1092
 4020 0383 01       		.uleb128 0x1
 4021 0384 D907     		.uleb128 .LEHB159-.LFB1092
 4022 0386 26       		.uleb128 .LEHE159-.LEHB159
 4023 0387 DA13     		.uleb128 .L297-.LFB1092
 4024 0389 03       		.uleb128 0x3
 4025 038a FF07     		.uleb128 .LEHB160-.LFB1092
 4026 038c 1C       		.uleb128 .LEHE160-.LEHB160
 4027 038d BB14     		.uleb128 .L299-.LFB1092
 4028 038f 01       		.uleb128 0x1
 4029 0390 A308     		.uleb128 .LEHB161-.LFB1092
 4030 0392 26       		.uleb128 .LEHE161-.LEHB161
 4031 0393 B914     		.uleb128 .L300-.LFB1092
 4032 0395 03       		.uleb128 0x3
 4033 0396 C908     		.uleb128 .LEHB162-.LFB1092
 4034 0398 1C       		.uleb128 .LEHE162-.LEHB162
 4035 0399 9A15     		.uleb128 .L302-.LFB1092
 4036 039b 01       		.uleb128 0x1
 4037 039c ED08     		.uleb128 .LEHB163-.LFB1092
 4038 039e 26       		.uleb128 .LEHE163-.LEHB163
 4039 039f 9815     		.uleb128 .L303-.LFB1092
 4040 03a1 03       		.uleb128 0x3
 4041 03a2 9309     		.uleb128 .LEHB164-.LFB1092
 4042 03a4 1C       		.uleb128 .LEHE164-.LEHB164
 4043 03a5 F915     		.uleb128 .L305-.LFB1092
 4044 03a7 01       		.uleb128 0x1
 4045 03a8 CC09     		.uleb128 .LEHB165-.LFB1092
 4046 03aa 1F       		.uleb128 .LEHE165-.LEHB165
 4047 03ab F715     		.uleb128 .L306-.LFB1092
 4048 03ad 03       		.uleb128 0x3
 4049 03ae EB09     		.uleb128 .LEHB166-.LFB1092
 4050 03b0 1C       		.uleb128 .LEHE166-.LEHB166
 4051 03b1 D816     		.uleb128 .L308-.LFB1092
 4052 03b3 01       		.uleb128 0x1
 4053 03b4 A80A     		.uleb128 .LEHB167-.LFB1092
 4054 03b6 1F       		.uleb128 .LEHE167-.LEHB167
 4055 03b7 D616     		.uleb128 .L309-.LFB1092
 4056 03b9 03       		.uleb128 0x3
 4057 03ba C70A     		.uleb128 .LEHB168-.LFB1092
 4058 03bc 1C       		.uleb128 .LEHE168-.LEHB168
 4059 03bd B717     		.uleb128 .L311-.LFB1092
 4060 03bf 01       		.uleb128 0x1
 4061 03c0 840B     		.uleb128 .LEHB169-.LFB1092
 4062 03c2 1F       		.uleb128 .LEHE169-.LEHB169
 4063 03c3 B517     		.uleb128 .L312-.LFB1092
 4064 03c5 03       		.uleb128 0x3
 4065 03c6 A30B     		.uleb128 .LEHB170-.LFB1092
 4066 03c8 1C       		.uleb128 .LEHE170-.LEHB170
 4067 03c9 9618     		.uleb128 .L314-.LFB1092
 4068 03cb 01       		.uleb128 0x1
 4069 03cc E00B     		.uleb128 .LEHB171-.LFB1092
 4070 03ce 1F       		.uleb128 .LEHE171-.LEHB171
 4071 03cf 9418     		.uleb128 .L315-.LFB1092
 4072 03d1 03       		.uleb128 0x3
 4073 03d2 860C     		.uleb128 .LEHB172-.LFB1092
 4074 03d4 05       		.uleb128 .LEHE172-.LEHB172
 4075 03d5 00       		.uleb128 0
 4076 03d6 00       		.uleb128 0
 4077 03d7 AE0C     		.uleb128 .LEHB173-.LFB1092
 4078 03d9 38       		.uleb128 .LEHE173-.LEHB173
 4079 03da F00C     		.uleb128 .L268-.LFB1092
 4080 03dc 00       		.uleb128 0
 4081 03dd E60C     		.uleb128 .LEHB174-.LFB1092
 4082 03df 05       		.uleb128 .LEHE174-.LEHB174
 4083 03e0 00       		.uleb128 0
 4084 03e1 00       		.uleb128 0
 4085 03e2 FE0C     		.uleb128 .LEHB175-.LFB1092
 4086 03e4 05       		.uleb128 .LEHE175-.LEHB175
 4087 03e5 00       		.uleb128 0
 4088 03e6 00       		.uleb128 0
 4089 03e7 8D0D     		.uleb128 .LEHB176-.LFB1092
 4090 03e9 38       		.uleb128 .LEHE176-.LEHB176
 4091 03ea CF0D     		.uleb128 .L271-.LFB1092
 4092 03ec 00       		.uleb128 0
 4093 03ed C50D     		.uleb128 .LEHB177-.LFB1092
 4094 03ef 05       		.uleb128 .LEHE177-.LEHB177
 4095 03f0 00       		.uleb128 0
 4096 03f1 00       		.uleb128 0
 4097 03f2 DD0D     		.uleb128 .LEHB178-.LFB1092
 4098 03f4 05       		.uleb128 .LEHE178-.LEHB178
 4099 03f5 00       		.uleb128 0
 4100 03f6 00       		.uleb128 0
 4101 03f7 EC0D     		.uleb128 .LEHB179-.LFB1092
 4102 03f9 38       		.uleb128 .LEHE179-.LEHB179
 4103 03fa AE0E     		.uleb128 .L274-.LFB1092
 4104 03fc 00       		.uleb128 0
 4105 03fd A40E     		.uleb128 .LEHB180-.LFB1092
 4106 03ff 05       		.uleb128 .LEHE180-.LEHB180
 4107 0400 00       		.uleb128 0
 4108 0401 00       		.uleb128 0
 4109 0402 BC0E     		.uleb128 .LEHB181-.LFB1092
 4110 0404 05       		.uleb128 .LEHE181-.LEHB181
 4111 0405 00       		.uleb128 0
 4112 0406 00       		.uleb128 0
 4113 0407 CB0E     		.uleb128 .LEHB182-.LFB1092
 4114 0409 38       		.uleb128 .LEHE182-.LEHB182
 4115 040a 8D0F     		.uleb128 .L277-.LFB1092
 4116 040c 00       		.uleb128 0
 4117 040d 830F     		.uleb128 .LEHB183-.LFB1092
 4118 040f 05       		.uleb128 .LEHE183-.LEHB183
 4119 0410 00       		.uleb128 0
 4120 0411 00       		.uleb128 0
 4121 0412 9B0F     		.uleb128 .LEHB184-.LFB1092
 4122 0414 05       		.uleb128 .LEHE184-.LEHB184
 4123 0415 00       		.uleb128 0
 4124 0416 00       		.uleb128 0
 4125 0417 AA0F     		.uleb128 .LEHB185-.LFB1092
 4126 0419 38       		.uleb128 .LEHE185-.LEHB185
 4127 041a EC0F     		.uleb128 .L280-.LFB1092
 4128 041c 00       		.uleb128 0
 4129 041d E20F     		.uleb128 .LEHB186-.LFB1092
 4130 041f 05       		.uleb128 .LEHE186-.LEHB186
 4131 0420 00       		.uleb128 0
 4132 0421 00       		.uleb128 0
 4133 0422 FA0F     		.uleb128 .LEHB187-.LFB1092
 4134 0424 05       		.uleb128 .LEHE187-.LEHB187
 4135 0425 00       		.uleb128 0
 4136 0426 00       		.uleb128 0
 4137 0427 8910     		.uleb128 .LEHB188-.LFB1092
 4138 0429 38       		.uleb128 .LEHE188-.LEHB188
 4139 042a CB10     		.uleb128 .L283-.LFB1092
 4140 042c 00       		.uleb128 0
 4141 042d C110     		.uleb128 .LEHB189-.LFB1092
 4142 042f 05       		.uleb128 .LEHE189-.LEHB189
 4143 0430 00       		.uleb128 0
 4144 0431 00       		.uleb128 0
 4145 0432 D910     		.uleb128 .LEHB190-.LFB1092
 4146 0434 05       		.uleb128 .LEHE190-.LEHB190
 4147 0435 00       		.uleb128 0
 4148 0436 00       		.uleb128 0
 4149 0437 E810     		.uleb128 .LEHB191-.LFB1092
 4150 0439 38       		.uleb128 .LEHE191-.LEHB191
 4151 043a AA11     		.uleb128 .L286-.LFB1092
 4152 043c 00       		.uleb128 0
 4153 043d A011     		.uleb128 .LEHB192-.LFB1092
 4154 043f 05       		.uleb128 .LEHE192-.LEHB192
 4155 0440 00       		.uleb128 0
 4156 0441 00       		.uleb128 0
 4157 0442 B811     		.uleb128 .LEHB193-.LFB1092
 4158 0444 05       		.uleb128 .LEHE193-.LEHB193
 4159 0445 00       		.uleb128 0
 4160 0446 00       		.uleb128 0
 4161 0447 C711     		.uleb128 .LEHB194-.LFB1092
 4162 0449 38       		.uleb128 .LEHE194-.LEHB194
 4163 044a 8912     		.uleb128 .L289-.LFB1092
 4164 044c 00       		.uleb128 0
 4165 044d FF11     		.uleb128 .LEHB195-.LFB1092
 4166 044f 05       		.uleb128 .LEHE195-.LEHB195
 4167 0450 00       		.uleb128 0
 4168 0451 00       		.uleb128 0
 4169 0452 9712     		.uleb128 .LEHB196-.LFB1092
 4170 0454 05       		.uleb128 .LEHE196-.LEHB196
 4171 0455 00       		.uleb128 0
 4172 0456 00       		.uleb128 0
 4173 0457 A612     		.uleb128 .LEHB197-.LFB1092
 4174 0459 38       		.uleb128 .LEHE197-.LEHB197
 4175 045a E812     		.uleb128 .L292-.LFB1092
 4176 045c 00       		.uleb128 0
 4177 045d DE12     		.uleb128 .LEHB198-.LFB1092
 4178 045f 05       		.uleb128 .LEHE198-.LEHB198
 4179 0460 00       		.uleb128 0
 4180 0461 00       		.uleb128 0
 4181 0462 F612     		.uleb128 .LEHB199-.LFB1092
 4182 0464 05       		.uleb128 .LEHE199-.LEHB199
 4183 0465 00       		.uleb128 0
 4184 0466 00       		.uleb128 0
 4185 0467 8513     		.uleb128 .LEHB200-.LFB1092
 4186 0469 38       		.uleb128 .LEHE200-.LEHB200
 4187 046a C713     		.uleb128 .L295-.LFB1092
 4188 046c 00       		.uleb128 0
 4189 046d BD13     		.uleb128 .LEHB201-.LFB1092
 4190 046f 05       		.uleb128 .LEHE201-.LEHB201
 4191 0470 00       		.uleb128 0
 4192 0471 00       		.uleb128 0
 4193 0472 D513     		.uleb128 .LEHB202-.LFB1092
 4194 0474 05       		.uleb128 .LEHE202-.LEHB202
 4195 0475 00       		.uleb128 0
 4196 0476 00       		.uleb128 0
 4197 0477 E413     		.uleb128 .LEHB203-.LFB1092
 4198 0479 38       		.uleb128 .LEHE203-.LEHB203
 4199 047a A614     		.uleb128 .L298-.LFB1092
 4200 047c 00       		.uleb128 0
 4201 047d 9C14     		.uleb128 .LEHB204-.LFB1092
 4202 047f 05       		.uleb128 .LEHE204-.LEHB204
 4203 0480 00       		.uleb128 0
 4204 0481 00       		.uleb128 0
 4205 0482 B414     		.uleb128 .LEHB205-.LFB1092
 4206 0484 05       		.uleb128 .LEHE205-.LEHB205
 4207 0485 00       		.uleb128 0
 4208 0486 00       		.uleb128 0
 4209 0487 C314     		.uleb128 .LEHB206-.LFB1092
 4210 0489 38       		.uleb128 .LEHE206-.LEHB206
 4211 048a 8515     		.uleb128 .L301-.LFB1092
 4212 048c 00       		.uleb128 0
 4213 048d FB14     		.uleb128 .LEHB207-.LFB1092
 4214 048f 05       		.uleb128 .LEHE207-.LEHB207
 4215 0490 00       		.uleb128 0
 4216 0491 00       		.uleb128 0
 4217 0492 9315     		.uleb128 .LEHB208-.LFB1092
 4218 0494 05       		.uleb128 .LEHE208-.LEHB208
 4219 0495 00       		.uleb128 0
 4220 0496 00       		.uleb128 0
 4221 0497 A215     		.uleb128 .LEHB209-.LFB1092
 4222 0499 38       		.uleb128 .LEHE209-.LEHB209
 4223 049a E415     		.uleb128 .L304-.LFB1092
 4224 049c 00       		.uleb128 0
 4225 049d DA15     		.uleb128 .LEHB210-.LFB1092
 4226 049f 05       		.uleb128 .LEHE210-.LEHB210
 4227 04a0 00       		.uleb128 0
 4228 04a1 00       		.uleb128 0
 4229 04a2 F215     		.uleb128 .LEHB211-.LFB1092
 4230 04a4 05       		.uleb128 .LEHE211-.LEHB211
 4231 04a5 00       		.uleb128 0
 4232 04a6 00       		.uleb128 0
 4233 04a7 8116     		.uleb128 .LEHB212-.LFB1092
 4234 04a9 38       		.uleb128 .LEHE212-.LEHB212
 4235 04aa C316     		.uleb128 .L307-.LFB1092
 4236 04ac 00       		.uleb128 0
 4237 04ad B916     		.uleb128 .LEHB213-.LFB1092
 4238 04af 05       		.uleb128 .LEHE213-.LEHB213
 4239 04b0 00       		.uleb128 0
 4240 04b1 00       		.uleb128 0
 4241 04b2 D116     		.uleb128 .LEHB214-.LFB1092
 4242 04b4 05       		.uleb128 .LEHE214-.LEHB214
 4243 04b5 00       		.uleb128 0
 4244 04b6 00       		.uleb128 0
 4245 04b7 E016     		.uleb128 .LEHB215-.LFB1092
 4246 04b9 38       		.uleb128 .LEHE215-.LEHB215
 4247 04ba A217     		.uleb128 .L310-.LFB1092
 4248 04bc 00       		.uleb128 0
 4249 04bd 9817     		.uleb128 .LEHB216-.LFB1092
 4250 04bf 05       		.uleb128 .LEHE216-.LEHB216
 4251 04c0 00       		.uleb128 0
 4252 04c1 00       		.uleb128 0
 4253 04c2 B017     		.uleb128 .LEHB217-.LFB1092
 4254 04c4 05       		.uleb128 .LEHE217-.LEHB217
 4255 04c5 00       		.uleb128 0
 4256 04c6 00       		.uleb128 0
 4257 04c7 BF17     		.uleb128 .LEHB218-.LFB1092
 4258 04c9 38       		.uleb128 .LEHE218-.LEHB218
 4259 04ca 8118     		.uleb128 .L313-.LFB1092
 4260 04cc 00       		.uleb128 0
 4261 04cd F717     		.uleb128 .LEHB219-.LFB1092
 4262 04cf 05       		.uleb128 .LEHE219-.LEHB219
 4263 04d0 00       		.uleb128 0
 4264 04d1 00       		.uleb128 0
 4265 04d2 8F18     		.uleb128 .LEHB220-.LFB1092
 4266 04d4 05       		.uleb128 .LEHE220-.LEHB220
 4267 04d5 00       		.uleb128 0
 4268 04d6 00       		.uleb128 0
 4269 04d7 9E18     		.uleb128 .LEHB221-.LFB1092
 4270 04d9 38       		.uleb128 .LEHE221-.LEHB221
 4271 04da E018     		.uleb128 .L316-.LFB1092
 4272 04dc 00       		.uleb128 0
 4273 04dd D618     		.uleb128 .LEHB222-.LFB1092
 4274 04df 05       		.uleb128 .LEHE222-.LEHB222
 4275 04e0 00       		.uleb128 0
 4276 04e1 00       		.uleb128 0
 4277 04e2 EE18     		.uleb128 .LEHB223-.LFB1092
 4278 04e4 05       		.uleb128 .LEHE223-.LEHB223
 4279 04e5 00       		.uleb128 0
 4280 04e6 00       		.uleb128 0
 4281              	.LLSDACSE1092:
 4282 04e7 01       		.byte	0x1
 4283 04e8 00       		.byte	0
 4284 04e9 00       		.byte	0
 4285 04ea 7D       		.byte	0x7d
 4286 04eb 00       		.align 4
 4287 04ec 00000000 		.long	0
 4288              	
 4289              	.LLSDATT1092:
 4290              		.text
 4292              		.section	.rodata
 4293              	.LC25:
 4294 0513 51756575 		.string	"Queue_testPutTake"
 4294      655F7465 
 4294      73745075 
 4294      7454616B 
 4294      6500
 4295              		.section	.text._ZN21TestQueue_testPutTakeC2Ev,"axG",@progbits,_ZN21TestQueue_testPutTakeC5Ev,comda
 4296              		.align 2
 4297              		.weak	_ZN21TestQueue_testPutTakeC2Ev
 4299              	_ZN21TestQueue_testPutTakeC2Ev:
 4300              	.LFB1094:
 165:testCore.cpp  **** 
 166:testCore.cpp  **** TEST(Queue_testPutTake) {
 4301              		.loc 3 166 0
 4302              		.cfi_startproc
 4303 0000 55       		pushq	%rbp
 4304              		.cfi_def_cfa_offset 16
 4305              		.cfi_offset 6, -16
 4306 0001 4889E5   		movq	%rsp, %rbp
 4307              		.cfi_def_cfa_register 6
 4308 0004 4883EC10 		subq	$16, %rsp
 4309 0008 48897DF8 		movq	%rdi, -8(%rbp)
 4310              	.LBB7:
 4311              		.loc 3 166 0
 4312 000c E8000000 		call	_ZN13UnitTestSuite12GetSuiteNameEv
 4312      00
 4313 0011 4889C2   		movq	%rax, %rdx
 4314 0014 488B45F8 		movq	-8(%rbp), %rax
 4315 0018 41B8A600 		movl	$166, %r8d
 4315      0000
 4316 001e B9000000 		movl	$.LC1, %ecx
 4316      00
 4317 0023 BE000000 		movl	$.LC25, %esi
 4317      00
 4318 0028 4889C7   		movq	%rax, %rdi
 4319 002b E8000000 		call	_ZN8UnitTest4TestC2EPKcS2_S2_i
 4319      00
 4320 0030 BA000000 		movl	$_ZTV21TestQueue_testPutTake+16, %edx
 4320      00
 4321 0035 488B45F8 		movq	-8(%rbp), %rax
 4322 0039 488910   		movq	%rdx, (%rax)
 4323              	.LBE7:
 4324 003c 90       		nop
 4325 003d C9       		leave
 4326              		.cfi_def_cfa 7, 8
 4327 003e C3       		ret
 4328              		.cfi_endproc
 4329              	.LFE1094:
 4331              		.weak	_ZN21TestQueue_testPutTakeC1Ev
 4332              		.set	_ZN21TestQueue_testPutTakeC1Ev,_ZN21TestQueue_testPutTakeC2Ev
 4333              		.globl	testQueue_testPutTakeInstance
 4334              		.bss
 4335 00b9 00000000 		.align 32
 4335      000000
 4338              	testQueue_testPutTakeInstance:
 4339 00c0 00000000 		.zero	56
 4339      00000000 
 4339      00000000 
 4339      00000000 
 4339      00000000 
 4340              		.globl	adderQueue_testPutTake
 4343              	adderQueue_testPutTake:
 4344 00f8 00       		.zero	1
 4345              		.section	.rodata
 4346 0525 000000   		.align 8
 4347              	.LC26:
 4348 0528 556E6861 		.string	"Unhandled exception in CHECK_EQUAL(5UL, *item)"
 4348      6E646C65 
 4348      64206578 
 4348      63657074 
 4348      696F6E20 
 4349 0557 00       		.align 8
 4350              	.LC27:
 4351 0558 556E6861 		.string	"Unhandled exception in CHECK_EQUAL(6UL, *item)"
 4351      6E646C65 
 4351      64206578 
 4351      63657074 
 4351      696F6E20 
 4352 0587 00       		.align 8
 4353              	.LC28:
 4354 0588 556E6861 		.string	"Unhandled exception in CHECK_EQUAL(7UL, *item)"
 4354      6E646C65 
 4354      64206578 
 4354      63657074 
 4354      696F6E20 
 4355 05b7 00       		.align 8
 4356              	.LC29:
 4357 05b8 556E6861 		.string	"Unhandled exception in CHECK_EQUAL(8UL, *item)"
 4357      6E646C65 
 4357      64206578 
 4357      63657074 
 4357      696F6E20 
 4358              		.text
 4359              		.align 2
 4360              		.globl	_ZNK21TestQueue_testPutTake7RunImplEv
 4362              	_ZNK21TestQueue_testPutTake7RunImplEv:
 4363              	.LFB1096:
 4364              		.loc 3 166 0
 4365              		.cfi_startproc
 4366              		.cfi_personality 0x3,__gxx_personality_v0
 4367              		.cfi_lsda 0x3,.LLSDA1096
 4368 1eba 55       		pushq	%rbp
 4369              		.cfi_def_cfa_offset 16
 4370              		.cfi_offset 6, -16
 4371 1ebb 4889E5   		movq	%rsp, %rbp
 4372              		.cfi_def_cfa_register 6
 4373 1ebe 53       		pushq	%rbx
 4374 1ebf 4881EC98 		subq	$152, %rsp
 4374      000000
 4375              		.cfi_offset 3, -24
 4376 1ec6 4889BD68 		movq	%rdi, -152(%rbp)
 4376      FFFFFF
 4377              		.loc 3 166 0
 4378 1ecd 64488B04 		movq	%fs:40, %rax
 4378      25280000 
 4378      00
 4379 1ed6 488945E8 		movq	%rax, -24(%rbp)
 4380 1eda 31C0     		xorl	%eax, %eax
 167:testCore.cpp  **** 	struct UnboundedQueue queue;
 168:testCore.cpp  **** 	uint32 *item;
 169:testCore.cpp  **** 	m_count = 1;
 4381              		.loc 3 169 0
 4382 1edc C7050000 		movl	$1, _ZL7m_count(%rip)
 4382      00000100 
 4382      0000
 170:testCore.cpp  **** 
 171:testCore.cpp  **** 	// Create queue
 172:testCore.cpp  **** 	USBStatus status = queueInit(&queue, 4, (CreateFunc)createInt, (DestroyFunc)destroyInt);
 4383              		.loc 3 172 0
 4384 1ee6 488D45B0 		leaq	-80(%rbp), %rax
 4385 1eea B9000000 		movl	$destroyInt, %ecx
 4385      00
 4386 1eef BA000000 		movl	$createInt, %edx
 4386      00
 4387 1ef4 BE040000 		movl	$4, %esi
 4387      00
 4388 1ef9 4889C7   		movq	%rax, %rdi
 4389              	.LEHB224:
 4390 1efc E8000000 		call	queueInit
 4390      00
 4391              	.LEHE224:
 4392 1f01 898578FF 		movl	%eax, -136(%rbp)
 4392      FFFF
 4393              	.LEHB225:
 173:testCore.cpp  **** 	CHECK_EQUAL(USB_SUCCESS, status);
 4394              		.loc 3 173 0
 4395 1f07 E8000000 		call	_ZN8UnitTest11CurrentTest7DetailsEv
 4395      00
 4396 1f0c 488B08   		movq	(%rax), %rcx
 4397 1f0f 488D4590 		leaq	-112(%rbp), %rax
 4398 1f13 BAAD0000 		movl	$173, %edx
 4398      00
 4399 1f18 4889CE   		movq	%rcx, %rsi
 4400 1f1b 4889C7   		movq	%rax, %rdi
 4401 1f1e E8000000 		call	_ZN8UnitTest11TestDetailsC1ERKS0_i
 4401      00
 4402              	.LEHE225:
 4403              		.loc 3 173 0 is_stmt 0 discriminator 2
 4404 1f23 C7458800 		movl	$0, -120(%rbp)
 4404      000000
 4405              	.LEHB226:
 4406 1f2a E8000000 		call	_ZN8UnitTest11CurrentTest7ResultsEv
 4406      00
 4407 1f2f 488B00   		movq	(%rax), %rax
 4408 1f32 488D4D90 		leaq	-112(%rbp), %rcx
 4409 1f36 488D9578 		leaq	-136(%rbp), %rdx
 4409      FFFFFF
 4410 1f3d 488D7588 		leaq	-120(%rbp), %rsi
 4411 1f41 4889C7   		movq	%rax, %rdi
 4412 1f44 E8000000 		call	_ZN8UnitTest10CheckEqualI9USBStatusS1_EEvRNS_11TestResultsERKT_RKT0_RKNS_11TestDetailsE
 4412      00
 4413              	.LEHE226:
 4414              	.L322:
 174:testCore.cpp  **** 
 175:testCore.cpp  **** 	// Put four items into the queue
 176:testCore.cpp  **** 	status = queuePut(&queue, (Item*)&item);
 4415              		.loc 3 176 0 is_stmt 1
 4416 1f49 488D5580 		leaq	-128(%rbp), %rdx
 4417 1f4d 488D45B0 		leaq	-80(%rbp), %rax
 4418 1f51 4889D6   		movq	%rdx, %rsi
 4419 1f54 4889C7   		movq	%rax, %rdi
 4420              	.LEHB227:
 4421 1f57 E8000000 		call	queuePut
 4421      00
 4422              	.LEHE227:
 4423 1f5c 898578FF 		movl	%eax, -136(%rbp)
 4423      FFFF
 4424              	.LEHB228:
 177:testCore.cpp  **** 	CHECK_EQUAL(USB_SUCCESS, status);
 4425              		.loc 3 177 0
 4426 1f62 E8000000 		call	_ZN8UnitTest11CurrentTest7DetailsEv
 4426      00
 4427 1f67 488B08   		movq	(%rax), %rcx
 4428 1f6a 488D4590 		leaq	-112(%rbp), %rax
 4429 1f6e BAB10000 		movl	$177, %edx
 4429      00
 4430 1f73 4889CE   		movq	%rcx, %rsi
 4431 1f76 4889C7   		movq	%rax, %rdi
 4432 1f79 E8000000 		call	_ZN8UnitTest11TestDetailsC1ERKS0_i
 4432      00
 4433              	.LEHE228:
 4434              		.loc 3 177 0 is_stmt 0 discriminator 2
 4435 1f7e C7458800 		movl	$0, -120(%rbp)
 4435      000000
 4436              	.LEHB229:
 4437 1f85 E8000000 		call	_ZN8UnitTest11CurrentTest7ResultsEv
 4437      00
 4438 1f8a 488B00   		movq	(%rax), %rax
 4439 1f8d 488D4D90 		leaq	-112(%rbp), %rcx
 4440 1f91 488D9578 		leaq	-136(%rbp), %rdx
 4440      FFFFFF
 4441 1f98 488D7588 		leaq	-120(%rbp), %rsi
 4442 1f9c 4889C7   		movq	%rax, %rdi
 4443 1f9f E8000000 		call	_ZN8UnitTest10CheckEqualI9USBStatusS1_EEvRNS_11TestResultsERKT_RKT0_RKNS_11TestDetailsE
 4443      00
 4444              	.LEHE229:
 4445              	.L326:
 4446              	.LEHB230:
 178:testCore.cpp  **** 	CHECK_EQUAL(1UL, *item);
 4447              		.loc 3 178 0 is_stmt 1
 4448 1fa4 E8000000 		call	_ZN8UnitTest11CurrentTest7DetailsEv
 4448      00
 4449 1fa9 488B08   		movq	(%rax), %rcx
 4450 1fac 488D4590 		leaq	-112(%rbp), %rax
 4451 1fb0 BAB20000 		movl	$178, %edx
 4451      00
 4452 1fb5 4889CE   		movq	%rcx, %rsi
 4453 1fb8 4889C7   		movq	%rax, %rdi
 4454 1fbb E8000000 		call	_ZN8UnitTest11TestDetailsC1ERKS0_i
 4454      00
 4455              	.LEHE230:
 4456              		.loc 3 178 0 is_stmt 0 discriminator 2
 4457 1fc0 488B5D80 		movq	-128(%rbp), %rbx
 4458 1fc4 48C74588 		movq	$1, -120(%rbp)
 4458      01000000 
 4459              	.LEHB231:
 4460 1fcc E8000000 		call	_ZN8UnitTest11CurrentTest7ResultsEv
 4460      00
 4461 1fd1 488B00   		movq	(%rax), %rax
 4462 1fd4 488D5590 		leaq	-112(%rbp), %rdx
 4463 1fd8 488D7588 		leaq	-120(%rbp), %rsi
 4464 1fdc 4889D1   		movq	%rdx, %rcx
 4465 1fdf 4889DA   		movq	%rbx, %rdx
 4466 1fe2 4889C7   		movq	%rax, %rdi
 4467 1fe5 E8000000 		call	_ZN8UnitTest10CheckEqualImjEEvRNS_11TestResultsERKT_RKT0_RKNS_11TestDetailsE
 4467      00
 4468              	.LEHE231:
 4469              	.L330:
 179:testCore.cpp  **** 	*item = 5;
 4470              		.loc 3 179 0 is_stmt 1
 4471 1fea 488B4580 		movq	-128(%rbp), %rax
 4472 1fee C7000500 		movl	$5, (%rax)
 4472      0000
 180:testCore.cpp  **** 	queueCommitPut(&queue);
 4473              		.loc 3 180 0
 4474 1ff4 488D45B0 		leaq	-80(%rbp), %rax
 4475 1ff8 4889C7   		movq	%rax, %rdi
 4476              	.LEHB232:
 4477 1ffb E8000000 		call	queueCommitPut
 4477      00
 181:testCore.cpp  **** 	status = queuePut(&queue, (Item*)&item);
 4478              		.loc 3 181 0
 4479 2000 488D5580 		leaq	-128(%rbp), %rdx
 4480 2004 488D45B0 		leaq	-80(%rbp), %rax
 4481 2008 4889D6   		movq	%rdx, %rsi
 4482 200b 4889C7   		movq	%rax, %rdi
 4483 200e E8000000 		call	queuePut
 4483      00
 4484              	.LEHE232:
 4485 2013 898578FF 		movl	%eax, -136(%rbp)
 4485      FFFF
 4486              	.LEHB233:
 182:testCore.cpp  **** 	CHECK_EQUAL(USB_SUCCESS, status);
 4487              		.loc 3 182 0
 4488 2019 E8000000 		call	_ZN8UnitTest11CurrentTest7DetailsEv
 4488      00
 4489 201e 488B08   		movq	(%rax), %rcx
 4490 2021 488D4590 		leaq	-112(%rbp), %rax
 4491 2025 BAB60000 		movl	$182, %edx
 4491      00
 4492 202a 4889CE   		movq	%rcx, %rsi
 4493 202d 4889C7   		movq	%rax, %rdi
 4494 2030 E8000000 		call	_ZN8UnitTest11TestDetailsC1ERKS0_i
 4494      00
 4495              	.LEHE233:
 4496              		.loc 3 182 0 is_stmt 0 discriminator 2
 4497 2035 C7458800 		movl	$0, -120(%rbp)
 4497      000000
 4498              	.LEHB234:
 4499 203c E8000000 		call	_ZN8UnitTest11CurrentTest7ResultsEv
 4499      00
 4500 2041 488B00   		movq	(%rax), %rax
 4501 2044 488D4D90 		leaq	-112(%rbp), %rcx
 4502 2048 488D9578 		leaq	-136(%rbp), %rdx
 4502      FFFFFF
 4503 204f 488D7588 		leaq	-120(%rbp), %rsi
 4504 2053 4889C7   		movq	%rax, %rdi
 4505 2056 E8000000 		call	_ZN8UnitTest10CheckEqualI9USBStatusS1_EEvRNS_11TestResultsERKT_RKT0_RKNS_11TestDetailsE
 4505      00
 4506              	.LEHE234:
 4507              	.L334:
 4508              	.LEHB235:
 183:testCore.cpp  **** 	CHECK_EQUAL(2UL, *item);
 4509              		.loc 3 183 0 is_stmt 1
 4510 205b E8000000 		call	_ZN8UnitTest11CurrentTest7DetailsEv
 4510      00
 4511 2060 488B08   		movq	(%rax), %rcx
 4512 2063 488D4590 		leaq	-112(%rbp), %rax
 4513 2067 BAB70000 		movl	$183, %edx
 4513      00
 4514 206c 4889CE   		movq	%rcx, %rsi
 4515 206f 4889C7   		movq	%rax, %rdi
 4516 2072 E8000000 		call	_ZN8UnitTest11TestDetailsC1ERKS0_i
 4516      00
 4517              	.LEHE235:
 4518              		.loc 3 183 0 is_stmt 0 discriminator 2
 4519 2077 488B5D80 		movq	-128(%rbp), %rbx
 4520 207b 48C74588 		movq	$2, -120(%rbp)
 4520      02000000 
 4521              	.LEHB236:
 4522 2083 E8000000 		call	_ZN8UnitTest11CurrentTest7ResultsEv
 4522      00
 4523 2088 488B00   		movq	(%rax), %rax
 4524 208b 488D5590 		leaq	-112(%rbp), %rdx
 4525 208f 488D7588 		leaq	-120(%rbp), %rsi
 4526 2093 4889D1   		movq	%rdx, %rcx
 4527 2096 4889DA   		movq	%rbx, %rdx
 4528 2099 4889C7   		movq	%rax, %rdi
 4529 209c E8000000 		call	_ZN8UnitTest10CheckEqualImjEEvRNS_11TestResultsERKT_RKT0_RKNS_11TestDetailsE
 4529      00
 4530              	.LEHE236:
 4531              	.L338:
 184:testCore.cpp  **** 	*item = 6;
 4532              		.loc 3 184 0 is_stmt 1
 4533 20a1 488B4580 		movq	-128(%rbp), %rax
 4534 20a5 C7000600 		movl	$6, (%rax)
 4534      0000
 185:testCore.cpp  **** 	queueCommitPut(&queue);
 4535              		.loc 3 185 0
 4536 20ab 488D45B0 		leaq	-80(%rbp), %rax
 4537 20af 4889C7   		movq	%rax, %rdi
 4538              	.LEHB237:
 4539 20b2 E8000000 		call	queueCommitPut
 4539      00
 186:testCore.cpp  **** 	status = queuePut(&queue, (Item*)&item);
 4540              		.loc 3 186 0
 4541 20b7 488D5580 		leaq	-128(%rbp), %rdx
 4542 20bb 488D45B0 		leaq	-80(%rbp), %rax
 4543 20bf 4889D6   		movq	%rdx, %rsi
 4544 20c2 4889C7   		movq	%rax, %rdi
 4545 20c5 E8000000 		call	queuePut
 4545      00
 4546              	.LEHE237:
 4547 20ca 898578FF 		movl	%eax, -136(%rbp)
 4547      FFFF
 4548              	.LEHB238:
 187:testCore.cpp  **** 	CHECK_EQUAL(USB_SUCCESS, status);
 4549              		.loc 3 187 0
 4550 20d0 E8000000 		call	_ZN8UnitTest11CurrentTest7DetailsEv
 4550      00
 4551 20d5 488B08   		movq	(%rax), %rcx
 4552 20d8 488D4590 		leaq	-112(%rbp), %rax
 4553 20dc BABB0000 		movl	$187, %edx
 4553      00
 4554 20e1 4889CE   		movq	%rcx, %rsi
 4555 20e4 4889C7   		movq	%rax, %rdi
 4556 20e7 E8000000 		call	_ZN8UnitTest11TestDetailsC1ERKS0_i
 4556      00
 4557              	.LEHE238:
 4558              		.loc 3 187 0 is_stmt 0 discriminator 2
 4559 20ec C7458800 		movl	$0, -120(%rbp)
 4559      000000
 4560              	.LEHB239:
 4561 20f3 E8000000 		call	_ZN8UnitTest11CurrentTest7ResultsEv
 4561      00
 4562 20f8 488B00   		movq	(%rax), %rax
 4563 20fb 488D4D90 		leaq	-112(%rbp), %rcx
 4564 20ff 488D9578 		leaq	-136(%rbp), %rdx
 4564      FFFFFF
 4565 2106 488D7588 		leaq	-120(%rbp), %rsi
 4566 210a 4889C7   		movq	%rax, %rdi
 4567 210d E8000000 		call	_ZN8UnitTest10CheckEqualI9USBStatusS1_EEvRNS_11TestResultsERKT_RKT0_RKNS_11TestDetailsE
 4567      00
 4568              	.LEHE239:
 4569              	.L342:
 4570              	.LEHB240:
 188:testCore.cpp  **** 	CHECK_EQUAL(3UL, *item);
 4571              		.loc 3 188 0 is_stmt 1
 4572 2112 E8000000 		call	_ZN8UnitTest11CurrentTest7DetailsEv
 4572      00
 4573 2117 488B08   		movq	(%rax), %rcx
 4574 211a 488D4590 		leaq	-112(%rbp), %rax
 4575 211e BABC0000 		movl	$188, %edx
 4575      00
 4576 2123 4889CE   		movq	%rcx, %rsi
 4577 2126 4889C7   		movq	%rax, %rdi
 4578 2129 E8000000 		call	_ZN8UnitTest11TestDetailsC1ERKS0_i
 4578      00
 4579              	.LEHE240:
 4580              		.loc 3 188 0 is_stmt 0 discriminator 2
 4581 212e 488B5D80 		movq	-128(%rbp), %rbx
 4582 2132 48C74588 		movq	$3, -120(%rbp)
 4582      03000000 
 4583              	.LEHB241:
 4584 213a E8000000 		call	_ZN8UnitTest11CurrentTest7ResultsEv
 4584      00
 4585 213f 488B00   		movq	(%rax), %rax
 4586 2142 488D5590 		leaq	-112(%rbp), %rdx
 4587 2146 488D7588 		leaq	-120(%rbp), %rsi
 4588 214a 4889D1   		movq	%rdx, %rcx
 4589 214d 4889DA   		movq	%rbx, %rdx
 4590 2150 4889C7   		movq	%rax, %rdi
 4591 2153 E8000000 		call	_ZN8UnitTest10CheckEqualImjEEvRNS_11TestResultsERKT_RKT0_RKNS_11TestDetailsE
 4591      00
 4592              	.LEHE241:
 4593              	.L346:
 189:testCore.cpp  **** 	*item = 7;
 4594              		.loc 3 189 0 is_stmt 1
 4595 2158 488B4580 		movq	-128(%rbp), %rax
 4596 215c C7000700 		movl	$7, (%rax)
 4596      0000
 190:testCore.cpp  **** 	queueCommitPut(&queue);
 4597              		.loc 3 190 0
 4598 2162 488D45B0 		leaq	-80(%rbp), %rax
 4599 2166 4889C7   		movq	%rax, %rdi
 4600              	.LEHB242:
 4601 2169 E8000000 		call	queueCommitPut
 4601      00
 191:testCore.cpp  **** 	status = queuePut(&queue, (Item*)&item);
 4602              		.loc 3 191 0
 4603 216e 488D5580 		leaq	-128(%rbp), %rdx
 4604 2172 488D45B0 		leaq	-80(%rbp), %rax
 4605 2176 4889D6   		movq	%rdx, %rsi
 4606 2179 4889C7   		movq	%rax, %rdi
 4607 217c E8000000 		call	queuePut
 4607      00
 4608              	.LEHE242:
 4609 2181 898578FF 		movl	%eax, -136(%rbp)
 4609      FFFF
 4610              	.LEHB243:
 192:testCore.cpp  **** 	CHECK_EQUAL(USB_SUCCESS, status);
 4611              		.loc 3 192 0
 4612 2187 E8000000 		call	_ZN8UnitTest11CurrentTest7DetailsEv
 4612      00
 4613 218c 488B08   		movq	(%rax), %rcx
 4614 218f 488D4590 		leaq	-112(%rbp), %rax
 4615 2193 BAC00000 		movl	$192, %edx
 4615      00
 4616 2198 4889CE   		movq	%rcx, %rsi
 4617 219b 4889C7   		movq	%rax, %rdi
 4618 219e E8000000 		call	_ZN8UnitTest11TestDetailsC1ERKS0_i
 4618      00
 4619              	.LEHE243:
 4620              		.loc 3 192 0 is_stmt 0 discriminator 2
 4621 21a3 C7458800 		movl	$0, -120(%rbp)
 4621      000000
 4622              	.LEHB244:
 4623 21aa E8000000 		call	_ZN8UnitTest11CurrentTest7ResultsEv
 4623      00
 4624 21af 488B00   		movq	(%rax), %rax
 4625 21b2 488D4D90 		leaq	-112(%rbp), %rcx
 4626 21b6 488D9578 		leaq	-136(%rbp), %rdx
 4626      FFFFFF
 4627 21bd 488D7588 		leaq	-120(%rbp), %rsi
 4628 21c1 4889C7   		movq	%rax, %rdi
 4629 21c4 E8000000 		call	_ZN8UnitTest10CheckEqualI9USBStatusS1_EEvRNS_11TestResultsERKT_RKT0_RKNS_11TestDetailsE
 4629      00
 4630              	.LEHE244:
 4631              	.L350:
 4632              	.LEHB245:
 193:testCore.cpp  **** 	CHECK_EQUAL(4UL, *item);
 4633              		.loc 3 193 0 is_stmt 1
 4634 21c9 E8000000 		call	_ZN8UnitTest11CurrentTest7DetailsEv
 4634      00
 4635 21ce 488B08   		movq	(%rax), %rcx
 4636 21d1 488D4590 		leaq	-112(%rbp), %rax
 4637 21d5 BAC10000 		movl	$193, %edx
 4637      00
 4638 21da 4889CE   		movq	%rcx, %rsi
 4639 21dd 4889C7   		movq	%rax, %rdi
 4640 21e0 E8000000 		call	_ZN8UnitTest11TestDetailsC1ERKS0_i
 4640      00
 4641              	.LEHE245:
 4642              		.loc 3 193 0 is_stmt 0 discriminator 2
 4643 21e5 488B5D80 		movq	-128(%rbp), %rbx
 4644 21e9 48C74588 		movq	$4, -120(%rbp)
 4644      04000000 
 4645              	.LEHB246:
 4646 21f1 E8000000 		call	_ZN8UnitTest11CurrentTest7ResultsEv
 4646      00
 4647 21f6 488B00   		movq	(%rax), %rax
 4648 21f9 488D5590 		leaq	-112(%rbp), %rdx
 4649 21fd 488D7588 		leaq	-120(%rbp), %rsi
 4650 2201 4889D1   		movq	%rdx, %rcx
 4651 2204 4889DA   		movq	%rbx, %rdx
 4652 2207 4889C7   		movq	%rax, %rdi
 4653 220a E8000000 		call	_ZN8UnitTest10CheckEqualImjEEvRNS_11TestResultsERKT_RKT0_RKNS_11TestDetailsE
 4653      00
 4654              	.LEHE246:
 4655              	.L354:
 194:testCore.cpp  **** 	*item = 8;
 4656              		.loc 3 194 0 is_stmt 1
 4657 220f 488B4580 		movq	-128(%rbp), %rax
 4658 2213 C7000800 		movl	$8, (%rax)
 4658      0000
 195:testCore.cpp  **** 	queueCommitPut(&queue);
 4659              		.loc 3 195 0
 4660 2219 488D45B0 		leaq	-80(%rbp), %rax
 4661 221d 4889C7   		movq	%rax, %rdi
 4662              	.LEHB247:
 4663 2220 E8000000 		call	queueCommitPut
 4663      00
 196:testCore.cpp  **** 
 197:testCore.cpp  **** 	// Take four items out of the queue
 198:testCore.cpp  **** 	status = queueTake(&queue, (Item*)&item);
 4664              		.loc 3 198 0
 4665 2225 488D5580 		leaq	-128(%rbp), %rdx
 4666 2229 488D45B0 		leaq	-80(%rbp), %rax
 4667 222d 4889D6   		movq	%rdx, %rsi
 4668 2230 4889C7   		movq	%rax, %rdi
 4669 2233 E8000000 		call	queueTake
 4669      00
 4670              	.LEHE247:
 4671 2238 898578FF 		movl	%eax, -136(%rbp)
 4671      FFFF
 4672              	.LEHB248:
 199:testCore.cpp  **** 	CHECK_EQUAL(USB_SUCCESS, status);
 4673              		.loc 3 199 0
 4674 223e E8000000 		call	_ZN8UnitTest11CurrentTest7DetailsEv
 4674      00
 4675 2243 488B08   		movq	(%rax), %rcx
 4676 2246 488D4590 		leaq	-112(%rbp), %rax
 4677 224a BAC70000 		movl	$199, %edx
 4677      00
 4678 224f 4889CE   		movq	%rcx, %rsi
 4679 2252 4889C7   		movq	%rax, %rdi
 4680 2255 E8000000 		call	_ZN8UnitTest11TestDetailsC1ERKS0_i
 4680      00
 4681              	.LEHE248:
 4682              		.loc 3 199 0 is_stmt 0 discriminator 2
 4683 225a C7458800 		movl	$0, -120(%rbp)
 4683      000000
 4684              	.LEHB249:
 4685 2261 E8000000 		call	_ZN8UnitTest11CurrentTest7ResultsEv
 4685      00
 4686 2266 488B00   		movq	(%rax), %rax
 4687 2269 488D4D90 		leaq	-112(%rbp), %rcx
 4688 226d 488D9578 		leaq	-136(%rbp), %rdx
 4688      FFFFFF
 4689 2274 488D7588 		leaq	-120(%rbp), %rsi
 4690 2278 4889C7   		movq	%rax, %rdi
 4691 227b E8000000 		call	_ZN8UnitTest10CheckEqualI9USBStatusS1_EEvRNS_11TestResultsERKT_RKT0_RKNS_11TestDetailsE
 4691      00
 4692              	.LEHE249:
 4693              	.L358:
 4694              	.LEHB250:
 200:testCore.cpp  **** 	CHECK_EQUAL(5UL, *item);
 4695              		.loc 3 200 0 is_stmt 1
 4696 2280 E8000000 		call	_ZN8UnitTest11CurrentTest7DetailsEv
 4696      00
 4697 2285 488B08   		movq	(%rax), %rcx
 4698 2288 488D4590 		leaq	-112(%rbp), %rax
 4699 228c BAC80000 		movl	$200, %edx
 4699      00
 4700 2291 4889CE   		movq	%rcx, %rsi
 4701 2294 4889C7   		movq	%rax, %rdi
 4702 2297 E8000000 		call	_ZN8UnitTest11TestDetailsC1ERKS0_i
 4702      00
 4703              	.LEHE250:
 4704              		.loc 3 200 0 is_stmt 0 discriminator 2
 4705 229c 488B5D80 		movq	-128(%rbp), %rbx
 4706 22a0 48C74588 		movq	$5, -120(%rbp)
 4706      05000000 
 4707              	.LEHB251:
 4708 22a8 E8000000 		call	_ZN8UnitTest11CurrentTest7ResultsEv
 4708      00
 4709 22ad 488B00   		movq	(%rax), %rax
 4710 22b0 488D5590 		leaq	-112(%rbp), %rdx
 4711 22b4 488D7588 		leaq	-120(%rbp), %rsi
 4712 22b8 4889D1   		movq	%rdx, %rcx
 4713 22bb 4889DA   		movq	%rbx, %rdx
 4714 22be 4889C7   		movq	%rax, %rdi
 4715 22c1 E8000000 		call	_ZN8UnitTest10CheckEqualImjEEvRNS_11TestResultsERKT_RKT0_RKNS_11TestDetailsE
 4715      00
 4716              	.LEHE251:
 4717              	.L362:
 201:testCore.cpp  **** 	queueCommitTake(&queue);
 4718              		.loc 3 201 0 is_stmt 1
 4719 22c6 488D45B0 		leaq	-80(%rbp), %rax
 4720 22ca 4889C7   		movq	%rax, %rdi
 4721              	.LEHB252:
 4722 22cd E8000000 		call	queueCommitTake
 4722      00
 202:testCore.cpp  **** 	status = queueTake(&queue, (Item*)&item);
 4723              		.loc 3 202 0
 4724 22d2 488D5580 		leaq	-128(%rbp), %rdx
 4725 22d6 488D45B0 		leaq	-80(%rbp), %rax
 4726 22da 4889D6   		movq	%rdx, %rsi
 4727 22dd 4889C7   		movq	%rax, %rdi
 4728 22e0 E8000000 		call	queueTake
 4728      00
 4729              	.LEHE252:
 4730 22e5 898578FF 		movl	%eax, -136(%rbp)
 4730      FFFF
 4731              	.LEHB253:
 203:testCore.cpp  **** 	CHECK_EQUAL(USB_SUCCESS, status);
 4732              		.loc 3 203 0
 4733 22eb E8000000 		call	_ZN8UnitTest11CurrentTest7DetailsEv
 4733      00
 4734 22f0 488B08   		movq	(%rax), %rcx
 4735 22f3 488D4590 		leaq	-112(%rbp), %rax
 4736 22f7 BACB0000 		movl	$203, %edx
 4736      00
 4737 22fc 4889CE   		movq	%rcx, %rsi
 4738 22ff 4889C7   		movq	%rax, %rdi
 4739 2302 E8000000 		call	_ZN8UnitTest11TestDetailsC1ERKS0_i
 4739      00
 4740              	.LEHE253:
 4741              		.loc 3 203 0 is_stmt 0 discriminator 2
 4742 2307 C7458800 		movl	$0, -120(%rbp)
 4742      000000
 4743              	.LEHB254:
 4744 230e E8000000 		call	_ZN8UnitTest11CurrentTest7ResultsEv
 4744      00
 4745 2313 488B00   		movq	(%rax), %rax
 4746 2316 488D4D90 		leaq	-112(%rbp), %rcx
 4747 231a 488D9578 		leaq	-136(%rbp), %rdx
 4747      FFFFFF
 4748 2321 488D7588 		leaq	-120(%rbp), %rsi
 4749 2325 4889C7   		movq	%rax, %rdi
 4750 2328 E8000000 		call	_ZN8UnitTest10CheckEqualI9USBStatusS1_EEvRNS_11TestResultsERKT_RKT0_RKNS_11TestDetailsE
 4750      00
 4751              	.LEHE254:
 4752              	.L366:
 4753              	.LEHB255:
 204:testCore.cpp  **** 	CHECK_EQUAL(6UL, *item);
 4754              		.loc 3 204 0 is_stmt 1
 4755 232d E8000000 		call	_ZN8UnitTest11CurrentTest7DetailsEv
 4755      00
 4756 2332 488B08   		movq	(%rax), %rcx
 4757 2335 488D4590 		leaq	-112(%rbp), %rax
 4758 2339 BACC0000 		movl	$204, %edx
 4758      00
 4759 233e 4889CE   		movq	%rcx, %rsi
 4760 2341 4889C7   		movq	%rax, %rdi
 4761 2344 E8000000 		call	_ZN8UnitTest11TestDetailsC1ERKS0_i
 4761      00
 4762              	.LEHE255:
 4763              		.loc 3 204 0 is_stmt 0 discriminator 2
 4764 2349 488B5D80 		movq	-128(%rbp), %rbx
 4765 234d 48C74588 		movq	$6, -120(%rbp)
 4765      06000000 
 4766              	.LEHB256:
 4767 2355 E8000000 		call	_ZN8UnitTest11CurrentTest7ResultsEv
 4767      00
 4768 235a 488B00   		movq	(%rax), %rax
 4769 235d 488D5590 		leaq	-112(%rbp), %rdx
 4770 2361 488D7588 		leaq	-120(%rbp), %rsi
 4771 2365 4889D1   		movq	%rdx, %rcx
 4772 2368 4889DA   		movq	%rbx, %rdx
 4773 236b 4889C7   		movq	%rax, %rdi
 4774 236e E8000000 		call	_ZN8UnitTest10CheckEqualImjEEvRNS_11TestResultsERKT_RKT0_RKNS_11TestDetailsE
 4774      00
 4775              	.LEHE256:
 4776              	.L370:
 205:testCore.cpp  **** 	queueCommitTake(&queue);
 4777              		.loc 3 205 0 is_stmt 1
 4778 2373 488D45B0 		leaq	-80(%rbp), %rax
 4779 2377 4889C7   		movq	%rax, %rdi
 4780              	.LEHB257:
 4781 237a E8000000 		call	queueCommitTake
 4781      00
 206:testCore.cpp  **** 	status = queueTake(&queue, (Item*)&item);
 4782              		.loc 3 206 0
 4783 237f 488D5580 		leaq	-128(%rbp), %rdx
 4784 2383 488D45B0 		leaq	-80(%rbp), %rax
 4785 2387 4889D6   		movq	%rdx, %rsi
 4786 238a 4889C7   		movq	%rax, %rdi
 4787 238d E8000000 		call	queueTake
 4787      00
 4788              	.LEHE257:
 4789 2392 898578FF 		movl	%eax, -136(%rbp)
 4789      FFFF
 4790              	.LEHB258:
 207:testCore.cpp  **** 	CHECK_EQUAL(USB_SUCCESS, status);
 4791              		.loc 3 207 0
 4792 2398 E8000000 		call	_ZN8UnitTest11CurrentTest7DetailsEv
 4792      00
 4793 239d 488B08   		movq	(%rax), %rcx
 4794 23a0 488D4590 		leaq	-112(%rbp), %rax
 4795 23a4 BACF0000 		movl	$207, %edx
 4795      00
 4796 23a9 4889CE   		movq	%rcx, %rsi
 4797 23ac 4889C7   		movq	%rax, %rdi
 4798 23af E8000000 		call	_ZN8UnitTest11TestDetailsC1ERKS0_i
 4798      00
 4799              	.LEHE258:
 4800              		.loc 3 207 0 is_stmt 0 discriminator 2
 4801 23b4 C7458800 		movl	$0, -120(%rbp)
 4801      000000
 4802              	.LEHB259:
 4803 23bb E8000000 		call	_ZN8UnitTest11CurrentTest7ResultsEv
 4803      00
 4804 23c0 488B00   		movq	(%rax), %rax
 4805 23c3 488D4D90 		leaq	-112(%rbp), %rcx
 4806 23c7 488D9578 		leaq	-136(%rbp), %rdx
 4806      FFFFFF
 4807 23ce 488D7588 		leaq	-120(%rbp), %rsi
 4808 23d2 4889C7   		movq	%rax, %rdi
 4809 23d5 E8000000 		call	_ZN8UnitTest10CheckEqualI9USBStatusS1_EEvRNS_11TestResultsERKT_RKT0_RKNS_11TestDetailsE
 4809      00
 4810              	.LEHE259:
 4811              	.L374:
 4812              	.LEHB260:
 208:testCore.cpp  **** 	CHECK_EQUAL(7UL, *item);
 4813              		.loc 3 208 0 is_stmt 1
 4814 23da E8000000 		call	_ZN8UnitTest11CurrentTest7DetailsEv
 4814      00
 4815 23df 488B08   		movq	(%rax), %rcx
 4816 23e2 488D4590 		leaq	-112(%rbp), %rax
 4817 23e6 BAD00000 		movl	$208, %edx
 4817      00
 4818 23eb 4889CE   		movq	%rcx, %rsi
 4819 23ee 4889C7   		movq	%rax, %rdi
 4820 23f1 E8000000 		call	_ZN8UnitTest11TestDetailsC1ERKS0_i
 4820      00
 4821              	.LEHE260:
 4822              		.loc 3 208 0 is_stmt 0 discriminator 2
 4823 23f6 488B5D80 		movq	-128(%rbp), %rbx
 4824 23fa 48C74588 		movq	$7, -120(%rbp)
 4824      07000000 
 4825              	.LEHB261:
 4826 2402 E8000000 		call	_ZN8UnitTest11CurrentTest7ResultsEv
 4826      00
 4827 2407 488B00   		movq	(%rax), %rax
 4828 240a 488D5590 		leaq	-112(%rbp), %rdx
 4829 240e 488D7588 		leaq	-120(%rbp), %rsi
 4830 2412 4889D1   		movq	%rdx, %rcx
 4831 2415 4889DA   		movq	%rbx, %rdx
 4832 2418 4889C7   		movq	%rax, %rdi
 4833 241b E8000000 		call	_ZN8UnitTest10CheckEqualImjEEvRNS_11TestResultsERKT_RKT0_RKNS_11TestDetailsE
 4833      00
 4834              	.LEHE261:
 4835              	.L378:
 209:testCore.cpp  **** 	queueCommitTake(&queue);
 4836              		.loc 3 209 0 is_stmt 1
 4837 2420 488D45B0 		leaq	-80(%rbp), %rax
 4838 2424 4889C7   		movq	%rax, %rdi
 4839              	.LEHB262:
 4840 2427 E8000000 		call	queueCommitTake
 4840      00
 210:testCore.cpp  **** 	status = queueTake(&queue, (Item*)&item);
 4841              		.loc 3 210 0
 4842 242c 488D5580 		leaq	-128(%rbp), %rdx
 4843 2430 488D45B0 		leaq	-80(%rbp), %rax
 4844 2434 4889D6   		movq	%rdx, %rsi
 4845 2437 4889C7   		movq	%rax, %rdi
 4846 243a E8000000 		call	queueTake
 4846      00
 4847              	.LEHE262:
 4848 243f 898578FF 		movl	%eax, -136(%rbp)
 4848      FFFF
 4849              	.LEHB263:
 211:testCore.cpp  **** 	CHECK_EQUAL(USB_SUCCESS, status);
 4850              		.loc 3 211 0
 4851 2445 E8000000 		call	_ZN8UnitTest11CurrentTest7DetailsEv
 4851      00
 4852 244a 488B08   		movq	(%rax), %rcx
 4853 244d 488D4590 		leaq	-112(%rbp), %rax
 4854 2451 BAD30000 		movl	$211, %edx
 4854      00
 4855 2456 4889CE   		movq	%rcx, %rsi
 4856 2459 4889C7   		movq	%rax, %rdi
 4857 245c E8000000 		call	_ZN8UnitTest11TestDetailsC1ERKS0_i
 4857      00
 4858              	.LEHE263:
 4859              		.loc 3 211 0 is_stmt 0 discriminator 2
 4860 2461 C7458800 		movl	$0, -120(%rbp)
 4860      000000
 4861              	.LEHB264:
 4862 2468 E8000000 		call	_ZN8UnitTest11CurrentTest7ResultsEv
 4862      00
 4863 246d 488B00   		movq	(%rax), %rax
 4864 2470 488D4D90 		leaq	-112(%rbp), %rcx
 4865 2474 488D9578 		leaq	-136(%rbp), %rdx
 4865      FFFFFF
 4866 247b 488D7588 		leaq	-120(%rbp), %rsi
 4867 247f 4889C7   		movq	%rax, %rdi
 4868 2482 E8000000 		call	_ZN8UnitTest10CheckEqualI9USBStatusS1_EEvRNS_11TestResultsERKT_RKT0_RKNS_11TestDetailsE
 4868      00
 4869              	.LEHE264:
 4870              	.L382:
 4871              	.LEHB265:
 212:testCore.cpp  **** 	CHECK_EQUAL(8UL, *item);
 4872              		.loc 3 212 0 is_stmt 1
 4873 2487 E8000000 		call	_ZN8UnitTest11CurrentTest7DetailsEv
 4873      00
 4874 248c 488B08   		movq	(%rax), %rcx
 4875 248f 488D4590 		leaq	-112(%rbp), %rax
 4876 2493 BAD40000 		movl	$212, %edx
 4876      00
 4877 2498 4889CE   		movq	%rcx, %rsi
 4878 249b 4889C7   		movq	%rax, %rdi
 4879 249e E8000000 		call	_ZN8UnitTest11TestDetailsC1ERKS0_i
 4879      00
 4880              	.LEHE265:
 4881              		.loc 3 212 0 is_stmt 0 discriminator 2
 4882 24a3 488B5D80 		movq	-128(%rbp), %rbx
 4883 24a7 48C74588 		movq	$8, -120(%rbp)
 4883      08000000 
 4884              	.LEHB266:
 4885 24af E8000000 		call	_ZN8UnitTest11CurrentTest7ResultsEv
 4885      00
 4886 24b4 488B00   		movq	(%rax), %rax
 4887 24b7 488D5590 		leaq	-112(%rbp), %rdx
 4888 24bb 488D7588 		leaq	-120(%rbp), %rsi
 4889 24bf 4889D1   		movq	%rdx, %rcx
 4890 24c2 4889DA   		movq	%rbx, %rdx
 4891 24c5 4889C7   		movq	%rax, %rdi
 4892 24c8 E8000000 		call	_ZN8UnitTest10CheckEqualImjEEvRNS_11TestResultsERKT_RKT0_RKNS_11TestDetailsE
 4892      00
 4893              	.LEHE266:
 4894              	.L386:
 213:testCore.cpp  **** 	queueCommitTake(&queue);
 4895              		.loc 3 213 0 is_stmt 1
 4896 24cd 488D45B0 		leaq	-80(%rbp), %rax
 4897 24d1 4889C7   		movq	%rax, %rdi
 4898              	.LEHB267:
 4899 24d4 E8000000 		call	queueCommitTake
 4899      00
 4900              	.LEHE267:
 4901              	.LEHB268:
 214:testCore.cpp  **** 
 215:testCore.cpp  **** 	// Verify
 216:testCore.cpp  **** 	CHECK_EQUAL(4UL, queue.capacity);
 4902              		.loc 3 216 0
 4903 24d9 E8000000 		call	_ZN8UnitTest11CurrentTest7DetailsEv
 4903      00
 4904 24de 488B08   		movq	(%rax), %rcx
 4905 24e1 488D4590 		leaq	-112(%rbp), %rax
 4906 24e5 BAD80000 		movl	$216, %edx
 4906      00
 4907 24ea 4889CE   		movq	%rcx, %rsi
 4908 24ed 4889C7   		movq	%rax, %rdi
 4909 24f0 E8000000 		call	_ZN8UnitTest11TestDetailsC1ERKS0_i
 4909      00
 4910              	.LEHE268:
 4911              		.loc 3 216 0 is_stmt 0 discriminator 2
 4912 24f5 48C74588 		movq	$4, -120(%rbp)
 4912      04000000 
 4913              	.LEHB269:
 4914 24fd E8000000 		call	_ZN8UnitTest11CurrentTest7ResultsEv
 4914      00
 4915 2502 488B00   		movq	(%rax), %rax
 4916 2505 488D5590 		leaq	-112(%rbp), %rdx
 4917 2509 488D4DB0 		leaq	-80(%rbp), %rcx
 4918 250d 488D7908 		leaq	8(%rcx), %rdi
 4919 2511 488D7588 		leaq	-120(%rbp), %rsi
 4920 2515 4889D1   		movq	%rdx, %rcx
 4921 2518 4889FA   		movq	%rdi, %rdx
 4922 251b 4889C7   		movq	%rax, %rdi
 4923 251e E8000000 		call	_ZN8UnitTest10CheckEqualImmEEvRNS_11TestResultsERKT_RKT0_RKNS_11TestDetailsE
 4923      00
 4924              	.LEHE269:
 4925              	.L390:
 4926              	.LEHB270:
 217:testCore.cpp  **** 	CHECK_EQUAL(0UL, queue.putIndex);
 4927              		.loc 3 217 0 is_stmt 1
 4928 2523 E8000000 		call	_ZN8UnitTest11CurrentTest7DetailsEv
 4928      00
 4929 2528 488B08   		movq	(%rax), %rcx
 4930 252b 488D4590 		leaq	-112(%rbp), %rax
 4931 252f BAD90000 		movl	$217, %edx
 4931      00
 4932 2534 4889CE   		movq	%rcx, %rsi
 4933 2537 4889C7   		movq	%rax, %rdi
 4934 253a E8000000 		call	_ZN8UnitTest11TestDetailsC1ERKS0_i
 4934      00
 4935              	.LEHE270:
 4936              		.loc 3 217 0 is_stmt 0 discriminator 2
 4937 253f 48C74588 		movq	$0, -120(%rbp)
 4937      00000000 
 4938              	.LEHB271:
 4939 2547 E8000000 		call	_ZN8UnitTest11CurrentTest7ResultsEv
 4939      00
 4940 254c 488B00   		movq	(%rax), %rax
 4941 254f 488D5590 		leaq	-112(%rbp), %rdx
 4942 2553 488D4DB0 		leaq	-80(%rbp), %rcx
 4943 2557 488D7910 		leaq	16(%rcx), %rdi
 4944 255b 488D7588 		leaq	-120(%rbp), %rsi
 4945 255f 4889D1   		movq	%rdx, %rcx
 4946 2562 4889FA   		movq	%rdi, %rdx
 4947 2565 4889C7   		movq	%rax, %rdi
 4948 2568 E8000000 		call	_ZN8UnitTest10CheckEqualImmEEvRNS_11TestResultsERKT_RKT0_RKNS_11TestDetailsE
 4948      00
 4949              	.LEHE271:
 4950              	.L394:
 4951              	.LEHB272:
 218:testCore.cpp  **** 	CHECK_EQUAL(0UL, queue.takeIndex);
 4952              		.loc 3 218 0 is_stmt 1
 4953 256d E8000000 		call	_ZN8UnitTest11CurrentTest7DetailsEv
 4953      00
 4954 2572 488B08   		movq	(%rax), %rcx
 4955 2575 488D4590 		leaq	-112(%rbp), %rax
 4956 2579 BADA0000 		movl	$218, %edx
 4956      00
 4957 257e 4889CE   		movq	%rcx, %rsi
 4958 2581 4889C7   		movq	%rax, %rdi
 4959 2584 E8000000 		call	_ZN8UnitTest11TestDetailsC1ERKS0_i
 4959      00
 4960              	.LEHE272:
 4961              		.loc 3 218 0 is_stmt 0 discriminator 2
 4962 2589 48C74588 		movq	$0, -120(%rbp)
 4962      00000000 
 4963              	.LEHB273:
 4964 2591 E8000000 		call	_ZN8UnitTest11CurrentTest7ResultsEv
 4964      00
 4965 2596 488B00   		movq	(%rax), %rax
 4966 2599 488D5590 		leaq	-112(%rbp), %rdx
 4967 259d 488D4DB0 		leaq	-80(%rbp), %rcx
 4968 25a1 488D7918 		leaq	24(%rcx), %rdi
 4969 25a5 488D7588 		leaq	-120(%rbp), %rsi
 4970 25a9 4889D1   		movq	%rdx, %rcx
 4971 25ac 4889FA   		movq	%rdi, %rdx
 4972 25af 4889C7   		movq	%rax, %rdi
 4973 25b2 E8000000 		call	_ZN8UnitTest10CheckEqualImmEEvRNS_11TestResultsERKT_RKT0_RKNS_11TestDetailsE
 4973      00
 4974              	.LEHE273:
 4975              	.L398:
 4976              	.LEHB274:
 219:testCore.cpp  **** 	CHECK_EQUAL(0UL, queue.numItems);
 4977              		.loc 3 219 0 is_stmt 1
 4978 25b7 E8000000 		call	_ZN8UnitTest11CurrentTest7DetailsEv
 4978      00
 4979 25bc 488B08   		movq	(%rax), %rcx
 4980 25bf 488D4590 		leaq	-112(%rbp), %rax
 4981 25c3 BADB0000 		movl	$219, %edx
 4981      00
 4982 25c8 4889CE   		movq	%rcx, %rsi
 4983 25cb 4889C7   		movq	%rax, %rdi
 4984 25ce E8000000 		call	_ZN8UnitTest11TestDetailsC1ERKS0_i
 4984      00
 4985              	.LEHE274:
 4986              		.loc 3 219 0 is_stmt 0 discriminator 2
 4987 25d3 48C74588 		movq	$0, -120(%rbp)
 4987      00000000 
 4988              	.LEHB275:
 4989 25db E8000000 		call	_ZN8UnitTest11CurrentTest7ResultsEv
 4989      00
 4990 25e0 488B00   		movq	(%rax), %rax
 4991 25e3 488D5590 		leaq	-112(%rbp), %rdx
 4992 25e7 488D4DB0 		leaq	-80(%rbp), %rcx
 4993 25eb 488D7920 		leaq	32(%rcx), %rdi
 4994 25ef 488D7588 		leaq	-120(%rbp), %rsi
 4995 25f3 4889D1   		movq	%rdx, %rcx
 4996 25f6 4889FA   		movq	%rdi, %rdx
 4997 25f9 4889C7   		movq	%rax, %rdi
 4998 25fc E8000000 		call	_ZN8UnitTest10CheckEqualImmEEvRNS_11TestResultsERKT_RKT0_RKNS_11TestDetailsE
 4998      00
 4999              	.LEHE275:
 5000              	.L402:
 5001              	.LEHB276:
 220:testCore.cpp  **** 
 221:testCore.cpp  **** 	// Verify array
 222:testCore.cpp  **** 	CHECK_EQUAL(5UL, deref(queue.itemArray[0]));
 5002              		.loc 3 222 0 is_stmt 1
 5003 2601 E8000000 		call	_ZN8UnitTest11CurrentTest7DetailsEv
 5003      00
 5004 2606 488B08   		movq	(%rax), %rcx
 5005 2609 488D4590 		leaq	-112(%rbp), %rax
 5006 260d BADE0000 		movl	$222, %edx
 5006      00
 5007 2612 4889CE   		movq	%rcx, %rsi
 5008 2615 4889C7   		movq	%rax, %rdi
 5009 2618 E8000000 		call	_ZN8UnitTest11TestDetailsC1ERKS0_i
 5009      00
 5010              	.LEHE276:
 5011              		.loc 3 222 0 is_stmt 0 discriminator 2
 5012 261d 488B45B0 		movq	-80(%rbp), %rax
 5013 2621 488B00   		movq	(%rax), %rax
 5014 2624 4889C7   		movq	%rax, %rdi
 5015 2627 E85EDAFF 		call	_ZL5derefPKv
 5015      FF
 5016 262c 89857CFF 		movl	%eax, -132(%rbp)
 5016      FFFF
 5017 2632 48C74588 		movq	$5, -120(%rbp)
 5017      05000000 
 5018              	.LEHB277:
 5019 263a E8000000 		call	_ZN8UnitTest11CurrentTest7ResultsEv
 5019      00
 5020 263f 488B00   		movq	(%rax), %rax
 5021 2642 488D4D90 		leaq	-112(%rbp), %rcx
 5022 2646 488D957C 		leaq	-132(%rbp), %rdx
 5022      FFFFFF
 5023 264d 488D7588 		leaq	-120(%rbp), %rsi
 5024 2651 4889C7   		movq	%rax, %rdi
 5025 2654 E8000000 		call	_ZN8UnitTest10CheckEqualImjEEvRNS_11TestResultsERKT_RKT0_RKNS_11TestDetailsE
 5025      00
 5026              	.LEHE277:
 5027              	.L406:
 5028              	.LEHB278:
 223:testCore.cpp  **** 	CHECK_EQUAL(6UL, deref(queue.itemArray[1]));
 5029              		.loc 3 223 0 is_stmt 1
 5030 2659 E8000000 		call	_ZN8UnitTest11CurrentTest7DetailsEv
 5030      00
 5031 265e 488B08   		movq	(%rax), %rcx
 5032 2661 488D4590 		leaq	-112(%rbp), %rax
 5033 2665 BADF0000 		movl	$223, %edx
 5033      00
 5034 266a 4889CE   		movq	%rcx, %rsi
 5035 266d 4889C7   		movq	%rax, %rdi
 5036 2670 E8000000 		call	_ZN8UnitTest11TestDetailsC1ERKS0_i
 5036      00
 5037              	.LEHE278:
 5038              		.loc 3 223 0 is_stmt 0 discriminator 2
 5039 2675 488B45B0 		movq	-80(%rbp), %rax
 5040 2679 4883C008 		addq	$8, %rax
 5041 267d 488B00   		movq	(%rax), %rax
 5042 2680 4889C7   		movq	%rax, %rdi
 5043 2683 E802DAFF 		call	_ZL5derefPKv
 5043      FF
 5044 2688 89857CFF 		movl	%eax, -132(%rbp)
 5044      FFFF
 5045 268e 48C74588 		movq	$6, -120(%rbp)
 5045      06000000 
 5046              	.LEHB279:
 5047 2696 E8000000 		call	_ZN8UnitTest11CurrentTest7ResultsEv
 5047      00
 5048 269b 488B00   		movq	(%rax), %rax
 5049 269e 488D4D90 		leaq	-112(%rbp), %rcx
 5050 26a2 488D957C 		leaq	-132(%rbp), %rdx
 5050      FFFFFF
 5051 26a9 488D7588 		leaq	-120(%rbp), %rsi
 5052 26ad 4889C7   		movq	%rax, %rdi
 5053 26b0 E8000000 		call	_ZN8UnitTest10CheckEqualImjEEvRNS_11TestResultsERKT_RKT0_RKNS_11TestDetailsE
 5053      00
 5054              	.LEHE279:
 5055              	.L410:
 5056              	.LEHB280:
 224:testCore.cpp  **** 	CHECK_EQUAL(7UL, deref(queue.itemArray[2]));
 5057              		.loc 3 224 0 is_stmt 1
 5058 26b5 E8000000 		call	_ZN8UnitTest11CurrentTest7DetailsEv
 5058      00
 5059 26ba 488B08   		movq	(%rax), %rcx
 5060 26bd 488D4590 		leaq	-112(%rbp), %rax
 5061 26c1 BAE00000 		movl	$224, %edx
 5061      00
 5062 26c6 4889CE   		movq	%rcx, %rsi
 5063 26c9 4889C7   		movq	%rax, %rdi
 5064 26cc E8000000 		call	_ZN8UnitTest11TestDetailsC1ERKS0_i
 5064      00
 5065              	.LEHE280:
 5066              		.loc 3 224 0 is_stmt 0 discriminator 2
 5067 26d1 488B45B0 		movq	-80(%rbp), %rax
 5068 26d5 4883C010 		addq	$16, %rax
