   1              		.file	"testError.cpp"
   2              		.text
   3              	.Ltext0:
   4              		.section	.rodata
   5              	.LC0:
   6 0000 44656661 		.string	"DefaultSuite"
   6      756C7453 
   6      75697465 
   6      00
   7              		.section	.text._ZN13UnitTestSuite12GetSuiteNameEv,"axG",@progbits,_ZN13UnitTestSuite12GetSuiteName
   8              		.weak	_ZN13UnitTestSuite12GetSuiteNameEv
  10              	_ZN13UnitTestSuite12GetSuiteNameEv:
  11              	.LFB0:
  12              		.file 1 "/home/shubham/20140524/makestuff/libs/libutpp/TestSuite.h"
   1:/home/shubham/20140524/makestuff/libs/libutpp/TestSuite.h **** #ifndef UNITTEST_TESTSUITE_H
   2:/home/shubham/20140524/makestuff/libs/libutpp/TestSuite.h **** #define UNITTEST_TESTSUITE_H
   3:/home/shubham/20140524/makestuff/libs/libutpp/TestSuite.h **** 
   4:/home/shubham/20140524/makestuff/libs/libutpp/TestSuite.h **** namespace UnitTestSuite {
   5:/home/shubham/20140524/makestuff/libs/libutpp/TestSuite.h **** 
   6:/home/shubham/20140524/makestuff/libs/libutpp/TestSuite.h ****     inline char const* GetSuiteName ()
   7:/home/shubham/20140524/makestuff/libs/libutpp/TestSuite.h ****     {
  13              		.loc 1 7 0
  14              		.cfi_startproc
  15 0000 55       		pushq	%rbp
  16              		.cfi_def_cfa_offset 16
  17              		.cfi_offset 6, -16
  18 0001 4889E5   		movq	%rsp, %rbp
  19              		.cfi_def_cfa_register 6
   8:/home/shubham/20140524/makestuff/libs/libutpp/TestSuite.h ****         return "DefaultSuite";
  20              		.loc 1 8 0
  21 0004 B8000000 		movl	$.LC0, %eax
  21      00
   9:/home/shubham/20140524/makestuff/libs/libutpp/TestSuite.h ****     }
  22              		.loc 1 9 0
  23 0009 5D       		popq	%rbp
  24              		.cfi_def_cfa 7, 8
  25 000a C3       		ret
  26              		.cfi_endproc
  27              	.LFE0:
  29              		.globl	buf
  30              		.bss
  31              		.align 32
  34              	buf:
  35 0000 00000000 		.zero	1024
  35      00000000 
  35      00000000 
  35      00000000 
  35      00000000 
  36              		.text
  37              		.globl	_Z7fillBufic
  39              	_Z7fillBufic:
  40              	.LFB1073:
  41              		.file 2 "testError.cpp"
   1:testError.cpp **** /*
   2:testError.cpp ****  * Copyright (C) 2009-2012 Chris McClelland
   3:testError.cpp ****  *
   4:testError.cpp ****  * This program is free software: you can redistribute it and/or modify
   5:testError.cpp ****  * it under the terms of the GNU Lesser General Public License as published by
   6:testError.cpp ****  * the Free Software Foundation, either version 3 of the License, or
   7:testError.cpp ****  * (at your option) any later version.
   8:testError.cpp ****  *
   9:testError.cpp ****  * This program is distributed in the hope that it will be useful,
  10:testError.cpp ****  * but WITHOUT ANY WARRANTY; without even the implied warranty of
  11:testError.cpp ****  * MERCHANTABILITY or FITNESS FOR A PARTICULAR PURPOSE.  See the
  12:testError.cpp ****  * GNU Lesser General Public License for more details.
  13:testError.cpp ****  *
  14:testError.cpp ****  * You should have received a copy of the GNU Lesser General Public License
  15:testError.cpp ****  * along with this program.  If not, see <http://www.gnu.org/licenses/>.
  16:testError.cpp ****  */
  17:testError.cpp **** #include <UnitTest++.h>
  18:testError.cpp **** #include <stdio.h>
  19:testError.cpp **** #include <stdlib.h>
  20:testError.cpp **** #include <string.h>
  21:testError.cpp **** #include <errno.h>
  22:testError.cpp **** #include "../liberror.h"
  23:testError.cpp **** 
  24:testError.cpp **** char buf[1024];
  25:testError.cpp **** 
  26:testError.cpp **** void fillBuf(int count, char value) {
  42              		.loc 2 26 0
  43              		.cfi_startproc
  44 0000 55       		pushq	%rbp
  45              		.cfi_def_cfa_offset 16
  46              		.cfi_offset 6, -16
  47 0001 4889E5   		movq	%rsp, %rbp
  48              		.cfi_def_cfa_register 6
  49 0004 897DEC   		movl	%edi, -20(%rbp)
  50 0007 89F0     		movl	%esi, %eax
  51 0009 8845E8   		movb	%al, -24(%rbp)
  27:testError.cpp **** 	int i = 0;
  52              		.loc 2 27 0
  53 000c C745FC00 		movl	$0, -4(%rbp)
  53      000000
  54              	.L5:
  28:testError.cpp **** 	while ( i < count ) {
  55              		.loc 2 28 0
  56 0013 8B45FC   		movl	-4(%rbp), %eax
  57 0016 3B45EC   		cmpl	-20(%rbp), %eax
  58 0019 7D17     		jge	.L4
  29:testError.cpp **** 		buf[i++] = value;
  59              		.loc 2 29 0
  60 001b 8B45FC   		movl	-4(%rbp), %eax
  61 001e 8D5001   		leal	1(%rax), %edx
  62 0021 8955FC   		movl	%edx, -4(%rbp)
  63 0024 4898     		cltq
  64 0026 0FB655E8 		movzbl	-24(%rbp), %edx
  65 002a 88900000 		movb	%dl, buf(%rax)
  65      0000
  28:testError.cpp **** 	while ( i < count ) {
  66              		.loc 2 28 0
  67 0030 EBE1     		jmp	.L5
  68              	.L4:
  30:testError.cpp **** 	}
  31:testError.cpp **** 	buf[i++] = '\0';
  69              		.loc 2 31 0
  70 0032 8B45FC   		movl	-4(%rbp), %eax
  71 0035 8D5001   		leal	1(%rax), %edx
  72 0038 8955FC   		movl	%edx, -4(%rbp)
  73 003b 4898     		cltq
  74 003d C6800000 		movb	$0, buf(%rax)
  74      000000
  75              	.L7:
  32:testError.cpp **** 	while ( i < 1024 ) {
  76              		.loc 2 32 0
  77 0044 817DFCFF 		cmpl	$1023, -4(%rbp)
  77      030000
  78 004b 7F14     		jg	.L8
  33:testError.cpp **** 		buf[i++] = '.';
  79              		.loc 2 33 0
  80 004d 8B45FC   		movl	-4(%rbp), %eax
  81 0050 8D5001   		leal	1(%rax), %edx
  82 0053 8955FC   		movl	%edx, -4(%rbp)
  83 0056 4898     		cltq
  84 0058 C6800000 		movb	$46, buf(%rax)
  84      00002E
  32:testError.cpp **** 	while ( i < 1024 ) {
  85              		.loc 2 32 0
  86 005f EBE3     		jmp	.L7
  87              	.L8:
  34:testError.cpp **** 	}
  35:testError.cpp **** }
  88              		.loc 2 35 0
  89 0061 90       		nop
  90 0062 5D       		popq	%rbp
  91              		.cfi_def_cfa 7, 8
  92 0063 C3       		ret
  93              		.cfi_endproc
  94              	.LFE1073:
  96              		.section	.rodata
  97              	.LC1:
  98 000d 74657374 		.string	"testError.cpp"
  98      4572726F 
  98      722E6370 
  98      7000
  99              	.LC2:
 100 001b 4572726F 		.string	"Error_testNullRender"
 100      725F7465 
 100      73744E75 
 100      6C6C5265 
 100      6E646572 
 101              		.section	.text._ZN24TestError_testNullRenderC2Ev,"axG",@progbits,_ZN24TestError_testNullRenderC5Ev
 102              		.align 2
 103              		.weak	_ZN24TestError_testNullRenderC2Ev
 105              	_ZN24TestError_testNullRenderC2Ev:
 106              	.LFB1075:
  36:testError.cpp **** 
  37:testError.cpp **** TEST(Error_testNullRender) {
 107              		.loc 2 37 0
 108              		.cfi_startproc
 109 0000 55       		pushq	%rbp
 110              		.cfi_def_cfa_offset 16
 111              		.cfi_offset 6, -16
 112 0001 4889E5   		movq	%rsp, %rbp
 113              		.cfi_def_cfa_register 6
 114 0004 4883EC10 		subq	$16, %rsp
 115 0008 48897DF8 		movq	%rdi, -8(%rbp)
 116              	.LBB2:
 117              		.loc 2 37 0
 118 000c E8000000 		call	_ZN13UnitTestSuite12GetSuiteNameEv
 118      00
 119 0011 4889C2   		movq	%rax, %rdx
 120 0014 488B45F8 		movq	-8(%rbp), %rax
 121 0018 41B82500 		movl	$37, %r8d
 121      0000
 122 001e B9000000 		movl	$.LC1, %ecx
 122      00
 123 0023 BE000000 		movl	$.LC2, %esi
 123      00
 124 0028 4889C7   		movq	%rax, %rdi
 125 002b E8000000 		call	_ZN8UnitTest4TestC2EPKcS2_S2_i
 125      00
 126 0030 BA000000 		movl	$_ZTV24TestError_testNullRender+16, %edx
 126      00
 127 0035 488B45F8 		movq	-8(%rbp), %rax
 128 0039 488910   		movq	%rdx, (%rax)
 129              	.LBE2:
 130 003c 90       		nop
 131 003d C9       		leave
 132              		.cfi_def_cfa 7, 8
 133 003e C3       		ret
 134              		.cfi_endproc
 135              	.LFE1075:
 137              		.weak	_ZN24TestError_testNullRenderC1Ev
 138              		.set	_ZN24TestError_testNullRenderC1Ev,_ZN24TestError_testNullRenderC2Ev
 139              		.globl	testError_testNullRenderInstance
 140              		.bss
 141              		.align 32
 144              	testError_testNullRenderInstance:
 145 0400 00000000 		.zero	56
 145      00000000 
 145      00000000 
 145      00000000 
 145      00000000 
 146              		.globl	adderError_testNullRender
 149              	adderError_testNullRender:
 150 0438 00       		.zero	1
 151              		.text
 152              		.align 2
 153              		.globl	_ZNK24TestError_testNullRender7RunImplEv
 155              	_ZNK24TestError_testNullRender7RunImplEv:
 156              	.LFB1077:
 157              		.loc 2 37 0
 158              		.cfi_startproc
 159 0064 55       		pushq	%rbp
 160              		.cfi_def_cfa_offset 16
 161              		.cfi_offset 6, -16
 162 0065 4889E5   		movq	%rsp, %rbp
 163              		.cfi_def_cfa_register 6
 164 0068 4883EC10 		subq	$16, %rsp
 165 006c 48897DF8 		movq	%rdi, -8(%rbp)
  38:testError.cpp **** 	fillBuf(16, 'A');
 166              		.loc 2 38 0
 167 0070 BE410000 		movl	$65, %esi
 167      00
 168 0075 BF100000 		movl	$16, %edi
 168      00
 169 007a E8000000 		call	_Z7fillBufic
 169      00
  39:testError.cpp **** 	errRender(NULL, buf);
 170              		.loc 2 39 0
 171 007f BE000000 		movl	$buf, %esi
 171      00
 172 0084 BF000000 		movl	$0, %edi
 172      00
 173 0089 B8000000 		movl	$0, %eax
 173      00
 174 008e E8000000 		call	errRender
 174      00
  40:testError.cpp **** }
 175              		.loc 2 40 0
 176 0093 90       		nop
 177 0094 C9       		leave
 178              		.cfi_def_cfa 7, 8
 179 0095 C3       		ret
 180              		.cfi_endproc
 181              	.LFE1077:
 183              		.section	.rodata
 184              	.LC3:
 185 0030 4572726F 		.string	"Error_testRender"
 185      725F7465 
 185      73745265 
 185      6E646572 
 185      00
 186              		.section	.text._ZN20TestError_testRenderC2Ev,"axG",@progbits,_ZN20TestError_testRenderC5Ev,comdat
 187              		.align 2
 188              		.weak	_ZN20TestError_testRenderC2Ev
 190              	_ZN20TestError_testRenderC2Ev:
 191              	.LFB1079:
  41:testError.cpp **** 
  42:testError.cpp **** TEST(Error_testRender) {
 192              		.loc 2 42 0
 193              		.cfi_startproc
 194 0000 55       		pushq	%rbp
 195              		.cfi_def_cfa_offset 16
 196              		.cfi_offset 6, -16
 197 0001 4889E5   		movq	%rsp, %rbp
 198              		.cfi_def_cfa_register 6
 199 0004 4883EC10 		subq	$16, %rsp
 200 0008 48897DF8 		movq	%rdi, -8(%rbp)
 201              	.LBB3:
 202              		.loc 2 42 0
 203 000c E8000000 		call	_ZN13UnitTestSuite12GetSuiteNameEv
 203      00
 204 0011 4889C2   		movq	%rax, %rdx
 205 0014 488B45F8 		movq	-8(%rbp), %rax
 206 0018 41B82A00 		movl	$42, %r8d
 206      0000
 207 001e B9000000 		movl	$.LC1, %ecx
 207      00
 208 0023 BE000000 		movl	$.LC3, %esi
 208      00
 209 0028 4889C7   		movq	%rax, %rdi
 210 002b E8000000 		call	_ZN8UnitTest4TestC2EPKcS2_S2_i
 210      00
 211 0030 BA000000 		movl	$_ZTV20TestError_testRender+16, %edx
 211      00
 212 0035 488B45F8 		movq	-8(%rbp), %rax
 213 0039 488910   		movq	%rdx, (%rax)
 214              	.LBE3:
 215 003c 90       		nop
 216 003d C9       		leave
 217              		.cfi_def_cfa 7, 8
 218 003e C3       		ret
 219              		.cfi_endproc
 220              	.LFE1079:
 222              		.weak	_ZN20TestError_testRenderC1Ev
 223              		.set	_ZN20TestError_testRenderC1Ev,_ZN20TestError_testRenderC2Ev
 224              		.globl	testError_testRenderInstance
 225              		.bss
 226 0439 00000000 		.align 32
 226      000000
 229              	testError_testRenderInstance:
 230 0440 00000000 		.zero	56
 230      00000000 
 230      00000000 
 230      00000000 
 230      00000000 
 231              		.globl	adderError_testRender
 234              	adderError_testRender:
 235 0478 00       		.zero	1
 236              		.section	.rodata
 237 0041 00000000 		.align 8
 237      000000
 238              	.LC4:
 239 0048 556E6861 		.string	"Unhandled exception in CHECK_EQUAL(buf, error)"
 239      6E646C65 
 239      64206578 
 239      63657074 
 239      696F6E20 
 240              		.text
 241              		.align 2
 242              		.globl	_ZNK20TestError_testRender7RunImplEv
 244              	_ZNK20TestError_testRender7RunImplEv:
 245              	.LFB1081:
 246              		.loc 2 42 0
 247              		.cfi_startproc
 248              		.cfi_personality 0x3,__gxx_personality_v0
 249              		.cfi_lsda 0x3,.LLSDA1081
 250 0096 55       		pushq	%rbp
 251              		.cfi_def_cfa_offset 16
 252              		.cfi_offset 6, -16
 253 0097 4889E5   		movq	%rsp, %rbp
 254              		.cfi_def_cfa_register 6
 255 009a 53       		pushq	%rbx
 256 009b 4883EC58 		subq	$88, %rsp
 257              		.cfi_offset 3, -24
 258 009f 48897DA8 		movq	%rdi, -88(%rbp)
 259              		.loc 2 42 0
 260 00a3 64488B04 		movq	%fs:40, %rax
 260      25280000 
 260      00
 261 00ac 488945E8 		movq	%rax, -24(%rbp)
 262 00b0 31C0     		xorl	%eax, %eax
  43:testError.cpp **** 	int i;
  44:testError.cpp **** 	const char *error;
  45:testError.cpp **** 	for ( i = 500; i < 516; i++ ) {
 263              		.loc 2 45 0
 264 00b2 C745B4F4 		movl	$500, -76(%rbp)
 264      010000
 265              	.L14:
 266              		.loc 2 45 0 is_stmt 0 discriminator 1
 267 00b9 817DB403 		cmpl	$515, -76(%rbp)
 267      020000
 268 00c0 0F8FDB00 		jg	.L21
 268      0000
  46:testError.cpp **** 		error = NULL;
 269              		.loc 2 46 0 is_stmt 1
 270 00c6 48C745B8 		movq	$0, -72(%rbp)
 270      00000000 
  47:testError.cpp **** 		fillBuf(i, 'A');
 271              		.loc 2 47 0
 272 00ce 8B45B4   		movl	-76(%rbp), %eax
 273 00d1 BE410000 		movl	$65, %esi
 273      00
 274 00d6 89C7     		movl	%eax, %edi
 275 00d8 E8000000 		call	_Z7fillBufic
 275      00
  48:testError.cpp **** 		errRender(&error, buf);
 276              		.loc 2 48 0
 277 00dd 488D45B8 		leaq	-72(%rbp), %rax
 278 00e1 BE000000 		movl	$buf, %esi
 278      00
 279 00e6 4889C7   		movq	%rax, %rdi
 280 00e9 B8000000 		movl	$0, %eax
 280      00
 281              	.LEHB0:
 282 00ee E8000000 		call	errRender
 282      00
 283              	.LEHE0:
 284              	.LEHB1:
  49:testError.cpp **** 		CHECK_EQUAL(buf, error);
 285              		.loc 2 49 0
 286 00f3 E8000000 		call	_ZN8UnitTest11CurrentTest7DetailsEv
 286      00
 287 00f8 488B08   		movq	(%rax), %rcx
 288 00fb 488D45C0 		leaq	-64(%rbp), %rax
 289 00ff BA310000 		movl	$49, %edx
 289      00
 290 0104 4889CE   		movq	%rcx, %rsi
 291 0107 4889C7   		movq	%rax, %rdi
 292 010a E8000000 		call	_ZN8UnitTest11TestDetailsC1ERKS0_i
 292      00
 293              		.loc 2 49 0 is_stmt 0 discriminator 2
 294 010f 488B5DB8 		movq	-72(%rbp), %rbx
 295 0113 E8000000 		call	_ZN8UnitTest11CurrentTest7ResultsEv
 295      00
 296 0118 488B00   		movq	(%rax), %rax
 297 011b 488D55C0 		leaq	-64(%rbp), %rdx
 298 011f 4889D1   		movq	%rdx, %rcx
 299 0122 4889DA   		movq	%rbx, %rdx
 300 0125 BE000000 		movl	$buf, %esi
 300      00
 301 012a 4889C7   		movq	%rax, %rdi
 302 012d E8000000 		call	_ZN8UnitTest10CheckEqualERNS_11TestResultsEPcPKcRKNS_11TestDetailsE
 302      00
 303              	.LEHE1:
 304              	.L16:
  50:testError.cpp **** 		errFree(error);
 305              		.loc 2 50 0 is_stmt 1
 306 0132 488B45B8 		movq	-72(%rbp), %rax
 307 0136 4889C7   		movq	%rax, %rdi
 308              	.LEHB2:
 309 0139 E8000000 		call	errFree
 309      00
 310              	.LEHE2:
  45:testError.cpp **** 		error = NULL;
 311              		.loc 2 45 0
 312 013e 8345B401 		addl	$1, -76(%rbp)
 313 0142 E972FFFF 		jmp	.L14
 313      FF
 314              	.L19:
  49:testError.cpp **** 		CHECK_EQUAL(buf, error);
 315              		.loc 2 49 0
 316 0147 4889C7   		movq	%rax, %rdi
 317 014a E8000000 		call	__cxa_begin_catch
 317      00
 318              	.LEHB3:
 319 014f E8000000 		call	_ZN8UnitTest11CurrentTest7DetailsEv
 319      00
 320 0154 488B08   		movq	(%rax), %rcx
 321 0157 488D45C0 		leaq	-64(%rbp), %rax
 322 015b BA310000 		movl	$49, %edx
 322      00
 323 0160 4889CE   		movq	%rcx, %rsi
 324 0163 4889C7   		movq	%rax, %rdi
 325 0166 E8000000 		call	_ZN8UnitTest11TestDetailsC1ERKS0_i
 325      00
  49:testError.cpp **** 		CHECK_EQUAL(buf, error);
 326              		.loc 2 49 0 is_stmt 0 discriminator 10
 327 016b E8000000 		call	_ZN8UnitTest11CurrentTest7ResultsEv
 327      00
 328 0170 488B00   		movq	(%rax), %rax
 329 0173 488D4DC0 		leaq	-64(%rbp), %rcx
 330 0177 BA000000 		movl	$.LC4, %edx
 330      00
 331 017c 4889CE   		movq	%rcx, %rsi
 332 017f 4889C7   		movq	%rax, %rdi
 333 0182 E8000000 		call	_ZN8UnitTest11TestResults13OnTestFailureERKNS_11TestDetailsEPKc
 333      00
 334              	.LEHE3:
 335              	.LEHB4:
  49:testError.cpp **** 		CHECK_EQUAL(buf, error);
 336              		.loc 2 49 0 discriminator 14
 337 0187 E8000000 		call	__cxa_end_catch
 337      00
 338              	.LEHE4:
 339 018c EBA4     		jmp	.L16
 340              	.L20:
 341 018e 4889C3   		movq	%rax, %rbx
  49:testError.cpp **** 		CHECK_EQUAL(buf, error);
 342              		.loc 2 49 0
 343 0191 E8000000 		call	__cxa_end_catch
 343      00
 344 0196 4889D8   		movq	%rbx, %rax
 345 0199 4889C7   		movq	%rax, %rdi
 346              	.LEHB5:
 347 019c E8000000 		call	_Unwind_Resume
 347      00
 348              	.LEHE5:
 349              	.L21:
  51:testError.cpp **** 	}
  52:testError.cpp **** }
 350              		.loc 2 52 0 is_stmt 1
 351 01a1 90       		nop
 352 01a2 488B45E8 		movq	-24(%rbp), %rax
 353 01a6 64483304 		xorq	%fs:40, %rax
 353      25280000 
 353      00
 354 01af 7405     		je	.L18
 355 01b1 E8000000 		call	__stack_chk_fail
 355      00
 356              	.L18:
 357 01b6 4883C458 		addq	$88, %rsp
 358 01ba 5B       		popq	%rbx
 359 01bb 5D       		popq	%rbp
 360              		.cfi_def_cfa 7, 8
 361 01bc C3       		ret
 362              		.cfi_endproc
 363              	.LFE1081:
 364              		.globl	__gxx_personality_v0
 365              		.section	.gcc_except_table,"a",@progbits
 366              		.align 4
 367              	.LLSDA1081:
 368 0000 FF       		.byte	0xff
 369 0001 03       		.byte	0x3
 370 0002 29       		.uleb128 .LLSDATT1081-.LLSDATTD1081
 371              	.LLSDATTD1081:
 372 0003 01       		.byte	0x1
 373 0004 1E       		.uleb128 .LLSDACSE1081-.LLSDACSB1081
 374              	.LLSDACSB1081:
 375 0005 58       		.uleb128 .LEHB0-.LFB1081
 376 0006 05       		.uleb128 .LEHE0-.LEHB0
 377 0007 00       		.uleb128 0
 378 0008 00       		.uleb128 0
 379 0009 5D       		.uleb128 .LEHB1-.LFB1081
 380 000a 3F       		.uleb128 .LEHE1-.LEHB1
 381 000b B101     		.uleb128 .L19-.LFB1081
 382 000d 01       		.uleb128 0x1
 383 000e A301     		.uleb128 .LEHB2-.LFB1081
 384 0010 05       		.uleb128 .LEHE2-.LEHB2
 385 0011 00       		.uleb128 0
 386 0012 00       		.uleb128 0
 387 0013 B901     		.uleb128 .LEHB3-.LFB1081
 388 0015 38       		.uleb128 .LEHE3-.LEHB3
 389 0016 F801     		.uleb128 .L20-.LFB1081
 390 0018 00       		.uleb128 0
 391 0019 F101     		.uleb128 .LEHB4-.LFB1081
 392 001b 05       		.uleb128 .LEHE4-.LEHB4
 393 001c 00       		.uleb128 0
 394 001d 00       		.uleb128 0
 395 001e 8602     		.uleb128 .LEHB5-.LFB1081
 396 0020 05       		.uleb128 .LEHE5-.LEHB5
 397 0021 00       		.uleb128 0
 398 0022 00       		.uleb128 0
 399              	.LLSDACSE1081:
 400 0023 01       		.byte	0x1
 401 0024 00       		.byte	0
 402 0025 000000   		.align 4
 403 0028 00000000 		.long	0
 404              	
 405              	.LLSDATT1081:
 406              		.text
 408              		.section	.rodata
 409              	.LC5:
 410 0077 4572726F 		.string	"Error_testNullStdRender"
 410      725F7465 
 410      73744E75 
 410      6C6C5374 
 410      6452656E 
 411              		.section	.text._ZN27TestError_testNullStdRenderC2Ev,"axG",@progbits,_ZN27TestError_testNullStdRend
 412              		.align 2
 413              		.weak	_ZN27TestError_testNullStdRenderC2Ev
 415              	_ZN27TestError_testNullStdRenderC2Ev:
 416              	.LFB1083:
  53:testError.cpp **** 
  54:testError.cpp **** TEST(Error_testNullStdRender) {
 417              		.loc 2 54 0
 418              		.cfi_startproc
 419 0000 55       		pushq	%rbp
 420              		.cfi_def_cfa_offset 16
 421              		.cfi_offset 6, -16
 422 0001 4889E5   		movq	%rsp, %rbp
 423              		.cfi_def_cfa_register 6
 424 0004 4883EC10 		subq	$16, %rsp
 425 0008 48897DF8 		movq	%rdi, -8(%rbp)
 426              	.LBB4:
 427              		.loc 2 54 0
 428 000c E8000000 		call	_ZN13UnitTestSuite12GetSuiteNameEv
 428      00
 429 0011 4889C2   		movq	%rax, %rdx
 430 0014 488B45F8 		movq	-8(%rbp), %rax
 431 0018 41B83600 		movl	$54, %r8d
 431      0000
 432 001e B9000000 		movl	$.LC1, %ecx
 432      00
 433 0023 BE000000 		movl	$.LC5, %esi
 433      00
 434 0028 4889C7   		movq	%rax, %rdi
 435 002b E8000000 		call	_ZN8UnitTest4TestC2EPKcS2_S2_i
 435      00
 436 0030 BA000000 		movl	$_ZTV27TestError_testNullStdRender+16, %edx
 436      00
 437 0035 488B45F8 		movq	-8(%rbp), %rax
 438 0039 488910   		movq	%rdx, (%rax)
 439              	.LBE4:
 440 003c 90       		nop
 441 003d C9       		leave
 442              		.cfi_def_cfa 7, 8
 443 003e C3       		ret
 444              		.cfi_endproc
 445              	.LFE1083:
 447              		.weak	_ZN27TestError_testNullStdRenderC1Ev
 448              		.set	_ZN27TestError_testNullStdRenderC1Ev,_ZN27TestError_testNullStdRenderC2Ev
 449              		.globl	testError_testNullStdRenderInstance
 450              		.bss
 451 0479 00000000 		.align 32
 451      000000
 454              	testError_testNullStdRenderInstance:
 455 0480 00000000 		.zero	56
 455      00000000 
 455      00000000 
 455      00000000 
 455      00000000 
 456              		.globl	adderError_testNullStdRender
 459              	adderError_testNullStdRender:
 460 04b8 00       		.zero	1
 461              		.text
 462 01bd 90       		.align 2
 463              		.globl	_ZNK27TestError_testNullStdRender7RunImplEv
 465              	_ZNK27TestError_testNullStdRender7RunImplEv:
 466              	.LFB1085:
 467              		.loc 2 54 0
 468              		.cfi_startproc
 469 01be 55       		pushq	%rbp
 470              		.cfi_def_cfa_offset 16
 471              		.cfi_offset 6, -16
 472 01bf 4889E5   		movq	%rsp, %rbp
 473              		.cfi_def_cfa_register 6
 474 01c2 4883EC10 		subq	$16, %rsp
 475 01c6 48897DF8 		movq	%rdi, -8(%rbp)
  55:testError.cpp **** 	fillBuf(16, 'A');
 476              		.loc 2 55 0
 477 01ca BE410000 		movl	$65, %esi
 477      00
 478 01cf BF100000 		movl	$16, %edi
 478      00
 479 01d4 E8000000 		call	_Z7fillBufic
 479      00
  56:testError.cpp **** 	errRenderStd(NULL);
 480              		.loc 2 56 0
 481 01d9 BF000000 		movl	$0, %edi
 481      00
 482 01de E8000000 		call	errRenderStd
 482      00
  57:testError.cpp **** }
 483              		.loc 2 57 0
 484 01e3 90       		nop
 485 01e4 C9       		leave
 486              		.cfi_def_cfa 7, 8
 487 01e5 C3       		ret
 488              		.cfi_endproc
 489              	.LFE1085:
 491              		.section	.rodata
 492              	.LC6:
 493 008f 4572726F 		.string	"Error_testStdRender"
 493      725F7465 
 493      73745374 
 493      6452656E 
 493      64657200 
 494              		.section	.text._ZN23TestError_testStdRenderC2Ev,"axG",@progbits,_ZN23TestError_testStdRenderC5Ev,c
 495              		.align 2
 496              		.weak	_ZN23TestError_testStdRenderC2Ev
 498              	_ZN23TestError_testStdRenderC2Ev:
 499              	.LFB1087:
  58:testError.cpp **** 
  59:testError.cpp **** TEST(Error_testStdRender) {
 500              		.loc 2 59 0
 501              		.cfi_startproc
 502 0000 55       		pushq	%rbp
 503              		.cfi_def_cfa_offset 16
 504              		.cfi_offset 6, -16
 505 0001 4889E5   		movq	%rsp, %rbp
 506              		.cfi_def_cfa_register 6
 507 0004 4883EC10 		subq	$16, %rsp
 508 0008 48897DF8 		movq	%rdi, -8(%rbp)
 509              	.LBB5:
 510              		.loc 2 59 0
 511 000c E8000000 		call	_ZN13UnitTestSuite12GetSuiteNameEv
 511      00
 512 0011 4889C2   		movq	%rax, %rdx
 513 0014 488B45F8 		movq	-8(%rbp), %rax
 514 0018 41B83B00 		movl	$59, %r8d
 514      0000
 515 001e B9000000 		movl	$.LC1, %ecx
 515      00
 516 0023 BE000000 		movl	$.LC6, %esi
 516      00
 517 0028 4889C7   		movq	%rax, %rdi
 518 002b E8000000 		call	_ZN8UnitTest4TestC2EPKcS2_S2_i
 518      00
 519 0030 BA000000 		movl	$_ZTV23TestError_testStdRender+16, %edx
 519      00
 520 0035 488B45F8 		movq	-8(%rbp), %rax
 521 0039 488910   		movq	%rdx, (%rax)
 522              	.LBE5:
 523 003c 90       		nop
 524 003d C9       		leave
 525              		.cfi_def_cfa 7, 8
 526 003e C3       		ret
 527              		.cfi_endproc
 528              	.LFE1087:
 530              		.weak	_ZN23TestError_testStdRenderC1Ev
 531              		.set	_ZN23TestError_testStdRenderC1Ev,_ZN23TestError_testStdRenderC2Ev
 532              		.globl	testError_testStdRenderInstance
 533              		.bss
 534 04b9 00000000 		.align 32
 534      000000
 537              	testError_testStdRenderInstance:
 538 04c0 00000000 		.zero	56
 538      00000000 
 538      00000000 
 538      00000000 
 538      00000000 
 539              		.globl	adderError_testStdRender
 542              	adderError_testStdRender:
 543 04f8 00       		.zero	1
 544              		.section	.rodata
 545              	.LC7:
 546 00a3 7200     		.string	"r"
 547              	.LC8:
 548 00a5 6E6F6E45 		.string	"nonExistentFile.txt"
 548      78697374 
 548      656E7446 
 548      696C652E 
 548      74787400 
 549              	.LC9:
 550 00b9 216600   		.string	"!f"
 551 00bc 00000000 		.align 8
 552              	.LC10:
 553 00c0 556E6861 		.string	"Unhandled exception in CHECK(!f)"
 553      6E646C65 
 553      64206578 
 553      63657074 
 553      696F6E20 
 554 00e1 00000000 		.align 8
 554      000000
 555              	.LC11:
 556 00e8 556E6861 		.string	"Unhandled exception in CHECK_EQUAL(expected, error)"
 556      6E646C65 
 556      64206578 
 556      63657074 
 556      696F6E20 
 557              		.text
 558              		.align 2
 559              		.globl	_ZNK23TestError_testStdRender7RunImplEv
 561              	_ZNK23TestError_testStdRender7RunImplEv:
 562              	.LFB1089:
 563              		.loc 2 59 0
 564              		.cfi_startproc
 565              		.cfi_personality 0x3,__gxx_personality_v0
 566              		.cfi_lsda 0x3,.LLSDA1089
 567 01e6 55       		pushq	%rbp
 568              		.cfi_def_cfa_offset 16
 569              		.cfi_offset 6, -16
 570 01e7 4889E5   		movq	%rsp, %rbp
 571              		.cfi_def_cfa_register 6
 572 01ea 53       		pushq	%rbx
 573 01eb 4883EC68 		subq	$104, %rsp
 574              		.cfi_offset 3, -24
 575 01ef 48897D98 		movq	%rdi, -104(%rbp)
 576              		.loc 2 59 0
 577 01f3 64488B04 		movq	%fs:40, %rax
 577      25280000 
 577      00
 578 01fc 488945E8 		movq	%rax, -24(%rbp)
 579 0200 31C0     		xorl	%eax, %eax
  60:testError.cpp **** 	const char *error = NULL, *expected;
 580              		.loc 2 60 0
 581 0202 48C745A8 		movq	$0, -88(%rbp)
 581      00000000 
  61:testError.cpp **** 	FILE *f;
  62:testError.cpp **** 	f = fopen("nonExistentFile.txt", "r");
 582              		.loc 2 62 0
 583 020a BE000000 		movl	$.LC7, %esi
 583      00
 584 020f BF000000 		movl	$.LC8, %edi
 584      00
 585              	.LEHB6:
 586 0214 E8000000 		call	fopen
 586      00
 587              	.LEHE6:
 588 0219 488945B0 		movq	%rax, -80(%rbp)
  63:testError.cpp **** 	CHECK(!f);
 589              		.loc 2 63 0
 590 021d 48837DB0 		cmpq	$0, -80(%rbp)
 590      00
 591 0222 0F94C0   		sete	%al
 592 0225 0FB6C0   		movzbl	%al, %eax
 593 0228 89C7     		movl	%eax, %edi
 594 022a E8000000 		call	_ZN8UnitTest5CheckIbEEbT_
 594      00
 595 022f 83F001   		xorl	$1, %eax
 596 0232 84C0     		testb	%al, %al
 597 0234 7438     		je	.L26
 598              	.LEHB7:
 599              		.loc 2 63 0 is_stmt 0 discriminator 1
 600 0236 E8000000 		call	_ZN8UnitTest11CurrentTest7DetailsEv
 600      00
 601 023b 488B08   		movq	(%rax), %rcx
 602 023e 488D45C0 		leaq	-64(%rbp), %rax
 603 0242 BA3F0000 		movl	$63, %edx
 603      00
 604 0247 4889CE   		movq	%rcx, %rsi
 605 024a 4889C7   		movq	%rax, %rdi
 606 024d E8000000 		call	_ZN8UnitTest11TestDetailsC1ERKS0_i
 606      00
 607              		.loc 2 63 0 discriminator 3
 608 0252 E8000000 		call	_ZN8UnitTest11CurrentTest7ResultsEv
 608      00
 609 0257 488B00   		movq	(%rax), %rax
 610 025a 488D4DC0 		leaq	-64(%rbp), %rcx
 611 025e BA000000 		movl	$.LC9, %edx
 611      00
 612 0263 4889CE   		movq	%rcx, %rsi
 613 0266 4889C7   		movq	%rax, %rdi
 614 0269 E8000000 		call	_ZN8UnitTest11TestResults13OnTestFailureERKNS_11TestDetailsEPKc
 614      00
 615              	.LEHE7:
 616              	.L26:
  64:testError.cpp **** 	errRenderStd(&error);
 617              		.loc 2 64 0 is_stmt 1
 618 026e 488D45A8 		leaq	-88(%rbp), %rax
 619 0272 4889C7   		movq	%rax, %rdi
 620              	.LEHB8:
 621 0275 E8000000 		call	errRenderStd
 621      00
  65:testError.cpp **** 	f = fopen("nonExistentFile.txt", "r");
 622              		.loc 2 65 0
 623 027a BE000000 		movl	$.LC7, %esi
 623      00
 624 027f BF000000 		movl	$.LC8, %edi
 624      00
 625 0284 E8000000 		call	fopen
 625      00
 626              	.LEHE8:
 627 0289 488945B0 		movq	%rax, -80(%rbp)
  66:testError.cpp **** 	CHECK(!f);
 628              		.loc 2 66 0
 629 028d 48837DB0 		cmpq	$0, -80(%rbp)
 629      00
 630 0292 0F94C0   		sete	%al
 631 0295 0FB6C0   		movzbl	%al, %eax
 632 0298 89C7     		movl	%eax, %edi
 633 029a E8000000 		call	_ZN8UnitTest5CheckIbEEbT_
 633      00
 634 029f 83F001   		xorl	$1, %eax
 635 02a2 84C0     		testb	%al, %al
 636 02a4 7438     		je	.L27
 637              	.LEHB9:
 638              		.loc 2 66 0 is_stmt 0 discriminator 1
 639 02a6 E8000000 		call	_ZN8UnitTest11CurrentTest7DetailsEv
 639      00
 640 02ab 488B08   		movq	(%rax), %rcx
 641 02ae 488D45C0 		leaq	-64(%rbp), %rax
 642 02b2 BA420000 		movl	$66, %edx
 642      00
 643 02b7 4889CE   		movq	%rcx, %rsi
 644 02ba 4889C7   		movq	%rax, %rdi
 645 02bd E8000000 		call	_ZN8UnitTest11TestDetailsC1ERKS0_i
 645      00
 646              		.loc 2 66 0 discriminator 3
 647 02c2 E8000000 		call	_ZN8UnitTest11CurrentTest7ResultsEv
 647      00
 648 02c7 488B00   		movq	(%rax), %rax
 649 02ca 488D4DC0 		leaq	-64(%rbp), %rcx
 650 02ce BA000000 		movl	$.LC9, %edx
 650      00
 651 02d3 4889CE   		movq	%rcx, %rsi
 652 02d6 4889C7   		movq	%rax, %rdi
 653 02d9 E8000000 		call	_ZN8UnitTest11TestResults13OnTestFailureERKNS_11TestDetailsEPKc
 653      00
 654              	.LEHE9:
 655              	.L27:
  67:testError.cpp **** 	expected = strerror(errno);
 656              		.loc 2 67 0 is_stmt 1
 657 02de E8000000 		call	__errno_location
 657      00
 658 02e3 8B00     		movl	(%rax), %eax
 659 02e5 89C7     		movl	%eax, %edi
 660 02e7 E8000000 		call	strerror
 660      00
 661 02ec 488945B8 		movq	%rax, -72(%rbp)
 662              	.LEHB10:
  68:testError.cpp **** 	CHECK_EQUAL(expected, error);
 663              		.loc 2 68 0
 664 02f0 E8000000 		call	_ZN8UnitTest11CurrentTest7DetailsEv
 664      00
 665 02f5 488B08   		movq	(%rax), %rcx
 666 02f8 488D45C0 		leaq	-64(%rbp), %rax
 667 02fc BA440000 		movl	$68, %edx
 667      00
 668 0301 4889CE   		movq	%rcx, %rsi
 669 0304 4889C7   		movq	%rax, %rdi
 670 0307 E8000000 		call	_ZN8UnitTest11TestDetailsC1ERKS0_i
 670      00
 671              		.loc 2 68 0 is_stmt 0 discriminator 2
 672 030c 488B5DA8 		movq	-88(%rbp), %rbx
 673 0310 E8000000 		call	_ZN8UnitTest11CurrentTest7ResultsEv
 673      00
 674 0315 488B00   		movq	(%rax), %rax
 675 0318 488D55C0 		leaq	-64(%rbp), %rdx
 676 031c 488B75B8 		movq	-72(%rbp), %rsi
 677 0320 4889D1   		movq	%rdx, %rcx
 678 0323 4889DA   		movq	%rbx, %rdx
 679 0326 4889C7   		movq	%rax, %rdi
 680 0329 E8000000 		call	_ZN8UnitTest10CheckEqualERNS_11TestResultsEPKcS3_RKNS_11TestDetailsE
 680      00
 681              	.LEHE10:
 682              	.L33:
  69:testError.cpp **** 	errFree(error);
 683              		.loc 2 69 0 is_stmt 1
 684 032e 488B45A8 		movq	-88(%rbp), %rax
 685 0332 4889C7   		movq	%rax, %rdi
 686              	.LEHB11:
 687 0335 E8000000 		call	errFree
 687      00
 688              	.LEHE11:
  70:testError.cpp **** }
 689              		.loc 2 70 0
 690 033a 90       		nop
 691 033b 488B45E8 		movq	-24(%rbp), %rax
 692 033f 64483304 		xorq	%fs:40, %rax
 692      25280000 
 692      00
 693 0348 0F842101 		je	.L35
 693      0000
 694 034e E9170100 		jmp	.L42
 694      00
 695              	.L36:
  63:testError.cpp **** 	errRenderStd(&error);
 696              		.loc 2 63 0
 697 0353 4889C7   		movq	%rax, %rdi
 698 0356 E8000000 		call	__cxa_begin_catch
 698      00
 699              	.LEHB12:
 700 035b E8000000 		call	_ZN8UnitTest11CurrentTest7DetailsEv
 700      00
 701 0360 488B08   		movq	(%rax), %rcx
 702 0363 488D45C0 		leaq	-64(%rbp), %rax
 703 0367 BA3F0000 		movl	$63, %edx
 703      00
 704 036c 4889CE   		movq	%rcx, %rsi
 705 036f 4889C7   		movq	%rax, %rdi
 706 0372 E8000000 		call	_ZN8UnitTest11TestDetailsC1ERKS0_i
 706      00
  63:testError.cpp **** 	errRenderStd(&error);
 707              		.loc 2 63 0 is_stmt 0 discriminator 11
 708 0377 E8000000 		call	_ZN8UnitTest11CurrentTest7ResultsEv
 708      00
 709 037c 488B00   		movq	(%rax), %rax
 710 037f 488D4DC0 		leaq	-64(%rbp), %rcx
 711 0383 BA000000 		movl	$.LC10, %edx
 711      00
 712 0388 4889CE   		movq	%rcx, %rsi
 713 038b 4889C7   		movq	%rax, %rdi
 714 038e E8000000 		call	_ZN8UnitTest11TestResults13OnTestFailureERKNS_11TestDetailsEPKc
 714      00
 715              	.LEHE12:
 716              	.LEHB13:
  63:testError.cpp **** 	errRenderStd(&error);
 717              		.loc 2 63 0 discriminator 15
 718 0393 E8000000 		call	__cxa_end_catch
 718      00
 719              	.LEHE13:
 720 0398 E9D1FEFF 		jmp	.L26
 720      FF
 721              	.L37:
 722 039d 4889C3   		movq	%rax, %rbx
  63:testError.cpp **** 	errRenderStd(&error);
 723              		.loc 2 63 0
 724 03a0 E8000000 		call	__cxa_end_catch
 724      00
 725 03a5 4889D8   		movq	%rbx, %rax
 726 03a8 4889C7   		movq	%rax, %rdi
 727              	.LEHB14:
 728 03ab E8000000 		call	_Unwind_Resume
 728      00
 729              	.LEHE14:
 730              	.L38:
  66:testError.cpp **** 	expected = strerror(errno);
 731              		.loc 2 66 0 is_stmt 1
 732 03b0 4889C7   		movq	%rax, %rdi
 733 03b3 E8000000 		call	__cxa_begin_catch
 733      00
 734              	.LEHB15:
 735 03b8 E8000000 		call	_ZN8UnitTest11CurrentTest7DetailsEv
 735      00
 736 03bd 488B08   		movq	(%rax), %rcx
 737 03c0 488D45C0 		leaq	-64(%rbp), %rax
 738 03c4 BA420000 		movl	$66, %edx
 738      00
 739 03c9 4889CE   		movq	%rcx, %rsi
 740 03cc 4889C7   		movq	%rax, %rdi
 741 03cf E8000000 		call	_ZN8UnitTest11TestDetailsC1ERKS0_i
 741      00
  66:testError.cpp **** 	expected = strerror(errno);
 742              		.loc 2 66 0 is_stmt 0 discriminator 11
 743 03d4 E8000000 		call	_ZN8UnitTest11CurrentTest7ResultsEv
 743      00
 744 03d9 488B00   		movq	(%rax), %rax
 745 03dc 488D4DC0 		leaq	-64(%rbp), %rcx
 746 03e0 BA000000 		movl	$.LC10, %edx
 746      00
 747 03e5 4889CE   		movq	%rcx, %rsi
 748 03e8 4889C7   		movq	%rax, %rdi
 749 03eb E8000000 		call	_ZN8UnitTest11TestResults13OnTestFailureERKNS_11TestDetailsEPKc
 749      00
 750              	.LEHE15:
 751              	.LEHB16:
  66:testError.cpp **** 	expected = strerror(errno);
 752              		.loc 2 66 0 discriminator 15
 753 03f0 E8000000 		call	__cxa_end_catch
 753      00
 754              	.LEHE16:
 755 03f5 E9E4FEFF 		jmp	.L27
 755      FF
 756              	.L39:
 757 03fa 4889C3   		movq	%rax, %rbx
  66:testError.cpp **** 	expected = strerror(errno);
 758              		.loc 2 66 0
 759 03fd E8000000 		call	__cxa_end_catch
 759      00
 760 0402 4889D8   		movq	%rbx, %rax
 761 0405 4889C7   		movq	%rax, %rdi
 762              	.LEHB17:
 763 0408 E8000000 		call	_Unwind_Resume
 763      00
 764              	.LEHE17:
 765              	.L40:
  68:testError.cpp **** 	errFree(error);
 766              		.loc 2 68 0 is_stmt 1
 767 040d 4889C7   		movq	%rax, %rdi
 768 0410 E8000000 		call	__cxa_begin_catch
 768      00
 769              	.LEHB18:
 770 0415 E8000000 		call	_ZN8UnitTest11CurrentTest7DetailsEv
 770      00
 771 041a 488B08   		movq	(%rax), %rcx
 772 041d 488D45C0 		leaq	-64(%rbp), %rax
 773 0421 BA440000 		movl	$68, %edx
 773      00
 774 0426 4889CE   		movq	%rcx, %rsi
 775 0429 4889C7   		movq	%rax, %rdi
 776 042c E8000000 		call	_ZN8UnitTest11TestDetailsC1ERKS0_i
 776      00
  68:testError.cpp **** 	errFree(error);
 777              		.loc 2 68 0 is_stmt 0 discriminator 10
 778 0431 E8000000 		call	_ZN8UnitTest11CurrentTest7ResultsEv
 778      00
 779 0436 488B00   		movq	(%rax), %rax
 780 0439 488D4DC0 		leaq	-64(%rbp), %rcx
 781 043d BA000000 		movl	$.LC11, %edx
 781      00
 782 0442 4889CE   		movq	%rcx, %rsi
 783 0445 4889C7   		movq	%rax, %rdi
 784 0448 E8000000 		call	_ZN8UnitTest11TestResults13OnTestFailureERKNS_11TestDetailsEPKc
 784      00
 785              	.LEHE18:
 786              	.LEHB19:
  68:testError.cpp **** 	errFree(error);
 787              		.loc 2 68 0 discriminator 14
 788 044d E8000000 		call	__cxa_end_catch
 788      00
 789              	.LEHE19:
 790 0452 E9D7FEFF 		jmp	.L33
 790      FF
 791              	.L41:
 792 0457 4889C3   		movq	%rax, %rbx
  68:testError.cpp **** 	errFree(error);
 793              		.loc 2 68 0
 794 045a E8000000 		call	__cxa_end_catch
 794      00
 795 045f 4889D8   		movq	%rbx, %rax
 796 0462 4889C7   		movq	%rax, %rdi
 797              	.LEHB20:
 798 0465 E8000000 		call	_Unwind_Resume
 798      00
 799              	.LEHE20:
 800              	.L42:
 801              		.loc 2 70 0 is_stmt 1
 802 046a E8000000 		call	__stack_chk_fail
 802      00
 803              	.L35:
 804 046f 4883C468 		addq	$104, %rsp
 805 0473 5B       		popq	%rbx
 806 0474 5D       		popq	%rbp
 807              		.cfi_def_cfa 7, 8
 808 0475 C3       		ret
 809              		.cfi_endproc
 810              	.LFE1089:
 811              		.section	.gcc_except_table
 812              		.align 4
 813              	.LLSDA1089:
 814 002c FF       		.byte	0xff
 815 002d 03       		.byte	0x3
 816 002e 59       		.uleb128 .LLSDATT1089-.LLSDATTD1089
 817              	.LLSDATTD1089:
 818 002f 01       		.byte	0x1
 819 0030 4F       		.uleb128 .LLSDACSE1089-.LLSDACSB1089
 820              	.LLSDACSB1089:
 821 0031 2E       		.uleb128 .LEHB6-.LFB1089
 822 0032 05       		.uleb128 .LEHE6-.LEHB6
 823 0033 00       		.uleb128 0
 824 0034 00       		.uleb128 0
 825 0035 50       		.uleb128 .LEHB7-.LFB1089
 826 0036 38       		.uleb128 .LEHE7-.LEHB7
 827 0037 ED02     		.uleb128 .L36-.LFB1089
 828 0039 01       		.uleb128 0x1
 829 003a 8F01     		.uleb128 .LEHB8-.LFB1089
 830 003c 14       		.uleb128 .LEHE8-.LEHB8
 831 003d 00       		.uleb128 0
 832 003e 00       		.uleb128 0
 833 003f C001     		.uleb128 .LEHB9-.LFB1089
 834 0041 38       		.uleb128 .LEHE9-.LEHB9
 835 0042 CA03     		.uleb128 .L38-.LFB1089
 836 0044 01       		.uleb128 0x1
 837 0045 8A02     		.uleb128 .LEHB10-.LFB1089
 838 0047 3E       		.uleb128 .LEHE10-.LEHB10
 839 0048 A704     		.uleb128 .L40-.LFB1089
 840 004a 01       		.uleb128 0x1
 841 004b CF02     		.uleb128 .LEHB11-.LFB1089
 842 004d 05       		.uleb128 .LEHE11-.LEHB11
 843 004e 00       		.uleb128 0
 844 004f 00       		.uleb128 0
 845 0050 F502     		.uleb128 .LEHB12-.LFB1089
 846 0052 38       		.uleb128 .LEHE12-.LEHB12
 847 0053 B703     		.uleb128 .L37-.LFB1089
 848 0055 00       		.uleb128 0
 849 0056 AD03     		.uleb128 .LEHB13-.LFB1089
 850 0058 05       		.uleb128 .LEHE13-.LEHB13
 851 0059 00       		.uleb128 0
 852 005a 00       		.uleb128 0
 853 005b C503     		.uleb128 .LEHB14-.LFB1089
 854 005d 05       		.uleb128 .LEHE14-.LEHB14
 855 005e 00       		.uleb128 0
 856 005f 00       		.uleb128 0
 857 0060 D203     		.uleb128 .LEHB15-.LFB1089
 858 0062 38       		.uleb128 .LEHE15-.LEHB15
 859 0063 9404     		.uleb128 .L39-.LFB1089
 860 0065 00       		.uleb128 0
 861 0066 8A04     		.uleb128 .LEHB16-.LFB1089
 862 0068 05       		.uleb128 .LEHE16-.LEHB16
 863 0069 00       		.uleb128 0
 864 006a 00       		.uleb128 0
 865 006b A204     		.uleb128 .LEHB17-.LFB1089
 866 006d 05       		.uleb128 .LEHE17-.LEHB17
 867 006e 00       		.uleb128 0
 868 006f 00       		.uleb128 0
 869 0070 AF04     		.uleb128 .LEHB18-.LFB1089
 870 0072 38       		.uleb128 .LEHE18-.LEHB18
 871 0073 F104     		.uleb128 .L41-.LFB1089
 872 0075 00       		.uleb128 0
 873 0076 E704     		.uleb128 .LEHB19-.LFB1089
 874 0078 05       		.uleb128 .LEHE19-.LEHB19
 875 0079 00       		.uleb128 0
 876 007a 00       		.uleb128 0
 877 007b FF04     		.uleb128 .LEHB20-.LFB1089
 878 007d 05       		.uleb128 .LEHE20-.LEHB20
 879 007e 00       		.uleb128 0
 880 007f 00       		.uleb128 0
 881              	.LLSDACSE1089:
 882 0080 01       		.byte	0x1
 883 0081 00       		.byte	0
 884 0082 0000     		.align 4
 885 0084 00000000 		.long	0
 886              	
 887              	.LLSDATT1089:
 888              		.text
 890              		.section	.rodata
 891              	.LC12:
 892 011c 4572726F 		.string	"Error_testPrefixSomething"
 892      725F7465 
 892      73745072 
 892      65666978 
 892      536F6D65 
 893              		.section	.text._ZN29TestError_testPrefixSomethingC2Ev,"axG",@progbits,_ZN29TestError_testPrefixSom
 894              		.align 2
 895              		.weak	_ZN29TestError_testPrefixSomethingC2Ev
 897              	_ZN29TestError_testPrefixSomethingC2Ev:
 898              	.LFB1091:
  71:testError.cpp **** 
  72:testError.cpp **** TEST(Error_testPrefixSomething) {
 899              		.loc 2 72 0
 900              		.cfi_startproc
 901 0000 55       		pushq	%rbp
 902              		.cfi_def_cfa_offset 16
 903              		.cfi_offset 6, -16
 904 0001 4889E5   		movq	%rsp, %rbp
 905              		.cfi_def_cfa_register 6
 906 0004 4883EC10 		subq	$16, %rsp
 907 0008 48897DF8 		movq	%rdi, -8(%rbp)
 908              	.LBB6:
 909              		.loc 2 72 0
 910 000c E8000000 		call	_ZN13UnitTestSuite12GetSuiteNameEv
 910      00
 911 0011 4889C2   		movq	%rax, %rdx
 912 0014 488B45F8 		movq	-8(%rbp), %rax
 913 0018 41B84800 		movl	$72, %r8d
 913      0000
 914 001e B9000000 		movl	$.LC1, %ecx
 914      00
 915 0023 BE000000 		movl	$.LC12, %esi
 915      00
 916 0028 4889C7   		movq	%rax, %rdi
 917 002b E8000000 		call	_ZN8UnitTest4TestC2EPKcS2_S2_i
 917      00
 918 0030 BA000000 		movl	$_ZTV29TestError_testPrefixSomething+16, %edx
 918      00
 919 0035 488B45F8 		movq	-8(%rbp), %rax
 920 0039 488910   		movq	%rdx, (%rax)
 921              	.LBE6:
 922 003c 90       		nop
 923 003d C9       		leave
 924              		.cfi_def_cfa 7, 8
 925 003e C3       		ret
 926              		.cfi_endproc
 927              	.LFE1091:
 929              		.weak	_ZN29TestError_testPrefixSomethingC1Ev
 930              		.set	_ZN29TestError_testPrefixSomethingC1Ev,_ZN29TestError_testPrefixSomethingC2Ev
 931              		.globl	testError_testPrefixSomethingInstance
 932              		.bss
 933 04f9 00000000 		.align 32
 933      000000
 936              	testError_testPrefixSomethingInstance:
 937 0500 00000000 		.zero	56
 937      00000000 
 937      00000000 
 937      00000000 
 937      00000000 
 938              		.globl	adderError_testPrefixSomething
 941              	adderError_testPrefixSomething:
 942 0538 00       		.zero	1
 943              		.section	.rodata
 944              	.LC13:
 945 0136 6D795072 		.string	"myPrefix(): Foo Bar"
 945      65666978 
 945      28293A20 
 945      466F6F20 
 945      42617200 
 946              	.LC14:
 947 014a 466F6F20 		.string	"Foo Bar"
 947      42617200 
 948              	.LC15:
 949 0152 6D795072 		.string	"myPrefix()"
 949      65666978 
 949      282900
 950 015d 000000   		.align 8
 951              	.LC16:
 952 0160 556E6861 		.string	"Unhandled exception in CHECK_EQUAL(MSG, error)"
 952      6E646C65 
 952      64206578 
 952      63657074 
 952      696F6E20 
 953              		.text
 954              		.align 2
 955              		.globl	_ZNK29TestError_testPrefixSomething7RunImplEv
 957              	_ZNK29TestError_testPrefixSomething7RunImplEv:
 958              	.LFB1093:
 959              		.loc 2 72 0
 960              		.cfi_startproc
 961              		.cfi_personality 0x3,__gxx_personality_v0
 962              		.cfi_lsda 0x3,.LLSDA1093
 963 0476 55       		pushq	%rbp
 964              		.cfi_def_cfa_offset 16
 965              		.cfi_offset 6, -16
 966 0477 4889E5   		movq	%rsp, %rbp
 967              		.cfi_def_cfa_register 6
 968 047a 53       		pushq	%rbx
 969 047b 4883EC58 		subq	$88, %rsp
 970              		.cfi_offset 3, -24
 971 047f 48897DA8 		movq	%rdi, -88(%rbp)
 972              		.loc 2 72 0
 973 0483 64488B04 		movq	%fs:40, %rax
 973      25280000 
 973      00
 974 048c 488945E8 		movq	%rax, -24(%rbp)
 975 0490 31C0     		xorl	%eax, %eax
  73:testError.cpp **** 	#define MSG "Foo Bar"
  74:testError.cpp **** 	#define PFX "myPrefix()"
  75:testError.cpp **** 	const char *error = NULL;
 976              		.loc 2 75 0
 977 0492 48C745B0 		movq	$0, -80(%rbp)
 977      00000000 
  76:testError.cpp **** 	const char *const expected = PFX": "MSG;
 978              		.loc 2 76 0
 979 049a 48C745B8 		movq	$.LC13, -72(%rbp)
 979      00000000 
  77:testError.cpp **** 	errRender(&error, MSG);
 980              		.loc 2 77 0
 981 04a2 488D45B0 		leaq	-80(%rbp), %rax
 982 04a6 BE000000 		movl	$.LC14, %esi
 982      00
 983 04ab 4889C7   		movq	%rax, %rdi
 984 04ae B8000000 		movl	$0, %eax
 984      00
 985              	.LEHB21:
 986 04b3 E8000000 		call	errRender
 986      00
 987              	.LEHE21:
 988              	.LEHB22:
  78:testError.cpp **** 	CHECK_EQUAL(MSG, error);
 989              		.loc 2 78 0
 990 04b8 E8000000 		call	_ZN8UnitTest11CurrentTest7DetailsEv
 990      00
 991 04bd 488B08   		movq	(%rax), %rcx
 992 04c0 488D45C0 		leaq	-64(%rbp), %rax
 993 04c4 BA4E0000 		movl	$78, %edx
 993      00
 994 04c9 4889CE   		movq	%rcx, %rsi
 995 04cc 4889C7   		movq	%rax, %rdi
 996 04cf E8000000 		call	_ZN8UnitTest11TestDetailsC1ERKS0_i
 996      00
 997              		.loc 2 78 0 is_stmt 0 discriminator 2
 998 04d4 488B5DB0 		movq	-80(%rbp), %rbx
 999 04d8 E8000000 		call	_ZN8UnitTest11CurrentTest7ResultsEv
 999      00
 1000 04dd 488B00   		movq	(%rax), %rax
 1001 04e0 488D55C0 		leaq	-64(%rbp), %rdx
 1002 04e4 4889D1   		movq	%rdx, %rcx
 1003 04e7 4889DA   		movq	%rbx, %rdx
 1004 04ea BE000000 		movl	$.LC14, %esi
 1004      00
 1005 04ef 4889C7   		movq	%rax, %rdi
 1006 04f2 E8000000 		call	_ZN8UnitTest10CheckEqualERNS_11TestResultsEPKcS3_RKNS_11TestDetailsE
 1006      00
 1007              	.LEHE22:
 1008              	.L46:
  79:testError.cpp **** 	errPrefix(&error, PFX);
 1009              		.loc 2 79 0 is_stmt 1
 1010 04f7 488D45B0 		leaq	-80(%rbp), %rax
 1011 04fb BE000000 		movl	$.LC15, %esi
 1011      00
 1012 0500 4889C7   		movq	%rax, %rdi
 1013              	.LEHB23:
 1014 0503 E8000000 		call	errPrefix
 1014      00
 1015              	.LEHE23:
 1016              	.LEHB24:
  80:testError.cpp **** 	CHECK_EQUAL(expected, error);
 1017              		.loc 2 80 0
 1018 0508 E8000000 		call	_ZN8UnitTest11CurrentTest7DetailsEv
 1018      00
 1019 050d 488B08   		movq	(%rax), %rcx
 1020 0510 488D45C0 		leaq	-64(%rbp), %rax
 1021 0514 BA500000 		movl	$80, %edx
 1021      00
 1022 0519 4889CE   		movq	%rcx, %rsi
 1023 051c 4889C7   		movq	%rax, %rdi
 1024 051f E8000000 		call	_ZN8UnitTest11TestDetailsC1ERKS0_i
 1024      00
 1025              		.loc 2 80 0 is_stmt 0 discriminator 2
 1026 0524 488B5DB0 		movq	-80(%rbp), %rbx
 1027 0528 E8000000 		call	_ZN8UnitTest11CurrentTest7ResultsEv
 1027      00
 1028 052d 488B00   		movq	(%rax), %rax
 1029 0530 488D55C0 		leaq	-64(%rbp), %rdx
 1030 0534 488B75B8 		movq	-72(%rbp), %rsi
 1031 0538 4889D1   		movq	%rdx, %rcx
 1032 053b 4889DA   		movq	%rbx, %rdx
 1033 053e 4889C7   		movq	%rax, %rdi
 1034 0541 E8000000 		call	_ZN8UnitTest10CheckEqualERNS_11TestResultsEPKcS3_RKNS_11TestDetailsE
 1034      00
 1035              	.LEHE24:
 1036              	.L49:
  81:testError.cpp **** 	errFree(error);
 1037              		.loc 2 81 0 is_stmt 1
 1038 0546 488B45B0 		movq	-80(%rbp), %rax
 1039 054a 4889C7   		movq	%rax, %rdi
 1040              	.LEHB25:
 1041 054d E8000000 		call	errFree
 1041      00
 1042              	.LEHE25:
  82:testError.cpp **** }
 1043              		.loc 2 82 0
 1044 0552 90       		nop
 1045 0553 488B45E8 		movq	-24(%rbp), %rax
 1046 0557 64483304 		xorq	%fs:40, %rax
 1046      25280000 
 1046      00
 1047 0560 0F84C400 		je	.L51
 1047      0000
 1048 0566 E9BA0000 		jmp	.L56
 1048      00
 1049              	.L52:
  78:testError.cpp **** 	errPrefix(&error, PFX);
 1050              		.loc 2 78 0
 1051 056b 4889C7   		movq	%rax, %rdi
 1052 056e E8000000 		call	__cxa_begin_catch
 1052      00
 1053              	.LEHB26:
 1054 0573 E8000000 		call	_ZN8UnitTest11CurrentTest7DetailsEv
 1054      00
 1055 0578 488B08   		movq	(%rax), %rcx
 1056 057b 488D45C0 		leaq	-64(%rbp), %rax
 1057 057f BA4E0000 		movl	$78, %edx
 1057      00
 1058 0584 4889CE   		movq	%rcx, %rsi
 1059 0587 4889C7   		movq	%rax, %rdi
 1060 058a E8000000 		call	_ZN8UnitTest11TestDetailsC1ERKS0_i
 1060      00
  78:testError.cpp **** 	errPrefix(&error, PFX);
 1061              		.loc 2 78 0 is_stmt 0 discriminator 10
 1062 058f E8000000 		call	_ZN8UnitTest11CurrentTest7ResultsEv
 1062      00
 1063 0594 488B00   		movq	(%rax), %rax
 1064 0597 488D4DC0 		leaq	-64(%rbp), %rcx
 1065 059b BA000000 		movl	$.LC16, %edx
 1065      00
 1066 05a0 4889CE   		movq	%rcx, %rsi
 1067 05a3 4889C7   		movq	%rax, %rdi
 1068 05a6 E8000000 		call	_ZN8UnitTest11TestResults13OnTestFailureERKNS_11TestDetailsEPKc
 1068      00
 1069              	.LEHE26:
 1070              	.LEHB27:
  78:testError.cpp **** 	errPrefix(&error, PFX);
 1071              		.loc 2 78 0 discriminator 14
 1072 05ab E8000000 		call	__cxa_end_catch
 1072      00
 1073              	.LEHE27:
 1074 05b0 E942FFFF 		jmp	.L46
 1074      FF
 1075              	.L53:
 1076 05b5 4889C3   		movq	%rax, %rbx
  78:testError.cpp **** 	errPrefix(&error, PFX);
 1077              		.loc 2 78 0
 1078 05b8 E8000000 		call	__cxa_end_catch
 1078      00
 1079 05bd 4889D8   		movq	%rbx, %rax
 1080 05c0 4889C7   		movq	%rax, %rdi
 1081              	.LEHB28:
 1082 05c3 E8000000 		call	_Unwind_Resume
 1082      00
 1083              	.LEHE28:
 1084              	.L54:
  80:testError.cpp **** 	errFree(error);
 1085              		.loc 2 80 0 is_stmt 1
 1086 05c8 4889C7   		movq	%rax, %rdi
 1087 05cb E8000000 		call	__cxa_begin_catch
 1087      00
 1088              	.LEHB29:
 1089 05d0 E8000000 		call	_ZN8UnitTest11CurrentTest7DetailsEv
 1089      00
 1090 05d5 488B08   		movq	(%rax), %rcx
 1091 05d8 488D45C0 		leaq	-64(%rbp), %rax
 1092 05dc BA500000 		movl	$80, %edx
 1092      00
 1093 05e1 4889CE   		movq	%rcx, %rsi
 1094 05e4 4889C7   		movq	%rax, %rdi
 1095 05e7 E8000000 		call	_ZN8UnitTest11TestDetailsC1ERKS0_i
 1095      00
  80:testError.cpp **** 	errFree(error);
 1096              		.loc 2 80 0 is_stmt 0 discriminator 10
 1097 05ec E8000000 		call	_ZN8UnitTest11CurrentTest7ResultsEv
 1097      00
 1098 05f1 488B00   		movq	(%rax), %rax
 1099 05f4 488D4DC0 		leaq	-64(%rbp), %rcx
 1100 05f8 BA000000 		movl	$.LC11, %edx
 1100      00
 1101 05fd 4889CE   		movq	%rcx, %rsi
 1102 0600 4889C7   		movq	%rax, %rdi
 1103 0603 E8000000 		call	_ZN8UnitTest11TestResults13OnTestFailureERKNS_11TestDetailsEPKc
 1103      00
 1104              	.LEHE29:
 1105              	.LEHB30:
  80:testError.cpp **** 	errFree(error);
 1106              		.loc 2 80 0 discriminator 14
 1107 0608 E8000000 		call	__cxa_end_catch
 1107      00
 1108              	.LEHE30:
 1109 060d E934FFFF 		jmp	.L49
 1109      FF
 1110              	.L55:
 1111 0612 4889C3   		movq	%rax, %rbx
  80:testError.cpp **** 	errFree(error);
 1112              		.loc 2 80 0
 1113 0615 E8000000 		call	__cxa_end_catch
 1113      00
 1114 061a 4889D8   		movq	%rbx, %rax
 1115 061d 4889C7   		movq	%rax, %rdi
 1116              	.LEHB31:
 1117 0620 E8000000 		call	_Unwind_Resume
 1117      00
 1118              	.LEHE31:
 1119              	.L56:
 1120              		.loc 2 82 0 is_stmt 1
 1121 0625 E8000000 		call	__stack_chk_fail
 1121      00
 1122              	.L51:
 1123 062a 4883C458 		addq	$88, %rsp
 1124 062e 5B       		popq	%rbx
 1125 062f 5D       		popq	%rbp
 1126              		.cfi_def_cfa 7, 8
 1127 0630 C3       		ret
 1128              		.cfi_endproc
 1129              	.LFE1093:
 1130              		.section	.gcc_except_table
 1131              		.align 4
 1132              	.LLSDA1093:
 1133 0088 FF       		.byte	0xff
 1134 0089 03       		.byte	0x3
 1135 008a 41       		.uleb128 .LLSDATT1093-.LLSDATTD1093
 1136              	.LLSDATTD1093:
 1137 008b 01       		.byte	0x1
 1138 008c 39       		.uleb128 .LLSDACSE1093-.LLSDACSB1093
 1139              	.LLSDACSB1093:
 1140 008d 3D       		.uleb128 .LEHB21-.LFB1093
 1141 008e 05       		.uleb128 .LEHE21-.LEHB21
 1142 008f 00       		.uleb128 0
 1143 0090 00       		.uleb128 0
 1144 0091 42       		.uleb128 .LEHB22-.LFB1093
 1145 0092 3F       		.uleb128 .LEHE22-.LEHB22
 1146 0093 F501     		.uleb128 .L52-.LFB1093
 1147 0095 01       		.uleb128 0x1
 1148 0096 8D01     		.uleb128 .LEHB23-.LFB1093
 1149 0098 05       		.uleb128 .LEHE23-.LEHB23
 1150 0099 00       		.uleb128 0
 1151 009a 00       		.uleb128 0
 1152 009b 9201     		.uleb128 .LEHB24-.LFB1093
 1153 009d 3E       		.uleb128 .LEHE24-.LEHB24
 1154 009e D202     		.uleb128 .L54-.LFB1093
 1155 00a0 01       		.uleb128 0x1
 1156 00a1 D701     		.uleb128 .LEHB25-.LFB1093
 1157 00a3 05       		.uleb128 .LEHE25-.LEHB25
 1158 00a4 00       		.uleb128 0
 1159 00a5 00       		.uleb128 0
 1160 00a6 FD01     		.uleb128 .LEHB26-.LFB1093
 1161 00a8 38       		.uleb128 .LEHE26-.LEHB26
 1162 00a9 BF02     		.uleb128 .L53-.LFB1093
 1163 00ab 00       		.uleb128 0
 1164 00ac B502     		.uleb128 .LEHB27-.LFB1093
 1165 00ae 05       		.uleb128 .LEHE27-.LEHB27
 1166 00af 00       		.uleb128 0
 1167 00b0 00       		.uleb128 0
 1168 00b1 CD02     		.uleb128 .LEHB28-.LFB1093
 1169 00b3 05       		.uleb128 .LEHE28-.LEHB28
 1170 00b4 00       		.uleb128 0
 1171 00b5 00       		.uleb128 0
 1172 00b6 DA02     		.uleb128 .LEHB29-.LFB1093
 1173 00b8 38       		.uleb128 .LEHE29-.LEHB29
 1174 00b9 9C03     		.uleb128 .L55-.LFB1093
 1175 00bb 00       		.uleb128 0
 1176 00bc 9203     		.uleb128 .LEHB30-.LFB1093
 1177 00be 05       		.uleb128 .LEHE30-.LEHB30
 1178 00bf 00       		.uleb128 0
 1179 00c0 00       		.uleb128 0
 1180 00c1 AA03     		.uleb128 .LEHB31-.LFB1093
 1181 00c3 05       		.uleb128 .LEHE31-.LEHB31
 1182 00c4 00       		.uleb128 0
 1183 00c5 00       		.uleb128 0
 1184              	.LLSDACSE1093:
 1185 00c6 01       		.byte	0x1
 1186 00c7 00       		.byte	0
 1187              		.align 4
 1188 00c8 00000000 		.long	0
 1189              	
 1190              	.LLSDATT1093:
 1191              		.text
 1193              		.section	.rodata
 1194              	.LC17:
 1195 018f 4572726F 		.string	"Error_testPrefixNothing"
 1195      725F7465 
 1195      73745072 
 1195      65666978 
 1195      4E6F7468 
 1196              		.section	.text._ZN27TestError_testPrefixNothingC2Ev,"axG",@progbits,_ZN27TestError_testPrefixNothi
 1197              		.align 2
 1198              		.weak	_ZN27TestError_testPrefixNothingC2Ev
 1200              	_ZN27TestError_testPrefixNothingC2Ev:
 1201              	.LFB1095:
  83:testError.cpp **** 
  84:testError.cpp **** TEST(Error_testPrefixNothing) {
 1202              		.loc 2 84 0
 1203              		.cfi_startproc
 1204 0000 55       		pushq	%rbp
 1205              		.cfi_def_cfa_offset 16
 1206              		.cfi_offset 6, -16
 1207 0001 4889E5   		movq	%rsp, %rbp
 1208              		.cfi_def_cfa_register 6
 1209 0004 4883EC10 		subq	$16, %rsp
 1210 0008 48897DF8 		movq	%rdi, -8(%rbp)
 1211              	.LBB7:
 1212              		.loc 2 84 0
 1213 000c E8000000 		call	_ZN13UnitTestSuite12GetSuiteNameEv
 1213      00
 1214 0011 4889C2   		movq	%rax, %rdx
 1215 0014 488B45F8 		movq	-8(%rbp), %rax
 1216 0018 41B85400 		movl	$84, %r8d
 1216      0000
 1217 001e B9000000 		movl	$.LC1, %ecx
 1217      00
 1218 0023 BE000000 		movl	$.LC17, %esi
 1218      00
 1219 0028 4889C7   		movq	%rax, %rdi
 1220 002b E8000000 		call	_ZN8UnitTest4TestC2EPKcS2_S2_i
 1220      00
 1221 0030 BA000000 		movl	$_ZTV27TestError_testPrefixNothing+16, %edx
 1221      00
 1222 0035 488B45F8 		movq	-8(%rbp), %rax
 1223 0039 488910   		movq	%rdx, (%rax)
 1224              	.LBE7:
 1225 003c 90       		nop
 1226 003d C9       		leave
 1227              		.cfi_def_cfa 7, 8
 1228 003e C3       		ret
 1229              		.cfi_endproc
 1230              	.LFE1095:
 1232              		.weak	_ZN27TestError_testPrefixNothingC1Ev
 1233              		.set	_ZN27TestError_testPrefixNothingC1Ev,_ZN27TestError_testPrefixNothingC2Ev
 1234              		.globl	testError_testPrefixNothingInstance
 1235              		.bss
 1236 0539 00000000 		.align 32
 1236      000000
 1239              	testError_testPrefixNothingInstance:
 1240 0540 00000000 		.zero	56
 1240      00000000 
 1240      00000000 
 1240      00000000 
 1240      00000000 
 1241              		.globl	adderError_testPrefixNothing
 1244              	adderError_testPrefixNothing:
 1245 0578 00       		.zero	1
 1246              		.text
 1247 0631 90       		.align 2
 1248              		.globl	_ZNK27TestError_testPrefixNothing7RunImplEv
 1250              	_ZNK27TestError_testPrefixNothing7RunImplEv:
 1251              	.LFB1097:
 1252              		.loc 2 84 0
 1253              		.cfi_startproc
 1254              		.cfi_personality 0x3,__gxx_personality_v0
 1255              		.cfi_lsda 0x3,.LLSDA1097
 1256 0632 55       		pushq	%rbp
 1257              		.cfi_def_cfa_offset 16
 1258              		.cfi_offset 6, -16
 1259 0633 4889E5   		movq	%rsp, %rbp
 1260              		.cfi_def_cfa_register 6
 1261 0636 53       		pushq	%rbx
 1262 0637 4883EC58 		subq	$88, %rsp
 1263              		.cfi_offset 3, -24
 1264 063b 48897DA8 		movq	%rdi, -88(%rbp)
 1265              		.loc 2 84 0
 1266 063f 64488B04 		movq	%fs:40, %rax
 1266      25280000 
 1266      00
 1267 0648 488945E8 		movq	%rax, -24(%rbp)
 1268 064c 31C0     		xorl	%eax, %eax
  85:testError.cpp **** 	const char *error = NULL;
 1269              		.loc 2 85 0
 1270 064e 48C745B0 		movq	$0, -80(%rbp)
 1270      00000000 
  86:testError.cpp **** 	const char *const expected = "myPrefix(): Foo Bar";
 1271              		.loc 2 86 0
 1272 0656 48C745B8 		movq	$.LC13, -72(%rbp)
 1272      00000000 
  87:testError.cpp **** 	errPrefix(&error, expected);
 1273              		.loc 2 87 0
 1274 065e 488B55B8 		movq	-72(%rbp), %rdx
 1275 0662 488D45B0 		leaq	-80(%rbp), %rax
 1276 0666 4889D6   		movq	%rdx, %rsi
 1277 0669 4889C7   		movq	%rax, %rdi
 1278              	.LEHB32:
 1279 066c E8000000 		call	errPrefix
 1279      00
 1280              	.LEHE32:
 1281              	.LEHB33:
  88:testError.cpp **** 	CHECK_EQUAL(expected, error);
 1282              		.loc 2 88 0
 1283 0671 E8000000 		call	_ZN8UnitTest11CurrentTest7DetailsEv
 1283      00
 1284 0676 488B08   		movq	(%rax), %rcx
 1285 0679 488D45C0 		leaq	-64(%rbp), %rax
 1286 067d BA580000 		movl	$88, %edx
 1286      00
 1287 0682 4889CE   		movq	%rcx, %rsi
 1288 0685 4889C7   		movq	%rax, %rdi
 1289 0688 E8000000 		call	_ZN8UnitTest11TestDetailsC1ERKS0_i
 1289      00
 1290              		.loc 2 88 0 is_stmt 0 discriminator 2
 1291 068d 488B5DB0 		movq	-80(%rbp), %rbx
 1292 0691 E8000000 		call	_ZN8UnitTest11CurrentTest7ResultsEv
 1292      00
 1293 0696 488B00   		movq	(%rax), %rax
 1294 0699 488D55C0 		leaq	-64(%rbp), %rdx
 1295 069d 488B75B8 		movq	-72(%rbp), %rsi
 1296 06a1 4889D1   		movq	%rdx, %rcx
 1297 06a4 4889DA   		movq	%rbx, %rdx
 1298 06a7 4889C7   		movq	%rax, %rdi
 1299 06aa E8000000 		call	_ZN8UnitTest10CheckEqualERNS_11TestResultsEPKcS3_RKNS_11TestDetailsE
 1299      00
 1300              	.LEHE33:
 1301              	.L60:
  89:testError.cpp **** 	errFree(error);
 1302              		.loc 2 89 0 is_stmt 1
 1303 06af 488B45B0 		movq	-80(%rbp), %rax
 1304 06b3 4889C7   		movq	%rax, %rdi
 1305              	.LEHB34:
 1306 06b6 E8000000 		call	errFree
 1306      00
 1307              	.LEHE34:
  90:testError.cpp **** }
 1308              		.loc 2 90 0
 1309 06bb 90       		nop
 1310 06bc 488B45E8 		movq	-24(%rbp), %rax
 1311 06c0 64483304 		xorq	%fs:40, %rax
 1311      25280000 
 1311      00
 1312 06c9 7461     		je	.L62
 1313 06cb EB5A     		jmp	.L65
 1314              	.L63:
  88:testError.cpp **** 	CHECK_EQUAL(expected, error);
 1315              		.loc 2 88 0
 1316 06cd 4889C7   		movq	%rax, %rdi
 1317 06d0 E8000000 		call	__cxa_begin_catch
 1317      00
 1318              	.LEHB35:
 1319 06d5 E8000000 		call	_ZN8UnitTest11CurrentTest7DetailsEv
 1319      00
 1320 06da 488B08   		movq	(%rax), %rcx
 1321 06dd 488D45C0 		leaq	-64(%rbp), %rax
 1322 06e1 BA580000 		movl	$88, %edx
 1322      00
 1323 06e6 4889CE   		movq	%rcx, %rsi
 1324 06e9 4889C7   		movq	%rax, %rdi
 1325 06ec E8000000 		call	_ZN8UnitTest11TestDetailsC1ERKS0_i
 1325      00
  88:testError.cpp **** 	CHECK_EQUAL(expected, error);
 1326              		.loc 2 88 0 is_stmt 0 discriminator 10
 1327 06f1 E8000000 		call	_ZN8UnitTest11CurrentTest7ResultsEv
 1327      00
 1328 06f6 488B00   		movq	(%rax), %rax
 1329 06f9 488D4DC0 		leaq	-64(%rbp), %rcx
 1330 06fd BA000000 		movl	$.LC11, %edx
 1330      00
 1331 0702 4889CE   		movq	%rcx, %rsi
 1332 0705 4889C7   		movq	%rax, %rdi
 1333 0708 E8000000 		call	_ZN8UnitTest11TestResults13OnTestFailureERKNS_11TestDetailsEPKc
 1333      00
 1334              	.LEHE35:
 1335              	.LEHB36:
  88:testError.cpp **** 	CHECK_EQUAL(expected, error);
 1336              		.loc 2 88 0 discriminator 14
 1337 070d E8000000 		call	__cxa_end_catch
 1337      00
 1338              	.LEHE36:
 1339 0712 EB9B     		jmp	.L60
 1340              	.L64:
 1341 0714 4889C3   		movq	%rax, %rbx
  88:testError.cpp **** 	CHECK_EQUAL(expected, error);
 1342              		.loc 2 88 0
 1343 0717 E8000000 		call	__cxa_end_catch
 1343      00
 1344 071c 4889D8   		movq	%rbx, %rax
 1345 071f 4889C7   		movq	%rax, %rdi
 1346              	.LEHB37:
 1347 0722 E8000000 		call	_Unwind_Resume
 1347      00
 1348              	.LEHE37:
 1349              	.L65:
 1350              		.loc 2 90 0 is_stmt 1
 1351 0727 E8000000 		call	__stack_chk_fail
 1351      00
 1352              	.L62:
 1353 072c 4883C458 		addq	$88, %rsp
 1354 0730 5B       		popq	%rbx
 1355 0731 5D       		popq	%rbp
 1356              		.cfi_def_cfa 7, 8
 1357 0732 C3       		ret
 1358              		.cfi_endproc
 1359              	.LFE1097:
 1360              		.section	.gcc_except_table
 1361              		.align 4
 1362              	.LLSDA1097:
 1363 00cc FF       		.byte	0xff
 1364 00cd 03       		.byte	0x3
 1365 00ce 29       		.uleb128 .LLSDATT1097-.LLSDATTD1097
 1366              	.LLSDATTD1097:
 1367 00cf 01       		.byte	0x1
 1368 00d0 1E       		.uleb128 .LLSDACSE1097-.LLSDACSB1097
 1369              	.LLSDACSB1097:
 1370 00d1 3A       		.uleb128 .LEHB32-.LFB1097
 1371 00d2 05       		.uleb128 .LEHE32-.LEHB32
 1372 00d3 00       		.uleb128 0
 1373 00d4 00       		.uleb128 0
 1374 00d5 3F       		.uleb128 .LEHB33-.LFB1097
 1375 00d6 3E       		.uleb128 .LEHE33-.LEHB33
 1376 00d7 9B01     		.uleb128 .L63-.LFB1097
 1377 00d9 01       		.uleb128 0x1
 1378 00da 8401     		.uleb128 .LEHB34-.LFB1097
 1379 00dc 05       		.uleb128 .LEHE34-.LEHB34
 1380 00dd 00       		.uleb128 0
 1381 00de 00       		.uleb128 0
 1382 00df A301     		.uleb128 .LEHB35-.LFB1097
 1383 00e1 38       		.uleb128 .LEHE35-.LEHB35
 1384 00e2 E201     		.uleb128 .L64-.LFB1097
 1385 00e4 00       		.uleb128 0
 1386 00e5 DB01     		.uleb128 .LEHB36-.LFB1097
 1387 00e7 05       		.uleb128 .LEHE36-.LEHB36
 1388 00e8 00       		.uleb128 0
 1389 00e9 00       		.uleb128 0
 1390 00ea F001     		.uleb128 .LEHB37-.LFB1097
 1391 00ec 05       		.uleb128 .LEHE37-.LEHB37
 1392 00ed 00       		.uleb128 0
 1393 00ee 00       		.uleb128 0
 1394              	.LLSDACSE1097:
 1395 00ef 01       		.byte	0x1
 1396 00f0 00       		.byte	0
 1397 00f1 000000   		.align 4
 1398 00f4 00000000 		.long	0
 1399              	
 1400              	.LLSDATT1097:
 1401              		.text
 1403              		.section	.rodata
 1404              	.LC18:
 1405 01a7 4572726F 		.string	"Error_testPrefixNull"
 1405      725F7465 
 1405      73745072 
 1405      65666978 
 1405      4E756C6C 
 1406              		.section	.text._ZN24TestError_testPrefixNullC2Ev,"axG",@progbits,_ZN24TestError_testPrefixNullC5Ev
 1407              		.align 2
 1408              		.weak	_ZN24TestError_testPrefixNullC2Ev
 1410              	_ZN24TestError_testPrefixNullC2Ev:
 1411              	.LFB1099:
  91:testError.cpp **** 
  92:testError.cpp **** TEST(Error_testPrefixNull) {
 1412              		.loc 2 92 0
 1413              		.cfi_startproc
 1414 0000 55       		pushq	%rbp
 1415              		.cfi_def_cfa_offset 16
 1416              		.cfi_offset 6, -16
 1417 0001 4889E5   		movq	%rsp, %rbp
 1418              		.cfi_def_cfa_register 6
 1419 0004 4883EC10 		subq	$16, %rsp
 1420 0008 48897DF8 		movq	%rdi, -8(%rbp)
 1421              	.LBB8:
 1422              		.loc 2 92 0
 1423 000c E8000000 		call	_ZN13UnitTestSuite12GetSuiteNameEv
 1423      00
 1424 0011 4889C2   		movq	%rax, %rdx
 1425 0014 488B45F8 		movq	-8(%rbp), %rax
 1426 0018 41B85C00 		movl	$92, %r8d
 1426      0000
 1427 001e B9000000 		movl	$.LC1, %ecx
 1427      00
 1428 0023 BE000000 		movl	$.LC18, %esi
 1428      00
 1429 0028 4889C7   		movq	%rax, %rdi
 1430 002b E8000000 		call	_ZN8UnitTest4TestC2EPKcS2_S2_i
 1430      00
 1431 0030 BA000000 		movl	$_ZTV24TestError_testPrefixNull+16, %edx
 1431      00
 1432 0035 488B45F8 		movq	-8(%rbp), %rax
 1433 0039 488910   		movq	%rdx, (%rax)
 1434              	.LBE8:
 1435 003c 90       		nop
 1436 003d C9       		leave
 1437              		.cfi_def_cfa 7, 8
 1438 003e C3       		ret
 1439              		.cfi_endproc
 1440              	.LFE1099:
 1442              		.weak	_ZN24TestError_testPrefixNullC1Ev
 1443              		.set	_ZN24TestError_testPrefixNullC1Ev,_ZN24TestError_testPrefixNullC2Ev
 1444              		.globl	testError_testPrefixNullInstance
 1445              		.bss
 1446 0579 00000000 		.align 32
 1446      000000
 1449              	testError_testPrefixNullInstance:
 1450 0580 00000000 		.zero	56
 1450      00000000 
 1450      00000000 
 1450      00000000 
 1450      00000000 
 1451              		.globl	adderError_testPrefixNull
 1454              	adderError_testPrefixNull:
 1455 05b8 00       		.zero	1
 1456              		.section	.rodata
 1457              	.LC19:
 1458 01bc 466F6F00 		.string	"Foo"
 1459              	.LC20:
 1460 01c0 21657272 		.string	"!error"
 1460      6F7200
 1461 01c7 00       		.align 8
 1462              	.LC21:
 1463 01c8 556E6861 		.string	"Unhandled exception in CHECK(!error)"
 1463      6E646C65 
 1463      64206578 
 1463      63657074 
 1463      696F6E20 
 1464              		.text
 1465 0733 90       		.align 2
 1466              		.globl	_ZNK24TestError_testPrefixNull7RunImplEv
 1468              	_ZNK24TestError_testPrefixNull7RunImplEv:
 1469              	.LFB1101:
 1470              		.loc 2 92 0
 1471              		.cfi_startproc
 1472              		.cfi_personality 0x3,__gxx_personality_v0
 1473              		.cfi_lsda 0x3,.LLSDA1101
 1474 0734 55       		pushq	%rbp
 1475              		.cfi_def_cfa_offset 16
 1476              		.cfi_offset 6, -16
 1477 0735 4889E5   		movq	%rsp, %rbp
 1478              		.cfi_def_cfa_register 6
 1479 0738 53       		pushq	%rbx
 1480 0739 4883EC58 		subq	$88, %rsp
 1481              		.cfi_offset 3, -24
 1482 073d 48897DA8 		movq	%rdi, -88(%rbp)
 1483              		.loc 2 92 0
 1484 0741 64488B04 		movq	%fs:40, %rax
 1484      25280000 
 1484      00
 1485 074a 488945E8 		movq	%rax, -24(%rbp)
 1486 074e 31C0     		xorl	%eax, %eax
  93:testError.cpp **** 	const char *error = NULL;
 1487              		.loc 2 93 0
 1488 0750 48C745B8 		movq	$0, -72(%rbp)
 1488      00000000 
  94:testError.cpp **** 	errPrefix(NULL, "Foo");
 1489              		.loc 2 94 0
 1490 0758 BE000000 		movl	$.LC19, %esi
 1490      00
 1491 075d BF000000 		movl	$0, %edi
 1491      00
 1492              	.LEHB38:
 1493 0762 E8000000 		call	errPrefix
 1493      00
  95:testError.cpp **** 	errPrefix(&error, NULL);
 1494              		.loc 2 95 0
 1495 0767 488D45B8 		leaq	-72(%rbp), %rax
 1496 076b BE000000 		movl	$0, %esi
 1496      00
 1497 0770 4889C7   		movq	%rax, %rdi
 1498 0773 E8000000 		call	errPrefix
 1498      00
 1499              	.LEHE38:
  96:testError.cpp **** 	CHECK(!error);
 1500              		.loc 2 96 0
 1501 0778 488B45B8 		movq	-72(%rbp), %rax
 1502 077c 4885C0   		testq	%rax, %rax
 1503 077f 0F94C0   		sete	%al
 1504 0782 0FB6C0   		movzbl	%al, %eax
 1505 0785 89C7     		movl	%eax, %edi
 1506 0787 E8000000 		call	_ZN8UnitTest5CheckIbEEbT_
 1506      00
 1507 078c 83F001   		xorl	$1, %eax
 1508 078f 84C0     		testb	%al, %al
 1509 0791 0F849400 		je	.L74
 1509      0000
 1510              	.LEHB39:
 1511              		.loc 2 96 0 is_stmt 0 discriminator 1
 1512 0797 E8000000 		call	_ZN8UnitTest11CurrentTest7DetailsEv
 1512      00
 1513 079c 488B08   		movq	(%rax), %rcx
 1514 079f 488D45C0 		leaq	-64(%rbp), %rax
 1515 07a3 BA600000 		movl	$96, %edx
 1515      00
 1516 07a8 4889CE   		movq	%rcx, %rsi
 1517 07ab 4889C7   		movq	%rax, %rdi
 1518 07ae E8000000 		call	_ZN8UnitTest11TestDetailsC1ERKS0_i
 1518      00
 1519              		.loc 2 96 0 discriminator 3
 1520 07b3 E8000000 		call	_ZN8UnitTest11CurrentTest7ResultsEv
 1520      00
 1521 07b8 488B00   		movq	(%rax), %rax
 1522 07bb 488D4DC0 		leaq	-64(%rbp), %rcx
 1523 07bf BA000000 		movl	$.LC20, %edx
 1523      00
 1524 07c4 4889CE   		movq	%rcx, %rsi
 1525 07c7 4889C7   		movq	%rax, %rdi
 1526 07ca E8000000 		call	_ZN8UnitTest11TestResults13OnTestFailureERKNS_11TestDetailsEPKc
 1526      00
 1527              	.LEHE39:
  97:testError.cpp **** }
 1528              		.loc 2 97 0 is_stmt 1
 1529 07cf EB5A     		jmp	.L74
 1530              	.L72:
  96:testError.cpp **** 	CHECK(!error);
 1531              		.loc 2 96 0
 1532 07d1 4889C7   		movq	%rax, %rdi
 1533 07d4 E8000000 		call	__cxa_begin_catch
 1533      00
 1534              	.LEHB40:
 1535 07d9 E8000000 		call	_ZN8UnitTest11CurrentTest7DetailsEv
 1535      00
 1536 07de 488B08   		movq	(%rax), %rcx
 1537 07e1 488D45C0 		leaq	-64(%rbp), %rax
 1538 07e5 BA600000 		movl	$96, %edx
 1538      00
 1539 07ea 4889CE   		movq	%rcx, %rsi
 1540 07ed 4889C7   		movq	%rax, %rdi
 1541 07f0 E8000000 		call	_ZN8UnitTest11TestDetailsC1ERKS0_i
 1541      00
  96:testError.cpp **** 	CHECK(!error);
 1542              		.loc 2 96 0 is_stmt 0 discriminator 11
 1543 07f5 E8000000 		call	_ZN8UnitTest11CurrentTest7ResultsEv
 1543      00
 1544 07fa 488B00   		movq	(%rax), %rax
 1545 07fd 488D4DC0 		leaq	-64(%rbp), %rcx
 1546 0801 BA000000 		movl	$.LC21, %edx
 1546      00
 1547 0806 4889CE   		movq	%rcx, %rsi
 1548 0809 4889C7   		movq	%rax, %rdi
 1549 080c E8000000 		call	_ZN8UnitTest11TestResults13OnTestFailureERKNS_11TestDetailsEPKc
 1549      00
 1550              	.LEHE40:
 1551              	.LEHB41:
  96:testError.cpp **** 	CHECK(!error);
 1552              		.loc 2 96 0 discriminator 15
 1553 0811 E8000000 		call	__cxa_end_catch
 1553      00
 1554              	.LEHE41:
 1555              		.loc 2 97 0 is_stmt 1 discriminator 15
 1556 0816 EB13     		jmp	.L74
 1557              	.L73:
 1558 0818 4889C3   		movq	%rax, %rbx
  96:testError.cpp **** 	CHECK(!error);
 1559              		.loc 2 96 0
 1560 081b E8000000 		call	__cxa_end_catch
 1560      00
 1561 0820 4889D8   		movq	%rbx, %rax
 1562 0823 4889C7   		movq	%rax, %rdi
 1563              	.LEHB42:
 1564 0826 E8000000 		call	_Unwind_Resume
 1564      00
 1565              	.LEHE42:
 1566              	.L74:
 1567              		.loc 2 97 0
 1568 082b 90       		nop
 1569 082c 488B45E8 		movq	-24(%rbp), %rax
 1570 0830 64483304 		xorq	%fs:40, %rax
 1570      25280000 
 1570      00
 1571 0839 7405     		je	.L71
 1572 083b E8000000 		call	__stack_chk_fail
 1572      00
 1573              	.L71:
 1574 0840 4883C458 		addq	$88, %rsp
 1575 0844 5B       		popq	%rbx
 1576 0845 5D       		popq	%rbp
 1577              		.cfi_def_cfa 7, 8
 1578 0846 C3       		ret
 1579              		.cfi_endproc
 1580              	.LFE1101:
 1581              		.section	.gcc_except_table
 1582              		.align 4
 1583              	.LLSDA1101:
 1584 00f8 FF       		.byte	0xff
 1585 00f9 03       		.byte	0x3
 1586 00fa 21       		.uleb128 .LLSDATT1101-.LLSDATTD1101
 1587              	.LLSDATTD1101:
 1588 00fb 01       		.byte	0x1
 1589 00fc 19       		.uleb128 .LLSDACSE1101-.LLSDACSB1101
 1590              	.LLSDACSB1101:
 1591 00fd 2E       		.uleb128 .LEHB38-.LFB1101
 1592 00fe 16       		.uleb128 .LEHE38-.LEHB38
 1593 00ff 00       		.uleb128 0
 1594 0100 00       		.uleb128 0
 1595 0101 63       		.uleb128 .LEHB39-.LFB1101
 1596 0102 38       		.uleb128 .LEHE39-.LEHB39
 1597 0103 9D01     		.uleb128 .L72-.LFB1101
 1598 0105 01       		.uleb128 0x1
 1599 0106 A501     		.uleb128 .LEHB40-.LFB1101
 1600 0108 38       		.uleb128 .LEHE40-.LEHB40
 1601 0109 E401     		.uleb128 .L73-.LFB1101
 1602 010b 00       		.uleb128 0
 1603 010c DD01     		.uleb128 .LEHB41-.LFB1101
 1604 010e 05       		.uleb128 .LEHE41-.LEHB41
 1605 010f 00       		.uleb128 0
 1606 0110 00       		.uleb128 0
 1607 0111 F201     		.uleb128 .LEHB42-.LFB1101
 1608 0113 05       		.uleb128 .LEHE42-.LEHB42
 1609 0114 00       		.uleb128 0
 1610 0115 00       		.uleb128 0
 1611              	.LLSDACSE1101:
 1612 0116 01       		.byte	0x1
 1613 0117 00       		.byte	0
 1614              		.align 4
 1615 0118 00000000 		.long	0
 1616              	
 1617              	.LLSDATT1101:
 1618              		.text
 1620              		.section	.text._ZN8UnitTest5CheckIbEEbT_,"axG",@progbits,_ZN8UnitTest5CheckIbEEbT_,comdat
 1621              		.weak	_ZN8UnitTest5CheckIbEEbT_
 1623              	_ZN8UnitTest5CheckIbEEbT_:
 1624              	.LFB1129:
 1625              		.file 3 "/home/shubham/20140524/makestuff/libs/libutpp/Checks.h"
   1:/home/shubham/20140524/makestuff/libs/libutpp/Checks.h **** #ifndef UNITTEST_CHECKS_H
   2:/home/shubham/20140524/makestuff/libs/libutpp/Checks.h **** #define UNITTEST_CHECKS_H
   3:/home/shubham/20140524/makestuff/libs/libutpp/Checks.h **** 
   4:/home/shubham/20140524/makestuff/libs/libutpp/Checks.h **** #include "Config.h"
   5:/home/shubham/20140524/makestuff/libs/libutpp/Checks.h **** #include "TestResults.h"
   6:/home/shubham/20140524/makestuff/libs/libutpp/Checks.h **** #include "MemoryOutStream.h"
   7:/home/shubham/20140524/makestuff/libs/libutpp/Checks.h **** 
   8:/home/shubham/20140524/makestuff/libs/libutpp/Checks.h **** namespace UnitTest {
   9:/home/shubham/20140524/makestuff/libs/libutpp/Checks.h **** 
  10:/home/shubham/20140524/makestuff/libs/libutpp/Checks.h **** 
  11:/home/shubham/20140524/makestuff/libs/libutpp/Checks.h **** template< typename Value >
  12:/home/shubham/20140524/makestuff/libs/libutpp/Checks.h **** bool Check(Value const value)
 1626              		.loc 3 12 0
 1627              		.cfi_startproc
 1628 0000 55       		pushq	%rbp
 1629              		.cfi_def_cfa_offset 16
 1630              		.cfi_offset 6, -16
 1631 0001 4889E5   		movq	%rsp, %rbp
 1632              		.cfi_def_cfa_register 6
 1633 0004 89F8     		movl	%edi, %eax
 1634 0006 8845FC   		movb	%al, -4(%rbp)
  13:/home/shubham/20140524/makestuff/libs/libutpp/Checks.h **** {
  14:/home/shubham/20140524/makestuff/libs/libutpp/Checks.h ****     return !!value; // doing double negative to avoid silly VS warnings
 1635              		.loc 3 14 0
 1636 0009 0FB645FC 		movzbl	-4(%rbp), %eax
  15:/home/shubham/20140524/makestuff/libs/libutpp/Checks.h **** }
 1637              		.loc 3 15 0
 1638 000d 5D       		popq	%rbp
 1639              		.cfi_def_cfa 7, 8
 1640 000e C3       		ret
 1641              		.cfi_endproc
 1642              	.LFE1129:
 1644              		.weak	_ZTV24TestError_testPrefixNull
 1645              		.section	.rodata._ZTV24TestError_testPrefixNull,"aG",@progbits,_ZTV24TestError_testPrefixNull,comd
 1646              		.align 8
 1649              	_ZTV24TestError_testPrefixNull:
 1650 0000 00000000 		.quad	0
 1650      00000000 
 1651 0008 00000000 		.quad	_ZTI24TestError_testPrefixNull
 1651      00000000 
 1652 0010 00000000 		.quad	_ZN24TestError_testPrefixNullD1Ev
 1652      00000000 
 1653 0018 00000000 		.quad	_ZN24TestError_testPrefixNullD0Ev
 1653      00000000 
 1654 0020 00000000 		.quad	_ZNK24TestError_testPrefixNull7RunImplEv
 1654      00000000 
 1655              		.section	.text._ZN24TestError_testPrefixNullD2Ev,"axG",@progbits,_ZN24TestError_testPrefixNullD5Ev
 1656              		.align 2
 1657              		.weak	_ZN24TestError_testPrefixNullD2Ev
 1659              	_ZN24TestError_testPrefixNullD2Ev:
 1660              	.LFB1180:
  92:testError.cpp **** 	const char *error = NULL;
 1661              		.loc 2 92 0
 1662              		.cfi_startproc
 1663 0000 55       		pushq	%rbp
 1664              		.cfi_def_cfa_offset 16
 1665              		.cfi_offset 6, -16
 1666 0001 4889E5   		movq	%rsp, %rbp
 1667              		.cfi_def_cfa_register 6
 1668 0004 4883EC10 		subq	$16, %rsp
 1669 0008 48897DF8 		movq	%rdi, -8(%rbp)
 1670              	.LBB9:
  92:testError.cpp **** 	const char *error = NULL;
 1671              		.loc 2 92 0
 1672 000c BA000000 		movl	$_ZTV24TestError_testPrefixNull+16, %edx
 1672      00
 1673 0011 488B45F8 		movq	-8(%rbp), %rax
 1674 0015 488910   		movq	%rdx, (%rax)
 1675 0018 488B45F8 		movq	-8(%rbp), %rax
 1676 001c 4889C7   		movq	%rax, %rdi
 1677 001f E8000000 		call	_ZN8UnitTest4TestD2Ev
 1677      00
 1678              	.LBE9:
 1679 0024 B8000000 		movl	$0, %eax
 1679      00
 1680 0029 85C0     		testl	%eax, %eax
 1681 002b 740C     		je	.L77
  92:testError.cpp **** 	const char *error = NULL;
 1682              		.loc 2 92 0 is_stmt 0 discriminator 4
 1683 002d 488B45F8 		movq	-8(%rbp), %rax
 1684 0031 4889C7   		movq	%rax, %rdi
 1685 0034 E8000000 		call	_ZdlPv
 1685      00
 1686              	.L77:
  92:testError.cpp **** 	const char *error = NULL;
 1687              		.loc 2 92 0
 1688 0039 C9       		leave
 1689              		.cfi_def_cfa 7, 8
 1690 003a C3       		ret
 1691              		.cfi_endproc
 1692              	.LFE1180:
 1694              		.weak	_ZN24TestError_testPrefixNullD1Ev
 1695              		.set	_ZN24TestError_testPrefixNullD1Ev,_ZN24TestError_testPrefixNullD2Ev
 1696              		.section	.text._ZN24TestError_testPrefixNullD0Ev,"axG",@progbits,_ZN24TestError_testPrefixNullD5Ev
 1697              		.align 2
 1698              		.weak	_ZN24TestError_testPrefixNullD0Ev
 1700              	_ZN24TestError_testPrefixNullD0Ev:
 1701              	.LFB1182:
  92:testError.cpp **** 	const char *error = NULL;
 1702              		.loc 2 92 0 is_stmt 1
 1703              		.cfi_startproc
 1704 0000 55       		pushq	%rbp
 1705              		.cfi_def_cfa_offset 16
 1706              		.cfi_offset 6, -16
 1707 0001 4889E5   		movq	%rsp, %rbp
 1708              		.cfi_def_cfa_register 6
 1709 0004 4883EC10 		subq	$16, %rsp
 1710 0008 48897DF8 		movq	%rdi, -8(%rbp)
  92:testError.cpp **** 	const char *error = NULL;
 1711              		.loc 2 92 0
 1712 000c 488B45F8 		movq	-8(%rbp), %rax
 1713 0010 4889C7   		movq	%rax, %rdi
 1714 0013 E8000000 		call	_ZN24TestError_testPrefixNullD1Ev
 1714      00
 1715 0018 488B45F8 		movq	-8(%rbp), %rax
 1716 001c 4889C7   		movq	%rax, %rdi
 1717 001f E8000000 		call	_ZdlPv
 1717      00
 1718 0024 C9       		leave
 1719              		.cfi_def_cfa 7, 8
 1720 0025 C3       		ret
 1721              		.cfi_endproc
 1722              	.LFE1182:
 1724              		.weak	_ZTV27TestError_testPrefixNothing
 1725              		.section	.rodata._ZTV27TestError_testPrefixNothing,"aG",@progbits,_ZTV27TestError_testPrefixNothin
 1726              		.align 8
 1729              	_ZTV27TestError_testPrefixNothing:
 1730 0000 00000000 		.quad	0
 1730      00000000 
 1731 0008 00000000 		.quad	_ZTI27TestError_testPrefixNothing
 1731      00000000 
 1732 0010 00000000 		.quad	_ZN27TestError_testPrefixNothingD1Ev
 1732      00000000 
 1733 0018 00000000 		.quad	_ZN27TestError_testPrefixNothingD0Ev
 1733      00000000 
 1734 0020 00000000 		.quad	_ZNK27TestError_testPrefixNothing7RunImplEv
 1734      00000000 
 1735              		.section	.text._ZN27TestError_testPrefixNothingD2Ev,"axG",@progbits,_ZN27TestError_testPrefixNothi
 1736              		.align 2
 1737              		.weak	_ZN27TestError_testPrefixNothingD2Ev
 1739              	_ZN27TestError_testPrefixNothingD2Ev:
 1740              	.LFB1184:
  84:testError.cpp **** 	const char *error = NULL;
 1741              		.loc 2 84 0
 1742              		.cfi_startproc
 1743 0000 55       		pushq	%rbp
 1744              		.cfi_def_cfa_offset 16
 1745              		.cfi_offset 6, -16
 1746 0001 4889E5   		movq	%rsp, %rbp
 1747              		.cfi_def_cfa_register 6
 1748 0004 4883EC10 		subq	$16, %rsp
 1749 0008 48897DF8 		movq	%rdi, -8(%rbp)
 1750              	.LBB10:
  84:testError.cpp **** 	const char *error = NULL;
 1751              		.loc 2 84 0
 1752 000c BA000000 		movl	$_ZTV27TestError_testPrefixNothing+16, %edx
 1752      00
 1753 0011 488B45F8 		movq	-8(%rbp), %rax
 1754 0015 488910   		movq	%rdx, (%rax)
 1755 0018 488B45F8 		movq	-8(%rbp), %rax
 1756 001c 4889C7   		movq	%rax, %rdi
 1757 001f E8000000 		call	_ZN8UnitTest4TestD2Ev
 1757      00
 1758              	.LBE10:
 1759 0024 B8000000 		movl	$0, %eax
 1759      00
 1760 0029 85C0     		testl	%eax, %eax
 1761 002b 740C     		je	.L80
  84:testError.cpp **** 	const char *error = NULL;
 1762              		.loc 2 84 0 is_stmt 0 discriminator 4
 1763 002d 488B45F8 		movq	-8(%rbp), %rax
 1764 0031 4889C7   		movq	%rax, %rdi
 1765 0034 E8000000 		call	_ZdlPv
 1765      00
 1766              	.L80:
  84:testError.cpp **** 	const char *error = NULL;
 1767              		.loc 2 84 0
 1768 0039 C9       		leave
 1769              		.cfi_def_cfa 7, 8
 1770 003a C3       		ret
 1771              		.cfi_endproc
 1772              	.LFE1184:
 1774              		.weak	_ZN27TestError_testPrefixNothingD1Ev
 1775              		.set	_ZN27TestError_testPrefixNothingD1Ev,_ZN27TestError_testPrefixNothingD2Ev
 1776              		.section	.text._ZN27TestError_testPrefixNothingD0Ev,"axG",@progbits,_ZN27TestError_testPrefixNothi
 1777              		.align 2
 1778              		.weak	_ZN27TestError_testPrefixNothingD0Ev
 1780              	_ZN27TestError_testPrefixNothingD0Ev:
 1781              	.LFB1186:
  84:testError.cpp **** 	const char *error = NULL;
 1782              		.loc 2 84 0 is_stmt 1
 1783              		.cfi_startproc
 1784 0000 55       		pushq	%rbp
 1785              		.cfi_def_cfa_offset 16
 1786              		.cfi_offset 6, -16
 1787 0001 4889E5   		movq	%rsp, %rbp
 1788              		.cfi_def_cfa_register 6
 1789 0004 4883EC10 		subq	$16, %rsp
 1790 0008 48897DF8 		movq	%rdi, -8(%rbp)
  84:testError.cpp **** 	const char *error = NULL;
 1791              		.loc 2 84 0
 1792 000c 488B45F8 		movq	-8(%rbp), %rax
 1793 0010 4889C7   		movq	%rax, %rdi
 1794 0013 E8000000 		call	_ZN27TestError_testPrefixNothingD1Ev
 1794      00
 1795 0018 488B45F8 		movq	-8(%rbp), %rax
 1796 001c 4889C7   		movq	%rax, %rdi
 1797 001f E8000000 		call	_ZdlPv
 1797      00
 1798 0024 C9       		leave
 1799              		.cfi_def_cfa 7, 8
 1800 0025 C3       		ret
 1801              		.cfi_endproc
 1802              	.LFE1186:
 1804              		.weak	_ZTV29TestError_testPrefixSomething
 1805              		.section	.rodata._ZTV29TestError_testPrefixSomething,"aG",@progbits,_ZTV29TestError_testPrefixSome
 1806              		.align 8
 1809              	_ZTV29TestError_testPrefixSomething:
 1810 0000 00000000 		.quad	0
 1810      00000000 
 1811 0008 00000000 		.quad	_ZTI29TestError_testPrefixSomething
 1811      00000000 
 1812 0010 00000000 		.quad	_ZN29TestError_testPrefixSomethingD1Ev
 1812      00000000 
 1813 0018 00000000 		.quad	_ZN29TestError_testPrefixSomethingD0Ev
 1813      00000000 
 1814 0020 00000000 		.quad	_ZNK29TestError_testPrefixSomething7RunImplEv
 1814      00000000 
 1815              		.section	.text._ZN29TestError_testPrefixSomethingD2Ev,"axG",@progbits,_ZN29TestError_testPrefixSom
 1816              		.align 2
 1817              		.weak	_ZN29TestError_testPrefixSomethingD2Ev
 1819              	_ZN29TestError_testPrefixSomethingD2Ev:
 1820              	.LFB1188:
  72:testError.cpp **** 	#define MSG "Foo Bar"
 1821              		.loc 2 72 0
 1822              		.cfi_startproc
 1823 0000 55       		pushq	%rbp
 1824              		.cfi_def_cfa_offset 16
 1825              		.cfi_offset 6, -16
 1826 0001 4889E5   		movq	%rsp, %rbp
 1827              		.cfi_def_cfa_register 6
 1828 0004 4883EC10 		subq	$16, %rsp
 1829 0008 48897DF8 		movq	%rdi, -8(%rbp)
 1830              	.LBB11:
  72:testError.cpp **** 	#define MSG "Foo Bar"
 1831              		.loc 2 72 0
 1832 000c BA000000 		movl	$_ZTV29TestError_testPrefixSomething+16, %edx
 1832      00
 1833 0011 488B45F8 		movq	-8(%rbp), %rax
 1834 0015 488910   		movq	%rdx, (%rax)
 1835 0018 488B45F8 		movq	-8(%rbp), %rax
 1836 001c 4889C7   		movq	%rax, %rdi
 1837 001f E8000000 		call	_ZN8UnitTest4TestD2Ev
 1837      00
 1838              	.LBE11:
 1839 0024 B8000000 		movl	$0, %eax
 1839      00
 1840 0029 85C0     		testl	%eax, %eax
 1841 002b 740C     		je	.L83
  72:testError.cpp **** 	#define MSG "Foo Bar"
 1842              		.loc 2 72 0 is_stmt 0 discriminator 4
 1843 002d 488B45F8 		movq	-8(%rbp), %rax
 1844 0031 4889C7   		movq	%rax, %rdi
 1845 0034 E8000000 		call	_ZdlPv
 1845      00
 1846              	.L83:
  72:testError.cpp **** 	#define MSG "Foo Bar"
 1847              		.loc 2 72 0
 1848 0039 C9       		leave
 1849              		.cfi_def_cfa 7, 8
 1850 003a C3       		ret
 1851              		.cfi_endproc
 1852              	.LFE1188:
 1854              		.weak	_ZN29TestError_testPrefixSomethingD1Ev
 1855              		.set	_ZN29TestError_testPrefixSomethingD1Ev,_ZN29TestError_testPrefixSomethingD2Ev
 1856              		.section	.text._ZN29TestError_testPrefixSomethingD0Ev,"axG",@progbits,_ZN29TestError_testPrefixSom
 1857              		.align 2
 1858              		.weak	_ZN29TestError_testPrefixSomethingD0Ev
 1860              	_ZN29TestError_testPrefixSomethingD0Ev:
 1861              	.LFB1190:
  72:testError.cpp **** 	#define MSG "Foo Bar"
 1862              		.loc 2 72 0 is_stmt 1
 1863              		.cfi_startproc
 1864 0000 55       		pushq	%rbp
 1865              		.cfi_def_cfa_offset 16
 1866              		.cfi_offset 6, -16
 1867 0001 4889E5   		movq	%rsp, %rbp
 1868              		.cfi_def_cfa_register 6
 1869 0004 4883EC10 		subq	$16, %rsp
 1870 0008 48897DF8 		movq	%rdi, -8(%rbp)
  72:testError.cpp **** 	#define MSG "Foo Bar"
 1871              		.loc 2 72 0
 1872 000c 488B45F8 		movq	-8(%rbp), %rax
 1873 0010 4889C7   		movq	%rax, %rdi
 1874 0013 E8000000 		call	_ZN29TestError_testPrefixSomethingD1Ev
 1874      00
 1875 0018 488B45F8 		movq	-8(%rbp), %rax
 1876 001c 4889C7   		movq	%rax, %rdi
 1877 001f E8000000 		call	_ZdlPv
 1877      00
 1878 0024 C9       		leave
 1879              		.cfi_def_cfa 7, 8
 1880 0025 C3       		ret
 1881              		.cfi_endproc
 1882              	.LFE1190:
 1884              		.weak	_ZTV23TestError_testStdRender
 1885              		.section	.rodata._ZTV23TestError_testStdRender,"aG",@progbits,_ZTV23TestError_testStdRender,comdat
 1886              		.align 8
 1889              	_ZTV23TestError_testStdRender:
 1890 0000 00000000 		.quad	0
 1890      00000000 
 1891 0008 00000000 		.quad	_ZTI23TestError_testStdRender
 1891      00000000 
 1892 0010 00000000 		.quad	_ZN23TestError_testStdRenderD1Ev
 1892      00000000 
 1893 0018 00000000 		.quad	_ZN23TestError_testStdRenderD0Ev
 1893      00000000 
 1894 0020 00000000 		.quad	_ZNK23TestError_testStdRender7RunImplEv
 1894      00000000 
 1895              		.section	.text._ZN23TestError_testStdRenderD2Ev,"axG",@progbits,_ZN23TestError_testStdRenderD5Ev,c
 1896              		.align 2
 1897              		.weak	_ZN23TestError_testStdRenderD2Ev
 1899              	_ZN23TestError_testStdRenderD2Ev:
 1900              	.LFB1192:
  59:testError.cpp **** 	const char *error = NULL, *expected;
 1901              		.loc 2 59 0
 1902              		.cfi_startproc
 1903 0000 55       		pushq	%rbp
 1904              		.cfi_def_cfa_offset 16
 1905              		.cfi_offset 6, -16
 1906 0001 4889E5   		movq	%rsp, %rbp
 1907              		.cfi_def_cfa_register 6
 1908 0004 4883EC10 		subq	$16, %rsp
 1909 0008 48897DF8 		movq	%rdi, -8(%rbp)
 1910              	.LBB12:
  59:testError.cpp **** 	const char *error = NULL, *expected;
 1911              		.loc 2 59 0
 1912 000c BA000000 		movl	$_ZTV23TestError_testStdRender+16, %edx
 1912      00
 1913 0011 488B45F8 		movq	-8(%rbp), %rax
 1914 0015 488910   		movq	%rdx, (%rax)
 1915 0018 488B45F8 		movq	-8(%rbp), %rax
 1916 001c 4889C7   		movq	%rax, %rdi
 1917 001f E8000000 		call	_ZN8UnitTest4TestD2Ev
 1917      00
 1918              	.LBE12:
 1919 0024 B8000000 		movl	$0, %eax
 1919      00
 1920 0029 85C0     		testl	%eax, %eax
 1921 002b 740C     		je	.L86
  59:testError.cpp **** 	const char *error = NULL, *expected;
 1922              		.loc 2 59 0 is_stmt 0 discriminator 4
 1923 002d 488B45F8 		movq	-8(%rbp), %rax
 1924 0031 4889C7   		movq	%rax, %rdi
 1925 0034 E8000000 		call	_ZdlPv
 1925      00
 1926              	.L86:
  59:testError.cpp **** 	const char *error = NULL, *expected;
 1927              		.loc 2 59 0
 1928 0039 C9       		leave
 1929              		.cfi_def_cfa 7, 8
 1930 003a C3       		ret
 1931              		.cfi_endproc
 1932              	.LFE1192:
 1934              		.weak	_ZN23TestError_testStdRenderD1Ev
 1935              		.set	_ZN23TestError_testStdRenderD1Ev,_ZN23TestError_testStdRenderD2Ev
 1936              		.section	.text._ZN23TestError_testStdRenderD0Ev,"axG",@progbits,_ZN23TestError_testStdRenderD5Ev,c
 1937              		.align 2
 1938              		.weak	_ZN23TestError_testStdRenderD0Ev
 1940              	_ZN23TestError_testStdRenderD0Ev:
 1941              	.LFB1194:
  59:testError.cpp **** 	const char *error = NULL, *expected;
 1942              		.loc 2 59 0 is_stmt 1
 1943              		.cfi_startproc
 1944 0000 55       		pushq	%rbp
 1945              		.cfi_def_cfa_offset 16
 1946              		.cfi_offset 6, -16
 1947 0001 4889E5   		movq	%rsp, %rbp
 1948              		.cfi_def_cfa_register 6
 1949 0004 4883EC10 		subq	$16, %rsp
 1950 0008 48897DF8 		movq	%rdi, -8(%rbp)
  59:testError.cpp **** 	const char *error = NULL, *expected;
 1951              		.loc 2 59 0
 1952 000c 488B45F8 		movq	-8(%rbp), %rax
 1953 0010 4889C7   		movq	%rax, %rdi
 1954 0013 E8000000 		call	_ZN23TestError_testStdRenderD1Ev
 1954      00
 1955 0018 488B45F8 		movq	-8(%rbp), %rax
 1956 001c 4889C7   		movq	%rax, %rdi
 1957 001f E8000000 		call	_ZdlPv
 1957      00
 1958 0024 C9       		leave
 1959              		.cfi_def_cfa 7, 8
 1960 0025 C3       		ret
 1961              		.cfi_endproc
 1962              	.LFE1194:
 1964              		.weak	_ZTV27TestError_testNullStdRender
 1965              		.section	.rodata._ZTV27TestError_testNullStdRender,"aG",@progbits,_ZTV27TestError_testNullStdRende
 1966              		.align 8
 1969              	_ZTV27TestError_testNullStdRender:
 1970 0000 00000000 		.quad	0
 1970      00000000 
 1971 0008 00000000 		.quad	_ZTI27TestError_testNullStdRender
 1971      00000000 
 1972 0010 00000000 		.quad	_ZN27TestError_testNullStdRenderD1Ev
 1972      00000000 
 1973 0018 00000000 		.quad	_ZN27TestError_testNullStdRenderD0Ev
 1973      00000000 
 1974 0020 00000000 		.quad	_ZNK27TestError_testNullStdRender7RunImplEv
 1974      00000000 
 1975              		.section	.text._ZN27TestError_testNullStdRenderD2Ev,"axG",@progbits,_ZN27TestError_testNullStdRend
 1976              		.align 2
 1977              		.weak	_ZN27TestError_testNullStdRenderD2Ev
 1979              	_ZN27TestError_testNullStdRenderD2Ev:
 1980              	.LFB1196:
  54:testError.cpp **** 	fillBuf(16, 'A');
 1981              		.loc 2 54 0
 1982              		.cfi_startproc
 1983 0000 55       		pushq	%rbp
 1984              		.cfi_def_cfa_offset 16
 1985              		.cfi_offset 6, -16
 1986 0001 4889E5   		movq	%rsp, %rbp
 1987              		.cfi_def_cfa_register 6
 1988 0004 4883EC10 		subq	$16, %rsp
 1989 0008 48897DF8 		movq	%rdi, -8(%rbp)
 1990              	.LBB13:
  54:testError.cpp **** 	fillBuf(16, 'A');
 1991              		.loc 2 54 0
 1992 000c BA000000 		movl	$_ZTV27TestError_testNullStdRender+16, %edx
 1992      00
 1993 0011 488B45F8 		movq	-8(%rbp), %rax
 1994 0015 488910   		movq	%rdx, (%rax)
 1995 0018 488B45F8 		movq	-8(%rbp), %rax
 1996 001c 4889C7   		movq	%rax, %rdi
 1997 001f E8000000 		call	_ZN8UnitTest4TestD2Ev
 1997      00
 1998              	.LBE13:
 1999 0024 B8000000 		movl	$0, %eax
 1999      00
 2000 0029 85C0     		testl	%eax, %eax
 2001 002b 740C     		je	.L89
  54:testError.cpp **** 	fillBuf(16, 'A');
 2002              		.loc 2 54 0 is_stmt 0 discriminator 4
 2003 002d 488B45F8 		movq	-8(%rbp), %rax
 2004 0031 4889C7   		movq	%rax, %rdi
 2005 0034 E8000000 		call	_ZdlPv
 2005      00
 2006              	.L89:
  54:testError.cpp **** 	fillBuf(16, 'A');
 2007              		.loc 2 54 0
 2008 0039 C9       		leave
 2009              		.cfi_def_cfa 7, 8
 2010 003a C3       		ret
 2011              		.cfi_endproc
 2012              	.LFE1196:
 2014              		.weak	_ZN27TestError_testNullStdRenderD1Ev
 2015              		.set	_ZN27TestError_testNullStdRenderD1Ev,_ZN27TestError_testNullStdRenderD2Ev
 2016              		.section	.text._ZN27TestError_testNullStdRenderD0Ev,"axG",@progbits,_ZN27TestError_testNullStdRend
 2017              		.align 2
 2018              		.weak	_ZN27TestError_testNullStdRenderD0Ev
 2020              	_ZN27TestError_testNullStdRenderD0Ev:
 2021              	.LFB1198:
  54:testError.cpp **** 	fillBuf(16, 'A');
 2022              		.loc 2 54 0 is_stmt 1
 2023              		.cfi_startproc
 2024 0000 55       		pushq	%rbp
 2025              		.cfi_def_cfa_offset 16
 2026              		.cfi_offset 6, -16
 2027 0001 4889E5   		movq	%rsp, %rbp
 2028              		.cfi_def_cfa_register 6
 2029 0004 4883EC10 		subq	$16, %rsp
 2030 0008 48897DF8 		movq	%rdi, -8(%rbp)
  54:testError.cpp **** 	fillBuf(16, 'A');
 2031              		.loc 2 54 0
 2032 000c 488B45F8 		movq	-8(%rbp), %rax
 2033 0010 4889C7   		movq	%rax, %rdi
 2034 0013 E8000000 		call	_ZN27TestError_testNullStdRenderD1Ev
 2034      00
 2035 0018 488B45F8 		movq	-8(%rbp), %rax
 2036 001c 4889C7   		movq	%rax, %rdi
 2037 001f E8000000 		call	_ZdlPv
 2037      00
 2038 0024 C9       		leave
 2039              		.cfi_def_cfa 7, 8
 2040 0025 C3       		ret
 2041              		.cfi_endproc
 2042              	.LFE1198:
 2044              		.weak	_ZTV20TestError_testRender
 2045              		.section	.rodata._ZTV20TestError_testRender,"aG",@progbits,_ZTV20TestError_testRender,comdat
 2046              		.align 8
 2049              	_ZTV20TestError_testRender:
 2050 0000 00000000 		.quad	0
 2050      00000000 
 2051 0008 00000000 		.quad	_ZTI20TestError_testRender
 2051      00000000 
 2052 0010 00000000 		.quad	_ZN20TestError_testRenderD1Ev
 2052      00000000 
 2053 0018 00000000 		.quad	_ZN20TestError_testRenderD0Ev
 2053      00000000 
 2054 0020 00000000 		.quad	_ZNK20TestError_testRender7RunImplEv
 2054      00000000 
 2055              		.section	.text._ZN20TestError_testRenderD2Ev,"axG",@progbits,_ZN20TestError_testRenderD5Ev,comdat
 2056              		.align 2
 2057              		.weak	_ZN20TestError_testRenderD2Ev
 2059              	_ZN20TestError_testRenderD2Ev:
 2060              	.LFB1200:
  42:testError.cpp **** 	int i;
 2061              		.loc 2 42 0
 2062              		.cfi_startproc
 2063 0000 55       		pushq	%rbp
 2064              		.cfi_def_cfa_offset 16
 2065              		.cfi_offset 6, -16
 2066 0001 4889E5   		movq	%rsp, %rbp
 2067              		.cfi_def_cfa_register 6
 2068 0004 4883EC10 		subq	$16, %rsp
 2069 0008 48897DF8 		movq	%rdi, -8(%rbp)
 2070              	.LBB14:
  42:testError.cpp **** 	int i;
 2071              		.loc 2 42 0
 2072 000c BA000000 		movl	$_ZTV20TestError_testRender+16, %edx
 2072      00
 2073 0011 488B45F8 		movq	-8(%rbp), %rax
 2074 0015 488910   		movq	%rdx, (%rax)
 2075 0018 488B45F8 		movq	-8(%rbp), %rax
 2076 001c 4889C7   		movq	%rax, %rdi
 2077 001f E8000000 		call	_ZN8UnitTest4TestD2Ev
 2077      00
 2078              	.LBE14:
 2079 0024 B8000000 		movl	$0, %eax
 2079      00
 2080 0029 85C0     		testl	%eax, %eax
 2081 002b 740C     		je	.L92
  42:testError.cpp **** 	int i;
 2082              		.loc 2 42 0 is_stmt 0 discriminator 4
 2083 002d 488B45F8 		movq	-8(%rbp), %rax
 2084 0031 4889C7   		movq	%rax, %rdi
 2085 0034 E8000000 		call	_ZdlPv
 2085      00
 2086              	.L92:
  42:testError.cpp **** 	int i;
 2087              		.loc 2 42 0
 2088 0039 C9       		leave
 2089              		.cfi_def_cfa 7, 8
 2090 003a C3       		ret
 2091              		.cfi_endproc
 2092              	.LFE1200:
 2094              		.weak	_ZN20TestError_testRenderD1Ev
 2095              		.set	_ZN20TestError_testRenderD1Ev,_ZN20TestError_testRenderD2Ev
 2096              		.section	.text._ZN20TestError_testRenderD0Ev,"axG",@progbits,_ZN20TestError_testRenderD5Ev,comdat
 2097              		.align 2
 2098              		.weak	_ZN20TestError_testRenderD0Ev
 2100              	_ZN20TestError_testRenderD0Ev:
 2101              	.LFB1202:
  42:testError.cpp **** 	int i;
 2102              		.loc 2 42 0 is_stmt 1
 2103              		.cfi_startproc
 2104 0000 55       		pushq	%rbp
 2105              		.cfi_def_cfa_offset 16
 2106              		.cfi_offset 6, -16
 2107 0001 4889E5   		movq	%rsp, %rbp
 2108              		.cfi_def_cfa_register 6
 2109 0004 4883EC10 		subq	$16, %rsp
 2110 0008 48897DF8 		movq	%rdi, -8(%rbp)
  42:testError.cpp **** 	int i;
 2111              		.loc 2 42 0
 2112 000c 488B45F8 		movq	-8(%rbp), %rax
 2113 0010 4889C7   		movq	%rax, %rdi
 2114 0013 E8000000 		call	_ZN20TestError_testRenderD1Ev
 2114      00
 2115 0018 488B45F8 		movq	-8(%rbp), %rax
 2116 001c 4889C7   		movq	%rax, %rdi
 2117 001f E8000000 		call	_ZdlPv
 2117      00
 2118 0024 C9       		leave
 2119              		.cfi_def_cfa 7, 8
 2120 0025 C3       		ret
 2121              		.cfi_endproc
 2122              	.LFE1202:
 2124              		.weak	_ZTV24TestError_testNullRender
 2125              		.section	.rodata._ZTV24TestError_testNullRender,"aG",@progbits,_ZTV24TestError_testNullRender,comd
 2126              		.align 8
 2129              	_ZTV24TestError_testNullRender:
 2130 0000 00000000 		.quad	0
 2130      00000000 
 2131 0008 00000000 		.quad	_ZTI24TestError_testNullRender
 2131      00000000 
 2132 0010 00000000 		.quad	_ZN24TestError_testNullRenderD1Ev
 2132      00000000 
 2133 0018 00000000 		.quad	_ZN24TestError_testNullRenderD0Ev
 2133      00000000 
 2134 0020 00000000 		.quad	_ZNK24TestError_testNullRender7RunImplEv
 2134      00000000 
 2135              		.section	.text._ZN24TestError_testNullRenderD2Ev,"axG",@progbits,_ZN24TestError_testNullRenderD5Ev
 2136              		.align 2
 2137              		.weak	_ZN24TestError_testNullRenderD2Ev
 2139              	_ZN24TestError_testNullRenderD2Ev:
 2140              	.LFB1204:
  37:testError.cpp **** 	fillBuf(16, 'A');
 2141              		.loc 2 37 0
 2142              		.cfi_startproc
 2143 0000 55       		pushq	%rbp
 2144              		.cfi_def_cfa_offset 16
 2145              		.cfi_offset 6, -16
 2146 0001 4889E5   		movq	%rsp, %rbp
 2147              		.cfi_def_cfa_register 6
 2148 0004 4883EC10 		subq	$16, %rsp
 2149 0008 48897DF8 		movq	%rdi, -8(%rbp)
 2150              	.LBB15:
  37:testError.cpp **** 	fillBuf(16, 'A');
 2151              		.loc 2 37 0
 2152 000c BA000000 		movl	$_ZTV24TestError_testNullRender+16, %edx
 2152      00
 2153 0011 488B45F8 		movq	-8(%rbp), %rax
 2154 0015 488910   		movq	%rdx, (%rax)
 2155 0018 488B45F8 		movq	-8(%rbp), %rax
 2156 001c 4889C7   		movq	%rax, %rdi
 2157 001f E8000000 		call	_ZN8UnitTest4TestD2Ev
 2157      00
 2158              	.LBE15:
 2159 0024 B8000000 		movl	$0, %eax
 2159      00
 2160 0029 85C0     		testl	%eax, %eax
 2161 002b 740C     		je	.L95
  37:testError.cpp **** 	fillBuf(16, 'A');
 2162              		.loc 2 37 0 is_stmt 0 discriminator 4
 2163 002d 488B45F8 		movq	-8(%rbp), %rax
 2164 0031 4889C7   		movq	%rax, %rdi
 2165 0034 E8000000 		call	_ZdlPv
 2165      00
 2166              	.L95:
  37:testError.cpp **** 	fillBuf(16, 'A');
 2167              		.loc 2 37 0
 2168 0039 C9       		leave
 2169              		.cfi_def_cfa 7, 8
 2170 003a C3       		ret
 2171              		.cfi_endproc
 2172              	.LFE1204:
 2174              		.weak	_ZN24TestError_testNullRenderD1Ev
 2175              		.set	_ZN24TestError_testNullRenderD1Ev,_ZN24TestError_testNullRenderD2Ev
 2176              		.section	.text._ZN24TestError_testNullRenderD0Ev,"axG",@progbits,_ZN24TestError_testNullRenderD5Ev
 2177              		.align 2
 2178              		.weak	_ZN24TestError_testNullRenderD0Ev
 2180              	_ZN24TestError_testNullRenderD0Ev:
 2181              	.LFB1206:
  37:testError.cpp **** 	fillBuf(16, 'A');
 2182              		.loc 2 37 0 is_stmt 1
 2183              		.cfi_startproc
 2184 0000 55       		pushq	%rbp
 2185              		.cfi_def_cfa_offset 16
 2186              		.cfi_offset 6, -16
 2187 0001 4889E5   		movq	%rsp, %rbp
 2188              		.cfi_def_cfa_register 6
 2189 0004 4883EC10 		subq	$16, %rsp
 2190 0008 48897DF8 		movq	%rdi, -8(%rbp)
  37:testError.cpp **** 	fillBuf(16, 'A');
 2191              		.loc 2 37 0
 2192 000c 488B45F8 		movq	-8(%rbp), %rax
 2193 0010 4889C7   		movq	%rax, %rdi
 2194 0013 E8000000 		call	_ZN24TestError_testNullRenderD1Ev
 2194      00
 2195 0018 488B45F8 		movq	-8(%rbp), %rax
 2196 001c 4889C7   		movq	%rax, %rdi
 2197 001f E8000000 		call	_ZdlPv
 2197      00
 2198 0024 C9       		leave
 2199              		.cfi_def_cfa 7, 8
 2200 0025 C3       		ret
 2201              		.cfi_endproc
 2202              	.LFE1206:
 2204              		.weak	_ZTI24TestError_testPrefixNull
 2205              		.section	.rodata._ZTI24TestError_testPrefixNull,"aG",@progbits,_ZTI24TestError_testPrefixNull,comd
 2206              		.align 8
 2209              	_ZTI24TestError_testPrefixNull:
 2210 0000 00000000 		.quad	_ZTVN10__cxxabiv120__si_class_type_infoE+16
 2210      00000000 
 2211 0008 00000000 		.quad	_ZTS24TestError_testPrefixNull
 2211      00000000 
 2212 0010 00000000 		.quad	_ZTIN8UnitTest4TestE
 2212      00000000 
 2213              		.weak	_ZTS24TestError_testPrefixNull
 2214              		.section	.rodata._ZTS24TestError_testPrefixNull,"aG",@progbits,_ZTS24TestError_testPrefixNull,comd
 2215              		.align 16
 2218              	_ZTS24TestError_testPrefixNull:
 2219 0000 32345465 		.string	"24TestError_testPrefixNull"
 2219      73744572 
 2219      726F725F 
 2219      74657374 
 2219      50726566 
 2220              		.weak	_ZTI27TestError_testPrefixNothing
 2221              		.section	.rodata._ZTI27TestError_testPrefixNothing,"aG",@progbits,_ZTI27TestError_testPrefixNothin
 2222              		.align 8
 2225              	_ZTI27TestError_testPrefixNothing:
 2226 0000 00000000 		.quad	_ZTVN10__cxxabiv120__si_class_type_infoE+16
 2226      00000000 
 2227 0008 00000000 		.quad	_ZTS27TestError_testPrefixNothing
 2227      00000000 
 2228 0010 00000000 		.quad	_ZTIN8UnitTest4TestE
 2228      00000000 
 2229              		.weak	_ZTS27TestError_testPrefixNothing
 2230              		.section	.rodata._ZTS27TestError_testPrefixNothing,"aG",@progbits,_ZTS27TestError_testPrefixNothin
 2231              		.align 16
 2234              	_ZTS27TestError_testPrefixNothing:
 2235 0000 32375465 		.string	"27TestError_testPrefixNothing"
 2235      73744572 
 2235      726F725F 
 2235      74657374 
 2235      50726566 
 2236              		.weak	_ZTI29TestError_testPrefixSomething
 2237              		.section	.rodata._ZTI29TestError_testPrefixSomething,"aG",@progbits,_ZTI29TestError_testPrefixSome
 2238              		.align 8
 2241              	_ZTI29TestError_testPrefixSomething:
 2242 0000 00000000 		.quad	_ZTVN10__cxxabiv120__si_class_type_infoE+16
 2242      00000000 
 2243 0008 00000000 		.quad	_ZTS29TestError_testPrefixSomething
 2243      00000000 
 2244 0010 00000000 		.quad	_ZTIN8UnitTest4TestE
 2244      00000000 
 2245              		.weak	_ZTS29TestError_testPrefixSomething
 2246              		.section	.rodata._ZTS29TestError_testPrefixSomething,"aG",@progbits,_ZTS29TestError_testPrefixSome
 2247              		.align 32
 2250              	_ZTS29TestError_testPrefixSomething:
 2251 0000 32395465 		.string	"29TestError_testPrefixSomething"
 2251      73744572 
 2251      726F725F 
 2251      74657374 
 2251      50726566 
 2252              		.weak	_ZTI23TestError_testStdRender
 2253              		.section	.rodata._ZTI23TestError_testStdRender,"aG",@progbits,_ZTI23TestError_testStdRender,comdat
 2254              		.align 8
 2257              	_ZTI23TestError_testStdRender:
 2258 0000 00000000 		.quad	_ZTVN10__cxxabiv120__si_class_type_infoE+16
 2258      00000000 
 2259 0008 00000000 		.quad	_ZTS23TestError_testStdRender
 2259      00000000 
 2260 0010 00000000 		.quad	_ZTIN8UnitTest4TestE
 2260      00000000 
 2261              		.weak	_ZTS23TestError_testStdRender
 2262              		.section	.rodata._ZTS23TestError_testStdRender,"aG",@progbits,_ZTS23TestError_testStdRender,comdat
 2263              		.align 16
 2266              	_ZTS23TestError_testStdRender:
 2267 0000 32335465 		.string	"23TestError_testStdRender"
 2267      73744572 
 2267      726F725F 
 2267      74657374 
 2267      53746452 
 2268              		.weak	_ZTI27TestError_testNullStdRender
 2269              		.section	.rodata._ZTI27TestError_testNullStdRender,"aG",@progbits,_ZTI27TestError_testNullStdRende
 2270              		.align 8
 2273              	_ZTI27TestError_testNullStdRender:
 2274 0000 00000000 		.quad	_ZTVN10__cxxabiv120__si_class_type_infoE+16
 2274      00000000 
 2275 0008 00000000 		.quad	_ZTS27TestError_testNullStdRender
 2275      00000000 
 2276 0010 00000000 		.quad	_ZTIN8UnitTest4TestE
 2276      00000000 
 2277              		.weak	_ZTS27TestError_testNullStdRender
 2278              		.section	.rodata._ZTS27TestError_testNullStdRender,"aG",@progbits,_ZTS27TestError_testNullStdRende
 2279              		.align 16
 2282              	_ZTS27TestError_testNullStdRender:
 2283 0000 32375465 		.string	"27TestError_testNullStdRender"
 2283      73744572 
 2283      726F725F 
 2283      74657374 
 2283      4E756C6C 
 2284              		.weak	_ZTI20TestError_testRender
 2285              		.section	.rodata._ZTI20TestError_testRender,"aG",@progbits,_ZTI20TestError_testRender,comdat
 2286              		.align 8
 2289              	_ZTI20TestError_testRender:
 2290 0000 00000000 		.quad	_ZTVN10__cxxabiv120__si_class_type_infoE+16
 2290      00000000 
 2291 0008 00000000 		.quad	_ZTS20TestError_testRender
 2291      00000000 
 2292 0010 00000000 		.quad	_ZTIN8UnitTest4TestE
 2292      00000000 
 2293              		.weak	_ZTS20TestError_testRender
 2294              		.section	.rodata._ZTS20TestError_testRender,"aG",@progbits,_ZTS20TestError_testRender,comdat
 2295              		.align 16
 2298              	_ZTS20TestError_testRender:
 2299 0000 32305465 		.string	"20TestError_testRender"
 2299      73744572 
 2299      726F725F 
 2299      74657374 
 2299      52656E64 
 2300              		.weak	_ZTI24TestError_testNullRender
 2301              		.section	.rodata._ZTI24TestError_testNullRender,"aG",@progbits,_ZTI24TestError_testNullRender,comd
 2302              		.align 8
 2305              	_ZTI24TestError_testNullRender:
 2306 0000 00000000 		.quad	_ZTVN10__cxxabiv120__si_class_type_infoE+16
 2306      00000000 
 2307 0008 00000000 		.quad	_ZTS24TestError_testNullRender
 2307      00000000 
 2308 0010 00000000 		.quad	_ZTIN8UnitTest4TestE
 2308      00000000 
 2309              		.weak	_ZTS24TestError_testNullRender
 2310              		.section	.rodata._ZTS24TestError_testNullRender,"aG",@progbits,_ZTS24TestError_testNullRender,comd
 2311              		.align 16
 2314              	_ZTS24TestError_testNullRender:
 2315 0000 32345465 		.string	"24TestError_testNullRender"
 2315      73744572 
 2315      726F725F 
 2315      74657374 
 2315      4E756C6C 
 2316              		.text
 2318              	_Z41__static_initialization_and_destruction_0ii:
 2319              	.LFB1211:
 2320              		.loc 2 97 0
 2321              		.cfi_startproc
 2322 0847 55       		pushq	%rbp
 2323              		.cfi_def_cfa_offset 16
 2324              		.cfi_offset 6, -16
 2325 0848 4889E5   		movq	%rsp, %rbp
 2326              		.cfi_def_cfa_register 6
 2327 084b 4883EC10 		subq	$16, %rsp
 2328 084f 897DFC   		movl	%edi, -4(%rbp)
 2329 0852 8975F8   		movl	%esi, -8(%rbp)
 2330              		.loc 2 97 0
 2331 0855 837DFC01 		cmpl	$1, -4(%rbp)
 2332 0859 0F858001 		jne	.L100
 2332      0000
 2333              		.loc 2 97 0 is_stmt 0 discriminator 1
 2334 085f 817DF8FF 		cmpl	$65535, -8(%rbp)
 2334      FF0000
 2335 0866 0F857301 		jne	.L100
 2335      0000
  37:testError.cpp **** 	fillBuf(16, 'A');
 2336              		.loc 2 37 0 is_stmt 1
 2337 086c BF000000 		movl	$testError_testNullRenderInstance, %edi
 2337      00
 2338 0871 E8000000 		call	_ZN24TestError_testNullRenderC1Ev
 2338      00
 2339 0876 BA000000 		movl	$__dso_handle, %edx
 2339      00
 2340 087b BE000000 		movl	$testError_testNullRenderInstance, %esi
 2340      00
 2341 0880 BF000000 		movl	$_ZN24TestError_testNullRenderD1Ev, %edi
 2341      00
 2342 0885 E8000000 		call	__cxa_atexit
 2342      00
 2343 088a E8000000 		call	_ZN8UnitTest4Test11GetTestListEv
 2343      00
 2344 088f BA000000 		movl	$testError_testNullRenderInstance, %edx
 2344      00
 2345 0894 4889C6   		movq	%rax, %rsi
 2346 0897 BF000000 		movl	$adderError_testNullRender, %edi
 2346      00
 2347 089c E8000000 		call	_ZN8UnitTest9ListAdderC1ERNS_8TestListEPNS_4TestE
 2347      00
  42:testError.cpp **** 	int i;
 2348              		.loc 2 42 0
 2349 08a1 BF000000 		movl	$testError_testRenderInstance, %edi
 2349      00
 2350 08a6 E8000000 		call	_ZN20TestError_testRenderC1Ev
 2350      00
 2351 08ab BA000000 		movl	$__dso_handle, %edx
 2351      00
 2352 08b0 BE000000 		movl	$testError_testRenderInstance, %esi
 2352      00
 2353 08b5 BF000000 		movl	$_ZN20TestError_testRenderD1Ev, %edi
 2353      00
 2354 08ba E8000000 		call	__cxa_atexit
 2354      00
 2355 08bf E8000000 		call	_ZN8UnitTest4Test11GetTestListEv
 2355      00
 2356 08c4 BA000000 		movl	$testError_testRenderInstance, %edx
 2356      00
 2357 08c9 4889C6   		movq	%rax, %rsi
 2358 08cc BF000000 		movl	$adderError_testRender, %edi
 2358      00
 2359 08d1 E8000000 		call	_ZN8UnitTest9ListAdderC1ERNS_8TestListEPNS_4TestE
 2359      00
  54:testError.cpp **** 	fillBuf(16, 'A');
 2360              		.loc 2 54 0
 2361 08d6 BF000000 		movl	$testError_testNullStdRenderInstance, %edi
 2361      00
 2362 08db E8000000 		call	_ZN27TestError_testNullStdRenderC1Ev
 2362      00
 2363 08e0 BA000000 		movl	$__dso_handle, %edx
 2363      00
 2364 08e5 BE000000 		movl	$testError_testNullStdRenderInstance, %esi
 2364      00
 2365 08ea BF000000 		movl	$_ZN27TestError_testNullStdRenderD1Ev, %edi
 2365      00
 2366 08ef E8000000 		call	__cxa_atexit
 2366      00
 2367 08f4 E8000000 		call	_ZN8UnitTest4Test11GetTestListEv
 2367      00
 2368 08f9 BA000000 		movl	$testError_testNullStdRenderInstance, %edx
 2368      00
 2369 08fe 4889C6   		movq	%rax, %rsi
 2370 0901 BF000000 		movl	$adderError_testNullStdRender, %edi
 2370      00
 2371 0906 E8000000 		call	_ZN8UnitTest9ListAdderC1ERNS_8TestListEPNS_4TestE
 2371      00
  59:testError.cpp **** 	const char *error = NULL, *expected;
 2372              		.loc 2 59 0
 2373 090b BF000000 		movl	$testError_testStdRenderInstance, %edi
 2373      00
 2374 0910 E8000000 		call	_ZN23TestError_testStdRenderC1Ev
 2374      00
 2375 0915 BA000000 		movl	$__dso_handle, %edx
 2375      00
 2376 091a BE000000 		movl	$testError_testStdRenderInstance, %esi
 2376      00
 2377 091f BF000000 		movl	$_ZN23TestError_testStdRenderD1Ev, %edi
 2377      00
 2378 0924 E8000000 		call	__cxa_atexit
 2378      00
 2379 0929 E8000000 		call	_ZN8UnitTest4Test11GetTestListEv
 2379      00
 2380 092e BA000000 		movl	$testError_testStdRenderInstance, %edx
 2380      00
 2381 0933 4889C6   		movq	%rax, %rsi
 2382 0936 BF000000 		movl	$adderError_testStdRender, %edi
 2382      00
 2383 093b E8000000 		call	_ZN8UnitTest9ListAdderC1ERNS_8TestListEPNS_4TestE
 2383      00
  72:testError.cpp **** 	#define MSG "Foo Bar"
 2384              		.loc 2 72 0
 2385 0940 BF000000 		movl	$testError_testPrefixSomethingInstance, %edi
 2385      00
 2386 0945 E8000000 		call	_ZN29TestError_testPrefixSomethingC1Ev
 2386      00
 2387 094a BA000000 		movl	$__dso_handle, %edx
 2387      00
 2388 094f BE000000 		movl	$testError_testPrefixSomethingInstance, %esi
 2388      00
 2389 0954 BF000000 		movl	$_ZN29TestError_testPrefixSomethingD1Ev, %edi
 2389      00
 2390 0959 E8000000 		call	__cxa_atexit
 2390      00
 2391 095e E8000000 		call	_ZN8UnitTest4Test11GetTestListEv
 2391      00
 2392 0963 BA000000 		movl	$testError_testPrefixSomethingInstance, %edx
 2392      00
 2393 0968 4889C6   		movq	%rax, %rsi
 2394 096b BF000000 		movl	$adderError_testPrefixSomething, %edi
 2394      00
 2395 0970 E8000000 		call	_ZN8UnitTest9ListAdderC1ERNS_8TestListEPNS_4TestE
 2395      00
  84:testError.cpp **** 	const char *error = NULL;
 2396              		.loc 2 84 0
 2397 0975 BF000000 		movl	$testError_testPrefixNothingInstance, %edi
 2397      00
 2398 097a E8000000 		call	_ZN27TestError_testPrefixNothingC1Ev
 2398      00
 2399 097f BA000000 		movl	$__dso_handle, %edx
 2399      00
 2400 0984 BE000000 		movl	$testError_testPrefixNothingInstance, %esi
 2400      00
 2401 0989 BF000000 		movl	$_ZN27TestError_testPrefixNothingD1Ev, %edi
 2401      00
 2402 098e E8000000 		call	__cxa_atexit
 2402      00
 2403 0993 E8000000 		call	_ZN8UnitTest4Test11GetTestListEv
 2403      00
 2404 0998 BA000000 		movl	$testError_testPrefixNothingInstance, %edx
 2404      00
 2405 099d 4889C6   		movq	%rax, %rsi
 2406 09a0 BF000000 		movl	$adderError_testPrefixNothing, %edi
 2406      00
 2407 09a5 E8000000 		call	_ZN8UnitTest9ListAdderC1ERNS_8TestListEPNS_4TestE
 2407      00
  92:testError.cpp **** 	const char *error = NULL;
 2408              		.loc 2 92 0
 2409 09aa BF000000 		movl	$testError_testPrefixNullInstance, %edi
 2409      00
 2410 09af E8000000 		call	_ZN24TestError_testPrefixNullC1Ev
 2410      00
 2411 09b4 BA000000 		movl	$__dso_handle, %edx
 2411      00
 2412 09b9 BE000000 		movl	$testError_testPrefixNullInstance, %esi
 2412      00
 2413 09be BF000000 		movl	$_ZN24TestError_testPrefixNullD1Ev, %edi
 2413      00
 2414 09c3 E8000000 		call	__cxa_atexit
 2414      00
 2415 09c8 E8000000 		call	_ZN8UnitTest4Test11GetTestListEv
 2415      00
 2416 09cd BA000000 		movl	$testError_testPrefixNullInstance, %edx
 2416      00
 2417 09d2 4889C6   		movq	%rax, %rsi
 2418 09d5 BF000000 		movl	$adderError_testPrefixNull, %edi
 2418      00
 2419 09da E8000000 		call	_ZN8UnitTest9ListAdderC1ERNS_8TestListEPNS_4TestE
 2419      00
 2420              	.L100:
 2421              		.loc 2 97 0
 2422 09df 90       		nop
 2423 09e0 C9       		leave
 2424              		.cfi_def_cfa 7, 8
 2425 09e1 C3       		ret
 2426              		.cfi_endproc
 2427              	.LFE1211:
 2430              	_GLOBAL__sub_I_buf:
 2431              	.LFB1212:
 2432              		.loc 2 97 0
 2433              		.cfi_startproc
 2434 09e2 55       		pushq	%rbp
 2435              		.cfi_def_cfa_offset 16
 2436              		.cfi_offset 6, -16
 2437 09e3 4889E5   		movq	%rsp, %rbp
 2438              		.cfi_def_cfa_register 6
 2439              		.loc 2 97 0
 2440 09e6 BEFFFF00 		movl	$65535, %esi
 2440      00
 2441 09eb BF010000 		movl	$1, %edi
 2441      00
 2442 09f0 E852FEFF 		call	_Z41__static_initialization_and_destruction_0ii
 2442      FF
 2443 09f5 5D       		popq	%rbp
 2444              		.cfi_def_cfa 7, 8
 2445 09f6 C3       		ret
 2446              		.cfi_endproc
 2447              	.LFE1212:
 2449              		.section	.init_array,"aw"
 2450              		.align 8
 2451 0000 00000000 		.quad	_GLOBAL__sub_I_buf
 2451      00000000 
 2452              		.text
 2453              	.Letext0:
 2454              		.file 4 "/home/shubham/20140524/makestuff/libs/libutpp/TestList.h"
 2455              		.file 5 "/usr/include/c++/5/cwchar"
 2456              		.file 6 "/usr/include/x86_64-linux-gnu/c++/5/bits/c++config.h"
 2457              		.file 7 "/usr/include/c++/5/debug/debug.h"
 2458              		.file 8 "/usr/include/c++/5/clocale"
 2459              		.file 9 "/usr/include/c++/5/cwctype"
 2460              		.file 10 "/home/shubham/20140524/makestuff/libs/libutpp/TestDetails.h"
 2461              		.file 11 "/usr/include/c++/5/bits/predefined_ops.h"
 2462              		.file 12 "/usr/include/c++/5/ext/new_allocator.h"
 2463              		.file 13 "/usr/include/c++/5/ext/numeric_traits.h"
 2464              		.file 14 "/usr/include/stdio.h"
 2465              		.file 15 "/usr/include/libio.h"
 2466              		.file 16 "<built-in>"
 2467              		.file 17 "/usr/lib/gcc/x86_64-linux-gnu/5/include/stddef.h"
 2468              		.file 18 "/usr/include/wchar.h"
 2469              		.file 19 "/usr/include/time.h"
 2470              		.file 20 "/usr/include/locale.h"
 2471              		.file 21 "/usr/include/x86_64-linux-gnu/bits/types.h"
 2472              		.file 22 "/usr/include/wctype.h"
 2473              		.file 23 "/usr/include/x86_64-linux-gnu/sys/time.h"
DEFINED SYMBOLS
                            *ABS*:0000000000000000 testError.cpp
     /tmp/ccaTQiKy.s:10     .text._ZN13UnitTestSuite12GetSuiteNameEv:0000000000000000 _ZN13UnitTestSuite12GetSuiteNameEv
     /tmp/ccaTQiKy.s:34     .bss:0000000000000000 buf
     /tmp/ccaTQiKy.s:39     .text:0000000000000000 _Z7fillBufic
     /tmp/ccaTQiKy.s:105    .text._ZN24TestError_testNullRenderC2Ev:0000000000000000 _ZN24TestError_testNullRenderC2Ev
     /tmp/ccaTQiKy.s:2129   .rodata._ZTV24TestError_testNullRender:0000000000000000 _ZTV24TestError_testNullRender
     /tmp/ccaTQiKy.s:105    .text._ZN24TestError_testNullRenderC2Ev:0000000000000000 _ZN24TestError_testNullRenderC1Ev
     /tmp/ccaTQiKy.s:144    .bss:0000000000000400 testError_testNullRenderInstance
     /tmp/ccaTQiKy.s:149    .bss:0000000000000438 adderError_testNullRender
     /tmp/ccaTQiKy.s:155    .text:0000000000000064 _ZNK24TestError_testNullRender7RunImplEv
     /tmp/ccaTQiKy.s:190    .text._ZN20TestError_testRenderC2Ev:0000000000000000 _ZN20TestError_testRenderC2Ev
     /tmp/ccaTQiKy.s:2049   .rodata._ZTV20TestError_testRender:0000000000000000 _ZTV20TestError_testRender
     /tmp/ccaTQiKy.s:190    .text._ZN20TestError_testRenderC2Ev:0000000000000000 _ZN20TestError_testRenderC1Ev
     /tmp/ccaTQiKy.s:229    .bss:0000000000000440 testError_testRenderInstance
     /tmp/ccaTQiKy.s:234    .bss:0000000000000478 adderError_testRender
     /tmp/ccaTQiKy.s:244    .text:0000000000000096 _ZNK20TestError_testRender7RunImplEv
     /tmp/ccaTQiKy.s:415    .text._ZN27TestError_testNullStdRenderC2Ev:0000000000000000 _ZN27TestError_testNullStdRenderC2Ev
     /tmp/ccaTQiKy.s:1969   .rodata._ZTV27TestError_testNullStdRender:0000000000000000 _ZTV27TestError_testNullStdRender
     /tmp/ccaTQiKy.s:415    .text._ZN27TestError_testNullStdRenderC2Ev:0000000000000000 _ZN27TestError_testNullStdRenderC1Ev
     /tmp/ccaTQiKy.s:454    .bss:0000000000000480 testError_testNullStdRenderInstance
     /tmp/ccaTQiKy.s:459    .bss:00000000000004b8 adderError_testNullStdRender
     /tmp/ccaTQiKy.s:465    .text:00000000000001be _ZNK27TestError_testNullStdRender7RunImplEv
     /tmp/ccaTQiKy.s:498    .text._ZN23TestError_testStdRenderC2Ev:0000000000000000 _ZN23TestError_testStdRenderC2Ev
     /tmp/ccaTQiKy.s:1889   .rodata._ZTV23TestError_testStdRender:0000000000000000 _ZTV23TestError_testStdRender
     /tmp/ccaTQiKy.s:498    .text._ZN23TestError_testStdRenderC2Ev:0000000000000000 _ZN23TestError_testStdRenderC1Ev
     /tmp/ccaTQiKy.s:537    .bss:00000000000004c0 testError_testStdRenderInstance
     /tmp/ccaTQiKy.s:542    .bss:00000000000004f8 adderError_testStdRender
     /tmp/ccaTQiKy.s:561    .text:00000000000001e6 _ZNK23TestError_testStdRender7RunImplEv
     /tmp/ccaTQiKy.s:1623   .text._ZN8UnitTest5CheckIbEEbT_:0000000000000000 _ZN8UnitTest5CheckIbEEbT_
     /tmp/ccaTQiKy.s:897    .text._ZN29TestError_testPrefixSomethingC2Ev:0000000000000000 _ZN29TestError_testPrefixSomethingC2Ev
     /tmp/ccaTQiKy.s:1809   .rodata._ZTV29TestError_testPrefixSomething:0000000000000000 _ZTV29TestError_testPrefixSomething
     /tmp/ccaTQiKy.s:897    .text._ZN29TestError_testPrefixSomethingC2Ev:0000000000000000 _ZN29TestError_testPrefixSomethingC1Ev
     /tmp/ccaTQiKy.s:936    .bss:0000000000000500 testError_testPrefixSomethingInstance
     /tmp/ccaTQiKy.s:941    .bss:0000000000000538 adderError_testPrefixSomething
     /tmp/ccaTQiKy.s:957    .text:0000000000000476 _ZNK29TestError_testPrefixSomething7RunImplEv
     /tmp/ccaTQiKy.s:1200   .text._ZN27TestError_testPrefixNothingC2Ev:0000000000000000 _ZN27TestError_testPrefixNothingC2Ev
     /tmp/ccaTQiKy.s:1729   .rodata._ZTV27TestError_testPrefixNothing:0000000000000000 _ZTV27TestError_testPrefixNothing
     /tmp/ccaTQiKy.s:1200   .text._ZN27TestError_testPrefixNothingC2Ev:0000000000000000 _ZN27TestError_testPrefixNothingC1Ev
     /tmp/ccaTQiKy.s:1239   .bss:0000000000000540 testError_testPrefixNothingInstance
     /tmp/ccaTQiKy.s:1244   .bss:0000000000000578 adderError_testPrefixNothing
     /tmp/ccaTQiKy.s:1250   .text:0000000000000632 _ZNK27TestError_testPrefixNothing7RunImplEv
     /tmp/ccaTQiKy.s:1410   .text._ZN24TestError_testPrefixNullC2Ev:0000000000000000 _ZN24TestError_testPrefixNullC2Ev
     /tmp/ccaTQiKy.s:1649   .rodata._ZTV24TestError_testPrefixNull:0000000000000000 _ZTV24TestError_testPrefixNull
     /tmp/ccaTQiKy.s:1410   .text._ZN24TestError_testPrefixNullC2Ev:0000000000000000 _ZN24TestError_testPrefixNullC1Ev
     /tmp/ccaTQiKy.s:1449   .bss:0000000000000580 testError_testPrefixNullInstance
     /tmp/ccaTQiKy.s:1454   .bss:00000000000005b8 adderError_testPrefixNull
     /tmp/ccaTQiKy.s:1468   .text:0000000000000734 _ZNK24TestError_testPrefixNull7RunImplEv
     /tmp/ccaTQiKy.s:2209   .rodata._ZTI24TestError_testPrefixNull:0000000000000000 _ZTI24TestError_testPrefixNull
     /tmp/ccaTQiKy.s:1659   .text._ZN24TestError_testPrefixNullD2Ev:0000000000000000 _ZN24TestError_testPrefixNullD1Ev
     /tmp/ccaTQiKy.s:1700   .text._ZN24TestError_testPrefixNullD0Ev:0000000000000000 _ZN24TestError_testPrefixNullD0Ev
     /tmp/ccaTQiKy.s:1659   .text._ZN24TestError_testPrefixNullD2Ev:0000000000000000 _ZN24TestError_testPrefixNullD2Ev
     /tmp/ccaTQiKy.s:2225   .rodata._ZTI27TestError_testPrefixNothing:0000000000000000 _ZTI27TestError_testPrefixNothing
     /tmp/ccaTQiKy.s:1739   .text._ZN27TestError_testPrefixNothingD2Ev:0000000000000000 _ZN27TestError_testPrefixNothingD1Ev
     /tmp/ccaTQiKy.s:1780   .text._ZN27TestError_testPrefixNothingD0Ev:0000000000000000 _ZN27TestError_testPrefixNothingD0Ev
     /tmp/ccaTQiKy.s:1739   .text._ZN27TestError_testPrefixNothingD2Ev:0000000000000000 _ZN27TestError_testPrefixNothingD2Ev
     /tmp/ccaTQiKy.s:2241   .rodata._ZTI29TestError_testPrefixSomething:0000000000000000 _ZTI29TestError_testPrefixSomething
     /tmp/ccaTQiKy.s:1819   .text._ZN29TestError_testPrefixSomethingD2Ev:0000000000000000 _ZN29TestError_testPrefixSomethingD1Ev
     /tmp/ccaTQiKy.s:1860   .text._ZN29TestError_testPrefixSomethingD0Ev:0000000000000000 _ZN29TestError_testPrefixSomethingD0Ev
     /tmp/ccaTQiKy.s:1819   .text._ZN29TestError_testPrefixSomethingD2Ev:0000000000000000 _ZN29TestError_testPrefixSomethingD2Ev
     /tmp/ccaTQiKy.s:2257   .rodata._ZTI23TestError_testStdRender:0000000000000000 _ZTI23TestError_testStdRender
     /tmp/ccaTQiKy.s:1899   .text._ZN23TestError_testStdRenderD2Ev:0000000000000000 _ZN23TestError_testStdRenderD1Ev
     /tmp/ccaTQiKy.s:1940   .text._ZN23TestError_testStdRenderD0Ev:0000000000000000 _ZN23TestError_testStdRenderD0Ev
     /tmp/ccaTQiKy.s:1899   .text._ZN23TestError_testStdRenderD2Ev:0000000000000000 _ZN23TestError_testStdRenderD2Ev
     /tmp/ccaTQiKy.s:2273   .rodata._ZTI27TestError_testNullStdRender:0000000000000000 _ZTI27TestError_testNullStdRender
     /tmp/ccaTQiKy.s:1979   .text._ZN27TestError_testNullStdRenderD2Ev:0000000000000000 _ZN27TestError_testNullStdRenderD1Ev
     /tmp/ccaTQiKy.s:2020   .text._ZN27TestError_testNullStdRenderD0Ev:0000000000000000 _ZN27TestError_testNullStdRenderD0Ev
     /tmp/ccaTQiKy.s:1979   .text._ZN27TestError_testNullStdRenderD2Ev:0000000000000000 _ZN27TestError_testNullStdRenderD2Ev
     /tmp/ccaTQiKy.s:2289   .rodata._ZTI20TestError_testRender:0000000000000000 _ZTI20TestError_testRender
     /tmp/ccaTQiKy.s:2059   .text._ZN20TestError_testRenderD2Ev:0000000000000000 _ZN20TestError_testRenderD1Ev
     /tmp/ccaTQiKy.s:2100   .text._ZN20TestError_testRenderD0Ev:0000000000000000 _ZN20TestError_testRenderD0Ev
     /tmp/ccaTQiKy.s:2059   .text._ZN20TestError_testRenderD2Ev:0000000000000000 _ZN20TestError_testRenderD2Ev
     /tmp/ccaTQiKy.s:2305   .rodata._ZTI24TestError_testNullRender:0000000000000000 _ZTI24TestError_testNullRender
     /tmp/ccaTQiKy.s:2139   .text._ZN24TestError_testNullRenderD2Ev:0000000000000000 _ZN24TestError_testNullRenderD1Ev
     /tmp/ccaTQiKy.s:2180   .text._ZN24TestError_testNullRenderD0Ev:0000000000000000 _ZN24TestError_testNullRenderD0Ev
     /tmp/ccaTQiKy.s:2139   .text._ZN24TestError_testNullRenderD2Ev:0000000000000000 _ZN24TestError_testNullRenderD2Ev
     /tmp/ccaTQiKy.s:2218   .rodata._ZTS24TestError_testPrefixNull:0000000000000000 _ZTS24TestError_testPrefixNull
     /tmp/ccaTQiKy.s:2234   .rodata._ZTS27TestError_testPrefixNothing:0000000000000000 _ZTS27TestError_testPrefixNothing
     /tmp/ccaTQiKy.s:2250   .rodata._ZTS29TestError_testPrefixSomething:0000000000000000 _ZTS29TestError_testPrefixSomething
     /tmp/ccaTQiKy.s:2266   .rodata._ZTS23TestError_testStdRender:0000000000000000 _ZTS23TestError_testStdRender
     /tmp/ccaTQiKy.s:2282   .rodata._ZTS27TestError_testNullStdRender:0000000000000000 _ZTS27TestError_testNullStdRender
     /tmp/ccaTQiKy.s:2298   .rodata._ZTS20TestError_testRender:0000000000000000 _ZTS20TestError_testRender
     /tmp/ccaTQiKy.s:2314   .rodata._ZTS24TestError_testNullRender:0000000000000000 _ZTS24TestError_testNullRender
     /tmp/ccaTQiKy.s:2318   .text:0000000000000847 _Z41__static_initialization_and_destruction_0ii
     /tmp/ccaTQiKy.s:2430   .text:00000000000009e2 _GLOBAL__sub_I_buf
                           .group:0000000000000000 _ZN24TestError_testNullRenderC5Ev
                           .group:0000000000000000 _ZN20TestError_testRenderC5Ev
                           .group:0000000000000000 _ZN27TestError_testNullStdRenderC5Ev
                           .group:0000000000000000 _ZN23TestError_testStdRenderC5Ev
                           .group:0000000000000000 _ZN29TestError_testPrefixSomethingC5Ev
                           .group:0000000000000000 _ZN27TestError_testPrefixNothingC5Ev
                           .group:0000000000000000 _ZN24TestError_testPrefixNullC5Ev
                           .group:0000000000000000 _ZN24TestError_testPrefixNullD5Ev
                           .group:0000000000000000 _ZN27TestError_testPrefixNothingD5Ev
                           .group:0000000000000000 _ZN29TestError_testPrefixSomethingD5Ev
                           .group:0000000000000000 _ZN23TestError_testStdRenderD5Ev
                           .group:0000000000000000 _ZN27TestError_testNullStdRenderD5Ev
                           .group:0000000000000000 _ZN20TestError_testRenderD5Ev
                           .group:0000000000000000 _ZN24TestError_testNullRenderD5Ev

UNDEFINED SYMBOLS
_ZN8UnitTest4TestC2EPKcS2_S2_i
errRender
__gxx_personality_v0
_ZN8UnitTest11CurrentTest7DetailsEv
_ZN8UnitTest11TestDetailsC1ERKS0_i
_ZN8UnitTest11CurrentTest7ResultsEv
_ZN8UnitTest10CheckEqualERNS_11TestResultsEPcPKcRKNS_11TestDetailsE
errFree
__cxa_begin_catch
_ZN8UnitTest11TestResults13OnTestFailureERKNS_11TestDetailsEPKc
__cxa_end_catch
_Unwind_Resume
__stack_chk_fail
errRenderStd
fopen
__errno_location
strerror
_ZN8UnitTest10CheckEqualERNS_11TestResultsEPKcS3_RKNS_11TestDetailsE
errPrefix
_ZN8UnitTest4TestD2Ev
_ZdlPv
_ZTVN10__cxxabiv120__si_class_type_infoE
_ZTIN8UnitTest4TestE
__dso_handle
__cxa_atexit
_ZN8UnitTest4Test11GetTestListEv
_ZN8UnitTest9ListAdderC1ERNS_8TestListEPNS_4TestE
