   1              		.file	"testI2C.cpp"
   2              		.text
   3              	.Ltext0:
   4              		.section	.rodata
   5              	.LC0:
   6 0000 44656661 		.string	"DefaultSuite"
   6      756C7453 
   6      75697465 
   6      00
   7              		.section	.text._ZN13UnitTestSuite12GetSuiteNameEv,"axG",@progbits,_ZN13UnitTestSuite12GetSuiteName
   8              		.weak	_ZN13UnitTestSuite12GetSuiteNameEv
  10              	_ZN13UnitTestSuite12GetSuiteNameEv:
  11              	.LFB0:
  12              		.file 1 "/home/shubham/20140524/makestuff/libs/libutpp/TestSuite.h"
   1:/home/shubham/20140524/makestuff/libs/libutpp/TestSuite.h **** #ifndef UNITTEST_TESTSUITE_H
   2:/home/shubham/20140524/makestuff/libs/libutpp/TestSuite.h **** #define UNITTEST_TESTSUITE_H
   3:/home/shubham/20140524/makestuff/libs/libutpp/TestSuite.h **** 
   4:/home/shubham/20140524/makestuff/libs/libutpp/TestSuite.h **** namespace UnitTestSuite {
   5:/home/shubham/20140524/makestuff/libs/libutpp/TestSuite.h **** 
   6:/home/shubham/20140524/makestuff/libs/libutpp/TestSuite.h ****     inline char const* GetSuiteName ()
   7:/home/shubham/20140524/makestuff/libs/libutpp/TestSuite.h ****     {
  13              		.loc 1 7 0
  14              		.cfi_startproc
  15 0000 55       		pushq	%rbp
  16              		.cfi_def_cfa_offset 16
  17              		.cfi_offset 6, -16
  18 0001 4889E5   		movq	%rsp, %rbp
  19              		.cfi_def_cfa_register 6
   8:/home/shubham/20140524/makestuff/libs/libutpp/TestSuite.h ****         return "DefaultSuite";
  20              		.loc 1 8 0
  21 0004 B8000000 		movl	$.LC0, %eax
  21      00
   9:/home/shubham/20140524/makestuff/libs/libutpp/TestSuite.h ****     }
  22              		.loc 1 9 0
  23 0009 5D       		popq	%rbp
  24              		.cfi_def_cfa 7, 8
  25 000a C3       		ret
  26              		.cfi_endproc
  27              	.LFE0:
  29              		.section	.text._ZN8UnitTest15MemoryOutStreamC1Ev,"axG",@progbits,_ZN8UnitTest15MemoryOutStreamC1Ev
  30              		.align 2
  31              		.weak	_ZN8UnitTest15MemoryOutStreamC1Ev
  33              	_ZN8UnitTest15MemoryOutStreamC1Ev:
  34              	.LFB1057:
  35              		.file 2 "/home/shubham/20140524/makestuff/libs/libutpp/MemoryOutStream.h"
   1:/home/shubham/20140524/makestuff/libs/libutpp/MemoryOutStream.h **** #ifndef UNITTEST_MEMORYOUTSTREAM_H
   2:/home/shubham/20140524/makestuff/libs/libutpp/MemoryOutStream.h **** #define UNITTEST_MEMORYOUTSTREAM_H
   3:/home/shubham/20140524/makestuff/libs/libutpp/MemoryOutStream.h **** 
   4:/home/shubham/20140524/makestuff/libs/libutpp/MemoryOutStream.h **** #include "Config.h"
   5:/home/shubham/20140524/makestuff/libs/libutpp/MemoryOutStream.h **** 
   6:/home/shubham/20140524/makestuff/libs/libutpp/MemoryOutStream.h **** #ifndef UNITTEST_USE_CUSTOM_STREAMS
   7:/home/shubham/20140524/makestuff/libs/libutpp/MemoryOutStream.h **** 
   8:/home/shubham/20140524/makestuff/libs/libutpp/MemoryOutStream.h **** #include <sstream>
   9:/home/shubham/20140524/makestuff/libs/libutpp/MemoryOutStream.h **** 
  10:/home/shubham/20140524/makestuff/libs/libutpp/MemoryOutStream.h **** namespace UnitTest
  11:/home/shubham/20140524/makestuff/libs/libutpp/MemoryOutStream.h **** {
  12:/home/shubham/20140524/makestuff/libs/libutpp/MemoryOutStream.h **** 
  13:/home/shubham/20140524/makestuff/libs/libutpp/MemoryOutStream.h **** class MemoryOutStream : public std::ostringstream
  14:/home/shubham/20140524/makestuff/libs/libutpp/MemoryOutStream.h **** {
  15:/home/shubham/20140524/makestuff/libs/libutpp/MemoryOutStream.h **** public:
  16:/home/shubham/20140524/makestuff/libs/libutpp/MemoryOutStream.h ****     MemoryOutStream() {}
  36              		.loc 2 16 0
  37              		.cfi_startproc
  38              		.cfi_personality 0x3,__gxx_personality_v0
  39              		.cfi_lsda 0x3,.LLSDA1057
  40 0000 55       		pushq	%rbp
  41              		.cfi_def_cfa_offset 16
  42              		.cfi_offset 6, -16
  43 0001 4889E5   		movq	%rsp, %rbp
  44              		.cfi_def_cfa_register 6
  45 0004 53       		pushq	%rbx
  46 0005 4883EC18 		subq	$24, %rsp
  47              		.cfi_offset 3, -24
  48 0009 48897DE8 		movq	%rdi, -24(%rbp)
  49              	.LBB2:
  50              		.loc 2 16 0
  51 000d 488B45E8 		movq	-24(%rbp), %rax
  52 0011 48059000 		addq	$144, %rax
  52      0000
  53 0017 4889C7   		movq	%rax, %rdi
  54              	.LEHB0:
  55 001a E8000000 		call	_ZNSt9basic_iosIcSt11char_traitsIcEEC2Ev
  55      00
  56              	.LEHE0:
  57 001f B9000000 		movl	$_ZTTN8UnitTest15MemoryOutStreamE+8, %ecx
  57      00
  58 0024 488B45E8 		movq	-24(%rbp), %rax
  59 0028 BA100000 		movl	$16, %edx
  59      00
  60 002d 4889CE   		movq	%rcx, %rsi
  61 0030 4889C7   		movq	%rax, %rdi
  62              	.LEHB1:
  63 0033 E8000000 		call	_ZNSt7__cxx1119basic_ostringstreamIcSt11char_traitsIcESaIcEEC2ESt13_Ios_Openmode
  63      00
  64              	.LEHE1:
  65              		.loc 2 16 0 is_stmt 0 discriminator 9
  66 0038 BA000000 		movl	$_ZTVN8UnitTest15MemoryOutStreamE+24, %edx
  66      00
  67 003d 488B45E8 		movq	-24(%rbp), %rax
  68 0041 488910   		movq	%rdx, (%rax)
  69 0044 BA900000 		movl	$144, %edx
  69      00
  70 0049 488B45E8 		movq	-24(%rbp), %rax
  71 004d 4801D0   		addq	%rdx, %rax
  72 0050 BA000000 		movl	$_ZTVN8UnitTest15MemoryOutStreamE+64, %edx
  72      00
  73 0055 488910   		movq	%rdx, (%rax)
  74 0058 488B45E8 		movq	-24(%rbp), %rax
  75 005c 4883C070 		addq	$112, %rax
  76 0060 4889C7   		movq	%rax, %rdi
  77              	.LEHB2:
  78 0063 E8000000 		call	_ZNSt7__cxx1112basic_stringIcSt11char_traitsIcESaIcEEC1Ev
  78      00
  79              	.LEHE2:
  80              	.LBE2:
  81              		.loc 2 16 0
  82 0068 EB39     		jmp	.L9
  83              	.L7:
  84 006a 4889C3   		movq	%rax, %rbx
  85              	.LBB3:
  86 006d BA000000 		movl	$_ZTTN8UnitTest15MemoryOutStreamE+8, %edx
  86      00
  87 0072 488B45E8 		movq	-24(%rbp), %rax
  88 0076 4889D6   		movq	%rdx, %rsi
  89 0079 4889C7   		movq	%rax, %rdi
  90 007c E8000000 		call	_ZNSt7__cxx1119basic_ostringstreamIcSt11char_traitsIcESaIcEED2Ev
  90      00
  91 0081 EB03     		jmp	.L8
  92              	.L6:
  93 0083 4889C3   		movq	%rax, %rbx
  94              	.L8:
  95              		.loc 2 16 0 discriminator 28
  96 0086 488B45E8 		movq	-24(%rbp), %rax
  97 008a 48059000 		addq	$144, %rax
  97      0000
  98 0090 4889C7   		movq	%rax, %rdi
  99 0093 E8000000 		call	_ZNSt9basic_iosIcSt11char_traitsIcEED2Ev
  99      00
 100 0098 4889D8   		movq	%rbx, %rax
 101 009b 4889C7   		movq	%rax, %rdi
 102              	.LEHB3:
 103 009e E8000000 		call	_Unwind_Resume
 103      00
 104              	.LEHE3:
 105              	.L9:
 106              	.LBE3:
 107              		.loc 2 16 0
 108 00a3 4883C418 		addq	$24, %rsp
 109 00a7 5B       		popq	%rbx
 110 00a8 5D       		popq	%rbp
 111              		.cfi_def_cfa 7, 8
 112 00a9 C3       		ret
 113              		.cfi_endproc
 114              	.LFE1057:
 115              		.globl	__gxx_personality_v0
 116              		.section	.gcc_except_table._ZN8UnitTest15MemoryOutStreamC1Ev,"aG",@progbits,_ZN8UnitTest15MemoryOu
 117              	.LLSDA1057:
 118 0000 FF       		.byte	0xff
 119 0001 FF       		.byte	0xff
 120 0002 01       		.byte	0x1
 121 0003 12       		.uleb128 .LLSDACSE1057-.LLSDACSB1057
 122              	.LLSDACSB1057:
 123 0004 1A       		.uleb128 .LEHB0-.LFB1057
 124 0005 05       		.uleb128 .LEHE0-.LEHB0
 125 0006 00       		.uleb128 0
 126 0007 00       		.uleb128 0
 127 0008 33       		.uleb128 .LEHB1-.LFB1057
 128 0009 05       		.uleb128 .LEHE1-.LEHB1
 129 000a 8301     		.uleb128 .L6-.LFB1057
 130 000c 00       		.uleb128 0
 131 000d 63       		.uleb128 .LEHB2-.LFB1057
 132 000e 05       		.uleb128 .LEHE2-.LEHB2
 133 000f 6A       		.uleb128 .L7-.LFB1057
 134 0010 00       		.uleb128 0
 135 0011 9E01     		.uleb128 .LEHB3-.LFB1057
 136 0013 05       		.uleb128 .LEHE3-.LEHB3
 137 0014 00       		.uleb128 0
 138 0015 00       		.uleb128 0
 139              	.LLSDACSE1057:
 140              		.section	.text._ZN8UnitTest15MemoryOutStreamC1Ev,"axG",@progbits,_ZN8UnitTest15MemoryOutStreamC1Ev
 142              		.section	.rodata
 143              	.LC1:
 144 000d 74657374 		.string	"testI2C.cpp"
 144      4932432E 
 144      63707000 
 145              	.LC2:
 146 0019 4932435F 		.string	"I2C_testInitialise"
 146      74657374 
 146      496E6974 
 146      69616C69 
 146      736500
 147              		.section	.text._ZN22TestI2C_testInitialiseC2Ev,"axG",@progbits,_ZN22TestI2C_testInitialiseC5Ev,com
 148              		.align 2
 149              		.weak	_ZN22TestI2C_testInitialiseC2Ev
 151              	_ZN22TestI2C_testInitialiseC2Ev:
 152              	.LFB1074:
 153              		.file 3 "testI2C.cpp"
   1:testI2C.cpp   **** /*
   2:testI2C.cpp   ****  * Copyright (C) 2009-2012 Chris McClelland
   3:testI2C.cpp   ****  *
   4:testI2C.cpp   ****  * This program is free software: you can redistribute it and/or modify
   5:testI2C.cpp   ****  * it under the terms of the GNU Lesser General Public License as published by
   6:testI2C.cpp   ****  * the Free Software Foundation, either version 3 of the License, or
   7:testI2C.cpp   ****  * (at your option) any later version.
   8:testI2C.cpp   ****  *
   9:testI2C.cpp   ****  * This program is distributed in the hope that it will be useful,
  10:testI2C.cpp   ****  * but WITHOUT ANY WARRANTY; without even the implied warranty of
  11:testI2C.cpp   ****  * MERCHANTABILITY or FITNESS FOR A PARTICULAR PURPOSE.  See the
  12:testI2C.cpp   ****  * GNU Lesser General Public License for more details.
  13:testI2C.cpp   ****  *
  14:testI2C.cpp   ****  * You should have received a copy of the GNU Lesser General Public License
  15:testI2C.cpp   ****  * along with this program.  If not, see <http://www.gnu.org/licenses/>.
  16:testI2C.cpp   ****  */
  17:testI2C.cpp   **** #include <string.h>
  18:testI2C.cpp   **** #include <UnitTest++.h>
  19:testI2C.cpp   **** #include <makestuff.h>
  20:testI2C.cpp   **** #include <libbuffer.h>
  21:testI2C.cpp   **** #include "../libfx2loader.h"
  22:testI2C.cpp   **** #include "../libfx2loader.h"
  23:testI2C.cpp   **** 
  24:testI2C.cpp   **** #define VID 0x04b4
  25:testI2C.cpp   **** #define PID 0x8613
  26:testI2C.cpp   **** #define DID 0x0000
  27:testI2C.cpp   **** 
  28:testI2C.cpp   **** #define LSB(x) (x & 0xFF)
  29:testI2C.cpp   **** #define MSB(x) (x >> 8)
  30:testI2C.cpp   **** 
  31:testI2C.cpp   **** TEST(I2C_testInitialise) {
 154              		.loc 3 31 0 is_stmt 1
 155              		.cfi_startproc
 156 0000 55       		pushq	%rbp
 157              		.cfi_def_cfa_offset 16
 158              		.cfi_offset 6, -16
 159 0001 4889E5   		movq	%rsp, %rbp
 160              		.cfi_def_cfa_register 6
 161 0004 4883EC10 		subq	$16, %rsp
 162 0008 48897DF8 		movq	%rdi, -8(%rbp)
 163              	.LBB4:
 164              		.loc 3 31 0
 165 000c E8000000 		call	_ZN13UnitTestSuite12GetSuiteNameEv
 165      00
 166 0011 4889C2   		movq	%rax, %rdx
 167 0014 488B45F8 		movq	-8(%rbp), %rax
 168 0018 41B81F00 		movl	$31, %r8d
 168      0000
 169 001e B9000000 		movl	$.LC1, %ecx
 169      00
 170 0023 BE000000 		movl	$.LC2, %esi
 170      00
 171 0028 4889C7   		movq	%rax, %rdi
 172 002b E8000000 		call	_ZN8UnitTest4TestC2EPKcS2_S2_i
 172      00
 173 0030 BA000000 		movl	$_ZTV22TestI2C_testInitialise+16, %edx
 173      00
 174 0035 488B45F8 		movq	-8(%rbp), %rax
 175 0039 488910   		movq	%rdx, (%rax)
 176              	.LBE4:
 177 003c 90       		nop
 178 003d C9       		leave
 179              		.cfi_def_cfa 7, 8
 180 003e C3       		ret
 181              		.cfi_endproc
 182              	.LFE1074:
 184              		.weak	_ZN22TestI2C_testInitialiseC1Ev
 185              		.set	_ZN22TestI2C_testInitialiseC1Ev,_ZN22TestI2C_testInitialiseC2Ev
 186              		.globl	testI2C_testInitialiseInstance
 187              		.bss
 188              		.align 32
 191              	testI2C_testInitialiseInstance:
 192 0000 00000000 		.zero	56
 192      00000000 
 192      00000000 
 192      00000000 
 192      00000000 
 193              		.globl	adderI2C_testInitialise
 196              	adderI2C_testInitialise:
 197 0038 00       		.zero	1
 198              		.section	.rodata
 199 002c 00000000 		.align 8
 200              	.LC3:
 201 0030 556E6861 		.string	"Unhandled exception in CHECK_EQUAL(BUF_SUCCESS, bStatus)"
 201      6E646C65 
 201      64206578 
 201      63657074 
 201      696F6E20 
 202 0069 00000000 		.align 8
 202      000000
 203              	.LC4:
 204 0070 556E6861 		.string	"Unhandled exception in CHECK_EQUAL(I2C_SUCCESS, iStatus)"
 204      6E646C65 
 204      64206578 
 204      63657074 
 204      696F6E20 
 205 00a9 00000000 		.align 8
 205      000000
 206              	.LC5:
 207 00b0 556E6861 		.string	"Unhandled exception in CHECK_EQUAL(8UL+5UL, i2cBuffer.length)"
 207      6E646C65 
 207      64206578 
 207      63657074 
 207      696F6E20 
 208 00ee 0000     		.align 8
 209              	.LC6:
 210 00f0 556E6861 		.string	"Unhandled exception in CHECK_EQUAL(1024UL, i2cBuffer.capacity)"
 210      6E646C65 
 210      64206578 
 210      63657074 
 210      696F6E20 
 211 012f 00       		.align 8
 212              	.LC7:
 213 0130 556E6861 		.string	"Unhandled exception in CHECK_ARRAY_EQUAL(expected, i2cBuffer.data)"
 213      6E646C65 
 213      64206578 
 213      63657074 
 213      696F6E20 
 214              		.text
 215              		.align 2
 216              		.globl	_ZNK22TestI2C_testInitialise7RunImplEv
 218              	_ZNK22TestI2C_testInitialise7RunImplEv:
 219              	.LFB1076:
 220              		.loc 3 31 0
 221              		.cfi_startproc
 222              		.cfi_personality 0x3,__gxx_personality_v0
 223              		.cfi_lsda 0x3,.LLSDA1076
 224 0000 55       		pushq	%rbp
 225              		.cfi_def_cfa_offset 16
 226              		.cfi_offset 6, -16
 227 0001 4889E5   		movq	%rsp, %rbp
 228              		.cfi_def_cfa_register 6
 229 0004 53       		pushq	%rbx
 230 0005 4881EC88 		subq	$136, %rsp
 230      000000
 231              		.cfi_offset 3, -24
 232 000c 4889BD78 		movq	%rdi, -136(%rbp)
 232      FFFFFF
 233              		.loc 3 31 0
 234 0013 64488B04 		movq	%fs:40, %rax
 234      25280000 
 234      00
 235 001c 488945E8 		movq	%rax, -24(%rbp)
 236 0020 31C0     		xorl	%eax, %eax
  32:testI2C.cpp   **** 	Buffer i2cBuffer;
  33:testI2C.cpp   **** 	I2CStatus iStatus;
  34:testI2C.cpp   **** 	BufferStatus bStatus;
  35:testI2C.cpp   **** 	const uint8 expected[] = {0xC2, LSB(VID), MSB(VID), LSB(PID), MSB(PID), LSB(DID), MSB(DID), CONFIG
 237              		.loc 3 35 0
 238 0022 C645D0C2 		movb	$-62, -48(%rbp)
 239 0026 C645D1B4 		movb	$-76, -47(%rbp)
 240 002a C645D204 		movb	$4, -46(%rbp)
 241 002e C645D313 		movb	$19, -45(%rbp)
 242 0032 C645D486 		movb	$-122, -44(%rbp)
 243 0036 C645D500 		movb	$0, -43(%rbp)
 244 003a C645D600 		movb	$0, -42(%rbp)
 245 003e C645D701 		movb	$1, -41(%rbp)
 246 0042 C645D880 		movb	$-128, -40(%rbp)
 247 0046 C645D901 		movb	$1, -39(%rbp)
 248 004a C645DAE6 		movb	$-26, -38(%rbp)
 249 004e C645DB00 		movb	$0, -37(%rbp)
 250 0052 C645DC00 		movb	$0, -36(%rbp)
  36:testI2C.cpp   **** 	bStatus = bufInitialise(&i2cBuffer, 1024, 0x00, NULL);
 251              		.loc 3 36 0
 252 0056 488D4590 		leaq	-112(%rbp), %rax
 253 005a B9000000 		movl	$0, %ecx
 253      00
 254 005f BA000000 		movl	$0, %edx
 254      00
 255 0064 BE000400 		movl	$1024, %esi
 255      00
 256 0069 4889C7   		movq	%rax, %rdi
 257              	.LEHB4:
 258 006c E8000000 		call	bufInitialise
 258      00
 259              	.LEHE4:
 260 0071 894584   		movl	%eax, -124(%rbp)
 261              	.LEHB5:
  37:testI2C.cpp   **** 	CHECK_EQUAL(BUF_SUCCESS, bStatus);
 262              		.loc 3 37 0
 263 0074 E8000000 		call	_ZN8UnitTest11CurrentTest7DetailsEv
 263      00
 264 0079 488B08   		movq	(%rax), %rcx
 265 007c 488D45B0 		leaq	-80(%rbp), %rax
 266 0080 BA250000 		movl	$37, %edx
 266      00
 267 0085 4889CE   		movq	%rcx, %rsi
 268 0088 4889C7   		movq	%rax, %rdi
 269 008b E8000000 		call	_ZN8UnitTest11TestDetailsC1ERKS0_i
 269      00
 270              	.LEHE5:
 271              		.loc 3 37 0 is_stmt 0 discriminator 2
 272 0090 C7458800 		movl	$0, -120(%rbp)
 272      000000
 273              	.LEHB6:
 274 0097 E8000000 		call	_ZN8UnitTest11CurrentTest7ResultsEv
 274      00
 275 009c 488B00   		movq	(%rax), %rax
 276 009f 488D4DB0 		leaq	-80(%rbp), %rcx
 277 00a3 488D5584 		leaq	-124(%rbp), %rdx
 278 00a7 488D7588 		leaq	-120(%rbp), %rsi
 279 00ab 4889C7   		movq	%rax, %rdi
 280 00ae E8000000 		call	_ZN8UnitTest10CheckEqualI12BufferStatusS1_EEvRNS_11TestResultsERKT_RKT0_RKNS_11TestDetailsE
 280      00
 281              	.LEHE6:
 282              	.L14:
  38:testI2C.cpp   **** 	i2cInitialise(&i2cBuffer, VID, PID, DID, CONFIG_BYTE_400KHZ);
 283              		.loc 3 38 0 is_stmt 1
 284 00b3 488D4590 		leaq	-112(%rbp), %rax
 285 00b7 41B80100 		movl	$1, %r8d
 285      0000
 286 00bd B9000000 		movl	$0, %ecx
 286      00
 287 00c2 BA138600 		movl	$34323, %edx
 287      00
 288 00c7 BEB40400 		movl	$1204, %esi
 288      00
 289 00cc 4889C7   		movq	%rax, %rdi
 290              	.LEHB7:
 291 00cf E8000000 		call	i2cInitialise
 291      00
  39:testI2C.cpp   **** 	iStatus = i2cFinalise(&i2cBuffer, NULL);
 292              		.loc 3 39 0
 293 00d4 488D4590 		leaq	-112(%rbp), %rax
 294 00d8 BE000000 		movl	$0, %esi
 294      00
 295 00dd 4889C7   		movq	%rax, %rdi
 296 00e0 E8000000 		call	i2cFinalise
 296      00
 297              	.LEHE7:
 298 00e5 894580   		movl	%eax, -128(%rbp)
 299              	.LEHB8:
  40:testI2C.cpp   **** 	CHECK_EQUAL(I2C_SUCCESS, iStatus);
 300              		.loc 3 40 0
 301 00e8 E8000000 		call	_ZN8UnitTest11CurrentTest7DetailsEv
 301      00
 302 00ed 488B08   		movq	(%rax), %rcx
 303 00f0 488D45B0 		leaq	-80(%rbp), %rax
 304 00f4 BA280000 		movl	$40, %edx
 304      00
 305 00f9 4889CE   		movq	%rcx, %rsi
 306 00fc 4889C7   		movq	%rax, %rdi
 307 00ff E8000000 		call	_ZN8UnitTest11TestDetailsC1ERKS0_i
 307      00
 308              	.LEHE8:
 309              		.loc 3 40 0 is_stmt 0 discriminator 2
 310 0104 C7458800 		movl	$0, -120(%rbp)
 310      000000
 311              	.LEHB9:
 312 010b E8000000 		call	_ZN8UnitTest11CurrentTest7ResultsEv
 312      00
 313 0110 488B00   		movq	(%rax), %rax
 314 0113 488D4DB0 		leaq	-80(%rbp), %rcx
 315 0117 488D5580 		leaq	-128(%rbp), %rdx
 316 011b 488D7588 		leaq	-120(%rbp), %rsi
 317 011f 4889C7   		movq	%rax, %rdi
 318 0122 E8000000 		call	_ZN8UnitTest10CheckEqualI9I2CStatusS1_EEvRNS_11TestResultsERKT_RKT0_RKNS_11TestDetailsE
 318      00
 319              	.LEHE9:
 320              	.L18:
 321              	.LEHB10:
  41:testI2C.cpp   **** 	CHECK_EQUAL(8UL+5UL, i2cBuffer.length);
 322              		.loc 3 41 0 is_stmt 1
 323 0127 E8000000 		call	_ZN8UnitTest11CurrentTest7DetailsEv
 323      00
 324 012c 488B08   		movq	(%rax), %rcx
 325 012f 488D45B0 		leaq	-80(%rbp), %rax
 326 0133 BA290000 		movl	$41, %edx
 326      00
 327 0138 4889CE   		movq	%rcx, %rsi
 328 013b 4889C7   		movq	%rax, %rdi
 329 013e E8000000 		call	_ZN8UnitTest11TestDetailsC1ERKS0_i
 329      00
 330              	.LEHE10:
 331              		.loc 3 41 0 is_stmt 0 discriminator 2
 332 0143 48C74588 		movq	$13, -120(%rbp)
 332      0D000000 
 333              	.LEHB11:
 334 014b E8000000 		call	_ZN8UnitTest11CurrentTest7ResultsEv
 334      00
 335 0150 488B00   		movq	(%rax), %rax
 336 0153 488D55B0 		leaq	-80(%rbp), %rdx
 337 0157 488D4D90 		leaq	-112(%rbp), %rcx
 338 015b 488D7908 		leaq	8(%rcx), %rdi
 339 015f 488D7588 		leaq	-120(%rbp), %rsi
 340 0163 4889D1   		movq	%rdx, %rcx
 341 0166 4889FA   		movq	%rdi, %rdx
 342 0169 4889C7   		movq	%rax, %rdi
 343 016c E8000000 		call	_ZN8UnitTest10CheckEqualImmEEvRNS_11TestResultsERKT_RKT0_RKNS_11TestDetailsE
 343      00
 344              	.LEHE11:
 345              	.L22:
 346              	.LEHB12:
  42:testI2C.cpp   **** 	CHECK_EQUAL(1024UL, i2cBuffer.capacity);
 347              		.loc 3 42 0 is_stmt 1
 348 0171 E8000000 		call	_ZN8UnitTest11CurrentTest7DetailsEv
 348      00
 349 0176 488B08   		movq	(%rax), %rcx
 350 0179 488D45B0 		leaq	-80(%rbp), %rax
 351 017d BA2A0000 		movl	$42, %edx
 351      00
 352 0182 4889CE   		movq	%rcx, %rsi
 353 0185 4889C7   		movq	%rax, %rdi
 354 0188 E8000000 		call	_ZN8UnitTest11TestDetailsC1ERKS0_i
 354      00
 355              	.LEHE12:
 356              		.loc 3 42 0 is_stmt 0 discriminator 2
 357 018d 48C74588 		movq	$1024, -120(%rbp)
 357      00040000 
 358              	.LEHB13:
 359 0195 E8000000 		call	_ZN8UnitTest11CurrentTest7ResultsEv
 359      00
 360 019a 488B00   		movq	(%rax), %rax
 361 019d 488D55B0 		leaq	-80(%rbp), %rdx
 362 01a1 488D4D90 		leaq	-112(%rbp), %rcx
 363 01a5 488D7910 		leaq	16(%rcx), %rdi
 364 01a9 488D7588 		leaq	-120(%rbp), %rsi
 365 01ad 4889D1   		movq	%rdx, %rcx
 366 01b0 4889FA   		movq	%rdi, %rdx
 367 01b3 4889C7   		movq	%rax, %rdi
 368 01b6 E8000000 		call	_ZN8UnitTest10CheckEqualImmEEvRNS_11TestResultsERKT_RKT0_RKNS_11TestDetailsE
 368      00
 369              	.LEHE13:
 370              	.L26:
 371              	.LEHB14:
  43:testI2C.cpp   **** 	CHECK_ARRAY_EQUAL(expected, i2cBuffer.data, 8+5);
 372              		.loc 3 43 0 is_stmt 1
 373 01bb E8000000 		call	_ZN8UnitTest11CurrentTest7DetailsEv
 373      00
 374 01c0 488B08   		movq	(%rax), %rcx
 375 01c3 488D45B0 		leaq	-80(%rbp), %rax
 376 01c7 BA2B0000 		movl	$43, %edx
 376      00
 377 01cc 4889CE   		movq	%rcx, %rsi
 378 01cf 4889C7   		movq	%rax, %rdi
 379 01d2 E8000000 		call	_ZN8UnitTest11TestDetailsC1ERKS0_i
 379      00
 380              		.loc 3 43 0 is_stmt 0 discriminator 2
 381 01d7 E8000000 		call	_ZN8UnitTest11CurrentTest7ResultsEv
 381      00
 382 01dc 488B00   		movq	(%rax), %rax
 383 01df 488D4DB0 		leaq	-80(%rbp), %rcx
 384 01e3 488D5590 		leaq	-112(%rbp), %rdx
 385 01e7 488D75D0 		leaq	-48(%rbp), %rsi
 386 01eb 4989C8   		movq	%rcx, %r8
 387 01ee B90D0000 		movl	$13, %ecx
 387      00
 388 01f3 4889C7   		movq	%rax, %rdi
 389 01f6 E8000000 		call	_ZN8UnitTest15CheckArrayEqualIA13_hPhEEvRNS_11TestResultsERKT_RKT0_iRKNS_11TestDetailsE
 389      00
 390              	.LEHE14:
 391              	.L29:
  44:testI2C.cpp   **** 	bufDestroy(&i2cBuffer);
 392              		.loc 3 44 0 is_stmt 1
 393 01fb 488D4590 		leaq	-112(%rbp), %rax
 394 01ff 4889C7   		movq	%rax, %rdi
 395              	.LEHB15:
 396 0202 E8000000 		call	bufDestroy
 396      00
 397              	.LEHE15:
  45:testI2C.cpp   **** }
 398              		.loc 3 45 0
 399 0207 90       		nop
 400 0208 488B45E8 		movq	-24(%rbp), %rax
 401 020c 64483304 		xorq	%fs:40, %rax
 401      25280000 
 401      00
 402 0215 0F84E301 		je	.L31
 402      0000
 403 021b E9D90100 		jmp	.L46
 403      00
 404              	.L33:
 405 0220 EB00     		jmp	.L13
 406              	.L32:
 407              	.L13:
  37:testI2C.cpp   **** 	i2cInitialise(&i2cBuffer, VID, PID, DID, CONFIG_BYTE_400KHZ);
 408              		.loc 3 37 0
 409 0222 4889C7   		movq	%rax, %rdi
 410 0225 E8000000 		call	__cxa_begin_catch
 410      00
 411              	.LEHB16:
 412 022a E8000000 		call	_ZN8UnitTest11CurrentTest7DetailsEv
 412      00
 413 022f 488B08   		movq	(%rax), %rcx
 414 0232 488D45B0 		leaq	-80(%rbp), %rax
 415 0236 BA250000 		movl	$37, %edx
 415      00
 416 023b 4889CE   		movq	%rcx, %rsi
 417 023e 4889C7   		movq	%rax, %rdi
 418 0241 E8000000 		call	_ZN8UnitTest11TestDetailsC1ERKS0_i
 418      00
  37:testI2C.cpp   **** 	i2cInitialise(&i2cBuffer, VID, PID, DID, CONFIG_BYTE_400KHZ);
 419              		.loc 3 37 0 is_stmt 0 discriminator 10
 420 0246 E8000000 		call	_ZN8UnitTest11CurrentTest7ResultsEv
 420      00
 421 024b 488B00   		movq	(%rax), %rax
 422 024e 488D4DB0 		leaq	-80(%rbp), %rcx
 423 0252 BA000000 		movl	$.LC3, %edx
 423      00
 424 0257 4889CE   		movq	%rcx, %rsi
 425 025a 4889C7   		movq	%rax, %rdi
 426 025d E8000000 		call	_ZN8UnitTest11TestResults13OnTestFailureERKNS_11TestDetailsEPKc
 426      00
 427              	.LEHE16:
 428              	.LEHB17:
  37:testI2C.cpp   **** 	i2cInitialise(&i2cBuffer, VID, PID, DID, CONFIG_BYTE_400KHZ);
 429              		.loc 3 37 0 discriminator 14
 430 0262 E8000000 		call	__cxa_end_catch
 430      00
 431              	.LEHE17:
 432 0267 E947FEFF 		jmp	.L14
 432      FF
 433              	.L34:
 434 026c 4889C3   		movq	%rax, %rbx
  37:testI2C.cpp   **** 	i2cInitialise(&i2cBuffer, VID, PID, DID, CONFIG_BYTE_400KHZ);
 435              		.loc 3 37 0
 436 026f E8000000 		call	__cxa_end_catch
 436      00
 437 0274 4889D8   		movq	%rbx, %rax
 438 0277 4889C7   		movq	%rax, %rdi
 439              	.LEHB18:
 440 027a E8000000 		call	_Unwind_Resume
 440      00
 441              	.LEHE18:
 442              	.L36:
 443 027f EB00     		jmp	.L17
 444              	.L35:
 445              	.L17:
  40:testI2C.cpp   **** 	CHECK_EQUAL(8UL+5UL, i2cBuffer.length);
 446              		.loc 3 40 0 is_stmt 1
 447 0281 4889C7   		movq	%rax, %rdi
 448 0284 E8000000 		call	__cxa_begin_catch
 448      00
 449              	.LEHB19:
 450 0289 E8000000 		call	_ZN8UnitTest11CurrentTest7DetailsEv
 450      00
 451 028e 488B08   		movq	(%rax), %rcx
 452 0291 488D45B0 		leaq	-80(%rbp), %rax
 453 0295 BA280000 		movl	$40, %edx
 453      00
 454 029a 4889CE   		movq	%rcx, %rsi
 455 029d 4889C7   		movq	%rax, %rdi
 456 02a0 E8000000 		call	_ZN8UnitTest11TestDetailsC1ERKS0_i
 456      00
  40:testI2C.cpp   **** 	CHECK_EQUAL(8UL+5UL, i2cBuffer.length);
 457              		.loc 3 40 0 is_stmt 0 discriminator 10
 458 02a5 E8000000 		call	_ZN8UnitTest11CurrentTest7ResultsEv
 458      00
 459 02aa 488B00   		movq	(%rax), %rax
 460 02ad 488D4DB0 		leaq	-80(%rbp), %rcx
 461 02b1 BA000000 		movl	$.LC4, %edx
 461      00
 462 02b6 4889CE   		movq	%rcx, %rsi
 463 02b9 4889C7   		movq	%rax, %rdi
 464 02bc E8000000 		call	_ZN8UnitTest11TestResults13OnTestFailureERKNS_11TestDetailsEPKc
 464      00
 465              	.LEHE19:
 466              	.LEHB20:
  40:testI2C.cpp   **** 	CHECK_EQUAL(8UL+5UL, i2cBuffer.length);
 467              		.loc 3 40 0 discriminator 14
 468 02c1 E8000000 		call	__cxa_end_catch
 468      00
 469              	.LEHE20:
 470 02c6 E95CFEFF 		jmp	.L18
 470      FF
 471              	.L37:
 472 02cb 4889C3   		movq	%rax, %rbx
  40:testI2C.cpp   **** 	CHECK_EQUAL(8UL+5UL, i2cBuffer.length);
 473              		.loc 3 40 0
 474 02ce E8000000 		call	__cxa_end_catch
 474      00
 475 02d3 4889D8   		movq	%rbx, %rax
 476 02d6 4889C7   		movq	%rax, %rdi
 477              	.LEHB21:
 478 02d9 E8000000 		call	_Unwind_Resume
 478      00
 479              	.LEHE21:
 480              	.L39:
 481 02de EB00     		jmp	.L21
 482              	.L38:
 483              	.L21:
  41:testI2C.cpp   **** 	CHECK_EQUAL(1024UL, i2cBuffer.capacity);
 484              		.loc 3 41 0 is_stmt 1
 485 02e0 4889C7   		movq	%rax, %rdi
 486 02e3 E8000000 		call	__cxa_begin_catch
 486      00
 487              	.LEHB22:
 488 02e8 E8000000 		call	_ZN8UnitTest11CurrentTest7DetailsEv
 488      00
 489 02ed 488B08   		movq	(%rax), %rcx
 490 02f0 488D45B0 		leaq	-80(%rbp), %rax
 491 02f4 BA290000 		movl	$41, %edx
 491      00
 492 02f9 4889CE   		movq	%rcx, %rsi
 493 02fc 4889C7   		movq	%rax, %rdi
 494 02ff E8000000 		call	_ZN8UnitTest11TestDetailsC1ERKS0_i
 494      00
  41:testI2C.cpp   **** 	CHECK_EQUAL(1024UL, i2cBuffer.capacity);
 495              		.loc 3 41 0 is_stmt 0 discriminator 10
 496 0304 E8000000 		call	_ZN8UnitTest11CurrentTest7ResultsEv
 496      00
 497 0309 488B00   		movq	(%rax), %rax
 498 030c 488D4DB0 		leaq	-80(%rbp), %rcx
 499 0310 BA000000 		movl	$.LC5, %edx
 499      00
 500 0315 4889CE   		movq	%rcx, %rsi
 501 0318 4889C7   		movq	%rax, %rdi
 502 031b E8000000 		call	_ZN8UnitTest11TestResults13OnTestFailureERKNS_11TestDetailsEPKc
 502      00
 503              	.LEHE22:
 504              	.LEHB23:
  41:testI2C.cpp   **** 	CHECK_EQUAL(1024UL, i2cBuffer.capacity);
 505              		.loc 3 41 0 discriminator 14
 506 0320 E8000000 		call	__cxa_end_catch
 506      00
 507              	.LEHE23:
 508 0325 E947FEFF 		jmp	.L22
 508      FF
 509              	.L40:
 510 032a 4889C3   		movq	%rax, %rbx
  41:testI2C.cpp   **** 	CHECK_EQUAL(1024UL, i2cBuffer.capacity);
 511              		.loc 3 41 0
 512 032d E8000000 		call	__cxa_end_catch
 512      00
 513 0332 4889D8   		movq	%rbx, %rax
 514 0335 4889C7   		movq	%rax, %rdi
 515              	.LEHB24:
 516 0338 E8000000 		call	_Unwind_Resume
 516      00
 517              	.LEHE24:
 518              	.L42:
 519 033d EB00     		jmp	.L25
 520              	.L41:
 521              	.L25:
  42:testI2C.cpp   **** 	CHECK_ARRAY_EQUAL(expected, i2cBuffer.data, 8+5);
 522              		.loc 3 42 0 is_stmt 1
 523 033f 4889C7   		movq	%rax, %rdi
 524 0342 E8000000 		call	__cxa_begin_catch
 524      00
 525              	.LEHB25:
 526 0347 E8000000 		call	_ZN8UnitTest11CurrentTest7DetailsEv
 526      00
 527 034c 488B08   		movq	(%rax), %rcx
 528 034f 488D45B0 		leaq	-80(%rbp), %rax
 529 0353 BA2A0000 		movl	$42, %edx
 529      00
 530 0358 4889CE   		movq	%rcx, %rsi
 531 035b 4889C7   		movq	%rax, %rdi
 532 035e E8000000 		call	_ZN8UnitTest11TestDetailsC1ERKS0_i
 532      00
  42:testI2C.cpp   **** 	CHECK_ARRAY_EQUAL(expected, i2cBuffer.data, 8+5);
 533              		.loc 3 42 0 is_stmt 0 discriminator 10
 534 0363 E8000000 		call	_ZN8UnitTest11CurrentTest7ResultsEv
 534      00
 535 0368 488B00   		movq	(%rax), %rax
 536 036b 488D4DB0 		leaq	-80(%rbp), %rcx
 537 036f BA000000 		movl	$.LC6, %edx
 537      00
 538 0374 4889CE   		movq	%rcx, %rsi
 539 0377 4889C7   		movq	%rax, %rdi
 540 037a E8000000 		call	_ZN8UnitTest11TestResults13OnTestFailureERKNS_11TestDetailsEPKc
 540      00
 541              	.LEHE25:
 542              	.LEHB26:
  42:testI2C.cpp   **** 	CHECK_ARRAY_EQUAL(expected, i2cBuffer.data, 8+5);
 543              		.loc 3 42 0 discriminator 14
 544 037f E8000000 		call	__cxa_end_catch
 544      00
 545              	.LEHE26:
 546 0384 E932FEFF 		jmp	.L26
 546      FF
 547              	.L43:
 548 0389 4889C3   		movq	%rax, %rbx
  42:testI2C.cpp   **** 	CHECK_ARRAY_EQUAL(expected, i2cBuffer.data, 8+5);
 549              		.loc 3 42 0
 550 038c E8000000 		call	__cxa_end_catch
 550      00
 551 0391 4889D8   		movq	%rbx, %rax
 552 0394 4889C7   		movq	%rax, %rdi
 553              	.LEHB27:
 554 0397 E8000000 		call	_Unwind_Resume
 554      00
 555              	.LEHE27:
 556              	.L44:
  43:testI2C.cpp   **** 	bufDestroy(&i2cBuffer);
 557              		.loc 3 43 0 is_stmt 1
 558 039c 4889C7   		movq	%rax, %rdi
 559 039f E8000000 		call	__cxa_begin_catch
 559      00
 560              	.LEHB28:
 561 03a4 E8000000 		call	_ZN8UnitTest11CurrentTest7DetailsEv
 561      00
 562 03a9 488B08   		movq	(%rax), %rcx
 563 03ac 488D45B0 		leaq	-80(%rbp), %rax
 564 03b0 BA2B0000 		movl	$43, %edx
 564      00
 565 03b5 4889CE   		movq	%rcx, %rsi
 566 03b8 4889C7   		movq	%rax, %rdi
 567 03bb E8000000 		call	_ZN8UnitTest11TestDetailsC1ERKS0_i
 567      00
  43:testI2C.cpp   **** 	bufDestroy(&i2cBuffer);
 568              		.loc 3 43 0 is_stmt 0 discriminator 10
 569 03c0 E8000000 		call	_ZN8UnitTest11CurrentTest7ResultsEv
 569      00
 570 03c5 488B00   		movq	(%rax), %rax
 571 03c8 488D4DB0 		leaq	-80(%rbp), %rcx
 572 03cc BA000000 		movl	$.LC7, %edx
 572      00
 573 03d1 4889CE   		movq	%rcx, %rsi
 574 03d4 4889C7   		movq	%rax, %rdi
 575 03d7 E8000000 		call	_ZN8UnitTest11TestResults13OnTestFailureERKNS_11TestDetailsEPKc
 575      00
 576              	.LEHE28:
 577              	.LEHB29:
  43:testI2C.cpp   **** 	bufDestroy(&i2cBuffer);
 578              		.loc 3 43 0 discriminator 14
 579 03dc E8000000 		call	__cxa_end_catch
 579      00
 580              	.LEHE29:
 581 03e1 E915FEFF 		jmp	.L29
 581      FF
 582              	.L45:
 583 03e6 4889C3   		movq	%rax, %rbx
  43:testI2C.cpp   **** 	bufDestroy(&i2cBuffer);
 584              		.loc 3 43 0
 585 03e9 E8000000 		call	__cxa_end_catch
 585      00
 586 03ee 4889D8   		movq	%rbx, %rax
 587 03f1 4889C7   		movq	%rax, %rdi
 588              	.LEHB30:
 589 03f4 E8000000 		call	_Unwind_Resume
 589      00
 590              	.LEHE30:
 591              	.L46:
 592              		.loc 3 45 0 is_stmt 1
 593 03f9 E8000000 		call	__stack_chk_fail
 593      00
 594              	.L31:
 595 03fe 4881C488 		addq	$136, %rsp
 595      000000
 596 0405 5B       		popq	%rbx
 597 0406 5D       		popq	%rbp
 598              		.cfi_def_cfa 7, 8
 599 0407 C3       		ret
 600              		.cfi_endproc
 601              	.LFE1076:
 602              		.section	.gcc_except_table,"a",@progbits
 603              		.align 4
 604              	.LLSDA1076:
 605 0000 FF       		.byte	0xff
 606 0001 03       		.byte	0x3
 607 0002 A001     		.uleb128 .LLSDATT1076-.LLSDATTD1076
 608              	.LLSDATTD1076:
 609 0004 01       		.byte	0x1
 610 0005 9301     		.uleb128 .LLSDACSE1076-.LLSDACSB1076
 611              	.LLSDACSB1076:
 612 0007 6C       		.uleb128 .LEHB4-.LFB1076
 613 0008 05       		.uleb128 .LEHE4-.LEHB4
 614 0009 00       		.uleb128 0
 615 000a 00       		.uleb128 0
 616 000b 74       		.uleb128 .LEHB5-.LFB1076
 617 000c 1C       		.uleb128 .LEHE5-.LEHB5
 618 000d A204     		.uleb128 .L32-.LFB1076
 619 000f 01       		.uleb128 0x1
 620 0010 9701     		.uleb128 .LEHB6-.LFB1076
 621 0012 1C       		.uleb128 .LEHE6-.LEHB6
 622 0013 A004     		.uleb128 .L33-.LFB1076
 623 0015 03       		.uleb128 0x3
 624 0016 CF01     		.uleb128 .LEHB7-.LFB1076
 625 0018 16       		.uleb128 .LEHE7-.LEHB7
 626 0019 00       		.uleb128 0
 627 001a 00       		.uleb128 0
 628 001b E801     		.uleb128 .LEHB8-.LFB1076
 629 001d 1C       		.uleb128 .LEHE8-.LEHB8
 630 001e 8105     		.uleb128 .L35-.LFB1076
 631 0020 01       		.uleb128 0x1
 632 0021 8B02     		.uleb128 .LEHB9-.LFB1076
 633 0023 1C       		.uleb128 .LEHE9-.LEHB9
 634 0024 FF04     		.uleb128 .L36-.LFB1076
 635 0026 03       		.uleb128 0x3
 636 0027 A702     		.uleb128 .LEHB10-.LFB1076
 637 0029 1C       		.uleb128 .LEHE10-.LEHB10
 638 002a E005     		.uleb128 .L38-.LFB1076
 639 002c 01       		.uleb128 0x1
 640 002d CB02     		.uleb128 .LEHB11-.LFB1076
 641 002f 26       		.uleb128 .LEHE11-.LEHB11
 642 0030 DE05     		.uleb128 .L39-.LFB1076
 643 0032 03       		.uleb128 0x3
 644 0033 F102     		.uleb128 .LEHB12-.LFB1076
 645 0035 1C       		.uleb128 .LEHE12-.LEHB12
 646 0036 BF06     		.uleb128 .L41-.LFB1076
 647 0038 01       		.uleb128 0x1
 648 0039 9503     		.uleb128 .LEHB13-.LFB1076
 649 003b 26       		.uleb128 .LEHE13-.LEHB13
 650 003c BD06     		.uleb128 .L42-.LFB1076
 651 003e 03       		.uleb128 0x3
 652 003f BB03     		.uleb128 .LEHB14-.LFB1076
 653 0041 40       		.uleb128 .LEHE14-.LEHB14
 654 0042 9C07     		.uleb128 .L44-.LFB1076
 655 0044 01       		.uleb128 0x1
 656 0045 8204     		.uleb128 .LEHB15-.LFB1076
 657 0047 05       		.uleb128 .LEHE15-.LEHB15
 658 0048 00       		.uleb128 0
 659 0049 00       		.uleb128 0
 660 004a AA04     		.uleb128 .LEHB16-.LFB1076
 661 004c 38       		.uleb128 .LEHE16-.LEHB16
 662 004d EC04     		.uleb128 .L34-.LFB1076
 663 004f 00       		.uleb128 0
 664 0050 E204     		.uleb128 .LEHB17-.LFB1076
 665 0052 05       		.uleb128 .LEHE17-.LEHB17
 666 0053 00       		.uleb128 0
 667 0054 00       		.uleb128 0
 668 0055 FA04     		.uleb128 .LEHB18-.LFB1076
 669 0057 05       		.uleb128 .LEHE18-.LEHB18
 670 0058 00       		.uleb128 0
 671 0059 00       		.uleb128 0
 672 005a 8905     		.uleb128 .LEHB19-.LFB1076
 673 005c 38       		.uleb128 .LEHE19-.LEHB19
 674 005d CB05     		.uleb128 .L37-.LFB1076
 675 005f 00       		.uleb128 0
 676 0060 C105     		.uleb128 .LEHB20-.LFB1076
 677 0062 05       		.uleb128 .LEHE20-.LEHB20
 678 0063 00       		.uleb128 0
 679 0064 00       		.uleb128 0
 680 0065 D905     		.uleb128 .LEHB21-.LFB1076
 681 0067 05       		.uleb128 .LEHE21-.LEHB21
 682 0068 00       		.uleb128 0
 683 0069 00       		.uleb128 0
 684 006a E805     		.uleb128 .LEHB22-.LFB1076
 685 006c 38       		.uleb128 .LEHE22-.LEHB22
 686 006d AA06     		.uleb128 .L40-.LFB1076
 687 006f 00       		.uleb128 0
 688 0070 A006     		.uleb128 .LEHB23-.LFB1076
 689 0072 05       		.uleb128 .LEHE23-.LEHB23
 690 0073 00       		.uleb128 0
 691 0074 00       		.uleb128 0
 692 0075 B806     		.uleb128 .LEHB24-.LFB1076
 693 0077 05       		.uleb128 .LEHE24-.LEHB24
 694 0078 00       		.uleb128 0
 695 0079 00       		.uleb128 0
 696 007a C706     		.uleb128 .LEHB25-.LFB1076
 697 007c 38       		.uleb128 .LEHE25-.LEHB25
 698 007d 8907     		.uleb128 .L43-.LFB1076
 699 007f 00       		.uleb128 0
 700 0080 FF06     		.uleb128 .LEHB26-.LFB1076
 701 0082 05       		.uleb128 .LEHE26-.LEHB26
 702 0083 00       		.uleb128 0
 703 0084 00       		.uleb128 0
 704 0085 9707     		.uleb128 .LEHB27-.LFB1076
 705 0087 05       		.uleb128 .LEHE27-.LEHB27
 706 0088 00       		.uleb128 0
 707 0089 00       		.uleb128 0
 708 008a A407     		.uleb128 .LEHB28-.LFB1076
 709 008c 38       		.uleb128 .LEHE28-.LEHB28
 710 008d E607     		.uleb128 .L45-.LFB1076
 711 008f 00       		.uleb128 0
 712 0090 DC07     		.uleb128 .LEHB29-.LFB1076
 713 0092 05       		.uleb128 .LEHE29-.LEHB29
 714 0093 00       		.uleb128 0
 715 0094 00       		.uleb128 0
 716 0095 F407     		.uleb128 .LEHB30-.LFB1076
 717 0097 05       		.uleb128 .LEHE30-.LEHB30
 718 0098 00       		.uleb128 0
 719 0099 00       		.uleb128 0
 720              	.LLSDACSE1076:
 721 009a 01       		.byte	0x1
 722 009b 00       		.byte	0
 723 009c 00       		.byte	0
 724 009d 7D       		.byte	0x7d
 725 009e 0000     		.align 4
 726 00a0 00000000 		.long	0
 727              	
 728              	.LLSDATT1076:
 729              		.text
 731              		.section	.rodata
 732              	.LC8:
 733 0173 4932435F 		.string	"I2C_testRoundTrip"
 733      74657374 
 733      526F756E 
 733      64547269 
 733      7000
 734              		.section	.text._ZN21TestI2C_testRoundTripC2Ev,"axG",@progbits,_ZN21TestI2C_testRoundTripC5Ev,comda
 735              		.align 2
 736              		.weak	_ZN21TestI2C_testRoundTripC2Ev
 738              	_ZN21TestI2C_testRoundTripC2Ev:
 739              	.LFB1078:
  46:testI2C.cpp   **** 
  47:testI2C.cpp   **** TEST(I2C_testRoundTrip) {
 740              		.loc 3 47 0
 741              		.cfi_startproc
 742 0000 55       		pushq	%rbp
 743              		.cfi_def_cfa_offset 16
 744              		.cfi_offset 6, -16
 745 0001 4889E5   		movq	%rsp, %rbp
 746              		.cfi_def_cfa_register 6
 747 0004 4883EC10 		subq	$16, %rsp
 748 0008 48897DF8 		movq	%rdi, -8(%rbp)
 749              	.LBB5:
 750              		.loc 3 47 0
 751 000c E8000000 		call	_ZN13UnitTestSuite12GetSuiteNameEv
 751      00
 752 0011 4889C2   		movq	%rax, %rdx
 753 0014 488B45F8 		movq	-8(%rbp), %rax
 754 0018 41B82F00 		movl	$47, %r8d
 754      0000
 755 001e B9000000 		movl	$.LC1, %ecx
 755      00
 756 0023 BE000000 		movl	$.LC8, %esi
 756      00
 757 0028 4889C7   		movq	%rax, %rdi
 758 002b E8000000 		call	_ZN8UnitTest4TestC2EPKcS2_S2_i
 758      00
 759 0030 BA000000 		movl	$_ZTV21TestI2C_testRoundTrip+16, %edx
 759      00
 760 0035 488B45F8 		movq	-8(%rbp), %rax
 761 0039 488910   		movq	%rdx, (%rax)
 762              	.LBE5:
 763 003c 90       		nop
 764 003d C9       		leave
 765              		.cfi_def_cfa 7, 8
 766 003e C3       		ret
 767              		.cfi_endproc
 768              	.LFE1078:
 770              		.weak	_ZN21TestI2C_testRoundTripC1Ev
 771              		.set	_ZN21TestI2C_testRoundTripC1Ev,_ZN21TestI2C_testRoundTripC2Ev
 772              		.globl	testI2C_testRoundTripInstance
 773              		.bss
 774 0039 00000000 		.align 32
 774      000000
 777              	testI2C_testRoundTripInstance:
 778 0040 00000000 		.zero	56
 778      00000000 
 778      00000000 
 778      00000000 
 778      00000000 
 779              		.globl	adderI2C_testRoundTrip
 782              	adderI2C_testRoundTrip:
 783 0078 00       		.zero	1
 784              		.section	.rodata
 785 0185 000000   		.align 8
 786              	.LC9:
 787 0188 556E6861 		.string	"Unhandled exception in CHECK_ARRAY_EQUAL(expected, dstData.data)"
 787      6E646C65 
 787      64206578 
 787      63657074 
 787      696F6E20 
 788              		.text
 789              		.align 2
 790              		.globl	_ZNK21TestI2C_testRoundTrip7RunImplEv
 792              	_ZNK21TestI2C_testRoundTrip7RunImplEv:
 793              	.LFB1080:
 794              		.loc 3 47 0
 795              		.cfi_startproc
 796              		.cfi_personality 0x3,__gxx_personality_v0
 797              		.cfi_lsda 0x3,.LLSDA1080
 798 0408 55       		pushq	%rbp
 799              		.cfi_def_cfa_offset 16
 800              		.cfi_offset 6, -16
 801 0409 4889E5   		movq	%rsp, %rbp
 802              		.cfi_def_cfa_register 6
 803 040c 53       		pushq	%rbx
 804 040d 4881EC38 		subq	$312, %rsp
 804      010000
 805              		.cfi_offset 3, -24
 806 0414 4889BDC8 		movq	%rdi, -312(%rbp)
 806      FEFFFF
 807              		.loc 3 47 0
 808 041b 64488B04 		movq	%fs:40, %rax
 808      25280000 
 808      00
 809 0424 488945E8 		movq	%rax, -24(%rbp)
 810 0428 31C0     		xorl	%eax, %eax
  48:testI2C.cpp   **** 	uint32 i, j;
  49:testI2C.cpp   **** 	Buffer i2cBuffer, srcData, srcMask, dstData, dstMask;
  50:testI2C.cpp   **** 	BufferStatus bStatus;
  51:testI2C.cpp   **** 	I2CStatus iStatus;
  52:testI2C.cpp   **** 	const uint8 data[] = {0xE1, 0xE2, 0xE3, 0xE4, 0xE5, 0xE6, 0xE7, 0xE8, 0xE9, 0xEA, 0xEB, 0xEC, 0xED
 811              		.loc 3 52 0
 812 042a C645B0E1 		movb	$-31, -80(%rbp)
 813 042e C645B1E2 		movb	$-30, -79(%rbp)
 814 0432 C645B2E3 		movb	$-29, -78(%rbp)
 815 0436 C645B3E4 		movb	$-28, -77(%rbp)
 816 043a C645B4E5 		movb	$-27, -76(%rbp)
 817 043e C645B5E6 		movb	$-26, -75(%rbp)
 818 0442 C645B6E7 		movb	$-25, -74(%rbp)
 819 0446 C645B7E8 		movb	$-24, -73(%rbp)
 820 044a C645B8E9 		movb	$-23, -72(%rbp)
 821 044e C645B9EA 		movb	$-22, -71(%rbp)
 822 0452 C645BAEB 		movb	$-21, -70(%rbp)
 823 0456 C645BBEC 		movb	$-20, -69(%rbp)
 824 045a C645BCED 		movb	$-19, -68(%rbp)
 825 045e C645BDEE 		movb	$-18, -67(%rbp)
 826 0462 C645BEEF 		movb	$-17, -66(%rbp)
 827 0466 C645BFF0 		movb	$-16, -65(%rbp)
  53:testI2C.cpp   **** 	uint8 mask[16];
  54:testI2C.cpp   **** 	uint8 expected[16];
  55:testI2C.cpp   **** 	for ( i = 0; i < 65536; i++ ) {   // all possible 16-bit mask patterns
 828              		.loc 3 55 0
 829 046a C785E8FE 		movl	$0, -280(%rbp)
 829      FFFF0000 
 829      0000
 830              	.L54:
 831              		.loc 3 55 0 is_stmt 0 discriminator 1
 832 0474 81BDE8FE 		cmpl	$65535, -280(%rbp)
 832      FFFFFFFF 
 832      0000
 833 047e 0F878009 		ja	.L131
 833      0000
  56:testI2C.cpp   **** 		for ( j = 0; j < 16; j++ ) {
 834              		.loc 3 56 0 is_stmt 1
 835 0484 C785ECFE 		movl	$0, -276(%rbp)
 835      FFFF0000 
 835      0000
 836              	.L53:
 837              		.loc 3 56 0 is_stmt 0 discriminator 1
 838 048e 83BDECFE 		cmpl	$15, -276(%rbp)
 838      FFFF0F
 839 0495 775C     		ja	.L50
  57:testI2C.cpp   **** 			if ( i & (1<<j) ) {
 840              		.loc 3 57 0 is_stmt 1
 841 0497 8B85ECFE 		movl	-276(%rbp), %eax
 841      FFFF
 842 049d BA010000 		movl	$1, %edx
 842      00
 843 04a2 89C1     		movl	%eax, %ecx
 844 04a4 D3E2     		sall	%cl, %edx
 845 04a6 89D0     		movl	%edx, %eax
 846 04a8 2385E8FE 		andl	-280(%rbp), %eax
 846      FFFF
 847 04ae 85C0     		testl	%eax, %eax
 848 04b0 7422     		je	.L51
  58:testI2C.cpp   **** 				mask[j] = 0x01;
 849              		.loc 3 58 0
 850 04b2 8B85ECFE 		movl	-276(%rbp), %eax
 850      FFFF
 851 04b8 C64405C0 		movb	$1, -64(%rbp,%rax)
 851      01
  59:testI2C.cpp   **** 				expected[j] = data[j];
 852              		.loc 3 59 0
 853 04bd 8B85ECFE 		movl	-276(%rbp), %eax
 853      FFFF
 854 04c3 0FB65405 		movzbl	-80(%rbp,%rax), %edx
 854      B0
 855 04c8 8B85ECFE 		movl	-276(%rbp), %eax
 855      FFFF
 856 04ce 885405D0 		movb	%dl, -48(%rbp,%rax)
 857 04d2 EB16     		jmp	.L52
 858              	.L51:
  60:testI2C.cpp   **** 			} else {
  61:testI2C.cpp   **** 				mask[j] = 0x00;
 859              		.loc 3 61 0
 860 04d4 8B85ECFE 		movl	-276(%rbp), %eax
 860      FFFF
 861 04da C64405C0 		movb	$0, -64(%rbp,%rax)
 861      00
  62:testI2C.cpp   **** 				expected[j] = 0x00;
 862              		.loc 3 62 0
 863 04df 8B85ECFE 		movl	-276(%rbp), %eax
 863      FFFF
 864 04e5 C64405D0 		movb	$0, -48(%rbp,%rax)
 864      00
 865              	.L52:
  56:testI2C.cpp   **** 			if ( i & (1<<j) ) {
 866              		.loc 3 56 0 discriminator 2
 867 04ea 8385ECFE 		addl	$1, -276(%rbp)
 867      FFFF01
 868 04f1 EB9B     		jmp	.L53
 869              	.L50:
  63:testI2C.cpp   **** 			}
  64:testI2C.cpp   **** 		}
  65:testI2C.cpp   **** 		bStatus = bufInitialise(&i2cBuffer, 1024, 0x00, NULL);
 870              		.loc 3 65 0
 871 04f3 488D85F0 		leaq	-272(%rbp), %rax
 871      FEFFFF
 872 04fa B9000000 		movl	$0, %ecx
 872      00
 873 04ff BA000000 		movl	$0, %edx
 873      00
 874 0504 BE000400 		movl	$1024, %esi
 874      00
 875 0509 4889C7   		movq	%rax, %rdi
 876              	.LEHB31:
 877 050c E8000000 		call	bufInitialise
 877      00
 878              	.LEHE31:
 879 0511 8985DCFE 		movl	%eax, -292(%rbp)
 879      FFFF
 880              	.LEHB32:
  66:testI2C.cpp   **** 		CHECK_EQUAL(BUF_SUCCESS, bStatus);
 881              		.loc 3 66 0
 882 0517 E8000000 		call	_ZN8UnitTest11CurrentTest7DetailsEv
 882      00
 883 051c 488B08   		movq	(%rax), %rcx
 884 051f 488D4590 		leaq	-112(%rbp), %rax
 885 0523 BA420000 		movl	$66, %edx
 885      00
 886 0528 4889CE   		movq	%rcx, %rsi
 887 052b 4889C7   		movq	%rax, %rdi
 888 052e E8000000 		call	_ZN8UnitTest11TestDetailsC1ERKS0_i
 888      00
 889              	.LEHE32:
 890              		.loc 3 66 0 is_stmt 0 discriminator 2
 891 0533 C785E4FE 		movl	$0, -284(%rbp)
 891      FFFF0000 
 891      0000
 892              	.LEHB33:
 893 053d E8000000 		call	_ZN8UnitTest11CurrentTest7ResultsEv
 893      00
 894 0542 488B00   		movq	(%rax), %rax
 895 0545 488D4D90 		leaq	-112(%rbp), %rcx
 896 0549 488D95DC 		leaq	-292(%rbp), %rdx
 896      FEFFFF
 897 0550 488DB5E4 		leaq	-284(%rbp), %rsi
 897      FEFFFF
 898 0557 4889C7   		movq	%rax, %rdi
 899 055a E8000000 		call	_ZN8UnitTest10CheckEqualI12BufferStatusS1_EEvRNS_11TestResultsERKT_RKT0_RKNS_11TestDetailsE
 899      00
 900              	.LEHE33:
 901              	.L57:
  67:testI2C.cpp   **** 		i2cInitialise(&i2cBuffer, VID, PID, DID, CONFIG_BYTE_400KHZ);
 902              		.loc 3 67 0 is_stmt 1
 903 055f 488D85F0 		leaq	-272(%rbp), %rax
 903      FEFFFF
 904 0566 41B80100 		movl	$1, %r8d
 904      0000
 905 056c B9000000 		movl	$0, %ecx
 905      00
 906 0571 BA138600 		movl	$34323, %edx
 906      00
 907 0576 BEB40400 		movl	$1204, %esi
 907      00
 908 057b 4889C7   		movq	%rax, %rdi
 909              	.LEHB34:
 910 057e E8000000 		call	i2cInitialise
 910      00
  68:testI2C.cpp   **** 		bStatus = bufInitialise(&srcData, 16, 0x00, NULL);
 911              		.loc 3 68 0
 912 0583 488D8510 		leaq	-240(%rbp), %rax
 912      FFFFFF
 913 058a B9000000 		movl	$0, %ecx
 913      00
 914 058f BA000000 		movl	$0, %edx
 914      00
 915 0594 BE100000 		movl	$16, %esi
 915      00
 916 0599 4889C7   		movq	%rax, %rdi
 917 059c E8000000 		call	bufInitialise
 917      00
 918              	.LEHE34:
 919 05a1 8985DCFE 		movl	%eax, -292(%rbp)
 919      FFFF
 920              	.LEHB35:
  69:testI2C.cpp   **** 		CHECK_EQUAL(BUF_SUCCESS, bStatus);
 921              		.loc 3 69 0
 922 05a7 E8000000 		call	_ZN8UnitTest11CurrentTest7DetailsEv
 922      00
 923 05ac 488B08   		movq	(%rax), %rcx
 924 05af 488D4590 		leaq	-112(%rbp), %rax
 925 05b3 BA450000 		movl	$69, %edx
 925      00
 926 05b8 4889CE   		movq	%rcx, %rsi
 927 05bb 4889C7   		movq	%rax, %rdi
 928 05be E8000000 		call	_ZN8UnitTest11TestDetailsC1ERKS0_i
 928      00
 929              	.LEHE35:
 930              		.loc 3 69 0 is_stmt 0 discriminator 2
 931 05c3 C785E4FE 		movl	$0, -284(%rbp)
 931      FFFF0000 
 931      0000
 932              	.LEHB36:
 933 05cd E8000000 		call	_ZN8UnitTest11CurrentTest7ResultsEv
 933      00
 934 05d2 488B00   		movq	(%rax), %rax
 935 05d5 488D4D90 		leaq	-112(%rbp), %rcx
 936 05d9 488D95DC 		leaq	-292(%rbp), %rdx
 936      FEFFFF
 937 05e0 488DB5E4 		leaq	-284(%rbp), %rsi
 937      FEFFFF
 938 05e7 4889C7   		movq	%rax, %rdi
 939 05ea E8000000 		call	_ZN8UnitTest10CheckEqualI12BufferStatusS1_EEvRNS_11TestResultsERKT_RKT0_RKNS_11TestDetailsE
 939      00
 940              	.LEHE36:
 941              	.L61:
  70:testI2C.cpp   **** 		bStatus = bufInitialise(&dstData, 16, 0x00, NULL);
 942              		.loc 3 70 0 is_stmt 1
 943 05ef 488D8550 		leaq	-176(%rbp), %rax
 943      FFFFFF
 944 05f6 B9000000 		movl	$0, %ecx
 944      00
 945 05fb BA000000 		movl	$0, %edx
 945      00
 946 0600 BE100000 		movl	$16, %esi
 946      00
 947 0605 4889C7   		movq	%rax, %rdi
 948              	.LEHB37:
 949 0608 E8000000 		call	bufInitialise
 949      00
 950              	.LEHE37:
 951 060d 8985DCFE 		movl	%eax, -292(%rbp)
 951      FFFF
 952              	.LEHB38:
  71:testI2C.cpp   **** 		CHECK_EQUAL(BUF_SUCCESS, bStatus);
 953              		.loc 3 71 0
 954 0613 E8000000 		call	_ZN8UnitTest11CurrentTest7DetailsEv
 954      00
 955 0618 488B08   		movq	(%rax), %rcx
 956 061b 488D4590 		leaq	-112(%rbp), %rax
 957 061f BA470000 		movl	$71, %edx
 957      00
 958 0624 4889CE   		movq	%rcx, %rsi
 959 0627 4889C7   		movq	%rax, %rdi
 960 062a E8000000 		call	_ZN8UnitTest11TestDetailsC1ERKS0_i
 960      00
 961              	.LEHE38:
 962              		.loc 3 71 0 is_stmt 0 discriminator 2
 963 062f C785E4FE 		movl	$0, -284(%rbp)
 963      FFFF0000 
 963      0000
 964              	.LEHB39:
 965 0639 E8000000 		call	_ZN8UnitTest11CurrentTest7ResultsEv
 965      00
 966 063e 488B00   		movq	(%rax), %rax
 967 0641 488D4D90 		leaq	-112(%rbp), %rcx
 968 0645 488D95DC 		leaq	-292(%rbp), %rdx
 968      FEFFFF
 969 064c 488DB5E4 		leaq	-284(%rbp), %rsi
 969      FEFFFF
 970 0653 4889C7   		movq	%rax, %rdi
 971 0656 E8000000 		call	_ZN8UnitTest10CheckEqualI12BufferStatusS1_EEvRNS_11TestResultsERKT_RKT0_RKNS_11TestDetailsE
 971      00
 972              	.LEHE39:
 973              	.L65:
  72:testI2C.cpp   **** 		bStatus = bufInitialise(&srcMask, 16, 0x00, NULL);
 974              		.loc 3 72 0 is_stmt 1
 975 065b 488D8530 		leaq	-208(%rbp), %rax
 975      FFFFFF
 976 0662 B9000000 		movl	$0, %ecx
 976      00
 977 0667 BA000000 		movl	$0, %edx
 977      00
 978 066c BE100000 		movl	$16, %esi
 978      00
 979 0671 4889C7   		movq	%rax, %rdi
 980              	.LEHB40:
 981 0674 E8000000 		call	bufInitialise
 981      00
 982              	.LEHE40:
 983 0679 8985DCFE 		movl	%eax, -292(%rbp)
 983      FFFF
 984              	.LEHB41:
  73:testI2C.cpp   **** 		CHECK_EQUAL(BUF_SUCCESS, bStatus);
 985              		.loc 3 73 0
 986 067f E8000000 		call	_ZN8UnitTest11CurrentTest7DetailsEv
 986      00
 987 0684 488B08   		movq	(%rax), %rcx
 988 0687 488D4590 		leaq	-112(%rbp), %rax
 989 068b BA490000 		movl	$73, %edx
 989      00
 990 0690 4889CE   		movq	%rcx, %rsi
 991 0693 4889C7   		movq	%rax, %rdi
 992 0696 E8000000 		call	_ZN8UnitTest11TestDetailsC1ERKS0_i
 992      00
 993              	.LEHE41:
 994              		.loc 3 73 0 is_stmt 0 discriminator 2
 995 069b C785E4FE 		movl	$0, -284(%rbp)
 995      FFFF0000 
 995      0000
 996              	.LEHB42:
 997 06a5 E8000000 		call	_ZN8UnitTest11CurrentTest7ResultsEv
 997      00
 998 06aa 488B00   		movq	(%rax), %rax
 999 06ad 488D4D90 		leaq	-112(%rbp), %rcx
 1000 06b1 488D95DC 		leaq	-292(%rbp), %rdx
 1000      FEFFFF
 1001 06b8 488DB5E4 		leaq	-284(%rbp), %rsi
 1001      FEFFFF
 1002 06bf 4889C7   		movq	%rax, %rdi
 1003 06c2 E8000000 		call	_ZN8UnitTest10CheckEqualI12BufferStatusS1_EEvRNS_11TestResultsERKT_RKT0_RKNS_11TestDetailsE
 1003      00
 1004              	.LEHE42:
 1005              	.L69:
  74:testI2C.cpp   **** 		bStatus = bufInitialise(&dstMask, 16, 0x00, NULL);
 1006              		.loc 3 74 0 is_stmt 1
 1007 06c7 488D8570 		leaq	-144(%rbp), %rax
 1007      FFFFFF
 1008 06ce B9000000 		movl	$0, %ecx
 1008      00
 1009 06d3 BA000000 		movl	$0, %edx
 1009      00
 1010 06d8 BE100000 		movl	$16, %esi
 1010      00
 1011 06dd 4889C7   		movq	%rax, %rdi
 1012              	.LEHB43:
 1013 06e0 E8000000 		call	bufInitialise
 1013      00
 1014              	.LEHE43:
 1015 06e5 8985DCFE 		movl	%eax, -292(%rbp)
 1015      FFFF
 1016              	.LEHB44:
  75:testI2C.cpp   **** 		CHECK_EQUAL(BUF_SUCCESS, bStatus);
 1017              		.loc 3 75 0
 1018 06eb E8000000 		call	_ZN8UnitTest11CurrentTest7DetailsEv
 1018      00
 1019 06f0 488B08   		movq	(%rax), %rcx
 1020 06f3 488D4590 		leaq	-112(%rbp), %rax
 1021 06f7 BA4B0000 		movl	$75, %edx
 1021      00
 1022 06fc 4889CE   		movq	%rcx, %rsi
 1023 06ff 4889C7   		movq	%rax, %rdi
 1024 0702 E8000000 		call	_ZN8UnitTest11TestDetailsC1ERKS0_i
 1024      00
 1025              	.LEHE44:
 1026              		.loc 3 75 0 is_stmt 0 discriminator 2
 1027 0707 C785E4FE 		movl	$0, -284(%rbp)
 1027      FFFF0000 
 1027      0000
 1028              	.LEHB45:
 1029 0711 E8000000 		call	_ZN8UnitTest11CurrentTest7ResultsEv
 1029      00
 1030 0716 488B00   		movq	(%rax), %rax
 1031 0719 488D4D90 		leaq	-112(%rbp), %rcx
 1032 071d 488D95DC 		leaq	-292(%rbp), %rdx
 1032      FEFFFF
 1033 0724 488DB5E4 		leaq	-284(%rbp), %rsi
 1033      FEFFFF
 1034 072b 4889C7   		movq	%rax, %rdi
 1035 072e E8000000 		call	_ZN8UnitTest10CheckEqualI12BufferStatusS1_EEvRNS_11TestResultsERKT_RKT0_RKNS_11TestDetailsE
 1035      00
 1036              	.LEHE45:
 1037              	.L73:
  76:testI2C.cpp   **** 		bStatus = bufWriteBlock(&srcData, 0x00000000, expected, 16, NULL);
 1038              		.loc 3 76 0 is_stmt 1
 1039 0733 488D55D0 		leaq	-48(%rbp), %rdx
 1040 0737 488D8510 		leaq	-240(%rbp), %rax
 1040      FFFFFF
 1041 073e 41B80000 		movl	$0, %r8d
 1041      0000
 1042 0744 B9100000 		movl	$16, %ecx
 1042      00
 1043 0749 BE000000 		movl	$0, %esi
 1043      00
 1044 074e 4889C7   		movq	%rax, %rdi
 1045              	.LEHB46:
 1046 0751 E8000000 		call	bufWriteBlock
 1046      00
 1047              	.LEHE46:
 1048 0756 8985DCFE 		movl	%eax, -292(%rbp)
 1048      FFFF
 1049              	.LEHB47:
  77:testI2C.cpp   **** 		CHECK_EQUAL(BUF_SUCCESS, bStatus);
 1050              		.loc 3 77 0
 1051 075c E8000000 		call	_ZN8UnitTest11CurrentTest7DetailsEv
 1051      00
 1052 0761 488B08   		movq	(%rax), %rcx
 1053 0764 488D4590 		leaq	-112(%rbp), %rax
 1054 0768 BA4D0000 		movl	$77, %edx
 1054      00
 1055 076d 4889CE   		movq	%rcx, %rsi
 1056 0770 4889C7   		movq	%rax, %rdi
 1057 0773 E8000000 		call	_ZN8UnitTest11TestDetailsC1ERKS0_i
 1057      00
 1058              	.LEHE47:
 1059              		.loc 3 77 0 is_stmt 0 discriminator 2
 1060 0778 C785E4FE 		movl	$0, -284(%rbp)
 1060      FFFF0000 
 1060      0000
 1061              	.LEHB48:
 1062 0782 E8000000 		call	_ZN8UnitTest11CurrentTest7ResultsEv
 1062      00
 1063 0787 488B00   		movq	(%rax), %rax
 1064 078a 488D4D90 		leaq	-112(%rbp), %rcx
 1065 078e 488D95DC 		leaq	-292(%rbp), %rdx
 1065      FEFFFF
 1066 0795 488DB5E4 		leaq	-284(%rbp), %rsi
 1066      FEFFFF
 1067 079c 4889C7   		movq	%rax, %rdi
 1068 079f E8000000 		call	_ZN8UnitTest10CheckEqualI12BufferStatusS1_EEvRNS_11TestResultsERKT_RKT0_RKNS_11TestDetailsE
 1068      00
 1069              	.LEHE48:
 1070              	.L77:
  78:testI2C.cpp   **** 		bStatus = bufWriteBlock(&srcMask, 0x00000000, mask, 16, NULL);
 1071              		.loc 3 78 0 is_stmt 1
 1072 07a4 488D55C0 		leaq	-64(%rbp), %rdx
 1073 07a8 488D8530 		leaq	-208(%rbp), %rax
 1073      FFFFFF
 1074 07af 41B80000 		movl	$0, %r8d
 1074      0000
 1075 07b5 B9100000 		movl	$16, %ecx
 1075      00
 1076 07ba BE000000 		movl	$0, %esi
 1076      00
 1077 07bf 4889C7   		movq	%rax, %rdi
 1078              	.LEHB49:
 1079 07c2 E8000000 		call	bufWriteBlock
 1079      00
 1080              	.LEHE49:
 1081 07c7 8985DCFE 		movl	%eax, -292(%rbp)
 1081      FFFF
 1082              	.LEHB50:
  79:testI2C.cpp   **** 		CHECK_EQUAL(BUF_SUCCESS, bStatus);
 1083              		.loc 3 79 0
 1084 07cd E8000000 		call	_ZN8UnitTest11CurrentTest7DetailsEv
 1084      00
 1085 07d2 488B08   		movq	(%rax), %rcx
 1086 07d5 488D4590 		leaq	-112(%rbp), %rax
 1087 07d9 BA4F0000 		movl	$79, %edx
 1087      00
 1088 07de 4889CE   		movq	%rcx, %rsi
 1089 07e1 4889C7   		movq	%rax, %rdi
 1090 07e4 E8000000 		call	_ZN8UnitTest11TestDetailsC1ERKS0_i
 1090      00
 1091              	.LEHE50:
 1092              		.loc 3 79 0 is_stmt 0 discriminator 2
 1093 07e9 C785E4FE 		movl	$0, -284(%rbp)
 1093      FFFF0000 
 1093      0000
 1094              	.LEHB51:
 1095 07f3 E8000000 		call	_ZN8UnitTest11CurrentTest7ResultsEv
 1095      00
 1096 07f8 488B00   		movq	(%rax), %rax
 1097 07fb 488D4D90 		leaq	-112(%rbp), %rcx
 1098 07ff 488D95DC 		leaq	-292(%rbp), %rdx
 1098      FEFFFF
 1099 0806 488DB5E4 		leaq	-284(%rbp), %rsi
 1099      FEFFFF
 1100 080d 4889C7   		movq	%rax, %rdi
 1101 0810 E8000000 		call	_ZN8UnitTest10CheckEqualI12BufferStatusS1_EEvRNS_11TestResultsERKT_RKT0_RKNS_11TestDetailsE
 1101      00
 1102              	.LEHE51:
 1103              	.L81:
  80:testI2C.cpp   **** 		iStatus = i2cWritePromRecords(&i2cBuffer, &srcData, &srcMask, NULL);
 1104              		.loc 3 80 0 is_stmt 1
 1105 0815 488D9530 		leaq	-208(%rbp), %rdx
 1105      FFFFFF
 1106 081c 488DB510 		leaq	-240(%rbp), %rsi
 1106      FFFFFF
 1107 0823 488D85F0 		leaq	-272(%rbp), %rax
 1107      FEFFFF
 1108 082a B9000000 		movl	$0, %ecx
 1108      00
 1109 082f 4889C7   		movq	%rax, %rdi
 1110              	.LEHB52:
 1111 0832 E8000000 		call	i2cWritePromRecords
 1111      00
 1112              	.LEHE52:
 1113 0837 8985E0FE 		movl	%eax, -288(%rbp)
 1113      FFFF
 1114              	.LEHB53:
  81:testI2C.cpp   **** 		CHECK_EQUAL(I2C_SUCCESS, iStatus);
 1115              		.loc 3 81 0
 1116 083d E8000000 		call	_ZN8UnitTest11CurrentTest7DetailsEv
 1116      00
 1117 0842 488B08   		movq	(%rax), %rcx
 1118 0845 488D4590 		leaq	-112(%rbp), %rax
 1119 0849 BA510000 		movl	$81, %edx
 1119      00
 1120 084e 4889CE   		movq	%rcx, %rsi
 1121 0851 4889C7   		movq	%rax, %rdi
 1122 0854 E8000000 		call	_ZN8UnitTest11TestDetailsC1ERKS0_i
 1122      00
 1123              	.LEHE53:
 1124              		.loc 3 81 0 is_stmt 0 discriminator 2
 1125 0859 C785E4FE 		movl	$0, -284(%rbp)
 1125      FFFF0000 
 1125      0000
 1126              	.LEHB54:
 1127 0863 E8000000 		call	_ZN8UnitTest11CurrentTest7ResultsEv
 1127      00
 1128 0868 488B00   		movq	(%rax), %rax
 1129 086b 488D4D90 		leaq	-112(%rbp), %rcx
 1130 086f 488D95E0 		leaq	-288(%rbp), %rdx
 1130      FEFFFF
 1131 0876 488DB5E4 		leaq	-284(%rbp), %rsi
 1131      FEFFFF
 1132 087d 4889C7   		movq	%rax, %rdi
 1133 0880 E8000000 		call	_ZN8UnitTest10CheckEqualI9I2CStatusS1_EEvRNS_11TestResultsERKT_RKT0_RKNS_11TestDetailsE
 1133      00
 1134              	.LEHE54:
 1135              	.L85:
  82:testI2C.cpp   **** 		iStatus = i2cFinalise(&i2cBuffer, NULL);
 1136              		.loc 3 82 0 is_stmt 1
 1137 0885 488D85F0 		leaq	-272(%rbp), %rax
 1137      FEFFFF
 1138 088c BE000000 		movl	$0, %esi
 1138      00
 1139 0891 4889C7   		movq	%rax, %rdi
 1140              	.LEHB55:
 1141 0894 E8000000 		call	i2cFinalise
 1141      00
 1142              	.LEHE55:
 1143 0899 8985E0FE 		movl	%eax, -288(%rbp)
 1143      FFFF
 1144              	.LEHB56:
  83:testI2C.cpp   **** 		CHECK_EQUAL(I2C_SUCCESS, iStatus);
 1145              		.loc 3 83 0
 1146 089f E8000000 		call	_ZN8UnitTest11CurrentTest7DetailsEv
 1146      00
 1147 08a4 488B08   		movq	(%rax), %rcx
 1148 08a7 488D4590 		leaq	-112(%rbp), %rax
 1149 08ab BA530000 		movl	$83, %edx
 1149      00
 1150 08b0 4889CE   		movq	%rcx, %rsi
 1151 08b3 4889C7   		movq	%rax, %rdi
 1152 08b6 E8000000 		call	_ZN8UnitTest11TestDetailsC1ERKS0_i
 1152      00
 1153              	.LEHE56:
 1154              		.loc 3 83 0 is_stmt 0 discriminator 2
 1155 08bb C785E4FE 		movl	$0, -284(%rbp)
 1155      FFFF0000 
 1155      0000
 1156              	.LEHB57:
 1157 08c5 E8000000 		call	_ZN8UnitTest11CurrentTest7ResultsEv
 1157      00
 1158 08ca 488B00   		movq	(%rax), %rax
 1159 08cd 488D4D90 		leaq	-112(%rbp), %rcx
 1160 08d1 488D95E0 		leaq	-288(%rbp), %rdx
 1160      FEFFFF
 1161 08d8 488DB5E4 		leaq	-284(%rbp), %rsi
 1161      FEFFFF
 1162 08df 4889C7   		movq	%rax, %rdi
 1163 08e2 E8000000 		call	_ZN8UnitTest10CheckEqualI9I2CStatusS1_EEvRNS_11TestResultsERKT_RKT0_RKNS_11TestDetailsE
 1163      00
 1164              	.LEHE57:
 1165              	.L89:
  84:testI2C.cpp   **** 		iStatus = i2cReadPromRecords(&dstData, &dstMask, &i2cBuffer, NULL);
 1166              		.loc 3 84 0 is_stmt 1
 1167 08e7 488D95F0 		leaq	-272(%rbp), %rdx
 1167      FEFFFF
 1168 08ee 488DB570 		leaq	-144(%rbp), %rsi
 1168      FFFFFF
 1169 08f5 488D8550 		leaq	-176(%rbp), %rax
 1169      FFFFFF
 1170 08fc B9000000 		movl	$0, %ecx
 1170      00
 1171 0901 4889C7   		movq	%rax, %rdi
 1172              	.LEHB58:
 1173 0904 E8000000 		call	i2cReadPromRecords
 1173      00
 1174              	.LEHE58:
 1175 0909 8985E0FE 		movl	%eax, -288(%rbp)
 1175      FFFF
 1176              	.LEHB59:
  85:testI2C.cpp   **** 		CHECK_EQUAL(I2C_SUCCESS, iStatus);
 1177              		.loc 3 85 0
 1178 090f E8000000 		call	_ZN8UnitTest11CurrentTest7DetailsEv
 1178      00
 1179 0914 488B08   		movq	(%rax), %rcx
 1180 0917 488D4590 		leaq	-112(%rbp), %rax
 1181 091b BA550000 		movl	$85, %edx
 1181      00
 1182 0920 4889CE   		movq	%rcx, %rsi
 1183 0923 4889C7   		movq	%rax, %rdi
 1184 0926 E8000000 		call	_ZN8UnitTest11TestDetailsC1ERKS0_i
 1184      00
 1185              	.LEHE59:
 1186              		.loc 3 85 0 is_stmt 0 discriminator 2
 1187 092b C785E4FE 		movl	$0, -284(%rbp)
 1187      FFFF0000 
 1187      0000
 1188              	.LEHB60:
 1189 0935 E8000000 		call	_ZN8UnitTest11CurrentTest7ResultsEv
 1189      00
 1190 093a 488B00   		movq	(%rax), %rax
 1191 093d 488D4D90 		leaq	-112(%rbp), %rcx
 1192 0941 488D95E0 		leaq	-288(%rbp), %rdx
 1192      FEFFFF
 1193 0948 488DB5E4 		leaq	-284(%rbp), %rsi
 1193      FEFFFF
 1194 094f 4889C7   		movq	%rax, %rdi
 1195 0952 E8000000 		call	_ZN8UnitTest10CheckEqualI9I2CStatusS1_EEvRNS_11TestResultsERKT_RKT0_RKNS_11TestDetailsE
 1195      00
 1196              	.LEHE60:
 1197              	.L93:
 1198              	.LEHB61:
  86:testI2C.cpp   **** 		CHECK_ARRAY_EQUAL(expected, dstData.data, 16);
 1199              		.loc 3 86 0 is_stmt 1
 1200 0957 E8000000 		call	_ZN8UnitTest11CurrentTest7DetailsEv
 1200      00
 1201 095c 488B08   		movq	(%rax), %rcx
 1202 095f 488D4590 		leaq	-112(%rbp), %rax
 1203 0963 BA560000 		movl	$86, %edx
 1203      00
 1204 0968 4889CE   		movq	%rcx, %rsi
 1205 096b 4889C7   		movq	%rax, %rdi
 1206 096e E8000000 		call	_ZN8UnitTest11TestDetailsC1ERKS0_i
 1206      00
 1207              		.loc 3 86 0 is_stmt 0 discriminator 2
 1208 0973 E8000000 		call	_ZN8UnitTest11CurrentTest7ResultsEv
 1208      00
 1209 0978 488B00   		movq	(%rax), %rax
 1210 097b 488D4D90 		leaq	-112(%rbp), %rcx
 1211 097f 488D9550 		leaq	-176(%rbp), %rdx
 1211      FFFFFF
 1212 0986 488D75D0 		leaq	-48(%rbp), %rsi
 1213 098a 4989C8   		movq	%rcx, %r8
 1214 098d B9100000 		movl	$16, %ecx
 1214      00
 1215 0992 4889C7   		movq	%rax, %rdi
 1216 0995 E8000000 		call	_ZN8UnitTest15CheckArrayEqualIA16_hPhEEvRNS_11TestResultsERKT_RKT0_iRKNS_11TestDetailsE
 1216      00
 1217              	.LEHE61:
 1218              	.L96:
  87:testI2C.cpp   **** 		bufDestroy(&dstMask);
 1219              		.loc 3 87 0 is_stmt 1
 1220 099a 488D8570 		leaq	-144(%rbp), %rax
 1220      FFFFFF
 1221 09a1 4889C7   		movq	%rax, %rdi
 1222              	.LEHB62:
 1223 09a4 E8000000 		call	bufDestroy
 1223      00
  88:testI2C.cpp   **** 		bufDestroy(&srcMask);
 1224              		.loc 3 88 0
 1225 09a9 488D8530 		leaq	-208(%rbp), %rax
 1225      FFFFFF
 1226 09b0 4889C7   		movq	%rax, %rdi
 1227 09b3 E8000000 		call	bufDestroy
 1227      00
  89:testI2C.cpp   **** 		bufDestroy(&dstData);
 1228              		.loc 3 89 0
 1229 09b8 488D8550 		leaq	-176(%rbp), %rax
 1229      FFFFFF
 1230 09bf 4889C7   		movq	%rax, %rdi
 1231 09c2 E8000000 		call	bufDestroy
 1231      00
  90:testI2C.cpp   **** 		bufDestroy(&srcData);
 1232              		.loc 3 90 0
 1233 09c7 488D8510 		leaq	-240(%rbp), %rax
 1233      FFFFFF
 1234 09ce 4889C7   		movq	%rax, %rdi
 1235 09d1 E8000000 		call	bufDestroy
 1235      00
  91:testI2C.cpp   **** 		bufDestroy(&i2cBuffer);
 1236              		.loc 3 91 0
 1237 09d6 488D85F0 		leaq	-272(%rbp), %rax
 1237      FEFFFF
 1238 09dd 4889C7   		movq	%rax, %rdi
 1239 09e0 E8000000 		call	bufDestroy
 1239      00
 1240              	.LEHE62:
  55:testI2C.cpp   **** 		for ( j = 0; j < 16; j++ ) {
 1241              		.loc 3 55 0
 1242 09e5 8385E8FE 		addl	$1, -280(%rbp)
 1242      FFFF01
 1243 09ec E983FAFF 		jmp	.L54
 1243      FF
 1244              	.L100:
 1245 09f1 EB00     		jmp	.L56
 1246              	.L99:
 1247              	.L56:
  66:testI2C.cpp   **** 		i2cInitialise(&i2cBuffer, VID, PID, DID, CONFIG_BYTE_400KHZ);
 1248              		.loc 3 66 0
 1249 09f3 4889C7   		movq	%rax, %rdi
 1250 09f6 E8000000 		call	__cxa_begin_catch
 1250      00
 1251              	.LEHB63:
 1252 09fb E8000000 		call	_ZN8UnitTest11CurrentTest7DetailsEv
 1252      00
 1253 0a00 488B08   		movq	(%rax), %rcx
 1254 0a03 488D4590 		leaq	-112(%rbp), %rax
 1255 0a07 BA420000 		movl	$66, %edx
 1255      00
 1256 0a0c 4889CE   		movq	%rcx, %rsi
 1257 0a0f 4889C7   		movq	%rax, %rdi
 1258 0a12 E8000000 		call	_ZN8UnitTest11TestDetailsC1ERKS0_i
 1258      00
  66:testI2C.cpp   **** 		i2cInitialise(&i2cBuffer, VID, PID, DID, CONFIG_BYTE_400KHZ);
 1259              		.loc 3 66 0 is_stmt 0 discriminator 10
 1260 0a17 E8000000 		call	_ZN8UnitTest11CurrentTest7ResultsEv
 1260      00
 1261 0a1c 488B00   		movq	(%rax), %rax
 1262 0a1f 488D4D90 		leaq	-112(%rbp), %rcx
 1263 0a23 BA000000 		movl	$.LC3, %edx
 1263      00
 1264 0a28 4889CE   		movq	%rcx, %rsi
 1265 0a2b 4889C7   		movq	%rax, %rdi
 1266 0a2e E8000000 		call	_ZN8UnitTest11TestResults13OnTestFailureERKNS_11TestDetailsEPKc
 1266      00
 1267              	.LEHE63:
 1268              	.LEHB64:
  66:testI2C.cpp   **** 		i2cInitialise(&i2cBuffer, VID, PID, DID, CONFIG_BYTE_400KHZ);
 1269              		.loc 3 66 0 discriminator 14
 1270 0a33 E8000000 		call	__cxa_end_catch
 1270      00
 1271              	.LEHE64:
 1272 0a38 E922FBFF 		jmp	.L57
 1272      FF
 1273              	.L101:
 1274 0a3d 4889C3   		movq	%rax, %rbx
  66:testI2C.cpp   **** 		i2cInitialise(&i2cBuffer, VID, PID, DID, CONFIG_BYTE_400KHZ);
 1275              		.loc 3 66 0
 1276 0a40 E8000000 		call	__cxa_end_catch
 1276      00
 1277 0a45 4889D8   		movq	%rbx, %rax
 1278 0a48 4889C7   		movq	%rax, %rdi
 1279              	.LEHB65:
 1280 0a4b E8000000 		call	_Unwind_Resume
 1280      00
 1281              	.LEHE65:
 1282              	.L103:
 1283 0a50 EB00     		jmp	.L60
 1284              	.L102:
 1285              	.L60:
  69:testI2C.cpp   **** 		bStatus = bufInitialise(&dstData, 16, 0x00, NULL);
 1286              		.loc 3 69 0 is_stmt 1
 1287 0a52 4889C7   		movq	%rax, %rdi
 1288 0a55 E8000000 		call	__cxa_begin_catch
 1288      00
 1289              	.LEHB66:
 1290 0a5a E8000000 		call	_ZN8UnitTest11CurrentTest7DetailsEv
 1290      00
 1291 0a5f 488B08   		movq	(%rax), %rcx
 1292 0a62 488D4590 		leaq	-112(%rbp), %rax
 1293 0a66 BA450000 		movl	$69, %edx
 1293      00
 1294 0a6b 4889CE   		movq	%rcx, %rsi
 1295 0a6e 4889C7   		movq	%rax, %rdi
 1296 0a71 E8000000 		call	_ZN8UnitTest11TestDetailsC1ERKS0_i
 1296      00
  69:testI2C.cpp   **** 		bStatus = bufInitialise(&dstData, 16, 0x00, NULL);
 1297              		.loc 3 69 0 is_stmt 0 discriminator 10
 1298 0a76 E8000000 		call	_ZN8UnitTest11CurrentTest7ResultsEv
 1298      00
 1299 0a7b 488B00   		movq	(%rax), %rax
 1300 0a7e 488D4D90 		leaq	-112(%rbp), %rcx
 1301 0a82 BA000000 		movl	$.LC3, %edx
 1301      00
 1302 0a87 4889CE   		movq	%rcx, %rsi
 1303 0a8a 4889C7   		movq	%rax, %rdi
 1304 0a8d E8000000 		call	_ZN8UnitTest11TestResults13OnTestFailureERKNS_11TestDetailsEPKc
 1304      00
 1305              	.LEHE66:
 1306              	.LEHB67:
  69:testI2C.cpp   **** 		bStatus = bufInitialise(&dstData, 16, 0x00, NULL);
 1307              		.loc 3 69 0 discriminator 14
 1308 0a92 E8000000 		call	__cxa_end_catch
 1308      00
 1309              	.LEHE67:
 1310 0a97 E953FBFF 		jmp	.L61
 1310      FF
 1311              	.L104:
 1312 0a9c 4889C3   		movq	%rax, %rbx
  69:testI2C.cpp   **** 		bStatus = bufInitialise(&dstData, 16, 0x00, NULL);
 1313              		.loc 3 69 0
 1314 0a9f E8000000 		call	__cxa_end_catch
 1314      00
 1315 0aa4 4889D8   		movq	%rbx, %rax
 1316 0aa7 4889C7   		movq	%rax, %rdi
 1317              	.LEHB68:
 1318 0aaa E8000000 		call	_Unwind_Resume
 1318      00
 1319              	.LEHE68:
 1320              	.L106:
 1321 0aaf EB00     		jmp	.L64
 1322              	.L105:
 1323              	.L64:
  71:testI2C.cpp   **** 		bStatus = bufInitialise(&srcMask, 16, 0x00, NULL);
 1324              		.loc 3 71 0 is_stmt 1
 1325 0ab1 4889C7   		movq	%rax, %rdi
 1326 0ab4 E8000000 		call	__cxa_begin_catch
 1326      00
 1327              	.LEHB69:
 1328 0ab9 E8000000 		call	_ZN8UnitTest11CurrentTest7DetailsEv
 1328      00
 1329 0abe 488B08   		movq	(%rax), %rcx
 1330 0ac1 488D4590 		leaq	-112(%rbp), %rax
 1331 0ac5 BA470000 		movl	$71, %edx
 1331      00
 1332 0aca 4889CE   		movq	%rcx, %rsi
 1333 0acd 4889C7   		movq	%rax, %rdi
 1334 0ad0 E8000000 		call	_ZN8UnitTest11TestDetailsC1ERKS0_i
 1334      00
  71:testI2C.cpp   **** 		bStatus = bufInitialise(&srcMask, 16, 0x00, NULL);
 1335              		.loc 3 71 0 is_stmt 0 discriminator 10
 1336 0ad5 E8000000 		call	_ZN8UnitTest11CurrentTest7ResultsEv
 1336      00
 1337 0ada 488B00   		movq	(%rax), %rax
 1338 0add 488D4D90 		leaq	-112(%rbp), %rcx
 1339 0ae1 BA000000 		movl	$.LC3, %edx
 1339      00
 1340 0ae6 4889CE   		movq	%rcx, %rsi
 1341 0ae9 4889C7   		movq	%rax, %rdi
 1342 0aec E8000000 		call	_ZN8UnitTest11TestResults13OnTestFailureERKNS_11TestDetailsEPKc
 1342      00
 1343              	.LEHE69:
 1344              	.LEHB70:
  71:testI2C.cpp   **** 		bStatus = bufInitialise(&srcMask, 16, 0x00, NULL);
 1345              		.loc 3 71 0 discriminator 14
 1346 0af1 E8000000 		call	__cxa_end_catch
 1346      00
 1347              	.LEHE70:
 1348 0af6 E960FBFF 		jmp	.L65
 1348      FF
 1349              	.L107:
 1350 0afb 4889C3   		movq	%rax, %rbx
  71:testI2C.cpp   **** 		bStatus = bufInitialise(&srcMask, 16, 0x00, NULL);
 1351              		.loc 3 71 0
 1352 0afe E8000000 		call	__cxa_end_catch
 1352      00
 1353 0b03 4889D8   		movq	%rbx, %rax
 1354 0b06 4889C7   		movq	%rax, %rdi
 1355              	.LEHB71:
 1356 0b09 E8000000 		call	_Unwind_Resume
 1356      00
 1357              	.LEHE71:
 1358              	.L109:
 1359 0b0e EB00     		jmp	.L68
 1360              	.L108:
 1361              	.L68:
  73:testI2C.cpp   **** 		bStatus = bufInitialise(&dstMask, 16, 0x00, NULL);
 1362              		.loc 3 73 0 is_stmt 1
 1363 0b10 4889C7   		movq	%rax, %rdi
 1364 0b13 E8000000 		call	__cxa_begin_catch
 1364      00
 1365              	.LEHB72:
 1366 0b18 E8000000 		call	_ZN8UnitTest11CurrentTest7DetailsEv
 1366      00
 1367 0b1d 488B08   		movq	(%rax), %rcx
 1368 0b20 488D4590 		leaq	-112(%rbp), %rax
 1369 0b24 BA490000 		movl	$73, %edx
 1369      00
 1370 0b29 4889CE   		movq	%rcx, %rsi
 1371 0b2c 4889C7   		movq	%rax, %rdi
 1372 0b2f E8000000 		call	_ZN8UnitTest11TestDetailsC1ERKS0_i
 1372      00
  73:testI2C.cpp   **** 		bStatus = bufInitialise(&dstMask, 16, 0x00, NULL);
 1373              		.loc 3 73 0 is_stmt 0 discriminator 10
 1374 0b34 E8000000 		call	_ZN8UnitTest11CurrentTest7ResultsEv
 1374      00
 1375 0b39 488B00   		movq	(%rax), %rax
 1376 0b3c 488D4D90 		leaq	-112(%rbp), %rcx
 1377 0b40 BA000000 		movl	$.LC3, %edx
 1377      00
 1378 0b45 4889CE   		movq	%rcx, %rsi
 1379 0b48 4889C7   		movq	%rax, %rdi
 1380 0b4b E8000000 		call	_ZN8UnitTest11TestResults13OnTestFailureERKNS_11TestDetailsEPKc
 1380      00
 1381              	.LEHE72:
 1382              	.LEHB73:
  73:testI2C.cpp   **** 		bStatus = bufInitialise(&dstMask, 16, 0x00, NULL);
 1383              		.loc 3 73 0 discriminator 14
 1384 0b50 E8000000 		call	__cxa_end_catch
 1384      00
 1385              	.LEHE73:
 1386 0b55 E96DFBFF 		jmp	.L69
 1386      FF
 1387              	.L110:
 1388 0b5a 4889C3   		movq	%rax, %rbx
  73:testI2C.cpp   **** 		bStatus = bufInitialise(&dstMask, 16, 0x00, NULL);
 1389              		.loc 3 73 0
 1390 0b5d E8000000 		call	__cxa_end_catch
 1390      00
 1391 0b62 4889D8   		movq	%rbx, %rax
 1392 0b65 4889C7   		movq	%rax, %rdi
 1393              	.LEHB74:
 1394 0b68 E8000000 		call	_Unwind_Resume
 1394      00
 1395              	.LEHE74:
 1396              	.L112:
 1397 0b6d EB00     		jmp	.L72
 1398              	.L111:
 1399              	.L72:
  75:testI2C.cpp   **** 		bStatus = bufWriteBlock(&srcData, 0x00000000, expected, 16, NULL);
 1400              		.loc 3 75 0 is_stmt 1
 1401 0b6f 4889C7   		movq	%rax, %rdi
 1402 0b72 E8000000 		call	__cxa_begin_catch
 1402      00
 1403              	.LEHB75:
 1404 0b77 E8000000 		call	_ZN8UnitTest11CurrentTest7DetailsEv
 1404      00
 1405 0b7c 488B08   		movq	(%rax), %rcx
 1406 0b7f 488D4590 		leaq	-112(%rbp), %rax
 1407 0b83 BA4B0000 		movl	$75, %edx
 1407      00
 1408 0b88 4889CE   		movq	%rcx, %rsi
 1409 0b8b 4889C7   		movq	%rax, %rdi
 1410 0b8e E8000000 		call	_ZN8UnitTest11TestDetailsC1ERKS0_i
 1410      00
  75:testI2C.cpp   **** 		bStatus = bufWriteBlock(&srcData, 0x00000000, expected, 16, NULL);
 1411              		.loc 3 75 0 is_stmt 0 discriminator 10
 1412 0b93 E8000000 		call	_ZN8UnitTest11CurrentTest7ResultsEv
 1412      00
 1413 0b98 488B00   		movq	(%rax), %rax
 1414 0b9b 488D4D90 		leaq	-112(%rbp), %rcx
 1415 0b9f BA000000 		movl	$.LC3, %edx
 1415      00
 1416 0ba4 4889CE   		movq	%rcx, %rsi
 1417 0ba7 4889C7   		movq	%rax, %rdi
 1418 0baa E8000000 		call	_ZN8UnitTest11TestResults13OnTestFailureERKNS_11TestDetailsEPKc
 1418      00
 1419              	.LEHE75:
 1420              	.LEHB76:
  75:testI2C.cpp   **** 		bStatus = bufWriteBlock(&srcData, 0x00000000, expected, 16, NULL);
 1421              		.loc 3 75 0 discriminator 14
 1422 0baf E8000000 		call	__cxa_end_catch
 1422      00
 1423              	.LEHE76:
 1424 0bb4 E97AFBFF 		jmp	.L73
 1424      FF
 1425              	.L113:
 1426 0bb9 4889C3   		movq	%rax, %rbx
  75:testI2C.cpp   **** 		bStatus = bufWriteBlock(&srcData, 0x00000000, expected, 16, NULL);
 1427              		.loc 3 75 0
 1428 0bbc E8000000 		call	__cxa_end_catch
 1428      00
 1429 0bc1 4889D8   		movq	%rbx, %rax
 1430 0bc4 4889C7   		movq	%rax, %rdi
 1431              	.LEHB77:
 1432 0bc7 E8000000 		call	_Unwind_Resume
 1432      00
 1433              	.LEHE77:
 1434              	.L115:
 1435 0bcc EB00     		jmp	.L76
 1436              	.L114:
 1437              	.L76:
  77:testI2C.cpp   **** 		bStatus = bufWriteBlock(&srcMask, 0x00000000, mask, 16, NULL);
 1438              		.loc 3 77 0 is_stmt 1
 1439 0bce 4889C7   		movq	%rax, %rdi
 1440 0bd1 E8000000 		call	__cxa_begin_catch
 1440      00
 1441              	.LEHB78:
 1442 0bd6 E8000000 		call	_ZN8UnitTest11CurrentTest7DetailsEv
 1442      00
 1443 0bdb 488B08   		movq	(%rax), %rcx
 1444 0bde 488D4590 		leaq	-112(%rbp), %rax
 1445 0be2 BA4D0000 		movl	$77, %edx
 1445      00
 1446 0be7 4889CE   		movq	%rcx, %rsi
 1447 0bea 4889C7   		movq	%rax, %rdi
 1448 0bed E8000000 		call	_ZN8UnitTest11TestDetailsC1ERKS0_i
 1448      00
  77:testI2C.cpp   **** 		bStatus = bufWriteBlock(&srcMask, 0x00000000, mask, 16, NULL);
 1449              		.loc 3 77 0 is_stmt 0 discriminator 10
 1450 0bf2 E8000000 		call	_ZN8UnitTest11CurrentTest7ResultsEv
 1450      00
 1451 0bf7 488B00   		movq	(%rax), %rax
 1452 0bfa 488D4D90 		leaq	-112(%rbp), %rcx
 1453 0bfe BA000000 		movl	$.LC3, %edx
 1453      00
 1454 0c03 4889CE   		movq	%rcx, %rsi
 1455 0c06 4889C7   		movq	%rax, %rdi
 1456 0c09 E8000000 		call	_ZN8UnitTest11TestResults13OnTestFailureERKNS_11TestDetailsEPKc
 1456      00
 1457              	.LEHE78:
 1458              	.LEHB79:
  77:testI2C.cpp   **** 		bStatus = bufWriteBlock(&srcMask, 0x00000000, mask, 16, NULL);
 1459              		.loc 3 77 0 discriminator 14
 1460 0c0e E8000000 		call	__cxa_end_catch
 1460      00
 1461              	.LEHE79:
 1462 0c13 E98CFBFF 		jmp	.L77
 1462      FF
 1463              	.L116:
 1464 0c18 4889C3   		movq	%rax, %rbx
  77:testI2C.cpp   **** 		bStatus = bufWriteBlock(&srcMask, 0x00000000, mask, 16, NULL);
 1465              		.loc 3 77 0
 1466 0c1b E8000000 		call	__cxa_end_catch
 1466      00
 1467 0c20 4889D8   		movq	%rbx, %rax
 1468 0c23 4889C7   		movq	%rax, %rdi
 1469              	.LEHB80:
 1470 0c26 E8000000 		call	_Unwind_Resume
 1470      00
 1471              	.LEHE80:
 1472              	.L118:
 1473 0c2b EB00     		jmp	.L80
 1474              	.L117:
 1475              	.L80:
  79:testI2C.cpp   **** 		iStatus = i2cWritePromRecords(&i2cBuffer, &srcData, &srcMask, NULL);
 1476              		.loc 3 79 0 is_stmt 1
 1477 0c2d 4889C7   		movq	%rax, %rdi
 1478 0c30 E8000000 		call	__cxa_begin_catch
 1478      00
 1479              	.LEHB81:
 1480 0c35 E8000000 		call	_ZN8UnitTest11CurrentTest7DetailsEv
 1480      00
 1481 0c3a 488B08   		movq	(%rax), %rcx
 1482 0c3d 488D4590 		leaq	-112(%rbp), %rax
 1483 0c41 BA4F0000 		movl	$79, %edx
 1483      00
 1484 0c46 4889CE   		movq	%rcx, %rsi
 1485 0c49 4889C7   		movq	%rax, %rdi
 1486 0c4c E8000000 		call	_ZN8UnitTest11TestDetailsC1ERKS0_i
 1486      00
  79:testI2C.cpp   **** 		iStatus = i2cWritePromRecords(&i2cBuffer, &srcData, &srcMask, NULL);
 1487              		.loc 3 79 0 is_stmt 0 discriminator 10
 1488 0c51 E8000000 		call	_ZN8UnitTest11CurrentTest7ResultsEv
 1488      00
 1489 0c56 488B00   		movq	(%rax), %rax
 1490 0c59 488D4D90 		leaq	-112(%rbp), %rcx
 1491 0c5d BA000000 		movl	$.LC3, %edx
 1491      00
 1492 0c62 4889CE   		movq	%rcx, %rsi
 1493 0c65 4889C7   		movq	%rax, %rdi
 1494 0c68 E8000000 		call	_ZN8UnitTest11TestResults13OnTestFailureERKNS_11TestDetailsEPKc
 1494      00
 1495              	.LEHE81:
 1496              	.LEHB82:
  79:testI2C.cpp   **** 		iStatus = i2cWritePromRecords(&i2cBuffer, &srcData, &srcMask, NULL);
 1497              		.loc 3 79 0 discriminator 14
 1498 0c6d E8000000 		call	__cxa_end_catch
 1498      00
 1499              	.LEHE82:
 1500 0c72 E99EFBFF 		jmp	.L81
 1500      FF
 1501              	.L119:
 1502 0c77 4889C3   		movq	%rax, %rbx
  79:testI2C.cpp   **** 		iStatus = i2cWritePromRecords(&i2cBuffer, &srcData, &srcMask, NULL);
 1503              		.loc 3 79 0
 1504 0c7a E8000000 		call	__cxa_end_catch
 1504      00
 1505 0c7f 4889D8   		movq	%rbx, %rax
 1506 0c82 4889C7   		movq	%rax, %rdi
 1507              	.LEHB83:
 1508 0c85 E8000000 		call	_Unwind_Resume
 1508      00
 1509              	.LEHE83:
 1510              	.L121:
 1511 0c8a EB00     		jmp	.L84
 1512              	.L120:
 1513              	.L84:
  81:testI2C.cpp   **** 		iStatus = i2cFinalise(&i2cBuffer, NULL);
 1514              		.loc 3 81 0 is_stmt 1
 1515 0c8c 4889C7   		movq	%rax, %rdi
 1516 0c8f E8000000 		call	__cxa_begin_catch
 1516      00
 1517              	.LEHB84:
 1518 0c94 E8000000 		call	_ZN8UnitTest11CurrentTest7DetailsEv
 1518      00
 1519 0c99 488B08   		movq	(%rax), %rcx
 1520 0c9c 488D4590 		leaq	-112(%rbp), %rax
 1521 0ca0 BA510000 		movl	$81, %edx
 1521      00
 1522 0ca5 4889CE   		movq	%rcx, %rsi
 1523 0ca8 4889C7   		movq	%rax, %rdi
 1524 0cab E8000000 		call	_ZN8UnitTest11TestDetailsC1ERKS0_i
 1524      00
  81:testI2C.cpp   **** 		iStatus = i2cFinalise(&i2cBuffer, NULL);
 1525              		.loc 3 81 0 is_stmt 0 discriminator 10
 1526 0cb0 E8000000 		call	_ZN8UnitTest11CurrentTest7ResultsEv
 1526      00
 1527 0cb5 488B00   		movq	(%rax), %rax
 1528 0cb8 488D4D90 		leaq	-112(%rbp), %rcx
 1529 0cbc BA000000 		movl	$.LC4, %edx
 1529      00
 1530 0cc1 4889CE   		movq	%rcx, %rsi
 1531 0cc4 4889C7   		movq	%rax, %rdi
 1532 0cc7 E8000000 		call	_ZN8UnitTest11TestResults13OnTestFailureERKNS_11TestDetailsEPKc
 1532      00
 1533              	.LEHE84:
 1534              	.LEHB85:
  81:testI2C.cpp   **** 		iStatus = i2cFinalise(&i2cBuffer, NULL);
 1535              		.loc 3 81 0 discriminator 14
 1536 0ccc E8000000 		call	__cxa_end_catch
 1536      00
 1537              	.LEHE85:
 1538 0cd1 E9AFFBFF 		jmp	.L85
 1538      FF
 1539              	.L122:
 1540 0cd6 4889C3   		movq	%rax, %rbx
  81:testI2C.cpp   **** 		iStatus = i2cFinalise(&i2cBuffer, NULL);
 1541              		.loc 3 81 0
 1542 0cd9 E8000000 		call	__cxa_end_catch
 1542      00
 1543 0cde 4889D8   		movq	%rbx, %rax
 1544 0ce1 4889C7   		movq	%rax, %rdi
 1545              	.LEHB86:
 1546 0ce4 E8000000 		call	_Unwind_Resume
 1546      00
 1547              	.LEHE86:
 1548              	.L124:
 1549 0ce9 EB00     		jmp	.L88
 1550              	.L123:
 1551              	.L88:
  83:testI2C.cpp   **** 		iStatus = i2cReadPromRecords(&dstData, &dstMask, &i2cBuffer, NULL);
 1552              		.loc 3 83 0 is_stmt 1
 1553 0ceb 4889C7   		movq	%rax, %rdi
 1554 0cee E8000000 		call	__cxa_begin_catch
 1554      00
 1555              	.LEHB87:
 1556 0cf3 E8000000 		call	_ZN8UnitTest11CurrentTest7DetailsEv
 1556      00
 1557 0cf8 488B08   		movq	(%rax), %rcx
 1558 0cfb 488D4590 		leaq	-112(%rbp), %rax
 1559 0cff BA530000 		movl	$83, %edx
 1559      00
 1560 0d04 4889CE   		movq	%rcx, %rsi
 1561 0d07 4889C7   		movq	%rax, %rdi
 1562 0d0a E8000000 		call	_ZN8UnitTest11TestDetailsC1ERKS0_i
 1562      00
  83:testI2C.cpp   **** 		iStatus = i2cReadPromRecords(&dstData, &dstMask, &i2cBuffer, NULL);
 1563              		.loc 3 83 0 is_stmt 0 discriminator 10
 1564 0d0f E8000000 		call	_ZN8UnitTest11CurrentTest7ResultsEv
 1564      00
 1565 0d14 488B00   		movq	(%rax), %rax
 1566 0d17 488D4D90 		leaq	-112(%rbp), %rcx
 1567 0d1b BA000000 		movl	$.LC4, %edx
 1567      00
 1568 0d20 4889CE   		movq	%rcx, %rsi
 1569 0d23 4889C7   		movq	%rax, %rdi
 1570 0d26 E8000000 		call	_ZN8UnitTest11TestResults13OnTestFailureERKNS_11TestDetailsEPKc
 1570      00
 1571              	.LEHE87:
 1572              	.LEHB88:
  83:testI2C.cpp   **** 		iStatus = i2cReadPromRecords(&dstData, &dstMask, &i2cBuffer, NULL);
 1573              		.loc 3 83 0 discriminator 14
 1574 0d2b E8000000 		call	__cxa_end_catch
 1574      00
 1575              	.LEHE88:
 1576 0d30 E9B2FBFF 		jmp	.L89
 1576      FF
 1577              	.L125:
 1578 0d35 4889C3   		movq	%rax, %rbx
  83:testI2C.cpp   **** 		iStatus = i2cReadPromRecords(&dstData, &dstMask, &i2cBuffer, NULL);
 1579              		.loc 3 83 0
 1580 0d38 E8000000 		call	__cxa_end_catch
 1580      00
 1581 0d3d 4889D8   		movq	%rbx, %rax
 1582 0d40 4889C7   		movq	%rax, %rdi
 1583              	.LEHB89:
 1584 0d43 E8000000 		call	_Unwind_Resume
 1584      00
 1585              	.LEHE89:
 1586              	.L127:
 1587 0d48 EB00     		jmp	.L92
 1588              	.L126:
 1589              	.L92:
  85:testI2C.cpp   **** 		CHECK_ARRAY_EQUAL(expected, dstData.data, 16);
 1590              		.loc 3 85 0 is_stmt 1
 1591 0d4a 4889C7   		movq	%rax, %rdi
 1592 0d4d E8000000 		call	__cxa_begin_catch
 1592      00
 1593              	.LEHB90:
 1594 0d52 E8000000 		call	_ZN8UnitTest11CurrentTest7DetailsEv
 1594      00
 1595 0d57 488B08   		movq	(%rax), %rcx
 1596 0d5a 488D4590 		leaq	-112(%rbp), %rax
 1597 0d5e BA550000 		movl	$85, %edx
 1597      00
 1598 0d63 4889CE   		movq	%rcx, %rsi
 1599 0d66 4889C7   		movq	%rax, %rdi
 1600 0d69 E8000000 		call	_ZN8UnitTest11TestDetailsC1ERKS0_i
 1600      00
  85:testI2C.cpp   **** 		CHECK_ARRAY_EQUAL(expected, dstData.data, 16);
 1601              		.loc 3 85 0 is_stmt 0 discriminator 10
 1602 0d6e E8000000 		call	_ZN8UnitTest11CurrentTest7ResultsEv
 1602      00
 1603 0d73 488B00   		movq	(%rax), %rax
 1604 0d76 488D4D90 		leaq	-112(%rbp), %rcx
 1605 0d7a BA000000 		movl	$.LC4, %edx
 1605      00
 1606 0d7f 4889CE   		movq	%rcx, %rsi
 1607 0d82 4889C7   		movq	%rax, %rdi
 1608 0d85 E8000000 		call	_ZN8UnitTest11TestResults13OnTestFailureERKNS_11TestDetailsEPKc
 1608      00
 1609              	.LEHE90:
 1610              	.LEHB91:
  85:testI2C.cpp   **** 		CHECK_ARRAY_EQUAL(expected, dstData.data, 16);
 1611              		.loc 3 85 0 discriminator 14
 1612 0d8a E8000000 		call	__cxa_end_catch
 1612      00
 1613              	.LEHE91:
 1614 0d8f E9C3FBFF 		jmp	.L93
 1614      FF
 1615              	.L128:
 1616 0d94 4889C3   		movq	%rax, %rbx
  85:testI2C.cpp   **** 		CHECK_ARRAY_EQUAL(expected, dstData.data, 16);
 1617              		.loc 3 85 0
 1618 0d97 E8000000 		call	__cxa_end_catch
 1618      00
 1619 0d9c 4889D8   		movq	%rbx, %rax
 1620 0d9f 4889C7   		movq	%rax, %rdi
 1621              	.LEHB92:
 1622 0da2 E8000000 		call	_Unwind_Resume
 1622      00
 1623              	.LEHE92:
 1624              	.L129:
  86:testI2C.cpp   **** 		bufDestroy(&dstMask);
 1625              		.loc 3 86 0 is_stmt 1
 1626 0da7 4889C7   		movq	%rax, %rdi
 1627 0daa E8000000 		call	__cxa_begin_catch
 1627      00
 1628              	.LEHB93:
 1629 0daf E8000000 		call	_ZN8UnitTest11CurrentTest7DetailsEv
 1629      00
 1630 0db4 488B08   		movq	(%rax), %rcx
 1631 0db7 488D4590 		leaq	-112(%rbp), %rax
 1632 0dbb BA560000 		movl	$86, %edx
 1632      00
 1633 0dc0 4889CE   		movq	%rcx, %rsi
 1634 0dc3 4889C7   		movq	%rax, %rdi
 1635 0dc6 E8000000 		call	_ZN8UnitTest11TestDetailsC1ERKS0_i
 1635      00
  86:testI2C.cpp   **** 		bufDestroy(&dstMask);
 1636              		.loc 3 86 0 is_stmt 0 discriminator 10
 1637 0dcb E8000000 		call	_ZN8UnitTest11CurrentTest7ResultsEv
 1637      00
 1638 0dd0 488B00   		movq	(%rax), %rax
 1639 0dd3 488D4D90 		leaq	-112(%rbp), %rcx
 1640 0dd7 BA000000 		movl	$.LC9, %edx
 1640      00
 1641 0ddc 4889CE   		movq	%rcx, %rsi
 1642 0ddf 4889C7   		movq	%rax, %rdi
 1643 0de2 E8000000 		call	_ZN8UnitTest11TestResults13OnTestFailureERKNS_11TestDetailsEPKc
 1643      00
 1644              	.LEHE93:
 1645              	.LEHB94:
  86:testI2C.cpp   **** 		bufDestroy(&dstMask);
 1646              		.loc 3 86 0 discriminator 14
 1647 0de7 E8000000 		call	__cxa_end_catch
 1647      00
 1648              	.LEHE94:
 1649 0dec E9A9FBFF 		jmp	.L96
 1649      FF
 1650              	.L130:
 1651 0df1 4889C3   		movq	%rax, %rbx
  86:testI2C.cpp   **** 		bufDestroy(&dstMask);
 1652              		.loc 3 86 0
 1653 0df4 E8000000 		call	__cxa_end_catch
 1653      00
 1654 0df9 4889D8   		movq	%rbx, %rax
 1655 0dfc 4889C7   		movq	%rax, %rdi
 1656              	.LEHB95:
 1657 0dff E8000000 		call	_Unwind_Resume
 1657      00
 1658              	.LEHE95:
 1659              	.L131:
  92:testI2C.cpp   **** 	}
  93:testI2C.cpp   **** }
 1660              		.loc 3 93 0 is_stmt 1
 1661 0e04 90       		nop
 1662 0e05 488B45E8 		movq	-24(%rbp), %rax
 1663 0e09 64483304 		xorq	%fs:40, %rax
 1663      25280000 
 1663      00
 1664 0e12 7405     		je	.L98
 1665 0e14 E8000000 		call	__stack_chk_fail
 1665      00
 1666              	.L98:
 1667 0e19 4881C438 		addq	$312, %rsp
 1667      010000
 1668 0e20 5B       		popq	%rbx
 1669 0e21 5D       		popq	%rbp
 1670              		.cfi_def_cfa 7, 8
 1671 0e22 C3       		ret
 1672              		.cfi_endproc
 1673              	.LFE1080:
 1674              		.section	.gcc_except_table
 1675              		.align 4
 1676              	.LLSDA1080:
 1677 00a4 FF       		.byte	0xff
 1678 00a5 03       		.byte	0x3
 1679 00a6 F002     		.uleb128 .LLSDATT1080-.LLSDATTD1080
 1680              	.LLSDATTD1080:
 1681 00a8 01       		.byte	0x1
 1682 00a9 E502     		.uleb128 .LLSDACSE1080-.LLSDACSB1080
 1683              	.LLSDACSB1080:
 1684 00ab 8402     		.uleb128 .LEHB31-.LFB1080
 1685 00ad 05       		.uleb128 .LEHE31-.LEHB31
 1686 00ae 00       		.uleb128 0
 1687 00af 00       		.uleb128 0
 1688 00b0 8F02     		.uleb128 .LEHB32-.LFB1080
 1689 00b2 1C       		.uleb128 .LEHE32-.LEHB32
 1690 00b3 EB0B     		.uleb128 .L99-.LFB1080
 1691 00b5 01       		.uleb128 0x1
 1692 00b6 B502     		.uleb128 .LEHB33-.LFB1080
 1693 00b8 22       		.uleb128 .LEHE33-.LEHB33
 1694 00b9 E90B     		.uleb128 .L100-.LFB1080
 1695 00bb 03       		.uleb128 0x3
 1696 00bc F602     		.uleb128 .LEHB34-.LFB1080
 1697 00be 23       		.uleb128 .LEHE34-.LEHB34
 1698 00bf 00       		.uleb128 0
 1699 00c0 00       		.uleb128 0
 1700 00c1 9F03     		.uleb128 .LEHB35-.LFB1080
 1701 00c3 1C       		.uleb128 .LEHE35-.LEHB35
 1702 00c4 CA0C     		.uleb128 .L102-.LFB1080
 1703 00c6 01       		.uleb128 0x1
 1704 00c7 C503     		.uleb128 .LEHB36-.LFB1080
 1705 00c9 22       		.uleb128 .LEHE36-.LEHB36
 1706 00ca C80C     		.uleb128 .L103-.LFB1080
 1707 00cc 03       		.uleb128 0x3
 1708 00cd 8004     		.uleb128 .LEHB37-.LFB1080
 1709 00cf 05       		.uleb128 .LEHE37-.LEHB37
 1710 00d0 00       		.uleb128 0
 1711 00d1 00       		.uleb128 0
 1712 00d2 8B04     		.uleb128 .LEHB38-.LFB1080
 1713 00d4 1C       		.uleb128 .LEHE38-.LEHB38
 1714 00d5 A90D     		.uleb128 .L105-.LFB1080
 1715 00d7 01       		.uleb128 0x1
 1716 00d8 B104     		.uleb128 .LEHB39-.LFB1080
 1717 00da 22       		.uleb128 .LEHE39-.LEHB39
 1718 00db A70D     		.uleb128 .L106-.LFB1080
 1719 00dd 03       		.uleb128 0x3
 1720 00de EC04     		.uleb128 .LEHB40-.LFB1080
 1721 00e0 05       		.uleb128 .LEHE40-.LEHB40
 1722 00e1 00       		.uleb128 0
 1723 00e2 00       		.uleb128 0
 1724 00e3 F704     		.uleb128 .LEHB41-.LFB1080
 1725 00e5 1C       		.uleb128 .LEHE41-.LEHB41
 1726 00e6 880E     		.uleb128 .L108-.LFB1080
 1727 00e8 01       		.uleb128 0x1
 1728 00e9 9D05     		.uleb128 .LEHB42-.LFB1080
 1729 00eb 22       		.uleb128 .LEHE42-.LEHB42
 1730 00ec 860E     		.uleb128 .L109-.LFB1080
 1731 00ee 03       		.uleb128 0x3
 1732 00ef D805     		.uleb128 .LEHB43-.LFB1080
 1733 00f1 05       		.uleb128 .LEHE43-.LEHB43
 1734 00f2 00       		.uleb128 0
 1735 00f3 00       		.uleb128 0
 1736 00f4 E305     		.uleb128 .LEHB44-.LFB1080
 1737 00f6 1C       		.uleb128 .LEHE44-.LEHB44
 1738 00f7 E70E     		.uleb128 .L111-.LFB1080
 1739 00f9 01       		.uleb128 0x1
 1740 00fa 8906     		.uleb128 .LEHB45-.LFB1080
 1741 00fc 22       		.uleb128 .LEHE45-.LEHB45
 1742 00fd E50E     		.uleb128 .L112-.LFB1080
 1743 00ff 03       		.uleb128 0x3
 1744 0100 C906     		.uleb128 .LEHB46-.LFB1080
 1745 0102 05       		.uleb128 .LEHE46-.LEHB46
 1746 0103 00       		.uleb128 0
 1747 0104 00       		.uleb128 0
 1748 0105 D406     		.uleb128 .LEHB47-.LFB1080
 1749 0107 1C       		.uleb128 .LEHE47-.LEHB47
 1750 0108 C60F     		.uleb128 .L114-.LFB1080
 1751 010a 01       		.uleb128 0x1
 1752 010b FA06     		.uleb128 .LEHB48-.LFB1080
 1753 010d 22       		.uleb128 .LEHE48-.LEHB48
 1754 010e C40F     		.uleb128 .L115-.LFB1080
 1755 0110 03       		.uleb128 0x3
 1756 0111 BA07     		.uleb128 .LEHB49-.LFB1080
 1757 0113 05       		.uleb128 .LEHE49-.LEHB49
 1758 0114 00       		.uleb128 0
 1759 0115 00       		.uleb128 0
 1760 0116 C507     		.uleb128 .LEHB50-.LFB1080
 1761 0118 1C       		.uleb128 .LEHE50-.LEHB50
 1762 0119 A510     		.uleb128 .L117-.LFB1080
 1763 011b 01       		.uleb128 0x1
 1764 011c EB07     		.uleb128 .LEHB51-.LFB1080
 1765 011e 22       		.uleb128 .LEHE51-.LEHB51
 1766 011f A310     		.uleb128 .L118-.LFB1080
 1767 0121 03       		.uleb128 0x3
 1768 0122 AA08     		.uleb128 .LEHB52-.LFB1080
 1769 0124 05       		.uleb128 .LEHE52-.LEHB52
 1770 0125 00       		.uleb128 0
 1771 0126 00       		.uleb128 0
 1772 0127 B508     		.uleb128 .LEHB53-.LFB1080
 1773 0129 1C       		.uleb128 .LEHE53-.LEHB53
 1774 012a 8411     		.uleb128 .L120-.LFB1080
 1775 012c 01       		.uleb128 0x1
 1776 012d DB08     		.uleb128 .LEHB54-.LFB1080
 1777 012f 22       		.uleb128 .LEHE54-.LEHB54
 1778 0130 8211     		.uleb128 .L121-.LFB1080
 1779 0132 03       		.uleb128 0x3
 1780 0133 8C09     		.uleb128 .LEHB55-.LFB1080
 1781 0135 05       		.uleb128 .LEHE55-.LEHB55
 1782 0136 00       		.uleb128 0
 1783 0137 00       		.uleb128 0
 1784 0138 9709     		.uleb128 .LEHB56-.LFB1080
 1785 013a 1C       		.uleb128 .LEHE56-.LEHB56
 1786 013b E311     		.uleb128 .L123-.LFB1080
 1787 013d 01       		.uleb128 0x1
 1788 013e BD09     		.uleb128 .LEHB57-.LFB1080
 1789 0140 22       		.uleb128 .LEHE57-.LEHB57
 1790 0141 E111     		.uleb128 .L124-.LFB1080
 1791 0143 03       		.uleb128 0x3
 1792 0144 FC09     		.uleb128 .LEHB58-.LFB1080
 1793 0146 05       		.uleb128 .LEHE58-.LEHB58
 1794 0147 00       		.uleb128 0
 1795 0148 00       		.uleb128 0
 1796 0149 870A     		.uleb128 .LEHB59-.LFB1080
 1797 014b 1C       		.uleb128 .LEHE59-.LEHB59
 1798 014c C212     		.uleb128 .L126-.LFB1080
 1799 014e 01       		.uleb128 0x1
 1800 014f AD0A     		.uleb128 .LEHB60-.LFB1080
 1801 0151 22       		.uleb128 .LEHE60-.LEHB60
 1802 0152 C012     		.uleb128 .L127-.LFB1080
 1803 0154 03       		.uleb128 0x3
 1804 0155 CF0A     		.uleb128 .LEHB61-.LFB1080
 1805 0157 43       		.uleb128 .LEHE61-.LEHB61
 1806 0158 9F13     		.uleb128 .L129-.LFB1080
 1807 015a 01       		.uleb128 0x1
 1808 015b 9C0B     		.uleb128 .LEHB62-.LFB1080
 1809 015d 41       		.uleb128 .LEHE62-.LEHB62
 1810 015e 00       		.uleb128 0
 1811 015f 00       		.uleb128 0
 1812 0160 F30B     		.uleb128 .LEHB63-.LFB1080
 1813 0162 38       		.uleb128 .LEHE63-.LEHB63
 1814 0163 B50C     		.uleb128 .L101-.LFB1080
 1815 0165 00       		.uleb128 0
 1816 0166 AB0C     		.uleb128 .LEHB64-.LFB1080
 1817 0168 05       		.uleb128 .LEHE64-.LEHB64
 1818 0169 00       		.uleb128 0
 1819 016a 00       		.uleb128 0
 1820 016b C30C     		.uleb128 .LEHB65-.LFB1080
 1821 016d 05       		.uleb128 .LEHE65-.LEHB65
 1822 016e 00       		.uleb128 0
 1823 016f 00       		.uleb128 0
 1824 0170 D20C     		.uleb128 .LEHB66-.LFB1080
 1825 0172 38       		.uleb128 .LEHE66-.LEHB66
 1826 0173 940D     		.uleb128 .L104-.LFB1080
 1827 0175 00       		.uleb128 0
 1828 0176 8A0D     		.uleb128 .LEHB67-.LFB1080
 1829 0178 05       		.uleb128 .LEHE67-.LEHB67
 1830 0179 00       		.uleb128 0
 1831 017a 00       		.uleb128 0
 1832 017b A20D     		.uleb128 .LEHB68-.LFB1080
 1833 017d 05       		.uleb128 .LEHE68-.LEHB68
 1834 017e 00       		.uleb128 0
 1835 017f 00       		.uleb128 0
 1836 0180 B10D     		.uleb128 .LEHB69-.LFB1080
 1837 0182 38       		.uleb128 .LEHE69-.LEHB69
 1838 0183 F30D     		.uleb128 .L107-.LFB1080
 1839 0185 00       		.uleb128 0
 1840 0186 E90D     		.uleb128 .LEHB70-.LFB1080
 1841 0188 05       		.uleb128 .LEHE70-.LEHB70
 1842 0189 00       		.uleb128 0
 1843 018a 00       		.uleb128 0
 1844 018b 810E     		.uleb128 .LEHB71-.LFB1080
 1845 018d 05       		.uleb128 .LEHE71-.LEHB71
 1846 018e 00       		.uleb128 0
 1847 018f 00       		.uleb128 0
 1848 0190 900E     		.uleb128 .LEHB72-.LFB1080
 1849 0192 38       		.uleb128 .LEHE72-.LEHB72
 1850 0193 D20E     		.uleb128 .L110-.LFB1080
 1851 0195 00       		.uleb128 0
 1852 0196 C80E     		.uleb128 .LEHB73-.LFB1080
 1853 0198 05       		.uleb128 .LEHE73-.LEHB73
 1854 0199 00       		.uleb128 0
 1855 019a 00       		.uleb128 0
 1856 019b E00E     		.uleb128 .LEHB74-.LFB1080
 1857 019d 05       		.uleb128 .LEHE74-.LEHB74
 1858 019e 00       		.uleb128 0
 1859 019f 00       		.uleb128 0
 1860 01a0 EF0E     		.uleb128 .LEHB75-.LFB1080
 1861 01a2 38       		.uleb128 .LEHE75-.LEHB75
 1862 01a3 B10F     		.uleb128 .L113-.LFB1080
 1863 01a5 00       		.uleb128 0
 1864 01a6 A70F     		.uleb128 .LEHB76-.LFB1080
 1865 01a8 05       		.uleb128 .LEHE76-.LEHB76
 1866 01a9 00       		.uleb128 0
 1867 01aa 00       		.uleb128 0
 1868 01ab BF0F     		.uleb128 .LEHB77-.LFB1080
 1869 01ad 05       		.uleb128 .LEHE77-.LEHB77
 1870 01ae 00       		.uleb128 0
 1871 01af 00       		.uleb128 0
 1872 01b0 CE0F     		.uleb128 .LEHB78-.LFB1080
 1873 01b2 38       		.uleb128 .LEHE78-.LEHB78
 1874 01b3 9010     		.uleb128 .L116-.LFB1080
 1875 01b5 00       		.uleb128 0
 1876 01b6 8610     		.uleb128 .LEHB79-.LFB1080
 1877 01b8 05       		.uleb128 .LEHE79-.LEHB79
 1878 01b9 00       		.uleb128 0
 1879 01ba 00       		.uleb128 0
 1880 01bb 9E10     		.uleb128 .LEHB80-.LFB1080
 1881 01bd 05       		.uleb128 .LEHE80-.LEHB80
 1882 01be 00       		.uleb128 0
 1883 01bf 00       		.uleb128 0
 1884 01c0 AD10     		.uleb128 .LEHB81-.LFB1080
 1885 01c2 38       		.uleb128 .LEHE81-.LEHB81
 1886 01c3 EF10     		.uleb128 .L119-.LFB1080
 1887 01c5 00       		.uleb128 0
 1888 01c6 E510     		.uleb128 .LEHB82-.LFB1080
 1889 01c8 05       		.uleb128 .LEHE82-.LEHB82
 1890 01c9 00       		.uleb128 0
 1891 01ca 00       		.uleb128 0
 1892 01cb FD10     		.uleb128 .LEHB83-.LFB1080
 1893 01cd 05       		.uleb128 .LEHE83-.LEHB83
 1894 01ce 00       		.uleb128 0
 1895 01cf 00       		.uleb128 0
 1896 01d0 8C11     		.uleb128 .LEHB84-.LFB1080
 1897 01d2 38       		.uleb128 .LEHE84-.LEHB84
 1898 01d3 CE11     		.uleb128 .L122-.LFB1080
 1899 01d5 00       		.uleb128 0
 1900 01d6 C411     		.uleb128 .LEHB85-.LFB1080
 1901 01d8 05       		.uleb128 .LEHE85-.LEHB85
 1902 01d9 00       		.uleb128 0
 1903 01da 00       		.uleb128 0
 1904 01db DC11     		.uleb128 .LEHB86-.LFB1080
 1905 01dd 05       		.uleb128 .LEHE86-.LEHB86
 1906 01de 00       		.uleb128 0
 1907 01df 00       		.uleb128 0
 1908 01e0 EB11     		.uleb128 .LEHB87-.LFB1080
 1909 01e2 38       		.uleb128 .LEHE87-.LEHB87
 1910 01e3 AD12     		.uleb128 .L125-.LFB1080
 1911 01e5 00       		.uleb128 0
 1912 01e6 A312     		.uleb128 .LEHB88-.LFB1080
 1913 01e8 05       		.uleb128 .LEHE88-.LEHB88
 1914 01e9 00       		.uleb128 0
 1915 01ea 00       		.uleb128 0
 1916 01eb BB12     		.uleb128 .LEHB89-.LFB1080
 1917 01ed 05       		.uleb128 .LEHE89-.LEHB89
 1918 01ee 00       		.uleb128 0
 1919 01ef 00       		.uleb128 0
 1920 01f0 CA12     		.uleb128 .LEHB90-.LFB1080
 1921 01f2 38       		.uleb128 .LEHE90-.LEHB90
 1922 01f3 8C13     		.uleb128 .L128-.LFB1080
 1923 01f5 00       		.uleb128 0
 1924 01f6 8213     		.uleb128 .LEHB91-.LFB1080
 1925 01f8 05       		.uleb128 .LEHE91-.LEHB91
 1926 01f9 00       		.uleb128 0
 1927 01fa 00       		.uleb128 0
 1928 01fb 9A13     		.uleb128 .LEHB92-.LFB1080
 1929 01fd 05       		.uleb128 .LEHE92-.LEHB92
 1930 01fe 00       		.uleb128 0
 1931 01ff 00       		.uleb128 0
 1932 0200 A713     		.uleb128 .LEHB93-.LFB1080
 1933 0202 38       		.uleb128 .LEHE93-.LEHB93
 1934 0203 E913     		.uleb128 .L130-.LFB1080
 1935 0205 00       		.uleb128 0
 1936 0206 DF13     		.uleb128 .LEHB94-.LFB1080
 1937 0208 05       		.uleb128 .LEHE94-.LEHB94
 1938 0209 00       		.uleb128 0
 1939 020a 00       		.uleb128 0
 1940 020b F713     		.uleb128 .LEHB95-.LFB1080
 1941 020d 05       		.uleb128 .LEHE95-.LEHB95
 1942 020e 00       		.uleb128 0
 1943 020f 00       		.uleb128 0
 1944              	.LLSDACSE1080:
 1945 0210 01       		.byte	0x1
 1946 0211 00       		.byte	0
 1947 0212 00       		.byte	0
 1948 0213 7D       		.byte	0x7d
 1949              		.align 4
 1950 0214 00000000 		.long	0
 1951              	
 1952              	.LLSDATT1080:
 1953              		.text
 1955              		.section	.rodata
 1956              	.LC10:
 1957 01c9 4932435F 		.string	"I2C_testWPRNoInit"
 1957      74657374 
 1957      5750524E 
 1957      6F496E69 
 1957      7400
 1958              		.section	.text._ZN21TestI2C_testWPRNoInitC2Ev,"axG",@progbits,_ZN21TestI2C_testWPRNoInitC5Ev,comda
 1959              		.align 2
 1960              		.weak	_ZN21TestI2C_testWPRNoInitC2Ev
 1962              	_ZN21TestI2C_testWPRNoInitC2Ev:
 1963              	.LFB1082:
  94:testI2C.cpp   **** 
  95:testI2C.cpp   **** TEST(I2C_testWPRNoInit) {
 1964              		.loc 3 95 0
 1965              		.cfi_startproc
 1966 0000 55       		pushq	%rbp
 1967              		.cfi_def_cfa_offset 16
 1968              		.cfi_offset 6, -16
 1969 0001 4889E5   		movq	%rsp, %rbp
 1970              		.cfi_def_cfa_register 6
 1971 0004 4883EC10 		subq	$16, %rsp
 1972 0008 48897DF8 		movq	%rdi, -8(%rbp)
 1973              	.LBB6:
 1974              		.loc 3 95 0
 1975 000c E8000000 		call	_ZN13UnitTestSuite12GetSuiteNameEv
 1975      00
 1976 0011 4889C2   		movq	%rax, %rdx
 1977 0014 488B45F8 		movq	-8(%rbp), %rax
 1978 0018 41B85F00 		movl	$95, %r8d
 1978      0000
 1979 001e B9000000 		movl	$.LC1, %ecx
 1979      00
 1980 0023 BE000000 		movl	$.LC10, %esi
 1980      00
 1981 0028 4889C7   		movq	%rax, %rdi
 1982 002b E8000000 		call	_ZN8UnitTest4TestC2EPKcS2_S2_i
 1982      00
 1983 0030 BA000000 		movl	$_ZTV21TestI2C_testWPRNoInit+16, %edx
 1983      00
 1984 0035 488B45F8 		movq	-8(%rbp), %rax
 1985 0039 488910   		movq	%rdx, (%rax)
 1986              	.LBE6:
 1987 003c 90       		nop
 1988 003d C9       		leave
 1989              		.cfi_def_cfa 7, 8
 1990 003e C3       		ret
 1991              		.cfi_endproc
 1992              	.LFE1082:
 1994              		.weak	_ZN21TestI2C_testWPRNoInitC1Ev
 1995              		.set	_ZN21TestI2C_testWPRNoInitC1Ev,_ZN21TestI2C_testWPRNoInitC2Ev
 1996              		.globl	testI2C_testWPRNoInitInstance
 1997              		.bss
 1998 0079 00000000 		.align 32
 1998      000000
 2001              	testI2C_testWPRNoInitInstance:
 2002 0080 00000000 		.zero	56
 2002      00000000 
 2002      00000000 
 2002      00000000 
 2002      00000000 
 2003              		.globl	adderI2C_testWPRNoInit
 2006              	adderI2C_testWPRNoInit:
 2007 00b8 00       		.zero	1
 2008              		.section	.rodata
 2009 01db 00000000 		.align 8
 2009      00
 2010              	.LC11:
 2011 01e0 556E6861 		.string	"Unhandled exception in CHECK_EQUAL(I2C_NOT_INITIALISED, iStatus)"
 2011      6E646C65 
 2011      64206578 
 2011      63657074 
 2011      696F6E20 
 2012              		.text
 2013 0e23 90       		.align 2
 2014              		.globl	_ZNK21TestI2C_testWPRNoInit7RunImplEv
 2016              	_ZNK21TestI2C_testWPRNoInit7RunImplEv:
 2017              	.LFB1084:
 2018              		.loc 3 95 0
 2019              		.cfi_startproc
 2020              		.cfi_personality 0x3,__gxx_personality_v0
 2021              		.cfi_lsda 0x3,.LLSDA1084
 2022 0e24 55       		pushq	%rbp
 2023              		.cfi_def_cfa_offset 16
 2024              		.cfi_offset 6, -16
 2025 0e25 4889E5   		movq	%rsp, %rbp
 2026              		.cfi_def_cfa_register 6
 2027 0e28 53       		pushq	%rbx
 2028 0e29 4883EC78 		subq	$120, %rsp
 2029              		.cfi_offset 3, -24
 2030 0e2d 48897D88 		movq	%rdi, -120(%rbp)
 2031              		.loc 3 95 0
 2032 0e31 64488B04 		movq	%fs:40, %rax
 2032      25280000 
 2032      00
 2033 0e3a 488945E8 		movq	%rax, -24(%rbp)
 2034 0e3e 31C0     		xorl	%eax, %eax
  96:testI2C.cpp   **** 	Buffer i2cBuffer;
  97:testI2C.cpp   **** 	I2CStatus iStatus;
  98:testI2C.cpp   **** 	BufferStatus bStatus;
  99:testI2C.cpp   **** 	bStatus = bufInitialise(&i2cBuffer, 8, 0x00, NULL);
 2035              		.loc 3 99 0
 2036 0e40 488D45A0 		leaq	-96(%rbp), %rax
 2037 0e44 B9000000 		movl	$0, %ecx
 2037      00
 2038 0e49 BA000000 		movl	$0, %edx
 2038      00
 2039 0e4e BE080000 		movl	$8, %esi
 2039      00
 2040 0e53 4889C7   		movq	%rax, %rdi
 2041              	.LEHB96:
 2042 0e56 E8000000 		call	bufInitialise
 2042      00
 2043              	.LEHE96:
 2044 0e5b 894598   		movl	%eax, -104(%rbp)
 2045              	.LEHB97:
 100:testI2C.cpp   **** 	CHECK_EQUAL(BUF_SUCCESS, bStatus);
 2046              		.loc 3 100 0
 2047 0e5e E8000000 		call	_ZN8UnitTest11CurrentTest7DetailsEv
 2047      00
 2048 0e63 488B08   		movq	(%rax), %rcx
 2049 0e66 488D45C0 		leaq	-64(%rbp), %rax
 2050 0e6a BA640000 		movl	$100, %edx
 2050      00
 2051 0e6f 4889CE   		movq	%rcx, %rsi
 2052 0e72 4889C7   		movq	%rax, %rdi
 2053 0e75 E8000000 		call	_ZN8UnitTest11TestDetailsC1ERKS0_i
 2053      00
 2054              	.LEHE97:
 2055              		.loc 3 100 0 is_stmt 0 discriminator 2
 2056 0e7a C7459C00 		movl	$0, -100(%rbp)
 2056      000000
 2057              	.LEHB98:
 2058 0e81 E8000000 		call	_ZN8UnitTest11CurrentTest7ResultsEv
 2058      00
 2059 0e86 488B00   		movq	(%rax), %rax
 2060 0e89 488D4DC0 		leaq	-64(%rbp), %rcx
 2061 0e8d 488D5598 		leaq	-104(%rbp), %rdx
 2062 0e91 488D759C 		leaq	-100(%rbp), %rsi
 2063 0e95 4889C7   		movq	%rax, %rdi
 2064 0e98 E8000000 		call	_ZN8UnitTest10CheckEqualI12BufferStatusS1_EEvRNS_11TestResultsERKT_RKT0_RKNS_11TestDetailsE
 2064      00
 2065              	.LEHE98:
 2066              	.L136:
 101:testI2C.cpp   **** 	iStatus = i2cWritePromRecords(&i2cBuffer, NULL, NULL, NULL);
 2067              		.loc 3 101 0 is_stmt 1
 2068 0e9d 488D45A0 		leaq	-96(%rbp), %rax
 2069 0ea1 B9000000 		movl	$0, %ecx
 2069      00
 2070 0ea6 BA000000 		movl	$0, %edx
 2070      00
 2071 0eab BE000000 		movl	$0, %esi
 2071      00
 2072 0eb0 4889C7   		movq	%rax, %rdi
 2073              	.LEHB99:
 2074 0eb3 E8000000 		call	i2cWritePromRecords
 2074      00
 2075              	.LEHE99:
 2076 0eb8 894594   		movl	%eax, -108(%rbp)
 2077              	.LEHB100:
 102:testI2C.cpp   **** 	CHECK_EQUAL(I2C_NOT_INITIALISED, iStatus);
 2078              		.loc 3 102 0
 2079 0ebb E8000000 		call	_ZN8UnitTest11CurrentTest7DetailsEv
 2079      00
 2080 0ec0 488B08   		movq	(%rax), %rcx
 2081 0ec3 488D45C0 		leaq	-64(%rbp), %rax
 2082 0ec7 BA660000 		movl	$102, %edx
 2082      00
 2083 0ecc 4889CE   		movq	%rcx, %rsi
 2084 0ecf 4889C7   		movq	%rax, %rdi
 2085 0ed2 E8000000 		call	_ZN8UnitTest11TestDetailsC1ERKS0_i
 2085      00
 2086              	.LEHE100:
 2087              		.loc 3 102 0 is_stmt 0 discriminator 2
 2088 0ed7 C7459C02 		movl	$2, -100(%rbp)
 2088      000000
 2089              	.LEHB101:
 2090 0ede E8000000 		call	_ZN8UnitTest11CurrentTest7ResultsEv
 2090      00
 2091 0ee3 488B00   		movq	(%rax), %rax
 2092 0ee6 488D4DC0 		leaq	-64(%rbp), %rcx
 2093 0eea 488D5594 		leaq	-108(%rbp), %rdx
 2094 0eee 488D759C 		leaq	-100(%rbp), %rsi
 2095 0ef2 4889C7   		movq	%rax, %rdi
 2096 0ef5 E8000000 		call	_ZN8UnitTest10CheckEqualI9I2CStatusS1_EEvRNS_11TestResultsERKT_RKT0_RKNS_11TestDetailsE
 2096      00
 2097              	.LEHE101:
 2098              	.L140:
 103:testI2C.cpp   **** 	bufDestroy(&i2cBuffer);
 2099              		.loc 3 103 0 is_stmt 1
 2100 0efa 488D45A0 		leaq	-96(%rbp), %rax
 2101 0efe 4889C7   		movq	%rax, %rdi
 2102              	.LEHB102:
 2103 0f01 E8000000 		call	bufDestroy
 2103      00
 2104              	.LEHE102:
 104:testI2C.cpp   **** }
 2105              		.loc 3 104 0
 2106 0f06 90       		nop
 2107 0f07 488B45E8 		movq	-24(%rbp), %rax
 2108 0f0b 64483304 		xorq	%fs:40, %rax
 2108      25280000 
 2108      00
 2109 0f14 0F84C800 		je	.L142
 2109      0000
 2110 0f1a E9BE0000 		jmp	.L149
 2110      00
 2111              	.L144:
 2112 0f1f EB00     		jmp	.L135
 2113              	.L143:
 2114              	.L135:
 100:testI2C.cpp   **** 	iStatus = i2cWritePromRecords(&i2cBuffer, NULL, NULL, NULL);
 2115              		.loc 3 100 0
 2116 0f21 4889C7   		movq	%rax, %rdi
 2117 0f24 E8000000 		call	__cxa_begin_catch
 2117      00
 2118              	.LEHB103:
 2119 0f29 E8000000 		call	_ZN8UnitTest11CurrentTest7DetailsEv
 2119      00
 2120 0f2e 488B08   		movq	(%rax), %rcx
 2121 0f31 488D45C0 		leaq	-64(%rbp), %rax
 2122 0f35 BA640000 		movl	$100, %edx
 2122      00
 2123 0f3a 4889CE   		movq	%rcx, %rsi
 2124 0f3d 4889C7   		movq	%rax, %rdi
 2125 0f40 E8000000 		call	_ZN8UnitTest11TestDetailsC1ERKS0_i
 2125      00
 100:testI2C.cpp   **** 	iStatus = i2cWritePromRecords(&i2cBuffer, NULL, NULL, NULL);
 2126              		.loc 3 100 0 is_stmt 0 discriminator 10
 2127 0f45 E8000000 		call	_ZN8UnitTest11CurrentTest7ResultsEv
 2127      00
 2128 0f4a 488B00   		movq	(%rax), %rax
 2129 0f4d 488D4DC0 		leaq	-64(%rbp), %rcx
 2130 0f51 BA000000 		movl	$.LC3, %edx
 2130      00
 2131 0f56 4889CE   		movq	%rcx, %rsi
 2132 0f59 4889C7   		movq	%rax, %rdi
 2133 0f5c E8000000 		call	_ZN8UnitTest11TestResults13OnTestFailureERKNS_11TestDetailsEPKc
 2133      00
 2134              	.LEHE103:
 2135              	.LEHB104:
 100:testI2C.cpp   **** 	iStatus = i2cWritePromRecords(&i2cBuffer, NULL, NULL, NULL);
 2136              		.loc 3 100 0 discriminator 14
 2137 0f61 E8000000 		call	__cxa_end_catch
 2137      00
 2138              	.LEHE104:
 2139 0f66 E932FFFF 		jmp	.L136
 2139      FF
 2140              	.L145:
 2141 0f6b 4889C3   		movq	%rax, %rbx
 100:testI2C.cpp   **** 	iStatus = i2cWritePromRecords(&i2cBuffer, NULL, NULL, NULL);
 2142              		.loc 3 100 0
 2143 0f6e E8000000 		call	__cxa_end_catch
 2143      00
 2144 0f73 4889D8   		movq	%rbx, %rax
 2145 0f76 4889C7   		movq	%rax, %rdi
 2146              	.LEHB105:
 2147 0f79 E8000000 		call	_Unwind_Resume
 2147      00
 2148              	.LEHE105:
 2149              	.L147:
 2150 0f7e EB00     		jmp	.L139
 2151              	.L146:
 2152              	.L139:
 102:testI2C.cpp   **** 	bufDestroy(&i2cBuffer);
 2153              		.loc 3 102 0 is_stmt 1
 2154 0f80 4889C7   		movq	%rax, %rdi
 2155 0f83 E8000000 		call	__cxa_begin_catch
 2155      00
 2156              	.LEHB106:
 2157 0f88 E8000000 		call	_ZN8UnitTest11CurrentTest7DetailsEv
 2157      00
 2158 0f8d 488B08   		movq	(%rax), %rcx
 2159 0f90 488D45C0 		leaq	-64(%rbp), %rax
 2160 0f94 BA660000 		movl	$102, %edx
 2160      00
 2161 0f99 4889CE   		movq	%rcx, %rsi
 2162 0f9c 4889C7   		movq	%rax, %rdi
 2163 0f9f E8000000 		call	_ZN8UnitTest11TestDetailsC1ERKS0_i
 2163      00
 102:testI2C.cpp   **** 	bufDestroy(&i2cBuffer);
 2164              		.loc 3 102 0 is_stmt 0 discriminator 10
 2165 0fa4 E8000000 		call	_ZN8UnitTest11CurrentTest7ResultsEv
 2165      00
 2166 0fa9 488B00   		movq	(%rax), %rax
 2167 0fac 488D4DC0 		leaq	-64(%rbp), %rcx
 2168 0fb0 BA000000 		movl	$.LC11, %edx
 2168      00
 2169 0fb5 4889CE   		movq	%rcx, %rsi
 2170 0fb8 4889C7   		movq	%rax, %rdi
 2171 0fbb E8000000 		call	_ZN8UnitTest11TestResults13OnTestFailureERKNS_11TestDetailsEPKc
 2171      00
 2172              	.LEHE106:
 2173              	.LEHB107:
 102:testI2C.cpp   **** 	bufDestroy(&i2cBuffer);
 2174              		.loc 3 102 0 discriminator 14
 2175 0fc0 E8000000 		call	__cxa_end_catch
 2175      00
 2176              	.LEHE107:
 2177 0fc5 E930FFFF 		jmp	.L140
 2177      FF
 2178              	.L148:
 2179 0fca 4889C3   		movq	%rax, %rbx
 102:testI2C.cpp   **** 	bufDestroy(&i2cBuffer);
 2180              		.loc 3 102 0
 2181 0fcd E8000000 		call	__cxa_end_catch
 2181      00
 2182 0fd2 4889D8   		movq	%rbx, %rax
 2183 0fd5 4889C7   		movq	%rax, %rdi
 2184              	.LEHB108:
 2185 0fd8 E8000000 		call	_Unwind_Resume
 2185      00
 2186              	.LEHE108:
 2187              	.L149:
 2188              		.loc 3 104 0 is_stmt 1
 2189 0fdd E8000000 		call	__stack_chk_fail
 2189      00
 2190              	.L142:
 2191 0fe2 4883C478 		addq	$120, %rsp
 2192 0fe6 5B       		popq	%rbx
 2193 0fe7 5D       		popq	%rbp
 2194              		.cfi_def_cfa 7, 8
 2195 0fe8 C3       		ret
 2196              		.cfi_endproc
 2197              	.LFE1084:
 2198              		.section	.gcc_except_table
 2199              		.align 4
 2200              	.LLSDA1084:
 2201 0218 FF       		.byte	0xff
 2202 0219 03       		.byte	0x3
 2203 021a 51       		.uleb128 .LLSDATT1084-.LLSDATTD1084
 2204              	.LLSDATTD1084:
 2205 021b 01       		.byte	0x1
 2206 021c 44       		.uleb128 .LLSDACSE1084-.LLSDACSB1084
 2207              	.LLSDACSB1084:
 2208 021d 32       		.uleb128 .LEHB96-.LFB1084
 2209 021e 05       		.uleb128 .LEHE96-.LEHB96
 2210 021f 00       		.uleb128 0
 2211 0220 00       		.uleb128 0
 2212 0221 3A       		.uleb128 .LEHB97-.LFB1084
 2213 0222 1C       		.uleb128 .LEHE97-.LEHB97
 2214 0223 FD01     		.uleb128 .L143-.LFB1084
 2215 0225 01       		.uleb128 0x1
 2216 0226 5D       		.uleb128 .LEHB98-.LFB1084
 2217 0227 1C       		.uleb128 .LEHE98-.LEHB98
 2218 0228 FB01     		.uleb128 .L144-.LFB1084
 2219 022a 03       		.uleb128 0x3
 2220 022b 8F01     		.uleb128 .LEHB99-.LFB1084
 2221 022d 05       		.uleb128 .LEHE99-.LEHB99
 2222 022e 00       		.uleb128 0
 2223 022f 00       		.uleb128 0
 2224 0230 9701     		.uleb128 .LEHB100-.LFB1084
 2225 0232 1C       		.uleb128 .LEHE100-.LEHB100
 2226 0233 DC02     		.uleb128 .L146-.LFB1084
 2227 0235 01       		.uleb128 0x1
 2228 0236 BA01     		.uleb128 .LEHB101-.LFB1084
 2229 0238 1C       		.uleb128 .LEHE101-.LEHB101
 2230 0239 DA02     		.uleb128 .L147-.LFB1084
 2231 023b 03       		.uleb128 0x3
 2232 023c DD01     		.uleb128 .LEHB102-.LFB1084
 2233 023e 05       		.uleb128 .LEHE102-.LEHB102
 2234 023f 00       		.uleb128 0
 2235 0240 00       		.uleb128 0
 2236 0241 8502     		.uleb128 .LEHB103-.LFB1084
 2237 0243 38       		.uleb128 .LEHE103-.LEHB103
 2238 0244 C702     		.uleb128 .L145-.LFB1084
 2239 0246 00       		.uleb128 0
 2240 0247 BD02     		.uleb128 .LEHB104-.LFB1084
 2241 0249 05       		.uleb128 .LEHE104-.LEHB104
 2242 024a 00       		.uleb128 0
 2243 024b 00       		.uleb128 0
 2244 024c D502     		.uleb128 .LEHB105-.LFB1084
 2245 024e 05       		.uleb128 .LEHE105-.LEHB105
 2246 024f 00       		.uleb128 0
 2247 0250 00       		.uleb128 0
 2248 0251 E402     		.uleb128 .LEHB106-.LFB1084
 2249 0253 38       		.uleb128 .LEHE106-.LEHB106
 2250 0254 A603     		.uleb128 .L148-.LFB1084
 2251 0256 00       		.uleb128 0
 2252 0257 9C03     		.uleb128 .LEHB107-.LFB1084
 2253 0259 05       		.uleb128 .LEHE107-.LEHB107
 2254 025a 00       		.uleb128 0
 2255 025b 00       		.uleb128 0
 2256 025c B403     		.uleb128 .LEHB108-.LFB1084
 2257 025e 05       		.uleb128 .LEHE108-.LEHB108
 2258 025f 00       		.uleb128 0
 2259 0260 00       		.uleb128 0
 2260              	.LLSDACSE1084:
 2261 0261 01       		.byte	0x1
 2262 0262 00       		.byte	0
 2263 0263 00       		.byte	0
 2264 0264 7D       		.byte	0x7d
 2265 0265 000000   		.align 4
 2266 0268 00000000 		.long	0
 2267              	
 2268              	.LLSDATT1084:
 2269              		.text
 2271              		.section	.rodata
 2272              	.LC12:
 2273 0221 4932435F 		.string	"I2C_testFinaliseNoInit"
 2273      74657374 
 2273      46696E61 
 2273      6C697365 
 2273      4E6F496E 
 2274              		.section	.text._ZN26TestI2C_testFinaliseNoInitC2Ev,"axG",@progbits,_ZN26TestI2C_testFinaliseNoInit
 2275              		.align 2
 2276              		.weak	_ZN26TestI2C_testFinaliseNoInitC2Ev
 2278              	_ZN26TestI2C_testFinaliseNoInitC2Ev:
 2279              	.LFB1086:
 105:testI2C.cpp   **** 
 106:testI2C.cpp   **** TEST(I2C_testFinaliseNoInit) {
 2280              		.loc 3 106 0
 2281              		.cfi_startproc
 2282 0000 55       		pushq	%rbp
 2283              		.cfi_def_cfa_offset 16
 2284              		.cfi_offset 6, -16
 2285 0001 4889E5   		movq	%rsp, %rbp
 2286              		.cfi_def_cfa_register 6
 2287 0004 4883EC10 		subq	$16, %rsp
 2288 0008 48897DF8 		movq	%rdi, -8(%rbp)
 2289              	.LBB7:
 2290              		.loc 3 106 0
 2291 000c E8000000 		call	_ZN13UnitTestSuite12GetSuiteNameEv
 2291      00
 2292 0011 4889C2   		movq	%rax, %rdx
 2293 0014 488B45F8 		movq	-8(%rbp), %rax
 2294 0018 41B86A00 		movl	$106, %r8d
 2294      0000
 2295 001e B9000000 		movl	$.LC1, %ecx
 2295      00
 2296 0023 BE000000 		movl	$.LC12, %esi
 2296      00
 2297 0028 4889C7   		movq	%rax, %rdi
 2298 002b E8000000 		call	_ZN8UnitTest4TestC2EPKcS2_S2_i
 2298      00
 2299 0030 BA000000 		movl	$_ZTV26TestI2C_testFinaliseNoInit+16, %edx
 2299      00
 2300 0035 488B45F8 		movq	-8(%rbp), %rax
 2301 0039 488910   		movq	%rdx, (%rax)
 2302              	.LBE7:
 2303 003c 90       		nop
 2304 003d C9       		leave
 2305              		.cfi_def_cfa 7, 8
 2306 003e C3       		ret
 2307              		.cfi_endproc
 2308              	.LFE1086:
 2310              		.weak	_ZN26TestI2C_testFinaliseNoInitC1Ev
 2311              		.set	_ZN26TestI2C_testFinaliseNoInitC1Ev,_ZN26TestI2C_testFinaliseNoInitC2Ev
 2312              		.globl	testI2C_testFinaliseNoInitInstance
 2313              		.bss
 2314 00b9 00000000 		.align 32
 2314      000000
 2317              	testI2C_testFinaliseNoInitInstance:
 2318 00c0 00000000 		.zero	56
 2318      00000000 
 2318      00000000 
 2318      00000000 
 2318      00000000 
 2319              		.globl	adderI2C_testFinaliseNoInit
 2322              	adderI2C_testFinaliseNoInit:
 2323 00f8 00       		.zero	1
 2324              		.text
 2325 0fe9 90       		.align 2
 2326              		.globl	_ZNK26TestI2C_testFinaliseNoInit7RunImplEv
 2328              	_ZNK26TestI2C_testFinaliseNoInit7RunImplEv:
 2329              	.LFB1088:
 2330              		.loc 3 106 0
 2331              		.cfi_startproc
 2332              		.cfi_personality 0x3,__gxx_personality_v0
 2333              		.cfi_lsda 0x3,.LLSDA1088
 2334 0fea 55       		pushq	%rbp
 2335              		.cfi_def_cfa_offset 16
 2336              		.cfi_offset 6, -16
 2337 0feb 4889E5   		movq	%rsp, %rbp
 2338              		.cfi_def_cfa_register 6
 2339 0fee 53       		pushq	%rbx
 2340 0fef 4883EC78 		subq	$120, %rsp
 2341              		.cfi_offset 3, -24
 2342 0ff3 48897D88 		movq	%rdi, -120(%rbp)
 2343              		.loc 3 106 0
 2344 0ff7 64488B04 		movq	%fs:40, %rax
 2344      25280000 
 2344      00
 2345 1000 488945E8 		movq	%rax, -24(%rbp)
 2346 1004 31C0     		xorl	%eax, %eax
 107:testI2C.cpp   **** 	Buffer buf;
 108:testI2C.cpp   **** 	I2CStatus iStatus;
 109:testI2C.cpp   **** 	BufferStatus bStatus;
 110:testI2C.cpp   **** 	bStatus = bufInitialise(&buf, 8, 0x00, NULL);
 2347              		.loc 3 110 0
 2348 1006 488D45A0 		leaq	-96(%rbp), %rax
 2349 100a B9000000 		movl	$0, %ecx
 2349      00
 2350 100f BA000000 		movl	$0, %edx
 2350      00
 2351 1014 BE080000 		movl	$8, %esi
 2351      00
 2352 1019 4889C7   		movq	%rax, %rdi
 2353              	.LEHB109:
 2354 101c E8000000 		call	bufInitialise
 2354      00
 2355              	.LEHE109:
 2356 1021 894598   		movl	%eax, -104(%rbp)
 2357              	.LEHB110:
 111:testI2C.cpp   **** 	CHECK_EQUAL(BUF_SUCCESS, bStatus);
 2358              		.loc 3 111 0
 2359 1024 E8000000 		call	_ZN8UnitTest11CurrentTest7DetailsEv
 2359      00
 2360 1029 488B08   		movq	(%rax), %rcx
 2361 102c 488D45C0 		leaq	-64(%rbp), %rax
 2362 1030 BA6F0000 		movl	$111, %edx
 2362      00
 2363 1035 4889CE   		movq	%rcx, %rsi
 2364 1038 4889C7   		movq	%rax, %rdi
 2365 103b E8000000 		call	_ZN8UnitTest11TestDetailsC1ERKS0_i
 2365      00
 2366              	.LEHE110:
 2367              		.loc 3 111 0 is_stmt 0 discriminator 2
 2368 1040 C7459C00 		movl	$0, -100(%rbp)
 2368      000000
 2369              	.LEHB111:
 2370 1047 E8000000 		call	_ZN8UnitTest11CurrentTest7ResultsEv
 2370      00
 2371 104c 488B00   		movq	(%rax), %rax
 2372 104f 488D4DC0 		leaq	-64(%rbp), %rcx
 2373 1053 488D5598 		leaq	-104(%rbp), %rdx
 2374 1057 488D759C 		leaq	-100(%rbp), %rsi
 2375 105b 4889C7   		movq	%rax, %rdi
 2376 105e E8000000 		call	_ZN8UnitTest10CheckEqualI12BufferStatusS1_EEvRNS_11TestResultsERKT_RKT0_RKNS_11TestDetailsE
 2376      00
 2377              	.LEHE111:
 2378              	.L154:
 112:testI2C.cpp   **** 	iStatus = i2cFinalise(&buf, NULL);
 2379              		.loc 3 112 0 is_stmt 1
 2380 1063 488D45A0 		leaq	-96(%rbp), %rax
 2381 1067 BE000000 		movl	$0, %esi
 2381      00
 2382 106c 4889C7   		movq	%rax, %rdi
 2383              	.LEHB112:
 2384 106f E8000000 		call	i2cFinalise
 2384      00
 2385              	.LEHE112:
 2386 1074 894594   		movl	%eax, -108(%rbp)
 2387              	.LEHB113:
 113:testI2C.cpp   **** 	CHECK_EQUAL(I2C_NOT_INITIALISED, iStatus);
 2388              		.loc 3 113 0
 2389 1077 E8000000 		call	_ZN8UnitTest11CurrentTest7DetailsEv
 2389      00
 2390 107c 488B08   		movq	(%rax), %rcx
 2391 107f 488D45C0 		leaq	-64(%rbp), %rax
 2392 1083 BA710000 		movl	$113, %edx
 2392      00
 2393 1088 4889CE   		movq	%rcx, %rsi
 2394 108b 4889C7   		movq	%rax, %rdi
 2395 108e E8000000 		call	_ZN8UnitTest11TestDetailsC1ERKS0_i
 2395      00
 2396              	.LEHE113:
 2397              		.loc 3 113 0 is_stmt 0 discriminator 2
 2398 1093 C7459C02 		movl	$2, -100(%rbp)
 2398      000000
 2399              	.LEHB114:
 2400 109a E8000000 		call	_ZN8UnitTest11CurrentTest7ResultsEv
 2400      00
 2401 109f 488B00   		movq	(%rax), %rax
 2402 10a2 488D4DC0 		leaq	-64(%rbp), %rcx
 2403 10a6 488D5594 		leaq	-108(%rbp), %rdx
 2404 10aa 488D759C 		leaq	-100(%rbp), %rsi
 2405 10ae 4889C7   		movq	%rax, %rdi
 2406 10b1 E8000000 		call	_ZN8UnitTest10CheckEqualI9I2CStatusS1_EEvRNS_11TestResultsERKT_RKT0_RKNS_11TestDetailsE
 2406      00
 2407              	.LEHE114:
 2408              	.L158:
 114:testI2C.cpp   **** 	bufDestroy(&buf);
 2409              		.loc 3 114 0 is_stmt 1
 2410 10b6 488D45A0 		leaq	-96(%rbp), %rax
 2411 10ba 4889C7   		movq	%rax, %rdi
 2412              	.LEHB115:
 2413 10bd E8000000 		call	bufDestroy
 2413      00
 2414              	.LEHE115:
 115:testI2C.cpp   **** }
 2415              		.loc 3 115 0
 2416 10c2 90       		nop
 2417 10c3 488B45E8 		movq	-24(%rbp), %rax
 2418 10c7 64483304 		xorq	%fs:40, %rax
 2418      25280000 
 2418      00
 2419 10d0 0F84C800 		je	.L160
 2419      0000
 2420 10d6 E9BE0000 		jmp	.L167
 2420      00
 2421              	.L162:
 2422 10db EB00     		jmp	.L153
 2423              	.L161:
 2424              	.L153:
 111:testI2C.cpp   **** 	iStatus = i2cFinalise(&buf, NULL);
 2425              		.loc 3 111 0
 2426 10dd 4889C7   		movq	%rax, %rdi
 2427 10e0 E8000000 		call	__cxa_begin_catch
 2427      00
 2428              	.LEHB116:
 2429 10e5 E8000000 		call	_ZN8UnitTest11CurrentTest7DetailsEv
 2429      00
 2430 10ea 488B08   		movq	(%rax), %rcx
 2431 10ed 488D45C0 		leaq	-64(%rbp), %rax
 2432 10f1 BA6F0000 		movl	$111, %edx
 2432      00
 2433 10f6 4889CE   		movq	%rcx, %rsi
 2434 10f9 4889C7   		movq	%rax, %rdi
 2435 10fc E8000000 		call	_ZN8UnitTest11TestDetailsC1ERKS0_i
 2435      00
 111:testI2C.cpp   **** 	iStatus = i2cFinalise(&buf, NULL);
 2436              		.loc 3 111 0 is_stmt 0 discriminator 10
 2437 1101 E8000000 		call	_ZN8UnitTest11CurrentTest7ResultsEv
 2437      00
 2438 1106 488B00   		movq	(%rax), %rax
 2439 1109 488D4DC0 		leaq	-64(%rbp), %rcx
 2440 110d BA000000 		movl	$.LC3, %edx
 2440      00
 2441 1112 4889CE   		movq	%rcx, %rsi
 2442 1115 4889C7   		movq	%rax, %rdi
 2443 1118 E8000000 		call	_ZN8UnitTest11TestResults13OnTestFailureERKNS_11TestDetailsEPKc
 2443      00
 2444              	.LEHE116:
 2445              	.LEHB117:
 111:testI2C.cpp   **** 	iStatus = i2cFinalise(&buf, NULL);
 2446              		.loc 3 111 0 discriminator 14
 2447 111d E8000000 		call	__cxa_end_catch
 2447      00
 2448              	.LEHE117:
 2449 1122 E93CFFFF 		jmp	.L154
 2449      FF
 2450              	.L163:
 2451 1127 4889C3   		movq	%rax, %rbx
 111:testI2C.cpp   **** 	iStatus = i2cFinalise(&buf, NULL);
 2452              		.loc 3 111 0
 2453 112a E8000000 		call	__cxa_end_catch
 2453      00
 2454 112f 4889D8   		movq	%rbx, %rax
 2455 1132 4889C7   		movq	%rax, %rdi
 2456              	.LEHB118:
 2457 1135 E8000000 		call	_Unwind_Resume
 2457      00
 2458              	.LEHE118:
 2459              	.L165:
 2460 113a EB00     		jmp	.L157
 2461              	.L164:
 2462              	.L157:
 113:testI2C.cpp   **** 	bufDestroy(&buf);
 2463              		.loc 3 113 0 is_stmt 1
 2464 113c 4889C7   		movq	%rax, %rdi
 2465 113f E8000000 		call	__cxa_begin_catch
 2465      00
 2466              	.LEHB119:
 2467 1144 E8000000 		call	_ZN8UnitTest11CurrentTest7DetailsEv
 2467      00
 2468 1149 488B08   		movq	(%rax), %rcx
 2469 114c 488D45C0 		leaq	-64(%rbp), %rax
 2470 1150 BA710000 		movl	$113, %edx
 2470      00
 2471 1155 4889CE   		movq	%rcx, %rsi
 2472 1158 4889C7   		movq	%rax, %rdi
 2473 115b E8000000 		call	_ZN8UnitTest11TestDetailsC1ERKS0_i
 2473      00
 113:testI2C.cpp   **** 	bufDestroy(&buf);
 2474              		.loc 3 113 0 is_stmt 0 discriminator 10
 2475 1160 E8000000 		call	_ZN8UnitTest11CurrentTest7ResultsEv
 2475      00
 2476 1165 488B00   		movq	(%rax), %rax
 2477 1168 488D4DC0 		leaq	-64(%rbp), %rcx
 2478 116c BA000000 		movl	$.LC11, %edx
 2478      00
 2479 1171 4889CE   		movq	%rcx, %rsi
 2480 1174 4889C7   		movq	%rax, %rdi
 2481 1177 E8000000 		call	_ZN8UnitTest11TestResults13OnTestFailureERKNS_11TestDetailsEPKc
 2481      00
 2482              	.LEHE119:
 2483              	.LEHB120:
 113:testI2C.cpp   **** 	bufDestroy(&buf);
 2484              		.loc 3 113 0 discriminator 14
 2485 117c E8000000 		call	__cxa_end_catch
 2485      00
 2486              	.LEHE120:
 2487 1181 E930FFFF 		jmp	.L158
 2487      FF
 2488              	.L166:
 2489 1186 4889C3   		movq	%rax, %rbx
 113:testI2C.cpp   **** 	bufDestroy(&buf);
 2490              		.loc 3 113 0
 2491 1189 E8000000 		call	__cxa_end_catch
 2491      00
 2492 118e 4889D8   		movq	%rbx, %rax
 2493 1191 4889C7   		movq	%rax, %rdi
 2494              	.LEHB121:
 2495 1194 E8000000 		call	_Unwind_Resume
 2495      00
 2496              	.LEHE121:
 2497              	.L167:
 2498              		.loc 3 115 0 is_stmt 1
 2499 1199 E8000000 		call	__stack_chk_fail
 2499      00
 2500              	.L160:
 2501 119e 4883C478 		addq	$120, %rsp
 2502 11a2 5B       		popq	%rbx
 2503 11a3 5D       		popq	%rbp
 2504              		.cfi_def_cfa 7, 8
 2505 11a4 C3       		ret
 2506              		.cfi_endproc
 2507              	.LFE1088:
 2508              		.section	.gcc_except_table
 2509              		.align 4
 2510              	.LLSDA1088:
 2511 026c FF       		.byte	0xff
 2512 026d 03       		.byte	0x3
 2513 026e 51       		.uleb128 .LLSDATT1088-.LLSDATTD1088
 2514              	.LLSDATTD1088:
 2515 026f 01       		.byte	0x1
 2516 0270 44       		.uleb128 .LLSDACSE1088-.LLSDACSB1088
 2517              	.LLSDACSB1088:
 2518 0271 32       		.uleb128 .LEHB109-.LFB1088
 2519 0272 05       		.uleb128 .LEHE109-.LEHB109
 2520 0273 00       		.uleb128 0
 2521 0274 00       		.uleb128 0
 2522 0275 3A       		.uleb128 .LEHB110-.LFB1088
 2523 0276 1C       		.uleb128 .LEHE110-.LEHB110
 2524 0277 F301     		.uleb128 .L161-.LFB1088
 2525 0279 01       		.uleb128 0x1
 2526 027a 5D       		.uleb128 .LEHB111-.LFB1088
 2527 027b 1C       		.uleb128 .LEHE111-.LEHB111
 2528 027c F101     		.uleb128 .L162-.LFB1088
 2529 027e 03       		.uleb128 0x3
 2530 027f 8501     		.uleb128 .LEHB112-.LFB1088
 2531 0281 05       		.uleb128 .LEHE112-.LEHB112
 2532 0282 00       		.uleb128 0
 2533 0283 00       		.uleb128 0
 2534 0284 8D01     		.uleb128 .LEHB113-.LFB1088
 2535 0286 1C       		.uleb128 .LEHE113-.LEHB113
 2536 0287 D202     		.uleb128 .L164-.LFB1088
 2537 0289 01       		.uleb128 0x1
 2538 028a B001     		.uleb128 .LEHB114-.LFB1088
 2539 028c 1C       		.uleb128 .LEHE114-.LEHB114
 2540 028d D002     		.uleb128 .L165-.LFB1088
 2541 028f 03       		.uleb128 0x3
 2542 0290 D301     		.uleb128 .LEHB115-.LFB1088
 2543 0292 05       		.uleb128 .LEHE115-.LEHB115
 2544 0293 00       		.uleb128 0
 2545 0294 00       		.uleb128 0
 2546 0295 FB01     		.uleb128 .LEHB116-.LFB1088
 2547 0297 38       		.uleb128 .LEHE116-.LEHB116
 2548 0298 BD02     		.uleb128 .L163-.LFB1088
 2549 029a 00       		.uleb128 0
 2550 029b B302     		.uleb128 .LEHB117-.LFB1088
 2551 029d 05       		.uleb128 .LEHE117-.LEHB117
 2552 029e 00       		.uleb128 0
 2553 029f 00       		.uleb128 0
 2554 02a0 CB02     		.uleb128 .LEHB118-.LFB1088
 2555 02a2 05       		.uleb128 .LEHE118-.LEHB118
 2556 02a3 00       		.uleb128 0
 2557 02a4 00       		.uleb128 0
 2558 02a5 DA02     		.uleb128 .LEHB119-.LFB1088
 2559 02a7 38       		.uleb128 .LEHE119-.LEHB119
 2560 02a8 9C03     		.uleb128 .L166-.LFB1088
 2561 02aa 00       		.uleb128 0
 2562 02ab 9203     		.uleb128 .LEHB120-.LFB1088
 2563 02ad 05       		.uleb128 .LEHE120-.LEHB120
 2564 02ae 00       		.uleb128 0
 2565 02af 00       		.uleb128 0
 2566 02b0 AA03     		.uleb128 .LEHB121-.LFB1088
 2567 02b2 05       		.uleb128 .LEHE121-.LEHB121
 2568 02b3 00       		.uleb128 0
 2569 02b4 00       		.uleb128 0
 2570              	.LLSDACSE1088:
 2571 02b5 01       		.byte	0x1
 2572 02b6 00       		.byte	0
 2573 02b7 00       		.byte	0
 2574 02b8 7D       		.byte	0x7d
 2575 02b9 000000   		.align 4
 2576 02bc 00000000 		.long	0
 2577              	
 2578              	.LLSDATT1088:
 2579              		.text
 2581              		.section	.text._ZN8UnitTest15MemoryOutStreamD1Ev,"axG",@progbits,_ZN8UnitTest15MemoryOutStreamD1Ev
 2582              		.align 2
 2583              		.weak	_ZN8UnitTest15MemoryOutStreamD1Ev
 2585              	_ZN8UnitTest15MemoryOutStreamD1Ev:
 2586              	.LFB1119:
  13:/home/shubham/20140524/makestuff/libs/libutpp/MemoryOutStream.h **** {
 2587              		.loc 2 13 0
 2588              		.cfi_startproc
 2589              		.cfi_personality 0x3,__gxx_personality_v0
 2590              		.cfi_lsda 0x3,.LLSDA1119
 2591 0000 55       		pushq	%rbp
 2592              		.cfi_def_cfa_offset 16
 2593              		.cfi_offset 6, -16
 2594 0001 4889E5   		movq	%rsp, %rbp
 2595              		.cfi_def_cfa_register 6
 2596 0004 53       		pushq	%rbx
 2597 0005 4883EC18 		subq	$24, %rsp
 2598              		.cfi_offset 3, -24
 2599 0009 48897DE8 		movq	%rdi, -24(%rbp)
 2600              	.LBB8:
  13:/home/shubham/20140524/makestuff/libs/libutpp/MemoryOutStream.h **** {
 2601              		.loc 2 13 0
 2602 000d BA000000 		movl	$_ZTVN8UnitTest15MemoryOutStreamE+24, %edx
 2602      00
 2603 0012 488B45E8 		movq	-24(%rbp), %rax
 2604 0016 488910   		movq	%rdx, (%rax)
 2605 0019 BA900000 		movl	$144, %edx
 2605      00
 2606 001e 488B45E8 		movq	-24(%rbp), %rax
 2607 0022 4801D0   		addq	%rdx, %rax
 2608 0025 BA000000 		movl	$_ZTVN8UnitTest15MemoryOutStreamE+64, %edx
 2608      00
 2609 002a 488910   		movq	%rdx, (%rax)
 2610 002d 488B45E8 		movq	-24(%rbp), %rax
 2611 0031 4883C070 		addq	$112, %rax
 2612 0035 4889C7   		movq	%rax, %rdi
 2613              	.LEHB122:
 2614 0038 E8000000 		call	_ZNSt7__cxx1112basic_stringIcSt11char_traitsIcESaIcEED1Ev
 2614      00
 2615              	.LEHE122:
  13:/home/shubham/20140524/makestuff/libs/libutpp/MemoryOutStream.h **** {
 2616              		.loc 2 13 0 is_stmt 0 discriminator 14
 2617 003d BA000000 		movl	$_ZTTN8UnitTest15MemoryOutStreamE+8, %edx
 2617      00
 2618 0042 488B45E8 		movq	-24(%rbp), %rax
 2619 0046 4889D6   		movq	%rdx, %rsi
 2620 0049 4889C7   		movq	%rax, %rdi
 2621              	.LEHB123:
 2622 004c E8000000 		call	_ZNSt7__cxx1119basic_ostringstreamIcSt11char_traitsIcESaIcEED2Ev
 2622      00
 2623              	.LEHE123:
  13:/home/shubham/20140524/makestuff/libs/libutpp/MemoryOutStream.h **** {
 2624              		.loc 2 13 0 discriminator 20
 2625 0051 B8020000 		movl	$2, %eax
 2625      00
 2626 0056 85C0     		testl	%eax, %eax
 2627 0058 7412     		je	.L169
  13:/home/shubham/20140524/makestuff/libs/libutpp/MemoryOutStream.h **** {
 2628              		.loc 2 13 0 discriminator 21
 2629 005a 488B45E8 		movq	-24(%rbp), %rax
 2630 005e 48059000 		addq	$144, %rax
 2630      0000
 2631 0064 4889C7   		movq	%rax, %rdi
 2632              	.LEHB124:
 2633 0067 E8000000 		call	_ZNSt9basic_iosIcSt11char_traitsIcEED2Ev
 2633      00
 2634              	.LEHE124:
 2635              	.L169:
 2636              	.LBE8:
  13:/home/shubham/20140524/makestuff/libs/libutpp/MemoryOutStream.h **** {
 2637              		.loc 2 13 0 discriminator 22
 2638 006c B8000000 		movl	$0, %eax
 2638      00
 2639 0071 85C0     		testl	%eax, %eax
 2640 0073 7450     		je	.L168
  13:/home/shubham/20140524/makestuff/libs/libutpp/MemoryOutStream.h **** {
 2641              		.loc 2 13 0 discriminator 25
 2642 0075 488B45E8 		movq	-24(%rbp), %rax
 2643 0079 4889C7   		movq	%rax, %rdi
 2644 007c E8000000 		call	_ZdlPv
 2644      00
 2645 0081 EB42     		jmp	.L168
 2646              	.L174:
 2647 0083 4889C3   		movq	%rax, %rbx
 2648              	.LBB9:
  13:/home/shubham/20140524/makestuff/libs/libutpp/MemoryOutStream.h **** {
 2649              		.loc 2 13 0
 2650 0086 BA000000 		movl	$_ZTTN8UnitTest15MemoryOutStreamE+8, %edx
 2650      00
 2651 008b 488B45E8 		movq	-24(%rbp), %rax
 2652 008f 4889D6   		movq	%rdx, %rsi
 2653 0092 4889C7   		movq	%rax, %rdi
 2654 0095 E8000000 		call	_ZNSt7__cxx1119basic_ostringstreamIcSt11char_traitsIcESaIcEED2Ev
 2654      00
 2655 009a EB03     		jmp	.L172
 2656              	.L175:
 2657 009c 4889C3   		movq	%rax, %rbx
 2658              	.L172:
  13:/home/shubham/20140524/makestuff/libs/libutpp/MemoryOutStream.h **** {
 2659              		.loc 2 13 0 discriminator 19
 2660 009f B8020000 		movl	$2, %eax
 2660      00
 2661 00a4 85C0     		testl	%eax, %eax
 2662 00a6 7412     		je	.L173
  13:/home/shubham/20140524/makestuff/libs/libutpp/MemoryOutStream.h **** {
 2663              		.loc 2 13 0 discriminator 32
 2664 00a8 488B45E8 		movq	-24(%rbp), %rax
 2665 00ac 48059000 		addq	$144, %rax
 2665      0000
 2666 00b2 4889C7   		movq	%rax, %rdi
 2667 00b5 E8000000 		call	_ZNSt9basic_iosIcSt11char_traitsIcEED2Ev
 2667      00
 2668              	.L173:
 2669 00ba 4889D8   		movq	%rbx, %rax
 2670 00bd 4889C7   		movq	%rax, %rdi
 2671              	.LEHB125:
 2672 00c0 E8000000 		call	_Unwind_Resume
 2672      00
 2673              	.LEHE125:
 2674              	.L168:
 2675              	.LBE9:
  13:/home/shubham/20140524/makestuff/libs/libutpp/MemoryOutStream.h **** {
 2676              		.loc 2 13 0
 2677 00c5 4883C418 		addq	$24, %rsp
 2678 00c9 5B       		popq	%rbx
 2679 00ca 5D       		popq	%rbp
 2680              		.cfi_def_cfa 7, 8
 2681 00cb C3       		ret
 2682              		.cfi_endproc
 2683              	.LFE1119:
 2684              		.section	.gcc_except_table
 2685              	.LLSDA1119:
 2686 02c0 FF       		.byte	0xff
 2687 02c1 FF       		.byte	0xff
 2688 02c2 01       		.byte	0x1
 2689 02c3 13       		.uleb128 .LLSDACSE1119-.LLSDACSB1119
 2690              	.LLSDACSB1119:
 2691 02c4 38       		.uleb128 .LEHB122-.LFB1119
 2692 02c5 05       		.uleb128 .LEHE122-.LEHB122
 2693 02c6 8301     		.uleb128 .L174-.LFB1119
 2694 02c8 00       		.uleb128 0
 2695 02c9 4C       		.uleb128 .LEHB123-.LFB1119
 2696 02ca 05       		.uleb128 .LEHE123-.LEHB123
 2697 02cb 9C01     		.uleb128 .L175-.LFB1119
 2698 02cd 00       		.uleb128 0
 2699 02ce 67       		.uleb128 .LEHB124-.LFB1119
 2700 02cf 05       		.uleb128 .LEHE124-.LEHB124
 2701 02d0 00       		.uleb128 0
 2702 02d1 00       		.uleb128 0
 2703 02d2 C001     		.uleb128 .LEHB125-.LFB1119
 2704 02d4 05       		.uleb128 .LEHE125-.LEHB125
 2705 02d5 00       		.uleb128 0
 2706 02d6 00       		.uleb128 0
 2707              	.LLSDACSE1119:
 2708              		.section	.text._ZN8UnitTest15MemoryOutStreamD1Ev,"axG",@progbits,_ZN8UnitTest15MemoryOutStreamD1Ev
 2710              		.set	.LTHUNK0,_ZN8UnitTest15MemoryOutStreamD1Ev
 2711              		.weak	_ZTv0_n24_N8UnitTest15MemoryOutStreamD1Ev
 2713              	_ZTv0_n24_N8UnitTest15MemoryOutStreamD1Ev:
 2714              	.LFB1198:
  13:/home/shubham/20140524/makestuff/libs/libutpp/MemoryOutStream.h **** {
 2715              		.loc 2 13 0 is_stmt 1
 2716              		.cfi_startproc
 2717 00cc 4C8B17   		movq	(%rdi), %r10
 2718 00cf 49037AE8 		addq	-24(%r10), %rdi
 2719 00d3 E928FFFF 		jmp	.LTHUNK0
 2719      FF
 2720              		.cfi_endproc
 2721              	.LFE1198:
 2723              		.section	.text._ZN8UnitTest15MemoryOutStreamD0Ev,"axG",@progbits,_ZN8UnitTest15MemoryOutStreamD0Ev
 2724              		.align 2
 2725              		.weak	_ZN8UnitTest15MemoryOutStreamD0Ev
 2727              	_ZN8UnitTest15MemoryOutStreamD0Ev:
 2728              	.LFB1120:
  13:/home/shubham/20140524/makestuff/libs/libutpp/MemoryOutStream.h **** {
 2729              		.loc 2 13 0
 2730              		.cfi_startproc
 2731 0000 55       		pushq	%rbp
 2732              		.cfi_def_cfa_offset 16
 2733              		.cfi_offset 6, -16
 2734 0001 4889E5   		movq	%rsp, %rbp
 2735              		.cfi_def_cfa_register 6
 2736 0004 4883EC10 		subq	$16, %rsp
 2737 0008 48897DF8 		movq	%rdi, -8(%rbp)
  13:/home/shubham/20140524/makestuff/libs/libutpp/MemoryOutStream.h **** {
 2738              		.loc 2 13 0
 2739 000c 488B45F8 		movq	-8(%rbp), %rax
 2740 0010 4889C7   		movq	%rax, %rdi
 2741 0013 E8000000 		call	_ZN8UnitTest15MemoryOutStreamD1Ev
 2741      00
 2742 0018 488B45F8 		movq	-8(%rbp), %rax
 2743 001c 4889C7   		movq	%rax, %rdi
 2744 001f E8000000 		call	_ZdlPv
 2744      00
 2745 0024 C9       		leave
 2746              		.cfi_def_cfa 7, 8
 2747 0025 C3       		ret
 2748              		.cfi_endproc
 2749              	.LFE1120:
 2751              		.set	.LTHUNK1,_ZN8UnitTest15MemoryOutStreamD0Ev
 2752              		.weak	_ZTv0_n24_N8UnitTest15MemoryOutStreamD0Ev
 2754              	_ZTv0_n24_N8UnitTest15MemoryOutStreamD0Ev:
 2755              	.LFB1199:
  13:/home/shubham/20140524/makestuff/libs/libutpp/MemoryOutStream.h **** {
 2756              		.loc 2 13 0
 2757              		.cfi_startproc
 2758 0026 4C8B17   		movq	(%rdi), %r10
 2759 0029 49037AE8 		addq	-24(%r10), %rdi
 2760 002d EBD1     		jmp	.LTHUNK1
 2761              		.cfi_endproc
 2762              	.LFE1199:
 2764              		.section	.rodata
 2765              	.LC13:
 2766 0238 45787065 		.string	"Expected "
 2766      63746564 
 2766      2000
 2767              	.LC14:
 2768 0242 20627574 		.string	" but was "
 2768      20776173 
 2768      2000
 2769              		.section	.text._ZN8UnitTest10CheckEqualI12BufferStatusS1_EEvRNS_11TestResultsERKT_RKT0_RKNS_11Test
 2770              		.weak	_ZN8UnitTest10CheckEqualI12BufferStatusS1_EEvRNS_11TestResultsERKT_RKT0_RKNS_11TestDetailsE
 2772              	_ZN8UnitTest10CheckEqualI12BufferStatusS1_EEvRNS_11TestResultsERKT_RKT0_RKNS_11TestDetailsE:
 2773              	.LFB1116:
 2774              		.file 4 "/home/shubham/20140524/makestuff/libs/libutpp/Checks.h"
   1:/home/shubham/20140524/makestuff/libs/libutpp/Checks.h **** #ifndef UNITTEST_CHECKS_H
   2:/home/shubham/20140524/makestuff/libs/libutpp/Checks.h **** #define UNITTEST_CHECKS_H
   3:/home/shubham/20140524/makestuff/libs/libutpp/Checks.h **** 
   4:/home/shubham/20140524/makestuff/libs/libutpp/Checks.h **** #include "Config.h"
   5:/home/shubham/20140524/makestuff/libs/libutpp/Checks.h **** #include "TestResults.h"
   6:/home/shubham/20140524/makestuff/libs/libutpp/Checks.h **** #include "MemoryOutStream.h"
   7:/home/shubham/20140524/makestuff/libs/libutpp/Checks.h **** 
   8:/home/shubham/20140524/makestuff/libs/libutpp/Checks.h **** namespace UnitTest {
   9:/home/shubham/20140524/makestuff/libs/libutpp/Checks.h **** 
  10:/home/shubham/20140524/makestuff/libs/libutpp/Checks.h **** 
  11:/home/shubham/20140524/makestuff/libs/libutpp/Checks.h **** template< typename Value >
  12:/home/shubham/20140524/makestuff/libs/libutpp/Checks.h **** bool Check(Value const value)
  13:/home/shubham/20140524/makestuff/libs/libutpp/Checks.h **** {
  14:/home/shubham/20140524/makestuff/libs/libutpp/Checks.h ****     return !!value; // doing double negative to avoid silly VS warnings
  15:/home/shubham/20140524/makestuff/libs/libutpp/Checks.h **** }
  16:/home/shubham/20140524/makestuff/libs/libutpp/Checks.h **** 
  17:/home/shubham/20140524/makestuff/libs/libutpp/Checks.h **** 
  18:/home/shubham/20140524/makestuff/libs/libutpp/Checks.h **** template< typename Expected, typename Actual >
  19:/home/shubham/20140524/makestuff/libs/libutpp/Checks.h **** void CheckEqual(TestResults& results, Expected const& expected, Actual const& actual, TestDetails c
 2775              		.loc 4 19 0
 2776              		.cfi_startproc
 2777              		.cfi_personality 0x3,__gxx_personality_v0
 2778              		.cfi_lsda 0x3,.LLSDA1116
 2779 0000 55       		pushq	%rbp
 2780              		.cfi_def_cfa_offset 16
 2781              		.cfi_offset 6, -16
 2782 0001 4889E5   		movq	%rsp, %rbp
 2783              		.cfi_def_cfa_register 6
 2784 0004 4154     		pushq	%r12
 2785 0006 53       		pushq	%rbx
 2786 0007 4881ECC0 		subq	$448, %rsp
 2786      010000
 2787              		.cfi_offset 12, -24
 2788              		.cfi_offset 3, -32
 2789 000e 4889BD48 		movq	%rdi, -440(%rbp)
 2789      FEFFFF
 2790 0015 4889B540 		movq	%rsi, -448(%rbp)
 2790      FEFFFF
 2791 001c 48899538 		movq	%rdx, -456(%rbp)
 2791      FEFFFF
 2792 0023 48898D30 		movq	%rcx, -464(%rbp)
 2792      FEFFFF
 2793              		.loc 4 19 0
 2794 002a 64488B04 		movq	%fs:40, %rax
 2794      25280000 
 2794      00
 2795 0033 488945E8 		movq	%rax, -24(%rbp)
 2796 0037 31C0     		xorl	%eax, %eax
 2797              	.LBB10:
  20:/home/shubham/20140524/makestuff/libs/libutpp/Checks.h **** {
  21:/home/shubham/20140524/makestuff/libs/libutpp/Checks.h ****     if (!(expected == actual))
 2798              		.loc 4 21 0
 2799 0039 488B8540 		movq	-448(%rbp), %rax
 2799      FEFFFF
 2800 0040 8B10     		movl	(%rax), %edx
 2801 0042 488B8538 		movq	-456(%rbp), %rax
 2801      FEFFFF
 2802 0049 8B00     		movl	(%rax), %eax
 2803 004b 39C2     		cmpl	%eax, %edx
 2804 004d 0F84B500 		je	.L182
 2804      0000
 2805              	.LBB11:
  22:/home/shubham/20140524/makestuff/libs/libutpp/Checks.h ****     {
  23:/home/shubham/20140524/makestuff/libs/libutpp/Checks.h ****         UnitTest::MemoryOutStream stream;
 2806              		.loc 4 23 0
 2807 0053 488D8550 		leaq	-432(%rbp), %rax
 2807      FEFFFF
 2808 005a 4889C7   		movq	%rax, %rdi
 2809              	.LEHB126:
 2810 005d E8000000 		call	_ZN8UnitTest15MemoryOutStreamC1Ev
 2810      00
 2811              	.LEHE126:
  24:/home/shubham/20140524/makestuff/libs/libutpp/Checks.h ****         stream << "Expected " << expected << " but was " << actual;
 2812              		.loc 4 24 0
 2813 0062 488B8538 		movq	-456(%rbp), %rax
 2813      FEFFFF
 2814 0069 8B00     		movl	(%rax), %eax
 2815 006b 89C3     		movl	%eax, %ebx
 2816 006d 488B8540 		movq	-448(%rbp), %rax
 2816      FEFFFF
 2817 0074 8B00     		movl	(%rax), %eax
 2818 0076 4189C4   		movl	%eax, %r12d
 2819 0079 488D8550 		leaq	-432(%rbp), %rax
 2819      FEFFFF
 2820 0080 BE000000 		movl	$.LC13, %esi
 2820      00
 2821 0085 4889C7   		movq	%rax, %rdi
 2822              	.LEHB127:
 2823 0088 E8000000 		call	_ZStlsISt11char_traitsIcEERSt13basic_ostreamIcT_ES5_PKc
 2823      00
 2824 008d 4489E6   		movl	%r12d, %esi
 2825 0090 4889C7   		movq	%rax, %rdi
 2826 0093 E8000000 		call	_ZNSolsEi
 2826      00
 2827              		.loc 4 24 0 is_stmt 0 discriminator 1
 2828 0098 BE000000 		movl	$.LC14, %esi
 2828      00
 2829 009d 4889C7   		movq	%rax, %rdi
 2830 00a0 E8000000 		call	_ZStlsISt11char_traitsIcEERSt13basic_ostreamIcT_ES5_PKc
 2830      00
 2831              		.loc 4 24 0 discriminator 2
 2832 00a5 89DE     		movl	%ebx, %esi
 2833 00a7 4889C7   		movq	%rax, %rdi
 2834 00aa E8000000 		call	_ZNSolsEi
 2834      00
  25:/home/shubham/20140524/makestuff/libs/libutpp/Checks.h **** 
  26:/home/shubham/20140524/makestuff/libs/libutpp/Checks.h ****         results.OnTestFailure(details, stream.GetText());
 2835              		.loc 4 26 0 is_stmt 1
 2836 00af 488D8550 		leaq	-432(%rbp), %rax
 2836      FEFFFF
 2837 00b6 4889C7   		movq	%rax, %rdi
 2838 00b9 E8000000 		call	_ZNK8UnitTest15MemoryOutStream7GetTextEv
 2838      00
 2839 00be 4889C2   		movq	%rax, %rdx
 2840 00c1 488B8D30 		movq	-464(%rbp), %rcx
 2840      FEFFFF
 2841 00c8 488B8548 		movq	-440(%rbp), %rax
 2841      FEFFFF
 2842 00cf 4889CE   		movq	%rcx, %rsi
 2843 00d2 4889C7   		movq	%rax, %rdi
 2844 00d5 E8000000 		call	_ZN8UnitTest11TestResults13OnTestFailureERKNS_11TestDetailsEPKc
 2844      00
 2845              	.LEHE127:
  23:/home/shubham/20140524/makestuff/libs/libutpp/Checks.h ****         stream << "Expected " << expected << " but was " << actual;
 2846              		.loc 4 23 0
 2847 00da 488D8550 		leaq	-432(%rbp), %rax
 2847      FEFFFF
 2848 00e1 4889C7   		movq	%rax, %rdi
 2849              	.LEHB128:
 2850 00e4 E8000000 		call	_ZN8UnitTest15MemoryOutStreamD1Ev
 2850      00
 2851              	.LEHE128:
 2852              	.LBE11:
 2853              	.LBE10:
  27:/home/shubham/20140524/makestuff/libs/libutpp/Checks.h ****     }
  28:/home/shubham/20140524/makestuff/libs/libutpp/Checks.h **** }
 2854              		.loc 4 28 0
 2855 00e9 EB1D     		jmp	.L182
 2856              	.L181:
 2857 00eb 4889C3   		movq	%rax, %rbx
 2858              	.LBB13:
 2859              	.LBB12:
  23:/home/shubham/20140524/makestuff/libs/libutpp/Checks.h ****         stream << "Expected " << expected << " but was " << actual;
 2860              		.loc 4 23 0
 2861 00ee 488D8550 		leaq	-432(%rbp), %rax
 2861      FEFFFF
 2862 00f5 4889C7   		movq	%rax, %rdi
 2863 00f8 E8000000 		call	_ZN8UnitTest15MemoryOutStreamD1Ev
 2863      00
 2864 00fd 4889D8   		movq	%rbx, %rax
 2865 0100 4889C7   		movq	%rax, %rdi
 2866              	.LEHB129:
 2867 0103 E8000000 		call	_Unwind_Resume
 2867      00
 2868              	.LEHE129:
 2869              	.L182:
 2870              	.LBE12:
 2871              	.LBE13:
 2872              		.loc 4 28 0
 2873 0108 90       		nop
 2874 0109 488B45E8 		movq	-24(%rbp), %rax
 2875 010d 64483304 		xorq	%fs:40, %rax
 2875      25280000 
 2875      00
 2876 0116 7405     		je	.L180
 2877 0118 E8000000 		call	__stack_chk_fail
 2877      00
 2878              	.L180:
 2879 011d 4881C4C0 		addq	$448, %rsp
 2879      010000
 2880 0124 5B       		popq	%rbx
 2881 0125 415C     		popq	%r12
 2882 0127 5D       		popq	%rbp
 2883              		.cfi_def_cfa 7, 8
 2884 0128 C3       		ret
 2885              		.cfi_endproc
 2886              	.LFE1116:
 2887              		.section	.gcc_except_table
 2888              	.LLSDA1116:
 2889 02d7 FF       		.byte	0xff
 2890 02d8 FF       		.byte	0xff
 2891 02d9 01       		.byte	0x1
 2892 02da 14       		.uleb128 .LLSDACSE1116-.LLSDACSB1116
 2893              	.LLSDACSB1116:
 2894 02db 5D       		.uleb128 .LEHB126-.LFB1116
 2895 02dc 05       		.uleb128 .LEHE126-.LEHB126
 2896 02dd 00       		.uleb128 0
 2897 02de 00       		.uleb128 0
 2898 02df 8801     		.uleb128 .LEHB127-.LFB1116
 2899 02e1 52       		.uleb128 .LEHE127-.LEHB127
 2900 02e2 EB01     		.uleb128 .L181-.LFB1116
 2901 02e4 00       		.uleb128 0
 2902 02e5 E401     		.uleb128 .LEHB128-.LFB1116
 2903 02e7 05       		.uleb128 .LEHE128-.LEHB128
 2904 02e8 00       		.uleb128 0
 2905 02e9 00       		.uleb128 0
 2906 02ea 8302     		.uleb128 .LEHB129-.LFB1116
 2907 02ec 05       		.uleb128 .LEHE129-.LEHB129
 2908 02ed 00       		.uleb128 0
 2909 02ee 00       		.uleb128 0
 2910              	.LLSDACSE1116:
 2911              		.section	.text._ZN8UnitTest10CheckEqualI12BufferStatusS1_EEvRNS_11TestResultsERKT_RKT0_RKNS_11Test
 2913              		.section	.text._ZN8UnitTest10CheckEqualI9I2CStatusS1_EEvRNS_11TestResultsERKT_RKT0_RKNS_11TestDeta
 2914              		.weak	_ZN8UnitTest10CheckEqualI9I2CStatusS1_EEvRNS_11TestResultsERKT_RKT0_RKNS_11TestDetailsE
 2916              	_ZN8UnitTest10CheckEqualI9I2CStatusS1_EEvRNS_11TestResultsERKT_RKT0_RKNS_11TestDetailsE:
 2917              	.LFB1121:
  19:/home/shubham/20140524/makestuff/libs/libutpp/Checks.h **** {
 2918              		.loc 4 19 0
 2919              		.cfi_startproc
 2920              		.cfi_personality 0x3,__gxx_personality_v0
 2921              		.cfi_lsda 0x3,.LLSDA1121
 2922 0000 55       		pushq	%rbp
 2923              		.cfi_def_cfa_offset 16
 2924              		.cfi_offset 6, -16
 2925 0001 4889E5   		movq	%rsp, %rbp
 2926              		.cfi_def_cfa_register 6
 2927 0004 4154     		pushq	%r12
 2928 0006 53       		pushq	%rbx
 2929 0007 4881ECC0 		subq	$448, %rsp
 2929      010000
 2930              		.cfi_offset 12, -24
 2931              		.cfi_offset 3, -32
 2932 000e 4889BD48 		movq	%rdi, -440(%rbp)
 2932      FEFFFF
 2933 0015 4889B540 		movq	%rsi, -448(%rbp)
 2933      FEFFFF
 2934 001c 48899538 		movq	%rdx, -456(%rbp)
 2934      FEFFFF
 2935 0023 48898D30 		movq	%rcx, -464(%rbp)
 2935      FEFFFF
  19:/home/shubham/20140524/makestuff/libs/libutpp/Checks.h **** {
 2936              		.loc 4 19 0
 2937 002a 64488B04 		movq	%fs:40, %rax
 2937      25280000 
 2937      00
 2938 0033 488945E8 		movq	%rax, -24(%rbp)
 2939 0037 31C0     		xorl	%eax, %eax
 2940              	.LBB14:
  21:/home/shubham/20140524/makestuff/libs/libutpp/Checks.h ****     {
 2941              		.loc 4 21 0
 2942 0039 488B8540 		movq	-448(%rbp), %rax
 2942      FEFFFF
 2943 0040 8B10     		movl	(%rax), %edx
 2944 0042 488B8538 		movq	-456(%rbp), %rax
 2944      FEFFFF
 2945 0049 8B00     		movl	(%rax), %eax
 2946 004b 39C2     		cmpl	%eax, %edx
 2947 004d 0F84B500 		je	.L188
 2947      0000
 2948              	.LBB15:
  23:/home/shubham/20140524/makestuff/libs/libutpp/Checks.h ****         stream << "Expected " << expected << " but was " << actual;
 2949              		.loc 4 23 0
 2950 0053 488D8550 		leaq	-432(%rbp), %rax
 2950      FEFFFF
 2951 005a 4889C7   		movq	%rax, %rdi
 2952              	.LEHB130:
 2953 005d E8000000 		call	_ZN8UnitTest15MemoryOutStreamC1Ev
 2953      00
 2954              	.LEHE130:
  24:/home/shubham/20140524/makestuff/libs/libutpp/Checks.h **** 
 2955              		.loc 4 24 0
 2956 0062 488B8538 		movq	-456(%rbp), %rax
 2956      FEFFFF
 2957 0069 8B00     		movl	(%rax), %eax
 2958 006b 89C3     		movl	%eax, %ebx
 2959 006d 488B8540 		movq	-448(%rbp), %rax
 2959      FEFFFF
 2960 0074 8B00     		movl	(%rax), %eax
 2961 0076 4189C4   		movl	%eax, %r12d
 2962 0079 488D8550 		leaq	-432(%rbp), %rax
 2962      FEFFFF
 2963 0080 BE000000 		movl	$.LC13, %esi
 2963      00
 2964 0085 4889C7   		movq	%rax, %rdi
 2965              	.LEHB131:
 2966 0088 E8000000 		call	_ZStlsISt11char_traitsIcEERSt13basic_ostreamIcT_ES5_PKc
 2966      00
 2967 008d 4489E6   		movl	%r12d, %esi
 2968 0090 4889C7   		movq	%rax, %rdi
 2969 0093 E8000000 		call	_ZNSolsEi
 2969      00
  24:/home/shubham/20140524/makestuff/libs/libutpp/Checks.h **** 
 2970              		.loc 4 24 0 is_stmt 0 discriminator 1
 2971 0098 BE000000 		movl	$.LC14, %esi
 2971      00
 2972 009d 4889C7   		movq	%rax, %rdi
 2973 00a0 E8000000 		call	_ZStlsISt11char_traitsIcEERSt13basic_ostreamIcT_ES5_PKc
 2973      00
  24:/home/shubham/20140524/makestuff/libs/libutpp/Checks.h **** 
 2974              		.loc 4 24 0 discriminator 2
 2975 00a5 89DE     		movl	%ebx, %esi
 2976 00a7 4889C7   		movq	%rax, %rdi
 2977 00aa E8000000 		call	_ZNSolsEi
 2977      00
  26:/home/shubham/20140524/makestuff/libs/libutpp/Checks.h ****     }
 2978              		.loc 4 26 0 is_stmt 1
 2979 00af 488D8550 		leaq	-432(%rbp), %rax
 2979      FEFFFF
 2980 00b6 4889C7   		movq	%rax, %rdi
 2981 00b9 E8000000 		call	_ZNK8UnitTest15MemoryOutStream7GetTextEv
 2981      00
 2982 00be 4889C2   		movq	%rax, %rdx
 2983 00c1 488B8D30 		movq	-464(%rbp), %rcx
 2983      FEFFFF
 2984 00c8 488B8548 		movq	-440(%rbp), %rax
 2984      FEFFFF
 2985 00cf 4889CE   		movq	%rcx, %rsi
 2986 00d2 4889C7   		movq	%rax, %rdi
 2987 00d5 E8000000 		call	_ZN8UnitTest11TestResults13OnTestFailureERKNS_11TestDetailsEPKc
 2987      00
 2988              	.LEHE131:
  23:/home/shubham/20140524/makestuff/libs/libutpp/Checks.h ****         stream << "Expected " << expected << " but was " << actual;
 2989              		.loc 4 23 0
 2990 00da 488D8550 		leaq	-432(%rbp), %rax
 2990      FEFFFF
 2991 00e1 4889C7   		movq	%rax, %rdi
 2992              	.LEHB132:
 2993 00e4 E8000000 		call	_ZN8UnitTest15MemoryOutStreamD1Ev
 2993      00
 2994              	.LEHE132:
 2995              	.LBE15:
 2996              	.LBE14:
 2997              		.loc 4 28 0
 2998 00e9 EB1D     		jmp	.L188
 2999              	.L187:
 3000 00eb 4889C3   		movq	%rax, %rbx
 3001              	.LBB17:
 3002              	.LBB16:
  23:/home/shubham/20140524/makestuff/libs/libutpp/Checks.h ****         stream << "Expected " << expected << " but was " << actual;
 3003              		.loc 4 23 0
 3004 00ee 488D8550 		leaq	-432(%rbp), %rax
 3004      FEFFFF
 3005 00f5 4889C7   		movq	%rax, %rdi
 3006 00f8 E8000000 		call	_ZN8UnitTest15MemoryOutStreamD1Ev
 3006      00
 3007 00fd 4889D8   		movq	%rbx, %rax
 3008 0100 4889C7   		movq	%rax, %rdi
 3009              	.LEHB133:
 3010 0103 E8000000 		call	_Unwind_Resume
 3010      00
 3011              	.LEHE133:
 3012              	.L188:
 3013              	.LBE16:
 3014              	.LBE17:
 3015              		.loc 4 28 0
 3016 0108 90       		nop
 3017 0109 488B45E8 		movq	-24(%rbp), %rax
 3018 010d 64483304 		xorq	%fs:40, %rax
 3018      25280000 
 3018      00
 3019 0116 7405     		je	.L186
 3020 0118 E8000000 		call	__stack_chk_fail
 3020      00
 3021              	.L186:
 3022 011d 4881C4C0 		addq	$448, %rsp
 3022      010000
 3023 0124 5B       		popq	%rbx
 3024 0125 415C     		popq	%r12
 3025 0127 5D       		popq	%rbp
 3026              		.cfi_def_cfa 7, 8
 3027 0128 C3       		ret
 3028              		.cfi_endproc
 3029              	.LFE1121:
 3030              		.section	.gcc_except_table
 3031              	.LLSDA1121:
 3032 02ef FF       		.byte	0xff
 3033 02f0 FF       		.byte	0xff
 3034 02f1 01       		.byte	0x1
 3035 02f2 14       		.uleb128 .LLSDACSE1121-.LLSDACSB1121
 3036              	.LLSDACSB1121:
 3037 02f3 5D       		.uleb128 .LEHB130-.LFB1121
 3038 02f4 05       		.uleb128 .LEHE130-.LEHB130
 3039 02f5 00       		.uleb128 0
 3040 02f6 00       		.uleb128 0
 3041 02f7 8801     		.uleb128 .LEHB131-.LFB1121
 3042 02f9 52       		.uleb128 .LEHE131-.LEHB131
 3043 02fa EB01     		.uleb128 .L187-.LFB1121
 3044 02fc 00       		.uleb128 0
 3045 02fd E401     		.uleb128 .LEHB132-.LFB1121
 3046 02ff 05       		.uleb128 .LEHE132-.LEHB132
 3047 0300 00       		.uleb128 0
 3048 0301 00       		.uleb128 0
 3049 0302 8302     		.uleb128 .LEHB133-.LFB1121
 3050 0304 05       		.uleb128 .LEHE133-.LEHB133
 3051 0305 00       		.uleb128 0
 3052 0306 00       		.uleb128 0
 3053              	.LLSDACSE1121:
 3054              		.section	.text._ZN8UnitTest10CheckEqualI9I2CStatusS1_EEvRNS_11TestResultsERKT_RKT0_RKNS_11TestDeta
 3056              		.section	.text._ZN8UnitTest10CheckEqualImmEEvRNS_11TestResultsERKT_RKT0_RKNS_11TestDetailsE,"axG",
 3057              		.weak	_ZN8UnitTest10CheckEqualImmEEvRNS_11TestResultsERKT_RKT0_RKNS_11TestDetailsE
 3059              	_ZN8UnitTest10CheckEqualImmEEvRNS_11TestResultsERKT_RKT0_RKNS_11TestDetailsE:
 3060              	.LFB1122:
  19:/home/shubham/20140524/makestuff/libs/libutpp/Checks.h **** {
 3061              		.loc 4 19 0
 3062              		.cfi_startproc
 3063              		.cfi_personality 0x3,__gxx_personality_v0
 3064              		.cfi_lsda 0x3,.LLSDA1122
 3065 0000 55       		pushq	%rbp
 3066              		.cfi_def_cfa_offset 16
 3067              		.cfi_offset 6, -16
 3068 0001 4889E5   		movq	%rsp, %rbp
 3069              		.cfi_def_cfa_register 6
 3070 0004 4154     		pushq	%r12
 3071 0006 53       		pushq	%rbx
 3072 0007 4881ECC0 		subq	$448, %rsp
 3072      010000
 3073              		.cfi_offset 12, -24
 3074              		.cfi_offset 3, -32
 3075 000e 4889BD48 		movq	%rdi, -440(%rbp)
 3075      FEFFFF
 3076 0015 4889B540 		movq	%rsi, -448(%rbp)
 3076      FEFFFF
 3077 001c 48899538 		movq	%rdx, -456(%rbp)
 3077      FEFFFF
 3078 0023 48898D30 		movq	%rcx, -464(%rbp)
 3078      FEFFFF
  19:/home/shubham/20140524/makestuff/libs/libutpp/Checks.h **** {
 3079              		.loc 4 19 0
 3080 002a 64488B04 		movq	%fs:40, %rax
 3080      25280000 
 3080      00
 3081 0033 488945E8 		movq	%rax, -24(%rbp)
 3082 0037 31C0     		xorl	%eax, %eax
 3083              	.LBB18:
  21:/home/shubham/20140524/makestuff/libs/libutpp/Checks.h ****     {
 3084              		.loc 4 21 0
 3085 0039 488B8540 		movq	-448(%rbp), %rax
 3085      FEFFFF
 3086 0040 488B10   		movq	(%rax), %rdx
 3087 0043 488B8538 		movq	-456(%rbp), %rax
 3087      FEFFFF
 3088 004a 488B00   		movq	(%rax), %rax
 3089 004d 4839C2   		cmpq	%rax, %rdx
 3090 0050 0F84B300 		je	.L194
 3090      0000
 3091              	.LBB19:
  23:/home/shubham/20140524/makestuff/libs/libutpp/Checks.h ****         stream << "Expected " << expected << " but was " << actual;
 3092              		.loc 4 23 0
 3093 0056 488D8550 		leaq	-432(%rbp), %rax
 3093      FEFFFF
 3094 005d 4889C7   		movq	%rax, %rdi
 3095              	.LEHB134:
 3096 0060 E8000000 		call	_ZN8UnitTest15MemoryOutStreamC1Ev
 3096      00
 3097              	.LEHE134:
  24:/home/shubham/20140524/makestuff/libs/libutpp/Checks.h **** 
 3098              		.loc 4 24 0
 3099 0065 488B8538 		movq	-456(%rbp), %rax
 3099      FEFFFF
 3100 006c 488B18   		movq	(%rax), %rbx
 3101 006f 488B8540 		movq	-448(%rbp), %rax
 3101      FEFFFF
 3102 0076 4C8B20   		movq	(%rax), %r12
 3103 0079 488D8550 		leaq	-432(%rbp), %rax
 3103      FEFFFF
 3104 0080 BE000000 		movl	$.LC13, %esi
 3104      00
 3105 0085 4889C7   		movq	%rax, %rdi
 3106              	.LEHB135:
 3107 0088 E8000000 		call	_ZStlsISt11char_traitsIcEERSt13basic_ostreamIcT_ES5_PKc
 3107      00
 3108 008d 4C89E6   		movq	%r12, %rsi
 3109 0090 4889C7   		movq	%rax, %rdi
 3110 0093 E8000000 		call	_ZNSolsEm
 3110      00
  24:/home/shubham/20140524/makestuff/libs/libutpp/Checks.h **** 
 3111              		.loc 4 24 0 is_stmt 0 discriminator 1
 3112 0098 BE000000 		movl	$.LC14, %esi
 3112      00
 3113 009d 4889C7   		movq	%rax, %rdi
 3114 00a0 E8000000 		call	_ZStlsISt11char_traitsIcEERSt13basic_ostreamIcT_ES5_PKc
 3114      00
  24:/home/shubham/20140524/makestuff/libs/libutpp/Checks.h **** 
 3115              		.loc 4 24 0 discriminator 2
 3116 00a5 4889DE   		movq	%rbx, %rsi
 3117 00a8 4889C7   		movq	%rax, %rdi
 3118 00ab E8000000 		call	_ZNSolsEm
 3118      00
  26:/home/shubham/20140524/makestuff/libs/libutpp/Checks.h ****     }
 3119              		.loc 4 26 0 is_stmt 1
 3120 00b0 488D8550 		leaq	-432(%rbp), %rax
 3120      FEFFFF
 3121 00b7 4889C7   		movq	%rax, %rdi
 3122 00ba E8000000 		call	_ZNK8UnitTest15MemoryOutStream7GetTextEv
 3122      00
 3123 00bf 4889C2   		movq	%rax, %rdx
 3124 00c2 488B8D30 		movq	-464(%rbp), %rcx
 3124      FEFFFF
 3125 00c9 488B8548 		movq	-440(%rbp), %rax
 3125      FEFFFF
 3126 00d0 4889CE   		movq	%rcx, %rsi
 3127 00d3 4889C7   		movq	%rax, %rdi
 3128 00d6 E8000000 		call	_ZN8UnitTest11TestResults13OnTestFailureERKNS_11TestDetailsEPKc
 3128      00
 3129              	.LEHE135:
  23:/home/shubham/20140524/makestuff/libs/libutpp/Checks.h ****         stream << "Expected " << expected << " but was " << actual;
 3130              		.loc 4 23 0
 3131 00db 488D8550 		leaq	-432(%rbp), %rax
 3131      FEFFFF
 3132 00e2 4889C7   		movq	%rax, %rdi
 3133              	.LEHB136:
 3134 00e5 E8000000 		call	_ZN8UnitTest15MemoryOutStreamD1Ev
 3134      00
 3135              	.LEHE136:
 3136              	.LBE19:
 3137              	.LBE18:
 3138              		.loc 4 28 0
 3139 00ea EB1D     		jmp	.L194
 3140              	.L193:
 3141 00ec 4889C3   		movq	%rax, %rbx
 3142              	.LBB21:
 3143              	.LBB20:
  23:/home/shubham/20140524/makestuff/libs/libutpp/Checks.h ****         stream << "Expected " << expected << " but was " << actual;
 3144              		.loc 4 23 0
 3145 00ef 488D8550 		leaq	-432(%rbp), %rax
 3145      FEFFFF
 3146 00f6 4889C7   		movq	%rax, %rdi
 3147 00f9 E8000000 		call	_ZN8UnitTest15MemoryOutStreamD1Ev
 3147      00
 3148 00fe 4889D8   		movq	%rbx, %rax
 3149 0101 4889C7   		movq	%rax, %rdi
 3150              	.LEHB137:
 3151 0104 E8000000 		call	_Unwind_Resume
 3151      00
 3152              	.LEHE137:
 3153              	.L194:
 3154              	.LBE20:
 3155              	.LBE21:
 3156              		.loc 4 28 0
 3157 0109 90       		nop
 3158 010a 488B45E8 		movq	-24(%rbp), %rax
 3159 010e 64483304 		xorq	%fs:40, %rax
 3159      25280000 
 3159      00
 3160 0117 7405     		je	.L192
 3161 0119 E8000000 		call	__stack_chk_fail
 3161      00
 3162              	.L192:
 3163 011e 4881C4C0 		addq	$448, %rsp
 3163      010000
 3164 0125 5B       		popq	%rbx
 3165 0126 415C     		popq	%r12
 3166 0128 5D       		popq	%rbp
 3167              		.cfi_def_cfa 7, 8
 3168 0129 C3       		ret
 3169              		.cfi_endproc
 3170              	.LFE1122:
 3171              		.section	.gcc_except_table
 3172              	.LLSDA1122:
 3173 0307 FF       		.byte	0xff
 3174 0308 FF       		.byte	0xff
 3175 0309 01       		.byte	0x1
 3176 030a 14       		.uleb128 .LLSDACSE1122-.LLSDACSB1122
 3177              	.LLSDACSB1122:
 3178 030b 60       		.uleb128 .LEHB134-.LFB1122
 3179 030c 05       		.uleb128 .LEHE134-.LEHB134
 3180 030d 00       		.uleb128 0
 3181 030e 00       		.uleb128 0
 3182 030f 8801     		.uleb128 .LEHB135-.LFB1122
 3183 0311 53       		.uleb128 .LEHE135-.LEHB135
 3184 0312 EC01     		.uleb128 .L193-.LFB1122
 3185 0314 00       		.uleb128 0
 3186 0315 E501     		.uleb128 .LEHB136-.LFB1122
 3187 0317 05       		.uleb128 .LEHE136-.LEHB136
 3188 0318 00       		.uleb128 0
 3189 0319 00       		.uleb128 0
 3190 031a 8402     		.uleb128 .LEHB137-.LFB1122
 3191 031c 05       		.uleb128 .LEHE137-.LEHB137
 3192 031d 00       		.uleb128 0
 3193 031e 00       		.uleb128 0
 3194              	.LLSDACSE1122:
 3195              		.section	.text._ZN8UnitTest10CheckEqualImmEEvRNS_11TestResultsERKT_RKT0_RKNS_11TestDetailsE,"axG",
 3197              		.section	.rodata
 3198              	.LC15:
 3199 024c 45787065 		.string	"Expected [ "
 3199      63746564 
 3199      205B2000 
 3200              	.LC16:
 3201 0258 2000     		.string	" "
 3202              	.LC17:
 3203 025a 5D206275 		.string	"] but was [ "
 3203      74207761 
 3203      73205B20 
 3203      00
 3204              	.LC18:
 3205 0267 5D00     		.string	"]"
 3206              		.section	.text._ZN8UnitTest15CheckArrayEqualIA13_hPhEEvRNS_11TestResultsERKT_RKT0_iRKNS_11TestDeta
 3207              		.weak	_ZN8UnitTest15CheckArrayEqualIA13_hPhEEvRNS_11TestResultsERKT_RKT0_iRKNS_11TestDetailsE
 3209              	_ZN8UnitTest15CheckArrayEqualIA13_hPhEEvRNS_11TestResultsERKT_RKT0_iRKNS_11TestDetailsE:
 3210              	.LFB1123:
  29:/home/shubham/20140524/makestuff/libs/libutpp/Checks.h **** 
  30:/home/shubham/20140524/makestuff/libs/libutpp/Checks.h **** void CheckEqual(TestResults& results, char const* expected, char const* actual, TestDetails const& 
  31:/home/shubham/20140524/makestuff/libs/libutpp/Checks.h **** 
  32:/home/shubham/20140524/makestuff/libs/libutpp/Checks.h **** void CheckEqual(TestResults& results, char* expected, char* actual, TestDetails const& details);
  33:/home/shubham/20140524/makestuff/libs/libutpp/Checks.h **** 
  34:/home/shubham/20140524/makestuff/libs/libutpp/Checks.h **** void CheckEqual(TestResults& results, char* expected, char const* actual, TestDetails const& detail
  35:/home/shubham/20140524/makestuff/libs/libutpp/Checks.h **** 
  36:/home/shubham/20140524/makestuff/libs/libutpp/Checks.h **** void CheckEqual(TestResults& results, char const* expected, char* actual, TestDetails const& detail
  37:/home/shubham/20140524/makestuff/libs/libutpp/Checks.h **** 
  38:/home/shubham/20140524/makestuff/libs/libutpp/Checks.h **** template< typename Expected, typename Actual, typename Tolerance >
  39:/home/shubham/20140524/makestuff/libs/libutpp/Checks.h **** bool AreClose(Expected const& expected, Actual const& actual, Tolerance const& tolerance)
  40:/home/shubham/20140524/makestuff/libs/libutpp/Checks.h **** {
  41:/home/shubham/20140524/makestuff/libs/libutpp/Checks.h ****     return (actual >= (expected - tolerance)) && (actual <= (expected + tolerance));
  42:/home/shubham/20140524/makestuff/libs/libutpp/Checks.h **** }
  43:/home/shubham/20140524/makestuff/libs/libutpp/Checks.h **** 
  44:/home/shubham/20140524/makestuff/libs/libutpp/Checks.h **** template< typename Expected, typename Actual, typename Tolerance >
  45:/home/shubham/20140524/makestuff/libs/libutpp/Checks.h **** void CheckClose(TestResults& results, Expected const& expected, Actual const& actual, Tolerance con
  46:/home/shubham/20140524/makestuff/libs/libutpp/Checks.h ****                 TestDetails const& details)
  47:/home/shubham/20140524/makestuff/libs/libutpp/Checks.h **** {
  48:/home/shubham/20140524/makestuff/libs/libutpp/Checks.h ****     if (!AreClose(expected, actual, tolerance))
  49:/home/shubham/20140524/makestuff/libs/libutpp/Checks.h ****     { 
  50:/home/shubham/20140524/makestuff/libs/libutpp/Checks.h ****         UnitTest::MemoryOutStream stream;
  51:/home/shubham/20140524/makestuff/libs/libutpp/Checks.h ****         stream << "Expected " << expected << " +/- " << tolerance << " but was " << actual;
  52:/home/shubham/20140524/makestuff/libs/libutpp/Checks.h **** 
  53:/home/shubham/20140524/makestuff/libs/libutpp/Checks.h ****         results.OnTestFailure(details, stream.GetText());
  54:/home/shubham/20140524/makestuff/libs/libutpp/Checks.h ****     }
  55:/home/shubham/20140524/makestuff/libs/libutpp/Checks.h **** }
  56:/home/shubham/20140524/makestuff/libs/libutpp/Checks.h **** 
  57:/home/shubham/20140524/makestuff/libs/libutpp/Checks.h **** 
  58:/home/shubham/20140524/makestuff/libs/libutpp/Checks.h **** template< typename Expected, typename Actual >
  59:/home/shubham/20140524/makestuff/libs/libutpp/Checks.h **** void CheckArrayEqual(TestResults& results, Expected const& expected, Actual const& actual,
 3211              		.loc 4 59 0
 3212              		.cfi_startproc
 3213              		.cfi_personality 0x3,__gxx_personality_v0
 3214              		.cfi_lsda 0x3,.LLSDA1123
 3215 0000 55       		pushq	%rbp
 3216              		.cfi_def_cfa_offset 16
 3217              		.cfi_offset 6, -16
 3218 0001 4889E5   		movq	%rsp, %rbp
 3219              		.cfi_def_cfa_register 6
 3220 0004 53       		pushq	%rbx
 3221 0005 4881ECE8 		subq	$488, %rsp
 3221      010000
 3222              		.cfi_offset 3, -24
 3223 000c 4889BD38 		movq	%rdi, -456(%rbp)
 3223      FEFFFF
 3224 0013 4889B530 		movq	%rsi, -464(%rbp)
 3224      FEFFFF
 3225 001a 48899528 		movq	%rdx, -472(%rbp)
 3225      FEFFFF
 3226 0021 898D24FE 		movl	%ecx, -476(%rbp)
 3226      FFFF
 3227 0027 4C898518 		movq	%r8, -488(%rbp)
 3227      FEFFFF
 3228              		.loc 4 59 0
 3229 002e 64488B04 		movq	%fs:40, %rax
 3229      25280000 
 3229      00
 3230 0037 488945E8 		movq	%rax, -24(%rbp)
 3231 003b 31C0     		xorl	%eax, %eax
  60:/home/shubham/20140524/makestuff/libs/libutpp/Checks.h ****                 int const count, TestDetails const& details)
  61:/home/shubham/20140524/makestuff/libs/libutpp/Checks.h **** {
  62:/home/shubham/20140524/makestuff/libs/libutpp/Checks.h ****     bool equal = true;
 3232              		.loc 4 62 0
 3233 003d C68543FE 		movb	$1, -445(%rbp)
 3233      FFFF01
 3234              	.LBB22:
  63:/home/shubham/20140524/makestuff/libs/libutpp/Checks.h ****     for (int i = 0; i < count; ++i)
 3235              		.loc 4 63 0
 3236 0044 C78544FE 		movl	$0, -444(%rbp)
 3236      FFFF0000 
 3236      0000
 3237              	.L197:
 3238              		.loc 4 63 0 is_stmt 0 discriminator 3
 3239 004e 8B8544FE 		movl	-444(%rbp), %eax
 3239      FFFF
 3240 0054 3B8524FE 		cmpl	-476(%rbp), %eax
 3240      FFFF
 3241 005a 7D50     		jge	.L196
  64:/home/shubham/20140524/makestuff/libs/libutpp/Checks.h ****         equal &= (expected[i] == actual[i]);
 3242              		.loc 4 64 0 is_stmt 1 discriminator 2
 3243 005c 0FB68D43 		movzbl	-445(%rbp), %ecx
 3243      FEFFFF
 3244 0063 488B9530 		movq	-464(%rbp), %rdx
 3244      FEFFFF
 3245 006a 8B8544FE 		movl	-444(%rbp), %eax
 3245      FFFF
 3246 0070 4898     		cltq
 3247 0072 0FB61402 		movzbl	(%rdx,%rax), %edx
 3248 0076 488B8528 		movq	-472(%rbp), %rax
 3248      FEFFFF
 3249 007d 488B30   		movq	(%rax), %rsi
 3250 0080 8B8544FE 		movl	-444(%rbp), %eax
 3250      FFFF
 3251 0086 4898     		cltq
 3252 0088 4801F0   		addq	%rsi, %rax
 3253 008b 0FB600   		movzbl	(%rax), %eax
 3254 008e 38C2     		cmpb	%al, %dl
 3255 0090 0F94C0   		sete	%al
 3256 0093 0FB6C0   		movzbl	%al, %eax
 3257 0096 21C8     		andl	%ecx, %eax
 3258 0098 85C0     		testl	%eax, %eax
 3259 009a 0F95C0   		setne	%al
 3260 009d 888543FE 		movb	%al, -445(%rbp)
 3260      FFFF
  63:/home/shubham/20140524/makestuff/libs/libutpp/Checks.h ****     for (int i = 0; i < count; ++i)
 3261              		.loc 4 63 0 discriminator 2
 3262 00a3 838544FE 		addl	$1, -444(%rbp)
 3262      FFFF01
 3263 00aa EBA2     		jmp	.L197
 3264              	.L196:
 3265              	.LBE22:
 3266              	.LBB23:
  65:/home/shubham/20140524/makestuff/libs/libutpp/Checks.h **** 
  66:/home/shubham/20140524/makestuff/libs/libutpp/Checks.h ****     if (!equal)
 3267              		.loc 4 66 0
 3268 00ac 0FB68543 		movzbl	-445(%rbp), %eax
 3268      FEFFFF
 3269 00b3 83F001   		xorl	$1, %eax
 3270 00b6 84C0     		testb	%al, %al
 3271 00b8 0F845301 		je	.L206
 3271      0000
 3272              	.LBB24:
  67:/home/shubham/20140524/makestuff/libs/libutpp/Checks.h ****     {
  68:/home/shubham/20140524/makestuff/libs/libutpp/Checks.h ****         UnitTest::MemoryOutStream stream;
 3273              		.loc 4 68 0
 3274 00be 488D8550 		leaq	-432(%rbp), %rax
 3274      FEFFFF
 3275 00c5 4889C7   		movq	%rax, %rdi
 3276              	.LEHB138:
 3277 00c8 E8000000 		call	_ZN8UnitTest15MemoryOutStreamC1Ev
 3277      00
 3278              	.LEHE138:
  69:/home/shubham/20140524/makestuff/libs/libutpp/Checks.h **** 
  70:/home/shubham/20140524/makestuff/libs/libutpp/Checks.h **** 		stream << "Expected [ ";
 3279              		.loc 4 70 0
 3280 00cd 488D8550 		leaq	-432(%rbp), %rax
 3280      FEFFFF
 3281 00d4 BE000000 		movl	$.LC15, %esi
 3281      00
 3282 00d9 4889C7   		movq	%rax, %rdi
 3283              	.LEHB139:
 3284 00dc E8000000 		call	_ZStlsISt11char_traitsIcEERSt13basic_ostreamIcT_ES5_PKc
 3284      00
 3285              	.LBB25:
  71:/home/shubham/20140524/makestuff/libs/libutpp/Checks.h **** 
  72:/home/shubham/20140524/makestuff/libs/libutpp/Checks.h **** 		for (int expectedIndex = 0; expectedIndex < count; ++expectedIndex)
 3286              		.loc 4 72 0
 3287 00e1 C78548FE 		movl	$0, -440(%rbp)
 3287      FFFF0000 
 3287      0000
 3288              	.L200:
 3289              		.loc 4 72 0 is_stmt 0 discriminator 1
 3290 00eb 8B8548FE 		movl	-440(%rbp), %eax
 3290      FFFF
 3291 00f1 3B8524FE 		cmpl	-476(%rbp), %eax
 3291      FFFF
 3292 00f7 7D3D     		jge	.L199
  73:/home/shubham/20140524/makestuff/libs/libutpp/Checks.h ****             stream << expected[expectedIndex] << " ";
 3293              		.loc 4 73 0 is_stmt 1
 3294 00f9 488B9530 		movq	-464(%rbp), %rdx
 3294      FEFFFF
 3295 0100 8B8548FE 		movl	-440(%rbp), %eax
 3295      FFFF
 3296 0106 4898     		cltq
 3297 0108 0FB60402 		movzbl	(%rdx,%rax), %eax
 3298 010c 0FB6D0   		movzbl	%al, %edx
 3299 010f 488D8550 		leaq	-432(%rbp), %rax
 3299      FEFFFF
 3300 0116 89D6     		movl	%edx, %esi
 3301 0118 4889C7   		movq	%rax, %rdi
 3302 011b E8000000 		call	_ZStlsISt11char_traitsIcEERSt13basic_ostreamIcT_ES5_h
 3302      00
 3303 0120 BE000000 		movl	$.LC16, %esi
 3303      00
 3304 0125 4889C7   		movq	%rax, %rdi
 3305 0128 E8000000 		call	_ZStlsISt11char_traitsIcEERSt13basic_ostreamIcT_ES5_PKc
 3305      00
  72:/home/shubham/20140524/makestuff/libs/libutpp/Checks.h ****             stream << expected[expectedIndex] << " ";
 3306              		.loc 4 72 0 discriminator 2
 3307 012d 838548FE 		addl	$1, -440(%rbp)
 3307      FFFF01
 3308 0134 EBB5     		jmp	.L200
 3309              	.L199:
 3310              	.LBE25:
  74:/home/shubham/20140524/makestuff/libs/libutpp/Checks.h **** 
  75:/home/shubham/20140524/makestuff/libs/libutpp/Checks.h **** 		stream << "] but was [ ";
 3311              		.loc 4 75 0
 3312 0136 488D8550 		leaq	-432(%rbp), %rax
 3312      FEFFFF
 3313 013d BE000000 		movl	$.LC17, %esi
 3313      00
 3314 0142 4889C7   		movq	%rax, %rdi
 3315 0145 E8000000 		call	_ZStlsISt11char_traitsIcEERSt13basic_ostreamIcT_ES5_PKc
 3315      00
 3316              	.LBB26:
  76:/home/shubham/20140524/makestuff/libs/libutpp/Checks.h **** 
  77:/home/shubham/20140524/makestuff/libs/libutpp/Checks.h **** 		for (int actualIndex = 0; actualIndex < count; ++actualIndex)
 3317              		.loc 4 77 0
 3318 014a C7854CFE 		movl	$0, -436(%rbp)
 3318      FFFF0000 
 3318      0000
 3319              	.L202:
 3320              		.loc 4 77 0 is_stmt 0 discriminator 1
 3321 0154 8B854CFE 		movl	-436(%rbp), %eax
 3321      FFFF
 3322 015a 3B8524FE 		cmpl	-476(%rbp), %eax
 3322      FFFF
 3323 0160 7D42     		jge	.L201
  78:/home/shubham/20140524/makestuff/libs/libutpp/Checks.h ****             stream << actual[actualIndex] << " ";
 3324              		.loc 4 78 0 is_stmt 1
 3325 0162 488B8528 		movq	-472(%rbp), %rax
 3325      FEFFFF
 3326 0169 488B10   		movq	(%rax), %rdx
 3327 016c 8B854CFE 		movl	-436(%rbp), %eax
 3327      FFFF
 3328 0172 4898     		cltq
 3329 0174 4801D0   		addq	%rdx, %rax
 3330 0177 0FB600   		movzbl	(%rax), %eax
 3331 017a 0FB6D0   		movzbl	%al, %edx
 3332 017d 488D8550 		leaq	-432(%rbp), %rax
 3332      FEFFFF
 3333 0184 89D6     		movl	%edx, %esi
 3334 0186 4889C7   		movq	%rax, %rdi
 3335 0189 E8000000 		call	_ZStlsISt11char_traitsIcEERSt13basic_ostreamIcT_ES5_h
 3335      00
 3336 018e BE000000 		movl	$.LC16, %esi
 3336      00
 3337 0193 4889C7   		movq	%rax, %rdi
 3338 0196 E8000000 		call	_ZStlsISt11char_traitsIcEERSt13basic_ostreamIcT_ES5_PKc
 3338      00
  77:/home/shubham/20140524/makestuff/libs/libutpp/Checks.h ****             stream << actual[actualIndex] << " ";
 3339              		.loc 4 77 0 discriminator 2
 3340 019b 83854CFE 		addl	$1, -436(%rbp)
 3340      FFFF01
 3341 01a2 EBB0     		jmp	.L202
 3342              	.L201:
 3343              	.LBE26:
  79:/home/shubham/20140524/makestuff/libs/libutpp/Checks.h **** 
  80:/home/shubham/20140524/makestuff/libs/libutpp/Checks.h **** 		stream << "]";
 3344              		.loc 4 80 0
 3345 01a4 488D8550 		leaq	-432(%rbp), %rax
 3345      FEFFFF
 3346 01ab BE000000 		movl	$.LC18, %esi
 3346      00
 3347 01b0 4889C7   		movq	%rax, %rdi
 3348 01b3 E8000000 		call	_ZStlsISt11char_traitsIcEERSt13basic_ostreamIcT_ES5_PKc
 3348      00
  81:/home/shubham/20140524/makestuff/libs/libutpp/Checks.h **** 
  82:/home/shubham/20140524/makestuff/libs/libutpp/Checks.h ****         results.OnTestFailure(details, stream.GetText());
 3349              		.loc 4 82 0
 3350 01b8 488D8550 		leaq	-432(%rbp), %rax
 3350      FEFFFF
 3351 01bf 4889C7   		movq	%rax, %rdi
 3352 01c2 E8000000 		call	_ZNK8UnitTest15MemoryOutStream7GetTextEv
 3352      00
 3353 01c7 4889C2   		movq	%rax, %rdx
 3354 01ca 488B8D18 		movq	-488(%rbp), %rcx
 3354      FEFFFF
 3355 01d1 488B8538 		movq	-456(%rbp), %rax
 3355      FEFFFF
 3356 01d8 4889CE   		movq	%rcx, %rsi
 3357 01db 4889C7   		movq	%rax, %rdi
 3358 01de E8000000 		call	_ZN8UnitTest11TestResults13OnTestFailureERKNS_11TestDetailsEPKc
 3358      00
 3359              	.LEHE139:
  68:/home/shubham/20140524/makestuff/libs/libutpp/Checks.h **** 
 3360              		.loc 4 68 0
 3361 01e3 488D8550 		leaq	-432(%rbp), %rax
 3361      FEFFFF
 3362 01ea 4889C7   		movq	%rax, %rdi
 3363              	.LEHB140:
 3364 01ed E8000000 		call	_ZN8UnitTest15MemoryOutStreamD1Ev
 3364      00
 3365              	.LEHE140:
 3366              	.LBE24:
 3367              	.LBE23:
  83:/home/shubham/20140524/makestuff/libs/libutpp/Checks.h ****     }
  84:/home/shubham/20140524/makestuff/libs/libutpp/Checks.h **** }
 3368              		.loc 4 84 0
 3369 01f2 EB1D     		jmp	.L206
 3370              	.L205:
 3371 01f4 4889C3   		movq	%rax, %rbx
 3372              	.LBB28:
 3373              	.LBB27:
  68:/home/shubham/20140524/makestuff/libs/libutpp/Checks.h **** 
 3374              		.loc 4 68 0
 3375 01f7 488D8550 		leaq	-432(%rbp), %rax
 3375      FEFFFF
 3376 01fe 4889C7   		movq	%rax, %rdi
 3377 0201 E8000000 		call	_ZN8UnitTest15MemoryOutStreamD1Ev
 3377      00
 3378 0206 4889D8   		movq	%rbx, %rax
 3379 0209 4889C7   		movq	%rax, %rdi
 3380              	.LEHB141:
 3381 020c E8000000 		call	_Unwind_Resume
 3381      00
 3382              	.LEHE141:
 3383              	.L206:
 3384              	.LBE27:
 3385              	.LBE28:
 3386              		.loc 4 84 0
 3387 0211 90       		nop
 3388 0212 488B45E8 		movq	-24(%rbp), %rax
 3389 0216 64483304 		xorq	%fs:40, %rax
 3389      25280000 
 3389      00
 3390 021f 7405     		je	.L204
 3391 0221 E8000000 		call	__stack_chk_fail
 3391      00
 3392              	.L204:
 3393 0226 4881C4E8 		addq	$488, %rsp
 3393      010000
 3394 022d 5B       		popq	%rbx
 3395 022e 5D       		popq	%rbp
 3396              		.cfi_def_cfa 7, 8
 3397 022f C3       		ret
 3398              		.cfi_endproc
 3399              	.LFE1123:
 3400              		.section	.gcc_except_table
 3401              	.LLSDA1123:
 3402 031f FF       		.byte	0xff
 3403 0320 FF       		.byte	0xff
 3404 0321 01       		.byte	0x1
 3405 0322 16       		.uleb128 .LLSDACSE1123-.LLSDACSB1123
 3406              	.LLSDACSB1123:
 3407 0323 C801     		.uleb128 .LEHB138-.LFB1123
 3408 0325 05       		.uleb128 .LEHE138-.LEHB138
 3409 0326 00       		.uleb128 0
 3410 0327 00       		.uleb128 0
 3411 0328 DC01     		.uleb128 .LEHB139-.LFB1123
 3412 032a 8702     		.uleb128 .LEHE139-.LEHB139
 3413 032c F403     		.uleb128 .L205-.LFB1123
 3414 032e 00       		.uleb128 0
 3415 032f ED03     		.uleb128 .LEHB140-.LFB1123
 3416 0331 05       		.uleb128 .LEHE140-.LEHB140
 3417 0332 00       		.uleb128 0
 3418 0333 00       		.uleb128 0
 3419 0334 8C04     		.uleb128 .LEHB141-.LFB1123
 3420 0336 05       		.uleb128 .LEHE141-.LEHB141
 3421 0337 00       		.uleb128 0
 3422 0338 00       		.uleb128 0
 3423              	.LLSDACSE1123:
 3424              		.section	.text._ZN8UnitTest15CheckArrayEqualIA13_hPhEEvRNS_11TestResultsERKT_RKT0_iRKNS_11TestDeta
 3426              		.section	.text._ZN8UnitTest15CheckArrayEqualIA16_hPhEEvRNS_11TestResultsERKT_RKT0_iRKNS_11TestDeta
 3427              		.weak	_ZN8UnitTest15CheckArrayEqualIA16_hPhEEvRNS_11TestResultsERKT_RKT0_iRKNS_11TestDetailsE
 3429              	_ZN8UnitTest15CheckArrayEqualIA16_hPhEEvRNS_11TestResultsERKT_RKT0_iRKNS_11TestDetailsE:
 3430              	.LFB1124:
  59:/home/shubham/20140524/makestuff/libs/libutpp/Checks.h ****                 int const count, TestDetails const& details)
 3431              		.loc 4 59 0
 3432              		.cfi_startproc
 3433              		.cfi_personality 0x3,__gxx_personality_v0
 3434              		.cfi_lsda 0x3,.LLSDA1124
 3435 0000 55       		pushq	%rbp
 3436              		.cfi_def_cfa_offset 16
 3437              		.cfi_offset 6, -16
 3438 0001 4889E5   		movq	%rsp, %rbp
 3439              		.cfi_def_cfa_register 6
 3440 0004 53       		pushq	%rbx
 3441 0005 4881ECE8 		subq	$488, %rsp
 3441      010000
 3442              		.cfi_offset 3, -24
 3443 000c 4889BD38 		movq	%rdi, -456(%rbp)
 3443      FEFFFF
 3444 0013 4889B530 		movq	%rsi, -464(%rbp)
 3444      FEFFFF
 3445 001a 48899528 		movq	%rdx, -472(%rbp)
 3445      FEFFFF
 3446 0021 898D24FE 		movl	%ecx, -476(%rbp)
 3446      FFFF
 3447 0027 4C898518 		movq	%r8, -488(%rbp)
 3447      FEFFFF
  59:/home/shubham/20140524/makestuff/libs/libutpp/Checks.h ****                 int const count, TestDetails const& details)
 3448              		.loc 4 59 0
 3449 002e 64488B04 		movq	%fs:40, %rax
 3449      25280000 
 3449      00
 3450 0037 488945E8 		movq	%rax, -24(%rbp)
 3451 003b 31C0     		xorl	%eax, %eax
  62:/home/shubham/20140524/makestuff/libs/libutpp/Checks.h ****     for (int i = 0; i < count; ++i)
 3452              		.loc 4 62 0
 3453 003d C68543FE 		movb	$1, -445(%rbp)
 3453      FFFF01
 3454              	.LBB29:
  63:/home/shubham/20140524/makestuff/libs/libutpp/Checks.h ****         equal &= (expected[i] == actual[i]);
 3455              		.loc 4 63 0
 3456 0044 C78544FE 		movl	$0, -444(%rbp)
 3456      FFFF0000 
 3456      0000
 3457              	.L209:
  63:/home/shubham/20140524/makestuff/libs/libutpp/Checks.h ****         equal &= (expected[i] == actual[i]);
 3458              		.loc 4 63 0 is_stmt 0 discriminator 3
 3459 004e 8B8544FE 		movl	-444(%rbp), %eax
 3459      FFFF
 3460 0054 3B8524FE 		cmpl	-476(%rbp), %eax
 3460      FFFF
 3461 005a 7D50     		jge	.L208
  64:/home/shubham/20140524/makestuff/libs/libutpp/Checks.h **** 
 3462              		.loc 4 64 0 is_stmt 1 discriminator 2
 3463 005c 0FB68D43 		movzbl	-445(%rbp), %ecx
 3463      FEFFFF
 3464 0063 488B9530 		movq	-464(%rbp), %rdx
 3464      FEFFFF
 3465 006a 8B8544FE 		movl	-444(%rbp), %eax
 3465      FFFF
 3466 0070 4898     		cltq
 3467 0072 0FB61402 		movzbl	(%rdx,%rax), %edx
 3468 0076 488B8528 		movq	-472(%rbp), %rax
 3468      FEFFFF
 3469 007d 488B30   		movq	(%rax), %rsi
 3470 0080 8B8544FE 		movl	-444(%rbp), %eax
 3470      FFFF
 3471 0086 4898     		cltq
 3472 0088 4801F0   		addq	%rsi, %rax
 3473 008b 0FB600   		movzbl	(%rax), %eax
 3474 008e 38C2     		cmpb	%al, %dl
 3475 0090 0F94C0   		sete	%al
 3476 0093 0FB6C0   		movzbl	%al, %eax
 3477 0096 21C8     		andl	%ecx, %eax
 3478 0098 85C0     		testl	%eax, %eax
 3479 009a 0F95C0   		setne	%al
 3480 009d 888543FE 		movb	%al, -445(%rbp)
 3480      FFFF
  63:/home/shubham/20140524/makestuff/libs/libutpp/Checks.h ****         equal &= (expected[i] == actual[i]);
 3481              		.loc 4 63 0 discriminator 2
 3482 00a3 838544FE 		addl	$1, -444(%rbp)
 3482      FFFF01
 3483 00aa EBA2     		jmp	.L209
 3484              	.L208:
 3485              	.LBE29:
 3486              	.LBB30:
  66:/home/shubham/20140524/makestuff/libs/libutpp/Checks.h ****     {
 3487              		.loc 4 66 0
 3488 00ac 0FB68543 		movzbl	-445(%rbp), %eax
 3488      FEFFFF
 3489 00b3 83F001   		xorl	$1, %eax
 3490 00b6 84C0     		testb	%al, %al
 3491 00b8 0F845301 		je	.L218
 3491      0000
 3492              	.LBB31:
  68:/home/shubham/20140524/makestuff/libs/libutpp/Checks.h **** 
 3493              		.loc 4 68 0
 3494 00be 488D8550 		leaq	-432(%rbp), %rax
 3494      FEFFFF
 3495 00c5 4889C7   		movq	%rax, %rdi
 3496              	.LEHB142:
 3497 00c8 E8000000 		call	_ZN8UnitTest15MemoryOutStreamC1Ev
 3497      00
 3498              	.LEHE142:
  70:/home/shubham/20140524/makestuff/libs/libutpp/Checks.h **** 
 3499              		.loc 4 70 0
 3500 00cd 488D8550 		leaq	-432(%rbp), %rax
 3500      FEFFFF
 3501 00d4 BE000000 		movl	$.LC15, %esi
 3501      00
 3502 00d9 4889C7   		movq	%rax, %rdi
 3503              	.LEHB143:
 3504 00dc E8000000 		call	_ZStlsISt11char_traitsIcEERSt13basic_ostreamIcT_ES5_PKc
 3504      00
 3505              	.LBB32:
  72:/home/shubham/20140524/makestuff/libs/libutpp/Checks.h ****             stream << expected[expectedIndex] << " ";
 3506              		.loc 4 72 0
 3507 00e1 C78548FE 		movl	$0, -440(%rbp)
 3507      FFFF0000 
 3507      0000
 3508              	.L212:
  72:/home/shubham/20140524/makestuff/libs/libutpp/Checks.h ****             stream << expected[expectedIndex] << " ";
 3509              		.loc 4 72 0 is_stmt 0 discriminator 1
 3510 00eb 8B8548FE 		movl	-440(%rbp), %eax
 3510      FFFF
 3511 00f1 3B8524FE 		cmpl	-476(%rbp), %eax
 3511      FFFF
 3512 00f7 7D3D     		jge	.L211
  73:/home/shubham/20140524/makestuff/libs/libutpp/Checks.h **** 
 3513              		.loc 4 73 0 is_stmt 1
 3514 00f9 488B9530 		movq	-464(%rbp), %rdx
 3514      FEFFFF
 3515 0100 8B8548FE 		movl	-440(%rbp), %eax
 3515      FFFF
 3516 0106 4898     		cltq
 3517 0108 0FB60402 		movzbl	(%rdx,%rax), %eax
 3518 010c 0FB6D0   		movzbl	%al, %edx
 3519 010f 488D8550 		leaq	-432(%rbp), %rax
 3519      FEFFFF
 3520 0116 89D6     		movl	%edx, %esi
 3521 0118 4889C7   		movq	%rax, %rdi
 3522 011b E8000000 		call	_ZStlsISt11char_traitsIcEERSt13basic_ostreamIcT_ES5_h
 3522      00
 3523 0120 BE000000 		movl	$.LC16, %esi
 3523      00
 3524 0125 4889C7   		movq	%rax, %rdi
 3525 0128 E8000000 		call	_ZStlsISt11char_traitsIcEERSt13basic_ostreamIcT_ES5_PKc
 3525      00
  72:/home/shubham/20140524/makestuff/libs/libutpp/Checks.h ****             stream << expected[expectedIndex] << " ";
 3526              		.loc 4 72 0 discriminator 2
 3527 012d 838548FE 		addl	$1, -440(%rbp)
 3527      FFFF01
 3528 0134 EBB5     		jmp	.L212
 3529              	.L211:
 3530              	.LBE32:
  75:/home/shubham/20140524/makestuff/libs/libutpp/Checks.h **** 
 3531              		.loc 4 75 0
 3532 0136 488D8550 		leaq	-432(%rbp), %rax
 3532      FEFFFF
 3533 013d BE000000 		movl	$.LC17, %esi
 3533      00
 3534 0142 4889C7   		movq	%rax, %rdi
 3535 0145 E8000000 		call	_ZStlsISt11char_traitsIcEERSt13basic_ostreamIcT_ES5_PKc
 3535      00
 3536              	.LBB33:
  77:/home/shubham/20140524/makestuff/libs/libutpp/Checks.h ****             stream << actual[actualIndex] << " ";
 3537              		.loc 4 77 0
 3538 014a C7854CFE 		movl	$0, -436(%rbp)
 3538      FFFF0000 
 3538      0000
 3539              	.L214:
  77:/home/shubham/20140524/makestuff/libs/libutpp/Checks.h ****             stream << actual[actualIndex] << " ";
 3540              		.loc 4 77 0 is_stmt 0 discriminator 1
 3541 0154 8B854CFE 		movl	-436(%rbp), %eax
 3541      FFFF
 3542 015a 3B8524FE 		cmpl	-476(%rbp), %eax
 3542      FFFF
 3543 0160 7D42     		jge	.L213
  78:/home/shubham/20140524/makestuff/libs/libutpp/Checks.h **** 
 3544              		.loc 4 78 0 is_stmt 1
 3545 0162 488B8528 		movq	-472(%rbp), %rax
 3545      FEFFFF
 3546 0169 488B10   		movq	(%rax), %rdx
 3547 016c 8B854CFE 		movl	-436(%rbp), %eax
 3547      FFFF
 3548 0172 4898     		cltq
 3549 0174 4801D0   		addq	%rdx, %rax
 3550 0177 0FB600   		movzbl	(%rax), %eax
 3551 017a 0FB6D0   		movzbl	%al, %edx
 3552 017d 488D8550 		leaq	-432(%rbp), %rax
 3552      FEFFFF
 3553 0184 89D6     		movl	%edx, %esi
 3554 0186 4889C7   		movq	%rax, %rdi
 3555 0189 E8000000 		call	_ZStlsISt11char_traitsIcEERSt13basic_ostreamIcT_ES5_h
 3555      00
 3556 018e BE000000 		movl	$.LC16, %esi
 3556      00
 3557 0193 4889C7   		movq	%rax, %rdi
 3558 0196 E8000000 		call	_ZStlsISt11char_traitsIcEERSt13basic_ostreamIcT_ES5_PKc
 3558      00
  77:/home/shubham/20140524/makestuff/libs/libutpp/Checks.h ****             stream << actual[actualIndex] << " ";
 3559              		.loc 4 77 0 discriminator 2
 3560 019b 83854CFE 		addl	$1, -436(%rbp)
 3560      FFFF01
 3561 01a2 EBB0     		jmp	.L214
 3562              	.L213:
 3563              	.LBE33:
  80:/home/shubham/20140524/makestuff/libs/libutpp/Checks.h **** 
 3564              		.loc 4 80 0
 3565 01a4 488D8550 		leaq	-432(%rbp), %rax
 3565      FEFFFF
 3566 01ab BE000000 		movl	$.LC18, %esi
 3566      00
 3567 01b0 4889C7   		movq	%rax, %rdi
 3568 01b3 E8000000 		call	_ZStlsISt11char_traitsIcEERSt13basic_ostreamIcT_ES5_PKc
 3568      00
  82:/home/shubham/20140524/makestuff/libs/libutpp/Checks.h ****     }
 3569              		.loc 4 82 0
 3570 01b8 488D8550 		leaq	-432(%rbp), %rax
 3570      FEFFFF
 3571 01bf 4889C7   		movq	%rax, %rdi
 3572 01c2 E8000000 		call	_ZNK8UnitTest15MemoryOutStream7GetTextEv
 3572      00
 3573 01c7 4889C2   		movq	%rax, %rdx
 3574 01ca 488B8D18 		movq	-488(%rbp), %rcx
 3574      FEFFFF
 3575 01d1 488B8538 		movq	-456(%rbp), %rax
 3575      FEFFFF
 3576 01d8 4889CE   		movq	%rcx, %rsi
 3577 01db 4889C7   		movq	%rax, %rdi
 3578 01de E8000000 		call	_ZN8UnitTest11TestResults13OnTestFailureERKNS_11TestDetailsEPKc
 3578      00
 3579              	.LEHE143:
  68:/home/shubham/20140524/makestuff/libs/libutpp/Checks.h **** 
 3580              		.loc 4 68 0
 3581 01e3 488D8550 		leaq	-432(%rbp), %rax
 3581      FEFFFF
 3582 01ea 4889C7   		movq	%rax, %rdi
 3583              	.LEHB144:
 3584 01ed E8000000 		call	_ZN8UnitTest15MemoryOutStreamD1Ev
 3584      00
 3585              	.LEHE144:
 3586              	.LBE31:
 3587              	.LBE30:
 3588              		.loc 4 84 0
 3589 01f2 EB1D     		jmp	.L218
 3590              	.L217:
 3591 01f4 4889C3   		movq	%rax, %rbx
 3592              	.LBB35:
 3593              	.LBB34:
  68:/home/shubham/20140524/makestuff/libs/libutpp/Checks.h **** 
 3594              		.loc 4 68 0
 3595 01f7 488D8550 		leaq	-432(%rbp), %rax
 3595      FEFFFF
 3596 01fe 4889C7   		movq	%rax, %rdi
 3597 0201 E8000000 		call	_ZN8UnitTest15MemoryOutStreamD1Ev
 3597      00
 3598 0206 4889D8   		movq	%rbx, %rax
 3599 0209 4889C7   		movq	%rax, %rdi
 3600              	.LEHB145:
 3601 020c E8000000 		call	_Unwind_Resume
 3601      00
 3602              	.LEHE145:
 3603              	.L218:
 3604              	.LBE34:
 3605              	.LBE35:
 3606              		.loc 4 84 0
 3607 0211 90       		nop
 3608 0212 488B45E8 		movq	-24(%rbp), %rax
 3609 0216 64483304 		xorq	%fs:40, %rax
 3609      25280000 
 3609      00
 3610 021f 7405     		je	.L216
 3611 0221 E8000000 		call	__stack_chk_fail
 3611      00
 3612              	.L216:
 3613 0226 4881C4E8 		addq	$488, %rsp
 3613      010000
 3614 022d 5B       		popq	%rbx
 3615 022e 5D       		popq	%rbp
 3616              		.cfi_def_cfa 7, 8
 3617 022f C3       		ret
 3618              		.cfi_endproc
 3619              	.LFE1124:
 3620              		.section	.gcc_except_table
 3621              	.LLSDA1124:
 3622 0339 FF       		.byte	0xff
 3623 033a FF       		.byte	0xff
 3624 033b 01       		.byte	0x1
 3625 033c 16       		.uleb128 .LLSDACSE1124-.LLSDACSB1124
 3626              	.LLSDACSB1124:
 3627 033d C801     		.uleb128 .LEHB142-.LFB1124
 3628 033f 05       		.uleb128 .LEHE142-.LEHB142
 3629 0340 00       		.uleb128 0
 3630 0341 00       		.uleb128 0
 3631 0342 DC01     		.uleb128 .LEHB143-.LFB1124
 3632 0344 8702     		.uleb128 .LEHE143-.LEHB143
 3633 0346 F403     		.uleb128 .L217-.LFB1124
 3634 0348 00       		.uleb128 0
 3635 0349 ED03     		.uleb128 .LEHB144-.LFB1124
 3636 034b 05       		.uleb128 .LEHE144-.LEHB144
 3637 034c 00       		.uleb128 0
 3638 034d 00       		.uleb128 0
 3639 034e 8C04     		.uleb128 .LEHB145-.LFB1124
 3640 0350 05       		.uleb128 .LEHE145-.LEHB145
 3641 0351 00       		.uleb128 0
 3642 0352 00       		.uleb128 0
 3643              	.LLSDACSE1124:
 3644              		.section	.text._ZN8UnitTest15CheckArrayEqualIA16_hPhEEvRNS_11TestResultsERKT_RKT0_iRKNS_11TestDeta
 3646              		.weak	_ZTV26TestI2C_testFinaliseNoInit
 3647              		.section	.rodata._ZTV26TestI2C_testFinaliseNoInit,"aG",@progbits,_ZTV26TestI2C_testFinaliseNoInit,
 3648              		.align 8
 3651              	_ZTV26TestI2C_testFinaliseNoInit:
 3652 0000 00000000 		.quad	0
 3652      00000000 
 3653 0008 00000000 		.quad	_ZTI26TestI2C_testFinaliseNoInit
 3653      00000000 
 3654 0010 00000000 		.quad	_ZN26TestI2C_testFinaliseNoInitD1Ev
 3654      00000000 
 3655 0018 00000000 		.quad	_ZN26TestI2C_testFinaliseNoInitD0Ev
 3655      00000000 
 3656 0020 00000000 		.quad	_ZNK26TestI2C_testFinaliseNoInit7RunImplEv
 3656      00000000 
 3657              		.section	.text._ZN26TestI2C_testFinaliseNoInitD2Ev,"axG",@progbits,_ZN26TestI2C_testFinaliseNoInit
 3658              		.align 2
 3659              		.weak	_ZN26TestI2C_testFinaliseNoInitD2Ev
 3661              	_ZN26TestI2C_testFinaliseNoInitD2Ev:
 3662              	.LFB1181:
 106:testI2C.cpp   **** 	Buffer buf;
 3663              		.loc 3 106 0
 3664              		.cfi_startproc
 3665 0000 55       		pushq	%rbp
 3666              		.cfi_def_cfa_offset 16
 3667              		.cfi_offset 6, -16
 3668 0001 4889E5   		movq	%rsp, %rbp
 3669              		.cfi_def_cfa_register 6
 3670 0004 4883EC10 		subq	$16, %rsp
 3671 0008 48897DF8 		movq	%rdi, -8(%rbp)
 3672              	.LBB36:
 106:testI2C.cpp   **** 	Buffer buf;
 3673              		.loc 3 106 0
 3674 000c BA000000 		movl	$_ZTV26TestI2C_testFinaliseNoInit+16, %edx
 3674      00
 3675 0011 488B45F8 		movq	-8(%rbp), %rax
 3676 0015 488910   		movq	%rdx, (%rax)
 3677 0018 488B45F8 		movq	-8(%rbp), %rax
 3678 001c 4889C7   		movq	%rax, %rdi
 3679 001f E8000000 		call	_ZN8UnitTest4TestD2Ev
 3679      00
 3680              	.LBE36:
 3681 0024 B8000000 		movl	$0, %eax
 3681      00
 3682 0029 85C0     		testl	%eax, %eax
 3683 002b 740C     		je	.L219
 106:testI2C.cpp   **** 	Buffer buf;
 3684              		.loc 3 106 0 is_stmt 0 discriminator 4
 3685 002d 488B45F8 		movq	-8(%rbp), %rax
 3686 0031 4889C7   		movq	%rax, %rdi
 3687 0034 E8000000 		call	_ZdlPv
 3687      00
 3688              	.L219:
 106:testI2C.cpp   **** 	Buffer buf;
 3689              		.loc 3 106 0
 3690 0039 C9       		leave
 3691              		.cfi_def_cfa 7, 8
 3692 003a C3       		ret
 3693              		.cfi_endproc
 3694              	.LFE1181:
 3696              		.weak	_ZN26TestI2C_testFinaliseNoInitD1Ev
 3697              		.set	_ZN26TestI2C_testFinaliseNoInitD1Ev,_ZN26TestI2C_testFinaliseNoInitD2Ev
 3698              		.section	.text._ZN26TestI2C_testFinaliseNoInitD0Ev,"axG",@progbits,_ZN26TestI2C_testFinaliseNoInit
 3699              		.align 2
 3700              		.weak	_ZN26TestI2C_testFinaliseNoInitD0Ev
 3702              	_ZN26TestI2C_testFinaliseNoInitD0Ev:
 3703              	.LFB1183:
 106:testI2C.cpp   **** 	Buffer buf;
 3704              		.loc 3 106 0 is_stmt 1
 3705              		.cfi_startproc
 3706 0000 55       		pushq	%rbp
 3707              		.cfi_def_cfa_offset 16
 3708              		.cfi_offset 6, -16
 3709 0001 4889E5   		movq	%rsp, %rbp
 3710              		.cfi_def_cfa_register 6
 3711 0004 4883EC10 		subq	$16, %rsp
 3712 0008 48897DF8 		movq	%rdi, -8(%rbp)
 106:testI2C.cpp   **** 	Buffer buf;
 3713              		.loc 3 106 0
 3714 000c 488B45F8 		movq	-8(%rbp), %rax
 3715 0010 4889C7   		movq	%rax, %rdi
 3716 0013 E8000000 		call	_ZN26TestI2C_testFinaliseNoInitD1Ev
 3716      00
 3717 0018 488B45F8 		movq	-8(%rbp), %rax
 3718 001c 4889C7   		movq	%rax, %rdi
 3719 001f E8000000 		call	_ZdlPv
 3719      00
 3720 0024 C9       		leave
 3721              		.cfi_def_cfa 7, 8
 3722 0025 C3       		ret
 3723              		.cfi_endproc
 3724              	.LFE1183:
 3726              		.weak	_ZTV21TestI2C_testWPRNoInit
 3727              		.section	.rodata._ZTV21TestI2C_testWPRNoInit,"aG",@progbits,_ZTV21TestI2C_testWPRNoInit,comdat
 3728              		.align 8
 3731              	_ZTV21TestI2C_testWPRNoInit:
 3732 0000 00000000 		.quad	0
 3732      00000000 
 3733 0008 00000000 		.quad	_ZTI21TestI2C_testWPRNoInit
 3733      00000000 
 3734 0010 00000000 		.quad	_ZN21TestI2C_testWPRNoInitD1Ev
 3734      00000000 
 3735 0018 00000000 		.quad	_ZN21TestI2C_testWPRNoInitD0Ev
 3735      00000000 
 3736 0020 00000000 		.quad	_ZNK21TestI2C_testWPRNoInit7RunImplEv
 3736      00000000 
 3737              		.section	.text._ZN21TestI2C_testWPRNoInitD2Ev,"axG",@progbits,_ZN21TestI2C_testWPRNoInitD5Ev,comda
 3738              		.align 2
 3739              		.weak	_ZN21TestI2C_testWPRNoInitD2Ev
 3741              	_ZN21TestI2C_testWPRNoInitD2Ev:
 3742              	.LFB1185:
  95:testI2C.cpp   **** 	Buffer i2cBuffer;
 3743              		.loc 3 95 0
 3744              		.cfi_startproc
 3745 0000 55       		pushq	%rbp
 3746              		.cfi_def_cfa_offset 16
 3747              		.cfi_offset 6, -16
 3748 0001 4889E5   		movq	%rsp, %rbp
 3749              		.cfi_def_cfa_register 6
 3750 0004 4883EC10 		subq	$16, %rsp
 3751 0008 48897DF8 		movq	%rdi, -8(%rbp)
 3752              	.LBB37:
  95:testI2C.cpp   **** 	Buffer i2cBuffer;
 3753              		.loc 3 95 0
 3754 000c BA000000 		movl	$_ZTV21TestI2C_testWPRNoInit+16, %edx
 3754      00
 3755 0011 488B45F8 		movq	-8(%rbp), %rax
 3756 0015 488910   		movq	%rdx, (%rax)
 3757 0018 488B45F8 		movq	-8(%rbp), %rax
 3758 001c 4889C7   		movq	%rax, %rdi
 3759 001f E8000000 		call	_ZN8UnitTest4TestD2Ev
 3759      00
 3760              	.LBE37:
 3761 0024 B8000000 		movl	$0, %eax
 3761      00
 3762 0029 85C0     		testl	%eax, %eax
 3763 002b 740C     		je	.L222
  95:testI2C.cpp   **** 	Buffer i2cBuffer;
 3764              		.loc 3 95 0 is_stmt 0 discriminator 4
 3765 002d 488B45F8 		movq	-8(%rbp), %rax
 3766 0031 4889C7   		movq	%rax, %rdi
 3767 0034 E8000000 		call	_ZdlPv
 3767      00
 3768              	.L222:
  95:testI2C.cpp   **** 	Buffer i2cBuffer;
 3769              		.loc 3 95 0
 3770 0039 C9       		leave
 3771              		.cfi_def_cfa 7, 8
 3772 003a C3       		ret
 3773              		.cfi_endproc
 3774              	.LFE1185:
 3776              		.weak	_ZN21TestI2C_testWPRNoInitD1Ev
 3777              		.set	_ZN21TestI2C_testWPRNoInitD1Ev,_ZN21TestI2C_testWPRNoInitD2Ev
 3778              		.section	.text._ZN21TestI2C_testWPRNoInitD0Ev,"axG",@progbits,_ZN21TestI2C_testWPRNoInitD5Ev,comda
 3779              		.align 2
 3780              		.weak	_ZN21TestI2C_testWPRNoInitD0Ev
 3782              	_ZN21TestI2C_testWPRNoInitD0Ev:
 3783              	.LFB1187:
  95:testI2C.cpp   **** 	Buffer i2cBuffer;
 3784              		.loc 3 95 0 is_stmt 1
 3785              		.cfi_startproc
 3786 0000 55       		pushq	%rbp
 3787              		.cfi_def_cfa_offset 16
 3788              		.cfi_offset 6, -16
 3789 0001 4889E5   		movq	%rsp, %rbp
 3790              		.cfi_def_cfa_register 6
 3791 0004 4883EC10 		subq	$16, %rsp
 3792 0008 48897DF8 		movq	%rdi, -8(%rbp)
  95:testI2C.cpp   **** 	Buffer i2cBuffer;
 3793              		.loc 3 95 0
 3794 000c 488B45F8 		movq	-8(%rbp), %rax
 3795 0010 4889C7   		movq	%rax, %rdi
 3796 0013 E8000000 		call	_ZN21TestI2C_testWPRNoInitD1Ev
 3796      00
 3797 0018 488B45F8 		movq	-8(%rbp), %rax
 3798 001c 4889C7   		movq	%rax, %rdi
 3799 001f E8000000 		call	_ZdlPv
 3799      00
 3800 0024 C9       		leave
 3801              		.cfi_def_cfa 7, 8
 3802 0025 C3       		ret
 3803              		.cfi_endproc
 3804              	.LFE1187:
 3806              		.weak	_ZTV21TestI2C_testRoundTrip
 3807              		.section	.rodata._ZTV21TestI2C_testRoundTrip,"aG",@progbits,_ZTV21TestI2C_testRoundTrip,comdat
 3808              		.align 8
 3811              	_ZTV21TestI2C_testRoundTrip:
 3812 0000 00000000 		.quad	0
 3812      00000000 
 3813 0008 00000000 		.quad	_ZTI21TestI2C_testRoundTrip
 3813      00000000 
 3814 0010 00000000 		.quad	_ZN21TestI2C_testRoundTripD1Ev
 3814      00000000 
 3815 0018 00000000 		.quad	_ZN21TestI2C_testRoundTripD0Ev
 3815      00000000 
 3816 0020 00000000 		.quad	_ZNK21TestI2C_testRoundTrip7RunImplEv
 3816      00000000 
 3817              		.section	.text._ZN21TestI2C_testRoundTripD2Ev,"axG",@progbits,_ZN21TestI2C_testRoundTripD5Ev,comda
 3818              		.align 2
 3819              		.weak	_ZN21TestI2C_testRoundTripD2Ev
 3821              	_ZN21TestI2C_testRoundTripD2Ev:
 3822              	.LFB1189:
  47:testI2C.cpp   **** 	uint32 i, j;
 3823              		.loc 3 47 0
 3824              		.cfi_startproc
 3825 0000 55       		pushq	%rbp
 3826              		.cfi_def_cfa_offset 16
 3827              		.cfi_offset 6, -16
 3828 0001 4889E5   		movq	%rsp, %rbp
 3829              		.cfi_def_cfa_register 6
 3830 0004 4883EC10 		subq	$16, %rsp
 3831 0008 48897DF8 		movq	%rdi, -8(%rbp)
 3832              	.LBB38:
  47:testI2C.cpp   **** 	uint32 i, j;
 3833              		.loc 3 47 0
 3834 000c BA000000 		movl	$_ZTV21TestI2C_testRoundTrip+16, %edx
 3834      00
 3835 0011 488B45F8 		movq	-8(%rbp), %rax
 3836 0015 488910   		movq	%rdx, (%rax)
 3837 0018 488B45F8 		movq	-8(%rbp), %rax
 3838 001c 4889C7   		movq	%rax, %rdi
 3839 001f E8000000 		call	_ZN8UnitTest4TestD2Ev
 3839      00
 3840              	.LBE38:
 3841 0024 B8000000 		movl	$0, %eax
 3841      00
 3842 0029 85C0     		testl	%eax, %eax
 3843 002b 740C     		je	.L225
  47:testI2C.cpp   **** 	uint32 i, j;
 3844              		.loc 3 47 0 is_stmt 0 discriminator 4
 3845 002d 488B45F8 		movq	-8(%rbp), %rax
 3846 0031 4889C7   		movq	%rax, %rdi
 3847 0034 E8000000 		call	_ZdlPv
 3847      00
 3848              	.L225:
  47:testI2C.cpp   **** 	uint32 i, j;
 3849              		.loc 3 47 0
 3850 0039 C9       		leave
 3851              		.cfi_def_cfa 7, 8
 3852 003a C3       		ret
 3853              		.cfi_endproc
 3854              	.LFE1189:
 3856              		.weak	_ZN21TestI2C_testRoundTripD1Ev
 3857              		.set	_ZN21TestI2C_testRoundTripD1Ev,_ZN21TestI2C_testRoundTripD2Ev
 3858              		.section	.text._ZN21TestI2C_testRoundTripD0Ev,"axG",@progbits,_ZN21TestI2C_testRoundTripD5Ev,comda
 3859              		.align 2
 3860              		.weak	_ZN21TestI2C_testRoundTripD0Ev
 3862              	_ZN21TestI2C_testRoundTripD0Ev:
 3863              	.LFB1191:
  47:testI2C.cpp   **** 	uint32 i, j;
 3864              		.loc 3 47 0 is_stmt 1
 3865              		.cfi_startproc
 3866 0000 55       		pushq	%rbp
 3867              		.cfi_def_cfa_offset 16
 3868              		.cfi_offset 6, -16
 3869 0001 4889E5   		movq	%rsp, %rbp
 3870              		.cfi_def_cfa_register 6
 3871 0004 4883EC10 		subq	$16, %rsp
 3872 0008 48897DF8 		movq	%rdi, -8(%rbp)
  47:testI2C.cpp   **** 	uint32 i, j;
 3873              		.loc 3 47 0
 3874 000c 488B45F8 		movq	-8(%rbp), %rax
 3875 0010 4889C7   		movq	%rax, %rdi
 3876 0013 E8000000 		call	_ZN21TestI2C_testRoundTripD1Ev
 3876      00
 3877 0018 488B45F8 		movq	-8(%rbp), %rax
 3878 001c 4889C7   		movq	%rax, %rdi
 3879 001f E8000000 		call	_ZdlPv
 3879      00
 3880 0024 C9       		leave
 3881              		.cfi_def_cfa 7, 8
 3882 0025 C3       		ret
 3883              		.cfi_endproc
 3884              	.LFE1191:
 3886              		.weak	_ZTV22TestI2C_testInitialise
 3887              		.section	.rodata._ZTV22TestI2C_testInitialise,"aG",@progbits,_ZTV22TestI2C_testInitialise,comdat
 3888              		.align 8
 3891              	_ZTV22TestI2C_testInitialise:
 3892 0000 00000000 		.quad	0
 3892      00000000 
 3893 0008 00000000 		.quad	_ZTI22TestI2C_testInitialise
 3893      00000000 
 3894 0010 00000000 		.quad	_ZN22TestI2C_testInitialiseD1Ev
 3894      00000000 
 3895 0018 00000000 		.quad	_ZN22TestI2C_testInitialiseD0Ev
 3895      00000000 
 3896 0020 00000000 		.quad	_ZNK22TestI2C_testInitialise7RunImplEv
 3896      00000000 
 3897              		.section	.text._ZN22TestI2C_testInitialiseD2Ev,"axG",@progbits,_ZN22TestI2C_testInitialiseD5Ev,com
 3898              		.align 2
 3899              		.weak	_ZN22TestI2C_testInitialiseD2Ev
 3901              	_ZN22TestI2C_testInitialiseD2Ev:
 3902              	.LFB1193:
  31:testI2C.cpp   **** 	Buffer i2cBuffer;
 3903              		.loc 3 31 0
 3904              		.cfi_startproc
 3905 0000 55       		pushq	%rbp
 3906              		.cfi_def_cfa_offset 16
 3907              		.cfi_offset 6, -16
 3908 0001 4889E5   		movq	%rsp, %rbp
 3909              		.cfi_def_cfa_register 6
 3910 0004 4883EC10 		subq	$16, %rsp
 3911 0008 48897DF8 		movq	%rdi, -8(%rbp)
 3912              	.LBB39:
  31:testI2C.cpp   **** 	Buffer i2cBuffer;
 3913              		.loc 3 31 0
 3914 000c BA000000 		movl	$_ZTV22TestI2C_testInitialise+16, %edx
 3914      00
 3915 0011 488B45F8 		movq	-8(%rbp), %rax
 3916 0015 488910   		movq	%rdx, (%rax)
 3917 0018 488B45F8 		movq	-8(%rbp), %rax
 3918 001c 4889C7   		movq	%rax, %rdi
 3919 001f E8000000 		call	_ZN8UnitTest4TestD2Ev
 3919      00
 3920              	.LBE39:
 3921 0024 B8000000 		movl	$0, %eax
 3921      00
 3922 0029 85C0     		testl	%eax, %eax
 3923 002b 740C     		je	.L228
  31:testI2C.cpp   **** 	Buffer i2cBuffer;
 3924              		.loc 3 31 0 is_stmt 0 discriminator 4
 3925 002d 488B45F8 		movq	-8(%rbp), %rax
 3926 0031 4889C7   		movq	%rax, %rdi
 3927 0034 E8000000 		call	_ZdlPv
 3927      00
 3928              	.L228:
  31:testI2C.cpp   **** 	Buffer i2cBuffer;
 3929              		.loc 3 31 0
 3930 0039 C9       		leave
 3931              		.cfi_def_cfa 7, 8
 3932 003a C3       		ret
 3933              		.cfi_endproc
 3934              	.LFE1193:
 3936              		.weak	_ZN22TestI2C_testInitialiseD1Ev
 3937              		.set	_ZN22TestI2C_testInitialiseD1Ev,_ZN22TestI2C_testInitialiseD2Ev
 3938              		.section	.text._ZN22TestI2C_testInitialiseD0Ev,"axG",@progbits,_ZN22TestI2C_testInitialiseD5Ev,com
 3939              		.align 2
 3940              		.weak	_ZN22TestI2C_testInitialiseD0Ev
 3942              	_ZN22TestI2C_testInitialiseD0Ev:
 3943              	.LFB1195:
  31:testI2C.cpp   **** 	Buffer i2cBuffer;
 3944              		.loc 3 31 0 is_stmt 1
 3945              		.cfi_startproc
 3946 0000 55       		pushq	%rbp
 3947              		.cfi_def_cfa_offset 16
 3948              		.cfi_offset 6, -16
 3949 0001 4889E5   		movq	%rsp, %rbp
 3950              		.cfi_def_cfa_register 6
 3951 0004 4883EC10 		subq	$16, %rsp
 3952 0008 48897DF8 		movq	%rdi, -8(%rbp)
  31:testI2C.cpp   **** 	Buffer i2cBuffer;
 3953              		.loc 3 31 0
 3954 000c 488B45F8 		movq	-8(%rbp), %rax
 3955 0010 4889C7   		movq	%rax, %rdi
 3956 0013 E8000000 		call	_ZN22TestI2C_testInitialiseD1Ev
 3956      00
 3957 0018 488B45F8 		movq	-8(%rbp), %rax
 3958 001c 4889C7   		movq	%rax, %rdi
 3959 001f E8000000 		call	_ZdlPv
 3959      00
 3960 0024 C9       		leave
 3961              		.cfi_def_cfa 7, 8
 3962 0025 C3       		ret
 3963              		.cfi_endproc
 3964              	.LFE1195:
 3966              		.weak	_ZTVN8UnitTest15MemoryOutStreamE
 3967              		.section	.rodata._ZTVN8UnitTest15MemoryOutStreamE,"aG",@progbits,_ZTVN8UnitTest15MemoryOutStreamE,
 3968              		.align 8
 3971              	_ZTVN8UnitTest15MemoryOutStreamE:
 3972 0000 90000000 		.quad	144
 3972      00000000 
 3973 0008 00000000 		.quad	0
 3973      00000000 
 3974 0010 00000000 		.quad	_ZTIN8UnitTest15MemoryOutStreamE
 3974      00000000 
 3975 0018 00000000 		.quad	_ZN8UnitTest15MemoryOutStreamD1Ev
 3975      00000000 
 3976 0020 00000000 		.quad	_ZN8UnitTest15MemoryOutStreamD0Ev
 3976      00000000 
 3977 0028 70FFFFFF 		.quad	-144
 3977      FFFFFFFF 
 3978 0030 70FFFFFF 		.quad	-144
 3978      FFFFFFFF 
 3979 0038 00000000 		.quad	_ZTIN8UnitTest15MemoryOutStreamE
 3979      00000000 
 3980 0040 00000000 		.quad	_ZTv0_n24_N8UnitTest15MemoryOutStreamD1Ev
 3980      00000000 
 3981 0048 00000000 		.quad	_ZTv0_n24_N8UnitTest15MemoryOutStreamD0Ev
 3981      00000000 
 3982              		.weak	_ZTTN8UnitTest15MemoryOutStreamE
 3983              		.section	.rodata._ZTTN8UnitTest15MemoryOutStreamE,"aG",@progbits,_ZTVN8UnitTest15MemoryOutStreamE,
 3984              		.align 8
 3987              	_ZTTN8UnitTest15MemoryOutStreamE:
 3988 0000 00000000 		.quad	_ZTVN8UnitTest15MemoryOutStreamE+24
 3988      00000000 
 3989 0008 00000000 		.quad	_ZTCN8UnitTest15MemoryOutStreamE0_NSt7__cxx1119basic_ostringstreamIcSt11char_traitsIcESaIcEE
 3989      00000000 
 3990 0010 00000000 		.quad	_ZTCN8UnitTest15MemoryOutStreamE0_So+24
 3990      00000000 
 3991 0018 00000000 		.quad	_ZTCN8UnitTest15MemoryOutStreamE0_So+64
 3991      00000000 
 3992 0020 00000000 		.quad	_ZTCN8UnitTest15MemoryOutStreamE0_NSt7__cxx1119basic_ostringstreamIcSt11char_traitsIcESaIcEE
 3992      00000000 
 3993 0028 00000000 		.quad	_ZTVN8UnitTest15MemoryOutStreamE+64
 3993      00000000 
 3994              		.hidden	_ZTCN8UnitTest15MemoryOutStreamE0_NSt7__cxx1119basic_ostringstreamIcSt11char_traitsIcESaIc
 3995              		.weak	_ZTCN8UnitTest15MemoryOutStreamE0_NSt7__cxx1119basic_ostringstreamIcSt11char_traitsIcESaIcEE
 3996              		.section	.rodata._ZTCN8UnitTest15MemoryOutStreamE0_NSt7__cxx1119basic_ostringstreamIcSt11char_trai
 3997              		.align 8
 4000              	_ZTCN8UnitTest15MemoryOutStreamE0_NSt7__cxx1119basic_ostringstreamIcSt11char_traitsIcESaIcEEE:
 4001 0000 90000000 		.quad	144
 4001      00000000 
 4002 0008 00000000 		.quad	0
 4002      00000000 
 4003 0010 00000000 		.quad	_ZTINSt7__cxx1119basic_ostringstreamIcSt11char_traitsIcESaIcEEE
 4003      00000000 
 4004 0018 00000000 		.quad	0
 4004      00000000 
 4005 0020 00000000 		.quad	0
 4005      00000000 
 4006 0028 70FFFFFF 		.quad	-144
 4006      FFFFFFFF 
 4007 0030 70FFFFFF 		.quad	-144
 4007      FFFFFFFF 
 4008 0038 00000000 		.quad	_ZTINSt7__cxx1119basic_ostringstreamIcSt11char_traitsIcESaIcEEE
 4008      00000000 
 4009 0040 00000000 		.quad	0
 4009      00000000 
 4010 0048 00000000 		.quad	0
 4010      00000000 
 4011              		.hidden	_ZTCN8UnitTest15MemoryOutStreamE0_So
 4012              		.weak	_ZTCN8UnitTest15MemoryOutStreamE0_So
 4013              		.section	.rodata._ZTCN8UnitTest15MemoryOutStreamE0_So,"aG",@progbits,_ZTVN8UnitTest15MemoryOutStre
 4014              		.align 8
 4017              	_ZTCN8UnitTest15MemoryOutStreamE0_So:
 4018 0000 90000000 		.quad	144
 4018      00000000 
 4019 0008 00000000 		.quad	0
 4019      00000000 
 4020 0010 00000000 		.quad	_ZTISo
 4020      00000000 
 4021 0018 00000000 		.quad	0
 4021      00000000 
 4022 0020 00000000 		.quad	0
 4022      00000000 
 4023 0028 70FFFFFF 		.quad	-144
 4023      FFFFFFFF 
 4024 0030 70FFFFFF 		.quad	-144
 4024      FFFFFFFF 
 4025 0038 00000000 		.quad	_ZTISo
 4025      00000000 
 4026 0040 00000000 		.quad	0
 4026      00000000 
 4027 0048 00000000 		.quad	0
 4027      00000000 
 4028              		.weak	_ZTI26TestI2C_testFinaliseNoInit
 4029              		.section	.rodata._ZTI26TestI2C_testFinaliseNoInit,"aG",@progbits,_ZTI26TestI2C_testFinaliseNoInit,
 4030              		.align 8
 4033              	_ZTI26TestI2C_testFinaliseNoInit:
 4034 0000 00000000 		.quad	_ZTVN10__cxxabiv120__si_class_type_infoE+16
 4034      00000000 
 4035 0008 00000000 		.quad	_ZTS26TestI2C_testFinaliseNoInit
 4035      00000000 
 4036 0010 00000000 		.quad	_ZTIN8UnitTest4TestE
 4036      00000000 
 4037              		.weak	_ZTS26TestI2C_testFinaliseNoInit
 4038              		.section	.rodata._ZTS26TestI2C_testFinaliseNoInit,"aG",@progbits,_ZTS26TestI2C_testFinaliseNoInit,
 4039              		.align 16
 4042              	_ZTS26TestI2C_testFinaliseNoInit:
 4043 0000 32365465 		.string	"26TestI2C_testFinaliseNoInit"
 4043      73744932 
 4043      435F7465 
 4043      73744669 
 4043      6E616C69 
 4044              		.weak	_ZTI21TestI2C_testWPRNoInit
 4045              		.section	.rodata._ZTI21TestI2C_testWPRNoInit,"aG",@progbits,_ZTI21TestI2C_testWPRNoInit,comdat
 4046              		.align 8
 4049              	_ZTI21TestI2C_testWPRNoInit:
 4050 0000 00000000 		.quad	_ZTVN10__cxxabiv120__si_class_type_infoE+16
 4050      00000000 
 4051 0008 00000000 		.quad	_ZTS21TestI2C_testWPRNoInit
 4051      00000000 
 4052 0010 00000000 		.quad	_ZTIN8UnitTest4TestE
 4052      00000000 
 4053              		.weak	_ZTS21TestI2C_testWPRNoInit
 4054              		.section	.rodata._ZTS21TestI2C_testWPRNoInit,"aG",@progbits,_ZTS21TestI2C_testWPRNoInit,comdat
 4055              		.align 16
 4058              	_ZTS21TestI2C_testWPRNoInit:
 4059 0000 32315465 		.string	"21TestI2C_testWPRNoInit"
 4059      73744932 
 4059      435F7465 
 4059      73745750 
 4059      524E6F49 
 4060              		.weak	_ZTI21TestI2C_testRoundTrip
 4061              		.section	.rodata._ZTI21TestI2C_testRoundTrip,"aG",@progbits,_ZTI21TestI2C_testRoundTrip,comdat
 4062              		.align 8
 4065              	_ZTI21TestI2C_testRoundTrip:
 4066 0000 00000000 		.quad	_ZTVN10__cxxabiv120__si_class_type_infoE+16
 4066      00000000 
 4067 0008 00000000 		.quad	_ZTS21TestI2C_testRoundTrip
 4067      00000000 
 4068 0010 00000000 		.quad	_ZTIN8UnitTest4TestE
 4068      00000000 
 4069              		.weak	_ZTS21TestI2C_testRoundTrip
 4070              		.section	.rodata._ZTS21TestI2C_testRoundTrip,"aG",@progbits,_ZTS21TestI2C_testRoundTrip,comdat
 4071              		.align 16
 4074              	_ZTS21TestI2C_testRoundTrip:
 4075 0000 32315465 		.string	"21TestI2C_testRoundTrip"
 4075      73744932 
 4075      435F7465 
 4075      7374526F 
 4075      756E6454 
 4076              		.weak	_ZTI22TestI2C_testInitialise
 4077              		.section	.rodata._ZTI22TestI2C_testInitialise,"aG",@progbits,_ZTI22TestI2C_testInitialise,comdat
 4078              		.align 8
 4081              	_ZTI22TestI2C_testInitialise:
 4082 0000 00000000 		.quad	_ZTVN10__cxxabiv120__si_class_type_infoE+16
 4082      00000000 
 4083 0008 00000000 		.quad	_ZTS22TestI2C_testInitialise
 4083      00000000 
 4084 0010 00000000 		.quad	_ZTIN8UnitTest4TestE
 4084      00000000 
 4085              		.weak	_ZTS22TestI2C_testInitialise
 4086              		.section	.rodata._ZTS22TestI2C_testInitialise,"aG",@progbits,_ZTS22TestI2C_testInitialise,comdat
 4087              		.align 16
 4090              	_ZTS22TestI2C_testInitialise:
 4091 0000 32325465 		.string	"22TestI2C_testInitialise"
 4091      73744932 
 4091      435F7465 
 4091      7374496E 
 4091      69746961 
 4092              		.weak	_ZTIN8UnitTest15MemoryOutStreamE
 4093              		.section	.rodata._ZTIN8UnitTest15MemoryOutStreamE,"aG",@progbits,_ZTIN8UnitTest15MemoryOutStreamE,
 4094              		.align 8
 4097              	_ZTIN8UnitTest15MemoryOutStreamE:
 4098 0000 00000000 		.quad	_ZTVN10__cxxabiv120__si_class_type_infoE+16
 4098      00000000 
 4099 0008 00000000 		.quad	_ZTSN8UnitTest15MemoryOutStreamE
 4099      00000000 
 4100 0010 00000000 		.quad	_ZTINSt7__cxx1119basic_ostringstreamIcSt11char_traitsIcESaIcEEE
 4100      00000000 
 4101              		.weak	_ZTSN8UnitTest15MemoryOutStreamE
 4102              		.section	.rodata._ZTSN8UnitTest15MemoryOutStreamE,"aG",@progbits,_ZTSN8UnitTest15MemoryOutStreamE,
 4103              		.align 16
 4106              	_ZTSN8UnitTest15MemoryOutStreamE:
 4107 0000 4E38556E 		.string	"N8UnitTest15MemoryOutStreamE"
 4107      69745465 
 4107      73743135 
 4107      4D656D6F 
 4107      72794F75 
 4108              		.text
 4110              	_Z41__static_initialization_and_destruction_0ii:
 4111              	.LFB1196:
 4112              		.loc 3 115 0
 4113              		.cfi_startproc
 4114 11a5 55       		pushq	%rbp
 4115              		.cfi_def_cfa_offset 16
 4116              		.cfi_offset 6, -16
 4117 11a6 4889E5   		movq	%rsp, %rbp
 4118              		.cfi_def_cfa_register 6
 4119 11a9 4883EC10 		subq	$16, %rsp
 4120 11ad 897DFC   		movl	%edi, -4(%rbp)
 4121 11b0 8975F8   		movl	%esi, -8(%rbp)
 4122              		.loc 3 115 0
 4123 11b3 837DFC01 		cmpl	$1, -4(%rbp)
 4124 11b7 0F85E100 		jne	.L233
 4124      0000
 4125              		.loc 3 115 0 is_stmt 0 discriminator 1
 4126 11bd 817DF8FF 		cmpl	$65535, -8(%rbp)
 4126      FF0000
 4127 11c4 0F85D400 		jne	.L233
 4127      0000
  31:testI2C.cpp   **** 	Buffer i2cBuffer;
 4128              		.loc 3 31 0 is_stmt 1
 4129 11ca BF000000 		movl	$testI2C_testInitialiseInstance, %edi
 4129      00
 4130 11cf E8000000 		call	_ZN22TestI2C_testInitialiseC1Ev
 4130      00
 4131 11d4 BA000000 		movl	$__dso_handle, %edx
 4131      00
 4132 11d9 BE000000 		movl	$testI2C_testInitialiseInstance, %esi
 4132      00
 4133 11de BF000000 		movl	$_ZN22TestI2C_testInitialiseD1Ev, %edi
 4133      00
 4134 11e3 E8000000 		call	__cxa_atexit
 4134      00
 4135 11e8 E8000000 		call	_ZN8UnitTest4Test11GetTestListEv
 4135      00
 4136 11ed BA000000 		movl	$testI2C_testInitialiseInstance, %edx
 4136      00
 4137 11f2 4889C6   		movq	%rax, %rsi
 4138 11f5 BF000000 		movl	$adderI2C_testInitialise, %edi
 4138      00
 4139 11fa E8000000 		call	_ZN8UnitTest9ListAdderC1ERNS_8TestListEPNS_4TestE
 4139      00
  47:testI2C.cpp   **** 	uint32 i, j;
 4140              		.loc 3 47 0
 4141 11ff BF000000 		movl	$testI2C_testRoundTripInstance, %edi
 4141      00
 4142 1204 E8000000 		call	_ZN21TestI2C_testRoundTripC1Ev
 4142      00
 4143 1209 BA000000 		movl	$__dso_handle, %edx
 4143      00
 4144 120e BE000000 		movl	$testI2C_testRoundTripInstance, %esi
 4144      00
 4145 1213 BF000000 		movl	$_ZN21TestI2C_testRoundTripD1Ev, %edi
 4145      00
 4146 1218 E8000000 		call	__cxa_atexit
 4146      00
 4147 121d E8000000 		call	_ZN8UnitTest4Test11GetTestListEv
 4147      00
 4148 1222 BA000000 		movl	$testI2C_testRoundTripInstance, %edx
 4148      00
 4149 1227 4889C6   		movq	%rax, %rsi
 4150 122a BF000000 		movl	$adderI2C_testRoundTrip, %edi
 4150      00
 4151 122f E8000000 		call	_ZN8UnitTest9ListAdderC1ERNS_8TestListEPNS_4TestE
 4151      00
  95:testI2C.cpp   **** 	Buffer i2cBuffer;
 4152              		.loc 3 95 0
 4153 1234 BF000000 		movl	$testI2C_testWPRNoInitInstance, %edi
 4153      00
 4154 1239 E8000000 		call	_ZN21TestI2C_testWPRNoInitC1Ev
 4154      00
 4155 123e BA000000 		movl	$__dso_handle, %edx
 4155      00
 4156 1243 BE000000 		movl	$testI2C_testWPRNoInitInstance, %esi
 4156      00
 4157 1248 BF000000 		movl	$_ZN21TestI2C_testWPRNoInitD1Ev, %edi
 4157      00
 4158 124d E8000000 		call	__cxa_atexit
 4158      00
 4159 1252 E8000000 		call	_ZN8UnitTest4Test11GetTestListEv
 4159      00
 4160 1257 BA000000 		movl	$testI2C_testWPRNoInitInstance, %edx
 4160      00
 4161 125c 4889C6   		movq	%rax, %rsi
 4162 125f BF000000 		movl	$adderI2C_testWPRNoInit, %edi
 4162      00
 4163 1264 E8000000 		call	_ZN8UnitTest9ListAdderC1ERNS_8TestListEPNS_4TestE
 4163      00
 106:testI2C.cpp   **** 	Buffer buf;
 4164              		.loc 3 106 0
 4165 1269 BF000000 		movl	$testI2C_testFinaliseNoInitInstance, %edi
 4165      00
 4166 126e E8000000 		call	_ZN26TestI2C_testFinaliseNoInitC1Ev
 4166      00
 4167 1273 BA000000 		movl	$__dso_handle, %edx
 4167      00
 4168 1278 BE000000 		movl	$testI2C_testFinaliseNoInitInstance, %esi
 4168      00
 4169 127d BF000000 		movl	$_ZN26TestI2C_testFinaliseNoInitD1Ev, %edi
 4169      00
 4170 1282 E8000000 		call	__cxa_atexit
 4170      00
 4171 1287 E8000000 		call	_ZN8UnitTest4Test11GetTestListEv
 4171      00
 4172 128c BA000000 		movl	$testI2C_testFinaliseNoInitInstance, %edx
 4172      00
 4173 1291 4889C6   		movq	%rax, %rsi
 4174 1294 BF000000 		movl	$adderI2C_testFinaliseNoInit, %edi
 4174      00
 4175 1299 E8000000 		call	_ZN8UnitTest9ListAdderC1ERNS_8TestListEPNS_4TestE
 4175      00
 4176              	.L233:
 4177              		.loc 3 115 0
 4178 129e 90       		nop
 4179 129f C9       		leave
 4180              		.cfi_def_cfa 7, 8
 4181 12a0 C3       		ret
 4182              		.cfi_endproc
 4183              	.LFE1196:
 4186              	_GLOBAL__sub_I_testI2C_testInitialiseInstance:
 4187              	.LFB1197:
 4188              		.loc 3 115 0
 4189              		.cfi_startproc
 4190 12a1 55       		pushq	%rbp
 4191              		.cfi_def_cfa_offset 16
 4192              		.cfi_offset 6, -16
 4193 12a2 4889E5   		movq	%rsp, %rbp
 4194              		.cfi_def_cfa_register 6
 4195              		.loc 3 115 0
 4196 12a5 BEFFFF00 		movl	$65535, %esi
 4196      00
 4197 12aa BF010000 		movl	$1, %edi
 4197      00
 4198 12af E8F1FEFF 		call	_Z41__static_initialization_and_destruction_0ii
 4198      FF
 4199 12b4 5D       		popq	%rbp
 4200              		.cfi_def_cfa 7, 8
 4201 12b5 C3       		ret
 4202              		.cfi_endproc
 4203              	.LFE1197:
 4205              		.section	.init_array,"aw"
 4206              		.align 8
 4207 0000 00000000 		.quad	_GLOBAL__sub_I_testI2C_testInitialiseInstance
 4207      00000000 
 4208              		.text
 4209              	.Letext0:
 4210              		.file 5 "/home/shubham/20140524/makestuff/libs/libutpp/TestDetails.h"
 4211              		.file 6 "/home/shubham/20140524/makestuff/libs/libutpp/TestList.h"
 4212              		.file 7 "/home/shubham/20140524/makestuff/libs/libutpp/TestResults.h"
 4213              		.file 8 "/usr/include/x86_64-linux-gnu/c++/5/bits/c++config.h"
 4214              		.file 9 "/usr/include/c++/5/bits/basic_string.h"
 4215              		.file 10 "/usr/lib/gcc/x86_64-linux-gnu/5/include/stddef.h"
 4216              		.file 11 "/usr/include/c++/5/bits/basic_string.tcc"
 4217              		.file 12 "/usr/include/c++/5/bits/stringfwd.h"
 4218              		.file 13 "/usr/include/c++/5/cwchar"
 4219              		.file 14 "/usr/include/c++/5/bits/char_traits.h"
 4220              		.file 15 "/usr/include/c++/5/clocale"
 4221              		.file 16 "/usr/include/c++/5/bits/allocator.h"
 4222              		.file 17 "/usr/include/c++/5/cwctype"
 4223              		.file 18 "/usr/include/c++/5/debug/debug.h"
 4224              		.file 19 "/usr/include/c++/5/bits/predefined_ops.h"
 4225              		.file 20 "/usr/include/c++/5/ext/new_allocator.h"
 4226              		.file 21 "/usr/include/c++/5/ext/numeric_traits.h"
 4227              		.file 22 "/usr/include/c++/5/ext/alloc_traits.h"
 4228              		.file 23 "/usr/include/stdio.h"
 4229              		.file 24 "<built-in>"
 4230              		.file 25 "/usr/include/wchar.h"
 4231              		.file 26 "/usr/include/time.h"
 4232              		.file 27 "/usr/include/locale.h"
 4233              		.file 28 "/usr/include/x86_64-linux-gnu/bits/types.h"
 4234              		.file 29 "/usr/include/wctype.h"
 4235              		.file 30 "/usr/include/x86_64-linux-gnu/sys/time.h"
 4236              		.file 31 "/home/shubham/20140524/makestuff/common/makestuff.h"
 4237              		.file 32 "/home/shubham/20140524/makestuff/libs/libbuffer/libbuffer.h"
 4238              		.file 33 "../libfx2loader.h"