   1              		.file	"testCore.cpp"
   2              		.section	.text.unlikely._ZN17TestCore_testSwapD2Ev,"axG",@progbits,_ZN17TestCore_testSwapD5Ev,comd
   3              		.align 2
   4              	.LCOLDB0:
   5              		.section	.text._ZN17TestCore_testSwapD2Ev,"axG",@progbits,_ZN17TestCore_testSwapD5Ev,comdat
   6              	.LHOTB0:
   7              		.align 2
   8              		.p2align 4,,15
   9              		.weak	_ZN17TestCore_testSwapD2Ev
  11              	_ZN17TestCore_testSwapD2Ev:
  12              	.LFB1400:
  13              		.cfi_startproc
  14 0000 48C70700 		movq	$_ZTV17TestCore_testSwap+16, (%rdi)
  14      000000
  15 0007 E9000000 		jmp	_ZN8UnitTest4TestD2Ev
  15      00
  16              		.cfi_endproc
  17              	.LFE1400:
  19              		.section	.text.unlikely._ZN17TestCore_testSwapD2Ev,"axG",@progbits,_ZN17TestCore_testSwapD5Ev,comd
  20              	.LCOLDE0:
  21              		.section	.text._ZN17TestCore_testSwapD2Ev,"axG",@progbits,_ZN17TestCore_testSwapD5Ev,comdat
  22              	.LHOTE0:
  23              		.weak	_ZN17TestCore_testSwapD1Ev
  24              		.set	_ZN17TestCore_testSwapD1Ev,_ZN17TestCore_testSwapD2Ev
  25              		.section	.text.unlikely._ZN17TestCore_testSwapD0Ev,"axG",@progbits,_ZN17TestCore_testSwapD5Ev,comd
  26              		.align 2
  27              	.LCOLDB1:
  28              		.section	.text._ZN17TestCore_testSwapD0Ev,"axG",@progbits,_ZN17TestCore_testSwapD5Ev,comdat
  29              	.LHOTB1:
  30              		.align 2
  31              		.p2align 4,,15
  32              		.weak	_ZN17TestCore_testSwapD0Ev
  34              	_ZN17TestCore_testSwapD0Ev:
  35              	.LFB1402:
  36              		.cfi_startproc
  37 0000 53       		pushq	%rbx
  38              		.cfi_def_cfa_offset 16
  39              		.cfi_offset 3, -16
  40 0001 4889FB   		movq	%rdi, %rbx
  41 0004 48C70700 		movq	$_ZTV17TestCore_testSwap+16, (%rdi)
  41      000000
  42 000b E8000000 		call	_ZN8UnitTest4TestD2Ev
  42      00
  43 0010 4889DF   		movq	%rbx, %rdi
  44 0013 5B       		popq	%rbx
  45              		.cfi_def_cfa_offset 8
  46 0014 E9000000 		jmp	_ZdlPv
  46      00
  47              		.cfi_endproc
  48              	.LFE1402:
  50              		.section	.text.unlikely._ZN17TestCore_testSwapD0Ev,"axG",@progbits,_ZN17TestCore_testSwapD5Ev,comd
  51              	.LCOLDE1:
  52              		.section	.text._ZN17TestCore_testSwapD0Ev,"axG",@progbits,_ZN17TestCore_testSwapD5Ev,comdat
  53              	.LHOTE1:
  54              		.section	.text.unlikely._ZN28TestCore_testAssignNoReallocD2Ev,"axG",@progbits,_ZN28TestCore_testAs
  55              		.align 2
  56              	.LCOLDB2:
  57              		.section	.text._ZN28TestCore_testAssignNoReallocD2Ev,"axG",@progbits,_ZN28TestCore_testAssignNoRea
  58              	.LHOTB2:
  59              		.align 2
  60              		.p2align 4,,15
  61              		.weak	_ZN28TestCore_testAssignNoReallocD2Ev
  63              	_ZN28TestCore_testAssignNoReallocD2Ev:
  64              	.LFB1404:
  65              		.cfi_startproc
  66 0000 48C70700 		movq	$_ZTV28TestCore_testAssignNoRealloc+16, (%rdi)
  66      000000
  67 0007 E9000000 		jmp	_ZN8UnitTest4TestD2Ev
  67      00
  68              		.cfi_endproc
  69              	.LFE1404:
  71              		.section	.text.unlikely._ZN28TestCore_testAssignNoReallocD2Ev,"axG",@progbits,_ZN28TestCore_testAs
  72              	.LCOLDE2:
  73              		.section	.text._ZN28TestCore_testAssignNoReallocD2Ev,"axG",@progbits,_ZN28TestCore_testAssignNoRea
  74              	.LHOTE2:
  75              		.weak	_ZN28TestCore_testAssignNoReallocD1Ev
  76              		.set	_ZN28TestCore_testAssignNoReallocD1Ev,_ZN28TestCore_testAssignNoReallocD2Ev
  77              		.section	.text.unlikely._ZN28TestCore_testAssignNoReallocD0Ev,"axG",@progbits,_ZN28TestCore_testAs
  78              		.align 2
  79              	.LCOLDB3:
  80              		.section	.text._ZN28TestCore_testAssignNoReallocD0Ev,"axG",@progbits,_ZN28TestCore_testAssignNoRea
  81              	.LHOTB3:
  82              		.align 2
  83              		.p2align 4,,15
  84              		.weak	_ZN28TestCore_testAssignNoReallocD0Ev
  86              	_ZN28TestCore_testAssignNoReallocD0Ev:
  87              	.LFB1406:
  88              		.cfi_startproc
  89 0000 53       		pushq	%rbx
  90              		.cfi_def_cfa_offset 16
  91              		.cfi_offset 3, -16
  92 0001 4889FB   		movq	%rdi, %rbx
  93 0004 48C70700 		movq	$_ZTV28TestCore_testAssignNoRealloc+16, (%rdi)
  93      000000
  94 000b E8000000 		call	_ZN8UnitTest4TestD2Ev
  94      00
  95 0010 4889DF   		movq	%rbx, %rdi
  96 0013 5B       		popq	%rbx
  97              		.cfi_def_cfa_offset 8
  98 0014 E9000000 		jmp	_ZdlPv
  98      00
  99              		.cfi_endproc
 100              	.LFE1406:
 102              		.section	.text.unlikely._ZN28TestCore_testAssignNoReallocD0Ev,"axG",@progbits,_ZN28TestCore_testAs
 103              	.LCOLDE3:
 104              		.section	.text._ZN28TestCore_testAssignNoReallocD0Ev,"axG",@progbits,_ZN28TestCore_testAssignNoRea
 105              	.LHOTE3:
 106              		.section	.text.unlikely._ZN26TestCore_testAssignReallocD2Ev,"axG",@progbits,_ZN26TestCore_testAssi
 107              		.align 2
 108              	.LCOLDB4:
 109              		.section	.text._ZN26TestCore_testAssignReallocD2Ev,"axG",@progbits,_ZN26TestCore_testAssignRealloc
 110              	.LHOTB4:
 111              		.align 2
 112              		.p2align 4,,15
 113              		.weak	_ZN26TestCore_testAssignReallocD2Ev
 115              	_ZN26TestCore_testAssignReallocD2Ev:
 116              	.LFB1408:
 117              		.cfi_startproc
 118 0000 48C70700 		movq	$_ZTV26TestCore_testAssignRealloc+16, (%rdi)
 118      000000
 119 0007 E9000000 		jmp	_ZN8UnitTest4TestD2Ev
 119      00
 120              		.cfi_endproc
 121              	.LFE1408:
 123              		.section	.text.unlikely._ZN26TestCore_testAssignReallocD2Ev,"axG",@progbits,_ZN26TestCore_testAssi
 124              	.LCOLDE4:
 125              		.section	.text._ZN26TestCore_testAssignReallocD2Ev,"axG",@progbits,_ZN26TestCore_testAssignRealloc
 126              	.LHOTE4:
 127              		.weak	_ZN26TestCore_testAssignReallocD1Ev
 128              		.set	_ZN26TestCore_testAssignReallocD1Ev,_ZN26TestCore_testAssignReallocD2Ev
 129              		.section	.text.unlikely._ZN26TestCore_testAssignReallocD0Ev,"axG",@progbits,_ZN26TestCore_testAssi
 130              		.align 2
 131              	.LCOLDB5:
 132              		.section	.text._ZN26TestCore_testAssignReallocD0Ev,"axG",@progbits,_ZN26TestCore_testAssignRealloc
 133              	.LHOTB5:
 134              		.align 2
 135              		.p2align 4,,15
 136              		.weak	_ZN26TestCore_testAssignReallocD0Ev
 138              	_ZN26TestCore_testAssignReallocD0Ev:
 139              	.LFB1410:
 140              		.cfi_startproc
 141 0000 53       		pushq	%rbx
 142              		.cfi_def_cfa_offset 16
 143              		.cfi_offset 3, -16
 144 0001 4889FB   		movq	%rdi, %rbx
 145 0004 48C70700 		movq	$_ZTV26TestCore_testAssignRealloc+16, (%rdi)
 145      000000
 146 000b E8000000 		call	_ZN8UnitTest4TestD2Ev
 146      00
 147 0010 4889DF   		movq	%rbx, %rdi
 148 0013 5B       		popq	%rbx
 149              		.cfi_def_cfa_offset 8
 150 0014 E9000000 		jmp	_ZdlPv
 150      00
 151              		.cfi_endproc
 152              	.LFE1410:
 154              		.section	.text.unlikely._ZN26TestCore_testAssignReallocD0Ev,"axG",@progbits,_ZN26TestCore_testAssi
 155              	.LCOLDE5:
 156              		.section	.text._ZN26TestCore_testAssignReallocD0Ev,"axG",@progbits,_ZN26TestCore_testAssignRealloc
 157              	.LHOTE5:
 158              		.section	.text.unlikely._ZN26TestCore_testCopyConstructD2Ev,"axG",@progbits,_ZN26TestCore_testCopy
 159              		.align 2
 160              	.LCOLDB6:
 161              		.section	.text._ZN26TestCore_testCopyConstructD2Ev,"axG",@progbits,_ZN26TestCore_testCopyConstruct
 162              	.LHOTB6:
 163              		.align 2
 164              		.p2align 4,,15
 165              		.weak	_ZN26TestCore_testCopyConstructD2Ev
 167              	_ZN26TestCore_testCopyConstructD2Ev:
 168              	.LFB1412:
 169              		.cfi_startproc
 170 0000 48C70700 		movq	$_ZTV26TestCore_testCopyConstruct+16, (%rdi)
 170      000000
 171 0007 E9000000 		jmp	_ZN8UnitTest4TestD2Ev
 171      00
 172              		.cfi_endproc
 173              	.LFE1412:
 175              		.section	.text.unlikely._ZN26TestCore_testCopyConstructD2Ev,"axG",@progbits,_ZN26TestCore_testCopy
 176              	.LCOLDE6:
 177              		.section	.text._ZN26TestCore_testCopyConstructD2Ev,"axG",@progbits,_ZN26TestCore_testCopyConstruct
 178              	.LHOTE6:
 179              		.weak	_ZN26TestCore_testCopyConstructD1Ev
 180              		.set	_ZN26TestCore_testCopyConstructD1Ev,_ZN26TestCore_testCopyConstructD2Ev
 181              		.section	.text.unlikely._ZN26TestCore_testCopyConstructD0Ev,"axG",@progbits,_ZN26TestCore_testCopy
 182              		.align 2
 183              	.LCOLDB7:
 184              		.section	.text._ZN26TestCore_testCopyConstructD0Ev,"axG",@progbits,_ZN26TestCore_testCopyConstruct
 185              	.LHOTB7:
 186              		.align 2
 187              		.p2align 4,,15
 188              		.weak	_ZN26TestCore_testCopyConstructD0Ev
 190              	_ZN26TestCore_testCopyConstructD0Ev:
 191              	.LFB1414:
 192              		.cfi_startproc
 193 0000 53       		pushq	%rbx
 194              		.cfi_def_cfa_offset 16
 195              		.cfi_offset 3, -16
 196 0001 4889FB   		movq	%rdi, %rbx
 197 0004 48C70700 		movq	$_ZTV26TestCore_testCopyConstruct+16, (%rdi)
 197      000000
 198 000b E8000000 		call	_ZN8UnitTest4TestD2Ev
 198      00
 199 0010 4889DF   		movq	%rbx, %rdi
 200 0013 5B       		popq	%rbx
 201              		.cfi_def_cfa_offset 8
 202 0014 E9000000 		jmp	_ZdlPv
 202      00
 203              		.cfi_endproc
 204              	.LFE1414:
 206              		.section	.text.unlikely._ZN26TestCore_testCopyConstructD0Ev,"axG",@progbits,_ZN26TestCore_testCopy
 207              	.LCOLDE7:
 208              		.section	.text._ZN26TestCore_testCopyConstructD0Ev,"axG",@progbits,_ZN26TestCore_testCopyConstruct
 209              	.LHOTE7:
 210              		.section	.text.unlikely._ZN23TestCore_testZeroLengthD2Ev,"axG",@progbits,_ZN23TestCore_testZeroLen
 211              		.align 2
 212              	.LCOLDB8:
 213              		.section	.text._ZN23TestCore_testZeroLengthD2Ev,"axG",@progbits,_ZN23TestCore_testZeroLengthD5Ev,c
 214              	.LHOTB8:
 215              		.align 2
 216              		.p2align 4,,15
 217              		.weak	_ZN23TestCore_testZeroLengthD2Ev
 219              	_ZN23TestCore_testZeroLengthD2Ev:
 220              	.LFB1416:
 221              		.cfi_startproc
 222 0000 48C70700 		movq	$_ZTV23TestCore_testZeroLength+16, (%rdi)
 222      000000
 223 0007 E9000000 		jmp	_ZN8UnitTest4TestD2Ev
 223      00
 224              		.cfi_endproc
 225              	.LFE1416:
 227              		.section	.text.unlikely._ZN23TestCore_testZeroLengthD2Ev,"axG",@progbits,_ZN23TestCore_testZeroLen
 228              	.LCOLDE8:
 229              		.section	.text._ZN23TestCore_testZeroLengthD2Ev,"axG",@progbits,_ZN23TestCore_testZeroLengthD5Ev,c
 230              	.LHOTE8:
 231              		.weak	_ZN23TestCore_testZeroLengthD1Ev
 232              		.set	_ZN23TestCore_testZeroLengthD1Ev,_ZN23TestCore_testZeroLengthD2Ev
 233              		.section	.text.unlikely._ZN23TestCore_testZeroLengthD0Ev,"axG",@progbits,_ZN23TestCore_testZeroLen
 234              		.align 2
 235              	.LCOLDB9:
 236              		.section	.text._ZN23TestCore_testZeroLengthD0Ev,"axG",@progbits,_ZN23TestCore_testZeroLengthD5Ev,c
 237              	.LHOTB9:
 238              		.align 2
 239              		.p2align 4,,15
 240              		.weak	_ZN23TestCore_testZeroLengthD0Ev
 242              	_ZN23TestCore_testZeroLengthD0Ev:
 243              	.LFB1418:
 244              		.cfi_startproc
 245 0000 53       		pushq	%rbx
 246              		.cfi_def_cfa_offset 16
 247              		.cfi_offset 3, -16
 248 0001 4889FB   		movq	%rdi, %rbx
 249 0004 48C70700 		movq	$_ZTV23TestCore_testZeroLength+16, (%rdi)
 249      000000
 250 000b E8000000 		call	_ZN8UnitTest4TestD2Ev
 250      00
 251 0010 4889DF   		movq	%rbx, %rdi
 252 0013 5B       		popq	%rbx
 253              		.cfi_def_cfa_offset 8
 254 0014 E9000000 		jmp	_ZdlPv
 254      00
 255              		.cfi_endproc
 256              	.LFE1418:
 258              		.section	.text.unlikely._ZN23TestCore_testZeroLengthD0Ev,"axG",@progbits,_ZN23TestCore_testZeroLen
 259              	.LCOLDE9:
 260              		.section	.text._ZN23TestCore_testZeroLengthD0Ev,"axG",@progbits,_ZN23TestCore_testZeroLengthD5Ev,c
 261              	.LHOTE9:
 262              		.section	.text.unlikely._ZN33TestCore_testStraddledWriteLongBED2Ev,"axG",@progbits,_ZN33TestCore_t
 263              		.align 2
 264              	.LCOLDB10:
 265              		.section	.text._ZN33TestCore_testStraddledWriteLongBED2Ev,"axG",@progbits,_ZN33TestCore_testStradd
 266              	.LHOTB10:
 267              		.align 2
 268              		.p2align 4,,15
 269              		.weak	_ZN33TestCore_testStraddledWriteLongBED2Ev
 271              	_ZN33TestCore_testStraddledWriteLongBED2Ev:
 272              	.LFB1420:
 273              		.cfi_startproc
 274 0000 48C70700 		movq	$_ZTV33TestCore_testStraddledWriteLongBE+16, (%rdi)
 274      000000
 275 0007 E9000000 		jmp	_ZN8UnitTest4TestD2Ev
 275      00
 276              		.cfi_endproc
 277              	.LFE1420:
 279              		.section	.text.unlikely._ZN33TestCore_testStraddledWriteLongBED2Ev,"axG",@progbits,_ZN33TestCore_t
 280              	.LCOLDE10:
 281              		.section	.text._ZN33TestCore_testStraddledWriteLongBED2Ev,"axG",@progbits,_ZN33TestCore_testStradd
 282              	.LHOTE10:
 283              		.weak	_ZN33TestCore_testStraddledWriteLongBED1Ev
 284              		.set	_ZN33TestCore_testStraddledWriteLongBED1Ev,_ZN33TestCore_testStraddledWriteLongBED2Ev
 285              		.section	.text.unlikely._ZN33TestCore_testStraddledWriteLongBED0Ev,"axG",@progbits,_ZN33TestCore_t
 286              		.align 2
 287              	.LCOLDB11:
 288              		.section	.text._ZN33TestCore_testStraddledWriteLongBED0Ev,"axG",@progbits,_ZN33TestCore_testStradd
 289              	.LHOTB11:
 290              		.align 2
 291              		.p2align 4,,15
 292              		.weak	_ZN33TestCore_testStraddledWriteLongBED0Ev
 294              	_ZN33TestCore_testStraddledWriteLongBED0Ev:
 295              	.LFB1422:
 296              		.cfi_startproc
 297 0000 53       		pushq	%rbx
 298              		.cfi_def_cfa_offset 16
 299              		.cfi_offset 3, -16
 300 0001 4889FB   		movq	%rdi, %rbx
 301 0004 48C70700 		movq	$_ZTV33TestCore_testStraddledWriteLongBE+16, (%rdi)
 301      000000
 302 000b E8000000 		call	_ZN8UnitTest4TestD2Ev
 302      00
 303 0010 4889DF   		movq	%rbx, %rdi
 304 0013 5B       		popq	%rbx
 305              		.cfi_def_cfa_offset 8
 306 0014 E9000000 		jmp	_ZdlPv
 306      00
 307              		.cfi_endproc
 308              	.LFE1422:
 310              		.section	.text.unlikely._ZN33TestCore_testStraddledWriteLongBED0Ev,"axG",@progbits,_ZN33TestCore_t
 311              	.LCOLDE11:
 312              		.section	.text._ZN33TestCore_testStraddledWriteLongBED0Ev,"axG",@progbits,_ZN33TestCore_testStradd
 313              	.LHOTE11:
 314              		.section	.text.unlikely._ZN31TestCore_testOutsideWriteLongBED2Ev,"axG",@progbits,_ZN31TestCore_tes
 315              		.align 2
 316              	.LCOLDB12:
 317              		.section	.text._ZN31TestCore_testOutsideWriteLongBED2Ev,"axG",@progbits,_ZN31TestCore_testOutsideW
 318              	.LHOTB12:
 319              		.align 2
 320              		.p2align 4,,15
 321              		.weak	_ZN31TestCore_testOutsideWriteLongBED2Ev
 323              	_ZN31TestCore_testOutsideWriteLongBED2Ev:
 324              	.LFB1424:
 325              		.cfi_startproc
 326 0000 48C70700 		movq	$_ZTV31TestCore_testOutsideWriteLongBE+16, (%rdi)
 326      000000
 327 0007 E9000000 		jmp	_ZN8UnitTest4TestD2Ev
 327      00
 328              		.cfi_endproc
 329              	.LFE1424:
 331              		.section	.text.unlikely._ZN31TestCore_testOutsideWriteLongBED2Ev,"axG",@progbits,_ZN31TestCore_tes
 332              	.LCOLDE12:
 333              		.section	.text._ZN31TestCore_testOutsideWriteLongBED2Ev,"axG",@progbits,_ZN31TestCore_testOutsideW
 334              	.LHOTE12:
 335              		.weak	_ZN31TestCore_testOutsideWriteLongBED1Ev
 336              		.set	_ZN31TestCore_testOutsideWriteLongBED1Ev,_ZN31TestCore_testOutsideWriteLongBED2Ev
 337              		.section	.text.unlikely._ZN31TestCore_testOutsideWriteLongBED0Ev,"axG",@progbits,_ZN31TestCore_tes
 338              		.align 2
 339              	.LCOLDB13:
 340              		.section	.text._ZN31TestCore_testOutsideWriteLongBED0Ev,"axG",@progbits,_ZN31TestCore_testOutsideW
 341              	.LHOTB13:
 342              		.align 2
 343              		.p2align 4,,15
 344              		.weak	_ZN31TestCore_testOutsideWriteLongBED0Ev
 346              	_ZN31TestCore_testOutsideWriteLongBED0Ev:
 347              	.LFB1426:
 348              		.cfi_startproc
 349 0000 53       		pushq	%rbx
 350              		.cfi_def_cfa_offset 16
 351              		.cfi_offset 3, -16
 352 0001 4889FB   		movq	%rdi, %rbx
 353 0004 48C70700 		movq	$_ZTV31TestCore_testOutsideWriteLongBE+16, (%rdi)
 353      000000
 354 000b E8000000 		call	_ZN8UnitTest4TestD2Ev
 354      00
 355 0010 4889DF   		movq	%rbx, %rdi
 356 0013 5B       		popq	%rbx
 357              		.cfi_def_cfa_offset 8
 358 0014 E9000000 		jmp	_ZdlPv
 358      00
 359              		.cfi_endproc
 360              	.LFE1426:
 362              		.section	.text.unlikely._ZN31TestCore_testOutsideWriteLongBED0Ev,"axG",@progbits,_ZN31TestCore_tes
 363              	.LCOLDE13:
 364              		.section	.text._ZN31TestCore_testOutsideWriteLongBED0Ev,"axG",@progbits,_ZN31TestCore_testOutsideW
 365              	.LHOTE13:
 366              		.section	.text.unlikely._ZN30TestCore_testInsideWriteLongBED2Ev,"axG",@progbits,_ZN30TestCore_test
 367              		.align 2
 368              	.LCOLDB14:
 369              		.section	.text._ZN30TestCore_testInsideWriteLongBED2Ev,"axG",@progbits,_ZN30TestCore_testInsideWri
 370              	.LHOTB14:
 371              		.align 2
 372              		.p2align 4,,15
 373              		.weak	_ZN30TestCore_testInsideWriteLongBED2Ev
 375              	_ZN30TestCore_testInsideWriteLongBED2Ev:
 376              	.LFB1428:
 377              		.cfi_startproc
 378 0000 48C70700 		movq	$_ZTV30TestCore_testInsideWriteLongBE+16, (%rdi)
 378      000000
 379 0007 E9000000 		jmp	_ZN8UnitTest4TestD2Ev
 379      00
 380              		.cfi_endproc
 381              	.LFE1428:
 383              		.section	.text.unlikely._ZN30TestCore_testInsideWriteLongBED2Ev,"axG",@progbits,_ZN30TestCore_test
 384              	.LCOLDE14:
 385              		.section	.text._ZN30TestCore_testInsideWriteLongBED2Ev,"axG",@progbits,_ZN30TestCore_testInsideWri
 386              	.LHOTE14:
 387              		.weak	_ZN30TestCore_testInsideWriteLongBED1Ev
 388              		.set	_ZN30TestCore_testInsideWriteLongBED1Ev,_ZN30TestCore_testInsideWriteLongBED2Ev
 389              		.section	.text.unlikely._ZN30TestCore_testInsideWriteLongBED0Ev,"axG",@progbits,_ZN30TestCore_test
 390              		.align 2
 391              	.LCOLDB15:
 392              		.section	.text._ZN30TestCore_testInsideWriteLongBED0Ev,"axG",@progbits,_ZN30TestCore_testInsideWri
 393              	.LHOTB15:
 394              		.align 2
 395              		.p2align 4,,15
 396              		.weak	_ZN30TestCore_testInsideWriteLongBED0Ev
 398              	_ZN30TestCore_testInsideWriteLongBED0Ev:
 399              	.LFB1430:
 400              		.cfi_startproc
 401 0000 53       		pushq	%rbx
 402              		.cfi_def_cfa_offset 16
 403              		.cfi_offset 3, -16
 404 0001 4889FB   		movq	%rdi, %rbx
 405 0004 48C70700 		movq	$_ZTV30TestCore_testInsideWriteLongBE+16, (%rdi)
 405      000000
 406 000b E8000000 		call	_ZN8UnitTest4TestD2Ev
 406      00
 407 0010 4889DF   		movq	%rbx, %rdi
 408 0013 5B       		popq	%rbx
 409              		.cfi_def_cfa_offset 8
 410 0014 E9000000 		jmp	_ZdlPv
 410      00
 411              		.cfi_endproc
 412              	.LFE1430:
 414              		.section	.text.unlikely._ZN30TestCore_testInsideWriteLongBED0Ev,"axG",@progbits,_ZN30TestCore_test
 415              	.LCOLDE15:
 416              		.section	.text._ZN30TestCore_testInsideWriteLongBED0Ev,"axG",@progbits,_ZN30TestCore_testInsideWri
 417              	.LHOTE15:
 418              		.section	.text.unlikely._ZN33TestCore_testStraddledWriteLongLED2Ev,"axG",@progbits,_ZN33TestCore_t
 419              		.align 2
 420              	.LCOLDB16:
 421              		.section	.text._ZN33TestCore_testStraddledWriteLongLED2Ev,"axG",@progbits,_ZN33TestCore_testStradd
 422              	.LHOTB16:
 423              		.align 2
 424              		.p2align 4,,15
 425              		.weak	_ZN33TestCore_testStraddledWriteLongLED2Ev
 427              	_ZN33TestCore_testStraddledWriteLongLED2Ev:
 428              	.LFB1432:
 429              		.cfi_startproc
 430 0000 48C70700 		movq	$_ZTV33TestCore_testStraddledWriteLongLE+16, (%rdi)
 430      000000
 431 0007 E9000000 		jmp	_ZN8UnitTest4TestD2Ev
 431      00
 432              		.cfi_endproc
 433              	.LFE1432:
 435              		.section	.text.unlikely._ZN33TestCore_testStraddledWriteLongLED2Ev,"axG",@progbits,_ZN33TestCore_t
 436              	.LCOLDE16:
 437              		.section	.text._ZN33TestCore_testStraddledWriteLongLED2Ev,"axG",@progbits,_ZN33TestCore_testStradd
 438              	.LHOTE16:
 439              		.weak	_ZN33TestCore_testStraddledWriteLongLED1Ev
 440              		.set	_ZN33TestCore_testStraddledWriteLongLED1Ev,_ZN33TestCore_testStraddledWriteLongLED2Ev
 441              		.section	.text.unlikely._ZN33TestCore_testStraddledWriteLongLED0Ev,"axG",@progbits,_ZN33TestCore_t
 442              		.align 2
 443              	.LCOLDB17:
 444              		.section	.text._ZN33TestCore_testStraddledWriteLongLED0Ev,"axG",@progbits,_ZN33TestCore_testStradd
 445              	.LHOTB17:
 446              		.align 2
 447              		.p2align 4,,15
 448              		.weak	_ZN33TestCore_testStraddledWriteLongLED0Ev
 450              	_ZN33TestCore_testStraddledWriteLongLED0Ev:
 451              	.LFB1434:
 452              		.cfi_startproc
 453 0000 53       		pushq	%rbx
 454              		.cfi_def_cfa_offset 16
 455              		.cfi_offset 3, -16
 456 0001 4889FB   		movq	%rdi, %rbx
 457 0004 48C70700 		movq	$_ZTV33TestCore_testStraddledWriteLongLE+16, (%rdi)
 457      000000
 458 000b E8000000 		call	_ZN8UnitTest4TestD2Ev
 458      00
 459 0010 4889DF   		movq	%rbx, %rdi
 460 0013 5B       		popq	%rbx
 461              		.cfi_def_cfa_offset 8
 462 0014 E9000000 		jmp	_ZdlPv
 462      00
 463              		.cfi_endproc
 464              	.LFE1434:
 466              		.section	.text.unlikely._ZN33TestCore_testStraddledWriteLongLED0Ev,"axG",@progbits,_ZN33TestCore_t
 467              	.LCOLDE17:
 468              		.section	.text._ZN33TestCore_testStraddledWriteLongLED0Ev,"axG",@progbits,_ZN33TestCore_testStradd
 469              	.LHOTE17:
 470              		.section	.text.unlikely._ZN31TestCore_testOutsideWriteLongLED2Ev,"axG",@progbits,_ZN31TestCore_tes
 471              		.align 2
 472              	.LCOLDB18:
 473              		.section	.text._ZN31TestCore_testOutsideWriteLongLED2Ev,"axG",@progbits,_ZN31TestCore_testOutsideW
 474              	.LHOTB18:
 475              		.align 2
 476              		.p2align 4,,15
 477              		.weak	_ZN31TestCore_testOutsideWriteLongLED2Ev
 479              	_ZN31TestCore_testOutsideWriteLongLED2Ev:
 480              	.LFB1436:
 481              		.cfi_startproc
 482 0000 48C70700 		movq	$_ZTV31TestCore_testOutsideWriteLongLE+16, (%rdi)
 482      000000
 483 0007 E9000000 		jmp	_ZN8UnitTest4TestD2Ev
 483      00
 484              		.cfi_endproc
 485              	.LFE1436:
 487              		.section	.text.unlikely._ZN31TestCore_testOutsideWriteLongLED2Ev,"axG",@progbits,_ZN31TestCore_tes
 488              	.LCOLDE18:
 489              		.section	.text._ZN31TestCore_testOutsideWriteLongLED2Ev,"axG",@progbits,_ZN31TestCore_testOutsideW
 490              	.LHOTE18:
 491              		.weak	_ZN31TestCore_testOutsideWriteLongLED1Ev
 492              		.set	_ZN31TestCore_testOutsideWriteLongLED1Ev,_ZN31TestCore_testOutsideWriteLongLED2Ev
 493              		.section	.text.unlikely._ZN31TestCore_testOutsideWriteLongLED0Ev,"axG",@progbits,_ZN31TestCore_tes
 494              		.align 2
 495              	.LCOLDB19:
 496              		.section	.text._ZN31TestCore_testOutsideWriteLongLED0Ev,"axG",@progbits,_ZN31TestCore_testOutsideW
 497              	.LHOTB19:
 498              		.align 2
 499              		.p2align 4,,15
 500              		.weak	_ZN31TestCore_testOutsideWriteLongLED0Ev
 502              	_ZN31TestCore_testOutsideWriteLongLED0Ev:
 503              	.LFB1438:
 504              		.cfi_startproc
 505 0000 53       		pushq	%rbx
 506              		.cfi_def_cfa_offset 16
 507              		.cfi_offset 3, -16
 508 0001 4889FB   		movq	%rdi, %rbx
 509 0004 48C70700 		movq	$_ZTV31TestCore_testOutsideWriteLongLE+16, (%rdi)
 509      000000
 510 000b E8000000 		call	_ZN8UnitTest4TestD2Ev
 510      00
 511 0010 4889DF   		movq	%rbx, %rdi
 512 0013 5B       		popq	%rbx
 513              		.cfi_def_cfa_offset 8
 514 0014 E9000000 		jmp	_ZdlPv
 514      00
 515              		.cfi_endproc
 516              	.LFE1438:
 518              		.section	.text.unlikely._ZN31TestCore_testOutsideWriteLongLED0Ev,"axG",@progbits,_ZN31TestCore_tes
 519              	.LCOLDE19:
 520              		.section	.text._ZN31TestCore_testOutsideWriteLongLED0Ev,"axG",@progbits,_ZN31TestCore_testOutsideW
 521              	.LHOTE19:
 522              		.section	.text.unlikely._ZN30TestCore_testInsideWriteLongLED2Ev,"axG",@progbits,_ZN30TestCore_test
 523              		.align 2
 524              	.LCOLDB20:
 525              		.section	.text._ZN30TestCore_testInsideWriteLongLED2Ev,"axG",@progbits,_ZN30TestCore_testInsideWri
 526              	.LHOTB20:
 527              		.align 2
 528              		.p2align 4,,15
 529              		.weak	_ZN30TestCore_testInsideWriteLongLED2Ev
 531              	_ZN30TestCore_testInsideWriteLongLED2Ev:
 532              	.LFB1440:
 533              		.cfi_startproc
 534 0000 48C70700 		movq	$_ZTV30TestCore_testInsideWriteLongLE+16, (%rdi)
 534      000000
 535 0007 E9000000 		jmp	_ZN8UnitTest4TestD2Ev
 535      00
 536              		.cfi_endproc
 537              	.LFE1440:
 539              		.section	.text.unlikely._ZN30TestCore_testInsideWriteLongLED2Ev,"axG",@progbits,_ZN30TestCore_test
 540              	.LCOLDE20:
 541              		.section	.text._ZN30TestCore_testInsideWriteLongLED2Ev,"axG",@progbits,_ZN30TestCore_testInsideWri
 542              	.LHOTE20:
 543              		.weak	_ZN30TestCore_testInsideWriteLongLED1Ev
 544              		.set	_ZN30TestCore_testInsideWriteLongLED1Ev,_ZN30TestCore_testInsideWriteLongLED2Ev
 545              		.section	.text.unlikely._ZN30TestCore_testInsideWriteLongLED0Ev,"axG",@progbits,_ZN30TestCore_test
 546              		.align 2
 547              	.LCOLDB21:
 548              		.section	.text._ZN30TestCore_testInsideWriteLongLED0Ev,"axG",@progbits,_ZN30TestCore_testInsideWri
 549              	.LHOTB21:
 550              		.align 2
 551              		.p2align 4,,15
 552              		.weak	_ZN30TestCore_testInsideWriteLongLED0Ev
 554              	_ZN30TestCore_testInsideWriteLongLED0Ev:
 555              	.LFB1442:
 556              		.cfi_startproc
 557 0000 53       		pushq	%rbx
 558              		.cfi_def_cfa_offset 16
 559              		.cfi_offset 3, -16
 560 0001 4889FB   		movq	%rdi, %rbx
 561 0004 48C70700 		movq	$_ZTV30TestCore_testInsideWriteLongLE+16, (%rdi)
 561      000000
 562 000b E8000000 		call	_ZN8UnitTest4TestD2Ev
 562      00
 563 0010 4889DF   		movq	%rbx, %rdi
 564 0013 5B       		popq	%rbx
 565              		.cfi_def_cfa_offset 8
 566 0014 E9000000 		jmp	_ZdlPv
 566      00
 567              		.cfi_endproc
 568              	.LFE1442:
 570              		.section	.text.unlikely._ZN30TestCore_testInsideWriteLongLED0Ev,"axG",@progbits,_ZN30TestCore_test
 571              	.LCOLDE21:
 572              		.section	.text._ZN30TestCore_testInsideWriteLongLED0Ev,"axG",@progbits,_ZN30TestCore_testInsideWri
 573              	.LHOTE21:
 574              		.section	.text.unlikely._ZN33TestCore_testStraddledWriteWordBED2Ev,"axG",@progbits,_ZN33TestCore_t
 575              		.align 2
 576              	.LCOLDB22:
 577              		.section	.text._ZN33TestCore_testStraddledWriteWordBED2Ev,"axG",@progbits,_ZN33TestCore_testStradd
 578              	.LHOTB22:
 579              		.align 2
 580              		.p2align 4,,15
 581              		.weak	_ZN33TestCore_testStraddledWriteWordBED2Ev
 583              	_ZN33TestCore_testStraddledWriteWordBED2Ev:
 584              	.LFB1444:
 585              		.cfi_startproc
 586 0000 48C70700 		movq	$_ZTV33TestCore_testStraddledWriteWordBE+16, (%rdi)
 586      000000
 587 0007 E9000000 		jmp	_ZN8UnitTest4TestD2Ev
 587      00
 588              		.cfi_endproc
 589              	.LFE1444:
 591              		.section	.text.unlikely._ZN33TestCore_testStraddledWriteWordBED2Ev,"axG",@progbits,_ZN33TestCore_t
 592              	.LCOLDE22:
 593              		.section	.text._ZN33TestCore_testStraddledWriteWordBED2Ev,"axG",@progbits,_ZN33TestCore_testStradd
 594              	.LHOTE22:
 595              		.weak	_ZN33TestCore_testStraddledWriteWordBED1Ev
 596              		.set	_ZN33TestCore_testStraddledWriteWordBED1Ev,_ZN33TestCore_testStraddledWriteWordBED2Ev
 597              		.section	.text.unlikely._ZN33TestCore_testStraddledWriteWordBED0Ev,"axG",@progbits,_ZN33TestCore_t
 598              		.align 2
 599              	.LCOLDB23:
 600              		.section	.text._ZN33TestCore_testStraddledWriteWordBED0Ev,"axG",@progbits,_ZN33TestCore_testStradd
 601              	.LHOTB23:
 602              		.align 2
 603              		.p2align 4,,15
 604              		.weak	_ZN33TestCore_testStraddledWriteWordBED0Ev
 606              	_ZN33TestCore_testStraddledWriteWordBED0Ev:
 607              	.LFB1446:
 608              		.cfi_startproc
 609 0000 53       		pushq	%rbx
 610              		.cfi_def_cfa_offset 16
 611              		.cfi_offset 3, -16
 612 0001 4889FB   		movq	%rdi, %rbx
 613 0004 48C70700 		movq	$_ZTV33TestCore_testStraddledWriteWordBE+16, (%rdi)
 613      000000
 614 000b E8000000 		call	_ZN8UnitTest4TestD2Ev
 614      00
 615 0010 4889DF   		movq	%rbx, %rdi
 616 0013 5B       		popq	%rbx
 617              		.cfi_def_cfa_offset 8
 618 0014 E9000000 		jmp	_ZdlPv
 618      00
 619              		.cfi_endproc
 620              	.LFE1446:
 622              		.section	.text.unlikely._ZN33TestCore_testStraddledWriteWordBED0Ev,"axG",@progbits,_ZN33TestCore_t
 623              	.LCOLDE23:
 624              		.section	.text._ZN33TestCore_testStraddledWriteWordBED0Ev,"axG",@progbits,_ZN33TestCore_testStradd
 625              	.LHOTE23:
 626              		.section	.text.unlikely._ZN31TestCore_testOutsideWriteWordBED2Ev,"axG",@progbits,_ZN31TestCore_tes
 627              		.align 2
 628              	.LCOLDB24:
 629              		.section	.text._ZN31TestCore_testOutsideWriteWordBED2Ev,"axG",@progbits,_ZN31TestCore_testOutsideW
 630              	.LHOTB24:
 631              		.align 2
 632              		.p2align 4,,15
 633              		.weak	_ZN31TestCore_testOutsideWriteWordBED2Ev
 635              	_ZN31TestCore_testOutsideWriteWordBED2Ev:
 636              	.LFB1448:
 637              		.cfi_startproc
 638 0000 48C70700 		movq	$_ZTV31TestCore_testOutsideWriteWordBE+16, (%rdi)
 638      000000
 639 0007 E9000000 		jmp	_ZN8UnitTest4TestD2Ev
 639      00
 640              		.cfi_endproc
 641              	.LFE1448:
 643              		.section	.text.unlikely._ZN31TestCore_testOutsideWriteWordBED2Ev,"axG",@progbits,_ZN31TestCore_tes
 644              	.LCOLDE24:
 645              		.section	.text._ZN31TestCore_testOutsideWriteWordBED2Ev,"axG",@progbits,_ZN31TestCore_testOutsideW
 646              	.LHOTE24:
 647              		.weak	_ZN31TestCore_testOutsideWriteWordBED1Ev
 648              		.set	_ZN31TestCore_testOutsideWriteWordBED1Ev,_ZN31TestCore_testOutsideWriteWordBED2Ev
 649              		.section	.text.unlikely._ZN31TestCore_testOutsideWriteWordBED0Ev,"axG",@progbits,_ZN31TestCore_tes
 650              		.align 2
 651              	.LCOLDB25:
 652              		.section	.text._ZN31TestCore_testOutsideWriteWordBED0Ev,"axG",@progbits,_ZN31TestCore_testOutsideW
 653              	.LHOTB25:
 654              		.align 2
 655              		.p2align 4,,15
 656              		.weak	_ZN31TestCore_testOutsideWriteWordBED0Ev
 658              	_ZN31TestCore_testOutsideWriteWordBED0Ev:
 659              	.LFB1450:
 660              		.cfi_startproc
 661 0000 53       		pushq	%rbx
 662              		.cfi_def_cfa_offset 16
 663              		.cfi_offset 3, -16
 664 0001 4889FB   		movq	%rdi, %rbx
 665 0004 48C70700 		movq	$_ZTV31TestCore_testOutsideWriteWordBE+16, (%rdi)
 665      000000
 666 000b E8000000 		call	_ZN8UnitTest4TestD2Ev
 666      00
 667 0010 4889DF   		movq	%rbx, %rdi
 668 0013 5B       		popq	%rbx
 669              		.cfi_def_cfa_offset 8
 670 0014 E9000000 		jmp	_ZdlPv
 670      00
 671              		.cfi_endproc
 672              	.LFE1450:
 674              		.section	.text.unlikely._ZN31TestCore_testOutsideWriteWordBED0Ev,"axG",@progbits,_ZN31TestCore_tes
 675              	.LCOLDE25:
 676              		.section	.text._ZN31TestCore_testOutsideWriteWordBED0Ev,"axG",@progbits,_ZN31TestCore_testOutsideW
 677              	.LHOTE25:
 678              		.section	.text.unlikely._ZN30TestCore_testInsideWriteWordBED2Ev,"axG",@progbits,_ZN30TestCore_test
 679              		.align 2
 680              	.LCOLDB26:
 681              		.section	.text._ZN30TestCore_testInsideWriteWordBED2Ev,"axG",@progbits,_ZN30TestCore_testInsideWri
 682              	.LHOTB26:
 683              		.align 2
 684              		.p2align 4,,15
 685              		.weak	_ZN30TestCore_testInsideWriteWordBED2Ev
 687              	_ZN30TestCore_testInsideWriteWordBED2Ev:
 688              	.LFB1452:
 689              		.cfi_startproc
 690 0000 48C70700 		movq	$_ZTV30TestCore_testInsideWriteWordBE+16, (%rdi)
 690      000000
 691 0007 E9000000 		jmp	_ZN8UnitTest4TestD2Ev
 691      00
 692              		.cfi_endproc
 693              	.LFE1452:
 695              		.section	.text.unlikely._ZN30TestCore_testInsideWriteWordBED2Ev,"axG",@progbits,_ZN30TestCore_test
 696              	.LCOLDE26:
 697              		.section	.text._ZN30TestCore_testInsideWriteWordBED2Ev,"axG",@progbits,_ZN30TestCore_testInsideWri
 698              	.LHOTE26:
 699              		.weak	_ZN30TestCore_testInsideWriteWordBED1Ev
 700              		.set	_ZN30TestCore_testInsideWriteWordBED1Ev,_ZN30TestCore_testInsideWriteWordBED2Ev
 701              		.section	.text.unlikely._ZN30TestCore_testInsideWriteWordBED0Ev,"axG",@progbits,_ZN30TestCore_test
 702              		.align 2
 703              	.LCOLDB27:
 704              		.section	.text._ZN30TestCore_testInsideWriteWordBED0Ev,"axG",@progbits,_ZN30TestCore_testInsideWri
 705              	.LHOTB27:
 706              		.align 2
 707              		.p2align 4,,15
 708              		.weak	_ZN30TestCore_testInsideWriteWordBED0Ev
 710              	_ZN30TestCore_testInsideWriteWordBED0Ev:
 711              	.LFB1454:
 712              		.cfi_startproc
 713 0000 53       		pushq	%rbx
 714              		.cfi_def_cfa_offset 16
 715              		.cfi_offset 3, -16
 716 0001 4889FB   		movq	%rdi, %rbx
 717 0004 48C70700 		movq	$_ZTV30TestCore_testInsideWriteWordBE+16, (%rdi)
 717      000000
 718 000b E8000000 		call	_ZN8UnitTest4TestD2Ev
 718      00
 719 0010 4889DF   		movq	%rbx, %rdi
 720 0013 5B       		popq	%rbx
 721              		.cfi_def_cfa_offset 8
 722 0014 E9000000 		jmp	_ZdlPv
 722      00
 723              		.cfi_endproc
 724              	.LFE1454:
 726              		.section	.text.unlikely._ZN30TestCore_testInsideWriteWordBED0Ev,"axG",@progbits,_ZN30TestCore_test
 727              	.LCOLDE27:
 728              		.section	.text._ZN30TestCore_testInsideWriteWordBED0Ev,"axG",@progbits,_ZN30TestCore_testInsideWri
 729              	.LHOTE27:
 730              		.section	.text.unlikely._ZN33TestCore_testStraddledWriteWordLED2Ev,"axG",@progbits,_ZN33TestCore_t
 731              		.align 2
 732              	.LCOLDB28:
 733              		.section	.text._ZN33TestCore_testStraddledWriteWordLED2Ev,"axG",@progbits,_ZN33TestCore_testStradd
 734              	.LHOTB28:
 735              		.align 2
 736              		.p2align 4,,15
 737              		.weak	_ZN33TestCore_testStraddledWriteWordLED2Ev
 739              	_ZN33TestCore_testStraddledWriteWordLED2Ev:
 740              	.LFB1456:
 741              		.cfi_startproc
 742 0000 48C70700 		movq	$_ZTV33TestCore_testStraddledWriteWordLE+16, (%rdi)
 742      000000
 743 0007 E9000000 		jmp	_ZN8UnitTest4TestD2Ev
 743      00
 744              		.cfi_endproc
 745              	.LFE1456:
 747              		.section	.text.unlikely._ZN33TestCore_testStraddledWriteWordLED2Ev,"axG",@progbits,_ZN33TestCore_t
 748              	.LCOLDE28:
 749              		.section	.text._ZN33TestCore_testStraddledWriteWordLED2Ev,"axG",@progbits,_ZN33TestCore_testStradd
 750              	.LHOTE28:
 751              		.weak	_ZN33TestCore_testStraddledWriteWordLED1Ev
 752              		.set	_ZN33TestCore_testStraddledWriteWordLED1Ev,_ZN33TestCore_testStraddledWriteWordLED2Ev
 753              		.section	.text.unlikely._ZN33TestCore_testStraddledWriteWordLED0Ev,"axG",@progbits,_ZN33TestCore_t
 754              		.align 2
 755              	.LCOLDB29:
 756              		.section	.text._ZN33TestCore_testStraddledWriteWordLED0Ev,"axG",@progbits,_ZN33TestCore_testStradd
 757              	.LHOTB29:
 758              		.align 2
 759              		.p2align 4,,15
 760              		.weak	_ZN33TestCore_testStraddledWriteWordLED0Ev
 762              	_ZN33TestCore_testStraddledWriteWordLED0Ev:
 763              	.LFB1458:
 764              		.cfi_startproc
 765 0000 53       		pushq	%rbx
 766              		.cfi_def_cfa_offset 16
 767              		.cfi_offset 3, -16
 768 0001 4889FB   		movq	%rdi, %rbx
 769 0004 48C70700 		movq	$_ZTV33TestCore_testStraddledWriteWordLE+16, (%rdi)
 769      000000
 770 000b E8000000 		call	_ZN8UnitTest4TestD2Ev
 770      00
 771 0010 4889DF   		movq	%rbx, %rdi
 772 0013 5B       		popq	%rbx
 773              		.cfi_def_cfa_offset 8
 774 0014 E9000000 		jmp	_ZdlPv
 774      00
 775              		.cfi_endproc
 776              	.LFE1458:
 778              		.section	.text.unlikely._ZN33TestCore_testStraddledWriteWordLED0Ev,"axG",@progbits,_ZN33TestCore_t
 779              	.LCOLDE29:
 780              		.section	.text._ZN33TestCore_testStraddledWriteWordLED0Ev,"axG",@progbits,_ZN33TestCore_testStradd
 781              	.LHOTE29:
 782              		.section	.text.unlikely._ZN31TestCore_testOutsideWriteWordLED2Ev,"axG",@progbits,_ZN31TestCore_tes
 783              		.align 2
 784              	.LCOLDB30:
 785              		.section	.text._ZN31TestCore_testOutsideWriteWordLED2Ev,"axG",@progbits,_ZN31TestCore_testOutsideW
 786              	.LHOTB30:
 787              		.align 2
 788              		.p2align 4,,15
 789              		.weak	_ZN31TestCore_testOutsideWriteWordLED2Ev
 791              	_ZN31TestCore_testOutsideWriteWordLED2Ev:
 792              	.LFB1460:
 793              		.cfi_startproc
 794 0000 48C70700 		movq	$_ZTV31TestCore_testOutsideWriteWordLE+16, (%rdi)
 794      000000
 795 0007 E9000000 		jmp	_ZN8UnitTest4TestD2Ev
 795      00
 796              		.cfi_endproc
 797              	.LFE1460:
 799              		.section	.text.unlikely._ZN31TestCore_testOutsideWriteWordLED2Ev,"axG",@progbits,_ZN31TestCore_tes
 800              	.LCOLDE30:
 801              		.section	.text._ZN31TestCore_testOutsideWriteWordLED2Ev,"axG",@progbits,_ZN31TestCore_testOutsideW
 802              	.LHOTE30:
 803              		.weak	_ZN31TestCore_testOutsideWriteWordLED1Ev
 804              		.set	_ZN31TestCore_testOutsideWriteWordLED1Ev,_ZN31TestCore_testOutsideWriteWordLED2Ev
 805              		.section	.text.unlikely._ZN31TestCore_testOutsideWriteWordLED0Ev,"axG",@progbits,_ZN31TestCore_tes
 806              		.align 2
 807              	.LCOLDB31:
 808              		.section	.text._ZN31TestCore_testOutsideWriteWordLED0Ev,"axG",@progbits,_ZN31TestCore_testOutsideW
 809              	.LHOTB31:
 810              		.align 2
 811              		.p2align 4,,15
 812              		.weak	_ZN31TestCore_testOutsideWriteWordLED0Ev
 814              	_ZN31TestCore_testOutsideWriteWordLED0Ev:
 815              	.LFB1462:
 816              		.cfi_startproc
 817 0000 53       		pushq	%rbx
 818              		.cfi_def_cfa_offset 16
 819              		.cfi_offset 3, -16
 820 0001 4889FB   		movq	%rdi, %rbx
 821 0004 48C70700 		movq	$_ZTV31TestCore_testOutsideWriteWordLE+16, (%rdi)
 821      000000
 822 000b E8000000 		call	_ZN8UnitTest4TestD2Ev
 822      00
 823 0010 4889DF   		movq	%rbx, %rdi
 824 0013 5B       		popq	%rbx
 825              		.cfi_def_cfa_offset 8
 826 0014 E9000000 		jmp	_ZdlPv
 826      00
 827              		.cfi_endproc
 828              	.LFE1462:
 830              		.section	.text.unlikely._ZN31TestCore_testOutsideWriteWordLED0Ev,"axG",@progbits,_ZN31TestCore_tes
 831              	.LCOLDE31:
 832              		.section	.text._ZN31TestCore_testOutsideWriteWordLED0Ev,"axG",@progbits,_ZN31TestCore_testOutsideW
 833              	.LHOTE31:
 834              		.section	.text.unlikely._ZN30TestCore_testInsideWriteWordLED2Ev,"axG",@progbits,_ZN30TestCore_test
 835              		.align 2
 836              	.LCOLDB32:
 837              		.section	.text._ZN30TestCore_testInsideWriteWordLED2Ev,"axG",@progbits,_ZN30TestCore_testInsideWri
 838              	.LHOTB32:
 839              		.align 2
 840              		.p2align 4,,15
 841              		.weak	_ZN30TestCore_testInsideWriteWordLED2Ev
 843              	_ZN30TestCore_testInsideWriteWordLED2Ev:
 844              	.LFB1464:
 845              		.cfi_startproc
 846 0000 48C70700 		movq	$_ZTV30TestCore_testInsideWriteWordLE+16, (%rdi)
 846      000000
 847 0007 E9000000 		jmp	_ZN8UnitTest4TestD2Ev
 847      00
 848              		.cfi_endproc
 849              	.LFE1464:
 851              		.section	.text.unlikely._ZN30TestCore_testInsideWriteWordLED2Ev,"axG",@progbits,_ZN30TestCore_test
 852              	.LCOLDE32:
 853              		.section	.text._ZN30TestCore_testInsideWriteWordLED2Ev,"axG",@progbits,_ZN30TestCore_testInsideWri
 854              	.LHOTE32:
 855              		.weak	_ZN30TestCore_testInsideWriteWordLED1Ev
 856              		.set	_ZN30TestCore_testInsideWriteWordLED1Ev,_ZN30TestCore_testInsideWriteWordLED2Ev
 857              		.section	.text.unlikely._ZN30TestCore_testInsideWriteWordLED0Ev,"axG",@progbits,_ZN30TestCore_test
 858              		.align 2
 859              	.LCOLDB33:
 860              		.section	.text._ZN30TestCore_testInsideWriteWordLED0Ev,"axG",@progbits,_ZN30TestCore_testInsideWri
 861              	.LHOTB33:
 862              		.align 2
 863              		.p2align 4,,15
 864              		.weak	_ZN30TestCore_testInsideWriteWordLED0Ev
 866              	_ZN30TestCore_testInsideWriteWordLED0Ev:
 867              	.LFB1466:
 868              		.cfi_startproc
 869 0000 53       		pushq	%rbx
 870              		.cfi_def_cfa_offset 16
 871              		.cfi_offset 3, -16
 872 0001 4889FB   		movq	%rdi, %rbx
 873 0004 48C70700 		movq	$_ZTV30TestCore_testInsideWriteWordLE+16, (%rdi)
 873      000000
 874 000b E8000000 		call	_ZN8UnitTest4TestD2Ev
 874      00
 875 0010 4889DF   		movq	%rbx, %rdi
 876 0013 5B       		popq	%rbx
 877              		.cfi_def_cfa_offset 8
 878 0014 E9000000 		jmp	_ZdlPv
 878      00
 879              		.cfi_endproc
 880              	.LFE1466:
 882              		.section	.text.unlikely._ZN30TestCore_testInsideWriteWordLED0Ev,"axG",@progbits,_ZN30TestCore_test
 883              	.LCOLDE33:
 884              		.section	.text._ZN30TestCore_testInsideWriteWordLED0Ev,"axG",@progbits,_ZN30TestCore_testInsideWri
 885              	.LHOTE33:
 886              		.section	.text.unlikely._ZN32TestCore_testStraddledWriteConstD2Ev,"axG",@progbits,_ZN32TestCore_te
 887              		.align 2
 888              	.LCOLDB34:
 889              		.section	.text._ZN32TestCore_testStraddledWriteConstD2Ev,"axG",@progbits,_ZN32TestCore_testStraddl
 890              	.LHOTB34:
 891              		.align 2
 892              		.p2align 4,,15
 893              		.weak	_ZN32TestCore_testStraddledWriteConstD2Ev
 895              	_ZN32TestCore_testStraddledWriteConstD2Ev:
 896              	.LFB1468:
 897              		.cfi_startproc
 898 0000 48C70700 		movq	$_ZTV32TestCore_testStraddledWriteConst+16, (%rdi)
 898      000000
 899 0007 E9000000 		jmp	_ZN8UnitTest4TestD2Ev
 899      00
 900              		.cfi_endproc
 901              	.LFE1468:
 903              		.section	.text.unlikely._ZN32TestCore_testStraddledWriteConstD2Ev,"axG",@progbits,_ZN32TestCore_te
 904              	.LCOLDE34:
 905              		.section	.text._ZN32TestCore_testStraddledWriteConstD2Ev,"axG",@progbits,_ZN32TestCore_testStraddl
 906              	.LHOTE34:
 907              		.weak	_ZN32TestCore_testStraddledWriteConstD1Ev
 908              		.set	_ZN32TestCore_testStraddledWriteConstD1Ev,_ZN32TestCore_testStraddledWriteConstD2Ev
 909              		.section	.text.unlikely._ZN32TestCore_testStraddledWriteConstD0Ev,"axG",@progbits,_ZN32TestCore_te
 910              		.align 2
 911              	.LCOLDB35:
 912              		.section	.text._ZN32TestCore_testStraddledWriteConstD0Ev,"axG",@progbits,_ZN32TestCore_testStraddl
 913              	.LHOTB35:
 914              		.align 2
 915              		.p2align 4,,15
 916              		.weak	_ZN32TestCore_testStraddledWriteConstD0Ev
 918              	_ZN32TestCore_testStraddledWriteConstD0Ev:
 919              	.LFB1470:
 920              		.cfi_startproc
 921 0000 53       		pushq	%rbx
 922              		.cfi_def_cfa_offset 16
 923              		.cfi_offset 3, -16
 924 0001 4889FB   		movq	%rdi, %rbx
 925 0004 48C70700 		movq	$_ZTV32TestCore_testStraddledWriteConst+16, (%rdi)
 925      000000
 926 000b E8000000 		call	_ZN8UnitTest4TestD2Ev
 926      00
 927 0010 4889DF   		movq	%rbx, %rdi
 928 0013 5B       		popq	%rbx
 929              		.cfi_def_cfa_offset 8
 930 0014 E9000000 		jmp	_ZdlPv
 930      00
 931              		.cfi_endproc
 932              	.LFE1470:
 934              		.section	.text.unlikely._ZN32TestCore_testStraddledWriteConstD0Ev,"axG",@progbits,_ZN32TestCore_te
 935              	.LCOLDE35:
 936              		.section	.text._ZN32TestCore_testStraddledWriteConstD0Ev,"axG",@progbits,_ZN32TestCore_testStraddl
 937              	.LHOTE35:
 938              		.section	.text.unlikely._ZN30TestCore_testOutsideWriteConstD2Ev,"axG",@progbits,_ZN30TestCore_test
 939              		.align 2
 940              	.LCOLDB36:
 941              		.section	.text._ZN30TestCore_testOutsideWriteConstD2Ev,"axG",@progbits,_ZN30TestCore_testOutsideWr
 942              	.LHOTB36:
 943              		.align 2
 944              		.p2align 4,,15
 945              		.weak	_ZN30TestCore_testOutsideWriteConstD2Ev
 947              	_ZN30TestCore_testOutsideWriteConstD2Ev:
 948              	.LFB1472:
 949              		.cfi_startproc
 950 0000 48C70700 		movq	$_ZTV30TestCore_testOutsideWriteConst+16, (%rdi)
 950      000000
 951 0007 E9000000 		jmp	_ZN8UnitTest4TestD2Ev
 951      00
 952              		.cfi_endproc
 953              	.LFE1472:
 955              		.section	.text.unlikely._ZN30TestCore_testOutsideWriteConstD2Ev,"axG",@progbits,_ZN30TestCore_test
 956              	.LCOLDE36:
 957              		.section	.text._ZN30TestCore_testOutsideWriteConstD2Ev,"axG",@progbits,_ZN30TestCore_testOutsideWr
 958              	.LHOTE36:
 959              		.weak	_ZN30TestCore_testOutsideWriteConstD1Ev
 960              		.set	_ZN30TestCore_testOutsideWriteConstD1Ev,_ZN30TestCore_testOutsideWriteConstD2Ev
 961              		.section	.text.unlikely._ZN30TestCore_testOutsideWriteConstD0Ev,"axG",@progbits,_ZN30TestCore_test
 962              		.align 2
 963              	.LCOLDB37:
 964              		.section	.text._ZN30TestCore_testOutsideWriteConstD0Ev,"axG",@progbits,_ZN30TestCore_testOutsideWr
 965              	.LHOTB37:
 966              		.align 2
 967              		.p2align 4,,15
 968              		.weak	_ZN30TestCore_testOutsideWriteConstD0Ev
 970              	_ZN30TestCore_testOutsideWriteConstD0Ev:
 971              	.LFB1474:
 972              		.cfi_startproc
 973 0000 53       		pushq	%rbx
 974              		.cfi_def_cfa_offset 16
 975              		.cfi_offset 3, -16
 976 0001 4889FB   		movq	%rdi, %rbx
 977 0004 48C70700 		movq	$_ZTV30TestCore_testOutsideWriteConst+16, (%rdi)
 977      000000
 978 000b E8000000 		call	_ZN8UnitTest4TestD2Ev
 978      00
 979 0010 4889DF   		movq	%rbx, %rdi
 980 0013 5B       		popq	%rbx
 981              		.cfi_def_cfa_offset 8
 982 0014 E9000000 		jmp	_ZdlPv
 982      00
 983              		.cfi_endproc
 984              	.LFE1474:
 986              		.section	.text.unlikely._ZN30TestCore_testOutsideWriteConstD0Ev,"axG",@progbits,_ZN30TestCore_test
 987              	.LCOLDE37:
 988              		.section	.text._ZN30TestCore_testOutsideWriteConstD0Ev,"axG",@progbits,_ZN30TestCore_testOutsideWr
 989              	.LHOTE37:
 990              		.section	.text.unlikely._ZN29TestCore_testInsideWriteConstD2Ev,"axG",@progbits,_ZN29TestCore_testI
 991              		.align 2
 992              	.LCOLDB38:
 993              		.section	.text._ZN29TestCore_testInsideWriteConstD2Ev,"axG",@progbits,_ZN29TestCore_testInsideWrit
 994              	.LHOTB38:
 995              		.align 2
 996              		.p2align 4,,15
 997              		.weak	_ZN29TestCore_testInsideWriteConstD2Ev
 999              	_ZN29TestCore_testInsideWriteConstD2Ev:
 1000              	.LFB1476:
 1001              		.cfi_startproc
 1002 0000 48C70700 		movq	$_ZTV29TestCore_testInsideWriteConst+16, (%rdi)
 1002      000000
 1003 0007 E9000000 		jmp	_ZN8UnitTest4TestD2Ev
 1003      00
 1004              		.cfi_endproc
 1005              	.LFE1476:
 1007              		.section	.text.unlikely._ZN29TestCore_testInsideWriteConstD2Ev,"axG",@progbits,_ZN29TestCore_testI
 1008              	.LCOLDE38:
 1009              		.section	.text._ZN29TestCore_testInsideWriteConstD2Ev,"axG",@progbits,_ZN29TestCore_testInsideWrit
 1010              	.LHOTE38:
 1011              		.weak	_ZN29TestCore_testInsideWriteConstD1Ev
 1012              		.set	_ZN29TestCore_testInsideWriteConstD1Ev,_ZN29TestCore_testInsideWriteConstD2Ev
 1013              		.section	.text.unlikely._ZN29TestCore_testInsideWriteConstD0Ev,"axG",@progbits,_ZN29TestCore_testI
 1014              		.align 2
 1015              	.LCOLDB39:
 1016              		.section	.text._ZN29TestCore_testInsideWriteConstD0Ev,"axG",@progbits,_ZN29TestCore_testInsideWrit
 1017              	.LHOTB39:
 1018              		.align 2
 1019              		.p2align 4,,15
 1020              		.weak	_ZN29TestCore_testInsideWriteConstD0Ev
 1022              	_ZN29TestCore_testInsideWriteConstD0Ev:
 1023              	.LFB1478:
 1024              		.cfi_startproc
 1025 0000 53       		pushq	%rbx
 1026              		.cfi_def_cfa_offset 16
 1027              		.cfi_offset 3, -16
 1028 0001 4889FB   		movq	%rdi, %rbx
 1029 0004 48C70700 		movq	$_ZTV29TestCore_testInsideWriteConst+16, (%rdi)
 1029      000000
 1030 000b E8000000 		call	_ZN8UnitTest4TestD2Ev
 1030      00
 1031 0010 4889DF   		movq	%rbx, %rdi
 1032 0013 5B       		popq	%rbx
 1033              		.cfi_def_cfa_offset 8
 1034 0014 E9000000 		jmp	_ZdlPv
 1034      00
 1035              		.cfi_endproc
 1036              	.LFE1478:
 1038              		.section	.text.unlikely._ZN29TestCore_testInsideWriteConstD0Ev,"axG",@progbits,_ZN29TestCore_testI
 1039              	.LCOLDE39:
 1040              		.section	.text._ZN29TestCore_testInsideWriteConstD0Ev,"axG",@progbits,_ZN29TestCore_testInsideWrit
 1041              	.LHOTE39:
 1042              		.section	.text.unlikely._ZN32TestCore_testStraddledWriteBlockD2Ev,"axG",@progbits,_ZN32TestCore_te
 1043              		.align 2
 1044              	.LCOLDB40:
 1045              		.section	.text._ZN32TestCore_testStraddledWriteBlockD2Ev,"axG",@progbits,_ZN32TestCore_testStraddl
 1046              	.LHOTB40:
 1047              		.align 2
 1048              		.p2align 4,,15
 1049              		.weak	_ZN32TestCore_testStraddledWriteBlockD2Ev
 1051              	_ZN32TestCore_testStraddledWriteBlockD2Ev:
 1052              	.LFB1480:
 1053              		.cfi_startproc
 1054 0000 48C70700 		movq	$_ZTV32TestCore_testStraddledWriteBlock+16, (%rdi)
 1054      000000
 1055 0007 E9000000 		jmp	_ZN8UnitTest4TestD2Ev
 1055      00
 1056              		.cfi_endproc
 1057              	.LFE1480:
 1059              		.section	.text.unlikely._ZN32TestCore_testStraddledWriteBlockD2Ev,"axG",@progbits,_ZN32TestCore_te
 1060              	.LCOLDE40:
 1061              		.section	.text._ZN32TestCore_testStraddledWriteBlockD2Ev,"axG",@progbits,_ZN32TestCore_testStraddl
 1062              	.LHOTE40:
 1063              		.weak	_ZN32TestCore_testStraddledWriteBlockD1Ev
 1064              		.set	_ZN32TestCore_testStraddledWriteBlockD1Ev,_ZN32TestCore_testStraddledWriteBlockD2Ev
 1065              		.section	.text.unlikely._ZN32TestCore_testStraddledWriteBlockD0Ev,"axG",@progbits,_ZN32TestCore_te
 1066              		.align 2
 1067              	.LCOLDB41:
 1068              		.section	.text._ZN32TestCore_testStraddledWriteBlockD0Ev,"axG",@progbits,_ZN32TestCore_testStraddl
 1069              	.LHOTB41:
 1070              		.align 2
 1071              		.p2align 4,,15
 1072              		.weak	_ZN32TestCore_testStraddledWriteBlockD0Ev
 1074              	_ZN32TestCore_testStraddledWriteBlockD0Ev:
 1075              	.LFB1482:
 1076              		.cfi_startproc
 1077 0000 53       		pushq	%rbx
 1078              		.cfi_def_cfa_offset 16
 1079              		.cfi_offset 3, -16
 1080 0001 4889FB   		movq	%rdi, %rbx
 1081 0004 48C70700 		movq	$_ZTV32TestCore_testStraddledWriteBlock+16, (%rdi)
 1081      000000
 1082 000b E8000000 		call	_ZN8UnitTest4TestD2Ev
 1082      00
 1083 0010 4889DF   		movq	%rbx, %rdi
 1084 0013 5B       		popq	%rbx
 1085              		.cfi_def_cfa_offset 8
 1086 0014 E9000000 		jmp	_ZdlPv
 1086      00
 1087              		.cfi_endproc
 1088              	.LFE1482:
 1090              		.section	.text.unlikely._ZN32TestCore_testStraddledWriteBlockD0Ev,"axG",@progbits,_ZN32TestCore_te
 1091              	.LCOLDE41:
 1092              		.section	.text._ZN32TestCore_testStraddledWriteBlockD0Ev,"axG",@progbits,_ZN32TestCore_testStraddl
 1093              	.LHOTE41:
 1094              		.section	.text.unlikely._ZN30TestCore_testOutsideWriteBlockD2Ev,"axG",@progbits,_ZN30TestCore_test
 1095              		.align 2
 1096              	.LCOLDB42:
 1097              		.section	.text._ZN30TestCore_testOutsideWriteBlockD2Ev,"axG",@progbits,_ZN30TestCore_testOutsideWr
 1098              	.LHOTB42:
 1099              		.align 2
 1100              		.p2align 4,,15
 1101              		.weak	_ZN30TestCore_testOutsideWriteBlockD2Ev
 1103              	_ZN30TestCore_testOutsideWriteBlockD2Ev:
 1104              	.LFB1484:
 1105              		.cfi_startproc
 1106 0000 48C70700 		movq	$_ZTV30TestCore_testOutsideWriteBlock+16, (%rdi)
 1106      000000
 1107 0007 E9000000 		jmp	_ZN8UnitTest4TestD2Ev
 1107      00
 1108              		.cfi_endproc
 1109              	.LFE1484:
 1111              		.section	.text.unlikely._ZN30TestCore_testOutsideWriteBlockD2Ev,"axG",@progbits,_ZN30TestCore_test
 1112              	.LCOLDE42:
 1113              		.section	.text._ZN30TestCore_testOutsideWriteBlockD2Ev,"axG",@progbits,_ZN30TestCore_testOutsideWr
 1114              	.LHOTE42:
 1115              		.weak	_ZN30TestCore_testOutsideWriteBlockD1Ev
 1116              		.set	_ZN30TestCore_testOutsideWriteBlockD1Ev,_ZN30TestCore_testOutsideWriteBlockD2Ev
 1117              		.section	.text.unlikely._ZN30TestCore_testOutsideWriteBlockD0Ev,"axG",@progbits,_ZN30TestCore_test
 1118              		.align 2
 1119              	.LCOLDB43:
 1120              		.section	.text._ZN30TestCore_testOutsideWriteBlockD0Ev,"axG",@progbits,_ZN30TestCore_testOutsideWr
 1121              	.LHOTB43:
 1122              		.align 2
 1123              		.p2align 4,,15
 1124              		.weak	_ZN30TestCore_testOutsideWriteBlockD0Ev
 1126              	_ZN30TestCore_testOutsideWriteBlockD0Ev:
 1127              	.LFB1486:
 1128              		.cfi_startproc
 1129 0000 53       		pushq	%rbx
 1130              		.cfi_def_cfa_offset 16
 1131              		.cfi_offset 3, -16
 1132 0001 4889FB   		movq	%rdi, %rbx
 1133 0004 48C70700 		movq	$_ZTV30TestCore_testOutsideWriteBlock+16, (%rdi)
 1133      000000
 1134 000b E8000000 		call	_ZN8UnitTest4TestD2Ev
 1134      00
 1135 0010 4889DF   		movq	%rbx, %rdi
 1136 0013 5B       		popq	%rbx
 1137              		.cfi_def_cfa_offset 8
 1138 0014 E9000000 		jmp	_ZdlPv
 1138      00
 1139              		.cfi_endproc
 1140              	.LFE1486:
 1142              		.section	.text.unlikely._ZN30TestCore_testOutsideWriteBlockD0Ev,"axG",@progbits,_ZN30TestCore_test
 1143              	.LCOLDE43:
 1144              		.section	.text._ZN30TestCore_testOutsideWriteBlockD0Ev,"axG",@progbits,_ZN30TestCore_testOutsideWr
 1145              	.LHOTE43:
 1146              		.section	.text.unlikely._ZN29TestCore_testInsideWriteBlockD2Ev,"axG",@progbits,_ZN29TestCore_testI
 1147              		.align 2
 1148              	.LCOLDB44:
 1149              		.section	.text._ZN29TestCore_testInsideWriteBlockD2Ev,"axG",@progbits,_ZN29TestCore_testInsideWrit
 1150              	.LHOTB44:
 1151              		.align 2
 1152              		.p2align 4,,15
 1153              		.weak	_ZN29TestCore_testInsideWriteBlockD2Ev
 1155              	_ZN29TestCore_testInsideWriteBlockD2Ev:
 1156              	.LFB1488:
 1157              		.cfi_startproc
 1158 0000 48C70700 		movq	$_ZTV29TestCore_testInsideWriteBlock+16, (%rdi)
 1158      000000
 1159 0007 E9000000 		jmp	_ZN8UnitTest4TestD2Ev
 1159      00
 1160              		.cfi_endproc
 1161              	.LFE1488:
 1163              		.section	.text.unlikely._ZN29TestCore_testInsideWriteBlockD2Ev,"axG",@progbits,_ZN29TestCore_testI
 1164              	.LCOLDE44:
 1165              		.section	.text._ZN29TestCore_testInsideWriteBlockD2Ev,"axG",@progbits,_ZN29TestCore_testInsideWrit
 1166              	.LHOTE44:
 1167              		.weak	_ZN29TestCore_testInsideWriteBlockD1Ev
 1168              		.set	_ZN29TestCore_testInsideWriteBlockD1Ev,_ZN29TestCore_testInsideWriteBlockD2Ev
 1169              		.section	.text.unlikely._ZN29TestCore_testInsideWriteBlockD0Ev,"axG",@progbits,_ZN29TestCore_testI
 1170              		.align 2
 1171              	.LCOLDB45:
 1172              		.section	.text._ZN29TestCore_testInsideWriteBlockD0Ev,"axG",@progbits,_ZN29TestCore_testInsideWrit
 1173              	.LHOTB45:
 1174              		.align 2
 1175              		.p2align 4,,15
 1176              		.weak	_ZN29TestCore_testInsideWriteBlockD0Ev
 1178              	_ZN29TestCore_testInsideWriteBlockD0Ev:
 1179              	.LFB1490:
 1180              		.cfi_startproc
 1181 0000 53       		pushq	%rbx
 1182              		.cfi_def_cfa_offset 16
 1183              		.cfi_offset 3, -16
 1184 0001 4889FB   		movq	%rdi, %rbx
 1185 0004 48C70700 		movq	$_ZTV29TestCore_testInsideWriteBlock+16, (%rdi)
 1185      000000
 1186 000b E8000000 		call	_ZN8UnitTest4TestD2Ev
 1186      00
 1187 0010 4889DF   		movq	%rbx, %rdi
 1188 0013 5B       		popq	%rbx
 1189              		.cfi_def_cfa_offset 8
 1190 0014 E9000000 		jmp	_ZdlPv
 1190      00
 1191              		.cfi_endproc
 1192              	.LFE1490:
 1194              		.section	.text.unlikely._ZN29TestCore_testInsideWriteBlockD0Ev,"axG",@progbits,_ZN29TestCore_testI
 1195              	.LCOLDE45:
 1196              		.section	.text._ZN29TestCore_testInsideWriteBlockD0Ev,"axG",@progbits,_ZN29TestCore_testInsideWrit
 1197              	.LHOTE45:
 1198              		.section	.text.unlikely._ZN28TestCore_testHugeAppendConstD2Ev,"axG",@progbits,_ZN28TestCore_testHu
 1199              		.align 2
 1200              	.LCOLDB46:
 1201              		.section	.text._ZN28TestCore_testHugeAppendConstD2Ev,"axG",@progbits,_ZN28TestCore_testHugeAppendC
 1202              	.LHOTB46:
 1203              		.align 2
 1204              		.p2align 4,,15
 1205              		.weak	_ZN28TestCore_testHugeAppendConstD2Ev
 1207              	_ZN28TestCore_testHugeAppendConstD2Ev:
 1208              	.LFB1492:
 1209              		.cfi_startproc
 1210 0000 48C70700 		movq	$_ZTV28TestCore_testHugeAppendConst+16, (%rdi)
 1210      000000
 1211 0007 E9000000 		jmp	_ZN8UnitTest4TestD2Ev
 1211      00
 1212              		.cfi_endproc
 1213              	.LFE1492:
 1215              		.section	.text.unlikely._ZN28TestCore_testHugeAppendConstD2Ev,"axG",@progbits,_ZN28TestCore_testHu
 1216              	.LCOLDE46:
 1217              		.section	.text._ZN28TestCore_testHugeAppendConstD2Ev,"axG",@progbits,_ZN28TestCore_testHugeAppendC
 1218              	.LHOTE46:
 1219              		.weak	_ZN28TestCore_testHugeAppendConstD1Ev
 1220              		.set	_ZN28TestCore_testHugeAppendConstD1Ev,_ZN28TestCore_testHugeAppendConstD2Ev
 1221              		.section	.text.unlikely._ZN28TestCore_testHugeAppendConstD0Ev,"axG",@progbits,_ZN28TestCore_testHu
 1222              		.align 2
 1223              	.LCOLDB47:
 1224              		.section	.text._ZN28TestCore_testHugeAppendConstD0Ev,"axG",@progbits,_ZN28TestCore_testHugeAppendC
 1225              	.LHOTB47:
 1226              		.align 2
 1227              		.p2align 4,,15
 1228              		.weak	_ZN28TestCore_testHugeAppendConstD0Ev
 1230              	_ZN28TestCore_testHugeAppendConstD0Ev:
 1231              	.LFB1494:
 1232              		.cfi_startproc
 1233 0000 53       		pushq	%rbx
 1234              		.cfi_def_cfa_offset 16
 1235              		.cfi_offset 3, -16
 1236 0001 4889FB   		movq	%rdi, %rbx
 1237 0004 48C70700 		movq	$_ZTV28TestCore_testHugeAppendConst+16, (%rdi)
 1237      000000
 1238 000b E8000000 		call	_ZN8UnitTest4TestD2Ev
 1238      00
 1239 0010 4889DF   		movq	%rbx, %rdi
 1240 0013 5B       		popq	%rbx
 1241              		.cfi_def_cfa_offset 8
 1242 0014 E9000000 		jmp	_ZdlPv
 1242      00
 1243              		.cfi_endproc
 1244              	.LFE1494:
 1246              		.section	.text.unlikely._ZN28TestCore_testHugeAppendConstD0Ev,"axG",@progbits,_ZN28TestCore_testHu
 1247              	.LCOLDE47:
 1248              		.section	.text._ZN28TestCore_testHugeAppendConstD0Ev,"axG",@progbits,_ZN28TestCore_testHugeAppendC
 1249              	.LHOTE47:
 1250              		.section	.text.unlikely._ZN33TestCore_testVeryLargeAppendConstD2Ev,"axG",@progbits,_ZN33TestCore_t
 1251              		.align 2
 1252              	.LCOLDB48:
 1253              		.section	.text._ZN33TestCore_testVeryLargeAppendConstD2Ev,"axG",@progbits,_ZN33TestCore_testVeryLa
 1254              	.LHOTB48:
 1255              		.align 2
 1256              		.p2align 4,,15
 1257              		.weak	_ZN33TestCore_testVeryLargeAppendConstD2Ev
 1259              	_ZN33TestCore_testVeryLargeAppendConstD2Ev:
 1260              	.LFB1496:
 1261              		.cfi_startproc
 1262 0000 48C70700 		movq	$_ZTV33TestCore_testVeryLargeAppendConst+16, (%rdi)
 1262      000000
 1263 0007 E9000000 		jmp	_ZN8UnitTest4TestD2Ev
 1263      00
 1264              		.cfi_endproc
 1265              	.LFE1496:
 1267              		.section	.text.unlikely._ZN33TestCore_testVeryLargeAppendConstD2Ev,"axG",@progbits,_ZN33TestCore_t
 1268              	.LCOLDE48:
 1269              		.section	.text._ZN33TestCore_testVeryLargeAppendConstD2Ev,"axG",@progbits,_ZN33TestCore_testVeryLa
 1270              	.LHOTE48:
 1271              		.weak	_ZN33TestCore_testVeryLargeAppendConstD1Ev
 1272              		.set	_ZN33TestCore_testVeryLargeAppendConstD1Ev,_ZN33TestCore_testVeryLargeAppendConstD2Ev
 1273              		.section	.text.unlikely._ZN33TestCore_testVeryLargeAppendConstD0Ev,"axG",@progbits,_ZN33TestCore_t
 1274              		.align 2
 1275              	.LCOLDB49:
 1276              		.section	.text._ZN33TestCore_testVeryLargeAppendConstD0Ev,"axG",@progbits,_ZN33TestCore_testVeryLa
 1277              	.LHOTB49:
 1278              		.align 2
 1279              		.p2align 4,,15
 1280              		.weak	_ZN33TestCore_testVeryLargeAppendConstD0Ev
 1282              	_ZN33TestCore_testVeryLargeAppendConstD0Ev:
 1283              	.LFB1498:
 1284              		.cfi_startproc
 1285 0000 53       		pushq	%rbx
 1286              		.cfi_def_cfa_offset 16
 1287              		.cfi_offset 3, -16
 1288 0001 4889FB   		movq	%rdi, %rbx
 1289 0004 48C70700 		movq	$_ZTV33TestCore_testVeryLargeAppendConst+16, (%rdi)
 1289      000000
 1290 000b E8000000 		call	_ZN8UnitTest4TestD2Ev
 1290      00
 1291 0010 4889DF   		movq	%rbx, %rdi
 1292 0013 5B       		popq	%rbx
 1293              		.cfi_def_cfa_offset 8
 1294 0014 E9000000 		jmp	_ZdlPv
 1294      00
 1295              		.cfi_endproc
 1296              	.LFE1498:
 1298              		.section	.text.unlikely._ZN33TestCore_testVeryLargeAppendConstD0Ev,"axG",@progbits,_ZN33TestCore_t
 1299              	.LCOLDE49:
 1300              		.section	.text._ZN33TestCore_testVeryLargeAppendConstD0Ev,"axG",@progbits,_ZN33TestCore_testVeryLa
 1301              	.LHOTE49:
 1302              		.section	.text.unlikely._ZN29TestCore_testLargeAppendConstD2Ev,"axG",@progbits,_ZN29TestCore_testL
 1303              		.align 2
 1304              	.LCOLDB50:
 1305              		.section	.text._ZN29TestCore_testLargeAppendConstD2Ev,"axG",@progbits,_ZN29TestCore_testLargeAppen
 1306              	.LHOTB50:
 1307              		.align 2
 1308              		.p2align 4,,15
 1309              		.weak	_ZN29TestCore_testLargeAppendConstD2Ev
 1311              	_ZN29TestCore_testLargeAppendConstD2Ev:
 1312              	.LFB1500:
 1313              		.cfi_startproc
 1314 0000 48C70700 		movq	$_ZTV29TestCore_testLargeAppendConst+16, (%rdi)
 1314      000000
 1315 0007 E9000000 		jmp	_ZN8UnitTest4TestD2Ev
 1315      00
 1316              		.cfi_endproc
 1317              	.LFE1500:
 1319              		.section	.text.unlikely._ZN29TestCore_testLargeAppendConstD2Ev,"axG",@progbits,_ZN29TestCore_testL
 1320              	.LCOLDE50:
 1321              		.section	.text._ZN29TestCore_testLargeAppendConstD2Ev,"axG",@progbits,_ZN29TestCore_testLargeAppen
 1322              	.LHOTE50:
 1323              		.weak	_ZN29TestCore_testLargeAppendConstD1Ev
 1324              		.set	_ZN29TestCore_testLargeAppendConstD1Ev,_ZN29TestCore_testLargeAppendConstD2Ev
 1325              		.section	.text.unlikely._ZN29TestCore_testLargeAppendConstD0Ev,"axG",@progbits,_ZN29TestCore_testL
 1326              		.align 2
 1327              	.LCOLDB51:
 1328              		.section	.text._ZN29TestCore_testLargeAppendConstD0Ev,"axG",@progbits,_ZN29TestCore_testLargeAppen
 1329              	.LHOTB51:
 1330              		.align 2
 1331              		.p2align 4,,15
 1332              		.weak	_ZN29TestCore_testLargeAppendConstD0Ev
 1334              	_ZN29TestCore_testLargeAppendConstD0Ev:
 1335              	.LFB1502:
 1336              		.cfi_startproc
 1337 0000 53       		pushq	%rbx
 1338              		.cfi_def_cfa_offset 16
 1339              		.cfi_offset 3, -16
 1340 0001 4889FB   		movq	%rdi, %rbx
 1341 0004 48C70700 		movq	$_ZTV29TestCore_testLargeAppendConst+16, (%rdi)
 1341      000000
 1342 000b E8000000 		call	_ZN8UnitTest4TestD2Ev
 1342      00
 1343 0010 4889DF   		movq	%rbx, %rdi
 1344 0013 5B       		popq	%rbx
 1345              		.cfi_def_cfa_offset 8
 1346 0014 E9000000 		jmp	_ZdlPv
 1346      00
 1347              		.cfi_endproc
 1348              	.LFE1502:
 1350              		.section	.text.unlikely._ZN29TestCore_testLargeAppendConstD0Ev,"axG",@progbits,_ZN29TestCore_testL
 1351              	.LCOLDE51:
 1352              		.section	.text._ZN29TestCore_testLargeAppendConstD0Ev,"axG",@progbits,_ZN29TestCore_testLargeAppen
 1353              	.LHOTE51:
 1354              		.section	.text.unlikely._ZN32TestCore_testCapacityAppendConstD2Ev,"axG",@progbits,_ZN32TestCore_te
 1355              		.align 2
 1356              	.LCOLDB52:
 1357              		.section	.text._ZN32TestCore_testCapacityAppendConstD2Ev,"axG",@progbits,_ZN32TestCore_testCapacit
 1358              	.LHOTB52:
 1359              		.align 2
 1360              		.p2align 4,,15
 1361              		.weak	_ZN32TestCore_testCapacityAppendConstD2Ev
 1363              	_ZN32TestCore_testCapacityAppendConstD2Ev:
 1364              	.LFB1504:
 1365              		.cfi_startproc
 1366 0000 48C70700 		movq	$_ZTV32TestCore_testCapacityAppendConst+16, (%rdi)
 1366      000000
 1367 0007 E9000000 		jmp	_ZN8UnitTest4TestD2Ev
 1367      00
 1368              		.cfi_endproc
 1369              	.LFE1504:
 1371              		.section	.text.unlikely._ZN32TestCore_testCapacityAppendConstD2Ev,"axG",@progbits,_ZN32TestCore_te
 1372              	.LCOLDE52:
 1373              		.section	.text._ZN32TestCore_testCapacityAppendConstD2Ev,"axG",@progbits,_ZN32TestCore_testCapacit
 1374              	.LHOTE52:
 1375              		.weak	_ZN32TestCore_testCapacityAppendConstD1Ev
 1376              		.set	_ZN32TestCore_testCapacityAppendConstD1Ev,_ZN32TestCore_testCapacityAppendConstD2Ev
 1377              		.section	.text.unlikely._ZN32TestCore_testCapacityAppendConstD0Ev,"axG",@progbits,_ZN32TestCore_te
 1378              		.align 2
 1379              	.LCOLDB53:
 1380              		.section	.text._ZN32TestCore_testCapacityAppendConstD0Ev,"axG",@progbits,_ZN32TestCore_testCapacit
 1381              	.LHOTB53:
 1382              		.align 2
 1383              		.p2align 4,,15
 1384              		.weak	_ZN32TestCore_testCapacityAppendConstD0Ev
 1386              	_ZN32TestCore_testCapacityAppendConstD0Ev:
 1387              	.LFB1506:
 1388              		.cfi_startproc
 1389 0000 53       		pushq	%rbx
 1390              		.cfi_def_cfa_offset 16
 1391              		.cfi_offset 3, -16
 1392 0001 4889FB   		movq	%rdi, %rbx
 1393 0004 48C70700 		movq	$_ZTV32TestCore_testCapacityAppendConst+16, (%rdi)
 1393      000000
 1394 000b E8000000 		call	_ZN8UnitTest4TestD2Ev
 1394      00
 1395 0010 4889DF   		movq	%rbx, %rdi
 1396 0013 5B       		popq	%rbx
 1397              		.cfi_def_cfa_offset 8
 1398 0014 E9000000 		jmp	_ZdlPv
 1398      00
 1399              		.cfi_endproc
 1400              	.LFE1506:
 1402              		.section	.text.unlikely._ZN32TestCore_testCapacityAppendConstD0Ev,"axG",@progbits,_ZN32TestCore_te
 1403              	.LCOLDE53:
 1404              		.section	.text._ZN32TestCore_testCapacityAppendConstD0Ev,"axG",@progbits,_ZN32TestCore_testCapacit
 1405              	.LHOTE53:
 1406              		.section	.text.unlikely._ZN29TestCore_testSmallAppendConstD2Ev,"axG",@progbits,_ZN29TestCore_testS
 1407              		.align 2
 1408              	.LCOLDB54:
 1409              		.section	.text._ZN29TestCore_testSmallAppendConstD2Ev,"axG",@progbits,_ZN29TestCore_testSmallAppen
 1410              	.LHOTB54:
 1411              		.align 2
 1412              		.p2align 4,,15
 1413              		.weak	_ZN29TestCore_testSmallAppendConstD2Ev
 1415              	_ZN29TestCore_testSmallAppendConstD2Ev:
 1416              	.LFB1508:
 1417              		.cfi_startproc
 1418 0000 48C70700 		movq	$_ZTV29TestCore_testSmallAppendConst+16, (%rdi)
 1418      000000
 1419 0007 E9000000 		jmp	_ZN8UnitTest4TestD2Ev
 1419      00
 1420              		.cfi_endproc
 1421              	.LFE1508:
 1423              		.section	.text.unlikely._ZN29TestCore_testSmallAppendConstD2Ev,"axG",@progbits,_ZN29TestCore_testS
 1424              	.LCOLDE54:
 1425              		.section	.text._ZN29TestCore_testSmallAppendConstD2Ev,"axG",@progbits,_ZN29TestCore_testSmallAppen
 1426              	.LHOTE54:
 1427              		.weak	_ZN29TestCore_testSmallAppendConstD1Ev
 1428              		.set	_ZN29TestCore_testSmallAppendConstD1Ev,_ZN29TestCore_testSmallAppendConstD2Ev
 1429              		.section	.text.unlikely._ZN29TestCore_testSmallAppendConstD0Ev,"axG",@progbits,_ZN29TestCore_testS
 1430              		.align 2
 1431              	.LCOLDB55:
 1432              		.section	.text._ZN29TestCore_testSmallAppendConstD0Ev,"axG",@progbits,_ZN29TestCore_testSmallAppen
 1433              	.LHOTB55:
 1434              		.align 2
 1435              		.p2align 4,,15
 1436              		.weak	_ZN29TestCore_testSmallAppendConstD0Ev
 1438              	_ZN29TestCore_testSmallAppendConstD0Ev:
 1439              	.LFB1510:
 1440              		.cfi_startproc
 1441 0000 53       		pushq	%rbx
 1442              		.cfi_def_cfa_offset 16
 1443              		.cfi_offset 3, -16
 1444 0001 4889FB   		movq	%rdi, %rbx
 1445 0004 48C70700 		movq	$_ZTV29TestCore_testSmallAppendConst+16, (%rdi)
 1445      000000
 1446 000b E8000000 		call	_ZN8UnitTest4TestD2Ev
 1446      00
 1447 0010 4889DF   		movq	%rbx, %rdi
 1448 0013 5B       		popq	%rbx
 1449              		.cfi_def_cfa_offset 8
 1450 0014 E9000000 		jmp	_ZdlPv
 1450      00
 1451              		.cfi_endproc
 1452              	.LFE1510:
 1454              		.section	.text.unlikely._ZN29TestCore_testSmallAppendConstD0Ev,"axG",@progbits,_ZN29TestCore_testS
 1455              	.LCOLDE55:
 1456              		.section	.text._ZN29TestCore_testSmallAppendConstD0Ev,"axG",@progbits,_ZN29TestCore_testSmallAppen
 1457              	.LHOTE55:
 1458              		.section	.text.unlikely._ZN33TestCore_testVeryLargeAppendZerosD2Ev,"axG",@progbits,_ZN33TestCore_t
 1459              		.align 2
 1460              	.LCOLDB56:
 1461              		.section	.text._ZN33TestCore_testVeryLargeAppendZerosD2Ev,"axG",@progbits,_ZN33TestCore_testVeryLa
 1462              	.LHOTB56:
 1463              		.align 2
 1464              		.p2align 4,,15
 1465              		.weak	_ZN33TestCore_testVeryLargeAppendZerosD2Ev
 1467              	_ZN33TestCore_testVeryLargeAppendZerosD2Ev:
 1468              	.LFB1512:
 1469              		.cfi_startproc
 1470 0000 48C70700 		movq	$_ZTV33TestCore_testVeryLargeAppendZeros+16, (%rdi)
 1470      000000
 1471 0007 E9000000 		jmp	_ZN8UnitTest4TestD2Ev
 1471      00
 1472              		.cfi_endproc
 1473              	.LFE1512:
 1475              		.section	.text.unlikely._ZN33TestCore_testVeryLargeAppendZerosD2Ev,"axG",@progbits,_ZN33TestCore_t
 1476              	.LCOLDE56:
 1477              		.section	.text._ZN33TestCore_testVeryLargeAppendZerosD2Ev,"axG",@progbits,_ZN33TestCore_testVeryLa
 1478              	.LHOTE56:
 1479              		.weak	_ZN33TestCore_testVeryLargeAppendZerosD1Ev
 1480              		.set	_ZN33TestCore_testVeryLargeAppendZerosD1Ev,_ZN33TestCore_testVeryLargeAppendZerosD2Ev
 1481              		.section	.text.unlikely._ZN33TestCore_testVeryLargeAppendZerosD0Ev,"axG",@progbits,_ZN33TestCore_t
 1482              		.align 2
 1483              	.LCOLDB57:
 1484              		.section	.text._ZN33TestCore_testVeryLargeAppendZerosD0Ev,"axG",@progbits,_ZN33TestCore_testVeryLa
 1485              	.LHOTB57:
 1486              		.align 2
 1487              		.p2align 4,,15
 1488              		.weak	_ZN33TestCore_testVeryLargeAppendZerosD0Ev
 1490              	_ZN33TestCore_testVeryLargeAppendZerosD0Ev:
 1491              	.LFB1514:
 1492              		.cfi_startproc
 1493 0000 53       		pushq	%rbx
 1494              		.cfi_def_cfa_offset 16
 1495              		.cfi_offset 3, -16
 1496 0001 4889FB   		movq	%rdi, %rbx
 1497 0004 48C70700 		movq	$_ZTV33TestCore_testVeryLargeAppendZeros+16, (%rdi)
 1497      000000
 1498 000b E8000000 		call	_ZN8UnitTest4TestD2Ev
 1498      00
 1499 0010 4889DF   		movq	%rbx, %rdi
 1500 0013 5B       		popq	%rbx
 1501              		.cfi_def_cfa_offset 8
 1502 0014 E9000000 		jmp	_ZdlPv
 1502      00
 1503              		.cfi_endproc
 1504              	.LFE1514:
 1506              		.section	.text.unlikely._ZN33TestCore_testVeryLargeAppendZerosD0Ev,"axG",@progbits,_ZN33TestCore_t
 1507              	.LCOLDE57:
 1508              		.section	.text._ZN33TestCore_testVeryLargeAppendZerosD0Ev,"axG",@progbits,_ZN33TestCore_testVeryLa
 1509              	.LHOTE57:
 1510              		.section	.text.unlikely._ZN29TestCore_testLargeAppendZerosD2Ev,"axG",@progbits,_ZN29TestCore_testL
 1511              		.align 2
 1512              	.LCOLDB58:
 1513              		.section	.text._ZN29TestCore_testLargeAppendZerosD2Ev,"axG",@progbits,_ZN29TestCore_testLargeAppen
 1514              	.LHOTB58:
 1515              		.align 2
 1516              		.p2align 4,,15
 1517              		.weak	_ZN29TestCore_testLargeAppendZerosD2Ev
 1519              	_ZN29TestCore_testLargeAppendZerosD2Ev:
 1520              	.LFB1516:
 1521              		.cfi_startproc
 1522 0000 48C70700 		movq	$_ZTV29TestCore_testLargeAppendZeros+16, (%rdi)
 1522      000000
 1523 0007 E9000000 		jmp	_ZN8UnitTest4TestD2Ev
 1523      00
 1524              		.cfi_endproc
 1525              	.LFE1516:
 1527              		.section	.text.unlikely._ZN29TestCore_testLargeAppendZerosD2Ev,"axG",@progbits,_ZN29TestCore_testL
 1528              	.LCOLDE58:
 1529              		.section	.text._ZN29TestCore_testLargeAppendZerosD2Ev,"axG",@progbits,_ZN29TestCore_testLargeAppen
 1530              	.LHOTE58:
 1531              		.weak	_ZN29TestCore_testLargeAppendZerosD1Ev
 1532              		.set	_ZN29TestCore_testLargeAppendZerosD1Ev,_ZN29TestCore_testLargeAppendZerosD2Ev
 1533              		.section	.text.unlikely._ZN29TestCore_testLargeAppendZerosD0Ev,"axG",@progbits,_ZN29TestCore_testL
 1534              		.align 2
 1535              	.LCOLDB59:
 1536              		.section	.text._ZN29TestCore_testLargeAppendZerosD0Ev,"axG",@progbits,_ZN29TestCore_testLargeAppen
 1537              	.LHOTB59:
 1538              		.align 2
 1539              		.p2align 4,,15
 1540              		.weak	_ZN29TestCore_testLargeAppendZerosD0Ev
 1542              	_ZN29TestCore_testLargeAppendZerosD0Ev:
 1543              	.LFB1518:
 1544              		.cfi_startproc
 1545 0000 53       		pushq	%rbx
 1546              		.cfi_def_cfa_offset 16
 1547              		.cfi_offset 3, -16
 1548 0001 4889FB   		movq	%rdi, %rbx
 1549 0004 48C70700 		movq	$_ZTV29TestCore_testLargeAppendZeros+16, (%rdi)
 1549      000000
 1550 000b E8000000 		call	_ZN8UnitTest4TestD2Ev
 1550      00
 1551 0010 4889DF   		movq	%rbx, %rdi
 1552 0013 5B       		popq	%rbx
 1553              		.cfi_def_cfa_offset 8
 1554 0014 E9000000 		jmp	_ZdlPv
 1554      00
 1555              		.cfi_endproc
 1556              	.LFE1518:
 1558              		.section	.text.unlikely._ZN29TestCore_testLargeAppendZerosD0Ev,"axG",@progbits,_ZN29TestCore_testL
 1559              	.LCOLDE59:
 1560              		.section	.text._ZN29TestCore_testLargeAppendZerosD0Ev,"axG",@progbits,_ZN29TestCore_testLargeAppen
 1561              	.LHOTE59:
 1562              		.section	.text.unlikely._ZN32TestCore_testCapacityAppendZerosD2Ev,"axG",@progbits,_ZN32TestCore_te
 1563              		.align 2
 1564              	.LCOLDB60:
 1565              		.section	.text._ZN32TestCore_testCapacityAppendZerosD2Ev,"axG",@progbits,_ZN32TestCore_testCapacit
 1566              	.LHOTB60:
 1567              		.align 2
 1568              		.p2align 4,,15
 1569              		.weak	_ZN32TestCore_testCapacityAppendZerosD2Ev
 1571              	_ZN32TestCore_testCapacityAppendZerosD2Ev:
 1572              	.LFB1520:
 1573              		.cfi_startproc
 1574 0000 48C70700 		movq	$_ZTV32TestCore_testCapacityAppendZeros+16, (%rdi)
 1574      000000
 1575 0007 E9000000 		jmp	_ZN8UnitTest4TestD2Ev
 1575      00
 1576              		.cfi_endproc
 1577              	.LFE1520:
 1579              		.section	.text.unlikely._ZN32TestCore_testCapacityAppendZerosD2Ev,"axG",@progbits,_ZN32TestCore_te
 1580              	.LCOLDE60:
 1581              		.section	.text._ZN32TestCore_testCapacityAppendZerosD2Ev,"axG",@progbits,_ZN32TestCore_testCapacit
 1582              	.LHOTE60:
 1583              		.weak	_ZN32TestCore_testCapacityAppendZerosD1Ev
 1584              		.set	_ZN32TestCore_testCapacityAppendZerosD1Ev,_ZN32TestCore_testCapacityAppendZerosD2Ev
 1585              		.section	.text.unlikely._ZN32TestCore_testCapacityAppendZerosD0Ev,"axG",@progbits,_ZN32TestCore_te
 1586              		.align 2
 1587              	.LCOLDB61:
 1588              		.section	.text._ZN32TestCore_testCapacityAppendZerosD0Ev,"axG",@progbits,_ZN32TestCore_testCapacit
 1589              	.LHOTB61:
 1590              		.align 2
 1591              		.p2align 4,,15
 1592              		.weak	_ZN32TestCore_testCapacityAppendZerosD0Ev
 1594              	_ZN32TestCore_testCapacityAppendZerosD0Ev:
 1595              	.LFB1522:
 1596              		.cfi_startproc
 1597 0000 53       		pushq	%rbx
 1598              		.cfi_def_cfa_offset 16
 1599              		.cfi_offset 3, -16
 1600 0001 4889FB   		movq	%rdi, %rbx
 1601 0004 48C70700 		movq	$_ZTV32TestCore_testCapacityAppendZeros+16, (%rdi)
 1601      000000
 1602 000b E8000000 		call	_ZN8UnitTest4TestD2Ev
 1602      00
 1603 0010 4889DF   		movq	%rbx, %rdi
 1604 0013 5B       		popq	%rbx
 1605              		.cfi_def_cfa_offset 8
 1606 0014 E9000000 		jmp	_ZdlPv
 1606      00
 1607              		.cfi_endproc
 1608              	.LFE1522:
 1610              		.section	.text.unlikely._ZN32TestCore_testCapacityAppendZerosD0Ev,"axG",@progbits,_ZN32TestCore_te
 1611              	.LCOLDE61:
 1612              		.section	.text._ZN32TestCore_testCapacityAppendZerosD0Ev,"axG",@progbits,_ZN32TestCore_testCapacit
 1613              	.LHOTE61:
 1614              		.section	.text.unlikely._ZN29TestCore_testSmallAppendZerosD2Ev,"axG",@progbits,_ZN29TestCore_testS
 1615              		.align 2
 1616              	.LCOLDB62:
 1617              		.section	.text._ZN29TestCore_testSmallAppendZerosD2Ev,"axG",@progbits,_ZN29TestCore_testSmallAppen
 1618              	.LHOTB62:
 1619              		.align 2
 1620              		.p2align 4,,15
 1621              		.weak	_ZN29TestCore_testSmallAppendZerosD2Ev
 1623              	_ZN29TestCore_testSmallAppendZerosD2Ev:
 1624              	.LFB1524:
 1625              		.cfi_startproc
 1626 0000 48C70700 		movq	$_ZTV29TestCore_testSmallAppendZeros+16, (%rdi)
 1626      000000
 1627 0007 E9000000 		jmp	_ZN8UnitTest4TestD2Ev
 1627      00
 1628              		.cfi_endproc
 1629              	.LFE1524:
 1631              		.section	.text.unlikely._ZN29TestCore_testSmallAppendZerosD2Ev,"axG",@progbits,_ZN29TestCore_testS
 1632              	.LCOLDE62:
 1633              		.section	.text._ZN29TestCore_testSmallAppendZerosD2Ev,"axG",@progbits,_ZN29TestCore_testSmallAppen
 1634              	.LHOTE62:
 1635              		.weak	_ZN29TestCore_testSmallAppendZerosD1Ev
 1636              		.set	_ZN29TestCore_testSmallAppendZerosD1Ev,_ZN29TestCore_testSmallAppendZerosD2Ev
 1637              		.section	.text.unlikely._ZN29TestCore_testSmallAppendZerosD0Ev,"axG",@progbits,_ZN29TestCore_testS
 1638              		.align 2
 1639              	.LCOLDB63:
 1640              		.section	.text._ZN29TestCore_testSmallAppendZerosD0Ev,"axG",@progbits,_ZN29TestCore_testSmallAppen
 1641              	.LHOTB63:
 1642              		.align 2
 1643              		.p2align 4,,15
 1644              		.weak	_ZN29TestCore_testSmallAppendZerosD0Ev
 1646              	_ZN29TestCore_testSmallAppendZerosD0Ev:
 1647              	.LFB1526:
 1648              		.cfi_startproc
 1649 0000 53       		pushq	%rbx
 1650              		.cfi_def_cfa_offset 16
 1651              		.cfi_offset 3, -16
 1652 0001 4889FB   		movq	%rdi, %rbx
 1653 0004 48C70700 		movq	$_ZTV29TestCore_testSmallAppendZeros+16, (%rdi)
 1653      000000
 1654 000b E8000000 		call	_ZN8UnitTest4TestD2Ev
 1654      00
 1655 0010 4889DF   		movq	%rbx, %rdi
 1656 0013 5B       		popq	%rbx
 1657              		.cfi_def_cfa_offset 8
 1658 0014 E9000000 		jmp	_ZdlPv
 1658      00
 1659              		.cfi_endproc
 1660              	.LFE1526:
 1662              		.section	.text.unlikely._ZN29TestCore_testSmallAppendZerosD0Ev,"axG",@progbits,_ZN29TestCore_testS
 1663              	.LCOLDE63:
 1664              		.section	.text._ZN29TestCore_testSmallAppendZerosD0Ev,"axG",@progbits,_ZN29TestCore_testSmallAppen
 1665              	.LHOTE63:
 1666              		.section	.text.unlikely._ZN25TestCore_testAppendLongBED2Ev,"axG",@progbits,_ZN25TestCore_testAppen
 1667              		.align 2
 1668              	.LCOLDB64:
 1669              		.section	.text._ZN25TestCore_testAppendLongBED2Ev,"axG",@progbits,_ZN25TestCore_testAppendLongBED5
 1670              	.LHOTB64:
 1671              		.align 2
 1672              		.p2align 4,,15
 1673              		.weak	_ZN25TestCore_testAppendLongBED2Ev
 1675              	_ZN25TestCore_testAppendLongBED2Ev:
 1676              	.LFB1528:
 1677              		.cfi_startproc
 1678 0000 48C70700 		movq	$_ZTV25TestCore_testAppendLongBE+16, (%rdi)
 1678      000000
 1679 0007 E9000000 		jmp	_ZN8UnitTest4TestD2Ev
 1679      00
 1680              		.cfi_endproc
 1681              	.LFE1528:
 1683              		.section	.text.unlikely._ZN25TestCore_testAppendLongBED2Ev,"axG",@progbits,_ZN25TestCore_testAppen
 1684              	.LCOLDE64:
 1685              		.section	.text._ZN25TestCore_testAppendLongBED2Ev,"axG",@progbits,_ZN25TestCore_testAppendLongBED5
 1686              	.LHOTE64:
 1687              		.weak	_ZN25TestCore_testAppendLongBED1Ev
 1688              		.set	_ZN25TestCore_testAppendLongBED1Ev,_ZN25TestCore_testAppendLongBED2Ev
 1689              		.section	.text.unlikely._ZN25TestCore_testAppendLongBED0Ev,"axG",@progbits,_ZN25TestCore_testAppen
 1690              		.align 2
 1691              	.LCOLDB65:
 1692              		.section	.text._ZN25TestCore_testAppendLongBED0Ev,"axG",@progbits,_ZN25TestCore_testAppendLongBED5
 1693              	.LHOTB65:
 1694              		.align 2
 1695              		.p2align 4,,15
 1696              		.weak	_ZN25TestCore_testAppendLongBED0Ev
 1698              	_ZN25TestCore_testAppendLongBED0Ev:
 1699              	.LFB1530:
 1700              		.cfi_startproc
 1701 0000 53       		pushq	%rbx
 1702              		.cfi_def_cfa_offset 16
 1703              		.cfi_offset 3, -16
 1704 0001 4889FB   		movq	%rdi, %rbx
 1705 0004 48C70700 		movq	$_ZTV25TestCore_testAppendLongBE+16, (%rdi)
 1705      000000
 1706 000b E8000000 		call	_ZN8UnitTest4TestD2Ev
 1706      00
 1707 0010 4889DF   		movq	%rbx, %rdi
 1708 0013 5B       		popq	%rbx
 1709              		.cfi_def_cfa_offset 8
 1710 0014 E9000000 		jmp	_ZdlPv
 1710      00
 1711              		.cfi_endproc
 1712              	.LFE1530:
 1714              		.section	.text.unlikely._ZN25TestCore_testAppendLongBED0Ev,"axG",@progbits,_ZN25TestCore_testAppen
 1715              	.LCOLDE65:
 1716              		.section	.text._ZN25TestCore_testAppendLongBED0Ev,"axG",@progbits,_ZN25TestCore_testAppendLongBED5
 1717              	.LHOTE65:
 1718              		.section	.text.unlikely._ZN25TestCore_testAppendLongLED2Ev,"axG",@progbits,_ZN25TestCore_testAppen
 1719              		.align 2
 1720              	.LCOLDB66:
 1721              		.section	.text._ZN25TestCore_testAppendLongLED2Ev,"axG",@progbits,_ZN25TestCore_testAppendLongLED5
 1722              	.LHOTB66:
 1723              		.align 2
 1724              		.p2align 4,,15
 1725              		.weak	_ZN25TestCore_testAppendLongLED2Ev
 1727              	_ZN25TestCore_testAppendLongLED2Ev:
 1728              	.LFB1532:
 1729              		.cfi_startproc
 1730 0000 48C70700 		movq	$_ZTV25TestCore_testAppendLongLE+16, (%rdi)
 1730      000000
 1731 0007 E9000000 		jmp	_ZN8UnitTest4TestD2Ev
 1731      00
 1732              		.cfi_endproc
 1733              	.LFE1532:
 1735              		.section	.text.unlikely._ZN25TestCore_testAppendLongLED2Ev,"axG",@progbits,_ZN25TestCore_testAppen
 1736              	.LCOLDE66:
 1737              		.section	.text._ZN25TestCore_testAppendLongLED2Ev,"axG",@progbits,_ZN25TestCore_testAppendLongLED5
 1738              	.LHOTE66:
 1739              		.weak	_ZN25TestCore_testAppendLongLED1Ev
 1740              		.set	_ZN25TestCore_testAppendLongLED1Ev,_ZN25TestCore_testAppendLongLED2Ev
 1741              		.section	.text.unlikely._ZN25TestCore_testAppendLongLED0Ev,"axG",@progbits,_ZN25TestCore_testAppen
 1742              		.align 2
 1743              	.LCOLDB67:
 1744              		.section	.text._ZN25TestCore_testAppendLongLED0Ev,"axG",@progbits,_ZN25TestCore_testAppendLongLED5
 1745              	.LHOTB67:
 1746              		.align 2
 1747              		.p2align 4,,15
 1748              		.weak	_ZN25TestCore_testAppendLongLED0Ev
 1750              	_ZN25TestCore_testAppendLongLED0Ev:
 1751              	.LFB1534:
 1752              		.cfi_startproc
 1753 0000 53       		pushq	%rbx
 1754              		.cfi_def_cfa_offset 16
 1755              		.cfi_offset 3, -16
 1756 0001 4889FB   		movq	%rdi, %rbx
 1757 0004 48C70700 		movq	$_ZTV25TestCore_testAppendLongLE+16, (%rdi)
 1757      000000
 1758 000b E8000000 		call	_ZN8UnitTest4TestD2Ev
 1758      00
 1759 0010 4889DF   		movq	%rbx, %rdi
 1760 0013 5B       		popq	%rbx
 1761              		.cfi_def_cfa_offset 8
 1762 0014 E9000000 		jmp	_ZdlPv
 1762      00
 1763              		.cfi_endproc
 1764              	.LFE1534:
 1766              		.section	.text.unlikely._ZN25TestCore_testAppendLongLED0Ev,"axG",@progbits,_ZN25TestCore_testAppen
 1767              	.LCOLDE67:
 1768              		.section	.text._ZN25TestCore_testAppendLongLED0Ev,"axG",@progbits,_ZN25TestCore_testAppendLongLED5
 1769              	.LHOTE67:
 1770              		.section	.text.unlikely._ZN25TestCore_testAppendWordBED2Ev,"axG",@progbits,_ZN25TestCore_testAppen
 1771              		.align 2
 1772              	.LCOLDB68:
 1773              		.section	.text._ZN25TestCore_testAppendWordBED2Ev,"axG",@progbits,_ZN25TestCore_testAppendWordBED5
 1774              	.LHOTB68:
 1775              		.align 2
 1776              		.p2align 4,,15
 1777              		.weak	_ZN25TestCore_testAppendWordBED2Ev
 1779              	_ZN25TestCore_testAppendWordBED2Ev:
 1780              	.LFB1536:
 1781              		.cfi_startproc
 1782 0000 48C70700 		movq	$_ZTV25TestCore_testAppendWordBE+16, (%rdi)
 1782      000000
 1783 0007 E9000000 		jmp	_ZN8UnitTest4TestD2Ev
 1783      00
 1784              		.cfi_endproc
 1785              	.LFE1536:
 1787              		.section	.text.unlikely._ZN25TestCore_testAppendWordBED2Ev,"axG",@progbits,_ZN25TestCore_testAppen
 1788              	.LCOLDE68:
 1789              		.section	.text._ZN25TestCore_testAppendWordBED2Ev,"axG",@progbits,_ZN25TestCore_testAppendWordBED5
 1790              	.LHOTE68:
 1791              		.weak	_ZN25TestCore_testAppendWordBED1Ev
 1792              		.set	_ZN25TestCore_testAppendWordBED1Ev,_ZN25TestCore_testAppendWordBED2Ev
 1793              		.section	.text.unlikely._ZN25TestCore_testAppendWordBED0Ev,"axG",@progbits,_ZN25TestCore_testAppen
 1794              		.align 2
 1795              	.LCOLDB69:
 1796              		.section	.text._ZN25TestCore_testAppendWordBED0Ev,"axG",@progbits,_ZN25TestCore_testAppendWordBED5
 1797              	.LHOTB69:
 1798              		.align 2
 1799              		.p2align 4,,15
 1800              		.weak	_ZN25TestCore_testAppendWordBED0Ev
 1802              	_ZN25TestCore_testAppendWordBED0Ev:
 1803              	.LFB1538:
 1804              		.cfi_startproc
 1805 0000 53       		pushq	%rbx
 1806              		.cfi_def_cfa_offset 16
 1807              		.cfi_offset 3, -16
 1808 0001 4889FB   		movq	%rdi, %rbx
 1809 0004 48C70700 		movq	$_ZTV25TestCore_testAppendWordBE+16, (%rdi)
 1809      000000
 1810 000b E8000000 		call	_ZN8UnitTest4TestD2Ev
 1810      00
 1811 0010 4889DF   		movq	%rbx, %rdi
 1812 0013 5B       		popq	%rbx
 1813              		.cfi_def_cfa_offset 8
 1814 0014 E9000000 		jmp	_ZdlPv
 1814      00
 1815              		.cfi_endproc
 1816              	.LFE1538:
 1818              		.section	.text.unlikely._ZN25TestCore_testAppendWordBED0Ev,"axG",@progbits,_ZN25TestCore_testAppen
 1819              	.LCOLDE69:
 1820              		.section	.text._ZN25TestCore_testAppendWordBED0Ev,"axG",@progbits,_ZN25TestCore_testAppendWordBED5
 1821              	.LHOTE69:
 1822              		.section	.text.unlikely._ZN25TestCore_testAppendWordLED2Ev,"axG",@progbits,_ZN25TestCore_testAppen
 1823              		.align 2
 1824              	.LCOLDB70:
 1825              		.section	.text._ZN25TestCore_testAppendWordLED2Ev,"axG",@progbits,_ZN25TestCore_testAppendWordLED5
 1826              	.LHOTB70:
 1827              		.align 2
 1828              		.p2align 4,,15
 1829              		.weak	_ZN25TestCore_testAppendWordLED2Ev
 1831              	_ZN25TestCore_testAppendWordLED2Ev:
 1832              	.LFB1540:
 1833              		.cfi_startproc
 1834 0000 48C70700 		movq	$_ZTV25TestCore_testAppendWordLE+16, (%rdi)
 1834      000000
 1835 0007 E9000000 		jmp	_ZN8UnitTest4TestD2Ev
 1835      00
 1836              		.cfi_endproc
 1837              	.LFE1540:
 1839              		.section	.text.unlikely._ZN25TestCore_testAppendWordLED2Ev,"axG",@progbits,_ZN25TestCore_testAppen
 1840              	.LCOLDE70:
 1841              		.section	.text._ZN25TestCore_testAppendWordLED2Ev,"axG",@progbits,_ZN25TestCore_testAppendWordLED5
 1842              	.LHOTE70:
 1843              		.weak	_ZN25TestCore_testAppendWordLED1Ev
 1844              		.set	_ZN25TestCore_testAppendWordLED1Ev,_ZN25TestCore_testAppendWordLED2Ev
 1845              		.section	.text.unlikely._ZN25TestCore_testAppendWordLED0Ev,"axG",@progbits,_ZN25TestCore_testAppen
 1846              		.align 2
 1847              	.LCOLDB71:
 1848              		.section	.text._ZN25TestCore_testAppendWordLED0Ev,"axG",@progbits,_ZN25TestCore_testAppendWordLED5
 1849              	.LHOTB71:
 1850              		.align 2
 1851              		.p2align 4,,15
 1852              		.weak	_ZN25TestCore_testAppendWordLED0Ev
 1854              	_ZN25TestCore_testAppendWordLED0Ev:
 1855              	.LFB1542:
 1856              		.cfi_startproc
 1857 0000 53       		pushq	%rbx
 1858              		.cfi_def_cfa_offset 16
 1859              		.cfi_offset 3, -16
 1860 0001 4889FB   		movq	%rdi, %rbx
 1861 0004 48C70700 		movq	$_ZTV25TestCore_testAppendWordLE+16, (%rdi)
 1861      000000
 1862 000b E8000000 		call	_ZN8UnitTest4TestD2Ev
 1862      00
 1863 0010 4889DF   		movq	%rbx, %rdi
 1864 0013 5B       		popq	%rbx
 1865              		.cfi_def_cfa_offset 8
 1866 0014 E9000000 		jmp	_ZdlPv
 1866      00
 1867              		.cfi_endproc
 1868              	.LFE1542:
 1870              		.section	.text.unlikely._ZN25TestCore_testAppendWordLED0Ev,"axG",@progbits,_ZN25TestCore_testAppen
 1871              	.LCOLDE71:
 1872              		.section	.text._ZN25TestCore_testAppendWordLED0Ev,"axG",@progbits,_ZN25TestCore_testAppendWordLED5
 1873              	.LHOTE71:
 1874              		.section	.text.unlikely._ZN23TestCore_testAppendByteD2Ev,"axG",@progbits,_ZN23TestCore_testAppendB
 1875              		.align 2
 1876              	.LCOLDB72:
 1877              		.section	.text._ZN23TestCore_testAppendByteD2Ev,"axG",@progbits,_ZN23TestCore_testAppendByteD5Ev,c
 1878              	.LHOTB72:
 1879              		.align 2
 1880              		.p2align 4,,15
 1881              		.weak	_ZN23TestCore_testAppendByteD2Ev
 1883              	_ZN23TestCore_testAppendByteD2Ev:
 1884              	.LFB1544:
 1885              		.cfi_startproc
 1886 0000 48C70700 		movq	$_ZTV23TestCore_testAppendByte+16, (%rdi)
 1886      000000
 1887 0007 E9000000 		jmp	_ZN8UnitTest4TestD2Ev
 1887      00
 1888              		.cfi_endproc
 1889              	.LFE1544:
 1891              		.section	.text.unlikely._ZN23TestCore_testAppendByteD2Ev,"axG",@progbits,_ZN23TestCore_testAppendB
 1892              	.LCOLDE72:
 1893              		.section	.text._ZN23TestCore_testAppendByteD2Ev,"axG",@progbits,_ZN23TestCore_testAppendByteD5Ev,c
 1894              	.LHOTE72:
 1895              		.weak	_ZN23TestCore_testAppendByteD1Ev
 1896              		.set	_ZN23TestCore_testAppendByteD1Ev,_ZN23TestCore_testAppendByteD2Ev
 1897              		.section	.text.unlikely._ZN23TestCore_testAppendByteD0Ev,"axG",@progbits,_ZN23TestCore_testAppendB
 1898              		.align 2
 1899              	.LCOLDB73:
 1900              		.section	.text._ZN23TestCore_testAppendByteD0Ev,"axG",@progbits,_ZN23TestCore_testAppendByteD5Ev,c
 1901              	.LHOTB73:
 1902              		.align 2
 1903              		.p2align 4,,15
 1904              		.weak	_ZN23TestCore_testAppendByteD0Ev
 1906              	_ZN23TestCore_testAppendByteD0Ev:
 1907              	.LFB1546:
 1908              		.cfi_startproc
 1909 0000 53       		pushq	%rbx
 1910              		.cfi_def_cfa_offset 16
 1911              		.cfi_offset 3, -16
 1912 0001 4889FB   		movq	%rdi, %rbx
 1913 0004 48C70700 		movq	$_ZTV23TestCore_testAppendByte+16, (%rdi)
 1913      000000
 1914 000b E8000000 		call	_ZN8UnitTest4TestD2Ev
 1914      00
 1915 0010 4889DF   		movq	%rbx, %rdi
 1916 0013 5B       		popq	%rbx
 1917              		.cfi_def_cfa_offset 8
 1918 0014 E9000000 		jmp	_ZdlPv
 1918      00
 1919              		.cfi_endproc
 1920              	.LFE1546:
 1922              		.section	.text.unlikely._ZN23TestCore_testAppendByteD0Ev,"axG",@progbits,_ZN23TestCore_testAppendB
 1923              	.LCOLDE73:
 1924              		.section	.text._ZN23TestCore_testAppendByteD0Ev,"axG",@progbits,_ZN23TestCore_testAppendByteD5Ev,c
 1925              	.LHOTE73:
 1926              		.section	.text.unlikely._ZN39TestCore_testVeryLargeAppendBlockInitFFD2Ev,"axG",@progbits,_ZN39Test
 1927              		.align 2
 1928              	.LCOLDB74:
 1929              		.section	.text._ZN39TestCore_testVeryLargeAppendBlockInitFFD2Ev,"axG",@progbits,_ZN39TestCore_test
 1930              	.LHOTB74:
 1931              		.align 2
 1932              		.p2align 4,,15
 1933              		.weak	_ZN39TestCore_testVeryLargeAppendBlockInitFFD2Ev
 1935              	_ZN39TestCore_testVeryLargeAppendBlockInitFFD2Ev:
 1936              	.LFB1548:
 1937              		.cfi_startproc
 1938 0000 48C70700 		movq	$_ZTV39TestCore_testVeryLargeAppendBlockInitFF+16, (%rdi)
 1938      000000
 1939 0007 E9000000 		jmp	_ZN8UnitTest4TestD2Ev
 1939      00
 1940              		.cfi_endproc
 1941              	.LFE1548:
 1943              		.section	.text.unlikely._ZN39TestCore_testVeryLargeAppendBlockInitFFD2Ev,"axG",@progbits,_ZN39Test
 1944              	.LCOLDE74:
 1945              		.section	.text._ZN39TestCore_testVeryLargeAppendBlockInitFFD2Ev,"axG",@progbits,_ZN39TestCore_test
 1946              	.LHOTE74:
 1947              		.weak	_ZN39TestCore_testVeryLargeAppendBlockInitFFD1Ev
 1948              		.set	_ZN39TestCore_testVeryLargeAppendBlockInitFFD1Ev,_ZN39TestCore_testVeryLargeAppendBlockInitFF
 1949              		.section	.text.unlikely._ZN39TestCore_testVeryLargeAppendBlockInitFFD0Ev,"axG",@progbits,_ZN39Test
 1950              		.align 2
 1951              	.LCOLDB75:
 1952              		.section	.text._ZN39TestCore_testVeryLargeAppendBlockInitFFD0Ev,"axG",@progbits,_ZN39TestCore_test
 1953              	.LHOTB75:
 1954              		.align 2
 1955              		.p2align 4,,15
 1956              		.weak	_ZN39TestCore_testVeryLargeAppendBlockInitFFD0Ev
 1958              	_ZN39TestCore_testVeryLargeAppendBlockInitFFD0Ev:
 1959              	.LFB1550:
 1960              		.cfi_startproc
 1961 0000 53       		pushq	%rbx
 1962              		.cfi_def_cfa_offset 16
 1963              		.cfi_offset 3, -16
 1964 0001 4889FB   		movq	%rdi, %rbx
 1965 0004 48C70700 		movq	$_ZTV39TestCore_testVeryLargeAppendBlockInitFF+16, (%rdi)
 1965      000000
 1966 000b E8000000 		call	_ZN8UnitTest4TestD2Ev
 1966      00
 1967 0010 4889DF   		movq	%rbx, %rdi
 1968 0013 5B       		popq	%rbx
 1969              		.cfi_def_cfa_offset 8
 1970 0014 E9000000 		jmp	_ZdlPv
 1970      00
 1971              		.cfi_endproc
 1972              	.LFE1550:
 1974              		.section	.text.unlikely._ZN39TestCore_testVeryLargeAppendBlockInitFFD0Ev,"axG",@progbits,_ZN39Test
 1975              	.LCOLDE75:
 1976              		.section	.text._ZN39TestCore_testVeryLargeAppendBlockInitFFD0Ev,"axG",@progbits,_ZN39TestCore_test
 1977              	.LHOTE75:
 1978              		.section	.text.unlikely._ZN41TestCore_testVeryLargeAppendBlockInitZeroD2Ev,"axG",@progbits,_ZN41Te
 1979              		.align 2
 1980              	.LCOLDB76:
 1981              		.section	.text._ZN41TestCore_testVeryLargeAppendBlockInitZeroD2Ev,"axG",@progbits,_ZN41TestCore_te
 1982              	.LHOTB76:
 1983              		.align 2
 1984              		.p2align 4,,15
 1985              		.weak	_ZN41TestCore_testVeryLargeAppendBlockInitZeroD2Ev
 1987              	_ZN41TestCore_testVeryLargeAppendBlockInitZeroD2Ev:
 1988              	.LFB1552:
 1989              		.cfi_startproc
 1990 0000 48C70700 		movq	$_ZTV41TestCore_testVeryLargeAppendBlockInitZero+16, (%rdi)
 1990      000000
 1991 0007 E9000000 		jmp	_ZN8UnitTest4TestD2Ev
 1991      00
 1992              		.cfi_endproc
 1993              	.LFE1552:
 1995              		.section	.text.unlikely._ZN41TestCore_testVeryLargeAppendBlockInitZeroD2Ev,"axG",@progbits,_ZN41Te
 1996              	.LCOLDE76:
 1997              		.section	.text._ZN41TestCore_testVeryLargeAppendBlockInitZeroD2Ev,"axG",@progbits,_ZN41TestCore_te
 1998              	.LHOTE76:
 1999              		.weak	_ZN41TestCore_testVeryLargeAppendBlockInitZeroD1Ev
 2000              		.set	_ZN41TestCore_testVeryLargeAppendBlockInitZeroD1Ev,_ZN41TestCore_testVeryLargeAppendBlockInit
 2001              		.section	.text.unlikely._ZN41TestCore_testVeryLargeAppendBlockInitZeroD0Ev,"axG",@progbits,_ZN41Te
 2002              		.align 2
 2003              	.LCOLDB77:
 2004              		.section	.text._ZN41TestCore_testVeryLargeAppendBlockInitZeroD0Ev,"axG",@progbits,_ZN41TestCore_te
 2005              	.LHOTB77:
 2006              		.align 2
 2007              		.p2align 4,,15
 2008              		.weak	_ZN41TestCore_testVeryLargeAppendBlockInitZeroD0Ev
 2010              	_ZN41TestCore_testVeryLargeAppendBlockInitZeroD0Ev:
 2011              	.LFB1554:
 2012              		.cfi_startproc
 2013 0000 53       		pushq	%rbx
 2014              		.cfi_def_cfa_offset 16
 2015              		.cfi_offset 3, -16
 2016 0001 4889FB   		movq	%rdi, %rbx
 2017 0004 48C70700 		movq	$_ZTV41TestCore_testVeryLargeAppendBlockInitZero+16, (%rdi)
 2017      000000
 2018 000b E8000000 		call	_ZN8UnitTest4TestD2Ev
 2018      00
 2019 0010 4889DF   		movq	%rbx, %rdi
 2020 0013 5B       		popq	%rbx
 2021              		.cfi_def_cfa_offset 8
 2022 0014 E9000000 		jmp	_ZdlPv
 2022      00
 2023              		.cfi_endproc
 2024              	.LFE1554:
 2026              		.section	.text.unlikely._ZN41TestCore_testVeryLargeAppendBlockInitZeroD0Ev,"axG",@progbits,_ZN41Te
 2027              	.LCOLDE77:
 2028              		.section	.text._ZN41TestCore_testVeryLargeAppendBlockInitZeroD0Ev,"axG",@progbits,_ZN41TestCore_te
 2029              	.LHOTE77:
 2030              		.section	.text.unlikely._ZN29TestCore_testLargeAppendBlockD2Ev,"axG",@progbits,_ZN29TestCore_testL
 2031              		.align 2
 2032              	.LCOLDB78:
 2033              		.section	.text._ZN29TestCore_testLargeAppendBlockD2Ev,"axG",@progbits,_ZN29TestCore_testLargeAppen
 2034              	.LHOTB78:
 2035              		.align 2
 2036              		.p2align 4,,15
 2037              		.weak	_ZN29TestCore_testLargeAppendBlockD2Ev
 2039              	_ZN29TestCore_testLargeAppendBlockD2Ev:
 2040              	.LFB1556:
 2041              		.cfi_startproc
 2042 0000 48C70700 		movq	$_ZTV29TestCore_testLargeAppendBlock+16, (%rdi)
 2042      000000
 2043 0007 E9000000 		jmp	_ZN8UnitTest4TestD2Ev
 2043      00
 2044              		.cfi_endproc
 2045              	.LFE1556:
 2047              		.section	.text.unlikely._ZN29TestCore_testLargeAppendBlockD2Ev,"axG",@progbits,_ZN29TestCore_testL
 2048              	.LCOLDE78:
 2049              		.section	.text._ZN29TestCore_testLargeAppendBlockD2Ev,"axG",@progbits,_ZN29TestCore_testLargeAppen
 2050              	.LHOTE78:
 2051              		.weak	_ZN29TestCore_testLargeAppendBlockD1Ev
 2052              		.set	_ZN29TestCore_testLargeAppendBlockD1Ev,_ZN29TestCore_testLargeAppendBlockD2Ev
 2053              		.section	.text.unlikely._ZN29TestCore_testLargeAppendBlockD0Ev,"axG",@progbits,_ZN29TestCore_testL
 2054              		.align 2
 2055              	.LCOLDB79:
 2056              		.section	.text._ZN29TestCore_testLargeAppendBlockD0Ev,"axG",@progbits,_ZN29TestCore_testLargeAppen
 2057              	.LHOTB79:
 2058              		.align 2
 2059              		.p2align 4,,15
 2060              		.weak	_ZN29TestCore_testLargeAppendBlockD0Ev
 2062              	_ZN29TestCore_testLargeAppendBlockD0Ev:
 2063              	.LFB1558:
 2064              		.cfi_startproc
 2065 0000 53       		pushq	%rbx
 2066              		.cfi_def_cfa_offset 16
 2067              		.cfi_offset 3, -16
 2068 0001 4889FB   		movq	%rdi, %rbx
 2069 0004 48C70700 		movq	$_ZTV29TestCore_testLargeAppendBlock+16, (%rdi)
 2069      000000
 2070 000b E8000000 		call	_ZN8UnitTest4TestD2Ev
 2070      00
 2071 0010 4889DF   		movq	%rbx, %rdi
 2072 0013 5B       		popq	%rbx
 2073              		.cfi_def_cfa_offset 8
 2074 0014 E9000000 		jmp	_ZdlPv
 2074      00
 2075              		.cfi_endproc
 2076              	.LFE1558:
 2078              		.section	.text.unlikely._ZN29TestCore_testLargeAppendBlockD0Ev,"axG",@progbits,_ZN29TestCore_testL
 2079              	.LCOLDE79:
 2080              		.section	.text._ZN29TestCore_testLargeAppendBlockD0Ev,"axG",@progbits,_ZN29TestCore_testLargeAppen
 2081              	.LHOTE79:
 2082              		.section	.text.unlikely._ZN32TestCore_testCapacityAppendBlockD2Ev,"axG",@progbits,_ZN32TestCore_te
 2083              		.align 2
 2084              	.LCOLDB80:
 2085              		.section	.text._ZN32TestCore_testCapacityAppendBlockD2Ev,"axG",@progbits,_ZN32TestCore_testCapacit
 2086              	.LHOTB80:
 2087              		.align 2
 2088              		.p2align 4,,15
 2089              		.weak	_ZN32TestCore_testCapacityAppendBlockD2Ev
 2091              	_ZN32TestCore_testCapacityAppendBlockD2Ev:
 2092              	.LFB1560:
 2093              		.cfi_startproc
 2094 0000 48C70700 		movq	$_ZTV32TestCore_testCapacityAppendBlock+16, (%rdi)
 2094      000000
 2095 0007 E9000000 		jmp	_ZN8UnitTest4TestD2Ev
 2095      00
 2096              		.cfi_endproc
 2097              	.LFE1560:
 2099              		.section	.text.unlikely._ZN32TestCore_testCapacityAppendBlockD2Ev,"axG",@progbits,_ZN32TestCore_te
 2100              	.LCOLDE80:
 2101              		.section	.text._ZN32TestCore_testCapacityAppendBlockD2Ev,"axG",@progbits,_ZN32TestCore_testCapacit
 2102              	.LHOTE80:
 2103              		.weak	_ZN32TestCore_testCapacityAppendBlockD1Ev
 2104              		.set	_ZN32TestCore_testCapacityAppendBlockD1Ev,_ZN32TestCore_testCapacityAppendBlockD2Ev
 2105              		.section	.text.unlikely._ZN32TestCore_testCapacityAppendBlockD0Ev,"axG",@progbits,_ZN32TestCore_te
 2106              		.align 2
 2107              	.LCOLDB81:
 2108              		.section	.text._ZN32TestCore_testCapacityAppendBlockD0Ev,"axG",@progbits,_ZN32TestCore_testCapacit
 2109              	.LHOTB81:
 2110              		.align 2
 2111              		.p2align 4,,15
 2112              		.weak	_ZN32TestCore_testCapacityAppendBlockD0Ev
 2114              	_ZN32TestCore_testCapacityAppendBlockD0Ev:
 2115              	.LFB1562:
 2116              		.cfi_startproc
 2117 0000 53       		pushq	%rbx
 2118              		.cfi_def_cfa_offset 16
 2119              		.cfi_offset 3, -16
 2120 0001 4889FB   		movq	%rdi, %rbx
 2121 0004 48C70700 		movq	$_ZTV32TestCore_testCapacityAppendBlock+16, (%rdi)
 2121      000000
 2122 000b E8000000 		call	_ZN8UnitTest4TestD2Ev
 2122      00
 2123 0010 4889DF   		movq	%rbx, %rdi
 2124 0013 5B       		popq	%rbx
 2125              		.cfi_def_cfa_offset 8
 2126 0014 E9000000 		jmp	_ZdlPv
 2126      00
 2127              		.cfi_endproc
 2128              	.LFE1562:
 2130              		.section	.text.unlikely._ZN32TestCore_testCapacityAppendBlockD0Ev,"axG",@progbits,_ZN32TestCore_te
 2131              	.LCOLDE81:
 2132              		.section	.text._ZN32TestCore_testCapacityAppendBlockD0Ev,"axG",@progbits,_ZN32TestCore_testCapacit
 2133              	.LHOTE81:
 2134              		.section	.text.unlikely._ZN29TestCore_testSmallAppendBlockD2Ev,"axG",@progbits,_ZN29TestCore_testS
 2135              		.align 2
 2136              	.LCOLDB82:
 2137              		.section	.text._ZN29TestCore_testSmallAppendBlockD2Ev,"axG",@progbits,_ZN29TestCore_testSmallAppen
 2138              	.LHOTB82:
 2139              		.align 2
 2140              		.p2align 4,,15
 2141              		.weak	_ZN29TestCore_testSmallAppendBlockD2Ev
 2143              	_ZN29TestCore_testSmallAppendBlockD2Ev:
 2144              	.LFB1564:
 2145              		.cfi_startproc
 2146 0000 48C70700 		movq	$_ZTV29TestCore_testSmallAppendBlock+16, (%rdi)
 2146      000000
 2147 0007 E9000000 		jmp	_ZN8UnitTest4TestD2Ev
 2147      00
 2148              		.cfi_endproc
 2149              	.LFE1564:
 2151              		.section	.text.unlikely._ZN29TestCore_testSmallAppendBlockD2Ev,"axG",@progbits,_ZN29TestCore_testS
 2152              	.LCOLDE82:
 2153              		.section	.text._ZN29TestCore_testSmallAppendBlockD2Ev,"axG",@progbits,_ZN29TestCore_testSmallAppen
 2154              	.LHOTE82:
 2155              		.weak	_ZN29TestCore_testSmallAppendBlockD1Ev
 2156              		.set	_ZN29TestCore_testSmallAppendBlockD1Ev,_ZN29TestCore_testSmallAppendBlockD2Ev
 2157              		.section	.text.unlikely._ZN29TestCore_testSmallAppendBlockD0Ev,"axG",@progbits,_ZN29TestCore_testS
 2158              		.align 2
 2159              	.LCOLDB83:
 2160              		.section	.text._ZN29TestCore_testSmallAppendBlockD0Ev,"axG",@progbits,_ZN29TestCore_testSmallAppen
 2161              	.LHOTB83:
 2162              		.align 2
 2163              		.p2align 4,,15
 2164              		.weak	_ZN29TestCore_testSmallAppendBlockD0Ev
 2166              	_ZN29TestCore_testSmallAppendBlockD0Ev:
 2167              	.LFB1566:
 2168              		.cfi_startproc
 2169 0000 53       		pushq	%rbx
 2170              		.cfi_def_cfa_offset 16
 2171              		.cfi_offset 3, -16
 2172 0001 4889FB   		movq	%rdi, %rbx
 2173 0004 48C70700 		movq	$_ZTV29TestCore_testSmallAppendBlock+16, (%rdi)
 2173      000000
 2174 000b E8000000 		call	_ZN8UnitTest4TestD2Ev
 2174      00
 2175 0010 4889DF   		movq	%rbx, %rdi
 2176 0013 5B       		popq	%rbx
 2177              		.cfi_def_cfa_offset 8
 2178 0014 E9000000 		jmp	_ZdlPv
 2178      00
 2179              		.cfi_endproc
 2180              	.LFE1566:
 2182              		.section	.text.unlikely._ZN29TestCore_testSmallAppendBlockD0Ev,"axG",@progbits,_ZN29TestCore_testS
 2183              	.LCOLDE83:
 2184              		.section	.text._ZN29TestCore_testSmallAppendBlockD0Ev,"axG",@progbits,_ZN29TestCore_testSmallAppen
 2185              	.LHOTE83:
 2186              		.section	.text.unlikely._ZN25TestCore_testInitialiseFFD2Ev,"axG",@progbits,_ZN25TestCore_testIniti
 2187              		.align 2
 2188              	.LCOLDB84:
 2189              		.section	.text._ZN25TestCore_testInitialiseFFD2Ev,"axG",@progbits,_ZN25TestCore_testInitialiseFFD5
 2190              	.LHOTB84:
 2191              		.align 2
 2192              		.p2align 4,,15
 2193              		.weak	_ZN25TestCore_testInitialiseFFD2Ev
 2195              	_ZN25TestCore_testInitialiseFFD2Ev:
 2196              	.LFB1568:
 2197              		.cfi_startproc
 2198 0000 48C70700 		movq	$_ZTV25TestCore_testInitialiseFF+16, (%rdi)
 2198      000000
 2199 0007 E9000000 		jmp	_ZN8UnitTest4TestD2Ev
 2199      00
 2200              		.cfi_endproc
 2201              	.LFE1568:
 2203              		.section	.text.unlikely._ZN25TestCore_testInitialiseFFD2Ev,"axG",@progbits,_ZN25TestCore_testIniti
 2204              	.LCOLDE84:
 2205              		.section	.text._ZN25TestCore_testInitialiseFFD2Ev,"axG",@progbits,_ZN25TestCore_testInitialiseFFD5
 2206              	.LHOTE84:
 2207              		.weak	_ZN25TestCore_testInitialiseFFD1Ev
 2208              		.set	_ZN25TestCore_testInitialiseFFD1Ev,_ZN25TestCore_testInitialiseFFD2Ev
 2209              		.section	.text.unlikely._ZN25TestCore_testInitialiseFFD0Ev,"axG",@progbits,_ZN25TestCore_testIniti
 2210              		.align 2
 2211              	.LCOLDB85:
 2212              		.section	.text._ZN25TestCore_testInitialiseFFD0Ev,"axG",@progbits,_ZN25TestCore_testInitialiseFFD5
 2213              	.LHOTB85:
 2214              		.align 2
 2215              		.p2align 4,,15
 2216              		.weak	_ZN25TestCore_testInitialiseFFD0Ev
 2218              	_ZN25TestCore_testInitialiseFFD0Ev:
 2219              	.LFB1570:
 2220              		.cfi_startproc
 2221 0000 53       		pushq	%rbx
 2222              		.cfi_def_cfa_offset 16
 2223              		.cfi_offset 3, -16
 2224 0001 4889FB   		movq	%rdi, %rbx
 2225 0004 48C70700 		movq	$_ZTV25TestCore_testInitialiseFF+16, (%rdi)
 2225      000000
 2226 000b E8000000 		call	_ZN8UnitTest4TestD2Ev
 2226      00
 2227 0010 4889DF   		movq	%rbx, %rdi
 2228 0013 5B       		popq	%rbx
 2229              		.cfi_def_cfa_offset 8
 2230 0014 E9000000 		jmp	_ZdlPv
 2230      00
 2231              		.cfi_endproc
 2232              	.LFE1570:
 2234              		.section	.text.unlikely._ZN25TestCore_testInitialiseFFD0Ev,"axG",@progbits,_ZN25TestCore_testIniti
 2235              	.LCOLDE85:
 2236              		.section	.text._ZN25TestCore_testInitialiseFFD0Ev,"axG",@progbits,_ZN25TestCore_testInitialiseFFD5
 2237              	.LHOTE85:
 2238              		.section	.text.unlikely._ZN27TestCore_testInitialiseZeroD2Ev,"axG",@progbits,_ZN27TestCore_testIni
 2239              		.align 2
 2240              	.LCOLDB86:
 2241              		.section	.text._ZN27TestCore_testInitialiseZeroD2Ev,"axG",@progbits,_ZN27TestCore_testInitialiseZe
 2242              	.LHOTB86:
 2243              		.align 2
 2244              		.p2align 4,,15
 2245              		.weak	_ZN27TestCore_testInitialiseZeroD2Ev
 2247              	_ZN27TestCore_testInitialiseZeroD2Ev:
 2248              	.LFB1572:
 2249              		.cfi_startproc
 2250 0000 48C70700 		movq	$_ZTV27TestCore_testInitialiseZero+16, (%rdi)
 2250      000000
 2251 0007 E9000000 		jmp	_ZN8UnitTest4TestD2Ev
 2251      00
 2252              		.cfi_endproc
 2253              	.LFE1572:
 2255              		.section	.text.unlikely._ZN27TestCore_testInitialiseZeroD2Ev,"axG",@progbits,_ZN27TestCore_testIni
 2256              	.LCOLDE86:
 2257              		.section	.text._ZN27TestCore_testInitialiseZeroD2Ev,"axG",@progbits,_ZN27TestCore_testInitialiseZe
 2258              	.LHOTE86:
 2259              		.weak	_ZN27TestCore_testInitialiseZeroD1Ev
 2260              		.set	_ZN27TestCore_testInitialiseZeroD1Ev,_ZN27TestCore_testInitialiseZeroD2Ev
 2261              		.section	.text.unlikely._ZN27TestCore_testInitialiseZeroD0Ev,"axG",@progbits,_ZN27TestCore_testIni
 2262              		.align 2
 2263              	.LCOLDB87:
 2264              		.section	.text._ZN27TestCore_testInitialiseZeroD0Ev,"axG",@progbits,_ZN27TestCore_testInitialiseZe
 2265              	.LHOTB87:
 2266              		.align 2
 2267              		.p2align 4,,15
 2268              		.weak	_ZN27TestCore_testInitialiseZeroD0Ev
 2270              	_ZN27TestCore_testInitialiseZeroD0Ev:
 2271              	.LFB1574:
 2272              		.cfi_startproc
 2273 0000 53       		pushq	%rbx
 2274              		.cfi_def_cfa_offset 16
 2275              		.cfi_offset 3, -16
 2276 0001 4889FB   		movq	%rdi, %rbx
 2277 0004 48C70700 		movq	$_ZTV27TestCore_testInitialiseZero+16, (%rdi)
 2277      000000
 2278 000b E8000000 		call	_ZN8UnitTest4TestD2Ev
 2278      00
 2279 0010 4889DF   		movq	%rbx, %rdi
 2280 0013 5B       		popq	%rbx
 2281              		.cfi_def_cfa_offset 8
 2282 0014 E9000000 		jmp	_ZdlPv
 2282      00
 2283              		.cfi_endproc
 2284              	.LFE1574:
 2286              		.section	.text.unlikely._ZN27TestCore_testInitialiseZeroD0Ev,"axG",@progbits,_ZN27TestCore_testIni
 2287              	.LCOLDE87:
 2288              		.section	.text._ZN27TestCore_testInitialiseZeroD0Ev,"axG",@progbits,_ZN27TestCore_testInitialiseZe
 2289              	.LHOTE87:
 2290              		.section	.text.unlikely._ZN8UnitTest15MemoryOutStreamD1Ev,"axG",@progbits,_ZN8UnitTest15MemoryOutS
 2291              		.align 2
 2292              	.LCOLDB88:
 2293              		.section	.text._ZN8UnitTest15MemoryOutStreamD1Ev,"axG",@progbits,_ZN8UnitTest15MemoryOutStreamD1Ev
 2294              	.LHOTB88:
 2295              		.align 2
 2296              		.p2align 4,,15
 2297              		.weak	_ZN8UnitTest15MemoryOutStreamD1Ev
 2299              	_ZN8UnitTest15MemoryOutStreamD1Ev:
 2300              	.LFB1336:
 2301              		.cfi_startproc
 2302 0000 53       		pushq	%rbx
 2303              		.cfi_def_cfa_offset 16
 2304              		.cfi_offset 3, -16
 2305 0001 4889FB   		movq	%rdi, %rbx
 2306 0004 48C70700 		movq	$_ZTVN8UnitTest15MemoryOutStreamE+24, (%rdi)
 2306      000000
 2307 000b 48C78790 		movq	$_ZTVN8UnitTest15MemoryOutStreamE+64, 144(%rdi)
 2307      00000000 
 2307      000000
 2308 0016 488B7F70 		movq	112(%rdi), %rdi
 2309 001a 488D8380 		leaq	128(%rbx), %rax
 2309      000000
 2310 0021 4839C7   		cmpq	%rax, %rdi
 2311 0024 7405     		je	.L134
 2312 0026 E8000000 		call	_ZdlPv
 2312      00
 2313              	.L134:
 2314 002b 488B7B50 		movq	80(%rbx), %rdi
 2315 002f 488D4360 		leaq	96(%rbx), %rax
 2316 0033 48C70300 		movq	$_ZTCN8UnitTest15MemoryOutStreamE0_NSt7__cxx1119basic_ostringstreamIcSt11char_traitsIcESaIcEE
 2316      000000
 2317 003a 48C78390 		movq	$_ZTCN8UnitTest15MemoryOutStreamE0_NSt7__cxx1119basic_ostringstreamIcSt11char_traitsIcESaIcEE
 2317      00000000 
 2317      000000
 2318 0045 48C74308 		movq	$_ZTVNSt7__cxx1115basic_stringbufIcSt11char_traitsIcESaIcEEE+16, 8(%rbx)
 2318      00000000 
 2319 004d 4839C7   		cmpq	%rax, %rdi
 2320 0050 7405     		je	.L135
 2321 0052 E8000000 		call	_ZdlPv
 2321      00
 2322              	.L135:
 2323 0057 488D7B40 		leaq	64(%rbx), %rdi
 2324 005b 48C74308 		movq	$_ZTVSt15basic_streambufIcSt11char_traitsIcEE+16, 8(%rbx)
 2324      00000000 
 2325 0063 E8000000 		call	_ZNSt6localeD1Ev
 2325      00
 2326 0068 48C78390 		movq	$_ZTVSt9basic_iosIcSt11char_traitsIcEE+16, 144(%rbx)
 2326      00000000 
 2326      000000
 2327 0073 488DBB90 		leaq	144(%rbx), %rdi
 2327      000000
 2328 007a 5B       		popq	%rbx
 2329              		.cfi_def_cfa_offset 8
 2330 007b E9000000 		jmp	_ZNSt8ios_baseD2Ev
 2330      00
 2331              		.cfi_endproc
 2332              	.LFE1336:
 2334              		.section	.text.unlikely._ZN8UnitTest15MemoryOutStreamD1Ev,"axG",@progbits,_ZN8UnitTest15MemoryOutS
 2335              	.LCOLDE88:
 2336              		.section	.text._ZN8UnitTest15MemoryOutStreamD1Ev,"axG",@progbits,_ZN8UnitTest15MemoryOutStreamD1Ev
 2337              	.LHOTE88:
 2338              		.set	.LTHUNK0,_ZN8UnitTest15MemoryOutStreamD1Ev
 2339              		.section	.text.unlikely._ZTv0_n24_N8UnitTest15MemoryOutStreamD1Ev,"axG",@progbits,_ZN8UnitTest15Me
 2340              	.LCOLDB89:
 2341              		.section	.text._ZN8UnitTest15MemoryOutStreamD1Ev,"axG",@progbits,_ZN8UnitTest15MemoryOutStreamD1Ev
 2342              	.LHOTB89:
 2343              		.p2align 4,,15
 2344              		.weak	_ZTv0_n24_N8UnitTest15MemoryOutStreamD1Ev
 2346              	_ZTv0_n24_N8UnitTest15MemoryOutStreamD1Ev:
 2347              	.LFB1597:
 2348              		.cfi_startproc
 2349 0080 4C8B17   		movq	(%rdi), %r10
 2350 0083 49037AE8 		addq	-24(%r10), %rdi
 2351 0087 E974FFFF 		jmp	.LTHUNK0
 2351      FF
 2352              		.cfi_endproc
 2353              	.LFE1597:
 2355              		.section	.text.unlikely._ZTv0_n24_N8UnitTest15MemoryOutStreamD1Ev,"axG",@progbits,_ZN8UnitTest15Me
 2356              	.LCOLDE89:
 2357              		.section	.text._ZN8UnitTest15MemoryOutStreamD1Ev,"axG",@progbits,_ZN8UnitTest15MemoryOutStreamD1Ev
 2358              	.LHOTE89:
 2359              		.section	.text.unlikely._ZN8UnitTest15MemoryOutStreamD0Ev,"axG",@progbits,_ZN8UnitTest15MemoryOutS
 2360              		.align 2
 2361              	.LCOLDB90:
 2362              		.section	.text._ZN8UnitTest15MemoryOutStreamD0Ev,"axG",@progbits,_ZN8UnitTest15MemoryOutStreamD0Ev
 2363              	.LHOTB90:
 2364              		.align 2
 2365              		.p2align 4,,15
 2366              		.weak	_ZN8UnitTest15MemoryOutStreamD0Ev
 2368              	_ZN8UnitTest15MemoryOutStreamD0Ev:
 2369              	.LFB1337:
 2370              		.cfi_startproc
 2371 0000 53       		pushq	%rbx
 2372              		.cfi_def_cfa_offset 16
 2373              		.cfi_offset 3, -16
 2374 0001 4889FB   		movq	%rdi, %rbx
 2375 0004 48C70700 		movq	$_ZTVN8UnitTest15MemoryOutStreamE+24, (%rdi)
 2375      000000
 2376 000b 48C78790 		movq	$_ZTVN8UnitTest15MemoryOutStreamE+64, 144(%rdi)
 2376      00000000 
 2376      000000
 2377 0016 488B7F70 		movq	112(%rdi), %rdi
 2378 001a 488D8380 		leaq	128(%rbx), %rax
 2378      000000
 2379 0021 4839C7   		cmpq	%rax, %rdi
 2380 0024 7405     		je	.L139
 2381 0026 E8000000 		call	_ZdlPv
 2381      00
 2382              	.L139:
 2383 002b 488B7B50 		movq	80(%rbx), %rdi
 2384 002f 488D4360 		leaq	96(%rbx), %rax
 2385 0033 48C70300 		movq	$_ZTCN8UnitTest15MemoryOutStreamE0_NSt7__cxx1119basic_ostringstreamIcSt11char_traitsIcESaIcEE
 2385      000000
 2386 003a 48C78390 		movq	$_ZTCN8UnitTest15MemoryOutStreamE0_NSt7__cxx1119basic_ostringstreamIcSt11char_traitsIcESaIcEE
 2386      00000000 
 2386      000000
 2387 0045 48C74308 		movq	$_ZTVNSt7__cxx1115basic_stringbufIcSt11char_traitsIcESaIcEEE+16, 8(%rbx)
 2387      00000000 
 2388 004d 4839C7   		cmpq	%rax, %rdi
 2389 0050 7405     		je	.L140
 2390 0052 E8000000 		call	_ZdlPv
 2390      00
 2391              	.L140:
 2392 0057 488D7B40 		leaq	64(%rbx), %rdi
 2393 005b 48C74308 		movq	$_ZTVSt15basic_streambufIcSt11char_traitsIcEE+16, 8(%rbx)
 2393      00000000 
 2394 0063 E8000000 		call	_ZNSt6localeD1Ev
 2394      00
 2395 0068 488DBB90 		leaq	144(%rbx), %rdi
 2395      000000
 2396 006f 48C78390 		movq	$_ZTVSt9basic_iosIcSt11char_traitsIcEE+16, 144(%rbx)
 2396      00000000 
 2396      000000
 2397 007a E8000000 		call	_ZNSt8ios_baseD2Ev
 2397      00
 2398 007f 4889DF   		movq	%rbx, %rdi
 2399 0082 5B       		popq	%rbx
 2400              		.cfi_def_cfa_offset 8
 2401 0083 E9000000 		jmp	_ZdlPv
 2401      00
 2402              		.cfi_endproc
 2403              	.LFE1337:
 2405              		.section	.text.unlikely._ZN8UnitTest15MemoryOutStreamD0Ev,"axG",@progbits,_ZN8UnitTest15MemoryOutS
 2406              	.LCOLDE90:
 2407              		.section	.text._ZN8UnitTest15MemoryOutStreamD0Ev,"axG",@progbits,_ZN8UnitTest15MemoryOutStreamD0Ev
 2408              	.LHOTE90:
 2409              		.set	.LTHUNK1,_ZN8UnitTest15MemoryOutStreamD0Ev
 2410              		.section	.text.unlikely._ZTv0_n24_N8UnitTest15MemoryOutStreamD0Ev,"axG",@progbits,_ZN8UnitTest15Me
 2411              	.LCOLDB91:
 2412              		.section	.text._ZN8UnitTest15MemoryOutStreamD0Ev,"axG",@progbits,_ZN8UnitTest15MemoryOutStreamD0Ev
 2413              	.LHOTB91:
 2414 0088 0F1F8400 		.p2align 4,,15
 2414      00000000 
 2415              		.weak	_ZTv0_n24_N8UnitTest15MemoryOutStreamD0Ev
 2417              	_ZTv0_n24_N8UnitTest15MemoryOutStreamD0Ev:
 2418              	.LFB1598:
 2419              		.cfi_startproc
 2420 0090 4C8B17   		movq	(%rdi), %r10
 2421 0093 49037AE8 		addq	-24(%r10), %rdi
 2422 0097 E964FFFF 		jmp	.LTHUNK1
 2422      FF
 2423              		.cfi_endproc
 2424              	.LFE1598:
 2426              		.section	.text.unlikely._ZTv0_n24_N8UnitTest15MemoryOutStreamD0Ev,"axG",@progbits,_ZN8UnitTest15Me
 2427              	.LCOLDE91:
 2428              		.section	.text._ZN8UnitTest15MemoryOutStreamD0Ev,"axG",@progbits,_ZN8UnitTest15MemoryOutStreamD0Ev
 2429              	.LHOTE91:
 2430              		.section	.text.unlikely._ZNSt7__cxx1115basic_stringbufIcSt11char_traitsIcESaIcEED2Ev,"axG",@progbi
 2431              		.align 2
 2432              	.LCOLDB92:
 2433              		.section	.text._ZNSt7__cxx1115basic_stringbufIcSt11char_traitsIcESaIcEED2Ev,"axG",@progbits,_ZNSt7
 2434              	.LHOTB92:
 2435              		.align 2
 2436              		.p2align 4,,15
 2437              		.weak	_ZNSt7__cxx1115basic_stringbufIcSt11char_traitsIcESaIcEED2Ev
 2439              	_ZNSt7__cxx1115basic_stringbufIcSt11char_traitsIcESaIcEED2Ev:
 2440              	.LFB1315:
 2441              		.cfi_startproc
 2442 0000 53       		pushq	%rbx
 2443              		.cfi_def_cfa_offset 16
 2444              		.cfi_offset 3, -16
 2445 0001 4889FB   		movq	%rdi, %rbx
 2446 0004 48C70700 		movq	$_ZTVNSt7__cxx1115basic_stringbufIcSt11char_traitsIcESaIcEEE+16, (%rdi)
 2446      000000
 2447 000b 488B7F48 		movq	72(%rdi), %rdi
 2448 000f 488D4358 		leaq	88(%rbx), %rax
 2449 0013 4839C7   		cmpq	%rax, %rdi
 2450 0016 7405     		je	.L143
 2451 0018 E8000000 		call	_ZdlPv
 2451      00
 2452              	.L143:
 2453 001d 48C70300 		movq	$_ZTVSt15basic_streambufIcSt11char_traitsIcEE+16, (%rbx)
 2453      000000
 2454 0024 488D7B38 		leaq	56(%rbx), %rdi
 2455 0028 5B       		popq	%rbx
 2456              		.cfi_def_cfa_offset 8
 2457 0029 E9000000 		jmp	_ZNSt6localeD1Ev
 2457      00
 2458              		.cfi_endproc
 2459              	.LFE1315:
 2461              		.section	.text.unlikely._ZNSt7__cxx1115basic_stringbufIcSt11char_traitsIcESaIcEED2Ev,"axG",@progbi
 2462              	.LCOLDE92:
 2463              		.section	.text._ZNSt7__cxx1115basic_stringbufIcSt11char_traitsIcESaIcEED2Ev,"axG",@progbits,_ZNSt7
 2464              	.LHOTE92:
 2465              		.weak	_ZNSt7__cxx1115basic_stringbufIcSt11char_traitsIcESaIcEED1Ev
 2466              		.set	_ZNSt7__cxx1115basic_stringbufIcSt11char_traitsIcESaIcEED1Ev,_ZNSt7__cxx1115basic_stringbufIc
 2467              		.section	.rodata.str1.1,"aMS",@progbits,1
 2468              	.LC93:
 2469 0000 45787065 		.string	"Expected [ "
 2469      63746564 
 2469      205B2000 
 2470              	.LC94:
 2471 000c 2000     		.string	" "
 2472              	.LC95:
 2473 000e 5D206275 		.string	"] but was [ "
 2473      74207761 
 2473      73205B20 
 2473      00
 2474              	.LC96:
 2475 001b 5D00     		.string	"]"
 2476              		.section	.text.unlikely,"ax",@progbits
 2477              	.LCOLDB97:
 2478              		.text
 2479              	.LHOTB97:
 2480              		.p2align 4,,15
 2482              	_ZN8UnitTest15CheckArrayEqualIA8_hPhEEvRNS_11TestResultsERKT_RKT0_iRKNS_11TestDetailsE.constprop.14
 2483              	.LFB1592:
 2484              		.cfi_startproc
 2485              		.cfi_personality 0x3,__gxx_personality_v0
 2486              		.cfi_lsda 0x3,.LLSDA1592
 2487 0000 4156     		pushq	%r14
 2488              		.cfi_def_cfa_offset 16
 2489              		.cfi_offset 14, -16
 2490 0002 4155     		pushq	%r13
 2491              		.cfi_def_cfa_offset 24
 2492              		.cfi_offset 13, -24
 2493 0004 4989CD   		movq	%rcx, %r13
 2494 0007 4154     		pushq	%r12
 2495              		.cfi_def_cfa_offset 32
 2496              		.cfi_offset 12, -32
 2497 0009 55       		pushq	%rbp
 2498              		.cfi_def_cfa_offset 40
 2499              		.cfi_offset 6, -40
 2500 000a 4889D5   		movq	%rdx, %rbp
 2501 000d 53       		pushq	%rbx
 2502              		.cfi_def_cfa_offset 48
 2503              		.cfi_offset 3, -48
 2504 000e 4989FC   		movq	%rdi, %r12
 2505 0011 4889F3   		movq	%rsi, %rbx
 2506 0014 4881ECB0 		subq	$432, %rsp
 2506      010000
 2507              		.cfi_def_cfa_offset 480
 2508 001b 64488B04 		movq	%fs:40, %rax
 2508      25280000 
 2508      00
 2509 0024 48898424 		movq	%rax, 424(%rsp)
 2509      A8010000 
 2510 002c 31C0     		xorl	%eax, %eax
 2511 002e 488B02   		movq	(%rdx), %rax
 2512 0031 0FB65601 		movzbl	1(%rsi), %edx
 2513 0035 0FB64802 		movzbl	2(%rax), %ecx
 2514 0039 384E02   		cmpb	%cl, 2(%rsi)
 2515 003c 0F94C1   		sete	%cl
 2516 003f 385001   		cmpb	%dl, 1(%rax)
 2517 0042 0F94C2   		sete	%dl
 2518 0045 21CA     		andl	%ecx, %edx
 2519 0047 0FB64803 		movzbl	3(%rax), %ecx
 2520 004b 384E03   		cmpb	%cl, 3(%rsi)
 2521 004e 0F94C1   		sete	%cl
 2522 0051 21CA     		andl	%ecx, %edx
 2523 0053 0FB64804 		movzbl	4(%rax), %ecx
 2524 0057 384E04   		cmpb	%cl, 4(%rsi)
 2525 005a 0F94C1   		sete	%cl
 2526 005d 21CA     		andl	%ecx, %edx
 2527 005f 0FB64805 		movzbl	5(%rax), %ecx
 2528 0063 384E05   		cmpb	%cl, 5(%rsi)
 2529 0066 0F94C1   		sete	%cl
 2530 0069 21CA     		andl	%ecx, %edx
 2531 006b 0FB64806 		movzbl	6(%rax), %ecx
 2532 006f 384E06   		cmpb	%cl, 6(%rsi)
 2533 0072 0F94C1   		sete	%cl
 2534 0075 21CA     		andl	%ecx, %edx
 2535 0077 0FB60E   		movzbl	(%rsi), %ecx
 2536 007a 3808     		cmpb	%cl, (%rax)
 2537 007c 0FB64007 		movzbl	7(%rax), %eax
 2538 0080 0F94C1   		sete	%cl
 2539 0083 21CA     		andl	%ecx, %edx
 2540 0085 384607   		cmpb	%al, 7(%rsi)
 2541 0088 752E     		jne	.L161
 2542 008a 84D2     		testb	%dl, %dl
 2543 008c 742A     		je	.L161
 2544              	.L145:
 2545 008e 488B8424 		movq	424(%rsp), %rax
 2545      A8010000 
 2546 0096 64483304 		xorq	%fs:40, %rax
 2546      25280000 
 2546      00
 2547 009f 0F851503 		jne	.L172
 2547      0000
 2548 00a5 4881C4B0 		addq	$432, %rsp
 2548      010000
 2549              		.cfi_remember_state
 2550              		.cfi_def_cfa_offset 48
 2551 00ac 5B       		popq	%rbx
 2552              		.cfi_def_cfa_offset 40
 2553 00ad 5D       		popq	%rbp
 2554              		.cfi_def_cfa_offset 32
 2555 00ae 415C     		popq	%r12
 2556              		.cfi_def_cfa_offset 24
 2557 00b0 415D     		popq	%r13
 2558              		.cfi_def_cfa_offset 16
 2559 00b2 415E     		popq	%r14
 2560              		.cfi_def_cfa_offset 8
 2561 00b4 C3       		ret
 2562              		.p2align 4,,10
 2563 00b5 0F1F00   		.p2align 3
 2564              	.L161:
 2565              		.cfi_restore_state
 2566 00b8 4C8DB424 		leaq	160(%rsp), %r14
 2566      A0000000 
 2567 00c0 4C89F7   		movq	%r14, %rdi
 2568 00c3 E8000000 		call	_ZNSt8ios_baseC2Ev
 2568      00
 2569 00c8 31F6     		xorl	%esi, %esi
 2570 00ca 4C89F7   		movq	%r14, %rdi
 2571 00cd 48C78424 		movq	$0, 376(%rsp)
 2571      78010000 
 2571      00000000 
 2572 00d9 C6842480 		movb	$0, 384(%rsp)
 2572      01000000 
 2573 00e1 C6842481 		movb	$0, 385(%rsp)
 2573      01000000 
 2574 00e9 48C78424 		movq	$0, 392(%rsp)
 2574      88010000 
 2574      00000000 
 2575 00f5 48C78424 		movq	$0, 400(%rsp)
 2575      90010000 
 2575      00000000 
 2576 0101 48C78424 		movq	$0, 408(%rsp)
 2576      98010000 
 2576      00000000 
 2577 010d 48C78424 		movq	$0, 416(%rsp)
 2577      A0010000 
 2577      00000000 
 2578 0119 48C74424 		movq	$_ZTCN8UnitTest15MemoryOutStreamE0_So+24, 16(%rsp)
 2578      10000000 
 2578      00
 2579 0122 48C78424 		movq	$_ZTCN8UnitTest15MemoryOutStreamE0_So+64, 160(%rsp)
 2579      A0000000 
 2579      00000000 
 2580              	.LEHB0:
 2581 012e E8000000 		call	_ZNSt9basic_iosIcSt11char_traitsIcEE4initEPSt15basic_streambufIcS1_E
 2581      00
 2582              	.LEHE0:
 2583 0133 488D7C24 		leaq	80(%rsp), %rdi
 2583      50
 2584 0138 48C74424 		movq	$_ZTCN8UnitTest15MemoryOutStreamE0_NSt7__cxx1119basic_ostringstreamIcSt11char_traitsIcESaIcEE
 2584      10000000 
 2584      00
 2585 0141 48C78424 		movq	$_ZTCN8UnitTest15MemoryOutStreamE0_NSt7__cxx1119basic_ostringstreamIcSt11char_traitsIcESaIcEE
 2585      A0000000 
 2585      00000000 
 2586 014d 48C74424 		movq	$_ZTVSt15basic_streambufIcSt11char_traitsIcEE+16, 24(%rsp)
 2586      18000000 
 2586      00
 2587 0156 48C74424 		movq	$0, 32(%rsp)
 2587      20000000 
 2587      00
 2588 015f 48C74424 		movq	$0, 40(%rsp)
 2588      28000000 
 2588      00
 2589 0168 48C74424 		movq	$0, 48(%rsp)
 2589      30000000 
 2589      00
 2590 0171 48C74424 		movq	$0, 56(%rsp)
 2590      38000000 
 2590      00
 2591 017a 48C74424 		movq	$0, 64(%rsp)
 2591      40000000 
 2591      00
 2592 0183 48C74424 		movq	$0, 72(%rsp)
 2592      48000000 
 2592      00
 2593 018c E8000000 		call	_ZNSt6localeC1Ev
 2593      00
 2594 0191 488D4424 		leaq	112(%rsp), %rax
 2594      70
 2595 0196 48C74424 		movq	$0, 104(%rsp)
 2595      68000000 
 2595      00
 2596 019f C6442470 		movb	$0, 112(%rsp)
 2596      00
 2597 01a4 488D7C24 		leaq	16(%rsp), %rdi
 2597      10
 2598 01a9 488D7424 		leaq	24(%rsp), %rsi
 2598      18
 2599 01ae 48C74424 		movq	$_ZTVNSt7__cxx1115basic_stringbufIcSt11char_traitsIcESaIcEEE+16, 24(%rsp)
 2599      18000000 
 2599      00
 2600 01b7 48894424 		movq	%rax, 96(%rsp)
 2600      60
 2601 01bc 488B4424 		movq	16(%rsp), %rax
 2601      10
 2602 01c1 C7442458 		movl	$16, 88(%rsp)
 2602      10000000 
 2603 01c9 480378E8 		addq	-24(%rax), %rdi
 2604              	.LEHB1:
 2605 01cd E8000000 		call	_ZNSt9basic_iosIcSt11char_traitsIcEE4initEPSt15basic_streambufIcS1_E
 2605      00
 2606              	.LEHE1:
 2607 01d2 488D8424 		leaq	144(%rsp), %rax
 2607      90000000 
 2608 01da 488D7C24 		leaq	16(%rsp), %rdi
 2608      10
 2609 01df BA0B0000 		movl	$11, %edx
 2609      00
 2610 01e4 BE000000 		movl	$.LC93, %esi
 2610      00
 2611 01e9 48C74424 		movq	$_ZTVN8UnitTest15MemoryOutStreamE+24, 16(%rsp)
 2611      10000000 
 2611      00
 2612 01f2 48C78424 		movq	$_ZTVN8UnitTest15MemoryOutStreamE+64, 160(%rsp)
 2612      A0000000 
 2612      00000000 
 2613 01fe 48898424 		movq	%rax, 128(%rsp)
 2613      80000000 
 2614 0206 48C78424 		movq	$0, 136(%rsp)
 2614      88000000 
 2614      00000000 
 2615 0212 C6842490 		movb	$0, 144(%rsp)
 2615      00000000 
 2616              	.LEHB2:
 2617 021a E8000000 		call	_ZSt16__ostream_insertIcSt11char_traitsIcEERSt13basic_ostreamIT_T0_ES6_PKS3_l
 2617      00
 2618 021f 4C8D7308 		leaq	8(%rbx), %r14
 2619              		.p2align 4,,10
 2620 0223 0F1F4400 		.p2align 3
 2620      00
 2621              	.L152:
 2622 0228 0FB603   		movzbl	(%rbx), %eax
 2623 022b 488D7424 		leaq	14(%rsp), %rsi
 2623      0E
 2624 0230 488D7C24 		leaq	16(%rsp), %rdi
 2624      10
 2625 0235 BA010000 		movl	$1, %edx
 2625      00
 2626 023a 8844240E 		movb	%al, 14(%rsp)
 2627 023e E8000000 		call	_ZSt16__ostream_insertIcSt11char_traitsIcEERSt13basic_ostreamIT_T0_ES6_PKS3_l
 2627      00
 2628 0243 BA010000 		movl	$1, %edx
 2628      00
 2629 0248 BE000000 		movl	$.LC94, %esi
 2629      00
 2630 024d 4889C7   		movq	%rax, %rdi
 2631 0250 E8000000 		call	_ZSt16__ostream_insertIcSt11char_traitsIcEERSt13basic_ostreamIT_T0_ES6_PKS3_l
 2631      00
 2632 0255 4883C301 		addq	$1, %rbx
 2633 0259 4939DE   		cmpq	%rbx, %r14
 2634 025c 75CA     		jne	.L152
 2635 025e 488D7C24 		leaq	16(%rsp), %rdi
 2635      10
 2636 0263 BA0C0000 		movl	$12, %edx
 2636      00
 2637 0268 BE000000 		movl	$.LC95, %esi
 2637      00
 2638 026d E8000000 		call	_ZSt16__ostream_insertIcSt11char_traitsIcEERSt13basic_ostreamIT_T0_ES6_PKS3_l
 2638      00
 2639 0272 31DB     		xorl	%ebx, %ebx
 2640              		.p2align 4,,10
 2641 0274 0F1F4000 		.p2align 3
 2642              	.L153:
 2643 0278 488B4500 		movq	0(%rbp), %rax
 2644 027c 488D7424 		leaq	15(%rsp), %rsi
 2644      0F
 2645 0281 488D7C24 		leaq	16(%rsp), %rdi
 2645      10
 2646 0286 BA010000 		movl	$1, %edx
 2646      00
 2647 028b 0FB60418 		movzbl	(%rax,%rbx), %eax
 2648 028f 8844240F 		movb	%al, 15(%rsp)
 2649 0293 E8000000 		call	_ZSt16__ostream_insertIcSt11char_traitsIcEERSt13basic_ostreamIT_T0_ES6_PKS3_l
 2649      00
 2650 0298 BA010000 		movl	$1, %edx
 2650      00
 2651 029d BE000000 		movl	$.LC94, %esi
 2651      00
 2652 02a2 4889C7   		movq	%rax, %rdi
 2653 02a5 E8000000 		call	_ZSt16__ostream_insertIcSt11char_traitsIcEERSt13basic_ostreamIT_T0_ES6_PKS3_l
 2653      00
 2654 02aa 4883C301 		addq	$1, %rbx
 2655 02ae 4883FB08 		cmpq	$8, %rbx
 2656 02b2 75C4     		jne	.L153
 2657 02b4 488D7C24 		leaq	16(%rsp), %rdi
 2657      10
 2658 02b9 BA010000 		movl	$1, %edx
 2658      00
 2659 02be BE000000 		movl	$.LC96, %esi
 2659      00
 2660 02c3 E8000000 		call	_ZSt16__ostream_insertIcSt11char_traitsIcEERSt13basic_ostreamIT_T0_ES6_PKS3_l
 2660      00
 2661 02c8 488D7C24 		leaq	16(%rsp), %rdi
 2661      10
 2662 02cd E8000000 		call	_ZNK8UnitTest15MemoryOutStream7GetTextEv
 2662      00
 2663 02d2 4889C2   		movq	%rax, %rdx
 2664 02d5 4C89EE   		movq	%r13, %rsi
 2665 02d8 4C89E7   		movq	%r12, %rdi
 2666 02db E8000000 		call	_ZN8UnitTest11TestResults13OnTestFailureERKNS_11TestDetailsEPKc
 2666      00
 2667              	.LEHE2:
 2668 02e0 488BBC24 		movq	128(%rsp), %rdi
 2668      80000000 
 2669 02e8 488D8424 		leaq	144(%rsp), %rax
 2669      90000000 
 2670 02f0 48C74424 		movq	$_ZTVN8UnitTest15MemoryOutStreamE+24, 16(%rsp)
 2670      10000000 
 2670      00
 2671 02f9 48C78424 		movq	$_ZTVN8UnitTest15MemoryOutStreamE+64, 160(%rsp)
 2671      A0000000 
 2671      00000000 
 2672 0305 4839C7   		cmpq	%rax, %rdi
 2673 0308 7405     		je	.L154
 2674 030a E8000000 		call	_ZdlPv
 2674      00
 2675              	.L154:
 2676 030f 488B7C24 		movq	96(%rsp), %rdi
 2676      60
 2677 0314 488D4424 		leaq	112(%rsp), %rax
 2677      70
 2678 0319 48C74424 		movq	$_ZTCN8UnitTest15MemoryOutStreamE0_NSt7__cxx1119basic_ostringstreamIcSt11char_traitsIcESaIcEE
 2678      10000000 
 2678      00
 2679 0322 48C78424 		movq	$_ZTCN8UnitTest15MemoryOutStreamE0_NSt7__cxx1119basic_ostringstreamIcSt11char_traitsIcESaIcEE
 2679      A0000000 
 2679      00000000 
 2680 032e 48C74424 		movq	$_ZTVNSt7__cxx1115basic_stringbufIcSt11char_traitsIcESaIcEEE+16, 24(%rsp)
 2680      18000000 
 2680      00
 2681 0337 4839C7   		cmpq	%rax, %rdi
 2682 033a 7405     		je	.L155
 2683 033c E8000000 		call	_ZdlPv
 2683      00
 2684              	.L155:
 2685 0341 488D7C24 		leaq	80(%rsp), %rdi
 2685      50
 2686 0346 48C74424 		movq	$_ZTVSt15basic_streambufIcSt11char_traitsIcEE+16, 24(%rsp)
 2686      18000000 
 2686      00
 2687 034f E8000000 		call	_ZNSt6localeD1Ev
 2687      00
 2688 0354 488DBC24 		leaq	160(%rsp), %rdi
 2688      A0000000 
 2689 035c 48C78424 		movq	$_ZTVSt9basic_iosIcSt11char_traitsIcEE+16, 160(%rsp)
 2689      A0000000 
 2689      00000000 
 2690              	.LEHB3:
 2691 0368 E8000000 		call	_ZNSt8ios_baseD2Ev
 2691      00
 2692              	.LEHE3:
 2693 036d E91CFDFF 		jmp	.L145
 2693      FF
 2694              	.L159:
 2695 0372 4889C3   		movq	%rax, %rbx
 2696              	.L150:
 2697 0375 488DBC24 		leaq	160(%rsp), %rdi
 2697      A0000000 
 2698 037d 48C78424 		movq	$_ZTVSt9basic_iosIcSt11char_traitsIcEE+16, 160(%rsp)
 2698      A0000000 
 2698      00000000 
 2699 0389 E8000000 		call	_ZNSt8ios_baseD2Ev
 2699      00
 2700 038e 4889DF   		movq	%rbx, %rdi
 2701              	.LEHB4:
 2702 0391 E8000000 		call	_Unwind_Resume
 2702      00
 2703              	.LEHE4:
 2704              	.L160:
 2705 0396 488D7C24 		leaq	24(%rsp), %rdi
 2705      18
 2706 039b 4889C3   		movq	%rax, %rbx
 2707 039e E8000000 		call	_ZNSt7__cxx1115basic_stringbufIcSt11char_traitsIcESaIcEED1Ev
 2707      00
 2708 03a3 EBD0     		jmp	.L150
 2709              	.L158:
 2710 03a5 488D7C24 		leaq	16(%rsp), %rdi
 2710      10
 2711 03aa 4889C3   		movq	%rax, %rbx
 2712 03ad E8000000 		call	_ZN8UnitTest15MemoryOutStreamD1Ev
 2712      00
 2713 03b2 4889DF   		movq	%rbx, %rdi
 2714              	.LEHB5:
 2715 03b5 E8000000 		call	_Unwind_Resume
 2715      00
 2716              	.LEHE5:
 2717              	.L172:
 2718 03ba E8000000 		call	__stack_chk_fail
 2718      00
 2719              		.cfi_endproc
 2720              	.LFE1592:
 2721              		.globl	__gxx_personality_v0
 2722              		.section	.gcc_except_table,"a",@progbits
 2723              	.LLSDA1592:
 2724 0000 FF       		.byte	0xff
 2725 0001 FF       		.byte	0xff
 2726 0002 01       		.byte	0x1
 2727 0003 22       		.uleb128 .LLSDACSE1592-.LLSDACSB1592
 2728              	.LLSDACSB1592:
 2729 0004 AE02     		.uleb128 .LEHB0-.LFB1592
 2730 0006 05       		.uleb128 .LEHE0-.LEHB0
 2731 0007 F206     		.uleb128 .L159-.LFB1592
 2732 0009 00       		.uleb128 0
 2733 000a CD03     		.uleb128 .LEHB1-.LFB1592
 2734 000c 05       		.uleb128 .LEHE1-.LEHB1
 2735 000d 9607     		.uleb128 .L160-.LFB1592
 2736 000f 00       		.uleb128 0
 2737 0010 9A04     		.uleb128 .LEHB2-.LFB1592
 2738 0012 C601     		.uleb128 .LEHE2-.LEHB2
 2739 0014 A507     		.uleb128 .L158-.LFB1592
 2740 0016 00       		.uleb128 0
 2741 0017 E806     		.uleb128 .LEHB3-.LFB1592
 2742 0019 05       		.uleb128 .LEHE3-.LEHB3
 2743 001a 00       		.uleb128 0
 2744 001b 00       		.uleb128 0
 2745 001c 9107     		.uleb128 .LEHB4-.LFB1592
 2746 001e 05       		.uleb128 .LEHE4-.LEHB4
 2747 001f 00       		.uleb128 0
 2748 0020 00       		.uleb128 0
 2749 0021 B507     		.uleb128 .LEHB5-.LFB1592
 2750 0023 05       		.uleb128 .LEHE5-.LEHB5
 2751 0024 00       		.uleb128 0
 2752 0025 00       		.uleb128 0
 2753              	.LLSDACSE1592:
 2754              		.text
 2756              		.section	.text.unlikely
 2757              	.LCOLDE97:
 2758              		.text
 2759              	.LHOTE97:
 2760              		.section	.text.unlikely
 2761              	.LCOLDB98:
 2762              		.text
 2763              	.LHOTB98:
 2764 03bf 90       		.p2align 4,,15
 2766              	_ZN8UnitTest15CheckArrayEqualIA16_hPhEEvRNS_11TestResultsERKT_RKT0_iRKNS_11TestDetailsE.constprop.1
 2767              	.LFB1593:
 2768              		.cfi_startproc
 2769              		.cfi_personality 0x3,__gxx_personality_v0
 2770              		.cfi_lsda 0x3,.LLSDA1593
 2771 03c0 4156     		pushq	%r14
 2772              		.cfi_def_cfa_offset 16
 2773              		.cfi_offset 14, -16
 2774 03c2 4155     		pushq	%r13
 2775              		.cfi_def_cfa_offset 24
 2776              		.cfi_offset 13, -24
 2777 03c4 4989CD   		movq	%rcx, %r13
 2778 03c7 4154     		pushq	%r12
 2779              		.cfi_def_cfa_offset 32
 2780              		.cfi_offset 12, -32
 2781 03c9 55       		pushq	%rbp
 2782              		.cfi_def_cfa_offset 40
 2783              		.cfi_offset 6, -40
 2784 03ca 4889D5   		movq	%rdx, %rbp
 2785 03cd 53       		pushq	%rbx
 2786              		.cfi_def_cfa_offset 48
 2787              		.cfi_offset 3, -48
 2788 03ce 4989FC   		movq	%rdi, %r12
 2789 03d1 4889F3   		movq	%rsi, %rbx
 2790 03d4 4881ECB0 		subq	$432, %rsp
 2790      010000
 2791              		.cfi_def_cfa_offset 480
 2792 03db 488B0A   		movq	(%rdx), %rcx
 2793 03de 64488B04 		movq	%fs:40, %rax
 2793      25280000 
 2793      00
 2794 03e7 48898424 		movq	%rax, 424(%rsp)
 2794      A8010000 
 2795 03ef 31C0     		xorl	%eax, %eax
 2796 03f1 0FB64102 		movzbl	2(%rcx), %eax
 2797 03f5 384602   		cmpb	%al, 2(%rsi)
 2798 03f8 0FB64601 		movzbl	1(%rsi), %eax
 2799 03fc 0F94C2   		sete	%dl
 2800 03ff 384101   		cmpb	%al, 1(%rcx)
 2801 0402 0F94C0   		sete	%al
 2802 0405 21D0     		andl	%edx, %eax
 2803 0407 0FB65103 		movzbl	3(%rcx), %edx
 2804 040b 385603   		cmpb	%dl, 3(%rsi)
 2805 040e 0F94C2   		sete	%dl
 2806 0411 21D0     		andl	%edx, %eax
 2807 0413 0FB65104 		movzbl	4(%rcx), %edx
 2808 0417 385604   		cmpb	%dl, 4(%rsi)
 2809 041a 0F94C2   		sete	%dl
 2810 041d 21D0     		andl	%edx, %eax
 2811 041f 0FB65105 		movzbl	5(%rcx), %edx
 2812 0423 385605   		cmpb	%dl, 5(%rsi)
 2813 0426 0F94C2   		sete	%dl
 2814 0429 21D0     		andl	%edx, %eax
 2815 042b 0FB65106 		movzbl	6(%rcx), %edx
 2816 042f 385606   		cmpb	%dl, 6(%rsi)
 2817 0432 0F94C2   		sete	%dl
 2818 0435 21D0     		andl	%edx, %eax
 2819 0437 0FB616   		movzbl	(%rsi), %edx
 2820 043a 3811     		cmpb	%dl, (%rcx)
 2821 043c 0F94C2   		sete	%dl
 2822 043f 21D0     		andl	%edx, %eax
 2823 0441 0FB65107 		movzbl	7(%rcx), %edx
 2824 0445 385607   		cmpb	%dl, 7(%rsi)
 2825 0448 0F94C2   		sete	%dl
 2826 044b 21D0     		andl	%edx, %eax
 2827 044d 0FB65108 		movzbl	8(%rcx), %edx
 2828 0451 385608   		cmpb	%dl, 8(%rsi)
 2829 0454 0F94C2   		sete	%dl
 2830 0457 21D0     		andl	%edx, %eax
 2831 0459 0FB65109 		movzbl	9(%rcx), %edx
 2832 045d 385609   		cmpb	%dl, 9(%rsi)
 2833 0460 0F94C2   		sete	%dl
 2834 0463 21D0     		andl	%edx, %eax
 2835 0465 0FB6510A 		movzbl	10(%rcx), %edx
 2836 0469 38560A   		cmpb	%dl, 10(%rsi)
 2837 046c 0F94C2   		sete	%dl
 2838 046f 21D0     		andl	%edx, %eax
 2839 0471 0FB6510B 		movzbl	11(%rcx), %edx
 2840 0475 38560B   		cmpb	%dl, 11(%rsi)
 2841 0478 0F94C2   		sete	%dl
 2842 047b 21D0     		andl	%edx, %eax
 2843 047d 0FB6510C 		movzbl	12(%rcx), %edx
 2844 0481 38560C   		cmpb	%dl, 12(%rsi)
 2845 0484 0F94C2   		sete	%dl
 2846 0487 21D0     		andl	%edx, %eax
 2847 0489 0FB6510D 		movzbl	13(%rcx), %edx
 2848 048d 38560D   		cmpb	%dl, 13(%rsi)
 2849 0490 0F94C2   		sete	%dl
 2850 0493 21D0     		andl	%edx, %eax
 2851 0495 0FB6510E 		movzbl	14(%rcx), %edx
 2852 0499 0FB6490F 		movzbl	15(%rcx), %ecx
 2853 049d 38560E   		cmpb	%dl, 14(%rsi)
 2854 04a0 0F94C2   		sete	%dl
 2855 04a3 21D0     		andl	%edx, %eax
 2856 04a5 384E0F   		cmpb	%cl, 15(%rsi)
 2857 04a8 752E     		jne	.L189
 2858 04aa 84C0     		testb	%al, %al
 2859 04ac 742A     		je	.L189
 2860              	.L173:
 2861 04ae 488B8424 		movq	424(%rsp), %rax
 2861      A8010000 
 2862 04b6 64483304 		xorq	%fs:40, %rax
 2862      25280000 
 2862      00
 2863 04bf 0F851503 		jne	.L200
 2863      0000
 2864 04c5 4881C4B0 		addq	$432, %rsp
 2864      010000
 2865              		.cfi_remember_state
 2866              		.cfi_def_cfa_offset 48
 2867 04cc 5B       		popq	%rbx
 2868              		.cfi_def_cfa_offset 40
 2869 04cd 5D       		popq	%rbp
 2870              		.cfi_def_cfa_offset 32
 2871 04ce 415C     		popq	%r12
 2872              		.cfi_def_cfa_offset 24
 2873 04d0 415D     		popq	%r13
 2874              		.cfi_def_cfa_offset 16
 2875 04d2 415E     		popq	%r14
 2876              		.cfi_def_cfa_offset 8
 2877 04d4 C3       		ret
 2878              		.p2align 4,,10
 2879 04d5 0F1F00   		.p2align 3
 2880              	.L189:
 2881              		.cfi_restore_state
 2882 04d8 4C8DB424 		leaq	160(%rsp), %r14
 2882      A0000000 
 2883 04e0 4C89F7   		movq	%r14, %rdi
 2884 04e3 E8000000 		call	_ZNSt8ios_baseC2Ev
 2884      00
 2885 04e8 31F6     		xorl	%esi, %esi
 2886 04ea 4C89F7   		movq	%r14, %rdi
 2887 04ed 48C78424 		movq	$0, 376(%rsp)
 2887      78010000 
 2887      00000000 
 2888 04f9 C6842480 		movb	$0, 384(%rsp)
 2888      01000000 
 2889 0501 C6842481 		movb	$0, 385(%rsp)
 2889      01000000 
 2890 0509 48C78424 		movq	$0, 392(%rsp)
 2890      88010000 
 2890      00000000 
 2891 0515 48C78424 		movq	$0, 400(%rsp)
 2891      90010000 
 2891      00000000 
 2892 0521 48C78424 		movq	$0, 408(%rsp)
 2892      98010000 
 2892      00000000 
 2893 052d 48C78424 		movq	$0, 416(%rsp)
 2893      A0010000 
 2893      00000000 
 2894 0539 48C74424 		movq	$_ZTCN8UnitTest15MemoryOutStreamE0_So+24, 16(%rsp)
 2894      10000000 
 2894      00
 2895 0542 48C78424 		movq	$_ZTCN8UnitTest15MemoryOutStreamE0_So+64, 160(%rsp)
 2895      A0000000 
 2895      00000000 
 2896              	.LEHB6:
 2897 054e E8000000 		call	_ZNSt9basic_iosIcSt11char_traitsIcEE4initEPSt15basic_streambufIcS1_E
 2897      00
 2898              	.LEHE6:
 2899 0553 488D7C24 		leaq	80(%rsp), %rdi
 2899      50
 2900 0558 48C74424 		movq	$_ZTCN8UnitTest15MemoryOutStreamE0_NSt7__cxx1119basic_ostringstreamIcSt11char_traitsIcESaIcEE
 2900      10000000 
 2900      00
 2901 0561 48C78424 		movq	$_ZTCN8UnitTest15MemoryOutStreamE0_NSt7__cxx1119basic_ostringstreamIcSt11char_traitsIcESaIcEE
 2901      A0000000 
 2901      00000000 
 2902 056d 48C74424 		movq	$_ZTVSt15basic_streambufIcSt11char_traitsIcEE+16, 24(%rsp)
 2902      18000000 
 2902      00
 2903 0576 48C74424 		movq	$0, 32(%rsp)
 2903      20000000 
 2903      00
 2904 057f 48C74424 		movq	$0, 40(%rsp)
 2904      28000000 
 2904      00
 2905 0588 48C74424 		movq	$0, 48(%rsp)
 2905      30000000 
 2905      00
 2906 0591 48C74424 		movq	$0, 56(%rsp)
 2906      38000000 
 2906      00
 2907 059a 48C74424 		movq	$0, 64(%rsp)
 2907      40000000 
 2907      00
 2908 05a3 48C74424 		movq	$0, 72(%rsp)
 2908      48000000 
 2908      00
 2909 05ac E8000000 		call	_ZNSt6localeC1Ev
 2909      00
 2910 05b1 488D4424 		leaq	112(%rsp), %rax
 2910      70
 2911 05b6 48C74424 		movq	$0, 104(%rsp)
 2911      68000000 
 2911      00
 2912 05bf C6442470 		movb	$0, 112(%rsp)
 2912      00
 2913 05c4 488D7C24 		leaq	16(%rsp), %rdi
 2913      10
 2914 05c9 488D7424 		leaq	24(%rsp), %rsi
 2914      18
 2915 05ce 48C74424 		movq	$_ZTVNSt7__cxx1115basic_stringbufIcSt11char_traitsIcESaIcEEE+16, 24(%rsp)
 2915      18000000 
 2915      00
 2916 05d7 48894424 		movq	%rax, 96(%rsp)
 2916      60
 2917 05dc 488B4424 		movq	16(%rsp), %rax
 2917      10
 2918 05e1 C7442458 		movl	$16, 88(%rsp)
 2918      10000000 
 2919 05e9 480378E8 		addq	-24(%rax), %rdi
 2920              	.LEHB7:
 2921 05ed E8000000 		call	_ZNSt9basic_iosIcSt11char_traitsIcEE4initEPSt15basic_streambufIcS1_E
 2921      00
 2922              	.LEHE7:
 2923 05f2 488D8424 		leaq	144(%rsp), %rax
 2923      90000000 
 2924 05fa 488D7C24 		leaq	16(%rsp), %rdi
 2924      10
 2925 05ff BA0B0000 		movl	$11, %edx
 2925      00
 2926 0604 BE000000 		movl	$.LC93, %esi
 2926      00
 2927 0609 48C74424 		movq	$_ZTVN8UnitTest15MemoryOutStreamE+24, 16(%rsp)
 2927      10000000 
 2927      00
 2928 0612 48C78424 		movq	$_ZTVN8UnitTest15MemoryOutStreamE+64, 160(%rsp)
 2928      A0000000 
 2928      00000000 
 2929 061e 48898424 		movq	%rax, 128(%rsp)
 2929      80000000 
 2930 0626 48C78424 		movq	$0, 136(%rsp)
 2930      88000000 
 2930      00000000 
 2931 0632 C6842490 		movb	$0, 144(%rsp)
 2931      00000000 
 2932              	.LEHB8:
 2933 063a E8000000 		call	_ZSt16__ostream_insertIcSt11char_traitsIcEERSt13basic_ostreamIT_T0_ES6_PKS3_l
 2933      00
 2934 063f 4C8D7310 		leaq	16(%rbx), %r14
 2935              		.p2align 4,,10
 2936 0643 0F1F4400 		.p2align 3
 2936      00
 2937              	.L180:
 2938 0648 0FB603   		movzbl	(%rbx), %eax
 2939 064b 488D7424 		leaq	14(%rsp), %rsi
 2939      0E
 2940 0650 488D7C24 		leaq	16(%rsp), %rdi
 2940      10
 2941 0655 BA010000 		movl	$1, %edx
 2941      00
 2942 065a 8844240E 		movb	%al, 14(%rsp)
 2943 065e E8000000 		call	_ZSt16__ostream_insertIcSt11char_traitsIcEERSt13basic_ostreamIT_T0_ES6_PKS3_l
 2943      00
 2944 0663 BA010000 		movl	$1, %edx
 2944      00
 2945 0668 BE000000 		movl	$.LC94, %esi
 2945      00
 2946 066d 4889C7   		movq	%rax, %rdi
 2947 0670 E8000000 		call	_ZSt16__ostream_insertIcSt11char_traitsIcEERSt13basic_ostreamIT_T0_ES6_PKS3_l
 2947      00
 2948 0675 4883C301 		addq	$1, %rbx
 2949 0679 4939DE   		cmpq	%rbx, %r14
 2950 067c 75CA     		jne	.L180
 2951 067e 488D7C24 		leaq	16(%rsp), %rdi
 2951      10
 2952 0683 BA0C0000 		movl	$12, %edx
 2952      00
 2953 0688 BE000000 		movl	$.LC95, %esi
 2953      00
 2954 068d E8000000 		call	_ZSt16__ostream_insertIcSt11char_traitsIcEERSt13basic_ostreamIT_T0_ES6_PKS3_l
 2954      00
 2955 0692 31DB     		xorl	%ebx, %ebx
 2956              		.p2align 4,,10
 2957 0694 0F1F4000 		.p2align 3
 2958              	.L181:
 2959 0698 488B4500 		movq	0(%rbp), %rax
 2960 069c 488D7424 		leaq	15(%rsp), %rsi
 2960      0F
 2961 06a1 488D7C24 		leaq	16(%rsp), %rdi
 2961      10
 2962 06a6 BA010000 		movl	$1, %edx
 2962      00
 2963 06ab 0FB60418 		movzbl	(%rax,%rbx), %eax
 2964 06af 8844240F 		movb	%al, 15(%rsp)
 2965 06b3 E8000000 		call	_ZSt16__ostream_insertIcSt11char_traitsIcEERSt13basic_ostreamIT_T0_ES6_PKS3_l
 2965      00
 2966 06b8 BA010000 		movl	$1, %edx
 2966      00
 2967 06bd BE000000 		movl	$.LC94, %esi
 2967      00
 2968 06c2 4889C7   		movq	%rax, %rdi
 2969 06c5 E8000000 		call	_ZSt16__ostream_insertIcSt11char_traitsIcEERSt13basic_ostreamIT_T0_ES6_PKS3_l
 2969      00
 2970 06ca 4883C301 		addq	$1, %rbx
 2971 06ce 4883FB10 		cmpq	$16, %rbx
 2972 06d2 75C4     		jne	.L181
 2973 06d4 488D7C24 		leaq	16(%rsp), %rdi
 2973      10
 2974 06d9 BA010000 		movl	$1, %edx
 2974      00
 2975 06de BE000000 		movl	$.LC96, %esi
 2975      00
 2976 06e3 E8000000 		call	_ZSt16__ostream_insertIcSt11char_traitsIcEERSt13basic_ostreamIT_T0_ES6_PKS3_l
 2976      00
 2977 06e8 488D7C24 		leaq	16(%rsp), %rdi
 2977      10
 2978 06ed E8000000 		call	_ZNK8UnitTest15MemoryOutStream7GetTextEv
 2978      00
 2979 06f2 4889C2   		movq	%rax, %rdx
 2980 06f5 4C89EE   		movq	%r13, %rsi
 2981 06f8 4C89E7   		movq	%r12, %rdi
 2982 06fb E8000000 		call	_ZN8UnitTest11TestResults13OnTestFailureERKNS_11TestDetailsEPKc
 2982      00
 2983              	.LEHE8:
 2984 0700 488BBC24 		movq	128(%rsp), %rdi
 2984      80000000 
 2985 0708 488D8424 		leaq	144(%rsp), %rax
 2985      90000000 
 2986 0710 48C74424 		movq	$_ZTVN8UnitTest15MemoryOutStreamE+24, 16(%rsp)
 2986      10000000 
 2986      00
 2987 0719 48C78424 		movq	$_ZTVN8UnitTest15MemoryOutStreamE+64, 160(%rsp)
 2987      A0000000 
 2987      00000000 
 2988 0725 4839C7   		cmpq	%rax, %rdi
 2989 0728 7405     		je	.L182
 2990 072a E8000000 		call	_ZdlPv
 2990      00
 2991              	.L182:
 2992 072f 488B7C24 		movq	96(%rsp), %rdi
 2992      60
 2993 0734 488D4424 		leaq	112(%rsp), %rax
 2993      70
 2994 0739 48C74424 		movq	$_ZTCN8UnitTest15MemoryOutStreamE0_NSt7__cxx1119basic_ostringstreamIcSt11char_traitsIcESaIcEE
 2994      10000000 
 2994      00
 2995 0742 48C78424 		movq	$_ZTCN8UnitTest15MemoryOutStreamE0_NSt7__cxx1119basic_ostringstreamIcSt11char_traitsIcESaIcEE
 2995      A0000000 
 2995      00000000 
 2996 074e 48C74424 		movq	$_ZTVNSt7__cxx1115basic_stringbufIcSt11char_traitsIcESaIcEEE+16, 24(%rsp)
 2996      18000000 
 2996      00
 2997 0757 4839C7   		cmpq	%rax, %rdi
 2998 075a 7405     		je	.L183
 2999 075c E8000000 		call	_ZdlPv
 2999      00
 3000              	.L183:
 3001 0761 488D7C24 		leaq	80(%rsp), %rdi
 3001      50
 3002 0766 48C74424 		movq	$_ZTVSt15basic_streambufIcSt11char_traitsIcEE+16, 24(%rsp)
 3002      18000000 
 3002      00
 3003 076f E8000000 		call	_ZNSt6localeD1Ev
 3003      00
 3004 0774 488DBC24 		leaq	160(%rsp), %rdi
 3004      A0000000 
 3005 077c 48C78424 		movq	$_ZTVSt9basic_iosIcSt11char_traitsIcEE+16, 160(%rsp)
 3005      A0000000 
 3005      00000000 
 3006              	.LEHB9:
 3007 0788 E8000000 		call	_ZNSt8ios_baseD2Ev
 3007      00
 3008              	.LEHE9:
 3009 078d E91CFDFF 		jmp	.L173
 3009      FF
 3010              	.L187:
 3011 0792 4889C3   		movq	%rax, %rbx
 3012              	.L178:
 3013 0795 488DBC24 		leaq	160(%rsp), %rdi
 3013      A0000000 
 3014 079d 48C78424 		movq	$_ZTVSt9basic_iosIcSt11char_traitsIcEE+16, 160(%rsp)
 3014      A0000000 
 3014      00000000 
 3015 07a9 E8000000 		call	_ZNSt8ios_baseD2Ev
 3015      00
 3016 07ae 4889DF   		movq	%rbx, %rdi
 3017              	.LEHB10:
 3018 07b1 E8000000 		call	_Unwind_Resume
 3018      00
 3019              	.LEHE10:
 3020              	.L188:
 3021 07b6 488D7C24 		leaq	24(%rsp), %rdi
 3021      18
 3022 07bb 4889C3   		movq	%rax, %rbx
 3023 07be E8000000 		call	_ZNSt7__cxx1115basic_stringbufIcSt11char_traitsIcESaIcEED1Ev
 3023      00
 3024 07c3 EBD0     		jmp	.L178
 3025              	.L186:
 3026 07c5 488D7C24 		leaq	16(%rsp), %rdi
 3026      10
 3027 07ca 4889C3   		movq	%rax, %rbx
 3028 07cd E8000000 		call	_ZN8UnitTest15MemoryOutStreamD1Ev
 3028      00
 3029 07d2 4889DF   		movq	%rbx, %rdi
 3030              	.LEHB11:
 3031 07d5 E8000000 		call	_Unwind_Resume
 3031      00
 3032              	.LEHE11:
 3033              	.L200:
 3034 07da E8000000 		call	__stack_chk_fail
 3034      00
 3035              		.cfi_endproc
 3036              	.LFE1593:
 3037              		.section	.gcc_except_table
 3038              	.LLSDA1593:
 3039 0026 FF       		.byte	0xff
 3040 0027 FF       		.byte	0xff
 3041 0028 01       		.byte	0x1
 3042 0029 22       		.uleb128 .LLSDACSE1593-.LLSDACSB1593
 3043              	.LLSDACSB1593:
 3044 002a 8E03     		.uleb128 .LEHB6-.LFB1593
 3045 002c 05       		.uleb128 .LEHE6-.LEHB6
 3046 002d D207     		.uleb128 .L187-.LFB1593
 3047 002f 00       		.uleb128 0
 3048 0030 AD04     		.uleb128 .LEHB7-.LFB1593
 3049 0032 05       		.uleb128 .LEHE7-.LEHB7
 3050 0033 F607     		.uleb128 .L188-.LFB1593
 3051 0035 00       		.uleb128 0
 3052 0036 FA04     		.uleb128 .LEHB8-.LFB1593
 3053 0038 C601     		.uleb128 .LEHE8-.LEHB8
 3054 003a 8508     		.uleb128 .L186-.LFB1593
 3055 003c 00       		.uleb128 0
 3056 003d C807     		.uleb128 .LEHB9-.LFB1593
 3057 003f 05       		.uleb128 .LEHE9-.LEHB9
 3058 0040 00       		.uleb128 0
 3059 0041 00       		.uleb128 0
 3060 0042 F107     		.uleb128 .LEHB10-.LFB1593
 3061 0044 05       		.uleb128 .LEHE10-.LEHB10
 3062 0045 00       		.uleb128 0
 3063 0046 00       		.uleb128 0
 3064 0047 9508     		.uleb128 .LEHB11-.LFB1593
 3065 0049 05       		.uleb128 .LEHE11-.LEHB11
 3066 004a 00       		.uleb128 0
 3067 004b 00       		.uleb128 0
 3068              	.LLSDACSE1593:
 3069              		.text
 3071              		.section	.text.unlikely
 3072              	.LCOLDE98:
 3073              		.text
 3074              	.LHOTE98:
 3075              		.section	.text.unlikely._ZNSt7__cxx1115basic_stringbufIcSt11char_traitsIcESaIcEED0Ev,"axG",@progbi
 3076              		.align 2
 3077              	.LCOLDB99:
 3078              		.section	.text._ZNSt7__cxx1115basic_stringbufIcSt11char_traitsIcESaIcEED0Ev,"axG",@progbits,_ZNSt7
 3079              	.LHOTB99:
 3080              		.align 2
 3081              		.p2align 4,,15
 3082              		.weak	_ZNSt7__cxx1115basic_stringbufIcSt11char_traitsIcESaIcEED0Ev
 3084              	_ZNSt7__cxx1115basic_stringbufIcSt11char_traitsIcESaIcEED0Ev:
 3085              	.LFB1317:
 3086              		.cfi_startproc
 3087 0000 53       		pushq	%rbx
 3088              		.cfi_def_cfa_offset 16
 3089              		.cfi_offset 3, -16
 3090 0001 4889FB   		movq	%rdi, %rbx
 3091 0004 48C70700 		movq	$_ZTVNSt7__cxx1115basic_stringbufIcSt11char_traitsIcESaIcEEE+16, (%rdi)
 3091      000000
 3092 000b 488B7F48 		movq	72(%rdi), %rdi
 3093 000f 488D4358 		leaq	88(%rbx), %rax
 3094 0013 4839C7   		cmpq	%rax, %rdi
 3095 0016 7405     		je	.L202
 3096 0018 E8000000 		call	_ZdlPv
 3096      00
 3097              	.L202:
 3098 001d 488D7B38 		leaq	56(%rbx), %rdi
 3099 0021 48C70300 		movq	$_ZTVSt15basic_streambufIcSt11char_traitsIcEE+16, (%rbx)
 3099      000000
 3100 0028 E8000000 		call	_ZNSt6localeD1Ev
 3100      00
 3101 002d 4889DF   		movq	%rbx, %rdi
 3102 0030 5B       		popq	%rbx
 3103              		.cfi_def_cfa_offset 8
 3104 0031 E9000000 		jmp	_ZdlPv
 3104      00
 3105              		.cfi_endproc
 3106              	.LFE1317:
 3108              		.section	.text.unlikely._ZNSt7__cxx1115basic_stringbufIcSt11char_traitsIcESaIcEED0Ev,"axG",@progbi
 3109              	.LCOLDE99:
 3110              		.section	.text._ZNSt7__cxx1115basic_stringbufIcSt11char_traitsIcESaIcEED0Ev,"axG",@progbits,_ZNSt7
 3111              	.LHOTE99:
 3112              		.section	.rodata.str1.1
 3113              	.LC100:
 3114 001d 45787065 		.string	"Expected "
 3114      63746564 
 3114      2000
 3115              	.LC101:
 3116 0027 20627574 		.string	" but was "
 3116      20776173 
 3116      2000
 3117              		.section	.text.unlikely._ZN8UnitTest10CheckEqualI12BufferStatusS1_EEvRNS_11TestResultsERKT_RKT0_RK
 3118              	.LCOLDB102:
 3119              		.section	.text._ZN8UnitTest10CheckEqualI12BufferStatusS1_EEvRNS_11TestResultsERKT_RKT0_RKNS_11Test
 3120              	.LHOTB102:
 3121              		.p2align 4,,15
 3122              		.weak	_ZN8UnitTest10CheckEqualI12BufferStatusS1_EEvRNS_11TestResultsERKT_RKT0_RKNS_11TestDetailsE
 3124              	_ZN8UnitTest10CheckEqualI12BufferStatusS1_EEvRNS_11TestResultsERKT_RKT0_RKNS_11TestDetailsE:
 3125              	.LFB1333:
 3126              		.cfi_startproc
 3127              		.cfi_personality 0x3,__gxx_personality_v0
 3128              		.cfi_lsda 0x3,.LLSDA1333
 3129 0000 4156     		pushq	%r14
 3130              		.cfi_def_cfa_offset 16
 3131              		.cfi_offset 14, -16
 3132 0002 4155     		pushq	%r13
 3133              		.cfi_def_cfa_offset 24
 3134              		.cfi_offset 13, -24
 3135 0004 4154     		pushq	%r12
 3136              		.cfi_def_cfa_offset 32
 3137              		.cfi_offset 12, -32
 3138 0006 55       		pushq	%rbp
 3139              		.cfi_def_cfa_offset 40
 3140              		.cfi_offset 6, -40
 3141 0007 53       		pushq	%rbx
 3142              		.cfi_def_cfa_offset 48
 3143              		.cfi_offset 3, -48
 3144 0008 4881ECA0 		subq	$416, %rsp
 3144      010000
 3145              		.cfi_def_cfa_offset 464
 3146 000f 64488B04 		movq	%fs:40, %rax
 3146      25280000 
 3146      00
 3147 0018 48898424 		movq	%rax, 408(%rsp)
 3147      98010000 
 3148 0020 31C0     		xorl	%eax, %eax
 3149 0022 8B02     		movl	(%rdx), %eax
 3150 0024 3906     		cmpl	%eax, (%rsi)
 3151 0026 0F843202 		je	.L204
 3151      0000
 3152 002c 4C8DA424 		leaq	144(%rsp), %r12
 3152      90000000 
 3153 0034 4989FD   		movq	%rdi, %r13
 3154 0037 4889F3   		movq	%rsi, %rbx
 3155 003a 4889D5   		movq	%rdx, %rbp
 3156 003d 4989CE   		movq	%rcx, %r14
 3157 0040 4C89E7   		movq	%r12, %rdi
 3158 0043 E8000000 		call	_ZNSt8ios_baseC2Ev
 3158      00
 3159 0048 31F6     		xorl	%esi, %esi
 3160 004a 4C89E7   		movq	%r12, %rdi
 3161 004d 48C78424 		movq	$0, 360(%rsp)
 3161      68010000 
 3161      00000000 
 3162 0059 C6842470 		movb	$0, 368(%rsp)
 3162      01000000 
 3163 0061 C6842471 		movb	$0, 369(%rsp)
 3163      01000000 
 3164 0069 48C78424 		movq	$0, 376(%rsp)
 3164      78010000 
 3164      00000000 
 3165 0075 48C78424 		movq	$0, 384(%rsp)
 3165      80010000 
 3165      00000000 
 3166 0081 48C78424 		movq	$0, 392(%rsp)
 3166      88010000 
 3166      00000000 
 3167 008d 48C78424 		movq	$0, 400(%rsp)
 3167      90010000 
 3167      00000000 
 3168 0099 48C70424 		movq	$_ZTCN8UnitTest15MemoryOutStreamE0_So+24, (%rsp)
 3168      00000000 
 3169 00a1 48C78424 		movq	$_ZTCN8UnitTest15MemoryOutStreamE0_So+64, 144(%rsp)
 3169      90000000 
 3169      00000000 
 3170              	.LEHB12:
 3171 00ad E8000000 		call	_ZNSt9basic_iosIcSt11char_traitsIcEE4initEPSt15basic_streambufIcS1_E
 3171      00
 3172              	.LEHE12:
 3173 00b2 488D7C24 		leaq	64(%rsp), %rdi
 3173      40
 3174 00b7 48C70424 		movq	$_ZTCN8UnitTest15MemoryOutStreamE0_NSt7__cxx1119basic_ostringstreamIcSt11char_traitsIcESaIcEE
 3174      00000000 
 3175 00bf 48C78424 		movq	$_ZTCN8UnitTest15MemoryOutStreamE0_NSt7__cxx1119basic_ostringstreamIcSt11char_traitsIcESaIcEE
 3175      90000000 
 3175      00000000 
 3176 00cb 48C74424 		movq	$_ZTVSt15basic_streambufIcSt11char_traitsIcEE+16, 8(%rsp)
 3176      08000000 
 3176      00
 3177 00d4 48C74424 		movq	$0, 16(%rsp)
 3177      10000000 
 3177      00
 3178 00dd 48C74424 		movq	$0, 24(%rsp)
 3178      18000000 
 3178      00
 3179 00e6 48C74424 		movq	$0, 32(%rsp)
 3179      20000000 
 3179      00
 3180 00ef 48C74424 		movq	$0, 40(%rsp)
 3180      28000000 
 3180      00
 3181 00f8 48C74424 		movq	$0, 48(%rsp)
 3181      30000000 
 3181      00
 3182 0101 48C74424 		movq	$0, 56(%rsp)
 3182      38000000 
 3182      00
 3183 010a E8000000 		call	_ZNSt6localeC1Ev
 3183      00
 3184 010f 488D4424 		leaq	96(%rsp), %rax
 3184      60
 3185 0114 48C74424 		movq	$0, 88(%rsp)
 3185      58000000 
 3185      00
 3186 011d C6442460 		movb	$0, 96(%rsp)
 3186      00
 3187 0122 488D7424 		leaq	8(%rsp), %rsi
 3187      08
 3188 0127 48C74424 		movq	$_ZTVNSt7__cxx1115basic_stringbufIcSt11char_traitsIcESaIcEEE+16, 8(%rsp)
 3188      08000000 
 3188      00
 3189 0130 C7442448 		movl	$16, 72(%rsp)
 3189      10000000 
 3190 0138 48894424 		movq	%rax, 80(%rsp)
 3190      50
 3191 013d 488B0424 		movq	(%rsp), %rax
 3192 0141 488B40E8 		movq	-24(%rax), %rax
 3193 0145 488D3C04 		leaq	(%rsp,%rax), %rdi
 3194              	.LEHB13:
 3195 0149 E8000000 		call	_ZNSt9basic_iosIcSt11char_traitsIcEE4initEPSt15basic_streambufIcS1_E
 3195      00
 3196              	.LEHE13:
 3197 014e 488D8424 		leaq	128(%rsp), %rax
 3197      80000000 
 3198 0156 BA090000 		movl	$9, %edx
 3198      00
 3199 015b BE000000 		movl	$.LC100, %esi
 3199      00
 3200 0160 4889E7   		movq	%rsp, %rdi
 3201 0163 48C70424 		movq	$_ZTVN8UnitTest15MemoryOutStreamE+24, (%rsp)
 3201      00000000 
 3202 016b 48C78424 		movq	$_ZTVN8UnitTest15MemoryOutStreamE+64, 144(%rsp)
 3202      90000000 
 3202      00000000 
 3203 0177 48894424 		movq	%rax, 112(%rsp)
 3203      70
 3204 017c 48C74424 		movq	$0, 120(%rsp)
 3204      78000000 
 3204      00
 3205 0185 C6842480 		movb	$0, 128(%rsp)
 3205      00000000 
 3206 018d 8B6D00   		movl	0(%rbp), %ebp
 3207 0190 8B1B     		movl	(%rbx), %ebx
 3208              	.LEHB14:
 3209 0192 E8000000 		call	_ZSt16__ostream_insertIcSt11char_traitsIcEERSt13basic_ostreamIT_T0_ES6_PKS3_l
 3209      00
 3210 0197 89DE     		movl	%ebx, %esi
 3211 0199 4889E7   		movq	%rsp, %rdi
 3212 019c E8000000 		call	_ZNSolsEi
 3212      00
 3213 01a1 BA090000 		movl	$9, %edx
 3213      00
 3214 01a6 BE000000 		movl	$.LC101, %esi
 3214      00
 3215 01ab 4889C7   		movq	%rax, %rdi
 3216 01ae 4889C3   		movq	%rax, %rbx
 3217 01b1 E8000000 		call	_ZSt16__ostream_insertIcSt11char_traitsIcEERSt13basic_ostreamIT_T0_ES6_PKS3_l
 3217      00
 3218 01b6 89EE     		movl	%ebp, %esi
 3219 01b8 4889DF   		movq	%rbx, %rdi
 3220 01bb E8000000 		call	_ZNSolsEi
 3220      00
 3221 01c0 4889E7   		movq	%rsp, %rdi
 3222 01c3 E8000000 		call	_ZNK8UnitTest15MemoryOutStream7GetTextEv
 3222      00
 3223 01c8 4889C2   		movq	%rax, %rdx
 3224 01cb 4C89F6   		movq	%r14, %rsi
 3225 01ce 4C89EF   		movq	%r13, %rdi
 3226 01d1 E8000000 		call	_ZN8UnitTest11TestResults13OnTestFailureERKNS_11TestDetailsEPKc
 3226      00
 3227              	.LEHE14:
 3228 01d6 488B7C24 		movq	112(%rsp), %rdi
 3228      70
 3229 01db 488D8424 		leaq	128(%rsp), %rax
 3229      80000000 
 3230 01e3 48C70424 		movq	$_ZTVN8UnitTest15MemoryOutStreamE+24, (%rsp)
 3230      00000000 
 3231 01eb 48C78424 		movq	$_ZTVN8UnitTest15MemoryOutStreamE+64, 144(%rsp)
 3231      90000000 
 3231      00000000 
 3232 01f7 4839C7   		cmpq	%rax, %rdi
 3233 01fa 7405     		je	.L210
 3234 01fc E8000000 		call	_ZdlPv
 3234      00
 3235              	.L210:
 3236 0201 488B7C24 		movq	80(%rsp), %rdi
 3236      50
 3237 0206 488D4424 		leaq	96(%rsp), %rax
 3237      60
 3238 020b 48C70424 		movq	$_ZTCN8UnitTest15MemoryOutStreamE0_NSt7__cxx1119basic_ostringstreamIcSt11char_traitsIcESaIcEE
 3238      00000000 
 3239 0213 48C78424 		movq	$_ZTCN8UnitTest15MemoryOutStreamE0_NSt7__cxx1119basic_ostringstreamIcSt11char_traitsIcESaIcEE
 3239      90000000 
 3239      00000000 
 3240 021f 48C74424 		movq	$_ZTVNSt7__cxx1115basic_stringbufIcSt11char_traitsIcESaIcEEE+16, 8(%rsp)
 3240      08000000 
 3240      00
 3241 0228 4839C7   		cmpq	%rax, %rdi
 3242 022b 7405     		je	.L211
 3243 022d E8000000 		call	_ZdlPv
 3243      00
 3244              	.L211:
 3245 0232 488D7C24 		leaq	64(%rsp), %rdi
 3245      40
 3246 0237 48C74424 		movq	$_ZTVSt15basic_streambufIcSt11char_traitsIcEE+16, 8(%rsp)
 3246      08000000 
 3246      00
 3247 0240 E8000000 		call	_ZNSt6localeD1Ev
 3247      00
 3248 0245 488DBC24 		leaq	144(%rsp), %rdi
 3248      90000000 
 3249 024d 48C78424 		movq	$_ZTVSt9basic_iosIcSt11char_traitsIcEE+16, 144(%rsp)
 3249      90000000 
 3249      00000000 
 3250              	.LEHB15:
 3251 0259 E8000000 		call	_ZNSt8ios_baseD2Ev
 3251      00
 3252              	.LEHE15:
 3253              	.L204:
 3254 025e 488B8424 		movq	408(%rsp), %rax
 3254      98010000 
 3255 0266 64483304 		xorq	%fs:40, %rax
 3255      25280000 
 3255      00
 3256 026f 7510     		jne	.L222
 3257 0271 4881C4A0 		addq	$416, %rsp
 3257      010000
 3258              		.cfi_remember_state
 3259              		.cfi_def_cfa_offset 48
 3260 0278 5B       		popq	%rbx
 3261              		.cfi_def_cfa_offset 40
 3262 0279 5D       		popq	%rbp
 3263              		.cfi_def_cfa_offset 32
 3264 027a 415C     		popq	%r12
 3265              		.cfi_def_cfa_offset 24
 3266 027c 415D     		popq	%r13
 3267              		.cfi_def_cfa_offset 16
 3268 027e 415E     		popq	%r14
 3269              		.cfi_def_cfa_offset 8
 3270 0280 C3       		ret
 3271              	.L222:
 3272              		.cfi_restore_state
 3273 0281 E8000000 		call	__stack_chk_fail
 3273      00
 3274              	.L215:
 3275 0286 4889C3   		movq	%rax, %rbx
 3276 0289 EB12     		jmp	.L208
 3277              	.L214:
 3278 028b 4889C3   		movq	%rax, %rbx
 3279 028e EB2E     		jmp	.L212
 3280              	.L216:
 3281 0290 4889C3   		movq	%rax, %rbx
 3282              	.L207:
 3283 0293 488D7C24 		leaq	8(%rsp), %rdi
 3283      08
 3284 0298 E8000000 		call	_ZNSt7__cxx1115basic_stringbufIcSt11char_traitsIcESaIcEED1Ev
 3284      00
 3285              	.L208:
 3286 029d 488DBC24 		leaq	144(%rsp), %rdi
 3286      90000000 
 3287 02a5 48C78424 		movq	$_ZTVSt9basic_iosIcSt11char_traitsIcEE+16, 144(%rsp)
 3287      90000000 
 3287      00000000 
 3288 02b1 E8000000 		call	_ZNSt8ios_baseD2Ev
 3288      00
 3289 02b6 4889DF   		movq	%rbx, %rdi
 3290              	.LEHB16:
 3291 02b9 E8000000 		call	_Unwind_Resume
 3291      00
 3292              	.LEHE16:
 3293              	.L212:
 3294 02be 4889E7   		movq	%rsp, %rdi
 3295 02c1 E8000000 		call	_ZN8UnitTest15MemoryOutStreamD1Ev
 3295      00
 3296 02c6 4889DF   		movq	%rbx, %rdi
 3297              	.LEHB17:
 3298 02c9 E8000000 		call	_Unwind_Resume
 3298      00
 3299              	.LEHE17:
 3300              		.cfi_endproc
 3301              	.LFE1333:
 3302              		.section	.gcc_except_table
 3303              	.LLSDA1333:
 3304 004c FF       		.byte	0xff
 3305 004d FF       		.byte	0xff
 3306 004e 01       		.byte	0x1
 3307 004f 21       		.uleb128 .LLSDACSE1333-.LLSDACSB1333
 3308              	.LLSDACSB1333:
 3309 0050 AD01     		.uleb128 .LEHB12-.LFB1333
 3310 0052 05       		.uleb128 .LEHE12-.LEHB12
 3311 0053 8605     		.uleb128 .L215-.LFB1333
 3312 0055 00       		.uleb128 0
 3313 0056 C902     		.uleb128 .LEHB13-.LFB1333
 3314 0058 05       		.uleb128 .LEHE13-.LEHB13
 3315 0059 9005     		.uleb128 .L216-.LFB1333
 3316 005b 00       		.uleb128 0
 3317 005c 9203     		.uleb128 .LEHB14-.LFB1333
 3318 005e 44       		.uleb128 .LEHE14-.LEHB14
 3319 005f 8B05     		.uleb128 .L214-.LFB1333
 3320 0061 00       		.uleb128 0
 3321 0062 D904     		.uleb128 .LEHB15-.LFB1333
 3322 0064 05       		.uleb128 .LEHE15-.LEHB15
 3323 0065 00       		.uleb128 0
 3324 0066 00       		.uleb128 0
 3325 0067 B905     		.uleb128 .LEHB16-.LFB1333
 3326 0069 05       		.uleb128 .LEHE16-.LEHB16
 3327 006a 00       		.uleb128 0
 3328 006b 00       		.uleb128 0
 3329 006c C905     		.uleb128 .LEHB17-.LFB1333
 3330 006e 05       		.uleb128 .LEHE17-.LEHB17
 3331 006f 00       		.uleb128 0
 3332 0070 00       		.uleb128 0
 3333              	.LLSDACSE1333:
 3334              		.section	.text._ZN8UnitTest10CheckEqualI12BufferStatusS1_EEvRNS_11TestResultsERKT_RKT0_RKNS_11Test
 3336              		.section	.text.unlikely._ZN8UnitTest10CheckEqualI12BufferStatusS1_EEvRNS_11TestResultsERKT_RKT0_RK
 3337              	.LCOLDE102:
 3338              		.section	.text._ZN8UnitTest10CheckEqualI12BufferStatusS1_EEvRNS_11TestResultsERKT_RKT0_RKNS_11Test
 3339              	.LHOTE102:
 3340              		.section	.text.unlikely._ZN8UnitTest10CheckEqualImmEEvRNS_11TestResultsERKT_RKT0_RKNS_11TestDetail
 3341              	.LCOLDB103:
 3342              		.section	.text._ZN8UnitTest10CheckEqualImmEEvRNS_11TestResultsERKT_RKT0_RKNS_11TestDetailsE,"axG",
 3343              	.LHOTB103:
 3344              		.p2align 4,,15
 3345              		.weak	_ZN8UnitTest10CheckEqualImmEEvRNS_11TestResultsERKT_RKT0_RKNS_11TestDetailsE
 3347              	_ZN8UnitTest10CheckEqualImmEEvRNS_11TestResultsERKT_RKT0_RKNS_11TestDetailsE:
 3348              	.LFB1338:
 3349              		.cfi_startproc
 3350              		.cfi_personality 0x3,__gxx_personality_v0
 3351              		.cfi_lsda 0x3,.LLSDA1338
 3352 0000 4156     		pushq	%r14
 3353              		.cfi_def_cfa_offset 16
 3354              		.cfi_offset 14, -16
 3355 0002 4155     		pushq	%r13
 3356              		.cfi_def_cfa_offset 24
 3357              		.cfi_offset 13, -24
 3358 0004 4154     		pushq	%r12
 3359              		.cfi_def_cfa_offset 32
 3360              		.cfi_offset 12, -32
 3361 0006 55       		pushq	%rbp
 3362              		.cfi_def_cfa_offset 40
 3363              		.cfi_offset 6, -40
 3364 0007 53       		pushq	%rbx
 3365              		.cfi_def_cfa_offset 48
 3366              		.cfi_offset 3, -48
 3367 0008 4881ECA0 		subq	$416, %rsp
 3367      010000
 3368              		.cfi_def_cfa_offset 464
 3369 000f 64488B04 		movq	%fs:40, %rax
 3369      25280000 
 3369      00
 3370 0018 48898424 		movq	%rax, 408(%rsp)
 3370      98010000 
 3371 0020 31C0     		xorl	%eax, %eax
 3372 0022 488B02   		movq	(%rdx), %rax
 3373 0025 483906   		cmpq	%rax, (%rsi)
 3374 0028 0F843602 		je	.L223
 3374      0000
 3375 002e 4C8DA424 		leaq	144(%rsp), %r12
 3375      90000000 
 3376 0036 4989FD   		movq	%rdi, %r13
 3377 0039 4889F3   		movq	%rsi, %rbx
 3378 003c 4889D5   		movq	%rdx, %rbp
 3379 003f 4989CE   		movq	%rcx, %r14
 3380 0042 4C89E7   		movq	%r12, %rdi
 3381 0045 E8000000 		call	_ZNSt8ios_baseC2Ev
 3381      00
 3382 004a 31F6     		xorl	%esi, %esi
 3383 004c 4C89E7   		movq	%r12, %rdi
 3384 004f 48C78424 		movq	$0, 360(%rsp)
 3384      68010000 
 3384      00000000 
 3385 005b C6842470 		movb	$0, 368(%rsp)
 3385      01000000 
 3386 0063 C6842471 		movb	$0, 369(%rsp)
 3386      01000000 
 3387 006b 48C78424 		movq	$0, 376(%rsp)
 3387      78010000 
 3387      00000000 
 3388 0077 48C78424 		movq	$0, 384(%rsp)
 3388      80010000 
 3388      00000000 
 3389 0083 48C78424 		movq	$0, 392(%rsp)
 3389      88010000 
 3389      00000000 
 3390 008f 48C78424 		movq	$0, 400(%rsp)
 3390      90010000 
 3390      00000000 
 3391 009b 48C70424 		movq	$_ZTCN8UnitTest15MemoryOutStreamE0_So+24, (%rsp)
 3391      00000000 
 3392 00a3 48C78424 		movq	$_ZTCN8UnitTest15MemoryOutStreamE0_So+64, 144(%rsp)
 3392      90000000 
 3392      00000000 
 3393              	.LEHB18:
 3394 00af E8000000 		call	_ZNSt9basic_iosIcSt11char_traitsIcEE4initEPSt15basic_streambufIcS1_E
 3394      00
 3395              	.LEHE18:
 3396 00b4 488D7C24 		leaq	64(%rsp), %rdi
 3396      40
 3397 00b9 48C70424 		movq	$_ZTCN8UnitTest15MemoryOutStreamE0_NSt7__cxx1119basic_ostringstreamIcSt11char_traitsIcESaIcEE
 3397      00000000 
 3398 00c1 48C78424 		movq	$_ZTCN8UnitTest15MemoryOutStreamE0_NSt7__cxx1119basic_ostringstreamIcSt11char_traitsIcESaIcEE
 3398      90000000 
 3398      00000000 
 3399 00cd 48C74424 		movq	$_ZTVSt15basic_streambufIcSt11char_traitsIcEE+16, 8(%rsp)
 3399      08000000 
 3399      00
 3400 00d6 48C74424 		movq	$0, 16(%rsp)
 3400      10000000 
 3400      00
 3401 00df 48C74424 		movq	$0, 24(%rsp)
 3401      18000000 
 3401      00
 3402 00e8 48C74424 		movq	$0, 32(%rsp)
 3402      20000000 
 3402      00
 3403 00f1 48C74424 		movq	$0, 40(%rsp)
 3403      28000000 
 3403      00
 3404 00fa 48C74424 		movq	$0, 48(%rsp)
 3404      30000000 
 3404      00
 3405 0103 48C74424 		movq	$0, 56(%rsp)
 3405      38000000 
 3405      00
 3406 010c E8000000 		call	_ZNSt6localeC1Ev
 3406      00
 3407 0111 488D4424 		leaq	96(%rsp), %rax
 3407      60
 3408 0116 48C74424 		movq	$0, 88(%rsp)
 3408      58000000 
 3408      00
 3409 011f C6442460 		movb	$0, 96(%rsp)
 3409      00
 3410 0124 488D7424 		leaq	8(%rsp), %rsi
 3410      08
 3411 0129 48C74424 		movq	$_ZTVNSt7__cxx1115basic_stringbufIcSt11char_traitsIcESaIcEEE+16, 8(%rsp)
 3411      08000000 
 3411      00
 3412 0132 C7442448 		movl	$16, 72(%rsp)
 3412      10000000 
 3413 013a 48894424 		movq	%rax, 80(%rsp)
 3413      50
 3414 013f 488B0424 		movq	(%rsp), %rax
 3415 0143 488B40E8 		movq	-24(%rax), %rax
 3416 0147 488D3C04 		leaq	(%rsp,%rax), %rdi
 3417              	.LEHB19:
 3418 014b E8000000 		call	_ZNSt9basic_iosIcSt11char_traitsIcEE4initEPSt15basic_streambufIcS1_E
 3418      00
 3419              	.LEHE19:
 3420 0150 488D8424 		leaq	128(%rsp), %rax
 3420      80000000 
 3421 0158 BA090000 		movl	$9, %edx
 3421      00
 3422 015d BE000000 		movl	$.LC100, %esi
 3422      00
 3423 0162 4889E7   		movq	%rsp, %rdi
 3424 0165 48C70424 		movq	$_ZTVN8UnitTest15MemoryOutStreamE+24, (%rsp)
 3424      00000000 
 3425 016d 48C78424 		movq	$_ZTVN8UnitTest15MemoryOutStreamE+64, 144(%rsp)
 3425      90000000 
 3425      00000000 
 3426 0179 48894424 		movq	%rax, 112(%rsp)
 3426      70
 3427 017e 48C74424 		movq	$0, 120(%rsp)
 3427      78000000 
 3427      00
 3428 0187 C6842480 		movb	$0, 128(%rsp)
 3428      00000000 
 3429 018f 488B6D00 		movq	0(%rbp), %rbp
 3430 0193 488B1B   		movq	(%rbx), %rbx
 3431              	.LEHB20:
 3432 0196 E8000000 		call	_ZSt16__ostream_insertIcSt11char_traitsIcEERSt13basic_ostreamIT_T0_ES6_PKS3_l
 3432      00
 3433 019b 4889DE   		movq	%rbx, %rsi
 3434 019e 4889E7   		movq	%rsp, %rdi
 3435 01a1 E8000000 		call	_ZNSo9_M_insertImEERSoT_
 3435      00
 3436 01a6 BA090000 		movl	$9, %edx
 3436      00
 3437 01ab BE000000 		movl	$.LC101, %esi
 3437      00
 3438 01b0 4889C7   		movq	%rax, %rdi
 3439 01b3 4889C3   		movq	%rax, %rbx
 3440 01b6 E8000000 		call	_ZSt16__ostream_insertIcSt11char_traitsIcEERSt13basic_ostreamIT_T0_ES6_PKS3_l
 3440      00
 3441 01bb 4889EE   		movq	%rbp, %rsi
 3442 01be 4889DF   		movq	%rbx, %rdi
 3443 01c1 E8000000 		call	_ZNSo9_M_insertImEERSoT_
 3443      00
 3444 01c6 4889E7   		movq	%rsp, %rdi
 3445 01c9 E8000000 		call	_ZNK8UnitTest15MemoryOutStream7GetTextEv
 3445      00
 3446 01ce 4889C2   		movq	%rax, %rdx
 3447 01d1 4C89F6   		movq	%r14, %rsi
 3448 01d4 4C89EF   		movq	%r13, %rdi
 3449 01d7 E8000000 		call	_ZN8UnitTest11TestResults13OnTestFailureERKNS_11TestDetailsEPKc
 3449      00
 3450              	.LEHE20:
 3451 01dc 488B7C24 		movq	112(%rsp), %rdi
 3451      70
 3452 01e1 488D8424 		leaq	128(%rsp), %rax
 3452      80000000 
 3453 01e9 48C70424 		movq	$_ZTVN8UnitTest15MemoryOutStreamE+24, (%rsp)
 3453      00000000 
 3454 01f1 48C78424 		movq	$_ZTVN8UnitTest15MemoryOutStreamE+64, 144(%rsp)
 3454      90000000 
 3454      00000000 
 3455 01fd 4839C7   		cmpq	%rax, %rdi
 3456 0200 7405     		je	.L229
 3457 0202 E8000000 		call	_ZdlPv
 3457      00
 3458              	.L229:
 3459 0207 488B7C24 		movq	80(%rsp), %rdi
 3459      50
 3460 020c 488D4424 		leaq	96(%rsp), %rax
 3460      60
 3461 0211 48C70424 		movq	$_ZTCN8UnitTest15MemoryOutStreamE0_NSt7__cxx1119basic_ostringstreamIcSt11char_traitsIcESaIcEE
 3461      00000000 
 3462 0219 48C78424 		movq	$_ZTCN8UnitTest15MemoryOutStreamE0_NSt7__cxx1119basic_ostringstreamIcSt11char_traitsIcESaIcEE
 3462      90000000 
 3462      00000000 
 3463 0225 48C74424 		movq	$_ZTVNSt7__cxx1115basic_stringbufIcSt11char_traitsIcESaIcEEE+16, 8(%rsp)
 3463      08000000 
 3463      00
 3464 022e 4839C7   		cmpq	%rax, %rdi
 3465 0231 7405     		je	.L230
 3466 0233 E8000000 		call	_ZdlPv
 3466      00
 3467              	.L230:
 3468 0238 488D7C24 		leaq	64(%rsp), %rdi
 3468      40
 3469 023d 48C74424 		movq	$_ZTVSt15basic_streambufIcSt11char_traitsIcEE+16, 8(%rsp)
 3469      08000000 
 3469      00
 3470 0246 E8000000 		call	_ZNSt6localeD1Ev
 3470      00
 3471 024b 488DBC24 		leaq	144(%rsp), %rdi
 3471      90000000 
 3472 0253 48C78424 		movq	$_ZTVSt9basic_iosIcSt11char_traitsIcEE+16, 144(%rsp)
 3472      90000000 
 3472      00000000 
 3473              	.LEHB21:
 3474 025f E8000000 		call	_ZNSt8ios_baseD2Ev
 3474      00
 3475              	.LEHE21:
 3476              	.L223:
 3477 0264 488B8424 		movq	408(%rsp), %rax
 3477      98010000 
 3478 026c 64483304 		xorq	%fs:40, %rax
 3478      25280000 
 3478      00
 3479 0275 7510     		jne	.L241
 3480 0277 4881C4A0 		addq	$416, %rsp
 3480      010000
 3481              		.cfi_remember_state
 3482              		.cfi_def_cfa_offset 48
 3483 027e 5B       		popq	%rbx
 3484              		.cfi_def_cfa_offset 40
 3485 027f 5D       		popq	%rbp
 3486              		.cfi_def_cfa_offset 32
 3487 0280 415C     		popq	%r12
 3488              		.cfi_def_cfa_offset 24
 3489 0282 415D     		popq	%r13
 3490              		.cfi_def_cfa_offset 16
 3491 0284 415E     		popq	%r14
 3492              		.cfi_def_cfa_offset 8
 3493 0286 C3       		ret
 3494              	.L241:
 3495              		.cfi_restore_state
 3496 0287 E8000000 		call	__stack_chk_fail
 3496      00
 3497              	.L234:
 3498 028c 4889C3   		movq	%rax, %rbx
 3499 028f EB12     		jmp	.L227
 3500              	.L233:
 3501 0291 4889C3   		movq	%rax, %rbx
 3502 0294 EB2E     		jmp	.L231
 3503              	.L235:
 3504 0296 4889C3   		movq	%rax, %rbx
 3505              	.L226:
 3506 0299 488D7C24 		leaq	8(%rsp), %rdi
 3506      08
 3507 029e E8000000 		call	_ZNSt7__cxx1115basic_stringbufIcSt11char_traitsIcESaIcEED1Ev
 3507      00
 3508              	.L227:
 3509 02a3 488DBC24 		leaq	144(%rsp), %rdi
 3509      90000000 
 3510 02ab 48C78424 		movq	$_ZTVSt9basic_iosIcSt11char_traitsIcEE+16, 144(%rsp)
 3510      90000000 
 3510      00000000 
 3511 02b7 E8000000 		call	_ZNSt8ios_baseD2Ev
 3511      00
 3512 02bc 4889DF   		movq	%rbx, %rdi
 3513              	.LEHB22:
 3514 02bf E8000000 		call	_Unwind_Resume
 3514      00
 3515              	.LEHE22:
 3516              	.L231:
 3517 02c4 4889E7   		movq	%rsp, %rdi
 3518 02c7 E8000000 		call	_ZN8UnitTest15MemoryOutStreamD1Ev
 3518      00
 3519 02cc 4889DF   		movq	%rbx, %rdi
 3520              	.LEHB23:
 3521 02cf E8000000 		call	_Unwind_Resume
 3521      00
 3522              	.LEHE23:
 3523              		.cfi_endproc
 3524              	.LFE1338:
 3525              		.section	.gcc_except_table
 3526              	.LLSDA1338:
 3527 0071 FF       		.byte	0xff
 3528 0072 FF       		.byte	0xff
 3529 0073 01       		.byte	0x1
 3530 0074 21       		.uleb128 .LLSDACSE1338-.LLSDACSB1338
 3531              	.LLSDACSB1338:
 3532 0075 AF01     		.uleb128 .LEHB18-.LFB1338
 3533 0077 05       		.uleb128 .LEHE18-.LEHB18
 3534 0078 8C05     		.uleb128 .L234-.LFB1338
 3535 007a 00       		.uleb128 0
 3536 007b CB02     		.uleb128 .LEHB19-.LFB1338
 3537 007d 05       		.uleb128 .LEHE19-.LEHB19
 3538 007e 9605     		.uleb128 .L235-.LFB1338
 3539 0080 00       		.uleb128 0
 3540 0081 9603     		.uleb128 .LEHB20-.LFB1338
 3541 0083 46       		.uleb128 .LEHE20-.LEHB20
 3542 0084 9105     		.uleb128 .L233-.LFB1338
 3543 0086 00       		.uleb128 0
 3544 0087 DF04     		.uleb128 .LEHB21-.LFB1338
 3545 0089 05       		.uleb128 .LEHE21-.LEHB21
 3546 008a 00       		.uleb128 0
 3547 008b 00       		.uleb128 0
 3548 008c BF05     		.uleb128 .LEHB22-.LFB1338
 3549 008e 05       		.uleb128 .LEHE22-.LEHB22
 3550 008f 00       		.uleb128 0
 3551 0090 00       		.uleb128 0
 3552 0091 CF05     		.uleb128 .LEHB23-.LFB1338
 3553 0093 05       		.uleb128 .LEHE23-.LEHB23
 3554 0094 00       		.uleb128 0
 3555 0095 00       		.uleb128 0
 3556              	.LLSDACSE1338:
 3557              		.section	.text._ZN8UnitTest10CheckEqualImmEEvRNS_11TestResultsERKT_RKT0_RKNS_11TestDetailsE,"axG",
 3559              		.section	.text.unlikely._ZN8UnitTest10CheckEqualImmEEvRNS_11TestResultsERKT_RKT0_RKNS_11TestDetail
 3560              	.LCOLDE103:
 3561              		.section	.text._ZN8UnitTest10CheckEqualImmEEvRNS_11TestResultsERKT_RKT0_RKNS_11TestDetailsE,"axG",
 3562              	.LHOTE103:
 3563              		.section	.rodata.str1.8,"aMS",@progbits,1
 3564              		.align 8
 3565              	.LC104:
 3566 0000 556E6861 		.string	"Unhandled exception in CHECK_EQUAL(BUF_SUCCESS, status)"
 3566      6E646C65 
 3566      64206578 
 3566      63657074 
 3566      696F6E20 
 3567              		.align 8
 3568              	.LC105:
 3569 0038 556E6861 		.string	"Unhandled exception in CHECK_EQUAL(0x18000UL, buf.length)"
 3569      6E646C65 
 3569      64206578 
 3569      63657074 
 3569      696F6E20 
 3570 0072 00000000 		.align 8
 3570      0000
 3571              	.LC106:
 3572 0078 556E6861 		.string	"Unhandled exception in CHECK_EQUAL(0x20000UL, buf.capacity)"
 3572      6E646C65 
 3572      64206578 
 3572      63657074 
 3572      696F6E20 
 3573              		.section	.text.unlikely
 3574              		.align 2
 3575              	.LCOLDB107:
 3576              		.text
 3577              	.LHOTB107:
 3578 07df 90       		.align 2
 3579              		.p2align 4,,15
 3580              		.globl	_ZNK28TestCore_testHugeAppendConst7RunImplEv
 3582              	_ZNK28TestCore_testHugeAppendConst7RunImplEv:
 3583              	.LFB1213:
 3584              		.cfi_startproc
 3585              		.cfi_personality 0x3,__gxx_personality_v0
 3586              		.cfi_lsda 0x3,.LLSDA1213
 3587 07e0 53       		pushq	%rbx
 3588              		.cfi_def_cfa_offset 16
 3589              		.cfi_offset 3, -16
 3590 07e1 31C9     		xorl	%ecx, %ecx
 3591 07e3 31D2     		xorl	%edx, %edx
 3592 07e5 BE040000 		movl	$4, %esi
 3592      00
 3593 07ea 4883EC60 		subq	$96, %rsp
 3594              		.cfi_def_cfa_offset 112
 3595 07ee 488D7C24 		leaq	16(%rsp), %rdi
 3595      10
 3596 07f3 64488B04 		movq	%fs:40, %rax
 3596      25280000 
 3596      00
 3597 07fc 48894424 		movq	%rax, 88(%rsp)
 3597      58
 3598 0801 31C0     		xorl	%eax, %eax
 3599              	.LEHB24:
 3600 0803 E8000000 		call	bufInitialise
 3600      00
 3601              	.LEHE24:
 3602 0808 89442404 		movl	%eax, 4(%rsp)
 3603              	.LEHB25:
 3604 080c E8000000 		call	_ZN8UnitTest11CurrentTest7DetailsEv
 3604      00
 3605 0811 488D5C24 		leaq	48(%rsp), %rbx
 3605      30
 3606 0816 488B30   		movq	(%rax), %rsi
 3607 0819 BA840100 		movl	$388, %edx
 3607      00
 3608 081e 4889DF   		movq	%rbx, %rdi
 3609 0821 E8000000 		call	_ZN8UnitTest11TestDetailsC1ERKS0_i
 3609      00
 3610 0826 C7442408 		movl	$0, 8(%rsp)
 3610      00000000 
 3611 082e E8000000 		call	_ZN8UnitTest11CurrentTest7ResultsEv
 3611      00
 3612 0833 488B38   		movq	(%rax), %rdi
 3613 0836 488D5424 		leaq	4(%rsp), %rdx
 3613      04
 3614 083b 488D7424 		leaq	8(%rsp), %rsi
 3614      08
 3615 0840 4889D9   		movq	%rbx, %rcx
 3616 0843 E8000000 		call	_ZN8UnitTest10CheckEqualI12BufferStatusS1_EEvRNS_11TestResultsERKT_RKT0_RKNS_11TestDetailsE
 3616      00
 3617              	.LEHE25:
 3618              	.L244:
 3619 0848 488D7C24 		leaq	16(%rsp), %rdi
 3619      10
 3620 084d 31C9     		xorl	%ecx, %ecx
 3621 084f BA008001 		movl	$98304, %edx
 3621      00
 3622 0854 BE090000 		movl	$9, %esi
 3622      00
 3623              	.LEHB26:
 3624 0859 E8000000 		call	bufAppendConst
 3624      00
 3625              	.LEHE26:
 3626 085e 89442404 		movl	%eax, 4(%rsp)
 3627              	.LEHB27:
 3628 0862 E8000000 		call	_ZN8UnitTest11CurrentTest7DetailsEv
 3628      00
 3629 0867 488B30   		movq	(%rax), %rsi
 3630 086a BA860100 		movl	$390, %edx
 3630      00
 3631 086f 4889DF   		movq	%rbx, %rdi
 3632 0872 E8000000 		call	_ZN8UnitTest11TestDetailsC1ERKS0_i
 3632      00
 3633 0877 C7442408 		movl	$0, 8(%rsp)
 3633      00000000 
 3634 087f E8000000 		call	_ZN8UnitTest11CurrentTest7ResultsEv
 3634      00
 3635 0884 488B38   		movq	(%rax), %rdi
 3636 0887 488D5424 		leaq	4(%rsp), %rdx
 3636      04
 3637 088c 488D7424 		leaq	8(%rsp), %rsi
 3637      08
 3638 0891 4889D9   		movq	%rbx, %rcx
 3639 0894 E8000000 		call	_ZN8UnitTest10CheckEqualI12BufferStatusS1_EEvRNS_11TestResultsERKT_RKT0_RKNS_11TestDetailsE
 3639      00
 3640              	.LEHE27:
 3641              	.L247:
 3642              	.LEHB28:
 3643 0899 E8000000 		call	_ZN8UnitTest11CurrentTest7DetailsEv
 3643      00
 3644 089e 488B30   		movq	(%rax), %rsi
 3645 08a1 BA870100 		movl	$391, %edx
 3645      00
 3646 08a6 4889DF   		movq	%rbx, %rdi
 3647 08a9 E8000000 		call	_ZN8UnitTest11TestDetailsC1ERKS0_i
 3647      00
 3648 08ae 48C74424 		movq	$98304, 8(%rsp)
 3648      08008001 
 3648      00
 3649 08b7 E8000000 		call	_ZN8UnitTest11CurrentTest7ResultsEv
 3649      00
 3650 08bc 488B38   		movq	(%rax), %rdi
 3651 08bf 488D5424 		leaq	24(%rsp), %rdx
 3651      18
 3652 08c4 488D7424 		leaq	8(%rsp), %rsi
 3652      08
 3653 08c9 4889D9   		movq	%rbx, %rcx
 3654 08cc E8000000 		call	_ZN8UnitTest10CheckEqualImmEEvRNS_11TestResultsERKT_RKT0_RKNS_11TestDetailsE
 3654      00
 3655              	.LEHE28:
 3656              	.L250:
 3657              	.LEHB29:
 3658 08d1 E8000000 		call	_ZN8UnitTest11CurrentTest7DetailsEv
 3658      00
 3659 08d6 488B30   		movq	(%rax), %rsi
 3660 08d9 BA880100 		movl	$392, %edx
 3660      00
 3661 08de 4889DF   		movq	%rbx, %rdi
 3662 08e1 E8000000 		call	_ZN8UnitTest11TestDetailsC1ERKS0_i
 3662      00
 3663 08e6 48C74424 		movq	$131072, 8(%rsp)
 3663      08000002 
 3663      00
 3664 08ef E8000000 		call	_ZN8UnitTest11CurrentTest7ResultsEv
 3664      00
 3665 08f4 488B38   		movq	(%rax), %rdi
 3666 08f7 488D5424 		leaq	32(%rsp), %rdx
 3666      20
 3667 08fc 488D7424 		leaq	8(%rsp), %rsi
 3667      08
 3668 0901 4889D9   		movq	%rbx, %rcx
 3669 0904 E8000000 		call	_ZN8UnitTest10CheckEqualImmEEvRNS_11TestResultsERKT_RKT0_RKNS_11TestDetailsE
 3669      00
 3670              	.LEHE29:
 3671              	.L253:
 3672 0909 488D7C24 		leaq	16(%rsp), %rdi
 3672      10
 3673              	.LEHB30:
 3674 090e E8000000 		call	bufDestroy
 3674      00
 3675              	.LEHE30:
 3676 0913 488B4424 		movq	88(%rsp), %rax
 3676      58
 3677 0918 64483304 		xorq	%fs:40, %rax
 3677      25280000 
 3677      00
 3678 0921 7506     		jne	.L267
 3679 0923 4883C460 		addq	$96, %rsp
 3680              		.cfi_remember_state
 3681              		.cfi_def_cfa_offset 16
 3682 0927 5B       		popq	%rbx
 3683              		.cfi_def_cfa_offset 8
 3684 0928 C3       		ret
 3685              	.L267:
 3686              		.cfi_restore_state
 3687 0929 E8000000 		call	__stack_chk_fail
 3687      00
 3688              	.L262:
 3689 092e 4889C7   		movq	%rax, %rdi
 3690 0931 E8000000 		call	__cxa_begin_catch
 3690      00
 3691              	.LEHB31:
 3692 0936 E8000000 		call	_ZN8UnitTest11CurrentTest7DetailsEv
 3692      00
 3693 093b 488B30   		movq	(%rax), %rsi
 3694 093e BA880100 		movl	$392, %edx
 3694      00
 3695 0943 4889DF   		movq	%rbx, %rdi
 3696 0946 E8000000 		call	_ZN8UnitTest11TestDetailsC1ERKS0_i
 3696      00
 3697 094b E8000000 		call	_ZN8UnitTest11CurrentTest7ResultsEv
 3697      00
 3698 0950 488B38   		movq	(%rax), %rdi
 3699 0953 BA000000 		movl	$.LC106, %edx
 3699      00
 3700 0958 4889DE   		movq	%rbx, %rsi
 3701 095b E8000000 		call	_ZN8UnitTest11TestResults13OnTestFailureERKNS_11TestDetailsEPKc
 3701      00
 3702              	.LEHE31:
 3703              	.LEHB32:
 3704 0960 E8000000 		call	__cxa_end_catch
 3704      00
 3705              	.LEHE32:
 3706 0965 EBA2     		jmp	.L253
 3707              	.L260:
 3708 0967 4889C7   		movq	%rax, %rdi
 3709 096a E8000000 		call	__cxa_begin_catch
 3709      00
 3710              	.LEHB33:
 3711 096f E8000000 		call	_ZN8UnitTest11CurrentTest7DetailsEv
 3711      00
 3712 0974 488B30   		movq	(%rax), %rsi
 3713 0977 BA870100 		movl	$391, %edx
 3713      00
 3714 097c 4889DF   		movq	%rbx, %rdi
 3715 097f E8000000 		call	_ZN8UnitTest11TestDetailsC1ERKS0_i
 3715      00
 3716 0984 E8000000 		call	_ZN8UnitTest11CurrentTest7ResultsEv
 3716      00
 3717 0989 488B38   		movq	(%rax), %rdi
 3718 098c BA000000 		movl	$.LC105, %edx
 3718      00
 3719 0991 4889DE   		movq	%rbx, %rsi
 3720 0994 E8000000 		call	_ZN8UnitTest11TestResults13OnTestFailureERKNS_11TestDetailsEPKc
 3720      00
 3721              	.LEHE33:
 3722              	.LEHB34:
 3723 0999 E8000000 		call	__cxa_end_catch
 3723      00
 3724              	.LEHE34:
 3725 099e E92EFFFF 		jmp	.L250
 3725      FF
 3726              	.L263:
 3727 09a3 4889C3   		movq	%rax, %rbx
 3728 09a6 E8000000 		call	__cxa_end_catch
 3728      00
 3729 09ab 4889DF   		movq	%rbx, %rdi
 3730              	.LEHB35:
 3731 09ae E8000000 		call	_Unwind_Resume
 3731      00
 3732              	.LEHE35:
 3733              	.L261:
 3734 09b3 4889C3   		movq	%rax, %rbx
 3735 09b6 E8000000 		call	__cxa_end_catch
 3735      00
 3736 09bb 4889DF   		movq	%rbx, %rdi
 3737              	.LEHB36:
 3738 09be E8000000 		call	_Unwind_Resume
 3738      00
 3739              	.LEHE36:
 3740              	.L258:
 3741 09c3 4889C7   		movq	%rax, %rdi
 3742 09c6 E8000000 		call	__cxa_begin_catch
 3742      00
 3743              	.LEHB37:
 3744 09cb E8000000 		call	_ZN8UnitTest11CurrentTest7DetailsEv
 3744      00
 3745 09d0 488B30   		movq	(%rax), %rsi
 3746 09d3 BA860100 		movl	$390, %edx
 3746      00
 3747 09d8 4889DF   		movq	%rbx, %rdi
 3748 09db E8000000 		call	_ZN8UnitTest11TestDetailsC1ERKS0_i
 3748      00
 3749 09e0 E8000000 		call	_ZN8UnitTest11CurrentTest7ResultsEv
 3749      00
 3750 09e5 488B38   		movq	(%rax), %rdi
 3751 09e8 BA000000 		movl	$.LC104, %edx
 3751      00
 3752 09ed 4889DE   		movq	%rbx, %rsi
 3753 09f0 E8000000 		call	_ZN8UnitTest11TestResults13OnTestFailureERKNS_11TestDetailsEPKc
 3753      00
 3754              	.LEHE37:
 3755              	.LEHB38:
 3756 09f5 E8000000 		call	__cxa_end_catch
 3756      00
 3757              	.LEHE38:
 3758 09fa E99AFEFF 		jmp	.L247
 3758      FF
 3759              	.L256:
 3760 09ff 4889C7   		movq	%rax, %rdi
 3761 0a02 E8000000 		call	__cxa_begin_catch
 3761      00
 3762              	.LEHB39:
 3763 0a07 E8000000 		call	_ZN8UnitTest11CurrentTest7DetailsEv
 3763      00
 3764 0a0c 488D5C24 		leaq	48(%rsp), %rbx
 3764      30
 3765 0a11 488B30   		movq	(%rax), %rsi
 3766 0a14 BA840100 		movl	$388, %edx
 3766      00
 3767 0a19 4889DF   		movq	%rbx, %rdi
 3768 0a1c E8000000 		call	_ZN8UnitTest11TestDetailsC1ERKS0_i
 3768      00
 3769 0a21 E8000000 		call	_ZN8UnitTest11CurrentTest7ResultsEv
 3769      00
 3770 0a26 488B38   		movq	(%rax), %rdi
 3771 0a29 BA000000 		movl	$.LC104, %edx
 3771      00
 3772 0a2e 4889DE   		movq	%rbx, %rsi
 3773 0a31 E8000000 		call	_ZN8UnitTest11TestResults13OnTestFailureERKNS_11TestDetailsEPKc
 3773      00
 3774              	.LEHE39:
 3775              	.LEHB40:
 3776 0a36 E8000000 		call	__cxa_end_catch
 3776      00
 3777              	.LEHE40:
 3778 0a3b E908FEFF 		jmp	.L244
 3778      FF
 3779              	.L259:
 3780 0a40 4889C3   		movq	%rax, %rbx
 3781 0a43 E8000000 		call	__cxa_end_catch
 3781      00
 3782 0a48 4889DF   		movq	%rbx, %rdi
 3783              	.LEHB41:
 3784 0a4b E8000000 		call	_Unwind_Resume
 3784      00
 3785              	.LEHE41:
 3786              	.L257:
 3787 0a50 4889C3   		movq	%rax, %rbx
 3788 0a53 E8000000 		call	__cxa_end_catch
 3788      00
 3789 0a58 4889DF   		movq	%rbx, %rdi
 3790              	.LEHB42:
 3791 0a5b E8000000 		call	_Unwind_Resume
 3791      00
 3792              	.LEHE42:
 3793              		.cfi_endproc
 3794              	.LFE1213:
 3795              		.section	.gcc_except_table
 3796 0096 0000     		.align 4
 3797              	.LLSDA1213:
 3798 0098 FF       		.byte	0xff
 3799 0099 03       		.byte	0x3
 3800 009a 6D       		.uleb128 .LLSDATT1213-.LLSDATTD1213
 3801              	.LLSDATTD1213:
 3802 009b 01       		.byte	0x1
 3803 009c 64       		.uleb128 .LLSDACSE1213-.LLSDACSB1213
 3804              	.LLSDACSB1213:
 3805 009d 23       		.uleb128 .LEHB24-.LFB1213
 3806 009e 05       		.uleb128 .LEHE24-.LEHB24
 3807 009f 00       		.uleb128 0
 3808 00a0 00       		.uleb128 0
 3809 00a1 2C       		.uleb128 .LEHB25-.LFB1213
 3810 00a2 3C       		.uleb128 .LEHE25-.LEHB25
 3811 00a3 9F04     		.uleb128 .L256-.LFB1213
 3812 00a5 01       		.uleb128 0x1
 3813 00a6 79       		.uleb128 .LEHB26-.LFB1213
 3814 00a7 05       		.uleb128 .LEHE26-.LEHB26
 3815 00a8 00       		.uleb128 0
 3816 00a9 00       		.uleb128 0
 3817 00aa 8201     		.uleb128 .LEHB27-.LFB1213
 3818 00ac 37       		.uleb128 .LEHE27-.LEHB27
 3819 00ad E303     		.uleb128 .L258-.LFB1213
 3820 00af 01       		.uleb128 0x1
 3821 00b0 B901     		.uleb128 .LEHB28-.LFB1213
 3822 00b2 38       		.uleb128 .LEHE28-.LEHB28
 3823 00b3 8703     		.uleb128 .L260-.LFB1213
 3824 00b5 01       		.uleb128 0x1
 3825 00b6 F101     		.uleb128 .LEHB29-.LFB1213
 3826 00b8 38       		.uleb128 .LEHE29-.LEHB29
 3827 00b9 CE02     		.uleb128 .L262-.LFB1213
 3828 00bb 01       		.uleb128 0x1
 3829 00bc AE02     		.uleb128 .LEHB30-.LFB1213
 3830 00be 05       		.uleb128 .LEHE30-.LEHB30
 3831 00bf 00       		.uleb128 0
 3832 00c0 00       		.uleb128 0
 3833 00c1 D602     		.uleb128 .LEHB31-.LFB1213
 3834 00c3 2A       		.uleb128 .LEHE31-.LEHB31
 3835 00c4 C303     		.uleb128 .L263-.LFB1213
 3836 00c6 00       		.uleb128 0
 3837 00c7 8003     		.uleb128 .LEHB32-.LFB1213
 3838 00c9 05       		.uleb128 .LEHE32-.LEHB32
 3839 00ca 00       		.uleb128 0
 3840 00cb 00       		.uleb128 0
 3841 00cc 8F03     		.uleb128 .LEHB33-.LFB1213
 3842 00ce 2A       		.uleb128 .LEHE33-.LEHB33
 3843 00cf D303     		.uleb128 .L261-.LFB1213
 3844 00d1 00       		.uleb128 0
 3845 00d2 B903     		.uleb128 .LEHB34-.LFB1213
 3846 00d4 05       		.uleb128 .LEHE34-.LEHB34
 3847 00d5 00       		.uleb128 0
 3848 00d6 00       		.uleb128 0
 3849 00d7 CE03     		.uleb128 .LEHB35-.LFB1213
 3850 00d9 05       		.uleb128 .LEHE35-.LEHB35
 3851 00da 00       		.uleb128 0
 3852 00db 00       		.uleb128 0
 3853 00dc DE03     		.uleb128 .LEHB36-.LFB1213
 3854 00de 05       		.uleb128 .LEHE36-.LEHB36
 3855 00df 00       		.uleb128 0
 3856 00e0 00       		.uleb128 0
 3857 00e1 EB03     		.uleb128 .LEHB37-.LFB1213
 3858 00e3 2A       		.uleb128 .LEHE37-.LEHB37
 3859 00e4 E004     		.uleb128 .L259-.LFB1213
 3860 00e6 00       		.uleb128 0
 3861 00e7 9504     		.uleb128 .LEHB38-.LFB1213
 3862 00e9 05       		.uleb128 .LEHE38-.LEHB38
 3863 00ea 00       		.uleb128 0
 3864 00eb 00       		.uleb128 0
 3865 00ec A704     		.uleb128 .LEHB39-.LFB1213
 3866 00ee 2F       		.uleb128 .LEHE39-.LEHB39
 3867 00ef F004     		.uleb128 .L257-.LFB1213
 3868 00f1 00       		.uleb128 0
 3869 00f2 D604     		.uleb128 .LEHB40-.LFB1213
 3870 00f4 05       		.uleb128 .LEHE40-.LEHB40
 3871 00f5 00       		.uleb128 0
 3872 00f6 00       		.uleb128 0
 3873 00f7 EB04     		.uleb128 .LEHB41-.LFB1213
 3874 00f9 05       		.uleb128 .LEHE41-.LEHB41
 3875 00fa 00       		.uleb128 0
 3876 00fb 00       		.uleb128 0
 3877 00fc FB04     		.uleb128 .LEHB42-.LFB1213
 3878 00fe 05       		.uleb128 .LEHE42-.LEHB42
 3879 00ff 00       		.uleb128 0
 3880 0100 00       		.uleb128 0
 3881              	.LLSDACSE1213:
 3882 0101 01       		.byte	0x1
 3883 0102 00       		.byte	0
 3884 0103 00       		.align 4
 3885 0104 00000000 		.long	0
 3886              	
 3887              	.LLSDATT1213:
 3888              		.text
 3890              		.section	.text.unlikely
 3891              	.LCOLDE107:
 3892              		.text
 3893              	.LHOTE107:
 3894              		.section	.rodata.str1.8
 3895 00b4 00000000 		.align 8
 3896              	.LC108:
 3897 00b8 556E6861 		.string	"Unhandled exception in CHECK_EQUAL(0UL, buf.length)"
 3897      6E646C65 
 3897      64206578 
 3897      63657074 
 3897      696F6E20 
 3898 00ec 00000000 		.align 8
 3899              	.LC109:
 3900 00f0 556E6861 		.string	"Unhandled exception in CHECK_EQUAL(8UL, buf.capacity)"
 3900      6E646C65 
 3900      64206578 
 3900      63657074 
 3900      696F6E20 
 3901 0126 0000     		.align 8
 3902              	.LC110:
 3903 0128 556E6861 		.string	"Unhandled exception in CHECK_ARRAY_EQUAL(expected, buf.data)"
 3903      6E646C65 
 3903      64206578 
 3903      63657074 
 3903      696F6E20 
 3904              		.section	.text.unlikely
 3905              		.align 2
 3906              	.LCOLDB111:
 3907              		.text
 3908              	.LHOTB111:
 3909              		.align 2
 3910              		.p2align 4,,15
 3911              		.globl	_ZNK27TestCore_testInitialiseZero7RunImplEv
 3913              	_ZNK27TestCore_testInitialiseZero7RunImplEv:
 3914              	.LFB1133:
 3915              		.cfi_startproc
 3916              		.cfi_personality 0x3,__gxx_personality_v0
 3917              		.cfi_lsda 0x3,.LLSDA1133
 3918 0a60 53       		pushq	%rbx
 3919              		.cfi_def_cfa_offset 16
 3920              		.cfi_offset 3, -16
 3921 0a61 31C9     		xorl	%ecx, %ecx
 3922 0a63 31D2     		xorl	%edx, %edx
 3923 0a65 BE080000 		movl	$8, %esi
 3923      00
 3924 0a6a 4883EC60 		subq	$96, %rsp
 3925              		.cfi_def_cfa_offset 112
 3926 0a6e 488D7C24 		leaq	16(%rsp), %rdi
 3926      10
 3927 0a73 64488B04 		movq	%fs:40, %rax
 3927      25280000 
 3927      00
 3928 0a7c 48894424 		movq	%rax, 88(%rsp)
 3928      58
 3929 0a81 31C0     		xorl	%eax, %eax
 3930              	.LEHB43:
 3931 0a83 E8000000 		call	bufInitialise
 3931      00
 3932              	.LEHE43:
 3933 0a88 89442404 		movl	%eax, 4(%rsp)
 3934              	.LEHB44:
 3935 0a8c E8000000 		call	_ZN8UnitTest11CurrentTest7DetailsEv
 3935      00
 3936 0a91 488D5C24 		leaq	48(%rsp), %rbx
 3936      30
 3937 0a96 488B30   		movq	(%rax), %rsi
 3938 0a99 BA180000 		movl	$24, %edx
 3938      00
 3939 0a9e 4889DF   		movq	%rbx, %rdi
 3940 0aa1 E8000000 		call	_ZN8UnitTest11TestDetailsC1ERKS0_i
 3940      00
 3941 0aa6 C7442408 		movl	$0, 8(%rsp)
 3941      00000000 
 3942 0aae E8000000 		call	_ZN8UnitTest11CurrentTest7ResultsEv
 3942      00
 3943 0ab3 488B38   		movq	(%rax), %rdi
 3944 0ab6 488D5424 		leaq	4(%rsp), %rdx
 3944      04
 3945 0abb 488D7424 		leaq	8(%rsp), %rsi
 3945      08
 3946 0ac0 4889D9   		movq	%rbx, %rcx
 3947 0ac3 E8000000 		call	_ZN8UnitTest10CheckEqualI12BufferStatusS1_EEvRNS_11TestResultsERKT_RKT0_RKNS_11TestDetailsE
 3947      00
 3948              	.LEHE44:
 3949              	.L270:
 3950              	.LEHB45:
 3951 0ac8 E8000000 		call	_ZN8UnitTest11CurrentTest7DetailsEv
 3951      00
 3952 0acd 488B30   		movq	(%rax), %rsi
 3953 0ad0 BA190000 		movl	$25, %edx
 3953      00
 3954 0ad5 4889DF   		movq	%rbx, %rdi
 3955 0ad8 E8000000 		call	_ZN8UnitTest11TestDetailsC1ERKS0_i
 3955      00
 3956 0add 48C74424 		movq	$0, 8(%rsp)
 3956      08000000 
 3956      00
 3957 0ae6 E8000000 		call	_ZN8UnitTest11CurrentTest7ResultsEv
 3957      00
 3958 0aeb 488B38   		movq	(%rax), %rdi
 3959 0aee 488D5424 		leaq	24(%rsp), %rdx
 3959      18
 3960 0af3 488D7424 		leaq	8(%rsp), %rsi
 3960      08
 3961 0af8 4889D9   		movq	%rbx, %rcx
 3962 0afb E8000000 		call	_ZN8UnitTest10CheckEqualImmEEvRNS_11TestResultsERKT_RKT0_RKNS_11TestDetailsE
 3962      00
 3963              	.LEHE45:
 3964              	.L273:
 3965              	.LEHB46:
 3966 0b00 E8000000 		call	_ZN8UnitTest11CurrentTest7DetailsEv
 3966      00
 3967 0b05 488B30   		movq	(%rax), %rsi
 3968 0b08 BA1A0000 		movl	$26, %edx
 3968      00
 3969 0b0d 4889DF   		movq	%rbx, %rdi
 3970 0b10 E8000000 		call	_ZN8UnitTest11TestDetailsC1ERKS0_i
 3970      00
 3971 0b15 48C74424 		movq	$8, 8(%rsp)
 3971      08080000 
 3971      00
 3972 0b1e E8000000 		call	_ZN8UnitTest11CurrentTest7ResultsEv
 3972      00
 3973 0b23 488B38   		movq	(%rax), %rdi
 3974 0b26 488D5424 		leaq	32(%rsp), %rdx
 3974      20
 3975 0b2b 488D7424 		leaq	8(%rsp), %rsi
 3975      08
 3976 0b30 4889D9   		movq	%rbx, %rcx
 3977 0b33 E8000000 		call	_ZN8UnitTest10CheckEqualImmEEvRNS_11TestResultsERKT_RKT0_RKNS_11TestDetailsE
 3977      00
 3978              	.LEHE46:
 3979              	.L276:
 3980 0b38 48C74424 		movq	$0, 80(%rsp)
 3980      50000000 
 3980      00
 3981              	.LEHB47:
 3982 0b41 E8000000 		call	_ZN8UnitTest11CurrentTest7DetailsEv
 3982      00
 3983 0b46 488B30   		movq	(%rax), %rsi
 3984 0b49 BA1C0000 		movl	$28, %edx
 3984      00
 3985 0b4e 4889DF   		movq	%rbx, %rdi
 3986 0b51 E8000000 		call	_ZN8UnitTest11TestDetailsC1ERKS0_i
 3986      00
 3987 0b56 E8000000 		call	_ZN8UnitTest11CurrentTest7ResultsEv
 3987      00
 3988 0b5b 488B38   		movq	(%rax), %rdi
 3989 0b5e 488D5424 		leaq	16(%rsp), %rdx
 3989      10
 3990 0b63 488D7424 		leaq	80(%rsp), %rsi
 3990      50
 3991 0b68 4889D9   		movq	%rbx, %rcx
 3992 0b6b E890F4FF 		call	_ZN8UnitTest15CheckArrayEqualIA8_hPhEEvRNS_11TestResultsERKT_RKT0_iRKNS_11TestDetailsE.constp
 3992      FF
 3993              	.LEHE47:
 3994              	.L279:
 3995 0b70 488D7C24 		leaq	16(%rsp), %rdi
 3995      10
 3996              	.LEHB48:
 3997 0b75 E8000000 		call	bufDestroy
 3997      00
 3998              	.LEHE48:
 3999 0b7a 488B4424 		movq	88(%rsp), %rax
 3999      58
 4000 0b7f 64483304 		xorq	%fs:40, %rax
 4000      25280000 
 4000      00
 4001 0b88 7506     		jne	.L293
 4002 0b8a 4883C460 		addq	$96, %rsp
 4003              		.cfi_remember_state
 4004              		.cfi_def_cfa_offset 16
 4005 0b8e 5B       		popq	%rbx
 4006              		.cfi_def_cfa_offset 8
 4007 0b8f C3       		ret
 4008              	.L293:
 4009              		.cfi_restore_state
 4010 0b90 E8000000 		call	__stack_chk_fail
 4010      00
 4011              	.L288:
 4012 0b95 4889C7   		movq	%rax, %rdi
 4013 0b98 E8000000 		call	__cxa_begin_catch
 4013      00
 4014              	.LEHB49:
 4015 0b9d E8000000 		call	_ZN8UnitTest11CurrentTest7DetailsEv
 4015      00
 4016 0ba2 488B30   		movq	(%rax), %rsi
 4017 0ba5 BA1C0000 		movl	$28, %edx
 4017      00
 4018 0baa 4889DF   		movq	%rbx, %rdi
 4019 0bad E8000000 		call	_ZN8UnitTest11TestDetailsC1ERKS0_i
 4019      00
 4020 0bb2 E8000000 		call	_ZN8UnitTest11CurrentTest7ResultsEv
 4020      00
 4021 0bb7 488B38   		movq	(%rax), %rdi
 4022 0bba BA000000 		movl	$.LC110, %edx
 4022      00
 4023 0bbf 4889DE   		movq	%rbx, %rsi
 4024 0bc2 E8000000 		call	_ZN8UnitTest11TestResults13OnTestFailureERKNS_11TestDetailsEPKc
 4024      00
 4025              	.LEHE49:
 4026              	.LEHB50:
 4027 0bc7 E8000000 		call	__cxa_end_catch
 4027      00
 4028              	.LEHE50:
 4029 0bcc EBA2     		jmp	.L279
 4030              	.L286:
 4031 0bce 4889C7   		movq	%rax, %rdi
 4032 0bd1 E8000000 		call	__cxa_begin_catch
 4032      00
 4033              	.LEHB51:
 4034 0bd6 E8000000 		call	_ZN8UnitTest11CurrentTest7DetailsEv
 4034      00
 4035 0bdb 488B30   		movq	(%rax), %rsi
 4036 0bde BA1A0000 		movl	$26, %edx
 4036      00
 4037 0be3 4889DF   		movq	%rbx, %rdi
 4038 0be6 E8000000 		call	_ZN8UnitTest11TestDetailsC1ERKS0_i
 4038      00
 4039 0beb E8000000 		call	_ZN8UnitTest11CurrentTest7ResultsEv
 4039      00
 4040 0bf0 488B38   		movq	(%rax), %rdi
 4041 0bf3 BA000000 		movl	$.LC109, %edx
 4041      00
 4042 0bf8 4889DE   		movq	%rbx, %rsi
 4043 0bfb E8000000 		call	_ZN8UnitTest11TestResults13OnTestFailureERKNS_11TestDetailsEPKc
 4043      00
 4044              	.LEHE51:
 4045              	.LEHB52:
 4046 0c00 E8000000 		call	__cxa_end_catch
 4046      00
 4047              	.LEHE52:
 4048 0c05 E92EFFFF 		jmp	.L276
 4048      FF
 4049              	.L289:
 4050 0c0a 4889C3   		movq	%rax, %rbx
 4051 0c0d E8000000 		call	__cxa_end_catch
 4051      00
 4052 0c12 4889DF   		movq	%rbx, %rdi
 4053              	.LEHB53:
 4054 0c15 E8000000 		call	_Unwind_Resume
 4054      00
 4055              	.LEHE53:
 4056              	.L287:
 4057 0c1a 4889C3   		movq	%rax, %rbx
 4058 0c1d E8000000 		call	__cxa_end_catch
 4058      00
 4059 0c22 4889DF   		movq	%rbx, %rdi
 4060              	.LEHB54:
 4061 0c25 E8000000 		call	_Unwind_Resume
 4061      00
 4062              	.LEHE54:
 4063              	.L284:
 4064 0c2a 4889C7   		movq	%rax, %rdi
 4065 0c2d E8000000 		call	__cxa_begin_catch
 4065      00
 4066              	.LEHB55:
 4067 0c32 E8000000 		call	_ZN8UnitTest11CurrentTest7DetailsEv
 4067      00
 4068 0c37 488B30   		movq	(%rax), %rsi
 4069 0c3a BA190000 		movl	$25, %edx
 4069      00
 4070 0c3f 4889DF   		movq	%rbx, %rdi
 4071 0c42 E8000000 		call	_ZN8UnitTest11TestDetailsC1ERKS0_i
 4071      00
 4072 0c47 E8000000 		call	_ZN8UnitTest11CurrentTest7ResultsEv
 4072      00
 4073 0c4c 488B38   		movq	(%rax), %rdi
 4074 0c4f BA000000 		movl	$.LC108, %edx
 4074      00
 4075 0c54 4889DE   		movq	%rbx, %rsi
 4076 0c57 E8000000 		call	_ZN8UnitTest11TestResults13OnTestFailureERKNS_11TestDetailsEPKc
 4076      00
 4077              	.LEHE55:
 4078              	.LEHB56:
 4079 0c5c E8000000 		call	__cxa_end_catch
 4079      00
 4080              	.LEHE56:
 4081 0c61 E99AFEFF 		jmp	.L273
 4081      FF
 4082              	.L282:
 4083 0c66 4889C7   		movq	%rax, %rdi
 4084 0c69 E8000000 		call	__cxa_begin_catch
 4084      00
 4085              	.LEHB57:
 4086 0c6e E8000000 		call	_ZN8UnitTest11CurrentTest7DetailsEv
 4086      00
 4087 0c73 488D5C24 		leaq	48(%rsp), %rbx
 4087      30
 4088 0c78 488B30   		movq	(%rax), %rsi
 4089 0c7b BA180000 		movl	$24, %edx
 4089      00
 4090 0c80 4889DF   		movq	%rbx, %rdi
 4091 0c83 E8000000 		call	_ZN8UnitTest11TestDetailsC1ERKS0_i
 4091      00
 4092 0c88 E8000000 		call	_ZN8UnitTest11CurrentTest7ResultsEv
 4092      00
 4093 0c8d 488B38   		movq	(%rax), %rdi
 4094 0c90 BA000000 		movl	$.LC104, %edx
 4094      00
 4095 0c95 4889DE   		movq	%rbx, %rsi
 4096 0c98 E8000000 		call	_ZN8UnitTest11TestResults13OnTestFailureERKNS_11TestDetailsEPKc
 4096      00
 4097              	.LEHE57:
 4098              	.LEHB58:
 4099 0c9d E8000000 		call	__cxa_end_catch
 4099      00
 4100              	.LEHE58:
 4101 0ca2 E921FEFF 		jmp	.L270
 4101      FF
 4102              	.L285:
 4103 0ca7 4889C3   		movq	%rax, %rbx
 4104 0caa E8000000 		call	__cxa_end_catch
 4104      00
 4105 0caf 4889DF   		movq	%rbx, %rdi
 4106              	.LEHB59:
 4107 0cb2 E8000000 		call	_Unwind_Resume
 4107      00
 4108              	.LEHE59:
 4109              	.L283:
 4110 0cb7 4889C3   		movq	%rax, %rbx
 4111 0cba E8000000 		call	__cxa_end_catch
 4111      00
 4112 0cbf 4889DF   		movq	%rbx, %rdi
 4113              	.LEHB60:
 4114 0cc2 E8000000 		call	_Unwind_Resume
 4114      00
 4115              	.LEHE60:
 4116              		.cfi_endproc
 4117              	.LFE1133:
 4118              		.section	.gcc_except_table
 4119              		.align 4
 4120              	.LLSDA1133:
 4121 0108 FF       		.byte	0xff
 4122 0109 03       		.byte	0x3
 4123 010a 69       		.uleb128 .LLSDATT1133-.LLSDATTD1133
 4124              	.LLSDATTD1133:
 4125 010b 01       		.byte	0x1
 4126 010c 5F       		.uleb128 .LLSDACSE1133-.LLSDACSB1133
 4127              	.LLSDACSB1133:
 4128 010d 23       		.uleb128 .LEHB43-.LFB1133
 4129 010e 05       		.uleb128 .LEHE43-.LEHB43
 4130 010f 00       		.uleb128 0
 4131 0110 00       		.uleb128 0
 4132 0111 2C       		.uleb128 .LEHB44-.LFB1133
 4133 0112 3C       		.uleb128 .LEHE44-.LEHB44
 4134 0113 8604     		.uleb128 .L282-.LFB1133
 4135 0115 01       		.uleb128 0x1
 4136 0116 68       		.uleb128 .LEHB45-.LFB1133
 4137 0117 38       		.uleb128 .LEHE45-.LEHB45
 4138 0118 CA03     		.uleb128 .L284-.LFB1133
 4139 011a 01       		.uleb128 0x1
 4140 011b A001     		.uleb128 .LEHB46-.LFB1133
 4141 011d 38       		.uleb128 .LEHE46-.LEHB46
 4142 011e EE02     		.uleb128 .L286-.LFB1133
 4143 0120 01       		.uleb128 0x1
 4144 0121 E101     		.uleb128 .LEHB47-.LFB1133
 4145 0123 2F       		.uleb128 .LEHE47-.LEHB47
 4146 0124 B502     		.uleb128 .L288-.LFB1133
 4147 0126 01       		.uleb128 0x1
 4148 0127 9502     		.uleb128 .LEHB48-.LFB1133
 4149 0129 05       		.uleb128 .LEHE48-.LEHB48
 4150 012a 00       		.uleb128 0
 4151 012b 00       		.uleb128 0
 4152 012c BD02     		.uleb128 .LEHB49-.LFB1133
 4153 012e 2A       		.uleb128 .LEHE49-.LEHB49
 4154 012f AA03     		.uleb128 .L289-.LFB1133
 4155 0131 00       		.uleb128 0
 4156 0132 E702     		.uleb128 .LEHB50-.LFB1133
 4157 0134 05       		.uleb128 .LEHE50-.LEHB50
 4158 0135 00       		.uleb128 0
 4159 0136 00       		.uleb128 0
 4160 0137 F602     		.uleb128 .LEHB51-.LFB1133
 4161 0139 2A       		.uleb128 .LEHE51-.LEHB51
 4162 013a BA03     		.uleb128 .L287-.LFB1133
 4163 013c 00       		.uleb128 0
 4164 013d A003     		.uleb128 .LEHB52-.LFB1133
 4165 013f 05       		.uleb128 .LEHE52-.LEHB52
 4166 0140 00       		.uleb128 0
 4167 0141 00       		.uleb128 0
 4168 0142 B503     		.uleb128 .LEHB53-.LFB1133
 4169 0144 05       		.uleb128 .LEHE53-.LEHB53
 4170 0145 00       		.uleb128 0
 4171 0146 00       		.uleb128 0
 4172 0147 C503     		.uleb128 .LEHB54-.LFB1133
 4173 0149 05       		.uleb128 .LEHE54-.LEHB54
 4174 014a 00       		.uleb128 0
 4175 014b 00       		.uleb128 0
 4176 014c D203     		.uleb128 .LEHB55-.LFB1133
 4177 014e 2A       		.uleb128 .LEHE55-.LEHB55
 4178 014f C704     		.uleb128 .L285-.LFB1133
 4179 0151 00       		.uleb128 0
 4180 0152 FC03     		.uleb128 .LEHB56-.LFB1133
 4181 0154 05       		.uleb128 .LEHE56-.LEHB56
 4182 0155 00       		.uleb128 0
 4183 0156 00       		.uleb128 0
 4184 0157 8E04     		.uleb128 .LEHB57-.LFB1133
 4185 0159 2F       		.uleb128 .LEHE57-.LEHB57
 4186 015a D704     		.uleb128 .L283-.LFB1133
 4187 015c 00       		.uleb128 0
 4188 015d BD04     		.uleb128 .LEHB58-.LFB1133
 4189 015f 05       		.uleb128 .LEHE58-.LEHB58
 4190 0160 00       		.uleb128 0
 4191 0161 00       		.uleb128 0
 4192 0162 D204     		.uleb128 .LEHB59-.LFB1133
 4193 0164 05       		.uleb128 .LEHE59-.LEHB59
 4194 0165 00       		.uleb128 0
 4195 0166 00       		.uleb128 0
 4196 0167 E204     		.uleb128 .LEHB60-.LFB1133
 4197 0169 05       		.uleb128 .LEHE60-.LEHB60
 4198 016a 00       		.uleb128 0
 4199 016b 00       		.uleb128 0
 4200              	.LLSDACSE1133:
 4201 016c 01       		.byte	0x1
 4202 016d 00       		.byte	0
 4203 016e 0000     		.align 4
 4204 0170 00000000 		.long	0
 4205              	
 4206              	.LLSDATT1133:
 4207              		.text
 4209              		.section	.text.unlikely
 4210              	.LCOLDE111:
 4211              		.text
 4212              	.LHOTE111:
 4213              		.section	.text.unlikely
 4214              		.align 2
 4215              	.LCOLDB112:
 4216              		.text
 4217              	.LHOTB112:
 4218 0cc7 90       		.align 2
 4219 0cc8 0F1F8400 		.p2align 4,,15
 4219      00000000 
 4220              		.globl	_ZNK25TestCore_testInitialiseFF7RunImplEv
 4222              	_ZNK25TestCore_testInitialiseFF7RunImplEv:
 4223              	.LFB1137:
 4224              		.cfi_startproc
 4225              		.cfi_personality 0x3,__gxx_personality_v0
 4226              		.cfi_lsda 0x3,.LLSDA1137
 4227 0cd0 53       		pushq	%rbx
 4228              		.cfi_def_cfa_offset 16
 4229              		.cfi_offset 3, -16
 4230 0cd1 31C9     		xorl	%ecx, %ecx
 4231 0cd3 BAFF0000 		movl	$255, %edx
 4231      00
 4232 0cd8 BE080000 		movl	$8, %esi
 4232      00
 4233 0cdd 4883EC60 		subq	$96, %rsp
 4234              		.cfi_def_cfa_offset 112
 4235 0ce1 488D7C24 		leaq	16(%rsp), %rdi
 4235      10
 4236 0ce6 64488B04 		movq	%fs:40, %rax
 4236      25280000 
 4236      00
 4237 0cef 48894424 		movq	%rax, 88(%rsp)
 4237      58
 4238 0cf4 31C0     		xorl	%eax, %eax
 4239              	.LEHB61:
 4240 0cf6 E8000000 		call	bufInitialise
 4240      00
 4241              	.LEHE61:
 4242 0cfb 89442404 		movl	%eax, 4(%rsp)
 4243              	.LEHB62:
 4244 0cff E8000000 		call	_ZN8UnitTest11CurrentTest7DetailsEv
 4244      00
 4245 0d04 488D5C24 		leaq	48(%rsp), %rbx
 4245      30
 4246 0d09 488B30   		movq	(%rax), %rsi
 4247 0d0c BA230000 		movl	$35, %edx
 4247      00
 4248 0d11 4889DF   		movq	%rbx, %rdi
 4249 0d14 E8000000 		call	_ZN8UnitTest11TestDetailsC1ERKS0_i
 4249      00
 4250 0d19 C7442408 		movl	$0, 8(%rsp)
 4250      00000000 
 4251 0d21 E8000000 		call	_ZN8UnitTest11CurrentTest7ResultsEv
 4251      00
 4252 0d26 488B38   		movq	(%rax), %rdi
 4253 0d29 488D5424 		leaq	4(%rsp), %rdx
 4253      04
 4254 0d2e 488D7424 		leaq	8(%rsp), %rsi
 4254      08
 4255 0d33 4889D9   		movq	%rbx, %rcx
 4256 0d36 E8000000 		call	_ZN8UnitTest10CheckEqualI12BufferStatusS1_EEvRNS_11TestResultsERKT_RKT0_RKNS_11TestDetailsE
 4256      00
 4257              	.LEHE62:
 4258              	.L296:
 4259              	.LEHB63:
 4260 0d3b E8000000 		call	_ZN8UnitTest11CurrentTest7DetailsEv
 4260      00
 4261 0d40 488B30   		movq	(%rax), %rsi
 4262 0d43 BA240000 		movl	$36, %edx
 4262      00
 4263 0d48 4889DF   		movq	%rbx, %rdi
 4264 0d4b E8000000 		call	_ZN8UnitTest11TestDetailsC1ERKS0_i
 4264      00
 4265 0d50 48C74424 		movq	$0, 8(%rsp)
 4265      08000000 
 4265      00
 4266 0d59 E8000000 		call	_ZN8UnitTest11CurrentTest7ResultsEv
 4266      00
 4267 0d5e 488B38   		movq	(%rax), %rdi
 4268 0d61 488D5424 		leaq	24(%rsp), %rdx
 4268      18
 4269 0d66 488D7424 		leaq	8(%rsp), %rsi
 4269      08
 4270 0d6b 4889D9   		movq	%rbx, %rcx
 4271 0d6e E8000000 		call	_ZN8UnitTest10CheckEqualImmEEvRNS_11TestResultsERKT_RKT0_RKNS_11TestDetailsE
 4271      00
 4272              	.LEHE63:
 4273              	.L299:
 4274              	.LEHB64:
 4275 0d73 E8000000 		call	_ZN8UnitTest11CurrentTest7DetailsEv
 4275      00
 4276 0d78 488B30   		movq	(%rax), %rsi
 4277 0d7b BA250000 		movl	$37, %edx
 4277      00
 4278 0d80 4889DF   		movq	%rbx, %rdi
 4279 0d83 E8000000 		call	_ZN8UnitTest11TestDetailsC1ERKS0_i
 4279      00
 4280 0d88 48C74424 		movq	$8, 8(%rsp)
 4280      08080000 
 4280      00
 4281 0d91 E8000000 		call	_ZN8UnitTest11CurrentTest7ResultsEv
 4281      00
 4282 0d96 488B38   		movq	(%rax), %rdi
 4283 0d99 488D5424 		leaq	32(%rsp), %rdx
 4283      20
 4284 0d9e 488D7424 		leaq	8(%rsp), %rsi
 4284      08
 4285 0da3 4889D9   		movq	%rbx, %rcx
 4286 0da6 E8000000 		call	_ZN8UnitTest10CheckEqualImmEEvRNS_11TestResultsERKT_RKT0_RKNS_11TestDetailsE
 4286      00
 4287              	.LEHE64:
 4288              	.L302:
 4289 0dab C6442450 		movb	$-1, 80(%rsp)
 4289      FF
 4290 0db0 C6442451 		movb	$-1, 81(%rsp)
 4290      FF
 4291 0db5 C6442452 		movb	$-1, 82(%rsp)
 4291      FF
 4292 0dba C6442453 		movb	$-1, 83(%rsp)
 4292      FF
 4293 0dbf C6442454 		movb	$-1, 84(%rsp)
 4293      FF
 4294 0dc4 C6442455 		movb	$-1, 85(%rsp)
 4294      FF
 4295 0dc9 C6442456 		movb	$-1, 86(%rsp)
 4295      FF
 4296 0dce C6442457 		movb	$-1, 87(%rsp)
 4296      FF
 4297              	.LEHB65:
 4298 0dd3 E8000000 		call	_ZN8UnitTest11CurrentTest7DetailsEv
 4298      00
 4299 0dd8 488B30   		movq	(%rax), %rsi
 4300 0ddb BA280000 		movl	$40, %edx
 4300      00
 4301 0de0 4889DF   		movq	%rbx, %rdi
 4302 0de3 E8000000 		call	_ZN8UnitTest11TestDetailsC1ERKS0_i
 4302      00
 4303 0de8 E8000000 		call	_ZN8UnitTest11CurrentTest7ResultsEv
 4303      00
 4304 0ded 488B38   		movq	(%rax), %rdi
 4305 0df0 488D5424 		leaq	16(%rsp), %rdx
 4305      10
 4306 0df5 488D7424 		leaq	80(%rsp), %rsi
 4306      50
 4307 0dfa 4889D9   		movq	%rbx, %rcx
 4308 0dfd E8FEF1FF 		call	_ZN8UnitTest15CheckArrayEqualIA8_hPhEEvRNS_11TestResultsERKT_RKT0_iRKNS_11TestDetailsE.constp
 4308      FF
 4309              	.LEHE65:
 4310              	.L305:
 4311 0e02 488D7C24 		leaq	16(%rsp), %rdi
 4311      10
 4312              	.LEHB66:
 4313 0e07 E8000000 		call	bufDestroy
 4313      00
 4314              	.LEHE66:
 4315 0e0c 488B4424 		movq	88(%rsp), %rax
 4315      58
 4316 0e11 64483304 		xorq	%fs:40, %rax
 4316      25280000 
 4316      00
 4317 0e1a 7506     		jne	.L319
 4318 0e1c 4883C460 		addq	$96, %rsp
 4319              		.cfi_remember_state
 4320              		.cfi_def_cfa_offset 16
 4321 0e20 5B       		popq	%rbx
 4322              		.cfi_def_cfa_offset 8
 4323 0e21 C3       		ret
 4324              	.L319:
 4325              		.cfi_restore_state
 4326 0e22 E8000000 		call	__stack_chk_fail
 4326      00
 4327              	.L314:
 4328 0e27 4889C7   		movq	%rax, %rdi
 4329 0e2a E8000000 		call	__cxa_begin_catch
 4329      00
 4330              	.LEHB67:
 4331 0e2f E8000000 		call	_ZN8UnitTest11CurrentTest7DetailsEv
 4331      00
 4332 0e34 488B30   		movq	(%rax), %rsi
 4333 0e37 BA280000 		movl	$40, %edx
 4333      00
 4334 0e3c 4889DF   		movq	%rbx, %rdi
 4335 0e3f E8000000 		call	_ZN8UnitTest11TestDetailsC1ERKS0_i
 4335      00
 4336 0e44 E8000000 		call	_ZN8UnitTest11CurrentTest7ResultsEv
 4336      00
 4337 0e49 488B38   		movq	(%rax), %rdi
 4338 0e4c BA000000 		movl	$.LC110, %edx
 4338      00
 4339 0e51 4889DE   		movq	%rbx, %rsi
 4340 0e54 E8000000 		call	_ZN8UnitTest11TestResults13OnTestFailureERKNS_11TestDetailsEPKc
 4340      00
 4341              	.LEHE67:
 4342              	.LEHB68:
 4343 0e59 E8000000 		call	__cxa_end_catch
 4343      00
 4344              	.LEHE68:
 4345 0e5e EBA2     		jmp	.L305
 4346              	.L312:
 4347 0e60 4889C7   		movq	%rax, %rdi
 4348 0e63 E8000000 		call	__cxa_begin_catch
 4348      00
 4349              	.LEHB69:
 4350 0e68 E8000000 		call	_ZN8UnitTest11CurrentTest7DetailsEv
 4350      00
 4351 0e6d 488B30   		movq	(%rax), %rsi
 4352 0e70 BA250000 		movl	$37, %edx
 4352      00
 4353 0e75 4889DF   		movq	%rbx, %rdi
 4354 0e78 E8000000 		call	_ZN8UnitTest11TestDetailsC1ERKS0_i
 4354      00
 4355 0e7d E8000000 		call	_ZN8UnitTest11CurrentTest7ResultsEv
 4355      00
 4356 0e82 488B38   		movq	(%rax), %rdi
 4357 0e85 BA000000 		movl	$.LC109, %edx
 4357      00
 4358 0e8a 4889DE   		movq	%rbx, %rsi
 4359 0e8d E8000000 		call	_ZN8UnitTest11TestResults13OnTestFailureERKNS_11TestDetailsEPKc
 4359      00
 4360              	.LEHE69:
 4361              	.LEHB70:
 4362 0e92 E8000000 		call	__cxa_end_catch
 4362      00
 4363              	.LEHE70:
 4364 0e97 E90FFFFF 		jmp	.L302
 4364      FF
 4365              	.L315:
 4366 0e9c 4889C3   		movq	%rax, %rbx
 4367 0e9f E8000000 		call	__cxa_end_catch
 4367      00
 4368 0ea4 4889DF   		movq	%rbx, %rdi
 4369              	.LEHB71:
 4370 0ea7 E8000000 		call	_Unwind_Resume
 4370      00
 4371              	.LEHE71:
 4372              	.L313:
 4373 0eac 4889C3   		movq	%rax, %rbx
 4374 0eaf E8000000 		call	__cxa_end_catch
 4374      00
 4375 0eb4 4889DF   		movq	%rbx, %rdi
 4376              	.LEHB72:
 4377 0eb7 E8000000 		call	_Unwind_Resume
 4377      00
 4378              	.LEHE72:
 4379              	.L310:
 4380 0ebc 4889C7   		movq	%rax, %rdi
 4381 0ebf E8000000 		call	__cxa_begin_catch
 4381      00
 4382              	.LEHB73:
 4383 0ec4 E8000000 		call	_ZN8UnitTest11CurrentTest7DetailsEv
 4383      00
 4384 0ec9 488B30   		movq	(%rax), %rsi
 4385 0ecc BA240000 		movl	$36, %edx
 4385      00
 4386 0ed1 4889DF   		movq	%rbx, %rdi
 4387 0ed4 E8000000 		call	_ZN8UnitTest11TestDetailsC1ERKS0_i
 4387      00
 4388 0ed9 E8000000 		call	_ZN8UnitTest11CurrentTest7ResultsEv
 4388      00
 4389 0ede 488B38   		movq	(%rax), %rdi
 4390 0ee1 BA000000 		movl	$.LC108, %edx
 4390      00
 4391 0ee6 4889DE   		movq	%rbx, %rsi
 4392 0ee9 E8000000 		call	_ZN8UnitTest11TestResults13OnTestFailureERKNS_11TestDetailsEPKc
 4392      00
 4393              	.LEHE73:
 4394              	.LEHB74:
 4395 0eee E8000000 		call	__cxa_end_catch
 4395      00
 4396              	.LEHE74:
 4397 0ef3 E97BFEFF 		jmp	.L299
 4397      FF
 4398              	.L308:
 4399 0ef8 4889C7   		movq	%rax, %rdi
 4400 0efb E8000000 		call	__cxa_begin_catch
 4400      00
 4401              	.LEHB75:
 4402 0f00 E8000000 		call	_ZN8UnitTest11CurrentTest7DetailsEv
 4402      00
 4403 0f05 488D5C24 		leaq	48(%rsp), %rbx
 4403      30
 4404 0f0a 488B30   		movq	(%rax), %rsi
 4405 0f0d BA230000 		movl	$35, %edx
 4405      00
 4406 0f12 4889DF   		movq	%rbx, %rdi
 4407 0f15 E8000000 		call	_ZN8UnitTest11TestDetailsC1ERKS0_i
 4407      00
 4408 0f1a E8000000 		call	_ZN8UnitTest11CurrentTest7ResultsEv
 4408      00
 4409 0f1f 488B38   		movq	(%rax), %rdi
 4410 0f22 BA000000 		movl	$.LC104, %edx
 4410      00
 4411 0f27 4889DE   		movq	%rbx, %rsi
 4412 0f2a E8000000 		call	_ZN8UnitTest11TestResults13OnTestFailureERKNS_11TestDetailsEPKc
 4412      00
 4413              	.LEHE75:
 4414              	.LEHB76:
 4415 0f2f E8000000 		call	__cxa_end_catch
 4415      00
 4416              	.LEHE76:
 4417 0f34 E902FEFF 		jmp	.L296
 4417      FF
 4418              	.L311:
 4419 0f39 4889C3   		movq	%rax, %rbx
 4420 0f3c E8000000 		call	__cxa_end_catch
 4420      00
 4421 0f41 4889DF   		movq	%rbx, %rdi
 4422              	.LEHB77:
 4423 0f44 E8000000 		call	_Unwind_Resume
 4423      00
 4424              	.LEHE77:
 4425              	.L309:
 4426 0f49 4889C3   		movq	%rax, %rbx
 4427 0f4c E8000000 		call	__cxa_end_catch
 4427      00
 4428 0f51 4889DF   		movq	%rbx, %rdi
 4429              	.LEHB78:
 4430 0f54 E8000000 		call	_Unwind_Resume
 4430      00
 4431              	.LEHE78:
 4432              		.cfi_endproc
 4433              	.LFE1137:
 4434              		.section	.gcc_except_table
 4435              		.align 4
 4436              	.LLSDA1137:
 4437 0174 FF       		.byte	0xff
 4438 0175 03       		.byte	0x3
 4439 0176 69       		.uleb128 .LLSDATT1137-.LLSDATTD1137
 4440              	.LLSDATTD1137:
 4441 0177 01       		.byte	0x1
 4442 0178 5F       		.uleb128 .LLSDACSE1137-.LLSDACSB1137
 4443              	.LLSDACSB1137:
 4444 0179 26       		.uleb128 .LEHB61-.LFB1137
 4445 017a 05       		.uleb128 .LEHE61-.LEHB61
 4446 017b 00       		.uleb128 0
 4447 017c 00       		.uleb128 0
 4448 017d 2F       		.uleb128 .LEHB62-.LFB1137
 4449 017e 3C       		.uleb128 .LEHE62-.LEHB62
 4450 017f A804     		.uleb128 .L308-.LFB1137
 4451 0181 01       		.uleb128 0x1
 4452 0182 6B       		.uleb128 .LEHB63-.LFB1137
 4453 0183 38       		.uleb128 .LEHE63-.LEHB63
 4454 0184 EC03     		.uleb128 .L310-.LFB1137
 4455 0186 01       		.uleb128 0x1
 4456 0187 A301     		.uleb128 .LEHB64-.LFB1137
 4457 0189 38       		.uleb128 .LEHE64-.LEHB64
 4458 018a 9003     		.uleb128 .L312-.LFB1137
 4459 018c 01       		.uleb128 0x1
 4460 018d 8302     		.uleb128 .LEHB65-.LFB1137
 4461 018f 2F       		.uleb128 .LEHE65-.LEHB65
 4462 0190 D702     		.uleb128 .L314-.LFB1137
 4463 0192 01       		.uleb128 0x1
 4464 0193 B702     		.uleb128 .LEHB66-.LFB1137
 4465 0195 05       		.uleb128 .LEHE66-.LEHB66
 4466 0196 00       		.uleb128 0
 4467 0197 00       		.uleb128 0
 4468 0198 DF02     		.uleb128 .LEHB67-.LFB1137
 4469 019a 2A       		.uleb128 .LEHE67-.LEHB67
 4470 019b CC03     		.uleb128 .L315-.LFB1137
 4471 019d 00       		.uleb128 0
 4472 019e 8903     		.uleb128 .LEHB68-.LFB1137
 4473 01a0 05       		.uleb128 .LEHE68-.LEHB68
 4474 01a1 00       		.uleb128 0
 4475 01a2 00       		.uleb128 0
 4476 01a3 9803     		.uleb128 .LEHB69-.LFB1137
 4477 01a5 2A       		.uleb128 .LEHE69-.LEHB69
 4478 01a6 DC03     		.uleb128 .L313-.LFB1137
 4479 01a8 00       		.uleb128 0
 4480 01a9 C203     		.uleb128 .LEHB70-.LFB1137
 4481 01ab 05       		.uleb128 .LEHE70-.LEHB70
 4482 01ac 00       		.uleb128 0
 4483 01ad 00       		.uleb128 0
 4484 01ae D703     		.uleb128 .LEHB71-.LFB1137
 4485 01b0 05       		.uleb128 .LEHE71-.LEHB71
 4486 01b1 00       		.uleb128 0
 4487 01b2 00       		.uleb128 0
 4488 01b3 E703     		.uleb128 .LEHB72-.LFB1137
 4489 01b5 05       		.uleb128 .LEHE72-.LEHB72
 4490 01b6 00       		.uleb128 0
 4491 01b7 00       		.uleb128 0
 4492 01b8 F403     		.uleb128 .LEHB73-.LFB1137
 4493 01ba 2A       		.uleb128 .LEHE73-.LEHB73
 4494 01bb E904     		.uleb128 .L311-.LFB1137
 4495 01bd 00       		.uleb128 0
 4496 01be 9E04     		.uleb128 .LEHB74-.LFB1137
 4497 01c0 05       		.uleb128 .LEHE74-.LEHB74
 4498 01c1 00       		.uleb128 0
 4499 01c2 00       		.uleb128 0
 4500 01c3 B004     		.uleb128 .LEHB75-.LFB1137
 4501 01c5 2F       		.uleb128 .LEHE75-.LEHB75
 4502 01c6 F904     		.uleb128 .L309-.LFB1137
 4503 01c8 00       		.uleb128 0
 4504 01c9 DF04     		.uleb128 .LEHB76-.LFB1137
 4505 01cb 05       		.uleb128 .LEHE76-.LEHB76
 4506 01cc 00       		.uleb128 0
 4507 01cd 00       		.uleb128 0
 4508 01ce F404     		.uleb128 .LEHB77-.LFB1137
 4509 01d0 05       		.uleb128 .LEHE77-.LEHB77
 4510 01d1 00       		.uleb128 0
 4511 01d2 00       		.uleb128 0
 4512 01d3 8405     		.uleb128 .LEHB78-.LFB1137
 4513 01d5 05       		.uleb128 .LEHE78-.LEHB78
 4514 01d6 00       		.uleb128 0
 4515 01d7 00       		.uleb128 0
 4516              	.LLSDACSE1137:
 4517 01d8 01       		.byte	0x1
 4518 01d9 00       		.byte	0
 4519 01da 0000     		.align 4
 4520 01dc 00000000 		.long	0
 4521              	
 4522              	.LLSDATT1137:
 4523              		.text
 4525              		.section	.text.unlikely
 4526              	.LCOLDE112:
 4527              		.text
 4528              	.LHOTE112:
 4529              		.section	.rodata.str1.8
 4530 0165 000000   		.align 8
 4531              	.LC113:
 4532 0168 556E6861 		.string	"Unhandled exception in CHECK_EQUAL(4UL, buf.length)"
 4532      6E646C65 
 4532      64206578 
 4532      63657074 
 4532      696F6E20 
 4533              		.section	.text.unlikely
 4534              		.align 2
 4535              	.LCOLDB114:
 4536              		.text
 4537              	.LHOTB114:
 4538 0f59 90       		.align 2
 4539 0f5a 660F1F44 		.p2align 4,,15
 4539      0000
 4540              		.globl	_ZNK29TestCore_testSmallAppendBlock7RunImplEv
 4542              	_ZNK29TestCore_testSmallAppendBlock7RunImplEv:
 4543              	.LFB1141:
 4544              		.cfi_startproc
 4545              		.cfi_personality 0x3,__gxx_personality_v0
 4546              		.cfi_lsda 0x3,.LLSDA1141
 4547 0f60 53       		pushq	%rbx
 4548              		.cfi_def_cfa_offset 16
 4549              		.cfi_offset 3, -16
 4550 0f61 31C9     		xorl	%ecx, %ecx
 4551 0f63 31D2     		xorl	%edx, %edx
 4552 0f65 BE080000 		movl	$8, %esi
 4552      00
 4553 0f6a 4883EC60 		subq	$96, %rsp
 4554              		.cfi_def_cfa_offset 112
 4555 0f6e 488D7C24 		leaq	16(%rsp), %rdi
 4555      10
 4556 0f73 64488B04 		movq	%fs:40, %rax
 4556      25280000 
 4556      00
 4557 0f7c 48894424 		movq	%rax, 88(%rsp)
 4557      58
 4558 0f81 31C0     		xorl	%eax, %eax
 4559              	.LEHB79:
 4560 0f83 E8000000 		call	bufInitialise
 4560      00
 4561              	.LEHE79:
 4562 0f88 89442404 		movl	%eax, 4(%rsp)
 4563              	.LEHB80:
 4564 0f8c E8000000 		call	_ZN8UnitTest11CurrentTest7DetailsEv
 4564      00
 4565 0f91 488D5C24 		leaq	48(%rsp), %rbx
 4565      30
 4566 0f96 488B30   		movq	(%rax), %rsi
 4567 0f99 BA310000 		movl	$49, %edx
 4567      00
 4568 0f9e 4889DF   		movq	%rbx, %rdi
 4569 0fa1 E8000000 		call	_ZN8UnitTest11TestDetailsC1ERKS0_i
 4569      00
 4570 0fa6 C7442408 		movl	$0, 8(%rsp)
 4570      00000000 
 4571 0fae E8000000 		call	_ZN8UnitTest11CurrentTest7ResultsEv
 4571      00
 4572 0fb3 488B38   		movq	(%rax), %rdi
 4573 0fb6 488D5424 		leaq	4(%rsp), %rdx
 4573      04
 4574 0fbb 488D7424 		leaq	8(%rsp), %rsi
 4574      08
 4575 0fc0 4889D9   		movq	%rbx, %rcx
 4576 0fc3 E8000000 		call	_ZN8UnitTest10CheckEqualI12BufferStatusS1_EEvRNS_11TestResultsERKT_RKT0_RKNS_11TestDetailsE
 4576      00
 4577              	.LEHE80:
 4578              	.L322:
 4579 0fc8 488D7424 		leaq	80(%rsp), %rsi
 4579      50
 4580 0fcd 488D7C24 		leaq	16(%rsp), %rdi
 4580      10
 4581 0fd2 31C9     		xorl	%ecx, %ecx
 4582 0fd4 BA040000 		movl	$4, %edx
 4582      00
 4583 0fd9 C6442450 		movb	$1, 80(%rsp)
 4583      01
 4584 0fde C6442451 		movb	$2, 81(%rsp)
 4584      02
 4585 0fe3 C6442452 		movb	$3, 82(%rsp)
 4585      03
 4586 0fe8 C6442453 		movb	$4, 83(%rsp)
 4586      04
 4587 0fed C6442454 		movb	$0, 84(%rsp)
 4587      00
 4588 0ff2 C6442455 		movb	$0, 85(%rsp)
 4588      00
 4589 0ff7 C6442456 		movb	$0, 86(%rsp)
 4589      00
 4590 0ffc C6442457 		movb	$0, 87(%rsp)
 4590      00
 4591              	.LEHB81:
 4592 1001 E8000000 		call	bufAppendBlock
 4592      00
 4593              	.LEHE81:
 4594 1006 89442404 		movl	%eax, 4(%rsp)
 4595              	.LEHB82:
 4596 100a E8000000 		call	_ZN8UnitTest11CurrentTest7DetailsEv
 4596      00
 4597 100f 488B30   		movq	(%rax), %rsi
 4598 1012 BA350000 		movl	$53, %edx
 4598      00
 4599 1017 4889DF   		movq	%rbx, %rdi
 4600 101a E8000000 		call	_ZN8UnitTest11TestDetailsC1ERKS0_i
 4600      00
 4601 101f C7442408 		movl	$0, 8(%rsp)
 4601      00000000 
 4602 1027 E8000000 		call	_ZN8UnitTest11CurrentTest7ResultsEv
 4602      00
 4603 102c 488B38   		movq	(%rax), %rdi
 4604 102f 488D5424 		leaq	4(%rsp), %rdx
 4604      04
 4605 1034 488D7424 		leaq	8(%rsp), %rsi
 4605      08
 4606 1039 4889D9   		movq	%rbx, %rcx
 4607 103c E8000000 		call	_ZN8UnitTest10CheckEqualI12BufferStatusS1_EEvRNS_11TestResultsERKT_RKT0_RKNS_11TestDetailsE
 4607      00
 4608              	.LEHE82:
 4609              	.L325:
 4610              	.LEHB83:
 4611 1041 E8000000 		call	_ZN8UnitTest11CurrentTest7DetailsEv
 4611      00
 4612 1046 488B30   		movq	(%rax), %rsi
 4613 1049 BA360000 		movl	$54, %edx
 4613      00
 4614 104e 4889DF   		movq	%rbx, %rdi
 4615 1051 E8000000 		call	_ZN8UnitTest11TestDetailsC1ERKS0_i
 4615      00
 4616 1056 48C74424 		movq	$8, 8(%rsp)
 4616      08080000 
 4616      00
 4617 105f E8000000 		call	_ZN8UnitTest11CurrentTest7ResultsEv
 4617      00
 4618 1064 488B38   		movq	(%rax), %rdi
 4619 1067 488D5424 		leaq	32(%rsp), %rdx
 4619      20
 4620 106c 488D7424 		leaq	8(%rsp), %rsi
 4620      08
 4621 1071 4889D9   		movq	%rbx, %rcx
 4622 1074 E8000000 		call	_ZN8UnitTest10CheckEqualImmEEvRNS_11TestResultsERKT_RKT0_RKNS_11TestDetailsE
 4622      00
 4623              	.LEHE83:
 4624              	.L328:
 4625              	.LEHB84:
 4626 1079 E8000000 		call	_ZN8UnitTest11CurrentTest7DetailsEv
 4626      00
 4627 107e 488B30   		movq	(%rax), %rsi
 4628 1081 BA370000 		movl	$55, %edx
 4628      00
 4629 1086 4889DF   		movq	%rbx, %rdi
 4630 1089 E8000000 		call	_ZN8UnitTest11TestDetailsC1ERKS0_i
 4630      00
 4631 108e 48C74424 		movq	$4, 8(%rsp)
 4631      08040000 
 4631      00
 4632 1097 E8000000 		call	_ZN8UnitTest11CurrentTest7ResultsEv
 4632      00
 4633 109c 488B38   		movq	(%rax), %rdi
 4634 109f 488D5424 		leaq	24(%rsp), %rdx
 4634      18
 4635 10a4 488D7424 		leaq	8(%rsp), %rsi
 4635      08
 4636 10a9 4889D9   		movq	%rbx, %rcx
 4637 10ac E8000000 		call	_ZN8UnitTest10CheckEqualImmEEvRNS_11TestResultsERKT_RKT0_RKNS_11TestDetailsE
 4637      00
 4638              	.LEHE84:
 4639              	.L331:
 4640              	.LEHB85:
 4641 10b1 E8000000 		call	_ZN8UnitTest11CurrentTest7DetailsEv
 4641      00
 4642 10b6 488B30   		movq	(%rax), %rsi
 4643 10b9 BA380000 		movl	$56, %edx
 4643      00
 4644 10be 4889DF   		movq	%rbx, %rdi
 4645 10c1 E8000000 		call	_ZN8UnitTest11TestDetailsC1ERKS0_i
 4645      00
 4646 10c6 E8000000 		call	_ZN8UnitTest11CurrentTest7ResultsEv
 4646      00
 4647 10cb 488B38   		movq	(%rax), %rdi
 4648 10ce 488D5424 		leaq	16(%rsp), %rdx
 4648      10
 4649 10d3 488D7424 		leaq	80(%rsp), %rsi
 4649      50
 4650 10d8 4889D9   		movq	%rbx, %rcx
 4651 10db E820EFFF 		call	_ZN8UnitTest15CheckArrayEqualIA8_hPhEEvRNS_11TestResultsERKT_RKT0_iRKNS_11TestDetailsE.constp
 4651      FF
 4652              	.LEHE85:
 4653              	.L334:
 4654 10e0 488D7C24 		leaq	16(%rsp), %rdi
 4654      10
 4655              	.LEHB86:
 4656 10e5 E8000000 		call	bufDestroy
 4656      00
 4657              	.LEHE86:
 4658 10ea 488B4424 		movq	88(%rsp), %rax
 4658      58
 4659 10ef 64483304 		xorq	%fs:40, %rax
 4659      25280000 
 4659      00
 4660 10f8 7506     		jne	.L350
 4661 10fa 4883C460 		addq	$96, %rsp
 4662              		.cfi_remember_state
 4663              		.cfi_def_cfa_offset 16
 4664 10fe 5B       		popq	%rbx
 4665              		.cfi_def_cfa_offset 8
 4666 10ff C3       		ret
 4667              	.L350:
 4668              		.cfi_restore_state
 4669 1100 E8000000 		call	__stack_chk_fail
 4669      00
 4670              	.L345:
 4671 1105 4889C7   		movq	%rax, %rdi
 4672 1108 E8000000 		call	__cxa_begin_catch
 4672      00
 4673              	.LEHB87:
 4674 110d E8000000 		call	_ZN8UnitTest11CurrentTest7DetailsEv
 4674      00
 4675 1112 488B30   		movq	(%rax), %rsi
 4676 1115 BA380000 		movl	$56, %edx
 4676      00
 4677 111a 4889DF   		movq	%rbx, %rdi
 4678 111d E8000000 		call	_ZN8UnitTest11TestDetailsC1ERKS0_i
 4678      00
 4679 1122 E8000000 		call	_ZN8UnitTest11CurrentTest7ResultsEv
 4679      00
 4680 1127 488B38   		movq	(%rax), %rdi
 4681 112a BA000000 		movl	$.LC110, %edx
 4681      00
 4682 112f 4889DE   		movq	%rbx, %rsi
 4683 1132 E8000000 		call	_ZN8UnitTest11TestResults13OnTestFailureERKNS_11TestDetailsEPKc
 4683      00
 4684              	.LEHE87:
 4685              	.LEHB88:
 4686 1137 E8000000 		call	__cxa_end_catch
 4686      00
 4687              	.LEHE88:
 4688 113c EBA2     		jmp	.L334
 4689              	.L343:
 4690 113e 4889C7   		movq	%rax, %rdi
 4691 1141 E8000000 		call	__cxa_begin_catch
 4691      00
 4692              	.LEHB89:
 4693 1146 E8000000 		call	_ZN8UnitTest11CurrentTest7DetailsEv
 4693      00
 4694 114b 488B30   		movq	(%rax), %rsi
 4695 114e BA370000 		movl	$55, %edx
 4695      00
 4696 1153 4889DF   		movq	%rbx, %rdi
 4697 1156 E8000000 		call	_ZN8UnitTest11TestDetailsC1ERKS0_i
 4697      00
 4698 115b E8000000 		call	_ZN8UnitTest11CurrentTest7ResultsEv
 4698      00
 4699 1160 488B38   		movq	(%rax), %rdi
 4700 1163 BA000000 		movl	$.LC113, %edx
 4700      00
 4701 1168 4889DE   		movq	%rbx, %rsi
 4702 116b E8000000 		call	_ZN8UnitTest11TestResults13OnTestFailureERKNS_11TestDetailsEPKc
 4702      00
 4703              	.LEHE89:
 4704              	.LEHB90:
 4705 1170 E8000000 		call	__cxa_end_catch
 4705      00
 4706              	.LEHE90:
 4707 1175 E937FFFF 		jmp	.L331
 4707      FF
 4708              	.L339:
 4709 117a 4889C7   		movq	%rax, %rdi
 4710 117d E8000000 		call	__cxa_begin_catch
 4710      00
 4711              	.LEHB91:
 4712 1182 E8000000 		call	_ZN8UnitTest11CurrentTest7DetailsEv
 4712      00
 4713 1187 488B30   		movq	(%rax), %rsi
 4714 118a BA350000 		movl	$53, %edx
 4714      00
 4715 118f 4889DF   		movq	%rbx, %rdi
 4716 1192 E8000000 		call	_ZN8UnitTest11TestDetailsC1ERKS0_i
 4716      00
 4717 1197 E8000000 		call	_ZN8UnitTest11CurrentTest7ResultsEv
 4717      00
 4718 119c 488B38   		movq	(%rax), %rdi
 4719 119f BA000000 		movl	$.LC104, %edx
 4719      00
 4720 11a4 4889DE   		movq	%rbx, %rsi
 4721 11a7 E8000000 		call	_ZN8UnitTest11TestResults13OnTestFailureERKNS_11TestDetailsEPKc
 4721      00
 4722              	.LEHE91:
 4723              	.LEHB92:
 4724 11ac E8000000 		call	__cxa_end_catch
 4724      00
 4725              	.LEHE92:
 4726 11b1 E98BFEFF 		jmp	.L325
 4726      FF
 4727              	.L341:
 4728 11b6 4889C7   		movq	%rax, %rdi
 4729 11b9 E8000000 		call	__cxa_begin_catch
 4729      00
 4730              	.LEHB93:
 4731 11be E8000000 		call	_ZN8UnitTest11CurrentTest7DetailsEv
 4731      00
 4732 11c3 488B30   		movq	(%rax), %rsi
 4733 11c6 BA360000 		movl	$54, %edx
 4733      00
 4734 11cb 4889DF   		movq	%rbx, %rdi
 4735 11ce E8000000 		call	_ZN8UnitTest11TestDetailsC1ERKS0_i
 4735      00
 4736 11d3 E8000000 		call	_ZN8UnitTest11CurrentTest7ResultsEv
 4736      00
 4737 11d8 488B38   		movq	(%rax), %rdi
 4738 11db BA000000 		movl	$.LC109, %edx
 4738      00
 4739 11e0 4889DE   		movq	%rbx, %rsi
 4740 11e3 E8000000 		call	_ZN8UnitTest11TestResults13OnTestFailureERKNS_11TestDetailsEPKc
 4740      00
 4741              	.LEHE93:
 4742              	.LEHB94:
 4743 11e8 E8000000 		call	__cxa_end_catch
 4743      00
 4744              	.LEHE94:
 4745 11ed E987FEFF 		jmp	.L328
 4745      FF
 4746              	.L337:
 4747 11f2 4889C7   		movq	%rax, %rdi
 4748 11f5 E8000000 		call	__cxa_begin_catch
 4748      00
 4749              	.LEHB95:
 4750 11fa E8000000 		call	_ZN8UnitTest11CurrentTest7DetailsEv
 4750      00
 4751 11ff 488D5C24 		leaq	48(%rsp), %rbx
 4751      30
 4752 1204 488B30   		movq	(%rax), %rsi
 4753 1207 BA310000 		movl	$49, %edx
 4753      00
 4754 120c 4889DF   		movq	%rbx, %rdi
 4755 120f E8000000 		call	_ZN8UnitTest11TestDetailsC1ERKS0_i
 4755      00
 4756 1214 E8000000 		call	_ZN8UnitTest11CurrentTest7ResultsEv
 4756      00
 4757 1219 488B38   		movq	(%rax), %rdi
 4758 121c BA000000 		movl	$.LC104, %edx
 4758      00
 4759 1221 4889DE   		movq	%rbx, %rsi
 4760 1224 E8000000 		call	_ZN8UnitTest11TestResults13OnTestFailureERKNS_11TestDetailsEPKc
 4760      00
 4761              	.LEHE95:
 4762              	.LEHB96:
 4763 1229 E8000000 		call	__cxa_end_catch
 4763      00
 4764              	.LEHE96:
 4765 122e E995FDFF 		jmp	.L322
 4765      FF
 4766              	.L346:
 4767 1233 4889C3   		movq	%rax, %rbx
 4768 1236 E8000000 		call	__cxa_end_catch
 4768      00
 4769 123b 4889DF   		movq	%rbx, %rdi
 4770              	.LEHB97:
 4771 123e E8000000 		call	_Unwind_Resume
 4771      00
 4772              	.LEHE97:
 4773              	.L344:
 4774 1243 4889C3   		movq	%rax, %rbx
 4775 1246 E8000000 		call	__cxa_end_catch
 4775      00
 4776 124b 4889DF   		movq	%rbx, %rdi
 4777              	.LEHB98:
 4778 124e E8000000 		call	_Unwind_Resume
 4778      00
 4779              	.LEHE98:
 4780              	.L342:
 4781 1253 4889C3   		movq	%rax, %rbx
 4782 1256 E8000000 		call	__cxa_end_catch
 4782      00
 4783 125b 4889DF   		movq	%rbx, %rdi
 4784              	.LEHB99:
 4785 125e E8000000 		call	_Unwind_Resume
 4785      00
 4786              	.LEHE99:
 4787              	.L340:
 4788 1263 4889C3   		movq	%rax, %rbx
 4789 1266 E8000000 		call	__cxa_end_catch
 4789      00
 4790 126b 4889DF   		movq	%rbx, %rdi
 4791              	.LEHB100:
 4792 126e E8000000 		call	_Unwind_Resume
 4792      00
 4793              	.LEHE100:
 4794              	.L338:
 4795 1273 4889C3   		movq	%rax, %rbx
 4796 1276 E8000000 		call	__cxa_end_catch
 4796      00
 4797 127b 4889DF   		movq	%rbx, %rdi
 4798              	.LEHB101:
 4799 127e E8000000 		call	_Unwind_Resume
 4799      00
 4800              	.LEHE101:
 4801              		.cfi_endproc
 4802              	.LFE1141:
 4803              		.section	.gcc_except_table
 4804              		.align 4
 4805              	.LLSDA1141:
 4806 01e0 FF       		.byte	0xff
 4807 01e1 03       		.byte	0x3
 4808 01e2 8401     		.uleb128 .LLSDATT1141-.LLSDATTD1141
 4809              	.LLSDATTD1141:
 4810 01e4 01       		.byte	0x1
 4811 01e5 7B       		.uleb128 .LLSDACSE1141-.LLSDACSB1141
 4812              	.LLSDACSB1141:
 4813 01e6 23       		.uleb128 .LEHB79-.LFB1141
 4814 01e7 05       		.uleb128 .LEHE79-.LEHB79
 4815 01e8 00       		.uleb128 0
 4816 01e9 00       		.uleb128 0
 4817 01ea 2C       		.uleb128 .LEHB80-.LFB1141
 4818 01eb 3C       		.uleb128 .LEHE80-.LEHB80
 4819 01ec 9205     		.uleb128 .L337-.LFB1141
 4820 01ee 01       		.uleb128 0x1
 4821 01ef A101     		.uleb128 .LEHB81-.LFB1141
 4822 01f1 05       		.uleb128 .LEHE81-.LEHB81
 4823 01f2 00       		.uleb128 0
 4824 01f3 00       		.uleb128 0
 4825 01f4 AA01     		.uleb128 .LEHB82-.LFB1141
 4826 01f6 37       		.uleb128 .LEHE82-.LEHB82
 4827 01f7 9A04     		.uleb128 .L339-.LFB1141
 4828 01f9 01       		.uleb128 0x1
 4829 01fa E101     		.uleb128 .LEHB83-.LFB1141
 4830 01fc 38       		.uleb128 .LEHE83-.LEHB83
 4831 01fd D604     		.uleb128 .L341-.LFB1141
 4832 01ff 01       		.uleb128 0x1
 4833 0200 9902     		.uleb128 .LEHB84-.LFB1141
 4834 0202 38       		.uleb128 .LEHE84-.LEHB84
 4835 0203 DE03     		.uleb128 .L343-.LFB1141
 4836 0205 01       		.uleb128 0x1
 4837 0206 D102     		.uleb128 .LEHB85-.LFB1141
 4838 0208 2F       		.uleb128 .LEHE85-.LEHB85
 4839 0209 A503     		.uleb128 .L345-.LFB1141
 4840 020b 01       		.uleb128 0x1
 4841 020c 8503     		.uleb128 .LEHB86-.LFB1141
 4842 020e 05       		.uleb128 .LEHE86-.LEHB86
 4843 020f 00       		.uleb128 0
 4844 0210 00       		.uleb128 0
 4845 0211 AD03     		.uleb128 .LEHB87-.LFB1141
 4846 0213 2A       		.uleb128 .LEHE87-.LEHB87
 4847 0214 D305     		.uleb128 .L346-.LFB1141
 4848 0216 00       		.uleb128 0
 4849 0217 D703     		.uleb128 .LEHB88-.LFB1141
 4850 0219 05       		.uleb128 .LEHE88-.LEHB88
 4851 021a 00       		.uleb128 0
 4852 021b 00       		.uleb128 0
 4853 021c E603     		.uleb128 .LEHB89-.LFB1141
 4854 021e 2A       		.uleb128 .LEHE89-.LEHB89
 4855 021f E305     		.uleb128 .L344-.LFB1141
 4856 0221 00       		.uleb128 0
 4857 0222 9004     		.uleb128 .LEHB90-.LFB1141
 4858 0224 05       		.uleb128 .LEHE90-.LEHB90
 4859 0225 00       		.uleb128 0
 4860 0226 00       		.uleb128 0
 4861 0227 A204     		.uleb128 .LEHB91-.LFB1141
 4862 0229 2A       		.uleb128 .LEHE91-.LEHB91
 4863 022a 8306     		.uleb128 .L340-.LFB1141
 4864 022c 00       		.uleb128 0
 4865 022d CC04     		.uleb128 .LEHB92-.LFB1141
 4866 022f 05       		.uleb128 .LEHE92-.LEHB92
 4867 0230 00       		.uleb128 0
 4868 0231 00       		.uleb128 0
 4869 0232 DE04     		.uleb128 .LEHB93-.LFB1141
 4870 0234 2A       		.uleb128 .LEHE93-.LEHB93
 4871 0235 F305     		.uleb128 .L342-.LFB1141
 4872 0237 00       		.uleb128 0
 4873 0238 8805     		.uleb128 .LEHB94-.LFB1141
 4874 023a 05       		.uleb128 .LEHE94-.LEHB94
 4875 023b 00       		.uleb128 0
 4876 023c 00       		.uleb128 0
 4877 023d 9A05     		.uleb128 .LEHB95-.LFB1141
 4878 023f 2F       		.uleb128 .LEHE95-.LEHB95
 4879 0240 9306     		.uleb128 .L338-.LFB1141
 4880 0242 00       		.uleb128 0
 4881 0243 C905     		.uleb128 .LEHB96-.LFB1141
 4882 0245 05       		.uleb128 .LEHE96-.LEHB96
 4883 0246 00       		.uleb128 0
 4884 0247 00       		.uleb128 0
 4885 0248 DE05     		.uleb128 .LEHB97-.LFB1141
 4886 024a 05       		.uleb128 .LEHE97-.LEHB97
 4887 024b 00       		.uleb128 0
 4888 024c 00       		.uleb128 0
 4889 024d EE05     		.uleb128 .LEHB98-.LFB1141
 4890 024f 05       		.uleb128 .LEHE98-.LEHB98
 4891 0250 00       		.uleb128 0
 4892 0251 00       		.uleb128 0
 4893 0252 FE05     		.uleb128 .LEHB99-.LFB1141
 4894 0254 05       		.uleb128 .LEHE99-.LEHB99
 4895 0255 00       		.uleb128 0
 4896 0256 00       		.uleb128 0
 4897 0257 8E06     		.uleb128 .LEHB100-.LFB1141
 4898 0259 05       		.uleb128 .LEHE100-.LEHB100
 4899 025a 00       		.uleb128 0
 4900 025b 00       		.uleb128 0
 4901 025c 9E06     		.uleb128 .LEHB101-.LFB1141
 4902 025e 05       		.uleb128 .LEHE101-.LEHB101
 4903 025f 00       		.uleb128 0
 4904 0260 00       		.uleb128 0
 4905              	.LLSDACSE1141:
 4906 0261 01       		.byte	0x1
 4907 0262 00       		.byte	0
 4908 0263 00       		.align 4
 4909 0264 00000000 		.long	0
 4910              	
 4911              	.LLSDATT1141:
 4912              		.text
 4914              		.section	.text.unlikely
 4915              	.LCOLDE114:
 4916              		.text
 4917              	.LHOTE114:
 4918              		.section	.rodata.str1.8
 4919 019c 00000000 		.align 8
 4920              	.LC115:
 4921 01a0 556E6861 		.string	"Unhandled exception in CHECK_EQUAL(8UL, buf.length)"
 4921      6E646C65 
 4921      64206578 
 4921      63657074 
 4921      696F6E20 
 4922              		.section	.text.unlikely
 4923              		.align 2
 4924              	.LCOLDB116:
 4925              		.text
 4926              	.LHOTB116:
 4927 1283 90       		.align 2
 4928 1284 6690662E 		.p2align 4,,15
 4928      0F1F8400 
 4928      00000000 
 4929              		.globl	_ZNK32TestCore_testCapacityAppendBlock7RunImplEv
 4931              	_ZNK32TestCore_testCapacityAppendBlock7RunImplEv:
 4932              	.LFB1145:
 4933              		.cfi_startproc
 4934              		.cfi_personality 0x3,__gxx_personality_v0
 4935              		.cfi_lsda 0x3,.LLSDA1145
 4936 1290 53       		pushq	%rbx
 4937              		.cfi_def_cfa_offset 16
 4938              		.cfi_offset 3, -16
 4939 1291 31C9     		xorl	%ecx, %ecx
 4940 1293 31D2     		xorl	%edx, %edx
 4941 1295 BE080000 		movl	$8, %esi
 4941      00
 4942 129a 4883EC60 		subq	$96, %rsp
 4943              		.cfi_def_cfa_offset 112
 4944 129e 488D7C24 		leaq	16(%rsp), %rdi
 4944      10
 4945 12a3 64488B04 		movq	%fs:40, %rax
 4945      25280000 
 4945      00
 4946 12ac 48894424 		movq	%rax, 88(%rsp)
 4946      58
 4947 12b1 31C0     		xorl	%eax, %eax
 4948              	.LEHB102:
 4949 12b3 E8000000 		call	bufInitialise
 4949      00
 4950              	.LEHE102:
 4951 12b8 89442404 		movl	%eax, 4(%rsp)
 4952              	.LEHB103:
 4953 12bc E8000000 		call	_ZN8UnitTest11CurrentTest7DetailsEv
 4953      00
 4954 12c1 488D5C24 		leaq	48(%rsp), %rbx
 4954      30
 4955 12c6 488B30   		movq	(%rax), %rsi
 4956 12c9 BA410000 		movl	$65, %edx
 4956      00
 4957 12ce 4889DF   		movq	%rbx, %rdi
 4958 12d1 E8000000 		call	_ZN8UnitTest11TestDetailsC1ERKS0_i
 4958      00
 4959 12d6 C7442408 		movl	$0, 8(%rsp)
 4959      00000000 
 4960 12de E8000000 		call	_ZN8UnitTest11CurrentTest7ResultsEv
 4960      00
 4961 12e3 488B38   		movq	(%rax), %rdi
 4962 12e6 488D5424 		leaq	4(%rsp), %rdx
 4962      04
 4963 12eb 488D7424 		leaq	8(%rsp), %rsi
 4963      08
