   1              		.file	"DeferredTestReporter.cpp"
   2              		.text
   3              	.Ltext0:
   4              		.section	.text._ZnwmPv,"axG",@progbits,_ZnwmPv,comdat
   5              		.weak	_ZnwmPv
   7              	_ZnwmPv:
   8              	.LFB265:
   9              		.file 1 "/usr/include/c++/5/new"
   1:/usr/include/c++/5/new **** // The -*- C++ -*- dynamic memory management header.
   2:/usr/include/c++/5/new **** 
   3:/usr/include/c++/5/new **** // Copyright (C) 1994-2015 Free Software Foundation, Inc.
   4:/usr/include/c++/5/new **** 
   5:/usr/include/c++/5/new **** // This file is part of GCC.
   6:/usr/include/c++/5/new **** //
   7:/usr/include/c++/5/new **** // GCC is free software; you can redistribute it and/or modify
   8:/usr/include/c++/5/new **** // it under the terms of the GNU General Public License as published by
   9:/usr/include/c++/5/new **** // the Free Software Foundation; either version 3, or (at your option)
  10:/usr/include/c++/5/new **** // any later version.
  11:/usr/include/c++/5/new **** // 
  12:/usr/include/c++/5/new **** // GCC is distributed in the hope that it will be useful,
  13:/usr/include/c++/5/new **** // but WITHOUT ANY WARRANTY; without even the implied warranty of
  14:/usr/include/c++/5/new **** // MERCHANTABILITY or FITNESS FOR A PARTICULAR PURPOSE.  See the
  15:/usr/include/c++/5/new **** // GNU General Public License for more details.
  16:/usr/include/c++/5/new **** // 
  17:/usr/include/c++/5/new **** // Under Section 7 of GPL version 3, you are granted additional
  18:/usr/include/c++/5/new **** // permissions described in the GCC Runtime Library Exception, version
  19:/usr/include/c++/5/new **** // 3.1, as published by the Free Software Foundation.
  20:/usr/include/c++/5/new **** 
  21:/usr/include/c++/5/new **** // You should have received a copy of the GNU General Public License and
  22:/usr/include/c++/5/new **** // a copy of the GCC Runtime Library Exception along with this program;
  23:/usr/include/c++/5/new **** // see the files COPYING3 and COPYING.RUNTIME respectively.  If not, see
  24:/usr/include/c++/5/new **** // <http://www.gnu.org/licenses/>.
  25:/usr/include/c++/5/new **** 
  26:/usr/include/c++/5/new **** /** @file new
  27:/usr/include/c++/5/new ****  *  This is a Standard C++ Library header.
  28:/usr/include/c++/5/new ****  *
  29:/usr/include/c++/5/new ****  *  The header @c new defines several functions to manage dynamic memory and
  30:/usr/include/c++/5/new ****  *  handling memory allocation errors; see
  31:/usr/include/c++/5/new ****  *  http://gcc.gnu.org/onlinedocs/libstdc++/18_support/howto.html#4 for more.
  32:/usr/include/c++/5/new ****  */
  33:/usr/include/c++/5/new **** 
  34:/usr/include/c++/5/new **** #ifndef _NEW
  35:/usr/include/c++/5/new **** #define _NEW
  36:/usr/include/c++/5/new **** 
  37:/usr/include/c++/5/new **** #pragma GCC system_header
  38:/usr/include/c++/5/new **** 
  39:/usr/include/c++/5/new **** #include <bits/c++config.h>
  40:/usr/include/c++/5/new **** #include <exception>
  41:/usr/include/c++/5/new **** 
  42:/usr/include/c++/5/new **** #pragma GCC visibility push(default)
  43:/usr/include/c++/5/new **** 
  44:/usr/include/c++/5/new **** extern "C++" {
  45:/usr/include/c++/5/new **** 
  46:/usr/include/c++/5/new **** namespace std 
  47:/usr/include/c++/5/new **** {
  48:/usr/include/c++/5/new ****   /**
  49:/usr/include/c++/5/new ****    *  @brief  Exception possibly thrown by @c new.
  50:/usr/include/c++/5/new ****    *  @ingroup exceptions
  51:/usr/include/c++/5/new ****    *
  52:/usr/include/c++/5/new ****    *  @c bad_alloc (or classes derived from it) is used to report allocation
  53:/usr/include/c++/5/new ****    *  errors from the throwing forms of @c new.  */
  54:/usr/include/c++/5/new ****   class bad_alloc : public exception 
  55:/usr/include/c++/5/new ****   {
  56:/usr/include/c++/5/new ****   public:
  57:/usr/include/c++/5/new ****     bad_alloc() throw() { }
  58:/usr/include/c++/5/new **** 
  59:/usr/include/c++/5/new ****     // This declaration is not useless:
  60:/usr/include/c++/5/new ****     // http://gcc.gnu.org/onlinedocs/gcc-3.0.2/gcc_6.html#SEC118
  61:/usr/include/c++/5/new ****     virtual ~bad_alloc() throw();
  62:/usr/include/c++/5/new **** 
  63:/usr/include/c++/5/new ****     // See comment in eh_exception.cc.
  64:/usr/include/c++/5/new ****     virtual const char* what() const throw();
  65:/usr/include/c++/5/new ****   };
  66:/usr/include/c++/5/new **** 
  67:/usr/include/c++/5/new **** #if __cplusplus >= 201103L
  68:/usr/include/c++/5/new ****   class bad_array_new_length : public bad_alloc
  69:/usr/include/c++/5/new ****   {
  70:/usr/include/c++/5/new ****   public:
  71:/usr/include/c++/5/new ****     bad_array_new_length() throw() { };
  72:/usr/include/c++/5/new **** 
  73:/usr/include/c++/5/new ****     // This declaration is not useless:
  74:/usr/include/c++/5/new ****     // http://gcc.gnu.org/onlinedocs/gcc-3.0.2/gcc_6.html#SEC118
  75:/usr/include/c++/5/new ****     virtual ~bad_array_new_length() throw();
  76:/usr/include/c++/5/new **** 
  77:/usr/include/c++/5/new ****     // See comment in eh_exception.cc.
  78:/usr/include/c++/5/new ****     virtual const char* what() const throw();
  79:/usr/include/c++/5/new ****   };
  80:/usr/include/c++/5/new **** #endif
  81:/usr/include/c++/5/new **** 
  82:/usr/include/c++/5/new ****   struct nothrow_t { };
  83:/usr/include/c++/5/new **** 
  84:/usr/include/c++/5/new ****   extern const nothrow_t nothrow;
  85:/usr/include/c++/5/new **** 
  86:/usr/include/c++/5/new ****   /** If you write your own error handler to be called by @c new, it must
  87:/usr/include/c++/5/new ****    *  be of this type.  */
  88:/usr/include/c++/5/new ****   typedef void (*new_handler)();
  89:/usr/include/c++/5/new **** 
  90:/usr/include/c++/5/new ****   /// Takes a replacement handler as the argument, returns the
  91:/usr/include/c++/5/new ****   /// previous handler.
  92:/usr/include/c++/5/new ****   new_handler set_new_handler(new_handler) throw();
  93:/usr/include/c++/5/new **** 
  94:/usr/include/c++/5/new **** #if __cplusplus >= 201103L
  95:/usr/include/c++/5/new ****   /// Return the current new handler.
  96:/usr/include/c++/5/new ****   new_handler get_new_handler() noexcept;
  97:/usr/include/c++/5/new **** #endif
  98:/usr/include/c++/5/new **** } // namespace std
  99:/usr/include/c++/5/new **** 
 100:/usr/include/c++/5/new **** //@{
 101:/usr/include/c++/5/new **** /** These are replaceable signatures:
 102:/usr/include/c++/5/new ****  *  - normal single new and delete (no arguments, throw @c bad_alloc on error)
 103:/usr/include/c++/5/new ****  *  - normal array new and delete (same)
 104:/usr/include/c++/5/new ****  *  - @c nothrow single new and delete (take a @c nothrow argument, return
 105:/usr/include/c++/5/new ****  *    @c NULL on error)
 106:/usr/include/c++/5/new ****  *  - @c nothrow array new and delete (same)
 107:/usr/include/c++/5/new ****  *
 108:/usr/include/c++/5/new ****  *  Placement new and delete signatures (take a memory address argument,
 109:/usr/include/c++/5/new ****  *  does nothing) may not be replaced by a user's program.
 110:/usr/include/c++/5/new **** */
 111:/usr/include/c++/5/new **** void* operator new(std::size_t) _GLIBCXX_THROW (std::bad_alloc)
 112:/usr/include/c++/5/new ****   __attribute__((__externally_visible__));
 113:/usr/include/c++/5/new **** void* operator new[](std::size_t) _GLIBCXX_THROW (std::bad_alloc)
 114:/usr/include/c++/5/new ****   __attribute__((__externally_visible__));
 115:/usr/include/c++/5/new **** void operator delete(void*) _GLIBCXX_USE_NOEXCEPT
 116:/usr/include/c++/5/new ****   __attribute__((__externally_visible__));
 117:/usr/include/c++/5/new **** void operator delete[](void*) _GLIBCXX_USE_NOEXCEPT
 118:/usr/include/c++/5/new ****   __attribute__((__externally_visible__));
 119:/usr/include/c++/5/new **** void* operator new(std::size_t, const std::nothrow_t&) _GLIBCXX_USE_NOEXCEPT
 120:/usr/include/c++/5/new ****   __attribute__((__externally_visible__));
 121:/usr/include/c++/5/new **** void* operator new[](std::size_t, const std::nothrow_t&) _GLIBCXX_USE_NOEXCEPT
 122:/usr/include/c++/5/new ****   __attribute__((__externally_visible__));
 123:/usr/include/c++/5/new **** void operator delete(void*, const std::nothrow_t&) _GLIBCXX_USE_NOEXCEPT
 124:/usr/include/c++/5/new ****   __attribute__((__externally_visible__));
 125:/usr/include/c++/5/new **** void operator delete[](void*, const std::nothrow_t&) _GLIBCXX_USE_NOEXCEPT
 126:/usr/include/c++/5/new ****   __attribute__((__externally_visible__));
 127:/usr/include/c++/5/new **** 
 128:/usr/include/c++/5/new **** // Default placement versions of operator new.
 129:/usr/include/c++/5/new **** inline void* operator new(std::size_t, void* __p) _GLIBCXX_USE_NOEXCEPT
 130:/usr/include/c++/5/new **** { return __p; }
  10              		.loc 1 130 0
  11              		.cfi_startproc
  12 0000 55       		pushq	%rbp
  13              		.cfi_def_cfa_offset 16
  14              		.cfi_offset 6, -16
  15 0001 4889E5   		movq	%rsp, %rbp
  16              		.cfi_def_cfa_register 6
  17 0004 48897DF8 		movq	%rdi, -8(%rbp)
  18 0008 488975F0 		movq	%rsi, -16(%rbp)
  19              		.loc 1 130 0
  20 000c 488B45F0 		movq	-16(%rbp), %rax
  21 0010 5D       		popq	%rbp
  22              		.cfi_def_cfa 7, 8
  23 0011 C3       		ret
  24              		.cfi_endproc
  25              	.LFE265:
  27              		.section	.text._ZdlPvS_,"axG",@progbits,_ZdlPvS_,comdat
  28              		.weak	_ZdlPvS_
  30              	_ZdlPvS_:
  31              	.LFB267:
 131:/usr/include/c++/5/new **** inline void* operator new[](std::size_t, void* __p) _GLIBCXX_USE_NOEXCEPT
 132:/usr/include/c++/5/new **** { return __p; }
 133:/usr/include/c++/5/new **** 
 134:/usr/include/c++/5/new **** // Default placement versions of operator delete.
 135:/usr/include/c++/5/new **** inline void operator delete  (void*, void*) _GLIBCXX_USE_NOEXCEPT { }
  32              		.loc 1 135 0
  33              		.cfi_startproc
  34 0000 55       		pushq	%rbp
  35              		.cfi_def_cfa_offset 16
  36              		.cfi_offset 6, -16
  37 0001 4889E5   		movq	%rsp, %rbp
  38              		.cfi_def_cfa_register 6
  39 0004 48897DF8 		movq	%rdi, -8(%rbp)
  40 0008 488975F0 		movq	%rsi, -16(%rbp)
  41              		.loc 1 135 0
  42 000c 90       		nop
  43 000d 5D       		popq	%rbp
  44              		.cfi_def_cfa 7, 8
  45 000e C3       		ret
  46              		.cfi_endproc
  47              	.LFE267:
  49              		.section	.text._ZN8UnitTest18DeferredTestResultD2Ev,"axG",@progbits,_ZN8UnitTest18DeferredTestResu
  50              		.align 2
  51              		.weak	_ZN8UnitTest18DeferredTestResultD2Ev
  53              	_ZN8UnitTest18DeferredTestResultD2Ev:
  54              	.LFB868:
  55              		.file 2 "DeferredTestResult.h"
   1:DeferredTestResult.h **** #ifndef UNITTEST_DEFERREDTESTRESULT_H
   2:DeferredTestResult.h **** #define UNITTEST_DEFERREDTESTRESULT_H
   3:DeferredTestResult.h **** 
   4:DeferredTestResult.h **** #include <string>
   5:DeferredTestResult.h **** #include <vector>
   6:DeferredTestResult.h **** 
   7:DeferredTestResult.h **** namespace UnitTest
   8:DeferredTestResult.h **** {
   9:DeferredTestResult.h **** 
  10:DeferredTestResult.h **** struct DeferredTestResult
  56              		.loc 2 10 0
  57              		.cfi_startproc
  58              		.cfi_personality 0x9b,DW.ref.__gxx_personality_v0
  59              		.cfi_lsda 0x1b,.LLSDA868
  60 0000 55       		pushq	%rbp
  61              		.cfi_def_cfa_offset 16
  62              		.cfi_offset 6, -16
  63 0001 4889E5   		movq	%rsp, %rbp
  64              		.cfi_def_cfa_register 6
  65 0004 53       		pushq	%rbx
  66 0005 4883EC18 		subq	$24, %rsp
  67              		.cfi_offset 3, -24
  68 0009 48897DE8 		movq	%rdi, -24(%rbp)
  69              	.LBB2:
  70              		.loc 2 10 0
  71 000d 488B45E8 		movq	-24(%rbp), %rax
  72 0011 4883C060 		addq	$96, %rax
  73 0015 4889C7   		movq	%rax, %rdi
  74              	.LEHB0:
  75 0018 E8000000 		call	_ZNSt6vectorISt4pairIiNSt7__cxx1112basic_stringIcSt11char_traitsIcESaIcEEEESaIS7_EED1Ev@PLT
  75      00
  76              	.LEHE0:
  77              		.loc 2 10 0 is_stmt 0 discriminator 2
  78 001d 488B45E8 		movq	-24(%rbp), %rax
  79 0021 4883C040 		addq	$64, %rax
  80 0025 4889C7   		movq	%rax, %rdi
  81              	.LEHB1:
  82 0028 E8000000 		call	_ZNSt7__cxx1112basic_stringIcSt11char_traitsIcESaIcEED1Ev@PLT
  82      00
  83              	.LEHE1:
  84              		.loc 2 10 0 discriminator 4
  85 002d 488B45E8 		movq	-24(%rbp), %rax
  86 0031 4883C020 		addq	$32, %rax
  87 0035 4889C7   		movq	%rax, %rdi
  88              	.LEHB2:
  89 0038 E8000000 		call	_ZNSt7__cxx1112basic_stringIcSt11char_traitsIcESaIcEED1Ev@PLT
  89      00
  90              	.LEHE2:
  91              		.loc 2 10 0 discriminator 6
  92 003d 488B45E8 		movq	-24(%rbp), %rax
  93 0041 4889C7   		movq	%rax, %rdi
  94              	.LEHB3:
  95 0044 E8000000 		call	_ZNSt7__cxx1112basic_stringIcSt11char_traitsIcESaIcEED1Ev@PLT
  95      00
  96              	.LEHE3:
  97              	.LBE2:
  98 0049 EB44     		jmp	.L11
  99              	.L8:
 100 004b 4889C3   		movq	%rax, %rbx
 101              	.LBB3:
 102              		.loc 2 10 0
 103 004e 488B45E8 		movq	-24(%rbp), %rax
 104 0052 4883C040 		addq	$64, %rax
 105 0056 4889C7   		movq	%rax, %rdi
 106 0059 E8000000 		call	_ZNSt7__cxx1112basic_stringIcSt11char_traitsIcESaIcEED1Ev@PLT
 106      00
 107 005e EB03     		jmp	.L6
 108              	.L9:
 109 0060 4889C3   		movq	%rax, %rbx
 110              	.L6:
 111              		.loc 2 10 0 discriminator 3
 112 0063 488B45E8 		movq	-24(%rbp), %rax
 113 0067 4883C020 		addq	$32, %rax
 114 006b 4889C7   		movq	%rax, %rdi
 115 006e E8000000 		call	_ZNSt7__cxx1112basic_stringIcSt11char_traitsIcESaIcEED1Ev@PLT
 115      00
 116 0073 EB03     		jmp	.L7
 117              	.L10:
 118 0075 4889C3   		movq	%rax, %rbx
 119              	.L7:
 120              		.loc 2 10 0 discriminator 5
 121 0078 488B45E8 		movq	-24(%rbp), %rax
 122 007c 4889C7   		movq	%rax, %rdi
 123 007f E8000000 		call	_ZNSt7__cxx1112basic_stringIcSt11char_traitsIcESaIcEED1Ev@PLT
 123      00
 124 0084 4889D8   		movq	%rbx, %rax
 125 0087 4889C7   		movq	%rax, %rdi
 126              	.LEHB4:
 127 008a E8000000 		call	_Unwind_Resume@PLT
 127      00
 128              	.LEHE4:
 129              	.L11:
 130              	.LBE3:
 131              		.loc 2 10 0
 132 008f 4883C418 		addq	$24, %rsp
 133 0093 5B       		popq	%rbx
 134 0094 5D       		popq	%rbp
 135              		.cfi_def_cfa 7, 8
 136 0095 C3       		ret
 137              		.cfi_endproc
 138              	.LFE868:
 139              		.globl	__gxx_personality_v0
 140              		.section	.gcc_except_table._ZN8UnitTest18DeferredTestResultD2Ev,"aG",@progbits,_ZN8UnitTest18Defer
 141              	.LLSDA868:
 142 0000 FF       		.byte	0xff
 143 0001 FF       		.byte	0xff
 144 0002 01       		.byte	0x1
 145 0003 15       		.uleb128 .LLSDACSE868-.LLSDACSB868
 146              	.LLSDACSB868:
 147 0004 18       		.uleb128 .LEHB0-.LFB868
 148 0005 05       		.uleb128 .LEHE0-.LEHB0
 149 0006 4B       		.uleb128 .L8-.LFB868
 150 0007 00       		.uleb128 0
 151 0008 28       		.uleb128 .LEHB1-.LFB868
 152 0009 05       		.uleb128 .LEHE1-.LEHB1
 153 000a 60       		.uleb128 .L9-.LFB868
 154 000b 00       		.uleb128 0
 155 000c 38       		.uleb128 .LEHB2-.LFB868
 156 000d 05       		.uleb128 .LEHE2-.LEHB2
 157 000e 75       		.uleb128 .L10-.LFB868
 158 000f 00       		.uleb128 0
 159 0010 44       		.uleb128 .LEHB3-.LFB868
 160 0011 05       		.uleb128 .LEHE3-.LEHB3
 161 0012 00       		.uleb128 0
 162 0013 00       		.uleb128 0
 163 0014 8A01     		.uleb128 .LEHB4-.LFB868
 164 0016 05       		.uleb128 .LEHE4-.LEHB4
 165 0017 00       		.uleb128 0
 166 0018 00       		.uleb128 0
 167              	.LLSDACSE868:
 168              		.section	.text._ZN8UnitTest18DeferredTestResultD2Ev,"axG",@progbits,_ZN8UnitTest18DeferredTestResu
 170              		.weak	_ZN8UnitTest18DeferredTestResultD1Ev
 171              		.set	_ZN8UnitTest18DeferredTestResultD1Ev,_ZN8UnitTest18DeferredTestResultD2Ev
 172              		.text
 173              		.align 2
 174              		.globl	_ZN8UnitTest20DeferredTestReporter15ReportTestStartERKNS_11TestDetailsE
 176              	_ZN8UnitTest20DeferredTestReporter15ReportTestStartERKNS_11TestDetailsE:
 177              	.LFB866:
 178              		.file 3 "DeferredTestReporter.cpp"
   1:DeferredTestReporter.cpp **** #include "DeferredTestReporter.h"
   2:DeferredTestReporter.cpp **** #include "TestDetails.h"
   3:DeferredTestReporter.cpp **** #include "Config.h"
   4:DeferredTestReporter.cpp **** 
   5:DeferredTestReporter.cpp **** using namespace UnitTest;
   6:DeferredTestReporter.cpp **** 
   7:DeferredTestReporter.cpp **** void DeferredTestReporter::ReportTestStart(TestDetails const& details)
   8:DeferredTestReporter.cpp **** {
 179              		.loc 3 8 0 is_stmt 1
 180              		.cfi_startproc
 181              		.cfi_personality 0x9b,DW.ref.__gxx_personality_v0
 182              		.cfi_lsda 0x1b,.LLSDA866
 183 0000 55       		pushq	%rbp
 184              		.cfi_def_cfa_offset 16
 185              		.cfi_offset 6, -16
 186 0001 4889E5   		movq	%rsp, %rbp
 187              		.cfi_def_cfa_register 6
 188 0004 53       		pushq	%rbx
 189 0005 4881ECA8 		subq	$168, %rsp
 189      000000
 190              		.cfi_offset 3, -24
 191 000c 4889BD58 		movq	%rdi, -168(%rbp)
 191      FFFFFF
 192 0013 4889B550 		movq	%rsi, -176(%rbp)
 192      FFFFFF
 193              		.loc 3 8 0
 194 001a 64488B04 		movq	%fs:40, %rax
 194      25280000 
 194      00
 195 0023 488945E8 		movq	%rax, -24(%rbp)
 196 0027 31C0     		xorl	%eax, %eax
   9:DeferredTestReporter.cpp ****     m_results.push_back(DeferredTestResult(details.suiteName, details.testName));
 197              		.loc 3 9 0
 198 0029 488B8550 		movq	-176(%rbp), %rax
 198      FFFFFF
 199 0030 488B5008 		movq	8(%rax), %rdx
 200 0034 488B8550 		movq	-176(%rbp), %rax
 200      FFFFFF
 201 003b 488B08   		movq	(%rax), %rcx
 202 003e 488D8560 		leaq	-160(%rbp), %rax
 202      FFFFFF
 203 0045 4889CE   		movq	%rcx, %rsi
 204 0048 4889C7   		movq	%rax, %rdi
 205              	.LEHB5:
 206 004b E8000000 		call	_ZN8UnitTest18DeferredTestResultC1EPKcS2_@PLT
 206      00
 207              	.LEHE5:
 208 0050 488B8558 		movq	-168(%rbp), %rax
 208      FFFFFF
 209 0057 488D5008 		leaq	8(%rax), %rdx
 210 005b 488D8560 		leaq	-160(%rbp), %rax
 210      FFFFFF
 211 0062 4889C6   		movq	%rax, %rsi
 212 0065 4889D7   		movq	%rdx, %rdi
 213              	.LEHB6:
 214 0068 E8000000 		call	_ZNSt6vectorIN8UnitTest18DeferredTestResultESaIS1_EE9push_backERKS1_@PLT
 214      00
 215              	.LEHE6:
 216              		.loc 3 9 0 is_stmt 0 discriminator 2
 217 006d 488D8560 		leaq	-160(%rbp), %rax
 217      FFFFFF
 218 0074 4889C7   		movq	%rax, %rdi
 219              	.LEHB7:
 220 0077 E8000000 		call	_ZN8UnitTest18DeferredTestResultD1Ev@PLT
 220      00
 221              	.LEHE7:
  10:DeferredTestReporter.cpp **** }
 222              		.loc 3 10 0 is_stmt 1 discriminator 2
 223 007c 90       		nop
 224 007d 488B45E8 		movq	-24(%rbp), %rax
 225 0081 64483304 		xorq	%fs:40, %rax
 225      25280000 
 225      00
 226 008a 7424     		je	.L14
 227 008c EB1D     		jmp	.L16
 228              	.L15:
 229 008e 4889C3   		movq	%rax, %rbx
   9:DeferredTestReporter.cpp ****     m_results.push_back(DeferredTestResult(details.suiteName, details.testName));
 230              		.loc 3 9 0
 231 0091 488D8560 		leaq	-160(%rbp), %rax
 231      FFFFFF
 232 0098 4889C7   		movq	%rax, %rdi
 233 009b E8000000 		call	_ZN8UnitTest18DeferredTestResultD1Ev@PLT
 233      00
 234 00a0 4889D8   		movq	%rbx, %rax
 235 00a3 4889C7   		movq	%rax, %rdi
 236              	.LEHB8:
 237 00a6 E8000000 		call	_Unwind_Resume@PLT
 237      00
 238              	.LEHE8:
 239              	.L16:
 240              		.loc 3 10 0
 241 00ab E8000000 		call	__stack_chk_fail@PLT
 241      00
 242              	.L14:
 243 00b0 4881C4A8 		addq	$168, %rsp
 243      000000
 244 00b7 5B       		popq	%rbx
 245 00b8 5D       		popq	%rbp
 246              		.cfi_def_cfa 7, 8
 247 00b9 C3       		ret
 248              		.cfi_endproc
 249              	.LFE866:
 250              		.section	.gcc_except_table,"a",@progbits
 251              	.LLSDA866:
 252 0000 FF       		.byte	0xff
 253 0001 FF       		.byte	0xff
 254 0002 01       		.byte	0x1
 255 0003 12       		.uleb128 .LLSDACSE866-.LLSDACSB866
 256              	.LLSDACSB866:
 257 0004 4B       		.uleb128 .LEHB5-.LFB866
 258 0005 05       		.uleb128 .LEHE5-.LEHB5
 259 0006 00       		.uleb128 0
 260 0007 00       		.uleb128 0
 261 0008 68       		.uleb128 .LEHB6-.LFB866
 262 0009 05       		.uleb128 .LEHE6-.LEHB6
 263 000a 8E01     		.uleb128 .L15-.LFB866
 264 000c 00       		.uleb128 0
 265 000d 77       		.uleb128 .LEHB7-.LFB866
 266 000e 05       		.uleb128 .LEHE7-.LEHB7
 267 000f 00       		.uleb128 0
 268 0010 00       		.uleb128 0
 269 0011 A601     		.uleb128 .LEHB8-.LFB866
 270 0013 05       		.uleb128 .LEHE8-.LEHB8
 271 0014 00       		.uleb128 0
 272 0015 00       		.uleb128 0
 273              	.LLSDACSE866:
 274              		.text
 276              		.section	.text._ZNSt4pairIiNSt7__cxx1112basic_stringIcSt11char_traitsIcESaIcEEEED2Ev,"axG",@progbi
 277              		.align 2
 278              		.weak	_ZNSt4pairIiNSt7__cxx1112basic_stringIcSt11char_traitsIcESaIcEEEED2Ev
 280              	_ZNSt4pairIiNSt7__cxx1112basic_stringIcSt11char_traitsIcESaIcEEEED2Ev:
 281              	.LFB872:
 282              		.file 4 "/usr/include/c++/5/bits/stl_pair.h"
   1:/usr/include/c++/5/bits/stl_pair.h **** // Pair implementation -*- C++ -*-
   2:/usr/include/c++/5/bits/stl_pair.h **** 
   3:/usr/include/c++/5/bits/stl_pair.h **** // Copyright (C) 2001-2015 Free Software Foundation, Inc.
   4:/usr/include/c++/5/bits/stl_pair.h **** //
   5:/usr/include/c++/5/bits/stl_pair.h **** // This file is part of the GNU ISO C++ Library.  This library is free
   6:/usr/include/c++/5/bits/stl_pair.h **** // software; you can redistribute it and/or modify it under the
   7:/usr/include/c++/5/bits/stl_pair.h **** // terms of the GNU General Public License as published by the
   8:/usr/include/c++/5/bits/stl_pair.h **** // Free Software Foundation; either version 3, or (at your option)
   9:/usr/include/c++/5/bits/stl_pair.h **** // any later version.
  10:/usr/include/c++/5/bits/stl_pair.h **** 
  11:/usr/include/c++/5/bits/stl_pair.h **** // This library is distributed in the hope that it will be useful,
  12:/usr/include/c++/5/bits/stl_pair.h **** // but WITHOUT ANY WARRANTY; without even the implied warranty of
  13:/usr/include/c++/5/bits/stl_pair.h **** // MERCHANTABILITY or FITNESS FOR A PARTICULAR PURPOSE.  See the
  14:/usr/include/c++/5/bits/stl_pair.h **** // GNU General Public License for more details.
  15:/usr/include/c++/5/bits/stl_pair.h **** 
  16:/usr/include/c++/5/bits/stl_pair.h **** // Under Section 7 of GPL version 3, you are granted additional
  17:/usr/include/c++/5/bits/stl_pair.h **** // permissions described in the GCC Runtime Library Exception, version
  18:/usr/include/c++/5/bits/stl_pair.h **** // 3.1, as published by the Free Software Foundation.
  19:/usr/include/c++/5/bits/stl_pair.h **** 
  20:/usr/include/c++/5/bits/stl_pair.h **** // You should have received a copy of the GNU General Public License and
  21:/usr/include/c++/5/bits/stl_pair.h **** // a copy of the GCC Runtime Library Exception along with this program;
  22:/usr/include/c++/5/bits/stl_pair.h **** // see the files COPYING3 and COPYING.RUNTIME respectively.  If not, see
  23:/usr/include/c++/5/bits/stl_pair.h **** // <http://www.gnu.org/licenses/>.
  24:/usr/include/c++/5/bits/stl_pair.h **** 
  25:/usr/include/c++/5/bits/stl_pair.h **** /*
  26:/usr/include/c++/5/bits/stl_pair.h ****  *
  27:/usr/include/c++/5/bits/stl_pair.h ****  * Copyright (c) 1994
  28:/usr/include/c++/5/bits/stl_pair.h ****  * Hewlett-Packard Company
  29:/usr/include/c++/5/bits/stl_pair.h ****  *
  30:/usr/include/c++/5/bits/stl_pair.h ****  * Permission to use, copy, modify, distribute and sell this software
  31:/usr/include/c++/5/bits/stl_pair.h ****  * and its documentation for any purpose is hereby granted without fee,
  32:/usr/include/c++/5/bits/stl_pair.h ****  * provided that the above copyright notice appear in all copies and
  33:/usr/include/c++/5/bits/stl_pair.h ****  * that both that copyright notice and this permission notice appear
  34:/usr/include/c++/5/bits/stl_pair.h ****  * in supporting documentation.  Hewlett-Packard Company makes no
  35:/usr/include/c++/5/bits/stl_pair.h ****  * representations about the suitability of this software for any
  36:/usr/include/c++/5/bits/stl_pair.h ****  * purpose.  It is provided "as is" without express or implied warranty.
  37:/usr/include/c++/5/bits/stl_pair.h ****  *
  38:/usr/include/c++/5/bits/stl_pair.h ****  *
  39:/usr/include/c++/5/bits/stl_pair.h ****  * Copyright (c) 1996,1997
  40:/usr/include/c++/5/bits/stl_pair.h ****  * Silicon Graphics Computer Systems, Inc.
  41:/usr/include/c++/5/bits/stl_pair.h ****  *
  42:/usr/include/c++/5/bits/stl_pair.h ****  * Permission to use, copy, modify, distribute and sell this software
  43:/usr/include/c++/5/bits/stl_pair.h ****  * and its documentation for any purpose is hereby granted without fee,
  44:/usr/include/c++/5/bits/stl_pair.h ****  * provided that the above copyright notice appear in all copies and
  45:/usr/include/c++/5/bits/stl_pair.h ****  * that both that copyright notice and this permission notice appear
  46:/usr/include/c++/5/bits/stl_pair.h ****  * in supporting documentation.  Silicon Graphics makes no
  47:/usr/include/c++/5/bits/stl_pair.h ****  * representations about the suitability of this software for any
  48:/usr/include/c++/5/bits/stl_pair.h ****  * purpose.  It is provided "as is" without express or implied warranty.
  49:/usr/include/c++/5/bits/stl_pair.h ****  */
  50:/usr/include/c++/5/bits/stl_pair.h **** 
  51:/usr/include/c++/5/bits/stl_pair.h **** /** @file bits/stl_pair.h
  52:/usr/include/c++/5/bits/stl_pair.h ****  *  This is an internal header file, included by other library headers.
  53:/usr/include/c++/5/bits/stl_pair.h ****  *  Do not attempt to use it directly. @headername{utility}
  54:/usr/include/c++/5/bits/stl_pair.h ****  */
  55:/usr/include/c++/5/bits/stl_pair.h **** 
  56:/usr/include/c++/5/bits/stl_pair.h **** #ifndef _STL_PAIR_H
  57:/usr/include/c++/5/bits/stl_pair.h **** #define _STL_PAIR_H 1
  58:/usr/include/c++/5/bits/stl_pair.h **** 
  59:/usr/include/c++/5/bits/stl_pair.h **** #include <bits/move.h> // for std::move / std::forward, and std::swap
  60:/usr/include/c++/5/bits/stl_pair.h **** 
  61:/usr/include/c++/5/bits/stl_pair.h **** #if __cplusplus >= 201103L
  62:/usr/include/c++/5/bits/stl_pair.h **** #include <type_traits> // for std::__decay_and_strip too
  63:/usr/include/c++/5/bits/stl_pair.h **** #endif
  64:/usr/include/c++/5/bits/stl_pair.h **** 
  65:/usr/include/c++/5/bits/stl_pair.h **** namespace std _GLIBCXX_VISIBILITY(default)
  66:/usr/include/c++/5/bits/stl_pair.h **** {
  67:/usr/include/c++/5/bits/stl_pair.h **** _GLIBCXX_BEGIN_NAMESPACE_VERSION
  68:/usr/include/c++/5/bits/stl_pair.h **** 
  69:/usr/include/c++/5/bits/stl_pair.h ****   /**
  70:/usr/include/c++/5/bits/stl_pair.h ****    *  @addtogroup utilities
  71:/usr/include/c++/5/bits/stl_pair.h ****    *  @{
  72:/usr/include/c++/5/bits/stl_pair.h ****    */
  73:/usr/include/c++/5/bits/stl_pair.h **** 
  74:/usr/include/c++/5/bits/stl_pair.h **** #if __cplusplus >= 201103L
  75:/usr/include/c++/5/bits/stl_pair.h ****   /// piecewise_construct_t
  76:/usr/include/c++/5/bits/stl_pair.h ****   struct piecewise_construct_t { };
  77:/usr/include/c++/5/bits/stl_pair.h **** 
  78:/usr/include/c++/5/bits/stl_pair.h ****   /// piecewise_construct
  79:/usr/include/c++/5/bits/stl_pair.h ****   constexpr piecewise_construct_t piecewise_construct = piecewise_construct_t();
  80:/usr/include/c++/5/bits/stl_pair.h **** 
  81:/usr/include/c++/5/bits/stl_pair.h ****   // Forward declarations.
  82:/usr/include/c++/5/bits/stl_pair.h ****   template<typename...>
  83:/usr/include/c++/5/bits/stl_pair.h ****     class tuple;
  84:/usr/include/c++/5/bits/stl_pair.h **** 
  85:/usr/include/c++/5/bits/stl_pair.h ****   template<std::size_t...>
  86:/usr/include/c++/5/bits/stl_pair.h ****     struct _Index_tuple;
  87:/usr/include/c++/5/bits/stl_pair.h **** #endif
  88:/usr/include/c++/5/bits/stl_pair.h **** 
  89:/usr/include/c++/5/bits/stl_pair.h ****  /**
  90:/usr/include/c++/5/bits/stl_pair.h ****    *  @brief Struct holding two objects of arbitrary type.
  91:/usr/include/c++/5/bits/stl_pair.h ****    *
  92:/usr/include/c++/5/bits/stl_pair.h ****    *  @tparam _T1  Type of first object.
  93:/usr/include/c++/5/bits/stl_pair.h ****    *  @tparam _T2  Type of second object.
  94:/usr/include/c++/5/bits/stl_pair.h ****    */
  95:/usr/include/c++/5/bits/stl_pair.h ****   template<class _T1, class _T2>
  96:/usr/include/c++/5/bits/stl_pair.h ****     struct pair
 283              		.loc 4 96 0
 284              		.cfi_startproc
 285 0000 55       		pushq	%rbp
 286              		.cfi_def_cfa_offset 16
 287              		.cfi_offset 6, -16
 288 0001 4889E5   		movq	%rsp, %rbp
 289              		.cfi_def_cfa_register 6
 290 0004 4883EC10 		subq	$16, %rsp
 291 0008 48897DF8 		movq	%rdi, -8(%rbp)
 292              	.LBB4:
 293              		.loc 4 96 0
 294 000c 488B45F8 		movq	-8(%rbp), %rax
 295 0010 4883C008 		addq	$8, %rax
 296 0014 4889C7   		movq	%rax, %rdi
 297 0017 E8000000 		call	_ZNSt7__cxx1112basic_stringIcSt11char_traitsIcESaIcEED1Ev@PLT
 297      00
 298              	.LBE4:
 299 001c 90       		nop
 300 001d C9       		leave
 301              		.cfi_def_cfa 7, 8
 302 001e C3       		ret
 303              		.cfi_endproc
 304              	.LFE872:
 306              		.weak	_ZNSt4pairIiNSt7__cxx1112basic_stringIcSt11char_traitsIcESaIcEEEED1Ev
 307              		.set	_ZNSt4pairIiNSt7__cxx1112basic_stringIcSt11char_traitsIcESaIcEEEED1Ev,_ZNSt4pairIiNSt7__cxx11
 308              		.text
 309              		.align 2
 310              		.globl	_ZN8UnitTest20DeferredTestReporter13ReportFailureERKNS_11TestDetailsEPKc
 312              	_ZN8UnitTest20DeferredTestReporter13ReportFailureERKNS_11TestDetailsEPKc:
 313              	.LFB870:
  11:DeferredTestReporter.cpp **** 
  12:DeferredTestReporter.cpp **** void DeferredTestReporter::ReportFailure(TestDetails const& details, char const* failure)
  13:DeferredTestReporter.cpp **** {
 314              		.loc 3 13 0
 315              		.cfi_startproc
 316              		.cfi_personality 0x9b,DW.ref.__gxx_personality_v0
 317              		.cfi_lsda 0x1b,.LLSDA870
 318 00ba 55       		pushq	%rbp
 319              		.cfi_def_cfa_offset 16
 320              		.cfi_offset 6, -16
 321 00bb 4889E5   		movq	%rsp, %rbp
 322              		.cfi_def_cfa_register 6
 323 00be 53       		pushq	%rbx
 324 00bf 4881EC88 		subq	$136, %rsp
 324      000000
 325              		.cfi_offset 3, -24
 326 00c6 48897D88 		movq	%rdi, -120(%rbp)
 327 00ca 48897580 		movq	%rsi, -128(%rbp)
 328 00ce 48899578 		movq	%rdx, -136(%rbp)
 328      FFFFFF
 329              		.loc 3 13 0
 330 00d5 64488B04 		movq	%fs:40, %rax
 330      25280000 
 330      00
 331 00de 488945E8 		movq	%rax, -24(%rbp)
 332 00e2 31C0     		xorl	%eax, %eax
  14:DeferredTestReporter.cpp ****     DeferredTestResult& r = m_results.back();
 333              		.loc 3 14 0
 334 00e4 488B4588 		movq	-120(%rbp), %rax
 335 00e8 4883C008 		addq	$8, %rax
 336 00ec 4889C7   		movq	%rax, %rdi
 337              	.LEHB9:
 338 00ef E8000000 		call	_ZNSt6vectorIN8UnitTest18DeferredTestResultESaIS1_EE4backEv@PLT
 338      00
 339              	.LEHE9:
 340 00f4 48894598 		movq	%rax, -104(%rbp)
  15:DeferredTestReporter.cpp ****     r.failed = true;
 341              		.loc 3 15 0
 342 00f8 488B4598 		movq	-104(%rbp), %rax
 343 00fc C6407C01 		movb	$1, 124(%rax)
  16:DeferredTestReporter.cpp ****     r.failures.push_back(DeferredTestResult::Failure(details.lineNumber, failure));
 344              		.loc 3 16 0
 345 0100 488D4597 		leaq	-105(%rbp), %rax
 346 0104 4889C7   		movq	%rax, %rdi
 347 0107 E8000000 		call	_ZNSaIcEC1Ev@PLT
 347      00
 348 010c 488D5597 		leaq	-105(%rbp), %rdx
 349 0110 488B8D78 		movq	-136(%rbp), %rcx
 349      FFFFFF
 350 0117 488D45A0 		leaq	-96(%rbp), %rax
 351 011b 4889CE   		movq	%rcx, %rsi
 352 011e 4889C7   		movq	%rax, %rdi
 353              	.LEHB10:
 354 0121 E8000000 		call	_ZNSt7__cxx1112basic_stringIcSt11char_traitsIcESaIcEEC1EPKcRKS3_@PLT
 354      00
 355              	.LEHE10:
 356              		.loc 3 16 0 is_stmt 0 discriminator 2
 357 0126 488B4580 		movq	-128(%rbp), %rax
 358 012a 488D4818 		leaq	24(%rax), %rcx
 359 012e 488D55A0 		leaq	-96(%rbp), %rdx
 360 0132 488D45C0 		leaq	-64(%rbp), %rax
 361 0136 4889CE   		movq	%rcx, %rsi
 362 0139 4889C7   		movq	%rax, %rdi
 363              	.LEHB11:
 364 013c E8000000 		call	_ZNSt4pairIiNSt7__cxx1112basic_stringIcSt11char_traitsIcESaIcEEEEC1ERKiRKS5_@PLT
 364      00
 365              	.LEHE11:
 366              		.loc 3 16 0 discriminator 4
 367 0141 488B4598 		movq	-104(%rbp), %rax
 368 0145 488D5060 		leaq	96(%rax), %rdx
 369 0149 488D45C0 		leaq	-64(%rbp), %rax
 370 014d 4889C6   		movq	%rax, %rsi
 371 0150 4889D7   		movq	%rdx, %rdi
 372              	.LEHB12:
 373 0153 E8000000 		call	_ZNSt6vectorISt4pairIiNSt7__cxx1112basic_stringIcSt11char_traitsIcESaIcEEEESaIS7_EE9push_back
 373      00
 374              	.LEHE12:
 375              		.loc 3 16 0 discriminator 6
 376 0158 488D45C0 		leaq	-64(%rbp), %rax
 377 015c 4889C7   		movq	%rax, %rdi
 378              	.LEHB13:
 379 015f E8000000 		call	_ZNSt4pairIiNSt7__cxx1112basic_stringIcSt11char_traitsIcESaIcEEEED1Ev@PLT
 379      00
 380              	.LEHE13:
 381              		.loc 3 16 0 discriminator 8
 382 0164 488D45A0 		leaq	-96(%rbp), %rax
 383 0168 4889C7   		movq	%rax, %rdi
 384              	.LEHB14:
 385 016b E8000000 		call	_ZNSt7__cxx1112basic_stringIcSt11char_traitsIcESaIcEED1Ev@PLT
 385      00
 386              	.LEHE14:
 387              		.loc 3 16 0 discriminator 10
 388 0170 488D4597 		leaq	-105(%rbp), %rax
 389 0174 4889C7   		movq	%rax, %rdi
 390 0177 E8000000 		call	_ZNSaIcED1Ev@PLT
 390      00
  17:DeferredTestReporter.cpp ****     r.failureFile = details.filename;
 391              		.loc 3 17 0 is_stmt 1 discriminator 10
 392 017c 488B4580 		movq	-128(%rbp), %rax
 393 0180 488B4010 		movq	16(%rax), %rax
 394 0184 488B5598 		movq	-104(%rbp), %rdx
 395 0188 4883C240 		addq	$64, %rdx
 396 018c 4889C6   		movq	%rax, %rsi
 397 018f 4889D7   		movq	%rdx, %rdi
 398              	.LEHB15:
 399 0192 E8000000 		call	_ZNSt7__cxx1112basic_stringIcSt11char_traitsIcESaIcEEaSEPKc@PLT
 399      00
 400              	.LEHE15:
  18:DeferredTestReporter.cpp **** }
 401              		.loc 3 18 0 discriminator 10
 402 0197 90       		nop
 403 0198 488B45E8 		movq	-24(%rbp), %rax
 404 019c 64483304 		xorq	%fs:40, %rax
 404      25280000 
 404      00
 405 01a5 7443     		je	.L22
 406 01a7 EB3C     		jmp	.L26
 407              	.L25:
 408 01a9 4889C3   		movq	%rax, %rbx
  16:DeferredTestReporter.cpp ****     r.failures.push_back(DeferredTestResult::Failure(details.lineNumber, failure));
 409              		.loc 3 16 0
 410 01ac 488D45C0 		leaq	-64(%rbp), %rax
 411 01b0 4889C7   		movq	%rax, %rdi
 412 01b3 E8000000 		call	_ZNSt4pairIiNSt7__cxx1112basic_stringIcSt11char_traitsIcESaIcEEEED1Ev@PLT
 412      00
 413 01b8 EB03     		jmp	.L20
 414              	.L24:
 415 01ba 4889C3   		movq	%rax, %rbx
 416              	.L20:
  16:DeferredTestReporter.cpp ****     r.failures.push_back(DeferredTestResult::Failure(details.lineNumber, failure));
 417              		.loc 3 16 0 is_stmt 0 discriminator 7
 418 01bd 488D45A0 		leaq	-96(%rbp), %rax
 419 01c1 4889C7   		movq	%rax, %rdi
 420 01c4 E8000000 		call	_ZNSt7__cxx1112basic_stringIcSt11char_traitsIcESaIcEED1Ev@PLT
 420      00
 421 01c9 EB03     		jmp	.L21
 422              	.L23:
 423 01cb 4889C3   		movq	%rax, %rbx
 424              	.L21:
  16:DeferredTestReporter.cpp ****     r.failures.push_back(DeferredTestResult::Failure(details.lineNumber, failure));
 425              		.loc 3 16 0 discriminator 9
 426 01ce 488D4597 		leaq	-105(%rbp), %rax
 427 01d2 4889C7   		movq	%rax, %rdi
 428 01d5 E8000000 		call	_ZNSaIcED1Ev@PLT
 428      00
 429 01da 4889D8   		movq	%rbx, %rax
 430 01dd 4889C7   		movq	%rax, %rdi
 431              	.LEHB16:
 432 01e0 E8000000 		call	_Unwind_Resume@PLT
 432      00
 433              	.LEHE16:
 434              	.L26:
 435              		.loc 3 18 0 is_stmt 1
 436 01e5 E8000000 		call	__stack_chk_fail@PLT
 436      00
 437              	.L22:
 438 01ea 4881C488 		addq	$136, %rsp
 438      000000
 439 01f1 5B       		popq	%rbx
 440 01f2 5D       		popq	%rbp
 441              		.cfi_def_cfa 7, 8
 442 01f3 C3       		ret
 443              		.cfi_endproc
 444              	.LFE870:
 445              		.section	.gcc_except_table
 446              	.LLSDA870:
 447 0016 FF       		.byte	0xff
 448 0017 FF       		.byte	0xff
 449 0018 01       		.byte	0x1
 450 0019 2B       		.uleb128 .LLSDACSE870-.LLSDACSB870
 451              	.LLSDACSB870:
 452 001a 35       		.uleb128 .LEHB9-.LFB870
 453 001b 05       		.uleb128 .LEHE9-.LEHB9
 454 001c 00       		.uleb128 0
 455 001d 00       		.uleb128 0
 456 001e 67       		.uleb128 .LEHB10-.LFB870
 457 001f 05       		.uleb128 .LEHE10-.LEHB10
 458 0020 9102     		.uleb128 .L23-.LFB870
 459 0022 00       		.uleb128 0
 460 0023 8201     		.uleb128 .LEHB11-.LFB870
 461 0025 05       		.uleb128 .LEHE11-.LEHB11
 462 0026 8002     		.uleb128 .L24-.LFB870
 463 0028 00       		.uleb128 0
 464 0029 9901     		.uleb128 .LEHB12-.LFB870
 465 002b 05       		.uleb128 .LEHE12-.LEHB12
 466 002c EF01     		.uleb128 .L25-.LFB870
 467 002e 00       		.uleb128 0
 468 002f A501     		.uleb128 .LEHB13-.LFB870
 469 0031 05       		.uleb128 .LEHE13-.LEHB13
 470 0032 8002     		.uleb128 .L24-.LFB870
 471 0034 00       		.uleb128 0
 472 0035 B101     		.uleb128 .LEHB14-.LFB870
 473 0037 05       		.uleb128 .LEHE14-.LEHB14
 474 0038 9102     		.uleb128 .L23-.LFB870
 475 003a 00       		.uleb128 0
 476 003b D801     		.uleb128 .LEHB15-.LFB870
 477 003d 05       		.uleb128 .LEHE15-.LEHB15
 478 003e 00       		.uleb128 0
 479 003f 00       		.uleb128 0
 480 0040 A602     		.uleb128 .LEHB16-.LFB870
 481 0042 05       		.uleb128 .LEHE16-.LEHB16
 482 0043 00       		.uleb128 0
 483 0044 00       		.uleb128 0
 484              	.LLSDACSE870:
 485              		.text
 487              		.align 2
 488              		.globl	_ZN8UnitTest20DeferredTestReporter16ReportTestFinishERKNS_11TestDetailsEf
 490              	_ZN8UnitTest20DeferredTestReporter16ReportTestFinishERKNS_11TestDetailsEf:
 491              	.LFB874:
  19:DeferredTestReporter.cpp **** 
  20:DeferredTestReporter.cpp **** void DeferredTestReporter::ReportTestFinish(TestDetails const&, float secondsElapsed)
  21:DeferredTestReporter.cpp **** {
 492              		.loc 3 21 0
 493              		.cfi_startproc
 494 01f4 55       		pushq	%rbp
 495              		.cfi_def_cfa_offset 16
 496              		.cfi_offset 6, -16
 497 01f5 4889E5   		movq	%rsp, %rbp
 498              		.cfi_def_cfa_register 6
 499 01f8 4883EC30 		subq	$48, %rsp
 500 01fc 48897DE8 		movq	%rdi, -24(%rbp)
 501 0200 488975E0 		movq	%rsi, -32(%rbp)
 502 0204 F30F1145 		movss	%xmm0, -36(%rbp)
 502      DC
  22:DeferredTestReporter.cpp ****     DeferredTestResult& r = m_results.back();
 503              		.loc 3 22 0
 504 0209 488B45E8 		movq	-24(%rbp), %rax
 505 020d 4883C008 		addq	$8, %rax
 506 0211 4889C7   		movq	%rax, %rdi
 507 0214 E8000000 		call	_ZNSt6vectorIN8UnitTest18DeferredTestResultESaIS1_EE4backEv@PLT
 507      00
 508 0219 488945F8 		movq	%rax, -8(%rbp)
  23:DeferredTestReporter.cpp ****     r.timeElapsed = secondsElapsed;
 509              		.loc 3 23 0
 510 021d 488B45F8 		movq	-8(%rbp), %rax
 511 0221 F30F1045 		movss	-36(%rbp), %xmm0
 511      DC
 512 0226 F30F1140 		movss	%xmm0, 120(%rax)
 512      78
  24:DeferredTestReporter.cpp **** }
 513              		.loc 3 24 0
 514 022b 90       		nop
 515 022c C9       		leave
 516              		.cfi_def_cfa 7, 8
 517 022d C3       		ret
 518              		.cfi_endproc
 519              	.LFE874:
 521              		.align 2
 522              		.globl	_ZN8UnitTest20DeferredTestReporter10GetResultsEv
 524              	_ZN8UnitTest20DeferredTestReporter10GetResultsEv:
 525              	.LFB875:
  25:DeferredTestReporter.cpp **** 
  26:DeferredTestReporter.cpp **** DeferredTestReporter::DeferredTestResultList& DeferredTestReporter::GetResults()
  27:DeferredTestReporter.cpp **** {
 526              		.loc 3 27 0
 527              		.cfi_startproc
 528 022e 55       		pushq	%rbp
 529              		.cfi_def_cfa_offset 16
 530              		.cfi_offset 6, -16
 531 022f 4889E5   		movq	%rsp, %rbp
 532              		.cfi_def_cfa_register 6
 533 0232 48897DF8 		movq	%rdi, -8(%rbp)
  28:DeferredTestReporter.cpp ****     return m_results;
 534              		.loc 3 28 0
 535 0236 488B45F8 		movq	-8(%rbp), %rax
 536 023a 4883C008 		addq	$8, %rax
  29:DeferredTestReporter.cpp **** }
 537              		.loc 3 29 0
 538 023e 5D       		popq	%rbp
 539              		.cfi_def_cfa 7, 8
 540 023f C3       		ret
 541              		.cfi_endproc
 542              	.LFE875:
 544              		.section	.text._ZNSt6vectorISt4pairIiNSt7__cxx1112basic_stringIcSt11char_traitsIcESaIcEEEESaIS7_EE
 545              		.align 2
 546              		.weak	_ZNSt6vectorISt4pairIiNSt7__cxx1112basic_stringIcSt11char_traitsIcESaIcEEEESaIS7_EED2Ev
 548              	_ZNSt6vectorISt4pairIiNSt7__cxx1112basic_stringIcSt11char_traitsIcESaIcEEEESaIS7_EED2Ev:
 549              	.LFB884:
 550              		.file 5 "/usr/include/c++/5/bits/stl_vector.h"
   1:/usr/include/c++/5/bits/stl_vector.h **** // Vector implementation -*- C++ -*-
   2:/usr/include/c++/5/bits/stl_vector.h **** 
   3:/usr/include/c++/5/bits/stl_vector.h **** // Copyright (C) 2001-2015 Free Software Foundation, Inc.
   4:/usr/include/c++/5/bits/stl_vector.h **** //
   5:/usr/include/c++/5/bits/stl_vector.h **** // This file is part of the GNU ISO C++ Library.  This library is free
   6:/usr/include/c++/5/bits/stl_vector.h **** // software; you can redistribute it and/or modify it under the
   7:/usr/include/c++/5/bits/stl_vector.h **** // terms of the GNU General Public License as published by the
   8:/usr/include/c++/5/bits/stl_vector.h **** // Free Software Foundation; either version 3, or (at your option)
   9:/usr/include/c++/5/bits/stl_vector.h **** // any later version.
  10:/usr/include/c++/5/bits/stl_vector.h **** 
  11:/usr/include/c++/5/bits/stl_vector.h **** // This library is distributed in the hope that it will be useful,
  12:/usr/include/c++/5/bits/stl_vector.h **** // but WITHOUT ANY WARRANTY; without even the implied warranty of
  13:/usr/include/c++/5/bits/stl_vector.h **** // MERCHANTABILITY or FITNESS FOR A PARTICULAR PURPOSE.  See the
  14:/usr/include/c++/5/bits/stl_vector.h **** // GNU General Public License for more details.
  15:/usr/include/c++/5/bits/stl_vector.h **** 
  16:/usr/include/c++/5/bits/stl_vector.h **** // Under Section 7 of GPL version 3, you are granted additional
  17:/usr/include/c++/5/bits/stl_vector.h **** // permissions described in the GCC Runtime Library Exception, version
  18:/usr/include/c++/5/bits/stl_vector.h **** // 3.1, as published by the Free Software Foundation.
  19:/usr/include/c++/5/bits/stl_vector.h **** 
  20:/usr/include/c++/5/bits/stl_vector.h **** // You should have received a copy of the GNU General Public License and
  21:/usr/include/c++/5/bits/stl_vector.h **** // a copy of the GCC Runtime Library Exception along with this program;
  22:/usr/include/c++/5/bits/stl_vector.h **** // see the files COPYING3 and COPYING.RUNTIME respectively.  If not, see
  23:/usr/include/c++/5/bits/stl_vector.h **** // <http://www.gnu.org/licenses/>.
  24:/usr/include/c++/5/bits/stl_vector.h **** 
  25:/usr/include/c++/5/bits/stl_vector.h **** /*
  26:/usr/include/c++/5/bits/stl_vector.h ****  *
  27:/usr/include/c++/5/bits/stl_vector.h ****  * Copyright (c) 1994
  28:/usr/include/c++/5/bits/stl_vector.h ****  * Hewlett-Packard Company
  29:/usr/include/c++/5/bits/stl_vector.h ****  *
  30:/usr/include/c++/5/bits/stl_vector.h ****  * Permission to use, copy, modify, distribute and sell this software
  31:/usr/include/c++/5/bits/stl_vector.h ****  * and its documentation for any purpose is hereby granted without fee,
  32:/usr/include/c++/5/bits/stl_vector.h ****  * provided that the above copyright notice appear in all copies and
  33:/usr/include/c++/5/bits/stl_vector.h ****  * that both that copyright notice and this permission notice appear
  34:/usr/include/c++/5/bits/stl_vector.h ****  * in supporting documentation.  Hewlett-Packard Company makes no
  35:/usr/include/c++/5/bits/stl_vector.h ****  * representations about the suitability of this software for any
  36:/usr/include/c++/5/bits/stl_vector.h ****  * purpose.  It is provided "as is" without express or implied warranty.
  37:/usr/include/c++/5/bits/stl_vector.h ****  *
  38:/usr/include/c++/5/bits/stl_vector.h ****  *
  39:/usr/include/c++/5/bits/stl_vector.h ****  * Copyright (c) 1996
  40:/usr/include/c++/5/bits/stl_vector.h ****  * Silicon Graphics Computer Systems, Inc.
  41:/usr/include/c++/5/bits/stl_vector.h ****  *
  42:/usr/include/c++/5/bits/stl_vector.h ****  * Permission to use, copy, modify, distribute and sell this software
  43:/usr/include/c++/5/bits/stl_vector.h ****  * and its documentation for any purpose is hereby granted without fee,
  44:/usr/include/c++/5/bits/stl_vector.h ****  * provided that the above copyright notice appear in all copies and
  45:/usr/include/c++/5/bits/stl_vector.h ****  * that both that copyright notice and this permission notice appear
  46:/usr/include/c++/5/bits/stl_vector.h ****  * in supporting documentation.  Silicon Graphics makes no
  47:/usr/include/c++/5/bits/stl_vector.h ****  * representations about the suitability of this  software for any
  48:/usr/include/c++/5/bits/stl_vector.h ****  * purpose.  It is provided "as is" without express or implied warranty.
  49:/usr/include/c++/5/bits/stl_vector.h ****  */
  50:/usr/include/c++/5/bits/stl_vector.h **** 
  51:/usr/include/c++/5/bits/stl_vector.h **** /** @file bits/stl_vector.h
  52:/usr/include/c++/5/bits/stl_vector.h ****  *  This is an internal header file, included by other library headers.
  53:/usr/include/c++/5/bits/stl_vector.h ****  *  Do not attempt to use it directly. @headername{vector}
  54:/usr/include/c++/5/bits/stl_vector.h ****  */
  55:/usr/include/c++/5/bits/stl_vector.h **** 
  56:/usr/include/c++/5/bits/stl_vector.h **** #ifndef _STL_VECTOR_H
  57:/usr/include/c++/5/bits/stl_vector.h **** #define _STL_VECTOR_H 1
  58:/usr/include/c++/5/bits/stl_vector.h **** 
  59:/usr/include/c++/5/bits/stl_vector.h **** #include <bits/stl_iterator_base_funcs.h>
  60:/usr/include/c++/5/bits/stl_vector.h **** #include <bits/functexcept.h>
  61:/usr/include/c++/5/bits/stl_vector.h **** #include <bits/concept_check.h>
  62:/usr/include/c++/5/bits/stl_vector.h **** #if __cplusplus >= 201103L
  63:/usr/include/c++/5/bits/stl_vector.h **** #include <initializer_list>
  64:/usr/include/c++/5/bits/stl_vector.h **** #endif
  65:/usr/include/c++/5/bits/stl_vector.h **** 
  66:/usr/include/c++/5/bits/stl_vector.h **** namespace std _GLIBCXX_VISIBILITY(default)
  67:/usr/include/c++/5/bits/stl_vector.h **** {
  68:/usr/include/c++/5/bits/stl_vector.h **** _GLIBCXX_BEGIN_NAMESPACE_CONTAINER
  69:/usr/include/c++/5/bits/stl_vector.h **** 
  70:/usr/include/c++/5/bits/stl_vector.h ****   /// See bits/stl_deque.h's _Deque_base for an explanation.
  71:/usr/include/c++/5/bits/stl_vector.h ****   template<typename _Tp, typename _Alloc>
  72:/usr/include/c++/5/bits/stl_vector.h ****     struct _Vector_base
  73:/usr/include/c++/5/bits/stl_vector.h ****     {
  74:/usr/include/c++/5/bits/stl_vector.h ****       typedef typename __gnu_cxx::__alloc_traits<_Alloc>::template
  75:/usr/include/c++/5/bits/stl_vector.h ****         rebind<_Tp>::other _Tp_alloc_type;
  76:/usr/include/c++/5/bits/stl_vector.h ****       typedef typename __gnu_cxx::__alloc_traits<_Tp_alloc_type>::pointer
  77:/usr/include/c++/5/bits/stl_vector.h ****        	pointer;
  78:/usr/include/c++/5/bits/stl_vector.h **** 
  79:/usr/include/c++/5/bits/stl_vector.h ****       struct _Vector_impl 
  80:/usr/include/c++/5/bits/stl_vector.h ****       : public _Tp_alloc_type
  81:/usr/include/c++/5/bits/stl_vector.h ****       {
  82:/usr/include/c++/5/bits/stl_vector.h **** 	pointer _M_start;
  83:/usr/include/c++/5/bits/stl_vector.h **** 	pointer _M_finish;
  84:/usr/include/c++/5/bits/stl_vector.h **** 	pointer _M_end_of_storage;
  85:/usr/include/c++/5/bits/stl_vector.h **** 
  86:/usr/include/c++/5/bits/stl_vector.h **** 	_Vector_impl()
  87:/usr/include/c++/5/bits/stl_vector.h **** 	: _Tp_alloc_type(), _M_start(), _M_finish(), _M_end_of_storage()
  88:/usr/include/c++/5/bits/stl_vector.h **** 	{ }
  89:/usr/include/c++/5/bits/stl_vector.h **** 
  90:/usr/include/c++/5/bits/stl_vector.h **** 	_Vector_impl(_Tp_alloc_type const& __a) _GLIBCXX_NOEXCEPT
  91:/usr/include/c++/5/bits/stl_vector.h **** 	: _Tp_alloc_type(__a), _M_start(), _M_finish(), _M_end_of_storage()
  92:/usr/include/c++/5/bits/stl_vector.h **** 	{ }
  93:/usr/include/c++/5/bits/stl_vector.h **** 
  94:/usr/include/c++/5/bits/stl_vector.h **** #if __cplusplus >= 201103L
  95:/usr/include/c++/5/bits/stl_vector.h **** 	_Vector_impl(_Tp_alloc_type&& __a) noexcept
  96:/usr/include/c++/5/bits/stl_vector.h **** 	: _Tp_alloc_type(std::move(__a)),
  97:/usr/include/c++/5/bits/stl_vector.h **** 	  _M_start(), _M_finish(), _M_end_of_storage()
  98:/usr/include/c++/5/bits/stl_vector.h **** 	{ }
  99:/usr/include/c++/5/bits/stl_vector.h **** #endif
 100:/usr/include/c++/5/bits/stl_vector.h **** 
 101:/usr/include/c++/5/bits/stl_vector.h **** 	void _M_swap_data(_Vector_impl& __x) _GLIBCXX_NOEXCEPT
 102:/usr/include/c++/5/bits/stl_vector.h **** 	{
 103:/usr/include/c++/5/bits/stl_vector.h **** 	  std::swap(_M_start, __x._M_start);
 104:/usr/include/c++/5/bits/stl_vector.h **** 	  std::swap(_M_finish, __x._M_finish);
 105:/usr/include/c++/5/bits/stl_vector.h **** 	  std::swap(_M_end_of_storage, __x._M_end_of_storage);
 106:/usr/include/c++/5/bits/stl_vector.h **** 	}
 107:/usr/include/c++/5/bits/stl_vector.h ****       };
 108:/usr/include/c++/5/bits/stl_vector.h ****       
 109:/usr/include/c++/5/bits/stl_vector.h ****     public:
 110:/usr/include/c++/5/bits/stl_vector.h ****       typedef _Alloc allocator_type;
 111:/usr/include/c++/5/bits/stl_vector.h **** 
 112:/usr/include/c++/5/bits/stl_vector.h ****       _Tp_alloc_type&
 113:/usr/include/c++/5/bits/stl_vector.h ****       _M_get_Tp_allocator() _GLIBCXX_NOEXCEPT
 114:/usr/include/c++/5/bits/stl_vector.h ****       { return *static_cast<_Tp_alloc_type*>(&this->_M_impl); }
 115:/usr/include/c++/5/bits/stl_vector.h **** 
 116:/usr/include/c++/5/bits/stl_vector.h ****       const _Tp_alloc_type&
 117:/usr/include/c++/5/bits/stl_vector.h ****       _M_get_Tp_allocator() const _GLIBCXX_NOEXCEPT
 118:/usr/include/c++/5/bits/stl_vector.h ****       { return *static_cast<const _Tp_alloc_type*>(&this->_M_impl); }
 119:/usr/include/c++/5/bits/stl_vector.h **** 
 120:/usr/include/c++/5/bits/stl_vector.h ****       allocator_type
 121:/usr/include/c++/5/bits/stl_vector.h ****       get_allocator() const _GLIBCXX_NOEXCEPT
 122:/usr/include/c++/5/bits/stl_vector.h ****       { return allocator_type(_M_get_Tp_allocator()); }
 123:/usr/include/c++/5/bits/stl_vector.h **** 
 124:/usr/include/c++/5/bits/stl_vector.h ****       _Vector_base()
 125:/usr/include/c++/5/bits/stl_vector.h ****       : _M_impl() { }
 126:/usr/include/c++/5/bits/stl_vector.h **** 
 127:/usr/include/c++/5/bits/stl_vector.h ****       _Vector_base(const allocator_type& __a) _GLIBCXX_NOEXCEPT
 128:/usr/include/c++/5/bits/stl_vector.h ****       : _M_impl(__a) { }
 129:/usr/include/c++/5/bits/stl_vector.h **** 
 130:/usr/include/c++/5/bits/stl_vector.h ****       _Vector_base(size_t __n)
 131:/usr/include/c++/5/bits/stl_vector.h ****       : _M_impl()
 132:/usr/include/c++/5/bits/stl_vector.h ****       { _M_create_storage(__n); }
 133:/usr/include/c++/5/bits/stl_vector.h **** 
 134:/usr/include/c++/5/bits/stl_vector.h ****       _Vector_base(size_t __n, const allocator_type& __a)
 135:/usr/include/c++/5/bits/stl_vector.h ****       : _M_impl(__a)
 136:/usr/include/c++/5/bits/stl_vector.h ****       { _M_create_storage(__n); }
 137:/usr/include/c++/5/bits/stl_vector.h **** 
 138:/usr/include/c++/5/bits/stl_vector.h **** #if __cplusplus >= 201103L
 139:/usr/include/c++/5/bits/stl_vector.h ****       _Vector_base(_Tp_alloc_type&& __a) noexcept
 140:/usr/include/c++/5/bits/stl_vector.h ****       : _M_impl(std::move(__a)) { }
 141:/usr/include/c++/5/bits/stl_vector.h **** 
 142:/usr/include/c++/5/bits/stl_vector.h ****       _Vector_base(_Vector_base&& __x) noexcept
 143:/usr/include/c++/5/bits/stl_vector.h ****       : _M_impl(std::move(__x._M_get_Tp_allocator()))
 144:/usr/include/c++/5/bits/stl_vector.h ****       { this->_M_impl._M_swap_data(__x._M_impl); }
 145:/usr/include/c++/5/bits/stl_vector.h **** 
 146:/usr/include/c++/5/bits/stl_vector.h ****       _Vector_base(_Vector_base&& __x, const allocator_type& __a)
 147:/usr/include/c++/5/bits/stl_vector.h ****       : _M_impl(__a)
 148:/usr/include/c++/5/bits/stl_vector.h ****       {
 149:/usr/include/c++/5/bits/stl_vector.h **** 	if (__x.get_allocator() == __a)
 150:/usr/include/c++/5/bits/stl_vector.h **** 	  this->_M_impl._M_swap_data(__x._M_impl);
 151:/usr/include/c++/5/bits/stl_vector.h **** 	else
 152:/usr/include/c++/5/bits/stl_vector.h **** 	  {
 153:/usr/include/c++/5/bits/stl_vector.h **** 	    size_t __n = __x._M_impl._M_finish - __x._M_impl._M_start;
 154:/usr/include/c++/5/bits/stl_vector.h **** 	    _M_create_storage(__n);
 155:/usr/include/c++/5/bits/stl_vector.h **** 	  }
 156:/usr/include/c++/5/bits/stl_vector.h ****       }
 157:/usr/include/c++/5/bits/stl_vector.h **** #endif
 158:/usr/include/c++/5/bits/stl_vector.h **** 
 159:/usr/include/c++/5/bits/stl_vector.h ****       ~_Vector_base() _GLIBCXX_NOEXCEPT
 160:/usr/include/c++/5/bits/stl_vector.h ****       { _M_deallocate(this->_M_impl._M_start, this->_M_impl._M_end_of_storage
 161:/usr/include/c++/5/bits/stl_vector.h **** 		      - this->_M_impl._M_start); }
 162:/usr/include/c++/5/bits/stl_vector.h **** 
 163:/usr/include/c++/5/bits/stl_vector.h ****     public:
 164:/usr/include/c++/5/bits/stl_vector.h ****       _Vector_impl _M_impl;
 165:/usr/include/c++/5/bits/stl_vector.h **** 
 166:/usr/include/c++/5/bits/stl_vector.h ****       pointer
 167:/usr/include/c++/5/bits/stl_vector.h ****       _M_allocate(size_t __n)
 168:/usr/include/c++/5/bits/stl_vector.h ****       {
 169:/usr/include/c++/5/bits/stl_vector.h **** 	typedef __gnu_cxx::__alloc_traits<_Tp_alloc_type> _Tr;
 170:/usr/include/c++/5/bits/stl_vector.h **** 	return __n != 0 ? _Tr::allocate(_M_impl, __n) : pointer();
 171:/usr/include/c++/5/bits/stl_vector.h ****       }
 172:/usr/include/c++/5/bits/stl_vector.h **** 
 173:/usr/include/c++/5/bits/stl_vector.h ****       void
 174:/usr/include/c++/5/bits/stl_vector.h ****       _M_deallocate(pointer __p, size_t __n)
 175:/usr/include/c++/5/bits/stl_vector.h ****       {
 176:/usr/include/c++/5/bits/stl_vector.h **** 	typedef __gnu_cxx::__alloc_traits<_Tp_alloc_type> _Tr;
 177:/usr/include/c++/5/bits/stl_vector.h **** 	if (__p)
 178:/usr/include/c++/5/bits/stl_vector.h **** 	  _Tr::deallocate(_M_impl, __p, __n);
 179:/usr/include/c++/5/bits/stl_vector.h ****       }
 180:/usr/include/c++/5/bits/stl_vector.h **** 
 181:/usr/include/c++/5/bits/stl_vector.h ****     private:
 182:/usr/include/c++/5/bits/stl_vector.h ****       void
 183:/usr/include/c++/5/bits/stl_vector.h ****       _M_create_storage(size_t __n)
 184:/usr/include/c++/5/bits/stl_vector.h ****       {
 185:/usr/include/c++/5/bits/stl_vector.h **** 	this->_M_impl._M_start = this->_M_allocate(__n);
 186:/usr/include/c++/5/bits/stl_vector.h **** 	this->_M_impl._M_finish = this->_M_impl._M_start;
 187:/usr/include/c++/5/bits/stl_vector.h **** 	this->_M_impl._M_end_of_storage = this->_M_impl._M_start + __n;
 188:/usr/include/c++/5/bits/stl_vector.h ****       }
 189:/usr/include/c++/5/bits/stl_vector.h ****     };
 190:/usr/include/c++/5/bits/stl_vector.h **** 
 191:/usr/include/c++/5/bits/stl_vector.h **** 
 192:/usr/include/c++/5/bits/stl_vector.h ****   /**
 193:/usr/include/c++/5/bits/stl_vector.h ****    *  @brief A standard container which offers fixed time access to
 194:/usr/include/c++/5/bits/stl_vector.h ****    *  individual elements in any order.
 195:/usr/include/c++/5/bits/stl_vector.h ****    *
 196:/usr/include/c++/5/bits/stl_vector.h ****    *  @ingroup sequences
 197:/usr/include/c++/5/bits/stl_vector.h ****    *
 198:/usr/include/c++/5/bits/stl_vector.h ****    *  @tparam _Tp  Type of element.
 199:/usr/include/c++/5/bits/stl_vector.h ****    *  @tparam _Alloc  Allocator type, defaults to allocator<_Tp>.
 200:/usr/include/c++/5/bits/stl_vector.h ****    *
 201:/usr/include/c++/5/bits/stl_vector.h ****    *  Meets the requirements of a <a href="tables.html#65">container</a>, a
 202:/usr/include/c++/5/bits/stl_vector.h ****    *  <a href="tables.html#66">reversible container</a>, and a
 203:/usr/include/c++/5/bits/stl_vector.h ****    *  <a href="tables.html#67">sequence</a>, including the
 204:/usr/include/c++/5/bits/stl_vector.h ****    *  <a href="tables.html#68">optional sequence requirements</a> with the
 205:/usr/include/c++/5/bits/stl_vector.h ****    *  %exception of @c push_front and @c pop_front.
 206:/usr/include/c++/5/bits/stl_vector.h ****    *
 207:/usr/include/c++/5/bits/stl_vector.h ****    *  In some terminology a %vector can be described as a dynamic
 208:/usr/include/c++/5/bits/stl_vector.h ****    *  C-style array, it offers fast and efficient access to individual
 209:/usr/include/c++/5/bits/stl_vector.h ****    *  elements in any order and saves the user from worrying about
 210:/usr/include/c++/5/bits/stl_vector.h ****    *  memory and size allocation.  Subscripting ( @c [] ) access is
 211:/usr/include/c++/5/bits/stl_vector.h ****    *  also provided as with C-style arrays.
 212:/usr/include/c++/5/bits/stl_vector.h ****   */
 213:/usr/include/c++/5/bits/stl_vector.h ****   template<typename _Tp, typename _Alloc = std::allocator<_Tp> >
 214:/usr/include/c++/5/bits/stl_vector.h ****     class vector : protected _Vector_base<_Tp, _Alloc>
 215:/usr/include/c++/5/bits/stl_vector.h ****     {
 216:/usr/include/c++/5/bits/stl_vector.h ****       // Concept requirements.
 217:/usr/include/c++/5/bits/stl_vector.h ****       typedef typename _Alloc::value_type                _Alloc_value_type;
 218:/usr/include/c++/5/bits/stl_vector.h ****       __glibcxx_class_requires(_Tp, _SGIAssignableConcept)
 219:/usr/include/c++/5/bits/stl_vector.h ****       __glibcxx_class_requires2(_Tp, _Alloc_value_type, _SameTypeConcept)
 220:/usr/include/c++/5/bits/stl_vector.h ****       
 221:/usr/include/c++/5/bits/stl_vector.h ****       typedef _Vector_base<_Tp, _Alloc>			 _Base;
 222:/usr/include/c++/5/bits/stl_vector.h ****       typedef typename _Base::_Tp_alloc_type		 _Tp_alloc_type;
 223:/usr/include/c++/5/bits/stl_vector.h ****       typedef __gnu_cxx::__alloc_traits<_Tp_alloc_type>  _Alloc_traits;
 224:/usr/include/c++/5/bits/stl_vector.h **** 
 225:/usr/include/c++/5/bits/stl_vector.h ****     public:
 226:/usr/include/c++/5/bits/stl_vector.h ****       typedef _Tp					 value_type;
 227:/usr/include/c++/5/bits/stl_vector.h ****       typedef typename _Base::pointer                    pointer;
 228:/usr/include/c++/5/bits/stl_vector.h ****       typedef typename _Alloc_traits::const_pointer      const_pointer;
 229:/usr/include/c++/5/bits/stl_vector.h ****       typedef typename _Alloc_traits::reference          reference;
 230:/usr/include/c++/5/bits/stl_vector.h ****       typedef typename _Alloc_traits::const_reference    const_reference;
 231:/usr/include/c++/5/bits/stl_vector.h ****       typedef __gnu_cxx::__normal_iterator<pointer, vector> iterator;
 232:/usr/include/c++/5/bits/stl_vector.h ****       typedef __gnu_cxx::__normal_iterator<const_pointer, vector>
 233:/usr/include/c++/5/bits/stl_vector.h ****       const_iterator;
 234:/usr/include/c++/5/bits/stl_vector.h ****       typedef std::reverse_iterator<const_iterator>  const_reverse_iterator;
 235:/usr/include/c++/5/bits/stl_vector.h ****       typedef std::reverse_iterator<iterator>		 reverse_iterator;
 236:/usr/include/c++/5/bits/stl_vector.h ****       typedef size_t					 size_type;
 237:/usr/include/c++/5/bits/stl_vector.h ****       typedef ptrdiff_t					 difference_type;
 238:/usr/include/c++/5/bits/stl_vector.h ****       typedef _Alloc                        		 allocator_type;
 239:/usr/include/c++/5/bits/stl_vector.h **** 
 240:/usr/include/c++/5/bits/stl_vector.h ****     protected:
 241:/usr/include/c++/5/bits/stl_vector.h ****       using _Base::_M_allocate;
 242:/usr/include/c++/5/bits/stl_vector.h ****       using _Base::_M_deallocate;
 243:/usr/include/c++/5/bits/stl_vector.h ****       using _Base::_M_impl;
 244:/usr/include/c++/5/bits/stl_vector.h ****       using _Base::_M_get_Tp_allocator;
 245:/usr/include/c++/5/bits/stl_vector.h **** 
 246:/usr/include/c++/5/bits/stl_vector.h ****     public:
 247:/usr/include/c++/5/bits/stl_vector.h ****       // [23.2.4.1] construct/copy/destroy
 248:/usr/include/c++/5/bits/stl_vector.h ****       // (assign() and get_allocator() are also listed in this section)
 249:/usr/include/c++/5/bits/stl_vector.h **** 
 250:/usr/include/c++/5/bits/stl_vector.h ****       /**
 251:/usr/include/c++/5/bits/stl_vector.h ****        *  @brief  Creates a %vector with no elements.
 252:/usr/include/c++/5/bits/stl_vector.h ****        */
 253:/usr/include/c++/5/bits/stl_vector.h ****       vector()
 254:/usr/include/c++/5/bits/stl_vector.h **** #if __cplusplus >= 201103L
 255:/usr/include/c++/5/bits/stl_vector.h ****       noexcept(is_nothrow_default_constructible<_Alloc>::value)
 256:/usr/include/c++/5/bits/stl_vector.h **** #endif
 257:/usr/include/c++/5/bits/stl_vector.h ****       : _Base() { }
 258:/usr/include/c++/5/bits/stl_vector.h **** 
 259:/usr/include/c++/5/bits/stl_vector.h ****       /**
 260:/usr/include/c++/5/bits/stl_vector.h ****        *  @brief  Creates a %vector with no elements.
 261:/usr/include/c++/5/bits/stl_vector.h ****        *  @param  __a  An allocator object.
 262:/usr/include/c++/5/bits/stl_vector.h ****        */
 263:/usr/include/c++/5/bits/stl_vector.h ****       explicit
 264:/usr/include/c++/5/bits/stl_vector.h ****       vector(const allocator_type& __a) _GLIBCXX_NOEXCEPT
 265:/usr/include/c++/5/bits/stl_vector.h ****       : _Base(__a) { }
 266:/usr/include/c++/5/bits/stl_vector.h **** 
 267:/usr/include/c++/5/bits/stl_vector.h **** #if __cplusplus >= 201103L
 268:/usr/include/c++/5/bits/stl_vector.h ****       /**
 269:/usr/include/c++/5/bits/stl_vector.h ****        *  @brief  Creates a %vector with default constructed elements.
 270:/usr/include/c++/5/bits/stl_vector.h ****        *  @param  __n  The number of elements to initially create.
 271:/usr/include/c++/5/bits/stl_vector.h ****        *  @param  __a  An allocator.
 272:/usr/include/c++/5/bits/stl_vector.h ****        *
 273:/usr/include/c++/5/bits/stl_vector.h ****        *  This constructor fills the %vector with @a __n default
 274:/usr/include/c++/5/bits/stl_vector.h ****        *  constructed elements.
 275:/usr/include/c++/5/bits/stl_vector.h ****        */
 276:/usr/include/c++/5/bits/stl_vector.h ****       explicit
 277:/usr/include/c++/5/bits/stl_vector.h ****       vector(size_type __n, const allocator_type& __a = allocator_type())
 278:/usr/include/c++/5/bits/stl_vector.h ****       : _Base(__n, __a)
 279:/usr/include/c++/5/bits/stl_vector.h ****       { _M_default_initialize(__n); }
 280:/usr/include/c++/5/bits/stl_vector.h **** 
 281:/usr/include/c++/5/bits/stl_vector.h ****       /**
 282:/usr/include/c++/5/bits/stl_vector.h ****        *  @brief  Creates a %vector with copies of an exemplar element.
 283:/usr/include/c++/5/bits/stl_vector.h ****        *  @param  __n  The number of elements to initially create.
 284:/usr/include/c++/5/bits/stl_vector.h ****        *  @param  __value  An element to copy.
 285:/usr/include/c++/5/bits/stl_vector.h ****        *  @param  __a  An allocator.
 286:/usr/include/c++/5/bits/stl_vector.h ****        *
 287:/usr/include/c++/5/bits/stl_vector.h ****        *  This constructor fills the %vector with @a __n copies of @a __value.
 288:/usr/include/c++/5/bits/stl_vector.h ****        */
 289:/usr/include/c++/5/bits/stl_vector.h ****       vector(size_type __n, const value_type& __value,
 290:/usr/include/c++/5/bits/stl_vector.h **** 	     const allocator_type& __a = allocator_type())
 291:/usr/include/c++/5/bits/stl_vector.h ****       : _Base(__n, __a)
 292:/usr/include/c++/5/bits/stl_vector.h ****       { _M_fill_initialize(__n, __value); }
 293:/usr/include/c++/5/bits/stl_vector.h **** #else
 294:/usr/include/c++/5/bits/stl_vector.h ****       /**
 295:/usr/include/c++/5/bits/stl_vector.h ****        *  @brief  Creates a %vector with copies of an exemplar element.
 296:/usr/include/c++/5/bits/stl_vector.h ****        *  @param  __n  The number of elements to initially create.
 297:/usr/include/c++/5/bits/stl_vector.h ****        *  @param  __value  An element to copy.
 298:/usr/include/c++/5/bits/stl_vector.h ****        *  @param  __a  An allocator.
 299:/usr/include/c++/5/bits/stl_vector.h ****        *
 300:/usr/include/c++/5/bits/stl_vector.h ****        *  This constructor fills the %vector with @a __n copies of @a __value.
 301:/usr/include/c++/5/bits/stl_vector.h ****        */
 302:/usr/include/c++/5/bits/stl_vector.h ****       explicit
 303:/usr/include/c++/5/bits/stl_vector.h ****       vector(size_type __n, const value_type& __value = value_type(),
 304:/usr/include/c++/5/bits/stl_vector.h **** 	     const allocator_type& __a = allocator_type())
 305:/usr/include/c++/5/bits/stl_vector.h ****       : _Base(__n, __a)
 306:/usr/include/c++/5/bits/stl_vector.h ****       { _M_fill_initialize(__n, __value); }
 307:/usr/include/c++/5/bits/stl_vector.h **** #endif
 308:/usr/include/c++/5/bits/stl_vector.h **** 
 309:/usr/include/c++/5/bits/stl_vector.h ****       /**
 310:/usr/include/c++/5/bits/stl_vector.h ****        *  @brief  %Vector copy constructor.
 311:/usr/include/c++/5/bits/stl_vector.h ****        *  @param  __x  A %vector of identical element and allocator types.
 312:/usr/include/c++/5/bits/stl_vector.h ****        *
 313:/usr/include/c++/5/bits/stl_vector.h ****        *  The newly-created %vector uses a copy of the allocation
 314:/usr/include/c++/5/bits/stl_vector.h ****        *  object used by @a __x.  All the elements of @a __x are copied,
 315:/usr/include/c++/5/bits/stl_vector.h ****        *  but any extra memory in
 316:/usr/include/c++/5/bits/stl_vector.h ****        *  @a __x (for fast expansion) will not be copied.
 317:/usr/include/c++/5/bits/stl_vector.h ****        */
 318:/usr/include/c++/5/bits/stl_vector.h ****       vector(const vector& __x)
 319:/usr/include/c++/5/bits/stl_vector.h ****       : _Base(__x.size(),
 320:/usr/include/c++/5/bits/stl_vector.h ****         _Alloc_traits::_S_select_on_copy(__x._M_get_Tp_allocator()))
 321:/usr/include/c++/5/bits/stl_vector.h ****       { this->_M_impl._M_finish =
 322:/usr/include/c++/5/bits/stl_vector.h **** 	  std::__uninitialized_copy_a(__x.begin(), __x.end(),
 323:/usr/include/c++/5/bits/stl_vector.h **** 				      this->_M_impl._M_start,
 324:/usr/include/c++/5/bits/stl_vector.h **** 				      _M_get_Tp_allocator());
 325:/usr/include/c++/5/bits/stl_vector.h ****       }
 326:/usr/include/c++/5/bits/stl_vector.h **** 
 327:/usr/include/c++/5/bits/stl_vector.h **** #if __cplusplus >= 201103L
 328:/usr/include/c++/5/bits/stl_vector.h ****       /**
 329:/usr/include/c++/5/bits/stl_vector.h ****        *  @brief  %Vector move constructor.
 330:/usr/include/c++/5/bits/stl_vector.h ****        *  @param  __x  A %vector of identical element and allocator types.
 331:/usr/include/c++/5/bits/stl_vector.h ****        *
 332:/usr/include/c++/5/bits/stl_vector.h ****        *  The newly-created %vector contains the exact contents of @a __x.
 333:/usr/include/c++/5/bits/stl_vector.h ****        *  The contents of @a __x are a valid, but unspecified %vector.
 334:/usr/include/c++/5/bits/stl_vector.h ****        */
 335:/usr/include/c++/5/bits/stl_vector.h ****       vector(vector&& __x) noexcept
 336:/usr/include/c++/5/bits/stl_vector.h ****       : _Base(std::move(__x)) { }
 337:/usr/include/c++/5/bits/stl_vector.h **** 
 338:/usr/include/c++/5/bits/stl_vector.h ****       /// Copy constructor with alternative allocator
 339:/usr/include/c++/5/bits/stl_vector.h ****       vector(const vector& __x, const allocator_type& __a)
 340:/usr/include/c++/5/bits/stl_vector.h ****       : _Base(__x.size(), __a)
 341:/usr/include/c++/5/bits/stl_vector.h ****       { this->_M_impl._M_finish =
 342:/usr/include/c++/5/bits/stl_vector.h **** 	  std::__uninitialized_copy_a(__x.begin(), __x.end(),
 343:/usr/include/c++/5/bits/stl_vector.h **** 				      this->_M_impl._M_start,
 344:/usr/include/c++/5/bits/stl_vector.h **** 				      _M_get_Tp_allocator());
 345:/usr/include/c++/5/bits/stl_vector.h ****       }
 346:/usr/include/c++/5/bits/stl_vector.h **** 
 347:/usr/include/c++/5/bits/stl_vector.h ****       /// Move constructor with alternative allocator
 348:/usr/include/c++/5/bits/stl_vector.h ****       vector(vector&& __rv, const allocator_type& __m)
 349:/usr/include/c++/5/bits/stl_vector.h ****       noexcept(_Alloc_traits::_S_always_equal())
 350:/usr/include/c++/5/bits/stl_vector.h ****       : _Base(std::move(__rv), __m)
 351:/usr/include/c++/5/bits/stl_vector.h ****       {
 352:/usr/include/c++/5/bits/stl_vector.h **** 	if (__rv.get_allocator() != __m)
 353:/usr/include/c++/5/bits/stl_vector.h **** 	  {
 354:/usr/include/c++/5/bits/stl_vector.h **** 	    this->_M_impl._M_finish =
 355:/usr/include/c++/5/bits/stl_vector.h **** 	      std::__uninitialized_move_a(__rv.begin(), __rv.end(),
 356:/usr/include/c++/5/bits/stl_vector.h **** 					  this->_M_impl._M_start,
 357:/usr/include/c++/5/bits/stl_vector.h **** 					  _M_get_Tp_allocator());
 358:/usr/include/c++/5/bits/stl_vector.h **** 	    __rv.clear();
 359:/usr/include/c++/5/bits/stl_vector.h **** 	  }
 360:/usr/include/c++/5/bits/stl_vector.h ****       }
 361:/usr/include/c++/5/bits/stl_vector.h **** 
 362:/usr/include/c++/5/bits/stl_vector.h ****       /**
 363:/usr/include/c++/5/bits/stl_vector.h ****        *  @brief  Builds a %vector from an initializer list.
 364:/usr/include/c++/5/bits/stl_vector.h ****        *  @param  __l  An initializer_list.
 365:/usr/include/c++/5/bits/stl_vector.h ****        *  @param  __a  An allocator.
 366:/usr/include/c++/5/bits/stl_vector.h ****        *
 367:/usr/include/c++/5/bits/stl_vector.h ****        *  Create a %vector consisting of copies of the elements in the
 368:/usr/include/c++/5/bits/stl_vector.h ****        *  initializer_list @a __l.
 369:/usr/include/c++/5/bits/stl_vector.h ****        *
 370:/usr/include/c++/5/bits/stl_vector.h ****        *  This will call the element type's copy constructor N times
 371:/usr/include/c++/5/bits/stl_vector.h ****        *  (where N is @a __l.size()) and do no memory reallocation.
 372:/usr/include/c++/5/bits/stl_vector.h ****        */
 373:/usr/include/c++/5/bits/stl_vector.h ****       vector(initializer_list<value_type> __l,
 374:/usr/include/c++/5/bits/stl_vector.h **** 	     const allocator_type& __a = allocator_type())
 375:/usr/include/c++/5/bits/stl_vector.h ****       : _Base(__a)
 376:/usr/include/c++/5/bits/stl_vector.h ****       {
 377:/usr/include/c++/5/bits/stl_vector.h **** 	_M_range_initialize(__l.begin(), __l.end(),
 378:/usr/include/c++/5/bits/stl_vector.h **** 			    random_access_iterator_tag());
 379:/usr/include/c++/5/bits/stl_vector.h ****       }
 380:/usr/include/c++/5/bits/stl_vector.h **** #endif
 381:/usr/include/c++/5/bits/stl_vector.h **** 
 382:/usr/include/c++/5/bits/stl_vector.h ****       /**
 383:/usr/include/c++/5/bits/stl_vector.h ****        *  @brief  Builds a %vector from a range.
 384:/usr/include/c++/5/bits/stl_vector.h ****        *  @param  __first  An input iterator.
 385:/usr/include/c++/5/bits/stl_vector.h ****        *  @param  __last  An input iterator.
 386:/usr/include/c++/5/bits/stl_vector.h ****        *  @param  __a  An allocator.
 387:/usr/include/c++/5/bits/stl_vector.h ****        *
 388:/usr/include/c++/5/bits/stl_vector.h ****        *  Create a %vector consisting of copies of the elements from
 389:/usr/include/c++/5/bits/stl_vector.h ****        *  [first,last).
 390:/usr/include/c++/5/bits/stl_vector.h ****        *
 391:/usr/include/c++/5/bits/stl_vector.h ****        *  If the iterators are forward, bidirectional, or
 392:/usr/include/c++/5/bits/stl_vector.h ****        *  random-access, then this will call the elements' copy
 393:/usr/include/c++/5/bits/stl_vector.h ****        *  constructor N times (where N is distance(first,last)) and do
 394:/usr/include/c++/5/bits/stl_vector.h ****        *  no memory reallocation.  But if only input iterators are
 395:/usr/include/c++/5/bits/stl_vector.h ****        *  used, then this will do at most 2N calls to the copy
 396:/usr/include/c++/5/bits/stl_vector.h ****        *  constructor, and logN memory reallocations.
 397:/usr/include/c++/5/bits/stl_vector.h ****        */
 398:/usr/include/c++/5/bits/stl_vector.h **** #if __cplusplus >= 201103L
 399:/usr/include/c++/5/bits/stl_vector.h ****       template<typename _InputIterator,
 400:/usr/include/c++/5/bits/stl_vector.h **** 	       typename = std::_RequireInputIter<_InputIterator>>
 401:/usr/include/c++/5/bits/stl_vector.h ****         vector(_InputIterator __first, _InputIterator __last,
 402:/usr/include/c++/5/bits/stl_vector.h **** 	       const allocator_type& __a = allocator_type())
 403:/usr/include/c++/5/bits/stl_vector.h **** 	: _Base(__a)
 404:/usr/include/c++/5/bits/stl_vector.h ****         { _M_initialize_dispatch(__first, __last, __false_type()); }
 405:/usr/include/c++/5/bits/stl_vector.h **** #else
 406:/usr/include/c++/5/bits/stl_vector.h ****       template<typename _InputIterator>
 407:/usr/include/c++/5/bits/stl_vector.h ****         vector(_InputIterator __first, _InputIterator __last,
 408:/usr/include/c++/5/bits/stl_vector.h **** 	       const allocator_type& __a = allocator_type())
 409:/usr/include/c++/5/bits/stl_vector.h **** 	: _Base(__a)
 410:/usr/include/c++/5/bits/stl_vector.h ****         {
 411:/usr/include/c++/5/bits/stl_vector.h **** 	  // Check whether it's an integral type.  If so, it's not an iterator.
 412:/usr/include/c++/5/bits/stl_vector.h **** 	  typedef typename std::__is_integer<_InputIterator>::__type _Integral;
 413:/usr/include/c++/5/bits/stl_vector.h **** 	  _M_initialize_dispatch(__first, __last, _Integral());
 414:/usr/include/c++/5/bits/stl_vector.h **** 	}
 415:/usr/include/c++/5/bits/stl_vector.h **** #endif
 416:/usr/include/c++/5/bits/stl_vector.h **** 
 417:/usr/include/c++/5/bits/stl_vector.h ****       /**
 418:/usr/include/c++/5/bits/stl_vector.h ****        *  The dtor only erases the elements, and note that if the
 419:/usr/include/c++/5/bits/stl_vector.h ****        *  elements themselves are pointers, the pointed-to memory is
 420:/usr/include/c++/5/bits/stl_vector.h ****        *  not touched in any way.  Managing the pointer is the user's
 421:/usr/include/c++/5/bits/stl_vector.h ****        *  responsibility.
 422:/usr/include/c++/5/bits/stl_vector.h ****        */
 423:/usr/include/c++/5/bits/stl_vector.h ****       ~vector() _GLIBCXX_NOEXCEPT
 551              		.loc 5 423 0
 552              		.cfi_startproc
 553              		.cfi_personality 0x9b,DW.ref.__gxx_personality_v0
 554              		.cfi_lsda 0x1b,.LLSDA884
 555 0000 55       		pushq	%rbp
 556              		.cfi_def_cfa_offset 16
 557              		.cfi_offset 6, -16
 558 0001 4889E5   		movq	%rsp, %rbp
 559              		.cfi_def_cfa_register 6
 560 0004 53       		pushq	%rbx
 561 0005 4883EC18 		subq	$24, %rsp
 562              		.cfi_offset 3, -24
 563 0009 48897DE8 		movq	%rdi, -24(%rbp)
 564              	.LBB5:
 424:/usr/include/c++/5/bits/stl_vector.h ****       { std::_Destroy(this->_M_impl._M_start, this->_M_impl._M_finish,
 425:/usr/include/c++/5/bits/stl_vector.h **** 		      _M_get_Tp_allocator()); }
 565              		.loc 5 425 0
 566 000d 488B45E8 		movq	-24(%rbp), %rax
 567 0011 4889C7   		movq	%rax, %rdi
 568 0014 E8000000 		call	_ZNSt12_Vector_baseISt4pairIiNSt7__cxx1112basic_stringIcSt11char_traitsIcESaIcEEEESaIS7_EE19_
 568      00
 569 0019 4889C2   		movq	%rax, %rdx
 424:/usr/include/c++/5/bits/stl_vector.h ****       { std::_Destroy(this->_M_impl._M_start, this->_M_impl._M_finish,
 570              		.loc 5 424 0
 571 001c 488B45E8 		movq	-24(%rbp), %rax
 572 0020 488B4808 		movq	8(%rax), %rcx
 573 0024 488B45E8 		movq	-24(%rbp), %rax
 574 0028 488B00   		movq	(%rax), %rax
 575 002b 4889CE   		movq	%rcx, %rsi
 576 002e 4889C7   		movq	%rax, %rdi
 577              	.LEHB17:
 578 0031 E8000000 		call	_ZSt8_DestroyIPSt4pairIiNSt7__cxx1112basic_stringIcSt11char_traitsIcESaIcEEEES7_EvT_S9_RSaIT0
 578      00
 579              	.LEHE17:
 580              		.loc 5 425 0
 581 0036 488B45E8 		movq	-24(%rbp), %rax
 582 003a 4889C7   		movq	%rax, %rdi
 583              	.LEHB18:
 584 003d E8000000 		call	_ZNSt12_Vector_baseISt4pairIiNSt7__cxx1112basic_stringIcSt11char_traitsIcESaIcEEEESaIS7_EED2E
 584      00
 585              	.LEHE18:
 586              	.LBE5:
 587 0042 EB1A     		jmp	.L33
 588              	.L32:
 589 0044 4889C3   		movq	%rax, %rbx
 590              	.LBB6:
 591 0047 488B45E8 		movq	-24(%rbp), %rax
 592 004b 4889C7   		movq	%rax, %rdi
 593 004e E8000000 		call	_ZNSt12_Vector_baseISt4pairIiNSt7__cxx1112basic_stringIcSt11char_traitsIcESaIcEEEESaIS7_EED2E
 593      00
 594 0053 4889D8   		movq	%rbx, %rax
 595 0056 4889C7   		movq	%rax, %rdi
 596              	.LEHB19:
 597 0059 E8000000 		call	_Unwind_Resume@PLT
 597      00
 598              	.LEHE19:
 599              	.L33:
 600              	.LBE6:
 601 005e 4883C418 		addq	$24, %rsp
 602 0062 5B       		popq	%rbx
 603 0063 5D       		popq	%rbp
 604              		.cfi_def_cfa 7, 8
 605 0064 C3       		ret
 606              		.cfi_endproc
 607              	.LFE884:
 608              		.section	.gcc_except_table
 609              	.LLSDA884:
 610 0045 FF       		.byte	0xff
 611 0046 FF       		.byte	0xff
 612 0047 01       		.byte	0x1
 613 0048 0C       		.uleb128 .LLSDACSE884-.LLSDACSB884
 614              	.LLSDACSB884:
 615 0049 31       		.uleb128 .LEHB17-.LFB884
 616 004a 05       		.uleb128 .LEHE17-.LEHB17
 617 004b 44       		.uleb128 .L32-.LFB884
 618 004c 00       		.uleb128 0
 619 004d 3D       		.uleb128 .LEHB18-.LFB884
 620 004e 05       		.uleb128 .LEHE18-.LEHB18
 621 004f 00       		.uleb128 0
 622 0050 00       		.uleb128 0
 623 0051 59       		.uleb128 .LEHB19-.LFB884
 624 0052 05       		.uleb128 .LEHE19-.LEHB19
 625 0053 00       		.uleb128 0
 626 0054 00       		.uleb128 0
 627              	.LLSDACSE884:
 628              		.section	.text._ZNSt6vectorISt4pairIiNSt7__cxx1112basic_stringIcSt11char_traitsIcESaIcEEEESaIS7_EE
 630              		.weak	_ZNSt6vectorISt4pairIiNSt7__cxx1112basic_stringIcSt11char_traitsIcESaIcEEEESaIS7_EED1Ev
 631              		.set	_ZNSt6vectorISt4pairIiNSt7__cxx1112basic_stringIcSt11char_traitsIcESaIcEEEESaIS7_EED1Ev,_ZNSt
 632              		.section	.text._ZNSt6vectorIN8UnitTest18DeferredTestResultESaIS1_EE9push_backERKS1_,"axG",@progbit
 633              		.align 2
 634              		.weak	_ZNSt6vectorIN8UnitTest18DeferredTestResultESaIS1_EE9push_backERKS1_
 636              	_ZNSt6vectorIN8UnitTest18DeferredTestResultESaIS1_EE9push_backERKS1_:
 637              	.LFB886:
 426:/usr/include/c++/5/bits/stl_vector.h **** 
 427:/usr/include/c++/5/bits/stl_vector.h ****       /**
 428:/usr/include/c++/5/bits/stl_vector.h ****        *  @brief  %Vector assignment operator.
 429:/usr/include/c++/5/bits/stl_vector.h ****        *  @param  __x  A %vector of identical element and allocator types.
 430:/usr/include/c++/5/bits/stl_vector.h ****        *
 431:/usr/include/c++/5/bits/stl_vector.h ****        *  All the elements of @a __x are copied, but any extra memory in
 432:/usr/include/c++/5/bits/stl_vector.h ****        *  @a __x (for fast expansion) will not be copied.  Unlike the
 433:/usr/include/c++/5/bits/stl_vector.h ****        *  copy constructor, the allocator object is not copied.
 434:/usr/include/c++/5/bits/stl_vector.h ****        */
 435:/usr/include/c++/5/bits/stl_vector.h ****       vector&
 436:/usr/include/c++/5/bits/stl_vector.h ****       operator=(const vector& __x);
 437:/usr/include/c++/5/bits/stl_vector.h **** 
 438:/usr/include/c++/5/bits/stl_vector.h **** #if __cplusplus >= 201103L
 439:/usr/include/c++/5/bits/stl_vector.h ****       /**
 440:/usr/include/c++/5/bits/stl_vector.h ****        *  @brief  %Vector move assignment operator.
 441:/usr/include/c++/5/bits/stl_vector.h ****        *  @param  __x  A %vector of identical element and allocator types.
 442:/usr/include/c++/5/bits/stl_vector.h ****        *
 443:/usr/include/c++/5/bits/stl_vector.h ****        *  The contents of @a __x are moved into this %vector (without copying,
 444:/usr/include/c++/5/bits/stl_vector.h ****        *  if the allocators permit it).
 445:/usr/include/c++/5/bits/stl_vector.h ****        *  @a __x is a valid, but unspecified %vector.
 446:/usr/include/c++/5/bits/stl_vector.h ****        */
 447:/usr/include/c++/5/bits/stl_vector.h ****       vector&
 448:/usr/include/c++/5/bits/stl_vector.h ****       operator=(vector&& __x) noexcept(_Alloc_traits::_S_nothrow_move())
 449:/usr/include/c++/5/bits/stl_vector.h ****       {
 450:/usr/include/c++/5/bits/stl_vector.h ****         constexpr bool __move_storage =
 451:/usr/include/c++/5/bits/stl_vector.h ****           _Alloc_traits::_S_propagate_on_move_assign()
 452:/usr/include/c++/5/bits/stl_vector.h ****           || _Alloc_traits::_S_always_equal();
 453:/usr/include/c++/5/bits/stl_vector.h ****         _M_move_assign(std::move(__x),
 454:/usr/include/c++/5/bits/stl_vector.h ****                        integral_constant<bool, __move_storage>());
 455:/usr/include/c++/5/bits/stl_vector.h **** 	return *this;
 456:/usr/include/c++/5/bits/stl_vector.h ****       }
 457:/usr/include/c++/5/bits/stl_vector.h **** 
 458:/usr/include/c++/5/bits/stl_vector.h ****       /**
 459:/usr/include/c++/5/bits/stl_vector.h ****        *  @brief  %Vector list assignment operator.
 460:/usr/include/c++/5/bits/stl_vector.h ****        *  @param  __l  An initializer_list.
 461:/usr/include/c++/5/bits/stl_vector.h ****        *
 462:/usr/include/c++/5/bits/stl_vector.h ****        *  This function fills a %vector with copies of the elements in the
 463:/usr/include/c++/5/bits/stl_vector.h ****        *  initializer list @a __l.
 464:/usr/include/c++/5/bits/stl_vector.h ****        *
 465:/usr/include/c++/5/bits/stl_vector.h ****        *  Note that the assignment completely changes the %vector and
 466:/usr/include/c++/5/bits/stl_vector.h ****        *  that the resulting %vector's size is the same as the number
 467:/usr/include/c++/5/bits/stl_vector.h ****        *  of elements assigned.  Old data may be lost.
 468:/usr/include/c++/5/bits/stl_vector.h ****        */
 469:/usr/include/c++/5/bits/stl_vector.h ****       vector&
 470:/usr/include/c++/5/bits/stl_vector.h ****       operator=(initializer_list<value_type> __l)
 471:/usr/include/c++/5/bits/stl_vector.h ****       {
 472:/usr/include/c++/5/bits/stl_vector.h **** 	this->assign(__l.begin(), __l.end());
 473:/usr/include/c++/5/bits/stl_vector.h **** 	return *this;
 474:/usr/include/c++/5/bits/stl_vector.h ****       }
 475:/usr/include/c++/5/bits/stl_vector.h **** #endif
 476:/usr/include/c++/5/bits/stl_vector.h **** 
 477:/usr/include/c++/5/bits/stl_vector.h ****       /**
 478:/usr/include/c++/5/bits/stl_vector.h ****        *  @brief  Assigns a given value to a %vector.
 479:/usr/include/c++/5/bits/stl_vector.h ****        *  @param  __n  Number of elements to be assigned.
 480:/usr/include/c++/5/bits/stl_vector.h ****        *  @param  __val  Value to be assigned.
 481:/usr/include/c++/5/bits/stl_vector.h ****        *
 482:/usr/include/c++/5/bits/stl_vector.h ****        *  This function fills a %vector with @a __n copies of the given
 483:/usr/include/c++/5/bits/stl_vector.h ****        *  value.  Note that the assignment completely changes the
 484:/usr/include/c++/5/bits/stl_vector.h ****        *  %vector and that the resulting %vector's size is the same as
 485:/usr/include/c++/5/bits/stl_vector.h ****        *  the number of elements assigned.  Old data may be lost.
 486:/usr/include/c++/5/bits/stl_vector.h ****        */
 487:/usr/include/c++/5/bits/stl_vector.h ****       void
 488:/usr/include/c++/5/bits/stl_vector.h ****       assign(size_type __n, const value_type& __val)
 489:/usr/include/c++/5/bits/stl_vector.h ****       { _M_fill_assign(__n, __val); }
 490:/usr/include/c++/5/bits/stl_vector.h **** 
 491:/usr/include/c++/5/bits/stl_vector.h ****       /**
 492:/usr/include/c++/5/bits/stl_vector.h ****        *  @brief  Assigns a range to a %vector.
 493:/usr/include/c++/5/bits/stl_vector.h ****        *  @param  __first  An input iterator.
 494:/usr/include/c++/5/bits/stl_vector.h ****        *  @param  __last   An input iterator.
 495:/usr/include/c++/5/bits/stl_vector.h ****        *
 496:/usr/include/c++/5/bits/stl_vector.h ****        *  This function fills a %vector with copies of the elements in the
 497:/usr/include/c++/5/bits/stl_vector.h ****        *  range [__first,__last).
 498:/usr/include/c++/5/bits/stl_vector.h ****        *
 499:/usr/include/c++/5/bits/stl_vector.h ****        *  Note that the assignment completely changes the %vector and
 500:/usr/include/c++/5/bits/stl_vector.h ****        *  that the resulting %vector's size is the same as the number
 501:/usr/include/c++/5/bits/stl_vector.h ****        *  of elements assigned.  Old data may be lost.
 502:/usr/include/c++/5/bits/stl_vector.h ****        */
 503:/usr/include/c++/5/bits/stl_vector.h **** #if __cplusplus >= 201103L
 504:/usr/include/c++/5/bits/stl_vector.h ****       template<typename _InputIterator,
 505:/usr/include/c++/5/bits/stl_vector.h **** 	       typename = std::_RequireInputIter<_InputIterator>>
 506:/usr/include/c++/5/bits/stl_vector.h ****         void
 507:/usr/include/c++/5/bits/stl_vector.h ****         assign(_InputIterator __first, _InputIterator __last)
 508:/usr/include/c++/5/bits/stl_vector.h ****         { _M_assign_dispatch(__first, __last, __false_type()); }
 509:/usr/include/c++/5/bits/stl_vector.h **** #else
 510:/usr/include/c++/5/bits/stl_vector.h ****       template<typename _InputIterator>
 511:/usr/include/c++/5/bits/stl_vector.h ****         void
 512:/usr/include/c++/5/bits/stl_vector.h ****         assign(_InputIterator __first, _InputIterator __last)
 513:/usr/include/c++/5/bits/stl_vector.h ****         {
 514:/usr/include/c++/5/bits/stl_vector.h **** 	  // Check whether it's an integral type.  If so, it's not an iterator.
 515:/usr/include/c++/5/bits/stl_vector.h **** 	  typedef typename std::__is_integer<_InputIterator>::__type _Integral;
 516:/usr/include/c++/5/bits/stl_vector.h **** 	  _M_assign_dispatch(__first, __last, _Integral());
 517:/usr/include/c++/5/bits/stl_vector.h **** 	}
 518:/usr/include/c++/5/bits/stl_vector.h **** #endif
 519:/usr/include/c++/5/bits/stl_vector.h **** 
 520:/usr/include/c++/5/bits/stl_vector.h **** #if __cplusplus >= 201103L
 521:/usr/include/c++/5/bits/stl_vector.h ****       /**
 522:/usr/include/c++/5/bits/stl_vector.h ****        *  @brief  Assigns an initializer list to a %vector.
 523:/usr/include/c++/5/bits/stl_vector.h ****        *  @param  __l  An initializer_list.
 524:/usr/include/c++/5/bits/stl_vector.h ****        *
 525:/usr/include/c++/5/bits/stl_vector.h ****        *  This function fills a %vector with copies of the elements in the
 526:/usr/include/c++/5/bits/stl_vector.h ****        *  initializer list @a __l.
 527:/usr/include/c++/5/bits/stl_vector.h ****        *
 528:/usr/include/c++/5/bits/stl_vector.h ****        *  Note that the assignment completely changes the %vector and
 529:/usr/include/c++/5/bits/stl_vector.h ****        *  that the resulting %vector's size is the same as the number
 530:/usr/include/c++/5/bits/stl_vector.h ****        *  of elements assigned.  Old data may be lost.
 531:/usr/include/c++/5/bits/stl_vector.h ****        */
 532:/usr/include/c++/5/bits/stl_vector.h ****       void
 533:/usr/include/c++/5/bits/stl_vector.h ****       assign(initializer_list<value_type> __l)
 534:/usr/include/c++/5/bits/stl_vector.h ****       { this->assign(__l.begin(), __l.end()); }
 535:/usr/include/c++/5/bits/stl_vector.h **** #endif
 536:/usr/include/c++/5/bits/stl_vector.h **** 
 537:/usr/include/c++/5/bits/stl_vector.h ****       /// Get a copy of the memory allocation object.
 538:/usr/include/c++/5/bits/stl_vector.h ****       using _Base::get_allocator;
 539:/usr/include/c++/5/bits/stl_vector.h **** 
 540:/usr/include/c++/5/bits/stl_vector.h ****       // iterators
 541:/usr/include/c++/5/bits/stl_vector.h ****       /**
 542:/usr/include/c++/5/bits/stl_vector.h ****        *  Returns a read/write iterator that points to the first
 543:/usr/include/c++/5/bits/stl_vector.h ****        *  element in the %vector.  Iteration is done in ordinary
 544:/usr/include/c++/5/bits/stl_vector.h ****        *  element order.
 545:/usr/include/c++/5/bits/stl_vector.h ****        */
 546:/usr/include/c++/5/bits/stl_vector.h ****       iterator
 547:/usr/include/c++/5/bits/stl_vector.h ****       begin() _GLIBCXX_NOEXCEPT
 548:/usr/include/c++/5/bits/stl_vector.h ****       { return iterator(this->_M_impl._M_start); }
 549:/usr/include/c++/5/bits/stl_vector.h **** 
 550:/usr/include/c++/5/bits/stl_vector.h ****       /**
 551:/usr/include/c++/5/bits/stl_vector.h ****        *  Returns a read-only (constant) iterator that points to the
 552:/usr/include/c++/5/bits/stl_vector.h ****        *  first element in the %vector.  Iteration is done in ordinary
 553:/usr/include/c++/5/bits/stl_vector.h ****        *  element order.
 554:/usr/include/c++/5/bits/stl_vector.h ****        */
 555:/usr/include/c++/5/bits/stl_vector.h ****       const_iterator
 556:/usr/include/c++/5/bits/stl_vector.h ****       begin() const _GLIBCXX_NOEXCEPT
 557:/usr/include/c++/5/bits/stl_vector.h ****       { return const_iterator(this->_M_impl._M_start); }
 558:/usr/include/c++/5/bits/stl_vector.h **** 
 559:/usr/include/c++/5/bits/stl_vector.h ****       /**
 560:/usr/include/c++/5/bits/stl_vector.h ****        *  Returns a read/write iterator that points one past the last
 561:/usr/include/c++/5/bits/stl_vector.h ****        *  element in the %vector.  Iteration is done in ordinary
 562:/usr/include/c++/5/bits/stl_vector.h ****        *  element order.
 563:/usr/include/c++/5/bits/stl_vector.h ****        */
 564:/usr/include/c++/5/bits/stl_vector.h ****       iterator
 565:/usr/include/c++/5/bits/stl_vector.h ****       end() _GLIBCXX_NOEXCEPT
 566:/usr/include/c++/5/bits/stl_vector.h ****       { return iterator(this->_M_impl._M_finish); }
 567:/usr/include/c++/5/bits/stl_vector.h **** 
 568:/usr/include/c++/5/bits/stl_vector.h ****       /**
 569:/usr/include/c++/5/bits/stl_vector.h ****        *  Returns a read-only (constant) iterator that points one past
 570:/usr/include/c++/5/bits/stl_vector.h ****        *  the last element in the %vector.  Iteration is done in
 571:/usr/include/c++/5/bits/stl_vector.h ****        *  ordinary element order.
 572:/usr/include/c++/5/bits/stl_vector.h ****        */
 573:/usr/include/c++/5/bits/stl_vector.h ****       const_iterator
 574:/usr/include/c++/5/bits/stl_vector.h ****       end() const _GLIBCXX_NOEXCEPT
 575:/usr/include/c++/5/bits/stl_vector.h ****       { return const_iterator(this->_M_impl._M_finish); }
 576:/usr/include/c++/5/bits/stl_vector.h **** 
 577:/usr/include/c++/5/bits/stl_vector.h ****       /**
 578:/usr/include/c++/5/bits/stl_vector.h ****        *  Returns a read/write reverse iterator that points to the
 579:/usr/include/c++/5/bits/stl_vector.h ****        *  last element in the %vector.  Iteration is done in reverse
 580:/usr/include/c++/5/bits/stl_vector.h ****        *  element order.
 581:/usr/include/c++/5/bits/stl_vector.h ****        */
 582:/usr/include/c++/5/bits/stl_vector.h ****       reverse_iterator
 583:/usr/include/c++/5/bits/stl_vector.h ****       rbegin() _GLIBCXX_NOEXCEPT
 584:/usr/include/c++/5/bits/stl_vector.h ****       { return reverse_iterator(end()); }
 585:/usr/include/c++/5/bits/stl_vector.h **** 
 586:/usr/include/c++/5/bits/stl_vector.h ****       /**
 587:/usr/include/c++/5/bits/stl_vector.h ****        *  Returns a read-only (constant) reverse iterator that points
 588:/usr/include/c++/5/bits/stl_vector.h ****        *  to the last element in the %vector.  Iteration is done in
 589:/usr/include/c++/5/bits/stl_vector.h ****        *  reverse element order.
 590:/usr/include/c++/5/bits/stl_vector.h ****        */
 591:/usr/include/c++/5/bits/stl_vector.h ****       const_reverse_iterator
 592:/usr/include/c++/5/bits/stl_vector.h ****       rbegin() const _GLIBCXX_NOEXCEPT
 593:/usr/include/c++/5/bits/stl_vector.h ****       { return const_reverse_iterator(end()); }
 594:/usr/include/c++/5/bits/stl_vector.h **** 
 595:/usr/include/c++/5/bits/stl_vector.h ****       /**
 596:/usr/include/c++/5/bits/stl_vector.h ****        *  Returns a read/write reverse iterator that points to one
 597:/usr/include/c++/5/bits/stl_vector.h ****        *  before the first element in the %vector.  Iteration is done
 598:/usr/include/c++/5/bits/stl_vector.h ****        *  in reverse element order.
 599:/usr/include/c++/5/bits/stl_vector.h ****        */
 600:/usr/include/c++/5/bits/stl_vector.h ****       reverse_iterator
 601:/usr/include/c++/5/bits/stl_vector.h ****       rend() _GLIBCXX_NOEXCEPT
 602:/usr/include/c++/5/bits/stl_vector.h ****       { return reverse_iterator(begin()); }
 603:/usr/include/c++/5/bits/stl_vector.h **** 
 604:/usr/include/c++/5/bits/stl_vector.h ****       /**
 605:/usr/include/c++/5/bits/stl_vector.h ****        *  Returns a read-only (constant) reverse iterator that points
 606:/usr/include/c++/5/bits/stl_vector.h ****        *  to one before the first element in the %vector.  Iteration
 607:/usr/include/c++/5/bits/stl_vector.h ****        *  is done in reverse element order.
 608:/usr/include/c++/5/bits/stl_vector.h ****        */
 609:/usr/include/c++/5/bits/stl_vector.h ****       const_reverse_iterator
 610:/usr/include/c++/5/bits/stl_vector.h ****       rend() const _GLIBCXX_NOEXCEPT
 611:/usr/include/c++/5/bits/stl_vector.h ****       { return const_reverse_iterator(begin()); }
 612:/usr/include/c++/5/bits/stl_vector.h **** 
 613:/usr/include/c++/5/bits/stl_vector.h **** #if __cplusplus >= 201103L
 614:/usr/include/c++/5/bits/stl_vector.h ****       /**
 615:/usr/include/c++/5/bits/stl_vector.h ****        *  Returns a read-only (constant) iterator that points to the
 616:/usr/include/c++/5/bits/stl_vector.h ****        *  first element in the %vector.  Iteration is done in ordinary
 617:/usr/include/c++/5/bits/stl_vector.h ****        *  element order.
 618:/usr/include/c++/5/bits/stl_vector.h ****        */
 619:/usr/include/c++/5/bits/stl_vector.h ****       const_iterator
 620:/usr/include/c++/5/bits/stl_vector.h ****       cbegin() const noexcept
 621:/usr/include/c++/5/bits/stl_vector.h ****       { return const_iterator(this->_M_impl._M_start); }
 622:/usr/include/c++/5/bits/stl_vector.h **** 
 623:/usr/include/c++/5/bits/stl_vector.h ****       /**
 624:/usr/include/c++/5/bits/stl_vector.h ****        *  Returns a read-only (constant) iterator that points one past
 625:/usr/include/c++/5/bits/stl_vector.h ****        *  the last element in the %vector.  Iteration is done in
 626:/usr/include/c++/5/bits/stl_vector.h ****        *  ordinary element order.
 627:/usr/include/c++/5/bits/stl_vector.h ****        */
 628:/usr/include/c++/5/bits/stl_vector.h ****       const_iterator
 629:/usr/include/c++/5/bits/stl_vector.h ****       cend() const noexcept
 630:/usr/include/c++/5/bits/stl_vector.h ****       { return const_iterator(this->_M_impl._M_finish); }
 631:/usr/include/c++/5/bits/stl_vector.h **** 
 632:/usr/include/c++/5/bits/stl_vector.h ****       /**
 633:/usr/include/c++/5/bits/stl_vector.h ****        *  Returns a read-only (constant) reverse iterator that points
 634:/usr/include/c++/5/bits/stl_vector.h ****        *  to the last element in the %vector.  Iteration is done in
 635:/usr/include/c++/5/bits/stl_vector.h ****        *  reverse element order.
 636:/usr/include/c++/5/bits/stl_vector.h ****        */
 637:/usr/include/c++/5/bits/stl_vector.h ****       const_reverse_iterator
 638:/usr/include/c++/5/bits/stl_vector.h ****       crbegin() const noexcept
 639:/usr/include/c++/5/bits/stl_vector.h ****       { return const_reverse_iterator(end()); }
 640:/usr/include/c++/5/bits/stl_vector.h **** 
 641:/usr/include/c++/5/bits/stl_vector.h ****       /**
 642:/usr/include/c++/5/bits/stl_vector.h ****        *  Returns a read-only (constant) reverse iterator that points
 643:/usr/include/c++/5/bits/stl_vector.h ****        *  to one before the first element in the %vector.  Iteration
 644:/usr/include/c++/5/bits/stl_vector.h ****        *  is done in reverse element order.
 645:/usr/include/c++/5/bits/stl_vector.h ****        */
 646:/usr/include/c++/5/bits/stl_vector.h ****       const_reverse_iterator
 647:/usr/include/c++/5/bits/stl_vector.h ****       crend() const noexcept
 648:/usr/include/c++/5/bits/stl_vector.h ****       { return const_reverse_iterator(begin()); }
 649:/usr/include/c++/5/bits/stl_vector.h **** #endif
 650:/usr/include/c++/5/bits/stl_vector.h **** 
 651:/usr/include/c++/5/bits/stl_vector.h ****       // [23.2.4.2] capacity
 652:/usr/include/c++/5/bits/stl_vector.h ****       /**  Returns the number of elements in the %vector.  */
 653:/usr/include/c++/5/bits/stl_vector.h ****       size_type
 654:/usr/include/c++/5/bits/stl_vector.h ****       size() const _GLIBCXX_NOEXCEPT
 655:/usr/include/c++/5/bits/stl_vector.h ****       { return size_type(this->_M_impl._M_finish - this->_M_impl._M_start); }
 656:/usr/include/c++/5/bits/stl_vector.h **** 
 657:/usr/include/c++/5/bits/stl_vector.h ****       /**  Returns the size() of the largest possible %vector.  */
 658:/usr/include/c++/5/bits/stl_vector.h ****       size_type
 659:/usr/include/c++/5/bits/stl_vector.h ****       max_size() const _GLIBCXX_NOEXCEPT
 660:/usr/include/c++/5/bits/stl_vector.h ****       { return _Alloc_traits::max_size(_M_get_Tp_allocator()); }
 661:/usr/include/c++/5/bits/stl_vector.h **** 
 662:/usr/include/c++/5/bits/stl_vector.h **** #if __cplusplus >= 201103L
 663:/usr/include/c++/5/bits/stl_vector.h ****       /**
 664:/usr/include/c++/5/bits/stl_vector.h ****        *  @brief  Resizes the %vector to the specified number of elements.
 665:/usr/include/c++/5/bits/stl_vector.h ****        *  @param  __new_size  Number of elements the %vector should contain.
 666:/usr/include/c++/5/bits/stl_vector.h ****        *
 667:/usr/include/c++/5/bits/stl_vector.h ****        *  This function will %resize the %vector to the specified
 668:/usr/include/c++/5/bits/stl_vector.h ****        *  number of elements.  If the number is smaller than the
 669:/usr/include/c++/5/bits/stl_vector.h ****        *  %vector's current size the %vector is truncated, otherwise
 670:/usr/include/c++/5/bits/stl_vector.h ****        *  default constructed elements are appended.
 671:/usr/include/c++/5/bits/stl_vector.h ****        */
 672:/usr/include/c++/5/bits/stl_vector.h ****       void
 673:/usr/include/c++/5/bits/stl_vector.h ****       resize(size_type __new_size)
 674:/usr/include/c++/5/bits/stl_vector.h ****       {
 675:/usr/include/c++/5/bits/stl_vector.h **** 	if (__new_size > size())
 676:/usr/include/c++/5/bits/stl_vector.h **** 	  _M_default_append(__new_size - size());
 677:/usr/include/c++/5/bits/stl_vector.h **** 	else if (__new_size < size())
 678:/usr/include/c++/5/bits/stl_vector.h **** 	  _M_erase_at_end(this->_M_impl._M_start + __new_size);
 679:/usr/include/c++/5/bits/stl_vector.h ****       }
 680:/usr/include/c++/5/bits/stl_vector.h **** 
 681:/usr/include/c++/5/bits/stl_vector.h ****       /**
 682:/usr/include/c++/5/bits/stl_vector.h ****        *  @brief  Resizes the %vector to the specified number of elements.
 683:/usr/include/c++/5/bits/stl_vector.h ****        *  @param  __new_size  Number of elements the %vector should contain.
 684:/usr/include/c++/5/bits/stl_vector.h ****        *  @param  __x  Data with which new elements should be populated.
 685:/usr/include/c++/5/bits/stl_vector.h ****        *
 686:/usr/include/c++/5/bits/stl_vector.h ****        *  This function will %resize the %vector to the specified
 687:/usr/include/c++/5/bits/stl_vector.h ****        *  number of elements.  If the number is smaller than the
 688:/usr/include/c++/5/bits/stl_vector.h ****        *  %vector's current size the %vector is truncated, otherwise
 689:/usr/include/c++/5/bits/stl_vector.h ****        *  the %vector is extended and new elements are populated with
 690:/usr/include/c++/5/bits/stl_vector.h ****        *  given data.
 691:/usr/include/c++/5/bits/stl_vector.h ****        */
 692:/usr/include/c++/5/bits/stl_vector.h ****       void
 693:/usr/include/c++/5/bits/stl_vector.h ****       resize(size_type __new_size, const value_type& __x)
 694:/usr/include/c++/5/bits/stl_vector.h ****       {
 695:/usr/include/c++/5/bits/stl_vector.h **** 	if (__new_size > size())
 696:/usr/include/c++/5/bits/stl_vector.h **** 	  insert(end(), __new_size - size(), __x);
 697:/usr/include/c++/5/bits/stl_vector.h **** 	else if (__new_size < size())
 698:/usr/include/c++/5/bits/stl_vector.h **** 	  _M_erase_at_end(this->_M_impl._M_start + __new_size);
 699:/usr/include/c++/5/bits/stl_vector.h ****       }
 700:/usr/include/c++/5/bits/stl_vector.h **** #else
 701:/usr/include/c++/5/bits/stl_vector.h ****       /**
 702:/usr/include/c++/5/bits/stl_vector.h ****        *  @brief  Resizes the %vector to the specified number of elements.
 703:/usr/include/c++/5/bits/stl_vector.h ****        *  @param  __new_size  Number of elements the %vector should contain.
 704:/usr/include/c++/5/bits/stl_vector.h ****        *  @param  __x  Data with which new elements should be populated.
 705:/usr/include/c++/5/bits/stl_vector.h ****        *
 706:/usr/include/c++/5/bits/stl_vector.h ****        *  This function will %resize the %vector to the specified
 707:/usr/include/c++/5/bits/stl_vector.h ****        *  number of elements.  If the number is smaller than the
 708:/usr/include/c++/5/bits/stl_vector.h ****        *  %vector's current size the %vector is truncated, otherwise
 709:/usr/include/c++/5/bits/stl_vector.h ****        *  the %vector is extended and new elements are populated with
 710:/usr/include/c++/5/bits/stl_vector.h ****        *  given data.
 711:/usr/include/c++/5/bits/stl_vector.h ****        */
 712:/usr/include/c++/5/bits/stl_vector.h ****       void
 713:/usr/include/c++/5/bits/stl_vector.h ****       resize(size_type __new_size, value_type __x = value_type())
 714:/usr/include/c++/5/bits/stl_vector.h ****       {
 715:/usr/include/c++/5/bits/stl_vector.h **** 	if (__new_size > size())
 716:/usr/include/c++/5/bits/stl_vector.h **** 	  insert(end(), __new_size - size(), __x);
 717:/usr/include/c++/5/bits/stl_vector.h **** 	else if (__new_size < size())
 718:/usr/include/c++/5/bits/stl_vector.h **** 	  _M_erase_at_end(this->_M_impl._M_start + __new_size);
 719:/usr/include/c++/5/bits/stl_vector.h ****       }
 720:/usr/include/c++/5/bits/stl_vector.h **** #endif
 721:/usr/include/c++/5/bits/stl_vector.h **** 
 722:/usr/include/c++/5/bits/stl_vector.h **** #if __cplusplus >= 201103L
 723:/usr/include/c++/5/bits/stl_vector.h ****       /**  A non-binding request to reduce capacity() to size().  */
 724:/usr/include/c++/5/bits/stl_vector.h ****       void
 725:/usr/include/c++/5/bits/stl_vector.h ****       shrink_to_fit()
 726:/usr/include/c++/5/bits/stl_vector.h ****       { _M_shrink_to_fit(); }
 727:/usr/include/c++/5/bits/stl_vector.h **** #endif
 728:/usr/include/c++/5/bits/stl_vector.h **** 
 729:/usr/include/c++/5/bits/stl_vector.h ****       /**
 730:/usr/include/c++/5/bits/stl_vector.h ****        *  Returns the total number of elements that the %vector can
 731:/usr/include/c++/5/bits/stl_vector.h ****        *  hold before needing to allocate more memory.
 732:/usr/include/c++/5/bits/stl_vector.h ****        */
 733:/usr/include/c++/5/bits/stl_vector.h ****       size_type
 734:/usr/include/c++/5/bits/stl_vector.h ****       capacity() const _GLIBCXX_NOEXCEPT
 735:/usr/include/c++/5/bits/stl_vector.h ****       { return size_type(this->_M_impl._M_end_of_storage
 736:/usr/include/c++/5/bits/stl_vector.h **** 			 - this->_M_impl._M_start); }
 737:/usr/include/c++/5/bits/stl_vector.h **** 
 738:/usr/include/c++/5/bits/stl_vector.h ****       /**
 739:/usr/include/c++/5/bits/stl_vector.h ****        *  Returns true if the %vector is empty.  (Thus begin() would
 740:/usr/include/c++/5/bits/stl_vector.h ****        *  equal end().)
 741:/usr/include/c++/5/bits/stl_vector.h ****        */
 742:/usr/include/c++/5/bits/stl_vector.h ****       bool
 743:/usr/include/c++/5/bits/stl_vector.h ****       empty() const _GLIBCXX_NOEXCEPT
 744:/usr/include/c++/5/bits/stl_vector.h ****       { return begin() == end(); }
 745:/usr/include/c++/5/bits/stl_vector.h **** 
 746:/usr/include/c++/5/bits/stl_vector.h ****       /**
 747:/usr/include/c++/5/bits/stl_vector.h ****        *  @brief  Attempt to preallocate enough memory for specified number of
 748:/usr/include/c++/5/bits/stl_vector.h ****        *          elements.
 749:/usr/include/c++/5/bits/stl_vector.h ****        *  @param  __n  Number of elements required.
 750:/usr/include/c++/5/bits/stl_vector.h ****        *  @throw  std::length_error  If @a n exceeds @c max_size().
 751:/usr/include/c++/5/bits/stl_vector.h ****        *
 752:/usr/include/c++/5/bits/stl_vector.h ****        *  This function attempts to reserve enough memory for the
 753:/usr/include/c++/5/bits/stl_vector.h ****        *  %vector to hold the specified number of elements.  If the
 754:/usr/include/c++/5/bits/stl_vector.h ****        *  number requested is more than max_size(), length_error is
 755:/usr/include/c++/5/bits/stl_vector.h ****        *  thrown.
 756:/usr/include/c++/5/bits/stl_vector.h ****        *
 757:/usr/include/c++/5/bits/stl_vector.h ****        *  The advantage of this function is that if optimal code is a
 758:/usr/include/c++/5/bits/stl_vector.h ****        *  necessity and the user can determine the number of elements
 759:/usr/include/c++/5/bits/stl_vector.h ****        *  that will be required, the user can reserve the memory in
 760:/usr/include/c++/5/bits/stl_vector.h ****        *  %advance, and thus prevent a possible reallocation of memory
 761:/usr/include/c++/5/bits/stl_vector.h ****        *  and copying of %vector data.
 762:/usr/include/c++/5/bits/stl_vector.h ****        */
 763:/usr/include/c++/5/bits/stl_vector.h ****       void
 764:/usr/include/c++/5/bits/stl_vector.h ****       reserve(size_type __n);
 765:/usr/include/c++/5/bits/stl_vector.h **** 
 766:/usr/include/c++/5/bits/stl_vector.h ****       // element access
 767:/usr/include/c++/5/bits/stl_vector.h ****       /**
 768:/usr/include/c++/5/bits/stl_vector.h ****        *  @brief  Subscript access to the data contained in the %vector.
 769:/usr/include/c++/5/bits/stl_vector.h ****        *  @param __n The index of the element for which data should be
 770:/usr/include/c++/5/bits/stl_vector.h ****        *  accessed.
 771:/usr/include/c++/5/bits/stl_vector.h ****        *  @return  Read/write reference to data.
 772:/usr/include/c++/5/bits/stl_vector.h ****        *
 773:/usr/include/c++/5/bits/stl_vector.h ****        *  This operator allows for easy, array-style, data access.
 774:/usr/include/c++/5/bits/stl_vector.h ****        *  Note that data access with this operator is unchecked and
 775:/usr/include/c++/5/bits/stl_vector.h ****        *  out_of_range lookups are not defined. (For checked lookups
 776:/usr/include/c++/5/bits/stl_vector.h ****        *  see at().)
 777:/usr/include/c++/5/bits/stl_vector.h ****        */
 778:/usr/include/c++/5/bits/stl_vector.h ****       reference
 779:/usr/include/c++/5/bits/stl_vector.h ****       operator[](size_type __n) _GLIBCXX_NOEXCEPT
 780:/usr/include/c++/5/bits/stl_vector.h ****       { return *(this->_M_impl._M_start + __n); }
 781:/usr/include/c++/5/bits/stl_vector.h **** 
 782:/usr/include/c++/5/bits/stl_vector.h ****       /**
 783:/usr/include/c++/5/bits/stl_vector.h ****        *  @brief  Subscript access to the data contained in the %vector.
 784:/usr/include/c++/5/bits/stl_vector.h ****        *  @param __n The index of the element for which data should be
 785:/usr/include/c++/5/bits/stl_vector.h ****        *  accessed.
 786:/usr/include/c++/5/bits/stl_vector.h ****        *  @return  Read-only (constant) reference to data.
 787:/usr/include/c++/5/bits/stl_vector.h ****        *
 788:/usr/include/c++/5/bits/stl_vector.h ****        *  This operator allows for easy, array-style, data access.
 789:/usr/include/c++/5/bits/stl_vector.h ****        *  Note that data access with this operator is unchecked and
 790:/usr/include/c++/5/bits/stl_vector.h ****        *  out_of_range lookups are not defined. (For checked lookups
 791:/usr/include/c++/5/bits/stl_vector.h ****        *  see at().)
 792:/usr/include/c++/5/bits/stl_vector.h ****        */
 793:/usr/include/c++/5/bits/stl_vector.h ****       const_reference
 794:/usr/include/c++/5/bits/stl_vector.h ****       operator[](size_type __n) const _GLIBCXX_NOEXCEPT
 795:/usr/include/c++/5/bits/stl_vector.h ****       { return *(this->_M_impl._M_start + __n); }
 796:/usr/include/c++/5/bits/stl_vector.h **** 
 797:/usr/include/c++/5/bits/stl_vector.h ****     protected:
 798:/usr/include/c++/5/bits/stl_vector.h ****       /// Safety check used only from at().
 799:/usr/include/c++/5/bits/stl_vector.h ****       void
 800:/usr/include/c++/5/bits/stl_vector.h ****       _M_range_check(size_type __n) const
 801:/usr/include/c++/5/bits/stl_vector.h ****       {
 802:/usr/include/c++/5/bits/stl_vector.h **** 	if (__n >= this->size())
 803:/usr/include/c++/5/bits/stl_vector.h **** 	  __throw_out_of_range_fmt(__N("vector::_M_range_check: __n "
 804:/usr/include/c++/5/bits/stl_vector.h **** 				       "(which is %zu) >= this->size() "
 805:/usr/include/c++/5/bits/stl_vector.h **** 				       "(which is %zu)"),
 806:/usr/include/c++/5/bits/stl_vector.h **** 				   __n, this->size());
 807:/usr/include/c++/5/bits/stl_vector.h ****       }
 808:/usr/include/c++/5/bits/stl_vector.h **** 
 809:/usr/include/c++/5/bits/stl_vector.h ****     public:
 810:/usr/include/c++/5/bits/stl_vector.h ****       /**
 811:/usr/include/c++/5/bits/stl_vector.h ****        *  @brief  Provides access to the data contained in the %vector.
 812:/usr/include/c++/5/bits/stl_vector.h ****        *  @param __n The index of the element for which data should be
 813:/usr/include/c++/5/bits/stl_vector.h ****        *  accessed.
 814:/usr/include/c++/5/bits/stl_vector.h ****        *  @return  Read/write reference to data.
 815:/usr/include/c++/5/bits/stl_vector.h ****        *  @throw  std::out_of_range  If @a __n is an invalid index.
 816:/usr/include/c++/5/bits/stl_vector.h ****        *
 817:/usr/include/c++/5/bits/stl_vector.h ****        *  This function provides for safer data access.  The parameter
 818:/usr/include/c++/5/bits/stl_vector.h ****        *  is first checked that it is in the range of the vector.  The
 819:/usr/include/c++/5/bits/stl_vector.h ****        *  function throws out_of_range if the check fails.
 820:/usr/include/c++/5/bits/stl_vector.h ****        */
 821:/usr/include/c++/5/bits/stl_vector.h ****       reference
 822:/usr/include/c++/5/bits/stl_vector.h ****       at(size_type __n)
 823:/usr/include/c++/5/bits/stl_vector.h ****       {
 824:/usr/include/c++/5/bits/stl_vector.h **** 	_M_range_check(__n);
 825:/usr/include/c++/5/bits/stl_vector.h **** 	return (*this)[__n]; 
 826:/usr/include/c++/5/bits/stl_vector.h ****       }
 827:/usr/include/c++/5/bits/stl_vector.h **** 
 828:/usr/include/c++/5/bits/stl_vector.h ****       /**
 829:/usr/include/c++/5/bits/stl_vector.h ****        *  @brief  Provides access to the data contained in the %vector.
 830:/usr/include/c++/5/bits/stl_vector.h ****        *  @param __n The index of the element for which data should be
 831:/usr/include/c++/5/bits/stl_vector.h ****        *  accessed.
 832:/usr/include/c++/5/bits/stl_vector.h ****        *  @return  Read-only (constant) reference to data.
 833:/usr/include/c++/5/bits/stl_vector.h ****        *  @throw  std::out_of_range  If @a __n is an invalid index.
 834:/usr/include/c++/5/bits/stl_vector.h ****        *
 835:/usr/include/c++/5/bits/stl_vector.h ****        *  This function provides for safer data access.  The parameter
 836:/usr/include/c++/5/bits/stl_vector.h ****        *  is first checked that it is in the range of the vector.  The
 837:/usr/include/c++/5/bits/stl_vector.h ****        *  function throws out_of_range if the check fails.
 838:/usr/include/c++/5/bits/stl_vector.h ****        */
 839:/usr/include/c++/5/bits/stl_vector.h ****       const_reference
 840:/usr/include/c++/5/bits/stl_vector.h ****       at(size_type __n) const
 841:/usr/include/c++/5/bits/stl_vector.h ****       {
 842:/usr/include/c++/5/bits/stl_vector.h **** 	_M_range_check(__n);
 843:/usr/include/c++/5/bits/stl_vector.h **** 	return (*this)[__n];
 844:/usr/include/c++/5/bits/stl_vector.h ****       }
 845:/usr/include/c++/5/bits/stl_vector.h **** 
 846:/usr/include/c++/5/bits/stl_vector.h ****       /**
 847:/usr/include/c++/5/bits/stl_vector.h ****        *  Returns a read/write reference to the data at the first
 848:/usr/include/c++/5/bits/stl_vector.h ****        *  element of the %vector.
 849:/usr/include/c++/5/bits/stl_vector.h ****        */
 850:/usr/include/c++/5/bits/stl_vector.h ****       reference
 851:/usr/include/c++/5/bits/stl_vector.h ****       front() _GLIBCXX_NOEXCEPT
 852:/usr/include/c++/5/bits/stl_vector.h ****       { return *begin(); }
 853:/usr/include/c++/5/bits/stl_vector.h **** 
 854:/usr/include/c++/5/bits/stl_vector.h ****       /**
 855:/usr/include/c++/5/bits/stl_vector.h ****        *  Returns a read-only (constant) reference to the data at the first
 856:/usr/include/c++/5/bits/stl_vector.h ****        *  element of the %vector.
 857:/usr/include/c++/5/bits/stl_vector.h ****        */
 858:/usr/include/c++/5/bits/stl_vector.h ****       const_reference
 859:/usr/include/c++/5/bits/stl_vector.h ****       front() const _GLIBCXX_NOEXCEPT
 860:/usr/include/c++/5/bits/stl_vector.h ****       { return *begin(); }
 861:/usr/include/c++/5/bits/stl_vector.h **** 
 862:/usr/include/c++/5/bits/stl_vector.h ****       /**
 863:/usr/include/c++/5/bits/stl_vector.h ****        *  Returns a read/write reference to the data at the last
 864:/usr/include/c++/5/bits/stl_vector.h ****        *  element of the %vector.
 865:/usr/include/c++/5/bits/stl_vector.h ****        */
 866:/usr/include/c++/5/bits/stl_vector.h ****       reference
 867:/usr/include/c++/5/bits/stl_vector.h ****       back() _GLIBCXX_NOEXCEPT
 868:/usr/include/c++/5/bits/stl_vector.h ****       { return *(end() - 1); }
 869:/usr/include/c++/5/bits/stl_vector.h ****       
 870:/usr/include/c++/5/bits/stl_vector.h ****       /**
 871:/usr/include/c++/5/bits/stl_vector.h ****        *  Returns a read-only (constant) reference to the data at the
 872:/usr/include/c++/5/bits/stl_vector.h ****        *  last element of the %vector.
 873:/usr/include/c++/5/bits/stl_vector.h ****        */
 874:/usr/include/c++/5/bits/stl_vector.h ****       const_reference
 875:/usr/include/c++/5/bits/stl_vector.h ****       back() const _GLIBCXX_NOEXCEPT
 876:/usr/include/c++/5/bits/stl_vector.h ****       { return *(end() - 1); }
 877:/usr/include/c++/5/bits/stl_vector.h **** 
 878:/usr/include/c++/5/bits/stl_vector.h ****       // _GLIBCXX_RESOLVE_LIB_DEFECTS
 879:/usr/include/c++/5/bits/stl_vector.h ****       // DR 464. Suggestion for new member functions in standard containers.
 880:/usr/include/c++/5/bits/stl_vector.h ****       // data access
 881:/usr/include/c++/5/bits/stl_vector.h ****       /**
 882:/usr/include/c++/5/bits/stl_vector.h ****        *   Returns a pointer such that [data(), data() + size()) is a valid
 883:/usr/include/c++/5/bits/stl_vector.h ****        *   range.  For a non-empty %vector, data() == &front().
 884:/usr/include/c++/5/bits/stl_vector.h ****        */
 885:/usr/include/c++/5/bits/stl_vector.h **** #if __cplusplus >= 201103L
 886:/usr/include/c++/5/bits/stl_vector.h ****       _Tp*
 887:/usr/include/c++/5/bits/stl_vector.h **** #else
 888:/usr/include/c++/5/bits/stl_vector.h ****       pointer
 889:/usr/include/c++/5/bits/stl_vector.h **** #endif
 890:/usr/include/c++/5/bits/stl_vector.h ****       data() _GLIBCXX_NOEXCEPT
 891:/usr/include/c++/5/bits/stl_vector.h ****       { return _M_data_ptr(this->_M_impl._M_start); }
 892:/usr/include/c++/5/bits/stl_vector.h **** 
 893:/usr/include/c++/5/bits/stl_vector.h **** #if __cplusplus >= 201103L
 894:/usr/include/c++/5/bits/stl_vector.h ****       const _Tp*
 895:/usr/include/c++/5/bits/stl_vector.h **** #else
 896:/usr/include/c++/5/bits/stl_vector.h ****       const_pointer
 897:/usr/include/c++/5/bits/stl_vector.h **** #endif
 898:/usr/include/c++/5/bits/stl_vector.h ****       data() const _GLIBCXX_NOEXCEPT
 899:/usr/include/c++/5/bits/stl_vector.h ****       { return _M_data_ptr(this->_M_impl._M_start); }
 900:/usr/include/c++/5/bits/stl_vector.h **** 
 901:/usr/include/c++/5/bits/stl_vector.h ****       // [23.2.4.3] modifiers
 902:/usr/include/c++/5/bits/stl_vector.h ****       /**
 903:/usr/include/c++/5/bits/stl_vector.h ****        *  @brief  Add data to the end of the %vector.
 904:/usr/include/c++/5/bits/stl_vector.h ****        *  @param  __x  Data to be added.
 905:/usr/include/c++/5/bits/stl_vector.h ****        *
 906:/usr/include/c++/5/bits/stl_vector.h ****        *  This is a typical stack operation.  The function creates an
 907:/usr/include/c++/5/bits/stl_vector.h ****        *  element at the end of the %vector and assigns the given data
 908:/usr/include/c++/5/bits/stl_vector.h ****        *  to it.  Due to the nature of a %vector this operation can be
 909:/usr/include/c++/5/bits/stl_vector.h ****        *  done in constant time if the %vector has preallocated space
 910:/usr/include/c++/5/bits/stl_vector.h ****        *  available.
 911:/usr/include/c++/5/bits/stl_vector.h ****        */
 912:/usr/include/c++/5/bits/stl_vector.h ****       void
 913:/usr/include/c++/5/bits/stl_vector.h ****       push_back(const value_type& __x)
 638              		.loc 5 913 0
 639              		.cfi_startproc
 640 0000 55       		pushq	%rbp
 641              		.cfi_def_cfa_offset 16
 642              		.cfi_offset 6, -16
 643 0001 4889E5   		movq	%rsp, %rbp
 644              		.cfi_def_cfa_register 6
 645 0004 4883EC10 		subq	$16, %rsp
 646 0008 48897DF8 		movq	%rdi, -8(%rbp)
 647 000c 488975F0 		movq	%rsi, -16(%rbp)
 914:/usr/include/c++/5/bits/stl_vector.h ****       {
 915:/usr/include/c++/5/bits/stl_vector.h **** 	if (this->_M_impl._M_finish != this->_M_impl._M_end_of_storage)
 648              		.loc 5 915 0
 649 0010 488B45F8 		movq	-8(%rbp), %rax
 650 0014 488B5008 		movq	8(%rax), %rdx
 651 0018 488B45F8 		movq	-8(%rbp), %rax
 652 001c 488B4010 		movq	16(%rax), %rax
 653 0020 4839C2   		cmpq	%rax, %rdx
 654 0023 7434     		je	.L35
 916:/usr/include/c++/5/bits/stl_vector.h **** 	  {
 917:/usr/include/c++/5/bits/stl_vector.h **** 	    _Alloc_traits::construct(this->_M_impl, this->_M_impl._M_finish,
 655              		.loc 5 917 0
 656 0025 488B45F8 		movq	-8(%rbp), %rax
 657 0029 488B4808 		movq	8(%rax), %rcx
 658 002d 488B45F8 		movq	-8(%rbp), %rax
 659 0031 488B55F0 		movq	-16(%rbp), %rdx
 660 0035 4889CE   		movq	%rcx, %rsi
 661 0038 4889C7   		movq	%rax, %rdi
 662 003b E8000000 		call	_ZN9__gnu_cxx14__alloc_traitsISaIN8UnitTest18DeferredTestResultEEE9constructIS2_EEvRS3_PS2_RK
 662      00
 918:/usr/include/c++/5/bits/stl_vector.h **** 	                             __x);
 919:/usr/include/c++/5/bits/stl_vector.h **** 	    ++this->_M_impl._M_finish;
 663              		.loc 5 919 0
 664 0040 488B45F8 		movq	-8(%rbp), %rax
 665 0044 488B4008 		movq	8(%rax), %rax
 666 0048 488D9080 		leaq	128(%rax), %rdx
 666      000000
 667 004f 488B45F8 		movq	-8(%rbp), %rax
 668 0053 48895008 		movq	%rdx, 8(%rax)
 920:/usr/include/c++/5/bits/stl_vector.h **** 	  }
 921:/usr/include/c++/5/bits/stl_vector.h **** 	else
 922:/usr/include/c++/5/bits/stl_vector.h **** #if __cplusplus >= 201103L
 923:/usr/include/c++/5/bits/stl_vector.h **** 	  _M_emplace_back_aux(__x);
 924:/usr/include/c++/5/bits/stl_vector.h **** #else
 925:/usr/include/c++/5/bits/stl_vector.h **** 	  _M_insert_aux(end(), __x);
 926:/usr/include/c++/5/bits/stl_vector.h **** #endif
 927:/usr/include/c++/5/bits/stl_vector.h ****       }
 669              		.loc 5 927 0
 670 0057 EB22     		jmp	.L37
 671              	.L35:
 925:/usr/include/c++/5/bits/stl_vector.h **** #endif
 672              		.loc 5 925 0
 673 0059 488B45F8 		movq	-8(%rbp), %rax
 674 005d 4889C7   		movq	%rax, %rdi
 675 0060 E8000000 		call	_ZNSt6vectorIN8UnitTest18DeferredTestResultESaIS1_EE3endEv@PLT
 675      00
 676 0065 4889C1   		movq	%rax, %rcx
 677 0068 488B55F0 		movq	-16(%rbp), %rdx
 678 006c 488B45F8 		movq	-8(%rbp), %rax
 679 0070 4889CE   		movq	%rcx, %rsi
 680 0073 4889C7   		movq	%rax, %rdi
 681 0076 E8000000 		call	_ZNSt6vectorIN8UnitTest18DeferredTestResultESaIS1_EE13_M_insert_auxEN9__gnu_cxx17__normal_ite
 681      00
 682              	.L37:
 683              		.loc 5 927 0
 684 007b 90       		nop
 685 007c C9       		leave
 686              		.cfi_def_cfa 7, 8
 687 007d C3       		ret
 688              		.cfi_endproc
 689              	.LFE886:
 691              		.section	.text._ZNSt6vectorIN8UnitTest18DeferredTestResultESaIS1_EE4backEv,"axG",@progbits,_ZNSt6v
 692              		.align 2
 693              		.weak	_ZNSt6vectorIN8UnitTest18DeferredTestResultESaIS1_EE4backEv
 695              	_ZNSt6vectorIN8UnitTest18DeferredTestResultESaIS1_EE4backEv:
 696              	.LFB887:
 867:/usr/include/c++/5/bits/stl_vector.h ****       { return *(end() - 1); }
 697              		.loc 5 867 0
 698              		.cfi_startproc
 699 0000 55       		pushq	%rbp
 700              		.cfi_def_cfa_offset 16
 701              		.cfi_offset 6, -16
 702 0001 4889E5   		movq	%rsp, %rbp
 703              		.cfi_def_cfa_register 6
 704 0004 4883EC30 		subq	$48, %rsp
 705 0008 48897DD8 		movq	%rdi, -40(%rbp)
 867:/usr/include/c++/5/bits/stl_vector.h ****       { return *(end() - 1); }
 706              		.loc 5 867 0
 707 000c 64488B04 		movq	%fs:40, %rax
 707      25280000 
 707      00
 708 0015 488945F8 		movq	%rax, -8(%rbp)
 709 0019 31C0     		xorl	%eax, %eax
 868:/usr/include/c++/5/bits/stl_vector.h ****       
 710              		.loc 5 868 0
 711 001b 488B45D8 		movq	-40(%rbp), %rax
 712 001f 4889C7   		movq	%rax, %rdi
 713 0022 E8000000 		call	_ZNSt6vectorIN8UnitTest18DeferredTestResultESaIS1_EE3endEv@PLT
 713      00
 714 0027 488945E0 		movq	%rax, -32(%rbp)
 715 002b 488D45E0 		leaq	-32(%rbp), %rax
 716 002f BE010000 		movl	$1, %esi
 716      00
 717 0034 4889C7   		movq	%rax, %rdi
 718 0037 E8000000 		call	_ZNK9__gnu_cxx17__normal_iteratorIPN8UnitTest18DeferredTestResultESt6vectorIS2_SaIS2_EEEmiEl@
 718      00
 719 003c 488945F0 		movq	%rax, -16(%rbp)
 720 0040 488D45F0 		leaq	-16(%rbp), %rax
 721 0044 4889C7   		movq	%rax, %rdi
 722 0047 E8000000 		call	_ZNK9__gnu_cxx17__normal_iteratorIPN8UnitTest18DeferredTestResultESt6vectorIS2_SaIS2_EEEdeEv@
 722      00
 723 004c 488B55F8 		movq	-8(%rbp), %rdx
 724 0050 64483314 		xorq	%fs:40, %rdx
 724      25280000 
 724      00
 725 0059 7405     		je	.L40
 726 005b E8000000 		call	__stack_chk_fail@PLT
 726      00
 727              	.L40:
 728 0060 C9       		leave
 729              		.cfi_def_cfa 7, 8
 730 0061 C3       		ret
 731              		.cfi_endproc
 732              	.LFE887:
 734              		.section	.text._ZNSt4pairIiNSt7__cxx1112basic_stringIcSt11char_traitsIcESaIcEEEEC2ERKiRKS5_,"axG",
 735              		.align 2
 736              		.weak	_ZNSt4pairIiNSt7__cxx1112basic_stringIcSt11char_traitsIcESaIcEEEEC2ERKiRKS5_
 738              	_ZNSt4pairIiNSt7__cxx1112basic_stringIcSt11char_traitsIcESaIcEEEEC2ERKiRKS5_:
 739              	.LFB898:
  97:/usr/include/c++/5/bits/stl_pair.h ****     {
  98:/usr/include/c++/5/bits/stl_pair.h ****       typedef _T1 first_type;    /// @c first_type is the first bound type
  99:/usr/include/c++/5/bits/stl_pair.h ****       typedef _T2 second_type;   /// @c second_type is the second bound type
 100:/usr/include/c++/5/bits/stl_pair.h **** 
 101:/usr/include/c++/5/bits/stl_pair.h ****       _T1 first;                 /// @c first is a copy of the first object
 102:/usr/include/c++/5/bits/stl_pair.h ****       _T2 second;                /// @c second is a copy of the second object
 103:/usr/include/c++/5/bits/stl_pair.h **** 
 104:/usr/include/c++/5/bits/stl_pair.h ****       // _GLIBCXX_RESOLVE_LIB_DEFECTS
 105:/usr/include/c++/5/bits/stl_pair.h ****       // 265.  std::pair::pair() effects overly restrictive
 106:/usr/include/c++/5/bits/stl_pair.h ****       /** The default constructor creates @c first and @c second using their
 107:/usr/include/c++/5/bits/stl_pair.h ****        *  respective default constructors.  */
 108:/usr/include/c++/5/bits/stl_pair.h ****       _GLIBCXX_CONSTEXPR pair()
 109:/usr/include/c++/5/bits/stl_pair.h ****       : first(), second() { }
 110:/usr/include/c++/5/bits/stl_pair.h **** 
 111:/usr/include/c++/5/bits/stl_pair.h ****       /** Two objects may be passed to a @c pair constructor to be copied.  */
 112:/usr/include/c++/5/bits/stl_pair.h ****       _GLIBCXX_CONSTEXPR pair(const _T1& __a, const _T2& __b)
 740              		.loc 4 112 0
 741              		.cfi_startproc
 742 0000 55       		pushq	%rbp
 743              		.cfi_def_cfa_offset 16
 744              		.cfi_offset 6, -16
 745 0001 4889E5   		movq	%rsp, %rbp
 746              		.cfi_def_cfa_register 6
 747 0004 4883EC20 		subq	$32, %rsp
 748 0008 48897DF8 		movq	%rdi, -8(%rbp)
 749 000c 488975F0 		movq	%rsi, -16(%rbp)
 750 0010 488955E8 		movq	%rdx, -24(%rbp)
 751              	.LBB7:
 113:/usr/include/c++/5/bits/stl_pair.h ****       : first(__a), second(__b) { }
 752              		.loc 4 113 0
 753 0014 488B45F0 		movq	-16(%rbp), %rax
 754 0018 8B10     		movl	(%rax), %edx
 755 001a 488B45F8 		movq	-8(%rbp), %rax
 756 001e 8910     		movl	%edx, (%rax)
 757 0020 488B45F8 		movq	-8(%rbp), %rax
 758 0024 488D5008 		leaq	8(%rax), %rdx
 759 0028 488B45E8 		movq	-24(%rbp), %rax
 760 002c 4889C6   		movq	%rax, %rsi
 761 002f 4889D7   		movq	%rdx, %rdi
 762 0032 E8000000 		call	_ZNSt7__cxx1112basic_stringIcSt11char_traitsIcESaIcEEC1ERKS4_@PLT
 762      00
 763              	.LBE7:
 764 0037 90       		nop
 765 0038 C9       		leave
 766              		.cfi_def_cfa 7, 8
 767 0039 C3       		ret
 768              		.cfi_endproc
 769              	.LFE898:
 771              		.weak	_ZNSt4pairIiNSt7__cxx1112basic_stringIcSt11char_traitsIcESaIcEEEEC1ERKiRKS5_
 772              		.set	_ZNSt4pairIiNSt7__cxx1112basic_stringIcSt11char_traitsIcESaIcEEEEC1ERKiRKS5_,_ZNSt4pairIiNSt7
 773              		.section	.text._ZNSt6vectorISt4pairIiNSt7__cxx1112basic_stringIcSt11char_traitsIcESaIcEEEESaIS7_EE
 774              		.align 2
 775              		.weak	_ZNSt6vectorISt4pairIiNSt7__cxx1112basic_stringIcSt11char_traitsIcESaIcEEEESaIS7_EE9push_bac
 777              	_ZNSt6vectorISt4pairIiNSt7__cxx1112basic_stringIcSt11char_traitsIcESaIcEEEESaIS7_EE9push_backERKS7_
 778              	.LFB900:
 913:/usr/include/c++/5/bits/stl_vector.h ****       {
 779              		.loc 5 913 0
 780              		.cfi_startproc
 781 0000 55       		pushq	%rbp
 782              		.cfi_def_cfa_offset 16
 783              		.cfi_offset 6, -16
 784 0001 4889E5   		movq	%rsp, %rbp
 785              		.cfi_def_cfa_register 6
 786 0004 4883EC10 		subq	$16, %rsp
 787 0008 48897DF8 		movq	%rdi, -8(%rbp)
 788 000c 488975F0 		movq	%rsi, -16(%rbp)
 915:/usr/include/c++/5/bits/stl_vector.h **** 	  {
 789              		.loc 5 915 0
 790 0010 488B45F8 		movq	-8(%rbp), %rax
 791 0014 488B5008 		movq	8(%rax), %rdx
 792 0018 488B45F8 		movq	-8(%rbp), %rax
 793 001c 488B4010 		movq	16(%rax), %rax
 794 0020 4839C2   		cmpq	%rax, %rdx
 795 0023 7431     		je	.L43
 917:/usr/include/c++/5/bits/stl_vector.h **** 	                             __x);
 796              		.loc 5 917 0
 797 0025 488B45F8 		movq	-8(%rbp), %rax
 798 0029 488B4808 		movq	8(%rax), %rcx
 799 002d 488B45F8 		movq	-8(%rbp), %rax
 800 0031 488B55F0 		movq	-16(%rbp), %rdx
 801 0035 4889CE   		movq	%rcx, %rsi
 802 0038 4889C7   		movq	%rax, %rdi
 803 003b E8000000 		call	_ZN9__gnu_cxx14__alloc_traitsISaISt4pairIiNSt7__cxx1112basic_stringIcSt11char_traitsIcESaIcEE
 803      00
 919:/usr/include/c++/5/bits/stl_vector.h **** 	  }
 804              		.loc 5 919 0
 805 0040 488B45F8 		movq	-8(%rbp), %rax
 806 0044 488B4008 		movq	8(%rax), %rax
 807 0048 488D5028 		leaq	40(%rax), %rdx
 808 004c 488B45F8 		movq	-8(%rbp), %rax
 809 0050 48895008 		movq	%rdx, 8(%rax)
 810              		.loc 5 927 0
 811 0054 EB22     		jmp	.L45
 812              	.L43:
 925:/usr/include/c++/5/bits/stl_vector.h **** #endif
 813              		.loc 5 925 0
 814 0056 488B45F8 		movq	-8(%rbp), %rax
 815 005a 4889C7   		movq	%rax, %rdi
 816 005d E8000000 		call	_ZNSt6vectorISt4pairIiNSt7__cxx1112basic_stringIcSt11char_traitsIcESaIcEEEESaIS7_EE3endEv@PLT
 816      00
 817 0062 4889C1   		movq	%rax, %rcx
 818 0065 488B55F0 		movq	-16(%rbp), %rdx
 819 0069 488B45F8 		movq	-8(%rbp), %rax
 820 006d 4889CE   		movq	%rcx, %rsi
 821 0070 4889C7   		movq	%rax, %rdi
 822 0073 E8000000 		call	_ZNSt6vectorISt4pairIiNSt7__cxx1112basic_stringIcSt11char_traitsIcESaIcEEEESaIS7_EE13_M_inser
 822      00
 823              	.L45:
 824              		.loc 5 927 0
 825 0078 90       		nop
 826 0079 C9       		leave
 827              		.cfi_def_cfa 7, 8
 828 007a C3       		ret
 829              		.cfi_endproc
 830              	.LFE900:
 832              		.section	.text._ZNSt12_Vector_baseISt4pairIiNSt7__cxx1112basic_stringIcSt11char_traitsIcESaIcEEEES
 833              		.align 2
 834              		.weak	_ZNSt12_Vector_baseISt4pairIiNSt7__cxx1112basic_stringIcSt11char_traitsIcESaIcEEEESaIS7_EE12
 836              	_ZNSt12_Vector_baseISt4pairIiNSt7__cxx1112basic_stringIcSt11char_traitsIcESaIcEEEESaIS7_EE12_Vector
 837              	.LFB907:
  79:/usr/include/c++/5/bits/stl_vector.h ****       : public _Tp_alloc_type
 838              		.loc 5 79 0
 839              		.cfi_startproc
 840 0000 55       		pushq	%rbp
 841              		.cfi_def_cfa_offset 16
 842              		.cfi_offset 6, -16
 843 0001 4889E5   		movq	%rsp, %rbp
 844              		.cfi_def_cfa_register 6
 845 0004 4883EC10 		subq	$16, %rsp
 846 0008 48897DF8 		movq	%rdi, -8(%rbp)
 847              	.LBB8:
  79:/usr/include/c++/5/bits/stl_vector.h ****       : public _Tp_alloc_type
 848              		.loc 5 79 0
 849 000c 488B45F8 		movq	-8(%rbp), %rax
 850 0010 4889C7   		movq	%rax, %rdi
 851 0013 E8000000 		call	_ZNSaISt4pairIiNSt7__cxx1112basic_stringIcSt11char_traitsIcESaIcEEEEED2Ev@PLT
 851      00
 852              	.LBE8:
 853 0018 90       		nop
 854 0019 C9       		leave
 855              		.cfi_def_cfa 7, 8
 856 001a C3       		ret
 857              		.cfi_endproc
 858              	.LFE907:
 860              		.weak	_ZNSt12_Vector_baseISt4pairIiNSt7__cxx1112basic_stringIcSt11char_traitsIcESaIcEEEESaIS7_EE12
 861              		.set	_ZNSt12_Vector_baseISt4pairIiNSt7__cxx1112basic_stringIcSt11char_traitsIcESaIcEEEESaIS7_EE12_
 862              		.section	.text._ZNSt12_Vector_baseISt4pairIiNSt7__cxx1112basic_stringIcSt11char_traitsIcESaIcEEEES
 863              		.align 2
 864              		.weak	_ZNSt12_Vector_baseISt4pairIiNSt7__cxx1112basic_stringIcSt11char_traitsIcESaIcEEEESaIS7_EED2
 866              	_ZNSt12_Vector_baseISt4pairIiNSt7__cxx1112basic_stringIcSt11char_traitsIcESaIcEEEESaIS7_EED2Ev:
 867              	.LFB909:
 159:/usr/include/c++/5/bits/stl_vector.h ****       { _M_deallocate(this->_M_impl._M_start, this->_M_impl._M_end_of_storage
 868              		.loc 5 159 0
 869              		.cfi_startproc
 870              		.cfi_personality 0x9b,DW.ref.__gxx_personality_v0
 871              		.cfi_lsda 0x1b,.LLSDA909
 872 0000 55       		pushq	%rbp
 873              		.cfi_def_cfa_offset 16
 874              		.cfi_offset 6, -16
 875 0001 4889E5   		movq	%rsp, %rbp
 876              		.cfi_def_cfa_register 6
 877 0004 53       		pushq	%rbx
 878 0005 4883EC18 		subq	$24, %rsp
 879              		.cfi_offset 3, -24
 880 0009 48897DE8 		movq	%rdi, -24(%rbp)
 881              	.LBB9:
 161:/usr/include/c++/5/bits/stl_vector.h **** 
 882              		.loc 5 161 0
 883 000d 488B45E8 		movq	-24(%rbp), %rax
 884 0011 488B4010 		movq	16(%rax), %rax
 160:/usr/include/c++/5/bits/stl_vector.h **** 		      - this->_M_impl._M_start); }
 885              		.loc 5 160 0
 886 0015 4889C2   		movq	%rax, %rdx
 161:/usr/include/c++/5/bits/stl_vector.h **** 
 887              		.loc 5 161 0
 888 0018 488B45E8 		movq	-24(%rbp), %rax
 889 001c 488B00   		movq	(%rax), %rax
 160:/usr/include/c++/5/bits/stl_vector.h **** 		      - this->_M_impl._M_start); }
 890              		.loc 5 160 0
 891 001f 4829C2   		subq	%rax, %rdx
 892 0022 4889D0   		movq	%rdx, %rax
 893 0025 48C1F803 		sarq	$3, %rax
 894 0029 4889C2   		movq	%rax, %rdx
 895 002c 48B8CDCC 		movabsq	$-3689348814741910323, %rax
 895      CCCCCCCC 
 895      CCCC
 896 0036 480FAFC2 		imulq	%rdx, %rax
 897 003a 4889C2   		movq	%rax, %rdx
 898 003d 488B45E8 		movq	-24(%rbp), %rax
 899 0041 488B08   		movq	(%rax), %rcx
 900 0044 488B45E8 		movq	-24(%rbp), %rax
 901 0048 4889CE   		movq	%rcx, %rsi
 902 004b 4889C7   		movq	%rax, %rdi
 903              	.LEHB20:
 904 004e E8000000 		call	_ZNSt12_Vector_baseISt4pairIiNSt7__cxx1112basic_stringIcSt11char_traitsIcESaIcEEEESaIS7_EE13_
 904      00
 905              	.LEHE20:
 161:/usr/include/c++/5/bits/stl_vector.h **** 
 906              		.loc 5 161 0
 907 0053 488B45E8 		movq	-24(%rbp), %rax
 908 0057 4889C7   		movq	%rax, %rdi
 909 005a E8000000 		call	_ZNSt12_Vector_baseISt4pairIiNSt7__cxx1112basic_stringIcSt11char_traitsIcESaIcEEEESaIS7_EE12_
 909      00
 910              	.LBE9:
 911 005f EB1A     		jmp	.L50
 912              	.L49:
 913 0061 4889C3   		movq	%rax, %rbx
 914              	.LBB10:
 915 0064 488B45E8 		movq	-24(%rbp), %rax
 916 0068 4889C7   		movq	%rax, %rdi
 917 006b E8000000 		call	_ZNSt12_Vector_baseISt4pairIiNSt7__cxx1112basic_stringIcSt11char_traitsIcESaIcEEEESaIS7_EE12_
 917      00
 918 0070 4889D8   		movq	%rbx, %rax
 919 0073 4889C7   		movq	%rax, %rdi
 920              	.LEHB21:
 921 0076 E8000000 		call	_Unwind_Resume@PLT
 921      00
 922              	.LEHE21:
 923              	.L50:
 924              	.LBE10:
 925 007b 4883C418 		addq	$24, %rsp
 926 007f 5B       		popq	%rbx
 927 0080 5D       		popq	%rbp
 928              		.cfi_def_cfa 7, 8
 929 0081 C3       		ret
 930              		.cfi_endproc
 931              	.LFE909:
 932              		.section	.gcc_except_table
 933              	.LLSDA909:
 934 0055 FF       		.byte	0xff
 935 0056 FF       		.byte	0xff
 936 0057 01       		.byte	0x1
 937 0058 08       		.uleb128 .LLSDACSE909-.LLSDACSB909
 938              	.LLSDACSB909:
 939 0059 4E       		.uleb128 .LEHB20-.LFB909
 940 005a 05       		.uleb128 .LEHE20-.LEHB20
 941 005b 61       		.uleb128 .L49-.LFB909
 942 005c 00       		.uleb128 0
 943 005d 76       		.uleb128 .LEHB21-.LFB909
 944 005e 05       		.uleb128 .LEHE21-.LEHB21
 945 005f 00       		.uleb128 0
 946 0060 00       		.uleb128 0
 947              	.LLSDACSE909:
 948              		.section	.text._ZNSt12_Vector_baseISt4pairIiNSt7__cxx1112basic_stringIcSt11char_traitsIcESaIcEEEES
 950              		.weak	_ZNSt12_Vector_baseISt4pairIiNSt7__cxx1112basic_stringIcSt11char_traitsIcESaIcEEEESaIS7_EED1
 951              		.set	_ZNSt12_Vector_baseISt4pairIiNSt7__cxx1112basic_stringIcSt11char_traitsIcESaIcEEEESaIS7_EED1E
 952              		.section	.text._ZNSt12_Vector_baseISt4pairIiNSt7__cxx1112basic_stringIcSt11char_traitsIcESaIcEEEES
 953              		.align 2
 954              		.weak	_ZNSt12_Vector_baseISt4pairIiNSt7__cxx1112basic_stringIcSt11char_traitsIcESaIcEEEESaIS7_EE19
 956              	_ZNSt12_Vector_baseISt4pairIiNSt7__cxx1112basic_stringIcSt11char_traitsIcESaIcEEEESaIS7_EE19_M_get_
 957              	.LFB911:
 113:/usr/include/c++/5/bits/stl_vector.h ****       { return *static_cast<_Tp_alloc_type*>(&this->_M_impl); }
 958              		.loc 5 113 0
 959              		.cfi_startproc
 960 0000 55       		pushq	%rbp
 961              		.cfi_def_cfa_offset 16
 962              		.cfi_offset 6, -16
 963 0001 4889E5   		movq	%rsp, %rbp
 964              		.cfi_def_cfa_register 6
 965 0004 48897DF8 		movq	%rdi, -8(%rbp)
 114:/usr/include/c++/5/bits/stl_vector.h **** 
 966              		.loc 5 114 0
 967 0008 488B45F8 		movq	-8(%rbp), %rax
 968 000c 5D       		popq	%rbp
 969              		.cfi_def_cfa 7, 8
 970 000d C3       		ret
 971              		.cfi_endproc
 972              	.LFE911:
 974              		.section	.text._ZSt8_DestroyIPSt4pairIiNSt7__cxx1112basic_stringIcSt11char_traitsIcESaIcEEEES7_EvT
 975              		.weak	_ZSt8_DestroyIPSt4pairIiNSt7__cxx1112basic_stringIcSt11char_traitsIcESaIcEEEES7_EvT_S9_RSaIT
 977              	_ZSt8_DestroyIPSt4pairIiNSt7__cxx1112basic_stringIcSt11char_traitsIcESaIcEEEES7_EvT_S9_RSaIT0_E:
 978              	.LFB912:
 979              		.file 6 "/usr/include/c++/5/bits/stl_construct.h"
   1:/usr/include/c++/5/bits/stl_construct.h **** // nonstandard construct and destroy functions -*- C++ -*-
   2:/usr/include/c++/5/bits/stl_construct.h **** 
   3:/usr/include/c++/5/bits/stl_construct.h **** // Copyright (C) 2001-2015 Free Software Foundation, Inc.
   4:/usr/include/c++/5/bits/stl_construct.h **** //
   5:/usr/include/c++/5/bits/stl_construct.h **** // This file is part of the GNU ISO C++ Library.  This library is free
   6:/usr/include/c++/5/bits/stl_construct.h **** // software; you can redistribute it and/or modify it under the
   7:/usr/include/c++/5/bits/stl_construct.h **** // terms of the GNU General Public License as published by the
   8:/usr/include/c++/5/bits/stl_construct.h **** // Free Software Foundation; either version 3, or (at your option)
   9:/usr/include/c++/5/bits/stl_construct.h **** // any later version.
  10:/usr/include/c++/5/bits/stl_construct.h **** 
  11:/usr/include/c++/5/bits/stl_construct.h **** // This library is distributed in the hope that it will be useful,
  12:/usr/include/c++/5/bits/stl_construct.h **** // but WITHOUT ANY WARRANTY; without even the implied warranty of
  13:/usr/include/c++/5/bits/stl_construct.h **** // MERCHANTABILITY or FITNESS FOR A PARTICULAR PURPOSE.  See the
  14:/usr/include/c++/5/bits/stl_construct.h **** // GNU General Public License for more details.
  15:/usr/include/c++/5/bits/stl_construct.h **** 
  16:/usr/include/c++/5/bits/stl_construct.h **** // Under Section 7 of GPL version 3, you are granted additional
  17:/usr/include/c++/5/bits/stl_construct.h **** // permissions described in the GCC Runtime Library Exception, version
  18:/usr/include/c++/5/bits/stl_construct.h **** // 3.1, as published by the Free Software Foundation.
  19:/usr/include/c++/5/bits/stl_construct.h **** 
  20:/usr/include/c++/5/bits/stl_construct.h **** // You should have received a copy of the GNU General Public License and
  21:/usr/include/c++/5/bits/stl_construct.h **** // a copy of the GCC Runtime Library Exception along with this program;
  22:/usr/include/c++/5/bits/stl_construct.h **** // see the files COPYING3 and COPYING.RUNTIME respectively.  If not, see
  23:/usr/include/c++/5/bits/stl_construct.h **** // <http://www.gnu.org/licenses/>.
  24:/usr/include/c++/5/bits/stl_construct.h **** 
  25:/usr/include/c++/5/bits/stl_construct.h **** /*
  26:/usr/include/c++/5/bits/stl_construct.h ****  *
  27:/usr/include/c++/5/bits/stl_construct.h ****  * Copyright (c) 1994
  28:/usr/include/c++/5/bits/stl_construct.h ****  * Hewlett-Packard Company
  29:/usr/include/c++/5/bits/stl_construct.h ****  *
  30:/usr/include/c++/5/bits/stl_construct.h ****  * Permission to use, copy, modify, distribute and sell this software
  31:/usr/include/c++/5/bits/stl_construct.h ****  * and its documentation for any purpose is hereby granted without fee,
  32:/usr/include/c++/5/bits/stl_construct.h ****  * provided that the above copyright notice appear in all copies and
  33:/usr/include/c++/5/bits/stl_construct.h ****  * that both that copyright notice and this permission notice appear
  34:/usr/include/c++/5/bits/stl_construct.h ****  * in supporting documentation.  Hewlett-Packard Company makes no
  35:/usr/include/c++/5/bits/stl_construct.h ****  * representations about the suitability of this software for any
  36:/usr/include/c++/5/bits/stl_construct.h ****  * purpose.  It is provided "as is" without express or implied warranty.
  37:/usr/include/c++/5/bits/stl_construct.h ****  *
  38:/usr/include/c++/5/bits/stl_construct.h ****  *
  39:/usr/include/c++/5/bits/stl_construct.h ****  * Copyright (c) 1996,1997
  40:/usr/include/c++/5/bits/stl_construct.h ****  * Silicon Graphics Computer Systems, Inc.
  41:/usr/include/c++/5/bits/stl_construct.h ****  *
  42:/usr/include/c++/5/bits/stl_construct.h ****  * Permission to use, copy, modify, distribute and sell this software
  43:/usr/include/c++/5/bits/stl_construct.h ****  * and its documentation for any purpose is hereby granted without fee,
  44:/usr/include/c++/5/bits/stl_construct.h ****  * provided that the above copyright notice appear in all copies and
  45:/usr/include/c++/5/bits/stl_construct.h ****  * that both that copyright notice and this permission notice appear
  46:/usr/include/c++/5/bits/stl_construct.h ****  * in supporting documentation.  Silicon Graphics makes no
  47:/usr/include/c++/5/bits/stl_construct.h ****  * representations about the suitability of this software for any
  48:/usr/include/c++/5/bits/stl_construct.h ****  * purpose.  It is provided "as is" without express or implied warranty.
  49:/usr/include/c++/5/bits/stl_construct.h ****  */
  50:/usr/include/c++/5/bits/stl_construct.h **** 
  51:/usr/include/c++/5/bits/stl_construct.h **** /** @file bits/stl_construct.h
  52:/usr/include/c++/5/bits/stl_construct.h ****  *  This is an internal header file, included by other library headers.
  53:/usr/include/c++/5/bits/stl_construct.h ****  *  Do not attempt to use it directly. @headername{memory}
  54:/usr/include/c++/5/bits/stl_construct.h ****  */
  55:/usr/include/c++/5/bits/stl_construct.h **** 
  56:/usr/include/c++/5/bits/stl_construct.h **** #ifndef _STL_CONSTRUCT_H
  57:/usr/include/c++/5/bits/stl_construct.h **** #define _STL_CONSTRUCT_H 1
  58:/usr/include/c++/5/bits/stl_construct.h **** 
  59:/usr/include/c++/5/bits/stl_construct.h **** #include <new>
  60:/usr/include/c++/5/bits/stl_construct.h **** #include <bits/move.h>
  61:/usr/include/c++/5/bits/stl_construct.h **** #include <ext/alloc_traits.h>
  62:/usr/include/c++/5/bits/stl_construct.h **** 
  63:/usr/include/c++/5/bits/stl_construct.h **** namespace std _GLIBCXX_VISIBILITY(default)
  64:/usr/include/c++/5/bits/stl_construct.h **** {
  65:/usr/include/c++/5/bits/stl_construct.h **** _GLIBCXX_BEGIN_NAMESPACE_VERSION
  66:/usr/include/c++/5/bits/stl_construct.h **** 
  67:/usr/include/c++/5/bits/stl_construct.h ****   /**
  68:/usr/include/c++/5/bits/stl_construct.h ****    * Constructs an object in existing memory by invoking an allocated
  69:/usr/include/c++/5/bits/stl_construct.h ****    * object's constructor with an initializer.
  70:/usr/include/c++/5/bits/stl_construct.h ****    */
  71:/usr/include/c++/5/bits/stl_construct.h **** #if __cplusplus >= 201103L
  72:/usr/include/c++/5/bits/stl_construct.h ****   template<typename _T1, typename... _Args>
  73:/usr/include/c++/5/bits/stl_construct.h ****     inline void
  74:/usr/include/c++/5/bits/stl_construct.h ****     _Construct(_T1* __p, _Args&&... __args)
  75:/usr/include/c++/5/bits/stl_construct.h ****     { ::new(static_cast<void*>(__p)) _T1(std::forward<_Args>(__args)...); }
  76:/usr/include/c++/5/bits/stl_construct.h **** #else
  77:/usr/include/c++/5/bits/stl_construct.h ****   template<typename _T1, typename _T2>
  78:/usr/include/c++/5/bits/stl_construct.h ****     inline void
  79:/usr/include/c++/5/bits/stl_construct.h ****     _Construct(_T1* __p, const _T2& __value)
  80:/usr/include/c++/5/bits/stl_construct.h ****     {
  81:/usr/include/c++/5/bits/stl_construct.h ****       // _GLIBCXX_RESOLVE_LIB_DEFECTS
  82:/usr/include/c++/5/bits/stl_construct.h ****       // 402. wrong new expression in [some_]allocator::construct
  83:/usr/include/c++/5/bits/stl_construct.h ****       ::new(static_cast<void*>(__p)) _T1(__value);
  84:/usr/include/c++/5/bits/stl_construct.h ****     }
  85:/usr/include/c++/5/bits/stl_construct.h **** #endif
  86:/usr/include/c++/5/bits/stl_construct.h **** 
  87:/usr/include/c++/5/bits/stl_construct.h ****   /**
  88:/usr/include/c++/5/bits/stl_construct.h ****    * Destroy the object pointed to by a pointer type.
  89:/usr/include/c++/5/bits/stl_construct.h ****    */
  90:/usr/include/c++/5/bits/stl_construct.h ****   template<typename _Tp>
  91:/usr/include/c++/5/bits/stl_construct.h ****     inline void
  92:/usr/include/c++/5/bits/stl_construct.h ****     _Destroy(_Tp* __pointer)
  93:/usr/include/c++/5/bits/stl_construct.h ****     { __pointer->~_Tp(); }
  94:/usr/include/c++/5/bits/stl_construct.h **** 
  95:/usr/include/c++/5/bits/stl_construct.h ****   template<bool>
  96:/usr/include/c++/5/bits/stl_construct.h ****     struct _Destroy_aux
  97:/usr/include/c++/5/bits/stl_construct.h ****     {
  98:/usr/include/c++/5/bits/stl_construct.h ****       template<typename _ForwardIterator>
  99:/usr/include/c++/5/bits/stl_construct.h ****         static void
 100:/usr/include/c++/5/bits/stl_construct.h ****         __destroy(_ForwardIterator __first, _ForwardIterator __last)
 101:/usr/include/c++/5/bits/stl_construct.h **** 	{
 102:/usr/include/c++/5/bits/stl_construct.h **** 	  for (; __first != __last; ++__first)
 103:/usr/include/c++/5/bits/stl_construct.h **** 	    std::_Destroy(std::__addressof(*__first));
 104:/usr/include/c++/5/bits/stl_construct.h **** 	}
 105:/usr/include/c++/5/bits/stl_construct.h ****     };
 106:/usr/include/c++/5/bits/stl_construct.h **** 
 107:/usr/include/c++/5/bits/stl_construct.h ****   template<>
 108:/usr/include/c++/5/bits/stl_construct.h ****     struct _Destroy_aux<true>
 109:/usr/include/c++/5/bits/stl_construct.h ****     {
 110:/usr/include/c++/5/bits/stl_construct.h ****       template<typename _ForwardIterator>
 111:/usr/include/c++/5/bits/stl_construct.h ****         static void
 112:/usr/include/c++/5/bits/stl_construct.h ****         __destroy(_ForwardIterator, _ForwardIterator) { }
 113:/usr/include/c++/5/bits/stl_construct.h ****     };
 114:/usr/include/c++/5/bits/stl_construct.h **** 
 115:/usr/include/c++/5/bits/stl_construct.h ****   /**
 116:/usr/include/c++/5/bits/stl_construct.h ****    * Destroy a range of objects.  If the value_type of the object has
 117:/usr/include/c++/5/bits/stl_construct.h ****    * a trivial destructor, the compiler should optimize all of this
 118:/usr/include/c++/5/bits/stl_construct.h ****    * away, otherwise the objects' destructors must be invoked.
 119:/usr/include/c++/5/bits/stl_construct.h ****    */
 120:/usr/include/c++/5/bits/stl_construct.h ****   template<typename _ForwardIterator>
 121:/usr/include/c++/5/bits/stl_construct.h ****     inline void
 122:/usr/include/c++/5/bits/stl_construct.h ****     _Destroy(_ForwardIterator __first, _ForwardIterator __last)
 123:/usr/include/c++/5/bits/stl_construct.h ****     {
 124:/usr/include/c++/5/bits/stl_construct.h ****       typedef typename iterator_traits<_ForwardIterator>::value_type
 125:/usr/include/c++/5/bits/stl_construct.h ****                        _Value_type;
 126:/usr/include/c++/5/bits/stl_construct.h ****       std::_Destroy_aux<__has_trivial_destructor(_Value_type)>::
 127:/usr/include/c++/5/bits/stl_construct.h **** 	__destroy(__first, __last);
 128:/usr/include/c++/5/bits/stl_construct.h ****     }
 129:/usr/include/c++/5/bits/stl_construct.h **** 
 130:/usr/include/c++/5/bits/stl_construct.h ****   /**
 131:/usr/include/c++/5/bits/stl_construct.h ****    * Destroy a range of objects using the supplied allocator.  For
 132:/usr/include/c++/5/bits/stl_construct.h ****    * nondefault allocators we do not optimize away invocation of 
 133:/usr/include/c++/5/bits/stl_construct.h ****    * destroy() even if _Tp has a trivial destructor.
 134:/usr/include/c++/5/bits/stl_construct.h ****    */
 135:/usr/include/c++/5/bits/stl_construct.h **** 
 136:/usr/include/c++/5/bits/stl_construct.h ****   template<typename _ForwardIterator, typename _Allocator>
 137:/usr/include/c++/5/bits/stl_construct.h ****     void
 138:/usr/include/c++/5/bits/stl_construct.h ****     _Destroy(_ForwardIterator __first, _ForwardIterator __last,
 139:/usr/include/c++/5/bits/stl_construct.h **** 	     _Allocator& __alloc)
 140:/usr/include/c++/5/bits/stl_construct.h ****     {
 141:/usr/include/c++/5/bits/stl_construct.h ****       typedef __gnu_cxx::__alloc_traits<_Allocator> __traits;
 142:/usr/include/c++/5/bits/stl_construct.h ****       for (; __first != __last; ++__first)
 143:/usr/include/c++/5/bits/stl_construct.h **** 	__traits::destroy(__alloc, std::__addressof(*__first));
 144:/usr/include/c++/5/bits/stl_construct.h ****     }
 145:/usr/include/c++/5/bits/stl_construct.h **** 
 146:/usr/include/c++/5/bits/stl_construct.h ****   template<typename _ForwardIterator, typename _Tp>
 147:/usr/include/c++/5/bits/stl_construct.h ****     inline void
 148:/usr/include/c++/5/bits/stl_construct.h ****     _Destroy(_ForwardIterator __first, _ForwardIterator __last,
 980              		.loc 6 148 0
 981              		.cfi_startproc
 982 0000 55       		pushq	%rbp
 983              		.cfi_def_cfa_offset 16
 984              		.cfi_offset 6, -16
 985 0001 4889E5   		movq	%rsp, %rbp
 986              		.cfi_def_cfa_register 6
 987 0004 4883EC20 		subq	$32, %rsp
 988 0008 48897DF8 		movq	%rdi, -8(%rbp)
 989 000c 488975F0 		movq	%rsi, -16(%rbp)
 990 0010 488955E8 		movq	%rdx, -24(%rbp)
 149:/usr/include/c++/5/bits/stl_construct.h **** 	     allocator<_Tp>&)
 150:/usr/include/c++/5/bits/stl_construct.h ****     {
 151:/usr/include/c++/5/bits/stl_construct.h ****       _Destroy(__first, __last);
 991              		.loc 6 151 0
 992 0014 488B55F0 		movq	-16(%rbp), %rdx
 993 0018 488B45F8 		movq	-8(%rbp), %rax
 994 001c 4889D6   		movq	%rdx, %rsi
 995 001f 4889C7   		movq	%rax, %rdi
 996 0022 E8000000 		call	_ZSt8_DestroyIPSt4pairIiNSt7__cxx1112basic_stringIcSt11char_traitsIcESaIcEEEEEvT_S9_@PLT
 996      00
 152:/usr/include/c++/5/bits/stl_construct.h ****     }
 997              		.loc 6 152 0
 998 0027 90       		nop
 999 0028 C9       		leave
 1000              		.cfi_def_cfa 7, 8
 1001 0029 C3       		ret
 1002              		.cfi_endproc
 1003              	.LFE912:
 1005              		.section	.text._ZN9__gnu_cxx14__alloc_traitsISaIN8UnitTest18DeferredTestResultEEE9constructIS2_EEv
 1006              		.weak	_ZN9__gnu_cxx14__alloc_traitsISaIN8UnitTest18DeferredTestResultEEE9constructIS2_EEvRS3_PS2_R
 1008              	_ZN9__gnu_cxx14__alloc_traitsISaIN8UnitTest18DeferredTestResultEEE9constructIS2_EEvRS3_PS2_RKT_:
 1009              	.LFB913:
 1010              		.file 7 "/usr/include/c++/5/ext/alloc_traits.h"
   1:/usr/include/c++/5/ext/alloc_traits.h **** // Allocator traits -*- C++ -*-
   2:/usr/include/c++/5/ext/alloc_traits.h **** 
   3:/usr/include/c++/5/ext/alloc_traits.h **** // Copyright (C) 2011-2015 Free Software Foundation, Inc.
   4:/usr/include/c++/5/ext/alloc_traits.h **** //
   5:/usr/include/c++/5/ext/alloc_traits.h **** // This file is part of the GNU ISO C++ Library.  This library is free
   6:/usr/include/c++/5/ext/alloc_traits.h **** // software; you can redistribute it and/or modify it under the
   7:/usr/include/c++/5/ext/alloc_traits.h **** // terms of the GNU General Public License as published by the
   8:/usr/include/c++/5/ext/alloc_traits.h **** // Free Software Foundation; either version 3, or (at your option)
   9:/usr/include/c++/5/ext/alloc_traits.h **** // any later version.
  10:/usr/include/c++/5/ext/alloc_traits.h **** 
  11:/usr/include/c++/5/ext/alloc_traits.h **** // This library is distributed in the hope that it will be useful,
  12:/usr/include/c++/5/ext/alloc_traits.h **** // but WITHOUT ANY WARRANTY; without even the implied warranty of
  13:/usr/include/c++/5/ext/alloc_traits.h **** // MERCHANTABILITY or FITNESS FOR A PARTICULAR PURPOSE.  See the
  14:/usr/include/c++/5/ext/alloc_traits.h **** // GNU General Public License for more details.
  15:/usr/include/c++/5/ext/alloc_traits.h **** 
  16:/usr/include/c++/5/ext/alloc_traits.h **** // Under Section 7 of GPL version 3, you are granted additional
  17:/usr/include/c++/5/ext/alloc_traits.h **** // permissions described in the GCC Runtime Library Exception, version
  18:/usr/include/c++/5/ext/alloc_traits.h **** // 3.1, as published by the Free Software Foundation.
  19:/usr/include/c++/5/ext/alloc_traits.h **** 
  20:/usr/include/c++/5/ext/alloc_traits.h **** // You should have received a copy of the GNU General Public License and
  21:/usr/include/c++/5/ext/alloc_traits.h **** // a copy of the GCC Runtime Library Exception along with this program;
  22:/usr/include/c++/5/ext/alloc_traits.h **** // see the files COPYING3 and COPYING.RUNTIME respectively.  If not, see
  23:/usr/include/c++/5/ext/alloc_traits.h **** // <http://www.gnu.org/licenses/>.
  24:/usr/include/c++/5/ext/alloc_traits.h **** 
  25:/usr/include/c++/5/ext/alloc_traits.h **** /** @file ext/alloc_traits.h
  26:/usr/include/c++/5/ext/alloc_traits.h ****  *  This file is a GNU extension to the Standard C++ Library.
  27:/usr/include/c++/5/ext/alloc_traits.h ****  */
  28:/usr/include/c++/5/ext/alloc_traits.h **** 
  29:/usr/include/c++/5/ext/alloc_traits.h **** #ifndef _EXT_ALLOC_TRAITS_H
  30:/usr/include/c++/5/ext/alloc_traits.h **** #define _EXT_ALLOC_TRAITS_H 1
  31:/usr/include/c++/5/ext/alloc_traits.h **** 
  32:/usr/include/c++/5/ext/alloc_traits.h **** #pragma GCC system_header
  33:/usr/include/c++/5/ext/alloc_traits.h **** 
  34:/usr/include/c++/5/ext/alloc_traits.h **** #if __cplusplus >= 201103L
  35:/usr/include/c++/5/ext/alloc_traits.h **** # include <bits/move.h>
  36:/usr/include/c++/5/ext/alloc_traits.h **** # include <bits/alloc_traits.h>
  37:/usr/include/c++/5/ext/alloc_traits.h **** #else
  38:/usr/include/c++/5/ext/alloc_traits.h **** # include <bits/allocator.h>  // for __alloc_swap
  39:/usr/include/c++/5/ext/alloc_traits.h **** #endif
  40:/usr/include/c++/5/ext/alloc_traits.h **** 
  41:/usr/include/c++/5/ext/alloc_traits.h **** namespace __gnu_cxx _GLIBCXX_VISIBILITY(default)
  42:/usr/include/c++/5/ext/alloc_traits.h **** {
  43:/usr/include/c++/5/ext/alloc_traits.h **** _GLIBCXX_BEGIN_NAMESPACE_VERSION
  44:/usr/include/c++/5/ext/alloc_traits.h **** 
  45:/usr/include/c++/5/ext/alloc_traits.h **** #if __cplusplus >= 201103L
  46:/usr/include/c++/5/ext/alloc_traits.h ****   template<typename _Alloc>
  47:/usr/include/c++/5/ext/alloc_traits.h ****     struct __allocator_always_compares_equal : std::false_type { };
  48:/usr/include/c++/5/ext/alloc_traits.h **** 
  49:/usr/include/c++/5/ext/alloc_traits.h ****   template<typename _Tp>
  50:/usr/include/c++/5/ext/alloc_traits.h ****     struct __allocator_always_compares_equal<std::allocator<_Tp>>
  51:/usr/include/c++/5/ext/alloc_traits.h ****     : std::true_type { };
  52:/usr/include/c++/5/ext/alloc_traits.h **** 
  53:/usr/include/c++/5/ext/alloc_traits.h ****   template<typename, typename> struct array_allocator;
  54:/usr/include/c++/5/ext/alloc_traits.h **** 
  55:/usr/include/c++/5/ext/alloc_traits.h ****   template<typename _Tp, typename _Array>
  56:/usr/include/c++/5/ext/alloc_traits.h ****     struct __allocator_always_compares_equal<array_allocator<_Tp, _Array>>
  57:/usr/include/c++/5/ext/alloc_traits.h ****     : std::true_type { };
  58:/usr/include/c++/5/ext/alloc_traits.h **** 
  59:/usr/include/c++/5/ext/alloc_traits.h ****   template<typename> struct bitmap_allocator;
  60:/usr/include/c++/5/ext/alloc_traits.h **** 
  61:/usr/include/c++/5/ext/alloc_traits.h ****   template<typename _Tp>
  62:/usr/include/c++/5/ext/alloc_traits.h ****     struct __allocator_always_compares_equal<bitmap_allocator<_Tp>>
  63:/usr/include/c++/5/ext/alloc_traits.h ****     : std::true_type { };
  64:/usr/include/c++/5/ext/alloc_traits.h **** 
  65:/usr/include/c++/5/ext/alloc_traits.h ****   template<typename> struct malloc_allocator;
  66:/usr/include/c++/5/ext/alloc_traits.h **** 
  67:/usr/include/c++/5/ext/alloc_traits.h ****   template<typename _Tp>
  68:/usr/include/c++/5/ext/alloc_traits.h ****     struct __allocator_always_compares_equal<malloc_allocator<_Tp>>
  69:/usr/include/c++/5/ext/alloc_traits.h ****     : std::true_type { };
  70:/usr/include/c++/5/ext/alloc_traits.h **** 
  71:/usr/include/c++/5/ext/alloc_traits.h ****   template<typename> struct mt_allocator;
  72:/usr/include/c++/5/ext/alloc_traits.h **** 
  73:/usr/include/c++/5/ext/alloc_traits.h ****   template<typename _Tp>
  74:/usr/include/c++/5/ext/alloc_traits.h ****     struct __allocator_always_compares_equal<mt_allocator<_Tp>>
  75:/usr/include/c++/5/ext/alloc_traits.h ****     : std::true_type { };
  76:/usr/include/c++/5/ext/alloc_traits.h **** 
  77:/usr/include/c++/5/ext/alloc_traits.h ****   template<typename> struct new_allocator;
  78:/usr/include/c++/5/ext/alloc_traits.h **** 
  79:/usr/include/c++/5/ext/alloc_traits.h ****   template<typename _Tp>
  80:/usr/include/c++/5/ext/alloc_traits.h ****     struct __allocator_always_compares_equal<new_allocator<_Tp>>
  81:/usr/include/c++/5/ext/alloc_traits.h ****     : std::true_type { };
  82:/usr/include/c++/5/ext/alloc_traits.h **** 
  83:/usr/include/c++/5/ext/alloc_traits.h ****   template<typename> struct pool_allocator;
  84:/usr/include/c++/5/ext/alloc_traits.h **** 
  85:/usr/include/c++/5/ext/alloc_traits.h ****   template<typename _Tp>
  86:/usr/include/c++/5/ext/alloc_traits.h ****     struct __allocator_always_compares_equal<pool_allocator<_Tp>>
  87:/usr/include/c++/5/ext/alloc_traits.h ****     : std::true_type { };
  88:/usr/include/c++/5/ext/alloc_traits.h **** #endif
  89:/usr/include/c++/5/ext/alloc_traits.h **** 
  90:/usr/include/c++/5/ext/alloc_traits.h **** /**
  91:/usr/include/c++/5/ext/alloc_traits.h ****  * @brief  Uniform interface to C++98 and C++0x allocators.
  92:/usr/include/c++/5/ext/alloc_traits.h ****  * @ingroup allocators
  93:/usr/include/c++/5/ext/alloc_traits.h **** */
  94:/usr/include/c++/5/ext/alloc_traits.h **** template<typename _Alloc>
  95:/usr/include/c++/5/ext/alloc_traits.h ****   struct __alloc_traits
  96:/usr/include/c++/5/ext/alloc_traits.h **** #if __cplusplus >= 201103L
  97:/usr/include/c++/5/ext/alloc_traits.h ****   : std::allocator_traits<_Alloc>
  98:/usr/include/c++/5/ext/alloc_traits.h **** #endif
  99:/usr/include/c++/5/ext/alloc_traits.h ****   {
 100:/usr/include/c++/5/ext/alloc_traits.h ****     typedef _Alloc allocator_type;
 101:/usr/include/c++/5/ext/alloc_traits.h **** #if __cplusplus >= 201103L
 102:/usr/include/c++/5/ext/alloc_traits.h ****     typedef std::allocator_traits<_Alloc>           _Base_type;
 103:/usr/include/c++/5/ext/alloc_traits.h ****     typedef typename _Base_type::value_type         value_type;
 104:/usr/include/c++/5/ext/alloc_traits.h ****     typedef typename _Base_type::pointer            pointer;
 105:/usr/include/c++/5/ext/alloc_traits.h ****     typedef typename _Base_type::const_pointer      const_pointer;
 106:/usr/include/c++/5/ext/alloc_traits.h ****     typedef typename _Base_type::size_type          size_type;
 107:/usr/include/c++/5/ext/alloc_traits.h ****     typedef typename _Base_type::difference_type    difference_type;
 108:/usr/include/c++/5/ext/alloc_traits.h ****     // C++11 allocators do not define reference or const_reference
 109:/usr/include/c++/5/ext/alloc_traits.h ****     typedef value_type&                             reference;
 110:/usr/include/c++/5/ext/alloc_traits.h ****     typedef const value_type&                       const_reference;
 111:/usr/include/c++/5/ext/alloc_traits.h ****     using _Base_type::allocate;
 112:/usr/include/c++/5/ext/alloc_traits.h ****     using _Base_type::deallocate;
 113:/usr/include/c++/5/ext/alloc_traits.h ****     using _Base_type::construct;
 114:/usr/include/c++/5/ext/alloc_traits.h ****     using _Base_type::destroy;
 115:/usr/include/c++/5/ext/alloc_traits.h ****     using _Base_type::max_size;
 116:/usr/include/c++/5/ext/alloc_traits.h **** 
 117:/usr/include/c++/5/ext/alloc_traits.h ****   private:
 118:/usr/include/c++/5/ext/alloc_traits.h ****     template<typename _Ptr>
 119:/usr/include/c++/5/ext/alloc_traits.h ****       using __is_custom_pointer
 120:/usr/include/c++/5/ext/alloc_traits.h **** 	= std::__and_<std::is_same<pointer, _Ptr>,
 121:/usr/include/c++/5/ext/alloc_traits.h **** 		      std::__not_<std::is_pointer<_Ptr>>>;
 122:/usr/include/c++/5/ext/alloc_traits.h **** 
 123:/usr/include/c++/5/ext/alloc_traits.h ****   public:
 124:/usr/include/c++/5/ext/alloc_traits.h ****     // overload construct for non-standard pointer types
 125:/usr/include/c++/5/ext/alloc_traits.h ****     template<typename _Ptr, typename... _Args>
 126:/usr/include/c++/5/ext/alloc_traits.h ****       static typename std::enable_if<__is_custom_pointer<_Ptr>::value>::type
 127:/usr/include/c++/5/ext/alloc_traits.h ****       construct(_Alloc& __a, _Ptr __p, _Args&&... __args)
 128:/usr/include/c++/5/ext/alloc_traits.h ****       {
 129:/usr/include/c++/5/ext/alloc_traits.h **** 	_Base_type::construct(__a, std::addressof(*__p),
 130:/usr/include/c++/5/ext/alloc_traits.h **** 			      std::forward<_Args>(__args)...);
 131:/usr/include/c++/5/ext/alloc_traits.h ****       }
 132:/usr/include/c++/5/ext/alloc_traits.h **** 
 133:/usr/include/c++/5/ext/alloc_traits.h ****     // overload destroy for non-standard pointer types
 134:/usr/include/c++/5/ext/alloc_traits.h ****     template<typename _Ptr>
 135:/usr/include/c++/5/ext/alloc_traits.h ****       static typename std::enable_if<__is_custom_pointer<_Ptr>::value>::type
 136:/usr/include/c++/5/ext/alloc_traits.h ****       destroy(_Alloc& __a, _Ptr __p)
 137:/usr/include/c++/5/ext/alloc_traits.h ****       { _Base_type::destroy(__a, std::addressof(*__p)); }
 138:/usr/include/c++/5/ext/alloc_traits.h **** 
 139:/usr/include/c++/5/ext/alloc_traits.h ****     static _Alloc _S_select_on_copy(const _Alloc& __a)
 140:/usr/include/c++/5/ext/alloc_traits.h ****     { return _Base_type::select_on_container_copy_construction(__a); }
 141:/usr/include/c++/5/ext/alloc_traits.h **** 
 142:/usr/include/c++/5/ext/alloc_traits.h ****     static void _S_on_swap(_Alloc& __a, _Alloc& __b)
 143:/usr/include/c++/5/ext/alloc_traits.h ****     { std::__alloc_on_swap(__a, __b); }
 144:/usr/include/c++/5/ext/alloc_traits.h **** 
 145:/usr/include/c++/5/ext/alloc_traits.h ****     static constexpr bool _S_propagate_on_copy_assign()
 146:/usr/include/c++/5/ext/alloc_traits.h ****     { return _Base_type::propagate_on_container_copy_assignment::value; }
 147:/usr/include/c++/5/ext/alloc_traits.h **** 
 148:/usr/include/c++/5/ext/alloc_traits.h ****     static constexpr bool _S_propagate_on_move_assign()
 149:/usr/include/c++/5/ext/alloc_traits.h ****     { return _Base_type::propagate_on_container_move_assignment::value; }
 150:/usr/include/c++/5/ext/alloc_traits.h **** 
 151:/usr/include/c++/5/ext/alloc_traits.h ****     static constexpr bool _S_propagate_on_swap()
 152:/usr/include/c++/5/ext/alloc_traits.h ****     { return _Base_type::propagate_on_container_swap::value; }
 153:/usr/include/c++/5/ext/alloc_traits.h **** 
 154:/usr/include/c++/5/ext/alloc_traits.h ****     static constexpr bool _S_always_equal()
 155:/usr/include/c++/5/ext/alloc_traits.h ****     { return __allocator_always_compares_equal<_Alloc>::value; }
 156:/usr/include/c++/5/ext/alloc_traits.h **** 
 157:/usr/include/c++/5/ext/alloc_traits.h ****     static constexpr bool _S_nothrow_move()
 158:/usr/include/c++/5/ext/alloc_traits.h ****     { return _S_propagate_on_move_assign() || _S_always_equal(); }
 159:/usr/include/c++/5/ext/alloc_traits.h **** 
 160:/usr/include/c++/5/ext/alloc_traits.h ****     static constexpr bool _S_nothrow_swap()
 161:/usr/include/c++/5/ext/alloc_traits.h ****     {
 162:/usr/include/c++/5/ext/alloc_traits.h ****       using std::swap;
 163:/usr/include/c++/5/ext/alloc_traits.h ****       return !_S_propagate_on_swap()
 164:/usr/include/c++/5/ext/alloc_traits.h ****        	|| noexcept(swap(std::declval<_Alloc&>(), std::declval<_Alloc&>()));
 165:/usr/include/c++/5/ext/alloc_traits.h ****     }
 166:/usr/include/c++/5/ext/alloc_traits.h **** 
 167:/usr/include/c++/5/ext/alloc_traits.h ****     template<typename _Tp>
 168:/usr/include/c++/5/ext/alloc_traits.h ****       struct rebind
 169:/usr/include/c++/5/ext/alloc_traits.h ****       { typedef typename _Base_type::template rebind_alloc<_Tp> other; };
 170:/usr/include/c++/5/ext/alloc_traits.h **** #else
 171:/usr/include/c++/5/ext/alloc_traits.h **** 
 172:/usr/include/c++/5/ext/alloc_traits.h ****     typedef typename _Alloc::pointer                pointer;
 173:/usr/include/c++/5/ext/alloc_traits.h ****     typedef typename _Alloc::const_pointer          const_pointer;
 174:/usr/include/c++/5/ext/alloc_traits.h ****     typedef typename _Alloc::value_type             value_type;
 175:/usr/include/c++/5/ext/alloc_traits.h ****     typedef typename _Alloc::reference              reference;
 176:/usr/include/c++/5/ext/alloc_traits.h ****     typedef typename _Alloc::const_reference        const_reference;
 177:/usr/include/c++/5/ext/alloc_traits.h ****     typedef typename _Alloc::size_type              size_type;
 178:/usr/include/c++/5/ext/alloc_traits.h ****     typedef typename _Alloc::difference_type        difference_type;
 179:/usr/include/c++/5/ext/alloc_traits.h **** 
 180:/usr/include/c++/5/ext/alloc_traits.h ****     static pointer
 181:/usr/include/c++/5/ext/alloc_traits.h ****     allocate(_Alloc& __a, size_type __n)
 182:/usr/include/c++/5/ext/alloc_traits.h ****     { return __a.allocate(__n); }
 183:/usr/include/c++/5/ext/alloc_traits.h **** 
 184:/usr/include/c++/5/ext/alloc_traits.h ****     static void deallocate(_Alloc& __a, pointer __p, size_type __n)
 185:/usr/include/c++/5/ext/alloc_traits.h ****     { __a.deallocate(__p, __n); }
 186:/usr/include/c++/5/ext/alloc_traits.h **** 
 187:/usr/include/c++/5/ext/alloc_traits.h ****     template<typename _Tp>
 188:/usr/include/c++/5/ext/alloc_traits.h ****       static void construct(_Alloc& __a, pointer __p, const _Tp& __arg)
 1011              		.loc 7 188 0
 1012              		.cfi_startproc
 1013 0000 55       		pushq	%rbp
 1014              		.cfi_def_cfa_offset 16
 1015              		.cfi_offset 6, -16
 1016 0001 4889E5   		movq	%rsp, %rbp
 1017              		.cfi_def_cfa_register 6
 1018 0004 4883EC20 		subq	$32, %rsp
 1019 0008 48897DF8 		movq	%rdi, -8(%rbp)
 1020 000c 488975F0 		movq	%rsi, -16(%rbp)
 1021 0010 488955E8 		movq	%rdx, -24(%rbp)
 189:/usr/include/c++/5/ext/alloc_traits.h ****       { __a.construct(__p, __arg); }
 1022              		.loc 7 189 0
 1023 0014 488B55E8 		movq	-24(%rbp), %rdx
 1024 0018 488B4DF0 		movq	-16(%rbp), %rcx
 1025 001c 488B45F8 		movq	-8(%rbp), %rax
 1026 0020 4889CE   		movq	%rcx, %rsi
 1027 0023 4889C7   		movq	%rax, %rdi
 1028 0026 E8000000 		call	_ZN9__gnu_cxx13new_allocatorIN8UnitTest18DeferredTestResultEE9constructEPS2_RKS2_@PLT
 1028      00
 1029 002b 90       		nop
 1030 002c C9       		leave
 1031              		.cfi_def_cfa 7, 8
 1032 002d C3       		ret
 1033              		.cfi_endproc
 1034              	.LFE913:
 1036              		.section	.text._ZN8UnitTest18DeferredTestResultC2ERKS0_,"axG",@progbits,_ZN8UnitTest18DeferredTest
 1037              		.align 2
 1038              		.weak	_ZN8UnitTest18DeferredTestResultC2ERKS0_
 1040              	_ZN8UnitTest18DeferredTestResultC2ERKS0_:
 1041              	.LFB916:
 1042              		.loc 2 10 0
 1043              		.cfi_startproc
 1044              		.cfi_personality 0x9b,DW.ref.__gxx_personality_v0
 1045              		.cfi_lsda 0x1b,.LLSDA916
 1046 0000 55       		pushq	%rbp
 1047              		.cfi_def_cfa_offset 16
 1048              		.cfi_offset 6, -16
 1049 0001 4889E5   		movq	%rsp, %rbp
 1050              		.cfi_def_cfa_register 6
 1051 0004 53       		pushq	%rbx
 1052 0005 4883EC18 		subq	$24, %rsp
 1053              		.cfi_offset 3, -24
 1054 0009 48897DE8 		movq	%rdi, -24(%rbp)
 1055 000d 488975E0 		movq	%rsi, -32(%rbp)
 1056              	.LBB11:
 1057              		.loc 2 10 0
 1058 0011 488B55E0 		movq	-32(%rbp), %rdx
 1059 0015 488B45E8 		movq	-24(%rbp), %rax
 1060 0019 4889D6   		movq	%rdx, %rsi
 1061 001c 4889C7   		movq	%rax, %rdi
 1062              	.LEHB22:
 1063 001f E8000000 		call	_ZNSt7__cxx1112basic_stringIcSt11char_traitsIcESaIcEEC1ERKS4_@PLT
 1063      00
 1064              	.LEHE22:
 1065 0024 488B45E0 		movq	-32(%rbp), %rax
 1066 0028 488D5020 		leaq	32(%rax), %rdx
 1067 002c 488B45E8 		movq	-24(%rbp), %rax
 1068 0030 4883C020 		addq	$32, %rax
 1069 0034 4889D6   		movq	%rdx, %rsi
 1070 0037 4889C7   		movq	%rax, %rdi
 1071              	.LEHB23:
 1072 003a E8000000 		call	_ZNSt7__cxx1112basic_stringIcSt11char_traitsIcESaIcEEC1ERKS4_@PLT
 1072      00
 1073              	.LEHE23:
 1074              		.loc 2 10 0 is_stmt 0 discriminator 2
 1075 003f 488B45E0 		movq	-32(%rbp), %rax
 1076 0043 488D5040 		leaq	64(%rax), %rdx
 1077 0047 488B45E8 		movq	-24(%rbp), %rax
 1078 004b 4883C040 		addq	$64, %rax
 1079 004f 4889D6   		movq	%rdx, %rsi
 1080 0052 4889C7   		movq	%rax, %rdi
 1081              	.LEHB24:
 1082 0055 E8000000 		call	_ZNSt7__cxx1112basic_stringIcSt11char_traitsIcESaIcEEC1ERKS4_@PLT
 1082      00
 1083              	.LEHE24:
 1084              		.loc 2 10 0 discriminator 4
 1085 005a 488B45E0 		movq	-32(%rbp), %rax
 1086 005e 488D5060 		leaq	96(%rax), %rdx
 1087 0062 488B45E8 		movq	-24(%rbp), %rax
 1088 0066 4883C060 		addq	$96, %rax
 1089 006a 4889D6   		movq	%rdx, %rsi
 1090 006d 4889C7   		movq	%rax, %rdi
 1091              	.LEHB25:
 1092 0070 E8000000 		call	_ZNSt6vectorISt4pairIiNSt7__cxx1112basic_stringIcSt11char_traitsIcESaIcEEEESaIS7_EEC1ERKS9_@P
 1092      00
 1093              	.LEHE25:
 1094              		.loc 2 10 0 discriminator 6
 1095 0075 488B45E0 		movq	-32(%rbp), %rax
 1096 0079 F30F1040 		movss	120(%rax), %xmm0
 1096      78
 1097 007e 488B45E8 		movq	-24(%rbp), %rax
 1098 0082 F30F1140 		movss	%xmm0, 120(%rax)
 1098      78
 1099 0087 488B45E0 		movq	-32(%rbp), %rax
 1100 008b 0FB6507C 		movzbl	124(%rax), %edx
 1101 008f 488B45E8 		movq	-24(%rbp), %rax
 1102 0093 88507C   		movb	%dl, 124(%rax)
 1103              	.LBE11:
 1104 0096 EB44     		jmp	.L62
 1105              	.L61:
 1106 0098 4889C3   		movq	%rax, %rbx
 1107              	.LBB12:
 1108              		.loc 2 10 0
 1109 009b 488B45E8 		movq	-24(%rbp), %rax
 1110 009f 4883C040 		addq	$64, %rax
 1111 00a3 4889C7   		movq	%rax, %rdi
 1112 00a6 E8000000 		call	_ZNSt7__cxx1112basic_stringIcSt11char_traitsIcESaIcEED1Ev@PLT
 1112      00
 1113 00ab EB03     		jmp	.L57
 1114              	.L60:
 1115 00ad 4889C3   		movq	%rax, %rbx
 1116              	.L57:
 1117              		.loc 2 10 0 discriminator 3
 1118 00b0 488B45E8 		movq	-24(%rbp), %rax
 1119 00b4 4883C020 		addq	$32, %rax
 1120 00b8 4889C7   		movq	%rax, %rdi
 1121 00bb E8000000 		call	_ZNSt7__cxx1112basic_stringIcSt11char_traitsIcESaIcEED1Ev@PLT
 1121      00
 1122 00c0 EB03     		jmp	.L58
 1123              	.L59:
 1124 00c2 4889C3   		movq	%rax, %rbx
 1125              	.L58:
 1126              		.loc 2 10 0 discriminator 1
 1127 00c5 488B45E8 		movq	-24(%rbp), %rax
 1128 00c9 4889C7   		movq	%rax, %rdi
 1129 00cc E8000000 		call	_ZNSt7__cxx1112basic_stringIcSt11char_traitsIcESaIcEED1Ev@PLT
 1129      00
 1130 00d1 4889D8   		movq	%rbx, %rax
 1131 00d4 4889C7   		movq	%rax, %rdi
 1132              	.LEHB26:
 1133 00d7 E8000000 		call	_Unwind_Resume@PLT
 1133      00
 1134              	.LEHE26:
 1135              	.L62:
 1136              	.LBE12:
 1137              		.loc 2 10 0
 1138 00dc 4883C418 		addq	$24, %rsp
 1139 00e0 5B       		popq	%rbx
 1140 00e1 5D       		popq	%rbp
 1141              		.cfi_def_cfa 7, 8
 1142 00e2 C3       		ret
 1143              		.cfi_endproc
 1144              	.LFE916:
 1145              		.section	.gcc_except_table
 1146              	.LLSDA916:
 1147 0061 FF       		.byte	0xff
 1148 0062 FF       		.byte	0xff
 1149 0063 01       		.byte	0x1
 1150 0064 18       		.uleb128 .LLSDACSE916-.LLSDACSB916
 1151              	.LLSDACSB916:
 1152 0065 1F       		.uleb128 .LEHB22-.LFB916
 1153 0066 05       		.uleb128 .LEHE22-.LEHB22
 1154 0067 00       		.uleb128 0
 1155 0068 00       		.uleb128 0
 1156 0069 3A       		.uleb128 .LEHB23-.LFB916
 1157 006a 05       		.uleb128 .LEHE23-.LEHB23
 1158 006b C201     		.uleb128 .L59-.LFB916
 1159 006d 00       		.uleb128 0
 1160 006e 55       		.uleb128 .LEHB24-.LFB916
 1161 006f 05       		.uleb128 .LEHE24-.LEHB24
 1162 0070 AD01     		.uleb128 .L60-.LFB916
 1163 0072 00       		.uleb128 0
 1164 0073 70       		.uleb128 .LEHB25-.LFB916
 1165 0074 05       		.uleb128 .LEHE25-.LEHB25
 1166 0075 9801     		.uleb128 .L61-.LFB916
 1167 0077 00       		.uleb128 0
 1168 0078 D701     		.uleb128 .LEHB26-.LFB916
 1169 007a 05       		.uleb128 .LEHE26-.LEHB26
 1170 007b 00       		.uleb128 0
 1171 007c 00       		.uleb128 0
 1172              	.LLSDACSE916:
 1173              		.section	.text._ZN8UnitTest18DeferredTestResultC2ERKS0_,"axG",@progbits,_ZN8UnitTest18DeferredTest
 1175              		.weak	_ZN8UnitTest18DeferredTestResultC1ERKS0_
 1176              		.set	_ZN8UnitTest18DeferredTestResultC1ERKS0_,_ZN8UnitTest18DeferredTestResultC2ERKS0_
 1177              		.section	.text._ZN8UnitTest18DeferredTestResultaSERKS0_,"axG",@progbits,_ZN8UnitTest18DeferredTest
 1178              		.align 2
 1179              		.weak	_ZN8UnitTest18DeferredTestResultaSERKS0_
 1181              	_ZN8UnitTest18DeferredTestResultaSERKS0_:
 1182              	.LFB918:
 1183              		.loc 2 10 0 is_stmt 1
 1184              		.cfi_startproc
 1185 0000 55       		pushq	%rbp
 1186              		.cfi_def_cfa_offset 16
 1187              		.cfi_offset 6, -16
 1188 0001 4889E5   		movq	%rsp, %rbp
 1189              		.cfi_def_cfa_register 6
 1190 0004 4883EC10 		subq	$16, %rsp
 1191 0008 48897DF8 		movq	%rdi, -8(%rbp)
 1192 000c 488975F0 		movq	%rsi, -16(%rbp)
 1193              		.loc 2 10 0
 1194 0010 488B55F0 		movq	-16(%rbp), %rdx
 1195 0014 488B45F8 		movq	-8(%rbp), %rax
 1196 0018 4889D6   		movq	%rdx, %rsi
 1197 001b 4889C7   		movq	%rax, %rdi
 1198 001e E8000000 		call	_ZNSt7__cxx1112basic_stringIcSt11char_traitsIcESaIcEEaSERKS4_@PLT
 1198      00
 1199 0023 488B45F0 		movq	-16(%rbp), %rax
 1200 0027 488D5020 		leaq	32(%rax), %rdx
 1201 002b 488B45F8 		movq	-8(%rbp), %rax
 1202 002f 4883C020 		addq	$32, %rax
 1203 0033 4889D6   		movq	%rdx, %rsi
 1204 0036 4889C7   		movq	%rax, %rdi
 1205 0039 E8000000 		call	_ZNSt7__cxx1112basic_stringIcSt11char_traitsIcESaIcEEaSERKS4_@PLT
 1205      00
 1206 003e 488B45F0 		movq	-16(%rbp), %rax
 1207 0042 488D5040 		leaq	64(%rax), %rdx
 1208 0046 488B45F8 		movq	-8(%rbp), %rax
 1209 004a 4883C040 		addq	$64, %rax
 1210 004e 4889D6   		movq	%rdx, %rsi
 1211 0051 4889C7   		movq	%rax, %rdi
 1212 0054 E8000000 		call	_ZNSt7__cxx1112basic_stringIcSt11char_traitsIcESaIcEEaSERKS4_@PLT
 1212      00
 1213 0059 488B45F0 		movq	-16(%rbp), %rax
 1214 005d 488D5060 		leaq	96(%rax), %rdx
 1215 0061 488B45F8 		movq	-8(%rbp), %rax
 1216 0065 4883C060 		addq	$96, %rax
 1217 0069 4889D6   		movq	%rdx, %rsi
 1218 006c 4889C7   		movq	%rax, %rdi
 1219 006f E8000000 		call	_ZNSt6vectorISt4pairIiNSt7__cxx1112basic_stringIcSt11char_traitsIcESaIcEEEESaIS7_EEaSERKS9_@P
 1219      00
 1220 0074 488B45F0 		movq	-16(%rbp), %rax
 1221 0078 F30F1040 		movss	120(%rax), %xmm0
 1221      78
 1222 007d 488B45F8 		movq	-8(%rbp), %rax
 1223 0081 F30F1140 		movss	%xmm0, 120(%rax)
 1223      78
 1224 0086 488B45F0 		movq	-16(%rbp), %rax
 1225 008a 0FB6507C 		movzbl	124(%rax), %edx
 1226 008e 488B45F8 		movq	-8(%rbp), %rax
 1227 0092 88507C   		movb	%dl, 124(%rax)
 1228 0095 488B45F8 		movq	-8(%rbp), %rax
 1229 0099 C9       		leave
 1230              		.cfi_def_cfa 7, 8
 1231 009a C3       		ret
 1232              		.cfi_endproc
 1233              	.LFE918:
 1235              		.section	.rodata
 1236              	.LC0:
 1237 0000 76656374 		.string	"vector::_M_insert_aux"
 1237      6F723A3A 
 1237      5F4D5F69 
 1237      6E736572 
 1237      745F6175 
 1238              		.section	.text._ZNSt6vectorIN8UnitTest18DeferredTestResultESaIS1_EE13_M_insert_auxEN9__gnu_cxx17__
 1239              		.align 2
 1240              		.weak	_ZNSt6vectorIN8UnitTest18DeferredTestResultESaIS1_EE13_M_insert_auxEN9__gnu_cxx17__normal_it
 1242              	_ZNSt6vectorIN8UnitTest18DeferredTestResultESaIS1_EE13_M_insert_auxEN9__gnu_cxx17__normal_iteratorI
 1243              	.LFB914:
 1244              		.file 8 "/usr/include/c++/5/bits/vector.tcc"
   1:/usr/include/c++/5/bits/vector.tcc **** // Vector implementation (out of line) -*- C++ -*-
   2:/usr/include/c++/5/bits/vector.tcc **** 
   3:/usr/include/c++/5/bits/vector.tcc **** // Copyright (C) 2001-2015 Free Software Foundation, Inc.
   4:/usr/include/c++/5/bits/vector.tcc **** //
   5:/usr/include/c++/5/bits/vector.tcc **** // This file is part of the GNU ISO C++ Library.  This library is free
   6:/usr/include/c++/5/bits/vector.tcc **** // software; you can redistribute it and/or modify it under the
   7:/usr/include/c++/5/bits/vector.tcc **** // terms of the GNU General Public License as published by the
   8:/usr/include/c++/5/bits/vector.tcc **** // Free Software Foundation; either version 3, or (at your option)
   9:/usr/include/c++/5/bits/vector.tcc **** // any later version.
  10:/usr/include/c++/5/bits/vector.tcc **** 
  11:/usr/include/c++/5/bits/vector.tcc **** // This library is distributed in the hope that it will be useful,
  12:/usr/include/c++/5/bits/vector.tcc **** // but WITHOUT ANY WARRANTY; without even the implied warranty of
  13:/usr/include/c++/5/bits/vector.tcc **** // MERCHANTABILITY or FITNESS FOR A PARTICULAR PURPOSE.  See the
  14:/usr/include/c++/5/bits/vector.tcc **** // GNU General Public License for more details.
  15:/usr/include/c++/5/bits/vector.tcc **** 
  16:/usr/include/c++/5/bits/vector.tcc **** // Under Section 7 of GPL version 3, you are granted additional
  17:/usr/include/c++/5/bits/vector.tcc **** // permissions described in the GCC Runtime Library Exception, version
  18:/usr/include/c++/5/bits/vector.tcc **** // 3.1, as published by the Free Software Foundation.
  19:/usr/include/c++/5/bits/vector.tcc **** 
  20:/usr/include/c++/5/bits/vector.tcc **** // You should have received a copy of the GNU General Public License and
  21:/usr/include/c++/5/bits/vector.tcc **** // a copy of the GCC Runtime Library Exception along with this program;
  22:/usr/include/c++/5/bits/vector.tcc **** // see the files COPYING3 and COPYING.RUNTIME respectively.  If not, see
  23:/usr/include/c++/5/bits/vector.tcc **** // <http://www.gnu.org/licenses/>.
  24:/usr/include/c++/5/bits/vector.tcc **** 
  25:/usr/include/c++/5/bits/vector.tcc **** /*
  26:/usr/include/c++/5/bits/vector.tcc ****  *
  27:/usr/include/c++/5/bits/vector.tcc ****  * Copyright (c) 1994
  28:/usr/include/c++/5/bits/vector.tcc ****  * Hewlett-Packard Company
  29:/usr/include/c++/5/bits/vector.tcc ****  *
  30:/usr/include/c++/5/bits/vector.tcc ****  * Permission to use, copy, modify, distribute and sell this software
  31:/usr/include/c++/5/bits/vector.tcc ****  * and its documentation for any purpose is hereby granted without fee,
  32:/usr/include/c++/5/bits/vector.tcc ****  * provided that the above copyright notice appear in all copies and
  33:/usr/include/c++/5/bits/vector.tcc ****  * that both that copyright notice and this permission notice appear
  34:/usr/include/c++/5/bits/vector.tcc ****  * in supporting documentation.  Hewlett-Packard Company makes no
  35:/usr/include/c++/5/bits/vector.tcc ****  * representations about the suitability of this software for any
  36:/usr/include/c++/5/bits/vector.tcc ****  * purpose.  It is provided "as is" without express or implied warranty.
  37:/usr/include/c++/5/bits/vector.tcc ****  *
  38:/usr/include/c++/5/bits/vector.tcc ****  *
  39:/usr/include/c++/5/bits/vector.tcc ****  * Copyright (c) 1996
  40:/usr/include/c++/5/bits/vector.tcc ****  * Silicon Graphics Computer Systems, Inc.
  41:/usr/include/c++/5/bits/vector.tcc ****  *
  42:/usr/include/c++/5/bits/vector.tcc ****  * Permission to use, copy, modify, distribute and sell this software
  43:/usr/include/c++/5/bits/vector.tcc ****  * and its documentation for any purpose is hereby granted without fee,
  44:/usr/include/c++/5/bits/vector.tcc ****  * provided that the above copyright notice appear in all copies and
  45:/usr/include/c++/5/bits/vector.tcc ****  * that both that copyright notice and this permission notice appear
  46:/usr/include/c++/5/bits/vector.tcc ****  * in supporting documentation.  Silicon Graphics makes no
  47:/usr/include/c++/5/bits/vector.tcc ****  * representations about the suitability of this  software for any
  48:/usr/include/c++/5/bits/vector.tcc ****  * purpose.  It is provided "as is" without express or implied warranty.
  49:/usr/include/c++/5/bits/vector.tcc ****  */
  50:/usr/include/c++/5/bits/vector.tcc **** 
  51:/usr/include/c++/5/bits/vector.tcc **** /** @file bits/vector.tcc
  52:/usr/include/c++/5/bits/vector.tcc ****  *  This is an internal header file, included by other library headers.
  53:/usr/include/c++/5/bits/vector.tcc ****  *  Do not attempt to use it directly. @headername{vector}
  54:/usr/include/c++/5/bits/vector.tcc ****  */
  55:/usr/include/c++/5/bits/vector.tcc **** 
  56:/usr/include/c++/5/bits/vector.tcc **** #ifndef _VECTOR_TCC
  57:/usr/include/c++/5/bits/vector.tcc **** #define _VECTOR_TCC 1
  58:/usr/include/c++/5/bits/vector.tcc **** 
  59:/usr/include/c++/5/bits/vector.tcc **** namespace std _GLIBCXX_VISIBILITY(default)
  60:/usr/include/c++/5/bits/vector.tcc **** {
  61:/usr/include/c++/5/bits/vector.tcc **** _GLIBCXX_BEGIN_NAMESPACE_CONTAINER
  62:/usr/include/c++/5/bits/vector.tcc **** 
  63:/usr/include/c++/5/bits/vector.tcc ****   template<typename _Tp, typename _Alloc>
  64:/usr/include/c++/5/bits/vector.tcc ****     void
  65:/usr/include/c++/5/bits/vector.tcc ****     vector<_Tp, _Alloc>::
  66:/usr/include/c++/5/bits/vector.tcc ****     reserve(size_type __n)
  67:/usr/include/c++/5/bits/vector.tcc ****     {
  68:/usr/include/c++/5/bits/vector.tcc ****       if (__n > this->max_size())
  69:/usr/include/c++/5/bits/vector.tcc **** 	__throw_length_error(__N("vector::reserve"));
  70:/usr/include/c++/5/bits/vector.tcc ****       if (this->capacity() < __n)
  71:/usr/include/c++/5/bits/vector.tcc **** 	{
  72:/usr/include/c++/5/bits/vector.tcc **** 	  const size_type __old_size = size();
  73:/usr/include/c++/5/bits/vector.tcc **** 	  pointer __tmp = _M_allocate_and_copy(__n,
  74:/usr/include/c++/5/bits/vector.tcc **** 	    _GLIBCXX_MAKE_MOVE_IF_NOEXCEPT_ITERATOR(this->_M_impl._M_start),
  75:/usr/include/c++/5/bits/vector.tcc **** 	    _GLIBCXX_MAKE_MOVE_IF_NOEXCEPT_ITERATOR(this->_M_impl._M_finish));
  76:/usr/include/c++/5/bits/vector.tcc **** 	  std::_Destroy(this->_M_impl._M_start, this->_M_impl._M_finish,
  77:/usr/include/c++/5/bits/vector.tcc **** 			_M_get_Tp_allocator());
  78:/usr/include/c++/5/bits/vector.tcc **** 	  _M_deallocate(this->_M_impl._M_start,
  79:/usr/include/c++/5/bits/vector.tcc **** 			this->_M_impl._M_end_of_storage
  80:/usr/include/c++/5/bits/vector.tcc **** 			- this->_M_impl._M_start);
  81:/usr/include/c++/5/bits/vector.tcc **** 	  this->_M_impl._M_start = __tmp;
  82:/usr/include/c++/5/bits/vector.tcc **** 	  this->_M_impl._M_finish = __tmp + __old_size;
  83:/usr/include/c++/5/bits/vector.tcc **** 	  this->_M_impl._M_end_of_storage = this->_M_impl._M_start + __n;
  84:/usr/include/c++/5/bits/vector.tcc **** 	}
  85:/usr/include/c++/5/bits/vector.tcc ****     }
  86:/usr/include/c++/5/bits/vector.tcc **** 
  87:/usr/include/c++/5/bits/vector.tcc **** #if __cplusplus >= 201103L
  88:/usr/include/c++/5/bits/vector.tcc ****   template<typename _Tp, typename _Alloc>
  89:/usr/include/c++/5/bits/vector.tcc ****     template<typename... _Args>
  90:/usr/include/c++/5/bits/vector.tcc ****       void
  91:/usr/include/c++/5/bits/vector.tcc ****       vector<_Tp, _Alloc>::
  92:/usr/include/c++/5/bits/vector.tcc ****       emplace_back(_Args&&... __args)
  93:/usr/include/c++/5/bits/vector.tcc ****       {
  94:/usr/include/c++/5/bits/vector.tcc **** 	if (this->_M_impl._M_finish != this->_M_impl._M_end_of_storage)
  95:/usr/include/c++/5/bits/vector.tcc **** 	  {
  96:/usr/include/c++/5/bits/vector.tcc **** 	    _Alloc_traits::construct(this->_M_impl, this->_M_impl._M_finish,
  97:/usr/include/c++/5/bits/vector.tcc **** 				     std::forward<_Args>(__args)...);
  98:/usr/include/c++/5/bits/vector.tcc **** 	    ++this->_M_impl._M_finish;
  99:/usr/include/c++/5/bits/vector.tcc **** 	  }
 100:/usr/include/c++/5/bits/vector.tcc **** 	else
 101:/usr/include/c++/5/bits/vector.tcc **** 	  _M_emplace_back_aux(std::forward<_Args>(__args)...);
 102:/usr/include/c++/5/bits/vector.tcc ****       }
 103:/usr/include/c++/5/bits/vector.tcc **** #endif
 104:/usr/include/c++/5/bits/vector.tcc **** 
 105:/usr/include/c++/5/bits/vector.tcc ****   template<typename _Tp, typename _Alloc>
 106:/usr/include/c++/5/bits/vector.tcc ****     typename vector<_Tp, _Alloc>::iterator
 107:/usr/include/c++/5/bits/vector.tcc ****     vector<_Tp, _Alloc>::
 108:/usr/include/c++/5/bits/vector.tcc **** #if __cplusplus >= 201103L
 109:/usr/include/c++/5/bits/vector.tcc ****     insert(const_iterator __position, const value_type& __x)
 110:/usr/include/c++/5/bits/vector.tcc **** #else
 111:/usr/include/c++/5/bits/vector.tcc ****     insert(iterator __position, const value_type& __x)
 112:/usr/include/c++/5/bits/vector.tcc **** #endif
 113:/usr/include/c++/5/bits/vector.tcc ****     {
 114:/usr/include/c++/5/bits/vector.tcc ****       const size_type __n = __position - begin();
 115:/usr/include/c++/5/bits/vector.tcc ****       if (this->_M_impl._M_finish != this->_M_impl._M_end_of_storage
 116:/usr/include/c++/5/bits/vector.tcc **** 	  && __position == end())
 117:/usr/include/c++/5/bits/vector.tcc **** 	{
 118:/usr/include/c++/5/bits/vector.tcc **** 	  _Alloc_traits::construct(this->_M_impl, this->_M_impl._M_finish, __x);
 119:/usr/include/c++/5/bits/vector.tcc **** 	  ++this->_M_impl._M_finish;
 120:/usr/include/c++/5/bits/vector.tcc **** 	}
 121:/usr/include/c++/5/bits/vector.tcc ****       else
 122:/usr/include/c++/5/bits/vector.tcc **** 	{
 123:/usr/include/c++/5/bits/vector.tcc **** #if __cplusplus >= 201103L
 124:/usr/include/c++/5/bits/vector.tcc **** 	  const auto __pos = begin() + (__position - cbegin());
 125:/usr/include/c++/5/bits/vector.tcc **** 	  if (this->_M_impl._M_finish != this->_M_impl._M_end_of_storage)
 126:/usr/include/c++/5/bits/vector.tcc **** 	    {
 127:/usr/include/c++/5/bits/vector.tcc **** 	      _Tp __x_copy = __x;
 128:/usr/include/c++/5/bits/vector.tcc **** 	      _M_insert_aux(__pos, std::move(__x_copy));
 129:/usr/include/c++/5/bits/vector.tcc **** 	    }
 130:/usr/include/c++/5/bits/vector.tcc **** 	  else
 131:/usr/include/c++/5/bits/vector.tcc **** 	    _M_insert_aux(__pos, __x);
 132:/usr/include/c++/5/bits/vector.tcc **** #else
 133:/usr/include/c++/5/bits/vector.tcc **** 	    _M_insert_aux(__position, __x);
 134:/usr/include/c++/5/bits/vector.tcc **** #endif
 135:/usr/include/c++/5/bits/vector.tcc **** 	}
 136:/usr/include/c++/5/bits/vector.tcc ****       return iterator(this->_M_impl._M_start + __n);
 137:/usr/include/c++/5/bits/vector.tcc ****     }
 138:/usr/include/c++/5/bits/vector.tcc **** 
 139:/usr/include/c++/5/bits/vector.tcc ****   template<typename _Tp, typename _Alloc>
 140:/usr/include/c++/5/bits/vector.tcc ****     typename vector<_Tp, _Alloc>::iterator
 141:/usr/include/c++/5/bits/vector.tcc ****     vector<_Tp, _Alloc>::
 142:/usr/include/c++/5/bits/vector.tcc ****     _M_erase(iterator __position)
 143:/usr/include/c++/5/bits/vector.tcc ****     {
 144:/usr/include/c++/5/bits/vector.tcc ****       if (__position + 1 != end())
 145:/usr/include/c++/5/bits/vector.tcc **** 	_GLIBCXX_MOVE3(__position + 1, end(), __position);
 146:/usr/include/c++/5/bits/vector.tcc ****       --this->_M_impl._M_finish;
 147:/usr/include/c++/5/bits/vector.tcc ****       _Alloc_traits::destroy(this->_M_impl, this->_M_impl._M_finish);
 148:/usr/include/c++/5/bits/vector.tcc ****       return __position;
 149:/usr/include/c++/5/bits/vector.tcc ****     }
 150:/usr/include/c++/5/bits/vector.tcc **** 
 151:/usr/include/c++/5/bits/vector.tcc ****   template<typename _Tp, typename _Alloc>
 152:/usr/include/c++/5/bits/vector.tcc ****     typename vector<_Tp, _Alloc>::iterator
 153:/usr/include/c++/5/bits/vector.tcc ****     vector<_Tp, _Alloc>::
 154:/usr/include/c++/5/bits/vector.tcc ****     _M_erase(iterator __first, iterator __last)
 155:/usr/include/c++/5/bits/vector.tcc ****     {
 156:/usr/include/c++/5/bits/vector.tcc ****       if (__first != __last)
 157:/usr/include/c++/5/bits/vector.tcc **** 	{
 158:/usr/include/c++/5/bits/vector.tcc **** 	  if (__last != end())
 159:/usr/include/c++/5/bits/vector.tcc **** 	    _GLIBCXX_MOVE3(__last, end(), __first);
 160:/usr/include/c++/5/bits/vector.tcc **** 	  _M_erase_at_end(__first.base() + (end() - __last));
 161:/usr/include/c++/5/bits/vector.tcc **** 	}
 162:/usr/include/c++/5/bits/vector.tcc ****       return __first;
 163:/usr/include/c++/5/bits/vector.tcc ****     }
 164:/usr/include/c++/5/bits/vector.tcc **** 
 165:/usr/include/c++/5/bits/vector.tcc ****   template<typename _Tp, typename _Alloc>
 166:/usr/include/c++/5/bits/vector.tcc ****     vector<_Tp, _Alloc>&
 167:/usr/include/c++/5/bits/vector.tcc ****     vector<_Tp, _Alloc>::
 168:/usr/include/c++/5/bits/vector.tcc ****     operator=(const vector<_Tp, _Alloc>& __x)
 169:/usr/include/c++/5/bits/vector.tcc ****     {
 170:/usr/include/c++/5/bits/vector.tcc ****       if (&__x != this)
 171:/usr/include/c++/5/bits/vector.tcc **** 	{
 172:/usr/include/c++/5/bits/vector.tcc **** #if __cplusplus >= 201103L
 173:/usr/include/c++/5/bits/vector.tcc **** 	  if (_Alloc_traits::_S_propagate_on_copy_assign())
 174:/usr/include/c++/5/bits/vector.tcc **** 	    {
 175:/usr/include/c++/5/bits/vector.tcc **** 	      if (!_Alloc_traits::_S_always_equal()
 176:/usr/include/c++/5/bits/vector.tcc **** 	          && _M_get_Tp_allocator() != __x._M_get_Tp_allocator())
 177:/usr/include/c++/5/bits/vector.tcc **** 	        {
 178:/usr/include/c++/5/bits/vector.tcc **** 		  // replacement allocator cannot free existing storage
 179:/usr/include/c++/5/bits/vector.tcc **** 		  this->clear();
 180:/usr/include/c++/5/bits/vector.tcc **** 		  _M_deallocate(this->_M_impl._M_start,
 181:/usr/include/c++/5/bits/vector.tcc **** 				this->_M_impl._M_end_of_storage
 182:/usr/include/c++/5/bits/vector.tcc **** 				- this->_M_impl._M_start);
 183:/usr/include/c++/5/bits/vector.tcc **** 		  this->_M_impl._M_start = nullptr;
 184:/usr/include/c++/5/bits/vector.tcc **** 		  this->_M_impl._M_finish = nullptr;
 185:/usr/include/c++/5/bits/vector.tcc **** 		  this->_M_impl._M_end_of_storage = nullptr;
 186:/usr/include/c++/5/bits/vector.tcc **** 		}
 187:/usr/include/c++/5/bits/vector.tcc **** 	      std::__alloc_on_copy(_M_get_Tp_allocator(),
 188:/usr/include/c++/5/bits/vector.tcc **** 				   __x._M_get_Tp_allocator());
 189:/usr/include/c++/5/bits/vector.tcc **** 	    }
 190:/usr/include/c++/5/bits/vector.tcc **** #endif
 191:/usr/include/c++/5/bits/vector.tcc **** 	  const size_type __xlen = __x.size();
 192:/usr/include/c++/5/bits/vector.tcc **** 	  if (__xlen > capacity())
 193:/usr/include/c++/5/bits/vector.tcc **** 	    {
 194:/usr/include/c++/5/bits/vector.tcc **** 	      pointer __tmp = _M_allocate_and_copy(__xlen, __x.begin(),
 195:/usr/include/c++/5/bits/vector.tcc **** 						   __x.end());
 196:/usr/include/c++/5/bits/vector.tcc **** 	      std::_Destroy(this->_M_impl._M_start, this->_M_impl._M_finish,
 197:/usr/include/c++/5/bits/vector.tcc **** 			    _M_get_Tp_allocator());
 198:/usr/include/c++/5/bits/vector.tcc **** 	      _M_deallocate(this->_M_impl._M_start,
 199:/usr/include/c++/5/bits/vector.tcc **** 			    this->_M_impl._M_end_of_storage
 200:/usr/include/c++/5/bits/vector.tcc **** 			    - this->_M_impl._M_start);
 201:/usr/include/c++/5/bits/vector.tcc **** 	      this->_M_impl._M_start = __tmp;
 202:/usr/include/c++/5/bits/vector.tcc **** 	      this->_M_impl._M_end_of_storage = this->_M_impl._M_start + __xlen;
 203:/usr/include/c++/5/bits/vector.tcc **** 	    }
 204:/usr/include/c++/5/bits/vector.tcc **** 	  else if (size() >= __xlen)
 205:/usr/include/c++/5/bits/vector.tcc **** 	    {
 206:/usr/include/c++/5/bits/vector.tcc **** 	      std::_Destroy(std::copy(__x.begin(), __x.end(), begin()),
 207:/usr/include/c++/5/bits/vector.tcc **** 			    end(), _M_get_Tp_allocator());
 208:/usr/include/c++/5/bits/vector.tcc **** 	    }
 209:/usr/include/c++/5/bits/vector.tcc **** 	  else
 210:/usr/include/c++/5/bits/vector.tcc **** 	    {
 211:/usr/include/c++/5/bits/vector.tcc **** 	      std::copy(__x._M_impl._M_start, __x._M_impl._M_start + size(),
 212:/usr/include/c++/5/bits/vector.tcc **** 			this->_M_impl._M_start);
 213:/usr/include/c++/5/bits/vector.tcc **** 	      std::__uninitialized_copy_a(__x._M_impl._M_start + size(),
 214:/usr/include/c++/5/bits/vector.tcc **** 					  __x._M_impl._M_finish,
 215:/usr/include/c++/5/bits/vector.tcc **** 					  this->_M_impl._M_finish,
 216:/usr/include/c++/5/bits/vector.tcc **** 					  _M_get_Tp_allocator());
 217:/usr/include/c++/5/bits/vector.tcc **** 	    }
 218:/usr/include/c++/5/bits/vector.tcc **** 	  this->_M_impl._M_finish = this->_M_impl._M_start + __xlen;
 219:/usr/include/c++/5/bits/vector.tcc **** 	}
 220:/usr/include/c++/5/bits/vector.tcc ****       return *this;
 221:/usr/include/c++/5/bits/vector.tcc ****     }
 222:/usr/include/c++/5/bits/vector.tcc **** 
 223:/usr/include/c++/5/bits/vector.tcc ****   template<typename _Tp, typename _Alloc>
 224:/usr/include/c++/5/bits/vector.tcc ****     void
 225:/usr/include/c++/5/bits/vector.tcc ****     vector<_Tp, _Alloc>::
 226:/usr/include/c++/5/bits/vector.tcc ****     _M_fill_assign(size_t __n, const value_type& __val)
 227:/usr/include/c++/5/bits/vector.tcc ****     {
 228:/usr/include/c++/5/bits/vector.tcc ****       if (__n > capacity())
 229:/usr/include/c++/5/bits/vector.tcc **** 	{
 230:/usr/include/c++/5/bits/vector.tcc **** 	  vector __tmp(__n, __val, _M_get_Tp_allocator());
 231:/usr/include/c++/5/bits/vector.tcc **** 	  __tmp._M_impl._M_swap_data(this->_M_impl);
 232:/usr/include/c++/5/bits/vector.tcc **** 	}
 233:/usr/include/c++/5/bits/vector.tcc ****       else if (__n > size())
 234:/usr/include/c++/5/bits/vector.tcc **** 	{
 235:/usr/include/c++/5/bits/vector.tcc **** 	  std::fill(begin(), end(), __val);
 236:/usr/include/c++/5/bits/vector.tcc **** 	  this->_M_impl._M_finish =
 237:/usr/include/c++/5/bits/vector.tcc **** 	    std::__uninitialized_fill_n_a(this->_M_impl._M_finish,
 238:/usr/include/c++/5/bits/vector.tcc **** 					  __n - size(), __val,
 239:/usr/include/c++/5/bits/vector.tcc **** 					  _M_get_Tp_allocator());
 240:/usr/include/c++/5/bits/vector.tcc **** 	}
 241:/usr/include/c++/5/bits/vector.tcc ****       else
 242:/usr/include/c++/5/bits/vector.tcc ****         _M_erase_at_end(std::fill_n(this->_M_impl._M_start, __n, __val));
 243:/usr/include/c++/5/bits/vector.tcc ****     }
 244:/usr/include/c++/5/bits/vector.tcc **** 
 245:/usr/include/c++/5/bits/vector.tcc ****   template<typename _Tp, typename _Alloc>
 246:/usr/include/c++/5/bits/vector.tcc ****     template<typename _InputIterator>
 247:/usr/include/c++/5/bits/vector.tcc ****       void
 248:/usr/include/c++/5/bits/vector.tcc ****       vector<_Tp, _Alloc>::
 249:/usr/include/c++/5/bits/vector.tcc ****       _M_assign_aux(_InputIterator __first, _InputIterator __last,
 250:/usr/include/c++/5/bits/vector.tcc **** 		    std::input_iterator_tag)
 251:/usr/include/c++/5/bits/vector.tcc ****       {
 252:/usr/include/c++/5/bits/vector.tcc **** 	pointer __cur(this->_M_impl._M_start);
 253:/usr/include/c++/5/bits/vector.tcc **** 	for (; __first != __last && __cur != this->_M_impl._M_finish;
 254:/usr/include/c++/5/bits/vector.tcc **** 	     ++__cur, ++__first)
 255:/usr/include/c++/5/bits/vector.tcc **** 	  *__cur = *__first;
 256:/usr/include/c++/5/bits/vector.tcc **** 	if (__first == __last)
 257:/usr/include/c++/5/bits/vector.tcc **** 	  _M_erase_at_end(__cur);
 258:/usr/include/c++/5/bits/vector.tcc **** 	else
 259:/usr/include/c++/5/bits/vector.tcc **** 	  insert(end(), __first, __last);
 260:/usr/include/c++/5/bits/vector.tcc ****       }
 261:/usr/include/c++/5/bits/vector.tcc **** 
 262:/usr/include/c++/5/bits/vector.tcc ****   template<typename _Tp, typename _Alloc>
 263:/usr/include/c++/5/bits/vector.tcc ****     template<typename _ForwardIterator>
 264:/usr/include/c++/5/bits/vector.tcc ****       void
 265:/usr/include/c++/5/bits/vector.tcc ****       vector<_Tp, _Alloc>::
 266:/usr/include/c++/5/bits/vector.tcc ****       _M_assign_aux(_ForwardIterator __first, _ForwardIterator __last,
 267:/usr/include/c++/5/bits/vector.tcc **** 		    std::forward_iterator_tag)
 268:/usr/include/c++/5/bits/vector.tcc ****       {
 269:/usr/include/c++/5/bits/vector.tcc **** 	const size_type __len = std::distance(__first, __last);
 270:/usr/include/c++/5/bits/vector.tcc **** 
 271:/usr/include/c++/5/bits/vector.tcc **** 	if (__len > capacity())
 272:/usr/include/c++/5/bits/vector.tcc **** 	  {
 273:/usr/include/c++/5/bits/vector.tcc **** 	    pointer __tmp(_M_allocate_and_copy(__len, __first, __last));
 274:/usr/include/c++/5/bits/vector.tcc **** 	    std::_Destroy(this->_M_impl._M_start, this->_M_impl._M_finish,
 275:/usr/include/c++/5/bits/vector.tcc **** 			  _M_get_Tp_allocator());
 276:/usr/include/c++/5/bits/vector.tcc **** 	    _M_deallocate(this->_M_impl._M_start,
 277:/usr/include/c++/5/bits/vector.tcc **** 			  this->_M_impl._M_end_of_storage
 278:/usr/include/c++/5/bits/vector.tcc **** 			  - this->_M_impl._M_start);
 279:/usr/include/c++/5/bits/vector.tcc **** 	    this->_M_impl._M_start = __tmp;
 280:/usr/include/c++/5/bits/vector.tcc **** 	    this->_M_impl._M_finish = this->_M_impl._M_start + __len;
 281:/usr/include/c++/5/bits/vector.tcc **** 	    this->_M_impl._M_end_of_storage = this->_M_impl._M_finish;
 282:/usr/include/c++/5/bits/vector.tcc **** 	  }
 283:/usr/include/c++/5/bits/vector.tcc **** 	else if (size() >= __len)
 284:/usr/include/c++/5/bits/vector.tcc **** 	  _M_erase_at_end(std::copy(__first, __last, this->_M_impl._M_start));
 285:/usr/include/c++/5/bits/vector.tcc **** 	else
 286:/usr/include/c++/5/bits/vector.tcc **** 	  {
 287:/usr/include/c++/5/bits/vector.tcc **** 	    _ForwardIterator __mid = __first;
 288:/usr/include/c++/5/bits/vector.tcc **** 	    std::advance(__mid, size());
 289:/usr/include/c++/5/bits/vector.tcc **** 	    std::copy(__first, __mid, this->_M_impl._M_start);
 290:/usr/include/c++/5/bits/vector.tcc **** 	    this->_M_impl._M_finish =
 291:/usr/include/c++/5/bits/vector.tcc **** 	      std::__uninitialized_copy_a(__mid, __last,
 292:/usr/include/c++/5/bits/vector.tcc **** 					  this->_M_impl._M_finish,
 293:/usr/include/c++/5/bits/vector.tcc **** 					  _M_get_Tp_allocator());
 294:/usr/include/c++/5/bits/vector.tcc **** 	  }
 295:/usr/include/c++/5/bits/vector.tcc ****       }
 296:/usr/include/c++/5/bits/vector.tcc **** 
 297:/usr/include/c++/5/bits/vector.tcc **** #if __cplusplus >= 201103L
 298:/usr/include/c++/5/bits/vector.tcc ****   template<typename _Tp, typename _Alloc>
 299:/usr/include/c++/5/bits/vector.tcc ****     template<typename... _Args>
 300:/usr/include/c++/5/bits/vector.tcc ****       typename vector<_Tp, _Alloc>::iterator
 301:/usr/include/c++/5/bits/vector.tcc ****       vector<_Tp, _Alloc>::
 302:/usr/include/c++/5/bits/vector.tcc ****       emplace(const_iterator __position, _Args&&... __args)
 303:/usr/include/c++/5/bits/vector.tcc ****       {
 304:/usr/include/c++/5/bits/vector.tcc **** 	const size_type __n = __position - begin();
 305:/usr/include/c++/5/bits/vector.tcc **** 	if (this->_M_impl._M_finish != this->_M_impl._M_end_of_storage
 306:/usr/include/c++/5/bits/vector.tcc **** 	    && __position == end())
 307:/usr/include/c++/5/bits/vector.tcc **** 	  {
 308:/usr/include/c++/5/bits/vector.tcc **** 	    _Alloc_traits::construct(this->_M_impl, this->_M_impl._M_finish,
 309:/usr/include/c++/5/bits/vector.tcc **** 				     std::forward<_Args>(__args)...);
 310:/usr/include/c++/5/bits/vector.tcc **** 	    ++this->_M_impl._M_finish;
 311:/usr/include/c++/5/bits/vector.tcc **** 	  }
 312:/usr/include/c++/5/bits/vector.tcc **** 	else
 313:/usr/include/c++/5/bits/vector.tcc **** 	  _M_insert_aux(begin() + (__position - cbegin()),
 314:/usr/include/c++/5/bits/vector.tcc **** 			std::forward<_Args>(__args)...);
 315:/usr/include/c++/5/bits/vector.tcc **** 	return iterator(this->_M_impl._M_start + __n);
 316:/usr/include/c++/5/bits/vector.tcc ****       }
 317:/usr/include/c++/5/bits/vector.tcc **** 
 318:/usr/include/c++/5/bits/vector.tcc ****   template<typename _Tp, typename _Alloc>
 319:/usr/include/c++/5/bits/vector.tcc ****     template<typename... _Args>
 320:/usr/include/c++/5/bits/vector.tcc ****       void
 321:/usr/include/c++/5/bits/vector.tcc ****       vector<_Tp, _Alloc>::
 322:/usr/include/c++/5/bits/vector.tcc ****       _M_insert_aux(iterator __position, _Args&&... __args)
 323:/usr/include/c++/5/bits/vector.tcc **** #else
 324:/usr/include/c++/5/bits/vector.tcc ****   template<typename _Tp, typename _Alloc>
 325:/usr/include/c++/5/bits/vector.tcc ****     void
 326:/usr/include/c++/5/bits/vector.tcc ****     vector<_Tp, _Alloc>::
 1245              		.loc 8 326 0
 1246              		.cfi_startproc
 1247              		.cfi_personality 0x9b,DW.ref.__gxx_personality_v0
 1248              		.cfi_lsda 0x1b,.LLSDA914
 1249 0000 55       		pushq	%rbp
 1250              		.cfi_def_cfa_offset 16
 1251              		.cfi_offset 6, -16
 1252 0001 4889E5   		movq	%rsp, %rbp
 1253              		.cfi_def_cfa_register 6
 1254 0004 4154     		pushq	%r12
 1255 0006 53       		pushq	%rbx
 1256 0007 4881ECE0 		subq	$224, %rsp
 1256      000000
 1257              		.cfi_offset 12, -24
 1258              		.cfi_offset 3, -32
 1259 000e 4889BD28 		movq	%rdi, -216(%rbp)
 1259      FFFFFF
 1260 0015 4889B520 		movq	%rsi, -224(%rbp)
 1260      FFFFFF
 1261 001c 48899518 		movq	%rdx, -232(%rbp)
 1261      FFFFFF
 1262              		.loc 8 326 0
 1263 0023 64488B04 		movq	%fs:40, %rax
 1263      25280000 
 1263      00
 1264 002c 488945E8 		movq	%rax, -24(%rbp)
 1265 0030 31C0     		xorl	%eax, %eax
 1266              	.LBB13:
 327:/usr/include/c++/5/bits/vector.tcc ****     _M_insert_aux(iterator __position, const _Tp& __x)
 328:/usr/include/c++/5/bits/vector.tcc **** #endif
 329:/usr/include/c++/5/bits/vector.tcc ****     {
 330:/usr/include/c++/5/bits/vector.tcc ****       if (this->_M_impl._M_finish != this->_M_impl._M_end_of_storage)
 1267              		.loc 8 330 0
 1268 0032 488B8528 		movq	-216(%rbp), %rax
 1268      FFFFFF
 1269 0039 488B5008 		movq	8(%rax), %rdx
 1270 003d 488B8528 		movq	-216(%rbp), %rax
 1270      FFFFFF
 1271 0044 488B4010 		movq	16(%rax), %rax
 1272 0048 4839C2   		cmpq	%rax, %rdx
 1273 004b 0F84DB00 		je	.L66
 1273      0000
 1274              	.LBB14:
 331:/usr/include/c++/5/bits/vector.tcc **** 	{
 332:/usr/include/c++/5/bits/vector.tcc **** 	  _Alloc_traits::construct(this->_M_impl, this->_M_impl._M_finish,
 333:/usr/include/c++/5/bits/vector.tcc **** 			           _GLIBCXX_MOVE(*(this->_M_impl._M_finish
 1275              		.loc 8 333 0
 1276 0051 488B8528 		movq	-216(%rbp), %rax
 1276      FFFFFF
 1277 0058 488B4008 		movq	8(%rax), %rax
 332:/usr/include/c++/5/bits/vector.tcc **** 			           _GLIBCXX_MOVE(*(this->_M_impl._M_finish
 1278              		.loc 8 332 0
 1279 005c 488D5080 		leaq	-128(%rax), %rdx
 1280 0060 488B8528 		movq	-216(%rbp), %rax
 1280      FFFFFF
 1281 0067 488B4808 		movq	8(%rax), %rcx
 1282 006b 488B8528 		movq	-216(%rbp), %rax
 1282      FFFFFF
 1283 0072 4889CE   		movq	%rcx, %rsi
 1284 0075 4889C7   		movq	%rax, %rdi
 1285              	.LEHB27:
 1286 0078 E8000000 		call	_ZN9__gnu_cxx14__alloc_traitsISaIN8UnitTest18DeferredTestResultEEE9constructIS2_EEvRS3_PS2_RK
 1286      00
 334:/usr/include/c++/5/bits/vector.tcc **** 				                   - 1)));
 335:/usr/include/c++/5/bits/vector.tcc **** 	  ++this->_M_impl._M_finish;
 1287              		.loc 8 335 0
 1288 007d 488B8528 		movq	-216(%rbp), %rax
 1288      FFFFFF
 1289 0084 488B4008 		movq	8(%rax), %rax
 1290 0088 488D9080 		leaq	128(%rax), %rdx
 1290      000000
 1291 008f 488B8528 		movq	-216(%rbp), %rax
 1291      FFFFFF
 1292 0096 48895008 		movq	%rdx, 8(%rax)
 336:/usr/include/c++/5/bits/vector.tcc **** #if __cplusplus < 201103L
 337:/usr/include/c++/5/bits/vector.tcc **** 	  _Tp __x_copy = __x;
 1293              		.loc 8 337 0
 1294 009a 488B9518 		movq	-232(%rbp), %rdx
 1294      FFFFFF
 1295 00a1 488D8560 		leaq	-160(%rbp), %rax
 1295      FFFFFF
 1296 00a8 4889D6   		movq	%rdx, %rsi
 1297 00ab 4889C7   		movq	%rax, %rdi
 1298 00ae E8000000 		call	_ZN8UnitTest18DeferredTestResultC1ERKS0_@PLT
 1298      00
 1299              	.LEHE27:
 338:/usr/include/c++/5/bits/vector.tcc **** #endif
 339:/usr/include/c++/5/bits/vector.tcc **** 	  _GLIBCXX_MOVE_BACKWARD3(__position.base(),
 1300              		.loc 8 339 0
 1301 00b3 488B8528 		movq	-216(%rbp), %rax
 1301      FFFFFF
 1302 00ba 488B4008 		movq	8(%rax), %rax
 1303 00be 4C8D6080 		leaq	-128(%rax), %r12
 1304 00c2 488B8528 		movq	-216(%rbp), %rax
 1304      FFFFFF
 1305 00c9 488B4008 		movq	8(%rax), %rax
 1306 00cd 488D9800 		leaq	-256(%rax), %rbx
 1306      FFFFFF
 1307 00d4 488D8520 		leaq	-224(%rbp), %rax
 1307      FFFFFF
 1308 00db 4889C7   		movq	%rax, %rdi
 1309 00de E8000000 		call	_ZNK9__gnu_cxx17__normal_iteratorIPN8UnitTest18DeferredTestResultESt6vectorIS2_SaIS2_EEE4base
 1309      00
 1310 00e3 488B00   		movq	(%rax), %rax
 1311 00e6 4C89E2   		movq	%r12, %rdx
 1312 00e9 4889DE   		movq	%rbx, %rsi
 1313 00ec 4889C7   		movq	%rax, %rdi
 1314              	.LEHB28:
 1315 00ef E8000000 		call	_ZSt13copy_backwardIPN8UnitTest18DeferredTestResultES2_ET0_T_S4_S3_@PLT
 1315      00
 340:/usr/include/c++/5/bits/vector.tcc **** 				  this->_M_impl._M_finish - 2,
 341:/usr/include/c++/5/bits/vector.tcc **** 				  this->_M_impl._M_finish - 1);
 342:/usr/include/c++/5/bits/vector.tcc **** #if __cplusplus < 201103L
 343:/usr/include/c++/5/bits/vector.tcc **** 	  *__position = __x_copy;
 1316              		.loc 8 343 0
 1317 00f4 488D8520 		leaq	-224(%rbp), %rax
 1317      FFFFFF
 1318 00fb 4889C7   		movq	%rax, %rdi
 1319 00fe E8000000 		call	_ZNK9__gnu_cxx17__normal_iteratorIPN8UnitTest18DeferredTestResultESt6vectorIS2_SaIS2_EEEdeEv@
 1319      00
 1320 0103 4889C2   		movq	%rax, %rdx
 1321 0106 488D8560 		leaq	-160(%rbp), %rax
 1321      FFFFFF
 1322 010d 4889C6   		movq	%rax, %rsi
 1323 0110 4889D7   		movq	%rdx, %rdi
 1324 0113 E8000000 		call	_ZN8UnitTest18DeferredTestResultaSERKS0_@PLT
 1324      00
 1325              	.LEHE28:
 337:/usr/include/c++/5/bits/vector.tcc **** #endif
 1326              		.loc 8 337 0
 1327 0118 488D8560 		leaq	-160(%rbp), %rax
 1327      FFFFFF
 1328 011f 4889C7   		movq	%rax, %rdi
 1329              	.LEHB29:
 1330 0122 E8000000 		call	_ZN8UnitTest18DeferredTestResultD1Ev@PLT
 1330      00
 1331              	.LBE14:
 1332              	.LBE13:
 344:/usr/include/c++/5/bits/vector.tcc **** #else
 345:/usr/include/c++/5/bits/vector.tcc **** 	  *__position = _Tp(std::forward<_Args>(__args)...);
 346:/usr/include/c++/5/bits/vector.tcc **** #endif
 347:/usr/include/c++/5/bits/vector.tcc **** 	}
 348:/usr/include/c++/5/bits/vector.tcc ****       else
 349:/usr/include/c++/5/bits/vector.tcc **** 	{
 350:/usr/include/c++/5/bits/vector.tcc **** 	  const size_type __len =
 351:/usr/include/c++/5/bits/vector.tcc **** 	    _M_check_len(size_type(1), "vector::_M_insert_aux");
 352:/usr/include/c++/5/bits/vector.tcc **** 	  const size_type __elems_before = __position - begin();
 353:/usr/include/c++/5/bits/vector.tcc **** 	  pointer __new_start(this->_M_allocate(__len));
 354:/usr/include/c++/5/bits/vector.tcc **** 	  pointer __new_finish(__new_start);
 355:/usr/include/c++/5/bits/vector.tcc **** 	  __try
 356:/usr/include/c++/5/bits/vector.tcc **** 	    {
 357:/usr/include/c++/5/bits/vector.tcc **** 	      // The order of the three operations is dictated by the C++0x
 358:/usr/include/c++/5/bits/vector.tcc **** 	      // case, where the moves could alter a new element belonging
 359:/usr/include/c++/5/bits/vector.tcc **** 	      // to the existing vector.  This is an issue only for callers
 360:/usr/include/c++/5/bits/vector.tcc **** 	      // taking the element by const lvalue ref (see 23.1/13).
 361:/usr/include/c++/5/bits/vector.tcc **** 	      _Alloc_traits::construct(this->_M_impl,
 362:/usr/include/c++/5/bits/vector.tcc **** 		                       __new_start + __elems_before,
 363:/usr/include/c++/5/bits/vector.tcc **** #if __cplusplus >= 201103L
 364:/usr/include/c++/5/bits/vector.tcc **** 				       std::forward<_Args>(__args)...);
 365:/usr/include/c++/5/bits/vector.tcc **** #else
 366:/usr/include/c++/5/bits/vector.tcc **** 	                               __x);
 367:/usr/include/c++/5/bits/vector.tcc **** #endif
 368:/usr/include/c++/5/bits/vector.tcc **** 	      __new_finish = pointer();
 369:/usr/include/c++/5/bits/vector.tcc **** 
 370:/usr/include/c++/5/bits/vector.tcc **** 	      __new_finish
 371:/usr/include/c++/5/bits/vector.tcc **** 		= std::__uninitialized_move_if_noexcept_a
 372:/usr/include/c++/5/bits/vector.tcc **** 		(this->_M_impl._M_start, __position.base(),
 373:/usr/include/c++/5/bits/vector.tcc **** 		 __new_start, _M_get_Tp_allocator());
 374:/usr/include/c++/5/bits/vector.tcc **** 
 375:/usr/include/c++/5/bits/vector.tcc **** 	      ++__new_finish;
 376:/usr/include/c++/5/bits/vector.tcc **** 
 377:/usr/include/c++/5/bits/vector.tcc **** 	      __new_finish
 378:/usr/include/c++/5/bits/vector.tcc **** 		= std::__uninitialized_move_if_noexcept_a
 379:/usr/include/c++/5/bits/vector.tcc **** 		(__position.base(), this->_M_impl._M_finish,
 380:/usr/include/c++/5/bits/vector.tcc **** 		 __new_finish, _M_get_Tp_allocator());
 381:/usr/include/c++/5/bits/vector.tcc **** 	    }
 382:/usr/include/c++/5/bits/vector.tcc ****           __catch(...)
 383:/usr/include/c++/5/bits/vector.tcc **** 	    {
 384:/usr/include/c++/5/bits/vector.tcc **** 	      if (!__new_finish)
 385:/usr/include/c++/5/bits/vector.tcc **** 		_Alloc_traits::destroy(this->_M_impl,
 386:/usr/include/c++/5/bits/vector.tcc **** 		                       __new_start + __elems_before);
 387:/usr/include/c++/5/bits/vector.tcc **** 	      else
 388:/usr/include/c++/5/bits/vector.tcc **** 		std::_Destroy(__new_start, __new_finish, _M_get_Tp_allocator());
 389:/usr/include/c++/5/bits/vector.tcc **** 	      _M_deallocate(__new_start, __len);
 390:/usr/include/c++/5/bits/vector.tcc **** 	      __throw_exception_again;
 391:/usr/include/c++/5/bits/vector.tcc **** 	    }
 392:/usr/include/c++/5/bits/vector.tcc **** 	  std::_Destroy(this->_M_impl._M_start, this->_M_impl._M_finish,
 393:/usr/include/c++/5/bits/vector.tcc **** 			_M_get_Tp_allocator());
 394:/usr/include/c++/5/bits/vector.tcc **** 	  _M_deallocate(this->_M_impl._M_start,
 395:/usr/include/c++/5/bits/vector.tcc **** 			this->_M_impl._M_end_of_storage
 396:/usr/include/c++/5/bits/vector.tcc **** 			- this->_M_impl._M_start);
 397:/usr/include/c++/5/bits/vector.tcc **** 	  this->_M_impl._M_start = __new_start;
 398:/usr/include/c++/5/bits/vector.tcc **** 	  this->_M_impl._M_finish = __new_finish;
 399:/usr/include/c++/5/bits/vector.tcc **** 	  this->_M_impl._M_end_of_storage = __new_start + __len;
 400:/usr/include/c++/5/bits/vector.tcc **** 	}
 401:/usr/include/c++/5/bits/vector.tcc ****     }
 1333              		.loc 8 401 0
 1334 0127 E9D90200 		jmp	.L65
 1334      00
 1335              	.L66:
 1336              	.LBB18:
 1337              	.LBB15:
 351:/usr/include/c++/5/bits/vector.tcc **** 	  const size_type __elems_before = __position - begin();
 1338              		.loc 8 351 0
 1339 012c 488B8528 		movq	-216(%rbp), %rax
 1339      FFFFFF
 1340 0133 488D1500 		leaq	.LC0(%rip), %rdx
 1340      000000
 1341 013a BE010000 		movl	$1, %esi
 1341      00
 1342 013f 4889C7   		movq	%rax, %rdi
 1343 0142 E8000000 		call	_ZNKSt6vectorIN8UnitTest18DeferredTestResultESaIS1_EE12_M_check_lenEmPKc@PLT
 1343      00
 1344 0147 48898548 		movq	%rax, -184(%rbp)
 1344      FFFFFF
 352:/usr/include/c++/5/bits/vector.tcc **** 	  pointer __new_start(this->_M_allocate(__len));
 1345              		.loc 8 352 0
 1346 014e 488B8528 		movq	-216(%rbp), %rax
 1346      FFFFFF
 1347 0155 4889C7   		movq	%rax, %rdi
 1348 0158 E8000000 		call	_ZNSt6vectorIN8UnitTest18DeferredTestResultESaIS1_EE5beginEv@PLT
 1348      00
 1349 015d 48898530 		movq	%rax, -208(%rbp)
 1349      FFFFFF
 1350 0164 488D9530 		leaq	-208(%rbp), %rdx
 1350      FFFFFF
 1351 016b 488D8520 		leaq	-224(%rbp), %rax
 1351      FFFFFF
 1352 0172 4889D6   		movq	%rdx, %rsi
 1353 0175 4889C7   		movq	%rax, %rdi
 1354 0178 E8000000 		call	_ZN9__gnu_cxxmiIPN8UnitTest18DeferredTestResultESt6vectorIS2_SaIS2_EEEENS_17__normal_iterator
 1354      00
 1355 017d 48898550 		movq	%rax, -176(%rbp)
 1355      FFFFFF
 353:/usr/include/c++/5/bits/vector.tcc **** 	  pointer __new_finish(__new_start);
 1356              		.loc 8 353 0
 1357 0184 488B8528 		movq	-216(%rbp), %rax
 1357      FFFFFF
 1358 018b 488B9548 		movq	-184(%rbp), %rdx
 1358      FFFFFF
 1359 0192 4889D6   		movq	%rdx, %rsi
 1360 0195 4889C7   		movq	%rax, %rdi
 1361 0198 E8000000 		call	_ZNSt12_Vector_baseIN8UnitTest18DeferredTestResultESaIS1_EE11_M_allocateEm@PLT
 1361      00
 1362              	.LEHE29:
 1363 019d 48898558 		movq	%rax, -168(%rbp)
 1363      FFFFFF
 354:/usr/include/c++/5/bits/vector.tcc **** 	  __try
 1364              		.loc 8 354 0
 1365 01a4 488B8558 		movq	-168(%rbp), %rax
 1365      FFFFFF
 1366 01ab 48898540 		movq	%rax, -192(%rbp)
 1366      FFFFFF
 361:/usr/include/c++/5/bits/vector.tcc **** 		                       __new_start + __elems_before,
 1367              		.loc 8 361 0
 1368 01b2 488B8550 		movq	-176(%rbp), %rax
 1368      FFFFFF
 1369 01b9 48C1E007 		salq	$7, %rax
 1370 01bd 4889C2   		movq	%rax, %rdx
 1371 01c0 488B8558 		movq	-168(%rbp), %rax
 1371      FFFFFF
 1372 01c7 488D0C02 		leaq	(%rdx,%rax), %rcx
 1373 01cb 488B8528 		movq	-216(%rbp), %rax
 1373      FFFFFF
 1374 01d2 488B9518 		movq	-232(%rbp), %rdx
 1374      FFFFFF
 1375 01d9 4889CE   		movq	%rcx, %rsi
 1376 01dc 4889C7   		movq	%rax, %rdi
 1377              	.LEHB30:
 1378 01df E8000000 		call	_ZN9__gnu_cxx14__alloc_traitsISaIN8UnitTest18DeferredTestResultEEE9constructIS2_EEvRS3_PS2_RK
 1378      00
 368:/usr/include/c++/5/bits/vector.tcc **** 
 1379              		.loc 8 368 0
 1380 01e4 48C78540 		movq	$0, -192(%rbp)
 1380      FFFFFF00 
 1380      000000
 373:/usr/include/c++/5/bits/vector.tcc **** 
 1381              		.loc 8 373 0
 1382 01ef 488B8528 		movq	-216(%rbp), %rax
 1382      FFFFFF
 1383 01f6 4889C7   		movq	%rax, %rdi
 1384 01f9 E8000000 		call	_ZNSt12_Vector_baseIN8UnitTest18DeferredTestResultESaIS1_EE19_M_get_Tp_allocatorEv@PLT
 1384      00
 1385 01fe 4889C3   		movq	%rax, %rbx
 372:/usr/include/c++/5/bits/vector.tcc **** 		 __new_start, _M_get_Tp_allocator());
 1386              		.loc 8 372 0
 1387 0201 488D8520 		leaq	-224(%rbp), %rax
 1387      FFFFFF
 1388 0208 4889C7   		movq	%rax, %rdi
 1389 020b E8000000 		call	_ZNK9__gnu_cxx17__normal_iteratorIPN8UnitTest18DeferredTestResultESt6vectorIS2_SaIS2_EEE4base
 1389      00
 1390 0210 488B30   		movq	(%rax), %rsi
 1391 0213 488B8528 		movq	-216(%rbp), %rax
 1391      FFFFFF
 1392 021a 488B00   		movq	(%rax), %rax
 370:/usr/include/c++/5/bits/vector.tcc **** 		= std::__uninitialized_move_if_noexcept_a
 1393              		.loc 8 370 0
 1394 021d 488B9558 		movq	-168(%rbp), %rdx
 1394      FFFFFF
 1395 0224 4889D9   		movq	%rbx, %rcx
 1396 0227 4889C7   		movq	%rax, %rdi
 1397 022a E8000000 		call	_ZSt34__uninitialized_move_if_noexcept_aIPN8UnitTest18DeferredTestResultES2_SaIS1_EET0_T_S5_S
 1397      00
 1398 022f 48898540 		movq	%rax, -192(%rbp)
 1398      FFFFFF
 375:/usr/include/c++/5/bits/vector.tcc **** 
 1399              		.loc 8 375 0
 1400 0236 4883AD40 		subq	$-128, -192(%rbp)
 1400      FFFFFF80 
 380:/usr/include/c++/5/bits/vector.tcc **** 	    }
 1401              		.loc 8 380 0
 1402 023e 488B8528 		movq	-216(%rbp), %rax
 1402      FFFFFF
 1403 0245 4889C7   		movq	%rax, %rdi
 1404 0248 E8000000 		call	_ZNSt12_Vector_baseIN8UnitTest18DeferredTestResultESaIS1_EE19_M_get_Tp_allocatorEv@PLT
 1404      00
 1405 024d 4989C4   		movq	%rax, %r12
 379:/usr/include/c++/5/bits/vector.tcc **** 		 __new_finish, _M_get_Tp_allocator());
 1406              		.loc 8 379 0
 1407 0250 488B8528 		movq	-216(%rbp), %rax
 1407      FFFFFF
 1408 0257 488B5808 		movq	8(%rax), %rbx
 1409 025b 488D8520 		leaq	-224(%rbp), %rax
 1409      FFFFFF
 1410 0262 4889C7   		movq	%rax, %rdi
 1411 0265 E8000000 		call	_ZNK9__gnu_cxx17__normal_iteratorIPN8UnitTest18DeferredTestResultESt6vectorIS2_SaIS2_EEE4base
 1411      00
 1412 026a 488B00   		movq	(%rax), %rax
 377:/usr/include/c++/5/bits/vector.tcc **** 		= std::__uninitialized_move_if_noexcept_a
 1413              		.loc 8 377 0
 1414 026d 488B9540 		movq	-192(%rbp), %rdx
 1414      FFFFFF
 1415 0274 4C89E1   		movq	%r12, %rcx
 1416 0277 4889DE   		movq	%rbx, %rsi
 1417 027a 4889C7   		movq	%rax, %rdi
 1418 027d E8000000 		call	_ZSt34__uninitialized_move_if_noexcept_aIPN8UnitTest18DeferredTestResultES2_SaIS1_EET0_T_S5_S
 1418      00
 1419              	.LEHE30:
 377:/usr/include/c++/5/bits/vector.tcc **** 		= std::__uninitialized_move_if_noexcept_a
 1420              		.loc 8 377 0 is_stmt 0 discriminator 1
 1421 0282 48898540 		movq	%rax, -192(%rbp)
 1421      FFFFFF
 393:/usr/include/c++/5/bits/vector.tcc **** 	  _M_deallocate(this->_M_impl._M_start,
 1422              		.loc 8 393 0 is_stmt 1 discriminator 1
 1423 0289 488B8528 		movq	-216(%rbp), %rax
 1423      FFFFFF
 1424 0290 4889C7   		movq	%rax, %rdi
 1425 0293 E8000000 		call	_ZNSt12_Vector_baseIN8UnitTest18DeferredTestResultESaIS1_EE19_M_get_Tp_allocatorEv@PLT
 1425      00
 1426 0298 4889C2   		movq	%rax, %rdx
 392:/usr/include/c++/5/bits/vector.tcc **** 			_M_get_Tp_allocator());
 1427              		.loc 8 392 0 discriminator 1
 1428 029b 488B8528 		movq	-216(%rbp), %rax
 1428      FFFFFF
 1429 02a2 488B4808 		movq	8(%rax), %rcx
 1430 02a6 488B8528 		movq	-216(%rbp), %rax
 1430      FFFFFF
 1431 02ad 488B00   		movq	(%rax), %rax
 1432 02b0 4889CE   		movq	%rcx, %rsi
 1433 02b3 4889C7   		movq	%rax, %rdi
 1434              	.LEHB31:
 1435 02b6 E8000000 		call	_ZSt8_DestroyIPN8UnitTest18DeferredTestResultES1_EvT_S3_RSaIT0_E@PLT
 1435      00
 396:/usr/include/c++/5/bits/vector.tcc **** 	  this->_M_impl._M_start = __new_start;
 1436              		.loc 8 396 0 discriminator 1
 1437 02bb 488B8528 		movq	-216(%rbp), %rax
 1437      FFFFFF
 1438 02c2 488B4010 		movq	16(%rax), %rax
 394:/usr/include/c++/5/bits/vector.tcc **** 			this->_M_impl._M_end_of_storage
 1439              		.loc 8 394 0 discriminator 1
 1440 02c6 4889C2   		movq	%rax, %rdx
 396:/usr/include/c++/5/bits/vector.tcc **** 	  this->_M_impl._M_start = __new_start;
 1441              		.loc 8 396 0 discriminator 1
 1442 02c9 488B8528 		movq	-216(%rbp), %rax
 1442      FFFFFF
 1443 02d0 488B00   		movq	(%rax), %rax
 394:/usr/include/c++/5/bits/vector.tcc **** 			this->_M_impl._M_end_of_storage
 1444              		.loc 8 394 0 discriminator 1
 1445 02d3 4829C2   		subq	%rax, %rdx
 1446 02d6 4889D0   		movq	%rdx, %rax
 1447 02d9 48C1F807 		sarq	$7, %rax
 1448 02dd 4889C2   		movq	%rax, %rdx
 1449 02e0 488B8528 		movq	-216(%rbp), %rax
 1449      FFFFFF
 1450 02e7 488B08   		movq	(%rax), %rcx
 1451 02ea 488B8528 		movq	-216(%rbp), %rax
 1451      FFFFFF
 1452 02f1 4889CE   		movq	%rcx, %rsi
 1453 02f4 4889C7   		movq	%rax, %rdi
 1454 02f7 E8000000 		call	_ZNSt12_Vector_baseIN8UnitTest18DeferredTestResultESaIS1_EE13_M_deallocateEPS1_m@PLT
 1454      00
 1455              	.LEHE31:
 397:/usr/include/c++/5/bits/vector.tcc **** 	  this->_M_impl._M_finish = __new_finish;
 1456              		.loc 8 397 0 discriminator 1
 1457 02fc 488B8528 		movq	-216(%rbp), %rax
 1457      FFFFFF
 1458 0303 488B9558 		movq	-168(%rbp), %rdx
 1458      FFFFFF
 1459 030a 488910   		movq	%rdx, (%rax)
 398:/usr/include/c++/5/bits/vector.tcc **** 	  this->_M_impl._M_end_of_storage = __new_start + __len;
 1460              		.loc 8 398 0 discriminator 1
 1461 030d 488B8528 		movq	-216(%rbp), %rax
 1461      FFFFFF
 1462 0314 488B9540 		movq	-192(%rbp), %rdx
 1462      FFFFFF
 1463 031b 48895008 		movq	%rdx, 8(%rax)
 399:/usr/include/c++/5/bits/vector.tcc **** 	}
 1464              		.loc 8 399 0 discriminator 1
 1465 031f 488B8548 		movq	-184(%rbp), %rax
 1465      FFFFFF
 1466 0326 48C1E007 		salq	$7, %rax
 1467 032a 4889C2   		movq	%rax, %rdx
 1468 032d 488B8558 		movq	-168(%rbp), %rax
 1468      FFFFFF
 1469 0334 4801C2   		addq	%rax, %rdx
 1470 0337 488B8528 		movq	-216(%rbp), %rax
 1470      FFFFFF
 1471 033e 48895010 		movq	%rdx, 16(%rax)
 1472              	.LBE15:
 1473              	.LBE18:
 1474              		.loc 8 401 0 discriminator 1
 1475 0342 E9BE0000 		jmp	.L65
 1475      00
 1476              	.L74:
 1477 0347 4889C3   		movq	%rax, %rbx
 1478              	.LBB19:
 1479              	.LBB16:
 337:/usr/include/c++/5/bits/vector.tcc **** #endif
 1480              		.loc 8 337 0
 1481 034a 488D8560 		leaq	-160(%rbp), %rax
 1481      FFFFFF
 1482 0351 4889C7   		movq	%rax, %rdi
 1483 0354 E8000000 		call	_ZN8UnitTest18DeferredTestResultD1Ev@PLT
 1483      00
 1484 0359 4889D8   		movq	%rbx, %rax
 1485 035c 4889C7   		movq	%rax, %rdi
 1486              	.LEHB32:
 1487 035f E8000000 		call	_Unwind_Resume@PLT
 1487      00
 1488              	.LEHE32:
 1489              	.L75:
 1490              	.LBE16:
 1491              	.LBB17:
 382:/usr/include/c++/5/bits/vector.tcc **** 	    {
 1492              		.loc 8 382 0
 1493 0364 4889C7   		movq	%rax, %rdi
 1494 0367 E8000000 		call	__cxa_begin_catch@PLT
 1494      00
 384:/usr/include/c++/5/bits/vector.tcc **** 		_Alloc_traits::destroy(this->_M_impl,
 1495              		.loc 8 384 0
 1496 036c 4883BD40 		cmpq	$0, -192(%rbp)
 1496      FFFFFF00 
 1497 0374 752C     		jne	.L70
 385:/usr/include/c++/5/bits/vector.tcc **** 		                       __new_start + __elems_before);
 1498              		.loc 8 385 0
 1499 0376 488B8550 		movq	-176(%rbp), %rax
 1499      FFFFFF
 1500 037d 48C1E007 		salq	$7, %rax
 1501 0381 4889C2   		movq	%rax, %rdx
 1502 0384 488B8558 		movq	-168(%rbp), %rax
 1502      FFFFFF
 1503 038b 4801C2   		addq	%rax, %rdx
 1504 038e 488B8528 		movq	-216(%rbp), %rax
 1504      FFFFFF
 1505 0395 4889D6   		movq	%rdx, %rsi
 1506 0398 4889C7   		movq	%rax, %rdi
 1507              	.LEHB33:
 1508 039b E8000000 		call	_ZN9__gnu_cxx14__alloc_traitsISaIN8UnitTest18DeferredTestResultEEE7destroyERS3_PS2_@PLT
 1508      00
 1509 03a0 EB2B     		jmp	.L71
 1510              	.L70:
 388:/usr/include/c++/5/bits/vector.tcc **** 	      _M_deallocate(__new_start, __len);
 1511              		.loc 8 388 0
 1512 03a2 488B8528 		movq	-216(%rbp), %rax
 1512      FFFFFF
 1513 03a9 4889C7   		movq	%rax, %rdi
 1514 03ac E8000000 		call	_ZNSt12_Vector_baseIN8UnitTest18DeferredTestResultESaIS1_EE19_M_get_Tp_allocatorEv@PLT
 1514      00
 1515 03b1 4889C2   		movq	%rax, %rdx
 1516 03b4 488B8D40 		movq	-192(%rbp), %rcx
 1516      FFFFFF
 1517 03bb 488B8558 		movq	-168(%rbp), %rax
 1517      FFFFFF
 1518 03c2 4889CE   		movq	%rcx, %rsi
 1519 03c5 4889C7   		movq	%rax, %rdi
 1520 03c8 E8000000 		call	_ZSt8_DestroyIPN8UnitTest18DeferredTestResultES1_EvT_S3_RSaIT0_E@PLT
 1520      00
 1521              	.L71:
 389:/usr/include/c++/5/bits/vector.tcc **** 	      __throw_exception_again;
 1522              		.loc 8 389 0
 1523 03cd 488B8528 		movq	-216(%rbp), %rax
 1523      FFFFFF
 1524 03d4 488B9548 		movq	-184(%rbp), %rdx
 1524      FFFFFF
 1525 03db 488B8D58 		movq	-168(%rbp), %rcx
 1525      FFFFFF
 1526 03e2 4889CE   		movq	%rcx, %rsi
 1527 03e5 4889C7   		movq	%rax, %rdi
 1528 03e8 E8000000 		call	_ZNSt12_Vector_baseIN8UnitTest18DeferredTestResultESaIS1_EE13_M_deallocateEPS1_m@PLT
 1528      00
 390:/usr/include/c++/5/bits/vector.tcc **** 	    }
 1529              		.loc 8 390 0
 1530 03ed E8000000 		call	__cxa_rethrow@PLT
 1530      00
 1531              	.LEHE33:
 1532              	.L76:
 1533 03f2 4889C3   		movq	%rax, %rbx
 382:/usr/include/c++/5/bits/vector.tcc **** 	    {
 1534              		.loc 8 382 0
 1535 03f5 E8000000 		call	__cxa_end_catch@PLT
 1535      00
 1536 03fa 4889D8   		movq	%rbx, %rax
 1537 03fd 4889C7   		movq	%rax, %rdi
 1538              	.LEHB34:
 1539 0400 E8000000 		call	_Unwind_Resume@PLT
 1539      00
 1540              	.LEHE34:
 1541              	.L65:
 1542              	.LBE17:
 1543              	.LBE19:
 1544              		.loc 8 401 0
 1545 0405 488B45E8 		movq	-24(%rbp), %rax
 1546 0409 64483304 		xorq	%fs:40, %rax
 1546      25280000 
 1546      00
 1547 0412 7405     		je	.L73
 1548 0414 E8000000 		call	__stack_chk_fail@PLT
 1548      00
 1549              	.L73:
 1550 0419 4881C4E0 		addq	$224, %rsp
 1550      000000
 1551 0420 5B       		popq	%rbx
 1552 0421 415C     		popq	%r12
 1553 0423 5D       		popq	%rbp
 1554              		.cfi_def_cfa 7, 8
 1555 0424 C3       		ret
 1556              		.cfi_endproc
 1557              	.LFE914:
 1558              		.section	.gcc_except_table
 1559 007d 000000   		.align 4
 1560              	.LLSDA914:
 1561 0080 FF       		.byte	0xff
 1562 0081 9B       		.byte	0x9b
 1563 0082 35       		.uleb128 .LLSDATT914-.LLSDATTD914
 1564              	.LLSDATTD914:
 1565 0083 01       		.byte	0x1
 1566 0084 2B       		.uleb128 .LLSDACSE914-.LLSDACSB914
 1567              	.LLSDACSB914:
 1568 0085 78       		.uleb128 .LEHB27-.LFB914
 1569 0086 3B       		.uleb128 .LEHE27-.LEHB27
 1570 0087 00       		.uleb128 0
 1571 0088 00       		.uleb128 0
 1572 0089 EF01     		.uleb128 .LEHB28-.LFB914
 1573 008b 29       		.uleb128 .LEHE28-.LEHB28
 1574 008c C706     		.uleb128 .L74-.LFB914
 1575 008e 00       		.uleb128 0
 1576 008f A202     		.uleb128 .LEHB29-.LFB914
 1577 0091 7B       		.uleb128 .LEHE29-.LEHB29
 1578 0092 00       		.uleb128 0
 1579 0093 00       		.uleb128 0
 1580 0094 DF03     		.uleb128 .LEHB30-.LFB914
 1581 0096 A301     		.uleb128 .LEHE30-.LEHB30
 1582 0098 E406     		.uleb128 .L75-.LFB914
 1583 009a 01       		.uleb128 0x1
 1584 009b B605     		.uleb128 .LEHB31-.LFB914
 1585 009d 46       		.uleb128 .LEHE31-.LEHB31
 1586 009e 00       		.uleb128 0
 1587 009f 00       		.uleb128 0
 1588 00a0 DF06     		.uleb128 .LEHB32-.LFB914
 1589 00a2 05       		.uleb128 .LEHE32-.LEHB32
 1590 00a3 00       		.uleb128 0
 1591 00a4 00       		.uleb128 0
 1592 00a5 9B07     		.uleb128 .LEHB33-.LFB914
 1593 00a7 57       		.uleb128 .LEHE33-.LEHB33
 1594 00a8 F207     		.uleb128 .L76-.LFB914
 1595 00aa 00       		.uleb128 0
 1596 00ab 8008     		.uleb128 .LEHB34-.LFB914
 1597 00ad 05       		.uleb128 .LEHE34-.LEHB34
 1598 00ae 00       		.uleb128 0
 1599 00af 00       		.uleb128 0
 1600              	.LLSDACSE914:
 1601 00b0 01       		.byte	0x1
 1602 00b1 00       		.byte	0
 1603 00b2 0000     		.align 4
 1604 00b4 00000000 		.long	0
 1605              	
 1606              	.LLSDATT914:
 1607              		.section	.text._ZNSt6vectorIN8UnitTest18DeferredTestResultESaIS1_EE13_M_insert_auxEN9__gnu_cxx17__
 1609              		.section	.text._ZNSt6vectorIN8UnitTest18DeferredTestResultESaIS1_EE3endEv,"axG",@progbits,_ZNSt6ve
 1610              		.align 2
 1611              		.weak	_ZNSt6vectorIN8UnitTest18DeferredTestResultESaIS1_EE3endEv
 1613              	_ZNSt6vectorIN8UnitTest18DeferredTestResultESaIS1_EE3endEv:
 1614              	.LFB919:
 565:/usr/include/c++/5/bits/stl_vector.h ****       { return iterator(this->_M_impl._M_finish); }
 1615              		.loc 5 565 0
 1616              		.cfi_startproc
 1617 0000 55       		pushq	%rbp
 1618              		.cfi_def_cfa_offset 16
 1619              		.cfi_offset 6, -16
 1620 0001 4889E5   		movq	%rsp, %rbp
 1621              		.cfi_def_cfa_register 6
 1622 0004 4883EC20 		subq	$32, %rsp
 1623 0008 48897DE8 		movq	%rdi, -24(%rbp)
 565:/usr/include/c++/5/bits/stl_vector.h ****       { return iterator(this->_M_impl._M_finish); }
 1624              		.loc 5 565 0
 1625 000c 64488B04 		movq	%fs:40, %rax
 1625      25280000 
 1625      00
 1626 0015 488945F8 		movq	%rax, -8(%rbp)
 1627 0019 31C0     		xorl	%eax, %eax
 566:/usr/include/c++/5/bits/stl_vector.h **** 
 1628              		.loc 5 566 0
 1629 001b 488B45E8 		movq	-24(%rbp), %rax
 1630 001f 488D5008 		leaq	8(%rax), %rdx
 1631 0023 488D45F0 		leaq	-16(%rbp), %rax
 1632 0027 4889D6   		movq	%rdx, %rsi
 1633 002a 4889C7   		movq	%rax, %rdi
 1634 002d E8000000 		call	_ZN9__gnu_cxx17__normal_iteratorIPN8UnitTest18DeferredTestResultESt6vectorIS2_SaIS2_EEEC1ERKS
 1634      00
 1635 0032 488B45F0 		movq	-16(%rbp), %rax
 1636 0036 488B4DF8 		movq	-8(%rbp), %rcx
 1637 003a 6448330C 		xorq	%fs:40, %rcx
 1637      25280000 
 1637      00
 1638 0043 7405     		je	.L79
 1639 0045 E8000000 		call	__stack_chk_fail@PLT
 1639      00
 1640              	.L79:
 1641 004a C9       		leave
 1642              		.cfi_def_cfa 7, 8
 1643 004b C3       		ret
 1644              		.cfi_endproc
 1645              	.LFE919:
 1647              		.section	.text._ZNK9__gnu_cxx17__normal_iteratorIPN8UnitTest18DeferredTestResultESt6vectorIS2_SaIS
 1648              		.align 2
 1649              		.weak	_ZNK9__gnu_cxx17__normal_iteratorIPN8UnitTest18DeferredTestResultESt6vectorIS2_SaIS2_EEEmiEl
 1651              	_ZNK9__gnu_cxx17__normal_iteratorIPN8UnitTest18DeferredTestResultESt6vectorIS2_SaIS2_EEEmiEl:
 1652              	.LFB920:
 1653              		.file 9 "/usr/include/c++/5/bits/stl_iterator.h"
   1:/usr/include/c++/5/bits/stl_iterator.h **** // Iterators -*- C++ -*-
   2:/usr/include/c++/5/bits/stl_iterator.h **** 
   3:/usr/include/c++/5/bits/stl_iterator.h **** // Copyright (C) 2001-2015 Free Software Foundation, Inc.
   4:/usr/include/c++/5/bits/stl_iterator.h **** //
   5:/usr/include/c++/5/bits/stl_iterator.h **** // This file is part of the GNU ISO C++ Library.  This library is free
   6:/usr/include/c++/5/bits/stl_iterator.h **** // software; you can redistribute it and/or modify it under the
   7:/usr/include/c++/5/bits/stl_iterator.h **** // terms of the GNU General Public License as published by the
   8:/usr/include/c++/5/bits/stl_iterator.h **** // Free Software Foundation; either version 3, or (at your option)
   9:/usr/include/c++/5/bits/stl_iterator.h **** // any later version.
  10:/usr/include/c++/5/bits/stl_iterator.h **** 
  11:/usr/include/c++/5/bits/stl_iterator.h **** // This library is distributed in the hope that it will be useful,
  12:/usr/include/c++/5/bits/stl_iterator.h **** // but WITHOUT ANY WARRANTY; without even the implied warranty of
  13:/usr/include/c++/5/bits/stl_iterator.h **** // MERCHANTABILITY or FITNESS FOR A PARTICULAR PURPOSE.  See the
  14:/usr/include/c++/5/bits/stl_iterator.h **** // GNU General Public License for more details.
  15:/usr/include/c++/5/bits/stl_iterator.h **** 
  16:/usr/include/c++/5/bits/stl_iterator.h **** // Under Section 7 of GPL version 3, you are granted additional
  17:/usr/include/c++/5/bits/stl_iterator.h **** // permissions described in the GCC Runtime Library Exception, version
  18:/usr/include/c++/5/bits/stl_iterator.h **** // 3.1, as published by the Free Software Foundation.
  19:/usr/include/c++/5/bits/stl_iterator.h **** 
  20:/usr/include/c++/5/bits/stl_iterator.h **** // You should have received a copy of the GNU General Public License and
  21:/usr/include/c++/5/bits/stl_iterator.h **** // a copy of the GCC Runtime Library Exception along with this program;
  22:/usr/include/c++/5/bits/stl_iterator.h **** // see the files COPYING3 and COPYING.RUNTIME respectively.  If not, see
  23:/usr/include/c++/5/bits/stl_iterator.h **** // <http://www.gnu.org/licenses/>.
  24:/usr/include/c++/5/bits/stl_iterator.h **** 
  25:/usr/include/c++/5/bits/stl_iterator.h **** /*
  26:/usr/include/c++/5/bits/stl_iterator.h ****  *
  27:/usr/include/c++/5/bits/stl_iterator.h ****  * Copyright (c) 1994
  28:/usr/include/c++/5/bits/stl_iterator.h ****  * Hewlett-Packard Company
  29:/usr/include/c++/5/bits/stl_iterator.h ****  *
  30:/usr/include/c++/5/bits/stl_iterator.h ****  * Permission to use, copy, modify, distribute and sell this software
  31:/usr/include/c++/5/bits/stl_iterator.h ****  * and its documentation for any purpose is hereby granted without fee,
  32:/usr/include/c++/5/bits/stl_iterator.h ****  * provided that the above copyright notice appear in all copies and
  33:/usr/include/c++/5/bits/stl_iterator.h ****  * that both that copyright notice and this permission notice appear
  34:/usr/include/c++/5/bits/stl_iterator.h ****  * in supporting documentation.  Hewlett-Packard Company makes no
  35:/usr/include/c++/5/bits/stl_iterator.h ****  * representations about the suitability of this software for any
  36:/usr/include/c++/5/bits/stl_iterator.h ****  * purpose.  It is provided "as is" without express or implied warranty.
  37:/usr/include/c++/5/bits/stl_iterator.h ****  *
  38:/usr/include/c++/5/bits/stl_iterator.h ****  *
  39:/usr/include/c++/5/bits/stl_iterator.h ****  * Copyright (c) 1996-1998
  40:/usr/include/c++/5/bits/stl_iterator.h ****  * Silicon Graphics Computer Systems, Inc.
  41:/usr/include/c++/5/bits/stl_iterator.h ****  *
  42:/usr/include/c++/5/bits/stl_iterator.h ****  * Permission to use, copy, modify, distribute and sell this software
  43:/usr/include/c++/5/bits/stl_iterator.h ****  * and its documentation for any purpose is hereby granted without fee,
  44:/usr/include/c++/5/bits/stl_iterator.h ****  * provided that the above copyright notice appear in all copies and
  45:/usr/include/c++/5/bits/stl_iterator.h ****  * that both that copyright notice and this permission notice appear
  46:/usr/include/c++/5/bits/stl_iterator.h ****  * in supporting documentation.  Silicon Graphics makes no
  47:/usr/include/c++/5/bits/stl_iterator.h ****  * representations about the suitability of this software for any
  48:/usr/include/c++/5/bits/stl_iterator.h ****  * purpose.  It is provided "as is" without express or implied warranty.
  49:/usr/include/c++/5/bits/stl_iterator.h ****  */
  50:/usr/include/c++/5/bits/stl_iterator.h **** 
  51:/usr/include/c++/5/bits/stl_iterator.h **** /** @file bits/stl_iterator.h
  52:/usr/include/c++/5/bits/stl_iterator.h ****  *  This is an internal header file, included by other library headers.
  53:/usr/include/c++/5/bits/stl_iterator.h ****  *  Do not attempt to use it directly. @headername{iterator}
  54:/usr/include/c++/5/bits/stl_iterator.h ****  *
  55:/usr/include/c++/5/bits/stl_iterator.h ****  *  This file implements reverse_iterator, back_insert_iterator,
  56:/usr/include/c++/5/bits/stl_iterator.h ****  *  front_insert_iterator, insert_iterator, __normal_iterator, and their
  57:/usr/include/c++/5/bits/stl_iterator.h ****  *  supporting functions and overloaded operators.
  58:/usr/include/c++/5/bits/stl_iterator.h ****  */
  59:/usr/include/c++/5/bits/stl_iterator.h **** 
  60:/usr/include/c++/5/bits/stl_iterator.h **** #ifndef _STL_ITERATOR_H
  61:/usr/include/c++/5/bits/stl_iterator.h **** #define _STL_ITERATOR_H 1
  62:/usr/include/c++/5/bits/stl_iterator.h **** 
  63:/usr/include/c++/5/bits/stl_iterator.h **** #include <bits/cpp_type_traits.h>
  64:/usr/include/c++/5/bits/stl_iterator.h **** #include <ext/type_traits.h>
  65:/usr/include/c++/5/bits/stl_iterator.h **** #include <bits/move.h>
  66:/usr/include/c++/5/bits/stl_iterator.h **** #include <bits/ptr_traits.h>
  67:/usr/include/c++/5/bits/stl_iterator.h **** 
  68:/usr/include/c++/5/bits/stl_iterator.h **** namespace std _GLIBCXX_VISIBILITY(default)
  69:/usr/include/c++/5/bits/stl_iterator.h **** {
  70:/usr/include/c++/5/bits/stl_iterator.h **** _GLIBCXX_BEGIN_NAMESPACE_VERSION
  71:/usr/include/c++/5/bits/stl_iterator.h **** 
  72:/usr/include/c++/5/bits/stl_iterator.h ****   /**
  73:/usr/include/c++/5/bits/stl_iterator.h ****    * @addtogroup iterators
  74:/usr/include/c++/5/bits/stl_iterator.h ****    * @{
  75:/usr/include/c++/5/bits/stl_iterator.h ****    */
  76:/usr/include/c++/5/bits/stl_iterator.h **** 
  77:/usr/include/c++/5/bits/stl_iterator.h ****   // 24.4.1 Reverse iterators
  78:/usr/include/c++/5/bits/stl_iterator.h ****   /**
  79:/usr/include/c++/5/bits/stl_iterator.h ****    *  Bidirectional and random access iterators have corresponding reverse
  80:/usr/include/c++/5/bits/stl_iterator.h ****    *  %iterator adaptors that iterate through the data structure in the
  81:/usr/include/c++/5/bits/stl_iterator.h ****    *  opposite direction.  They have the same signatures as the corresponding
  82:/usr/include/c++/5/bits/stl_iterator.h ****    *  iterators.  The fundamental relation between a reverse %iterator and its
  83:/usr/include/c++/5/bits/stl_iterator.h ****    *  corresponding %iterator @c i is established by the identity:
  84:/usr/include/c++/5/bits/stl_iterator.h ****    *  @code
  85:/usr/include/c++/5/bits/stl_iterator.h ****    *      &*(reverse_iterator(i)) == &*(i - 1)
  86:/usr/include/c++/5/bits/stl_iterator.h ****    *  @endcode
  87:/usr/include/c++/5/bits/stl_iterator.h ****    *
  88:/usr/include/c++/5/bits/stl_iterator.h ****    *  <em>This mapping is dictated by the fact that while there is always a
  89:/usr/include/c++/5/bits/stl_iterator.h ****    *  pointer past the end of an array, there might not be a valid pointer
  90:/usr/include/c++/5/bits/stl_iterator.h ****    *  before the beginning of an array.</em> [24.4.1]/1,2
  91:/usr/include/c++/5/bits/stl_iterator.h ****    *
  92:/usr/include/c++/5/bits/stl_iterator.h ****    *  Reverse iterators can be tricky and surprising at first.  Their
  93:/usr/include/c++/5/bits/stl_iterator.h ****    *  semantics make sense, however, and the trickiness is a side effect of
  94:/usr/include/c++/5/bits/stl_iterator.h ****    *  the requirement that the iterators must be safe.
  95:/usr/include/c++/5/bits/stl_iterator.h ****   */
  96:/usr/include/c++/5/bits/stl_iterator.h ****   template<typename _Iterator>
  97:/usr/include/c++/5/bits/stl_iterator.h ****     class reverse_iterator
  98:/usr/include/c++/5/bits/stl_iterator.h ****     : public iterator<typename iterator_traits<_Iterator>::iterator_category,
  99:/usr/include/c++/5/bits/stl_iterator.h **** 		      typename iterator_traits<_Iterator>::value_type,
 100:/usr/include/c++/5/bits/stl_iterator.h **** 		      typename iterator_traits<_Iterator>::difference_type,
 101:/usr/include/c++/5/bits/stl_iterator.h **** 		      typename iterator_traits<_Iterator>::pointer,
 102:/usr/include/c++/5/bits/stl_iterator.h ****                       typename iterator_traits<_Iterator>::reference>
 103:/usr/include/c++/5/bits/stl_iterator.h ****     {
 104:/usr/include/c++/5/bits/stl_iterator.h ****     protected:
 105:/usr/include/c++/5/bits/stl_iterator.h ****       _Iterator current;
 106:/usr/include/c++/5/bits/stl_iterator.h **** 
 107:/usr/include/c++/5/bits/stl_iterator.h ****       typedef iterator_traits<_Iterator>		__traits_type;
 108:/usr/include/c++/5/bits/stl_iterator.h **** 
 109:/usr/include/c++/5/bits/stl_iterator.h ****     public:
 110:/usr/include/c++/5/bits/stl_iterator.h ****       typedef _Iterator					iterator_type;
 111:/usr/include/c++/5/bits/stl_iterator.h ****       typedef typename __traits_type::difference_type	difference_type;
 112:/usr/include/c++/5/bits/stl_iterator.h ****       typedef typename __traits_type::pointer		pointer;
 113:/usr/include/c++/5/bits/stl_iterator.h ****       typedef typename __traits_type::reference		reference;
 114:/usr/include/c++/5/bits/stl_iterator.h **** 
 115:/usr/include/c++/5/bits/stl_iterator.h ****       /**
 116:/usr/include/c++/5/bits/stl_iterator.h ****        *  The default constructor value-initializes member @p current.
 117:/usr/include/c++/5/bits/stl_iterator.h ****        *  If it is a pointer, that means it is zero-initialized.
 118:/usr/include/c++/5/bits/stl_iterator.h ****       */
 119:/usr/include/c++/5/bits/stl_iterator.h ****       // _GLIBCXX_RESOLVE_LIB_DEFECTS
 120:/usr/include/c++/5/bits/stl_iterator.h ****       // 235 No specification of default ctor for reverse_iterator
 121:/usr/include/c++/5/bits/stl_iterator.h ****       reverse_iterator() : current() { }
 122:/usr/include/c++/5/bits/stl_iterator.h **** 
 123:/usr/include/c++/5/bits/stl_iterator.h ****       /**
 124:/usr/include/c++/5/bits/stl_iterator.h ****        *  This %iterator will move in the opposite direction that @p x does.
 125:/usr/include/c++/5/bits/stl_iterator.h ****       */
 126:/usr/include/c++/5/bits/stl_iterator.h ****       explicit
 127:/usr/include/c++/5/bits/stl_iterator.h ****       reverse_iterator(iterator_type __x) : current(__x) { }
 128:/usr/include/c++/5/bits/stl_iterator.h **** 
 129:/usr/include/c++/5/bits/stl_iterator.h ****       /**
 130:/usr/include/c++/5/bits/stl_iterator.h ****        *  The copy constructor is normal.
 131:/usr/include/c++/5/bits/stl_iterator.h ****       */
 132:/usr/include/c++/5/bits/stl_iterator.h ****       reverse_iterator(const reverse_iterator& __x)
 133:/usr/include/c++/5/bits/stl_iterator.h ****       : current(__x.current) { }
 134:/usr/include/c++/5/bits/stl_iterator.h **** 
 135:/usr/include/c++/5/bits/stl_iterator.h ****       /**
 136:/usr/include/c++/5/bits/stl_iterator.h ****        *  A %reverse_iterator across other types can be copied if the
 137:/usr/include/c++/5/bits/stl_iterator.h ****        *  underlying %iterator can be converted to the type of @c current.
 138:/usr/include/c++/5/bits/stl_iterator.h ****       */
 139:/usr/include/c++/5/bits/stl_iterator.h ****       template<typename _Iter>
 140:/usr/include/c++/5/bits/stl_iterator.h ****         reverse_iterator(const reverse_iterator<_Iter>& __x)
 141:/usr/include/c++/5/bits/stl_iterator.h **** 	: current(__x.base()) { }
 142:/usr/include/c++/5/bits/stl_iterator.h **** 
 143:/usr/include/c++/5/bits/stl_iterator.h ****       /**
 144:/usr/include/c++/5/bits/stl_iterator.h ****        *  @return  @c current, the %iterator used for underlying work.
 145:/usr/include/c++/5/bits/stl_iterator.h ****       */
 146:/usr/include/c++/5/bits/stl_iterator.h ****       iterator_type
 147:/usr/include/c++/5/bits/stl_iterator.h ****       base() const
 148:/usr/include/c++/5/bits/stl_iterator.h ****       { return current; }
 149:/usr/include/c++/5/bits/stl_iterator.h **** 
 150:/usr/include/c++/5/bits/stl_iterator.h ****       /**
 151:/usr/include/c++/5/bits/stl_iterator.h ****        *  @return  A reference to the value at @c --current
 152:/usr/include/c++/5/bits/stl_iterator.h ****        *
 153:/usr/include/c++/5/bits/stl_iterator.h ****        *  This requires that @c --current is dereferenceable.
 154:/usr/include/c++/5/bits/stl_iterator.h ****        *
 155:/usr/include/c++/5/bits/stl_iterator.h ****        *  @warning This implementation requires that for an iterator of the
 156:/usr/include/c++/5/bits/stl_iterator.h ****        *           underlying iterator type, @c x, a reference obtained by
 157:/usr/include/c++/5/bits/stl_iterator.h ****        *           @c *x remains valid after @c x has been modified or
 158:/usr/include/c++/5/bits/stl_iterator.h ****        *           destroyed. This is a bug: http://gcc.gnu.org/PR51823
 159:/usr/include/c++/5/bits/stl_iterator.h ****       */
 160:/usr/include/c++/5/bits/stl_iterator.h ****       reference
 161:/usr/include/c++/5/bits/stl_iterator.h ****       operator*() const
 162:/usr/include/c++/5/bits/stl_iterator.h ****       {
 163:/usr/include/c++/5/bits/stl_iterator.h **** 	_Iterator __tmp = current;
 164:/usr/include/c++/5/bits/stl_iterator.h **** 	return *--__tmp;
 165:/usr/include/c++/5/bits/stl_iterator.h ****       }
 166:/usr/include/c++/5/bits/stl_iterator.h **** 
 167:/usr/include/c++/5/bits/stl_iterator.h ****       /**
 168:/usr/include/c++/5/bits/stl_iterator.h ****        *  @return  A pointer to the value at @c --current
 169:/usr/include/c++/5/bits/stl_iterator.h ****        *
 170:/usr/include/c++/5/bits/stl_iterator.h ****        *  This requires that @c --current is dereferenceable.
 171:/usr/include/c++/5/bits/stl_iterator.h ****       */
 172:/usr/include/c++/5/bits/stl_iterator.h ****       pointer
 173:/usr/include/c++/5/bits/stl_iterator.h ****       operator->() const
 174:/usr/include/c++/5/bits/stl_iterator.h ****       { return &(operator*()); }
 175:/usr/include/c++/5/bits/stl_iterator.h **** 
 176:/usr/include/c++/5/bits/stl_iterator.h ****       /**
 177:/usr/include/c++/5/bits/stl_iterator.h ****        *  @return  @c *this
 178:/usr/include/c++/5/bits/stl_iterator.h ****        *
 179:/usr/include/c++/5/bits/stl_iterator.h ****        *  Decrements the underlying iterator.
 180:/usr/include/c++/5/bits/stl_iterator.h ****       */
 181:/usr/include/c++/5/bits/stl_iterator.h ****       reverse_iterator&
 182:/usr/include/c++/5/bits/stl_iterator.h ****       operator++()
 183:/usr/include/c++/5/bits/stl_iterator.h ****       {
 184:/usr/include/c++/5/bits/stl_iterator.h **** 	--current;
 185:/usr/include/c++/5/bits/stl_iterator.h **** 	return *this;
 186:/usr/include/c++/5/bits/stl_iterator.h ****       }
 187:/usr/include/c++/5/bits/stl_iterator.h **** 
 188:/usr/include/c++/5/bits/stl_iterator.h ****       /**
 189:/usr/include/c++/5/bits/stl_iterator.h ****        *  @return  The original value of @c *this
 190:/usr/include/c++/5/bits/stl_iterator.h ****        *
 191:/usr/include/c++/5/bits/stl_iterator.h ****        *  Decrements the underlying iterator.
 192:/usr/include/c++/5/bits/stl_iterator.h ****       */
 193:/usr/include/c++/5/bits/stl_iterator.h ****       reverse_iterator
 194:/usr/include/c++/5/bits/stl_iterator.h ****       operator++(int)
 195:/usr/include/c++/5/bits/stl_iterator.h ****       {
 196:/usr/include/c++/5/bits/stl_iterator.h **** 	reverse_iterator __tmp = *this;
 197:/usr/include/c++/5/bits/stl_iterator.h **** 	--current;
 198:/usr/include/c++/5/bits/stl_iterator.h **** 	return __tmp;
 199:/usr/include/c++/5/bits/stl_iterator.h ****       }
 200:/usr/include/c++/5/bits/stl_iterator.h **** 
